ARM GAS  C:\Users\PCHAUT~1\AppData\Local\Temp\cci5KXXn.s 			page 1


   1              		.cpu cortex-m4
   2              		.eabi_attribute 27, 1
   3              		.eabi_attribute 28, 1
   4              		.eabi_attribute 20, 1
   5              		.eabi_attribute 21, 1
   6              		.eabi_attribute 23, 3
   7              		.eabi_attribute 24, 1
   8              		.eabi_attribute 25, 1
   9              		.eabi_attribute 26, 1
  10              		.eabi_attribute 30, 6
  11              		.eabi_attribute 34, 1
  12              		.eabi_attribute 18, 4
  13              		.file	"aseba_node.c"
  14              		.text
  15              	.Ltext0:
  16              		.cfi_sections	.debug_frame
  17              		.section	.text.NVIC_SystemReset,"ax",%progbits
  18              		.align	1
  19              		.p2align 4,,15
  20              		.syntax unified
  21              		.thumb
  22              		.thumb_func
  23              		.fpu fpv4-sp-d16
  24              		.type	NVIC_SystemReset, %function
  25              	NVIC_SystemReset:
  26              	.LFB107:
  27              		.file 1 "../lib/e-puck2_main-processor/ChibiOS//os/ext/CMSIS/include/core_cm4.h"
  28              		.loc 1 1639 0
  29              		.cfi_startproc
  30              		@ args = 0, pretend = 0, frame = 8
  31              		@ frame_needed = 0, uses_anonymous_args = 0
  32              		@ link register save eliminated.
  33 0000 82B0     		sub	sp, sp, #8
  34              		.cfi_def_cfa_offset 8
  35              		.loc 1 1639 0
  36 0002 084B     		ldr	r3, .L4
  37 0004 1B68     		ldr	r3, [r3]
  38 0006 0193     		str	r3, [sp, #4]
  39              	.LBB6:
  40              	.LBB7:
  41              		.file 2 "../lib/e-puck2_main-processor/ChibiOS//os/ext/CMSIS/include/core_cmInstr.h"
  42              		.loc 2 382 0
  43              		.syntax unified
  44              	@ 382 "../lib/e-puck2_main-processor/ChibiOS//os/ext/CMSIS/include/core_cmInstr.h" 1
  45 0008 BFF34F8F 		dsb
  46              	@ 0 "" 2
  47              		.thumb
  48              		.syntax unified
  49              	.LBE7:
  50              	.LBE6:
  51              		.loc 1 1643 0
  52 000c 064B     		ldr	r3, .L4+4
  53 000e DB68     		ldr	r3, [r3, #12]
  54 0010 03F4E062 		and	r2, r3, #1792
  55              		.loc 1 1642 0
  56 0014 0449     		ldr	r1, .L4+4
  57              		.loc 1 1643 0
ARM GAS  C:\Users\PCHAUT~1\AppData\Local\Temp\cci5KXXn.s 			page 2


  58 0016 054B     		ldr	r3, .L4+8
  59 0018 1343     		orrs	r3, r3, r2
  60              		.loc 1 1642 0
  61 001a CB60     		str	r3, [r1, #12]
  62              	.LBB8:
  63              	.LBB9:
  64              		.loc 2 382 0
  65              		.syntax unified
  66              	@ 382 "../lib/e-puck2_main-processor/ChibiOS//os/ext/CMSIS/include/core_cmInstr.h" 1
  67 001c BFF34F8F 		dsb
  68              	@ 0 "" 2
  69              		.thumb
  70              		.syntax unified
  71              	.L2:
  72              	.LBE9:
  73              	.LBE8:
  74              		.loc 1 1646 0 discriminator 1
  75 0020 FEE7     		b	.L2
  76              	.L5:
  77 0022 00BF     		.align	2
  78              	.L4:
  79 0024 00000000 		.word	__stack_chk_guard
  80 0028 00ED00E0 		.word	-536810240
  81 002c 0400FA05 		.word	100270084
  82              		.cfi_endproc
  83              	.LFE107:
  84              		.size	NVIC_SystemReset, .-NVIC_SystemReset
  85              		.section	.text.chRegSetThreadName,"ax",%progbits
  86              		.align	1
  87              		.p2align 4,,15
  88              		.syntax unified
  89              		.thumb
  90              		.thumb_func
  91              		.fpu fpv4-sp-d16
  92              		.type	chRegSetThreadName, %function
  93              	chRegSetThreadName:
  94              	.LFB176:
  95              		.file 3 "../lib/e-puck2_main-processor/ChibiOS//os/rt/include/chregistry.h"
  96              		.loc 3 132 0
  97              		.cfi_startproc
  98              		@ args = 0, pretend = 0, frame = 16
  99              		@ frame_needed = 0, uses_anonymous_args = 0
 100 0000 00B5     		push	{lr}
 101              		.cfi_def_cfa_offset 4
 102              		.cfi_offset 14, -4
 103 0002 85B0     		sub	sp, sp, #20
 104              		.cfi_def_cfa_offset 24
 105 0004 0190     		str	r0, [sp, #4]
 106              		.loc 3 132 0
 107 0006 094B     		ldr	r3, .L8
 108 0008 1B68     		ldr	r3, [r3]
 109 000a 0393     		str	r3, [sp, #12]
 110              		.loc 3 135 0
 111 000c 084B     		ldr	r3, .L8+4
 112 000e 9B69     		ldr	r3, [r3, #24]
 113 0010 019A     		ldr	r2, [sp, #4]
 114 0012 9A61     		str	r2, [r3, #24]
ARM GAS  C:\Users\PCHAUT~1\AppData\Local\Temp\cci5KXXn.s 			page 3


 115              		.loc 3 139 0
 116 0014 00BF     		nop
 117 0016 054B     		ldr	r3, .L8
 118 0018 039A     		ldr	r2, [sp, #12]
 119 001a 1B68     		ldr	r3, [r3]
 120 001c 9A42     		cmp	r2, r3
 121 001e 01D0     		beq	.L7
 122 0020 FFF7FEFF 		bl	__stack_chk_fail
 123              	.L7:
 124 0024 05B0     		add	sp, sp, #20
 125              		.cfi_def_cfa_offset 4
 126              		@ sp needed
 127 0026 5DF804FB 		ldr	pc, [sp], #4
 128              	.L9:
 129 002a 00BF     		.align	2
 130              	.L8:
 131 002c 00000000 		.word	__stack_chk_guard
 132 0030 00000000 		.word	ch
 133              		.cfi_endproc
 134              	.LFE176:
 135              		.size	chRegSetThreadName, .-chRegSetThreadName
 136              		.global	events_flags
 137              		.section	.bss.events_flags,"aw",%nobits
 138              		.align	2
 139              		.type	events_flags, %object
 140              		.size	events_flags, 4
 141              	events_flags:
 142 0000 00000000 		.space	4
 143              		.section	.bss.vmBytecode,"aw",%nobits
 144              		.align	2
 145              		.type	vmBytecode, %object
 146              		.size	vmBytecode, 3068
 147              	vmBytecode:
 148 0000 00000000 		.space	3068
 148      00000000 
 148      00000000 
 148      00000000 
 148      00000000 
 149              		.section	.bss.vmStack,"aw",%nobits
 150              		.align	2
 151              		.type	vmStack, %object
 152              		.size	vmStack, 256
 153              	vmStack:
 154 0000 00000000 		.space	256
 154      00000000 
 154      00000000 
 154      00000000 
 154      00000000 
 155              		.section	.bss.nodeId_param,"aw",%nobits
 156              		.align	2
 157              		.type	nodeId_param, %object
 158              		.size	nodeId_param, 24
 159              	nodeId_param:
 160 0000 00000000 		.space	24
 160      00000000 
 160      00000000 
 160      00000000 
ARM GAS  C:\Users\PCHAUT~1\AppData\Local\Temp\cci5KXXn.s 			page 4


 160      00000000 
 161              		.global	vmState
 162              		.section	.data.vmState,"aw",%progbits
 163              		.align	2
 164              		.type	vmState, %object
 165              		.size	vmState, 64
 166              	vmState:
 167 0000 0000     		.short	0
 168 0002 FE05     		.short	1534
 169 0004 00000000 		.word	vmBytecode
 170 0008 3B01     		.short	315
 171 000a 0000     		.space	2
 172 000c 00000000 		.word	vmVariables
 173 0010 8000     		.short	128
 174 0012 0000     		.space	2
 175 0014 00000000 		.word	vmStack
 176 0018 0000     		.short	0
 177 001a 0000     		.short	0
 178 001c 0000     		.short	0
 179 001e 0000     		.short	0
 180 0020 00000000 		.space	30
 180      00000000 
 180      00000000 
 180      00000000 
 180      00000000 
 181 003e 0000     		.short	0
 182              		.section	.rodata
 183              		.align	2
 184              	.LC0:
 185 0000 61736562 		.ascii	"aseba\000"
 185      6100
 186              		.section	.text.aseba_vm_thd,"ax",%progbits
 187              		.align	1
 188              		.p2align 4,,15
 189              		.syntax unified
 190              		.thumb
 191              		.thumb_func
 192              		.fpu fpv4-sp-d16
 193              		.type	aseba_vm_thd, %function
 194              	aseba_vm_thd:
 195              	.LFB261:
 196              		.file 4 "../lib/e-puck2_main-processor/src/aseba_vm/aseba_node.c"
 197              		.loc 4 43 0
 198              		.cfi_startproc
 199              		@ args = 0, pretend = 0, frame = 16
 200              		@ frame_needed = 0, uses_anonymous_args = 0
 201 0000 00B5     		push	{lr}
 202              		.cfi_def_cfa_offset 4
 203              		.cfi_offset 14, -4
 204 0002 85B0     		sub	sp, sp, #20
 205              		.cfi_def_cfa_offset 24
 206 0004 0190     		str	r0, [sp, #4]
 207              		.loc 4 43 0
 208 0006 294B     		ldr	r3, .L18
 209 0008 1B68     		ldr	r3, [r3]
 210 000a 0393     		str	r3, [sp, #12]
 211              		.loc 4 46 0
ARM GAS  C:\Users\PCHAUT~1\AppData\Local\Temp\cci5KXXn.s 			page 5


 212 000c 2848     		ldr	r0, .L18+4
 213 000e FFF7FEFF 		bl	chRegSetThreadName
 214              		.loc 4 48 0
 215 0012 4FF6FF71 		movw	r1, #65535
 216 0016 2748     		ldr	r0, .L18+8
 217 0018 FFF7FEFF 		bl	AsebaVMSetupEvent
 218              	.L14:
 219              	.LBB10:
 220              		.loc 4 52 0
 221 001c FFF7FEFF 		bl	chThdYield
 222              		.loc 4 55 0
 223 0020 2448     		ldr	r0, .L18+8
 224 0022 FFF7FEFF 		bl	aseba_read_variables_from_system
 225              		.loc 4 58 0
 226 0026 4FF47A71 		mov	r1, #1000
 227 002a 2248     		ldr	r0, .L18+8
 228 002c FFF7FEFF 		bl	AsebaVMRun
 229              		.loc 4 59 0
 230 0030 2048     		ldr	r0, .L18+8
 231 0032 FFF7FEFF 		bl	AsebaProcessIncomingEvents
 232              		.loc 4 62 0
 233 0036 1F48     		ldr	r0, .L18+8
 234 0038 FFF7FEFF 		bl	aseba_write_variables_to_system
 235              		.loc 4 65 0
 236 003c 1D4B     		ldr	r3, .L18+8
 237 003e 1B8B     		ldrh	r3, [r3, #24]
 238 0040 03F00203 		and	r3, r3, #2
 239 0044 002B     		cmp	r3, #0
 240 0046 2CD1     		bne	.L16
 241              		.loc 4 70 0
 242 0048 1A4B     		ldr	r3, .L18+8
 243 004a 1B8B     		ldrh	r3, [r3, #24]
 244 004c 03F00103 		and	r3, r3, #1
 245 0050 002B     		cmp	r3, #0
 246 0052 28D1     		bne	.L17
 247              		.loc 4 74 0
 248 0054 184B     		ldr	r3, .L18+12
 249 0056 1B68     		ldr	r3, [r3]
 250 0058 1846     		mov	r0, r3
 251 005a FFF7FEFF 		bl	ffs
 252 005e 0346     		mov	r3, r0
 253 0060 013B     		subs	r3, r3, #1
 254 0062 0293     		str	r3, [sp, #8]
 255              		.loc 4 77 0
 256 0064 029B     		ldr	r3, [sp, #8]
 257 0066 B3F1FF3F 		cmp	r3, #-1
 258 006a D7D0     		beq	.L14
 259              		.loc 4 79 0
 260 006c 0122     		movs	r2, #1
 261 006e 029B     		ldr	r3, [sp, #8]
 262 0070 02FA03F3 		lsl	r3, r2, r3
 263 0074 DB43     		mvns	r3, r3
 264 0076 1A46     		mov	r2, r3
 265 0078 0F4B     		ldr	r3, .L18+12
 266 007a 1B68     		ldr	r3, [r3]
 267 007c 1340     		ands	r3, r3, r2
 268 007e 0E4A     		ldr	r2, .L18+12
ARM GAS  C:\Users\PCHAUT~1\AppData\Local\Temp\cci5KXXn.s 			page 6


 269 0080 1360     		str	r3, [r2]
 270              		.loc 4 81 0
 271 0082 0C4B     		ldr	r3, .L18+8
 272 0084 1B88     		ldrh	r3, [r3]
 273 0086 1AB2     		sxth	r2, r3
 274 0088 0C4B     		ldr	r3, .L18+16
 275 008a 5A80     		strh	r2, [r3, #2]	@ movhi
 276              		.loc 4 83 0
 277 008c 029B     		ldr	r3, [sp, #8]
 278 008e 9AB2     		uxth	r2, r3
 279 0090 6FF00103 		mvn	r3, #1
 280 0094 9B1A     		subs	r3, r3, r2
 281 0096 9BB2     		uxth	r3, r3
 282 0098 1946     		mov	r1, r3
 283 009a 0648     		ldr	r0, .L18+8
 284 009c FFF7FEFF 		bl	AsebaVMSetupEvent
 285 00a0 BCE7     		b	.L14
 286              	.L16:
 287              		.loc 4 66 0
 288 00a2 00BF     		nop
 289 00a4 BAE7     		b	.L14
 290              	.L17:
 291              		.loc 4 71 0
 292 00a6 00BF     		nop
 293              	.LBE10:
 294              		.loc 4 50 0
 295 00a8 B8E7     		b	.L14
 296              	.L19:
 297 00aa 00BF     		.align	2
 298              	.L18:
 299 00ac 00000000 		.word	__stack_chk_guard
 300 00b0 00000000 		.word	.LC0
 301 00b4 00000000 		.word	vmState
 302 00b8 00000000 		.word	events_flags
 303 00bc 00000000 		.word	vmVariables
 304              		.cfi_endproc
 305              	.LFE261:
 306              		.size	aseba_vm_thd, .-aseba_vm_thd
 307              		.section	.text.aseba_vm_init,"ax",%progbits
 308              		.align	1
 309              		.p2align 4,,15
 310              		.global	aseba_vm_init
 311              		.syntax unified
 312              		.thumb
 313              		.thumb_func
 314              		.fpu fpv4-sp-d16
 315              		.type	aseba_vm_init, %function
 316              	aseba_vm_init:
 317              	.LFB262:
 318              		.loc 4 89 0
 319              		.cfi_startproc
 320              		@ args = 0, pretend = 0, frame = 16
 321              		@ frame_needed = 0, uses_anonymous_args = 0
 322 0000 00B5     		push	{lr}
 323              		.cfi_def_cfa_offset 4
 324              		.cfi_offset 14, -4
 325 0002 85B0     		sub	sp, sp, #20
ARM GAS  C:\Users\PCHAUT~1\AppData\Local\Temp\cci5KXXn.s 			page 7


 326              		.cfi_def_cfa_offset 24
 327              		.loc 4 89 0
 328 0004 194B     		ldr	r3, .L23
 329 0006 1B68     		ldr	r3, [r3]
 330 0008 0393     		str	r3, [sp, #12]
 331              		.loc 4 92 0
 332 000a 1948     		ldr	r0, .L23+4
 333 000c FFF7FEFF 		bl	parameter_integer_get
 334 0010 0346     		mov	r3, r0
 335 0012 9AB2     		uxth	r2, r3
 336 0014 174B     		ldr	r3, .L23+8
 337 0016 1A80     		strh	r2, [r3]	@ movhi
 338              		.loc 4 94 0
 339 0018 1648     		ldr	r0, .L23+8
 340 001a FFF7FEFF 		bl	AsebaVMInit
 341              		.loc 4 97 0
 342 001e 164B     		ldr	r3, .L23+12
 343 0020 0293     		str	r3, [sp, #8]
 344              		.loc 4 99 0
 345 0022 029B     		ldr	r3, [sp, #8]
 346 0024 1B88     		ldrh	r3, [r3]	@ unaligned
 347 0026 9BB2     		uxth	r3, r3
 348 0028 ADF80630 		strh	r3, [sp, #6]	@ movhi
 349              		.loc 4 101 0
 350 002c 029B     		ldr	r3, [sp, #8]
 351 002e 0233     		adds	r3, r3, #2
 352 0030 0293     		str	r3, [sp, #8]
 353              		.loc 4 104 0
 354 0032 BDF80630 		ldrh	r3, [sp, #6]
 355 0036 4FF6FF72 		movw	r2, #65535
 356 003a 9342     		cmp	r3, r2
 357 003c 07D0     		beq	.L21
 358              		.loc 4 105 0
 359 003e 0D4B     		ldr	r3, .L23+8
 360 0040 5B68     		ldr	r3, [r3, #4]
 361 0042 BDF80620 		ldrh	r2, [sp, #6]
 362 0046 0299     		ldr	r1, [sp, #8]
 363 0048 1846     		mov	r0, r3
 364 004a FFF7FEFF 		bl	memcpy
 365              	.L21:
 366              		.loc 4 108 0
 367 004e 4FF4FA70 		mov	r0, #500
 368 0052 FFF7FEFF 		bl	chThdSleep
 369              		.loc 4 109 0
 370 0056 00BF     		nop
 371 0058 044B     		ldr	r3, .L23
 372 005a 039A     		ldr	r2, [sp, #12]
 373 005c 1B68     		ldr	r3, [r3]
 374 005e 9A42     		cmp	r2, r3
 375 0060 01D0     		beq	.L22
 376 0062 FFF7FEFF 		bl	__stack_chk_fail
 377              	.L22:
 378 0066 05B0     		add	sp, sp, #20
 379              		.cfi_def_cfa_offset 4
 380              		@ sp needed
 381 0068 5DF804FB 		ldr	pc, [sp], #4
 382              	.L24:
ARM GAS  C:\Users\PCHAUT~1\AppData\Local\Temp\cci5KXXn.s 			page 8


 383              		.align	2
 384              	.L23:
 385 006c 00000000 		.word	__stack_chk_guard
 386 0070 00000000 		.word	nodeId_param
 387 0074 00000000 		.word	vmState
 388 0078 00000000 		.word	_aseba_bytecode_start
 389              		.cfi_endproc
 390              	.LFE262:
 391              		.size	aseba_vm_init, .-aseba_vm_init
 392              		.section	.rodata
 393 0006 0000     		.align	2
 394              	.LC1:
 395 0008 696400   		.ascii	"id\000"
 396              		.section	.text.aseba_declare_parameters,"ax",%progbits
 397              		.align	1
 398              		.p2align 4,,15
 399              		.global	aseba_declare_parameters
 400              		.syntax unified
 401              		.thumb
 402              		.thumb_func
 403              		.fpu fpv4-sp-d16
 404              		.type	aseba_declare_parameters, %function
 405              	aseba_declare_parameters:
 406              	.LFB263:
 407              		.loc 4 112 0
 408              		.cfi_startproc
 409              		@ args = 0, pretend = 0, frame = 16
 410              		@ frame_needed = 0, uses_anonymous_args = 0
 411 0000 00B5     		push	{lr}
 412              		.cfi_def_cfa_offset 4
 413              		.cfi_offset 14, -4
 414 0002 85B0     		sub	sp, sp, #20
 415              		.cfi_def_cfa_offset 24
 416 0004 0190     		str	r0, [sp, #4]
 417              		.loc 4 112 0
 418 0006 0B4B     		ldr	r3, .L27
 419 0008 1B68     		ldr	r3, [r3]
 420 000a 0393     		str	r3, [sp, #12]
 421              		.loc 4 113 0
 422 000c 2A23     		movs	r3, #42
 423 000e 0A4A     		ldr	r2, .L27+4
 424 0010 0199     		ldr	r1, [sp, #4]
 425 0012 0A48     		ldr	r0, .L27+8
 426 0014 FFF7FEFF 		bl	parameter_integer_declare_with_default
 427              		.loc 4 115 0
 428 0018 0198     		ldr	r0, [sp, #4]
 429 001a FFF7FEFF 		bl	aseba_variables_init
 430              		.loc 4 116 0
 431 001e 00BF     		nop
 432 0020 044B     		ldr	r3, .L27
 433 0022 039A     		ldr	r2, [sp, #12]
 434 0024 1B68     		ldr	r3, [r3]
 435 0026 9A42     		cmp	r2, r3
 436 0028 01D0     		beq	.L26
 437 002a FFF7FEFF 		bl	__stack_chk_fail
 438              	.L26:
 439 002e 05B0     		add	sp, sp, #20
ARM GAS  C:\Users\PCHAUT~1\AppData\Local\Temp\cci5KXXn.s 			page 9


 440              		.cfi_def_cfa_offset 4
 441              		@ sp needed
 442 0030 5DF804FB 		ldr	pc, [sp], #4
 443              	.L28:
 444              		.align	2
 445              	.L27:
 446 0034 00000000 		.word	__stack_chk_guard
 447 0038 08000000 		.word	.LC1
 448 003c 00000000 		.word	nodeId_param
 449              		.cfi_endproc
 450              	.LFE263:
 451              		.size	aseba_declare_parameters, .-aseba_declare_parameters
 452              		.section	.text.aseba_vm_start,"ax",%progbits
 453              		.align	1
 454              		.p2align 4,,15
 455              		.global	aseba_vm_start
 456              		.syntax unified
 457              		.thumb
 458              		.thumb_func
 459              		.fpu fpv4-sp-d16
 460              		.type	aseba_vm_start, %function
 461              	aseba_vm_start:
 462              	.LFB264:
 463              		.loc 4 119 0
 464              		.cfi_startproc
 465              		@ args = 0, pretend = 0, frame = 8
 466              		@ frame_needed = 0, uses_anonymous_args = 0
 467 0000 00B5     		push	{lr}
 468              		.cfi_def_cfa_offset 4
 469              		.cfi_offset 14, -4
 470 0002 85B0     		sub	sp, sp, #20
 471              		.cfi_def_cfa_offset 24
 472              		.loc 4 119 0
 473 0004 0B4B     		ldr	r3, .L31
 474 0006 1B68     		ldr	r3, [r3]
 475 0008 0393     		str	r3, [sp, #12]
 476              		.loc 4 121 0
 477 000a 0023     		movs	r3, #0
 478 000c 0093     		str	r3, [sp]
 479 000e 0A4B     		ldr	r3, .L31+4
 480 0010 0222     		movs	r2, #2
 481 0012 4FF4AF61 		mov	r1, #1400
 482 0016 0948     		ldr	r0, .L31+8
 483 0018 FFF7FEFF 		bl	chThdCreateStatic
 484              		.loc 4 122 0
 485 001c 00BF     		nop
 486 001e 054B     		ldr	r3, .L31
 487 0020 039A     		ldr	r2, [sp, #12]
 488 0022 1B68     		ldr	r3, [r3]
 489 0024 9A42     		cmp	r2, r3
 490 0026 01D0     		beq	.L30
 491 0028 FFF7FEFF 		bl	__stack_chk_fail
 492              	.L30:
 493 002c 05B0     		add	sp, sp, #20
 494              		.cfi_def_cfa_offset 4
 495              		@ sp needed
 496 002e 5DF804FB 		ldr	pc, [sp], #4
ARM GAS  C:\Users\PCHAUT~1\AppData\Local\Temp\cci5KXXn.s 			page 10


 497              	.L32:
 498 0032 00BF     		.align	2
 499              	.L31:
 500 0034 00000000 		.word	__stack_chk_guard
 501 0038 00000000 		.word	aseba_vm_thd
 502 003c 00000000 		.word	aseba_vm_thd_wa.12171
 503              		.cfi_endproc
 504              	.LFE264:
 505              		.size	aseba_vm_start, .-aseba_vm_start
 506              		.section	.text.AsebaIdle,"ax",%progbits
 507              		.align	1
 508              		.p2align 4,,15
 509              		.global	AsebaIdle
 510              		.syntax unified
 511              		.thumb
 512              		.thumb_func
 513              		.fpu fpv4-sp-d16
 514              		.type	AsebaIdle, %function
 515              	AsebaIdle:
 516              	.LFB265:
 517              		.loc 4 125 0
 518              		.cfi_startproc
 519              		@ args = 0, pretend = 0, frame = 8
 520              		@ frame_needed = 0, uses_anonymous_args = 0
 521 0000 00B5     		push	{lr}
 522              		.cfi_def_cfa_offset 4
 523              		.cfi_offset 14, -4
 524 0002 83B0     		sub	sp, sp, #12
 525              		.cfi_def_cfa_offset 16
 526              		.loc 4 125 0
 527 0004 074B     		ldr	r3, .L35
 528 0006 1B68     		ldr	r3, [r3]
 529 0008 0193     		str	r3, [sp, #4]
 530              		.loc 4 126 0
 531 000a FFF7FEFF 		bl	chThdYield
 532              		.loc 4 127 0
 533 000e 00BF     		nop
 534 0010 044B     		ldr	r3, .L35
 535 0012 019A     		ldr	r2, [sp, #4]
 536 0014 1B68     		ldr	r3, [r3]
 537 0016 9A42     		cmp	r2, r3
 538 0018 01D0     		beq	.L34
 539 001a FFF7FEFF 		bl	__stack_chk_fail
 540              	.L34:
 541 001e 03B0     		add	sp, sp, #12
 542              		.cfi_def_cfa_offset 4
 543              		@ sp needed
 544 0020 5DF804FB 		ldr	pc, [sp], #4
 545              	.L36:
 546              		.align	2
 547              	.L35:
 548 0024 00000000 		.word	__stack_chk_guard
 549              		.cfi_endproc
 550              	.LFE265:
 551              		.size	AsebaIdle, .-AsebaIdle
 552              		.section	.text.AsebaPutVmToSleep,"ax",%progbits
 553              		.align	1
ARM GAS  C:\Users\PCHAUT~1\AppData\Local\Temp\cci5KXXn.s 			page 11


 554              		.p2align 4,,15
 555              		.global	AsebaPutVmToSleep
 556              		.syntax unified
 557              		.thumb
 558              		.thumb_func
 559              		.fpu fpv4-sp-d16
 560              		.type	AsebaPutVmToSleep, %function
 561              	AsebaPutVmToSleep:
 562              	.LFB266:
 563              		.loc 4 130 0
 564              		.cfi_startproc
 565              		@ args = 0, pretend = 0, frame = 16
 566              		@ frame_needed = 0, uses_anonymous_args = 0
 567 0000 00B5     		push	{lr}
 568              		.cfi_def_cfa_offset 4
 569              		.cfi_offset 14, -4
 570 0002 85B0     		sub	sp, sp, #20
 571              		.cfi_def_cfa_offset 24
 572 0004 0190     		str	r0, [sp, #4]
 573              		.loc 4 130 0
 574 0006 094B     		ldr	r3, .L39
 575 0008 1B68     		ldr	r3, [r3]
 576 000a 0393     		str	r3, [sp, #12]
 577              		.loc 4 132 0
 578 000c 4FF47A70 		mov	r0, #1000
 579 0010 FFF7FEFF 		bl	chThdSleep
 580              		.loc 4 133 0
 581 0014 00BF     		nop
 582 0016 054B     		ldr	r3, .L39
 583 0018 039A     		ldr	r2, [sp, #12]
 584 001a 1B68     		ldr	r3, [r3]
 585 001c 9A42     		cmp	r2, r3
 586 001e 01D0     		beq	.L38
 587 0020 FFF7FEFF 		bl	__stack_chk_fail
 588              	.L38:
 589 0024 05B0     		add	sp, sp, #20
 590              		.cfi_def_cfa_offset 4
 591              		@ sp needed
 592 0026 5DF804FB 		ldr	pc, [sp], #4
 593              	.L40:
 594 002a 00BF     		.align	2
 595              	.L39:
 596 002c 00000000 		.word	__stack_chk_guard
 597              		.cfi_endproc
 598              	.LFE266:
 599              		.size	AsebaPutVmToSleep, .-AsebaPutVmToSleep
 600              		.section	.text.AsebaResetIntoBootloader,"ax",%progbits
 601              		.align	1
 602              		.p2align 4,,15
 603              		.global	AsebaResetIntoBootloader
 604              		.syntax unified
 605              		.thumb
 606              		.thumb_func
 607              		.fpu fpv4-sp-d16
 608              		.type	AsebaResetIntoBootloader, %function
 609              	AsebaResetIntoBootloader:
 610              	.LFB267:
ARM GAS  C:\Users\PCHAUT~1\AppData\Local\Temp\cci5KXXn.s 			page 12


 611              		.loc 4 136 0
 612              		.cfi_startproc
 613              		@ args = 0, pretend = 0, frame = 16
 614              		@ frame_needed = 0, uses_anonymous_args = 0
 615 0000 00B5     		push	{lr}
 616              		.cfi_def_cfa_offset 4
 617              		.cfi_offset 14, -4
 618 0002 85B0     		sub	sp, sp, #20
 619              		.cfi_def_cfa_offset 24
 620 0004 0190     		str	r0, [sp, #4]
 621              		.loc 4 136 0
 622 0006 084B     		ldr	r3, .L43
 623 0008 1B68     		ldr	r3, [r3]
 624 000a 0393     		str	r3, [sp, #12]
 625              		.loc 4 138 0
 626 000c FFF7FEFF 		bl	NVIC_SystemReset
 627              		.loc 4 139 0
 628 0010 00BF     		nop
 629 0012 054B     		ldr	r3, .L43
 630 0014 039A     		ldr	r2, [sp, #12]
 631 0016 1B68     		ldr	r3, [r3]
 632 0018 9A42     		cmp	r2, r3
 633 001a 01D0     		beq	.L42
 634 001c FFF7FEFF 		bl	__stack_chk_fail
 635              	.L42:
 636 0020 05B0     		add	sp, sp, #20
 637              		.cfi_def_cfa_offset 4
 638              		@ sp needed
 639 0022 5DF804FB 		ldr	pc, [sp], #4
 640              	.L44:
 641 0026 00BF     		.align	2
 642              	.L43:
 643 0028 00000000 		.word	__stack_chk_guard
 644              		.cfi_endproc
 645              	.LFE267:
 646              		.size	AsebaResetIntoBootloader, .-AsebaResetIntoBootloader
 647              		.section	.rodata
 648 000b 00       		.align	2
 649              	.LC2:
 650 000c 496E7661 		.ascii	"Invalid native function.\000"
 650      6C696420 
 650      6E617469 
 650      76652066 
 650      756E6374 
 651              		.section	.text.AsebaNativeFunction,"ax",%progbits
 652              		.align	1
 653              		.p2align 4,,15
 654              		.global	AsebaNativeFunction
 655              		.syntax unified
 656              		.thumb
 657              		.thumb_func
 658              		.fpu fpv4-sp-d16
 659              		.type	AsebaNativeFunction, %function
 660              	AsebaNativeFunction:
 661              	.LFB268:
 662              		.loc 4 142 0
 663              		.cfi_startproc
ARM GAS  C:\Users\PCHAUT~1\AppData\Local\Temp\cci5KXXn.s 			page 13


 664              		@ args = 0, pretend = 0, frame = 16
 665              		@ frame_needed = 0, uses_anonymous_args = 0
 666 0000 00B5     		push	{lr}
 667              		.cfi_def_cfa_offset 4
 668              		.cfi_offset 14, -4
 669 0002 85B0     		sub	sp, sp, #20
 670              		.cfi_def_cfa_offset 24
 671 0004 0190     		str	r0, [sp, #4]
 672 0006 0B46     		mov	r3, r1
 673 0008 ADF80230 		strh	r3, [sp, #2]	@ movhi
 674              		.loc 4 142 0
 675 000c 0F4B     		ldr	r3, .L50
 676 000e 1B68     		ldr	r3, [r3]
 677 0010 0393     		str	r3, [sp, #12]
 678              		.loc 4 143 0
 679 0012 BDF80220 		ldrh	r2, [sp, #2]
 680 0016 0E4B     		ldr	r3, .L50+4
 681 0018 1B68     		ldr	r3, [r3]
 682 001a 9A42     		cmp	r2, r3
 683 001c 07DA     		bge	.L46
 684              		.loc 4 144 0
 685 001e BDF80230 		ldrh	r3, [sp, #2]
 686 0022 0C4A     		ldr	r2, .L50+8
 687 0024 52F82330 		ldr	r3, [r2, r3, lsl #2]
 688 0028 0198     		ldr	r0, [sp, #4]
 689 002a 9847     		blx	r3
 690              	.LVL0:
 691              		.loc 4 148 0
 692 002c 03E0     		b	.L49
 693              	.L46:
 694              		.loc 4 146 0
 695 002e 0A49     		ldr	r1, .L50+12
 696 0030 0198     		ldr	r0, [sp, #4]
 697 0032 FFF7FEFF 		bl	AsebaVMEmitNodeSpecificError
 698              	.L49:
 699              		.loc 4 148 0
 700 0036 00BF     		nop
 701 0038 044B     		ldr	r3, .L50
 702 003a 039A     		ldr	r2, [sp, #12]
 703 003c 1B68     		ldr	r3, [r3]
 704 003e 9A42     		cmp	r2, r3
 705 0040 01D0     		beq	.L48
 706 0042 FFF7FEFF 		bl	__stack_chk_fail
 707              	.L48:
 708 0046 05B0     		add	sp, sp, #20
 709              		.cfi_def_cfa_offset 4
 710              		@ sp needed
 711 0048 5DF804FB 		ldr	pc, [sp], #4
 712              	.L51:
 713              		.align	2
 714              	.L50:
 715 004c 00000000 		.word	__stack_chk_guard
 716 0050 00000000 		.word	nativeFunctions_length
 717 0054 00000000 		.word	nativeFunctions
 718 0058 0C000000 		.word	.LC2
 719              		.cfi_endproc
 720              	.LFE268:
ARM GAS  C:\Users\PCHAUT~1\AppData\Local\Temp\cci5KXXn.s 			page 14


 721              		.size	AsebaNativeFunction, .-AsebaNativeFunction
 722              		.section	.text.AsebaGetNativeFunctionsDescriptions,"ax",%progbits
 723              		.align	1
 724              		.p2align 4,,15
 725              		.global	AsebaGetNativeFunctionsDescriptions
 726              		.syntax unified
 727              		.thumb
 728              		.thumb_func
 729              		.fpu fpv4-sp-d16
 730              		.type	AsebaGetNativeFunctionsDescriptions, %function
 731              	AsebaGetNativeFunctionsDescriptions:
 732              	.LFB269:
 733              		.loc 4 151 0
 734              		.cfi_startproc
 735              		@ args = 0, pretend = 0, frame = 16
 736              		@ frame_needed = 0, uses_anonymous_args = 0
 737 0000 00B5     		push	{lr}
 738              		.cfi_def_cfa_offset 4
 739              		.cfi_offset 14, -4
 740 0002 85B0     		sub	sp, sp, #20
 741              		.cfi_def_cfa_offset 24
 742 0004 0190     		str	r0, [sp, #4]
 743              		.loc 4 151 0
 744 0006 074B     		ldr	r3, .L55
 745 0008 1B68     		ldr	r3, [r3]
 746 000a 0393     		str	r3, [sp, #12]
 747              		.loc 4 153 0
 748 000c 064B     		ldr	r3, .L55+4
 749              		.loc 4 154 0
 750 000e 1846     		mov	r0, r3
 751 0010 044B     		ldr	r3, .L55
 752 0012 039A     		ldr	r2, [sp, #12]
 753 0014 1B68     		ldr	r3, [r3]
 754 0016 9A42     		cmp	r2, r3
 755 0018 01D0     		beq	.L54
 756 001a FFF7FEFF 		bl	__stack_chk_fail
 757              	.L54:
 758 001e 05B0     		add	sp, sp, #20
 759              		.cfi_def_cfa_offset 4
 760              		@ sp needed
 761 0020 5DF804FB 		ldr	pc, [sp], #4
 762              	.L56:
 763              		.align	2
 764              	.L55:
 765 0024 00000000 		.word	__stack_chk_guard
 766 0028 00000000 		.word	nativeFunctionsDescription
 767              		.cfi_endproc
 768              	.LFE269:
 769              		.size	AsebaGetNativeFunctionsDescriptions, .-AsebaGetNativeFunctionsDescriptions
 770              		.section	.text.AsebaGetVMDescription,"ax",%progbits
 771              		.align	1
 772              		.p2align 4,,15
 773              		.global	AsebaGetVMDescription
 774              		.syntax unified
 775              		.thumb
 776              		.thumb_func
 777              		.fpu fpv4-sp-d16
ARM GAS  C:\Users\PCHAUT~1\AppData\Local\Temp\cci5KXXn.s 			page 15


 778              		.type	AsebaGetVMDescription, %function
 779              	AsebaGetVMDescription:
 780              	.LFB270:
 781              		.loc 4 158 0
 782              		.cfi_startproc
 783              		@ args = 0, pretend = 0, frame = 16
 784              		@ frame_needed = 0, uses_anonymous_args = 0
 785 0000 00B5     		push	{lr}
 786              		.cfi_def_cfa_offset 4
 787              		.cfi_offset 14, -4
 788 0002 85B0     		sub	sp, sp, #20
 789              		.cfi_def_cfa_offset 24
 790 0004 0190     		str	r0, [sp, #4]
 791              		.loc 4 158 0
 792 0006 074B     		ldr	r3, .L60
 793 0008 1B68     		ldr	r3, [r3]
 794 000a 0393     		str	r3, [sp, #12]
 795              		.loc 4 160 0
 796 000c 064B     		ldr	r3, .L60+4
 797              		.loc 4 161 0
 798 000e 1846     		mov	r0, r3
 799 0010 044B     		ldr	r3, .L60
 800 0012 039A     		ldr	r2, [sp, #12]
 801 0014 1B68     		ldr	r3, [r3]
 802 0016 9A42     		cmp	r2, r3
 803 0018 01D0     		beq	.L59
 804 001a FFF7FEFF 		bl	__stack_chk_fail
 805              	.L59:
 806 001e 05B0     		add	sp, sp, #20
 807              		.cfi_def_cfa_offset 4
 808              		@ sp needed
 809 0020 5DF804FB 		ldr	pc, [sp], #4
 810              	.L61:
 811              		.align	2
 812              	.L60:
 813 0024 00000000 		.word	__stack_chk_guard
 814 0028 00000000 		.word	vmDescription
 815              		.cfi_endproc
 816              	.LFE270:
 817              		.size	AsebaGetVMDescription, .-AsebaGetVMDescription
 818              		.section	.text.AsebaGetLocalEventsDescriptions,"ax",%progbits
 819              		.align	1
 820              		.p2align 4,,15
 821              		.global	AsebaGetLocalEventsDescriptions
 822              		.syntax unified
 823              		.thumb
 824              		.thumb_func
 825              		.fpu fpv4-sp-d16
 826              		.type	AsebaGetLocalEventsDescriptions, %function
 827              	AsebaGetLocalEventsDescriptions:
 828              	.LFB271:
 829              		.loc 4 164 0
 830              		.cfi_startproc
 831              		@ args = 0, pretend = 0, frame = 16
 832              		@ frame_needed = 0, uses_anonymous_args = 0
 833 0000 00B5     		push	{lr}
 834              		.cfi_def_cfa_offset 4
ARM GAS  C:\Users\PCHAUT~1\AppData\Local\Temp\cci5KXXn.s 			page 16


 835              		.cfi_offset 14, -4
 836 0002 85B0     		sub	sp, sp, #20
 837              		.cfi_def_cfa_offset 24
 838 0004 0190     		str	r0, [sp, #4]
 839              		.loc 4 164 0
 840 0006 074B     		ldr	r3, .L65
 841 0008 1B68     		ldr	r3, [r3]
 842 000a 0393     		str	r3, [sp, #12]
 843              		.loc 4 166 0
 844 000c 064B     		ldr	r3, .L65+4
 845              		.loc 4 167 0
 846 000e 1846     		mov	r0, r3
 847 0010 044B     		ldr	r3, .L65
 848 0012 039A     		ldr	r2, [sp, #12]
 849 0014 1B68     		ldr	r3, [r3]
 850 0016 9A42     		cmp	r2, r3
 851 0018 01D0     		beq	.L64
 852 001a FFF7FEFF 		bl	__stack_chk_fail
 853              	.L64:
 854 001e 05B0     		add	sp, sp, #20
 855              		.cfi_def_cfa_offset 4
 856              		@ sp needed
 857 0020 5DF804FB 		ldr	pc, [sp], #4
 858              	.L66:
 859              		.align	2
 860              	.L65:
 861 0024 00000000 		.word	__stack_chk_guard
 862 0028 00000000 		.word	localEvents
 863              		.cfi_endproc
 864              	.LFE271:
 865              		.size	AsebaGetLocalEventsDescriptions, .-AsebaGetLocalEventsDescriptions
 866              		.section	.text.AsebaShouldDropPacket,"ax",%progbits
 867              		.align	1
 868              		.p2align 4,,15
 869              		.global	AsebaShouldDropPacket
 870              		.syntax unified
 871              		.thumb
 872              		.thumb_func
 873              		.fpu fpv4-sp-d16
 874              		.type	AsebaShouldDropPacket, %function
 875              	AsebaShouldDropPacket:
 876              	.LFB272:
 877              		.loc 4 171 0
 878              		.cfi_startproc
 879              		@ args = 0, pretend = 0, frame = 16
 880              		@ frame_needed = 0, uses_anonymous_args = 0
 881 0000 00B5     		push	{lr}
 882              		.cfi_def_cfa_offset 4
 883              		.cfi_offset 14, -4
 884 0002 85B0     		sub	sp, sp, #20
 885              		.cfi_def_cfa_offset 24
 886 0004 0346     		mov	r3, r0
 887 0006 0091     		str	r1, [sp]
 888 0008 ADF80630 		strh	r3, [sp, #6]	@ movhi
 889              		.loc 4 171 0
 890 000c 0E4B     		ldr	r3, .L71
 891 000e 1B68     		ldr	r3, [r3]
ARM GAS  C:\Users\PCHAUT~1\AppData\Local\Temp\cci5KXXn.s 			page 17


 892 0010 0393     		str	r3, [sp, #12]
 893              		.loc 4 173 0
 894 0012 FFF7FEFF 		bl	aseba_is_bridge
 895 0016 0346     		mov	r3, r0
 896 0018 002B     		cmp	r3, #0
 897 001a 01D0     		beq	.L68
 898              		.loc 4 174 0
 899 001c 0023     		movs	r3, #0
 900 001e 07E0     		b	.L69
 901              	.L68:
 902              		.loc 4 177 0
 903 0020 BDF80630 		ldrh	r3, [sp, #6]
 904 0024 009A     		ldr	r2, [sp]
 905 0026 1946     		mov	r1, r3
 906 0028 0848     		ldr	r0, .L71+4
 907 002a FFF7FEFF 		bl	AsebaVMShouldDropPacket
 908 002e 0346     		mov	r3, r0
 909              	.L69:
 910              		.loc 4 178 0
 911 0030 1846     		mov	r0, r3
 912 0032 054B     		ldr	r3, .L71
 913 0034 039A     		ldr	r2, [sp, #12]
 914 0036 1B68     		ldr	r3, [r3]
 915 0038 9A42     		cmp	r2, r3
 916 003a 01D0     		beq	.L70
 917 003c FFF7FEFF 		bl	__stack_chk_fail
 918              	.L70:
 919 0040 05B0     		add	sp, sp, #20
 920              		.cfi_def_cfa_offset 4
 921              		@ sp needed
 922 0042 5DF804FB 		ldr	pc, [sp], #4
 923              	.L72:
 924 0046 00BF     		.align	2
 925              	.L71:
 926 0048 00000000 		.word	__stack_chk_guard
 927 004c 00000000 		.word	vmState
 928              		.cfi_endproc
 929              	.LFE272:
 930              		.size	AsebaShouldDropPacket, .-AsebaShouldDropPacket
 931              		.section	.text.AsebaWriteBytecode,"ax",%progbits
 932              		.align	1
 933              		.p2align 4,,15
 934              		.global	AsebaWriteBytecode
 935              		.syntax unified
 936              		.thumb
 937              		.thumb_func
 938              		.fpu fpv4-sp-d16
 939              		.type	AsebaWriteBytecode, %function
 940              	AsebaWriteBytecode:
 941              	.LFB273:
 942              		.loc 4 181 0
 943              		.cfi_startproc
 944              		@ args = 0, pretend = 0, frame = 16
 945              		@ frame_needed = 0, uses_anonymous_args = 0
 946 0000 00B5     		push	{lr}
 947              		.cfi_def_cfa_offset 4
 948              		.cfi_offset 14, -4
ARM GAS  C:\Users\PCHAUT~1\AppData\Local\Temp\cci5KXXn.s 			page 18


 949 0002 85B0     		sub	sp, sp, #20
 950              		.cfi_def_cfa_offset 24
 951 0004 0190     		str	r0, [sp, #4]
 952              		.loc 4 181 0
 953 0006 124B     		ldr	r3, .L75
 954 0008 1B68     		ldr	r3, [r3]
 955 000a 0393     		str	r3, [sp, #12]
 956              		.loc 4 184 0
 957 000c FFF7FEFF 		bl	flash_unlock
 958              		.loc 4 185 0
 959 0010 1048     		ldr	r0, .L75+4
 960 0012 FFF7FEFF 		bl	flash_sector_erase
 961              		.loc 4 186 0
 962 0016 019B     		ldr	r3, [sp, #4]
 963 0018 0233     		adds	r3, r3, #2
 964 001a 0222     		movs	r2, #2
 965 001c 1946     		mov	r1, r3
 966 001e 0D48     		ldr	r0, .L75+4
 967 0020 FFF7FEFF 		bl	flash_write
 968              		.loc 4 187 0
 969 0024 0C48     		ldr	r0, .L75+8
 970 0026 019B     		ldr	r3, [sp, #4]
 971 0028 5968     		ldr	r1, [r3, #4]
 972 002a 019B     		ldr	r3, [sp, #4]
 973 002c 5B88     		ldrh	r3, [r3, #2]
 974 002e 1A46     		mov	r2, r3
 975 0030 FFF7FEFF 		bl	flash_write
 976              		.loc 4 188 0
 977 0034 FFF7FEFF 		bl	flash_lock
 978              		.loc 4 189 0
 979 0038 00BF     		nop
 980 003a 054B     		ldr	r3, .L75
 981 003c 039A     		ldr	r2, [sp, #12]
 982 003e 1B68     		ldr	r3, [r3]
 983 0040 9A42     		cmp	r2, r3
 984 0042 01D0     		beq	.L74
 985 0044 FFF7FEFF 		bl	__stack_chk_fail
 986              	.L74:
 987 0048 05B0     		add	sp, sp, #20
 988              		.cfi_def_cfa_offset 4
 989              		@ sp needed
 990 004a 5DF804FB 		ldr	pc, [sp], #4
 991              	.L76:
 992 004e 00BF     		.align	2
 993              	.L75:
 994 0050 00000000 		.word	__stack_chk_guard
 995 0054 00000000 		.word	_aseba_bytecode_start
 996 0058 02000000 		.word	_aseba_bytecode_start+2
 997              		.cfi_endproc
 998              	.LFE273:
 999              		.size	AsebaWriteBytecode, .-AsebaWriteBytecode
 1000              		.section	.bss.aseba_vm_thd_wa.12171,"aw",%nobits
 1001              		.align	3
 1002              		.type	aseba_vm_thd_wa.12171, %object
 1003              		.size	aseba_vm_thd_wa.12171, 1400
 1004              	aseba_vm_thd_wa.12171:
 1005 0000 00000000 		.space	1400
ARM GAS  C:\Users\PCHAUT~1\AppData\Local\Temp\cci5KXXn.s 			page 19


 1005      00000000 
 1005      00000000 
 1005      00000000 
 1005      00000000 
 1006              		.text
 1007              	.Letext0:
 1008              		.file 5 "c:\\users\\pchautems\\documents\\robotiquetp\\eclipse_e-puck2\\tools\\gcc-arm-none-eabi-7
 1009              		.file 6 "c:\\users\\pchautems\\documents\\robotiquetp\\eclipse_e-puck2\\tools\\gcc-arm-none-eabi-7
 1010              		.file 7 "c:\\users\\pchautems\\documents\\robotiquetp\\eclipse_e-puck2\\tools\\gcc-arm-none-eabi-7
 1011              		.file 8 "../lib/e-puck2_main-processor/ChibiOS//os/rt/ports/ARMCMx/compilers/GCC/chtypes.h"
 1012              		.file 9 "../lib/e-puck2_main-processor/ChibiOS//os/rt/include/chsystypes.h"
 1013              		.file 10 "../lib/e-puck2_main-processor/ChibiOS//os/rt/include/chschd.h"
 1014              		.file 11 "../lib/e-puck2_main-processor/ChibiOS//os/ext/CMSIS/ST/system_stm32f4xx.h"
 1015              		.file 12 "../lib/e-puck2_main-processor/ChibiOS//os/ext/CMSIS/ST/stm32f407xx.h"
 1016              		.file 13 "../lib/e-puck2_main-processor/ChibiOS//os/rt/ports/ARMCMx/chcore.h"
 1017              		.file 14 "../lib/e-puck2_main-processor/ChibiOS//os/rt/ports/ARMCMx/chcore_v7m.h"
 1018              		.file 15 "../lib/e-puck2_main-processor/ChibiOS//os/rt/include/chdebug.h"
 1019              		.file 16 "../lib/e-puck2_main-processor/ChibiOS//os/rt/include/chtm.h"
 1020              		.file 17 "../lib/e-puck2_main-processor/ChibiOS//os/rt/include/chstats.h"
 1021              		.file 18 "../lib/e-puck2_main-processor/ChibiOS//os/rt/include/chsem.h"
 1022              		.file 19 "../lib/e-puck2_main-processor/ChibiOS//os/rt/include/chmtx.h"
 1023              		.file 20 "../lib/e-puck2_main-processor/ChibiOS//os/rt/include/chevents.h"
 1024              		.file 21 "../lib/e-puck2_main-processor/ChibiOS//os/rt/include/chqueues.h"
 1025              		.file 22 "../lib/e-puck2_main-processor/ChibiOS//os/hal/ports/STM32/STM32F4xx/stm32_dma.h"
 1026              		.file 23 "../lib/e-puck2_main-processor/ChibiOS//os/hal/include/hal_ioblock.h"
 1027              		.file 24 "../lib/e-puck2_main-processor/ChibiOS//os/hal/ports/STM32/LLD/GPIOv2/pal_lld.h"
 1028              		.file 25 "../lib/e-puck2_main-processor/ChibiOS//os/hal/include/adc.h"
 1029              		.file 26 "../lib/e-puck2_main-processor/ChibiOS//os/hal/ports/STM32/STM32F4xx/adc_lld.h"
 1030              		.file 27 "../lib/e-puck2_main-processor/ChibiOS//os/hal/include/can.h"
 1031              		.file 28 "../lib/e-puck2_main-processor/ChibiOS//os/hal/ports/STM32/LLD/can_lld.h"
 1032              		.file 29 "../lib/e-puck2_main-processor/ChibiOS//os/hal/include/dac.h"
 1033              		.file 30 "../lib/e-puck2_main-processor/ChibiOS//os/hal/ports/STM32/LLD/DACv1/dac_lld.h"
 1034              		.file 31 "../lib/e-puck2_main-processor/ChibiOS//os/hal/include/ext.h"
 1035              		.file 32 "../lib/e-puck2_main-processor/ChibiOS//os/hal/ports/STM32/LLD/ext_lld.h"
 1036              		.file 33 "../lib/e-puck2_main-processor/ChibiOS//os/hal/include/gpt.h"
 1037              		.file 34 "../lib/e-puck2_main-processor/ChibiOS//os/hal/ports/STM32/LLD/TIMv1/gpt_lld.h"
 1038              		.file 35 "../lib/e-puck2_main-processor/ChibiOS//os/hal/ports/STM32/LLD/TIMv1/stm32_tim.h"
 1039              		.file 36 "../lib/e-puck2_main-processor/ChibiOS//os/hal/include/i2c.h"
 1040              		.file 37 "../lib/e-puck2_main-processor/ChibiOS//os/hal/ports/STM32/LLD/I2Cv1/i2c_lld.h"
 1041              		.file 38 "../lib/e-puck2_main-processor/ChibiOS//os/hal/include/i2s.h"
 1042              		.file 39 "../lib/e-puck2_main-processor/ChibiOS//os/hal/ports/STM32/LLD/SPIv1/i2s_lld.h"
 1043              		.file 40 "../lib/e-puck2_main-processor/ChibiOS//os/hal/include/pwm.h"
 1044              		.file 41 "../lib/e-puck2_main-processor/ChibiOS//os/hal/ports/STM32/LLD/TIMv1/pwm_lld.h"
 1045              		.file 42 "../lib/e-puck2_main-processor/ChibiOS//os/hal/include/serial.h"
 1046              		.file 43 "../lib/e-puck2_main-processor/ChibiOS//os/hal/ports/STM32/LLD/USARTv1/serial_lld.h"
 1047              		.file 44 "../lib/e-puck2_main-processor/ChibiOS//os/hal/include/sdc.h"
 1048              		.file 45 "../lib/e-puck2_main-processor/ChibiOS//os/hal/ports/STM32/LLD/sdc_lld.h"
 1049              		.file 46 "../lib/e-puck2_main-processor/ChibiOS//os/hal/include/spi.h"
 1050              		.file 47 "../lib/e-puck2_main-processor/ChibiOS//os/hal/ports/STM32/LLD/SPIv1/spi_lld.h"
 1051              		.file 48 "../lib/e-puck2_main-processor/ChibiOS//os/hal/include/usb.h"
 1052              		.file 49 "../lib/e-puck2_main-processor/ChibiOS//os/hal/ports/STM32/LLD/OTGv1/usb_lld.h"
 1053              		.file 50 "../lib/e-puck2_main-processor/ChibiOS//os/hal/ports/STM32/LLD/OTGv1/stm32_otg.h"
 1054              		.file 51 "../lib/e-puck2_main-processor/ChibiOS//os/hal/include/serial_usb.h"
 1055              		.file 52 "../lib/e-puck2_main-processor/src/usbcfg.h"
 1056              		.file 53 "c:\\users\\pchautems\\documents\\robotiquetp\\eclipse_e-puck2\\tools\\gcc-arm-none-eabi-
 1057              		.file 54 "c:\\users\\pchautems\\documents\\robotiquetp\\eclipse_e-puck2\\tools\\gcc-arm-none-eabi-
 1058              		.file 55 "c:\\users\\pchautems\\documents\\robotiquetp\\eclipse_e-puck2\\tools\\gcc-arm-none-eabi-
ARM GAS  C:\Users\PCHAUT~1\AppData\Local\Temp\cci5KXXn.s 			page 20


 1059              		.file 56 "c:\\users\\pchautems\\documents\\robotiquetp\\eclipse_e-puck2\\tools\\gcc-arm-none-eabi-
 1060              		.file 57 "../lib/e-puck2_main-processor/aseba/common/types.h"
 1061              		.file 58 "../lib/e-puck2_main-processor/aseba/common/consts.h"
 1062              		.file 59 "../lib/e-puck2_main-processor/aseba/transport/buffer/../../vm/vm.h"
 1063              		.file 60 "../lib/e-puck2_main-processor/aseba/transport/buffer/../../vm/natives.h"
 1064              		.file 61 "../lib/e-puck2_main-processor/src/parameter/parameter.h"
 1065              		.file 62 "../lib/e-puck2_main-processor/src/sensors/mpu9250.h"
 1066              		.file 63 "../lib/e-puck2_main-processor/src/leds.h"
 1067              		.file 64 "../lib/e-puck2_main-processor/src/aseba_vm/skel_user.h"
 1068              		.file 65 "../lib/e-puck2_main-processor/src/aseba_vm/aseba_node.h"