ARM GAS  C:\Users\PCHAUT~1\AppData\Local\Temp\cc6G7nv9.s 			page 1


   1              		.cpu cortex-m4
   2              		.eabi_attribute 27, 1
   3              		.eabi_attribute 28, 1
   4              		.eabi_attribute 20, 1
   5              		.eabi_attribute 21, 1
   6              		.eabi_attribute 23, 3
   7              		.eabi_attribute 24, 1
   8              		.eabi_attribute 25, 1
   9              		.eabi_attribute 26, 1
  10              		.eabi_attribute 30, 6
  11              		.eabi_attribute 34, 1
  12              		.eabi_attribute 18, 4
  13              		.file	"aseba_bridge.c"
  14              		.text
  15              	.Ltext0:
  16              		.cfi_sections	.debug_frame
  17              		.section	.text.chRegSetThreadName,"ax",%progbits
  18              		.align	1
  19              		.p2align 4,,15
  20              		.syntax unified
  21              		.thumb
  22              		.thumb_func
  23              		.fpu fpv4-sp-d16
  24              		.type	chRegSetThreadName, %function
  25              	chRegSetThreadName:
  26              	.LFB176:
  27              		.file 1 "../lib/e-puck2_main-processor/ChibiOS//os/rt/include/chregistry.h"
  28              		.loc 1 132 0
  29              		.cfi_startproc
  30              		@ args = 0, pretend = 0, frame = 16
  31              		@ frame_needed = 0, uses_anonymous_args = 0
  32 0000 00B5     		push	{lr}
  33              		.cfi_def_cfa_offset 4
  34              		.cfi_offset 14, -4
  35 0002 85B0     		sub	sp, sp, #20
  36              		.cfi_def_cfa_offset 24
  37 0004 0190     		str	r0, [sp, #4]
  38              		.loc 1 132 0
  39 0006 094B     		ldr	r3, .L3
  40 0008 1B68     		ldr	r3, [r3]
  41 000a 0393     		str	r3, [sp, #12]
  42              		.loc 1 135 0
  43 000c 084B     		ldr	r3, .L3+4
  44 000e 9B69     		ldr	r3, [r3, #24]
  45 0010 019A     		ldr	r2, [sp, #4]
  46 0012 9A61     		str	r2, [r3, #24]
  47              		.loc 1 139 0
  48 0014 00BF     		nop
  49 0016 054B     		ldr	r3, .L3
  50 0018 039A     		ldr	r2, [sp, #12]
  51 001a 1B68     		ldr	r3, [r3]
  52 001c 9A42     		cmp	r2, r3
  53 001e 01D0     		beq	.L2
  54 0020 FFF7FEFF 		bl	__stack_chk_fail
  55              	.L2:
  56 0024 05B0     		add	sp, sp, #20
  57              		.cfi_def_cfa_offset 4
ARM GAS  C:\Users\PCHAUT~1\AppData\Local\Temp\cc6G7nv9.s 			page 2


  58              		@ sp needed
  59 0026 5DF804FB 		ldr	pc, [sp], #4
  60              	.L4:
  61 002a 00BF     		.align	2
  62              	.L3:
  63 002c 00000000 		.word	__stack_chk_guard
  64 0030 00000000 		.word	ch
  65              		.cfi_endproc
  66              	.LFE176:
  67              		.size	chRegSetThreadName, .-chRegSetThreadName
  68              		.section	.bss.is_bridge,"aw",%nobits
  69              		.type	is_bridge, %object
  70              		.size	is_bridge, 1
  71              	is_bridge:
  72 0000 00       		.space	1
  73              		.section	.text.aseba_bridge,"ax",%progbits
  74              		.align	1
  75              		.p2align 4,,15
  76              		.global	aseba_bridge
  77              		.syntax unified
  78              		.thumb
  79              		.thumb_func
  80              		.fpu fpv4-sp-d16
  81              		.type	aseba_bridge, %function
  82              	aseba_bridge:
  83              	.LFB257:
  84              		.file 2 "../lib/e-puck2_main-processor/src/aseba_vm/aseba_bridge.c"
  85              		.loc 2 21 0
  86              		.cfi_startproc
  87              		@ args = 0, pretend = 0, frame = 16
  88              		@ frame_needed = 0, uses_anonymous_args = 0
  89 0000 00B5     		push	{lr}
  90              		.cfi_def_cfa_offset 4
  91              		.cfi_offset 14, -4
  92 0002 87B0     		sub	sp, sp, #28
  93              		.cfi_def_cfa_offset 32
  94 0004 0390     		str	r0, [sp, #12]
  95              		.loc 2 21 0
  96 0006 164B     		ldr	r3, .L7
  97 0008 1B68     		ldr	r3, [r3]
  98 000a 0593     		str	r3, [sp, #20]
  99              		.loc 2 22 0
 100 000c 154B     		ldr	r3, .L7+4
 101 000e 0122     		movs	r2, #1
 102 0010 1A70     		strb	r2, [r3]
 103              		.loc 2 24 0
 104 0012 039B     		ldr	r3, [sp, #12]
 105 0014 0093     		str	r3, [sp]
 106 0016 144B     		ldr	r3, .L7+8
 107 0018 4022     		movs	r2, #64
 108 001a 4FF4AF61 		mov	r1, #1400
 109 001e 1348     		ldr	r0, .L7+12
 110 0020 FFF7FEFF 		bl	chThdCreateStatic
 111              		.loc 2 28 0
 112 0024 039B     		ldr	r3, [sp, #12]
 113 0026 0093     		str	r3, [sp]
 114 0028 114B     		ldr	r3, .L7+16
ARM GAS  C:\Users\PCHAUT~1\AppData\Local\Temp\cc6G7nv9.s 			page 3


 115 002a 4022     		movs	r2, #64
 116 002c 4FF4AF61 		mov	r1, #1400
 117 0030 1048     		ldr	r0, .L7+20
 118 0032 FFF7FEFF 		bl	chThdCreateStatic
 119              		.loc 2 32 0
 120 0036 0023     		movs	r3, #0
 121 0038 0093     		str	r3, [sp]
 122 003a 0F4B     		ldr	r3, .L7+24
 123 003c 4022     		movs	r2, #64
 124 003e 4FF41E71 		mov	r1, #632
 125 0042 0E48     		ldr	r0, .L7+28
 126 0044 FFF7FEFF 		bl	chThdCreateStatic
 127              		.loc 2 34 0
 128 0048 00BF     		nop
 129 004a 054B     		ldr	r3, .L7
 130 004c 059A     		ldr	r2, [sp, #20]
 131 004e 1B68     		ldr	r3, [r3]
 132 0050 9A42     		cmp	r2, r3
 133 0052 01D0     		beq	.L6
 134 0054 FFF7FEFF 		bl	__stack_chk_fail
 135              	.L6:
 136 0058 07B0     		add	sp, sp, #28
 137              		.cfi_def_cfa_offset 4
 138              		@ sp needed
 139 005a 5DF804FB 		ldr	pc, [sp], #4
 140              	.L8:
 141 005e 00BF     		.align	2
 142              	.L7:
 143 0060 00000000 		.word	__stack_chk_guard
 144 0064 00000000 		.word	is_bridge
 145 0068 00000000 		.word	aseba_bridge_uart_to_can
 146 006c 00000000 		.word	uart_to_can_wa.10713
 147 0070 00000000 		.word	aseba_bridge_can_to_uart
 148 0074 00000000 		.word	can_to_uart_wa.10714
 149 0078 00000000 		.word	led_thread
 150 007c 00000000 		.word	led_thread_wa.10715
 151              		.cfi_endproc
 152              	.LFE257:
 153              		.size	aseba_bridge, .-aseba_bridge
 154              		.section	.rodata
 155              		.align	2
 156              	.LC0:
 157 0000 61736562 		.ascii	"aseba uart -> can\000"
 157      61207561 
 157      7274202D 
 157      3E206361 
 157      6E00
 158              		.section	.text.aseba_bridge_uart_to_can,"ax",%progbits
 159              		.align	1
 160              		.p2align 4,,15
 161              		.syntax unified
 162              		.thumb
 163              		.thumb_func
 164              		.fpu fpv4-sp-d16
 165              		.type	aseba_bridge_uart_to_can, %function
 166              	aseba_bridge_uart_to_can:
 167              	.LFB258:
ARM GAS  C:\Users\PCHAUT~1\AppData\Local\Temp\cc6G7nv9.s 			page 4


 168              		.loc 2 37 0
 169              		.cfi_startproc
 170              		@ args = 0, pretend = 0, frame = 544
 171              		@ frame_needed = 0, uses_anonymous_args = 0
 172 0000 00B5     		push	{lr}
 173              		.cfi_def_cfa_offset 4
 174              		.cfi_offset 14, -4
 175 0002 ADF5097D 		sub	sp, sp, #548
 176              		.cfi_def_cfa_offset 552
 177 0006 01AB     		add	r3, sp, #4
 178 0008 1860     		str	r0, [r3]
 179              		.loc 2 37 0
 180 000a 1E4B     		ldr	r3, .L12
 181 000c 1B68     		ldr	r3, [r3]
 182 000e 8793     		str	r3, [sp, #540]
 183              		.loc 2 38 0
 184 0010 1D48     		ldr	r0, .L12+4
 185 0012 FFF7FEFF 		bl	chRegSetThreadName
 186              		.loc 2 39 0
 187 0016 02AB     		add	r3, sp, #8
 188 0018 01AA     		add	r2, sp, #4
 189 001a 1268     		ldr	r2, [r2]
 190 001c 1A60     		str	r2, [r3]
 191              	.L10:
 192              		.loc 2 45 0 discriminator 1
 193 001e 02AB     		add	r3, sp, #8
 194 0020 1B68     		ldr	r3, [r3]
 195 0022 1B68     		ldr	r3, [r3]
 196 0024 5B68     		ldr	r3, [r3, #4]
 197 0026 04A9     		add	r1, sp, #16
 198 0028 02A8     		add	r0, sp, #8
 199 002a 0222     		movs	r2, #2
 200 002c 0068     		ldr	r0, [r0]
 201 002e 9847     		blx	r3
 202              	.LVL0:
 203              		.loc 2 46 0 discriminator 1
 204 0030 02AB     		add	r3, sp, #8
 205 0032 1B68     		ldr	r3, [r3]
 206 0034 1B68     		ldr	r3, [r3]
 207 0036 5B68     		ldr	r3, [r3, #4]
 208 0038 03A9     		add	r1, sp, #12
 209 003a 02A8     		add	r0, sp, #8
 210 003c 0222     		movs	r2, #2
 211 003e 0068     		ldr	r0, [r0]
 212 0040 9847     		blx	r3
 213              	.LVL1:
 214              		.loc 2 47 0 discriminator 1
 215 0042 02AB     		add	r3, sp, #8
 216 0044 1B68     		ldr	r3, [r3]
 217 0046 1B68     		ldr	r3, [r3]
 218 0048 5B68     		ldr	r3, [r3, #4]
 219 004a 04AA     		add	r2, sp, #16
 220 004c 1288     		ldrh	r2, [r2]
 221 004e 0232     		adds	r2, r2, #2
 222 0050 05A9     		add	r1, sp, #20
 223 0052 02A8     		add	r0, sp, #8
 224 0054 0068     		ldr	r0, [r0]
ARM GAS  C:\Users\PCHAUT~1\AppData\Local\Temp\cc6G7nv9.s 			page 5


 225 0056 9847     		blx	r3
 226              	.LVL2:
 227              		.loc 2 49 0 discriminator 1
 228 0058 0C4B     		ldr	r3, .L12+8
 229 005a 5B69     		ldr	r3, [r3, #20]
 230 005c 0B4A     		ldr	r2, .L12+8
 231 005e 83F04003 		eor	r3, r3, #64
 232 0062 5361     		str	r3, [r2, #20]
 233              		.loc 2 51 0 discriminator 1
 234 0064 FFF7FEFF 		bl	aseba_can_lock
 235              		.loc 2 52 0 discriminator 1
 236 0068 04AB     		add	r3, sp, #16
 237 006a 1B88     		ldrh	r3, [r3]
 238 006c 0233     		adds	r3, r3, #2
 239 006e 1946     		mov	r1, r3
 240 0070 03AB     		add	r3, sp, #12
 241 0072 1A88     		ldrh	r2, [r3]
 242 0074 05AB     		add	r3, sp, #20
 243 0076 1846     		mov	r0, r3
 244 0078 FFF7FEFF 		bl	AsebaCanSendSpecificSource
 245              		.loc 2 53 0 discriminator 1
 246 007c FFF7FEFF 		bl	aseba_can_unlock
 247              		.loc 2 45 0 discriminator 1
 248 0080 CDE7     		b	.L10
 249              	.L13:
 250 0082 00BF     		.align	2
 251              	.L12:
 252 0084 00000000 		.word	__stack_chk_guard
 253 0088 00000000 		.word	.LC0
 254 008c 000C0240 		.word	1073875968
 255              		.cfi_endproc
 256              	.LFE258:
 257              		.size	aseba_bridge_uart_to_can, .-aseba_bridge_uart_to_can
 258              		.section	.rodata
 259 0012 0000     		.align	2
 260              	.LC1:
 261 0014 61736562 		.ascii	"aseba can -> uart\000"
 261      61206361 
 261      6E202D3E 
 261      20756172 
 261      7400
 262              		.section	.text.aseba_bridge_can_to_uart,"ax",%progbits
 263              		.align	1
 264              		.p2align 4,,15
 265              		.syntax unified
 266              		.thumb
 267              		.thumb_func
 268              		.fpu fpv4-sp-d16
 269              		.type	aseba_bridge_can_to_uart, %function
 270              	aseba_bridge_can_to_uart:
 271              	.LFB259:
 272              		.loc 2 58 0
 273              		.cfi_startproc
 274              		@ args = 0, pretend = 0, frame = 544
 275              		@ frame_needed = 0, uses_anonymous_args = 0
 276 0000 00B5     		push	{lr}
 277              		.cfi_def_cfa_offset 4
ARM GAS  C:\Users\PCHAUT~1\AppData\Local\Temp\cc6G7nv9.s 			page 6


 278              		.cfi_offset 14, -4
 279 0002 ADF5097D 		sub	sp, sp, #548
 280              		.cfi_def_cfa_offset 552
 281 0006 01AB     		add	r3, sp, #4
 282 0008 1860     		str	r0, [r3]
 283              		.loc 2 58 0
 284 000a 234B     		ldr	r3, .L18
 285 000c 1B68     		ldr	r3, [r3]
 286 000e 8793     		str	r3, [sp, #540]
 287              		.loc 2 59 0
 288 0010 2248     		ldr	r0, .L18+4
 289 0012 FFF7FEFF 		bl	chRegSetThreadName
 290              		.loc 2 60 0
 291 0016 02AB     		add	r3, sp, #8
 292 0018 01AA     		add	r2, sp, #4
 293 001a 1268     		ldr	r2, [r2]
 294 001c 1A60     		str	r2, [r3]
 295              	.L16:
 296              		.loc 2 65 0
 297 001e 03AA     		add	r2, sp, #12
 298 0020 05AB     		add	r3, sp, #20
 299 0022 40F20621 		movw	r1, #518
 300 0026 1846     		mov	r0, r3
 301 0028 FFF7FEFF 		bl	AsebaCanRecv
 302 002c 0346     		mov	r3, r0
 303 002e 1A46     		mov	r2, r3
 304 0030 04AB     		add	r3, sp, #16
 305 0032 1A80     		strh	r2, [r3]	@ movhi
 306              		.loc 2 69 0
 307 0034 04AB     		add	r3, sp, #16
 308 0036 1B88     		ldrh	r3, [r3]
 309 0038 002B     		cmp	r3, #0
 310 003a 28D0     		beq	.L15
 311              		.loc 2 70 0
 312 003c 184B     		ldr	r3, .L18+8
 313 003e 5B69     		ldr	r3, [r3, #20]
 314 0040 174A     		ldr	r2, .L18+8
 315 0042 83F02003 		eor	r3, r3, #32
 316 0046 5361     		str	r3, [r2, #20]
 317              		.loc 2 72 0
 318 0048 04AB     		add	r3, sp, #16
 319 004a 1B88     		ldrh	r3, [r3]
 320 004c 023B     		subs	r3, r3, #2
 321 004e 9AB2     		uxth	r2, r3
 322 0050 04AB     		add	r3, sp, #16
 323 0052 1A80     		strh	r2, [r3]	@ movhi
 324              		.loc 2 74 0
 325 0054 02AB     		add	r3, sp, #8
 326 0056 1B68     		ldr	r3, [r3]
 327 0058 1B68     		ldr	r3, [r3]
 328 005a 1B68     		ldr	r3, [r3]
 329 005c 04A9     		add	r1, sp, #16
 330 005e 02A8     		add	r0, sp, #8
 331 0060 0222     		movs	r2, #2
 332 0062 0068     		ldr	r0, [r0]
 333 0064 9847     		blx	r3
 334              	.LVL3:
ARM GAS  C:\Users\PCHAUT~1\AppData\Local\Temp\cc6G7nv9.s 			page 7


 335              		.loc 2 75 0
 336 0066 02AB     		add	r3, sp, #8
 337 0068 1B68     		ldr	r3, [r3]
 338 006a 1B68     		ldr	r3, [r3]
 339 006c 1B68     		ldr	r3, [r3]
 340 006e 03A9     		add	r1, sp, #12
 341 0070 02A8     		add	r0, sp, #8
 342 0072 0222     		movs	r2, #2
 343 0074 0068     		ldr	r0, [r0]
 344 0076 9847     		blx	r3
 345              	.LVL4:
 346              		.loc 2 76 0
 347 0078 02AB     		add	r3, sp, #8
 348 007a 1B68     		ldr	r3, [r3]
 349 007c 1B68     		ldr	r3, [r3]
 350 007e 1B68     		ldr	r3, [r3]
 351 0080 04AA     		add	r2, sp, #16
 352 0082 1288     		ldrh	r2, [r2]
 353 0084 0232     		adds	r2, r2, #2
 354 0086 05A9     		add	r1, sp, #20
 355 0088 02A8     		add	r0, sp, #8
 356 008a 0068     		ldr	r0, [r0]
 357 008c 9847     		blx	r3
 358              	.LVL5:
 359              	.L15:
 360              		.loc 2 78 0
 361 008e 0120     		movs	r0, #1
 362 0090 FFF7FEFF 		bl	chThdSleep
 363              		.loc 2 65 0
 364 0094 C3E7     		b	.L16
 365              	.L19:
 366 0096 00BF     		.align	2
 367              	.L18:
 368 0098 00000000 		.word	__stack_chk_guard
 369 009c 14000000 		.word	.LC1
 370 00a0 000C0240 		.word	1073875968
 371              		.cfi_endproc
 372              	.LFE259:
 373              		.size	aseba_bridge_can_to_uart, .-aseba_bridge_can_to_uart
 374              		.section	.text.led_thread,"ax",%progbits
 375              		.align	1
 376              		.p2align 4,,15
 377              		.syntax unified
 378              		.thumb
 379              		.thumb_func
 380              		.fpu fpv4-sp-d16
 381              		.type	led_thread, %function
 382              	led_thread:
 383              	.LFB260:
 384              		.loc 2 83 0
 385              		.cfi_startproc
 386              		@ args = 0, pretend = 0, frame = 16
 387              		@ frame_needed = 0, uses_anonymous_args = 0
 388 0000 00B5     		push	{lr}
 389              		.cfi_def_cfa_offset 4
 390              		.cfi_offset 14, -4
 391 0002 85B0     		sub	sp, sp, #20
ARM GAS  C:\Users\PCHAUT~1\AppData\Local\Temp\cc6G7nv9.s 			page 8


 392              		.cfi_def_cfa_offset 24
 393 0004 0190     		str	r0, [sp, #4]
 394              		.loc 2 83 0
 395 0006 094B     		ldr	r3, .L23
 396 0008 1B68     		ldr	r3, [r3]
 397 000a 0393     		str	r3, [sp, #12]
 398              	.L21:
 399              		.loc 2 86 0 discriminator 1
 400 000c 084B     		ldr	r3, .L23+4
 401 000e 2022     		movs	r2, #32
 402 0010 1A83     		strh	r2, [r3, #24]	@ movhi
 403              		.loc 2 87 0 discriminator 1
 404 0012 4FF49670 		mov	r0, #300
 405 0016 FFF7FEFF 		bl	chThdSleep
 406              		.loc 2 88 0 discriminator 1
 407 001a 054B     		ldr	r3, .L23+4
 408 001c 2022     		movs	r2, #32
 409 001e 5A83     		strh	r2, [r3, #26]	@ movhi
 410              		.loc 2 89 0 discriminator 1
 411 0020 4FF49670 		mov	r0, #300
 412 0024 FFF7FEFF 		bl	chThdSleep
 413              		.loc 2 86 0 discriminator 1
 414 0028 F0E7     		b	.L21
 415              	.L24:
 416 002a 00BF     		.align	2
 417              	.L23:
 418 002c 00000000 		.word	__stack_chk_guard
 419 0030 000C0240 		.word	1073875968
 420              		.cfi_endproc
 421              	.LFE260:
 422              		.size	led_thread, .-led_thread
 423              		.section	.text.aseba_is_bridge,"ax",%progbits
 424              		.align	1
 425              		.p2align 4,,15
 426              		.global	aseba_is_bridge
 427              		.syntax unified
 428              		.thumb
 429              		.thumb_func
 430              		.fpu fpv4-sp-d16
 431              		.type	aseba_is_bridge, %function
 432              	aseba_is_bridge:
 433              	.LFB261:
 434              		.loc 2 94 0
 435              		.cfi_startproc
 436              		@ args = 0, pretend = 0, frame = 8
 437              		@ frame_needed = 0, uses_anonymous_args = 0
 438 0000 00B5     		push	{lr}
 439              		.cfi_def_cfa_offset 4
 440              		.cfi_offset 14, -4
 441 0002 83B0     		sub	sp, sp, #12
 442              		.cfi_def_cfa_offset 16
 443              		.loc 2 94 0
 444 0004 074B     		ldr	r3, .L28
 445 0006 1B68     		ldr	r3, [r3]
 446 0008 0193     		str	r3, [sp, #4]
 447              		.loc 2 95 0
 448 000a 074B     		ldr	r3, .L28+4
ARM GAS  C:\Users\PCHAUT~1\AppData\Local\Temp\cc6G7nv9.s 			page 9


 449 000c 1B78     		ldrb	r3, [r3]	@ zero_extendqisi2
 450              		.loc 2 96 0
 451 000e 1846     		mov	r0, r3
 452 0010 044B     		ldr	r3, .L28
 453 0012 019A     		ldr	r2, [sp, #4]
 454 0014 1B68     		ldr	r3, [r3]
 455 0016 9A42     		cmp	r2, r3
 456 0018 01D0     		beq	.L27
 457 001a FFF7FEFF 		bl	__stack_chk_fail
 458              	.L27:
 459 001e 03B0     		add	sp, sp, #12
 460              		.cfi_def_cfa_offset 4
 461              		@ sp needed
 462 0020 5DF804FB 		ldr	pc, [sp], #4
 463              	.L29:
 464              		.align	2
 465              	.L28:
 466 0024 00000000 		.word	__stack_chk_guard
 467 0028 00000000 		.word	is_bridge
 468              		.cfi_endproc
 469              	.LFE261:
 470              		.size	aseba_is_bridge, .-aseba_is_bridge
 471              		.section	.bss.uart_to_can_wa.10713,"aw",%nobits
 472              		.align	3
 473              		.type	uart_to_can_wa.10713, %object
 474              		.size	uart_to_can_wa.10713, 1400
 475              	uart_to_can_wa.10713:
 476 0000 00000000 		.space	1400
 476      00000000 
 476      00000000 
 476      00000000 
 476      00000000 
 477              		.section	.bss.can_to_uart_wa.10714,"aw",%nobits
 478              		.align	3
 479              		.type	can_to_uart_wa.10714, %object
 480              		.size	can_to_uart_wa.10714, 1400
 481              	can_to_uart_wa.10714:
 482 0000 00000000 		.space	1400
 482      00000000 
 482      00000000 
 482      00000000 
 482      00000000 
 483              		.section	.bss.led_thread_wa.10715,"aw",%nobits
 484              		.align	3
 485              		.type	led_thread_wa.10715, %object
 486              		.size	led_thread_wa.10715, 632
 487              	led_thread_wa.10715:
 488 0000 00000000 		.space	632
 488      00000000 
 488      00000000 
 488      00000000 
 488      00000000 
 489              		.text
 490              	.Letext0:
 491              		.file 3 "c:\\users\\pchautems\\documents\\robotiquetp\\eclipse_e-puck2\\tools\\gcc-arm-none-eabi-7
 492              		.file 4 "c:\\users\\pchautems\\documents\\robotiquetp\\eclipse_e-puck2\\tools\\gcc-arm-none-eabi-7
 493              		.file 5 "c:\\users\\pchautems\\documents\\robotiquetp\\eclipse_e-puck2\\tools\\gcc-arm-none-eabi-7
ARM GAS  C:\Users\PCHAUT~1\AppData\Local\Temp\cc6G7nv9.s 			page 10


 494              		.file 6 "../lib/e-puck2_main-processor/ChibiOS//os/rt/ports/ARMCMx/compilers/GCC/chtypes.h"
 495              		.file 7 "../lib/e-puck2_main-processor/ChibiOS//os/rt/include/chsystypes.h"
 496              		.file 8 "../lib/e-puck2_main-processor/ChibiOS//os/rt/include/chschd.h"
 497              		.file 9 "../lib/e-puck2_main-processor/ChibiOS//os/ext/CMSIS/include/core_cm4.h"
 498              		.file 10 "../lib/e-puck2_main-processor/ChibiOS//os/ext/CMSIS/ST/system_stm32f4xx.h"
 499              		.file 11 "../lib/e-puck2_main-processor/ChibiOS//os/ext/CMSIS/ST/stm32f407xx.h"
 500              		.file 12 "../lib/e-puck2_main-processor/ChibiOS//os/rt/ports/ARMCMx/chcore.h"
 501              		.file 13 "../lib/e-puck2_main-processor/ChibiOS//os/rt/ports/ARMCMx/chcore_v7m.h"
 502              		.file 14 "../lib/e-puck2_main-processor/ChibiOS//os/rt/include/chdebug.h"
 503              		.file 15 "../lib/e-puck2_main-processor/ChibiOS//os/rt/include/chtm.h"
 504              		.file 16 "../lib/e-puck2_main-processor/ChibiOS//os/rt/include/chstats.h"
 505              		.file 17 "../lib/e-puck2_main-processor/ChibiOS//os/rt/include/chsem.h"
 506              		.file 18 "../lib/e-puck2_main-processor/ChibiOS//os/rt/include/chmtx.h"
 507              		.file 19 "../lib/e-puck2_main-processor/ChibiOS//os/rt/include/chevents.h"
 508              		.file 20 "../lib/e-puck2_main-processor/ChibiOS//os/rt/include/chqueues.h"
 509              		.file 21 "../lib/e-puck2_main-processor/ChibiOS//os/rt/include/chstreams.h"
 510              		.file 22 "../lib/e-puck2_main-processor/ChibiOS//os/hal/ports/STM32/STM32F4xx/stm32_dma.h"
 511              		.file 23 "../lib/e-puck2_main-processor/ChibiOS//os/hal/include/hal_ioblock.h"
 512              		.file 24 "../lib/e-puck2_main-processor/ChibiOS//os/hal/ports/STM32/LLD/GPIOv2/pal_lld.h"
 513              		.file 25 "../lib/e-puck2_main-processor/ChibiOS//os/hal/include/adc.h"
 514              		.file 26 "../lib/e-puck2_main-processor/ChibiOS//os/hal/ports/STM32/STM32F4xx/adc_lld.h"
 515              		.file 27 "../lib/e-puck2_main-processor/ChibiOS//os/hal/include/can.h"
 516              		.file 28 "../lib/e-puck2_main-processor/ChibiOS//os/hal/ports/STM32/LLD/can_lld.h"
 517              		.file 29 "../lib/e-puck2_main-processor/ChibiOS//os/hal/include/dac.h"
 518              		.file 30 "../lib/e-puck2_main-processor/ChibiOS//os/hal/ports/STM32/LLD/DACv1/dac_lld.h"
 519              		.file 31 "../lib/e-puck2_main-processor/ChibiOS//os/hal/include/ext.h"
 520              		.file 32 "../lib/e-puck2_main-processor/ChibiOS//os/hal/ports/STM32/LLD/ext_lld.h"
 521              		.file 33 "../lib/e-puck2_main-processor/ChibiOS//os/hal/include/gpt.h"
 522              		.file 34 "../lib/e-puck2_main-processor/ChibiOS//os/hal/ports/STM32/LLD/TIMv1/gpt_lld.h"
 523              		.file 35 "../lib/e-puck2_main-processor/ChibiOS//os/hal/ports/STM32/LLD/TIMv1/stm32_tim.h"
 524              		.file 36 "../lib/e-puck2_main-processor/ChibiOS//os/hal/include/i2c.h"
 525              		.file 37 "../lib/e-puck2_main-processor/ChibiOS//os/hal/ports/STM32/LLD/I2Cv1/i2c_lld.h"
 526              		.file 38 "../lib/e-puck2_main-processor/ChibiOS//os/hal/include/i2s.h"
 527              		.file 39 "../lib/e-puck2_main-processor/ChibiOS//os/hal/ports/STM32/LLD/SPIv1/i2s_lld.h"
 528              		.file 40 "../lib/e-puck2_main-processor/ChibiOS//os/hal/include/pwm.h"
 529              		.file 41 "../lib/e-puck2_main-processor/ChibiOS//os/hal/ports/STM32/LLD/TIMv1/pwm_lld.h"
 530              		.file 42 "../lib/e-puck2_main-processor/ChibiOS//os/hal/include/serial.h"
 531              		.file 43 "../lib/e-puck2_main-processor/ChibiOS//os/hal/ports/STM32/LLD/USARTv1/serial_lld.h"
 532              		.file 44 "../lib/e-puck2_main-processor/ChibiOS//os/hal/include/sdc.h"
 533              		.file 45 "../lib/e-puck2_main-processor/ChibiOS//os/hal/ports/STM32/LLD/sdc_lld.h"
 534              		.file 46 "../lib/e-puck2_main-processor/ChibiOS//os/hal/include/spi.h"
 535              		.file 47 "../lib/e-puck2_main-processor/ChibiOS//os/hal/ports/STM32/LLD/SPIv1/spi_lld.h"
 536              		.file 48 "../lib/e-puck2_main-processor/ChibiOS//os/hal/include/usb.h"
 537              		.file 49 "../lib/e-puck2_main-processor/ChibiOS//os/hal/ports/STM32/LLD/OTGv1/usb_lld.h"
 538              		.file 50 "../lib/e-puck2_main-processor/ChibiOS//os/hal/ports/STM32/LLD/OTGv1/stm32_otg.h"
 539              		.file 51 "c:\\users\\pchautems\\documents\\robotiquetp\\eclipse_e-puck2\\tools\\gcc-arm-none-eabi-
 540              		.file 52 "c:\\users\\pchautems\\documents\\robotiquetp\\eclipse_e-puck2\\tools\\gcc-arm-none-eabi-
 541              		.file 53 "c:\\users\\pchautems\\documents\\robotiquetp\\eclipse_e-puck2\\tools\\gcc-arm-none-eabi-
 542              		.file 54 "c:\\users\\pchautems\\documents\\robotiquetp\\eclipse_e-puck2\\tools\\gcc-arm-none-eabi-
 543              		.file 55 "../lib/e-puck2_main-processor/aseba/vm/vm.h"
 544              		.file 56 "../lib/e-puck2_main-processor/aseba/common/consts.h"