ARM GAS  C:\Users\PCHAUT~1\AppData\Local\Temp\cc9QAJZ7.s 			page 1


   1              		.cpu cortex-m4
   2              		.eabi_attribute 27, 1
   3              		.eabi_attribute 28, 1
   4              		.eabi_attribute 20, 1
   5              		.eabi_attribute 21, 1
   6              		.eabi_attribute 23, 3
   7              		.eabi_attribute 24, 1
   8              		.eabi_attribute 25, 1
   9              		.eabi_attribute 26, 1
  10              		.eabi_attribute 30, 6
  11              		.eabi_attribute 34, 1
  12              		.eabi_attribute 18, 4
  13              		.file	"aseba_can_interface.c"
  14              		.text
  15              	.Ltext0:
  16              		.cfi_sections	.debug_frame
  17              		.section	.text.chRegSetThreadName,"ax",%progbits
  18              		.align	1
  19              		.p2align 4,,15
  20              		.syntax unified
  21              		.thumb
  22              		.thumb_func
  23              		.fpu fpv4-sp-d16
  24              		.type	chRegSetThreadName, %function
  25              	chRegSetThreadName:
  26              	.LFB176:
  27              		.file 1 "../lib/e-puck2_main-processor/ChibiOS//os/rt/include/chregistry.h"
  28              		.loc 1 132 0
  29              		.cfi_startproc
  30              		@ args = 0, pretend = 0, frame = 16
  31              		@ frame_needed = 0, uses_anonymous_args = 0
  32 0000 00B5     		push	{lr}
  33              		.cfi_def_cfa_offset 4
  34              		.cfi_offset 14, -4
  35 0002 85B0     		sub	sp, sp, #20
  36              		.cfi_def_cfa_offset 24
  37 0004 0190     		str	r0, [sp, #4]
  38              		.loc 1 132 0
  39 0006 094B     		ldr	r3, .L3
  40 0008 1B68     		ldr	r3, [r3]
  41 000a 0393     		str	r3, [sp, #12]
  42              		.loc 1 135 0
  43 000c 084B     		ldr	r3, .L3+4
  44 000e 9B69     		ldr	r3, [r3, #24]
  45 0010 019A     		ldr	r2, [sp, #4]
  46 0012 9A61     		str	r2, [r3, #24]
  47              		.loc 1 139 0
  48 0014 00BF     		nop
  49 0016 054B     		ldr	r3, .L3
  50 0018 039A     		ldr	r2, [sp, #12]
  51 001a 1B68     		ldr	r3, [r3]
  52 001c 9A42     		cmp	r2, r3
  53 001e 01D0     		beq	.L2
  54 0020 FFF7FEFF 		bl	__stack_chk_fail
  55              	.L2:
  56 0024 05B0     		add	sp, sp, #20
  57              		.cfi_def_cfa_offset 4
ARM GAS  C:\Users\PCHAUT~1\AppData\Local\Temp\cc9QAJZ7.s 			page 2


  58              		@ sp needed
  59 0026 5DF804FB 		ldr	pc, [sp], #4
  60              	.L4:
  61 002a 00BF     		.align	2
  62              	.L3:
  63 002c 00000000 		.word	__stack_chk_guard
  64 0030 00000000 		.word	ch
  65              		.cfi_endproc
  66              	.LFE176:
  67              		.size	chRegSetThreadName, .-chRegSetThreadName
  68              		.global	aseba_can_send_queue
  69              		.section	.bss.aseba_can_send_queue,"aw",%nobits
  70              		.align	2
  71              		.type	aseba_can_send_queue, %object
  72              		.size	aseba_can_send_queue, 12288
  73              	aseba_can_send_queue:
  74 0000 00000000 		.space	12288
  74      00000000 
  74      00000000 
  74      00000000 
  74      00000000 
  75              		.global	aseba_can_receive_queue
  76              		.section	.bss.aseba_can_receive_queue,"aw",%nobits
  77              		.align	2
  78              		.type	aseba_can_receive_queue, %object
  79              		.size	aseba_can_receive_queue, 12288
  80              	aseba_can_receive_queue:
  81 0000 00000000 		.space	12288
  81      00000000 
  81      00000000 
  81      00000000 
  81      00000000 
  82              		.section	.bss.can_rx_thread_wa,"aw",%nobits
  83              		.align	3
  84              		.type	can_rx_thread_wa, %object
  85              		.size	can_rx_thread_wa, 632
  86              	can_rx_thread_wa:
  87 0000 00000000 		.space	632
  87      00000000 
  87      00000000 
  87      00000000 
  87      00000000 
  88              		.section	.rodata
  89              		.align	2
  90              	.LC0:
  91 0000 43414E20 		.ascii	"CAN rx\000"
  91      727800
  92              		.section	.text.can_rx_thread,"ax",%progbits
  93              		.align	1
  94              		.p2align 4,,15
  95              		.syntax unified
  96              		.thumb
  97              		.thumb_func
  98              		.fpu fpv4-sp-d16
  99              		.type	can_rx_thread, %function
 100              	can_rx_thread:
 101              	.LFB256:
ARM GAS  C:\Users\PCHAUT~1\AppData\Local\Temp\cc9QAJZ7.s 			page 3


 102              		.file 2 "../lib/e-puck2_main-processor/src/aseba_vm/aseba_can_interface.c"
 103              		.loc 2 19 0
 104              		.cfi_startproc
 105              		@ args = 0, pretend = 0, frame = 56
 106              		@ frame_needed = 0, uses_anonymous_args = 0
 107 0000 00B5     		push	{lr}
 108              		.cfi_def_cfa_offset 4
 109              		.cfi_offset 14, -4
 110 0002 8FB0     		sub	sp, sp, #60
 111              		.cfi_def_cfa_offset 64
 112 0004 0190     		str	r0, [sp, #4]
 113              		.loc 2 19 0
 114 0006 2C4B     		ldr	r3, .L18
 115 0008 1B68     		ldr	r3, [r3]
 116 000a 0D93     		str	r3, [sp, #52]
 117              		.loc 2 21 0
 118 000c 2B48     		ldr	r0, .L18+4
 119 000e FFF7FEFF 		bl	chRegSetThreadName
 120              	.L13:
 121              	.LBB2:
 122              		.loc 2 25 0
 123 0012 08AA     		add	r2, sp, #32
 124 0014 4FF47A73 		mov	r3, #1000
 125 0018 0021     		movs	r1, #0
 126 001a 2948     		ldr	r0, .L18+8
 127 001c FFF7FEFF 		bl	canReceive
 128 0020 0490     		str	r0, [sp, #16]
 129              		.loc 2 26 0
 130 0022 049B     		ldr	r3, [sp, #16]
 131 0024 002B     		cmp	r3, #0
 132 0026 40D1     		bne	.L15
 133              		.loc 2 29 0
 134 0028 9DF82430 		ldrb	r3, [sp, #36]	@ zero_extendqisi2
 135 002c 03F02003 		and	r3, r3, #32
 136 0030 DBB2     		uxtb	r3, r3
 137 0032 002B     		cmp	r3, #0
 138 0034 3BD1     		bne	.L16
 139              		.loc 2 32 0
 140 0036 9DF82430 		ldrb	r3, [sp, #36]	@ zero_extendqisi2
 141 003a 03F01003 		and	r3, r3, #16
 142 003e DBB2     		uxtb	r3, r3
 143 0040 002B     		cmp	r3, #0
 144 0042 36D1     		bne	.L17
 145              		.loc 2 35 0
 146 0044 BDF82830 		ldrh	r3, [sp, #40]	@ movhi
 147 0048 C3F30A03 		ubfx	r3, r3, #0, #11
 148 004c 9AB2     		uxth	r2, r3
 149 004e BDF81C30 		ldrh	r3, [sp, #28]	@ movhi
 150 0052 62F30A03 		bfi	r3, r2, #0, #11
 151 0056 ADF81C30 		strh	r3, [sp, #28]	@ movhi
 152              		.loc 2 36 0
 153 005a 9DF82430 		ldrb	r3, [sp, #36]
 154 005e C3F30303 		ubfx	r3, r3, #0, #4
 155 0062 DAB2     		uxtb	r2, r3
 156 0064 9DF81D30 		ldrb	r3, [sp, #29]
 157 0068 62F3C603 		bfi	r3, r2, #3, #4
 158 006c 8DF81D30 		strb	r3, [sp, #29]
ARM GAS  C:\Users\PCHAUT~1\AppData\Local\Temp\cc9QAJZ7.s 			page 4


 159              		.loc 2 38 0
 160 0070 0023     		movs	r3, #0
 161 0072 0393     		str	r3, [sp, #12]
 162 0074 0BE0     		b	.L10
 163              	.L11:
 164              		.loc 2 39 0 discriminator 3
 165 0076 0BAA     		add	r2, sp, #44
 166 0078 039B     		ldr	r3, [sp, #12]
 167 007a 1344     		add	r3, r3, r2
 168 007c 1978     		ldrb	r1, [r3]	@ zero_extendqisi2
 169 007e 05AA     		add	r2, sp, #20
 170 0080 039B     		ldr	r3, [sp, #12]
 171 0082 1344     		add	r3, r3, r2
 172 0084 0A46     		mov	r2, r1
 173 0086 1A70     		strb	r2, [r3]
 174              		.loc 2 38 0 discriminator 3
 175 0088 039B     		ldr	r3, [sp, #12]
 176 008a 0133     		adds	r3, r3, #1
 177 008c 0393     		str	r3, [sp, #12]
 178              	.L10:
 179              		.loc 2 38 0 is_stmt 0 discriminator 1
 180 008e 9DF81D30 		ldrb	r3, [sp, #29]
 181 0092 C3F3C303 		ubfx	r3, r3, #3, #4
 182 0096 DBB2     		uxtb	r3, r3
 183 0098 1A46     		mov	r2, r3
 184 009a 039B     		ldr	r3, [sp, #12]
 185 009c 9342     		cmp	r3, r2
 186 009e EADB     		blt	.L11
 187              		.loc 2 41 0 is_stmt 1
 188 00a0 05AB     		add	r3, sp, #20
 189 00a2 1846     		mov	r0, r3
 190 00a4 FFF7FEFF 		bl	AsebaCanFrameReceived
 191 00a8 B3E7     		b	.L13
 192              	.L15:
 193              		.loc 2 27 0
 194 00aa 00BF     		nop
 195 00ac B1E7     		b	.L13
 196              	.L16:
 197              		.loc 2 30 0
 198 00ae 00BF     		nop
 199 00b0 AFE7     		b	.L13
 200              	.L17:
 201              		.loc 2 33 0
 202 00b2 00BF     		nop
 203              	.LBE2:
 204              		.loc 2 22 0
 205 00b4 ADE7     		b	.L13
 206              	.L19:
 207 00b6 00BF     		.align	2
 208              	.L18:
 209 00b8 00000000 		.word	__stack_chk_guard
 210 00bc 00000000 		.word	.LC0
 211 00c0 00000000 		.word	CAND1
 212              		.cfi_endproc
 213              	.LFE256:
 214              		.size	can_rx_thread, .-can_rx_thread
 215              		.section	.text.can_init,"ax",%progbits
ARM GAS  C:\Users\PCHAUT~1\AppData\Local\Temp\cc9QAJZ7.s 			page 5


 216              		.align	1
 217              		.p2align 4,,15
 218              		.global	can_init
 219              		.syntax unified
 220              		.thumb
 221              		.thumb_func
 222              		.fpu fpv4-sp-d16
 223              		.type	can_init, %function
 224              	can_init:
 225              	.LFB257:
 226              		.loc 2 46 0
 227              		.cfi_startproc
 228              		@ args = 0, pretend = 0, frame = 8
 229              		@ frame_needed = 0, uses_anonymous_args = 0
 230 0000 00B5     		push	{lr}
 231              		.cfi_def_cfa_offset 4
 232              		.cfi_offset 14, -4
 233 0002 83B0     		sub	sp, sp, #12
 234              		.cfi_def_cfa_offset 16
 235              		.loc 2 46 0
 236 0004 084B     		ldr	r3, .L22
 237 0006 1B68     		ldr	r3, [r3]
 238 0008 0193     		str	r3, [sp, #4]
 239              		.loc 2 60 0
 240 000a 0849     		ldr	r1, .L22+4
 241 000c 0848     		ldr	r0, .L22+8
 242 000e FFF7FEFF 		bl	canStart
 243              		.loc 2 61 0
 244 0012 00BF     		nop
 245 0014 044B     		ldr	r3, .L22
 246 0016 019A     		ldr	r2, [sp, #4]
 247 0018 1B68     		ldr	r3, [r3]
 248 001a 9A42     		cmp	r2, r3
 249 001c 01D0     		beq	.L21
 250 001e FFF7FEFF 		bl	__stack_chk_fail
 251              	.L21:
 252 0022 03B0     		add	sp, sp, #12
 253              		.cfi_def_cfa_offset 4
 254              		@ sp needed
 255 0024 5DF804FB 		ldr	pc, [sp], #4
 256              	.L23:
 257              		.align	2
 258              	.L22:
 259 0028 00000000 		.word	__stack_chk_guard
 260 002c 00000000 		.word	can1_config.10597
 261 0030 00000000 		.word	CAND1
 262              		.cfi_endproc
 263              	.LFE257:
 264              		.size	can_init, .-can_init
 265              		.section	.text.aseba_can_rx_dropped,"ax",%progbits
 266              		.align	1
 267              		.p2align 4,,15
 268              		.global	aseba_can_rx_dropped
 269              		.syntax unified
 270              		.thumb
 271              		.thumb_func
 272              		.fpu fpv4-sp-d16
ARM GAS  C:\Users\PCHAUT~1\AppData\Local\Temp\cc9QAJZ7.s 			page 6


 273              		.type	aseba_can_rx_dropped, %function
 274              	aseba_can_rx_dropped:
 275              	.LFB258:
 276              		.loc 2 64 0
 277              		.cfi_startproc
 278              		@ args = 0, pretend = 0, frame = 8
 279              		@ frame_needed = 0, uses_anonymous_args = 0
 280 0000 00B5     		push	{lr}
 281              		.cfi_def_cfa_offset 4
 282              		.cfi_offset 14, -4
 283 0002 83B0     		sub	sp, sp, #12
 284              		.cfi_def_cfa_offset 16
 285              		.loc 2 64 0
 286 0004 064B     		ldr	r3, .L26
 287 0006 1B68     		ldr	r3, [r3]
 288 0008 0193     		str	r3, [sp, #4]
 289              		.loc 2 65 0
 290 000a 00BF     		nop
 291 000c 044B     		ldr	r3, .L26
 292 000e 019A     		ldr	r2, [sp, #4]
 293 0010 1B68     		ldr	r3, [r3]
 294 0012 9A42     		cmp	r2, r3
 295 0014 01D0     		beq	.L25
 296 0016 FFF7FEFF 		bl	__stack_chk_fail
 297              	.L25:
 298 001a 03B0     		add	sp, sp, #12
 299              		.cfi_def_cfa_offset 4
 300              		@ sp needed
 301 001c 5DF804FB 		ldr	pc, [sp], #4
 302              	.L27:
 303              		.align	2
 304              	.L26:
 305 0020 00000000 		.word	__stack_chk_guard
 306              		.cfi_endproc
 307              	.LFE258:
 308              		.size	aseba_can_rx_dropped, .-aseba_can_rx_dropped
 309              		.section	.text.aseba_can_tx_dropped,"ax",%progbits
 310              		.align	1
 311              		.p2align 4,,15
 312              		.global	aseba_can_tx_dropped
 313              		.syntax unified
 314              		.thumb
 315              		.thumb_func
 316              		.fpu fpv4-sp-d16
 317              		.type	aseba_can_tx_dropped, %function
 318              	aseba_can_tx_dropped:
 319              	.LFB259:
 320              		.loc 2 68 0
 321              		.cfi_startproc
 322              		@ args = 0, pretend = 0, frame = 8
 323              		@ frame_needed = 0, uses_anonymous_args = 0
 324 0000 00B5     		push	{lr}
 325              		.cfi_def_cfa_offset 4
 326              		.cfi_offset 14, -4
 327 0002 83B0     		sub	sp, sp, #12
 328              		.cfi_def_cfa_offset 16
 329              		.loc 2 68 0
ARM GAS  C:\Users\PCHAUT~1\AppData\Local\Temp\cc9QAJZ7.s 			page 7


 330 0004 064B     		ldr	r3, .L30
 331 0006 1B68     		ldr	r3, [r3]
 332 0008 0193     		str	r3, [sp, #4]
 333              		.loc 2 69 0
 334 000a 00BF     		nop
 335 000c 044B     		ldr	r3, .L30
 336 000e 019A     		ldr	r2, [sp, #4]
 337 0010 1B68     		ldr	r3, [r3]
 338 0012 9A42     		cmp	r2, r3
 339 0014 01D0     		beq	.L29
 340 0016 FFF7FEFF 		bl	__stack_chk_fail
 341              	.L29:
 342 001a 03B0     		add	sp, sp, #12
 343              		.cfi_def_cfa_offset 4
 344              		@ sp needed
 345 001c 5DF804FB 		ldr	pc, [sp], #4
 346              	.L31:
 347              		.align	2
 348              	.L30:
 349 0020 00000000 		.word	__stack_chk_guard
 350              		.cfi_endproc
 351              	.LFE259:
 352              		.size	aseba_can_tx_dropped, .-aseba_can_tx_dropped
 353              		.section	.text.aseba_can_send_frame,"ax",%progbits
 354              		.align	1
 355              		.p2align 4,,15
 356              		.global	aseba_can_send_frame
 357              		.syntax unified
 358              		.thumb
 359              		.thumb_func
 360              		.fpu fpv4-sp-d16
 361              		.type	aseba_can_send_frame, %function
 362              	aseba_can_send_frame:
 363              	.LFB260:
 364              		.loc 2 72 0
 365              		.cfi_startproc
 366              		@ args = 0, pretend = 0, frame = 32
 367              		@ frame_needed = 0, uses_anonymous_args = 0
 368 0000 00B5     		push	{lr}
 369              		.cfi_def_cfa_offset 4
 370              		.cfi_offset 14, -4
 371 0002 89B0     		sub	sp, sp, #36
 372              		.cfi_def_cfa_offset 40
 373 0004 0190     		str	r0, [sp, #4]
 374              		.loc 2 72 0
 375 0006 2B4B     		ldr	r3, .L36
 376 0008 1B68     		ldr	r3, [r3]
 377 000a 0793     		str	r3, [sp, #28]
 378              		.loc 2 73 0
 379 000c FFF7FEFF 		bl	aseba_can_lock
 380              		.loc 2 75 0
 381 0010 019B     		ldr	r3, [sp, #4]
 382 0012 5B7A     		ldrb	r3, [r3, #9]
 383 0014 C3F3C303 		ubfx	r3, r3, #3, #4
 384 0018 DAB2     		uxtb	r2, r3
 385 001a 9DF80C30 		ldrb	r3, [sp, #12]
 386 001e 62F30303 		bfi	r3, r2, #0, #4
ARM GAS  C:\Users\PCHAUT~1\AppData\Local\Temp\cc9QAJZ7.s 			page 8


 387 0022 8DF80C30 		strb	r3, [sp, #12]
 388              		.loc 2 76 0
 389 0026 9DF80C30 		ldrb	r3, [sp, #12]
 390 002a 6FF30413 		bfc	r3, #4, #1
 391 002e 8DF80C30 		strb	r3, [sp, #12]
 392              		.loc 2 77 0
 393 0032 9DF80C30 		ldrb	r3, [sp, #12]
 394 0036 6FF34513 		bfc	r3, #5, #1
 395 003a 8DF80C30 		strb	r3, [sp, #12]
 396              		.loc 2 78 0
 397 003e 019B     		ldr	r3, [sp, #4]
 398 0040 1B89     		ldrh	r3, [r3, #8]	@ movhi
 399 0042 C3F30A03 		ubfx	r3, r3, #0, #11
 400 0046 9AB2     		uxth	r2, r3
 401 0048 BDF81030 		ldrh	r3, [sp, #16]	@ movhi
 402 004c 62F30A03 		bfi	r3, r2, #0, #11
 403 0050 ADF81030 		strh	r3, [sp, #16]	@ movhi
 404              		.loc 2 81 0
 405 0054 0023     		movs	r3, #0
 406 0056 0293     		str	r3, [sp, #8]
 407 0058 0BE0     		b	.L33
 408              	.L34:
 409              		.loc 2 82 0 discriminator 3
 410 005a 019A     		ldr	r2, [sp, #4]
 411 005c 029B     		ldr	r3, [sp, #8]
 412 005e 1344     		add	r3, r3, r2
 413 0060 1978     		ldrb	r1, [r3]	@ zero_extendqisi2
 414 0062 05AA     		add	r2, sp, #20
 415 0064 029B     		ldr	r3, [sp, #8]
 416 0066 1344     		add	r3, r3, r2
 417 0068 0A46     		mov	r2, r1
 418 006a 1A70     		strb	r2, [r3]
 419              		.loc 2 81 0 discriminator 3
 420 006c 029B     		ldr	r3, [sp, #8]
 421 006e 0133     		adds	r3, r3, #1
 422 0070 0293     		str	r3, [sp, #8]
 423              	.L33:
 424              		.loc 2 81 0 is_stmt 0 discriminator 1
 425 0072 019B     		ldr	r3, [sp, #4]
 426 0074 5B7A     		ldrb	r3, [r3, #9]
 427 0076 C3F3C303 		ubfx	r3, r3, #3, #4
 428 007a DBB2     		uxtb	r3, r3
 429 007c 1A46     		mov	r2, r3
 430 007e 029B     		ldr	r3, [sp, #8]
 431 0080 9342     		cmp	r3, r2
 432 0082 EADB     		blt	.L34
 433              		.loc 2 85 0 is_stmt 1
 434 0084 03AA     		add	r2, sp, #12
 435 0086 6423     		movs	r3, #100
 436 0088 0021     		movs	r1, #0
 437 008a 0B48     		ldr	r0, .L36+4
 438 008c FFF7FEFF 		bl	canTransmit
 439              		.loc 2 86 0
 440 0090 0120     		movs	r0, #1
 441 0092 FFF7FEFF 		bl	chThdSleep
 442              		.loc 2 88 0
 443 0096 FFF7FEFF 		bl	AsebaCanFrameSent
ARM GAS  C:\Users\PCHAUT~1\AppData\Local\Temp\cc9QAJZ7.s 			page 9


 444              		.loc 2 89 0
 445 009a FFF7FEFF 		bl	aseba_can_unlock
 446              		.loc 2 90 0
 447 009e 00BF     		nop
 448 00a0 044B     		ldr	r3, .L36
 449 00a2 079A     		ldr	r2, [sp, #28]
 450 00a4 1B68     		ldr	r3, [r3]
 451 00a6 9A42     		cmp	r2, r3
 452 00a8 01D0     		beq	.L35
 453 00aa FFF7FEFF 		bl	__stack_chk_fail
 454              	.L35:
 455 00ae 09B0     		add	sp, sp, #36
 456              		.cfi_def_cfa_offset 4
 457              		@ sp needed
 458 00b0 5DF804FB 		ldr	pc, [sp], #4
 459              	.L37:
 460              		.align	2
 461              	.L36:
 462 00b4 00000000 		.word	__stack_chk_guard
 463 00b8 00000000 		.word	CAND1
 464              		.cfi_endproc
 465              	.LFE260:
 466              		.size	aseba_can_send_frame, .-aseba_can_send_frame
 467              		.section	.text.aseba_can_is_frame_room,"ax",%progbits
 468              		.align	1
 469              		.p2align 4,,15
 470              		.global	aseba_can_is_frame_room
 471              		.syntax unified
 472              		.thumb
 473              		.thumb_func
 474              		.fpu fpv4-sp-d16
 475              		.type	aseba_can_is_frame_room, %function
 476              	aseba_can_is_frame_room:
 477              	.LFB261:
 478              		.loc 2 94 0
 479              		.cfi_startproc
 480              		@ args = 0, pretend = 0, frame = 8
 481              		@ frame_needed = 0, uses_anonymous_args = 0
 482 0000 00B5     		push	{lr}
 483              		.cfi_def_cfa_offset 4
 484              		.cfi_offset 14, -4
 485 0002 83B0     		sub	sp, sp, #12
 486              		.cfi_def_cfa_offset 16
 487              		.loc 2 94 0
 488 0004 094B     		ldr	r3, .L41
 489 0006 1B68     		ldr	r3, [r3]
 490 0008 0193     		str	r3, [sp, #4]
 491              		.loc 2 95 0
 492 000a 0021     		movs	r1, #0
 493 000c 0848     		ldr	r0, .L41+4
 494 000e FFF7FEFF 		bl	can_lld_is_tx_empty
 495 0012 0346     		mov	r3, r0
 496              		.loc 2 96 0
 497 0014 1846     		mov	r0, r3
 498 0016 054B     		ldr	r3, .L41
 499 0018 019A     		ldr	r2, [sp, #4]
 500 001a 1B68     		ldr	r3, [r3]
ARM GAS  C:\Users\PCHAUT~1\AppData\Local\Temp\cc9QAJZ7.s 			page 10


 501 001c 9A42     		cmp	r2, r3
 502 001e 01D0     		beq	.L40
 503 0020 FFF7FEFF 		bl	__stack_chk_fail
 504              	.L40:
 505 0024 03B0     		add	sp, sp, #12
 506              		.cfi_def_cfa_offset 4
 507              		@ sp needed
 508 0026 5DF804FB 		ldr	pc, [sp], #4
 509              	.L42:
 510 002a 00BF     		.align	2
 511              	.L41:
 512 002c 00000000 		.word	__stack_chk_guard
 513 0030 00000000 		.word	CAND1
 514              		.cfi_endproc
 515              	.LFE261:
 516              		.size	aseba_can_is_frame_room, .-aseba_can_is_frame_room
 517              		.section	.text.aseba_can_start,"ax",%progbits
 518              		.align	1
 519              		.p2align 4,,15
 520              		.global	aseba_can_start
 521              		.syntax unified
 522              		.thumb
 523              		.thumb_func
 524              		.fpu fpv4-sp-d16
 525              		.type	aseba_can_start, %function
 526              	aseba_can_start:
 527              	.LFB262:
 528              		.loc 2 99 0
 529              		.cfi_startproc
 530              		@ args = 0, pretend = 0, frame = 16
 531              		@ frame_needed = 0, uses_anonymous_args = 0
 532 0000 00B5     		push	{lr}
 533              		.cfi_def_cfa_offset 4
 534              		.cfi_offset 14, -4
 535 0002 8BB0     		sub	sp, sp, #44
 536              		.cfi_def_cfa_offset 48
 537 0004 0790     		str	r0, [sp, #28]
 538              		.loc 2 99 0
 539 0006 164B     		ldr	r3, .L45
 540 0008 1B68     		ldr	r3, [r3]
 541 000a 0993     		str	r3, [sp, #36]
 542              		.loc 2 100 0
 543 000c FFF7FEFF 		bl	can_init
 544              		.loc 2 101 0
 545 0010 0023     		movs	r3, #0
 546 0012 0093     		str	r3, [sp]
 547 0014 134B     		ldr	r3, .L45+4
 548 0016 4122     		movs	r2, #65
 549 0018 4FF41E71 		mov	r1, #632
 550 001c 1248     		ldr	r0, .L45+8
 551 001e FFF7FEFF 		bl	chThdCreateStatic
 552              		.loc 2 106 0
 553 0022 079B     		ldr	r3, [sp, #28]
 554 0024 1888     		ldrh	r0, [r3]
 555 0026 4FF48063 		mov	r3, #1024
 556 002a 0493     		str	r3, [sp, #16]
 557 002c 0F4B     		ldr	r3, .L45+12
ARM GAS  C:\Users\PCHAUT~1\AppData\Local\Temp\cc9QAJZ7.s 			page 11


 558 002e 0393     		str	r3, [sp, #12]
 559 0030 4FF48063 		mov	r3, #1024
 560 0034 0293     		str	r3, [sp, #8]
 561 0036 0E4B     		ldr	r3, .L45+16
 562 0038 0193     		str	r3, [sp, #4]
 563 003a 0E4B     		ldr	r3, .L45+20
 564 003c 0093     		str	r3, [sp]
 565 003e 0E4B     		ldr	r3, .L45+24
 566 0040 0E4A     		ldr	r2, .L45+28
 567 0042 0F49     		ldr	r1, .L45+32
 568 0044 FFF7FEFF 		bl	AsebaCanInit
 569              		.loc 2 110 0
 570 0048 00BF     		nop
 571 004a 054B     		ldr	r3, .L45
 572 004c 099A     		ldr	r2, [sp, #36]
 573 004e 1B68     		ldr	r3, [r3]
 574 0050 9A42     		cmp	r2, r3
 575 0052 01D0     		beq	.L44
 576 0054 FFF7FEFF 		bl	__stack_chk_fail
 577              	.L44:
 578 0058 0BB0     		add	sp, sp, #44
 579              		.cfi_def_cfa_offset 4
 580              		@ sp needed
 581 005a 5DF804FB 		ldr	pc, [sp], #4
 582              	.L46:
 583 005e 00BF     		.align	2
 584              	.L45:
 585 0060 00000000 		.word	__stack_chk_guard
 586 0064 00000000 		.word	can_rx_thread
 587 0068 00000000 		.word	can_rx_thread_wa
 588 006c 00000000 		.word	aseba_can_receive_queue
 589 0070 00000000 		.word	aseba_can_send_queue
 590 0074 00000000 		.word	aseba_can_tx_dropped
 591 0078 00000000 		.word	aseba_can_rx_dropped
 592 007c 00000000 		.word	aseba_can_is_frame_room
 593 0080 00000000 		.word	aseba_can_send_frame
 594              		.cfi_endproc
 595              	.LFE262:
 596              		.size	aseba_can_start, .-aseba_can_start
 597              		.section	.data.can_lock,"aw",%progbits
 598              		.align	2
 599              		.type	can_lock, %object
 600              		.size	can_lock, 20
 601              	can_lock:
 602 0000 00000000 		.word	can_lock
 603 0004 00000000 		.word	can_lock
 604 0008 00000000 		.word	0
 605 000c 00000000 		.word	0
 606 0010 00000000 		.word	0
 607              		.section	.text.aseba_can_lock,"ax",%progbits
 608              		.align	1
 609              		.p2align 4,,15
 610              		.global	aseba_can_lock
 611              		.syntax unified
 612              		.thumb
 613              		.thumb_func
 614              		.fpu fpv4-sp-d16
ARM GAS  C:\Users\PCHAUT~1\AppData\Local\Temp\cc9QAJZ7.s 			page 12


 615              		.type	aseba_can_lock, %function
 616              	aseba_can_lock:
 617              	.LFB263:
 618              		.loc 2 115 0
 619              		.cfi_startproc
 620              		@ args = 0, pretend = 0, frame = 8
 621              		@ frame_needed = 0, uses_anonymous_args = 0
 622 0000 00B5     		push	{lr}
 623              		.cfi_def_cfa_offset 4
 624              		.cfi_offset 14, -4
 625 0002 83B0     		sub	sp, sp, #12
 626              		.cfi_def_cfa_offset 16
 627              		.loc 2 115 0
 628 0004 084B     		ldr	r3, .L49
 629 0006 1B68     		ldr	r3, [r3]
 630 0008 0193     		str	r3, [sp, #4]
 631              		.loc 2 116 0
 632 000a 0848     		ldr	r0, .L49+4
 633 000c FFF7FEFF 		bl	chMtxLock
 634              		.loc 2 117 0
 635 0010 00BF     		nop
 636 0012 054B     		ldr	r3, .L49
 637 0014 019A     		ldr	r2, [sp, #4]
 638 0016 1B68     		ldr	r3, [r3]
 639 0018 9A42     		cmp	r2, r3
 640 001a 01D0     		beq	.L48
 641 001c FFF7FEFF 		bl	__stack_chk_fail
 642              	.L48:
 643 0020 03B0     		add	sp, sp, #12
 644              		.cfi_def_cfa_offset 4
 645              		@ sp needed
 646 0022 5DF804FB 		ldr	pc, [sp], #4
 647              	.L50:
 648 0026 00BF     		.align	2
 649              	.L49:
 650 0028 00000000 		.word	__stack_chk_guard
 651 002c 00000000 		.word	can_lock
 652              		.cfi_endproc
 653              	.LFE263:
 654              		.size	aseba_can_lock, .-aseba_can_lock
 655              		.section	.text.aseba_can_unlock,"ax",%progbits
 656              		.align	1
 657              		.p2align 4,,15
 658              		.global	aseba_can_unlock
 659              		.syntax unified
 660              		.thumb
 661              		.thumb_func
 662              		.fpu fpv4-sp-d16
 663              		.type	aseba_can_unlock, %function
 664              	aseba_can_unlock:
 665              	.LFB264:
 666              		.loc 2 120 0
 667              		.cfi_startproc
 668              		@ args = 0, pretend = 0, frame = 8
 669              		@ frame_needed = 0, uses_anonymous_args = 0
 670 0000 00B5     		push	{lr}
 671              		.cfi_def_cfa_offset 4
ARM GAS  C:\Users\PCHAUT~1\AppData\Local\Temp\cc9QAJZ7.s 			page 13


 672              		.cfi_offset 14, -4
 673 0002 83B0     		sub	sp, sp, #12
 674              		.cfi_def_cfa_offset 16
 675              		.loc 2 120 0
 676 0004 084B     		ldr	r3, .L53
 677 0006 1B68     		ldr	r3, [r3]
 678 0008 0193     		str	r3, [sp, #4]
 679              		.loc 2 121 0
 680 000a 0848     		ldr	r0, .L53+4
 681 000c FFF7FEFF 		bl	chMtxUnlock
 682              		.loc 2 122 0
 683 0010 00BF     		nop
 684 0012 054B     		ldr	r3, .L53
 685 0014 019A     		ldr	r2, [sp, #4]
 686 0016 1B68     		ldr	r3, [r3]
 687 0018 9A42     		cmp	r2, r3
 688 001a 01D0     		beq	.L52
 689 001c FFF7FEFF 		bl	__stack_chk_fail
 690              	.L52:
 691 0020 03B0     		add	sp, sp, #12
 692              		.cfi_def_cfa_offset 4
 693              		@ sp needed
 694 0022 5DF804FB 		ldr	pc, [sp], #4
 695              	.L54:
 696 0026 00BF     		.align	2
 697              	.L53:
 698 0028 00000000 		.word	__stack_chk_guard
 699 002c 00000000 		.word	can_lock
 700              		.cfi_endproc
 701              	.LFE264:
 702              		.size	aseba_can_unlock, .-aseba_can_unlock
 703              		.section	.rodata.can1_config.10597,"a",%progbits
 704              		.align	2
 705              		.type	can1_config.10597, %object
 706              		.size	can1_config.10597, 8
 707              	can1_config.10597:
 708 0000 44000000 		.word	68
 709 0004 01007B00 		.word	8060929
 710              		.text
 711              	.Letext0:
 712              		.file 3 "c:\\users\\pchautems\\documents\\robotiquetp\\eclipse_e-puck2\\tools\\gcc-arm-none-eabi-7
 713              		.file 4 "c:\\users\\pchautems\\documents\\robotiquetp\\eclipse_e-puck2\\tools\\gcc-arm-none-eabi-7
 714              		.file 5 "c:\\users\\pchautems\\documents\\robotiquetp\\eclipse_e-puck2\\tools\\gcc-arm-none-eabi-7
 715              		.file 6 "../lib/e-puck2_main-processor/ChibiOS//os/rt/ports/ARMCMx/compilers/GCC/chtypes.h"
 716              		.file 7 "../lib/e-puck2_main-processor/ChibiOS//os/rt/include/chsystypes.h"
 717              		.file 8 "../lib/e-puck2_main-processor/ChibiOS//os/rt/include/chschd.h"
 718              		.file 9 "../lib/e-puck2_main-processor/ChibiOS//os/ext/CMSIS/include/core_cm4.h"
 719              		.file 10 "../lib/e-puck2_main-processor/ChibiOS//os/ext/CMSIS/ST/system_stm32f4xx.h"
 720              		.file 11 "../lib/e-puck2_main-processor/ChibiOS//os/ext/CMSIS/ST/stm32f407xx.h"
 721              		.file 12 "../lib/e-puck2_main-processor/ChibiOS//os/rt/ports/ARMCMx/chcore.h"
 722              		.file 13 "../lib/e-puck2_main-processor/ChibiOS//os/rt/ports/ARMCMx/chcore_v7m.h"
 723              		.file 14 "../lib/e-puck2_main-processor/ChibiOS//os/rt/include/chdebug.h"
 724              		.file 15 "../lib/e-puck2_main-processor/ChibiOS//os/rt/include/chtm.h"
 725              		.file 16 "../lib/e-puck2_main-processor/ChibiOS//os/rt/include/chstats.h"
 726              		.file 17 "../lib/e-puck2_main-processor/ChibiOS//os/rt/include/chsem.h"
 727              		.file 18 "../lib/e-puck2_main-processor/ChibiOS//os/rt/include/chmtx.h"
 728              		.file 19 "../lib/e-puck2_main-processor/ChibiOS//os/rt/include/chevents.h"
ARM GAS  C:\Users\PCHAUT~1\AppData\Local\Temp\cc9QAJZ7.s 			page 14


 729              		.file 20 "../lib/e-puck2_main-processor/ChibiOS//os/rt/include/chqueues.h"
 730              		.file 21 "../lib/e-puck2_main-processor/ChibiOS//os/hal/ports/STM32/STM32F4xx/stm32_dma.h"
 731              		.file 22 "../lib/e-puck2_main-processor/ChibiOS//os/hal/include/hal_ioblock.h"
 732              		.file 23 "../lib/e-puck2_main-processor/ChibiOS//os/hal/ports/STM32/LLD/GPIOv2/pal_lld.h"
 733              		.file 24 "../lib/e-puck2_main-processor/ChibiOS//os/hal/include/adc.h"
 734              		.file 25 "../lib/e-puck2_main-processor/ChibiOS//os/hal/ports/STM32/STM32F4xx/adc_lld.h"
 735              		.file 26 "../lib/e-puck2_main-processor/ChibiOS//os/hal/include/can.h"
 736              		.file 27 "../lib/e-puck2_main-processor/ChibiOS//os/hal/ports/STM32/LLD/can_lld.h"
 737              		.file 28 "../lib/e-puck2_main-processor/ChibiOS//os/hal/include/dac.h"
 738              		.file 29 "../lib/e-puck2_main-processor/ChibiOS//os/hal/ports/STM32/LLD/DACv1/dac_lld.h"
 739              		.file 30 "../lib/e-puck2_main-processor/ChibiOS//os/hal/include/ext.h"
 740              		.file 31 "../lib/e-puck2_main-processor/ChibiOS//os/hal/ports/STM32/LLD/ext_lld.h"
 741              		.file 32 "../lib/e-puck2_main-processor/ChibiOS//os/hal/include/gpt.h"
 742              		.file 33 "../lib/e-puck2_main-processor/ChibiOS//os/hal/ports/STM32/LLD/TIMv1/gpt_lld.h"
 743              		.file 34 "../lib/e-puck2_main-processor/ChibiOS//os/hal/ports/STM32/LLD/TIMv1/stm32_tim.h"
 744              		.file 35 "../lib/e-puck2_main-processor/ChibiOS//os/hal/include/i2c.h"
 745              		.file 36 "../lib/e-puck2_main-processor/ChibiOS//os/hal/ports/STM32/LLD/I2Cv1/i2c_lld.h"
 746              		.file 37 "../lib/e-puck2_main-processor/ChibiOS//os/hal/include/i2s.h"
 747              		.file 38 "../lib/e-puck2_main-processor/ChibiOS//os/hal/ports/STM32/LLD/SPIv1/i2s_lld.h"
 748              		.file 39 "../lib/e-puck2_main-processor/ChibiOS//os/hal/include/pwm.h"
 749              		.file 40 "../lib/e-puck2_main-processor/ChibiOS//os/hal/ports/STM32/LLD/TIMv1/pwm_lld.h"
 750              		.file 41 "../lib/e-puck2_main-processor/ChibiOS//os/hal/include/serial.h"
 751              		.file 42 "../lib/e-puck2_main-processor/ChibiOS//os/hal/ports/STM32/LLD/USARTv1/serial_lld.h"
 752              		.file 43 "../lib/e-puck2_main-processor/ChibiOS//os/hal/include/sdc.h"
 753              		.file 44 "../lib/e-puck2_main-processor/ChibiOS//os/hal/ports/STM32/LLD/sdc_lld.h"
 754              		.file 45 "../lib/e-puck2_main-processor/ChibiOS//os/hal/include/spi.h"
 755              		.file 46 "../lib/e-puck2_main-processor/ChibiOS//os/hal/ports/STM32/LLD/SPIv1/spi_lld.h"
 756              		.file 47 "../lib/e-puck2_main-processor/ChibiOS//os/hal/include/usb.h"
 757              		.file 48 "../lib/e-puck2_main-processor/ChibiOS//os/hal/ports/STM32/LLD/OTGv1/usb_lld.h"
 758              		.file 49 "../lib/e-puck2_main-processor/ChibiOS//os/hal/ports/STM32/LLD/OTGv1/stm32_otg.h"
 759              		.file 50 "c:\\users\\pchautems\\documents\\robotiquetp\\eclipse_e-puck2\\tools\\gcc-arm-none-eabi-
 760              		.file 51 "c:\\users\\pchautems\\documents\\robotiquetp\\eclipse_e-puck2\\tools\\gcc-arm-none-eabi-
 761              		.file 52 "c:\\users\\pchautems\\documents\\robotiquetp\\eclipse_e-puck2\\tools\\gcc-arm-none-eabi-
 762              		.file 53 "c:\\users\\pchautems\\documents\\robotiquetp\\eclipse_e-puck2\\tools\\gcc-arm-none-eabi-
 763              		.file 54 "../lib/e-puck2_main-processor/aseba/transport/can/../../common/types.h"
 764              		.file 55 "../lib/e-puck2_main-processor/aseba/transport/can/can-net.h"
 765              		.file 56 "../lib/e-puck2_main-processor/aseba/vm/vm.h"