ARM GAS  C:\Users\PCHAUT~1\AppData\Local\Temp\ccdyDonj.s 			page 1


   1              		.cpu cortex-m4
   2              		.eabi_attribute 27, 1
   3              		.eabi_attribute 28, 1
   4              		.eabi_attribute 20, 1
   5              		.eabi_attribute 21, 1
   6              		.eabi_attribute 23, 3
   7              		.eabi_attribute 24, 1
   8              		.eabi_attribute 25, 1
   9              		.eabi_attribute 26, 1
  10              		.eabi_attribute 30, 6
  11              		.eabi_attribute 34, 1
  12              		.eabi_attribute 18, 4
  13              		.file	"audio_thread.c"
  14              		.text
  15              	.Ltext0:
  16              		.cfi_sections	.debug_frame
  17              		.section	.rodata.sinus_buffer,"a",%progbits
  18              		.align	2
  19              		.type	sinus_buffer, %object
  20              		.size	sinus_buffer, 720
  21              	sinus_buffer:
  22 0000 FF07     		.short	2047
  23 0002 2208     		.short	2082
  24 0004 4608     		.short	2118
  25 0006 6A08     		.short	2154
  26 0008 8D08     		.short	2189
  27 000a B108     		.short	2225
  28 000c D408     		.short	2260
  29 000e F808     		.short	2296
  30 0010 1B09     		.short	2331
  31 0012 3F09     		.short	2367
  32 0014 6209     		.short	2402
  33 0016 8509     		.short	2437
  34 0018 A809     		.short	2472
  35 001a CB09     		.short	2507
  36 001c EE09     		.short	2542
  37 001e 100A     		.short	2576
  38 0020 330A     		.short	2611
  39 0022 550A     		.short	2645
  40 0024 770A     		.short	2679
  41 0026 990A     		.short	2713
  42 0028 BB0A     		.short	2747
  43 002a DC0A     		.short	2780
  44 002c FD0A     		.short	2813
  45 002e 1E0B     		.short	2846
  46 0030 3F0B     		.short	2879
  47 0032 600B     		.short	2912
  48 0034 800B     		.short	2944
  49 0036 A00B     		.short	2976
  50 0038 C00B     		.short	3008
  51 003a DF0B     		.short	3039
  52 003c FE0B     		.short	3070
  53 003e 1D0C     		.short	3101
  54 0040 3B0C     		.short	3131
  55 0042 590C     		.short	3161
  56 0044 770C     		.short	3191
  57 0046 950C     		.short	3221
ARM GAS  C:\Users\PCHAUT~1\AppData\Local\Temp\ccdyDonj.s 			page 2


  58 0048 B20C     		.short	3250
  59 004a CE0C     		.short	3278
  60 004c EB0C     		.short	3307
  61 004e 070D     		.short	3335
  62 0050 220D     		.short	3362
  63 0052 3D0D     		.short	3389
  64 0054 580D     		.short	3416
  65 0056 730D     		.short	3443
  66 0058 8C0D     		.short	3468
  67 005a A60D     		.short	3494
  68 005c BF0D     		.short	3519
  69 005e D80D     		.short	3544
  70 0060 F00D     		.short	3568
  71 0062 070E     		.short	3591
  72 0064 1F0E     		.short	3615
  73 0066 350E     		.short	3637
  74 0068 4C0E     		.short	3660
  75 006a 610E     		.short	3681
  76 006c 770E     		.short	3703
  77 006e 8B0E     		.short	3723
  78 0070 A00E     		.short	3744
  79 0072 B30E     		.short	3763
  80 0074 C60E     		.short	3782
  81 0076 D90E     		.short	3801
  82 0078 EB0E     		.short	3819
  83 007a FD0E     		.short	3837
  84 007c 0E0F     		.short	3854
  85 007e 1E0F     		.short	3870
  86 0080 2E0F     		.short	3886
  87 0082 3E0F     		.short	3902
  88 0084 4D0F     		.short	3917
  89 0086 5B0F     		.short	3931
  90 0088 680F     		.short	3944
  91 008a 760F     		.short	3958
  92 008c 820F     		.short	3970
  93 008e 8E0F     		.short	3982
  94 0090 990F     		.short	3993
  95 0092 A40F     		.short	4004
  96 0094 AE0F     		.short	4014
  97 0096 B80F     		.short	4024
  98 0098 C10F     		.short	4033
  99 009a C90F     		.short	4041
 100 009c D10F     		.short	4049
 101 009e D80F     		.short	4056
 102 00a0 DE0F     		.short	4062
 103 00a2 E40F     		.short	4068
 104 00a4 EA0F     		.short	4074
 105 00a6 EE0F     		.short	4078
 106 00a8 F20F     		.short	4082
 107 00aa F60F     		.short	4086
 108 00ac F90F     		.short	4089
 109 00ae FB0F     		.short	4091
 110 00b0 FC0F     		.short	4092
 111 00b2 FD0F     		.short	4093
 112 00b4 FE0F     		.short	4094
 113 00b6 FD0F     		.short	4093
 114 00b8 FC0F     		.short	4092
ARM GAS  C:\Users\PCHAUT~1\AppData\Local\Temp\ccdyDonj.s 			page 3


 115 00ba FB0F     		.short	4091
 116 00bc F90F     		.short	4089
 117 00be F60F     		.short	4086
 118 00c0 F20F     		.short	4082
 119 00c2 EE0F     		.short	4078
 120 00c4 EA0F     		.short	4074
 121 00c6 E40F     		.short	4068
 122 00c8 DE0F     		.short	4062
 123 00ca D80F     		.short	4056
 124 00cc D10F     		.short	4049
 125 00ce C90F     		.short	4041
 126 00d0 C10F     		.short	4033
 127 00d2 B80F     		.short	4024
 128 00d4 AE0F     		.short	4014
 129 00d6 A40F     		.short	4004
 130 00d8 990F     		.short	3993
 131 00da 8E0F     		.short	3982
 132 00dc 820F     		.short	3970
 133 00de 760F     		.short	3958
 134 00e0 680F     		.short	3944
 135 00e2 5B0F     		.short	3931
 136 00e4 4D0F     		.short	3917
 137 00e6 3E0F     		.short	3902
 138 00e8 2E0F     		.short	3886
 139 00ea 1E0F     		.short	3870
 140 00ec 0E0F     		.short	3854
 141 00ee FD0E     		.short	3837
 142 00f0 EB0E     		.short	3819
 143 00f2 D90E     		.short	3801
 144 00f4 C60E     		.short	3782
 145 00f6 B30E     		.short	3763
 146 00f8 A00E     		.short	3744
 147 00fa 8B0E     		.short	3723
 148 00fc 770E     		.short	3703
 149 00fe 610E     		.short	3681
 150 0100 4C0E     		.short	3660
 151 0102 350E     		.short	3637
 152 0104 1F0E     		.short	3615
 153 0106 070E     		.short	3591
 154 0108 F00D     		.short	3568
 155 010a D80D     		.short	3544
 156 010c BF0D     		.short	3519
 157 010e A60D     		.short	3494
 158 0110 8C0D     		.short	3468
 159 0112 730D     		.short	3443
 160 0114 580D     		.short	3416
 161 0116 3D0D     		.short	3389
 162 0118 220D     		.short	3362
 163 011a 070D     		.short	3335
 164 011c EB0C     		.short	3307
 165 011e CE0C     		.short	3278
 166 0120 B20C     		.short	3250
 167 0122 950C     		.short	3221
 168 0124 770C     		.short	3191
 169 0126 590C     		.short	3161
 170 0128 3B0C     		.short	3131
 171 012a 1D0C     		.short	3101
ARM GAS  C:\Users\PCHAUT~1\AppData\Local\Temp\ccdyDonj.s 			page 4


 172 012c FE0B     		.short	3070
 173 012e DF0B     		.short	3039
 174 0130 C00B     		.short	3008
 175 0132 A00B     		.short	2976
 176 0134 800B     		.short	2944
 177 0136 600B     		.short	2912
 178 0138 3F0B     		.short	2879
 179 013a 1E0B     		.short	2846
 180 013c FD0A     		.short	2813
 181 013e DC0A     		.short	2780
 182 0140 BB0A     		.short	2747
 183 0142 990A     		.short	2713
 184 0144 770A     		.short	2679
 185 0146 550A     		.short	2645
 186 0148 330A     		.short	2611
 187 014a 100A     		.short	2576
 188 014c EE09     		.short	2542
 189 014e CB09     		.short	2507
 190 0150 A809     		.short	2472
 191 0152 8509     		.short	2437
 192 0154 6209     		.short	2402
 193 0156 3F09     		.short	2367
 194 0158 1B09     		.short	2331
 195 015a F808     		.short	2296
 196 015c D408     		.short	2260
 197 015e B108     		.short	2225
 198 0160 8D08     		.short	2189
 199 0162 6A08     		.short	2154
 200 0164 4608     		.short	2118
 201 0166 2208     		.short	2082
 202 0168 FF07     		.short	2047
 203 016a DC07     		.short	2012
 204 016c B807     		.short	1976
 205 016e 9407     		.short	1940
 206 0170 7107     		.short	1905
 207 0172 4D07     		.short	1869
 208 0174 2A07     		.short	1834
 209 0176 0607     		.short	1798
 210 0178 E306     		.short	1763
 211 017a BF06     		.short	1727
 212 017c 9C06     		.short	1692
 213 017e 7906     		.short	1657
 214 0180 5606     		.short	1622
 215 0182 3306     		.short	1587
 216 0184 1006     		.short	1552
 217 0186 EE05     		.short	1518
 218 0188 CB05     		.short	1483
 219 018a A905     		.short	1449
 220 018c 8705     		.short	1415
 221 018e 6505     		.short	1381
 222 0190 4305     		.short	1347
 223 0192 2205     		.short	1314
 224 0194 0105     		.short	1281
 225 0196 E004     		.short	1248
 226 0198 BF04     		.short	1215
 227 019a 9E04     		.short	1182
 228 019c 7E04     		.short	1150
ARM GAS  C:\Users\PCHAUT~1\AppData\Local\Temp\ccdyDonj.s 			page 5


 229 019e 5E04     		.short	1118
 230 01a0 3E04     		.short	1086
 231 01a2 1F04     		.short	1055
 232 01a4 0004     		.short	1024
 233 01a6 E103     		.short	993
 234 01a8 C303     		.short	963
 235 01aa A503     		.short	933
 236 01ac 8703     		.short	903
 237 01ae 6903     		.short	873
 238 01b0 4C03     		.short	844
 239 01b2 3003     		.short	816
 240 01b4 1303     		.short	787
 241 01b6 F702     		.short	759
 242 01b8 DC02     		.short	732
 243 01ba C102     		.short	705
 244 01bc A602     		.short	678
 245 01be 8B02     		.short	651
 246 01c0 7202     		.short	626
 247 01c2 5802     		.short	600
 248 01c4 3F02     		.short	575
 249 01c6 2602     		.short	550
 250 01c8 0E02     		.short	526
 251 01ca F701     		.short	503
 252 01cc DF01     		.short	479
 253 01ce C901     		.short	457
 254 01d0 B201     		.short	434
 255 01d2 9D01     		.short	413
 256 01d4 8701     		.short	391
 257 01d6 7301     		.short	371
 258 01d8 5E01     		.short	350
 259 01da 4B01     		.short	331
 260 01dc 3801     		.short	312
 261 01de 2501     		.short	293
 262 01e0 1301     		.short	275
 263 01e2 0101     		.short	257
 264 01e4 F000     		.short	240
 265 01e6 E000     		.short	224
 266 01e8 D000     		.short	208
 267 01ea C000     		.short	192
 268 01ec B100     		.short	177
 269 01ee A300     		.short	163
 270 01f0 9600     		.short	150
 271 01f2 8800     		.short	136
 272 01f4 7C00     		.short	124
 273 01f6 7000     		.short	112
 274 01f8 6500     		.short	101
 275 01fa 5A00     		.short	90
 276 01fc 5000     		.short	80
 277 01fe 4600     		.short	70
 278 0200 3D00     		.short	61
 279 0202 3500     		.short	53
 280 0204 2D00     		.short	45
 281 0206 2600     		.short	38
 282 0208 2000     		.short	32
 283 020a 1A00     		.short	26
 284 020c 1400     		.short	20
 285 020e 1000     		.short	16
ARM GAS  C:\Users\PCHAUT~1\AppData\Local\Temp\ccdyDonj.s 			page 6


 286 0210 0C00     		.short	12
 287 0212 0800     		.short	8
 288 0214 0500     		.short	5
 289 0216 0300     		.short	3
 290 0218 0200     		.short	2
 291 021a 0100     		.short	1
 292 021c 0000     		.short	0
 293 021e 0100     		.short	1
 294 0220 0200     		.short	2
 295 0222 0300     		.short	3
 296 0224 0500     		.short	5
 297 0226 0800     		.short	8
 298 0228 0C00     		.short	12
 299 022a 1000     		.short	16
 300 022c 1400     		.short	20
 301 022e 1A00     		.short	26
 302 0230 2000     		.short	32
 303 0232 2600     		.short	38
 304 0234 2D00     		.short	45
 305 0236 3500     		.short	53
 306 0238 3D00     		.short	61
 307 023a 4600     		.short	70
 308 023c 5000     		.short	80
 309 023e 5A00     		.short	90
 310 0240 6500     		.short	101
 311 0242 7000     		.short	112
 312 0244 7C00     		.short	124
 313 0246 8800     		.short	136
 314 0248 9600     		.short	150
 315 024a A300     		.short	163
 316 024c B100     		.short	177
 317 024e C000     		.short	192
 318 0250 D000     		.short	208
 319 0252 E000     		.short	224
 320 0254 F000     		.short	240
 321 0256 0101     		.short	257
 322 0258 1301     		.short	275
 323 025a 2501     		.short	293
 324 025c 3801     		.short	312
 325 025e 4B01     		.short	331
 326 0260 5E01     		.short	350
 327 0262 7301     		.short	371
 328 0264 8701     		.short	391
 329 0266 9D01     		.short	413
 330 0268 B201     		.short	434
 331 026a C901     		.short	457
 332 026c DF01     		.short	479
 333 026e F701     		.short	503
 334 0270 0E02     		.short	526
 335 0272 2602     		.short	550
 336 0274 3F02     		.short	575
 337 0276 5802     		.short	600
 338 0278 7202     		.short	626
 339 027a 8B02     		.short	651
 340 027c A602     		.short	678
 341 027e C102     		.short	705
 342 0280 DC02     		.short	732
ARM GAS  C:\Users\PCHAUT~1\AppData\Local\Temp\ccdyDonj.s 			page 7


 343 0282 F702     		.short	759
 344 0284 1303     		.short	787
 345 0286 3003     		.short	816
 346 0288 4C03     		.short	844
 347 028a 6903     		.short	873
 348 028c 8703     		.short	903
 349 028e A503     		.short	933
 350 0290 C303     		.short	963
 351 0292 E103     		.short	993
 352 0294 0004     		.short	1024
 353 0296 1F04     		.short	1055
 354 0298 3E04     		.short	1086
 355 029a 5E04     		.short	1118
 356 029c 7E04     		.short	1150
 357 029e 9E04     		.short	1182
 358 02a0 BF04     		.short	1215
 359 02a2 E004     		.short	1248
 360 02a4 0105     		.short	1281
 361 02a6 2205     		.short	1314
 362 02a8 4305     		.short	1347
 363 02aa 6505     		.short	1381
 364 02ac 8705     		.short	1415
 365 02ae A905     		.short	1449
 366 02b0 CB05     		.short	1483
 367 02b2 EE05     		.short	1518
 368 02b4 1006     		.short	1552
 369 02b6 3306     		.short	1587
 370 02b8 5606     		.short	1622
 371 02ba 7906     		.short	1657
 372 02bc 9C06     		.short	1692
 373 02be BF06     		.short	1727
 374 02c0 E306     		.short	1763
 375 02c2 0607     		.short	1798
 376 02c4 2A07     		.short	1834
 377 02c6 4D07     		.short	1869
 378 02c8 7107     		.short	1905
 379 02ca 9407     		.short	1940
 380 02cc B807     		.short	1976
 381 02ce DC07     		.short	2012
 382              		.section	.bss.dac_conversion,"aw",%nobits
 383              		.align	2
 384              		.type	dac_conversion, %object
 385              		.size	dac_conversion, 16
 386              	dac_conversion:
 387 0000 00000000 		.space	16
 387      00000000 
 387      00000000 
 387      00000000 
 388              		.section	.bss.dac_state,"aw",%nobits
 389              		.type	dac_state, %object
 390              		.size	dac_state, 1
 391              	dac_state:
 392 0000 00       		.space	1
 393              		.section	.rodata
 394              		.align	2
 395              	.LC0:
 396 0000 44414320 		.ascii	"DAC failure\000"
ARM GAS  C:\Users\PCHAUT~1\AppData\Local\Temp\ccdyDonj.s 			page 8


 396      6661696C 
 396      75726500 
 397              		.section	.text.error_cb,"ax",%progbits
 398              		.align	1
 399              		.p2align 4,,15
 400              		.syntax unified
 401              		.thumb
 402              		.thumb_func
 403              		.fpu fpv4-sp-d16
 404              		.type	error_cb, %function
 405              	error_cb:
 406              	.LFB256:
 407              		.file 1 "../lib/e-puck2_main-processor/src/audio/audio_thread.c"
 408              		.loc 1 66 0
 409              		.cfi_startproc
 410              		@ args = 0, pretend = 0, frame = 16
 411              		@ frame_needed = 0, uses_anonymous_args = 0
 412 0000 00B5     		push	{lr}
 413              		.cfi_def_cfa_offset 4
 414              		.cfi_offset 14, -4
 415 0002 85B0     		sub	sp, sp, #20
 416              		.cfi_def_cfa_offset 24
 417 0004 0190     		str	r0, [sp, #4]
 418 0006 0B46     		mov	r3, r1
 419 0008 8DF80330 		strb	r3, [sp, #3]
 420              		.loc 1 66 0
 421 000c 084B     		ldr	r3, .L3
 422 000e 1B68     		ldr	r3, [r3]
 423 0010 0393     		str	r3, [sp, #12]
 424              		.loc 1 71 0
 425 0012 0848     		ldr	r0, .L3+4
 426 0014 FFF7FEFF 		bl	chSysHalt
 427              		.loc 1 72 0
 428 0018 00BF     		nop
 429 001a 054B     		ldr	r3, .L3
 430 001c 039A     		ldr	r2, [sp, #12]
 431 001e 1B68     		ldr	r3, [r3]
 432 0020 9A42     		cmp	r2, r3
 433 0022 01D0     		beq	.L2
 434 0024 FFF7FEFF 		bl	__stack_chk_fail
 435              	.L2:
 436 0028 05B0     		add	sp, sp, #20
 437              		.cfi_def_cfa_offset 4
 438              		@ sp needed
 439 002a 5DF804FB 		ldr	pc, [sp], #4
 440              	.L4:
 441 002e 00BF     		.align	2
 442              	.L3:
 443 0030 00000000 		.word	__stack_chk_guard
 444 0034 00000000 		.word	.LC0
 445              		.cfi_endproc
 446              	.LFE256:
 447              		.size	error_cb, .-error_cb
 448              		.section	.text.dac_start,"ax",%progbits
 449              		.align	1
 450              		.p2align 4,,15
 451              		.global	dac_start
ARM GAS  C:\Users\PCHAUT~1\AppData\Local\Temp\ccdyDonj.s 			page 9


 452              		.syntax unified
 453              		.thumb
 454              		.thumb_func
 455              		.fpu fpv4-sp-d16
 456              		.type	dac_start, %function
 457              	dac_start:
 458              	.LFB257:
 459              		.loc 1 79 0
 460              		.cfi_startproc
 461              		@ args = 0, pretend = 0, frame = 8
 462              		@ frame_needed = 0, uses_anonymous_args = 0
 463 0000 00B5     		push	{lr}
 464              		.cfi_def_cfa_offset 4
 465              		.cfi_offset 14, -4
 466 0002 83B0     		sub	sp, sp, #12
 467              		.cfi_def_cfa_offset 16
 468              		.loc 1 79 0
 469 0004 1B4B     		ldr	r3, .L7
 470 0006 1B68     		ldr	r3, [r3]
 471 0008 0193     		str	r3, [sp, #4]
 472              		.loc 1 80 0
 473 000a 1B4B     		ldr	r3, .L7+4
 474 000c 0122     		movs	r2, #1
 475 000e 1A60     		str	r2, [r3]
 476              		.loc 1 81 0
 477 0010 194B     		ldr	r3, .L7+4
 478 0012 0022     		movs	r2, #0
 479 0014 5A60     		str	r2, [r3, #4]
 480              		.loc 1 82 0
 481 0016 184B     		ldr	r3, .L7+4
 482 0018 184A     		ldr	r2, .L7+8
 483 001a 9A60     		str	r2, [r3, #8]
 484              		.loc 1 83 0
 485 001c 164B     		ldr	r3, .L7+4
 486 001e 0022     		movs	r2, #0
 487 0020 DA60     		str	r2, [r3, #12]
 488              		.loc 1 86 0
 489 0022 174B     		ldr	r3, .L7+12
 490 0024 4FF40062 		mov	r2, #2048
 491 0028 1A80     		strh	r2, [r3]	@ movhi
 492              		.loc 1 87 0
 493 002a 154B     		ldr	r3, .L7+12
 494 002c 0022     		movs	r2, #0
 495 002e 9A70     		strb	r2, [r3, #2]
 496              		.loc 1 89 0
 497 0030 1349     		ldr	r1, .L7+12
 498 0032 1448     		ldr	r0, .L7+16
 499 0034 FFF7FEFF 		bl	dacStart
 500              		.loc 1 93 0
 501 0038 134B     		ldr	r3, .L7+20
 502 003a 144A     		ldr	r2, .L7+24
 503 003c 1A60     		str	r2, [r3]
 504              		.loc 1 94 0
 505 003e 124B     		ldr	r3, .L7+20
 506 0040 0022     		movs	r2, #0
 507 0042 5A60     		str	r2, [r3, #4]
 508              		.loc 1 95 0
ARM GAS  C:\Users\PCHAUT~1\AppData\Local\Temp\ccdyDonj.s 			page 10


 509 0044 104B     		ldr	r3, .L7+20
 510 0046 2022     		movs	r2, #32
 511 0048 9A60     		str	r2, [r3, #8]
 512              		.loc 1 96 0
 513 004a 0F4B     		ldr	r3, .L7+20
 514 004c 0022     		movs	r2, #0
 515 004e DA60     		str	r2, [r3, #12]
 516              		.loc 1 98 0
 517 0050 0D49     		ldr	r1, .L7+20
 518 0052 0F48     		ldr	r0, .L7+28
 519 0054 FFF7FEFF 		bl	gptStart
 520              		.loc 1 101 0
 521 0058 FFF7FEFF 		bl	dac_stop
 522              		.loc 1 103 0
 523 005c 00BF     		nop
 524 005e 054B     		ldr	r3, .L7
 525 0060 019A     		ldr	r2, [sp, #4]
 526 0062 1B68     		ldr	r3, [r3]
 527 0064 9A42     		cmp	r2, r3
 528 0066 01D0     		beq	.L6
 529 0068 FFF7FEFF 		bl	__stack_chk_fail
 530              	.L6:
 531 006c 03B0     		add	sp, sp, #12
 532              		.cfi_def_cfa_offset 4
 533              		@ sp needed
 534 006e 5DF804FB 		ldr	pc, [sp], #4
 535              	.L8:
 536 0072 00BF     		.align	2
 537              	.L7:
 538 0074 00000000 		.word	__stack_chk_guard
 539 0078 00000000 		.word	dac_conversion
 540 007c 00000000 		.word	error_cb
 541 0080 00000000 		.word	dac_config.9867
 542 0084 00000000 		.word	DACD2
 543 0088 00000000 		.word	config.9868
 544 008c 00BD0105 		.word	84000000
 545 0090 00000000 		.word	GPTD6
 546              		.cfi_endproc
 547              	.LFE257:
 548              		.size	dac_start, .-dac_start
 549              		.section	.text.dac_play,"ax",%progbits
 550              		.align	1
 551              		.p2align 4,,15
 552              		.global	dac_play
 553              		.syntax unified
 554              		.thumb
 555              		.thumb_func
 556              		.fpu fpv4-sp-d16
 557              		.type	dac_play, %function
 558              	dac_play:
 559              	.LFB258:
 560              		.loc 1 105 0
 561              		.cfi_startproc
 562              		@ args = 0, pretend = 0, frame = 16
 563              		@ frame_needed = 0, uses_anonymous_args = 0
 564 0000 00B5     		push	{lr}
 565              		.cfi_def_cfa_offset 4
ARM GAS  C:\Users\PCHAUT~1\AppData\Local\Temp\ccdyDonj.s 			page 11


 566              		.cfi_offset 14, -4
 567 0002 85B0     		sub	sp, sp, #20
 568              		.cfi_def_cfa_offset 24
 569 0004 0346     		mov	r3, r0
 570 0006 ADF80630 		strh	r3, [sp, #6]	@ movhi
 571              		.loc 1 105 0
 572 000a 1E4B     		ldr	r3, .L14
 573 000c 1B68     		ldr	r3, [r3]
 574 000e 0393     		str	r3, [sp, #12]
 575              		.loc 1 106 0
 576 0010 1D4B     		ldr	r3, .L14+4
 577 0012 1B78     		ldrb	r3, [r3]	@ zero_extendqisi2
 578 0014 002B     		cmp	r3, #0
 579 0016 1BD1     		bne	.L10
 580              		.loc 1 107 0
 581 0018 1B4B     		ldr	r3, .L14+4
 582 001a 0122     		movs	r2, #1
 583 001c 1A70     		strb	r2, [r3]
 584              		.loc 1 108 0
 585 001e 0120     		movs	r0, #1
 586 0020 FFF7FEFF 		bl	dac_power_speaker
 587              		.loc 1 109 0
 588 0024 4FF4B473 		mov	r3, #360
 589 0028 184A     		ldr	r2, .L14+8
 590 002a 1949     		ldr	r1, .L14+12
 591 002c 1948     		ldr	r0, .L14+16
 592 002e FFF7FEFF 		bl	dacStartConversion
 593              		.loc 1 110 0
 594 0032 BDF80630 		ldrh	r3, [sp, #6]
 595 0036 4FF4B472 		mov	r2, #360
 596 003a 02FB03F3 		mul	r3, r2, r3
 597 003e 1A46     		mov	r2, r3
 598 0040 154B     		ldr	r3, .L14+20
 599 0042 B3FBF2F3 		udiv	r3, r3, r2
 600 0046 1946     		mov	r1, r3
 601 0048 1448     		ldr	r0, .L14+24
 602 004a FFF7FEFF 		bl	gptStartContinuous
 603              		.loc 1 114 0
 604 004e 0DE0     		b	.L13
 605              	.L10:
 606              		.loc 1 112 0
 607 0050 BDF80630 		ldrh	r3, [sp, #6]
 608 0054 4FF4B472 		mov	r2, #360
 609 0058 02FB03F3 		mul	r3, r2, r3
 610 005c 1A46     		mov	r2, r3
 611 005e 0E4B     		ldr	r3, .L14+20
 612 0060 B3FBF2F3 		udiv	r3, r3, r2
 613 0064 1946     		mov	r1, r3
 614 0066 0D48     		ldr	r0, .L14+24
 615 0068 FFF7FEFF 		bl	gptChangeInterval
 616              	.L13:
 617              		.loc 1 114 0
 618 006c 00BF     		nop
 619 006e 054B     		ldr	r3, .L14
 620 0070 039A     		ldr	r2, [sp, #12]
 621 0072 1B68     		ldr	r3, [r3]
 622 0074 9A42     		cmp	r2, r3
ARM GAS  C:\Users\PCHAUT~1\AppData\Local\Temp\ccdyDonj.s 			page 12


 623 0076 01D0     		beq	.L12
 624 0078 FFF7FEFF 		bl	__stack_chk_fail
 625              	.L12:
 626 007c 05B0     		add	sp, sp, #20
 627              		.cfi_def_cfa_offset 4
 628              		@ sp needed
 629 007e 5DF804FB 		ldr	pc, [sp], #4
 630              	.L15:
 631 0082 00BF     		.align	2
 632              	.L14:
 633 0084 00000000 		.word	__stack_chk_guard
 634 0088 00000000 		.word	dac_state
 635 008c 00000000 		.word	sinus_buffer
 636 0090 00000000 		.word	dac_conversion
 637 0094 00000000 		.word	DACD2
 638 0098 00BD0105 		.word	84000000
 639 009c 00000000 		.word	GPTD6
 640              		.cfi_endproc
 641              	.LFE258:
 642              		.size	dac_play, .-dac_play
 643              		.section	.text.dac_play_buffer,"ax",%progbits
 644              		.align	1
 645              		.p2align 4,,15
 646              		.global	dac_play_buffer
 647              		.syntax unified
 648              		.thumb
 649              		.thumb_func
 650              		.fpu fpv4-sp-d16
 651              		.type	dac_play_buffer, %function
 652              	dac_play_buffer:
 653              	.LFB259:
 654              		.loc 1 116 0
 655              		.cfi_startproc
 656              		@ args = 0, pretend = 0, frame = 24
 657              		@ frame_needed = 0, uses_anonymous_args = 0
 658 0000 00B5     		push	{lr}
 659              		.cfi_def_cfa_offset 4
 660              		.cfi_offset 14, -4
 661 0002 87B0     		sub	sp, sp, #28
 662              		.cfi_def_cfa_offset 32
 663 0004 0390     		str	r0, [sp, #12]
 664 0006 0291     		str	r1, [sp, #8]
 665 0008 0192     		str	r2, [sp, #4]
 666 000a 0093     		str	r3, [sp]
 667              		.loc 1 116 0
 668 000c 184B     		ldr	r3, .L21
 669 000e 1B68     		ldr	r3, [r3]
 670 0010 0593     		str	r3, [sp, #20]
 671              		.loc 1 117 0
 672 0012 184B     		ldr	r3, .L21+4
 673 0014 1B78     		ldrb	r3, [r3]	@ zero_extendqisi2
 674 0016 002B     		cmp	r3, #0
 675 0018 17D1     		bne	.L17
 676              		.loc 1 118 0
 677 001a 164B     		ldr	r3, .L21+4
 678 001c 0122     		movs	r2, #1
 679 001e 1A70     		strb	r2, [r3]
ARM GAS  C:\Users\PCHAUT~1\AppData\Local\Temp\ccdyDonj.s 			page 13


 680              		.loc 1 119 0
 681 0020 154A     		ldr	r2, .L21+8
 682 0022 009B     		ldr	r3, [sp]
 683 0024 5360     		str	r3, [r2, #4]
 684              		.loc 1 120 0
 685 0026 0120     		movs	r0, #1
 686 0028 FFF7FEFF 		bl	dac_power_speaker
 687              		.loc 1 121 0
 688 002c 029B     		ldr	r3, [sp, #8]
 689 002e 039A     		ldr	r2, [sp, #12]
 690 0030 1149     		ldr	r1, .L21+8
 691 0032 1248     		ldr	r0, .L21+12
 692 0034 FFF7FEFF 		bl	dacStartConversion
 693              		.loc 1 122 0
 694 0038 114A     		ldr	r2, .L21+16
 695 003a 019B     		ldr	r3, [sp, #4]
 696 003c B2FBF3F3 		udiv	r3, r2, r3
 697 0040 1946     		mov	r1, r3
 698 0042 1048     		ldr	r0, .L21+20
 699 0044 FFF7FEFF 		bl	gptStartContinuous
 700              		.loc 1 126 0
 701 0048 07E0     		b	.L20
 702              	.L17:
 703              		.loc 1 124 0
 704 004a 0D4A     		ldr	r2, .L21+16
 705 004c 019B     		ldr	r3, [sp, #4]
 706 004e B2FBF3F3 		udiv	r3, r2, r3
 707 0052 1946     		mov	r1, r3
 708 0054 0B48     		ldr	r0, .L21+20
 709 0056 FFF7FEFF 		bl	gptChangeInterval
 710              	.L20:
 711              		.loc 1 126 0
 712 005a 00BF     		nop
 713 005c 044B     		ldr	r3, .L21
 714 005e 059A     		ldr	r2, [sp, #20]
 715 0060 1B68     		ldr	r3, [r3]
 716 0062 9A42     		cmp	r2, r3
 717 0064 01D0     		beq	.L19
 718 0066 FFF7FEFF 		bl	__stack_chk_fail
 719              	.L19:
 720 006a 07B0     		add	sp, sp, #28
 721              		.cfi_def_cfa_offset 4
 722              		@ sp needed
 723 006c 5DF804FB 		ldr	pc, [sp], #4
 724              	.L22:
 725              		.align	2
 726              	.L21:
 727 0070 00000000 		.word	__stack_chk_guard
 728 0074 00000000 		.word	dac_state
 729 0078 00000000 		.word	dac_conversion
 730 007c 00000000 		.word	DACD2
 731 0080 00BD0105 		.word	84000000
 732 0084 00000000 		.word	GPTD6
 733              		.cfi_endproc
 734              	.LFE259:
 735              		.size	dac_play_buffer, .-dac_play_buffer
 736              		.section	.text.dac_change_bufferI,"ax",%progbits
ARM GAS  C:\Users\PCHAUT~1\AppData\Local\Temp\ccdyDonj.s 			page 14


 737              		.align	1
 738              		.p2align 4,,15
 739              		.global	dac_change_bufferI
 740              		.syntax unified
 741              		.thumb
 742              		.thumb_func
 743              		.fpu fpv4-sp-d16
 744              		.type	dac_change_bufferI, %function
 745              	dac_change_bufferI:
 746              	.LFB260:
 747              		.loc 1 128 0
 748              		.cfi_startproc
 749              		@ args = 0, pretend = 0, frame = 24
 750              		@ frame_needed = 0, uses_anonymous_args = 0
 751 0000 00B5     		push	{lr}
 752              		.cfi_def_cfa_offset 4
 753              		.cfi_offset 14, -4
 754 0002 87B0     		sub	sp, sp, #28
 755              		.cfi_def_cfa_offset 32
 756 0004 0390     		str	r0, [sp, #12]
 757 0006 0291     		str	r1, [sp, #8]
 758 0008 0192     		str	r2, [sp, #4]
 759              		.loc 1 128 0
 760 000a 114B     		ldr	r3, .L25
 761 000c 1B68     		ldr	r3, [r3]
 762 000e 0593     		str	r3, [sp, #20]
 763              		.loc 1 129 0
 764 0010 1048     		ldr	r0, .L25+4
 765 0012 FFF7FEFF 		bl	gptStopTimerI
 766              		.loc 1 130 0
 767 0016 1048     		ldr	r0, .L25+8
 768 0018 FFF7FEFF 		bl	dacStopConversionI
 769              		.loc 1 132 0
 770 001c 029B     		ldr	r3, [sp, #8]
 771 001e 039A     		ldr	r2, [sp, #12]
 772 0020 0E49     		ldr	r1, .L25+12
 773 0022 0D48     		ldr	r0, .L25+8
 774 0024 FFF7FEFF 		bl	dacStartConversionI
 775              		.loc 1 133 0
 776 0028 0D4A     		ldr	r2, .L25+16
 777 002a 019B     		ldr	r3, [sp, #4]
 778 002c B2FBF3F3 		udiv	r3, r2, r3
 779 0030 1946     		mov	r1, r3
 780 0032 0848     		ldr	r0, .L25+4
 781 0034 FFF7FEFF 		bl	gptStartContinuousI
 782              		.loc 1 135 0
 783 0038 00BF     		nop
 784 003a 054B     		ldr	r3, .L25
 785 003c 059A     		ldr	r2, [sp, #20]
 786 003e 1B68     		ldr	r3, [r3]
 787 0040 9A42     		cmp	r2, r3
 788 0042 01D0     		beq	.L24
 789 0044 FFF7FEFF 		bl	__stack_chk_fail
 790              	.L24:
 791 0048 07B0     		add	sp, sp, #28
 792              		.cfi_def_cfa_offset 4
 793              		@ sp needed
ARM GAS  C:\Users\PCHAUT~1\AppData\Local\Temp\ccdyDonj.s 			page 15


 794 004a 5DF804FB 		ldr	pc, [sp], #4
 795              	.L26:
 796 004e 00BF     		.align	2
 797              	.L25:
 798 0050 00000000 		.word	__stack_chk_guard
 799 0054 00000000 		.word	GPTD6
 800 0058 00000000 		.word	DACD2
 801 005c 00000000 		.word	dac_conversion
 802 0060 00BD0105 		.word	84000000
 803              		.cfi_endproc
 804              	.LFE260:
 805              		.size	dac_change_bufferI, .-dac_change_bufferI
 806              		.section	.text.dac_stopI,"ax",%progbits
 807              		.align	1
 808              		.p2align 4,,15
 809              		.global	dac_stopI
 810              		.syntax unified
 811              		.thumb
 812              		.thumb_func
 813              		.fpu fpv4-sp-d16
 814              		.type	dac_stopI, %function
 815              	dac_stopI:
 816              	.LFB261:
 817              		.loc 1 137 0
 818              		.cfi_startproc
 819              		@ args = 0, pretend = 0, frame = 8
 820              		@ frame_needed = 0, uses_anonymous_args = 0
 821 0000 00B5     		push	{lr}
 822              		.cfi_def_cfa_offset 4
 823              		.cfi_offset 14, -4
 824 0002 83B0     		sub	sp, sp, #12
 825              		.cfi_def_cfa_offset 16
 826              		.loc 1 137 0
 827 0004 0C4B     		ldr	r3, .L29
 828 0006 1B68     		ldr	r3, [r3]
 829 0008 0193     		str	r3, [sp, #4]
 830              		.loc 1 138 0
 831 000a 0020     		movs	r0, #0
 832 000c FFF7FEFF 		bl	dac_power_speaker
 833              		.loc 1 139 0
 834 0010 0A48     		ldr	r0, .L29+4
 835 0012 FFF7FEFF 		bl	gptStopTimerI
 836              		.loc 1 140 0
 837 0016 0A48     		ldr	r0, .L29+8
 838 0018 FFF7FEFF 		bl	dacStopConversionI
 839              		.loc 1 141 0
 840 001c 094B     		ldr	r3, .L29+12
 841 001e 0022     		movs	r2, #0
 842 0020 1A70     		strb	r2, [r3]
 843              		.loc 1 142 0
 844 0022 00BF     		nop
 845 0024 044B     		ldr	r3, .L29
 846 0026 019A     		ldr	r2, [sp, #4]
 847 0028 1B68     		ldr	r3, [r3]
 848 002a 9A42     		cmp	r2, r3
 849 002c 01D0     		beq	.L28
 850 002e FFF7FEFF 		bl	__stack_chk_fail
ARM GAS  C:\Users\PCHAUT~1\AppData\Local\Temp\ccdyDonj.s 			page 16


 851              	.L28:
 852 0032 03B0     		add	sp, sp, #12
 853              		.cfi_def_cfa_offset 4
 854              		@ sp needed
 855 0034 5DF804FB 		ldr	pc, [sp], #4
 856              	.L30:
 857              		.align	2
 858              	.L29:
 859 0038 00000000 		.word	__stack_chk_guard
 860 003c 00000000 		.word	GPTD6
 861 0040 00000000 		.word	DACD2
 862 0044 00000000 		.word	dac_state
 863              		.cfi_endproc
 864              	.LFE261:
 865              		.size	dac_stopI, .-dac_stopI
 866              		.section	.text.dac_stop,"ax",%progbits
 867              		.align	1
 868              		.p2align 4,,15
 869              		.global	dac_stop
 870              		.syntax unified
 871              		.thumb
 872              		.thumb_func
 873              		.fpu fpv4-sp-d16
 874              		.type	dac_stop, %function
 875              	dac_stop:
 876              	.LFB262:
 877              		.loc 1 144 0
 878              		.cfi_startproc
 879              		@ args = 0, pretend = 0, frame = 8
 880              		@ frame_needed = 0, uses_anonymous_args = 0
 881 0000 00B5     		push	{lr}
 882              		.cfi_def_cfa_offset 4
 883              		.cfi_offset 14, -4
 884 0002 83B0     		sub	sp, sp, #12
 885              		.cfi_def_cfa_offset 16
 886              		.loc 1 144 0
 887 0004 0C4B     		ldr	r3, .L33
 888 0006 1B68     		ldr	r3, [r3]
 889 0008 0193     		str	r3, [sp, #4]
 890              		.loc 1 145 0
 891 000a 0020     		movs	r0, #0
 892 000c FFF7FEFF 		bl	dac_power_speaker
 893              		.loc 1 146 0
 894 0010 0A48     		ldr	r0, .L33+4
 895 0012 FFF7FEFF 		bl	gptStopTimer
 896              		.loc 1 147 0
 897 0016 0A48     		ldr	r0, .L33+8
 898 0018 FFF7FEFF 		bl	dacStopConversion
 899              		.loc 1 148 0
 900 001c 094B     		ldr	r3, .L33+12
 901 001e 0022     		movs	r2, #0
 902 0020 1A70     		strb	r2, [r3]
 903              		.loc 1 149 0
 904 0022 00BF     		nop
 905 0024 044B     		ldr	r3, .L33
 906 0026 019A     		ldr	r2, [sp, #4]
 907 0028 1B68     		ldr	r3, [r3]
ARM GAS  C:\Users\PCHAUT~1\AppData\Local\Temp\ccdyDonj.s 			page 17


 908 002a 9A42     		cmp	r2, r3
 909 002c 01D0     		beq	.L32
 910 002e FFF7FEFF 		bl	__stack_chk_fail
 911              	.L32:
 912 0032 03B0     		add	sp, sp, #12
 913              		.cfi_def_cfa_offset 4
 914              		@ sp needed
 915 0034 5DF804FB 		ldr	pc, [sp], #4
 916              	.L34:
 917              		.align	2
 918              	.L33:
 919 0038 00000000 		.word	__stack_chk_guard
 920 003c 00000000 		.word	GPTD6
 921 0040 00000000 		.word	DACD2
 922 0044 00000000 		.word	dac_state
 923              		.cfi_endproc
 924              	.LFE262:
 925              		.size	dac_stop, .-dac_stop
 926              		.section	.text.dac_power_speaker,"ax",%progbits
 927              		.align	1
 928              		.p2align 4,,15
 929              		.global	dac_power_speaker
 930              		.syntax unified
 931              		.thumb
 932              		.thumb_func
 933              		.fpu fpv4-sp-d16
 934              		.type	dac_power_speaker, %function
 935              	dac_power_speaker:
 936              	.LFB263:
 937              		.loc 1 151 0
 938              		.cfi_startproc
 939              		@ args = 0, pretend = 0, frame = 16
 940              		@ frame_needed = 0, uses_anonymous_args = 0
 941 0000 00B5     		push	{lr}
 942              		.cfi_def_cfa_offset 4
 943              		.cfi_offset 14, -4
 944 0002 85B0     		sub	sp, sp, #20
 945              		.cfi_def_cfa_offset 24
 946 0004 0346     		mov	r3, r0
 947 0006 8DF80730 		strb	r3, [sp, #7]
 948              		.loc 1 151 0
 949 000a 0C4B     		ldr	r3, .L40
 950 000c 1B68     		ldr	r3, [r3]
 951 000e 0393     		str	r3, [sp, #12]
 952              		.loc 1 152 0
 953 0010 9DF80730 		ldrb	r3, [sp, #7]	@ zero_extendqisi2
 954 0014 002B     		cmp	r3, #0
 955 0016 03D0     		beq	.L36
 956              		.loc 1 153 0
 957 0018 094B     		ldr	r3, .L40+4
 958 001a 8022     		movs	r2, #128
 959 001c 5A83     		strh	r2, [r3, #26]	@ movhi
 960              		.loc 1 157 0
 961 001e 02E0     		b	.L39
 962              	.L36:
 963              		.loc 1 155 0
 964 0020 074B     		ldr	r3, .L40+4
ARM GAS  C:\Users\PCHAUT~1\AppData\Local\Temp\ccdyDonj.s 			page 18


 965 0022 8022     		movs	r2, #128
 966 0024 1A83     		strh	r2, [r3, #24]	@ movhi
 967              	.L39:
 968              		.loc 1 157 0
 969 0026 00BF     		nop
 970 0028 044B     		ldr	r3, .L40
 971 002a 039A     		ldr	r2, [sp, #12]
 972 002c 1B68     		ldr	r3, [r3]
 973 002e 9A42     		cmp	r2, r3
 974 0030 01D0     		beq	.L38
 975 0032 FFF7FEFF 		bl	__stack_chk_fail
 976              	.L38:
 977 0036 05B0     		add	sp, sp, #20
 978              		.cfi_def_cfa_offset 4
 979              		@ sp needed
 980 0038 5DF804FB 		ldr	pc, [sp], #4
 981              	.L41:
 982              		.align	2
 983              	.L40:
 984 003c 00000000 		.word	__stack_chk_guard
 985 0040 000C0240 		.word	1073875968
 986              		.cfi_endproc
 987              	.LFE263:
 988              		.size	dac_power_speaker, .-dac_power_speaker
 989              		.section	.bss.dac_config.9867,"aw",%nobits
 990              		.align	2
 991              		.type	dac_config.9867, %object
 992              		.size	dac_config.9867, 4
 993              	dac_config.9867:
 994 0000 00000000 		.space	4
 995              		.section	.bss.config.9868,"aw",%nobits
 996              		.align	2
 997              		.type	config.9868, %object
 998              		.size	config.9868, 16
 999              	config.9868:
 1000 0000 00000000 		.space	16
 1000      00000000 
 1000      00000000 
 1000      00000000 
 1001              		.text
 1002              	.Letext0:
 1003              		.file 2 "c:\\users\\pchautems\\documents\\robotiquetp\\eclipse_e-puck2\\tools\\gcc-arm-none-eabi-7
 1004              		.file 3 "c:\\users\\pchautems\\documents\\robotiquetp\\eclipse_e-puck2\\tools\\gcc-arm-none-eabi-7
 1005              		.file 4 "c:\\users\\pchautems\\documents\\robotiquetp\\eclipse_e-puck2\\tools\\gcc-arm-none-eabi-7
 1006              		.file 5 "../lib/e-puck2_main-processor/ChibiOS//os/rt/ports/ARMCMx/compilers/GCC/chtypes.h"
 1007              		.file 6 "../lib/e-puck2_main-processor/ChibiOS//os/rt/include/chsystypes.h"
 1008              		.file 7 "../lib/e-puck2_main-processor/ChibiOS//os/rt/include/chschd.h"
 1009              		.file 8 "../lib/e-puck2_main-processor/ChibiOS//os/ext/CMSIS/include/core_cm4.h"
 1010              		.file 9 "../lib/e-puck2_main-processor/ChibiOS//os/ext/CMSIS/ST/system_stm32f4xx.h"
 1011              		.file 10 "../lib/e-puck2_main-processor/ChibiOS//os/ext/CMSIS/ST/stm32f407xx.h"
 1012              		.file 11 "../lib/e-puck2_main-processor/ChibiOS//os/rt/ports/ARMCMx/chcore.h"
 1013              		.file 12 "../lib/e-puck2_main-processor/ChibiOS//os/rt/ports/ARMCMx/chcore_v7m.h"
 1014              		.file 13 "../lib/e-puck2_main-processor/ChibiOS//os/rt/include/chdebug.h"
 1015              		.file 14 "../lib/e-puck2_main-processor/ChibiOS//os/rt/include/chtm.h"
 1016              		.file 15 "../lib/e-puck2_main-processor/ChibiOS//os/rt/include/chstats.h"
 1017              		.file 16 "../lib/e-puck2_main-processor/ChibiOS//os/rt/include/chsem.h"
 1018              		.file 17 "../lib/e-puck2_main-processor/ChibiOS//os/rt/include/chmtx.h"
ARM GAS  C:\Users\PCHAUT~1\AppData\Local\Temp\ccdyDonj.s 			page 19


 1019              		.file 18 "../lib/e-puck2_main-processor/ChibiOS//os/rt/include/chregistry.h"
 1020              		.file 19 "../lib/e-puck2_main-processor/ChibiOS//os/rt/include/chevents.h"
 1021              		.file 20 "../lib/e-puck2_main-processor/ChibiOS//os/rt/include/chqueues.h"
 1022              		.file 21 "../lib/e-puck2_main-processor/ChibiOS//os/hal/ports/STM32/STM32F4xx/stm32_dma.h"
 1023              		.file 22 "../lib/e-puck2_main-processor/ChibiOS//os/hal/include/hal_ioblock.h"
 1024              		.file 23 "../lib/e-puck2_main-processor/ChibiOS//os/hal/ports/STM32/LLD/GPIOv2/pal_lld.h"
 1025              		.file 24 "../lib/e-puck2_main-processor/ChibiOS//os/hal/include/adc.h"
 1026              		.file 25 "../lib/e-puck2_main-processor/ChibiOS//os/hal/ports/STM32/STM32F4xx/adc_lld.h"
 1027              		.file 26 "../lib/e-puck2_main-processor/ChibiOS//os/hal/include/can.h"
 1028              		.file 27 "../lib/e-puck2_main-processor/ChibiOS//os/hal/ports/STM32/LLD/can_lld.h"
 1029              		.file 28 "../lib/e-puck2_main-processor/ChibiOS//os/hal/include/dac.h"
 1030              		.file 29 "../lib/e-puck2_main-processor/ChibiOS//os/hal/ports/STM32/LLD/DACv1/dac_lld.h"
 1031              		.file 30 "../lib/e-puck2_main-processor/ChibiOS//os/hal/include/ext.h"
 1032              		.file 31 "../lib/e-puck2_main-processor/ChibiOS//os/hal/ports/STM32/LLD/ext_lld.h"
 1033              		.file 32 "../lib/e-puck2_main-processor/ChibiOS//os/hal/include/gpt.h"
 1034              		.file 33 "../lib/e-puck2_main-processor/ChibiOS//os/hal/ports/STM32/LLD/TIMv1/gpt_lld.h"
 1035              		.file 34 "../lib/e-puck2_main-processor/ChibiOS//os/hal/ports/STM32/LLD/TIMv1/stm32_tim.h"
 1036              		.file 35 "../lib/e-puck2_main-processor/ChibiOS//os/hal/include/i2c.h"
 1037              		.file 36 "../lib/e-puck2_main-processor/ChibiOS//os/hal/ports/STM32/LLD/I2Cv1/i2c_lld.h"
 1038              		.file 37 "../lib/e-puck2_main-processor/ChibiOS//os/hal/include/i2s.h"
 1039              		.file 38 "../lib/e-puck2_main-processor/ChibiOS//os/hal/ports/STM32/LLD/SPIv1/i2s_lld.h"
 1040              		.file 39 "../lib/e-puck2_main-processor/ChibiOS//os/hal/include/pwm.h"
 1041              		.file 40 "../lib/e-puck2_main-processor/ChibiOS//os/hal/ports/STM32/LLD/TIMv1/pwm_lld.h"
 1042              		.file 41 "../lib/e-puck2_main-processor/ChibiOS//os/hal/include/serial.h"
 1043              		.file 42 "../lib/e-puck2_main-processor/ChibiOS//os/hal/ports/STM32/LLD/USARTv1/serial_lld.h"
 1044              		.file 43 "../lib/e-puck2_main-processor/ChibiOS//os/hal/include/sdc.h"
 1045              		.file 44 "../lib/e-puck2_main-processor/ChibiOS//os/hal/ports/STM32/LLD/sdc_lld.h"
 1046              		.file 45 "../lib/e-puck2_main-processor/ChibiOS//os/hal/include/spi.h"
 1047              		.file 46 "../lib/e-puck2_main-processor/ChibiOS//os/hal/ports/STM32/LLD/SPIv1/spi_lld.h"
 1048              		.file 47 "../lib/e-puck2_main-processor/ChibiOS//os/hal/include/usb.h"
 1049              		.file 48 "../lib/e-puck2_main-processor/ChibiOS//os/hal/ports/STM32/LLD/OTGv1/usb_lld.h"
 1050              		.file 49 "../lib/e-puck2_main-processor/ChibiOS//os/hal/ports/STM32/LLD/OTGv1/stm32_otg.h"