ARM GAS  C:\Users\PCHAUT~1\AppData\Local\Temp\ccX03RRV.s 			page 1


   1              		.cpu cortex-m4
   2              		.eabi_attribute 27, 1
   3              		.eabi_attribute 28, 1
   4              		.eabi_attribute 20, 1
   5              		.eabi_attribute 21, 1
   6              		.eabi_attribute 23, 3
   7              		.eabi_attribute 24, 1
   8              		.eabi_attribute 25, 1
   9              		.eabi_attribute 26, 1
  10              		.eabi_attribute 30, 6
  11              		.eabi_attribute 34, 1
  12              		.eabi_attribute 18, 4
  13              		.file	"battery_level.c"
  14              		.text
  15              	.Ltext0:
  16              		.cfi_sections	.debug_frame
  17              		.section	.text.port_lock,"ax",%progbits
  18              		.align	1
  19              		.p2align 4,,15
  20              		.syntax unified
  21              		.thumb
  22              		.thumb_func
  23              		.fpu fpv4-sp-d16
  24              		.type	port_lock, %function
  25              	port_lock:
  26              	.LFB116:
  27              		.file 1 "../lib/e-puck2_main-processor/ChibiOS//os/rt/ports/ARMCMx/chcore_v7m.h"
  28              		.loc 1 444 0
  29              		.cfi_startproc
  30              		@ args = 0, pretend = 0, frame = 8
  31              		@ frame_needed = 0, uses_anonymous_args = 0
  32 0000 00B5     		push	{lr}
  33              		.cfi_def_cfa_offset 4
  34              		.cfi_offset 14, -4
  35 0002 83B0     		sub	sp, sp, #12
  36              		.cfi_def_cfa_offset 16
  37              		.loc 1 444 0
  38 0004 094B     		ldr	r3, .L3
  39 0006 1B68     		ldr	r3, [r3]
  40 0008 0193     		str	r3, [sp, #4]
  41 000a 2023     		movs	r3, #32
  42 000c 0093     		str	r3, [sp]
  43              	.LBB6:
  44              	.LBB7:
  45              		.file 2 "../lib/e-puck2_main-processor/ChibiOS//os/ext/CMSIS/include/core_cmFunc.h"
  46              		.loc 2 546 0
  47 000e 009B     		ldr	r3, [sp]
  48              		.syntax unified
  49              	@ 546 "../lib/e-puck2_main-processor/ChibiOS//os/ext/CMSIS/include/core_cmFunc.h" 1
  50 0010 83F31188 		MSR basepri, r3
  51              	@ 0 "" 2
  52              		.thumb
  53              		.syntax unified
  54              	.LBE7:
  55              	.LBE6:
  56              		.loc 1 451 0
  57 0014 00BF     		nop
ARM GAS  C:\Users\PCHAUT~1\AppData\Local\Temp\ccX03RRV.s 			page 2


  58 0016 054B     		ldr	r3, .L3
  59 0018 019A     		ldr	r2, [sp, #4]
  60 001a 1B68     		ldr	r3, [r3]
  61 001c 9A42     		cmp	r2, r3
  62 001e 01D0     		beq	.L2
  63 0020 FFF7FEFF 		bl	__stack_chk_fail
  64              	.L2:
  65 0024 03B0     		add	sp, sp, #12
  66              		.cfi_def_cfa_offset 4
  67              		@ sp needed
  68 0026 5DF804FB 		ldr	pc, [sp], #4
  69              	.L4:
  70 002a 00BF     		.align	2
  71              	.L3:
  72 002c 00000000 		.word	__stack_chk_guard
  73              		.cfi_endproc
  74              	.LFE116:
  75              		.size	port_lock, .-port_lock
  76              		.section	.text.port_unlock,"ax",%progbits
  77              		.align	1
  78              		.p2align 4,,15
  79              		.syntax unified
  80              		.thumb
  81              		.thumb_func
  82              		.fpu fpv4-sp-d16
  83              		.type	port_unlock, %function
  84              	port_unlock:
  85              	.LFB117:
  86              		.loc 1 458 0
  87              		.cfi_startproc
  88              		@ args = 0, pretend = 0, frame = 8
  89              		@ frame_needed = 0, uses_anonymous_args = 0
  90 0000 00B5     		push	{lr}
  91              		.cfi_def_cfa_offset 4
  92              		.cfi_offset 14, -4
  93 0002 83B0     		sub	sp, sp, #12
  94              		.cfi_def_cfa_offset 16
  95              		.loc 1 458 0
  96 0004 094B     		ldr	r3, .L7
  97 0006 1B68     		ldr	r3, [r3]
  98 0008 0193     		str	r3, [sp, #4]
  99 000a 0023     		movs	r3, #0
 100 000c 0093     		str	r3, [sp]
 101              	.LBB8:
 102              	.LBB9:
 103              		.loc 2 546 0
 104 000e 009B     		ldr	r3, [sp]
 105              		.syntax unified
 106              	@ 546 "../lib/e-puck2_main-processor/ChibiOS//os/ext/CMSIS/include/core_cmFunc.h" 1
 107 0010 83F31188 		MSR basepri, r3
 108              	@ 0 "" 2
 109              		.thumb
 110              		.syntax unified
 111              	.LBE9:
 112              	.LBE8:
 113              		.loc 1 465 0
 114 0014 00BF     		nop
ARM GAS  C:\Users\PCHAUT~1\AppData\Local\Temp\ccX03RRV.s 			page 3


 115 0016 054B     		ldr	r3, .L7
 116 0018 019A     		ldr	r2, [sp, #4]
 117 001a 1B68     		ldr	r3, [r3]
 118 001c 9A42     		cmp	r2, r3
 119 001e 01D0     		beq	.L6
 120 0020 FFF7FEFF 		bl	__stack_chk_fail
 121              	.L6:
 122 0024 03B0     		add	sp, sp, #12
 123              		.cfi_def_cfa_offset 4
 124              		@ sp needed
 125 0026 5DF804FB 		ldr	pc, [sp], #4
 126              	.L8:
 127 002a 00BF     		.align	2
 128              	.L7:
 129 002c 00000000 		.word	__stack_chk_guard
 130              		.cfi_endproc
 131              	.LFE117:
 132              		.size	port_unlock, .-port_unlock
 133              		.section	.text.port_lock_from_isr,"ax",%progbits
 134              		.align	1
 135              		.p2align 4,,15
 136              		.syntax unified
 137              		.thumb
 138              		.thumb_func
 139              		.fpu fpv4-sp-d16
 140              		.type	port_lock_from_isr, %function
 141              	port_lock_from_isr:
 142              	.LFB118:
 143              		.loc 1 473 0
 144              		.cfi_startproc
 145              		@ args = 0, pretend = 0, frame = 8
 146              		@ frame_needed = 0, uses_anonymous_args = 0
 147 0000 00B5     		push	{lr}
 148              		.cfi_def_cfa_offset 4
 149              		.cfi_offset 14, -4
 150 0002 83B0     		sub	sp, sp, #12
 151              		.cfi_def_cfa_offset 16
 152              		.loc 1 473 0
 153 0004 074B     		ldr	r3, .L11
 154 0006 1B68     		ldr	r3, [r3]
 155 0008 0193     		str	r3, [sp, #4]
 156              		.loc 1 475 0
 157 000a FFF7FEFF 		bl	port_lock
 158              		.loc 1 476 0
 159 000e 00BF     		nop
 160 0010 044B     		ldr	r3, .L11
 161 0012 019A     		ldr	r2, [sp, #4]
 162 0014 1B68     		ldr	r3, [r3]
 163 0016 9A42     		cmp	r2, r3
 164 0018 01D0     		beq	.L10
 165 001a FFF7FEFF 		bl	__stack_chk_fail
 166              	.L10:
 167 001e 03B0     		add	sp, sp, #12
 168              		.cfi_def_cfa_offset 4
 169              		@ sp needed
 170 0020 5DF804FB 		ldr	pc, [sp], #4
 171              	.L12:
ARM GAS  C:\Users\PCHAUT~1\AppData\Local\Temp\ccX03RRV.s 			page 4


 172              		.align	2
 173              	.L11:
 174 0024 00000000 		.word	__stack_chk_guard
 175              		.cfi_endproc
 176              	.LFE118:
 177              		.size	port_lock_from_isr, .-port_lock_from_isr
 178              		.section	.text.port_unlock_from_isr,"ax",%progbits
 179              		.align	1
 180              		.p2align 4,,15
 181              		.syntax unified
 182              		.thumb
 183              		.thumb_func
 184              		.fpu fpv4-sp-d16
 185              		.type	port_unlock_from_isr, %function
 186              	port_unlock_from_isr:
 187              	.LFB119:
 188              		.loc 1 484 0
 189              		.cfi_startproc
 190              		@ args = 0, pretend = 0, frame = 8
 191              		@ frame_needed = 0, uses_anonymous_args = 0
 192 0000 00B5     		push	{lr}
 193              		.cfi_def_cfa_offset 4
 194              		.cfi_offset 14, -4
 195 0002 83B0     		sub	sp, sp, #12
 196              		.cfi_def_cfa_offset 16
 197              		.loc 1 484 0
 198 0004 074B     		ldr	r3, .L15
 199 0006 1B68     		ldr	r3, [r3]
 200 0008 0193     		str	r3, [sp, #4]
 201              		.loc 1 486 0
 202 000a FFF7FEFF 		bl	port_unlock
 203              		.loc 1 487 0
 204 000e 00BF     		nop
 205 0010 044B     		ldr	r3, .L15
 206 0012 019A     		ldr	r2, [sp, #4]
 207 0014 1B68     		ldr	r3, [r3]
 208 0016 9A42     		cmp	r2, r3
 209 0018 01D0     		beq	.L14
 210 001a FFF7FEFF 		bl	__stack_chk_fail
 211              	.L14:
 212 001e 03B0     		add	sp, sp, #12
 213              		.cfi_def_cfa_offset 4
 214              		@ sp needed
 215 0020 5DF804FB 		ldr	pc, [sp], #4
 216              	.L16:
 217              		.align	2
 218              	.L15:
 219 0024 00000000 		.word	__stack_chk_guard
 220              		.cfi_endproc
 221              	.LFE119:
 222              		.size	port_unlock_from_isr, .-port_unlock_from_isr
 223              		.section	.text.chSysLockFromISR,"ax",%progbits
 224              		.align	1
 225              		.p2align 4,,15
 226              		.syntax unified
 227              		.thumb
 228              		.thumb_func
ARM GAS  C:\Users\PCHAUT~1\AppData\Local\Temp\ccX03RRV.s 			page 5


 229              		.fpu fpv4-sp-d16
 230              		.type	chSysLockFromISR, %function
 231              	chSysLockFromISR:
 232              	.LFB147:
 233              		.file 3 "../lib/e-puck2_main-processor/ChibiOS//os/rt/include/chsys.h"
 234              		.loc 3 386 0
 235              		.cfi_startproc
 236              		@ args = 0, pretend = 0, frame = 8
 237              		@ frame_needed = 0, uses_anonymous_args = 0
 238 0000 00B5     		push	{lr}
 239              		.cfi_def_cfa_offset 4
 240              		.cfi_offset 14, -4
 241 0002 83B0     		sub	sp, sp, #12
 242              		.cfi_def_cfa_offset 16
 243              		.loc 3 386 0
 244 0004 094B     		ldr	r3, .L19
 245 0006 1B68     		ldr	r3, [r3]
 246 0008 0193     		str	r3, [sp, #4]
 247              		.loc 3 388 0
 248 000a FFF7FEFF 		bl	port_lock_from_isr
 249              		.loc 3 389 0
 250 000e FFF7FEFF 		bl	_stats_start_measure_crit_isr
 251              		.loc 3 390 0
 252 0012 FFF7FEFF 		bl	_dbg_check_lock_from_isr
 253              		.loc 3 391 0
 254 0016 00BF     		nop
 255 0018 044B     		ldr	r3, .L19
 256 001a 019A     		ldr	r2, [sp, #4]
 257 001c 1B68     		ldr	r3, [r3]
 258 001e 9A42     		cmp	r2, r3
 259 0020 01D0     		beq	.L18
 260 0022 FFF7FEFF 		bl	__stack_chk_fail
 261              	.L18:
 262 0026 03B0     		add	sp, sp, #12
 263              		.cfi_def_cfa_offset 4
 264              		@ sp needed
 265 0028 5DF804FB 		ldr	pc, [sp], #4
 266              	.L20:
 267              		.align	2
 268              	.L19:
 269 002c 00000000 		.word	__stack_chk_guard
 270              		.cfi_endproc
 271              	.LFE147:
 272              		.size	chSysLockFromISR, .-chSysLockFromISR
 273              		.section	.text.chSysUnlockFromISR,"ax",%progbits
 274              		.align	1
 275              		.p2align 4,,15
 276              		.syntax unified
 277              		.thumb
 278              		.thumb_func
 279              		.fpu fpv4-sp-d16
 280              		.type	chSysUnlockFromISR, %function
 281              	chSysUnlockFromISR:
 282              	.LFB148:
 283              		.loc 3 406 0
 284              		.cfi_startproc
 285              		@ args = 0, pretend = 0, frame = 8
ARM GAS  C:\Users\PCHAUT~1\AppData\Local\Temp\ccX03RRV.s 			page 6


 286              		@ frame_needed = 0, uses_anonymous_args = 0
 287 0000 00B5     		push	{lr}
 288              		.cfi_def_cfa_offset 4
 289              		.cfi_offset 14, -4
 290 0002 83B0     		sub	sp, sp, #12
 291              		.cfi_def_cfa_offset 16
 292              		.loc 3 406 0
 293 0004 094B     		ldr	r3, .L23
 294 0006 1B68     		ldr	r3, [r3]
 295 0008 0193     		str	r3, [sp, #4]
 296              		.loc 3 408 0
 297 000a FFF7FEFF 		bl	_dbg_check_unlock_from_isr
 298              		.loc 3 409 0
 299 000e FFF7FEFF 		bl	_stats_stop_measure_crit_isr
 300              		.loc 3 410 0
 301 0012 FFF7FEFF 		bl	port_unlock_from_isr
 302              		.loc 3 411 0
 303 0016 00BF     		nop
 304 0018 044B     		ldr	r3, .L23
 305 001a 019A     		ldr	r2, [sp, #4]
 306 001c 1B68     		ldr	r3, [r3]
 307 001e 9A42     		cmp	r2, r3
 308 0020 01D0     		beq	.L22
 309 0022 FFF7FEFF 		bl	__stack_chk_fail
 310              	.L22:
 311 0026 03B0     		add	sp, sp, #12
 312              		.cfi_def_cfa_offset 4
 313              		@ sp needed
 314 0028 5DF804FB 		ldr	pc, [sp], #4
 315              	.L24:
 316              		.align	2
 317              	.L23:
 318 002c 00000000 		.word	__stack_chk_guard
 319              		.cfi_endproc
 320              	.LFE148:
 321              		.size	chSysUnlockFromISR, .-chSysUnlockFromISR
 322              		.section	.text.chRegSetThreadName,"ax",%progbits
 323              		.align	1
 324              		.p2align 4,,15
 325              		.syntax unified
 326              		.thumb
 327              		.thumb_func
 328              		.fpu fpv4-sp-d16
 329              		.type	chRegSetThreadName, %function
 330              	chRegSetThreadName:
 331              	.LFB176:
 332              		.file 4 "../lib/e-puck2_main-processor/ChibiOS//os/rt/include/chregistry.h"
 333              		.loc 4 132 0
 334              		.cfi_startproc
 335              		@ args = 0, pretend = 0, frame = 16
 336              		@ frame_needed = 0, uses_anonymous_args = 0
 337 0000 00B5     		push	{lr}
 338              		.cfi_def_cfa_offset 4
 339              		.cfi_offset 14, -4
 340 0002 85B0     		sub	sp, sp, #20
 341              		.cfi_def_cfa_offset 24
 342 0004 0190     		str	r0, [sp, #4]
ARM GAS  C:\Users\PCHAUT~1\AppData\Local\Temp\ccX03RRV.s 			page 7


 343              		.loc 4 132 0
 344 0006 094B     		ldr	r3, .L27
 345 0008 1B68     		ldr	r3, [r3]
 346 000a 0393     		str	r3, [sp, #12]
 347              		.loc 4 135 0
 348 000c 084B     		ldr	r3, .L27+4
 349 000e 9B69     		ldr	r3, [r3, #24]
 350 0010 019A     		ldr	r2, [sp, #4]
 351 0012 9A61     		str	r2, [r3, #24]
 352              		.loc 4 139 0
 353 0014 00BF     		nop
 354 0016 054B     		ldr	r3, .L27
 355 0018 039A     		ldr	r2, [sp, #12]
 356 001a 1B68     		ldr	r3, [r3]
 357 001c 9A42     		cmp	r2, r3
 358 001e 01D0     		beq	.L26
 359 0020 FFF7FEFF 		bl	__stack_chk_fail
 360              	.L26:
 361 0024 05B0     		add	sp, sp, #20
 362              		.cfi_def_cfa_offset 4
 363              		@ sp needed
 364 0026 5DF804FB 		ldr	pc, [sp], #4
 365              	.L28:
 366 002a 00BF     		.align	2
 367              	.L27:
 368 002c 00000000 		.word	__stack_chk_guard
 369 0030 00000000 		.word	ch
 370              		.cfi_endproc
 371              	.LFE176:
 372              		.size	chRegSetThreadName, .-chRegSetThreadName
 373              		.section	.text.chBSemWait,"ax",%progbits
 374              		.align	1
 375              		.p2align 4,,15
 376              		.syntax unified
 377              		.thumb
 378              		.thumb_func
 379              		.fpu fpv4-sp-d16
 380              		.type	chBSemWait, %function
 381              	chBSemWait:
 382              	.LFB183:
 383              		.file 5 "../lib/e-puck2_main-processor/ChibiOS//os/rt/include/chbsem.h"
 384              		.loc 5 141 0
 385              		.cfi_startproc
 386              		@ args = 0, pretend = 0, frame = 16
 387              		@ frame_needed = 0, uses_anonymous_args = 0
 388 0000 00B5     		push	{lr}
 389              		.cfi_def_cfa_offset 4
 390              		.cfi_offset 14, -4
 391 0002 85B0     		sub	sp, sp, #20
 392              		.cfi_def_cfa_offset 24
 393 0004 0190     		str	r0, [sp, #4]
 394              		.loc 5 141 0
 395 0006 094B     		ldr	r3, .L32
 396 0008 1B68     		ldr	r3, [r3]
 397 000a 0393     		str	r3, [sp, #12]
 398              		.loc 5 143 0
 399 000c 019B     		ldr	r3, [sp, #4]
ARM GAS  C:\Users\PCHAUT~1\AppData\Local\Temp\ccX03RRV.s 			page 8


 400 000e 1846     		mov	r0, r3
 401 0010 FFF7FEFF 		bl	chSemWait
 402 0014 0346     		mov	r3, r0
 403              		.loc 5 144 0
 404 0016 1846     		mov	r0, r3
 405 0018 044B     		ldr	r3, .L32
 406 001a 039A     		ldr	r2, [sp, #12]
 407 001c 1B68     		ldr	r3, [r3]
 408 001e 9A42     		cmp	r2, r3
 409 0020 01D0     		beq	.L31
 410 0022 FFF7FEFF 		bl	__stack_chk_fail
 411              	.L31:
 412 0026 05B0     		add	sp, sp, #20
 413              		.cfi_def_cfa_offset 4
 414              		@ sp needed
 415 0028 5DF804FB 		ldr	pc, [sp], #4
 416              	.L33:
 417              		.align	2
 418              	.L32:
 419 002c 00000000 		.word	__stack_chk_guard
 420              		.cfi_endproc
 421              	.LFE183:
 422              		.size	chBSemWait, .-chBSemWait
 423              		.section	.text.chBSemSignalI,"ax",%progbits
 424              		.align	1
 425              		.p2align 4,,15
 426              		.syntax unified
 427              		.thumb
 428              		.thumb_func
 429              		.fpu fpv4-sp-d16
 430              		.type	chBSemSignalI, %function
 431              	chBSemSignalI:
 432              	.LFB189:
 433              		.loc 5 266 0
 434              		.cfi_startproc
 435              		@ args = 0, pretend = 0, frame = 16
 436              		@ frame_needed = 0, uses_anonymous_args = 0
 437 0000 00B5     		push	{lr}
 438              		.cfi_def_cfa_offset 4
 439              		.cfi_offset 14, -4
 440 0002 85B0     		sub	sp, sp, #20
 441              		.cfi_def_cfa_offset 24
 442 0004 0190     		str	r0, [sp, #4]
 443              		.loc 5 266 0
 444 0006 0C4B     		ldr	r3, .L38
 445 0008 1B68     		ldr	r3, [r3]
 446 000a 0393     		str	r3, [sp, #12]
 447              		.loc 5 268 0
 448 000c FFF7FEFF 		bl	chDbgCheckClassI
 449              		.loc 5 270 0
 450 0010 019B     		ldr	r3, [sp, #4]
 451 0012 9B68     		ldr	r3, [r3, #8]
 452 0014 002B     		cmp	r3, #0
 453 0016 03DC     		bgt	.L37
 454              		.loc 5 271 0
 455 0018 019B     		ldr	r3, [sp, #4]
 456 001a 1846     		mov	r0, r3
ARM GAS  C:\Users\PCHAUT~1\AppData\Local\Temp\ccX03RRV.s 			page 9


 457 001c FFF7FEFF 		bl	chSemSignalI
 458              	.L37:
 459              		.loc 5 273 0
 460 0020 00BF     		nop
 461 0022 054B     		ldr	r3, .L38
 462 0024 039A     		ldr	r2, [sp, #12]
 463 0026 1B68     		ldr	r3, [r3]
 464 0028 9A42     		cmp	r2, r3
 465 002a 01D0     		beq	.L36
 466 002c FFF7FEFF 		bl	__stack_chk_fail
 467              	.L36:
 468 0030 05B0     		add	sp, sp, #20
 469              		.cfi_def_cfa_offset 4
 470              		@ sp needed
 471 0032 5DF804FB 		ldr	pc, [sp], #4
 472              	.L39:
 473 0036 00BF     		.align	2
 474              	.L38:
 475 0038 00000000 		.word	__stack_chk_guard
 476              		.cfi_endproc
 477              	.LFE189:
 478              		.size	chBSemSignalI, .-chBSemSignalI
 479              		.section	.bss.adc_value,"aw",%nobits
 480              		.align	2
 481              		.type	adc_value, %object
 482              		.size	adc_value, 4
 483              	adc_value:
 484 0000 00000000 		.space	4
 485              		.section	.bss.adc_samples,"aw",%nobits
 486              		.align	2
 487              		.type	adc_samples, %object
 488              		.size	adc_samples, 64
 489              	adc_samples:
 490 0000 00000000 		.space	64
 490      00000000 
 490      00000000 
 490      00000000 
 490      00000000 
 491              		.section	.data.measurement_ready,"aw",%progbits
 492              		.align	2
 493              		.type	measurement_ready, %object
 494              		.size	measurement_ready, 12
 495              	measurement_ready:
 496 0000 00000000 		.word	measurement_ready
 497 0004 00000000 		.word	measurement_ready
 498 0008 00000000 		.word	0
 499              		.section	.bss.battery_value,"aw",%nobits
 500              		.align	2
 501              		.type	battery_value, %object
 502              		.size	battery_value, 12
 503              	battery_value:
 504 0000 00000000 		.space	12
 504      00000000 
 504      00000000 
 505              		.section	.rodata.group,"a",%progbits
 506              		.align	2
 507              		.type	group, %object
ARM GAS  C:\Users\PCHAUT~1\AppData\Local\Temp\ccX03RRV.s 			page 10


 508              		.size	group, 40
 509              	group:
 510 0000 00       		.byte	0
 511 0001 00       		.space	1
 512 0002 0100     		.short	1
 513 0004 00000000 		.word	adc_cb
 514 0008 00000000 		.word	0
 515 000c 00000000 		.word	0
 516 0010 00000040 		.word	1073741824
 517 0014 00000000 		.word	0
 518 0018 38000000 		.word	56
 519 001c 00000000 		.word	0
 520 0020 00000000 		.word	0
 521 0024 01000000 		.word	1
 522              		.section	.text.adc_cb,"ax",%progbits
 523              		.align	1
 524              		.p2align 4,,15
 525              		.syntax unified
 526              		.thumb
 527              		.thumb_func
 528              		.fpu fpv4-sp-d16
 529              		.type	adc_cb, %function
 530              	adc_cb:
 531              	.LFB259:
 532              		.file 6 "../lib/e-puck2_main-processor/src/sensors/battery_level.c"
 533              		.loc 6 55 0
 534              		.cfi_startproc
 535              		@ args = 0, pretend = 0, frame = 24
 536              		@ frame_needed = 0, uses_anonymous_args = 0
 537 0000 00B5     		push	{lr}
 538              		.cfi_def_cfa_offset 4
 539              		.cfi_offset 14, -4
 540 0002 87B0     		sub	sp, sp, #28
 541              		.cfi_def_cfa_offset 32
 542 0004 0390     		str	r0, [sp, #12]
 543 0006 0291     		str	r1, [sp, #8]
 544 0008 0192     		str	r2, [sp, #4]
 545              		.loc 6 55 0
 546 000a 1D4B     		ldr	r3, .L44
 547 000c 1B68     		ldr	r3, [r3]
 548 000e 0593     		str	r3, [sp, #20]
 549              		.loc 6 59 0
 550 0010 1C4B     		ldr	r3, .L44+4
 551 0012 0022     		movs	r2, #0
 552 0014 1A60     		str	r2, [r3]
 553              	.LBB10:
 554              		.loc 6 60 0
 555 0016 0023     		movs	r3, #0
 556 0018 0493     		str	r3, [sp, #16]
 557 001a 0DE0     		b	.L41
 558              	.L42:
 559              		.loc 6 61 0 discriminator 3
 560 001c 049B     		ldr	r3, [sp, #16]
 561 001e 5B00     		lsls	r3, r3, #1
 562 0020 029A     		ldr	r2, [sp, #8]
 563 0022 1344     		add	r3, r3, r2
 564 0024 1B88     		ldrh	r3, [r3]
ARM GAS  C:\Users\PCHAUT~1\AppData\Local\Temp\ccX03RRV.s 			page 11


 565 0026 1A46     		mov	r2, r3
 566 0028 164B     		ldr	r3, .L44+4
 567 002a 1B68     		ldr	r3, [r3]
 568 002c 1344     		add	r3, r3, r2
 569 002e 154A     		ldr	r2, .L44+4
 570 0030 1360     		str	r3, [r2]
 571              		.loc 6 60 0 discriminator 3
 572 0032 049B     		ldr	r3, [sp, #16]
 573 0034 0133     		adds	r3, r3, #1
 574 0036 0493     		str	r3, [sp, #16]
 575              	.L41:
 576              		.loc 6 60 0 is_stmt 0 discriminator 1
 577 0038 049A     		ldr	r2, [sp, #16]
 578 003a 019B     		ldr	r3, [sp, #4]
 579 003c 9A42     		cmp	r2, r3
 580 003e EDD3     		bcc	.L42
 581              	.LBE10:
 582              		.loc 6 63 0 is_stmt 1
 583 0040 104B     		ldr	r3, .L44+4
 584 0042 1A68     		ldr	r2, [r3]
 585 0044 019B     		ldr	r3, [sp, #4]
 586 0046 B2FBF3F3 		udiv	r3, r2, r3
 587 004a 0E4A     		ldr	r2, .L44+4
 588 004c 1360     		str	r3, [r2]
 589              		.loc 6 65 0
 590 004e FFF7FEFF 		bl	chSysLockFromISR
 591              		.loc 6 66 0
 592 0052 2023     		movs	r3, #32
 593 0054 0C4A     		ldr	r2, .L44+8
 594 0056 0D49     		ldr	r1, .L44+12
 595 0058 0D48     		ldr	r0, .L44+16
 596 005a FFF7FEFF 		bl	adcStartConversionI
 597              		.loc 6 67 0
 598 005e 0D48     		ldr	r0, .L44+20
 599 0060 FFF7FEFF 		bl	chBSemSignalI
 600              		.loc 6 68 0
 601 0064 FFF7FEFF 		bl	chSysUnlockFromISR
 602              		.loc 6 69 0
 603 0068 00BF     		nop
 604 006a 054B     		ldr	r3, .L44
 605 006c 059A     		ldr	r2, [sp, #20]
 606 006e 1B68     		ldr	r3, [r3]
 607 0070 9A42     		cmp	r2, r3
 608 0072 01D0     		beq	.L43
 609 0074 FFF7FEFF 		bl	__stack_chk_fail
 610              	.L43:
 611 0078 07B0     		add	sp, sp, #28
 612              		.cfi_def_cfa_offset 4
 613              		@ sp needed
 614 007a 5DF804FB 		ldr	pc, [sp], #4
 615              	.L45:
 616 007e 00BF     		.align	2
 617              	.L44:
 618 0080 00000000 		.word	__stack_chk_guard
 619 0084 00000000 		.word	adc_value
 620 0088 00000000 		.word	adc_samples
 621 008c 00000000 		.word	group
ARM GAS  C:\Users\PCHAUT~1\AppData\Local\Temp\ccX03RRV.s 			page 12


 622 0090 00000000 		.word	ADCD1
 623 0094 00000000 		.word	measurement_ready
 624              		.cfi_endproc
 625              	.LFE259:
 626              		.size	adc_cb, .-adc_cb
 627              		.section	.rodata
 628              		.align	2
 629              	.LC0:
 630 0000 42617474 		.ascii	"Battery Thd\000"
 630      65727920 
 630      54686400 
 631              		.align	2
 632              	.LC1:
 633 000c 2F626174 		.ascii	"/battery_level\000"
 633      74657279 
 633      5F6C6576 
 633      656C00
 634              		.section	.text.battery_thd,"ax",%progbits
 635              		.align	1
 636              		.p2align 4,,15
 637              		.syntax unified
 638              		.thumb
 639              		.thumb_func
 640              		.fpu fpv4-sp-d16
 641              		.type	battery_thd, %function
 642              	battery_thd:
 643              	.LFB260:
 644              		.loc 6 75 0
 645              		.cfi_startproc
 646              		@ args = 0, pretend = 0, frame = 136
 647              		@ frame_needed = 0, uses_anonymous_args = 0
 648 0000 00B5     		push	{lr}
 649              		.cfi_def_cfa_offset 4
 650              		.cfi_offset 14, -4
 651 0002 A5B0     		sub	sp, sp, #148
 652              		.cfi_def_cfa_offset 152
 653 0004 0390     		str	r0, [sp, #12]
 654              		.loc 6 75 0
 655 0006 444B     		ldr	r3, .L51
 656 0008 1B68     		ldr	r3, [r3]
 657 000a 2393     		str	r3, [sp, #140]
 658              		.loc 6 77 0
 659 000c 4348     		ldr	r0, .L51+4
 660 000e FFF7FEFF 		bl	chRegSetThreadName
 661              		.loc 6 80 0
 662 0012 07AB     		add	r3, sp, #28
 663 0014 0793     		str	r3, [sp, #28]
 664 0016 07AB     		add	r3, sp, #28
 665 0018 0893     		str	r3, [sp, #32]
 666 001a 0023     		movs	r3, #0
 667 001c 0993     		str	r3, [sp, #36]
 668 001e 0023     		movs	r3, #0
 669 0020 0A93     		str	r3, [sp, #40]
 670 0022 0023     		movs	r3, #0
 671 0024 0B93     		str	r3, [sp, #44]
 672              		.loc 6 81 0
 673 0026 05AB     		add	r3, sp, #20
ARM GAS  C:\Users\PCHAUT~1\AppData\Local\Temp\ccX03RRV.s 			page 13


 674 0028 0593     		str	r3, [sp, #20]
 675 002a 05AB     		add	r3, sp, #20
 676 002c 0693     		str	r3, [sp, #24]
 677              		.loc 6 82 0
 678 002e 05AA     		add	r2, sp, #20
 679 0030 07A9     		add	r1, sp, #28
 680 0032 0CA8     		add	r0, sp, #48
 681 0034 0C23     		movs	r3, #12
 682 0036 0093     		str	r3, [sp]
 683 0038 394B     		ldr	r3, .L51+8
 684 003a FFF7FEFF 		bl	messagebus_topic_init
 685              		.loc 6 83 0
 686 003e 0CAB     		add	r3, sp, #48
 687 0040 384A     		ldr	r2, .L51+12
 688 0042 1946     		mov	r1, r3
 689 0044 3848     		ldr	r0, .L51+16
 690 0046 FFF7FEFF 		bl	messagebus_advertise_topic
 691              		.loc 6 84 0
 692 004a 0123     		movs	r3, #1
 693 004c 8DF81330 		strb	r3, [sp, #19]
 694              		.loc 6 87 0
 695 0050 3648     		ldr	r0, .L51+20
 696 0052 FFF7FEFF 		bl	adcAcquireBus
 697              		.loc 6 88 0
 698 0056 2023     		movs	r3, #32
 699 0058 354A     		ldr	r2, .L51+24
 700 005a 3649     		ldr	r1, .L51+28
 701 005c 3348     		ldr	r0, .L51+20
 702 005e FFF7FEFF 		bl	adcStartConversion
 703              	.L49:
 704              		.loc 6 92 0
 705 0062 3548     		ldr	r0, .L51+32
 706 0064 FFF7FEFF 		bl	chBSemWait
 707              		.loc 6 96 0
 708 0068 9DF81330 		ldrb	r3, [sp, #19]	@ zero_extendqisi2
 709 006c 002B     		cmp	r3, #0
 710 006e 08D0     		beq	.L47
 711              		.loc 6 97 0
 712 0070 0023     		movs	r3, #0
 713 0072 8DF81330 		strb	r3, [sp, #19]
 714              		.loc 6 98 0
 715 0076 314B     		ldr	r3, .L51+36
 716 0078 1B68     		ldr	r3, [r3]
 717 007a 9AB2     		uxth	r2, r3
 718 007c 284B     		ldr	r3, .L51+8
 719 007e 1A81     		strh	r2, [r3, #8]	@ movhi
 720 0080 1CE0     		b	.L48
 721              	.L47:
 722              		.loc 6 100 0
 723 0082 274B     		ldr	r3, .L51+8
 724 0084 1B89     		ldrh	r3, [r3, #8]
 725 0086 07EE903A 		vmov	s15, r3	@ int
 726 008a F8EE677A 		vcvt.f32.u32	s15, s15
 727 008e 9FED2C7A 		vldr.32	s14, .L51+40
 728 0092 27EE877A 		vmul.f32	s14, s15, s14
 729 0096 294B     		ldr	r3, .L51+36
 730 0098 1B68     		ldr	r3, [r3]
ARM GAS  C:\Users\PCHAUT~1\AppData\Local\Temp\ccX03RRV.s 			page 14


 731 009a 07EE903A 		vmov	s15, r3	@ int
 732 009e F8EE677A 		vcvt.f32.u32	s15, s15
 733 00a2 DFED286A 		vldr.32	s13, .L51+44
 734 00a6 67EEA67A 		vmul.f32	s15, s15, s13
 735 00aa 77EE277A 		vadd.f32	s15, s14, s15
 736 00ae FCEEE77A 		vcvt.u32.f32	s15, s15
 737 00b2 17EE903A 		vmov	r3, s15	@ int
 738 00b6 9AB2     		uxth	r2, r3
 739 00b8 194B     		ldr	r3, .L51+8
 740 00ba 1A81     		strh	r2, [r3, #8]	@ movhi
 741              	.L48:
 742              		.loc 6 102 0
 743 00bc 184B     		ldr	r3, .L51+8
 744 00be 1B89     		ldrh	r3, [r3, #8]
 745 00c0 07EE903A 		vmov	s15, r3	@ int
 746 00c4 B8EEE77A 		vcvt.f32.s32	s14, s15
 747 00c8 DFED1F6A 		vldr.32	s13, .L51+48
 748 00cc C7EE267A 		vdiv.f32	s15, s14, s13
 749 00d0 134B     		ldr	r3, .L51+8
 750 00d2 C3ED007A 		vstr.32	s15, [r3]
 751              		.loc 6 103 0
 752 00d6 124B     		ldr	r3, .L51+8
 753 00d8 D3ED007A 		vldr.32	s15, [r3]
 754 00dc 9FED1B7A 		vldr.32	s14, .L51+52
 755 00e0 77EEC77A 		vsub.f32	s15, s15, s14
 756 00e4 9FED1A7A 		vldr.32	s14, .L51+56
 757 00e8 27EE877A 		vmul.f32	s14, s15, s14
 758              		.loc 6 104 0
 759 00ec DFED196A 		vldr.32	s13, .L51+60
 760 00f0 C7EE267A 		vdiv.f32	s15, s14, s13
 761              		.loc 6 105 0
 762 00f4 9FED187A 		vldr.32	s14, .L51+64
 763 00f8 77EE877A 		vadd.f32	s15, s15, s14
 764              		.loc 6 103 0
 765 00fc 084B     		ldr	r3, .L51+8
 766 00fe C3ED017A 		vstr.32	s15, [r3, #4]
 767              		.loc 6 106 0
 768 0102 0CAB     		add	r3, sp, #48
 769 0104 0C22     		movs	r2, #12
 770 0106 0649     		ldr	r1, .L51+8
 771 0108 1846     		mov	r0, r3
 772 010a FFF7FEFF 		bl	messagebus_topic_publish
 773              		.loc 6 111 0
 774 010e 4FF4FA70 		mov	r0, #500
 775 0112 FFF7FEFF 		bl	chThdSleep
 776              		.loc 6 92 0
 777 0116 A4E7     		b	.L49
 778              	.L52:
 779              		.align	2
 780              	.L51:
 781 0118 00000000 		.word	__stack_chk_guard
 782 011c 00000000 		.word	.LC0
 783 0120 00000000 		.word	battery_value
 784 0124 0C000000 		.word	.LC1
 785 0128 00000000 		.word	bus
 786 012c 00000000 		.word	ADCD1
 787 0130 00000000 		.word	adc_samples
ARM GAS  C:\Users\PCHAUT~1\AppData\Local\Temp\ccX03RRV.s 			page 15


 788 0134 00000000 		.word	group
 789 0138 00000000 		.word	measurement_ready
 790 013c 00000000 		.word	adc_value
 791 0140 CDCC4C3F 		.word	1061997773
 792 0144 CDCC4C3E 		.word	1045220557
 793 0148 CDCC4C44 		.word	1145883853
 794 014c 9A995940 		.word	1079613850
 795 0150 0000C842 		.word	1120403456
 796 0154 C8CC4C3F 		.word	1061997768
 797 0158 00000000 		.word	0
 798              		.cfi_endproc
 799              	.LFE260:
 800              		.size	battery_thd, .-battery_thd
 801              		.section	.text.battery_level_start,"ax",%progbits
 802              		.align	1
 803              		.p2align 4,,15
 804              		.global	battery_level_start
 805              		.syntax unified
 806              		.thumb
 807              		.thumb_func
 808              		.fpu fpv4-sp-d16
 809              		.type	battery_level_start, %function
 810              	battery_level_start:
 811              	.LFB261:
 812              		.loc 6 121 0
 813              		.cfi_startproc
 814              		@ args = 0, pretend = 0, frame = 8
 815              		@ frame_needed = 0, uses_anonymous_args = 0
 816 0000 00B5     		push	{lr}
 817              		.cfi_def_cfa_offset 4
 818              		.cfi_offset 14, -4
 819 0002 85B0     		sub	sp, sp, #20
 820              		.cfi_def_cfa_offset 24
 821              		.loc 6 121 0
 822 0004 0D4B     		ldr	r3, .L55
 823 0006 1B68     		ldr	r3, [r3]
 824 0008 0393     		str	r3, [sp, #12]
 825              		.loc 6 122 0
 826 000a 0021     		movs	r1, #0
 827 000c 0C48     		ldr	r0, .L55+4
 828 000e FFF7FEFF 		bl	adcStart
 829              		.loc 6 124 0
 830 0012 0023     		movs	r3, #0
 831 0014 0093     		str	r3, [sp]
 832 0016 0B4B     		ldr	r3, .L55+8
 833 0018 4022     		movs	r2, #64
 834 001a 4FF41E71 		mov	r1, #632
 835 001e 0A48     		ldr	r0, .L55+12
 836 0020 FFF7FEFF 		bl	chThdCreateStatic
 837              		.loc 6 125 0
 838 0024 00BF     		nop
 839 0026 054B     		ldr	r3, .L55
 840 0028 039A     		ldr	r2, [sp, #12]
 841 002a 1B68     		ldr	r3, [r3]
 842 002c 9A42     		cmp	r2, r3
 843 002e 01D0     		beq	.L54
 844 0030 FFF7FEFF 		bl	__stack_chk_fail
ARM GAS  C:\Users\PCHAUT~1\AppData\Local\Temp\ccX03RRV.s 			page 16


 845              	.L54:
 846 0034 05B0     		add	sp, sp, #20
 847              		.cfi_def_cfa_offset 4
 848              		@ sp needed
 849 0036 5DF804FB 		ldr	pc, [sp], #4
 850              	.L56:
 851 003a 00BF     		.align	2
 852              	.L55:
 853 003c 00000000 		.word	__stack_chk_guard
 854 0040 00000000 		.word	ADCD1
 855 0044 00000000 		.word	battery_thd
 856 0048 00000000 		.word	battery_thd_wa.12101
 857              		.cfi_endproc
 858              	.LFE261:
 859              		.size	battery_level_start, .-battery_level_start
 860              		.section	.text.get_battery_raw,"ax",%progbits
 861              		.align	1
 862              		.p2align 4,,15
 863              		.global	get_battery_raw
 864              		.syntax unified
 865              		.thumb
 866              		.thumb_func
 867              		.fpu fpv4-sp-d16
 868              		.type	get_battery_raw, %function
 869              	get_battery_raw:
 870              	.LFB262:
 871              		.loc 6 127 0
 872              		.cfi_startproc
 873              		@ args = 0, pretend = 0, frame = 8
 874              		@ frame_needed = 0, uses_anonymous_args = 0
 875 0000 00B5     		push	{lr}
 876              		.cfi_def_cfa_offset 4
 877              		.cfi_offset 14, -4
 878 0002 83B0     		sub	sp, sp, #12
 879              		.cfi_def_cfa_offset 16
 880              		.loc 6 127 0
 881 0004 074B     		ldr	r3, .L60
 882 0006 1B68     		ldr	r3, [r3]
 883 0008 0193     		str	r3, [sp, #4]
 884              		.loc 6 128 0
 885 000a 074B     		ldr	r3, .L60+4
 886 000c 1B89     		ldrh	r3, [r3, #8]
 887              		.loc 6 129 0
 888 000e 1846     		mov	r0, r3
 889 0010 044B     		ldr	r3, .L60
 890 0012 019A     		ldr	r2, [sp, #4]
 891 0014 1B68     		ldr	r3, [r3]
 892 0016 9A42     		cmp	r2, r3
 893 0018 01D0     		beq	.L59
 894 001a FFF7FEFF 		bl	__stack_chk_fail
 895              	.L59:
 896 001e 03B0     		add	sp, sp, #12
 897              		.cfi_def_cfa_offset 4
 898              		@ sp needed
 899 0020 5DF804FB 		ldr	pc, [sp], #4
 900              	.L61:
 901              		.align	2
ARM GAS  C:\Users\PCHAUT~1\AppData\Local\Temp\ccX03RRV.s 			page 17


 902              	.L60:
 903 0024 00000000 		.word	__stack_chk_guard
 904 0028 00000000 		.word	battery_value
 905              		.cfi_endproc
 906              	.LFE262:
 907              		.size	get_battery_raw, .-get_battery_raw
 908              		.section	.text.get_battery_voltage,"ax",%progbits
 909              		.align	1
 910              		.p2align 4,,15
 911              		.global	get_battery_voltage
 912              		.syntax unified
 913              		.thumb
 914              		.thumb_func
 915              		.fpu fpv4-sp-d16
 916              		.type	get_battery_voltage, %function
 917              	get_battery_voltage:
 918              	.LFB263:
 919              		.loc 6 131 0
 920              		.cfi_startproc
 921              		@ args = 0, pretend = 0, frame = 8
 922              		@ frame_needed = 0, uses_anonymous_args = 0
 923 0000 00B5     		push	{lr}
 924              		.cfi_def_cfa_offset 4
 925              		.cfi_offset 14, -4
 926 0002 83B0     		sub	sp, sp, #12
 927              		.cfi_def_cfa_offset 16
 928              		.loc 6 131 0
 929 0004 094B     		ldr	r3, .L65
 930 0006 1B68     		ldr	r3, [r3]
 931 0008 0193     		str	r3, [sp, #4]
 932              		.loc 6 132 0
 933 000a 094B     		ldr	r3, .L65+4
 934 000c 1B68     		ldr	r3, [r3]	@ float
 935 000e 07EE903A 		vmov	s15, r3
 936              		.loc 6 133 0
 937 0012 B0EE670A 		vmov.f32	s0, s15
 938 0016 054B     		ldr	r3, .L65
 939 0018 019A     		ldr	r2, [sp, #4]
 940 001a 1B68     		ldr	r3, [r3]
 941 001c 9A42     		cmp	r2, r3
 942 001e 01D0     		beq	.L64
 943 0020 FFF7FEFF 		bl	__stack_chk_fail
 944              	.L64:
 945 0024 03B0     		add	sp, sp, #12
 946              		.cfi_def_cfa_offset 4
 947              		@ sp needed
 948 0026 5DF804FB 		ldr	pc, [sp], #4
 949              	.L66:
 950 002a 00BF     		.align	2
 951              	.L65:
 952 002c 00000000 		.word	__stack_chk_guard
 953 0030 00000000 		.word	battery_value
 954              		.cfi_endproc
 955              	.LFE263:
 956              		.size	get_battery_voltage, .-get_battery_voltage
 957              		.section	.text.get_battery_percentage,"ax",%progbits
 958              		.align	1
ARM GAS  C:\Users\PCHAUT~1\AppData\Local\Temp\ccX03RRV.s 			page 18


 959              		.p2align 4,,15
 960              		.global	get_battery_percentage
 961              		.syntax unified
 962              		.thumb
 963              		.thumb_func
 964              		.fpu fpv4-sp-d16
 965              		.type	get_battery_percentage, %function
 966              	get_battery_percentage:
 967              	.LFB264:
 968              		.loc 6 135 0
 969              		.cfi_startproc
 970              		@ args = 0, pretend = 0, frame = 8
 971              		@ frame_needed = 0, uses_anonymous_args = 0
 972 0000 00B5     		push	{lr}
 973              		.cfi_def_cfa_offset 4
 974              		.cfi_offset 14, -4
 975 0002 83B0     		sub	sp, sp, #12
 976              		.cfi_def_cfa_offset 16
 977              		.loc 6 135 0
 978 0004 094B     		ldr	r3, .L70
 979 0006 1B68     		ldr	r3, [r3]
 980 0008 0193     		str	r3, [sp, #4]
 981              		.loc 6 136 0
 982 000a 094B     		ldr	r3, .L70+4
 983 000c 5B68     		ldr	r3, [r3, #4]	@ float
 984 000e 07EE903A 		vmov	s15, r3
 985              		.loc 6 137 0
 986 0012 B0EE670A 		vmov.f32	s0, s15
 987 0016 054B     		ldr	r3, .L70
 988 0018 019A     		ldr	r2, [sp, #4]
 989 001a 1B68     		ldr	r3, [r3]
 990 001c 9A42     		cmp	r2, r3
 991 001e 01D0     		beq	.L69
 992 0020 FFF7FEFF 		bl	__stack_chk_fail
 993              	.L69:
 994 0024 03B0     		add	sp, sp, #12
 995              		.cfi_def_cfa_offset 4
 996              		@ sp needed
 997 0026 5DF804FB 		ldr	pc, [sp], #4
 998              	.L71:
 999 002a 00BF     		.align	2
 1000              	.L70:
 1001 002c 00000000 		.word	__stack_chk_guard
 1002 0030 00000000 		.word	battery_value
 1003              		.cfi_endproc
 1004              	.LFE264:
 1005              		.size	get_battery_percentage, .-get_battery_percentage
 1006              		.section	.text.battery_check,"ax",%progbits
 1007              		.align	1
 1008              		.p2align 4,,15
 1009              		.global	battery_check
 1010              		.syntax unified
 1011              		.thumb
 1012              		.thumb_func
 1013              		.fpu fpv4-sp-d16
 1014              		.type	battery_check, %function
 1015              	battery_check:
ARM GAS  C:\Users\PCHAUT~1\AppData\Local\Temp\ccX03RRV.s 			page 19


 1016              	.LFB265:
 1017              		.loc 6 139 0
 1018              		.cfi_startproc
 1019              		@ args = 0, pretend = 0, frame = 8
 1020              		@ frame_needed = 0, uses_anonymous_args = 0
 1021 0000 00B5     		push	{lr}
 1022              		.cfi_def_cfa_offset 4
 1023              		.cfi_offset 14, -4
 1024 0002 83B0     		sub	sp, sp, #12
 1025              		.cfi_def_cfa_offset 16
 1026              		.loc 6 139 0
 1027 0004 154B     		ldr	r3, .L79
 1028 0006 1B68     		ldr	r3, [r3]
 1029 0008 0193     		str	r3, [sp, #4]
 1030              		.loc 6 140 0
 1031 000a 154B     		ldr	r3, .L79+4
 1032 000c 1B89     		ldrh	r3, [r3, #8]
 1033 000e 40F65332 		movw	r2, #2899
 1034 0012 9342     		cmp	r3, r2
 1035 0014 04D8     		bhi	.L73
 1036              		.loc 6 141 0
 1037 0016 0121     		movs	r1, #1
 1038 0018 0020     		movs	r0, #0
 1039 001a FFF7FEFF 		bl	set_led
 1040 001e 03E0     		b	.L74
 1041              	.L73:
 1042              		.loc 6 143 0
 1043 0020 0021     		movs	r1, #0
 1044 0022 0020     		movs	r0, #0
 1045 0024 FFF7FEFF 		bl	set_led
 1046              	.L74:
 1047              		.loc 6 146 0
 1048 0028 0D4B     		ldr	r3, .L79+4
 1049 002a 1B89     		ldrh	r3, [r3, #8]
 1050 002c 40F62722 		movw	r2, #2599
 1051 0030 9342     		cmp	r3, r2
 1052 0032 04D8     		bhi	.L75
 1053              		.loc 6 147 0
 1054 0034 0121     		movs	r1, #1
 1055 0036 0120     		movs	r0, #1
 1056 0038 FFF7FEFF 		bl	set_led
 1057              		.loc 6 151 0
 1058 003c 03E0     		b	.L78
 1059              	.L75:
 1060              		.loc 6 149 0
 1061 003e 0021     		movs	r1, #0
 1062 0040 0120     		movs	r0, #1
 1063 0042 FFF7FEFF 		bl	set_led
 1064              	.L78:
 1065              		.loc 6 151 0
 1066 0046 00BF     		nop
 1067 0048 044B     		ldr	r3, .L79
 1068 004a 019A     		ldr	r2, [sp, #4]
 1069 004c 1B68     		ldr	r3, [r3]
 1070 004e 9A42     		cmp	r2, r3
 1071 0050 01D0     		beq	.L77
 1072 0052 FFF7FEFF 		bl	__stack_chk_fail
ARM GAS  C:\Users\PCHAUT~1\AppData\Local\Temp\ccX03RRV.s 			page 20


 1073              	.L77:
 1074 0056 03B0     		add	sp, sp, #12
 1075              		.cfi_def_cfa_offset 4
 1076              		@ sp needed
 1077 0058 5DF804FB 		ldr	pc, [sp], #4
 1078              	.L80:
 1079              		.align	2
 1080              	.L79:
 1081 005c 00000000 		.word	__stack_chk_guard
 1082 0060 00000000 		.word	battery_value
 1083              		.cfi_endproc
 1084              	.LFE265:
 1085              		.size	battery_check, .-battery_check
 1086              		.section	.bss.battery_thd_wa.12101,"aw",%nobits
 1087              		.align	3
 1088              		.type	battery_thd_wa.12101, %object
 1089              		.size	battery_thd_wa.12101, 632
 1090              	battery_thd_wa.12101:
 1091 0000 00000000 		.space	632
 1091      00000000 
 1091      00000000 
 1091      00000000 
 1091      00000000 
 1092              		.text
 1093              	.Letext0:
 1094              		.file 7 "c:\\users\\pchautems\\documents\\robotiquetp\\eclipse_e-puck2\\tools\\gcc-arm-none-eabi-7
 1095              		.file 8 "c:\\users\\pchautems\\documents\\robotiquetp\\eclipse_e-puck2\\tools\\gcc-arm-none-eabi-7
 1096              		.file 9 "c:\\users\\pchautems\\documents\\robotiquetp\\eclipse_e-puck2\\tools\\gcc-arm-none-eabi-7
 1097              		.file 10 "../lib/e-puck2_main-processor/ChibiOS//os/rt/ports/ARMCMx/compilers/GCC/chtypes.h"
 1098              		.file 11 "../lib/e-puck2_main-processor/ChibiOS//os/rt/include/chsystypes.h"
 1099              		.file 12 "../lib/e-puck2_main-processor/ChibiOS//os/rt/include/chschd.h"
 1100              		.file 13 "../lib/e-puck2_main-processor/ChibiOS//os/ext/CMSIS/include/core_cm4.h"
 1101              		.file 14 "../lib/e-puck2_main-processor/ChibiOS//os/ext/CMSIS/ST/system_stm32f4xx.h"
 1102              		.file 15 "../lib/e-puck2_main-processor/ChibiOS//os/ext/CMSIS/ST/stm32f407xx.h"
 1103              		.file 16 "../lib/e-puck2_main-processor/ChibiOS//os/rt/ports/ARMCMx/chcore.h"
 1104              		.file 17 "../lib/e-puck2_main-processor/ChibiOS//os/rt/include/chdebug.h"
 1105              		.file 18 "../lib/e-puck2_main-processor/ChibiOS//os/rt/include/chtm.h"
 1106              		.file 19 "../lib/e-puck2_main-processor/ChibiOS//os/rt/include/chstats.h"
 1107              		.file 20 "../lib/e-puck2_main-processor/ChibiOS//os/rt/include/chsem.h"
 1108              		.file 21 "../lib/e-puck2_main-processor/ChibiOS//os/rt/include/chmtx.h"
 1109              		.file 22 "../lib/e-puck2_main-processor/ChibiOS//os/rt/include/chcond.h"
 1110              		.file 23 "../lib/e-puck2_main-processor/ChibiOS//os/rt/include/chevents.h"
 1111              		.file 24 "../lib/e-puck2_main-processor/ChibiOS//os/rt/include/chqueues.h"
 1112              		.file 25 "../lib/e-puck2_main-processor/ChibiOS//os/hal/ports/STM32/STM32F4xx/stm32_dma.h"
 1113              		.file 26 "../lib/e-puck2_main-processor/ChibiOS//os/hal/include/hal_ioblock.h"
 1114              		.file 27 "../lib/e-puck2_main-processor/ChibiOS//os/hal/ports/STM32/LLD/GPIOv2/pal_lld.h"
 1115              		.file 28 "../lib/e-puck2_main-processor/ChibiOS//os/hal/include/adc.h"
 1116              		.file 29 "../lib/e-puck2_main-processor/ChibiOS//os/hal/ports/STM32/STM32F4xx/adc_lld.h"
 1117              		.file 30 "../lib/e-puck2_main-processor/ChibiOS//os/hal/include/can.h"
 1118              		.file 31 "../lib/e-puck2_main-processor/ChibiOS//os/hal/ports/STM32/LLD/can_lld.h"
 1119              		.file 32 "../lib/e-puck2_main-processor/ChibiOS//os/hal/include/dac.h"
 1120              		.file 33 "../lib/e-puck2_main-processor/ChibiOS//os/hal/ports/STM32/LLD/DACv1/dac_lld.h"
 1121              		.file 34 "../lib/e-puck2_main-processor/ChibiOS//os/hal/include/ext.h"
 1122              		.file 35 "../lib/e-puck2_main-processor/ChibiOS//os/hal/ports/STM32/LLD/ext_lld.h"
 1123              		.file 36 "../lib/e-puck2_main-processor/ChibiOS//os/hal/include/gpt.h"
 1124              		.file 37 "../lib/e-puck2_main-processor/ChibiOS//os/hal/ports/STM32/LLD/TIMv1/gpt_lld.h"
 1125              		.file 38 "../lib/e-puck2_main-processor/ChibiOS//os/hal/ports/STM32/LLD/TIMv1/stm32_tim.h"
ARM GAS  C:\Users\PCHAUT~1\AppData\Local\Temp\ccX03RRV.s 			page 21


 1126              		.file 39 "../lib/e-puck2_main-processor/ChibiOS//os/hal/include/i2c.h"
 1127              		.file 40 "../lib/e-puck2_main-processor/ChibiOS//os/hal/ports/STM32/LLD/I2Cv1/i2c_lld.h"
 1128              		.file 41 "../lib/e-puck2_main-processor/ChibiOS//os/hal/include/i2s.h"
 1129              		.file 42 "../lib/e-puck2_main-processor/ChibiOS//os/hal/ports/STM32/LLD/SPIv1/i2s_lld.h"
 1130              		.file 43 "../lib/e-puck2_main-processor/ChibiOS//os/hal/include/pwm.h"
 1131              		.file 44 "../lib/e-puck2_main-processor/ChibiOS//os/hal/ports/STM32/LLD/TIMv1/pwm_lld.h"
 1132              		.file 45 "../lib/e-puck2_main-processor/ChibiOS//os/hal/include/serial.h"
 1133              		.file 46 "../lib/e-puck2_main-processor/ChibiOS//os/hal/ports/STM32/LLD/USARTv1/serial_lld.h"
 1134              		.file 47 "../lib/e-puck2_main-processor/ChibiOS//os/hal/include/sdc.h"
 1135              		.file 48 "../lib/e-puck2_main-processor/ChibiOS//os/hal/ports/STM32/LLD/sdc_lld.h"
 1136              		.file 49 "../lib/e-puck2_main-processor/ChibiOS//os/hal/include/spi.h"
 1137              		.file 50 "../lib/e-puck2_main-processor/ChibiOS//os/hal/ports/STM32/LLD/SPIv1/spi_lld.h"
 1138              		.file 51 "../lib/e-puck2_main-processor/ChibiOS//os/hal/include/usb.h"
 1139              		.file 52 "../lib/e-puck2_main-processor/ChibiOS//os/hal/ports/STM32/LLD/OTGv1/usb_lld.h"
 1140              		.file 53 "../lib/e-puck2_main-processor/ChibiOS//os/hal/ports/STM32/LLD/OTGv1/stm32_otg.h"
 1141              		.file 54 "c:\\users\\pchautems\\documents\\robotiquetp\\eclipse_e-puck2\\tools\\gcc-arm-none-eabi-
 1142              		.file 55 "c:\\users\\pchautems\\documents\\robotiquetp\\eclipse_e-puck2\\tools\\gcc-arm-none-eabi-
 1143              		.file 56 "c:\\users\\pchautems\\documents\\robotiquetp\\eclipse_e-puck2\\tools\\gcc-arm-none-eabi-
 1144              		.file 57 "../lib/e-puck2_main-processor/src/sensors/battery_level.h"
 1145              		.file 58 "../lib/e-puck2_main-processor/src/leds.h"
 1146              		.file 59 "../lib/e-puck2_main-processor/ChibiOS_ext/os/hal/include/../ports/STM32/STM32F4xx/dcmi_l
 1147              		.file 60 "c:\\users\\pchautems\\documents\\robotiquetp\\eclipse_e-puck2\\tools\\gcc-arm-none-eabi-
 1148              		.file 61 "../lib/e-puck2_main-processor/src/msgbus/messagebus.h"
 1149              		.file 62 "c:\\users\\pchautems\\documents\\robotiquetp\\eclipse_e-puck2\\tools\\gcc-arm-none-eabi-
 1150              		.file 63 "../lib/e-puck2_main-processor/src/parameter/parameter.h"
 1151              		.file 64 "./main.h"