ARM GAS  C:\Users\PCHAUT~1\AppData\Local\Temp\ccm4YbEx.s 			page 1


   1              		.cpu cortex-m4
   2              		.eabi_attribute 27, 1
   3              		.eabi_attribute 28, 1
   4              		.eabi_attribute 20, 1
   5              		.eabi_attribute 21, 1
   6              		.eabi_attribute 23, 3
   7              		.eabi_attribute 24, 1
   8              		.eabi_attribute 25, 1
   9              		.eabi_attribute 26, 1
  10              		.eabi_attribute 30, 6
  11              		.eabi_attribute 34, 1
  12              		.eabi_attribute 18, 4
  13              		.file	"button.c"
  14              		.text
  15              	.Ltext0:
  16              		.cfi_sections	.debug_frame
  17              		.section	.bss.button_state,"aw",%nobits
  18              		.type	button_state, %object
  19              		.size	button_state, 1
  20              	button_state:
  21 0000 00       		.space	1
  22              		.section	.text.button_get_state,"ax",%progbits
  23              		.align	1
  24              		.p2align 4,,15
  25              		.global	button_get_state
  26              		.syntax unified
  27              		.thumb
  28              		.thumb_func
  29              		.fpu fpv4-sp-d16
  30              		.type	button_get_state, %function
  31              	button_get_state:
  32              	.LFB256:
  33              		.file 1 "../lib/e-puck2_main-processor/src/button.c"
  34              		.loc 1 9 0
  35              		.cfi_startproc
  36              		@ args = 0, pretend = 0, frame = 8
  37              		@ frame_needed = 0, uses_anonymous_args = 0
  38 0000 00B5     		push	{lr}
  39              		.cfi_def_cfa_offset 4
  40              		.cfi_offset 14, -4
  41 0002 83B0     		sub	sp, sp, #12
  42              		.cfi_def_cfa_offset 16
  43              		.loc 1 9 0
  44 0004 074B     		ldr	r3, .L4
  45 0006 1B68     		ldr	r3, [r3]
  46 0008 0193     		str	r3, [sp, #4]
  47              		.loc 1 10 0
  48 000a 074B     		ldr	r3, .L4+4
  49 000c 1B78     		ldrb	r3, [r3]	@ zero_extendqisi2
  50              		.loc 1 11 0
  51 000e 1846     		mov	r0, r3
  52 0010 044B     		ldr	r3, .L4
  53 0012 019A     		ldr	r2, [sp, #4]
  54 0014 1B68     		ldr	r3, [r3]
  55 0016 9A42     		cmp	r2, r3
  56 0018 01D0     		beq	.L3
  57 001a FFF7FEFF 		bl	__stack_chk_fail
ARM GAS  C:\Users\PCHAUT~1\AppData\Local\Temp\ccm4YbEx.s 			page 2


  58              	.L3:
  59 001e 03B0     		add	sp, sp, #12
  60              		.cfi_def_cfa_offset 4
  61              		@ sp needed
  62 0020 5DF804FB 		ldr	pc, [sp], #4
  63              	.L5:
  64              		.align	2
  65              	.L4:
  66 0024 00000000 		.word	__stack_chk_guard
  67 0028 00000000 		.word	button_state
  68              		.cfi_endproc
  69              	.LFE256:
  70              		.size	button_get_state, .-button_get_state
  71              		.section	.text.button_set_state,"ax",%progbits
  72              		.align	1
  73              		.p2align 4,,15
  74              		.global	button_set_state
  75              		.syntax unified
  76              		.thumb
  77              		.thumb_func
  78              		.fpu fpv4-sp-d16
  79              		.type	button_set_state, %function
  80              	button_set_state:
  81              	.LFB257:
  82              		.loc 1 13 0
  83              		.cfi_startproc
  84              		@ args = 0, pretend = 0, frame = 16
  85              		@ frame_needed = 0, uses_anonymous_args = 0
  86 0000 00B5     		push	{lr}
  87              		.cfi_def_cfa_offset 4
  88              		.cfi_offset 14, -4
  89 0002 85B0     		sub	sp, sp, #20
  90              		.cfi_def_cfa_offset 24
  91 0004 0346     		mov	r3, r0
  92 0006 8DF80730 		strb	r3, [sp, #7]
  93              		.loc 1 13 0
  94 000a 094B     		ldr	r3, .L8
  95 000c 1B68     		ldr	r3, [r3]
  96 000e 0393     		str	r3, [sp, #12]
  97              		.loc 1 14 0
  98 0010 084A     		ldr	r2, .L8+4
  99 0012 9DF80730 		ldrb	r3, [sp, #7]
 100 0016 1370     		strb	r3, [r2]
 101              		.loc 1 15 0
 102 0018 00BF     		nop
 103 001a 054B     		ldr	r3, .L8
 104 001c 039A     		ldr	r2, [sp, #12]
 105 001e 1B68     		ldr	r3, [r3]
 106 0020 9A42     		cmp	r2, r3
 107 0022 01D0     		beq	.L7
 108 0024 FFF7FEFF 		bl	__stack_chk_fail
 109              	.L7:
 110 0028 05B0     		add	sp, sp, #20
 111              		.cfi_def_cfa_offset 4
 112              		@ sp needed
 113 002a 5DF804FB 		ldr	pc, [sp], #4
 114              	.L9:
ARM GAS  C:\Users\PCHAUT~1\AppData\Local\Temp\ccm4YbEx.s 			page 3


 115 002e 00BF     		.align	2
 116              	.L8:
 117 0030 00000000 		.word	__stack_chk_guard
 118 0034 00000000 		.word	button_state
 119              		.cfi_endproc
 120              	.LFE257:
 121              		.size	button_set_state, .-button_set_state
 122              		.section	.text.button_is_pressed,"ax",%progbits
 123              		.align	1
 124              		.p2align 4,,15
 125              		.global	button_is_pressed
 126              		.syntax unified
 127              		.thumb
 128              		.thumb_func
 129              		.fpu fpv4-sp-d16
 130              		.type	button_is_pressed, %function
 131              	button_is_pressed:
 132              	.LFB258:
 133              		.loc 1 17 0
 134              		.cfi_startproc
 135              		@ args = 0, pretend = 0, frame = 8
 136              		@ frame_needed = 0, uses_anonymous_args = 0
 137 0000 00B5     		push	{lr}
 138              		.cfi_def_cfa_offset 4
 139              		.cfi_offset 14, -4
 140 0002 83B0     		sub	sp, sp, #12
 141              		.cfi_def_cfa_offset 16
 142              		.loc 1 17 0
 143 0004 0A4B     		ldr	r3, .L13
 144 0006 1B68     		ldr	r3, [r3]
 145 0008 0193     		str	r3, [sp, #4]
 146              		.loc 1 18 0
 147 000a 0A4B     		ldr	r3, .L13+4
 148 000c 1B78     		ldrb	r3, [r3]	@ zero_extendqisi2
 149 000e 012B     		cmp	r3, #1
 150 0010 0CBF     		ite	eq
 151 0012 0123     		moveq	r3, #1
 152 0014 0023     		movne	r3, #0
 153 0016 DBB2     		uxtb	r3, r3
 154              		.loc 1 19 0
 155 0018 1846     		mov	r0, r3
 156 001a 054B     		ldr	r3, .L13
 157 001c 019A     		ldr	r2, [sp, #4]
 158 001e 1B68     		ldr	r3, [r3]
 159 0020 9A42     		cmp	r2, r3
 160 0022 01D0     		beq	.L12
 161 0024 FFF7FEFF 		bl	__stack_chk_fail
 162              	.L12:
 163 0028 03B0     		add	sp, sp, #12
 164              		.cfi_def_cfa_offset 4
 165              		@ sp needed
 166 002a 5DF804FB 		ldr	pc, [sp], #4
 167              	.L14:
 168 002e 00BF     		.align	2
 169              	.L13:
 170 0030 00000000 		.word	__stack_chk_guard
 171 0034 00000000 		.word	button_state
ARM GAS  C:\Users\PCHAUT~1\AppData\Local\Temp\ccm4YbEx.s 			page 4


 172              		.cfi_endproc
 173              	.LFE258:
 174              		.size	button_is_pressed, .-button_is_pressed
 175              		.text
 176              	.Letext0:
 177              		.file 2 "c:\\users\\pchautems\\documents\\robotiquetp\\eclipse_e-puck2\\tools\\gcc-arm-none-eabi-7
 178              		.file 3 "c:\\users\\pchautems\\documents\\robotiquetp\\eclipse_e-puck2\\tools\\gcc-arm-none-eabi-7
 179              		.file 4 "c:\\users\\pchautems\\documents\\robotiquetp\\eclipse_e-puck2\\tools\\gcc-arm-none-eabi-7
 180              		.file 5 "../lib/e-puck2_main-processor/ChibiOS//os/rt/ports/ARMCMx/compilers/GCC/chtypes.h"
 181              		.file 6 "../lib/e-puck2_main-processor/ChibiOS//os/rt/include/chsystypes.h"
 182              		.file 7 "../lib/e-puck2_main-processor/ChibiOS//os/rt/include/chschd.h"
 183              		.file 8 "../lib/e-puck2_main-processor/ChibiOS//os/ext/CMSIS/include/core_cm4.h"
 184              		.file 9 "../lib/e-puck2_main-processor/ChibiOS//os/ext/CMSIS/ST/system_stm32f4xx.h"
 185              		.file 10 "../lib/e-puck2_main-processor/ChibiOS//os/ext/CMSIS/ST/stm32f407xx.h"
 186              		.file 11 "../lib/e-puck2_main-processor/ChibiOS//os/rt/ports/ARMCMx/chcore.h"
 187              		.file 12 "../lib/e-puck2_main-processor/ChibiOS//os/rt/ports/ARMCMx/chcore_v7m.h"
 188              		.file 13 "../lib/e-puck2_main-processor/ChibiOS//os/rt/include/chdebug.h"
 189              		.file 14 "../lib/e-puck2_main-processor/ChibiOS//os/rt/include/chtm.h"
 190              		.file 15 "../lib/e-puck2_main-processor/ChibiOS//os/rt/include/chstats.h"
 191              		.file 16 "../lib/e-puck2_main-processor/ChibiOS//os/rt/include/chsem.h"
 192              		.file 17 "../lib/e-puck2_main-processor/ChibiOS//os/rt/include/chmtx.h"
 193              		.file 18 "../lib/e-puck2_main-processor/ChibiOS//os/rt/include/chregistry.h"
 194              		.file 19 "../lib/e-puck2_main-processor/ChibiOS//os/rt/include/chevents.h"
 195              		.file 20 "../lib/e-puck2_main-processor/ChibiOS//os/rt/include/chqueues.h"
 196              		.file 21 "../lib/e-puck2_main-processor/ChibiOS//os/hal/ports/STM32/STM32F4xx/stm32_dma.h"
 197              		.file 22 "../lib/e-puck2_main-processor/ChibiOS//os/hal/include/hal_ioblock.h"
 198              		.file 23 "../lib/e-puck2_main-processor/ChibiOS//os/hal/ports/STM32/LLD/GPIOv2/pal_lld.h"
 199              		.file 24 "../lib/e-puck2_main-processor/ChibiOS//os/hal/include/adc.h"
 200              		.file 25 "../lib/e-puck2_main-processor/ChibiOS//os/hal/ports/STM32/STM32F4xx/adc_lld.h"
 201              		.file 26 "../lib/e-puck2_main-processor/ChibiOS//os/hal/include/can.h"
 202              		.file 27 "../lib/e-puck2_main-processor/ChibiOS//os/hal/ports/STM32/LLD/can_lld.h"
 203              		.file 28 "../lib/e-puck2_main-processor/ChibiOS//os/hal/include/dac.h"
 204              		.file 29 "../lib/e-puck2_main-processor/ChibiOS//os/hal/ports/STM32/LLD/DACv1/dac_lld.h"
 205              		.file 30 "../lib/e-puck2_main-processor/ChibiOS//os/hal/include/ext.h"
 206              		.file 31 "../lib/e-puck2_main-processor/ChibiOS//os/hal/ports/STM32/LLD/ext_lld.h"
 207              		.file 32 "../lib/e-puck2_main-processor/ChibiOS//os/hal/include/gpt.h"
 208              		.file 33 "../lib/e-puck2_main-processor/ChibiOS//os/hal/ports/STM32/LLD/TIMv1/gpt_lld.h"
 209              		.file 34 "../lib/e-puck2_main-processor/ChibiOS//os/hal/ports/STM32/LLD/TIMv1/stm32_tim.h"
 210              		.file 35 "../lib/e-puck2_main-processor/ChibiOS//os/hal/include/i2c.h"
 211              		.file 36 "../lib/e-puck2_main-processor/ChibiOS//os/hal/ports/STM32/LLD/I2Cv1/i2c_lld.h"
 212              		.file 37 "../lib/e-puck2_main-processor/ChibiOS//os/hal/include/i2s.h"
 213              		.file 38 "../lib/e-puck2_main-processor/ChibiOS//os/hal/ports/STM32/LLD/SPIv1/i2s_lld.h"
 214              		.file 39 "../lib/e-puck2_main-processor/ChibiOS//os/hal/include/pwm.h"
 215              		.file 40 "../lib/e-puck2_main-processor/ChibiOS//os/hal/ports/STM32/LLD/TIMv1/pwm_lld.h"
 216              		.file 41 "../lib/e-puck2_main-processor/ChibiOS//os/hal/include/serial.h"
 217              		.file 42 "../lib/e-puck2_main-processor/ChibiOS//os/hal/ports/STM32/LLD/USARTv1/serial_lld.h"
 218              		.file 43 "../lib/e-puck2_main-processor/ChibiOS//os/hal/include/sdc.h"
 219              		.file 44 "../lib/e-puck2_main-processor/ChibiOS//os/hal/ports/STM32/LLD/sdc_lld.h"
 220              		.file 45 "../lib/e-puck2_main-processor/ChibiOS//os/hal/include/spi.h"
 221              		.file 46 "../lib/e-puck2_main-processor/ChibiOS//os/hal/ports/STM32/LLD/SPIv1/spi_lld.h"
 222              		.file 47 "../lib/e-puck2_main-processor/ChibiOS//os/hal/include/usb.h"
 223              		.file 48 "../lib/e-puck2_main-processor/ChibiOS//os/hal/ports/STM32/LLD/OTGv1/usb_lld.h"
 224              		.file 49 "../lib/e-puck2_main-processor/ChibiOS//os/hal/ports/STM32/LLD/OTGv1/stm32_otg.h"