ARM GAS  C:\Users\PCHAUT~1\AppData\Local\Temp\cceAu0w9.s 			page 1


   1              		.cpu cortex-m4
   2              		.eabi_attribute 27, 1
   3              		.eabi_attribute 28, 1
   4              		.eabi_attribute 20, 1
   5              		.eabi_attribute 21, 1
   6              		.eabi_attribute 23, 3
   7              		.eabi_attribute 24, 1
   8              		.eabi_attribute 25, 1
   9              		.eabi_attribute 26, 1
  10              		.eabi_attribute 30, 6
  11              		.eabi_attribute 34, 1
  12              		.eabi_attribute 18, 4
  13              		.file	"can-buffer.c"
  14              		.text
  15              	.Ltext0:
  16              		.cfi_sections	.debug_frame
  17              		.section	.text.AsebaSendBuffer,"ax",%progbits
  18              		.align	1
  19              		.p2align 4,,15
  20              		.global	AsebaSendBuffer
  21              		.syntax unified
  22              		.thumb
  23              		.thumb_func
  24              		.fpu fpv4-sp-d16
  25              		.type	AsebaSendBuffer, %function
  26              	AsebaSendBuffer:
  27              	.LFB1:
  28              		.file 1 "../lib/e-puck2_main-processor/aseba/transport/can/can-buffer.c"
  29              		.loc 1 26 0
  30              		.cfi_startproc
  31              		@ args = 0, pretend = 0, frame = 24
  32              		@ frame_needed = 0, uses_anonymous_args = 0
  33 0000 00B5     		push	{lr}
  34              		.cfi_def_cfa_offset 4
  35              		.cfi_offset 14, -4
  36 0002 87B0     		sub	sp, sp, #28
  37              		.cfi_def_cfa_offset 32
  38 0004 0390     		str	r0, [sp, #12]
  39 0006 0291     		str	r1, [sp, #8]
  40 0008 1346     		mov	r3, r2
  41 000a ADF80630 		strh	r3, [sp, #6]	@ movhi
  42              		.loc 1 26 0
  43 000e 0D4B     		ldr	r3, .L5
  44 0010 1B68     		ldr	r3, [r3]
  45 0012 0593     		str	r3, [sp, #20]
  46              		.loc 1 28 0
  47 0014 01E0     		b	.L2
  48              	.L3:
  49              		.loc 1 29 0
  50 0016 FFF7FEFF 		bl	AsebaIdle
  51              	.L2:
  52              		.loc 1 28 0
  53 001a BDF80630 		ldrh	r3, [sp, #6]
  54 001e 1946     		mov	r1, r3
  55 0020 0298     		ldr	r0, [sp, #8]
  56 0022 FFF7FEFF 		bl	AsebaCanSend
  57 0026 0346     		mov	r3, r0
ARM GAS  C:\Users\PCHAUT~1\AppData\Local\Temp\cceAu0w9.s 			page 2


  58 0028 002B     		cmp	r3, #0
  59 002a F4D0     		beq	.L3
  60              		.loc 1 30 0
  61 002c 00BF     		nop
  62 002e 054B     		ldr	r3, .L5
  63 0030 059A     		ldr	r2, [sp, #20]
  64 0032 1B68     		ldr	r3, [r3]
  65 0034 9A42     		cmp	r2, r3
  66 0036 01D0     		beq	.L4
  67 0038 FFF7FEFF 		bl	__stack_chk_fail
  68              	.L4:
  69 003c 07B0     		add	sp, sp, #28
  70              		.cfi_def_cfa_offset 4
  71              		@ sp needed
  72 003e 5DF804FB 		ldr	pc, [sp], #4
  73              	.L6:
  74 0042 00BF     		.align	2
  75              	.L5:
  76 0044 00000000 		.word	__stack_chk_guard
  77              		.cfi_endproc
  78              	.LFE1:
  79              		.size	AsebaSendBuffer, .-AsebaSendBuffer
  80              		.section	.text.AsebaGetBuffer,"ax",%progbits
  81              		.align	1
  82              		.p2align 4,,15
  83              		.global	AsebaGetBuffer
  84              		.syntax unified
  85              		.thumb
  86              		.thumb_func
  87              		.fpu fpv4-sp-d16
  88              		.type	AsebaGetBuffer, %function
  89              	AsebaGetBuffer:
  90              	.LFB2:
  91              		.loc 1 33 0
  92              		.cfi_startproc
  93              		@ args = 0, pretend = 0, frame = 24
  94              		@ frame_needed = 0, uses_anonymous_args = 0
  95 0000 00B5     		push	{lr}
  96              		.cfi_def_cfa_offset 4
  97              		.cfi_offset 14, -4
  98 0002 87B0     		sub	sp, sp, #28
  99              		.cfi_def_cfa_offset 32
 100 0004 0390     		str	r0, [sp, #12]
 101 0006 0291     		str	r1, [sp, #8]
 102 0008 0093     		str	r3, [sp]
 103 000a 1346     		mov	r3, r2	@ movhi
 104 000c ADF80630 		strh	r3, [sp, #6]	@ movhi
 105              		.loc 1 33 0
 106 0010 0A4B     		ldr	r3, .L10
 107 0012 1B68     		ldr	r3, [r3]
 108 0014 0593     		str	r3, [sp, #20]
 109              		.loc 1 35 0
 110 0016 BDF80630 		ldrh	r3, [sp, #6]
 111 001a 009A     		ldr	r2, [sp]
 112 001c 1946     		mov	r1, r3
 113 001e 0298     		ldr	r0, [sp, #8]
 114 0020 FFF7FEFF 		bl	AsebaCanRecv
ARM GAS  C:\Users\PCHAUT~1\AppData\Local\Temp\cceAu0w9.s 			page 3


 115 0024 0346     		mov	r3, r0
 116              		.loc 1 36 0
 117 0026 1846     		mov	r0, r3
 118 0028 044B     		ldr	r3, .L10
 119 002a 059A     		ldr	r2, [sp, #20]
 120 002c 1B68     		ldr	r3, [r3]
 121 002e 9A42     		cmp	r2, r3
 122 0030 01D0     		beq	.L9
 123 0032 FFF7FEFF 		bl	__stack_chk_fail
 124              	.L9:
 125 0036 07B0     		add	sp, sp, #28
 126              		.cfi_def_cfa_offset 4
 127              		@ sp needed
 128 0038 5DF804FB 		ldr	pc, [sp], #4
 129              	.L11:
 130              		.align	2
 131              	.L10:
 132 003c 00000000 		.word	__stack_chk_guard
 133              		.cfi_endproc
 134              	.LFE2:
 135              		.size	AsebaGetBuffer, .-AsebaGetBuffer
 136              		.text
 137              	.Letext0:
 138              		.file 2 "c:\\users\\pchautems\\documents\\robotiquetp\\eclipse_e-puck2\\tools\\gcc-arm-none-eabi-7
 139              		.file 3 "c:\\users\\pchautems\\documents\\robotiquetp\\eclipse_e-puck2\\tools\\gcc-arm-none-eabi-7
 140              		.file 4 "c:\\users\\pchautems\\documents\\robotiquetp\\eclipse_e-puck2\\tools\\gcc-arm-none-eabi-7
 141              		.file 5 "c:\\users\\pchautems\\documents\\robotiquetp\\eclipse_e-puck2\\tools\\gcc-arm-none-eabi-7
 142              		.file 6 "c:\\users\\pchautems\\documents\\robotiquetp\\eclipse_e-puck2\\tools\\gcc-arm-none-eabi-7
 143              		.file 7 "../lib/e-puck2_main-processor/aseba/transport/can/../buffer/../../common/types.h"
 144              		.file 8 "../lib/e-puck2_main-processor/aseba/transport/can/../buffer/../../vm/vm.h"
 145              		.file 9 "../lib/e-puck2_main-processor/aseba/transport/can/../buffer/../../vm/natives.h"
 146              		.section	.debug_info,"",%progbits
 147              	.Ldebug_info0:
 148 0000 8C0B0000 		.4byte	0xb8c
 149 0004 0400     		.2byte	0x4
 150 0006 00000000 		.4byte	.Ldebug_abbrev0
 151 000a 04       		.byte	0x4
 152 000b 01       		.uleb128 0x1
 153 000c F7010000 		.4byte	.LASF167
 154 0010 0C       		.byte	0xc
 155 0011 23060000 		.4byte	.LASF168
 156 0015 59070000 		.4byte	.LASF169
 157 0019 00000000 		.4byte	.Ldebug_ranges0+0
 158 001d 00000000 		.4byte	0
 159 0021 00000000 		.4byte	.Ldebug_line0
 160 0025 02       		.uleb128 0x2
 161 0026 04       		.byte	0x4
 162 0027 07       		.byte	0x7
 163 0028 81040000 		.4byte	.LASF0
 164 002c 03       		.uleb128 0x3
 165 002d 04       		.byte	0x4
 166 002e 05       		.byte	0x5
 167 002f 696E7400 		.ascii	"int\000"
 168 0033 02       		.uleb128 0x2
 169 0034 08       		.byte	0x8
 170 0035 05       		.byte	0x5
 171 0036 7C010000 		.4byte	.LASF1
ARM GAS  C:\Users\PCHAUT~1\AppData\Local\Temp\cceAu0w9.s 			page 4


 172 003a 02       		.uleb128 0x2
 173 003b 08       		.byte	0x8
 174 003c 04       		.byte	0x4
 175 003d 10060000 		.4byte	.LASF2
 176 0041 02       		.uleb128 0x2
 177 0042 01       		.byte	0x1
 178 0043 06       		.byte	0x6
 179 0044 8A010000 		.4byte	.LASF3
 180 0048 02       		.uleb128 0x2
 181 0049 01       		.byte	0x1
 182 004a 08       		.byte	0x8
 183 004b B8060000 		.4byte	.LASF4
 184 004f 02       		.uleb128 0x2
 185 0050 02       		.byte	0x2
 186 0051 05       		.byte	0x5
 187 0052 D4060000 		.4byte	.LASF5
 188 0056 02       		.uleb128 0x2
 189 0057 02       		.byte	0x2
 190 0058 07       		.byte	0x7
 191 0059 13050000 		.4byte	.LASF6
 192 005d 02       		.uleb128 0x2
 193 005e 04       		.byte	0x4
 194 005f 05       		.byte	0x5
 195 0060 EE010000 		.4byte	.LASF7
 196 0064 02       		.uleb128 0x2
 197 0065 04       		.byte	0x4
 198 0066 07       		.byte	0x7
 199 0067 A5040000 		.4byte	.LASF8
 200 006b 02       		.uleb128 0x2
 201 006c 08       		.byte	0x8
 202 006d 07       		.byte	0x7
 203 006e C7000000 		.4byte	.LASF9
 204 0072 04       		.uleb128 0x4
 205 0073 60050000 		.4byte	.LASF10
 206 0077 02       		.byte	0x2
 207 0078 22       		.byte	0x22
 208 0079 7D000000 		.4byte	0x7d
 209 007d 05       		.uleb128 0x5
 210 007e 04       		.byte	0x4
 211 007f 83000000 		.4byte	0x83
 212 0083 06       		.uleb128 0x6
 213 0084 DC070000 		.4byte	.LASF117
 214 0088 04       		.uleb128 0x4
 215 0089 88060000 		.4byte	.LASF11
 216 008d 03       		.byte	0x3
 217 008e 2C       		.byte	0x2c
 218 008f 5D000000 		.4byte	0x5d
 219 0093 04       		.uleb128 0x4
 220 0094 1F080000 		.4byte	.LASF12
 221 0098 03       		.byte	0x3
 222 0099 72       		.byte	0x72
 223 009a 5D000000 		.4byte	0x5d
 224 009e 07       		.uleb128 0x7
 225 009f 68050000 		.4byte	.LASF13
 226 00a3 04       		.byte	0x4
 227 00a4 6501     		.2byte	0x165
 228 00a6 25000000 		.4byte	0x25
ARM GAS  C:\Users\PCHAUT~1\AppData\Local\Temp\cceAu0w9.s 			page 5


 229 00aa 08       		.uleb128 0x8
 230 00ab 04       		.byte	0x4
 231 00ac 03       		.byte	0x3
 232 00ad A6       		.byte	0xa6
 233 00ae C9000000 		.4byte	0xc9
 234 00b2 09       		.uleb128 0x9
 235 00b3 5A050000 		.4byte	.LASF14
 236 00b7 03       		.byte	0x3
 237 00b8 A8       		.byte	0xa8
 238 00b9 9E000000 		.4byte	0x9e
 239 00bd 09       		.uleb128 0x9
 240 00be 8E040000 		.4byte	.LASF15
 241 00c2 03       		.byte	0x3
 242 00c3 A9       		.byte	0xa9
 243 00c4 C9000000 		.4byte	0xc9
 244 00c8 00       		.byte	0
 245 00c9 0A       		.uleb128 0xa
 246 00ca 48000000 		.4byte	0x48
 247 00ce D9000000 		.4byte	0xd9
 248 00d2 0B       		.uleb128 0xb
 249 00d3 25000000 		.4byte	0x25
 250 00d7 03       		.byte	0x3
 251 00d8 00       		.byte	0
 252 00d9 0C       		.uleb128 0xc
 253 00da 08       		.byte	0x8
 254 00db 03       		.byte	0x3
 255 00dc A3       		.byte	0xa3
 256 00dd FA000000 		.4byte	0xfa
 257 00e1 0D       		.uleb128 0xd
 258 00e2 D4070000 		.4byte	.LASF16
 259 00e6 03       		.byte	0x3
 260 00e7 A5       		.byte	0xa5
 261 00e8 2C000000 		.4byte	0x2c
 262 00ec 00       		.byte	0
 263 00ed 0D       		.uleb128 0xd
 264 00ee E3070000 		.4byte	.LASF17
 265 00f2 03       		.byte	0x3
 266 00f3 AA       		.byte	0xaa
 267 00f4 AA000000 		.4byte	0xaa
 268 00f8 04       		.byte	0x4
 269 00f9 00       		.byte	0
 270 00fa 04       		.uleb128 0x4
 271 00fb FC060000 		.4byte	.LASF18
 272 00ff 03       		.byte	0x3
 273 0100 AB       		.byte	0xab
 274 0101 D9000000 		.4byte	0xd9
 275 0105 04       		.uleb128 0x4
 276 0106 28040000 		.4byte	.LASF19
 277 010a 03       		.byte	0x3
 278 010b AF       		.byte	0xaf
 279 010c 72000000 		.4byte	0x72
 280 0110 0E       		.uleb128 0xe
 281 0111 04       		.byte	0x4
 282 0112 05       		.uleb128 0x5
 283 0113 04       		.byte	0x4
 284 0114 18010000 		.4byte	0x118
 285 0118 02       		.uleb128 0x2
ARM GAS  C:\Users\PCHAUT~1\AppData\Local\Temp\cceAu0w9.s 			page 6


 286 0119 01       		.byte	0x1
 287 011a 08       		.byte	0x8
 288 011b 2E080000 		.4byte	.LASF20
 289 011f 0F       		.uleb128 0xf
 290 0120 18010000 		.4byte	0x118
 291 0124 04       		.uleb128 0x4
 292 0125 B9080000 		.4byte	.LASF21
 293 0129 05       		.byte	0x5
 294 012a 16       		.byte	0x16
 295 012b 64000000 		.4byte	0x64
 296 012f 10       		.uleb128 0x10
 297 0130 39040000 		.4byte	.LASF26
 298 0134 18       		.byte	0x18
 299 0135 05       		.byte	0x5
 300 0136 2F       		.byte	0x2f
 301 0137 82010000 		.4byte	0x182
 302 013b 0D       		.uleb128 0xd
 303 013c 6A080000 		.4byte	.LASF22
 304 0140 05       		.byte	0x5
 305 0141 31       		.byte	0x31
 306 0142 82010000 		.4byte	0x182
 307 0146 00       		.byte	0
 308 0147 11       		.uleb128 0x11
 309 0148 5F6B00   		.ascii	"_k\000"
 310 014b 05       		.byte	0x5
 311 014c 32       		.byte	0x32
 312 014d 2C000000 		.4byte	0x2c
 313 0151 04       		.byte	0x4
 314 0152 0D       		.uleb128 0xd
 315 0153 BF070000 		.4byte	.LASF23
 316 0157 05       		.byte	0x5
 317 0158 32       		.byte	0x32
 318 0159 2C000000 		.4byte	0x2c
 319 015d 08       		.byte	0x8
 320 015e 0D       		.uleb128 0xd
 321 015f 04040000 		.4byte	.LASF24
 322 0163 05       		.byte	0x5
 323 0164 32       		.byte	0x32
 324 0165 2C000000 		.4byte	0x2c
 325 0169 0C       		.byte	0xc
 326 016a 0D       		.uleb128 0xd
 327 016b 21090000 		.4byte	.LASF25
 328 016f 05       		.byte	0x5
 329 0170 32       		.byte	0x32
 330 0171 2C000000 		.4byte	0x2c
 331 0175 10       		.byte	0x10
 332 0176 11       		.uleb128 0x11
 333 0177 5F7800   		.ascii	"_x\000"
 334 017a 05       		.byte	0x5
 335 017b 33       		.byte	0x33
 336 017c 88010000 		.4byte	0x188
 337 0180 14       		.byte	0x14
 338 0181 00       		.byte	0
 339 0182 05       		.uleb128 0x5
 340 0183 04       		.byte	0x4
 341 0184 2F010000 		.4byte	0x12f
 342 0188 0A       		.uleb128 0xa
ARM GAS  C:\Users\PCHAUT~1\AppData\Local\Temp\cceAu0w9.s 			page 7


 343 0189 24010000 		.4byte	0x124
 344 018d 98010000 		.4byte	0x198
 345 0191 0B       		.uleb128 0xb
 346 0192 25000000 		.4byte	0x25
 347 0196 00       		.byte	0
 348 0197 00       		.byte	0
 349 0198 10       		.uleb128 0x10
 350 0199 60040000 		.4byte	.LASF27
 351 019d 24       		.byte	0x24
 352 019e 05       		.byte	0x5
 353 019f 37       		.byte	0x37
 354 01a0 11020000 		.4byte	0x211
 355 01a4 0D       		.uleb128 0xd
 356 01a5 4F010000 		.4byte	.LASF28
 357 01a9 05       		.byte	0x5
 358 01aa 39       		.byte	0x39
 359 01ab 2C000000 		.4byte	0x2c
 360 01af 00       		.byte	0
 361 01b0 0D       		.uleb128 0xd
 362 01b1 51080000 		.4byte	.LASF29
 363 01b5 05       		.byte	0x5
 364 01b6 3A       		.byte	0x3a
 365 01b7 2C000000 		.4byte	0x2c
 366 01bb 04       		.byte	0x4
 367 01bc 0D       		.uleb128 0xd
 368 01bd A2010000 		.4byte	.LASF30
 369 01c1 05       		.byte	0x5
 370 01c2 3B       		.byte	0x3b
 371 01c3 2C000000 		.4byte	0x2c
 372 01c7 08       		.byte	0x8
 373 01c8 0D       		.uleb128 0xd
 374 01c9 0B0A0000 		.4byte	.LASF31
 375 01cd 05       		.byte	0x5
 376 01ce 3C       		.byte	0x3c
 377 01cf 2C000000 		.4byte	0x2c
 378 01d3 0C       		.byte	0xc
 379 01d4 0D       		.uleb128 0xd
 380 01d5 62060000 		.4byte	.LASF32
 381 01d9 05       		.byte	0x5
 382 01da 3D       		.byte	0x3d
 383 01db 2C000000 		.4byte	0x2c
 384 01df 10       		.byte	0x10
 385 01e0 0D       		.uleb128 0xd
 386 01e1 F2050000 		.4byte	.LASF33
 387 01e5 05       		.byte	0x5
 388 01e6 3E       		.byte	0x3e
 389 01e7 2C000000 		.4byte	0x2c
 390 01eb 14       		.byte	0x14
 391 01ec 0D       		.uleb128 0xd
 392 01ed 26090000 		.4byte	.LASF34
 393 01f1 05       		.byte	0x5
 394 01f2 3F       		.byte	0x3f
 395 01f3 2C000000 		.4byte	0x2c
 396 01f7 18       		.byte	0x18
 397 01f8 0D       		.uleb128 0xd
 398 01f9 DE060000 		.4byte	.LASF35
 399 01fd 05       		.byte	0x5
ARM GAS  C:\Users\PCHAUT~1\AppData\Local\Temp\cceAu0w9.s 			page 8


 400 01fe 40       		.byte	0x40
 401 01ff 2C000000 		.4byte	0x2c
 402 0203 1C       		.byte	0x1c
 403 0204 0D       		.uleb128 0xd
 404 0205 D2090000 		.4byte	.LASF36
 405 0209 05       		.byte	0x5
 406 020a 41       		.byte	0x41
 407 020b 2C000000 		.4byte	0x2c
 408 020f 20       		.byte	0x20
 409 0210 00       		.byte	0
 410 0211 12       		.uleb128 0x12
 411 0212 B1010000 		.4byte	.LASF37
 412 0216 0801     		.2byte	0x108
 413 0218 05       		.byte	0x5
 414 0219 4A       		.byte	0x4a
 415 021a 51020000 		.4byte	0x251
 416 021e 0D       		.uleb128 0xd
 417 021f CD030000 		.4byte	.LASF38
 418 0223 05       		.byte	0x5
 419 0224 4B       		.byte	0x4b
 420 0225 51020000 		.4byte	0x251
 421 0229 00       		.byte	0
 422 022a 0D       		.uleb128 0xd
 423 022b 00000000 		.4byte	.LASF39
 424 022f 05       		.byte	0x5
 425 0230 4C       		.byte	0x4c
 426 0231 51020000 		.4byte	0x251
 427 0235 80       		.byte	0x80
 428 0236 13       		.uleb128 0x13
 429 0237 7D080000 		.4byte	.LASF40
 430 023b 05       		.byte	0x5
 431 023c 4E       		.byte	0x4e
 432 023d 24010000 		.4byte	0x124
 433 0241 0001     		.2byte	0x100
 434 0243 13       		.uleb128 0x13
 435 0244 42030000 		.4byte	.LASF41
 436 0248 05       		.byte	0x5
 437 0249 51       		.byte	0x51
 438 024a 24010000 		.4byte	0x124
 439 024e 0401     		.2byte	0x104
 440 0250 00       		.byte	0
 441 0251 0A       		.uleb128 0xa
 442 0252 10010000 		.4byte	0x110
 443 0256 61020000 		.4byte	0x261
 444 025a 0B       		.uleb128 0xb
 445 025b 25000000 		.4byte	0x25
 446 025f 1F       		.byte	0x1f
 447 0260 00       		.byte	0
 448 0261 12       		.uleb128 0x12
 449 0262 6B060000 		.4byte	.LASF42
 450 0266 9001     		.2byte	0x190
 451 0268 05       		.byte	0x5
 452 0269 5D       		.byte	0x5d
 453 026a 9F020000 		.4byte	0x29f
 454 026e 0D       		.uleb128 0xd
 455 026f 6A080000 		.4byte	.LASF22
 456 0273 05       		.byte	0x5
ARM GAS  C:\Users\PCHAUT~1\AppData\Local\Temp\cceAu0w9.s 			page 9


 457 0274 5E       		.byte	0x5e
 458 0275 9F020000 		.4byte	0x29f
 459 0279 00       		.byte	0
 460 027a 0D       		.uleb128 0xd
 461 027b 54070000 		.4byte	.LASF43
 462 027f 05       		.byte	0x5
 463 0280 5F       		.byte	0x5f
 464 0281 2C000000 		.4byte	0x2c
 465 0285 04       		.byte	0x4
 466 0286 0D       		.uleb128 0xd
 467 0287 FF030000 		.4byte	.LASF44
 468 028b 05       		.byte	0x5
 469 028c 61       		.byte	0x61
 470 028d A5020000 		.4byte	0x2a5
 471 0291 08       		.byte	0x8
 472 0292 0D       		.uleb128 0xd
 473 0293 B1010000 		.4byte	.LASF37
 474 0297 05       		.byte	0x5
 475 0298 62       		.byte	0x62
 476 0299 11020000 		.4byte	0x211
 477 029d 88       		.byte	0x88
 478 029e 00       		.byte	0
 479 029f 05       		.uleb128 0x5
 480 02a0 04       		.byte	0x4
 481 02a1 61020000 		.4byte	0x261
 482 02a5 0A       		.uleb128 0xa
 483 02a6 B5020000 		.4byte	0x2b5
 484 02aa B5020000 		.4byte	0x2b5
 485 02ae 0B       		.uleb128 0xb
 486 02af 25000000 		.4byte	0x25
 487 02b3 1F       		.byte	0x1f
 488 02b4 00       		.byte	0
 489 02b5 05       		.uleb128 0x5
 490 02b6 04       		.byte	0x4
 491 02b7 BB020000 		.4byte	0x2bb
 492 02bb 14       		.uleb128 0x14
 493 02bc 10       		.uleb128 0x10
 494 02bd E8060000 		.4byte	.LASF45
 495 02c1 08       		.byte	0x8
 496 02c2 05       		.byte	0x5
 497 02c3 75       		.byte	0x75
 498 02c4 E1020000 		.4byte	0x2e1
 499 02c8 0D       		.uleb128 0xd
 500 02c9 9C010000 		.4byte	.LASF46
 501 02cd 05       		.byte	0x5
 502 02ce 76       		.byte	0x76
 503 02cf E1020000 		.4byte	0x2e1
 504 02d3 00       		.byte	0
 505 02d4 0D       		.uleb128 0xd
 506 02d5 20000000 		.4byte	.LASF47
 507 02d9 05       		.byte	0x5
 508 02da 77       		.byte	0x77
 509 02db 2C000000 		.4byte	0x2c
 510 02df 04       		.byte	0x4
 511 02e0 00       		.byte	0
 512 02e1 05       		.uleb128 0x5
 513 02e2 04       		.byte	0x4
ARM GAS  C:\Users\PCHAUT~1\AppData\Local\Temp\cceAu0w9.s 			page 10


 514 02e3 48000000 		.4byte	0x48
 515 02e7 10       		.uleb128 0x10
 516 02e8 07070000 		.4byte	.LASF48
 517 02ec 68       		.byte	0x68
 518 02ed 05       		.byte	0x5
 519 02ee B5       		.byte	0xb5
 520 02ef 11040000 		.4byte	0x411
 521 02f3 11       		.uleb128 0x11
 522 02f4 5F7000   		.ascii	"_p\000"
 523 02f7 05       		.byte	0x5
 524 02f8 B6       		.byte	0xb6
 525 02f9 E1020000 		.4byte	0x2e1
 526 02fd 00       		.byte	0
 527 02fe 11       		.uleb128 0x11
 528 02ff 5F7200   		.ascii	"_r\000"
 529 0302 05       		.byte	0x5
 530 0303 B7       		.byte	0xb7
 531 0304 2C000000 		.4byte	0x2c
 532 0308 04       		.byte	0x4
 533 0309 11       		.uleb128 0x11
 534 030a 5F7700   		.ascii	"_w\000"
 535 030d 05       		.byte	0x5
 536 030e B8       		.byte	0xb8
 537 030f 2C000000 		.4byte	0x2c
 538 0313 08       		.byte	0x8
 539 0314 0D       		.uleb128 0xd
 540 0315 3B030000 		.4byte	.LASF49
 541 0319 05       		.byte	0x5
 542 031a B9       		.byte	0xb9
 543 031b 4F000000 		.4byte	0x4f
 544 031f 0C       		.byte	0xc
 545 0320 0D       		.uleb128 0xd
 546 0321 B7040000 		.4byte	.LASF50
 547 0325 05       		.byte	0x5
 548 0326 BA       		.byte	0xba
 549 0327 4F000000 		.4byte	0x4f
 550 032b 0E       		.byte	0xe
 551 032c 11       		.uleb128 0x11
 552 032d 5F626600 		.ascii	"_bf\000"
 553 0331 05       		.byte	0x5
 554 0332 BB       		.byte	0xbb
 555 0333 BC020000 		.4byte	0x2bc
 556 0337 10       		.byte	0x10
 557 0338 0D       		.uleb128 0xd
 558 0339 DE000000 		.4byte	.LASF51
 559 033d 05       		.byte	0x5
 560 033e BC       		.byte	0xbc
 561 033f 2C000000 		.4byte	0x2c
 562 0343 18       		.byte	0x18
 563 0344 0D       		.uleb128 0xd
 564 0345 BF010000 		.4byte	.LASF52
 565 0349 05       		.byte	0x5
 566 034a C3       		.byte	0xc3
 567 034b 10010000 		.4byte	0x110
 568 034f 1C       		.byte	0x1c
 569 0350 0D       		.uleb128 0xd
 570 0351 50040000 		.4byte	.LASF53
ARM GAS  C:\Users\PCHAUT~1\AppData\Local\Temp\cceAu0w9.s 			page 11


 571 0355 05       		.byte	0x5
 572 0356 C5       		.byte	0xc5
 573 0357 6C050000 		.4byte	0x56c
 574 035b 20       		.byte	0x20
 575 035c 0D       		.uleb128 0xd
 576 035d EB050000 		.4byte	.LASF54
 577 0361 05       		.byte	0x5
 578 0362 C7       		.byte	0xc7
 579 0363 96050000 		.4byte	0x596
 580 0367 24       		.byte	0x24
 581 0368 0D       		.uleb128 0xd
 582 0369 0D080000 		.4byte	.LASF55
 583 036d 05       		.byte	0x5
 584 036e CA       		.byte	0xca
 585 036f BA050000 		.4byte	0x5ba
 586 0373 28       		.byte	0x28
 587 0374 0D       		.uleb128 0xd
 588 0375 EC090000 		.4byte	.LASF56
 589 0379 05       		.byte	0x5
 590 037a CB       		.byte	0xcb
 591 037b D4050000 		.4byte	0x5d4
 592 037f 2C       		.byte	0x2c
 593 0380 11       		.uleb128 0x11
 594 0381 5F756200 		.ascii	"_ub\000"
 595 0385 05       		.byte	0x5
 596 0386 CE       		.byte	0xce
 597 0387 BC020000 		.4byte	0x2bc
 598 038b 30       		.byte	0x30
 599 038c 11       		.uleb128 0x11
 600 038d 5F757000 		.ascii	"_up\000"
 601 0391 05       		.byte	0x5
 602 0392 CF       		.byte	0xcf
 603 0393 E1020000 		.4byte	0x2e1
 604 0397 38       		.byte	0x38
 605 0398 11       		.uleb128 0x11
 606 0399 5F757200 		.ascii	"_ur\000"
 607 039d 05       		.byte	0x5
 608 039e D0       		.byte	0xd0
 609 039f 2C000000 		.4byte	0x2c
 610 03a3 3C       		.byte	0x3c
 611 03a4 0D       		.uleb128 0xd
 612 03a5 96010000 		.4byte	.LASF57
 613 03a9 05       		.byte	0x5
 614 03aa D3       		.byte	0xd3
 615 03ab DA050000 		.4byte	0x5da
 616 03af 40       		.byte	0x40
 617 03b0 0D       		.uleb128 0xd
 618 03b1 85090000 		.4byte	.LASF58
 619 03b5 05       		.byte	0x5
 620 03b6 D4       		.byte	0xd4
 621 03b7 EA050000 		.4byte	0x5ea
 622 03bb 43       		.byte	0x43
 623 03bc 11       		.uleb128 0x11
 624 03bd 5F6C6200 		.ascii	"_lb\000"
 625 03c1 05       		.byte	0x5
 626 03c2 D7       		.byte	0xd7
 627 03c3 BC020000 		.4byte	0x2bc
ARM GAS  C:\Users\PCHAUT~1\AppData\Local\Temp\cceAu0w9.s 			page 12


 628 03c7 44       		.byte	0x44
 629 03c8 0D       		.uleb128 0xd
 630 03c9 51030000 		.4byte	.LASF59
 631 03cd 05       		.byte	0x5
 632 03ce DA       		.byte	0xda
 633 03cf 2C000000 		.4byte	0x2c
 634 03d3 4C       		.byte	0x4c
 635 03d4 0D       		.uleb128 0xd
 636 03d5 A6030000 		.4byte	.LASF60
 637 03d9 05       		.byte	0x5
 638 03da DB       		.byte	0xdb
 639 03db 88000000 		.4byte	0x88
 640 03df 50       		.byte	0x50
 641 03e0 0D       		.uleb128 0xd
 642 03e1 89000000 		.4byte	.LASF61
 643 03e5 05       		.byte	0x5
 644 03e6 DE       		.byte	0xde
 645 03e7 2F040000 		.4byte	0x42f
 646 03eb 54       		.byte	0x54
 647 03ec 0D       		.uleb128 0xd
 648 03ed 6F050000 		.4byte	.LASF62
 649 03f1 05       		.byte	0x5
 650 03f2 E2       		.byte	0xe2
 651 03f3 05010000 		.4byte	0x105
 652 03f7 58       		.byte	0x58
 653 03f8 0D       		.uleb128 0xd
 654 03f9 0F070000 		.4byte	.LASF63
 655 03fd 05       		.byte	0x5
 656 03fe E4       		.byte	0xe4
 657 03ff FA000000 		.4byte	0xfa
 658 0403 5C       		.byte	0x5c
 659 0404 0D       		.uleb128 0xd
 660 0405 B2050000 		.4byte	.LASF64
 661 0409 05       		.byte	0x5
 662 040a E5       		.byte	0xe5
 663 040b 2C000000 		.4byte	0x2c
 664 040f 64       		.byte	0x64
 665 0410 00       		.byte	0
 666 0411 15       		.uleb128 0x15
 667 0412 2C000000 		.4byte	0x2c
 668 0416 2F040000 		.4byte	0x42f
 669 041a 16       		.uleb128 0x16
 670 041b 2F040000 		.4byte	0x42f
 671 041f 16       		.uleb128 0x16
 672 0420 10010000 		.4byte	0x110
 673 0424 16       		.uleb128 0x16
 674 0425 12010000 		.4byte	0x112
 675 0429 16       		.uleb128 0x16
 676 042a 2C000000 		.4byte	0x2c
 677 042e 00       		.byte	0
 678 042f 05       		.uleb128 0x5
 679 0430 04       		.byte	0x4
 680 0431 3A040000 		.4byte	0x43a
 681 0435 0F       		.uleb128 0xf
 682 0436 2F040000 		.4byte	0x42f
 683 043a 17       		.uleb128 0x17
 684 043b C7070000 		.4byte	.LASF65
ARM GAS  C:\Users\PCHAUT~1\AppData\Local\Temp\cceAu0w9.s 			page 13


 685 043f 2804     		.2byte	0x428
 686 0441 05       		.byte	0x5
 687 0442 3902     		.2byte	0x239
 688 0444 6C050000 		.4byte	0x56c
 689 0448 18       		.uleb128 0x18
 690 0449 27080000 		.4byte	.LASF66
 691 044d 05       		.byte	0x5
 692 044e 3B02     		.2byte	0x23b
 693 0450 2C000000 		.4byte	0x2c
 694 0454 00       		.byte	0
 695 0455 18       		.uleb128 0x18
 696 0456 4A030000 		.4byte	.LASF67
 697 045a 05       		.byte	0x5
 698 045b 4002     		.2byte	0x240
 699 045d 41060000 		.4byte	0x641
 700 0461 04       		.byte	0x4
 701 0462 18       		.uleb128 0x18
 702 0463 95040000 		.4byte	.LASF68
 703 0467 05       		.byte	0x5
 704 0468 4002     		.2byte	0x240
 705 046a 41060000 		.4byte	0x641
 706 046e 08       		.byte	0x8
 707 046f 18       		.uleb128 0x18
 708 0470 31040000 		.4byte	.LASF69
 709 0474 05       		.byte	0x5
 710 0475 4002     		.2byte	0x240
 711 0477 41060000 		.4byte	0x641
 712 047b 0C       		.byte	0xc
 713 047c 18       		.uleb128 0x18
 714 047d 4F070000 		.4byte	.LASF70
 715 0481 05       		.byte	0x5
 716 0482 4202     		.2byte	0x242
 717 0484 2C000000 		.4byte	0x2c
 718 0488 10       		.byte	0x10
 719 0489 18       		.uleb128 0x18
 720 048a 5F000000 		.4byte	.LASF71
 721 048e 05       		.byte	0x5
 722 048f 4302     		.2byte	0x243
 723 0491 23080000 		.4byte	0x823
 724 0495 14       		.byte	0x14
 725 0496 18       		.uleb128 0x18
 726 0497 A6070000 		.4byte	.LASF72
 727 049b 05       		.byte	0x5
 728 049c 4602     		.2byte	0x246
 729 049e 2C000000 		.4byte	0x2c
 730 04a2 30       		.byte	0x30
 731 04a3 18       		.uleb128 0x18
 732 04a4 94070000 		.4byte	.LASF73
 733 04a8 05       		.byte	0x5
 734 04a9 4702     		.2byte	0x247
 735 04ab 38080000 		.4byte	0x838
 736 04af 34       		.byte	0x34
 737 04b0 18       		.uleb128 0x18
 738 04b1 7D060000 		.4byte	.LASF74
 739 04b5 05       		.byte	0x5
 740 04b6 4902     		.2byte	0x249
 741 04b8 2C000000 		.4byte	0x2c
ARM GAS  C:\Users\PCHAUT~1\AppData\Local\Temp\cceAu0w9.s 			page 14


 742 04bc 38       		.byte	0x38
 743 04bd 18       		.uleb128 0x18
 744 04be 9C070000 		.4byte	.LASF75
 745 04c2 05       		.byte	0x5
 746 04c3 4B02     		.2byte	0x24b
 747 04c5 49080000 		.4byte	0x849
 748 04c9 3C       		.byte	0x3c
 749 04ca 18       		.uleb128 0x18
 750 04cb 52050000 		.4byte	.LASF76
 751 04cf 05       		.byte	0x5
 752 04d0 4E02     		.2byte	0x24e
 753 04d2 82010000 		.4byte	0x182
 754 04d6 40       		.byte	0x40
 755 04d7 18       		.uleb128 0x18
 756 04d8 56040000 		.4byte	.LASF77
 757 04dc 05       		.byte	0x5
 758 04dd 4F02     		.2byte	0x24f
 759 04df 2C000000 		.4byte	0x2c
 760 04e3 44       		.byte	0x44
 761 04e4 18       		.uleb128 0x18
 762 04e5 060A0000 		.4byte	.LASF78
 763 04e9 05       		.byte	0x5
 764 04ea 5002     		.2byte	0x250
 765 04ec 82010000 		.4byte	0x182
 766 04f0 48       		.byte	0x48
 767 04f1 18       		.uleb128 0x18
 768 04f2 8F060000 		.4byte	.LASF79
 769 04f6 05       		.byte	0x5
 770 04f7 5102     		.2byte	0x251
 771 04f9 4F080000 		.4byte	0x84f
 772 04fd 4C       		.byte	0x4c
 773 04fe 18       		.uleb128 0x18
 774 04ff 9D040000 		.4byte	.LASF80
 775 0503 05       		.byte	0x5
 776 0504 5402     		.2byte	0x254
 777 0506 2C000000 		.4byte	0x2c
 778 050a 50       		.byte	0x50
 779 050b 18       		.uleb128 0x18
 780 050c 9E030000 		.4byte	.LASF81
 781 0510 05       		.byte	0x5
 782 0511 5502     		.2byte	0x255
 783 0513 12010000 		.4byte	0x112
 784 0517 54       		.byte	0x54
 785 0518 18       		.uleb128 0x18
 786 0519 C6060000 		.4byte	.LASF82
 787 051d 05       		.byte	0x5
 788 051e 7802     		.2byte	0x278
 789 0520 01080000 		.4byte	0x801
 790 0524 58       		.byte	0x58
 791 0525 19       		.uleb128 0x19
 792 0526 6B060000 		.4byte	.LASF42
 793 052a 05       		.byte	0x5
 794 052b 7C02     		.2byte	0x27c
 795 052d 9F020000 		.4byte	0x29f
 796 0531 4801     		.2byte	0x148
 797 0533 19       		.uleb128 0x19
 798 0534 30050000 		.4byte	.LASF83
ARM GAS  C:\Users\PCHAUT~1\AppData\Local\Temp\cceAu0w9.s 			page 15


 799 0538 05       		.byte	0x5
 800 0539 7D02     		.2byte	0x27d
 801 053b 61020000 		.4byte	0x261
 802 053f 4C01     		.2byte	0x14c
 803 0541 19       		.uleb128 0x19
 804 0542 6E090000 		.4byte	.LASF84
 805 0546 05       		.byte	0x5
 806 0547 8102     		.2byte	0x281
 807 0549 60080000 		.4byte	0x860
 808 054d DC02     		.2byte	0x2dc
 809 054f 19       		.uleb128 0x19
 810 0550 E6010000 		.4byte	.LASF85
 811 0554 05       		.byte	0x5
 812 0555 8602     		.2byte	0x286
 813 0557 06060000 		.4byte	0x606
 814 055b E002     		.2byte	0x2e0
 815 055d 19       		.uleb128 0x19
 816 055e AC010000 		.4byte	.LASF86
 817 0562 05       		.byte	0x5
 818 0563 8802     		.2byte	0x288
 819 0565 6C080000 		.4byte	0x86c
 820 0569 EC02     		.2byte	0x2ec
 821 056b 00       		.byte	0
 822 056c 05       		.uleb128 0x5
 823 056d 04       		.byte	0x4
 824 056e 11040000 		.4byte	0x411
 825 0572 15       		.uleb128 0x15
 826 0573 2C000000 		.4byte	0x2c
 827 0577 90050000 		.4byte	0x590
 828 057b 16       		.uleb128 0x16
 829 057c 2F040000 		.4byte	0x42f
 830 0580 16       		.uleb128 0x16
 831 0581 10010000 		.4byte	0x110
 832 0585 16       		.uleb128 0x16
 833 0586 90050000 		.4byte	0x590
 834 058a 16       		.uleb128 0x16
 835 058b 2C000000 		.4byte	0x2c
 836 058f 00       		.byte	0
 837 0590 05       		.uleb128 0x5
 838 0591 04       		.byte	0x4
 839 0592 1F010000 		.4byte	0x11f
 840 0596 05       		.uleb128 0x5
 841 0597 04       		.byte	0x4
 842 0598 72050000 		.4byte	0x572
 843 059c 15       		.uleb128 0x15
 844 059d 93000000 		.4byte	0x93
 845 05a1 BA050000 		.4byte	0x5ba
 846 05a5 16       		.uleb128 0x16
 847 05a6 2F040000 		.4byte	0x42f
 848 05aa 16       		.uleb128 0x16
 849 05ab 10010000 		.4byte	0x110
 850 05af 16       		.uleb128 0x16
 851 05b0 93000000 		.4byte	0x93
 852 05b4 16       		.uleb128 0x16
 853 05b5 2C000000 		.4byte	0x2c
 854 05b9 00       		.byte	0
 855 05ba 05       		.uleb128 0x5
ARM GAS  C:\Users\PCHAUT~1\AppData\Local\Temp\cceAu0w9.s 			page 16


 856 05bb 04       		.byte	0x4
 857 05bc 9C050000 		.4byte	0x59c
 858 05c0 15       		.uleb128 0x15
 859 05c1 2C000000 		.4byte	0x2c
 860 05c5 D4050000 		.4byte	0x5d4
 861 05c9 16       		.uleb128 0x16
 862 05ca 2F040000 		.4byte	0x42f
 863 05ce 16       		.uleb128 0x16
 864 05cf 10010000 		.4byte	0x110
 865 05d3 00       		.byte	0
 866 05d4 05       		.uleb128 0x5
 867 05d5 04       		.byte	0x4
 868 05d6 C0050000 		.4byte	0x5c0
 869 05da 0A       		.uleb128 0xa
 870 05db 48000000 		.4byte	0x48
 871 05df EA050000 		.4byte	0x5ea
 872 05e3 0B       		.uleb128 0xb
 873 05e4 25000000 		.4byte	0x25
 874 05e8 02       		.byte	0x2
 875 05e9 00       		.byte	0
 876 05ea 0A       		.uleb128 0xa
 877 05eb 48000000 		.4byte	0x48
 878 05ef FA050000 		.4byte	0x5fa
 879 05f3 0B       		.uleb128 0xb
 880 05f4 25000000 		.4byte	0x25
 881 05f8 00       		.byte	0
 882 05f9 00       		.byte	0
 883 05fa 07       		.uleb128 0x7
 884 05fb F5060000 		.4byte	.LASF87
 885 05ff 05       		.byte	0x5
 886 0600 1F01     		.2byte	0x11f
 887 0602 E7020000 		.4byte	0x2e7
 888 0606 1A       		.uleb128 0x1a
 889 0607 30090000 		.4byte	.LASF88
 890 060b 0C       		.byte	0xc
 891 060c 05       		.byte	0x5
 892 060d 2301     		.2byte	0x123
 893 060f 3B060000 		.4byte	0x63b
 894 0613 18       		.uleb128 0x18
 895 0614 6A080000 		.4byte	.LASF22
 896 0618 05       		.byte	0x5
 897 0619 2501     		.2byte	0x125
 898 061b 3B060000 		.4byte	0x63b
 899 061f 00       		.byte	0
 900 0620 18       		.uleb128 0x18
 901 0621 00050000 		.4byte	.LASF89
 902 0625 05       		.byte	0x5
 903 0626 2601     		.2byte	0x126
 904 0628 2C000000 		.4byte	0x2c
 905 062c 04       		.byte	0x4
 906 062d 18       		.uleb128 0x18
 907 062e EF060000 		.4byte	.LASF90
 908 0632 05       		.byte	0x5
 909 0633 2701     		.2byte	0x127
 910 0635 41060000 		.4byte	0x641
 911 0639 08       		.byte	0x8
 912 063a 00       		.byte	0
ARM GAS  C:\Users\PCHAUT~1\AppData\Local\Temp\cceAu0w9.s 			page 17


 913 063b 05       		.uleb128 0x5
 914 063c 04       		.byte	0x4
 915 063d 06060000 		.4byte	0x606
 916 0641 05       		.uleb128 0x5
 917 0642 04       		.byte	0x4
 918 0643 FA050000 		.4byte	0x5fa
 919 0647 1A       		.uleb128 0x1a
 920 0648 57000000 		.4byte	.LASF91
 921 064c 0E       		.byte	0xe
 922 064d 05       		.byte	0x5
 923 064e 3F01     		.2byte	0x13f
 924 0650 7C060000 		.4byte	0x67c
 925 0654 18       		.uleb128 0x18
 926 0655 CE070000 		.4byte	.LASF92
 927 0659 05       		.byte	0x5
 928 065a 4001     		.2byte	0x140
 929 065c 7C060000 		.4byte	0x67c
 930 0660 00       		.byte	0
 931 0661 18       		.uleb128 0x18
 932 0662 64080000 		.4byte	.LASF93
 933 0666 05       		.byte	0x5
 934 0667 4101     		.2byte	0x141
 935 0669 7C060000 		.4byte	0x67c
 936 066d 06       		.byte	0x6
 937 066e 18       		.uleb128 0x18
 938 066f B4080000 		.4byte	.LASF94
 939 0673 05       		.byte	0x5
 940 0674 4201     		.2byte	0x142
 941 0676 56000000 		.4byte	0x56
 942 067a 0C       		.byte	0xc
 943 067b 00       		.byte	0
 944 067c 0A       		.uleb128 0xa
 945 067d 56000000 		.4byte	0x56
 946 0681 8C060000 		.4byte	0x68c
 947 0685 0B       		.uleb128 0xb
 948 0686 25000000 		.4byte	0x25
 949 068a 02       		.byte	0x2
 950 068b 00       		.byte	0
 951 068c 1B       		.uleb128 0x1b
 952 068d D0       		.byte	0xd0
 953 068e 05       		.byte	0x5
 954 068f 5902     		.2byte	0x259
 955 0691 8D070000 		.4byte	0x78d
 956 0695 18       		.uleb128 0x18
 957 0696 05090000 		.4byte	.LASF95
 958 069a 05       		.byte	0x5
 959 069b 5B02     		.2byte	0x25b
 960 069d 25000000 		.4byte	0x25
 961 06a1 00       		.byte	0
 962 06a2 18       		.uleb128 0x18
 963 06a3 70080000 		.4byte	.LASF96
 964 06a7 05       		.byte	0x5
 965 06a8 5C02     		.2byte	0x25c
 966 06aa 12010000 		.4byte	0x112
 967 06ae 04       		.byte	0x4
 968 06af 18       		.uleb128 0x18
 969 06b0 45050000 		.4byte	.LASF97
ARM GAS  C:\Users\PCHAUT~1\AppData\Local\Temp\cceAu0w9.s 			page 18


 970 06b4 05       		.byte	0x5
 971 06b5 5D02     		.2byte	0x25d
 972 06b7 8D070000 		.4byte	0x78d
 973 06bb 08       		.byte	0x8
 974 06bc 18       		.uleb128 0x18
 975 06bd DD090000 		.4byte	.LASF98
 976 06c1 05       		.byte	0x5
 977 06c2 5E02     		.2byte	0x25e
 978 06c4 98010000 		.4byte	0x198
 979 06c8 24       		.byte	0x24
 980 06c9 18       		.uleb128 0x18
 981 06ca 41040000 		.4byte	.LASF99
 982 06ce 05       		.byte	0x5
 983 06cf 5F02     		.2byte	0x25f
 984 06d1 2C000000 		.4byte	0x2c
 985 06d5 48       		.byte	0x48
 986 06d6 18       		.uleb128 0x18
 987 06d7 18070000 		.4byte	.LASF100
 988 06db 05       		.byte	0x5
 989 06dc 6002     		.2byte	0x260
 990 06de 6B000000 		.4byte	0x6b
 991 06e2 50       		.byte	0x50
 992 06e3 18       		.uleb128 0x18
 993 06e4 F3090000 		.4byte	.LASF101
 994 06e8 05       		.byte	0x5
 995 06e9 6102     		.2byte	0x261
 996 06eb 47060000 		.4byte	0x647
 997 06ef 58       		.byte	0x58
 998 06f0 18       		.uleb128 0x18
 999 06f1 42070000 		.4byte	.LASF102
 1000 06f5 05       		.byte	0x5
 1001 06f6 6202     		.2byte	0x262
 1002 06f8 FA000000 		.4byte	0xfa
 1003 06fc 68       		.byte	0x68
 1004 06fd 18       		.uleb128 0x18
 1005 06fe F8090000 		.4byte	.LASF103
 1006 0702 05       		.byte	0x5
 1007 0703 6302     		.2byte	0x263
 1008 0705 FA000000 		.4byte	0xfa
 1009 0709 70       		.byte	0x70
 1010 070a 18       		.uleb128 0x18
 1011 070b 99060000 		.4byte	.LASF104
 1012 070f 05       		.byte	0x5
 1013 0710 6402     		.2byte	0x264
 1014 0712 FA000000 		.4byte	0xfa
 1015 0716 78       		.byte	0x78
 1016 0717 18       		.uleb128 0x18
 1017 0718 5E090000 		.4byte	.LASF105
 1018 071c 05       		.byte	0x5
 1019 071d 6502     		.2byte	0x265
 1020 071f 9D070000 		.4byte	0x79d
 1021 0723 80       		.byte	0x80
 1022 0724 18       		.uleb128 0x18
 1023 0725 39050000 		.4byte	.LASF106
 1024 0729 05       		.byte	0x5
 1025 072a 6602     		.2byte	0x266
 1026 072c AD070000 		.4byte	0x7ad
ARM GAS  C:\Users\PCHAUT~1\AppData\Local\Temp\cceAu0w9.s 			page 19


 1027 0730 88       		.byte	0x88
 1028 0731 18       		.uleb128 0x18
 1029 0732 C1080000 		.4byte	.LASF107
 1030 0736 05       		.byte	0x5
 1031 0737 6702     		.2byte	0x267
 1032 0739 2C000000 		.4byte	0x2c
 1033 073d A0       		.byte	0xa0
 1034 073e 18       		.uleb128 0x18
 1035 073f BF030000 		.4byte	.LASF108
 1036 0743 05       		.byte	0x5
 1037 0744 6802     		.2byte	0x268
 1038 0746 FA000000 		.4byte	0xfa
 1039 074a A4       		.byte	0xa4
 1040 074b 18       		.uleb128 0x18
 1041 074c 21010000 		.4byte	.LASF109
 1042 0750 05       		.byte	0x5
 1043 0751 6902     		.2byte	0x269
 1044 0753 FA000000 		.4byte	0xfa
 1045 0757 AC       		.byte	0xac
 1046 0758 18       		.uleb128 0x18
 1047 0759 AE030000 		.4byte	.LASF110
 1048 075d 05       		.byte	0x5
 1049 075e 6A02     		.2byte	0x26a
 1050 0760 FA000000 		.4byte	0xfa
 1051 0764 B4       		.byte	0xb4
 1052 0765 18       		.uleb128 0x18
 1053 0766 99000000 		.4byte	.LASF111
 1054 076a 05       		.byte	0x5
 1055 076b 6B02     		.2byte	0x26b
 1056 076d FA000000 		.4byte	0xfa
 1057 0771 BC       		.byte	0xbc
 1058 0772 18       		.uleb128 0x18
 1059 0773 A8000000 		.4byte	.LASF112
 1060 0777 05       		.byte	0x5
 1061 0778 6C02     		.2byte	0x26c
 1062 077a FA000000 		.4byte	0xfa
 1063 077e C4       		.byte	0xc4
 1064 077f 18       		.uleb128 0x18
 1065 0780 CB060000 		.4byte	.LASF113
 1066 0784 05       		.byte	0x5
 1067 0785 6D02     		.2byte	0x26d
 1068 0787 2C000000 		.4byte	0x2c
 1069 078b CC       		.byte	0xcc
 1070 078c 00       		.byte	0
 1071 078d 0A       		.uleb128 0xa
 1072 078e 18010000 		.4byte	0x118
 1073 0792 9D070000 		.4byte	0x79d
 1074 0796 0B       		.uleb128 0xb
 1075 0797 25000000 		.4byte	0x25
 1076 079b 19       		.byte	0x19
 1077 079c 00       		.byte	0
 1078 079d 0A       		.uleb128 0xa
 1079 079e 18010000 		.4byte	0x118
 1080 07a2 AD070000 		.4byte	0x7ad
 1081 07a6 0B       		.uleb128 0xb
 1082 07a7 25000000 		.4byte	0x25
 1083 07ab 07       		.byte	0x7
ARM GAS  C:\Users\PCHAUT~1\AppData\Local\Temp\cceAu0w9.s 			page 20


 1084 07ac 00       		.byte	0
 1085 07ad 0A       		.uleb128 0xa
 1086 07ae 18010000 		.4byte	0x118
 1087 07b2 BD070000 		.4byte	0x7bd
 1088 07b6 0B       		.uleb128 0xb
 1089 07b7 25000000 		.4byte	0x25
 1090 07bb 17       		.byte	0x17
 1091 07bc 00       		.byte	0
 1092 07bd 1B       		.uleb128 0x1b
 1093 07be F0       		.byte	0xf0
 1094 07bf 05       		.byte	0x5
 1095 07c0 7202     		.2byte	0x272
 1096 07c2 E1070000 		.4byte	0x7e1
 1097 07c6 18       		.uleb128 0x18
 1098 07c7 1C060000 		.4byte	.LASF114
 1099 07cb 05       		.byte	0x5
 1100 07cc 7502     		.2byte	0x275
 1101 07ce E1070000 		.4byte	0x7e1
 1102 07d2 00       		.byte	0
 1103 07d3 18       		.uleb128 0x18
 1104 07d4 55090000 		.4byte	.LASF115
 1105 07d8 05       		.byte	0x5
 1106 07d9 7602     		.2byte	0x276
 1107 07db F1070000 		.4byte	0x7f1
 1108 07df 78       		.byte	0x78
 1109 07e0 00       		.byte	0
 1110 07e1 0A       		.uleb128 0xa
 1111 07e2 E1020000 		.4byte	0x2e1
 1112 07e6 F1070000 		.4byte	0x7f1
 1113 07ea 0B       		.uleb128 0xb
 1114 07eb 25000000 		.4byte	0x25
 1115 07ef 1D       		.byte	0x1d
 1116 07f0 00       		.byte	0
 1117 07f1 0A       		.uleb128 0xa
 1118 07f2 25000000 		.4byte	0x25
 1119 07f6 01080000 		.4byte	0x801
 1120 07fa 0B       		.uleb128 0xb
 1121 07fb 25000000 		.4byte	0x25
 1122 07ff 1D       		.byte	0x1d
 1123 0800 00       		.byte	0
 1124 0801 1C       		.uleb128 0x1c
 1125 0802 F0       		.byte	0xf0
 1126 0803 05       		.byte	0x5
 1127 0804 5702     		.2byte	0x257
 1128 0806 23080000 		.4byte	0x823
 1129 080a 1D       		.uleb128 0x1d
 1130 080b C7070000 		.4byte	.LASF65
 1131 080f 05       		.byte	0x5
 1132 0810 6E02     		.2byte	0x26e
 1133 0812 8C060000 		.4byte	0x68c
 1134 0816 1D       		.uleb128 0x1d
 1135 0817 8B090000 		.4byte	.LASF116
 1136 081b 05       		.byte	0x5
 1137 081c 7702     		.2byte	0x277
 1138 081e BD070000 		.4byte	0x7bd
 1139 0822 00       		.byte	0
 1140 0823 0A       		.uleb128 0xa
ARM GAS  C:\Users\PCHAUT~1\AppData\Local\Temp\cceAu0w9.s 			page 21


 1141 0824 18010000 		.4byte	0x118
 1142 0828 33080000 		.4byte	0x833
 1143 082c 0B       		.uleb128 0xb
 1144 082d 25000000 		.4byte	0x25
 1145 0831 18       		.byte	0x18
 1146 0832 00       		.byte	0
 1147 0833 06       		.uleb128 0x6
 1148 0834 EC000000 		.4byte	.LASF118
 1149 0838 05       		.uleb128 0x5
 1150 0839 04       		.byte	0x4
 1151 083a 33080000 		.4byte	0x833
 1152 083e 1E       		.uleb128 0x1e
 1153 083f 49080000 		.4byte	0x849
 1154 0843 16       		.uleb128 0x16
 1155 0844 2F040000 		.4byte	0x42f
 1156 0848 00       		.byte	0
 1157 0849 05       		.uleb128 0x5
 1158 084a 04       		.byte	0x4
 1159 084b 3E080000 		.4byte	0x83e
 1160 084f 05       		.uleb128 0x5
 1161 0850 04       		.byte	0x4
 1162 0851 82010000 		.4byte	0x182
 1163 0855 1E       		.uleb128 0x1e
 1164 0856 60080000 		.4byte	0x860
 1165 085a 16       		.uleb128 0x16
 1166 085b 2C000000 		.4byte	0x2c
 1167 085f 00       		.byte	0
 1168 0860 05       		.uleb128 0x5
 1169 0861 04       		.byte	0x4
 1170 0862 66080000 		.4byte	0x866
 1171 0866 05       		.uleb128 0x5
 1172 0867 04       		.byte	0x4
 1173 0868 55080000 		.4byte	0x855
 1174 086c 0A       		.uleb128 0xa
 1175 086d FA050000 		.4byte	0x5fa
 1176 0871 7C080000 		.4byte	0x87c
 1177 0875 0B       		.uleb128 0xb
 1178 0876 25000000 		.4byte	0x25
 1179 087a 02       		.byte	0x2
 1180 087b 00       		.byte	0
 1181 087c 1F       		.uleb128 0x1f
 1182 087d 13080000 		.4byte	.LASF119
 1183 0881 05       		.byte	0x5
 1184 0882 0703     		.2byte	0x307
 1185 0884 2F040000 		.4byte	0x42f
 1186 0888 1F       		.uleb128 0x1f
 1187 0889 F2080000 		.4byte	.LASF120
 1188 088d 05       		.byte	0x5
 1189 088e 0803     		.2byte	0x308
 1190 0890 35040000 		.4byte	0x435
 1191 0894 20       		.uleb128 0x20
 1192 0895 73060000 		.4byte	.LASF121
 1193 0899 06       		.byte	0x6
 1194 089a 63       		.byte	0x63
 1195 089b 12010000 		.4byte	0x112
 1196 089f 04       		.uleb128 0x4
 1197 08a0 C3050000 		.4byte	.LASF122
ARM GAS  C:\Users\PCHAUT~1\AppData\Local\Temp\cceAu0w9.s 			page 22


 1198 08a4 07       		.byte	0x7
 1199 08a5 23       		.byte	0x23
 1200 08a6 4F000000 		.4byte	0x4f
 1201 08aa 04       		.uleb128 0x4
 1202 08ab 19000000 		.4byte	.LASF123
 1203 08af 07       		.byte	0x7
 1204 08b0 24       		.byte	0x24
 1205 08b1 56000000 		.4byte	0x56
 1206 08b5 04       		.uleb128 0x4
 1207 08b6 5A030000 		.4byte	.LASF124
 1208 08ba 07       		.byte	0x7
 1209 08bb 26       		.byte	0x26
 1210 08bc 48000000 		.4byte	0x48
 1211 08c0 0F       		.uleb128 0xf
 1212 08c1 B5080000 		.4byte	0x8b5
 1213 08c5 0C       		.uleb128 0xc
 1214 08c6 40       		.byte	0x40
 1215 08c7 08       		.byte	0x8
 1216 08c8 45       		.byte	0x45
 1217 08c9 5C090000 		.4byte	0x95c
 1218 08cd 0D       		.uleb128 0xd
 1219 08ce 07050000 		.4byte	.LASF125
 1220 08d2 08       		.byte	0x8
 1221 08d3 48       		.byte	0x48
 1222 08d4 AA080000 		.4byte	0x8aa
 1223 08d8 00       		.byte	0
 1224 08d9 0D       		.uleb128 0xd
 1225 08da 0C000000 		.4byte	.LASF126
 1226 08de 08       		.byte	0x8
 1227 08df 4B       		.byte	0x4b
 1228 08e0 AA080000 		.4byte	0x8aa
 1229 08e4 02       		.byte	0x2
 1230 08e5 0D       		.uleb128 0xd
 1231 08e6 BA050000 		.4byte	.LASF127
 1232 08ea 08       		.byte	0x8
 1233 08eb 4C       		.byte	0x4c
 1234 08ec 5C090000 		.4byte	0x95c
 1235 08f0 04       		.byte	0x4
 1236 08f1 0D       		.uleb128 0xd
 1237 08f2 B9000000 		.4byte	.LASF128
 1238 08f6 08       		.byte	0x8
 1239 08f7 4F       		.byte	0x4f
 1240 08f8 AA080000 		.4byte	0x8aa
 1241 08fc 08       		.byte	0x8
 1242 08fd 0D       		.uleb128 0xd
 1243 08fe 4D000000 		.4byte	.LASF129
 1244 0902 08       		.byte	0x8
 1245 0903 50       		.byte	0x50
 1246 0904 62090000 		.4byte	0x962
 1247 0908 0C       		.byte	0xc
 1248 0909 0D       		.uleb128 0xd
 1249 090a 5A080000 		.4byte	.LASF130
 1250 090e 08       		.byte	0x8
 1251 090f 53       		.byte	0x53
 1252 0910 AA080000 		.4byte	0x8aa
 1253 0914 10       		.byte	0x10
 1254 0915 0D       		.uleb128 0xd
ARM GAS  C:\Users\PCHAUT~1\AppData\Local\Temp\cceAu0w9.s 			page 23


 1255 0916 78090000 		.4byte	.LASF131
 1256 091a 08       		.byte	0x8
 1257 091b 54       		.byte	0x54
 1258 091c 62090000 		.4byte	0x962
 1259 0920 14       		.byte	0x14
 1260 0921 0D       		.uleb128 0xd
 1261 0922 68090000 		.4byte	.LASF132
 1262 0926 08       		.byte	0x8
 1263 0927 57       		.byte	0x57
 1264 0928 AA080000 		.4byte	0x8aa
 1265 092c 18       		.byte	0x18
 1266 092d 11       		.uleb128 0x11
 1267 092e 706300   		.ascii	"pc\000"
 1268 0931 08       		.byte	0x8
 1269 0932 58       		.byte	0x58
 1270 0933 AA080000 		.4byte	0x8aa
 1271 0937 1A       		.byte	0x1a
 1272 0938 11       		.uleb128 0x11
 1273 0939 737000   		.ascii	"sp\000"
 1274 093c 08       		.byte	0x8
 1275 093d 59       		.byte	0x59
 1276 093e 9F080000 		.4byte	0x89f
 1277 0942 1C       		.byte	0x1c
 1278 0943 0D       		.uleb128 0xd
 1279 0944 D5030000 		.4byte	.LASF133
 1280 0948 08       		.byte	0x8
 1281 0949 5C       		.byte	0x5c
 1282 094a 68090000 		.4byte	0x968
 1283 094e 1E       		.byte	0x1e
 1284 094f 0D       		.uleb128 0xd
 1285 0950 A7060000 		.4byte	.LASF134
 1286 0954 08       		.byte	0x8
 1287 0955 5D       		.byte	0x5d
 1288 0956 AA080000 		.4byte	0x8aa
 1289 095a 3E       		.byte	0x3e
 1290 095b 00       		.byte	0
 1291 095c 05       		.uleb128 0x5
 1292 095d 04       		.byte	0x4
 1293 095e AA080000 		.4byte	0x8aa
 1294 0962 05       		.uleb128 0x5
 1295 0963 04       		.byte	0x4
 1296 0964 9F080000 		.4byte	0x89f
 1297 0968 0A       		.uleb128 0xa
 1298 0969 AA080000 		.4byte	0x8aa
 1299 096d 78090000 		.4byte	0x978
 1300 0971 0B       		.uleb128 0xb
 1301 0972 25000000 		.4byte	0x25
 1302 0976 0F       		.byte	0xf
 1303 0977 00       		.byte	0
 1304 0978 04       		.uleb128 0x4
 1305 0979 FC050000 		.4byte	.LASF135
 1306 097d 08       		.byte	0x8
 1307 097e 5E       		.byte	0x5e
 1308 097f C5080000 		.4byte	0x8c5
 1309 0983 05       		.uleb128 0x5
 1310 0984 04       		.byte	0x4
 1311 0985 78090000 		.4byte	0x978
ARM GAS  C:\Users\PCHAUT~1\AppData\Local\Temp\cceAu0w9.s 			page 24


 1312 0989 0C       		.uleb128 0xc
 1313 098a 08       		.byte	0x8
 1314 098b 09       		.byte	0x9
 1315 098c 47       		.byte	0x47
 1316 098d AA090000 		.4byte	0x9aa
 1317 0991 0D       		.uleb128 0xd
 1318 0992 0E050000 		.4byte	.LASF136
 1319 0996 09       		.byte	0x9
 1320 0997 49       		.byte	0x49
 1321 0998 9F080000 		.4byte	0x89f
 1322 099c 00       		.byte	0
 1323 099d 0D       		.uleb128 0xd
 1324 099e DD040000 		.4byte	.LASF137
 1325 09a2 09       		.byte	0x9
 1326 09a3 4A       		.byte	0x4a
 1327 09a4 90050000 		.4byte	0x590
 1328 09a8 04       		.byte	0x4
 1329 09a9 00       		.byte	0
 1330 09aa 04       		.uleb128 0x4
 1331 09ab 26000000 		.4byte	.LASF138
 1332 09af 09       		.byte	0x9
 1333 09b0 4B       		.byte	0x4b
 1334 09b1 89090000 		.4byte	0x989
 1335 09b5 0C       		.uleb128 0xc
 1336 09b6 08       		.byte	0x8
 1337 09b7 09       		.byte	0x9
 1338 09b8 4E       		.byte	0x4e
 1339 09b9 E2090000 		.4byte	0x9e2
 1340 09bd 0D       		.uleb128 0xd
 1341 09be DD040000 		.4byte	.LASF137
 1342 09c2 09       		.byte	0x9
 1343 09c3 50       		.byte	0x50
 1344 09c4 90050000 		.4byte	0x590
 1345 09c8 00       		.byte	0
 1346 09c9 11       		.uleb128 0x11
 1347 09ca 646F6300 		.ascii	"doc\000"
 1348 09ce 09       		.byte	0x9
 1349 09cf 51       		.byte	0x51
 1350 09d0 90050000 		.4byte	0x590
 1351 09d4 04       		.byte	0x4
 1352 09d5 0D       		.uleb128 0xd
 1353 09d6 26050000 		.4byte	.LASF139
 1354 09da 09       		.byte	0x9
 1355 09db 52       		.byte	0x52
 1356 09dc E2090000 		.4byte	0x9e2
 1357 09e0 08       		.byte	0x8
 1358 09e1 00       		.byte	0
 1359 09e2 0A       		.uleb128 0xa
 1360 09e3 AA090000 		.4byte	0x9aa
 1361 09e7 F1090000 		.4byte	0x9f1
 1362 09eb 21       		.uleb128 0x21
 1363 09ec 25000000 		.4byte	0x25
 1364 09f0 00       		.byte	0
 1365 09f1 04       		.uleb128 0x4
 1366 09f2 B3090000 		.4byte	.LASF140
 1367 09f6 09       		.byte	0x9
 1368 09f7 53       		.byte	0x53
ARM GAS  C:\Users\PCHAUT~1\AppData\Local\Temp\cceAu0w9.s 			page 25


 1369 09f8 B5090000 		.4byte	0x9b5
 1370 09fc 0F       		.uleb128 0xf
 1371 09fd F1090000 		.4byte	0x9f1
 1372 0a01 20       		.uleb128 0x20
 1373 0a02 23070000 		.4byte	.LASF141
 1374 0a06 09       		.byte	0x9
 1375 0a07 62       		.byte	0x62
 1376 0a08 FC090000 		.4byte	0x9fc
 1377 0a0c 20       		.uleb128 0x20
 1378 0a0d 36090000 		.4byte	.LASF142
 1379 0a11 09       		.byte	0x9
 1380 0a12 67       		.byte	0x67
 1381 0a13 FC090000 		.4byte	0x9fc
 1382 0a17 20       		.uleb128 0x20
 1383 0a18 58010000 		.4byte	.LASF143
 1384 0a1c 09       		.byte	0x9
 1385 0a1d 6C       		.byte	0x6c
 1386 0a1e FC090000 		.4byte	0x9fc
 1387 0a22 20       		.uleb128 0x20
 1388 0a23 0A040000 		.4byte	.LASF144
 1389 0a27 09       		.byte	0x9
 1390 0a28 71       		.byte	0x71
 1391 0a29 FC090000 		.4byte	0x9fc
 1392 0a2d 20       		.uleb128 0x20
 1393 0a2e E1030000 		.4byte	.LASF145
 1394 0a32 09       		.byte	0x9
 1395 0a33 76       		.byte	0x76
 1396 0a34 FC090000 		.4byte	0x9fc
 1397 0a38 20       		.uleb128 0x20
 1398 0a39 E2040000 		.4byte	.LASF146
 1399 0a3d 09       		.byte	0x9
 1400 0a3e 7B       		.byte	0x7b
 1401 0a3f FC090000 		.4byte	0x9fc
 1402 0a43 20       		.uleb128 0x20
 1403 0a44 94050000 		.4byte	.LASF147
 1404 0a48 09       		.byte	0x9
 1405 0a49 80       		.byte	0x80
 1406 0a4a FC090000 		.4byte	0x9fc
 1407 0a4e 20       		.uleb128 0x20
 1408 0a4f 86080000 		.4byte	.LASF148
 1409 0a53 09       		.byte	0x9
 1410 0a54 85       		.byte	0x85
 1411 0a55 FC090000 		.4byte	0x9fc
 1412 0a59 20       		.uleb128 0x20
 1413 0a5a 33080000 		.4byte	.LASF149
 1414 0a5e 09       		.byte	0x9
 1415 0a5f 8A       		.byte	0x8a
 1416 0a60 FC090000 		.4byte	0x9fc
 1417 0a64 20       		.uleb128 0x20
 1418 0a65 7E030000 		.4byte	.LASF150
 1419 0a69 09       		.byte	0x9
 1420 0a6a 8F       		.byte	0x8f
 1421 0a6b FC090000 		.4byte	0x9fc
 1422 0a6f 20       		.uleb128 0x20
 1423 0a70 60030000 		.4byte	.LASF151
 1424 0a74 09       		.byte	0x9
 1425 0a75 94       		.byte	0x94
ARM GAS  C:\Users\PCHAUT~1\AppData\Local\Temp\cceAu0w9.s 			page 26


 1426 0a76 FC090000 		.4byte	0x9fc
 1427 0a7a 20       		.uleb128 0x20
 1428 0a7b 6A000000 		.4byte	.LASF152
 1429 0a7f 09       		.byte	0x9
 1430 0a80 99       		.byte	0x99
 1431 0a81 FC090000 		.4byte	0x9fc
 1432 0a85 20       		.uleb128 0x20
 1433 0a86 CE080000 		.4byte	.LASF153
 1434 0a8a 09       		.byte	0x9
 1435 0a8b 9E       		.byte	0x9e
 1436 0a8c FC090000 		.4byte	0x9fc
 1437 0a90 20       		.uleb128 0x20
 1438 0a91 C7010000 		.4byte	.LASF154
 1439 0a95 09       		.byte	0x9
 1440 0a96 A3       		.byte	0xa3
 1441 0a97 FC090000 		.4byte	0x9fc
 1442 0a9b 20       		.uleb128 0x20
 1443 0a9c EB070000 		.4byte	.LASF155
 1444 0aa0 09       		.byte	0x9
 1445 0aa1 A8       		.byte	0xa8
 1446 0aa2 FC090000 		.4byte	0x9fc
 1447 0aa6 20       		.uleb128 0x20
 1448 0aa7 CA050000 		.4byte	.LASF156
 1449 0aab 09       		.byte	0x9
 1450 0aac AD       		.byte	0xad
 1451 0aad FC090000 		.4byte	0x9fc
 1452 0ab1 20       		.uleb128 0x20
 1453 0ab2 75050000 		.4byte	.LASF157
 1454 0ab6 09       		.byte	0x9
 1455 0ab7 B2       		.byte	0xb2
 1456 0ab8 FC090000 		.4byte	0x9fc
 1457 0abc 20       		.uleb128 0x20
 1458 0abd 30010000 		.4byte	.LASF158
 1459 0ac1 09       		.byte	0x9
 1460 0ac2 B7       		.byte	0xb7
 1461 0ac3 FC090000 		.4byte	0x9fc
 1462 0ac7 20       		.uleb128 0x20
 1463 0ac8 93090000 		.4byte	.LASF159
 1464 0acc 09       		.byte	0x9
 1465 0acd BC       		.byte	0xbc
 1466 0ace FC090000 		.4byte	0x9fc
 1467 0ad2 20       		.uleb128 0x20
 1468 0ad3 BD040000 		.4byte	.LASF160
 1469 0ad7 09       		.byte	0x9
 1470 0ad8 C1       		.byte	0xc1
 1471 0ad9 FC090000 		.4byte	0x9fc
 1472 0add 20       		.uleb128 0x20
 1473 0ade F7000000 		.4byte	.LASF161
 1474 0ae2 09       		.byte	0x9
 1475 0ae3 C6       		.byte	0xc6
 1476 0ae4 FC090000 		.4byte	0x9fc
 1477 0ae8 20       		.uleb128 0x20
 1478 0ae9 65040000 		.4byte	.LASF162
 1479 0aed 09       		.byte	0x9
 1480 0aee CF       		.byte	0xcf
 1481 0aef FC090000 		.4byte	0x9fc
 1482 0af3 22       		.uleb128 0x22
ARM GAS  C:\Users\PCHAUT~1\AppData\Local\Temp\cceAu0w9.s 			page 27


 1483 0af4 12090000 		.4byte	.LASF170
 1484 0af8 01       		.byte	0x1
 1485 0af9 20       		.byte	0x20
 1486 0afa AA080000 		.4byte	0x8aa
 1487 0afe 00000000 		.4byte	.LFB2
 1488 0b02 40000000 		.4byte	.LFE2-.LFB2
 1489 0b06 01       		.uleb128 0x1
 1490 0b07 9C       		.byte	0x9c
 1491 0b08 440B0000 		.4byte	0xb44
 1492 0b0c 23       		.uleb128 0x23
 1493 0b0d 766D00   		.ascii	"vm\000"
 1494 0b10 01       		.byte	0x1
 1495 0b11 20       		.byte	0x20
 1496 0b12 83090000 		.4byte	0x983
 1497 0b16 02       		.uleb128 0x2
 1498 0b17 91       		.byte	0x91
 1499 0b18 6C       		.sleb128 -20
 1500 0b19 24       		.uleb128 0x24
 1501 0b1a E7000000 		.4byte	.LASF163
 1502 0b1e 01       		.byte	0x1
 1503 0b1f 20       		.byte	0x20
 1504 0b20 440B0000 		.4byte	0xb44
 1505 0b24 02       		.uleb128 0x2
 1506 0b25 91       		.byte	0x91
 1507 0b26 68       		.sleb128 -24
 1508 0b27 24       		.uleb128 0x24
 1509 0b28 8F000000 		.4byte	.LASF164
 1510 0b2c 01       		.byte	0x1
 1511 0b2d 20       		.byte	0x20
 1512 0b2e AA080000 		.4byte	0x8aa
 1513 0b32 02       		.uleb128 0x2
 1514 0b33 91       		.byte	0x91
 1515 0b34 66       		.sleb128 -26
 1516 0b35 24       		.uleb128 0x24
 1517 0b36 09060000 		.4byte	.LASF165
 1518 0b3a 01       		.byte	0x1
 1519 0b3b 20       		.byte	0x20
 1520 0b3c 5C090000 		.4byte	0x95c
 1521 0b40 02       		.uleb128 0x2
 1522 0b41 91       		.byte	0x91
 1523 0b42 60       		.sleb128 -32
 1524 0b43 00       		.byte	0
 1525 0b44 05       		.uleb128 0x5
 1526 0b45 04       		.byte	0x4
 1527 0b46 B5080000 		.4byte	0x8b5
 1528 0b4a 25       		.uleb128 0x25
 1529 0b4b A4080000 		.4byte	.LASF171
 1530 0b4f 01       		.byte	0x1
 1531 0b50 19       		.byte	0x19
 1532 0b51 00000000 		.4byte	.LFB1
 1533 0b55 48000000 		.4byte	.LFE1-.LFB1
 1534 0b59 01       		.uleb128 0x1
 1535 0b5a 9C       		.byte	0x9c
 1536 0b5b 890B0000 		.4byte	0xb89
 1537 0b5f 23       		.uleb128 0x23
 1538 0b60 766D00   		.ascii	"vm\000"
 1539 0b63 01       		.byte	0x1
ARM GAS  C:\Users\PCHAUT~1\AppData\Local\Temp\cceAu0w9.s 			page 28


 1540 0b64 19       		.byte	0x19
 1541 0b65 83090000 		.4byte	0x983
 1542 0b69 02       		.uleb128 0x2
 1543 0b6a 91       		.byte	0x91
 1544 0b6b 6C       		.sleb128 -20
 1545 0b6c 24       		.uleb128 0x24
 1546 0b6d E7000000 		.4byte	.LASF163
 1547 0b71 01       		.byte	0x1
 1548 0b72 19       		.byte	0x19
 1549 0b73 890B0000 		.4byte	0xb89
 1550 0b77 02       		.uleb128 0x2
 1551 0b78 91       		.byte	0x91
 1552 0b79 68       		.sleb128 -24
 1553 0b7a 24       		.uleb128 0x24
 1554 0b7b 7E090000 		.4byte	.LASF166
 1555 0b7f 01       		.byte	0x1
 1556 0b80 19       		.byte	0x19
 1557 0b81 AA080000 		.4byte	0x8aa
 1558 0b85 02       		.uleb128 0x2
 1559 0b86 91       		.byte	0x91
 1560 0b87 66       		.sleb128 -26
 1561 0b88 00       		.byte	0
 1562 0b89 05       		.uleb128 0x5
 1563 0b8a 04       		.byte	0x4
 1564 0b8b C0080000 		.4byte	0x8c0
 1565 0b8f 00       		.byte	0
 1566              		.section	.debug_abbrev,"",%progbits
 1567              	.Ldebug_abbrev0:
 1568 0000 01       		.uleb128 0x1
 1569 0001 11       		.uleb128 0x11
 1570 0002 01       		.byte	0x1
 1571 0003 25       		.uleb128 0x25
 1572 0004 0E       		.uleb128 0xe
 1573 0005 13       		.uleb128 0x13
 1574 0006 0B       		.uleb128 0xb
 1575 0007 03       		.uleb128 0x3
 1576 0008 0E       		.uleb128 0xe
 1577 0009 1B       		.uleb128 0x1b
 1578 000a 0E       		.uleb128 0xe
 1579 000b 55       		.uleb128 0x55
 1580 000c 17       		.uleb128 0x17
 1581 000d 11       		.uleb128 0x11
 1582 000e 01       		.uleb128 0x1
 1583 000f 10       		.uleb128 0x10
 1584 0010 17       		.uleb128 0x17
 1585 0011 00       		.byte	0
 1586 0012 00       		.byte	0
 1587 0013 02       		.uleb128 0x2
 1588 0014 24       		.uleb128 0x24
 1589 0015 00       		.byte	0
 1590 0016 0B       		.uleb128 0xb
 1591 0017 0B       		.uleb128 0xb
 1592 0018 3E       		.uleb128 0x3e
 1593 0019 0B       		.uleb128 0xb
 1594 001a 03       		.uleb128 0x3
 1595 001b 0E       		.uleb128 0xe
 1596 001c 00       		.byte	0
ARM GAS  C:\Users\PCHAUT~1\AppData\Local\Temp\cceAu0w9.s 			page 29


 1597 001d 00       		.byte	0
 1598 001e 03       		.uleb128 0x3
 1599 001f 24       		.uleb128 0x24
 1600 0020 00       		.byte	0
 1601 0021 0B       		.uleb128 0xb
 1602 0022 0B       		.uleb128 0xb
 1603 0023 3E       		.uleb128 0x3e
 1604 0024 0B       		.uleb128 0xb
 1605 0025 03       		.uleb128 0x3
 1606 0026 08       		.uleb128 0x8
 1607 0027 00       		.byte	0
 1608 0028 00       		.byte	0
 1609 0029 04       		.uleb128 0x4
 1610 002a 16       		.uleb128 0x16
 1611 002b 00       		.byte	0
 1612 002c 03       		.uleb128 0x3
 1613 002d 0E       		.uleb128 0xe
 1614 002e 3A       		.uleb128 0x3a
 1615 002f 0B       		.uleb128 0xb
 1616 0030 3B       		.uleb128 0x3b
 1617 0031 0B       		.uleb128 0xb
 1618 0032 49       		.uleb128 0x49
 1619 0033 13       		.uleb128 0x13
 1620 0034 00       		.byte	0
 1621 0035 00       		.byte	0
 1622 0036 05       		.uleb128 0x5
 1623 0037 0F       		.uleb128 0xf
 1624 0038 00       		.byte	0
 1625 0039 0B       		.uleb128 0xb
 1626 003a 0B       		.uleb128 0xb
 1627 003b 49       		.uleb128 0x49
 1628 003c 13       		.uleb128 0x13
 1629 003d 00       		.byte	0
 1630 003e 00       		.byte	0
 1631 003f 06       		.uleb128 0x6
 1632 0040 13       		.uleb128 0x13
 1633 0041 00       		.byte	0
 1634 0042 03       		.uleb128 0x3
 1635 0043 0E       		.uleb128 0xe
 1636 0044 3C       		.uleb128 0x3c
 1637 0045 19       		.uleb128 0x19
 1638 0046 00       		.byte	0
 1639 0047 00       		.byte	0
 1640 0048 07       		.uleb128 0x7
 1641 0049 16       		.uleb128 0x16
 1642 004a 00       		.byte	0
 1643 004b 03       		.uleb128 0x3
 1644 004c 0E       		.uleb128 0xe
 1645 004d 3A       		.uleb128 0x3a
 1646 004e 0B       		.uleb128 0xb
 1647 004f 3B       		.uleb128 0x3b
 1648 0050 05       		.uleb128 0x5
 1649 0051 49       		.uleb128 0x49
 1650 0052 13       		.uleb128 0x13
 1651 0053 00       		.byte	0
 1652 0054 00       		.byte	0
 1653 0055 08       		.uleb128 0x8
ARM GAS  C:\Users\PCHAUT~1\AppData\Local\Temp\cceAu0w9.s 			page 30


 1654 0056 17       		.uleb128 0x17
 1655 0057 01       		.byte	0x1
 1656 0058 0B       		.uleb128 0xb
 1657 0059 0B       		.uleb128 0xb
 1658 005a 3A       		.uleb128 0x3a
 1659 005b 0B       		.uleb128 0xb
 1660 005c 3B       		.uleb128 0x3b
 1661 005d 0B       		.uleb128 0xb
 1662 005e 01       		.uleb128 0x1
 1663 005f 13       		.uleb128 0x13
 1664 0060 00       		.byte	0
 1665 0061 00       		.byte	0
 1666 0062 09       		.uleb128 0x9
 1667 0063 0D       		.uleb128 0xd
 1668 0064 00       		.byte	0
 1669 0065 03       		.uleb128 0x3
 1670 0066 0E       		.uleb128 0xe
 1671 0067 3A       		.uleb128 0x3a
 1672 0068 0B       		.uleb128 0xb
 1673 0069 3B       		.uleb128 0x3b
 1674 006a 0B       		.uleb128 0xb
 1675 006b 49       		.uleb128 0x49
 1676 006c 13       		.uleb128 0x13
 1677 006d 00       		.byte	0
 1678 006e 00       		.byte	0
 1679 006f 0A       		.uleb128 0xa
 1680 0070 01       		.uleb128 0x1
 1681 0071 01       		.byte	0x1
 1682 0072 49       		.uleb128 0x49
 1683 0073 13       		.uleb128 0x13
 1684 0074 01       		.uleb128 0x1
 1685 0075 13       		.uleb128 0x13
 1686 0076 00       		.byte	0
 1687 0077 00       		.byte	0
 1688 0078 0B       		.uleb128 0xb
 1689 0079 21       		.uleb128 0x21
 1690 007a 00       		.byte	0
 1691 007b 49       		.uleb128 0x49
 1692 007c 13       		.uleb128 0x13
 1693 007d 2F       		.uleb128 0x2f
 1694 007e 0B       		.uleb128 0xb
 1695 007f 00       		.byte	0
 1696 0080 00       		.byte	0
 1697 0081 0C       		.uleb128 0xc
 1698 0082 13       		.uleb128 0x13
 1699 0083 01       		.byte	0x1
 1700 0084 0B       		.uleb128 0xb
 1701 0085 0B       		.uleb128 0xb
 1702 0086 3A       		.uleb128 0x3a
 1703 0087 0B       		.uleb128 0xb
 1704 0088 3B       		.uleb128 0x3b
 1705 0089 0B       		.uleb128 0xb
 1706 008a 01       		.uleb128 0x1
 1707 008b 13       		.uleb128 0x13
 1708 008c 00       		.byte	0
 1709 008d 00       		.byte	0
 1710 008e 0D       		.uleb128 0xd
ARM GAS  C:\Users\PCHAUT~1\AppData\Local\Temp\cceAu0w9.s 			page 31


 1711 008f 0D       		.uleb128 0xd
 1712 0090 00       		.byte	0
 1713 0091 03       		.uleb128 0x3
 1714 0092 0E       		.uleb128 0xe
 1715 0093 3A       		.uleb128 0x3a
 1716 0094 0B       		.uleb128 0xb
 1717 0095 3B       		.uleb128 0x3b
 1718 0096 0B       		.uleb128 0xb
 1719 0097 49       		.uleb128 0x49
 1720 0098 13       		.uleb128 0x13
 1721 0099 38       		.uleb128 0x38
 1722 009a 0B       		.uleb128 0xb
 1723 009b 00       		.byte	0
 1724 009c 00       		.byte	0
 1725 009d 0E       		.uleb128 0xe
 1726 009e 0F       		.uleb128 0xf
 1727 009f 00       		.byte	0
 1728 00a0 0B       		.uleb128 0xb
 1729 00a1 0B       		.uleb128 0xb
 1730 00a2 00       		.byte	0
 1731 00a3 00       		.byte	0
 1732 00a4 0F       		.uleb128 0xf
 1733 00a5 26       		.uleb128 0x26
 1734 00a6 00       		.byte	0
 1735 00a7 49       		.uleb128 0x49
 1736 00a8 13       		.uleb128 0x13
 1737 00a9 00       		.byte	0
 1738 00aa 00       		.byte	0
 1739 00ab 10       		.uleb128 0x10
 1740 00ac 13       		.uleb128 0x13
 1741 00ad 01       		.byte	0x1
 1742 00ae 03       		.uleb128 0x3
 1743 00af 0E       		.uleb128 0xe
 1744 00b0 0B       		.uleb128 0xb
 1745 00b1 0B       		.uleb128 0xb
 1746 00b2 3A       		.uleb128 0x3a
 1747 00b3 0B       		.uleb128 0xb
 1748 00b4 3B       		.uleb128 0x3b
 1749 00b5 0B       		.uleb128 0xb
 1750 00b6 01       		.uleb128 0x1
 1751 00b7 13       		.uleb128 0x13
 1752 00b8 00       		.byte	0
 1753 00b9 00       		.byte	0
 1754 00ba 11       		.uleb128 0x11
 1755 00bb 0D       		.uleb128 0xd
 1756 00bc 00       		.byte	0
 1757 00bd 03       		.uleb128 0x3
 1758 00be 08       		.uleb128 0x8
 1759 00bf 3A       		.uleb128 0x3a
 1760 00c0 0B       		.uleb128 0xb
 1761 00c1 3B       		.uleb128 0x3b
 1762 00c2 0B       		.uleb128 0xb
 1763 00c3 49       		.uleb128 0x49
 1764 00c4 13       		.uleb128 0x13
 1765 00c5 38       		.uleb128 0x38
 1766 00c6 0B       		.uleb128 0xb
 1767 00c7 00       		.byte	0
ARM GAS  C:\Users\PCHAUT~1\AppData\Local\Temp\cceAu0w9.s 			page 32


 1768 00c8 00       		.byte	0
 1769 00c9 12       		.uleb128 0x12
 1770 00ca 13       		.uleb128 0x13
 1771 00cb 01       		.byte	0x1
 1772 00cc 03       		.uleb128 0x3
 1773 00cd 0E       		.uleb128 0xe
 1774 00ce 0B       		.uleb128 0xb
 1775 00cf 05       		.uleb128 0x5
 1776 00d0 3A       		.uleb128 0x3a
 1777 00d1 0B       		.uleb128 0xb
 1778 00d2 3B       		.uleb128 0x3b
 1779 00d3 0B       		.uleb128 0xb
 1780 00d4 01       		.uleb128 0x1
 1781 00d5 13       		.uleb128 0x13
 1782 00d6 00       		.byte	0
 1783 00d7 00       		.byte	0
 1784 00d8 13       		.uleb128 0x13
 1785 00d9 0D       		.uleb128 0xd
 1786 00da 00       		.byte	0
 1787 00db 03       		.uleb128 0x3
 1788 00dc 0E       		.uleb128 0xe
 1789 00dd 3A       		.uleb128 0x3a
 1790 00de 0B       		.uleb128 0xb
 1791 00df 3B       		.uleb128 0x3b
 1792 00e0 0B       		.uleb128 0xb
 1793 00e1 49       		.uleb128 0x49
 1794 00e2 13       		.uleb128 0x13
 1795 00e3 38       		.uleb128 0x38
 1796 00e4 05       		.uleb128 0x5
 1797 00e5 00       		.byte	0
 1798 00e6 00       		.byte	0
 1799 00e7 14       		.uleb128 0x14
 1800 00e8 15       		.uleb128 0x15
 1801 00e9 00       		.byte	0
 1802 00ea 27       		.uleb128 0x27
 1803 00eb 19       		.uleb128 0x19
 1804 00ec 00       		.byte	0
 1805 00ed 00       		.byte	0
 1806 00ee 15       		.uleb128 0x15
 1807 00ef 15       		.uleb128 0x15
 1808 00f0 01       		.byte	0x1
 1809 00f1 27       		.uleb128 0x27
 1810 00f2 19       		.uleb128 0x19
 1811 00f3 49       		.uleb128 0x49
 1812 00f4 13       		.uleb128 0x13
 1813 00f5 01       		.uleb128 0x1
 1814 00f6 13       		.uleb128 0x13
 1815 00f7 00       		.byte	0
 1816 00f8 00       		.byte	0
 1817 00f9 16       		.uleb128 0x16
 1818 00fa 05       		.uleb128 0x5
 1819 00fb 00       		.byte	0
 1820 00fc 49       		.uleb128 0x49
 1821 00fd 13       		.uleb128 0x13
 1822 00fe 00       		.byte	0
 1823 00ff 00       		.byte	0
 1824 0100 17       		.uleb128 0x17
ARM GAS  C:\Users\PCHAUT~1\AppData\Local\Temp\cceAu0w9.s 			page 33


 1825 0101 13       		.uleb128 0x13
 1826 0102 01       		.byte	0x1
 1827 0103 03       		.uleb128 0x3
 1828 0104 0E       		.uleb128 0xe
 1829 0105 0B       		.uleb128 0xb
 1830 0106 05       		.uleb128 0x5
 1831 0107 3A       		.uleb128 0x3a
 1832 0108 0B       		.uleb128 0xb
 1833 0109 3B       		.uleb128 0x3b
 1834 010a 05       		.uleb128 0x5
 1835 010b 01       		.uleb128 0x1
 1836 010c 13       		.uleb128 0x13
 1837 010d 00       		.byte	0
 1838 010e 00       		.byte	0
 1839 010f 18       		.uleb128 0x18
 1840 0110 0D       		.uleb128 0xd
 1841 0111 00       		.byte	0
 1842 0112 03       		.uleb128 0x3
 1843 0113 0E       		.uleb128 0xe
 1844 0114 3A       		.uleb128 0x3a
 1845 0115 0B       		.uleb128 0xb
 1846 0116 3B       		.uleb128 0x3b
 1847 0117 05       		.uleb128 0x5
 1848 0118 49       		.uleb128 0x49
 1849 0119 13       		.uleb128 0x13
 1850 011a 38       		.uleb128 0x38
 1851 011b 0B       		.uleb128 0xb
 1852 011c 00       		.byte	0
 1853 011d 00       		.byte	0
 1854 011e 19       		.uleb128 0x19
 1855 011f 0D       		.uleb128 0xd
 1856 0120 00       		.byte	0
 1857 0121 03       		.uleb128 0x3
 1858 0122 0E       		.uleb128 0xe
 1859 0123 3A       		.uleb128 0x3a
 1860 0124 0B       		.uleb128 0xb
 1861 0125 3B       		.uleb128 0x3b
 1862 0126 05       		.uleb128 0x5
 1863 0127 49       		.uleb128 0x49
 1864 0128 13       		.uleb128 0x13
 1865 0129 38       		.uleb128 0x38
 1866 012a 05       		.uleb128 0x5
 1867 012b 00       		.byte	0
 1868 012c 00       		.byte	0
 1869 012d 1A       		.uleb128 0x1a
 1870 012e 13       		.uleb128 0x13
 1871 012f 01       		.byte	0x1
 1872 0130 03       		.uleb128 0x3
 1873 0131 0E       		.uleb128 0xe
 1874 0132 0B       		.uleb128 0xb
 1875 0133 0B       		.uleb128 0xb
 1876 0134 3A       		.uleb128 0x3a
 1877 0135 0B       		.uleb128 0xb
 1878 0136 3B       		.uleb128 0x3b
 1879 0137 05       		.uleb128 0x5
 1880 0138 01       		.uleb128 0x1
 1881 0139 13       		.uleb128 0x13
ARM GAS  C:\Users\PCHAUT~1\AppData\Local\Temp\cceAu0w9.s 			page 34


 1882 013a 00       		.byte	0
 1883 013b 00       		.byte	0
 1884 013c 1B       		.uleb128 0x1b
 1885 013d 13       		.uleb128 0x13
 1886 013e 01       		.byte	0x1
 1887 013f 0B       		.uleb128 0xb
 1888 0140 0B       		.uleb128 0xb
 1889 0141 3A       		.uleb128 0x3a
 1890 0142 0B       		.uleb128 0xb
 1891 0143 3B       		.uleb128 0x3b
 1892 0144 05       		.uleb128 0x5
 1893 0145 01       		.uleb128 0x1
 1894 0146 13       		.uleb128 0x13
 1895 0147 00       		.byte	0
 1896 0148 00       		.byte	0
 1897 0149 1C       		.uleb128 0x1c
 1898 014a 17       		.uleb128 0x17
 1899 014b 01       		.byte	0x1
 1900 014c 0B       		.uleb128 0xb
 1901 014d 0B       		.uleb128 0xb
 1902 014e 3A       		.uleb128 0x3a
 1903 014f 0B       		.uleb128 0xb
 1904 0150 3B       		.uleb128 0x3b
 1905 0151 05       		.uleb128 0x5
 1906 0152 01       		.uleb128 0x1
 1907 0153 13       		.uleb128 0x13
 1908 0154 00       		.byte	0
 1909 0155 00       		.byte	0
 1910 0156 1D       		.uleb128 0x1d
 1911 0157 0D       		.uleb128 0xd
 1912 0158 00       		.byte	0
 1913 0159 03       		.uleb128 0x3
 1914 015a 0E       		.uleb128 0xe
 1915 015b 3A       		.uleb128 0x3a
 1916 015c 0B       		.uleb128 0xb
 1917 015d 3B       		.uleb128 0x3b
 1918 015e 05       		.uleb128 0x5
 1919 015f 49       		.uleb128 0x49
 1920 0160 13       		.uleb128 0x13
 1921 0161 00       		.byte	0
 1922 0162 00       		.byte	0
 1923 0163 1E       		.uleb128 0x1e
 1924 0164 15       		.uleb128 0x15
 1925 0165 01       		.byte	0x1
 1926 0166 27       		.uleb128 0x27
 1927 0167 19       		.uleb128 0x19
 1928 0168 01       		.uleb128 0x1
 1929 0169 13       		.uleb128 0x13
 1930 016a 00       		.byte	0
 1931 016b 00       		.byte	0
 1932 016c 1F       		.uleb128 0x1f
 1933 016d 34       		.uleb128 0x34
 1934 016e 00       		.byte	0
 1935 016f 03       		.uleb128 0x3
 1936 0170 0E       		.uleb128 0xe
 1937 0171 3A       		.uleb128 0x3a
 1938 0172 0B       		.uleb128 0xb
ARM GAS  C:\Users\PCHAUT~1\AppData\Local\Temp\cceAu0w9.s 			page 35


 1939 0173 3B       		.uleb128 0x3b
 1940 0174 05       		.uleb128 0x5
 1941 0175 49       		.uleb128 0x49
 1942 0176 13       		.uleb128 0x13
 1943 0177 3F       		.uleb128 0x3f
 1944 0178 19       		.uleb128 0x19
 1945 0179 3C       		.uleb128 0x3c
 1946 017a 19       		.uleb128 0x19
 1947 017b 00       		.byte	0
 1948 017c 00       		.byte	0
 1949 017d 20       		.uleb128 0x20
 1950 017e 34       		.uleb128 0x34
 1951 017f 00       		.byte	0
 1952 0180 03       		.uleb128 0x3
 1953 0181 0E       		.uleb128 0xe
 1954 0182 3A       		.uleb128 0x3a
 1955 0183 0B       		.uleb128 0xb
 1956 0184 3B       		.uleb128 0x3b
 1957 0185 0B       		.uleb128 0xb
 1958 0186 49       		.uleb128 0x49
 1959 0187 13       		.uleb128 0x13
 1960 0188 3F       		.uleb128 0x3f
 1961 0189 19       		.uleb128 0x19
 1962 018a 3C       		.uleb128 0x3c
 1963 018b 19       		.uleb128 0x19
 1964 018c 00       		.byte	0
 1965 018d 00       		.byte	0
 1966 018e 21       		.uleb128 0x21
 1967 018f 21       		.uleb128 0x21
 1968 0190 00       		.byte	0
 1969 0191 49       		.uleb128 0x49
 1970 0192 13       		.uleb128 0x13
 1971 0193 00       		.byte	0
 1972 0194 00       		.byte	0
 1973 0195 22       		.uleb128 0x22
 1974 0196 2E       		.uleb128 0x2e
 1975 0197 01       		.byte	0x1
 1976 0198 3F       		.uleb128 0x3f
 1977 0199 19       		.uleb128 0x19
 1978 019a 03       		.uleb128 0x3
 1979 019b 0E       		.uleb128 0xe
 1980 019c 3A       		.uleb128 0x3a
 1981 019d 0B       		.uleb128 0xb
 1982 019e 3B       		.uleb128 0x3b
 1983 019f 0B       		.uleb128 0xb
 1984 01a0 27       		.uleb128 0x27
 1985 01a1 19       		.uleb128 0x19
 1986 01a2 49       		.uleb128 0x49
 1987 01a3 13       		.uleb128 0x13
 1988 01a4 11       		.uleb128 0x11
 1989 01a5 01       		.uleb128 0x1
 1990 01a6 12       		.uleb128 0x12
 1991 01a7 06       		.uleb128 0x6
 1992 01a8 40       		.uleb128 0x40
 1993 01a9 18       		.uleb128 0x18
 1994 01aa 9642     		.uleb128 0x2116
 1995 01ac 19       		.uleb128 0x19
ARM GAS  C:\Users\PCHAUT~1\AppData\Local\Temp\cceAu0w9.s 			page 36


 1996 01ad 01       		.uleb128 0x1
 1997 01ae 13       		.uleb128 0x13
 1998 01af 00       		.byte	0
 1999 01b0 00       		.byte	0
 2000 01b1 23       		.uleb128 0x23
 2001 01b2 05       		.uleb128 0x5
 2002 01b3 00       		.byte	0
 2003 01b4 03       		.uleb128 0x3
 2004 01b5 08       		.uleb128 0x8
 2005 01b6 3A       		.uleb128 0x3a
 2006 01b7 0B       		.uleb128 0xb
 2007 01b8 3B       		.uleb128 0x3b
 2008 01b9 0B       		.uleb128 0xb
 2009 01ba 49       		.uleb128 0x49
 2010 01bb 13       		.uleb128 0x13
 2011 01bc 02       		.uleb128 0x2
 2012 01bd 18       		.uleb128 0x18
 2013 01be 00       		.byte	0
 2014 01bf 00       		.byte	0
 2015 01c0 24       		.uleb128 0x24
 2016 01c1 05       		.uleb128 0x5
 2017 01c2 00       		.byte	0
 2018 01c3 03       		.uleb128 0x3
 2019 01c4 0E       		.uleb128 0xe
 2020 01c5 3A       		.uleb128 0x3a
 2021 01c6 0B       		.uleb128 0xb
 2022 01c7 3B       		.uleb128 0x3b
 2023 01c8 0B       		.uleb128 0xb
 2024 01c9 49       		.uleb128 0x49
 2025 01ca 13       		.uleb128 0x13
 2026 01cb 02       		.uleb128 0x2
 2027 01cc 18       		.uleb128 0x18
 2028 01cd 00       		.byte	0
 2029 01ce 00       		.byte	0
 2030 01cf 25       		.uleb128 0x25
 2031 01d0 2E       		.uleb128 0x2e
 2032 01d1 01       		.byte	0x1
 2033 01d2 3F       		.uleb128 0x3f
 2034 01d3 19       		.uleb128 0x19
 2035 01d4 03       		.uleb128 0x3
 2036 01d5 0E       		.uleb128 0xe
 2037 01d6 3A       		.uleb128 0x3a
 2038 01d7 0B       		.uleb128 0xb
 2039 01d8 3B       		.uleb128 0x3b
 2040 01d9 0B       		.uleb128 0xb
 2041 01da 27       		.uleb128 0x27
 2042 01db 19       		.uleb128 0x19
 2043 01dc 11       		.uleb128 0x11
 2044 01dd 01       		.uleb128 0x1
 2045 01de 12       		.uleb128 0x12
 2046 01df 06       		.uleb128 0x6
 2047 01e0 40       		.uleb128 0x40
 2048 01e1 18       		.uleb128 0x18
 2049 01e2 9642     		.uleb128 0x2116
 2050 01e4 19       		.uleb128 0x19
 2051 01e5 01       		.uleb128 0x1
 2052 01e6 13       		.uleb128 0x13
ARM GAS  C:\Users\PCHAUT~1\AppData\Local\Temp\cceAu0w9.s 			page 37


 2053 01e7 00       		.byte	0
 2054 01e8 00       		.byte	0
 2055 01e9 00       		.byte	0
 2056              		.section	.debug_aranges,"",%progbits
 2057 0000 24000000 		.4byte	0x24
 2058 0004 0200     		.2byte	0x2
 2059 0006 00000000 		.4byte	.Ldebug_info0
 2060 000a 04       		.byte	0x4
 2061 000b 00       		.byte	0
 2062 000c 0000     		.2byte	0
 2063 000e 0000     		.2byte	0
 2064 0010 00000000 		.4byte	.LFB1
 2065 0014 48000000 		.4byte	.LFE1-.LFB1
 2066 0018 00000000 		.4byte	.LFB2
 2067 001c 40000000 		.4byte	.LFE2-.LFB2
 2068 0020 00000000 		.4byte	0
 2069 0024 00000000 		.4byte	0
 2070              		.section	.debug_ranges,"",%progbits
 2071              	.Ldebug_ranges0:
 2072 0000 00000000 		.4byte	.LFB1
 2073 0004 48000000 		.4byte	.LFE1
 2074 0008 00000000 		.4byte	.LFB2
 2075 000c 40000000 		.4byte	.LFE2
 2076 0010 00000000 		.4byte	0
 2077 0014 00000000 		.4byte	0
 2078              		.section	.debug_line,"",%progbits
 2079              	.Ldebug_line0:
 2080 0000 F1020000 		.section	.debug_str,"MS",%progbits,1
 2080      0200C502 
 2080      00000201 
 2080      FB0E0D00 
 2080      01010101 
 2081              	.LASF39:
 2082 0000 5F64736F 		.ascii	"_dso_handle\000"
 2082      5F68616E 
 2082      646C6500 
 2083              	.LASF126:
 2084 000c 62797465 		.ascii	"bytecodeSize\000"
 2084      636F6465 
 2084      53697A65 
 2084      00
 2085              	.LASF123:
 2086 0019 75696E74 		.ascii	"uint16\000"
 2086      313600
 2087              	.LASF47:
 2088 0020 5F73697A 		.ascii	"_size\000"
 2088      6500
 2089              	.LASF138:
 2090 0026 41736562 		.ascii	"AsebaNativeFunctionArgumentDescription\000"
 2090      614E6174 
 2090      69766546 
 2090      756E6374 
 2090      696F6E41 
 2091              	.LASF129:
 2092 004d 76617269 		.ascii	"variables\000"
 2092      61626C65 
 2092      7300
ARM GAS  C:\Users\PCHAUT~1\AppData\Local\Temp\cceAu0w9.s 			page 38


 2093              	.LASF91:
 2094 0057 5F72616E 		.ascii	"_rand48\000"
 2094      64343800 
 2095              	.LASF71:
 2096 005f 5F656D65 		.ascii	"_emergency\000"
 2096      7267656E 
 2096      637900
 2097              	.LASF152:
 2098 006a 41736562 		.ascii	"AsebaNativeDescription_vecstat\000"
 2098      614E6174 
 2098      69766544 
 2098      65736372 
 2098      69707469 
 2099              	.LASF61:
 2100 0089 5F646174 		.ascii	"_data\000"
 2100      6100
 2101              	.LASF164:
 2102 008f 6D61784C 		.ascii	"maxLength\000"
 2102      656E6774 
 2102      6800
 2103              	.LASF111:
 2104 0099 5F776372 		.ascii	"_wcrtomb_state\000"
 2104      746F6D62 
 2104      5F737461 
 2104      746500
 2105              	.LASF112:
 2106 00a8 5F776373 		.ascii	"_wcsrtombs_state\000"
 2106      72746F6D 
 2106      62735F73 
 2106      74617465 
 2106      00
 2107              	.LASF128:
 2108 00b9 76617269 		.ascii	"variablesSize\000"
 2108      61626C65 
 2108      7353697A 
 2108      6500
 2109              	.LASF9:
 2110 00c7 6C6F6E67 		.ascii	"long long unsigned int\000"
 2110      206C6F6E 
 2110      6720756E 
 2110      7369676E 
 2110      65642069 
 2111              	.LASF51:
 2112 00de 5F6C6266 		.ascii	"_lbfsize\000"
 2112      73697A65 
 2112      00
 2113              	.LASF163:
 2114 00e7 64617461 		.ascii	"data\000"
 2114      00
 2115              	.LASF118:
 2116 00ec 5F5F6C6F 		.ascii	"__locale_t\000"
 2116      63616C65 
 2116      5F7400
 2117              	.LASF161:
 2118 00f7 41736562 		.ascii	"AsebaNativeDescription_vecnonzerosequence\000"
 2118      614E6174 
 2118      69766544 
ARM GAS  C:\Users\PCHAUT~1\AppData\Local\Temp\cceAu0w9.s 			page 39


 2118      65736372 
 2118      69707469 
 2119              	.LASF109:
 2120 0121 5F6D6272 		.ascii	"_mbrtowc_state\000"
 2120      746F7763 
 2120      5F737461 
 2120      746500
 2121              	.LASF158:
 2122 0130 41736562 		.ascii	"AsebaNativeDescription_mathcos\000"
 2122      614E6174 
 2122      69766544 
 2122      65736372 
 2122      69707469 
 2123              	.LASF28:
 2124 014f 5F5F746D 		.ascii	"__tm_sec\000"
 2124      5F736563 
 2124      00
 2125              	.LASF143:
 2126 0158 41736562 		.ascii	"AsebaNativeDescription_vecaddscalar\000"
 2126      614E6174 
 2126      69766544 
 2126      65736372 
 2126      69707469 
 2127              	.LASF1:
 2128 017c 6C6F6E67 		.ascii	"long long int\000"
 2128      206C6F6E 
 2128      6720696E 
 2128      7400
 2129              	.LASF3:
 2130 018a 7369676E 		.ascii	"signed char\000"
 2130      65642063 
 2130      68617200 
 2131              	.LASF57:
 2132 0196 5F756275 		.ascii	"_ubuf\000"
 2132      6600
 2133              	.LASF46:
 2134 019c 5F626173 		.ascii	"_base\000"
 2134      6500
 2135              	.LASF30:
 2136 01a2 5F5F746D 		.ascii	"__tm_hour\000"
 2136      5F686F75 
 2136      7200
 2137              	.LASF86:
 2138 01ac 5F5F7366 		.ascii	"__sf\000"
 2138      00
 2139              	.LASF37:
 2140 01b1 5F6F6E5F 		.ascii	"_on_exit_args\000"
 2140      65786974 
 2140      5F617267 
 2140      7300
 2141              	.LASF52:
 2142 01bf 5F636F6F 		.ascii	"_cookie\000"
 2142      6B696500 
 2143              	.LASF154:
 2144 01c7 41736562 		.ascii	"AsebaNativeDescription_vecsort\000"
 2144      614E6174 
 2144      69766544 
ARM GAS  C:\Users\PCHAUT~1\AppData\Local\Temp\cceAu0w9.s 			page 40


 2144      65736372 
 2144      69707469 
 2145              	.LASF85:
 2146 01e6 5F5F7367 		.ascii	"__sglue\000"
 2146      6C756500 
 2147              	.LASF7:
 2148 01ee 6C6F6E67 		.ascii	"long int\000"
 2148      20696E74 
 2148      00
 2149              	.LASF167:
 2150 01f7 474E5520 		.ascii	"GNU C11 7.2.1 20170904 (release) [ARM/embedded-7-br"
 2150      43313120 
 2150      372E322E 
 2150      31203230 
 2150      31373039 
 2151 022a 616E6368 		.ascii	"anch revision 255204] -mcpu=cortex-m4 -mfloat-abi=h"
 2151      20726576 
 2151      6973696F 
 2151      6E203235 
 2151      35323034 
 2152 025d 61726420 		.ascii	"ard -mfpu=fpv4-sp-d16 -mno-thumb-interwork -mthumb "
 2152      2D6D6670 
 2152      753D6670 
 2152      76342D73 
 2152      702D6431 
 2153 0290 2D676764 		.ascii	"-ggdb -O0 -fomit-frame-pointer -falign-functions=16"
 2153      62202D4F 
 2153      30202D66 
 2153      6F6D6974 
 2153      2D667261 
 2154 02c3 202D666E 		.ascii	" -fno-strict-aliasing -fstack-protector-all -ffunct"
 2154      6F2D7374 
 2154      72696374 
 2154      2D616C69 
 2154      6173696E 
 2155 02f6 696F6E2D 		.ascii	"ion-sections -fdata-sections -fno-common -fsingle-p"
 2155      73656374 
 2155      696F6E73 
 2155      202D6664 
 2155      6174612D 
 2156 0329 72656369 		.ascii	"recision-constant\000"
 2156      73696F6E 
 2156      2D636F6E 
 2156      7374616E 
 2156      7400
 2157              	.LASF49:
 2158 033b 5F666C61 		.ascii	"_flags\000"
 2158      677300
 2159              	.LASF41:
 2160 0342 5F69735F 		.ascii	"_is_cxa\000"
 2160      63786100 
 2161              	.LASF67:
 2162 034a 5F737464 		.ascii	"_stdin\000"
 2162      696E00
 2163              	.LASF59:
 2164 0351 5F626C6B 		.ascii	"_blksize\000"
 2164      73697A65 
ARM GAS  C:\Users\PCHAUT~1\AppData\Local\Temp\cceAu0w9.s 			page 41


 2164      00
 2165              	.LASF124:
 2166 035a 75696E74 		.ascii	"uint8\000"
 2166      3800
 2167              	.LASF151:
 2168 0360 41736562 		.ascii	"AsebaNativeDescription_vecdot\000"
 2168      614E6174 
 2168      69766544 
 2168      65736372 
 2168      69707469 
 2169              	.LASF150:
 2170 037e 41736562 		.ascii	"AsebaNativeDescription_vecclamp\000"
 2170      614E6174 
 2170      69766544 
 2170      65736372 
 2170      69707469 
 2171              	.LASF81:
 2172 039e 5F637674 		.ascii	"_cvtbuf\000"
 2172      62756600 
 2173              	.LASF60:
 2174 03a6 5F6F6666 		.ascii	"_offset\000"
 2174      73657400 
 2175              	.LASF110:
 2176 03ae 5F6D6273 		.ascii	"_mbsrtowcs_state\000"
 2176      72746F77 
 2176      63735F73 
 2176      74617465 
 2176      00
 2177              	.LASF108:
 2178 03bf 5F6D6272 		.ascii	"_mbrlen_state\000"
 2178      6C656E5F 
 2178      73746174 
 2178      6500
 2179              	.LASF38:
 2180 03cd 5F666E61 		.ascii	"_fnargs\000"
 2180      72677300 
 2181              	.LASF133:
 2182 03d5 62726561 		.ascii	"breakpoints\000"
 2182      6B706F69 
 2182      6E747300 
 2183              	.LASF145:
 2184 03e1 41736562 		.ascii	"AsebaNativeDescription_vecsub\000"
 2184      614E6174 
 2184      69766544 
 2184      65736372 
 2184      69707469 
 2185              	.LASF44:
 2186 03ff 5F666E73 		.ascii	"_fns\000"
 2186      00
 2187              	.LASF24:
 2188 0404 5F736967 		.ascii	"_sign\000"
 2188      6E00
 2189              	.LASF144:
 2190 040a 41736562 		.ascii	"AsebaNativeDescription_vecadd\000"
 2190      614E6174 
 2190      69766544 
 2190      65736372 
ARM GAS  C:\Users\PCHAUT~1\AppData\Local\Temp\cceAu0w9.s 			page 42


 2190      69707469 
 2191              	.LASF19:
 2192 0428 5F666C6F 		.ascii	"_flock_t\000"
 2192      636B5F74 
 2192      00
 2193              	.LASF69:
 2194 0431 5F737464 		.ascii	"_stderr\000"
 2194      65727200 
 2195              	.LASF26:
 2196 0439 5F426967 		.ascii	"_Bigint\000"
 2196      696E7400 
 2197              	.LASF99:
 2198 0441 5F67616D 		.ascii	"_gamma_signgam\000"
 2198      6D615F73 
 2198      69676E67 
 2198      616D00
 2199              	.LASF53:
 2200 0450 5F726561 		.ascii	"_read\000"
 2200      6400
 2201              	.LASF77:
 2202 0456 5F726573 		.ascii	"_result_k\000"
 2202      756C745F 
 2202      6B00
 2203              	.LASF27:
 2204 0460 5F5F746D 		.ascii	"__tm\000"
 2204      00
 2205              	.LASF162:
 2206 0465 41736562 		.ascii	"AsebaNativeDescription_rand\000"
 2206      614E6174 
 2206      69766544 
 2206      65736372 
 2206      69707469 
 2207              	.LASF0:
 2208 0481 756E7369 		.ascii	"unsigned int\000"
 2208      676E6564 
 2208      20696E74 
 2208      00
 2209              	.LASF15:
 2210 048e 5F5F7763 		.ascii	"__wchb\000"
 2210      686200
 2211              	.LASF68:
 2212 0495 5F737464 		.ascii	"_stdout\000"
 2212      6F757400 
 2213              	.LASF80:
 2214 049d 5F637674 		.ascii	"_cvtlen\000"
 2214      6C656E00 
 2215              	.LASF8:
 2216 04a5 6C6F6E67 		.ascii	"long unsigned int\000"
 2216      20756E73 
 2216      69676E65 
 2216      6420696E 
 2216      7400
 2217              	.LASF50:
 2218 04b7 5F66696C 		.ascii	"_file\000"
 2218      6500
 2219              	.LASF160:
 2220 04bd 41736562 		.ascii	"AsebaNativeDescription_mathsqrt\000"
ARM GAS  C:\Users\PCHAUT~1\AppData\Local\Temp\cceAu0w9.s 			page 43


 2220      614E6174 
 2220      69766544 
 2220      65736372 
 2220      69707469 
 2221              	.LASF137:
 2222 04dd 6E616D65 		.ascii	"name\000"
 2222      00
 2223              	.LASF146:
 2224 04e2 41736562 		.ascii	"AsebaNativeDescription_vecmul\000"
 2224      614E6174 
 2224      69766544 
 2224      65736372 
 2224      69707469 
 2225              	.LASF89:
 2226 0500 5F6E696F 		.ascii	"_niobs\000"
 2226      627300
 2227              	.LASF125:
 2228 0507 6E6F6465 		.ascii	"nodeId\000"
 2228      496400
 2229              	.LASF136:
 2230 050e 73697A65 		.ascii	"size\000"
 2230      00
 2231              	.LASF6:
 2232 0513 73686F72 		.ascii	"short unsigned int\000"
 2232      7420756E 
 2232      7369676E 
 2232      65642069 
 2232      6E7400
 2233              	.LASF139:
 2234 0526 61726775 		.ascii	"arguments\000"
 2234      6D656E74 
 2234      7300
 2235              	.LASF83:
 2236 0530 5F617465 		.ascii	"_atexit0\000"
 2236      78697430 
 2236      00
 2237              	.LASF106:
 2238 0539 5F736967 		.ascii	"_signal_buf\000"
 2238      6E616C5F 
 2238      62756600 
 2239              	.LASF97:
 2240 0545 5F617363 		.ascii	"_asctime_buf\000"
 2240      74696D65 
 2240      5F627566 
 2240      00
 2241              	.LASF76:
 2242 0552 5F726573 		.ascii	"_result\000"
 2242      756C7400 
 2243              	.LASF14:
 2244 055a 5F5F7763 		.ascii	"__wch\000"
 2244      6800
 2245              	.LASF10:
 2246 0560 5F4C4F43 		.ascii	"_LOCK_T\000"
 2246      4B5F5400 
 2247              	.LASF13:
 2248 0568 77696E74 		.ascii	"wint_t\000"
 2248      5F7400
ARM GAS  C:\Users\PCHAUT~1\AppData\Local\Temp\cceAu0w9.s 			page 44


 2249              	.LASF62:
 2250 056f 5F6C6F63 		.ascii	"_lock\000"
 2250      6B00
 2251              	.LASF157:
 2252 0575 41736562 		.ascii	"AsebaNativeDescription_mathsin\000"
 2252      614E6174 
 2252      69766544 
 2252      65736372 
 2252      69707469 
 2253              	.LASF147:
 2254 0594 41736562 		.ascii	"AsebaNativeDescription_vecdiv\000"
 2254      614E6174 
 2254      69766544 
 2254      65736372 
 2254      69707469 
 2255              	.LASF64:
 2256 05b2 5F666C61 		.ascii	"_flags2\000"
 2256      67733200 
 2257              	.LASF127:
 2258 05ba 62797465 		.ascii	"bytecode\000"
 2258      636F6465 
 2258      00
 2259              	.LASF122:
 2260 05c3 73696E74 		.ascii	"sint16\000"
 2260      313600
 2261              	.LASF156:
 2262 05ca 41736562 		.ascii	"AsebaNativeDescription_mathatan2\000"
 2262      614E6174 
 2262      69766544 
 2262      65736372 
 2262      69707469 
 2263              	.LASF54:
 2264 05eb 5F777269 		.ascii	"_write\000"
 2264      746500
 2265              	.LASF33:
 2266 05f2 5F5F746D 		.ascii	"__tm_year\000"
 2266      5F796561 
 2266      7200
 2267              	.LASF135:
 2268 05fc 41736562 		.ascii	"AsebaVMState\000"
 2268      61564D53 
 2268      74617465 
 2268      00
 2269              	.LASF165:
 2270 0609 736F7572 		.ascii	"source\000"
 2270      636500
 2271              	.LASF2:
 2272 0610 6C6F6E67 		.ascii	"long double\000"
 2272      20646F75 
 2272      626C6500 
 2273              	.LASF114:
 2274 061c 5F6E6578 		.ascii	"_nextf\000"
 2274      746600
 2275              	.LASF168:
 2276 0623 2E2E2F6C 		.ascii	"../lib/e-puck2_main-processor/aseba/transport/can/c"
 2276      69622F65 
 2276      2D707563 
ARM GAS  C:\Users\PCHAUT~1\AppData\Local\Temp\cceAu0w9.s 			page 45


 2276      6B325F6D 
 2276      61696E2D 
 2277 0656 616E2D62 		.ascii	"an-buffer.c\000"
 2277      75666665 
 2277      722E6300 
 2278              	.LASF32:
 2279 0662 5F5F746D 		.ascii	"__tm_mon\000"
 2279      5F6D6F6E 
 2279      00
 2280              	.LASF42:
 2281 066b 5F617465 		.ascii	"_atexit\000"
 2281      78697400 
 2282              	.LASF121:
 2283 0673 7375626F 		.ascii	"suboptarg\000"
 2283      70746172 
 2283      6700
 2284              	.LASF74:
 2285 067d 5F5F7364 		.ascii	"__sdidinit\000"
 2285      6964696E 
 2285      697400
 2286              	.LASF11:
 2287 0688 5F6F6666 		.ascii	"_off_t\000"
 2287      5F7400
 2288              	.LASF79:
 2289 068f 5F667265 		.ascii	"_freelist\000"
 2289      656C6973 
 2289      7400
 2290              	.LASF104:
 2291 0699 5F776374 		.ascii	"_wctomb_state\000"
 2291      6F6D625F 
 2291      73746174 
 2291      6500
 2292              	.LASF134:
 2293 06a7 62726561 		.ascii	"breakpointsCount\000"
 2293      6B706F69 
 2293      6E747343 
 2293      6F756E74 
 2293      00
 2294              	.LASF4:
 2295 06b8 756E7369 		.ascii	"unsigned char\000"
 2295      676E6564 
 2295      20636861 
 2295      7200
 2296              	.LASF82:
 2297 06c6 5F6E6577 		.ascii	"_new\000"
 2297      00
 2298              	.LASF113:
 2299 06cb 5F685F65 		.ascii	"_h_errno\000"
 2299      72726E6F 
 2299      00
 2300              	.LASF5:
 2301 06d4 73686F72 		.ascii	"short int\000"
 2301      7420696E 
 2301      7400
 2302              	.LASF35:
 2303 06de 5F5F746D 		.ascii	"__tm_yday\000"
 2303      5F796461 
ARM GAS  C:\Users\PCHAUT~1\AppData\Local\Temp\cceAu0w9.s 			page 46


 2303      7900
 2304              	.LASF45:
 2305 06e8 5F5F7362 		.ascii	"__sbuf\000"
 2305      756600
 2306              	.LASF90:
 2307 06ef 5F696F62 		.ascii	"_iobs\000"
 2307      7300
 2308              	.LASF87:
 2309 06f5 5F5F4649 		.ascii	"__FILE\000"
 2309      4C4500
 2310              	.LASF18:
 2311 06fc 5F6D6273 		.ascii	"_mbstate_t\000"
 2311      74617465 
 2311      5F7400
 2312              	.LASF48:
 2313 0707 5F5F7346 		.ascii	"__sFILE\000"
 2313      494C4500 
 2314              	.LASF63:
 2315 070f 5F6D6273 		.ascii	"_mbstate\000"
 2315      74617465 
 2315      00
 2316              	.LASF100:
 2317 0718 5F72616E 		.ascii	"_rand_next\000"
 2317      645F6E65 
 2317      787400
 2318              	.LASF141:
 2319 0723 41736562 		.ascii	"AsebaNativeDescription_veccopy\000"
 2319      614E6174 
 2319      69766544 
 2319      65736372 
 2319      69707469 
 2320              	.LASF102:
 2321 0742 5F6D626C 		.ascii	"_mblen_state\000"
 2321      656E5F73 
 2321      74617465 
 2321      00
 2322              	.LASF70:
 2323 074f 5F696E63 		.ascii	"_inc\000"
 2323      00
 2324              	.LASF43:
 2325 0754 5F696E64 		.ascii	"_ind\000"
 2325      00
 2326              	.LASF169:
 2327 0759 433A5C55 		.ascii	"C:\\Users\\Pchautems\\Documents\\RobotiqueTP\\Proje"
 2327      73657273 
 2327      5C506368 
 2327      61757465 
 2327      6D735C44 
 2328 0787 745C6D69 		.ascii	"t\\miniprojet\000"
 2328      6E697072 
 2328      6F6A6574 
 2328      00
 2329              	.LASF73:
 2330 0794 5F6C6F63 		.ascii	"_locale\000"
 2330      616C6500 
 2331              	.LASF75:
 2332 079c 5F5F636C 		.ascii	"__cleanup\000"
ARM GAS  C:\Users\PCHAUT~1\AppData\Local\Temp\cceAu0w9.s 			page 47


 2332      65616E75 
 2332      7000
 2333              	.LASF72:
 2334 07a6 5F756E73 		.ascii	"_unspecified_locale_info\000"
 2334      70656369 
 2334      66696564 
 2334      5F6C6F63 
 2334      616C655F 
 2335              	.LASF23:
 2336 07bf 5F6D6178 		.ascii	"_maxwds\000"
 2336      77647300 
 2337              	.LASF65:
 2338 07c7 5F726565 		.ascii	"_reent\000"
 2338      6E7400
 2339              	.LASF92:
 2340 07ce 5F736565 		.ascii	"_seed\000"
 2340      6400
 2341              	.LASF16:
 2342 07d4 5F5F636F 		.ascii	"__count\000"
 2342      756E7400 
 2343              	.LASF117:
 2344 07dc 5F5F6C6F 		.ascii	"__lock\000"
 2344      636B00
 2345              	.LASF17:
 2346 07e3 5F5F7661 		.ascii	"__value\000"
 2346      6C756500 
 2347              	.LASF155:
 2348 07eb 41736562 		.ascii	"AsebaNativeDescription_mathmuldiv\000"
 2348      614E6174 
 2348      69766544 
 2348      65736372 
 2348      69707469 
 2349              	.LASF55:
 2350 080d 5F736565 		.ascii	"_seek\000"
 2350      6B00
 2351              	.LASF119:
 2352 0813 5F696D70 		.ascii	"_impure_ptr\000"
 2352      7572655F 
 2352      70747200 
 2353              	.LASF12:
 2354 081f 5F66706F 		.ascii	"_fpos_t\000"
 2354      735F7400 
 2355              	.LASF66:
 2356 0827 5F657272 		.ascii	"_errno\000"
 2356      6E6F00
 2357              	.LASF20:
 2358 082e 63686172 		.ascii	"char\000"
 2358      00
 2359              	.LASF149:
 2360 0833 41736562 		.ascii	"AsebaNativeDescription_vecmax\000"
 2360      614E6174 
 2360      69766544 
 2360      65736372 
 2360      69707469 
 2361              	.LASF29:
 2362 0851 5F5F746D 		.ascii	"__tm_min\000"
 2362      5F6D696E 
ARM GAS  C:\Users\PCHAUT~1\AppData\Local\Temp\cceAu0w9.s 			page 48


 2362      00
 2363              	.LASF130:
 2364 085a 73746163 		.ascii	"stackSize\000"
 2364      6B53697A 
 2364      6500
 2365              	.LASF93:
 2366 0864 5F6D756C 		.ascii	"_mult\000"
 2366      7400
 2367              	.LASF22:
 2368 086a 5F6E6578 		.ascii	"_next\000"
 2368      7400
 2369              	.LASF96:
 2370 0870 5F737472 		.ascii	"_strtok_last\000"
 2370      746F6B5F 
 2370      6C617374 
 2370      00
 2371              	.LASF40:
 2372 087d 5F666E74 		.ascii	"_fntypes\000"
 2372      79706573 
 2372      00
 2373              	.LASF148:
 2374 0886 41736562 		.ascii	"AsebaNativeDescription_vecmin\000"
 2374      614E6174 
 2374      69766544 
 2374      65736372 
 2374      69707469 
 2375              	.LASF171:
 2376 08a4 41736562 		.ascii	"AsebaSendBuffer\000"
 2376      6153656E 
 2376      64427566 
 2376      66657200 
 2377              	.LASF94:
 2378 08b4 5F616464 		.ascii	"_add\000"
 2378      00
 2379              	.LASF21:
 2380 08b9 5F5F554C 		.ascii	"__ULong\000"
 2380      6F6E6700 
 2381              	.LASF107:
 2382 08c1 5F676574 		.ascii	"_getdate_err\000"
 2382      64617465 
 2382      5F657272 
 2382      00
 2383              	.LASF153:
 2384 08ce 41736562 		.ascii	"AsebaNativeDescription_vecargbounds\000"
 2384      614E6174 
 2384      69766544 
 2384      65736372 
 2384      69707469 
 2385              	.LASF120:
 2386 08f2 5F676C6F 		.ascii	"_global_impure_ptr\000"
 2386      62616C5F 
 2386      696D7075 
 2386      72655F70 
 2386      747200
 2387              	.LASF95:
 2388 0905 5F756E75 		.ascii	"_unused_rand\000"
 2388      7365645F 
ARM GAS  C:\Users\PCHAUT~1\AppData\Local\Temp\cceAu0w9.s 			page 49


 2388      72616E64 
 2388      00
 2389              	.LASF170:
 2390 0912 41736562 		.ascii	"AsebaGetBuffer\000"
 2390      61476574 
 2390      42756666 
 2390      657200
 2391              	.LASF25:
 2392 0921 5F776473 		.ascii	"_wds\000"
 2392      00
 2393              	.LASF34:
 2394 0926 5F5F746D 		.ascii	"__tm_wday\000"
 2394      5F776461 
 2394      7900
 2395              	.LASF88:
 2396 0930 5F676C75 		.ascii	"_glue\000"
 2396      6500
 2397              	.LASF142:
 2398 0936 41736562 		.ascii	"AsebaNativeDescription_vecfill\000"
 2398      614E6174 
 2398      69766544 
 2398      65736372 
 2398      69707469 
 2399              	.LASF115:
 2400 0955 5F6E6D61 		.ascii	"_nmalloc\000"
 2400      6C6C6F63 
 2400      00
 2401              	.LASF105:
 2402 095e 5F6C3634 		.ascii	"_l64a_buf\000"
 2402      615F6275 
 2402      6600
 2403              	.LASF132:
 2404 0968 666C6167 		.ascii	"flags\000"
 2404      7300
 2405              	.LASF84:
 2406 096e 5F736967 		.ascii	"_sig_func\000"
 2406      5F66756E 
 2406      6300
 2407              	.LASF131:
 2408 0978 73746163 		.ascii	"stack\000"
 2408      6B00
 2409              	.LASF166:
 2410 097e 6C656E67 		.ascii	"length\000"
 2410      746800
 2411              	.LASF58:
 2412 0985 5F6E6275 		.ascii	"_nbuf\000"
 2412      6600
 2413              	.LASF116:
 2414 098b 5F756E75 		.ascii	"_unused\000"
 2414      73656400 
 2415              	.LASF159:
 2416 0993 41736562 		.ascii	"AsebaNativeDescription_mathrot2\000"
 2416      614E6174 
 2416      69766544 
 2416      65736372 
 2416      69707469 
 2417              	.LASF140:
ARM GAS  C:\Users\PCHAUT~1\AppData\Local\Temp\cceAu0w9.s 			page 50


 2418 09b3 41736562 		.ascii	"AsebaNativeFunctionDescription\000"
 2418      614E6174 
 2418      69766546 
 2418      756E6374 
 2418      696F6E44 
 2419              	.LASF36:
 2420 09d2 5F5F746D 		.ascii	"__tm_isdst\000"
 2420      5F697364 
 2420      737400
 2421              	.LASF98:
 2422 09dd 5F6C6F63 		.ascii	"_localtime_buf\000"
 2422      616C7469 
 2422      6D655F62 
 2422      756600
 2423              	.LASF56:
 2424 09ec 5F636C6F 		.ascii	"_close\000"
 2424      736500
 2425              	.LASF101:
 2426 09f3 5F723438 		.ascii	"_r48\000"
 2426      00
 2427              	.LASF103:
 2428 09f8 5F6D6274 		.ascii	"_mbtowc_state\000"
 2428      6F77635F 
 2428      73746174 
 2428      6500
 2429              	.LASF78:
 2430 0a06 5F703573 		.ascii	"_p5s\000"
 2430      00
 2431              	.LASF31:
 2432 0a0b 5F5F746D 		.ascii	"__tm_mday\000"
 2432      5F6D6461 
 2432      7900
 2433              		.ident	"GCC: (GNU Tools for Arm Embedded Processors 7-2017-q4-major) 7.2.1 20170904 (release) [ARM
ARM GAS  C:\Users\PCHAUT~1\AppData\Local\Temp\cceAu0w9.s 			page 51


DEFINED SYMBOLS
                            *ABS*:00000000 can-buffer.c
C:\Users\PCHAUT~1\AppData\Local\Temp\cceAu0w9.s:18     .text.AsebaSendBuffer:00000000 $t
C:\Users\PCHAUT~1\AppData\Local\Temp\cceAu0w9.s:26     .text.AsebaSendBuffer:00000000 AsebaSendBuffer
C:\Users\PCHAUT~1\AppData\Local\Temp\cceAu0w9.s:76     .text.AsebaSendBuffer:00000044 $d
C:\Users\PCHAUT~1\AppData\Local\Temp\cceAu0w9.s:81     .text.AsebaGetBuffer:00000000 $t
C:\Users\PCHAUT~1\AppData\Local\Temp\cceAu0w9.s:89     .text.AsebaGetBuffer:00000000 AsebaGetBuffer
C:\Users\PCHAUT~1\AppData\Local\Temp\cceAu0w9.s:132    .text.AsebaGetBuffer:0000003c $d

UNDEFINED SYMBOLS
AsebaIdle
AsebaCanSend
__stack_chk_fail
__stack_chk_guard
AsebaCanRecv
