ARM GAS  C:\Users\PCHAUT~1\AppData\Local\Temp\cceAu0w9.s 			page 1


   1              		.cpu cortex-m4
   2              		.eabi_attribute 27, 1
   3              		.eabi_attribute 28, 1
   4              		.eabi_attribute 20, 1
   5              		.eabi_attribute 21, 1
   6              		.eabi_attribute 23, 3
   7              		.eabi_attribute 24, 1
   8              		.eabi_attribute 25, 1
   9              		.eabi_attribute 26, 1
  10              		.eabi_attribute 30, 6
  11              		.eabi_attribute 34, 1
  12              		.eabi_attribute 18, 4
  13              		.file	"can-buffer.c"
  14              		.text
  15              	.Ltext0:
  16              		.cfi_sections	.debug_frame
  17              		.section	.text.AsebaSendBuffer,"ax",%progbits
  18              		.align	1
  19              		.p2align 4,,15
  20              		.global	AsebaSendBuffer
  21              		.syntax unified
  22              		.thumb
  23              		.thumb_func
  24              		.fpu fpv4-sp-d16
  25              		.type	AsebaSendBuffer, %function
  26              	AsebaSendBuffer:
  27              	.LFB1:
  28              		.file 1 "../lib/e-puck2_main-processor/aseba/transport/can/can-buffer.c"
  29              		.loc 1 26 0
  30              		.cfi_startproc
  31              		@ args = 0, pretend = 0, frame = 24
  32              		@ frame_needed = 0, uses_anonymous_args = 0
  33 0000 00B5     		push	{lr}
  34              		.cfi_def_cfa_offset 4
  35              		.cfi_offset 14, -4
  36 0002 87B0     		sub	sp, sp, #28
  37              		.cfi_def_cfa_offset 32
  38 0004 0390     		str	r0, [sp, #12]
  39 0006 0291     		str	r1, [sp, #8]
  40 0008 1346     		mov	r3, r2
  41 000a ADF80630 		strh	r3, [sp, #6]	@ movhi
  42              		.loc 1 26 0
  43 000e 0D4B     		ldr	r3, .L5
  44 0010 1B68     		ldr	r3, [r3]
  45 0012 0593     		str	r3, [sp, #20]
  46              		.loc 1 28 0
  47 0014 01E0     		b	.L2
  48              	.L3:
  49              		.loc 1 29 0
  50 0016 FFF7FEFF 		bl	AsebaIdle
  51              	.L2:
  52              		.loc 1 28 0
  53 001a BDF80630 		ldrh	r3, [sp, #6]
  54 001e 1946     		mov	r1, r3
  55 0020 0298     		ldr	r0, [sp, #8]
  56 0022 FFF7FEFF 		bl	AsebaCanSend
  57 0026 0346     		mov	r3, r0
ARM GAS  C:\Users\PCHAUT~1\AppData\Local\Temp\cceAu0w9.s 			page 2


  58 0028 002B     		cmp	r3, #0
  59 002a F4D0     		beq	.L3
  60              		.loc 1 30 0
  61 002c 00BF     		nop
  62 002e 054B     		ldr	r3, .L5
  63 0030 059A     		ldr	r2, [sp, #20]
  64 0032 1B68     		ldr	r3, [r3]
  65 0034 9A42     		cmp	r2, r3
  66 0036 01D0     		beq	.L4
  67 0038 FFF7FEFF 		bl	__stack_chk_fail
  68              	.L4:
  69 003c 07B0     		add	sp, sp, #28
  70              		.cfi_def_cfa_offset 4
  71              		@ sp needed
  72 003e 5DF804FB 		ldr	pc, [sp], #4
  73              	.L6:
  74 0042 00BF     		.align	2
  75              	.L5:
  76 0044 00000000 		.word	__stack_chk_guard
  77              		.cfi_endproc
  78              	.LFE1:
  79              		.size	AsebaSendBuffer, .-AsebaSendBuffer
  80              		.section	.text.AsebaGetBuffer,"ax",%progbits
  81              		.align	1
  82              		.p2align 4,,15
  83              		.global	AsebaGetBuffer
  84              		.syntax unified
  85              		.thumb
  86              		.thumb_func
  87              		.fpu fpv4-sp-d16
  88              		.type	AsebaGetBuffer, %function
  89              	AsebaGetBuffer:
  90              	.LFB2:
  91              		.loc 1 33 0
  92              		.cfi_startproc
  93              		@ args = 0, pretend = 0, frame = 24
  94              		@ frame_needed = 0, uses_anonymous_args = 0
  95 0000 00B5     		push	{lr}
  96              		.cfi_def_cfa_offset 4
  97              		.cfi_offset 14, -4
  98 0002 87B0     		sub	sp, sp, #28
  99              		.cfi_def_cfa_offset 32
 100 0004 0390     		str	r0, [sp, #12]
 101 0006 0291     		str	r1, [sp, #8]
 102 0008 0093     		str	r3, [sp]
 103 000a 1346     		mov	r3, r2	@ movhi
 104 000c ADF80630 		strh	r3, [sp, #6]	@ movhi
 105              		.loc 1 33 0
 106 0010 0A4B     		ldr	r3, .L10
 107 0012 1B68     		ldr	r3, [r3]
 108 0014 0593     		str	r3, [sp, #20]
 109              		.loc 1 35 0
 110 0016 BDF80630 		ldrh	r3, [sp, #6]
 111 001a 009A     		ldr	r2, [sp]
 112 001c 1946     		mov	r1, r3
 113 001e 0298     		ldr	r0, [sp, #8]
 114 0020 FFF7FEFF 		bl	AsebaCanRecv
ARM GAS  C:\Users\PCHAUT~1\AppData\Local\Temp\cceAu0w9.s 			page 3


 115 0024 0346     		mov	r3, r0
 116              		.loc 1 36 0
 117 0026 1846     		mov	r0, r3
 118 0028 044B     		ldr	r3, .L10
 119 002a 059A     		ldr	r2, [sp, #20]
 120 002c 1B68     		ldr	r3, [r3]
 121 002e 9A42     		cmp	r2, r3
 122 0030 01D0     		beq	.L9
 123 0032 FFF7FEFF 		bl	__stack_chk_fail
 124              	.L9:
 125 0036 07B0     		add	sp, sp, #28
 126              		.cfi_def_cfa_offset 4
 127              		@ sp needed
 128 0038 5DF804FB 		ldr	pc, [sp], #4
 129              	.L11:
 130              		.align	2
 131              	.L10:
 132 003c 00000000 		.word	__stack_chk_guard
 133              		.cfi_endproc
 134              	.LFE2:
 135              		.size	AsebaGetBuffer, .-AsebaGetBuffer
 136              		.text
 137              	.Letext0:
 138              		.file 2 "c:\\users\\pchautems\\documents\\robotiquetp\\eclipse_e-puck2\\tools\\gcc-arm-none-eabi-7
 139              		.file 3 "c:\\users\\pchautems\\documents\\robotiquetp\\eclipse_e-puck2\\tools\\gcc-arm-none-eabi-7
 140              		.file 4 "c:\\users\\pchautems\\documents\\robotiquetp\\eclipse_e-puck2\\tools\\gcc-arm-none-eabi-7
 141              		.file 5 "c:\\users\\pchautems\\documents\\robotiquetp\\eclipse_e-puck2\\tools\\gcc-arm-none-eabi-7
 142              		.file 6 "c:\\users\\pchautems\\documents\\robotiquetp\\eclipse_e-puck2\\tools\\gcc-arm-none-eabi-7
 143              		.file 7 "../lib/e-puck2_main-processor/aseba/transport/can/../buffer/../../common/types.h"
 144              		.file 8 "../lib/e-puck2_main-processor/aseba/transport/can/../buffer/../../vm/vm.h"
 145              		.file 9 "../lib/e-puck2_main-processor/aseba/transport/can/../buffer/../../vm/natives.h"