ARM GAS  C:\Users\PCHAUT~1\AppData\Local\Temp\ccb46Zni.s 			page 1


   1              		.cpu cortex-m4
   2              		.eabi_attribute 27, 1
   3              		.eabi_attribute 28, 1
   4              		.eabi_attribute 20, 1
   5              		.eabi_attribute 21, 1
   6              		.eabi_attribute 23, 3
   7              		.eabi_attribute 24, 1
   8              		.eabi_attribute 25, 1
   9              		.eabi_attribute 26, 1
  10              		.eabi_attribute 30, 6
  11              		.eabi_attribute 34, 1
  12              		.eabi_attribute 18, 4
  13              		.file	"can.c"
  14              		.text
  15              	.Ltext0:
  16              		.cfi_sections	.debug_frame
  17              		.section	.text.port_lock,"ax",%progbits
  18              		.align	1
  19              		.p2align 4,,15
  20              		.syntax unified
  21              		.thumb
  22              		.thumb_func
  23              		.fpu fpv4-sp-d16
  24              		.type	port_lock, %function
  25              	port_lock:
  26              	.LFB116:
  27              		.file 1 "../lib/e-puck2_main-processor/ChibiOS//os/rt/ports/ARMCMx/chcore_v7m.h"
  28              		.loc 1 444 0
  29              		.cfi_startproc
  30              		@ args = 0, pretend = 0, frame = 8
  31              		@ frame_needed = 0, uses_anonymous_args = 0
  32 0000 00B5     		push	{lr}
  33              		.cfi_def_cfa_offset 4
  34              		.cfi_offset 14, -4
  35 0002 83B0     		sub	sp, sp, #12
  36              		.cfi_def_cfa_offset 16
  37              		.loc 1 444 0
  38 0004 094B     		ldr	r3, .L3
  39 0006 1B68     		ldr	r3, [r3]
  40 0008 0193     		str	r3, [sp, #4]
  41 000a 2023     		movs	r3, #32
  42 000c 0093     		str	r3, [sp]
  43              	.LBB6:
  44              	.LBB7:
  45              		.file 2 "../lib/e-puck2_main-processor/ChibiOS//os/ext/CMSIS/include/core_cmFunc.h"
  46              		.loc 2 546 0
  47 000e 009B     		ldr	r3, [sp]
  48              		.syntax unified
  49              	@ 546 "../lib/e-puck2_main-processor/ChibiOS//os/ext/CMSIS/include/core_cmFunc.h" 1
  50 0010 83F31188 		MSR basepri, r3
  51              	@ 0 "" 2
  52              		.thumb
  53              		.syntax unified
  54              	.LBE7:
  55              	.LBE6:
  56              		.loc 1 451 0
  57 0014 00BF     		nop
ARM GAS  C:\Users\PCHAUT~1\AppData\Local\Temp\ccb46Zni.s 			page 2


  58 0016 054B     		ldr	r3, .L3
  59 0018 019A     		ldr	r2, [sp, #4]
  60 001a 1B68     		ldr	r3, [r3]
  61 001c 9A42     		cmp	r2, r3
  62 001e 01D0     		beq	.L2
  63 0020 FFF7FEFF 		bl	__stack_chk_fail
  64              	.L2:
  65 0024 03B0     		add	sp, sp, #12
  66              		.cfi_def_cfa_offset 4
  67              		@ sp needed
  68 0026 5DF804FB 		ldr	pc, [sp], #4
  69              	.L4:
  70 002a 00BF     		.align	2
  71              	.L3:
  72 002c 00000000 		.word	__stack_chk_guard
  73              		.cfi_endproc
  74              	.LFE116:
  75              		.size	port_lock, .-port_lock
  76              		.section	.text.port_unlock,"ax",%progbits
  77              		.align	1
  78              		.p2align 4,,15
  79              		.syntax unified
  80              		.thumb
  81              		.thumb_func
  82              		.fpu fpv4-sp-d16
  83              		.type	port_unlock, %function
  84              	port_unlock:
  85              	.LFB117:
  86              		.loc 1 458 0
  87              		.cfi_startproc
  88              		@ args = 0, pretend = 0, frame = 8
  89              		@ frame_needed = 0, uses_anonymous_args = 0
  90 0000 00B5     		push	{lr}
  91              		.cfi_def_cfa_offset 4
  92              		.cfi_offset 14, -4
  93 0002 83B0     		sub	sp, sp, #12
  94              		.cfi_def_cfa_offset 16
  95              		.loc 1 458 0
  96 0004 094B     		ldr	r3, .L7
  97 0006 1B68     		ldr	r3, [r3]
  98 0008 0193     		str	r3, [sp, #4]
  99 000a 0023     		movs	r3, #0
 100 000c 0093     		str	r3, [sp]
 101              	.LBB8:
 102              	.LBB9:
 103              		.loc 2 546 0
 104 000e 009B     		ldr	r3, [sp]
 105              		.syntax unified
 106              	@ 546 "../lib/e-puck2_main-processor/ChibiOS//os/ext/CMSIS/include/core_cmFunc.h" 1
 107 0010 83F31188 		MSR basepri, r3
 108              	@ 0 "" 2
 109              		.thumb
 110              		.syntax unified
 111              	.LBE9:
 112              	.LBE8:
 113              		.loc 1 465 0
 114 0014 00BF     		nop
ARM GAS  C:\Users\PCHAUT~1\AppData\Local\Temp\ccb46Zni.s 			page 3


 115 0016 054B     		ldr	r3, .L7
 116 0018 019A     		ldr	r2, [sp, #4]
 117 001a 1B68     		ldr	r3, [r3]
 118 001c 9A42     		cmp	r2, r3
 119 001e 01D0     		beq	.L6
 120 0020 FFF7FEFF 		bl	__stack_chk_fail
 121              	.L6:
 122 0024 03B0     		add	sp, sp, #12
 123              		.cfi_def_cfa_offset 4
 124              		@ sp needed
 125 0026 5DF804FB 		ldr	pc, [sp], #4
 126              	.L8:
 127 002a 00BF     		.align	2
 128              	.L7:
 129 002c 00000000 		.word	__stack_chk_guard
 130              		.cfi_endproc
 131              	.LFE117:
 132              		.size	port_unlock, .-port_unlock
 133              		.section	.text.queue_init,"ax",%progbits
 134              		.align	1
 135              		.p2align 4,,15
 136              		.syntax unified
 137              		.thumb
 138              		.thumb_func
 139              		.fpu fpv4-sp-d16
 140              		.type	queue_init, %function
 141              	queue_init:
 142              	.LFB128:
 143              		.file 3 "../lib/e-puck2_main-processor/ChibiOS//os/rt/include/chschd.h"
 144              		.loc 3 602 0
 145              		.cfi_startproc
 146              		@ args = 0, pretend = 0, frame = 16
 147              		@ frame_needed = 0, uses_anonymous_args = 0
 148 0000 00B5     		push	{lr}
 149              		.cfi_def_cfa_offset 4
 150              		.cfi_offset 14, -4
 151 0002 85B0     		sub	sp, sp, #20
 152              		.cfi_def_cfa_offset 24
 153 0004 0190     		str	r0, [sp, #4]
 154              		.loc 3 602 0
 155 0006 0A4B     		ldr	r3, .L11
 156 0008 1B68     		ldr	r3, [r3]
 157 000a 0393     		str	r3, [sp, #12]
 158              		.loc 3 604 0
 159 000c 019B     		ldr	r3, [sp, #4]
 160 000e 019A     		ldr	r2, [sp, #4]
 161 0010 1A60     		str	r2, [r3]
 162              		.loc 3 605 0
 163 0012 019B     		ldr	r3, [sp, #4]
 164 0014 019A     		ldr	r2, [sp, #4]
 165 0016 5A60     		str	r2, [r3, #4]
 166              		.loc 3 606 0
 167 0018 00BF     		nop
 168 001a 054B     		ldr	r3, .L11
 169 001c 039A     		ldr	r2, [sp, #12]
 170 001e 1B68     		ldr	r3, [r3]
 171 0020 9A42     		cmp	r2, r3
ARM GAS  C:\Users\PCHAUT~1\AppData\Local\Temp\ccb46Zni.s 			page 4


 172 0022 01D0     		beq	.L10
 173 0024 FFF7FEFF 		bl	__stack_chk_fail
 174              	.L10:
 175 0028 05B0     		add	sp, sp, #20
 176              		.cfi_def_cfa_offset 4
 177              		@ sp needed
 178 002a 5DF804FB 		ldr	pc, [sp], #4
 179              	.L12:
 180 002e 00BF     		.align	2
 181              	.L11:
 182 0030 00000000 		.word	__stack_chk_guard
 183              		.cfi_endproc
 184              	.LFE128:
 185              		.size	queue_init, .-queue_init
 186              		.section	.text.chSysLock,"ax",%progbits
 187              		.align	1
 188              		.p2align 4,,15
 189              		.syntax unified
 190              		.thumb
 191              		.thumb_func
 192              		.fpu fpv4-sp-d16
 193              		.type	chSysLock, %function
 194              	chSysLock:
 195              	.LFB145:
 196              		.file 4 "../lib/e-puck2_main-processor/ChibiOS//os/rt/include/chsys.h"
 197              		.loc 4 346 0
 198              		.cfi_startproc
 199              		@ args = 0, pretend = 0, frame = 8
 200              		@ frame_needed = 0, uses_anonymous_args = 0
 201 0000 00B5     		push	{lr}
 202              		.cfi_def_cfa_offset 4
 203              		.cfi_offset 14, -4
 204 0002 83B0     		sub	sp, sp, #12
 205              		.cfi_def_cfa_offset 16
 206              		.loc 4 346 0
 207 0004 094B     		ldr	r3, .L15
 208 0006 1B68     		ldr	r3, [r3]
 209 0008 0193     		str	r3, [sp, #4]
 210              		.loc 4 348 0
 211 000a FFF7FEFF 		bl	port_lock
 212              		.loc 4 349 0
 213 000e FFF7FEFF 		bl	_stats_start_measure_crit_thd
 214              		.loc 4 350 0
 215 0012 FFF7FEFF 		bl	_dbg_check_lock
 216              		.loc 4 351 0
 217 0016 00BF     		nop
 218 0018 044B     		ldr	r3, .L15
 219 001a 019A     		ldr	r2, [sp, #4]
 220 001c 1B68     		ldr	r3, [r3]
 221 001e 9A42     		cmp	r2, r3
 222 0020 01D0     		beq	.L14
 223 0022 FFF7FEFF 		bl	__stack_chk_fail
 224              	.L14:
 225 0026 03B0     		add	sp, sp, #12
 226              		.cfi_def_cfa_offset 4
 227              		@ sp needed
 228 0028 5DF804FB 		ldr	pc, [sp], #4
ARM GAS  C:\Users\PCHAUT~1\AppData\Local\Temp\ccb46Zni.s 			page 5


 229              	.L16:
 230              		.align	2
 231              	.L15:
 232 002c 00000000 		.word	__stack_chk_guard
 233              		.cfi_endproc
 234              	.LFE145:
 235              		.size	chSysLock, .-chSysLock
 236              		.section	.text.chSysUnlock,"ax",%progbits
 237              		.align	1
 238              		.p2align 4,,15
 239              		.syntax unified
 240              		.thumb
 241              		.thumb_func
 242              		.fpu fpv4-sp-d16
 243              		.type	chSysUnlock, %function
 244              	chSysUnlock:
 245              	.LFB146:
 246              		.loc 4 358 0
 247              		.cfi_startproc
 248              		@ args = 0, pretend = 0, frame = 8
 249              		@ frame_needed = 0, uses_anonymous_args = 0
 250 0000 00B5     		push	{lr}
 251              		.cfi_def_cfa_offset 4
 252              		.cfi_offset 14, -4
 253 0002 83B0     		sub	sp, sp, #12
 254              		.cfi_def_cfa_offset 16
 255              		.loc 4 358 0
 256 0004 114B     		ldr	r3, .L20
 257 0006 1B68     		ldr	r3, [r3]
 258 0008 0193     		str	r3, [sp, #4]
 259              		.loc 4 360 0
 260 000a FFF7FEFF 		bl	_dbg_check_unlock
 261              		.loc 4 361 0
 262 000e FFF7FEFF 		bl	_stats_stop_measure_crit_thd
 263              		.loc 4 367 0
 264 0012 0F4B     		ldr	r3, .L20+4
 265 0014 1B68     		ldr	r3, [r3]
 266 0016 0E4A     		ldr	r2, .L20+4
 267 0018 9342     		cmp	r3, r2
 268 001a 0AD0     		beq	.L18
 269              		.loc 4 367 0 is_stmt 0 discriminator 2
 270 001c 0C4B     		ldr	r3, .L20+4
 271 001e 9B69     		ldr	r3, [r3, #24]
 272 0020 9A68     		ldr	r2, [r3, #8]
 273 0022 0B4B     		ldr	r3, .L20+4
 274 0024 1B68     		ldr	r3, [r3]
 275 0026 9B68     		ldr	r3, [r3, #8]
 276 0028 9A42     		cmp	r2, r3
 277 002a 02D2     		bcs	.L18
 278              		.loc 4 367 0 discriminator 3
 279 002c 0948     		ldr	r0, .L20+8
 280 002e FFF7FEFF 		bl	chSysHalt
 281              	.L18:
 282              		.loc 4 371 0 is_stmt 1
 283 0032 FFF7FEFF 		bl	port_unlock
 284              		.loc 4 372 0
 285 0036 00BF     		nop
ARM GAS  C:\Users\PCHAUT~1\AppData\Local\Temp\ccb46Zni.s 			page 6


 286 0038 044B     		ldr	r3, .L20
 287 003a 019A     		ldr	r2, [sp, #4]
 288 003c 1B68     		ldr	r3, [r3]
 289 003e 9A42     		cmp	r2, r3
 290 0040 01D0     		beq	.L19
 291 0042 FFF7FEFF 		bl	__stack_chk_fail
 292              	.L19:
 293 0046 03B0     		add	sp, sp, #12
 294              		.cfi_def_cfa_offset 4
 295              		@ sp needed
 296 0048 5DF804FB 		ldr	pc, [sp], #4
 297              	.L21:
 298              		.align	2
 299              	.L20:
 300 004c 00000000 		.word	__stack_chk_guard
 301 0050 00000000 		.word	ch
 302 0054 00000000 		.word	__func__.7153
 303              		.cfi_endproc
 304              	.LFE146:
 305              		.size	chSysUnlock, .-chSysUnlock
 306              		.section	.text.chThdQueueObjectInit,"ax",%progbits
 307              		.align	1
 308              		.p2align 4,,15
 309              		.syntax unified
 310              		.thumb
 311              		.thumb_func
 312              		.fpu fpv4-sp-d16
 313              		.type	chThdQueueObjectInit, %function
 314              	chThdQueueObjectInit:
 315              	.LFB173:
 316              		.file 5 "../lib/e-puck2_main-processor/ChibiOS//os/rt/include/chthreads.h"
 317              		.loc 5 278 0
 318              		.cfi_startproc
 319              		@ args = 0, pretend = 0, frame = 16
 320              		@ frame_needed = 0, uses_anonymous_args = 0
 321 0000 00B5     		push	{lr}
 322              		.cfi_def_cfa_offset 4
 323              		.cfi_offset 14, -4
 324 0002 85B0     		sub	sp, sp, #20
 325              		.cfi_def_cfa_offset 24
 326 0004 0190     		str	r0, [sp, #4]
 327              		.loc 5 278 0
 328 0006 084B     		ldr	r3, .L24
 329 0008 1B68     		ldr	r3, [r3]
 330 000a 0393     		str	r3, [sp, #12]
 331              		.loc 5 280 0
 332 000c 0198     		ldr	r0, [sp, #4]
 333 000e FFF7FEFF 		bl	queue_init
 334              		.loc 5 281 0
 335 0012 00BF     		nop
 336 0014 044B     		ldr	r3, .L24
 337 0016 039A     		ldr	r2, [sp, #12]
 338 0018 1B68     		ldr	r3, [r3]
 339 001a 9A42     		cmp	r2, r3
 340 001c 01D0     		beq	.L23
 341 001e FFF7FEFF 		bl	__stack_chk_fail
 342              	.L23:
ARM GAS  C:\Users\PCHAUT~1\AppData\Local\Temp\ccb46Zni.s 			page 7


 343 0022 05B0     		add	sp, sp, #20
 344              		.cfi_def_cfa_offset 4
 345              		@ sp needed
 346 0024 5DF804FB 		ldr	pc, [sp], #4
 347              	.L25:
 348              		.align	2
 349              	.L24:
 350 0028 00000000 		.word	__stack_chk_guard
 351              		.cfi_endproc
 352              	.LFE173:
 353              		.size	chThdQueueObjectInit, .-chThdQueueObjectInit
 354              		.section	.text.chEvtObjectInit,"ax",%progbits
 355              		.align	1
 356              		.p2align 4,,15
 357              		.syntax unified
 358              		.thumb
 359              		.thumb_func
 360              		.fpu fpv4-sp-d16
 361              		.type	chEvtObjectInit, %function
 362              	chEvtObjectInit:
 363              	.LFB194:
 364              		.file 6 "../lib/e-puck2_main-processor/ChibiOS//os/rt/include/chevents.h"
 365              		.loc 6 170 0
 366              		.cfi_startproc
 367              		@ args = 0, pretend = 0, frame = 16
 368              		@ frame_needed = 0, uses_anonymous_args = 0
 369 0000 00B5     		push	{lr}
 370              		.cfi_def_cfa_offset 4
 371              		.cfi_offset 14, -4
 372 0002 85B0     		sub	sp, sp, #20
 373              		.cfi_def_cfa_offset 24
 374 0004 0190     		str	r0, [sp, #4]
 375              		.loc 6 170 0
 376 0006 084B     		ldr	r3, .L28
 377 0008 1B68     		ldr	r3, [r3]
 378 000a 0393     		str	r3, [sp, #12]
 379              		.loc 6 172 0
 380 000c 019B     		ldr	r3, [sp, #4]
 381 000e 019A     		ldr	r2, [sp, #4]
 382 0010 1A60     		str	r2, [r3]
 383              		.loc 6 173 0
 384 0012 00BF     		nop
 385 0014 044B     		ldr	r3, .L28
 386 0016 039A     		ldr	r2, [sp, #12]
 387 0018 1B68     		ldr	r3, [r3]
 388 001a 9A42     		cmp	r2, r3
 389 001c 01D0     		beq	.L27
 390 001e FFF7FEFF 		bl	__stack_chk_fail
 391              	.L27:
 392 0022 05B0     		add	sp, sp, #20
 393              		.cfi_def_cfa_offset 4
 394              		@ sp needed
 395 0024 5DF804FB 		ldr	pc, [sp], #4
 396              	.L29:
 397              		.align	2
 398              	.L28:
 399 0028 00000000 		.word	__stack_chk_guard
ARM GAS  C:\Users\PCHAUT~1\AppData\Local\Temp\ccb46Zni.s 			page 8


 400              		.cfi_endproc
 401              	.LFE194:
 402              		.size	chEvtObjectInit, .-chEvtObjectInit
 403              		.section	.text.osalSysLock,"ax",%progbits
 404              		.align	1
 405              		.p2align 4,,15
 406              		.syntax unified
 407              		.thumb
 408              		.thumb_func
 409              		.fpu fpv4-sp-d16
 410              		.type	osalSysLock, %function
 411              	osalSysLock:
 412              	.LFB223:
 413              		.file 7 "../lib/e-puck2_main-processor/ChibiOS//os/hal/osal/rt/osal.h"
 414              		.loc 7 445 0
 415              		.cfi_startproc
 416              		@ args = 0, pretend = 0, frame = 8
 417              		@ frame_needed = 0, uses_anonymous_args = 0
 418 0000 00B5     		push	{lr}
 419              		.cfi_def_cfa_offset 4
 420              		.cfi_offset 14, -4
 421 0002 83B0     		sub	sp, sp, #12
 422              		.cfi_def_cfa_offset 16
 423              		.loc 7 445 0
 424 0004 074B     		ldr	r3, .L32
 425 0006 1B68     		ldr	r3, [r3]
 426 0008 0193     		str	r3, [sp, #4]
 427              		.loc 7 447 0
 428 000a FFF7FEFF 		bl	chSysLock
 429              		.loc 7 448 0
 430 000e 00BF     		nop
 431 0010 044B     		ldr	r3, .L32
 432 0012 019A     		ldr	r2, [sp, #4]
 433 0014 1B68     		ldr	r3, [r3]
 434 0016 9A42     		cmp	r2, r3
 435 0018 01D0     		beq	.L31
 436 001a FFF7FEFF 		bl	__stack_chk_fail
 437              	.L31:
 438 001e 03B0     		add	sp, sp, #12
 439              		.cfi_def_cfa_offset 4
 440              		@ sp needed
 441 0020 5DF804FB 		ldr	pc, [sp], #4
 442              	.L33:
 443              		.align	2
 444              	.L32:
 445 0024 00000000 		.word	__stack_chk_guard
 446              		.cfi_endproc
 447              	.LFE223:
 448              		.size	osalSysLock, .-osalSysLock
 449              		.section	.text.osalSysUnlock,"ax",%progbits
 450              		.align	1
 451              		.p2align 4,,15
 452              		.syntax unified
 453              		.thumb
 454              		.thumb_func
 455              		.fpu fpv4-sp-d16
 456              		.type	osalSysUnlock, %function
ARM GAS  C:\Users\PCHAUT~1\AppData\Local\Temp\ccb46Zni.s 			page 9


 457              	osalSysUnlock:
 458              	.LFB224:
 459              		.loc 7 456 0
 460              		.cfi_startproc
 461              		@ args = 0, pretend = 0, frame = 8
 462              		@ frame_needed = 0, uses_anonymous_args = 0
 463 0000 00B5     		push	{lr}
 464              		.cfi_def_cfa_offset 4
 465              		.cfi_offset 14, -4
 466 0002 83B0     		sub	sp, sp, #12
 467              		.cfi_def_cfa_offset 16
 468              		.loc 7 456 0
 469 0004 074B     		ldr	r3, .L36
 470 0006 1B68     		ldr	r3, [r3]
 471 0008 0193     		str	r3, [sp, #4]
 472              		.loc 7 458 0
 473 000a FFF7FEFF 		bl	chSysUnlock
 474              		.loc 7 459 0
 475 000e 00BF     		nop
 476 0010 044B     		ldr	r3, .L36
 477 0012 019A     		ldr	r2, [sp, #4]
 478 0014 1B68     		ldr	r3, [r3]
 479 0016 9A42     		cmp	r2, r3
 480 0018 01D0     		beq	.L35
 481 001a FFF7FEFF 		bl	__stack_chk_fail
 482              	.L35:
 483 001e 03B0     		add	sp, sp, #12
 484              		.cfi_def_cfa_offset 4
 485              		@ sp needed
 486 0020 5DF804FB 		ldr	pc, [sp], #4
 487              	.L37:
 488              		.align	2
 489              	.L36:
 490 0024 00000000 		.word	__stack_chk_guard
 491              		.cfi_endproc
 492              	.LFE224:
 493              		.size	osalSysUnlock, .-osalSysUnlock
 494              		.section	.text.osalOsRescheduleS,"ax",%progbits
 495              		.align	1
 496              		.p2align 4,,15
 497              		.syntax unified
 498              		.thumb
 499              		.thumb_func
 500              		.fpu fpv4-sp-d16
 501              		.type	osalOsRescheduleS, %function
 502              	osalOsRescheduleS:
 503              	.LFB231:
 504              		.loc 7 552 0
 505              		.cfi_startproc
 506              		@ args = 0, pretend = 0, frame = 8
 507              		@ frame_needed = 0, uses_anonymous_args = 0
 508 0000 00B5     		push	{lr}
 509              		.cfi_def_cfa_offset 4
 510              		.cfi_offset 14, -4
 511 0002 83B0     		sub	sp, sp, #12
 512              		.cfi_def_cfa_offset 16
 513              		.loc 7 552 0
ARM GAS  C:\Users\PCHAUT~1\AppData\Local\Temp\ccb46Zni.s 			page 10


 514 0004 074B     		ldr	r3, .L40
 515 0006 1B68     		ldr	r3, [r3]
 516 0008 0193     		str	r3, [sp, #4]
 517              		.loc 7 554 0
 518 000a FFF7FEFF 		bl	chSchRescheduleS
 519              		.loc 7 555 0
 520 000e 00BF     		nop
 521 0010 044B     		ldr	r3, .L40
 522 0012 019A     		ldr	r2, [sp, #4]
 523 0014 1B68     		ldr	r3, [r3]
 524 0016 9A42     		cmp	r2, r3
 525 0018 01D0     		beq	.L39
 526 001a FFF7FEFF 		bl	__stack_chk_fail
 527              	.L39:
 528 001e 03B0     		add	sp, sp, #12
 529              		.cfi_def_cfa_offset 4
 530              		@ sp needed
 531 0020 5DF804FB 		ldr	pc, [sp], #4
 532              	.L41:
 533              		.align	2
 534              	.L40:
 535 0024 00000000 		.word	__stack_chk_guard
 536              		.cfi_endproc
 537              	.LFE231:
 538              		.size	osalOsRescheduleS, .-osalOsRescheduleS
 539              		.section	.text.osalThreadQueueObjectInit,"ax",%progbits
 540              		.align	1
 541              		.p2align 4,,15
 542              		.syntax unified
 543              		.thumb
 544              		.thumb_func
 545              		.fpu fpv4-sp-d16
 546              		.type	osalThreadQueueObjectInit, %function
 547              	osalThreadQueueObjectInit:
 548              	.LFB240:
 549              		.loc 7 707 0
 550              		.cfi_startproc
 551              		@ args = 0, pretend = 0, frame = 16
 552              		@ frame_needed = 0, uses_anonymous_args = 0
 553 0000 00B5     		push	{lr}
 554              		.cfi_def_cfa_offset 4
 555              		.cfi_offset 14, -4
 556 0002 85B0     		sub	sp, sp, #20
 557              		.cfi_def_cfa_offset 24
 558 0004 0190     		str	r0, [sp, #4]
 559              		.loc 7 707 0
 560 0006 084B     		ldr	r3, .L44
 561 0008 1B68     		ldr	r3, [r3]
 562 000a 0393     		str	r3, [sp, #12]
 563              		.loc 7 709 0
 564 000c 0198     		ldr	r0, [sp, #4]
 565 000e FFF7FEFF 		bl	chThdQueueObjectInit
 566              		.loc 7 710 0
 567 0012 00BF     		nop
 568 0014 044B     		ldr	r3, .L44
 569 0016 039A     		ldr	r2, [sp, #12]
 570 0018 1B68     		ldr	r3, [r3]
ARM GAS  C:\Users\PCHAUT~1\AppData\Local\Temp\ccb46Zni.s 			page 11


 571 001a 9A42     		cmp	r2, r3
 572 001c 01D0     		beq	.L43
 573 001e FFF7FEFF 		bl	__stack_chk_fail
 574              	.L43:
 575 0022 05B0     		add	sp, sp, #20
 576              		.cfi_def_cfa_offset 4
 577              		@ sp needed
 578 0024 5DF804FB 		ldr	pc, [sp], #4
 579              	.L45:
 580              		.align	2
 581              	.L44:
 582 0028 00000000 		.word	__stack_chk_guard
 583              		.cfi_endproc
 584              	.LFE240:
 585              		.size	osalThreadQueueObjectInit, .-osalThreadQueueObjectInit
 586              		.section	.text.osalThreadEnqueueTimeoutS,"ax",%progbits
 587              		.align	1
 588              		.p2align 4,,15
 589              		.syntax unified
 590              		.thumb
 591              		.thumb_func
 592              		.fpu fpv4-sp-d16
 593              		.type	osalThreadEnqueueTimeoutS, %function
 594              	osalThreadEnqueueTimeoutS:
 595              	.LFB241:
 596              		.loc 7 736 0
 597              		.cfi_startproc
 598              		@ args = 0, pretend = 0, frame = 16
 599              		@ frame_needed = 0, uses_anonymous_args = 0
 600 0000 00B5     		push	{lr}
 601              		.cfi_def_cfa_offset 4
 602              		.cfi_offset 14, -4
 603 0002 85B0     		sub	sp, sp, #20
 604              		.cfi_def_cfa_offset 24
 605 0004 0190     		str	r0, [sp, #4]
 606 0006 0091     		str	r1, [sp]
 607              		.loc 7 736 0
 608 0008 094B     		ldr	r3, .L49
 609 000a 1B68     		ldr	r3, [r3]
 610 000c 0393     		str	r3, [sp, #12]
 611              		.loc 7 738 0
 612 000e 0099     		ldr	r1, [sp]
 613 0010 0198     		ldr	r0, [sp, #4]
 614 0012 FFF7FEFF 		bl	chThdEnqueueTimeoutS
 615 0016 0346     		mov	r3, r0
 616              		.loc 7 739 0
 617 0018 1846     		mov	r0, r3
 618 001a 054B     		ldr	r3, .L49
 619 001c 039A     		ldr	r2, [sp, #12]
 620 001e 1B68     		ldr	r3, [r3]
 621 0020 9A42     		cmp	r2, r3
 622 0022 01D0     		beq	.L48
 623 0024 FFF7FEFF 		bl	__stack_chk_fail
 624              	.L48:
 625 0028 05B0     		add	sp, sp, #20
 626              		.cfi_def_cfa_offset 4
 627              		@ sp needed
ARM GAS  C:\Users\PCHAUT~1\AppData\Local\Temp\ccb46Zni.s 			page 12


 628 002a 5DF804FB 		ldr	pc, [sp], #4
 629              	.L50:
 630 002e 00BF     		.align	2
 631              	.L49:
 632 0030 00000000 		.word	__stack_chk_guard
 633              		.cfi_endproc
 634              	.LFE241:
 635              		.size	osalThreadEnqueueTimeoutS, .-osalThreadEnqueueTimeoutS
 636              		.section	.text.osalThreadDequeueAllI,"ax",%progbits
 637              		.align	1
 638              		.p2align 4,,15
 639              		.syntax unified
 640              		.thumb
 641              		.thumb_func
 642              		.fpu fpv4-sp-d16
 643              		.type	osalThreadDequeueAllI, %function
 644              	osalThreadDequeueAllI:
 645              	.LFB243:
 646              		.loc 7 762 0
 647              		.cfi_startproc
 648              		@ args = 0, pretend = 0, frame = 16
 649              		@ frame_needed = 0, uses_anonymous_args = 0
 650 0000 00B5     		push	{lr}
 651              		.cfi_def_cfa_offset 4
 652              		.cfi_offset 14, -4
 653 0002 85B0     		sub	sp, sp, #20
 654              		.cfi_def_cfa_offset 24
 655 0004 0190     		str	r0, [sp, #4]
 656 0006 0091     		str	r1, [sp]
 657              		.loc 7 762 0
 658 0008 084B     		ldr	r3, .L53
 659 000a 1B68     		ldr	r3, [r3]
 660 000c 0393     		str	r3, [sp, #12]
 661              		.loc 7 764 0
 662 000e 0099     		ldr	r1, [sp]
 663 0010 0198     		ldr	r0, [sp, #4]
 664 0012 FFF7FEFF 		bl	chThdDequeueAllI
 665              		.loc 7 765 0
 666 0016 00BF     		nop
 667 0018 044B     		ldr	r3, .L53
 668 001a 039A     		ldr	r2, [sp, #12]
 669 001c 1B68     		ldr	r3, [r3]
 670 001e 9A42     		cmp	r2, r3
 671 0020 01D0     		beq	.L52
 672 0022 FFF7FEFF 		bl	__stack_chk_fail
 673              	.L52:
 674 0026 05B0     		add	sp, sp, #20
 675              		.cfi_def_cfa_offset 4
 676              		@ sp needed
 677 0028 5DF804FB 		ldr	pc, [sp], #4
 678              	.L54:
 679              		.align	2
 680              	.L53:
 681 002c 00000000 		.word	__stack_chk_guard
 682              		.cfi_endproc
 683              	.LFE243:
 684              		.size	osalThreadDequeueAllI, .-osalThreadDequeueAllI
ARM GAS  C:\Users\PCHAUT~1\AppData\Local\Temp\ccb46Zni.s 			page 13


 685              		.section	.text.osalEventObjectInit,"ax",%progbits
 686              		.align	1
 687              		.p2align 4,,15
 688              		.syntax unified
 689              		.thumb
 690              		.thumb_func
 691              		.fpu fpv4-sp-d16
 692              		.type	osalEventObjectInit, %function
 693              	osalEventObjectInit:
 694              	.LFB244:
 695              		.loc 7 775 0
 696              		.cfi_startproc
 697              		@ args = 0, pretend = 0, frame = 16
 698              		@ frame_needed = 0, uses_anonymous_args = 0
 699 0000 00B5     		push	{lr}
 700              		.cfi_def_cfa_offset 4
 701              		.cfi_offset 14, -4
 702 0002 85B0     		sub	sp, sp, #20
 703              		.cfi_def_cfa_offset 24
 704 0004 0190     		str	r0, [sp, #4]
 705              		.loc 7 775 0
 706 0006 084B     		ldr	r3, .L57
 707 0008 1B68     		ldr	r3, [r3]
 708 000a 0393     		str	r3, [sp, #12]
 709              		.loc 7 777 0
 710 000c 0198     		ldr	r0, [sp, #4]
 711 000e FFF7FEFF 		bl	chEvtObjectInit
 712              		.loc 7 778 0
 713 0012 00BF     		nop
 714 0014 044B     		ldr	r3, .L57
 715 0016 039A     		ldr	r2, [sp, #12]
 716 0018 1B68     		ldr	r3, [r3]
 717 001a 9A42     		cmp	r2, r3
 718 001c 01D0     		beq	.L56
 719 001e FFF7FEFF 		bl	__stack_chk_fail
 720              	.L56:
 721 0022 05B0     		add	sp, sp, #20
 722              		.cfi_def_cfa_offset 4
 723              		@ sp needed
 724 0024 5DF804FB 		ldr	pc, [sp], #4
 725              	.L58:
 726              		.align	2
 727              	.L57:
 728 0028 00000000 		.word	__stack_chk_guard
 729              		.cfi_endproc
 730              	.LFE244:
 731              		.size	osalEventObjectInit, .-osalEventObjectInit
 732              		.section	.text.osalEventBroadcastFlagsI,"ax",%progbits
 733              		.align	1
 734              		.p2align 4,,15
 735              		.syntax unified
 736              		.thumb
 737              		.thumb_func
 738              		.fpu fpv4-sp-d16
 739              		.type	osalEventBroadcastFlagsI, %function
 740              	osalEventBroadcastFlagsI:
 741              	.LFB245:
ARM GAS  C:\Users\PCHAUT~1\AppData\Local\Temp\ccb46Zni.s 			page 14


 742              		.loc 7 796 0
 743              		.cfi_startproc
 744              		@ args = 0, pretend = 0, frame = 16
 745              		@ frame_needed = 0, uses_anonymous_args = 0
 746 0000 00B5     		push	{lr}
 747              		.cfi_def_cfa_offset 4
 748              		.cfi_offset 14, -4
 749 0002 85B0     		sub	sp, sp, #20
 750              		.cfi_def_cfa_offset 24
 751 0004 0190     		str	r0, [sp, #4]
 752 0006 0091     		str	r1, [sp]
 753              		.loc 7 796 0
 754 0008 084B     		ldr	r3, .L61
 755 000a 1B68     		ldr	r3, [r3]
 756 000c 0393     		str	r3, [sp, #12]
 757              		.loc 7 798 0
 758 000e 0099     		ldr	r1, [sp]
 759 0010 0198     		ldr	r0, [sp, #4]
 760 0012 FFF7FEFF 		bl	chEvtBroadcastFlagsI
 761              		.loc 7 799 0
 762 0016 00BF     		nop
 763 0018 044B     		ldr	r3, .L61
 764 001a 039A     		ldr	r2, [sp, #12]
 765 001c 1B68     		ldr	r3, [r3]
 766 001e 9A42     		cmp	r2, r3
 767 0020 01D0     		beq	.L60
 768 0022 FFF7FEFF 		bl	__stack_chk_fail
 769              	.L60:
 770 0026 05B0     		add	sp, sp, #20
 771              		.cfi_def_cfa_offset 4
 772              		@ sp needed
 773 0028 5DF804FB 		ldr	pc, [sp], #4
 774              	.L62:
 775              		.align	2
 776              	.L61:
 777 002c 00000000 		.word	__stack_chk_guard
 778              		.cfi_endproc
 779              	.LFE245:
 780              		.size	osalEventBroadcastFlagsI, .-osalEventBroadcastFlagsI
 781              		.section	.text.canInit,"ax",%progbits
 782              		.align	1
 783              		.p2align 4,,15
 784              		.global	canInit
 785              		.syntax unified
 786              		.thumb
 787              		.thumb_func
 788              		.fpu fpv4-sp-d16
 789              		.type	canInit, %function
 790              	canInit:
 791              	.LFB256:
 792              		.file 8 "../lib/e-puck2_main-processor/ChibiOS//os/hal/src/can.c"
 793              		.loc 8 56 0
 794              		.cfi_startproc
 795              		@ args = 0, pretend = 0, frame = 8
 796              		@ frame_needed = 0, uses_anonymous_args = 0
 797 0000 00B5     		push	{lr}
 798              		.cfi_def_cfa_offset 4
ARM GAS  C:\Users\PCHAUT~1\AppData\Local\Temp\ccb46Zni.s 			page 15


 799              		.cfi_offset 14, -4
 800 0002 83B0     		sub	sp, sp, #12
 801              		.cfi_def_cfa_offset 16
 802              		.loc 8 56 0
 803 0004 074B     		ldr	r3, .L65
 804 0006 1B68     		ldr	r3, [r3]
 805 0008 0193     		str	r3, [sp, #4]
 806              		.loc 8 58 0
 807 000a FFF7FEFF 		bl	can_lld_init
 808              		.loc 8 59 0
 809 000e 00BF     		nop
 810 0010 044B     		ldr	r3, .L65
 811 0012 019A     		ldr	r2, [sp, #4]
 812 0014 1B68     		ldr	r3, [r3]
 813 0016 9A42     		cmp	r2, r3
 814 0018 01D0     		beq	.L64
 815 001a FFF7FEFF 		bl	__stack_chk_fail
 816              	.L64:
 817 001e 03B0     		add	sp, sp, #12
 818              		.cfi_def_cfa_offset 4
 819              		@ sp needed
 820 0020 5DF804FB 		ldr	pc, [sp], #4
 821              	.L66:
 822              		.align	2
 823              	.L65:
 824 0024 00000000 		.word	__stack_chk_guard
 825              		.cfi_endproc
 826              	.LFE256:
 827              		.size	canInit, .-canInit
 828              		.section	.text.canObjectInit,"ax",%progbits
 829              		.align	1
 830              		.p2align 4,,15
 831              		.global	canObjectInit
 832              		.syntax unified
 833              		.thumb
 834              		.thumb_func
 835              		.fpu fpv4-sp-d16
 836              		.type	canObjectInit, %function
 837              	canObjectInit:
 838              	.LFB257:
 839              		.loc 8 68 0
 840              		.cfi_startproc
 841              		@ args = 0, pretend = 0, frame = 16
 842              		@ frame_needed = 0, uses_anonymous_args = 0
 843 0000 00B5     		push	{lr}
 844              		.cfi_def_cfa_offset 4
 845              		.cfi_offset 14, -4
 846 0002 85B0     		sub	sp, sp, #20
 847              		.cfi_def_cfa_offset 24
 848 0004 0190     		str	r0, [sp, #4]
 849              		.loc 8 68 0
 850 0006 1B4B     		ldr	r3, .L69
 851 0008 1B68     		ldr	r3, [r3]
 852 000a 0393     		str	r3, [sp, #12]
 853              		.loc 8 70 0
 854 000c 019B     		ldr	r3, [sp, #4]
 855 000e 0122     		movs	r2, #1
ARM GAS  C:\Users\PCHAUT~1\AppData\Local\Temp\ccb46Zni.s 			page 16


 856 0010 1A70     		strb	r2, [r3]
 857              		.loc 8 71 0
 858 0012 019B     		ldr	r3, [sp, #4]
 859 0014 0022     		movs	r2, #0
 860 0016 5A60     		str	r2, [r3, #4]
 861              		.loc 8 72 0
 862 0018 019B     		ldr	r3, [sp, #4]
 863 001a 0833     		adds	r3, r3, #8
 864 001c 1846     		mov	r0, r3
 865 001e FFF7FEFF 		bl	osalThreadQueueObjectInit
 866              		.loc 8 73 0
 867 0022 019B     		ldr	r3, [sp, #4]
 868 0024 1033     		adds	r3, r3, #16
 869 0026 1846     		mov	r0, r3
 870 0028 FFF7FEFF 		bl	osalThreadQueueObjectInit
 871              		.loc 8 74 0
 872 002c 019B     		ldr	r3, [sp, #4]
 873 002e 1833     		adds	r3, r3, #24
 874 0030 1846     		mov	r0, r3
 875 0032 FFF7FEFF 		bl	osalEventObjectInit
 876              		.loc 8 75 0
 877 0036 019B     		ldr	r3, [sp, #4]
 878 0038 1C33     		adds	r3, r3, #28
 879 003a 1846     		mov	r0, r3
 880 003c FFF7FEFF 		bl	osalEventObjectInit
 881              		.loc 8 76 0
 882 0040 019B     		ldr	r3, [sp, #4]
 883 0042 2033     		adds	r3, r3, #32
 884 0044 1846     		mov	r0, r3
 885 0046 FFF7FEFF 		bl	osalEventObjectInit
 886              		.loc 8 78 0
 887 004a 019B     		ldr	r3, [sp, #4]
 888 004c 2433     		adds	r3, r3, #36
 889 004e 1846     		mov	r0, r3
 890 0050 FFF7FEFF 		bl	osalEventObjectInit
 891              		.loc 8 79 0
 892 0054 019B     		ldr	r3, [sp, #4]
 893 0056 2833     		adds	r3, r3, #40
 894 0058 1846     		mov	r0, r3
 895 005a FFF7FEFF 		bl	osalEventObjectInit
 896              		.loc 8 81 0
 897 005e 00BF     		nop
 898 0060 044B     		ldr	r3, .L69
 899 0062 039A     		ldr	r2, [sp, #12]
 900 0064 1B68     		ldr	r3, [r3]
 901 0066 9A42     		cmp	r2, r3
 902 0068 01D0     		beq	.L68
 903 006a FFF7FEFF 		bl	__stack_chk_fail
 904              	.L68:
 905 006e 05B0     		add	sp, sp, #20
 906              		.cfi_def_cfa_offset 4
 907              		@ sp needed
 908 0070 5DF804FB 		ldr	pc, [sp], #4
 909              	.L70:
 910              		.align	2
 911              	.L69:
 912 0074 00000000 		.word	__stack_chk_guard
ARM GAS  C:\Users\PCHAUT~1\AppData\Local\Temp\ccb46Zni.s 			page 17


 913              		.cfi_endproc
 914              	.LFE257:
 915              		.size	canObjectInit, .-canObjectInit
 916              		.section	.text.canStart,"ax",%progbits
 917              		.align	1
 918              		.p2align 4,,15
 919              		.global	canStart
 920              		.syntax unified
 921              		.thumb
 922              		.thumb_func
 923              		.fpu fpv4-sp-d16
 924              		.type	canStart, %function
 925              	canStart:
 926              	.LFB258:
 927              		.loc 8 95 0
 928              		.cfi_startproc
 929              		@ args = 0, pretend = 0, frame = 16
 930              		@ frame_needed = 0, uses_anonymous_args = 0
 931 0000 00B5     		push	{lr}
 932              		.cfi_def_cfa_offset 4
 933              		.cfi_offset 14, -4
 934 0002 85B0     		sub	sp, sp, #20
 935              		.cfi_def_cfa_offset 24
 936 0004 0190     		str	r0, [sp, #4]
 937 0006 0091     		str	r1, [sp]
 938              		.loc 8 95 0
 939 0008 154B     		ldr	r3, .L75
 940 000a 1B68     		ldr	r3, [r3]
 941 000c 0393     		str	r3, [sp, #12]
 942              		.loc 8 97 0
 943 000e 019B     		ldr	r3, [sp, #4]
 944 0010 002B     		cmp	r3, #0
 945 0012 02D1     		bne	.L72
 946              		.loc 8 97 0 is_stmt 0 discriminator 2
 947 0014 1348     		ldr	r0, .L75+4
 948 0016 FFF7FEFF 		bl	chSysHalt
 949              	.L72:
 950              		.loc 8 99 0 is_stmt 1
 951 001a FFF7FEFF 		bl	osalSysLock
 952              		.loc 8 100 0
 953 001e 019B     		ldr	r3, [sp, #4]
 954 0020 1B78     		ldrb	r3, [r3]	@ zero_extendqisi2
 955 0022 012B     		cmp	r3, #1
 956 0024 02D0     		beq	.L73
 957              		.loc 8 100 0 is_stmt 0 discriminator 2
 958 0026 0F48     		ldr	r0, .L75+4
 959 0028 FFF7FEFF 		bl	chSysHalt
 960              	.L73:
 961              		.loc 8 103 0 is_stmt 1
 962 002c 019B     		ldr	r3, [sp, #4]
 963 002e 0222     		movs	r2, #2
 964 0030 1A70     		strb	r2, [r3]
 965              		.loc 8 104 0
 966 0032 019B     		ldr	r3, [sp, #4]
 967 0034 009A     		ldr	r2, [sp]
 968 0036 5A60     		str	r2, [r3, #4]
 969              		.loc 8 108 0
ARM GAS  C:\Users\PCHAUT~1\AppData\Local\Temp\ccb46Zni.s 			page 18


 970 0038 0198     		ldr	r0, [sp, #4]
 971 003a FFF7FEFF 		bl	can_lld_start
 972              		.loc 8 111 0
 973 003e 019B     		ldr	r3, [sp, #4]
 974 0040 0322     		movs	r2, #3
 975 0042 1A70     		strb	r2, [r3]
 976              		.loc 8 112 0
 977 0044 FFF7FEFF 		bl	osalSysUnlock
 978              		.loc 8 113 0
 979 0048 00BF     		nop
 980 004a 054B     		ldr	r3, .L75
 981 004c 039A     		ldr	r2, [sp, #12]
 982 004e 1B68     		ldr	r3, [r3]
 983 0050 9A42     		cmp	r2, r3
 984 0052 01D0     		beq	.L74
 985 0054 FFF7FEFF 		bl	__stack_chk_fail
 986              	.L74:
 987 0058 05B0     		add	sp, sp, #20
 988              		.cfi_def_cfa_offset 4
 989              		@ sp needed
 990 005a 5DF804FB 		ldr	pc, [sp], #4
 991              	.L76:
 992 005e 00BF     		.align	2
 993              	.L75:
 994 0060 00000000 		.word	__stack_chk_guard
 995 0064 00000000 		.word	__func__.9848
 996              		.cfi_endproc
 997              	.LFE258:
 998              		.size	canStart, .-canStart
 999              		.section	.text.canStop,"ax",%progbits
 1000              		.align	1
 1001              		.p2align 4,,15
 1002              		.global	canStop
 1003              		.syntax unified
 1004              		.thumb
 1005              		.thumb_func
 1006              		.fpu fpv4-sp-d16
 1007              		.type	canStop, %function
 1008              	canStop:
 1009              	.LFB259:
 1010              		.loc 8 122 0
 1011              		.cfi_startproc
 1012              		@ args = 0, pretend = 0, frame = 16
 1013              		@ frame_needed = 0, uses_anonymous_args = 0
 1014 0000 00B5     		push	{lr}
 1015              		.cfi_def_cfa_offset 4
 1016              		.cfi_offset 14, -4
 1017 0002 85B0     		sub	sp, sp, #20
 1018              		.cfi_def_cfa_offset 24
 1019 0004 0190     		str	r0, [sp, #4]
 1020              		.loc 8 122 0
 1021 0006 1C4B     		ldr	r3, .L81
 1022 0008 1B68     		ldr	r3, [r3]
 1023 000a 0393     		str	r3, [sp, #12]
 1024              		.loc 8 124 0
 1025 000c 019B     		ldr	r3, [sp, #4]
 1026 000e 002B     		cmp	r3, #0
ARM GAS  C:\Users\PCHAUT~1\AppData\Local\Temp\ccb46Zni.s 			page 19


 1027 0010 02D1     		bne	.L78
 1028              		.loc 8 124 0 is_stmt 0 discriminator 2
 1029 0012 1A48     		ldr	r0, .L81+4
 1030 0014 FFF7FEFF 		bl	chSysHalt
 1031              	.L78:
 1032              		.loc 8 126 0 is_stmt 1
 1033 0018 FFF7FEFF 		bl	osalSysLock
 1034              		.loc 8 127 0
 1035 001c 019B     		ldr	r3, [sp, #4]
 1036 001e 1B78     		ldrb	r3, [r3]	@ zero_extendqisi2
 1037 0020 012B     		cmp	r3, #1
 1038 0022 06D0     		beq	.L79
 1039              		.loc 8 127 0 is_stmt 0 discriminator 2
 1040 0024 019B     		ldr	r3, [sp, #4]
 1041 0026 1B78     		ldrb	r3, [r3]	@ zero_extendqisi2
 1042 0028 032B     		cmp	r3, #3
 1043 002a 02D0     		beq	.L79
 1044              		.loc 8 127 0 discriminator 3
 1045 002c 1348     		ldr	r0, .L81+4
 1046 002e FFF7FEFF 		bl	chSysHalt
 1047              	.L79:
 1048              		.loc 8 131 0 is_stmt 1
 1049 0032 0198     		ldr	r0, [sp, #4]
 1050 0034 FFF7FEFF 		bl	can_lld_stop
 1051              		.loc 8 132 0
 1052 0038 019B     		ldr	r3, [sp, #4]
 1053 003a 0122     		movs	r2, #1
 1054 003c 1A70     		strb	r2, [r3]
 1055              		.loc 8 136 0
 1056 003e 019B     		ldr	r3, [sp, #4]
 1057 0040 1033     		adds	r3, r3, #16
 1058 0042 6FF00101 		mvn	r1, #1
 1059 0046 1846     		mov	r0, r3
 1060 0048 FFF7FEFF 		bl	osalThreadDequeueAllI
 1061              		.loc 8 137 0
 1062 004c 019B     		ldr	r3, [sp, #4]
 1063 004e 0833     		adds	r3, r3, #8
 1064 0050 6FF00101 		mvn	r1, #1
 1065 0054 1846     		mov	r0, r3
 1066 0056 FFF7FEFF 		bl	osalThreadDequeueAllI
 1067              		.loc 8 138 0
 1068 005a FFF7FEFF 		bl	osalOsRescheduleS
 1069              		.loc 8 139 0
 1070 005e FFF7FEFF 		bl	osalSysUnlock
 1071              		.loc 8 140 0
 1072 0062 00BF     		nop
 1073 0064 044B     		ldr	r3, .L81
 1074 0066 039A     		ldr	r2, [sp, #12]
 1075 0068 1B68     		ldr	r3, [r3]
 1076 006a 9A42     		cmp	r2, r3
 1077 006c 01D0     		beq	.L80
 1078 006e FFF7FEFF 		bl	__stack_chk_fail
 1079              	.L80:
 1080 0072 05B0     		add	sp, sp, #20
 1081              		.cfi_def_cfa_offset 4
 1082              		@ sp needed
 1083 0074 5DF804FB 		ldr	pc, [sp], #4
ARM GAS  C:\Users\PCHAUT~1\AppData\Local\Temp\ccb46Zni.s 			page 20


 1084              	.L82:
 1085              		.align	2
 1086              	.L81:
 1087 0078 00000000 		.word	__stack_chk_guard
 1088 007c 00000000 		.word	__func__.9852
 1089              		.cfi_endproc
 1090              	.LFE259:
 1091              		.size	canStop, .-canStop
 1092              		.section	.text.canTransmit,"ax",%progbits
 1093              		.align	1
 1094              		.p2align 4,,15
 1095              		.global	canTransmit
 1096              		.syntax unified
 1097              		.thumb
 1098              		.thumb_func
 1099              		.fpu fpv4-sp-d16
 1100              		.type	canTransmit, %function
 1101              	canTransmit:
 1102              	.LFB260:
 1103              		.loc 8 166 0
 1104              		.cfi_startproc
 1105              		@ args = 0, pretend = 0, frame = 24
 1106              		@ frame_needed = 0, uses_anonymous_args = 0
 1107 0000 00B5     		push	{lr}
 1108              		.cfi_def_cfa_offset 4
 1109              		.cfi_offset 14, -4
 1110 0002 87B0     		sub	sp, sp, #28
 1111              		.cfi_def_cfa_offset 32
 1112 0004 0390     		str	r0, [sp, #12]
 1113 0006 0291     		str	r1, [sp, #8]
 1114 0008 0192     		str	r2, [sp, #4]
 1115 000a 0093     		str	r3, [sp]
 1116              		.loc 8 166 0
 1117 000c 254B     		ldr	r3, .L91
 1118 000e 1B68     		ldr	r3, [r3]
 1119 0010 0593     		str	r3, [sp, #20]
 1120              		.loc 8 168 0
 1121 0012 039B     		ldr	r3, [sp, #12]
 1122 0014 002B     		cmp	r3, #0
 1123 0016 05D0     		beq	.L84
 1124              		.loc 8 168 0 is_stmt 0 discriminator 3
 1125 0018 019B     		ldr	r3, [sp, #4]
 1126 001a 002B     		cmp	r3, #0
 1127 001c 02D0     		beq	.L84
 1128              		.loc 8 168 0 discriminator 5
 1129 001e 029B     		ldr	r3, [sp, #8]
 1130 0020 032B     		cmp	r3, #3
 1131 0022 02D9     		bls	.L85
 1132              	.L84:
 1133              		.loc 8 168 0 discriminator 6
 1134 0024 2048     		ldr	r0, .L91+4
 1135 0026 FFF7FEFF 		bl	chSysHalt
 1136              	.L85:
 1137              		.loc 8 171 0 is_stmt 1
 1138 002a FFF7FEFF 		bl	osalSysLock
 1139              		.loc 8 172 0
 1140 002e 039B     		ldr	r3, [sp, #12]
ARM GAS  C:\Users\PCHAUT~1\AppData\Local\Temp\ccb46Zni.s 			page 21


 1141 0030 1B78     		ldrb	r3, [r3]	@ zero_extendqisi2
 1142 0032 032B     		cmp	r3, #3
 1143 0034 15D0     		beq	.L87
 1144              		.loc 8 172 0 is_stmt 0 discriminator 2
 1145 0036 039B     		ldr	r3, [sp, #12]
 1146 0038 1B78     		ldrb	r3, [r3]	@ zero_extendqisi2
 1147 003a 042B     		cmp	r3, #4
 1148 003c 11D0     		beq	.L87
 1149              		.loc 8 172 0 discriminator 3
 1150 003e 1A48     		ldr	r0, .L91+4
 1151 0040 FFF7FEFF 		bl	chSysHalt
 1152              		.loc 8 175 0 is_stmt 1 discriminator 3
 1153 0044 0DE0     		b	.L87
 1154              	.L89:
 1155              	.LBB10:
 1156              		.loc 8 177 0
 1157 0046 039B     		ldr	r3, [sp, #12]
 1158 0048 0833     		adds	r3, r3, #8
 1159 004a 0099     		ldr	r1, [sp]
 1160 004c 1846     		mov	r0, r3
 1161 004e FFF7FEFF 		bl	osalThreadEnqueueTimeoutS
 1162 0052 0490     		str	r0, [sp, #16]
 1163              		.loc 8 178 0
 1164 0054 049B     		ldr	r3, [sp, #16]
 1165 0056 002B     		cmp	r3, #0
 1166 0058 03D0     		beq	.L87
 1167              		.loc 8 179 0
 1168 005a FFF7FEFF 		bl	osalSysUnlock
 1169              		.loc 8 180 0
 1170 005e 049B     		ldr	r3, [sp, #16]
 1171 0060 15E0     		b	.L88
 1172              	.L87:
 1173              	.LBE10:
 1174              		.loc 8 175 0
 1175 0062 039B     		ldr	r3, [sp, #12]
 1176 0064 1B78     		ldrb	r3, [r3]	@ zero_extendqisi2
 1177 0066 042B     		cmp	r3, #4
 1178 0068 EDD0     		beq	.L89
 1179              		.loc 8 175 0 is_stmt 0 discriminator 1
 1180 006a 0299     		ldr	r1, [sp, #8]
 1181 006c 0398     		ldr	r0, [sp, #12]
 1182 006e FFF7FEFF 		bl	can_lld_is_tx_empty
 1183 0072 0346     		mov	r3, r0
 1184 0074 83F00103 		eor	r3, r3, #1
 1185 0078 DBB2     		uxtb	r3, r3
 1186 007a 002B     		cmp	r3, #0
 1187 007c E3D1     		bne	.L89
 1188              		.loc 8 183 0 is_stmt 1
 1189 007e 019A     		ldr	r2, [sp, #4]
 1190 0080 0299     		ldr	r1, [sp, #8]
 1191 0082 0398     		ldr	r0, [sp, #12]
 1192 0084 FFF7FEFF 		bl	can_lld_transmit
 1193              		.loc 8 184 0
 1194 0088 FFF7FEFF 		bl	osalSysUnlock
 1195              		.loc 8 185 0
 1196 008c 0023     		movs	r3, #0
 1197              	.L88:
ARM GAS  C:\Users\PCHAUT~1\AppData\Local\Temp\ccb46Zni.s 			page 22


 1198              		.loc 8 186 0
 1199 008e 1846     		mov	r0, r3
 1200 0090 044B     		ldr	r3, .L91
 1201 0092 059A     		ldr	r2, [sp, #20]
 1202 0094 1B68     		ldr	r3, [r3]
 1203 0096 9A42     		cmp	r2, r3
 1204 0098 01D0     		beq	.L90
 1205 009a FFF7FEFF 		bl	__stack_chk_fail
 1206              	.L90:
 1207 009e 07B0     		add	sp, sp, #28
 1208              		.cfi_def_cfa_offset 4
 1209              		@ sp needed
 1210 00a0 5DF804FB 		ldr	pc, [sp], #4
 1211              	.L92:
 1212              		.align	2
 1213              	.L91:
 1214 00a4 00000000 		.word	__stack_chk_guard
 1215 00a8 00000000 		.word	__func__.9859
 1216              		.cfi_endproc
 1217              	.LFE260:
 1218              		.size	canTransmit, .-canTransmit
 1219              		.section	.text.canReceive,"ax",%progbits
 1220              		.align	1
 1221              		.p2align 4,,15
 1222              		.global	canReceive
 1223              		.syntax unified
 1224              		.thumb
 1225              		.thumb_func
 1226              		.fpu fpv4-sp-d16
 1227              		.type	canReceive, %function
 1228              	canReceive:
 1229              	.LFB261:
 1230              		.loc 8 213 0
 1231              		.cfi_startproc
 1232              		@ args = 0, pretend = 0, frame = 24
 1233              		@ frame_needed = 0, uses_anonymous_args = 0
 1234 0000 00B5     		push	{lr}
 1235              		.cfi_def_cfa_offset 4
 1236              		.cfi_offset 14, -4
 1237 0002 87B0     		sub	sp, sp, #28
 1238              		.cfi_def_cfa_offset 32
 1239 0004 0390     		str	r0, [sp, #12]
 1240 0006 0291     		str	r1, [sp, #8]
 1241 0008 0192     		str	r2, [sp, #4]
 1242 000a 0093     		str	r3, [sp]
 1243              		.loc 8 213 0
 1244 000c 254B     		ldr	r3, .L101
 1245 000e 1B68     		ldr	r3, [r3]
 1246 0010 0593     		str	r3, [sp, #20]
 1247              		.loc 8 215 0
 1248 0012 039B     		ldr	r3, [sp, #12]
 1249 0014 002B     		cmp	r3, #0
 1250 0016 05D0     		beq	.L94
 1251              		.loc 8 215 0 is_stmt 0 discriminator 3
 1252 0018 019B     		ldr	r3, [sp, #4]
 1253 001a 002B     		cmp	r3, #0
 1254 001c 02D0     		beq	.L94
ARM GAS  C:\Users\PCHAUT~1\AppData\Local\Temp\ccb46Zni.s 			page 23


 1255              		.loc 8 215 0 discriminator 5
 1256 001e 029B     		ldr	r3, [sp, #8]
 1257 0020 022B     		cmp	r3, #2
 1258 0022 02D9     		bls	.L95
 1259              	.L94:
 1260              		.loc 8 215 0 discriminator 6
 1261 0024 2048     		ldr	r0, .L101+4
 1262 0026 FFF7FEFF 		bl	chSysHalt
 1263              	.L95:
 1264              		.loc 8 218 0 is_stmt 1
 1265 002a FFF7FEFF 		bl	osalSysLock
 1266              		.loc 8 219 0
 1267 002e 039B     		ldr	r3, [sp, #12]
 1268 0030 1B78     		ldrb	r3, [r3]	@ zero_extendqisi2
 1269 0032 032B     		cmp	r3, #3
 1270 0034 15D0     		beq	.L97
 1271              		.loc 8 219 0 is_stmt 0 discriminator 2
 1272 0036 039B     		ldr	r3, [sp, #12]
 1273 0038 1B78     		ldrb	r3, [r3]	@ zero_extendqisi2
 1274 003a 042B     		cmp	r3, #4
 1275 003c 11D0     		beq	.L97
 1276              		.loc 8 219 0 discriminator 3
 1277 003e 1A48     		ldr	r0, .L101+4
 1278 0040 FFF7FEFF 		bl	chSysHalt
 1279              		.loc 8 222 0 is_stmt 1 discriminator 3
 1280 0044 0DE0     		b	.L97
 1281              	.L99:
 1282              	.LBB11:
 1283              		.loc 8 224 0
 1284 0046 039B     		ldr	r3, [sp, #12]
 1285 0048 1033     		adds	r3, r3, #16
 1286 004a 0099     		ldr	r1, [sp]
 1287 004c 1846     		mov	r0, r3
 1288 004e FFF7FEFF 		bl	osalThreadEnqueueTimeoutS
 1289 0052 0490     		str	r0, [sp, #16]
 1290              		.loc 8 225 0
 1291 0054 049B     		ldr	r3, [sp, #16]
 1292 0056 002B     		cmp	r3, #0
 1293 0058 03D0     		beq	.L97
 1294              		.loc 8 226 0
 1295 005a FFF7FEFF 		bl	osalSysUnlock
 1296              		.loc 8 227 0
 1297 005e 049B     		ldr	r3, [sp, #16]
 1298 0060 15E0     		b	.L98
 1299              	.L97:
 1300              	.LBE11:
 1301              		.loc 8 222 0
 1302 0062 039B     		ldr	r3, [sp, #12]
 1303 0064 1B78     		ldrb	r3, [r3]	@ zero_extendqisi2
 1304 0066 042B     		cmp	r3, #4
 1305 0068 EDD0     		beq	.L99
 1306              		.loc 8 222 0 is_stmt 0 discriminator 1
 1307 006a 0299     		ldr	r1, [sp, #8]
 1308 006c 0398     		ldr	r0, [sp, #12]
 1309 006e FFF7FEFF 		bl	can_lld_is_rx_nonempty
 1310 0072 0346     		mov	r3, r0
 1311 0074 83F00103 		eor	r3, r3, #1
ARM GAS  C:\Users\PCHAUT~1\AppData\Local\Temp\ccb46Zni.s 			page 24


 1312 0078 DBB2     		uxtb	r3, r3
 1313 007a 002B     		cmp	r3, #0
 1314 007c E3D1     		bne	.L99
 1315              		.loc 8 230 0 is_stmt 1
 1316 007e 019A     		ldr	r2, [sp, #4]
 1317 0080 0299     		ldr	r1, [sp, #8]
 1318 0082 0398     		ldr	r0, [sp, #12]
 1319 0084 FFF7FEFF 		bl	can_lld_receive
 1320              		.loc 8 231 0
 1321 0088 FFF7FEFF 		bl	osalSysUnlock
 1322              		.loc 8 232 0
 1323 008c 0023     		movs	r3, #0
 1324              	.L98:
 1325              		.loc 8 233 0
 1326 008e 1846     		mov	r0, r3
 1327 0090 044B     		ldr	r3, .L101
 1328 0092 059A     		ldr	r2, [sp, #20]
 1329 0094 1B68     		ldr	r3, [r3]
 1330 0096 9A42     		cmp	r2, r3
 1331 0098 01D0     		beq	.L100
 1332 009a FFF7FEFF 		bl	__stack_chk_fail
 1333              	.L100:
 1334 009e 07B0     		add	sp, sp, #28
 1335              		.cfi_def_cfa_offset 4
 1336              		@ sp needed
 1337 00a0 5DF804FB 		ldr	pc, [sp], #4
 1338              	.L102:
 1339              		.align	2
 1340              	.L101:
 1341 00a4 00000000 		.word	__stack_chk_guard
 1342 00a8 00000000 		.word	__func__.9870
 1343              		.cfi_endproc
 1344              	.LFE261:
 1345              		.size	canReceive, .-canReceive
 1346              		.section	.text.canSleep,"ax",%progbits
 1347              		.align	1
 1348              		.p2align 4,,15
 1349              		.global	canSleep
 1350              		.syntax unified
 1351              		.thumb
 1352              		.thumb_func
 1353              		.fpu fpv4-sp-d16
 1354              		.type	canSleep, %function
 1355              	canSleep:
 1356              	.LFB262:
 1357              		.loc 8 248 0
 1358              		.cfi_startproc
 1359              		@ args = 0, pretend = 0, frame = 16
 1360              		@ frame_needed = 0, uses_anonymous_args = 0
 1361 0000 00B5     		push	{lr}
 1362              		.cfi_def_cfa_offset 4
 1363              		.cfi_offset 14, -4
 1364 0002 85B0     		sub	sp, sp, #20
 1365              		.cfi_def_cfa_offset 24
 1366 0004 0190     		str	r0, [sp, #4]
 1367              		.loc 8 248 0
 1368 0006 1A4B     		ldr	r3, .L108
ARM GAS  C:\Users\PCHAUT~1\AppData\Local\Temp\ccb46Zni.s 			page 25


 1369 0008 1B68     		ldr	r3, [r3]
 1370 000a 0393     		str	r3, [sp, #12]
 1371              		.loc 8 250 0
 1372 000c 019B     		ldr	r3, [sp, #4]
 1373 000e 002B     		cmp	r3, #0
 1374 0010 02D1     		bne	.L104
 1375              		.loc 8 250 0 is_stmt 0 discriminator 2
 1376 0012 1848     		ldr	r0, .L108+4
 1377 0014 FFF7FEFF 		bl	chSysHalt
 1378              	.L104:
 1379              		.loc 8 252 0 is_stmt 1
 1380 0018 FFF7FEFF 		bl	osalSysLock
 1381              		.loc 8 253 0
 1382 001c 019B     		ldr	r3, [sp, #4]
 1383 001e 1B78     		ldrb	r3, [r3]	@ zero_extendqisi2
 1384 0020 032B     		cmp	r3, #3
 1385 0022 06D0     		beq	.L105
 1386              		.loc 8 253 0 is_stmt 0 discriminator 2
 1387 0024 019B     		ldr	r3, [sp, #4]
 1388 0026 1B78     		ldrb	r3, [r3]	@ zero_extendqisi2
 1389 0028 042B     		cmp	r3, #4
 1390 002a 02D0     		beq	.L105
 1391              		.loc 8 253 0 discriminator 3
 1392 002c 1148     		ldr	r0, .L108+4
 1393 002e FFF7FEFF 		bl	chSysHalt
 1394              	.L105:
 1395              		.loc 8 255 0 is_stmt 1
 1396 0032 019B     		ldr	r3, [sp, #4]
 1397 0034 1B78     		ldrb	r3, [r3]	@ zero_extendqisi2
 1398 0036 032B     		cmp	r3, #3
 1399 0038 0DD1     		bne	.L106
 1400              		.loc 8 256 0
 1401 003a 0198     		ldr	r0, [sp, #4]
 1402 003c FFF7FEFF 		bl	can_lld_sleep
 1403              		.loc 8 257 0
 1404 0040 019B     		ldr	r3, [sp, #4]
 1405 0042 0422     		movs	r2, #4
 1406 0044 1A70     		strb	r2, [r3]
 1407              		.loc 8 258 0
 1408 0046 019B     		ldr	r3, [sp, #4]
 1409 0048 2433     		adds	r3, r3, #36
 1410 004a 0021     		movs	r1, #0
 1411 004c 1846     		mov	r0, r3
 1412 004e FFF7FEFF 		bl	osalEventBroadcastFlagsI
 1413              		.loc 8 259 0
 1414 0052 FFF7FEFF 		bl	osalOsRescheduleS
 1415              	.L106:
 1416              		.loc 8 261 0
 1417 0056 FFF7FEFF 		bl	osalSysUnlock
 1418              		.loc 8 262 0
 1419 005a 00BF     		nop
 1420 005c 044B     		ldr	r3, .L108
 1421 005e 039A     		ldr	r2, [sp, #12]
 1422 0060 1B68     		ldr	r3, [r3]
 1423 0062 9A42     		cmp	r2, r3
 1424 0064 01D0     		beq	.L107
 1425 0066 FFF7FEFF 		bl	__stack_chk_fail
ARM GAS  C:\Users\PCHAUT~1\AppData\Local\Temp\ccb46Zni.s 			page 26


 1426              	.L107:
 1427 006a 05B0     		add	sp, sp, #20
 1428              		.cfi_def_cfa_offset 4
 1429              		@ sp needed
 1430 006c 5DF804FB 		ldr	pc, [sp], #4
 1431              	.L109:
 1432              		.align	2
 1433              	.L108:
 1434 0070 00000000 		.word	__stack_chk_guard
 1435 0074 00000000 		.word	__func__.9878
 1436              		.cfi_endproc
 1437              	.LFE262:
 1438              		.size	canSleep, .-canSleep
 1439              		.section	.text.canWakeup,"ax",%progbits
 1440              		.align	1
 1441              		.p2align 4,,15
 1442              		.global	canWakeup
 1443              		.syntax unified
 1444              		.thumb
 1445              		.thumb_func
 1446              		.fpu fpv4-sp-d16
 1447              		.type	canWakeup, %function
 1448              	canWakeup:
 1449              	.LFB263:
 1450              		.loc 8 271 0
 1451              		.cfi_startproc
 1452              		@ args = 0, pretend = 0, frame = 16
 1453              		@ frame_needed = 0, uses_anonymous_args = 0
 1454 0000 00B5     		push	{lr}
 1455              		.cfi_def_cfa_offset 4
 1456              		.cfi_offset 14, -4
 1457 0002 85B0     		sub	sp, sp, #20
 1458              		.cfi_def_cfa_offset 24
 1459 0004 0190     		str	r0, [sp, #4]
 1460              		.loc 8 271 0
 1461 0006 1A4B     		ldr	r3, .L115
 1462 0008 1B68     		ldr	r3, [r3]
 1463 000a 0393     		str	r3, [sp, #12]
 1464              		.loc 8 273 0
 1465 000c 019B     		ldr	r3, [sp, #4]
 1466 000e 002B     		cmp	r3, #0
 1467 0010 02D1     		bne	.L111
 1468              		.loc 8 273 0 is_stmt 0 discriminator 2
 1469 0012 1848     		ldr	r0, .L115+4
 1470 0014 FFF7FEFF 		bl	chSysHalt
 1471              	.L111:
 1472              		.loc 8 275 0 is_stmt 1
 1473 0018 FFF7FEFF 		bl	osalSysLock
 1474              		.loc 8 276 0
 1475 001c 019B     		ldr	r3, [sp, #4]
 1476 001e 1B78     		ldrb	r3, [r3]	@ zero_extendqisi2
 1477 0020 032B     		cmp	r3, #3
 1478 0022 06D0     		beq	.L112
 1479              		.loc 8 276 0 is_stmt 0 discriminator 2
 1480 0024 019B     		ldr	r3, [sp, #4]
 1481 0026 1B78     		ldrb	r3, [r3]	@ zero_extendqisi2
 1482 0028 042B     		cmp	r3, #4
ARM GAS  C:\Users\PCHAUT~1\AppData\Local\Temp\ccb46Zni.s 			page 27


 1483 002a 02D0     		beq	.L112
 1484              		.loc 8 276 0 discriminator 3
 1485 002c 1148     		ldr	r0, .L115+4
 1486 002e FFF7FEFF 		bl	chSysHalt
 1487              	.L112:
 1488              		.loc 8 278 0 is_stmt 1
 1489 0032 019B     		ldr	r3, [sp, #4]
 1490 0034 1B78     		ldrb	r3, [r3]	@ zero_extendqisi2
 1491 0036 042B     		cmp	r3, #4
 1492 0038 0DD1     		bne	.L113
 1493              		.loc 8 279 0
 1494 003a 0198     		ldr	r0, [sp, #4]
 1495 003c FFF7FEFF 		bl	can_lld_wakeup
 1496              		.loc 8 280 0
 1497 0040 019B     		ldr	r3, [sp, #4]
 1498 0042 0322     		movs	r2, #3
 1499 0044 1A70     		strb	r2, [r3]
 1500              		.loc 8 281 0
 1501 0046 019B     		ldr	r3, [sp, #4]
 1502 0048 2833     		adds	r3, r3, #40
 1503 004a 0021     		movs	r1, #0
 1504 004c 1846     		mov	r0, r3
 1505 004e FFF7FEFF 		bl	osalEventBroadcastFlagsI
 1506              		.loc 8 282 0
 1507 0052 FFF7FEFF 		bl	osalOsRescheduleS
 1508              	.L113:
 1509              		.loc 8 284 0
 1510 0056 FFF7FEFF 		bl	osalSysUnlock
 1511              		.loc 8 285 0
 1512 005a 00BF     		nop
 1513 005c 044B     		ldr	r3, .L115
 1514 005e 039A     		ldr	r2, [sp, #12]
 1515 0060 1B68     		ldr	r3, [r3]
 1516 0062 9A42     		cmp	r2, r3
 1517 0064 01D0     		beq	.L114
 1518 0066 FFF7FEFF 		bl	__stack_chk_fail
 1519              	.L114:
 1520 006a 05B0     		add	sp, sp, #20
 1521              		.cfi_def_cfa_offset 4
 1522              		@ sp needed
 1523 006c 5DF804FB 		ldr	pc, [sp], #4
 1524              	.L116:
 1525              		.align	2
 1526              	.L115:
 1527 0070 00000000 		.word	__stack_chk_guard
 1528 0074 00000000 		.word	__func__.9882
 1529              		.cfi_endproc
 1530              	.LFE263:
 1531              		.size	canWakeup, .-canWakeup
 1532              		.section	.rodata.__func__.9848,"a",%progbits
 1533              		.align	2
 1534              		.type	__func__.9848, %object
 1535              		.size	__func__.9848, 9
 1536              	__func__.9848:
 1537 0000 63616E53 		.ascii	"canStart\000"
 1537      74617274 
 1537      00
ARM GAS  C:\Users\PCHAUT~1\AppData\Local\Temp\ccb46Zni.s 			page 28


 1538              		.section	.rodata.__func__.7153,"a",%progbits
 1539              		.align	2
 1540              		.type	__func__.7153, %object
 1541              		.size	__func__.7153, 12
 1542              	__func__.7153:
 1543 0000 63685379 		.ascii	"chSysUnlock\000"
 1543      73556E6C 
 1543      6F636B00 
 1544              		.section	.rodata.__func__.9852,"a",%progbits
 1545              		.align	2
 1546              		.type	__func__.9852, %object
 1547              		.size	__func__.9852, 8
 1548              	__func__.9852:
 1549 0000 63616E53 		.ascii	"canStop\000"
 1549      746F7000 
 1550              		.section	.rodata.__func__.9859,"a",%progbits
 1551              		.align	2
 1552              		.type	__func__.9859, %object
 1553              		.size	__func__.9859, 12
 1554              	__func__.9859:
 1555 0000 63616E54 		.ascii	"canTransmit\000"
 1555      72616E73 
 1555      6D697400 
 1556              		.section	.rodata.__func__.9870,"a",%progbits
 1557              		.align	2
 1558              		.type	__func__.9870, %object
 1559              		.size	__func__.9870, 11
 1560              	__func__.9870:
 1561 0000 63616E52 		.ascii	"canReceive\000"
 1561      65636569 
 1561      766500
 1562              		.section	.rodata.__func__.9878,"a",%progbits
 1563              		.align	2
 1564              		.type	__func__.9878, %object
 1565              		.size	__func__.9878, 9
 1566              	__func__.9878:
 1567 0000 63616E53 		.ascii	"canSleep\000"
 1567      6C656570 
 1567      00
 1568              		.section	.rodata.__func__.9882,"a",%progbits
 1569              		.align	2
 1570              		.type	__func__.9882, %object
 1571              		.size	__func__.9882, 10
 1572              	__func__.9882:
 1573 0000 63616E57 		.ascii	"canWakeup\000"
 1573      616B6575 
 1573      7000
 1574              		.text
 1575              	.Letext0:
 1576              		.file 9 "c:\\users\\pchautems\\documents\\robotiquetp\\eclipse_e-puck2\\tools\\gcc-arm-none-eabi-7
 1577              		.file 10 "c:\\users\\pchautems\\documents\\robotiquetp\\eclipse_e-puck2\\tools\\gcc-arm-none-eabi-
 1578              		.file 11 "c:\\users\\pchautems\\documents\\robotiquetp\\eclipse_e-puck2\\tools\\gcc-arm-none-eabi-
 1579              		.file 12 "../lib/e-puck2_main-processor/ChibiOS//os/rt/ports/ARMCMx/compilers/GCC/chtypes.h"
 1580              		.file 13 "../lib/e-puck2_main-processor/ChibiOS//os/rt/include/chsystypes.h"
 1581              		.file 14 "../lib/e-puck2_main-processor/ChibiOS//os/ext/CMSIS/include/core_cm4.h"
 1582              		.file 15 "../lib/e-puck2_main-processor/ChibiOS//os/ext/CMSIS/ST/system_stm32f4xx.h"
 1583              		.file 16 "../lib/e-puck2_main-processor/ChibiOS//os/ext/CMSIS/ST/stm32f407xx.h"
ARM GAS  C:\Users\PCHAUT~1\AppData\Local\Temp\ccb46Zni.s 			page 29


 1584              		.file 17 "../lib/e-puck2_main-processor/ChibiOS//os/rt/ports/ARMCMx/chcore.h"
 1585              		.file 18 "../lib/e-puck2_main-processor/ChibiOS//os/rt/include/chdebug.h"
 1586              		.file 19 "../lib/e-puck2_main-processor/ChibiOS//os/rt/include/chtm.h"
 1587              		.file 20 "../lib/e-puck2_main-processor/ChibiOS//os/rt/include/chstats.h"
 1588              		.file 21 "../lib/e-puck2_main-processor/ChibiOS//os/rt/include/chsem.h"
 1589              		.file 22 "../lib/e-puck2_main-processor/ChibiOS//os/rt/include/chmtx.h"
 1590              		.file 23 "../lib/e-puck2_main-processor/ChibiOS//os/rt/include/chregistry.h"
 1591              		.file 24 "../lib/e-puck2_main-processor/ChibiOS//os/rt/include/chqueues.h"
 1592              		.file 25 "../lib/e-puck2_main-processor/ChibiOS//os/hal/ports/STM32/STM32F4xx/stm32_dma.h"
 1593              		.file 26 "../lib/e-puck2_main-processor/ChibiOS//os/hal/include/hal_ioblock.h"
 1594              		.file 27 "../lib/e-puck2_main-processor/ChibiOS//os/hal/ports/STM32/LLD/GPIOv2/pal_lld.h"
 1595              		.file 28 "../lib/e-puck2_main-processor/ChibiOS//os/hal/include/adc.h"
 1596              		.file 29 "../lib/e-puck2_main-processor/ChibiOS//os/hal/ports/STM32/STM32F4xx/adc_lld.h"
 1597              		.file 30 "../lib/e-puck2_main-processor/ChibiOS//os/hal/include/can.h"
 1598              		.file 31 "../lib/e-puck2_main-processor/ChibiOS//os/hal/ports/STM32/LLD/can_lld.h"
 1599              		.file 32 "../lib/e-puck2_main-processor/ChibiOS//os/hal/include/dac.h"
 1600              		.file 33 "../lib/e-puck2_main-processor/ChibiOS//os/hal/ports/STM32/LLD/DACv1/dac_lld.h"
 1601              		.file 34 "../lib/e-puck2_main-processor/ChibiOS//os/hal/include/ext.h"
 1602              		.file 35 "../lib/e-puck2_main-processor/ChibiOS//os/hal/ports/STM32/LLD/ext_lld.h"
 1603              		.file 36 "../lib/e-puck2_main-processor/ChibiOS//os/hal/include/gpt.h"
 1604              		.file 37 "../lib/e-puck2_main-processor/ChibiOS//os/hal/ports/STM32/LLD/TIMv1/gpt_lld.h"
 1605              		.file 38 "../lib/e-puck2_main-processor/ChibiOS//os/hal/ports/STM32/LLD/TIMv1/stm32_tim.h"
 1606              		.file 39 "../lib/e-puck2_main-processor/ChibiOS//os/hal/include/i2c.h"
 1607              		.file 40 "../lib/e-puck2_main-processor/ChibiOS//os/hal/ports/STM32/LLD/I2Cv1/i2c_lld.h"
 1608              		.file 41 "../lib/e-puck2_main-processor/ChibiOS//os/hal/include/i2s.h"
 1609              		.file 42 "../lib/e-puck2_main-processor/ChibiOS//os/hal/ports/STM32/LLD/SPIv1/i2s_lld.h"
 1610              		.file 43 "../lib/e-puck2_main-processor/ChibiOS//os/hal/include/pwm.h"
 1611              		.file 44 "../lib/e-puck2_main-processor/ChibiOS//os/hal/ports/STM32/LLD/TIMv1/pwm_lld.h"
 1612              		.file 45 "../lib/e-puck2_main-processor/ChibiOS//os/hal/include/serial.h"
 1613              		.file 46 "../lib/e-puck2_main-processor/ChibiOS//os/hal/ports/STM32/LLD/USARTv1/serial_lld.h"
 1614              		.file 47 "../lib/e-puck2_main-processor/ChibiOS//os/hal/include/sdc.h"
 1615              		.file 48 "../lib/e-puck2_main-processor/ChibiOS//os/hal/ports/STM32/LLD/sdc_lld.h"
 1616              		.file 49 "../lib/e-puck2_main-processor/ChibiOS//os/hal/include/spi.h"
 1617              		.file 50 "../lib/e-puck2_main-processor/ChibiOS//os/hal/ports/STM32/LLD/SPIv1/spi_lld.h"
 1618              		.file 51 "../lib/e-puck2_main-processor/ChibiOS//os/hal/include/usb.h"
 1619              		.file 52 "../lib/e-puck2_main-processor/ChibiOS//os/hal/ports/STM32/LLD/OTGv1/usb_lld.h"
 1620              		.file 53 "../lib/e-puck2_main-processor/ChibiOS//os/hal/ports/STM32/LLD/OTGv1/stm32_otg.h"