ARM GAS  C:\Users\PCHAUT~1\AppData\Local\Temp\ccZi43Pa.s 			page 1


   1              		.cpu cortex-m4
   2              		.eabi_attribute 27, 1
   3              		.eabi_attribute 28, 1
   4              		.eabi_attribute 20, 1
   5              		.eabi_attribute 21, 1
   6              		.eabi_attribute 23, 3
   7              		.eabi_attribute 24, 1
   8              		.eabi_attribute 25, 1
   9              		.eabi_attribute 26, 1
  10              		.eabi_attribute 30, 6
  11              		.eabi_attribute 34, 1
  12              		.eabi_attribute 18, 4
  13              		.file	"chdebug.c"
  14              		.text
  15              	.Ltext0:
  16              		.cfi_sections	.debug_frame
  17              		.section	.text.port_lock,"ax",%progbits
  18              		.align	1
  19              		.p2align 4,,15
  20              		.syntax unified
  21              		.thumb
  22              		.thumb_func
  23              		.fpu fpv4-sp-d16
  24              		.type	port_lock, %function
  25              	port_lock:
  26              	.LFB116:
  27              		.file 1 "../lib/e-puck2_main-processor/ChibiOS//os/rt/ports/ARMCMx/chcore_v7m.h"
  28              		.loc 1 444 0
  29              		.cfi_startproc
  30              		@ args = 0, pretend = 0, frame = 8
  31              		@ frame_needed = 0, uses_anonymous_args = 0
  32 0000 00B5     		push	{lr}
  33              		.cfi_def_cfa_offset 4
  34              		.cfi_offset 14, -4
  35 0002 83B0     		sub	sp, sp, #12
  36              		.cfi_def_cfa_offset 16
  37              		.loc 1 444 0
  38 0004 094B     		ldr	r3, .L3
  39 0006 1B68     		ldr	r3, [r3]
  40 0008 0193     		str	r3, [sp, #4]
  41 000a 2023     		movs	r3, #32
  42 000c 0093     		str	r3, [sp]
  43              	.LBB6:
  44              	.LBB7:
  45              		.file 2 "../lib/e-puck2_main-processor/ChibiOS//os/ext/CMSIS/include/core_cmFunc.h"
  46              		.loc 2 546 0
  47 000e 009B     		ldr	r3, [sp]
  48              		.syntax unified
  49              	@ 546 "../lib/e-puck2_main-processor/ChibiOS//os/ext/CMSIS/include/core_cmFunc.h" 1
  50 0010 83F31188 		MSR basepri, r3
  51              	@ 0 "" 2
  52              		.thumb
  53              		.syntax unified
  54              	.LBE7:
  55              	.LBE6:
  56              		.loc 1 451 0
  57 0014 00BF     		nop
ARM GAS  C:\Users\PCHAUT~1\AppData\Local\Temp\ccZi43Pa.s 			page 2


  58 0016 054B     		ldr	r3, .L3
  59 0018 019A     		ldr	r2, [sp, #4]
  60 001a 1B68     		ldr	r3, [r3]
  61 001c 9A42     		cmp	r2, r3
  62 001e 01D0     		beq	.L2
  63 0020 FFF7FEFF 		bl	__stack_chk_fail
  64              	.L2:
  65 0024 03B0     		add	sp, sp, #12
  66              		.cfi_def_cfa_offset 4
  67              		@ sp needed
  68 0026 5DF804FB 		ldr	pc, [sp], #4
  69              	.L4:
  70 002a 00BF     		.align	2
  71              	.L3:
  72 002c 00000000 		.word	__stack_chk_guard
  73              		.cfi_endproc
  74              	.LFE116:
  75              		.size	port_lock, .-port_lock
  76              		.section	.text.port_unlock,"ax",%progbits
  77              		.align	1
  78              		.p2align 4,,15
  79              		.syntax unified
  80              		.thumb
  81              		.thumb_func
  82              		.fpu fpv4-sp-d16
  83              		.type	port_unlock, %function
  84              	port_unlock:
  85              	.LFB117:
  86              		.loc 1 458 0
  87              		.cfi_startproc
  88              		@ args = 0, pretend = 0, frame = 8
  89              		@ frame_needed = 0, uses_anonymous_args = 0
  90 0000 00B5     		push	{lr}
  91              		.cfi_def_cfa_offset 4
  92              		.cfi_offset 14, -4
  93 0002 83B0     		sub	sp, sp, #12
  94              		.cfi_def_cfa_offset 16
  95              		.loc 1 458 0
  96 0004 094B     		ldr	r3, .L7
  97 0006 1B68     		ldr	r3, [r3]
  98 0008 0193     		str	r3, [sp, #4]
  99 000a 0023     		movs	r3, #0
 100 000c 0093     		str	r3, [sp]
 101              	.LBB8:
 102              	.LBB9:
 103              		.loc 2 546 0
 104 000e 009B     		ldr	r3, [sp]
 105              		.syntax unified
 106              	@ 546 "../lib/e-puck2_main-processor/ChibiOS//os/ext/CMSIS/include/core_cmFunc.h" 1
 107 0010 83F31188 		MSR basepri, r3
 108              	@ 0 "" 2
 109              		.thumb
 110              		.syntax unified
 111              	.LBE9:
 112              	.LBE8:
 113              		.loc 1 465 0
 114 0014 00BF     		nop
ARM GAS  C:\Users\PCHAUT~1\AppData\Local\Temp\ccZi43Pa.s 			page 3


 115 0016 054B     		ldr	r3, .L7
 116 0018 019A     		ldr	r2, [sp, #4]
 117 001a 1B68     		ldr	r3, [r3]
 118 001c 9A42     		cmp	r2, r3
 119 001e 01D0     		beq	.L6
 120 0020 FFF7FEFF 		bl	__stack_chk_fail
 121              	.L6:
 122 0024 03B0     		add	sp, sp, #12
 123              		.cfi_def_cfa_offset 4
 124              		@ sp needed
 125 0026 5DF804FB 		ldr	pc, [sp], #4
 126              	.L8:
 127 002a 00BF     		.align	2
 128              	.L7:
 129 002c 00000000 		.word	__stack_chk_guard
 130              		.cfi_endproc
 131              	.LFE117:
 132              		.size	port_unlock, .-port_unlock
 133              		.section	.text.port_lock_from_isr,"ax",%progbits
 134              		.align	1
 135              		.p2align 4,,15
 136              		.syntax unified
 137              		.thumb
 138              		.thumb_func
 139              		.fpu fpv4-sp-d16
 140              		.type	port_lock_from_isr, %function
 141              	port_lock_from_isr:
 142              	.LFB118:
 143              		.loc 1 473 0
 144              		.cfi_startproc
 145              		@ args = 0, pretend = 0, frame = 8
 146              		@ frame_needed = 0, uses_anonymous_args = 0
 147 0000 00B5     		push	{lr}
 148              		.cfi_def_cfa_offset 4
 149              		.cfi_offset 14, -4
 150 0002 83B0     		sub	sp, sp, #12
 151              		.cfi_def_cfa_offset 16
 152              		.loc 1 473 0
 153 0004 074B     		ldr	r3, .L11
 154 0006 1B68     		ldr	r3, [r3]
 155 0008 0193     		str	r3, [sp, #4]
 156              		.loc 1 475 0
 157 000a FFF7FEFF 		bl	port_lock
 158              		.loc 1 476 0
 159 000e 00BF     		nop
 160 0010 044B     		ldr	r3, .L11
 161 0012 019A     		ldr	r2, [sp, #4]
 162 0014 1B68     		ldr	r3, [r3]
 163 0016 9A42     		cmp	r2, r3
 164 0018 01D0     		beq	.L10
 165 001a FFF7FEFF 		bl	__stack_chk_fail
 166              	.L10:
 167 001e 03B0     		add	sp, sp, #12
 168              		.cfi_def_cfa_offset 4
 169              		@ sp needed
 170 0020 5DF804FB 		ldr	pc, [sp], #4
 171              	.L12:
ARM GAS  C:\Users\PCHAUT~1\AppData\Local\Temp\ccZi43Pa.s 			page 4


 172              		.align	2
 173              	.L11:
 174 0024 00000000 		.word	__stack_chk_guard
 175              		.cfi_endproc
 176              	.LFE118:
 177              		.size	port_lock_from_isr, .-port_lock_from_isr
 178              		.section	.text.port_unlock_from_isr,"ax",%progbits
 179              		.align	1
 180              		.p2align 4,,15
 181              		.syntax unified
 182              		.thumb
 183              		.thumb_func
 184              		.fpu fpv4-sp-d16
 185              		.type	port_unlock_from_isr, %function
 186              	port_unlock_from_isr:
 187              	.LFB119:
 188              		.loc 1 484 0
 189              		.cfi_startproc
 190              		@ args = 0, pretend = 0, frame = 8
 191              		@ frame_needed = 0, uses_anonymous_args = 0
 192 0000 00B5     		push	{lr}
 193              		.cfi_def_cfa_offset 4
 194              		.cfi_offset 14, -4
 195 0002 83B0     		sub	sp, sp, #12
 196              		.cfi_def_cfa_offset 16
 197              		.loc 1 484 0
 198 0004 074B     		ldr	r3, .L15
 199 0006 1B68     		ldr	r3, [r3]
 200 0008 0193     		str	r3, [sp, #4]
 201              		.loc 1 486 0
 202 000a FFF7FEFF 		bl	port_unlock
 203              		.loc 1 487 0
 204 000e 00BF     		nop
 205 0010 044B     		ldr	r3, .L15
 206 0012 019A     		ldr	r2, [sp, #4]
 207 0014 1B68     		ldr	r3, [r3]
 208 0016 9A42     		cmp	r2, r3
 209 0018 01D0     		beq	.L14
 210 001a FFF7FEFF 		bl	__stack_chk_fail
 211              	.L14:
 212 001e 03B0     		add	sp, sp, #12
 213              		.cfi_def_cfa_offset 4
 214              		@ sp needed
 215 0020 5DF804FB 		ldr	pc, [sp], #4
 216              	.L16:
 217              		.align	2
 218              	.L15:
 219 0024 00000000 		.word	__stack_chk_guard
 220              		.cfi_endproc
 221              	.LFE119:
 222              		.size	port_unlock_from_isr, .-port_unlock_from_isr
 223              		.section	.text.chVTGetSystemTimeX,"ax",%progbits
 224              		.align	1
 225              		.p2align 4,,15
 226              		.syntax unified
 227              		.thumb
 228              		.thumb_func
ARM GAS  C:\Users\PCHAUT~1\AppData\Local\Temp\ccZi43Pa.s 			page 5


 229              		.fpu fpv4-sp-d16
 230              		.type	chVTGetSystemTimeX, %function
 231              	chVTGetSystemTimeX:
 232              	.LFB153:
 233              		.file 3 "../lib/e-puck2_main-processor/ChibiOS//os/rt/include/chvt.h"
 234              		.loc 3 228 0
 235              		.cfi_startproc
 236              		@ args = 0, pretend = 0, frame = 8
 237              		@ frame_needed = 0, uses_anonymous_args = 0
 238 0000 00B5     		push	{lr}
 239              		.cfi_def_cfa_offset 4
 240              		.cfi_offset 14, -4
 241 0002 83B0     		sub	sp, sp, #12
 242              		.cfi_def_cfa_offset 16
 243              		.loc 3 228 0
 244 0004 074B     		ldr	r3, .L20
 245 0006 1B68     		ldr	r3, [r3]
 246 0008 0193     		str	r3, [sp, #4]
 247              		.loc 3 231 0
 248 000a 074B     		ldr	r3, .L20+4
 249 000c 9B6A     		ldr	r3, [r3, #40]
 250              		.loc 3 235 0
 251 000e 1846     		mov	r0, r3
 252 0010 044B     		ldr	r3, .L20
 253 0012 019A     		ldr	r2, [sp, #4]
 254 0014 1B68     		ldr	r3, [r3]
 255 0016 9A42     		cmp	r2, r3
 256 0018 01D0     		beq	.L19
 257 001a FFF7FEFF 		bl	__stack_chk_fail
 258              	.L19:
 259 001e 03B0     		add	sp, sp, #12
 260              		.cfi_def_cfa_offset 4
 261              		@ sp needed
 262 0020 5DF804FB 		ldr	pc, [sp], #4
 263              	.L21:
 264              		.align	2
 265              	.L20:
 266 0024 00000000 		.word	__stack_chk_guard
 267 0028 00000000 		.word	ch
 268              		.cfi_endproc
 269              	.LFE153:
 270              		.size	chVTGetSystemTimeX, .-chVTGetSystemTimeX
 271              		.section	.rodata
 272              		.align	2
 273              	.LC0:
 274 0000 53562331 		.ascii	"SV#1\000"
 274      00
 275              		.section	.text._dbg_check_disable,"ax",%progbits
 276              		.align	1
 277              		.p2align 4,,15
 278              		.global	_dbg_check_disable
 279              		.syntax unified
 280              		.thumb
 281              		.thumb_func
 282              		.fpu fpv4-sp-d16
 283              		.type	_dbg_check_disable, %function
 284              	_dbg_check_disable:
ARM GAS  C:\Users\PCHAUT~1\AppData\Local\Temp\ccZi43Pa.s 			page 6


 285              	.LFB219:
 286              		.file 4 "../lib/e-puck2_main-processor/ChibiOS//os/rt/src/chdebug.c"
 287              		.loc 4 114 0
 288              		.cfi_startproc
 289              		@ args = 0, pretend = 0, frame = 8
 290              		@ frame_needed = 0, uses_anonymous_args = 0
 291 0000 00B5     		push	{lr}
 292              		.cfi_def_cfa_offset 4
 293              		.cfi_offset 14, -4
 294 0002 83B0     		sub	sp, sp, #12
 295              		.cfi_def_cfa_offset 16
 296              		.loc 4 114 0
 297 0004 0C4B     		ldr	r3, .L27
 298 0006 1B68     		ldr	r3, [r3]
 299 0008 0193     		str	r3, [sp, #4]
 300              		.loc 4 116 0
 301 000a 0C4B     		ldr	r3, .L27+4
 302 000c 1B6B     		ldr	r3, [r3, #48]
 303 000e 002B     		cmp	r3, #0
 304 0010 03D1     		bne	.L23
 305              		.loc 4 116 0 is_stmt 0 discriminator 1
 306 0012 0A4B     		ldr	r3, .L27+4
 307 0014 5B6B     		ldr	r3, [r3, #52]
 308 0016 002B     		cmp	r3, #0
 309 0018 02D0     		beq	.L26
 310              	.L23:
 311              		.loc 4 117 0 is_stmt 1
 312 001a 0948     		ldr	r0, .L27+8
 313 001c FFF7FEFF 		bl	chSysHalt
 314              	.L26:
 315              		.loc 4 119 0
 316 0020 00BF     		nop
 317 0022 054B     		ldr	r3, .L27
 318 0024 019A     		ldr	r2, [sp, #4]
 319 0026 1B68     		ldr	r3, [r3]
 320 0028 9A42     		cmp	r2, r3
 321 002a 01D0     		beq	.L25
 322 002c FFF7FEFF 		bl	__stack_chk_fail
 323              	.L25:
 324 0030 03B0     		add	sp, sp, #12
 325              		.cfi_def_cfa_offset 4
 326              		@ sp needed
 327 0032 5DF804FB 		ldr	pc, [sp], #4
 328              	.L28:
 329 0036 00BF     		.align	2
 330              	.L27:
 331 0038 00000000 		.word	__stack_chk_guard
 332 003c 00000000 		.word	ch
 333 0040 00000000 		.word	.LC0
 334              		.cfi_endproc
 335              	.LFE219:
 336              		.size	_dbg_check_disable, .-_dbg_check_disable
 337              		.section	.rodata
 338 0005 000000   		.align	2
 339              	.LC1:
 340 0008 53562332 		.ascii	"SV#2\000"
 340      00
ARM GAS  C:\Users\PCHAUT~1\AppData\Local\Temp\ccZi43Pa.s 			page 7


 341              		.section	.text._dbg_check_suspend,"ax",%progbits
 342              		.align	1
 343              		.p2align 4,,15
 344              		.global	_dbg_check_suspend
 345              		.syntax unified
 346              		.thumb
 347              		.thumb_func
 348              		.fpu fpv4-sp-d16
 349              		.type	_dbg_check_suspend, %function
 350              	_dbg_check_suspend:
 351              	.LFB220:
 352              		.loc 4 126 0
 353              		.cfi_startproc
 354              		@ args = 0, pretend = 0, frame = 8
 355              		@ frame_needed = 0, uses_anonymous_args = 0
 356 0000 00B5     		push	{lr}
 357              		.cfi_def_cfa_offset 4
 358              		.cfi_offset 14, -4
 359 0002 83B0     		sub	sp, sp, #12
 360              		.cfi_def_cfa_offset 16
 361              		.loc 4 126 0
 362 0004 0C4B     		ldr	r3, .L34
 363 0006 1B68     		ldr	r3, [r3]
 364 0008 0193     		str	r3, [sp, #4]
 365              		.loc 4 128 0
 366 000a 0C4B     		ldr	r3, .L34+4
 367 000c 1B6B     		ldr	r3, [r3, #48]
 368 000e 002B     		cmp	r3, #0
 369 0010 03D1     		bne	.L30
 370              		.loc 4 128 0 is_stmt 0 discriminator 1
 371 0012 0A4B     		ldr	r3, .L34+4
 372 0014 5B6B     		ldr	r3, [r3, #52]
 373 0016 002B     		cmp	r3, #0
 374 0018 02D0     		beq	.L33
 375              	.L30:
 376              		.loc 4 129 0 is_stmt 1
 377 001a 0948     		ldr	r0, .L34+8
 378 001c FFF7FEFF 		bl	chSysHalt
 379              	.L33:
 380              		.loc 4 131 0
 381 0020 00BF     		nop
 382 0022 054B     		ldr	r3, .L34
 383 0024 019A     		ldr	r2, [sp, #4]
 384 0026 1B68     		ldr	r3, [r3]
 385 0028 9A42     		cmp	r2, r3
 386 002a 01D0     		beq	.L32
 387 002c FFF7FEFF 		bl	__stack_chk_fail
 388              	.L32:
 389 0030 03B0     		add	sp, sp, #12
 390              		.cfi_def_cfa_offset 4
 391              		@ sp needed
 392 0032 5DF804FB 		ldr	pc, [sp], #4
 393              	.L35:
 394 0036 00BF     		.align	2
 395              	.L34:
 396 0038 00000000 		.word	__stack_chk_guard
 397 003c 00000000 		.word	ch
ARM GAS  C:\Users\PCHAUT~1\AppData\Local\Temp\ccZi43Pa.s 			page 8


 398 0040 08000000 		.word	.LC1
 399              		.cfi_endproc
 400              	.LFE220:
 401              		.size	_dbg_check_suspend, .-_dbg_check_suspend
 402              		.section	.rodata
 403 000d 000000   		.align	2
 404              	.LC2:
 405 0010 53562333 		.ascii	"SV#3\000"
 405      00
 406              		.section	.text._dbg_check_enable,"ax",%progbits
 407              		.align	1
 408              		.p2align 4,,15
 409              		.global	_dbg_check_enable
 410              		.syntax unified
 411              		.thumb
 412              		.thumb_func
 413              		.fpu fpv4-sp-d16
 414              		.type	_dbg_check_enable, %function
 415              	_dbg_check_enable:
 416              	.LFB221:
 417              		.loc 4 138 0
 418              		.cfi_startproc
 419              		@ args = 0, pretend = 0, frame = 8
 420              		@ frame_needed = 0, uses_anonymous_args = 0
 421 0000 00B5     		push	{lr}
 422              		.cfi_def_cfa_offset 4
 423              		.cfi_offset 14, -4
 424 0002 83B0     		sub	sp, sp, #12
 425              		.cfi_def_cfa_offset 16
 426              		.loc 4 138 0
 427 0004 0C4B     		ldr	r3, .L41
 428 0006 1B68     		ldr	r3, [r3]
 429 0008 0193     		str	r3, [sp, #4]
 430              		.loc 4 140 0
 431 000a 0C4B     		ldr	r3, .L41+4
 432 000c 1B6B     		ldr	r3, [r3, #48]
 433 000e 002B     		cmp	r3, #0
 434 0010 03D1     		bne	.L37
 435              		.loc 4 140 0 is_stmt 0 discriminator 1
 436 0012 0A4B     		ldr	r3, .L41+4
 437 0014 5B6B     		ldr	r3, [r3, #52]
 438 0016 002B     		cmp	r3, #0
 439 0018 02D0     		beq	.L40
 440              	.L37:
 441              		.loc 4 141 0 is_stmt 1
 442 001a 0948     		ldr	r0, .L41+8
 443 001c FFF7FEFF 		bl	chSysHalt
 444              	.L40:
 445              		.loc 4 143 0
 446 0020 00BF     		nop
 447 0022 054B     		ldr	r3, .L41
 448 0024 019A     		ldr	r2, [sp, #4]
 449 0026 1B68     		ldr	r3, [r3]
 450 0028 9A42     		cmp	r2, r3
 451 002a 01D0     		beq	.L39
 452 002c FFF7FEFF 		bl	__stack_chk_fail
 453              	.L39:
ARM GAS  C:\Users\PCHAUT~1\AppData\Local\Temp\ccZi43Pa.s 			page 9


 454 0030 03B0     		add	sp, sp, #12
 455              		.cfi_def_cfa_offset 4
 456              		@ sp needed
 457 0032 5DF804FB 		ldr	pc, [sp], #4
 458              	.L42:
 459 0036 00BF     		.align	2
 460              	.L41:
 461 0038 00000000 		.word	__stack_chk_guard
 462 003c 00000000 		.word	ch
 463 0040 10000000 		.word	.LC2
 464              		.cfi_endproc
 465              	.LFE221:
 466              		.size	_dbg_check_enable, .-_dbg_check_enable
 467              		.section	.rodata
 468 0015 000000   		.align	2
 469              	.LC3:
 470 0018 53562334 		.ascii	"SV#4\000"
 470      00
 471              		.section	.text._dbg_check_lock,"ax",%progbits
 472              		.align	1
 473              		.p2align 4,,15
 474              		.global	_dbg_check_lock
 475              		.syntax unified
 476              		.thumb
 477              		.thumb_func
 478              		.fpu fpv4-sp-d16
 479              		.type	_dbg_check_lock, %function
 480              	_dbg_check_lock:
 481              	.LFB222:
 482              		.loc 4 150 0
 483              		.cfi_startproc
 484              		@ args = 0, pretend = 0, frame = 8
 485              		@ frame_needed = 0, uses_anonymous_args = 0
 486 0000 00B5     		push	{lr}
 487              		.cfi_def_cfa_offset 4
 488              		.cfi_offset 14, -4
 489 0002 83B0     		sub	sp, sp, #12
 490              		.cfi_def_cfa_offset 16
 491              		.loc 4 150 0
 492 0004 0D4B     		ldr	r3, .L47
 493 0006 1B68     		ldr	r3, [r3]
 494 0008 0193     		str	r3, [sp, #4]
 495              		.loc 4 152 0
 496 000a 0D4B     		ldr	r3, .L47+4
 497 000c 1B6B     		ldr	r3, [r3, #48]
 498 000e 002B     		cmp	r3, #0
 499 0010 03D1     		bne	.L44
 500              		.loc 4 152 0 is_stmt 0 discriminator 1
 501 0012 0B4B     		ldr	r3, .L47+4
 502 0014 5B6B     		ldr	r3, [r3, #52]
 503 0016 002B     		cmp	r3, #0
 504 0018 02D0     		beq	.L45
 505              	.L44:
 506              		.loc 4 153 0 is_stmt 1
 507 001a 0A48     		ldr	r0, .L47+8
 508 001c FFF7FEFF 		bl	chSysHalt
 509              	.L45:
ARM GAS  C:\Users\PCHAUT~1\AppData\Local\Temp\ccZi43Pa.s 			page 10


 510              		.loc 4 155 0
 511 0020 074B     		ldr	r3, .L47+4
 512 0022 0122     		movs	r2, #1
 513 0024 5A63     		str	r2, [r3, #52]
 514              		.loc 4 156 0
 515 0026 00BF     		nop
 516 0028 044B     		ldr	r3, .L47
 517 002a 019A     		ldr	r2, [sp, #4]
 518 002c 1B68     		ldr	r3, [r3]
 519 002e 9A42     		cmp	r2, r3
 520 0030 01D0     		beq	.L46
 521 0032 FFF7FEFF 		bl	__stack_chk_fail
 522              	.L46:
 523 0036 03B0     		add	sp, sp, #12
 524              		.cfi_def_cfa_offset 4
 525              		@ sp needed
 526 0038 5DF804FB 		ldr	pc, [sp], #4
 527              	.L48:
 528              		.align	2
 529              	.L47:
 530 003c 00000000 		.word	__stack_chk_guard
 531 0040 00000000 		.word	ch
 532 0044 18000000 		.word	.LC3
 533              		.cfi_endproc
 534              	.LFE222:
 535              		.size	_dbg_check_lock, .-_dbg_check_lock
 536              		.section	.rodata
 537 001d 000000   		.align	2
 538              	.LC4:
 539 0020 53562335 		.ascii	"SV#5\000"
 539      00
 540              		.section	.text._dbg_check_unlock,"ax",%progbits
 541              		.align	1
 542              		.p2align 4,,15
 543              		.global	_dbg_check_unlock
 544              		.syntax unified
 545              		.thumb
 546              		.thumb_func
 547              		.fpu fpv4-sp-d16
 548              		.type	_dbg_check_unlock, %function
 549              	_dbg_check_unlock:
 550              	.LFB223:
 551              		.loc 4 163 0
 552              		.cfi_startproc
 553              		@ args = 0, pretend = 0, frame = 8
 554              		@ frame_needed = 0, uses_anonymous_args = 0
 555 0000 00B5     		push	{lr}
 556              		.cfi_def_cfa_offset 4
 557              		.cfi_offset 14, -4
 558 0002 83B0     		sub	sp, sp, #12
 559              		.cfi_def_cfa_offset 16
 560              		.loc 4 163 0
 561 0004 0D4B     		ldr	r3, .L53
 562 0006 1B68     		ldr	r3, [r3]
 563 0008 0193     		str	r3, [sp, #4]
 564              		.loc 4 165 0
 565 000a 0D4B     		ldr	r3, .L53+4
ARM GAS  C:\Users\PCHAUT~1\AppData\Local\Temp\ccZi43Pa.s 			page 11


 566 000c 1B6B     		ldr	r3, [r3, #48]
 567 000e 002B     		cmp	r3, #0
 568 0010 03D1     		bne	.L50
 569              		.loc 4 165 0 is_stmt 0 discriminator 1
 570 0012 0B4B     		ldr	r3, .L53+4
 571 0014 5B6B     		ldr	r3, [r3, #52]
 572 0016 002B     		cmp	r3, #0
 573 0018 02DC     		bgt	.L51
 574              	.L50:
 575              		.loc 4 166 0 is_stmt 1
 576 001a 0A48     		ldr	r0, .L53+8
 577 001c FFF7FEFF 		bl	chSysHalt
 578              	.L51:
 579              		.loc 4 168 0
 580 0020 074B     		ldr	r3, .L53+4
 581 0022 0022     		movs	r2, #0
 582 0024 5A63     		str	r2, [r3, #52]
 583              		.loc 4 169 0
 584 0026 00BF     		nop
 585 0028 044B     		ldr	r3, .L53
 586 002a 019A     		ldr	r2, [sp, #4]
 587 002c 1B68     		ldr	r3, [r3]
 588 002e 9A42     		cmp	r2, r3
 589 0030 01D0     		beq	.L52
 590 0032 FFF7FEFF 		bl	__stack_chk_fail
 591              	.L52:
 592 0036 03B0     		add	sp, sp, #12
 593              		.cfi_def_cfa_offset 4
 594              		@ sp needed
 595 0038 5DF804FB 		ldr	pc, [sp], #4
 596              	.L54:
 597              		.align	2
 598              	.L53:
 599 003c 00000000 		.word	__stack_chk_guard
 600 0040 00000000 		.word	ch
 601 0044 20000000 		.word	.LC4
 602              		.cfi_endproc
 603              	.LFE223:
 604              		.size	_dbg_check_unlock, .-_dbg_check_unlock
 605              		.section	.rodata
 606 0025 000000   		.align	2
 607              	.LC5:
 608 0028 53562336 		.ascii	"SV#6\000"
 608      00
 609              		.section	.text._dbg_check_lock_from_isr,"ax",%progbits
 610              		.align	1
 611              		.p2align 4,,15
 612              		.global	_dbg_check_lock_from_isr
 613              		.syntax unified
 614              		.thumb
 615              		.thumb_func
 616              		.fpu fpv4-sp-d16
 617              		.type	_dbg_check_lock_from_isr, %function
 618              	_dbg_check_lock_from_isr:
 619              	.LFB224:
 620              		.loc 4 176 0
 621              		.cfi_startproc
ARM GAS  C:\Users\PCHAUT~1\AppData\Local\Temp\ccZi43Pa.s 			page 12


 622              		@ args = 0, pretend = 0, frame = 8
 623              		@ frame_needed = 0, uses_anonymous_args = 0
 624 0000 00B5     		push	{lr}
 625              		.cfi_def_cfa_offset 4
 626              		.cfi_offset 14, -4
 627 0002 83B0     		sub	sp, sp, #12
 628              		.cfi_def_cfa_offset 16
 629              		.loc 4 176 0
 630 0004 0D4B     		ldr	r3, .L59
 631 0006 1B68     		ldr	r3, [r3]
 632 0008 0193     		str	r3, [sp, #4]
 633              		.loc 4 178 0
 634 000a 0D4B     		ldr	r3, .L59+4
 635 000c 1B6B     		ldr	r3, [r3, #48]
 636 000e 002B     		cmp	r3, #0
 637 0010 03DD     		ble	.L56
 638              		.loc 4 178 0 is_stmt 0 discriminator 1
 639 0012 0B4B     		ldr	r3, .L59+4
 640 0014 5B6B     		ldr	r3, [r3, #52]
 641 0016 002B     		cmp	r3, #0
 642 0018 02D0     		beq	.L57
 643              	.L56:
 644              		.loc 4 179 0 is_stmt 1
 645 001a 0A48     		ldr	r0, .L59+8
 646 001c FFF7FEFF 		bl	chSysHalt
 647              	.L57:
 648              		.loc 4 181 0
 649 0020 074B     		ldr	r3, .L59+4
 650 0022 0122     		movs	r2, #1
 651 0024 5A63     		str	r2, [r3, #52]
 652              		.loc 4 182 0
 653 0026 00BF     		nop
 654 0028 044B     		ldr	r3, .L59
 655 002a 019A     		ldr	r2, [sp, #4]
 656 002c 1B68     		ldr	r3, [r3]
 657 002e 9A42     		cmp	r2, r3
 658 0030 01D0     		beq	.L58
 659 0032 FFF7FEFF 		bl	__stack_chk_fail
 660              	.L58:
 661 0036 03B0     		add	sp, sp, #12
 662              		.cfi_def_cfa_offset 4
 663              		@ sp needed
 664 0038 5DF804FB 		ldr	pc, [sp], #4
 665              	.L60:
 666              		.align	2
 667              	.L59:
 668 003c 00000000 		.word	__stack_chk_guard
 669 0040 00000000 		.word	ch
 670 0044 28000000 		.word	.LC5
 671              		.cfi_endproc
 672              	.LFE224:
 673              		.size	_dbg_check_lock_from_isr, .-_dbg_check_lock_from_isr
 674              		.section	.rodata
 675 002d 000000   		.align	2
 676              	.LC6:
 677 0030 53562337 		.ascii	"SV#7\000"
 677      00
ARM GAS  C:\Users\PCHAUT~1\AppData\Local\Temp\ccZi43Pa.s 			page 13


 678              		.section	.text._dbg_check_unlock_from_isr,"ax",%progbits
 679              		.align	1
 680              		.p2align 4,,15
 681              		.global	_dbg_check_unlock_from_isr
 682              		.syntax unified
 683              		.thumb
 684              		.thumb_func
 685              		.fpu fpv4-sp-d16
 686              		.type	_dbg_check_unlock_from_isr, %function
 687              	_dbg_check_unlock_from_isr:
 688              	.LFB225:
 689              		.loc 4 189 0
 690              		.cfi_startproc
 691              		@ args = 0, pretend = 0, frame = 8
 692              		@ frame_needed = 0, uses_anonymous_args = 0
 693 0000 00B5     		push	{lr}
 694              		.cfi_def_cfa_offset 4
 695              		.cfi_offset 14, -4
 696 0002 83B0     		sub	sp, sp, #12
 697              		.cfi_def_cfa_offset 16
 698              		.loc 4 189 0
 699 0004 0D4B     		ldr	r3, .L65
 700 0006 1B68     		ldr	r3, [r3]
 701 0008 0193     		str	r3, [sp, #4]
 702              		.loc 4 191 0
 703 000a 0D4B     		ldr	r3, .L65+4
 704 000c 1B6B     		ldr	r3, [r3, #48]
 705 000e 002B     		cmp	r3, #0
 706 0010 03DD     		ble	.L62
 707              		.loc 4 191 0 is_stmt 0 discriminator 1
 708 0012 0B4B     		ldr	r3, .L65+4
 709 0014 5B6B     		ldr	r3, [r3, #52]
 710 0016 002B     		cmp	r3, #0
 711 0018 02DC     		bgt	.L63
 712              	.L62:
 713              		.loc 4 192 0 is_stmt 1
 714 001a 0A48     		ldr	r0, .L65+8
 715 001c FFF7FEFF 		bl	chSysHalt
 716              	.L63:
 717              		.loc 4 194 0
 718 0020 074B     		ldr	r3, .L65+4
 719 0022 0022     		movs	r2, #0
 720 0024 5A63     		str	r2, [r3, #52]
 721              		.loc 4 195 0
 722 0026 00BF     		nop
 723 0028 044B     		ldr	r3, .L65
 724 002a 019A     		ldr	r2, [sp, #4]
 725 002c 1B68     		ldr	r3, [r3]
 726 002e 9A42     		cmp	r2, r3
 727 0030 01D0     		beq	.L64
 728 0032 FFF7FEFF 		bl	__stack_chk_fail
 729              	.L64:
 730 0036 03B0     		add	sp, sp, #12
 731              		.cfi_def_cfa_offset 4
 732              		@ sp needed
 733 0038 5DF804FB 		ldr	pc, [sp], #4
 734              	.L66:
ARM GAS  C:\Users\PCHAUT~1\AppData\Local\Temp\ccZi43Pa.s 			page 14


 735              		.align	2
 736              	.L65:
 737 003c 00000000 		.word	__stack_chk_guard
 738 0040 00000000 		.word	ch
 739 0044 30000000 		.word	.LC6
 740              		.cfi_endproc
 741              	.LFE225:
 742              		.size	_dbg_check_unlock_from_isr, .-_dbg_check_unlock_from_isr
 743              		.section	.rodata
 744 0035 000000   		.align	2
 745              	.LC7:
 746 0038 53562338 		.ascii	"SV#8\000"
 746      00
 747              		.section	.text._dbg_check_enter_isr,"ax",%progbits
 748              		.align	1
 749              		.p2align 4,,15
 750              		.global	_dbg_check_enter_isr
 751              		.syntax unified
 752              		.thumb
 753              		.thumb_func
 754              		.fpu fpv4-sp-d16
 755              		.type	_dbg_check_enter_isr, %function
 756              	_dbg_check_enter_isr:
 757              	.LFB226:
 758              		.loc 4 202 0
 759              		.cfi_startproc
 760              		@ args = 0, pretend = 0, frame = 8
 761              		@ frame_needed = 0, uses_anonymous_args = 0
 762 0000 00B5     		push	{lr}
 763              		.cfi_def_cfa_offset 4
 764              		.cfi_offset 14, -4
 765 0002 83B0     		sub	sp, sp, #12
 766              		.cfi_def_cfa_offset 16
 767              		.loc 4 202 0
 768 0004 104B     		ldr	r3, .L71
 769 0006 1B68     		ldr	r3, [r3]
 770 0008 0193     		str	r3, [sp, #4]
 771              		.loc 4 204 0
 772 000a FFF7FEFF 		bl	port_lock_from_isr
 773              		.loc 4 205 0
 774 000e 0F4B     		ldr	r3, .L71+4
 775 0010 1B6B     		ldr	r3, [r3, #48]
 776 0012 002B     		cmp	r3, #0
 777 0014 03DB     		blt	.L68
 778              		.loc 4 205 0 is_stmt 0 discriminator 1
 779 0016 0D4B     		ldr	r3, .L71+4
 780 0018 5B6B     		ldr	r3, [r3, #52]
 781 001a 002B     		cmp	r3, #0
 782 001c 02D0     		beq	.L69
 783              	.L68:
 784              		.loc 4 206 0 is_stmt 1
 785 001e 0C48     		ldr	r0, .L71+8
 786 0020 FFF7FEFF 		bl	chSysHalt
 787              	.L69:
 788              		.loc 4 208 0
 789 0024 094B     		ldr	r3, .L71+4
 790 0026 1B6B     		ldr	r3, [r3, #48]
ARM GAS  C:\Users\PCHAUT~1\AppData\Local\Temp\ccZi43Pa.s 			page 15


 791 0028 0133     		adds	r3, r3, #1
 792 002a 084A     		ldr	r2, .L71+4
 793 002c 1363     		str	r3, [r2, #48]
 794              		.loc 4 209 0
 795 002e FFF7FEFF 		bl	port_unlock_from_isr
 796              		.loc 4 210 0
 797 0032 00BF     		nop
 798 0034 044B     		ldr	r3, .L71
 799 0036 019A     		ldr	r2, [sp, #4]
 800 0038 1B68     		ldr	r3, [r3]
 801 003a 9A42     		cmp	r2, r3
 802 003c 01D0     		beq	.L70
 803 003e FFF7FEFF 		bl	__stack_chk_fail
 804              	.L70:
 805 0042 03B0     		add	sp, sp, #12
 806              		.cfi_def_cfa_offset 4
 807              		@ sp needed
 808 0044 5DF804FB 		ldr	pc, [sp], #4
 809              	.L72:
 810              		.align	2
 811              	.L71:
 812 0048 00000000 		.word	__stack_chk_guard
 813 004c 00000000 		.word	ch
 814 0050 38000000 		.word	.LC7
 815              		.cfi_endproc
 816              	.LFE226:
 817              		.size	_dbg_check_enter_isr, .-_dbg_check_enter_isr
 818              		.section	.rodata
 819 003d 000000   		.align	2
 820              	.LC8:
 821 0040 53562339 		.ascii	"SV#9\000"
 821      00
 822              		.section	.text._dbg_check_leave_isr,"ax",%progbits
 823              		.align	1
 824              		.p2align 4,,15
 825              		.global	_dbg_check_leave_isr
 826              		.syntax unified
 827              		.thumb
 828              		.thumb_func
 829              		.fpu fpv4-sp-d16
 830              		.type	_dbg_check_leave_isr, %function
 831              	_dbg_check_leave_isr:
 832              	.LFB227:
 833              		.loc 4 217 0
 834              		.cfi_startproc
 835              		@ args = 0, pretend = 0, frame = 8
 836              		@ frame_needed = 0, uses_anonymous_args = 0
 837 0000 00B5     		push	{lr}
 838              		.cfi_def_cfa_offset 4
 839              		.cfi_offset 14, -4
 840 0002 83B0     		sub	sp, sp, #12
 841              		.cfi_def_cfa_offset 16
 842              		.loc 4 217 0
 843 0004 104B     		ldr	r3, .L77
 844 0006 1B68     		ldr	r3, [r3]
 845 0008 0193     		str	r3, [sp, #4]
 846              		.loc 4 219 0
ARM GAS  C:\Users\PCHAUT~1\AppData\Local\Temp\ccZi43Pa.s 			page 16


 847 000a FFF7FEFF 		bl	port_lock_from_isr
 848              		.loc 4 220 0
 849 000e 0F4B     		ldr	r3, .L77+4
 850 0010 1B6B     		ldr	r3, [r3, #48]
 851 0012 002B     		cmp	r3, #0
 852 0014 03DD     		ble	.L74
 853              		.loc 4 220 0 is_stmt 0 discriminator 1
 854 0016 0D4B     		ldr	r3, .L77+4
 855 0018 5B6B     		ldr	r3, [r3, #52]
 856 001a 002B     		cmp	r3, #0
 857 001c 02D0     		beq	.L75
 858              	.L74:
 859              		.loc 4 221 0 is_stmt 1
 860 001e 0C48     		ldr	r0, .L77+8
 861 0020 FFF7FEFF 		bl	chSysHalt
 862              	.L75:
 863              		.loc 4 223 0
 864 0024 094B     		ldr	r3, .L77+4
 865 0026 1B6B     		ldr	r3, [r3, #48]
 866 0028 013B     		subs	r3, r3, #1
 867 002a 084A     		ldr	r2, .L77+4
 868 002c 1363     		str	r3, [r2, #48]
 869              		.loc 4 224 0
 870 002e FFF7FEFF 		bl	port_unlock_from_isr
 871              		.loc 4 225 0
 872 0032 00BF     		nop
 873 0034 044B     		ldr	r3, .L77
 874 0036 019A     		ldr	r2, [sp, #4]
 875 0038 1B68     		ldr	r3, [r3]
 876 003a 9A42     		cmp	r2, r3
 877 003c 01D0     		beq	.L76
 878 003e FFF7FEFF 		bl	__stack_chk_fail
 879              	.L76:
 880 0042 03B0     		add	sp, sp, #12
 881              		.cfi_def_cfa_offset 4
 882              		@ sp needed
 883 0044 5DF804FB 		ldr	pc, [sp], #4
 884              	.L78:
 885              		.align	2
 886              	.L77:
 887 0048 00000000 		.word	__stack_chk_guard
 888 004c 00000000 		.word	ch
 889 0050 40000000 		.word	.LC8
 890              		.cfi_endproc
 891              	.LFE227:
 892              		.size	_dbg_check_leave_isr, .-_dbg_check_leave_isr
 893              		.section	.rodata
 894 0045 000000   		.align	2
 895              	.LC9:
 896 0048 53562331 		.ascii	"SV#10\000"
 896      3000
 897              		.section	.text.chDbgCheckClassI,"ax",%progbits
 898              		.align	1
 899              		.p2align 4,,15
 900              		.global	chDbgCheckClassI
 901              		.syntax unified
 902              		.thumb
ARM GAS  C:\Users\PCHAUT~1\AppData\Local\Temp\ccZi43Pa.s 			page 17


 903              		.thumb_func
 904              		.fpu fpv4-sp-d16
 905              		.type	chDbgCheckClassI, %function
 906              	chDbgCheckClassI:
 907              	.LFB228:
 908              		.loc 4 235 0
 909              		.cfi_startproc
 910              		@ args = 0, pretend = 0, frame = 8
 911              		@ frame_needed = 0, uses_anonymous_args = 0
 912 0000 00B5     		push	{lr}
 913              		.cfi_def_cfa_offset 4
 914              		.cfi_offset 14, -4
 915 0002 83B0     		sub	sp, sp, #12
 916              		.cfi_def_cfa_offset 16
 917              		.loc 4 235 0
 918 0004 0C4B     		ldr	r3, .L84
 919 0006 1B68     		ldr	r3, [r3]
 920 0008 0193     		str	r3, [sp, #4]
 921              		.loc 4 237 0
 922 000a 0C4B     		ldr	r3, .L84+4
 923 000c 1B6B     		ldr	r3, [r3, #48]
 924 000e 002B     		cmp	r3, #0
 925 0010 03DB     		blt	.L80
 926              		.loc 4 237 0 is_stmt 0 discriminator 1
 927 0012 0A4B     		ldr	r3, .L84+4
 928 0014 5B6B     		ldr	r3, [r3, #52]
 929 0016 002B     		cmp	r3, #0
 930 0018 02DC     		bgt	.L83
 931              	.L80:
 932              		.loc 4 238 0 is_stmt 1
 933 001a 0948     		ldr	r0, .L84+8
 934 001c FFF7FEFF 		bl	chSysHalt
 935              	.L83:
 936              		.loc 4 240 0
 937 0020 00BF     		nop
 938 0022 054B     		ldr	r3, .L84
 939 0024 019A     		ldr	r2, [sp, #4]
 940 0026 1B68     		ldr	r3, [r3]
 941 0028 9A42     		cmp	r2, r3
 942 002a 01D0     		beq	.L82
 943 002c FFF7FEFF 		bl	__stack_chk_fail
 944              	.L82:
 945 0030 03B0     		add	sp, sp, #12
 946              		.cfi_def_cfa_offset 4
 947              		@ sp needed
 948 0032 5DF804FB 		ldr	pc, [sp], #4
 949              	.L85:
 950 0036 00BF     		.align	2
 951              	.L84:
 952 0038 00000000 		.word	__stack_chk_guard
 953 003c 00000000 		.word	ch
 954 0040 48000000 		.word	.LC9
 955              		.cfi_endproc
 956              	.LFE228:
 957              		.size	chDbgCheckClassI, .-chDbgCheckClassI
 958              		.section	.rodata
 959 004e 0000     		.align	2
ARM GAS  C:\Users\PCHAUT~1\AppData\Local\Temp\ccZi43Pa.s 			page 18


 960              	.LC10:
 961 0050 53562331 		.ascii	"SV#11\000"
 961      3100
 962              		.section	.text.chDbgCheckClassS,"ax",%progbits
 963              		.align	1
 964              		.p2align 4,,15
 965              		.global	chDbgCheckClassS
 966              		.syntax unified
 967              		.thumb
 968              		.thumb_func
 969              		.fpu fpv4-sp-d16
 970              		.type	chDbgCheckClassS, %function
 971              	chDbgCheckClassS:
 972              	.LFB229:
 973              		.loc 4 250 0
 974              		.cfi_startproc
 975              		@ args = 0, pretend = 0, frame = 8
 976              		@ frame_needed = 0, uses_anonymous_args = 0
 977 0000 00B5     		push	{lr}
 978              		.cfi_def_cfa_offset 4
 979              		.cfi_offset 14, -4
 980 0002 83B0     		sub	sp, sp, #12
 981              		.cfi_def_cfa_offset 16
 982              		.loc 4 250 0
 983 0004 0C4B     		ldr	r3, .L91
 984 0006 1B68     		ldr	r3, [r3]
 985 0008 0193     		str	r3, [sp, #4]
 986              		.loc 4 252 0
 987 000a 0C4B     		ldr	r3, .L91+4
 988 000c 1B6B     		ldr	r3, [r3, #48]
 989 000e 002B     		cmp	r3, #0
 990 0010 03D1     		bne	.L87
 991              		.loc 4 252 0 is_stmt 0 discriminator 1
 992 0012 0A4B     		ldr	r3, .L91+4
 993 0014 5B6B     		ldr	r3, [r3, #52]
 994 0016 002B     		cmp	r3, #0
 995 0018 02DC     		bgt	.L90
 996              	.L87:
 997              		.loc 4 253 0 is_stmt 1
 998 001a 0948     		ldr	r0, .L91+8
 999 001c FFF7FEFF 		bl	chSysHalt
 1000              	.L90:
 1001              		.loc 4 255 0
 1002 0020 00BF     		nop
 1003 0022 054B     		ldr	r3, .L91
 1004 0024 019A     		ldr	r2, [sp, #4]
 1005 0026 1B68     		ldr	r3, [r3]
 1006 0028 9A42     		cmp	r2, r3
 1007 002a 01D0     		beq	.L89
 1008 002c FFF7FEFF 		bl	__stack_chk_fail
 1009              	.L89:
 1010 0030 03B0     		add	sp, sp, #12
 1011              		.cfi_def_cfa_offset 4
 1012              		@ sp needed
 1013 0032 5DF804FB 		ldr	pc, [sp], #4
 1014              	.L92:
 1015 0036 00BF     		.align	2
ARM GAS  C:\Users\PCHAUT~1\AppData\Local\Temp\ccZi43Pa.s 			page 19


 1016              	.L91:
 1017 0038 00000000 		.word	__stack_chk_guard
 1018 003c 00000000 		.word	ch
 1019 0040 50000000 		.word	.LC10
 1020              		.cfi_endproc
 1021              	.LFE229:
 1022              		.size	chDbgCheckClassS, .-chDbgCheckClassS
 1023              		.section	.text._dbg_trace_init,"ax",%progbits
 1024              		.align	1
 1025              		.p2align 4,,15
 1026              		.global	_dbg_trace_init
 1027              		.syntax unified
 1028              		.thumb
 1029              		.thumb_func
 1030              		.fpu fpv4-sp-d16
 1031              		.type	_dbg_trace_init, %function
 1032              	_dbg_trace_init:
 1033              	.LFB230:
 1034              		.loc 4 264 0
 1035              		.cfi_startproc
 1036              		@ args = 0, pretend = 0, frame = 8
 1037              		@ frame_needed = 0, uses_anonymous_args = 0
 1038 0000 00B5     		push	{lr}
 1039              		.cfi_def_cfa_offset 4
 1040              		.cfi_offset 14, -4
 1041 0002 83B0     		sub	sp, sp, #12
 1042              		.cfi_def_cfa_offset 16
 1043              		.loc 4 264 0
 1044 0004 094B     		ldr	r3, .L95
 1045 0006 1B68     		ldr	r3, [r3]
 1046 0008 0193     		str	r3, [sp, #4]
 1047              		.loc 4 266 0
 1048 000a 094B     		ldr	r3, .L95+4
 1049 000c 4022     		movs	r2, #64
 1050 000e 9A63     		str	r2, [r3, #56]
 1051              		.loc 4 267 0
 1052 0010 074B     		ldr	r3, .L95+4
 1053 0012 084A     		ldr	r2, .L95+8
 1054 0014 DA63     		str	r2, [r3, #60]
 1055              		.loc 4 268 0
 1056 0016 00BF     		nop
 1057 0018 044B     		ldr	r3, .L95
 1058 001a 019A     		ldr	r2, [sp, #4]
 1059 001c 1B68     		ldr	r3, [r3]
 1060 001e 9A42     		cmp	r2, r3
 1061 0020 01D0     		beq	.L94
 1062 0022 FFF7FEFF 		bl	__stack_chk_fail
 1063              	.L94:
 1064 0026 03B0     		add	sp, sp, #12
 1065              		.cfi_def_cfa_offset 4
 1066              		@ sp needed
 1067 0028 5DF804FB 		ldr	pc, [sp], #4
 1068              	.L96:
 1069              		.align	2
 1070              	.L95:
 1071 002c 00000000 		.word	__stack_chk_guard
 1072 0030 00000000 		.word	ch
ARM GAS  C:\Users\PCHAUT~1\AppData\Local\Temp\ccZi43Pa.s 			page 20


 1073 0034 40000000 		.word	ch+64
 1074              		.cfi_endproc
 1075              	.LFE230:
 1076              		.size	_dbg_trace_init, .-_dbg_trace_init
 1077              		.section	.text._dbg_trace,"ax",%progbits
 1078              		.align	1
 1079              		.p2align 4,,15
 1080              		.global	_dbg_trace
 1081              		.syntax unified
 1082              		.thumb
 1083              		.thumb_func
 1084              		.fpu fpv4-sp-d16
 1085              		.type	_dbg_trace, %function
 1086              	_dbg_trace:
 1087              	.LFB231:
 1088              		.loc 4 277 0
 1089              		.cfi_startproc
 1090              		@ args = 0, pretend = 0, frame = 16
 1091              		@ frame_needed = 0, uses_anonymous_args = 0
 1092 0000 10B5     		push	{r4, lr}
 1093              		.cfi_def_cfa_offset 8
 1094              		.cfi_offset 4, -8
 1095              		.cfi_offset 14, -4
 1096 0002 84B0     		sub	sp, sp, #16
 1097              		.cfi_def_cfa_offset 24
 1098 0004 0190     		str	r0, [sp, #4]
 1099              		.loc 4 277 0
 1100 0006 184B     		ldr	r3, .L101
 1101 0008 1B68     		ldr	r3, [r3]
 1102 000a 0393     		str	r3, [sp, #12]
 1103              		.loc 4 279 0
 1104 000c 174B     		ldr	r3, .L101+4
 1105 000e DC6B     		ldr	r4, [r3, #60]
 1106 0010 FFF7FEFF 		bl	chVTGetSystemTimeX
 1107 0014 0346     		mov	r3, r0
 1108 0016 2360     		str	r3, [r4]
 1109              		.loc 4 280 0
 1110 0018 144B     		ldr	r3, .L101+4
 1111 001a DB6B     		ldr	r3, [r3, #60]
 1112 001c 134A     		ldr	r2, .L101+4
 1113 001e 9269     		ldr	r2, [r2, #24]
 1114 0020 5A60     		str	r2, [r3, #4]
 1115              		.loc 4 281 0
 1116 0022 124B     		ldr	r3, .L101+4
 1117 0024 DB6B     		ldr	r3, [r3, #60]
 1118 0026 019A     		ldr	r2, [sp, #4]
 1119 0028 926A     		ldr	r2, [r2, #40]
 1120 002a 9A60     		str	r2, [r3, #8]
 1121              		.loc 4 282 0
 1122 002c 0F4B     		ldr	r3, .L101+4
 1123 002e DB6B     		ldr	r3, [r3, #60]
 1124 0030 019A     		ldr	r2, [sp, #4]
 1125 0032 92F82020 		ldrb	r2, [r2, #32]	@ zero_extendqisi2
 1126 0036 1A73     		strb	r2, [r3, #12]
 1127              		.loc 4 283 0
 1128 0038 0C4B     		ldr	r3, .L101+4
 1129 003a DB6B     		ldr	r3, [r3, #60]
ARM GAS  C:\Users\PCHAUT~1\AppData\Local\Temp\ccZi43Pa.s 			page 21


 1130 003c 1033     		adds	r3, r3, #16
 1131 003e 0B4A     		ldr	r2, .L101+4
 1132 0040 D363     		str	r3, [r2, #60]
 1133 0042 0A4B     		ldr	r3, .L101+4
 1134 0044 DB6B     		ldr	r3, [r3, #60]
 1135 0046 0A4A     		ldr	r2, .L101+8
 1136 0048 9342     		cmp	r3, r2
 1137 004a 02D3     		bcc	.L100
 1138              		.loc 4 285 0
 1139 004c 074B     		ldr	r3, .L101+4
 1140 004e 094A     		ldr	r2, .L101+12
 1141 0050 DA63     		str	r2, [r3, #60]
 1142              	.L100:
 1143              		.loc 4 287 0
 1144 0052 00BF     		nop
 1145 0054 044B     		ldr	r3, .L101
 1146 0056 039A     		ldr	r2, [sp, #12]
 1147 0058 1B68     		ldr	r3, [r3]
 1148 005a 9A42     		cmp	r2, r3
 1149 005c 01D0     		beq	.L99
 1150 005e FFF7FEFF 		bl	__stack_chk_fail
 1151              	.L99:
 1152 0062 04B0     		add	sp, sp, #16
 1153              		.cfi_def_cfa_offset 8
 1154              		@ sp needed
 1155 0064 10BD     		pop	{r4, pc}
 1156              	.L102:
 1157 0066 00BF     		.align	2
 1158              	.L101:
 1159 0068 00000000 		.word	__stack_chk_guard
 1160 006c 00000000 		.word	ch
 1161 0070 40040000 		.word	ch+1088
 1162 0074 40000000 		.word	ch+64
 1163              		.cfi_endproc
 1164              	.LFE231:
 1165              		.size	_dbg_trace, .-_dbg_trace
 1166              		.text
 1167              	.Letext0:
 1168              		.file 5 "c:\\users\\pchautems\\documents\\robotiquetp\\eclipse_e-puck2\\tools\\gcc-arm-none-eabi-7
 1169              		.file 6 "c:\\users\\pchautems\\documents\\robotiquetp\\eclipse_e-puck2\\tools\\gcc-arm-none-eabi-7
 1170              		.file 7 "../lib/e-puck2_main-processor/ChibiOS//os/rt/ports/ARMCMx/compilers/GCC/chtypes.h"
 1171              		.file 8 "../lib/e-puck2_main-processor/ChibiOS//os/rt/include/chsystypes.h"
 1172              		.file 9 "../lib/e-puck2_main-processor/ChibiOS//os/rt/include/chschd.h"
 1173              		.file 10 "../lib/e-puck2_main-processor/ChibiOS//os/ext/CMSIS/include/core_cm4.h"
 1174              		.file 11 "../lib/e-puck2_main-processor/ChibiOS//os/ext/CMSIS/ST/system_stm32f4xx.h"
 1175              		.file 12 "../lib/e-puck2_main-processor/ChibiOS//os/rt/ports/ARMCMx/chcore.h"
 1176              		.file 13 "../lib/e-puck2_main-processor/ChibiOS//os/rt/include/chdebug.h"
 1177              		.file 14 "../lib/e-puck2_main-processor/ChibiOS//os/rt/include/chtm.h"
 1178              		.file 15 "../lib/e-puck2_main-processor/ChibiOS//os/rt/include/chstats.h"
 1179              		.file 16 "../lib/e-puck2_main-processor/ChibiOS//os/rt/include/chsem.h"
 1180              		.file 17 "../lib/e-puck2_main-processor/ChibiOS//os/rt/include/chmtx.h"
 1181              		.file 18 "../lib/e-puck2_main-processor/ChibiOS//os/rt/include/chregistry.h"