ARM GAS  C:\Users\PCHAUT~1\AppData\Local\Temp\ccZi43Pa.s 			page 1


   1              		.cpu cortex-m4
   2              		.eabi_attribute 27, 1
   3              		.eabi_attribute 28, 1
   4              		.eabi_attribute 20, 1
   5              		.eabi_attribute 21, 1
   6              		.eabi_attribute 23, 3
   7              		.eabi_attribute 24, 1
   8              		.eabi_attribute 25, 1
   9              		.eabi_attribute 26, 1
  10              		.eabi_attribute 30, 6
  11              		.eabi_attribute 34, 1
  12              		.eabi_attribute 18, 4
  13              		.file	"chdebug.c"
  14              		.text
  15              	.Ltext0:
  16              		.cfi_sections	.debug_frame
  17              		.section	.text.port_lock,"ax",%progbits
  18              		.align	1
  19              		.p2align 4,,15
  20              		.syntax unified
  21              		.thumb
  22              		.thumb_func
  23              		.fpu fpv4-sp-d16
  24              		.type	port_lock, %function
  25              	port_lock:
  26              	.LFB116:
  27              		.file 1 "../lib/e-puck2_main-processor/ChibiOS//os/rt/ports/ARMCMx/chcore_v7m.h"
  28              		.loc 1 444 0
  29              		.cfi_startproc
  30              		@ args = 0, pretend = 0, frame = 8
  31              		@ frame_needed = 0, uses_anonymous_args = 0
  32 0000 00B5     		push	{lr}
  33              		.cfi_def_cfa_offset 4
  34              		.cfi_offset 14, -4
  35 0002 83B0     		sub	sp, sp, #12
  36              		.cfi_def_cfa_offset 16
  37              		.loc 1 444 0
  38 0004 094B     		ldr	r3, .L3
  39 0006 1B68     		ldr	r3, [r3]
  40 0008 0193     		str	r3, [sp, #4]
  41 000a 2023     		movs	r3, #32
  42 000c 0093     		str	r3, [sp]
  43              	.LBB6:
  44              	.LBB7:
  45              		.file 2 "../lib/e-puck2_main-processor/ChibiOS//os/ext/CMSIS/include/core_cmFunc.h"
  46              		.loc 2 546 0
  47 000e 009B     		ldr	r3, [sp]
  48              		.syntax unified
  49              	@ 546 "../lib/e-puck2_main-processor/ChibiOS//os/ext/CMSIS/include/core_cmFunc.h" 1
  50 0010 83F31188 		MSR basepri, r3
  51              	@ 0 "" 2
  52              		.thumb
  53              		.syntax unified
  54              	.LBE7:
  55              	.LBE6:
  56              		.loc 1 451 0
  57 0014 00BF     		nop
ARM GAS  C:\Users\PCHAUT~1\AppData\Local\Temp\ccZi43Pa.s 			page 2


  58 0016 054B     		ldr	r3, .L3
  59 0018 019A     		ldr	r2, [sp, #4]
  60 001a 1B68     		ldr	r3, [r3]
  61 001c 9A42     		cmp	r2, r3
  62 001e 01D0     		beq	.L2
  63 0020 FFF7FEFF 		bl	__stack_chk_fail
  64              	.L2:
  65 0024 03B0     		add	sp, sp, #12
  66              		.cfi_def_cfa_offset 4
  67              		@ sp needed
  68 0026 5DF804FB 		ldr	pc, [sp], #4
  69              	.L4:
  70 002a 00BF     		.align	2
  71              	.L3:
  72 002c 00000000 		.word	__stack_chk_guard
  73              		.cfi_endproc
  74              	.LFE116:
  75              		.size	port_lock, .-port_lock
  76              		.section	.text.port_unlock,"ax",%progbits
  77              		.align	1
  78              		.p2align 4,,15
  79              		.syntax unified
  80              		.thumb
  81              		.thumb_func
  82              		.fpu fpv4-sp-d16
  83              		.type	port_unlock, %function
  84              	port_unlock:
  85              	.LFB117:
  86              		.loc 1 458 0
  87              		.cfi_startproc
  88              		@ args = 0, pretend = 0, frame = 8
  89              		@ frame_needed = 0, uses_anonymous_args = 0
  90 0000 00B5     		push	{lr}
  91              		.cfi_def_cfa_offset 4
  92              		.cfi_offset 14, -4
  93 0002 83B0     		sub	sp, sp, #12
  94              		.cfi_def_cfa_offset 16
  95              		.loc 1 458 0
  96 0004 094B     		ldr	r3, .L7
  97 0006 1B68     		ldr	r3, [r3]
  98 0008 0193     		str	r3, [sp, #4]
  99 000a 0023     		movs	r3, #0
 100 000c 0093     		str	r3, [sp]
 101              	.LBB8:
 102              	.LBB9:
 103              		.loc 2 546 0
 104 000e 009B     		ldr	r3, [sp]
 105              		.syntax unified
 106              	@ 546 "../lib/e-puck2_main-processor/ChibiOS//os/ext/CMSIS/include/core_cmFunc.h" 1
 107 0010 83F31188 		MSR basepri, r3
 108              	@ 0 "" 2
 109              		.thumb
 110              		.syntax unified
 111              	.LBE9:
 112              	.LBE8:
 113              		.loc 1 465 0
 114 0014 00BF     		nop
ARM GAS  C:\Users\PCHAUT~1\AppData\Local\Temp\ccZi43Pa.s 			page 3


 115 0016 054B     		ldr	r3, .L7
 116 0018 019A     		ldr	r2, [sp, #4]
 117 001a 1B68     		ldr	r3, [r3]
 118 001c 9A42     		cmp	r2, r3
 119 001e 01D0     		beq	.L6
 120 0020 FFF7FEFF 		bl	__stack_chk_fail
 121              	.L6:
 122 0024 03B0     		add	sp, sp, #12
 123              		.cfi_def_cfa_offset 4
 124              		@ sp needed
 125 0026 5DF804FB 		ldr	pc, [sp], #4
 126              	.L8:
 127 002a 00BF     		.align	2
 128              	.L7:
 129 002c 00000000 		.word	__stack_chk_guard
 130              		.cfi_endproc
 131              	.LFE117:
 132              		.size	port_unlock, .-port_unlock
 133              		.section	.text.port_lock_from_isr,"ax",%progbits
 134              		.align	1
 135              		.p2align 4,,15
 136              		.syntax unified
 137              		.thumb
 138              		.thumb_func
 139              		.fpu fpv4-sp-d16
 140              		.type	port_lock_from_isr, %function
 141              	port_lock_from_isr:
 142              	.LFB118:
 143              		.loc 1 473 0
 144              		.cfi_startproc
 145              		@ args = 0, pretend = 0, frame = 8
 146              		@ frame_needed = 0, uses_anonymous_args = 0
 147 0000 00B5     		push	{lr}
 148              		.cfi_def_cfa_offset 4
 149              		.cfi_offset 14, -4
 150 0002 83B0     		sub	sp, sp, #12
 151              		.cfi_def_cfa_offset 16
 152              		.loc 1 473 0
 153 0004 074B     		ldr	r3, .L11
 154 0006 1B68     		ldr	r3, [r3]
 155 0008 0193     		str	r3, [sp, #4]
 156              		.loc 1 475 0
 157 000a FFF7FEFF 		bl	port_lock
 158              		.loc 1 476 0
 159 000e 00BF     		nop
 160 0010 044B     		ldr	r3, .L11
 161 0012 019A     		ldr	r2, [sp, #4]
 162 0014 1B68     		ldr	r3, [r3]
 163 0016 9A42     		cmp	r2, r3
 164 0018 01D0     		beq	.L10
 165 001a FFF7FEFF 		bl	__stack_chk_fail
 166              	.L10:
 167 001e 03B0     		add	sp, sp, #12
 168              		.cfi_def_cfa_offset 4
 169              		@ sp needed
 170 0020 5DF804FB 		ldr	pc, [sp], #4
 171              	.L12:
ARM GAS  C:\Users\PCHAUT~1\AppData\Local\Temp\ccZi43Pa.s 			page 4


 172              		.align	2
 173              	.L11:
 174 0024 00000000 		.word	__stack_chk_guard
 175              		.cfi_endproc
 176              	.LFE118:
 177              		.size	port_lock_from_isr, .-port_lock_from_isr
 178              		.section	.text.port_unlock_from_isr,"ax",%progbits
 179              		.align	1
 180              		.p2align 4,,15
 181              		.syntax unified
 182              		.thumb
 183              		.thumb_func
 184              		.fpu fpv4-sp-d16
 185              		.type	port_unlock_from_isr, %function
 186              	port_unlock_from_isr:
 187              	.LFB119:
 188              		.loc 1 484 0
 189              		.cfi_startproc
 190              		@ args = 0, pretend = 0, frame = 8
 191              		@ frame_needed = 0, uses_anonymous_args = 0
 192 0000 00B5     		push	{lr}
 193              		.cfi_def_cfa_offset 4
 194              		.cfi_offset 14, -4
 195 0002 83B0     		sub	sp, sp, #12
 196              		.cfi_def_cfa_offset 16
 197              		.loc 1 484 0
 198 0004 074B     		ldr	r3, .L15
 199 0006 1B68     		ldr	r3, [r3]
 200 0008 0193     		str	r3, [sp, #4]
 201              		.loc 1 486 0
 202 000a FFF7FEFF 		bl	port_unlock
 203              		.loc 1 487 0
 204 000e 00BF     		nop
 205 0010 044B     		ldr	r3, .L15
 206 0012 019A     		ldr	r2, [sp, #4]
 207 0014 1B68     		ldr	r3, [r3]
 208 0016 9A42     		cmp	r2, r3
 209 0018 01D0     		beq	.L14
 210 001a FFF7FEFF 		bl	__stack_chk_fail
 211              	.L14:
 212 001e 03B0     		add	sp, sp, #12
 213              		.cfi_def_cfa_offset 4
 214              		@ sp needed
 215 0020 5DF804FB 		ldr	pc, [sp], #4
 216              	.L16:
 217              		.align	2
 218              	.L15:
 219 0024 00000000 		.word	__stack_chk_guard
 220              		.cfi_endproc
 221              	.LFE119:
 222              		.size	port_unlock_from_isr, .-port_unlock_from_isr
 223              		.section	.text.chVTGetSystemTimeX,"ax",%progbits
 224              		.align	1
 225              		.p2align 4,,15
 226              		.syntax unified
 227              		.thumb
 228              		.thumb_func
ARM GAS  C:\Users\PCHAUT~1\AppData\Local\Temp\ccZi43Pa.s 			page 5


 229              		.fpu fpv4-sp-d16
 230              		.type	chVTGetSystemTimeX, %function
 231              	chVTGetSystemTimeX:
 232              	.LFB153:
 233              		.file 3 "../lib/e-puck2_main-processor/ChibiOS//os/rt/include/chvt.h"
 234              		.loc 3 228 0
 235              		.cfi_startproc
 236              		@ args = 0, pretend = 0, frame = 8
 237              		@ frame_needed = 0, uses_anonymous_args = 0
 238 0000 00B5     		push	{lr}
 239              		.cfi_def_cfa_offset 4
 240              		.cfi_offset 14, -4
 241 0002 83B0     		sub	sp, sp, #12
 242              		.cfi_def_cfa_offset 16
 243              		.loc 3 228 0
 244 0004 074B     		ldr	r3, .L20
 245 0006 1B68     		ldr	r3, [r3]
 246 0008 0193     		str	r3, [sp, #4]
 247              		.loc 3 231 0
 248 000a 074B     		ldr	r3, .L20+4
 249 000c 9B6A     		ldr	r3, [r3, #40]
 250              		.loc 3 235 0
 251 000e 1846     		mov	r0, r3
 252 0010 044B     		ldr	r3, .L20
 253 0012 019A     		ldr	r2, [sp, #4]
 254 0014 1B68     		ldr	r3, [r3]
 255 0016 9A42     		cmp	r2, r3
 256 0018 01D0     		beq	.L19
 257 001a FFF7FEFF 		bl	__stack_chk_fail
 258              	.L19:
 259 001e 03B0     		add	sp, sp, #12
 260              		.cfi_def_cfa_offset 4
 261              		@ sp needed
 262 0020 5DF804FB 		ldr	pc, [sp], #4
 263              	.L21:
 264              		.align	2
 265              	.L20:
 266 0024 00000000 		.word	__stack_chk_guard
 267 0028 00000000 		.word	ch
 268              		.cfi_endproc
 269              	.LFE153:
 270              		.size	chVTGetSystemTimeX, .-chVTGetSystemTimeX
 271              		.section	.rodata
 272              		.align	2
 273              	.LC0:
 274 0000 53562331 		.ascii	"SV#1\000"
 274      00
 275              		.section	.text._dbg_check_disable,"ax",%progbits
 276              		.align	1
 277              		.p2align 4,,15
 278              		.global	_dbg_check_disable
 279              		.syntax unified
 280              		.thumb
 281              		.thumb_func
 282              		.fpu fpv4-sp-d16
 283              		.type	_dbg_check_disable, %function
 284              	_dbg_check_disable:
ARM GAS  C:\Users\PCHAUT~1\AppData\Local\Temp\ccZi43Pa.s 			page 6


 285              	.LFB219:
 286              		.file 4 "../lib/e-puck2_main-processor/ChibiOS//os/rt/src/chdebug.c"
 287              		.loc 4 114 0
 288              		.cfi_startproc
 289              		@ args = 0, pretend = 0, frame = 8
 290              		@ frame_needed = 0, uses_anonymous_args = 0
 291 0000 00B5     		push	{lr}
 292              		.cfi_def_cfa_offset 4
 293              		.cfi_offset 14, -4
 294 0002 83B0     		sub	sp, sp, #12
 295              		.cfi_def_cfa_offset 16
 296              		.loc 4 114 0
 297 0004 0C4B     		ldr	r3, .L27
 298 0006 1B68     		ldr	r3, [r3]
 299 0008 0193     		str	r3, [sp, #4]
 300              		.loc 4 116 0
 301 000a 0C4B     		ldr	r3, .L27+4
 302 000c 1B6B     		ldr	r3, [r3, #48]
 303 000e 002B     		cmp	r3, #0
 304 0010 03D1     		bne	.L23
 305              		.loc 4 116 0 is_stmt 0 discriminator 1
 306 0012 0A4B     		ldr	r3, .L27+4
 307 0014 5B6B     		ldr	r3, [r3, #52]
 308 0016 002B     		cmp	r3, #0
 309 0018 02D0     		beq	.L26
 310              	.L23:
 311              		.loc 4 117 0 is_stmt 1
 312 001a 0948     		ldr	r0, .L27+8
 313 001c FFF7FEFF 		bl	chSysHalt
 314              	.L26:
 315              		.loc 4 119 0
 316 0020 00BF     		nop
 317 0022 054B     		ldr	r3, .L27
 318 0024 019A     		ldr	r2, [sp, #4]
 319 0026 1B68     		ldr	r3, [r3]
 320 0028 9A42     		cmp	r2, r3
 321 002a 01D0     		beq	.L25
 322 002c FFF7FEFF 		bl	__stack_chk_fail
 323              	.L25:
 324 0030 03B0     		add	sp, sp, #12
 325              		.cfi_def_cfa_offset 4
 326              		@ sp needed
 327 0032 5DF804FB 		ldr	pc, [sp], #4
 328              	.L28:
 329 0036 00BF     		.align	2
 330              	.L27:
 331 0038 00000000 		.word	__stack_chk_guard
 332 003c 00000000 		.word	ch
 333 0040 00000000 		.word	.LC0
 334              		.cfi_endproc
 335              	.LFE219:
 336              		.size	_dbg_check_disable, .-_dbg_check_disable
 337              		.section	.rodata
 338 0005 000000   		.align	2
 339              	.LC1:
 340 0008 53562332 		.ascii	"SV#2\000"
 340      00
ARM GAS  C:\Users\PCHAUT~1\AppData\Local\Temp\ccZi43Pa.s 			page 7


 341              		.section	.text._dbg_check_suspend,"ax",%progbits
 342              		.align	1
 343              		.p2align 4,,15
 344              		.global	_dbg_check_suspend
 345              		.syntax unified
 346              		.thumb
 347              		.thumb_func
 348              		.fpu fpv4-sp-d16
 349              		.type	_dbg_check_suspend, %function
 350              	_dbg_check_suspend:
 351              	.LFB220:
 352              		.loc 4 126 0
 353              		.cfi_startproc
 354              		@ args = 0, pretend = 0, frame = 8
 355              		@ frame_needed = 0, uses_anonymous_args = 0
 356 0000 00B5     		push	{lr}
 357              		.cfi_def_cfa_offset 4
 358              		.cfi_offset 14, -4
 359 0002 83B0     		sub	sp, sp, #12
 360              		.cfi_def_cfa_offset 16
 361              		.loc 4 126 0
 362 0004 0C4B     		ldr	r3, .L34
 363 0006 1B68     		ldr	r3, [r3]
 364 0008 0193     		str	r3, [sp, #4]
 365              		.loc 4 128 0
 366 000a 0C4B     		ldr	r3, .L34+4
 367 000c 1B6B     		ldr	r3, [r3, #48]
 368 000e 002B     		cmp	r3, #0
 369 0010 03D1     		bne	.L30
 370              		.loc 4 128 0 is_stmt 0 discriminator 1
 371 0012 0A4B     		ldr	r3, .L34+4
 372 0014 5B6B     		ldr	r3, [r3, #52]
 373 0016 002B     		cmp	r3, #0
 374 0018 02D0     		beq	.L33
 375              	.L30:
 376              		.loc 4 129 0 is_stmt 1
 377 001a 0948     		ldr	r0, .L34+8
 378 001c FFF7FEFF 		bl	chSysHalt
 379              	.L33:
 380              		.loc 4 131 0
 381 0020 00BF     		nop
 382 0022 054B     		ldr	r3, .L34
 383 0024 019A     		ldr	r2, [sp, #4]
 384 0026 1B68     		ldr	r3, [r3]
 385 0028 9A42     		cmp	r2, r3
 386 002a 01D0     		beq	.L32
 387 002c FFF7FEFF 		bl	__stack_chk_fail
 388              	.L32:
 389 0030 03B0     		add	sp, sp, #12
 390              		.cfi_def_cfa_offset 4
 391              		@ sp needed
 392 0032 5DF804FB 		ldr	pc, [sp], #4
 393              	.L35:
 394 0036 00BF     		.align	2
 395              	.L34:
 396 0038 00000000 		.word	__stack_chk_guard
 397 003c 00000000 		.word	ch
ARM GAS  C:\Users\PCHAUT~1\AppData\Local\Temp\ccZi43Pa.s 			page 8


 398 0040 08000000 		.word	.LC1
 399              		.cfi_endproc
 400              	.LFE220:
 401              		.size	_dbg_check_suspend, .-_dbg_check_suspend
 402              		.section	.rodata
 403 000d 000000   		.align	2
 404              	.LC2:
 405 0010 53562333 		.ascii	"SV#3\000"
 405      00
 406              		.section	.text._dbg_check_enable,"ax",%progbits
 407              		.align	1
 408              		.p2align 4,,15
 409              		.global	_dbg_check_enable
 410              		.syntax unified
 411              		.thumb
 412              		.thumb_func
 413              		.fpu fpv4-sp-d16
 414              		.type	_dbg_check_enable, %function
 415              	_dbg_check_enable:
 416              	.LFB221:
 417              		.loc 4 138 0
 418              		.cfi_startproc
 419              		@ args = 0, pretend = 0, frame = 8
 420              		@ frame_needed = 0, uses_anonymous_args = 0
 421 0000 00B5     		push	{lr}
 422              		.cfi_def_cfa_offset 4
 423              		.cfi_offset 14, -4
 424 0002 83B0     		sub	sp, sp, #12
 425              		.cfi_def_cfa_offset 16
 426              		.loc 4 138 0
 427 0004 0C4B     		ldr	r3, .L41
 428 0006 1B68     		ldr	r3, [r3]
 429 0008 0193     		str	r3, [sp, #4]
 430              		.loc 4 140 0
 431 000a 0C4B     		ldr	r3, .L41+4
 432 000c 1B6B     		ldr	r3, [r3, #48]
 433 000e 002B     		cmp	r3, #0
 434 0010 03D1     		bne	.L37
 435              		.loc 4 140 0 is_stmt 0 discriminator 1
 436 0012 0A4B     		ldr	r3, .L41+4
 437 0014 5B6B     		ldr	r3, [r3, #52]
 438 0016 002B     		cmp	r3, #0
 439 0018 02D0     		beq	.L40
 440              	.L37:
 441              		.loc 4 141 0 is_stmt 1
 442 001a 0948     		ldr	r0, .L41+8
 443 001c FFF7FEFF 		bl	chSysHalt
 444              	.L40:
 445              		.loc 4 143 0
 446 0020 00BF     		nop
 447 0022 054B     		ldr	r3, .L41
 448 0024 019A     		ldr	r2, [sp, #4]
 449 0026 1B68     		ldr	r3, [r3]
 450 0028 9A42     		cmp	r2, r3
 451 002a 01D0     		beq	.L39
 452 002c FFF7FEFF 		bl	__stack_chk_fail
 453              	.L39:
ARM GAS  C:\Users\PCHAUT~1\AppData\Local\Temp\ccZi43Pa.s 			page 9


 454 0030 03B0     		add	sp, sp, #12
 455              		.cfi_def_cfa_offset 4
 456              		@ sp needed
 457 0032 5DF804FB 		ldr	pc, [sp], #4
 458              	.L42:
 459 0036 00BF     		.align	2
 460              	.L41:
 461 0038 00000000 		.word	__stack_chk_guard
 462 003c 00000000 		.word	ch
 463 0040 10000000 		.word	.LC2
 464              		.cfi_endproc
 465              	.LFE221:
 466              		.size	_dbg_check_enable, .-_dbg_check_enable
 467              		.section	.rodata
 468 0015 000000   		.align	2
 469              	.LC3:
 470 0018 53562334 		.ascii	"SV#4\000"
 470      00
 471              		.section	.text._dbg_check_lock,"ax",%progbits
 472              		.align	1
 473              		.p2align 4,,15
 474              		.global	_dbg_check_lock
 475              		.syntax unified
 476              		.thumb
 477              		.thumb_func
 478              		.fpu fpv4-sp-d16
 479              		.type	_dbg_check_lock, %function
 480              	_dbg_check_lock:
 481              	.LFB222:
 482              		.loc 4 150 0
 483              		.cfi_startproc
 484              		@ args = 0, pretend = 0, frame = 8
 485              		@ frame_needed = 0, uses_anonymous_args = 0
 486 0000 00B5     		push	{lr}
 487              		.cfi_def_cfa_offset 4
 488              		.cfi_offset 14, -4
 489 0002 83B0     		sub	sp, sp, #12
 490              		.cfi_def_cfa_offset 16
 491              		.loc 4 150 0
 492 0004 0D4B     		ldr	r3, .L47
 493 0006 1B68     		ldr	r3, [r3]
 494 0008 0193     		str	r3, [sp, #4]
 495              		.loc 4 152 0
 496 000a 0D4B     		ldr	r3, .L47+4
 497 000c 1B6B     		ldr	r3, [r3, #48]
 498 000e 002B     		cmp	r3, #0
 499 0010 03D1     		bne	.L44
 500              		.loc 4 152 0 is_stmt 0 discriminator 1
 501 0012 0B4B     		ldr	r3, .L47+4
 502 0014 5B6B     		ldr	r3, [r3, #52]
 503 0016 002B     		cmp	r3, #0
 504 0018 02D0     		beq	.L45
 505              	.L44:
 506              		.loc 4 153 0 is_stmt 1
 507 001a 0A48     		ldr	r0, .L47+8
 508 001c FFF7FEFF 		bl	chSysHalt
 509              	.L45:
ARM GAS  C:\Users\PCHAUT~1\AppData\Local\Temp\ccZi43Pa.s 			page 10


 510              		.loc 4 155 0
 511 0020 074B     		ldr	r3, .L47+4
 512 0022 0122     		movs	r2, #1
 513 0024 5A63     		str	r2, [r3, #52]
 514              		.loc 4 156 0
 515 0026 00BF     		nop
 516 0028 044B     		ldr	r3, .L47
 517 002a 019A     		ldr	r2, [sp, #4]
 518 002c 1B68     		ldr	r3, [r3]
 519 002e 9A42     		cmp	r2, r3
 520 0030 01D0     		beq	.L46
 521 0032 FFF7FEFF 		bl	__stack_chk_fail
 522              	.L46:
 523 0036 03B0     		add	sp, sp, #12
 524              		.cfi_def_cfa_offset 4
 525              		@ sp needed
 526 0038 5DF804FB 		ldr	pc, [sp], #4
 527              	.L48:
 528              		.align	2
 529              	.L47:
 530 003c 00000000 		.word	__stack_chk_guard
 531 0040 00000000 		.word	ch
 532 0044 18000000 		.word	.LC3
 533              		.cfi_endproc
 534              	.LFE222:
 535              		.size	_dbg_check_lock, .-_dbg_check_lock
 536              		.section	.rodata
 537 001d 000000   		.align	2
 538              	.LC4:
 539 0020 53562335 		.ascii	"SV#5\000"
 539      00
 540              		.section	.text._dbg_check_unlock,"ax",%progbits
 541              		.align	1
 542              		.p2align 4,,15
 543              		.global	_dbg_check_unlock
 544              		.syntax unified
 545              		.thumb
 546              		.thumb_func
 547              		.fpu fpv4-sp-d16
 548              		.type	_dbg_check_unlock, %function
 549              	_dbg_check_unlock:
 550              	.LFB223:
 551              		.loc 4 163 0
 552              		.cfi_startproc
 553              		@ args = 0, pretend = 0, frame = 8
 554              		@ frame_needed = 0, uses_anonymous_args = 0
 555 0000 00B5     		push	{lr}
 556              		.cfi_def_cfa_offset 4
 557              		.cfi_offset 14, -4
 558 0002 83B0     		sub	sp, sp, #12
 559              		.cfi_def_cfa_offset 16
 560              		.loc 4 163 0
 561 0004 0D4B     		ldr	r3, .L53
 562 0006 1B68     		ldr	r3, [r3]
 563 0008 0193     		str	r3, [sp, #4]
 564              		.loc 4 165 0
 565 000a 0D4B     		ldr	r3, .L53+4
ARM GAS  C:\Users\PCHAUT~1\AppData\Local\Temp\ccZi43Pa.s 			page 11


 566 000c 1B6B     		ldr	r3, [r3, #48]
 567 000e 002B     		cmp	r3, #0
 568 0010 03D1     		bne	.L50
 569              		.loc 4 165 0 is_stmt 0 discriminator 1
 570 0012 0B4B     		ldr	r3, .L53+4
 571 0014 5B6B     		ldr	r3, [r3, #52]
 572 0016 002B     		cmp	r3, #0
 573 0018 02DC     		bgt	.L51
 574              	.L50:
 575              		.loc 4 166 0 is_stmt 1
 576 001a 0A48     		ldr	r0, .L53+8
 577 001c FFF7FEFF 		bl	chSysHalt
 578              	.L51:
 579              		.loc 4 168 0
 580 0020 074B     		ldr	r3, .L53+4
 581 0022 0022     		movs	r2, #0
 582 0024 5A63     		str	r2, [r3, #52]
 583              		.loc 4 169 0
 584 0026 00BF     		nop
 585 0028 044B     		ldr	r3, .L53
 586 002a 019A     		ldr	r2, [sp, #4]
 587 002c 1B68     		ldr	r3, [r3]
 588 002e 9A42     		cmp	r2, r3
 589 0030 01D0     		beq	.L52
 590 0032 FFF7FEFF 		bl	__stack_chk_fail
 591              	.L52:
 592 0036 03B0     		add	sp, sp, #12
 593              		.cfi_def_cfa_offset 4
 594              		@ sp needed
 595 0038 5DF804FB 		ldr	pc, [sp], #4
 596              	.L54:
 597              		.align	2
 598              	.L53:
 599 003c 00000000 		.word	__stack_chk_guard
 600 0040 00000000 		.word	ch
 601 0044 20000000 		.word	.LC4
 602              		.cfi_endproc
 603              	.LFE223:
 604              		.size	_dbg_check_unlock, .-_dbg_check_unlock
 605              		.section	.rodata
 606 0025 000000   		.align	2
 607              	.LC5:
 608 0028 53562336 		.ascii	"SV#6\000"
 608      00
 609              		.section	.text._dbg_check_lock_from_isr,"ax",%progbits
 610              		.align	1
 611              		.p2align 4,,15
 612              		.global	_dbg_check_lock_from_isr
 613              		.syntax unified
 614              		.thumb
 615              		.thumb_func
 616              		.fpu fpv4-sp-d16
 617              		.type	_dbg_check_lock_from_isr, %function
 618              	_dbg_check_lock_from_isr:
 619              	.LFB224:
 620              		.loc 4 176 0
 621              		.cfi_startproc
ARM GAS  C:\Users\PCHAUT~1\AppData\Local\Temp\ccZi43Pa.s 			page 12


 622              		@ args = 0, pretend = 0, frame = 8
 623              		@ frame_needed = 0, uses_anonymous_args = 0
 624 0000 00B5     		push	{lr}
 625              		.cfi_def_cfa_offset 4
 626              		.cfi_offset 14, -4
 627 0002 83B0     		sub	sp, sp, #12
 628              		.cfi_def_cfa_offset 16
 629              		.loc 4 176 0
 630 0004 0D4B     		ldr	r3, .L59
 631 0006 1B68     		ldr	r3, [r3]
 632 0008 0193     		str	r3, [sp, #4]
 633              		.loc 4 178 0
 634 000a 0D4B     		ldr	r3, .L59+4
 635 000c 1B6B     		ldr	r3, [r3, #48]
 636 000e 002B     		cmp	r3, #0
 637 0010 03DD     		ble	.L56
 638              		.loc 4 178 0 is_stmt 0 discriminator 1
 639 0012 0B4B     		ldr	r3, .L59+4
 640 0014 5B6B     		ldr	r3, [r3, #52]
 641 0016 002B     		cmp	r3, #0
 642 0018 02D0     		beq	.L57
 643              	.L56:
 644              		.loc 4 179 0 is_stmt 1
 645 001a 0A48     		ldr	r0, .L59+8
 646 001c FFF7FEFF 		bl	chSysHalt
 647              	.L57:
 648              		.loc 4 181 0
 649 0020 074B     		ldr	r3, .L59+4
 650 0022 0122     		movs	r2, #1
 651 0024 5A63     		str	r2, [r3, #52]
 652              		.loc 4 182 0
 653 0026 00BF     		nop
 654 0028 044B     		ldr	r3, .L59
 655 002a 019A     		ldr	r2, [sp, #4]
 656 002c 1B68     		ldr	r3, [r3]
 657 002e 9A42     		cmp	r2, r3
 658 0030 01D0     		beq	.L58
 659 0032 FFF7FEFF 		bl	__stack_chk_fail
 660              	.L58:
 661 0036 03B0     		add	sp, sp, #12
 662              		.cfi_def_cfa_offset 4
 663              		@ sp needed
 664 0038 5DF804FB 		ldr	pc, [sp], #4
 665              	.L60:
 666              		.align	2
 667              	.L59:
 668 003c 00000000 		.word	__stack_chk_guard
 669 0040 00000000 		.word	ch
 670 0044 28000000 		.word	.LC5
 671              		.cfi_endproc
 672              	.LFE224:
 673              		.size	_dbg_check_lock_from_isr, .-_dbg_check_lock_from_isr
 674              		.section	.rodata
 675 002d 000000   		.align	2
 676              	.LC6:
 677 0030 53562337 		.ascii	"SV#7\000"
 677      00
ARM GAS  C:\Users\PCHAUT~1\AppData\Local\Temp\ccZi43Pa.s 			page 13


 678              		.section	.text._dbg_check_unlock_from_isr,"ax",%progbits
 679              		.align	1
 680              		.p2align 4,,15
 681              		.global	_dbg_check_unlock_from_isr
 682              		.syntax unified
 683              		.thumb
 684              		.thumb_func
 685              		.fpu fpv4-sp-d16
 686              		.type	_dbg_check_unlock_from_isr, %function
 687              	_dbg_check_unlock_from_isr:
 688              	.LFB225:
 689              		.loc 4 189 0
 690              		.cfi_startproc
 691              		@ args = 0, pretend = 0, frame = 8
 692              		@ frame_needed = 0, uses_anonymous_args = 0
 693 0000 00B5     		push	{lr}
 694              		.cfi_def_cfa_offset 4
 695              		.cfi_offset 14, -4
 696 0002 83B0     		sub	sp, sp, #12
 697              		.cfi_def_cfa_offset 16
 698              		.loc 4 189 0
 699 0004 0D4B     		ldr	r3, .L65
 700 0006 1B68     		ldr	r3, [r3]
 701 0008 0193     		str	r3, [sp, #4]
 702              		.loc 4 191 0
 703 000a 0D4B     		ldr	r3, .L65+4
 704 000c 1B6B     		ldr	r3, [r3, #48]
 705 000e 002B     		cmp	r3, #0
 706 0010 03DD     		ble	.L62
 707              		.loc 4 191 0 is_stmt 0 discriminator 1
 708 0012 0B4B     		ldr	r3, .L65+4
 709 0014 5B6B     		ldr	r3, [r3, #52]
 710 0016 002B     		cmp	r3, #0
 711 0018 02DC     		bgt	.L63
 712              	.L62:
 713              		.loc 4 192 0 is_stmt 1
 714 001a 0A48     		ldr	r0, .L65+8
 715 001c FFF7FEFF 		bl	chSysHalt
 716              	.L63:
 717              		.loc 4 194 0
 718 0020 074B     		ldr	r3, .L65+4
 719 0022 0022     		movs	r2, #0
 720 0024 5A63     		str	r2, [r3, #52]
 721              		.loc 4 195 0
 722 0026 00BF     		nop
 723 0028 044B     		ldr	r3, .L65
 724 002a 019A     		ldr	r2, [sp, #4]
 725 002c 1B68     		ldr	r3, [r3]
 726 002e 9A42     		cmp	r2, r3
 727 0030 01D0     		beq	.L64
 728 0032 FFF7FEFF 		bl	__stack_chk_fail
 729              	.L64:
 730 0036 03B0     		add	sp, sp, #12
 731              		.cfi_def_cfa_offset 4
 732              		@ sp needed
 733 0038 5DF804FB 		ldr	pc, [sp], #4
 734              	.L66:
ARM GAS  C:\Users\PCHAUT~1\AppData\Local\Temp\ccZi43Pa.s 			page 14


 735              		.align	2
 736              	.L65:
 737 003c 00000000 		.word	__stack_chk_guard
 738 0040 00000000 		.word	ch
 739 0044 30000000 		.word	.LC6
 740              		.cfi_endproc
 741              	.LFE225:
 742              		.size	_dbg_check_unlock_from_isr, .-_dbg_check_unlock_from_isr
 743              		.section	.rodata
 744 0035 000000   		.align	2
 745              	.LC7:
 746 0038 53562338 		.ascii	"SV#8\000"
 746      00
 747              		.section	.text._dbg_check_enter_isr,"ax",%progbits
 748              		.align	1
 749              		.p2align 4,,15
 750              		.global	_dbg_check_enter_isr
 751              		.syntax unified
 752              		.thumb
 753              		.thumb_func
 754              		.fpu fpv4-sp-d16
 755              		.type	_dbg_check_enter_isr, %function
 756              	_dbg_check_enter_isr:
 757              	.LFB226:
 758              		.loc 4 202 0
 759              		.cfi_startproc
 760              		@ args = 0, pretend = 0, frame = 8
 761              		@ frame_needed = 0, uses_anonymous_args = 0
 762 0000 00B5     		push	{lr}
 763              		.cfi_def_cfa_offset 4
 764              		.cfi_offset 14, -4
 765 0002 83B0     		sub	sp, sp, #12
 766              		.cfi_def_cfa_offset 16
 767              		.loc 4 202 0
 768 0004 104B     		ldr	r3, .L71
 769 0006 1B68     		ldr	r3, [r3]
 770 0008 0193     		str	r3, [sp, #4]
 771              		.loc 4 204 0
 772 000a FFF7FEFF 		bl	port_lock_from_isr
 773              		.loc 4 205 0
 774 000e 0F4B     		ldr	r3, .L71+4
 775 0010 1B6B     		ldr	r3, [r3, #48]
 776 0012 002B     		cmp	r3, #0
 777 0014 03DB     		blt	.L68
 778              		.loc 4 205 0 is_stmt 0 discriminator 1
 779 0016 0D4B     		ldr	r3, .L71+4
 780 0018 5B6B     		ldr	r3, [r3, #52]
 781 001a 002B     		cmp	r3, #0
 782 001c 02D0     		beq	.L69
 783              	.L68:
 784              		.loc 4 206 0 is_stmt 1
 785 001e 0C48     		ldr	r0, .L71+8
 786 0020 FFF7FEFF 		bl	chSysHalt
 787              	.L69:
 788              		.loc 4 208 0
 789 0024 094B     		ldr	r3, .L71+4
 790 0026 1B6B     		ldr	r3, [r3, #48]
ARM GAS  C:\Users\PCHAUT~1\AppData\Local\Temp\ccZi43Pa.s 			page 15


 791 0028 0133     		adds	r3, r3, #1
 792 002a 084A     		ldr	r2, .L71+4
 793 002c 1363     		str	r3, [r2, #48]
 794              		.loc 4 209 0
 795 002e FFF7FEFF 		bl	port_unlock_from_isr
 796              		.loc 4 210 0
 797 0032 00BF     		nop
 798 0034 044B     		ldr	r3, .L71
 799 0036 019A     		ldr	r2, [sp, #4]
 800 0038 1B68     		ldr	r3, [r3]
 801 003a 9A42     		cmp	r2, r3
 802 003c 01D0     		beq	.L70
 803 003e FFF7FEFF 		bl	__stack_chk_fail
 804              	.L70:
 805 0042 03B0     		add	sp, sp, #12
 806              		.cfi_def_cfa_offset 4
 807              		@ sp needed
 808 0044 5DF804FB 		ldr	pc, [sp], #4
 809              	.L72:
 810              		.align	2
 811              	.L71:
 812 0048 00000000 		.word	__stack_chk_guard
 813 004c 00000000 		.word	ch
 814 0050 38000000 		.word	.LC7
 815              		.cfi_endproc
 816              	.LFE226:
 817              		.size	_dbg_check_enter_isr, .-_dbg_check_enter_isr
 818              		.section	.rodata
 819 003d 000000   		.align	2
 820              	.LC8:
 821 0040 53562339 		.ascii	"SV#9\000"
 821      00
 822              		.section	.text._dbg_check_leave_isr,"ax",%progbits
 823              		.align	1
 824              		.p2align 4,,15
 825              		.global	_dbg_check_leave_isr
 826              		.syntax unified
 827              		.thumb
 828              		.thumb_func
 829              		.fpu fpv4-sp-d16
 830              		.type	_dbg_check_leave_isr, %function
 831              	_dbg_check_leave_isr:
 832              	.LFB227:
 833              		.loc 4 217 0
 834              		.cfi_startproc
 835              		@ args = 0, pretend = 0, frame = 8
 836              		@ frame_needed = 0, uses_anonymous_args = 0
 837 0000 00B5     		push	{lr}
 838              		.cfi_def_cfa_offset 4
 839              		.cfi_offset 14, -4
 840 0002 83B0     		sub	sp, sp, #12
 841              		.cfi_def_cfa_offset 16
 842              		.loc 4 217 0
 843 0004 104B     		ldr	r3, .L77
 844 0006 1B68     		ldr	r3, [r3]
 845 0008 0193     		str	r3, [sp, #4]
 846              		.loc 4 219 0
ARM GAS  C:\Users\PCHAUT~1\AppData\Local\Temp\ccZi43Pa.s 			page 16


 847 000a FFF7FEFF 		bl	port_lock_from_isr
 848              		.loc 4 220 0
 849 000e 0F4B     		ldr	r3, .L77+4
 850 0010 1B6B     		ldr	r3, [r3, #48]
 851 0012 002B     		cmp	r3, #0
 852 0014 03DD     		ble	.L74
 853              		.loc 4 220 0 is_stmt 0 discriminator 1
 854 0016 0D4B     		ldr	r3, .L77+4
 855 0018 5B6B     		ldr	r3, [r3, #52]
 856 001a 002B     		cmp	r3, #0
 857 001c 02D0     		beq	.L75
 858              	.L74:
 859              		.loc 4 221 0 is_stmt 1
 860 001e 0C48     		ldr	r0, .L77+8
 861 0020 FFF7FEFF 		bl	chSysHalt
 862              	.L75:
 863              		.loc 4 223 0
 864 0024 094B     		ldr	r3, .L77+4
 865 0026 1B6B     		ldr	r3, [r3, #48]
 866 0028 013B     		subs	r3, r3, #1
 867 002a 084A     		ldr	r2, .L77+4
 868 002c 1363     		str	r3, [r2, #48]
 869              		.loc 4 224 0
 870 002e FFF7FEFF 		bl	port_unlock_from_isr
 871              		.loc 4 225 0
 872 0032 00BF     		nop
 873 0034 044B     		ldr	r3, .L77
 874 0036 019A     		ldr	r2, [sp, #4]
 875 0038 1B68     		ldr	r3, [r3]
 876 003a 9A42     		cmp	r2, r3
 877 003c 01D0     		beq	.L76
 878 003e FFF7FEFF 		bl	__stack_chk_fail
 879              	.L76:
 880 0042 03B0     		add	sp, sp, #12
 881              		.cfi_def_cfa_offset 4
 882              		@ sp needed
 883 0044 5DF804FB 		ldr	pc, [sp], #4
 884              	.L78:
 885              		.align	2
 886              	.L77:
 887 0048 00000000 		.word	__stack_chk_guard
 888 004c 00000000 		.word	ch
 889 0050 40000000 		.word	.LC8
 890              		.cfi_endproc
 891              	.LFE227:
 892              		.size	_dbg_check_leave_isr, .-_dbg_check_leave_isr
 893              		.section	.rodata
 894 0045 000000   		.align	2
 895              	.LC9:
 896 0048 53562331 		.ascii	"SV#10\000"
 896      3000
 897              		.section	.text.chDbgCheckClassI,"ax",%progbits
 898              		.align	1
 899              		.p2align 4,,15
 900              		.global	chDbgCheckClassI
 901              		.syntax unified
 902              		.thumb
ARM GAS  C:\Users\PCHAUT~1\AppData\Local\Temp\ccZi43Pa.s 			page 17


 903              		.thumb_func
 904              		.fpu fpv4-sp-d16
 905              		.type	chDbgCheckClassI, %function
 906              	chDbgCheckClassI:
 907              	.LFB228:
 908              		.loc 4 235 0
 909              		.cfi_startproc
 910              		@ args = 0, pretend = 0, frame = 8
 911              		@ frame_needed = 0, uses_anonymous_args = 0
 912 0000 00B5     		push	{lr}
 913              		.cfi_def_cfa_offset 4
 914              		.cfi_offset 14, -4
 915 0002 83B0     		sub	sp, sp, #12
 916              		.cfi_def_cfa_offset 16
 917              		.loc 4 235 0
 918 0004 0C4B     		ldr	r3, .L84
 919 0006 1B68     		ldr	r3, [r3]
 920 0008 0193     		str	r3, [sp, #4]
 921              		.loc 4 237 0
 922 000a 0C4B     		ldr	r3, .L84+4
 923 000c 1B6B     		ldr	r3, [r3, #48]
 924 000e 002B     		cmp	r3, #0
 925 0010 03DB     		blt	.L80
 926              		.loc 4 237 0 is_stmt 0 discriminator 1
 927 0012 0A4B     		ldr	r3, .L84+4
 928 0014 5B6B     		ldr	r3, [r3, #52]
 929 0016 002B     		cmp	r3, #0
 930 0018 02DC     		bgt	.L83
 931              	.L80:
 932              		.loc 4 238 0 is_stmt 1
 933 001a 0948     		ldr	r0, .L84+8
 934 001c FFF7FEFF 		bl	chSysHalt
 935              	.L83:
 936              		.loc 4 240 0
 937 0020 00BF     		nop
 938 0022 054B     		ldr	r3, .L84
 939 0024 019A     		ldr	r2, [sp, #4]
 940 0026 1B68     		ldr	r3, [r3]
 941 0028 9A42     		cmp	r2, r3
 942 002a 01D0     		beq	.L82
 943 002c FFF7FEFF 		bl	__stack_chk_fail
 944              	.L82:
 945 0030 03B0     		add	sp, sp, #12
 946              		.cfi_def_cfa_offset 4
 947              		@ sp needed
 948 0032 5DF804FB 		ldr	pc, [sp], #4
 949              	.L85:
 950 0036 00BF     		.align	2
 951              	.L84:
 952 0038 00000000 		.word	__stack_chk_guard
 953 003c 00000000 		.word	ch
 954 0040 48000000 		.word	.LC9
 955              		.cfi_endproc
 956              	.LFE228:
 957              		.size	chDbgCheckClassI, .-chDbgCheckClassI
 958              		.section	.rodata
 959 004e 0000     		.align	2
ARM GAS  C:\Users\PCHAUT~1\AppData\Local\Temp\ccZi43Pa.s 			page 18


 960              	.LC10:
 961 0050 53562331 		.ascii	"SV#11\000"
 961      3100
 962              		.section	.text.chDbgCheckClassS,"ax",%progbits
 963              		.align	1
 964              		.p2align 4,,15
 965              		.global	chDbgCheckClassS
 966              		.syntax unified
 967              		.thumb
 968              		.thumb_func
 969              		.fpu fpv4-sp-d16
 970              		.type	chDbgCheckClassS, %function
 971              	chDbgCheckClassS:
 972              	.LFB229:
 973              		.loc 4 250 0
 974              		.cfi_startproc
 975              		@ args = 0, pretend = 0, frame = 8
 976              		@ frame_needed = 0, uses_anonymous_args = 0
 977 0000 00B5     		push	{lr}
 978              		.cfi_def_cfa_offset 4
 979              		.cfi_offset 14, -4
 980 0002 83B0     		sub	sp, sp, #12
 981              		.cfi_def_cfa_offset 16
 982              		.loc 4 250 0
 983 0004 0C4B     		ldr	r3, .L91
 984 0006 1B68     		ldr	r3, [r3]
 985 0008 0193     		str	r3, [sp, #4]
 986              		.loc 4 252 0
 987 000a 0C4B     		ldr	r3, .L91+4
 988 000c 1B6B     		ldr	r3, [r3, #48]
 989 000e 002B     		cmp	r3, #0
 990 0010 03D1     		bne	.L87
 991              		.loc 4 252 0 is_stmt 0 discriminator 1
 992 0012 0A4B     		ldr	r3, .L91+4
 993 0014 5B6B     		ldr	r3, [r3, #52]
 994 0016 002B     		cmp	r3, #0
 995 0018 02DC     		bgt	.L90
 996              	.L87:
 997              		.loc 4 253 0 is_stmt 1
 998 001a 0948     		ldr	r0, .L91+8
 999 001c FFF7FEFF 		bl	chSysHalt
 1000              	.L90:
 1001              		.loc 4 255 0
 1002 0020 00BF     		nop
 1003 0022 054B     		ldr	r3, .L91
 1004 0024 019A     		ldr	r2, [sp, #4]
 1005 0026 1B68     		ldr	r3, [r3]
 1006 0028 9A42     		cmp	r2, r3
 1007 002a 01D0     		beq	.L89
 1008 002c FFF7FEFF 		bl	__stack_chk_fail
 1009              	.L89:
 1010 0030 03B0     		add	sp, sp, #12
 1011              		.cfi_def_cfa_offset 4
 1012              		@ sp needed
 1013 0032 5DF804FB 		ldr	pc, [sp], #4
 1014              	.L92:
 1015 0036 00BF     		.align	2
ARM GAS  C:\Users\PCHAUT~1\AppData\Local\Temp\ccZi43Pa.s 			page 19


 1016              	.L91:
 1017 0038 00000000 		.word	__stack_chk_guard
 1018 003c 00000000 		.word	ch
 1019 0040 50000000 		.word	.LC10
 1020              		.cfi_endproc
 1021              	.LFE229:
 1022              		.size	chDbgCheckClassS, .-chDbgCheckClassS
 1023              		.section	.text._dbg_trace_init,"ax",%progbits
 1024              		.align	1
 1025              		.p2align 4,,15
 1026              		.global	_dbg_trace_init
 1027              		.syntax unified
 1028              		.thumb
 1029              		.thumb_func
 1030              		.fpu fpv4-sp-d16
 1031              		.type	_dbg_trace_init, %function
 1032              	_dbg_trace_init:
 1033              	.LFB230:
 1034              		.loc 4 264 0
 1035              		.cfi_startproc
 1036              		@ args = 0, pretend = 0, frame = 8
 1037              		@ frame_needed = 0, uses_anonymous_args = 0
 1038 0000 00B5     		push	{lr}
 1039              		.cfi_def_cfa_offset 4
 1040              		.cfi_offset 14, -4
 1041 0002 83B0     		sub	sp, sp, #12
 1042              		.cfi_def_cfa_offset 16
 1043              		.loc 4 264 0
 1044 0004 094B     		ldr	r3, .L95
 1045 0006 1B68     		ldr	r3, [r3]
 1046 0008 0193     		str	r3, [sp, #4]
 1047              		.loc 4 266 0
 1048 000a 094B     		ldr	r3, .L95+4
 1049 000c 4022     		movs	r2, #64
 1050 000e 9A63     		str	r2, [r3, #56]
 1051              		.loc 4 267 0
 1052 0010 074B     		ldr	r3, .L95+4
 1053 0012 084A     		ldr	r2, .L95+8
 1054 0014 DA63     		str	r2, [r3, #60]
 1055              		.loc 4 268 0
 1056 0016 00BF     		nop
 1057 0018 044B     		ldr	r3, .L95
 1058 001a 019A     		ldr	r2, [sp, #4]
 1059 001c 1B68     		ldr	r3, [r3]
 1060 001e 9A42     		cmp	r2, r3
 1061 0020 01D0     		beq	.L94
 1062 0022 FFF7FEFF 		bl	__stack_chk_fail
 1063              	.L94:
 1064 0026 03B0     		add	sp, sp, #12
 1065              		.cfi_def_cfa_offset 4
 1066              		@ sp needed
 1067 0028 5DF804FB 		ldr	pc, [sp], #4
 1068              	.L96:
 1069              		.align	2
 1070              	.L95:
 1071 002c 00000000 		.word	__stack_chk_guard
 1072 0030 00000000 		.word	ch
ARM GAS  C:\Users\PCHAUT~1\AppData\Local\Temp\ccZi43Pa.s 			page 20


 1073 0034 40000000 		.word	ch+64
 1074              		.cfi_endproc
 1075              	.LFE230:
 1076              		.size	_dbg_trace_init, .-_dbg_trace_init
 1077              		.section	.text._dbg_trace,"ax",%progbits
 1078              		.align	1
 1079              		.p2align 4,,15
 1080              		.global	_dbg_trace
 1081              		.syntax unified
 1082              		.thumb
 1083              		.thumb_func
 1084              		.fpu fpv4-sp-d16
 1085              		.type	_dbg_trace, %function
 1086              	_dbg_trace:
 1087              	.LFB231:
 1088              		.loc 4 277 0
 1089              		.cfi_startproc
 1090              		@ args = 0, pretend = 0, frame = 16
 1091              		@ frame_needed = 0, uses_anonymous_args = 0
 1092 0000 10B5     		push	{r4, lr}
 1093              		.cfi_def_cfa_offset 8
 1094              		.cfi_offset 4, -8
 1095              		.cfi_offset 14, -4
 1096 0002 84B0     		sub	sp, sp, #16
 1097              		.cfi_def_cfa_offset 24
 1098 0004 0190     		str	r0, [sp, #4]
 1099              		.loc 4 277 0
 1100 0006 184B     		ldr	r3, .L101
 1101 0008 1B68     		ldr	r3, [r3]
 1102 000a 0393     		str	r3, [sp, #12]
 1103              		.loc 4 279 0
 1104 000c 174B     		ldr	r3, .L101+4
 1105 000e DC6B     		ldr	r4, [r3, #60]
 1106 0010 FFF7FEFF 		bl	chVTGetSystemTimeX
 1107 0014 0346     		mov	r3, r0
 1108 0016 2360     		str	r3, [r4]
 1109              		.loc 4 280 0
 1110 0018 144B     		ldr	r3, .L101+4
 1111 001a DB6B     		ldr	r3, [r3, #60]
 1112 001c 134A     		ldr	r2, .L101+4
 1113 001e 9269     		ldr	r2, [r2, #24]
 1114 0020 5A60     		str	r2, [r3, #4]
 1115              		.loc 4 281 0
 1116 0022 124B     		ldr	r3, .L101+4
 1117 0024 DB6B     		ldr	r3, [r3, #60]
 1118 0026 019A     		ldr	r2, [sp, #4]
 1119 0028 926A     		ldr	r2, [r2, #40]
 1120 002a 9A60     		str	r2, [r3, #8]
 1121              		.loc 4 282 0
 1122 002c 0F4B     		ldr	r3, .L101+4
 1123 002e DB6B     		ldr	r3, [r3, #60]
 1124 0030 019A     		ldr	r2, [sp, #4]
 1125 0032 92F82020 		ldrb	r2, [r2, #32]	@ zero_extendqisi2
 1126 0036 1A73     		strb	r2, [r3, #12]
 1127              		.loc 4 283 0
 1128 0038 0C4B     		ldr	r3, .L101+4
 1129 003a DB6B     		ldr	r3, [r3, #60]
ARM GAS  C:\Users\PCHAUT~1\AppData\Local\Temp\ccZi43Pa.s 			page 21


 1130 003c 1033     		adds	r3, r3, #16
 1131 003e 0B4A     		ldr	r2, .L101+4
 1132 0040 D363     		str	r3, [r2, #60]
 1133 0042 0A4B     		ldr	r3, .L101+4
 1134 0044 DB6B     		ldr	r3, [r3, #60]
 1135 0046 0A4A     		ldr	r2, .L101+8
 1136 0048 9342     		cmp	r3, r2
 1137 004a 02D3     		bcc	.L100
 1138              		.loc 4 285 0
 1139 004c 074B     		ldr	r3, .L101+4
 1140 004e 094A     		ldr	r2, .L101+12
 1141 0050 DA63     		str	r2, [r3, #60]
 1142              	.L100:
 1143              		.loc 4 287 0
 1144 0052 00BF     		nop
 1145 0054 044B     		ldr	r3, .L101
 1146 0056 039A     		ldr	r2, [sp, #12]
 1147 0058 1B68     		ldr	r3, [r3]
 1148 005a 9A42     		cmp	r2, r3
 1149 005c 01D0     		beq	.L99
 1150 005e FFF7FEFF 		bl	__stack_chk_fail
 1151              	.L99:
 1152 0062 04B0     		add	sp, sp, #16
 1153              		.cfi_def_cfa_offset 8
 1154              		@ sp needed
 1155 0064 10BD     		pop	{r4, pc}
 1156              	.L102:
 1157 0066 00BF     		.align	2
 1158              	.L101:
 1159 0068 00000000 		.word	__stack_chk_guard
 1160 006c 00000000 		.word	ch
 1161 0070 40040000 		.word	ch+1088
 1162 0074 40000000 		.word	ch+64
 1163              		.cfi_endproc
 1164              	.LFE231:
 1165              		.size	_dbg_trace, .-_dbg_trace
 1166              		.text
 1167              	.Letext0:
 1168              		.file 5 "c:\\users\\pchautems\\documents\\robotiquetp\\eclipse_e-puck2\\tools\\gcc-arm-none-eabi-7
 1169              		.file 6 "c:\\users\\pchautems\\documents\\robotiquetp\\eclipse_e-puck2\\tools\\gcc-arm-none-eabi-7
 1170              		.file 7 "../lib/e-puck2_main-processor/ChibiOS//os/rt/ports/ARMCMx/compilers/GCC/chtypes.h"
 1171              		.file 8 "../lib/e-puck2_main-processor/ChibiOS//os/rt/include/chsystypes.h"
 1172              		.file 9 "../lib/e-puck2_main-processor/ChibiOS//os/rt/include/chschd.h"
 1173              		.file 10 "../lib/e-puck2_main-processor/ChibiOS//os/ext/CMSIS/include/core_cm4.h"
 1174              		.file 11 "../lib/e-puck2_main-processor/ChibiOS//os/ext/CMSIS/ST/system_stm32f4xx.h"
 1175              		.file 12 "../lib/e-puck2_main-processor/ChibiOS//os/rt/ports/ARMCMx/chcore.h"
 1176              		.file 13 "../lib/e-puck2_main-processor/ChibiOS//os/rt/include/chdebug.h"
 1177              		.file 14 "../lib/e-puck2_main-processor/ChibiOS//os/rt/include/chtm.h"
 1178              		.file 15 "../lib/e-puck2_main-processor/ChibiOS//os/rt/include/chstats.h"
 1179              		.file 16 "../lib/e-puck2_main-processor/ChibiOS//os/rt/include/chsem.h"
 1180              		.file 17 "../lib/e-puck2_main-processor/ChibiOS//os/rt/include/chmtx.h"
 1181              		.file 18 "../lib/e-puck2_main-processor/ChibiOS//os/rt/include/chregistry.h"
 1182              		.section	.debug_info,"",%progbits
 1183              	.Ldebug_info0:
 1184 0000 8B0B0000 		.4byte	0xb8b
 1185 0004 0400     		.2byte	0x4
 1186 0006 00000000 		.4byte	.Ldebug_abbrev0
ARM GAS  C:\Users\PCHAUT~1\AppData\Local\Temp\ccZi43Pa.s 			page 22


 1187 000a 04       		.byte	0x4
 1188 000b 01       		.uleb128 0x1
 1189 000c F7010000 		.4byte	.LASF172
 1190 0010 0C       		.byte	0xc
 1191 0011 C7000000 		.4byte	.LASF173
 1192 0015 0B070000 		.4byte	.LASF174
 1193 0019 00000000 		.4byte	.Ldebug_ranges0+0
 1194 001d 00000000 		.4byte	0
 1195 0021 00000000 		.4byte	.Ldebug_line0
 1196 0025 02       		.uleb128 0x2
 1197 0026 04       		.byte	0x4
 1198 0027 05       		.byte	0x5
 1199 0028 696E7400 		.ascii	"int\000"
 1200 002c 03       		.uleb128 0x3
 1201 002d 04       		.byte	0x4
 1202 002e 07       		.byte	0x7
 1203 002f F8030000 		.4byte	.LASF0
 1204 0033 03       		.uleb128 0x3
 1205 0034 08       		.byte	0x8
 1206 0035 05       		.byte	0x5
 1207 0036 6E010000 		.4byte	.LASF1
 1208 003a 03       		.uleb128 0x3
 1209 003b 08       		.byte	0x8
 1210 003c 04       		.byte	0x4
 1211 003d 89050000 		.4byte	.LASF2
 1212 0041 03       		.uleb128 0x3
 1213 0042 01       		.byte	0x1
 1214 0043 06       		.byte	0x6
 1215 0044 7C010000 		.4byte	.LASF3
 1216 0048 04       		.uleb128 0x4
 1217 0049 45000000 		.4byte	.LASF6
 1218 004d 05       		.byte	0x5
 1219 004e 2B       		.byte	0x2b
 1220 004f 53000000 		.4byte	0x53
 1221 0053 03       		.uleb128 0x3
 1222 0054 01       		.byte	0x1
 1223 0055 08       		.byte	0x8
 1224 0056 83060000 		.4byte	.LASF4
 1225 005a 03       		.uleb128 0x3
 1226 005b 02       		.byte	0x2
 1227 005c 05       		.byte	0x5
 1228 005d AB060000 		.4byte	.LASF5
 1229 0061 04       		.uleb128 0x4
 1230 0062 DF070000 		.4byte	.LASF7
 1231 0066 05       		.byte	0x5
 1232 0067 39       		.byte	0x39
 1233 0068 6C000000 		.4byte	0x6c
 1234 006c 03       		.uleb128 0x3
 1235 006d 02       		.byte	0x2
 1236 006e 07       		.byte	0x7
 1237 006f 6B040000 		.4byte	.LASF8
 1238 0073 04       		.uleb128 0x4
 1239 0074 24010000 		.4byte	.LASF9
 1240 0078 05       		.byte	0x5
 1241 0079 4D       		.byte	0x4d
 1242 007a 7E000000 		.4byte	0x7e
 1243 007e 03       		.uleb128 0x3
ARM GAS  C:\Users\PCHAUT~1\AppData\Local\Temp\ccZi43Pa.s 			page 23


 1244 007f 04       		.byte	0x4
 1245 0080 05       		.byte	0x5
 1246 0081 EE010000 		.4byte	.LASF10
 1247 0085 04       		.uleb128 0x4
 1248 0086 32080000 		.4byte	.LASF11
 1249 008a 05       		.byte	0x5
 1250 008b 4F       		.byte	0x4f
 1251 008c 90000000 		.4byte	0x90
 1252 0090 03       		.uleb128 0x3
 1253 0091 04       		.byte	0x4
 1254 0092 07       		.byte	0x7
 1255 0093 C1070000 		.4byte	.LASF12
 1256 0097 04       		.uleb128 0x4
 1257 0098 20060000 		.4byte	.LASF13
 1258 009c 05       		.byte	0x5
 1259 009d 69       		.byte	0x69
 1260 009e A2000000 		.4byte	0xa2
 1261 00a2 03       		.uleb128 0x3
 1262 00a3 08       		.byte	0x8
 1263 00a4 07       		.byte	0x7
 1264 00a5 9E000000 		.4byte	.LASF14
 1265 00a9 04       		.uleb128 0x4
 1266 00aa DC080000 		.4byte	.LASF15
 1267 00ae 06       		.byte	0x6
 1268 00af 18       		.byte	0x18
 1269 00b0 48000000 		.4byte	0x48
 1270 00b4 04       		.uleb128 0x4
 1271 00b5 0D040000 		.4byte	.LASF16
 1272 00b9 06       		.byte	0x6
 1273 00ba 24       		.byte	0x24
 1274 00bb 61000000 		.4byte	0x61
 1275 00bf 04       		.uleb128 0x4
 1276 00c0 7B060000 		.4byte	.LASF17
 1277 00c4 06       		.byte	0x6
 1278 00c5 2C       		.byte	0x2c
 1279 00c6 73000000 		.4byte	0x73
 1280 00ca 05       		.uleb128 0x5
 1281 00cb BF000000 		.4byte	0xbf
 1282 00cf 04       		.uleb128 0x4
 1283 00d0 8C070000 		.4byte	.LASF18
 1284 00d4 06       		.byte	0x6
 1285 00d5 30       		.byte	0x30
 1286 00d6 85000000 		.4byte	0x85
 1287 00da 04       		.uleb128 0x4
 1288 00db 2F000000 		.4byte	.LASF19
 1289 00df 06       		.byte	0x6
 1290 00e0 3C       		.byte	0x3c
 1291 00e1 97000000 		.4byte	0x97
 1292 00e5 04       		.uleb128 0x4
 1293 00e6 5A050000 		.4byte	.LASF20
 1294 00ea 07       		.byte	0x7
 1295 00eb 45       		.byte	0x45
 1296 00ec CF000000 		.4byte	0xcf
 1297 00f0 04       		.uleb128 0x4
 1298 00f1 51010000 		.4byte	.LASF21
 1299 00f5 07       		.byte	0x7
 1300 00f6 46       		.byte	0x46
ARM GAS  C:\Users\PCHAUT~1\AppData\Local\Temp\ccZi43Pa.s 			page 24


 1301 00f7 DA000000 		.4byte	0xda
 1302 00fb 04       		.uleb128 0x4
 1303 00fc E4060000 		.4byte	.LASF22
 1304 0100 07       		.byte	0x7
 1305 0101 48       		.byte	0x48
 1306 0102 A9000000 		.4byte	0xa9
 1307 0106 04       		.uleb128 0x4
 1308 0107 4E030000 		.4byte	.LASF23
 1309 010b 07       		.byte	0x7
 1310 010c 49       		.byte	0x49
 1311 010d A9000000 		.4byte	0xa9
 1312 0111 04       		.uleb128 0x4
 1313 0112 36060000 		.4byte	.LASF24
 1314 0116 07       		.byte	0x7
 1315 0117 4A       		.byte	0x4a
 1316 0118 A9000000 		.4byte	0xa9
 1317 011c 04       		.uleb128 0x4
 1318 011d C8010000 		.4byte	.LASF25
 1319 0121 07       		.byte	0x7
 1320 0122 4B       		.byte	0x4b
 1321 0123 A9000000 		.4byte	0xa9
 1322 0127 04       		.uleb128 0x4
 1323 0128 6A060000 		.4byte	.LASF26
 1324 012c 07       		.byte	0x7
 1325 012d 4C       		.byte	0x4c
 1326 012e CF000000 		.4byte	0xcf
 1327 0132 04       		.uleb128 0x4
 1328 0133 97040000 		.4byte	.LASF27
 1329 0137 07       		.byte	0x7
 1330 0138 4D       		.byte	0x4d
 1331 0139 BF000000 		.4byte	0xbf
 1332 013d 04       		.uleb128 0x4
 1333 013e 03050000 		.4byte	.LASF28
 1334 0142 07       		.byte	0x7
 1335 0143 4F       		.byte	0x4f
 1336 0144 CF000000 		.4byte	0xcf
 1337 0148 04       		.uleb128 0x4
 1338 0149 D4030000 		.4byte	.LASF29
 1339 014d 07       		.byte	0x7
 1340 014e 51       		.byte	0x51
 1341 014f BF000000 		.4byte	0xbf
 1342 0153 04       		.uleb128 0x4
 1343 0154 A2040000 		.4byte	.LASF30
 1344 0158 07       		.byte	0x7
 1345 0159 52       		.byte	0x52
 1346 015a CF000000 		.4byte	0xcf
 1347 015e 04       		.uleb128 0x4
 1348 015f 14080000 		.4byte	.LASF31
 1349 0163 08       		.byte	0x8
 1350 0164 33       		.byte	0x33
 1351 0165 CF000000 		.4byte	0xcf
 1352 0169 05       		.uleb128 0x5
 1353 016a 5E010000 		.4byte	0x15e
 1354 016e 04       		.uleb128 0x4
 1355 016f FF070000 		.4byte	.LASF32
 1356 0173 08       		.byte	0x8
 1357 0174 3F       		.byte	0x3f
ARM GAS  C:\Users\PCHAUT~1\AppData\Local\Temp\ccZi43Pa.s 			page 25


 1358 0175 79010000 		.4byte	0x179
 1359 0179 06       		.uleb128 0x6
 1360 017a 8D040000 		.4byte	.LASF56
 1361 017e 68       		.byte	0x68
 1362 017f 09       		.byte	0x9
 1363 0180 C2       		.byte	0xc2
 1364 0181 97020000 		.4byte	0x297
 1365 0185 07       		.uleb128 0x7
 1366 0186 DD060000 		.4byte	.LASF33
 1367 018a 09       		.byte	0x9
 1368 018b C3       		.byte	0xc3
 1369 018c A2020000 		.4byte	0x2a2
 1370 0190 00       		.byte	0
 1371 0191 07       		.uleb128 0x7
 1372 0192 63060000 		.4byte	.LASF34
 1373 0196 09       		.byte	0x9
 1374 0197 C5       		.byte	0xc5
 1375 0198 A2020000 		.4byte	0x2a2
 1376 019c 04       		.byte	0x4
 1377 019d 07       		.uleb128 0x7
 1378 019e 5A010000 		.4byte	.LASF35
 1379 01a2 09       		.byte	0x9
 1380 01a3 C7       		.byte	0xc7
 1381 01a4 27010000 		.4byte	0x127
 1382 01a8 08       		.byte	0x8
 1383 01a9 07       		.uleb128 0x7
 1384 01aa DE050000 		.4byte	.LASF36
 1385 01ae 09       		.byte	0x9
 1386 01af C8       		.byte	0xc8
 1387 01b0 1B050000 		.4byte	0x51b
 1388 01b4 0C       		.byte	0xc
 1389 01b5 07       		.uleb128 0x7
 1390 01b6 67030000 		.4byte	.LASF37
 1391 01ba 09       		.byte	0x9
 1392 01bb CA       		.byte	0xca
 1393 01bc A2020000 		.4byte	0x2a2
 1394 01c0 10       		.byte	0x10
 1395 01c1 07       		.uleb128 0x7
 1396 01c2 C7060000 		.4byte	.LASF38
 1397 01c6 09       		.byte	0x9
 1398 01c7 CB       		.byte	0xcb
 1399 01c8 A2020000 		.4byte	0x2a2
 1400 01cc 14       		.byte	0x14
 1401 01cd 07       		.uleb128 0x7
 1402 01ce 10090000 		.4byte	.LASF39
 1403 01d2 09       		.byte	0x9
 1404 01d3 D2       		.byte	0xd2
 1405 01d4 91080000 		.4byte	0x891
 1406 01d8 18       		.byte	0x18
 1407 01d9 07       		.uleb128 0x7
 1408 01da ED030000 		.4byte	.LASF40
 1409 01de 09       		.byte	0x9
 1410 01df D8       		.byte	0xd8
 1411 01e0 A8080000 		.4byte	0x8a8
 1412 01e4 1C       		.byte	0x1c
 1413 01e5 07       		.uleb128 0x7
 1414 01e6 B5060000 		.4byte	.LASF41
ARM GAS  C:\Users\PCHAUT~1\AppData\Local\Temp\ccZi43Pa.s 			page 26


 1415 01ea 09       		.byte	0x9
 1416 01eb DD       		.byte	0xdd
 1417 01ec 06010000 		.4byte	0x106
 1418 01f0 20       		.byte	0x20
 1419 01f1 07       		.uleb128 0x7
 1420 01f2 FB060000 		.4byte	.LASF42
 1421 01f6 09       		.byte	0x9
 1422 01f7 E1       		.byte	0xe1
 1423 01f8 FB000000 		.4byte	0xfb
 1424 01fc 21       		.byte	0x21
 1425 01fd 07       		.uleb128 0x7
 1426 01fe BE080000 		.4byte	.LASF43
 1427 0202 09       		.byte	0x9
 1428 0203 E6       		.byte	0xe6
 1429 0204 11010000 		.4byte	0x111
 1430 0208 22       		.byte	0x22
 1431 0209 07       		.uleb128 0x7
 1432 020a BD060000 		.4byte	.LASF44
 1433 020e 09       		.byte	0x9
 1434 020f EC       		.byte	0xec
 1435 0210 1C010000 		.4byte	0x11c
 1436 0214 23       		.byte	0x23
 1437 0215 07       		.uleb128 0x7
 1438 0216 E3040000 		.4byte	.LASF45
 1439 021a 09       		.byte	0x9
 1440 021b F3       		.byte	0xf3
 1441 021c 69010000 		.4byte	0x169
 1442 0220 24       		.byte	0x24
 1443 0221 08       		.uleb128 0x8
 1444 0222 705F7500 		.ascii	"p_u\000"
 1445 0226 09       		.byte	0x9
 1446 0227 3101     		.2byte	0x131
 1447 0229 C0070000 		.4byte	0x7c0
 1448 022d 28       		.byte	0x28
 1449 022e 09       		.uleb128 0x9
 1450 022f 50050000 		.4byte	.LASF46
 1451 0233 09       		.byte	0x9
 1452 0234 3601     		.2byte	0x136
 1453 0236 A8020000 		.4byte	0x2a8
 1454 023a 2C       		.byte	0x2c
 1455 023b 09       		.uleb128 0x9
 1456 023c 4B040000 		.4byte	.LASF47
 1457 0240 09       		.byte	0x9
 1458 0241 3C01     		.2byte	0x13c
 1459 0243 CC020000 		.4byte	0x2cc
 1460 0247 30       		.byte	0x30
 1461 0248 09       		.uleb128 0x9
 1462 0249 6F080000 		.4byte	.LASF48
 1463 024d 09       		.byte	0x9
 1464 024e 4001     		.2byte	0x140
 1465 0250 32010000 		.4byte	0x132
 1466 0254 38       		.byte	0x38
 1467 0255 09       		.uleb128 0x9
 1468 0256 81070000 		.4byte	.LASF49
 1469 025a 09       		.byte	0x9
 1470 025b 4601     		.2byte	0x146
 1471 025d 3D010000 		.4byte	0x13d
ARM GAS  C:\Users\PCHAUT~1\AppData\Local\Temp\ccZi43Pa.s 			page 27


 1472 0261 3C       		.byte	0x3c
 1473 0262 09       		.uleb128 0x9
 1474 0263 A1060000 		.4byte	.LASF50
 1475 0267 09       		.byte	0x9
 1476 0268 4D01     		.2byte	0x14d
 1477 026a 8B080000 		.4byte	0x88b
 1478 026e 40       		.byte	0x40
 1479 026f 09       		.uleb128 0x9
 1480 0270 1E080000 		.4byte	.LASF51
 1481 0274 09       		.byte	0x9
 1482 0275 5101     		.2byte	0x151
 1483 0277 27010000 		.4byte	0x127
 1484 027b 44       		.byte	0x44
 1485 027c 09       		.uleb128 0x9
 1486 027d A5010000 		.4byte	.LASF52
 1487 0281 09       		.byte	0x9
 1488 0282 5801     		.2byte	0x158
 1489 0284 7F030000 		.4byte	0x37f
 1490 0288 48       		.byte	0x48
 1491 0289 09       		.uleb128 0x9
 1492 028a 03070000 		.4byte	.LASF53
 1493 028e 09       		.byte	0x9
 1494 028f 5E01     		.2byte	0x15e
 1495 0291 71070000 		.4byte	0x771
 1496 0295 50       		.byte	0x50
 1497 0296 00       		.byte	0
 1498 0297 04       		.uleb128 0x4
 1499 0298 F6080000 		.4byte	.LASF54
 1500 029c 08       		.byte	0x8
 1501 029d 44       		.byte	0x44
 1502 029e A2020000 		.4byte	0x2a2
 1503 02a2 0A       		.uleb128 0xa
 1504 02a3 04       		.byte	0x4
 1505 02a4 6E010000 		.4byte	0x16e
 1506 02a8 04       		.uleb128 0x4
 1507 02a9 1A050000 		.4byte	.LASF55
 1508 02ad 08       		.byte	0x8
 1509 02ae 49       		.byte	0x49
 1510 02af B3020000 		.4byte	0x2b3
 1511 02b3 06       		.uleb128 0x6
 1512 02b4 A9070000 		.4byte	.LASF57
 1513 02b8 04       		.byte	0x4
 1514 02b9 09       		.byte	0x9
 1515 02ba B0       		.byte	0xb0
 1516 02bb CC020000 		.4byte	0x2cc
 1517 02bf 07       		.uleb128 0x7
 1518 02c0 DD060000 		.4byte	.LASF33
 1519 02c4 09       		.byte	0x9
 1520 02c5 B1       		.byte	0xb1
 1521 02c6 A2020000 		.4byte	0x2a2
 1522 02ca 00       		.byte	0
 1523 02cb 00       		.byte	0
 1524 02cc 04       		.uleb128 0x4
 1525 02cd 46070000 		.4byte	.LASF58
 1526 02d1 08       		.byte	0x8
 1527 02d2 50       		.byte	0x50
 1528 02d3 D7020000 		.4byte	0x2d7
ARM GAS  C:\Users\PCHAUT~1\AppData\Local\Temp\ccZi43Pa.s 			page 28


 1529 02d7 06       		.uleb128 0x6
 1530 02d8 5B000000 		.4byte	.LASF59
 1531 02dc 08       		.byte	0x8
 1532 02dd 09       		.byte	0x9
 1533 02de B7       		.byte	0xb7
 1534 02df FC020000 		.4byte	0x2fc
 1535 02e3 07       		.uleb128 0x7
 1536 02e4 DD060000 		.4byte	.LASF33
 1537 02e8 09       		.byte	0x9
 1538 02e9 B8       		.byte	0xb8
 1539 02ea A2020000 		.4byte	0x2a2
 1540 02ee 00       		.byte	0
 1541 02ef 07       		.uleb128 0x7
 1542 02f0 63060000 		.4byte	.LASF34
 1543 02f4 09       		.byte	0x9
 1544 02f5 B9       		.byte	0xb9
 1545 02f6 A2020000 		.4byte	0x2a2
 1546 02fa 04       		.byte	0x4
 1547 02fb 00       		.byte	0
 1548 02fc 04       		.uleb128 0x4
 1549 02fd 0D000000 		.4byte	.LASF60
 1550 0301 08       		.byte	0x8
 1551 0302 57       		.byte	0x57
 1552 0303 07030000 		.4byte	0x307
 1553 0307 0B       		.uleb128 0xb
 1554 0308 F5040000 		.4byte	.LASF61
 1555 030c 1C       		.byte	0x1c
 1556 030d 09       		.byte	0x9
 1557 030e 9001     		.2byte	0x190
 1558 0310 63030000 		.4byte	0x363
 1559 0314 09       		.uleb128 0x9
 1560 0315 A1070000 		.4byte	.LASF62
 1561 0319 09       		.byte	0x9
 1562 031a 9101     		.2byte	0x191
 1563 031c CC020000 		.4byte	0x2cc
 1564 0320 00       		.byte	0
 1565 0321 09       		.uleb128 0x9
 1566 0322 CF060000 		.4byte	.LASF63
 1567 0326 09       		.byte	0x9
 1568 0327 9201     		.2byte	0x192
 1569 0329 27010000 		.4byte	0x127
 1570 032d 08       		.byte	0x8
 1571 032e 09       		.uleb128 0x9
 1572 032f D8050000 		.4byte	.LASF64
 1573 0333 09       		.byte	0x9
 1574 0334 9401     		.2byte	0x194
 1575 0336 1B050000 		.4byte	0x51b
 1576 033a 0C       		.byte	0xc
 1577 033b 09       		.uleb128 0x9
 1578 033c 7F030000 		.4byte	.LASF65
 1579 0340 09       		.byte	0x9
 1580 0341 9701     		.2byte	0x197
 1581 0343 A2020000 		.4byte	0x2a2
 1582 0347 10       		.byte	0x10
 1583 0348 09       		.uleb128 0x9
 1584 0349 FF050000 		.4byte	.LASF66
 1585 034d 09       		.byte	0x9
ARM GAS  C:\Users\PCHAUT~1\AppData\Local\Temp\ccZi43Pa.s 			page 29


 1586 034e 9801     		.2byte	0x198
 1587 0350 A2020000 		.4byte	0x2a2
 1588 0354 14       		.byte	0x14
 1589 0355 09       		.uleb128 0x9
 1590 0356 F5050000 		.4byte	.LASF67
 1591 035a 09       		.byte	0x9
 1592 035b 9B01     		.2byte	0x19b
 1593 035d A2020000 		.4byte	0x2a2
 1594 0361 18       		.byte	0x18
 1595 0362 00       		.byte	0
 1596 0363 04       		.uleb128 0x4
 1597 0364 29080000 		.4byte	.LASF68
 1598 0368 08       		.byte	0x8
 1599 0369 5C       		.byte	0x5c
 1600 036a 6E030000 		.4byte	0x36e
 1601 036e 0A       		.uleb128 0xa
 1602 036f 04       		.byte	0x4
 1603 0370 74030000 		.4byte	0x374
 1604 0374 0C       		.uleb128 0xc
 1605 0375 7F030000 		.4byte	0x37f
 1606 0379 0D       		.uleb128 0xd
 1607 037a 7F030000 		.4byte	0x37f
 1608 037e 00       		.byte	0
 1609 037f 0E       		.uleb128 0xe
 1610 0380 04       		.byte	0x4
 1611 0381 04       		.uleb128 0x4
 1612 0382 53060000 		.4byte	.LASF69
 1613 0386 08       		.byte	0x8
 1614 0387 61       		.byte	0x61
 1615 0388 8C030000 		.4byte	0x38c
 1616 038c 0B       		.uleb128 0xb
 1617 038d 56070000 		.4byte	.LASF70
 1618 0391 14       		.byte	0x14
 1619 0392 09       		.byte	0x9
 1620 0393 6B01     		.2byte	0x16b
 1621 0395 DB030000 		.4byte	0x3db
 1622 0399 09       		.uleb128 0x9
 1623 039a 05040000 		.4byte	.LASF71
 1624 039e 09       		.byte	0x9
 1625 039f 6C01     		.2byte	0x16c
 1626 03a1 AE080000 		.4byte	0x8ae
 1627 03a5 00       		.byte	0
 1628 03a6 09       		.uleb128 0x9
 1629 03a7 90030000 		.4byte	.LASF72
 1630 03ab 09       		.byte	0x9
 1631 03ac 6D01     		.2byte	0x16d
 1632 03ae AE080000 		.4byte	0x8ae
 1633 03b2 04       		.byte	0x4
 1634 03b3 09       		.uleb128 0x9
 1635 03b4 42040000 		.4byte	.LASF73
 1636 03b8 09       		.byte	0x9
 1637 03b9 6E01     		.2byte	0x16e
 1638 03bb 5E010000 		.4byte	0x15e
 1639 03bf 08       		.byte	0x8
 1640 03c0 09       		.uleb128 0x9
 1641 03c1 65090000 		.4byte	.LASF74
 1642 03c5 09       		.byte	0x9
ARM GAS  C:\Users\PCHAUT~1\AppData\Local\Temp\ccZi43Pa.s 			page 30


 1643 03c6 6F01     		.2byte	0x16f
 1644 03c8 63030000 		.4byte	0x363
 1645 03cc 0C       		.byte	0xc
 1646 03cd 09       		.uleb128 0x9
 1647 03ce 88080000 		.4byte	.LASF75
 1648 03d2 09       		.byte	0x9
 1649 03d3 7101     		.2byte	0x171
 1650 03d5 7F030000 		.4byte	0x37f
 1651 03d9 10       		.byte	0x10
 1652 03da 00       		.byte	0
 1653 03db 04       		.uleb128 0x4
 1654 03dc 2E010000 		.4byte	.LASF76
 1655 03e0 08       		.byte	0x8
 1656 03e1 66       		.byte	0x66
 1657 03e2 E6030000 		.4byte	0x3e6
 1658 03e6 0B       		.uleb128 0xb
 1659 03e7 72050000 		.4byte	.LASF77
 1660 03eb 10       		.byte	0x10
 1661 03ec 09       		.byte	0x9
 1662 03ed 7B01     		.2byte	0x17b
 1663 03ef 28040000 		.4byte	0x428
 1664 03f3 09       		.uleb128 0x9
 1665 03f4 05040000 		.4byte	.LASF71
 1666 03f8 09       		.byte	0x9
 1667 03f9 7C01     		.2byte	0x17c
 1668 03fb AE080000 		.4byte	0x8ae
 1669 03ff 00       		.byte	0
 1670 0400 09       		.uleb128 0x9
 1671 0401 90030000 		.4byte	.LASF72
 1672 0405 09       		.byte	0x9
 1673 0406 7E01     		.2byte	0x17e
 1674 0408 AE080000 		.4byte	0x8ae
 1675 040c 04       		.byte	0x4
 1676 040d 09       		.uleb128 0x9
 1677 040e 42040000 		.4byte	.LASF73
 1678 0412 09       		.byte	0x9
 1679 0413 8001     		.2byte	0x180
 1680 0415 5E010000 		.4byte	0x15e
 1681 0419 08       		.byte	0x8
 1682 041a 09       		.uleb128 0x9
 1683 041b 17090000 		.4byte	.LASF78
 1684 041f 09       		.byte	0x9
 1685 0420 8201     		.2byte	0x182
 1686 0422 69010000 		.4byte	0x169
 1687 0426 0C       		.byte	0xc
 1688 0427 00       		.byte	0
 1689 0428 04       		.uleb128 0x4
 1690 0429 6C000000 		.4byte	.LASF79
 1691 042d 08       		.byte	0x8
 1692 042e 6B       		.byte	0x6b
 1693 042f 33040000 		.4byte	0x433
 1694 0433 0F       		.uleb128 0xf
 1695 0434 98030000 		.4byte	.LASF80
 1696 0438 1404     		.2byte	0x414
 1697 043a 09       		.byte	0x9
 1698 043b A201     		.2byte	0x1a2
 1699 043d 76040000 		.4byte	0x476
ARM GAS  C:\Users\PCHAUT~1\AppData\Local\Temp\ccZi43Pa.s 			page 31


 1700 0441 09       		.uleb128 0x9
 1701 0442 4B080000 		.4byte	.LASF81
 1702 0446 09       		.byte	0x9
 1703 0447 AA01     		.2byte	0x1aa
 1704 0449 97080000 		.4byte	0x897
 1705 044d 00       		.byte	0
 1706 044e 09       		.uleb128 0x9
 1707 044f C5080000 		.4byte	.LASF82
 1708 0453 09       		.byte	0x9
 1709 0454 AF01     		.2byte	0x1af
 1710 0456 48010000 		.4byte	0x148
 1711 045a 04       		.byte	0x4
 1712 045b 09       		.uleb128 0x9
 1713 045c BC030000 		.4byte	.LASF83
 1714 0460 09       		.byte	0x9
 1715 0461 B301     		.2byte	0x1b3
 1716 0463 48010000 		.4byte	0x148
 1717 0467 08       		.byte	0x8
 1718 0468 09       		.uleb128 0x9
 1719 0469 22090000 		.4byte	.LASF84
 1720 046d 09       		.byte	0x9
 1721 046e B901     		.2byte	0x1b9
 1722 0470 03070000 		.4byte	0x703
 1723 0474 0C       		.byte	0xc
 1724 0475 00       		.byte	0
 1725 0476 04       		.uleb128 0x4
 1726 0477 BA040000 		.4byte	.LASF85
 1727 047b 08       		.byte	0x8
 1728 047c 70       		.byte	0x70
 1729 047d 81040000 		.4byte	0x481
 1730 0481 0F       		.uleb128 0xf
 1731 0482 E4010000 		.4byte	.LASF86
 1732 0486 7006     		.2byte	0x670
 1733 0488 09       		.byte	0x9
 1734 0489 C201     		.2byte	0x1c2
 1735 048b EE040000 		.4byte	0x4ee
 1736 048f 09       		.uleb128 0x9
 1737 0490 D6080000 		.4byte	.LASF87
 1738 0494 09       		.byte	0x9
 1739 0495 C601     		.2byte	0x1c6
 1740 0497 FC020000 		.4byte	0x2fc
 1741 049b 00       		.byte	0
 1742 049c 09       		.uleb128 0x9
 1743 049d B5010000 		.4byte	.LASF88
 1744 04a1 09       		.byte	0x9
 1745 04a2 CA01     		.2byte	0x1ca
 1746 04a4 DB030000 		.4byte	0x3db
 1747 04a8 1C       		.byte	0x1c
 1748 04a9 08       		.uleb128 0x8
 1749 04aa 64626700 		.ascii	"dbg\000"
 1750 04ae 09       		.byte	0x9
 1751 04af CE01     		.2byte	0x1ce
 1752 04b1 28040000 		.4byte	0x428
 1753 04b5 2C       		.byte	0x2c
 1754 04b6 10       		.uleb128 0x10
 1755 04b7 19010000 		.4byte	.LASF89
 1756 04bb 09       		.byte	0x9
ARM GAS  C:\Users\PCHAUT~1\AppData\Local\Temp\ccZi43Pa.s 			page 32


 1757 04bc D201     		.2byte	0x1d2
 1758 04be 6E010000 		.4byte	0x16e
 1759 04c2 4004     		.2byte	0x440
 1760 04c4 11       		.uleb128 0x11
 1761 04c5 746D00   		.ascii	"tm\000"
 1762 04c8 09       		.byte	0x9
 1763 04c9 D701     		.2byte	0x1d7
 1764 04cb 23070000 		.4byte	0x723
 1765 04cf A804     		.2byte	0x4a8
 1766 04d1 10       		.uleb128 0x10
 1767 04d2 38000000 		.4byte	.LASF90
 1768 04d6 09       		.byte	0x9
 1769 04d7 DD01     		.2byte	0x1dd
 1770 04d9 B5070000 		.4byte	0x7b5
 1771 04dd B004     		.2byte	0x4b0
 1772 04df 10       		.uleb128 0x10
 1773 04e0 C5030000 		.4byte	.LASF91
 1774 04e4 09       		.byte	0x9
 1775 04e5 E301     		.2byte	0x1e3
 1776 04e7 B4080000 		.4byte	0x8b4
 1777 04eb E804     		.2byte	0x4e8
 1778 04ed 00       		.byte	0
 1779 04ee 12       		.uleb128 0x12
 1780 04ef 44010000 		.4byte	.LASF92
 1781 04f3 0A       		.byte	0xa
 1782 04f4 A706     		.2byte	0x6a7
 1783 04f6 CA000000 		.4byte	0xca
 1784 04fa 13       		.uleb128 0x13
 1785 04fb 16040000 		.4byte	.LASF93
 1786 04ff 0B       		.byte	0xb
 1787 0500 4C       		.byte	0x4c
 1788 0501 CF000000 		.4byte	0xcf
 1789 0505 04       		.uleb128 0x4
 1790 0506 87030000 		.4byte	.LASF94
 1791 050a 0C       		.byte	0xc
 1792 050b 65       		.byte	0x65
 1793 050c 7F030000 		.4byte	0x37f
 1794 0510 04       		.uleb128 0x4
 1795 0511 0F050000 		.4byte	.LASF95
 1796 0515 0C       		.byte	0xc
 1797 0516 6D       		.byte	0x6d
 1798 0517 DA000000 		.4byte	0xda
 1799 051b 06       		.uleb128 0x6
 1800 051c 5C080000 		.4byte	.LASF96
 1801 0520 04       		.byte	0x4
 1802 0521 0C       		.byte	0xc
 1803 0522 89       		.byte	0x89
 1804 0523 34050000 		.4byte	0x534
 1805 0527 14       		.uleb128 0x14
 1806 0528 72313300 		.ascii	"r13\000"
 1807 052c 0C       		.byte	0xc
 1808 052d 8A       		.byte	0x8a
 1809 052e 75060000 		.4byte	0x675
 1810 0532 00       		.byte	0
 1811 0533 00       		.byte	0
 1812 0534 06       		.uleb128 0x6
 1813 0535 4F000000 		.4byte	.LASF97
ARM GAS  C:\Users\PCHAUT~1\AppData\Local\Temp\ccZi43Pa.s 			page 33


 1814 0539 64       		.byte	0x64
 1815 053a 01       		.byte	0x1
 1816 053b F4       		.byte	0xf4
 1817 053c 75060000 		.4byte	0x675
 1818 0540 14       		.uleb128 0x14
 1819 0541 73313600 		.ascii	"s16\000"
 1820 0545 01       		.byte	0x1
 1821 0546 F6       		.byte	0xf6
 1822 0547 05050000 		.4byte	0x505
 1823 054b 00       		.byte	0
 1824 054c 14       		.uleb128 0x14
 1825 054d 73313700 		.ascii	"s17\000"
 1826 0551 01       		.byte	0x1
 1827 0552 F7       		.byte	0xf7
 1828 0553 05050000 		.4byte	0x505
 1829 0557 04       		.byte	0x4
 1830 0558 14       		.uleb128 0x14
 1831 0559 73313800 		.ascii	"s18\000"
 1832 055d 01       		.byte	0x1
 1833 055e F8       		.byte	0xf8
 1834 055f 05050000 		.4byte	0x505
 1835 0563 08       		.byte	0x8
 1836 0564 14       		.uleb128 0x14
 1837 0565 73313900 		.ascii	"s19\000"
 1838 0569 01       		.byte	0x1
 1839 056a F9       		.byte	0xf9
 1840 056b 05050000 		.4byte	0x505
 1841 056f 0C       		.byte	0xc
 1842 0570 14       		.uleb128 0x14
 1843 0571 73323000 		.ascii	"s20\000"
 1844 0575 01       		.byte	0x1
 1845 0576 FA       		.byte	0xfa
 1846 0577 05050000 		.4byte	0x505
 1847 057b 10       		.byte	0x10
 1848 057c 14       		.uleb128 0x14
 1849 057d 73323100 		.ascii	"s21\000"
 1850 0581 01       		.byte	0x1
 1851 0582 FB       		.byte	0xfb
 1852 0583 05050000 		.4byte	0x505
 1853 0587 14       		.byte	0x14
 1854 0588 14       		.uleb128 0x14
 1855 0589 73323200 		.ascii	"s22\000"
 1856 058d 01       		.byte	0x1
 1857 058e FC       		.byte	0xfc
 1858 058f 05050000 		.4byte	0x505
 1859 0593 18       		.byte	0x18
 1860 0594 14       		.uleb128 0x14
 1861 0595 73323300 		.ascii	"s23\000"
 1862 0599 01       		.byte	0x1
 1863 059a FD       		.byte	0xfd
 1864 059b 05050000 		.4byte	0x505
 1865 059f 1C       		.byte	0x1c
 1866 05a0 14       		.uleb128 0x14
 1867 05a1 73323400 		.ascii	"s24\000"
 1868 05a5 01       		.byte	0x1
 1869 05a6 FE       		.byte	0xfe
 1870 05a7 05050000 		.4byte	0x505
ARM GAS  C:\Users\PCHAUT~1\AppData\Local\Temp\ccZi43Pa.s 			page 34


 1871 05ab 20       		.byte	0x20
 1872 05ac 14       		.uleb128 0x14
 1873 05ad 73323500 		.ascii	"s25\000"
 1874 05b1 01       		.byte	0x1
 1875 05b2 FF       		.byte	0xff
 1876 05b3 05050000 		.4byte	0x505
 1877 05b7 24       		.byte	0x24
 1878 05b8 08       		.uleb128 0x8
 1879 05b9 73323600 		.ascii	"s26\000"
 1880 05bd 01       		.byte	0x1
 1881 05be 0001     		.2byte	0x100
 1882 05c0 05050000 		.4byte	0x505
 1883 05c4 28       		.byte	0x28
 1884 05c5 08       		.uleb128 0x8
 1885 05c6 73323700 		.ascii	"s27\000"
 1886 05ca 01       		.byte	0x1
 1887 05cb 0101     		.2byte	0x101
 1888 05cd 05050000 		.4byte	0x505
 1889 05d1 2C       		.byte	0x2c
 1890 05d2 08       		.uleb128 0x8
 1891 05d3 73323800 		.ascii	"s28\000"
 1892 05d7 01       		.byte	0x1
 1893 05d8 0201     		.2byte	0x102
 1894 05da 05050000 		.4byte	0x505
 1895 05de 30       		.byte	0x30
 1896 05df 08       		.uleb128 0x8
 1897 05e0 73323900 		.ascii	"s29\000"
 1898 05e4 01       		.byte	0x1
 1899 05e5 0301     		.2byte	0x103
 1900 05e7 05050000 		.4byte	0x505
 1901 05eb 34       		.byte	0x34
 1902 05ec 08       		.uleb128 0x8
 1903 05ed 73333000 		.ascii	"s30\000"
 1904 05f1 01       		.byte	0x1
 1905 05f2 0401     		.2byte	0x104
 1906 05f4 05050000 		.4byte	0x505
 1907 05f8 38       		.byte	0x38
 1908 05f9 08       		.uleb128 0x8
 1909 05fa 73333100 		.ascii	"s31\000"
 1910 05fe 01       		.byte	0x1
 1911 05ff 0501     		.2byte	0x105
 1912 0601 05050000 		.4byte	0x505
 1913 0605 3C       		.byte	0x3c
 1914 0606 08       		.uleb128 0x8
 1915 0607 723400   		.ascii	"r4\000"
 1916 060a 01       		.byte	0x1
 1917 060b 0701     		.2byte	0x107
 1918 060d 05050000 		.4byte	0x505
 1919 0611 40       		.byte	0x40
 1920 0612 08       		.uleb128 0x8
 1921 0613 723500   		.ascii	"r5\000"
 1922 0616 01       		.byte	0x1
 1923 0617 0801     		.2byte	0x108
 1924 0619 05050000 		.4byte	0x505
 1925 061d 44       		.byte	0x44
 1926 061e 08       		.uleb128 0x8
 1927 061f 723600   		.ascii	"r6\000"
ARM GAS  C:\Users\PCHAUT~1\AppData\Local\Temp\ccZi43Pa.s 			page 35


 1928 0622 01       		.byte	0x1
 1929 0623 0901     		.2byte	0x109
 1930 0625 05050000 		.4byte	0x505
 1931 0629 48       		.byte	0x48
 1932 062a 08       		.uleb128 0x8
 1933 062b 723700   		.ascii	"r7\000"
 1934 062e 01       		.byte	0x1
 1935 062f 0A01     		.2byte	0x10a
 1936 0631 05050000 		.4byte	0x505
 1937 0635 4C       		.byte	0x4c
 1938 0636 08       		.uleb128 0x8
 1939 0637 723800   		.ascii	"r8\000"
 1940 063a 01       		.byte	0x1
 1941 063b 0B01     		.2byte	0x10b
 1942 063d 05050000 		.4byte	0x505
 1943 0641 50       		.byte	0x50
 1944 0642 08       		.uleb128 0x8
 1945 0643 723900   		.ascii	"r9\000"
 1946 0646 01       		.byte	0x1
 1947 0647 0C01     		.2byte	0x10c
 1948 0649 05050000 		.4byte	0x505
 1949 064d 54       		.byte	0x54
 1950 064e 08       		.uleb128 0x8
 1951 064f 72313000 		.ascii	"r10\000"
 1952 0653 01       		.byte	0x1
 1953 0654 0D01     		.2byte	0x10d
 1954 0656 05050000 		.4byte	0x505
 1955 065a 58       		.byte	0x58
 1956 065b 08       		.uleb128 0x8
 1957 065c 72313100 		.ascii	"r11\000"
 1958 0660 01       		.byte	0x1
 1959 0661 0E01     		.2byte	0x10e
 1960 0663 05050000 		.4byte	0x505
 1961 0667 5C       		.byte	0x5c
 1962 0668 08       		.uleb128 0x8
 1963 0669 6C7200   		.ascii	"lr\000"
 1964 066c 01       		.byte	0x1
 1965 066d 0F01     		.2byte	0x10f
 1966 066f 05050000 		.4byte	0x505
 1967 0673 60       		.byte	0x60
 1968 0674 00       		.byte	0
 1969 0675 0A       		.uleb128 0xa
 1970 0676 04       		.byte	0x4
 1971 0677 34050000 		.4byte	0x534
 1972 067b 15       		.uleb128 0x15
 1973 067c 10       		.byte	0x10
 1974 067d 0D       		.byte	0xd
 1975 067e 51       		.byte	0x51
 1976 067f B4060000 		.4byte	0x6b4
 1977 0683 07       		.uleb128 0x7
 1978 0684 1A000000 		.4byte	.LASF98
 1979 0688 0D       		.byte	0xd
 1980 0689 55       		.byte	0x55
 1981 068a 5E010000 		.4byte	0x15e
 1982 068e 00       		.byte	0
 1983 068f 07       		.uleb128 0x7
 1984 0690 57030000 		.4byte	.LASF99
ARM GAS  C:\Users\PCHAUT~1\AppData\Local\Temp\ccZi43Pa.s 			page 36


 1985 0694 0D       		.byte	0xd
 1986 0695 59       		.byte	0x59
 1987 0696 A2020000 		.4byte	0x2a2
 1988 069a 04       		.byte	0x4
 1989 069b 07       		.uleb128 0x7
 1990 069c 4D090000 		.4byte	.LASF100
 1991 06a0 0D       		.byte	0xd
 1992 06a1 5D       		.byte	0x5d
 1993 06a2 7F030000 		.4byte	0x37f
 1994 06a6 08       		.byte	0x8
 1995 06a7 07       		.uleb128 0x7
 1996 06a8 CD080000 		.4byte	.LASF101
 1997 06ac 0D       		.byte	0xd
 1998 06ad 61       		.byte	0x61
 1999 06ae A9000000 		.4byte	0xa9
 2000 06b2 0C       		.byte	0xc
 2001 06b3 00       		.byte	0
 2002 06b4 04       		.uleb128 0x4
 2003 06b5 A8050000 		.4byte	.LASF102
 2004 06b9 0D       		.byte	0xd
 2005 06ba 62       		.byte	0x62
 2006 06bb 7B060000 		.4byte	0x67b
 2007 06bf 16       		.uleb128 0x16
 2008 06c0 0804     		.2byte	0x408
 2009 06c2 0D       		.byte	0xd
 2010 06c3 67       		.byte	0x67
 2011 06c4 ED060000 		.4byte	0x6ed
 2012 06c8 07       		.uleb128 0x7
 2013 06c9 77030000 		.4byte	.LASF103
 2014 06cd 0D       		.byte	0xd
 2015 06ce 6B       		.byte	0x6b
 2016 06cf 2C000000 		.4byte	0x2c
 2017 06d3 00       		.byte	0
 2018 06d4 07       		.uleb128 0x7
 2019 06d5 A1050000 		.4byte	.LASF104
 2020 06d9 0D       		.byte	0xd
 2021 06da 6F       		.byte	0x6f
 2022 06db ED060000 		.4byte	0x6ed
 2023 06df 04       		.byte	0x4
 2024 06e0 07       		.uleb128 0x7
 2025 06e1 3E060000 		.4byte	.LASF105
 2026 06e5 0D       		.byte	0xd
 2027 06e6 73       		.byte	0x73
 2028 06e7 F3060000 		.4byte	0x6f3
 2029 06eb 08       		.byte	0x8
 2030 06ec 00       		.byte	0
 2031 06ed 0A       		.uleb128 0xa
 2032 06ee 04       		.byte	0x4
 2033 06ef B4060000 		.4byte	0x6b4
 2034 06f3 17       		.uleb128 0x17
 2035 06f4 B4060000 		.4byte	0x6b4
 2036 06f8 03070000 		.4byte	0x703
 2037 06fc 18       		.uleb128 0x18
 2038 06fd 2C000000 		.4byte	0x2c
 2039 0701 3F       		.byte	0x3f
 2040 0702 00       		.byte	0
 2041 0703 04       		.uleb128 0x4
ARM GAS  C:\Users\PCHAUT~1\AppData\Local\Temp\ccZi43Pa.s 			page 37


 2042 0704 B5000000 		.4byte	.LASF106
 2043 0708 0D       		.byte	0xd
 2044 0709 74       		.byte	0x74
 2045 070a BF060000 		.4byte	0x6bf
 2046 070e 15       		.uleb128 0x15
 2047 070f 04       		.byte	0x4
 2048 0710 0E       		.byte	0xe
 2049 0711 38       		.byte	0x38
 2050 0712 23070000 		.4byte	0x723
 2051 0716 07       		.uleb128 0x7
 2052 0717 55080000 		.4byte	.LASF107
 2053 071b 0E       		.byte	0xe
 2054 071c 3C       		.byte	0x3c
 2055 071d E5000000 		.4byte	0xe5
 2056 0721 00       		.byte	0
 2057 0722 00       		.byte	0
 2058 0723 04       		.uleb128 0x4
 2059 0724 E4050000 		.4byte	.LASF108
 2060 0728 0E       		.byte	0xe
 2061 0729 3D       		.byte	0x3d
 2062 072a 0E070000 		.4byte	0x70e
 2063 072e 15       		.uleb128 0x15
 2064 072f 18       		.byte	0x18
 2065 0730 0E       		.byte	0xe
 2066 0731 48       		.byte	0x48
 2067 0732 71070000 		.4byte	0x771
 2068 0736 07       		.uleb128 0x7
 2069 0737 08080000 		.4byte	.LASF109
 2070 073b 0E       		.byte	0xe
 2071 073c 49       		.byte	0x49
 2072 073d E5000000 		.4byte	0xe5
 2073 0741 00       		.byte	0
 2074 0742 07       		.uleb128 0x7
 2075 0743 85000000 		.4byte	.LASF110
 2076 0747 0E       		.byte	0xe
 2077 0748 4A       		.byte	0x4a
 2078 0749 E5000000 		.4byte	0xe5
 2079 074d 04       		.byte	0x4
 2080 074e 07       		.uleb128 0x7
 2081 074f 9D040000 		.4byte	.LASF111
 2082 0753 0E       		.byte	0xe
 2083 0754 4B       		.byte	0x4b
 2084 0755 E5000000 		.4byte	0xe5
 2085 0759 08       		.byte	0x8
 2086 075a 14       		.uleb128 0x14
 2087 075b 6E00     		.ascii	"n\000"
 2088 075d 0E       		.byte	0xe
 2089 075e 4C       		.byte	0x4c
 2090 075f 53010000 		.4byte	0x153
 2091 0763 0C       		.byte	0xc
 2092 0764 07       		.uleb128 0x7
 2093 0765 2B060000 		.4byte	.LASF112
 2094 0769 0E       		.byte	0xe
 2095 076a 4D       		.byte	0x4d
 2096 076b F0000000 		.4byte	0xf0
 2097 076f 10       		.byte	0x10
 2098 0770 00       		.byte	0
ARM GAS  C:\Users\PCHAUT~1\AppData\Local\Temp\ccZi43Pa.s 			page 38


 2099 0771 04       		.uleb128 0x4
 2100 0772 8B000000 		.4byte	.LASF113
 2101 0776 0E       		.byte	0xe
 2102 0777 4E       		.byte	0x4e
 2103 0778 2E070000 		.4byte	0x72e
 2104 077c 15       		.uleb128 0x15
 2105 077d 38       		.byte	0x38
 2106 077e 0F       		.byte	0xf
 2107 077f 38       		.byte	0x38
 2108 0780 B5070000 		.4byte	0x7b5
 2109 0784 07       		.uleb128 0x7
 2110 0785 5F040000 		.4byte	.LASF114
 2111 0789 0F       		.byte	0xf
 2112 078a 39       		.byte	0x39
 2113 078b 53010000 		.4byte	0x153
 2114 078f 00       		.byte	0
 2115 0790 07       		.uleb128 0x7
 2116 0791 72060000 		.4byte	.LASF115
 2117 0795 0F       		.byte	0xf
 2118 0796 3A       		.byte	0x3a
 2119 0797 53010000 		.4byte	0x153
 2120 079b 04       		.byte	0x4
 2121 079c 07       		.uleb128 0x7
 2122 079d 3A090000 		.4byte	.LASF116
 2123 07a1 0F       		.byte	0xf
 2124 07a2 3B       		.byte	0x3b
 2125 07a3 71070000 		.4byte	0x771
 2126 07a7 08       		.byte	0x8
 2127 07a8 07       		.uleb128 0x7
 2128 07a9 EA040000 		.4byte	.LASF117
 2129 07ad 0F       		.byte	0xf
 2130 07ae 3D       		.byte	0x3d
 2131 07af 71070000 		.4byte	0x771
 2132 07b3 20       		.byte	0x20
 2133 07b4 00       		.byte	0
 2134 07b5 04       		.uleb128 0x4
 2135 07b6 7E040000 		.4byte	.LASF118
 2136 07ba 0F       		.byte	0xf
 2137 07bb 3F       		.byte	0x3f
 2138 07bc 7C070000 		.4byte	0x77c
 2139 07c0 19       		.uleb128 0x19
 2140 07c1 04       		.byte	0x4
 2141 07c2 09       		.byte	0x9
 2142 07c3 FA       		.byte	0xfa
 2143 07c4 1D080000 		.4byte	0x81d
 2144 07c8 1A       		.uleb128 0x1a
 2145 07c9 28000000 		.4byte	.LASF119
 2146 07cd 09       		.byte	0x9
 2147 07ce 0101     		.2byte	0x101
 2148 07d0 32010000 		.4byte	0x132
 2149 07d4 1A       		.uleb128 0x1a
 2150 07d5 10010000 		.4byte	.LASF120
 2151 07d9 09       		.byte	0x9
 2152 07da 0801     		.2byte	0x108
 2153 07dc 32010000 		.4byte	0x132
 2154 07e0 1A       		.uleb128 0x1a
 2155 07e1 09090000 		.4byte	.LASF121
ARM GAS  C:\Users\PCHAUT~1\AppData\Local\Temp\ccZi43Pa.s 			page 39


 2156 07e5 09       		.byte	0x9
 2157 07e6 0F01     		.2byte	0x10f
 2158 07e8 7F030000 		.4byte	0x37f
 2159 07ec 1A       		.uleb128 0x1a
 2160 07ed 22000000 		.4byte	.LASF122
 2161 07f1 09       		.byte	0x9
 2162 07f2 1601     		.2byte	0x116
 2163 07f4 1D080000 		.4byte	0x81d
 2164 07f8 1A       		.uleb128 0x1a
 2165 07f9 3B040000 		.4byte	.LASF123
 2166 07fd 09       		.byte	0x9
 2167 07fe 1E01     		.2byte	0x11e
 2168 0800 48080000 		.4byte	0x848
 2169 0804 1A       		.uleb128 0x1a
 2170 0805 D8070000 		.4byte	.LASF124
 2171 0809 09       		.byte	0x9
 2172 080a 2701     		.2byte	0x127
 2173 080c 8B080000 		.4byte	0x88b
 2174 0810 1A       		.uleb128 0x1a
 2175 0811 D6060000 		.4byte	.LASF125
 2176 0815 09       		.byte	0x9
 2177 0816 2F01     		.2byte	0x12f
 2178 0818 3D010000 		.4byte	0x13d
 2179 081c 00       		.byte	0
 2180 081d 0A       		.uleb128 0xa
 2181 081e 04       		.byte	0x4
 2182 081f 97020000 		.4byte	0x297
 2183 0823 06       		.uleb128 0x6
 2184 0824 74070000 		.4byte	.LASF126
 2185 0828 0C       		.byte	0xc
 2186 0829 10       		.byte	0x10
 2187 082a 34       		.byte	0x34
 2188 082b 48080000 		.4byte	0x848
 2189 082f 07       		.uleb128 0x7
 2190 0830 6F030000 		.4byte	.LASF127
 2191 0834 10       		.byte	0x10
 2192 0835 35       		.byte	0x35
 2193 0836 CC020000 		.4byte	0x2cc
 2194 083a 00       		.byte	0
 2195 083b 07       		.uleb128 0x7
 2196 083c 65040000 		.4byte	.LASF128
 2197 0840 10       		.byte	0x10
 2198 0841 37       		.byte	0x37
 2199 0842 48010000 		.4byte	0x148
 2200 0846 08       		.byte	0x8
 2201 0847 00       		.byte	0
 2202 0848 0A       		.uleb128 0xa
 2203 0849 04       		.byte	0x4
 2204 084a 23080000 		.4byte	0x823
 2205 084e 06       		.uleb128 0x6
 2206 084f B5080000 		.4byte	.LASF129
 2207 0853 14       		.byte	0x14
 2208 0854 11       		.byte	0x11
 2209 0855 39       		.byte	0x39
 2210 0856 8B080000 		.4byte	0x88b
 2211 085a 07       		.uleb128 0x7
 2212 085b AD010000 		.4byte	.LASF130
ARM GAS  C:\Users\PCHAUT~1\AppData\Local\Temp\ccZi43Pa.s 			page 40


 2213 085f 11       		.byte	0x11
 2214 0860 3A       		.byte	0x3a
 2215 0861 CC020000 		.4byte	0x2cc
 2216 0865 00       		.byte	0
 2217 0866 07       		.uleb128 0x7
 2218 0867 45090000 		.4byte	.LASF131
 2219 086b 11       		.byte	0x11
 2220 086c 3C       		.byte	0x3c
 2221 086d A2020000 		.4byte	0x2a2
 2222 0871 08       		.byte	0x8
 2223 0872 07       		.uleb128 0x7
 2224 0873 0D080000 		.4byte	.LASF132
 2225 0877 11       		.byte	0x11
 2226 0878 3E       		.byte	0x3e
 2227 0879 E6090000 		.4byte	0x9e6
 2228 087d 0C       		.byte	0xc
 2229 087e 07       		.uleb128 0x7
 2230 087f A8030000 		.4byte	.LASF133
 2231 0883 11       		.byte	0x11
 2232 0884 41       		.byte	0x41
 2233 0885 48010000 		.4byte	0x148
 2234 0889 10       		.byte	0x10
 2235 088a 00       		.byte	0
 2236 088b 0A       		.uleb128 0xa
 2237 088c 04       		.byte	0x4
 2238 088d 4E080000 		.4byte	0x84e
 2239 0891 0A       		.uleb128 0xa
 2240 0892 04       		.byte	0x4
 2241 0893 A3080000 		.4byte	0x8a3
 2242 0897 05       		.uleb128 0x5
 2243 0898 91080000 		.4byte	0x891
 2244 089c 03       		.uleb128 0x3
 2245 089d 01       		.byte	0x1
 2246 089e 08       		.byte	0x8
 2247 089f D3070000 		.4byte	.LASF134
 2248 08a3 1B       		.uleb128 0x1b
 2249 08a4 9C080000 		.4byte	0x89c
 2250 08a8 0A       		.uleb128 0xa
 2251 08a9 04       		.byte	0x4
 2252 08aa 10050000 		.4byte	0x510
 2253 08ae 0A       		.uleb128 0xa
 2254 08af 04       		.byte	0x4
 2255 08b0 81030000 		.4byte	0x381
 2256 08b4 17       		.uleb128 0x17
 2257 08b5 10050000 		.4byte	0x510
 2258 08b9 C4080000 		.4byte	0x8c4
 2259 08bd 18       		.uleb128 0x18
 2260 08be 2C000000 		.4byte	0x2c
 2261 08c2 30       		.byte	0x30
 2262 08c3 00       		.byte	0
 2263 08c4 1C       		.uleb128 0x1c
 2264 08c5 636800   		.ascii	"ch\000"
 2265 08c8 09       		.byte	0x9
 2266 08c9 0902     		.2byte	0x209
 2267 08cb 76040000 		.4byte	0x476
 2268 08cf 15       		.uleb128 0x15
 2269 08d0 16       		.byte	0x16
ARM GAS  C:\Users\PCHAUT~1\AppData\Local\Temp\ccZi43Pa.s 			page 41


 2270 08d1 12       		.byte	0x12
 2271 08d2 34       		.byte	0x34
 2272 08d3 B0090000 		.4byte	0x9b0
 2273 08d7 07       		.uleb128 0x7
 2274 08d8 57090000 		.4byte	.LASF135
 2275 08dc 12       		.byte	0x12
 2276 08dd 35       		.byte	0x35
 2277 08de B0090000 		.4byte	0x9b0
 2278 08e2 00       		.byte	0
 2279 08e3 07       		.uleb128 0x7
 2280 08e4 29050000 		.4byte	.LASF136
 2281 08e8 12       		.byte	0x12
 2282 08e9 36       		.byte	0x36
 2283 08ea A9000000 		.4byte	0xa9
 2284 08ee 04       		.byte	0x4
 2285 08ef 07       		.uleb128 0x7
 2286 08f0 B9070000 		.4byte	.LASF137
 2287 08f4 12       		.byte	0x12
 2288 08f5 37       		.byte	0x37
 2289 08f6 A9000000 		.4byte	0xa9
 2290 08fa 05       		.byte	0x5
 2291 08fb 07       		.uleb128 0x7
 2292 08fc 2F090000 		.4byte	.LASF138
 2293 0900 12       		.byte	0x12
 2294 0901 38       		.byte	0x38
 2295 0902 B4000000 		.4byte	0xb4
 2296 0906 06       		.byte	0x6
 2297 0907 07       		.uleb128 0x7
 2298 0908 48060000 		.4byte	.LASF139
 2299 090c 12       		.byte	0x12
 2300 090d 39       		.byte	0x39
 2301 090e A9000000 		.4byte	0xa9
 2302 0912 08       		.byte	0x8
 2303 0913 07       		.uleb128 0x7
 2304 0914 95050000 		.4byte	.LASF140
 2305 0918 12       		.byte	0x12
 2306 0919 3A       		.byte	0x3a
 2307 091a A9000000 		.4byte	0xa9
 2308 091e 09       		.byte	0x9
 2309 091f 07       		.uleb128 0x7
 2310 0920 02010000 		.4byte	.LASF141
 2311 0924 12       		.byte	0x12
 2312 0925 3B       		.byte	0x3b
 2313 0926 A9000000 		.4byte	0xa9
 2314 092a 0A       		.byte	0xa
 2315 092b 07       		.uleb128 0x7
 2316 092c 95070000 		.4byte	.LASF142
 2317 0930 12       		.byte	0x12
 2318 0931 3C       		.byte	0x3c
 2319 0932 A9000000 		.4byte	0xa9
 2320 0936 0B       		.byte	0xb
 2321 0937 07       		.uleb128 0x7
 2322 0938 AA080000 		.4byte	.LASF143
 2323 093c 12       		.byte	0x12
 2324 093d 3D       		.byte	0x3d
 2325 093e A9000000 		.4byte	0xa9
 2326 0942 0C       		.byte	0xc
ARM GAS  C:\Users\PCHAUT~1\AppData\Local\Temp\ccZi43Pa.s 			page 42


 2327 0943 07       		.uleb128 0x7
 2328 0944 67070000 		.4byte	.LASF144
 2329 0948 12       		.byte	0x12
 2330 0949 3E       		.byte	0x3e
 2331 094a A9000000 		.4byte	0xa9
 2332 094e 0D       		.byte	0xd
 2333 094f 07       		.uleb128 0x7
 2334 0950 00000000 		.4byte	.LASF145
 2335 0954 12       		.byte	0x12
 2336 0955 3F       		.byte	0x3f
 2337 0956 A9000000 		.4byte	0xa9
 2338 095a 0E       		.byte	0xe
 2339 095b 07       		.uleb128 0x7
 2340 095c B7050000 		.4byte	.LASF146
 2341 0960 12       		.byte	0x12
 2342 0961 40       		.byte	0x40
 2343 0962 A9000000 		.4byte	0xa9
 2344 0966 0F       		.byte	0xf
 2345 0967 07       		.uleb128 0x7
 2346 0968 88010000 		.4byte	.LASF147
 2347 096c 12       		.byte	0x12
 2348 096d 41       		.byte	0x41
 2349 096e A9000000 		.4byte	0xa9
 2350 0972 10       		.byte	0x10
 2351 0973 07       		.uleb128 0x7
 2352 0974 61010000 		.4byte	.LASF148
 2353 0978 12       		.byte	0x12
 2354 0979 43       		.byte	0x43
 2355 097a A9000000 		.4byte	0xa9
 2356 097e 11       		.byte	0x11
 2357 097f 07       		.uleb128 0x7
 2358 0980 98010000 		.4byte	.LASF149
 2359 0984 12       		.byte	0x12
 2360 0985 44       		.byte	0x44
 2361 0986 A9000000 		.4byte	0xa9
 2362 098a 12       		.byte	0x12
 2363 098b 07       		.uleb128 0x7
 2364 098c 31050000 		.4byte	.LASF150
 2365 0990 12       		.byte	0x12
 2366 0991 45       		.byte	0x45
 2367 0992 A9000000 		.4byte	0xa9
 2368 0996 13       		.byte	0x13
 2369 0997 07       		.uleb128 0x7
 2370 0998 EC060000 		.4byte	.LASF151
 2371 099c 12       		.byte	0x12
 2372 099d 46       		.byte	0x46
 2373 099e A9000000 		.4byte	0xa9
 2374 09a2 14       		.byte	0x14
 2375 09a3 07       		.uleb128 0x7
 2376 09a4 C6040000 		.4byte	.LASF152
 2377 09a8 12       		.byte	0x12
 2378 09a9 48       		.byte	0x48
 2379 09aa A9000000 		.4byte	0xa9
 2380 09ae 15       		.byte	0x15
 2381 09af 00       		.byte	0
 2382 09b0 17       		.uleb128 0x17
 2383 09b1 9C080000 		.4byte	0x89c
ARM GAS  C:\Users\PCHAUT~1\AppData\Local\Temp\ccZi43Pa.s 			page 43


 2384 09b5 C0090000 		.4byte	0x9c0
 2385 09b9 18       		.uleb128 0x18
 2386 09ba 2C000000 		.4byte	0x2c
 2387 09be 03       		.byte	0x3
 2388 09bf 00       		.byte	0
 2389 09c0 04       		.uleb128 0x4
 2390 09c1 5D030000 		.4byte	.LASF153
 2391 09c5 12       		.byte	0x12
 2392 09c6 49       		.byte	0x49
 2393 09c7 CF080000 		.4byte	0x8cf
 2394 09cb 1B       		.uleb128 0x1b
 2395 09cc C0090000 		.4byte	0x9c0
 2396 09d0 13       		.uleb128 0x13
 2397 09d1 56040000 		.4byte	.LASF154
 2398 09d5 12       		.byte	0x12
 2399 09d6 6E       		.byte	0x6e
 2400 09d7 CB090000 		.4byte	0x9cb
 2401 09db 04       		.uleb128 0x4
 2402 09dc AE030000 		.4byte	.LASF155
 2403 09e0 11       		.byte	0x11
 2404 09e1 34       		.byte	0x34
 2405 09e2 4E080000 		.4byte	0x84e
 2406 09e6 0A       		.uleb128 0xa
 2407 09e7 04       		.byte	0x4
 2408 09e8 DB090000 		.4byte	0x9db
 2409 09ec 1D       		.uleb128 0x1d
 2410 09ed 64080000 		.4byte	.LASF175
 2411 09f1 04       		.byte	0x4
 2412 09f2 1501     		.2byte	0x115
 2413 09f4 00000000 		.4byte	.LFB231
 2414 09f8 78000000 		.4byte	.LFE231-.LFB231
 2415 09fc 01       		.uleb128 0x1
 2416 09fd 9C       		.byte	0x9c
 2417 09fe 120A0000 		.4byte	0xa12
 2418 0a02 1E       		.uleb128 0x1e
 2419 0a03 6F747000 		.ascii	"otp\000"
 2420 0a07 04       		.byte	0x4
 2421 0a08 1501     		.2byte	0x115
 2422 0a0a A2020000 		.4byte	0x2a2
 2423 0a0e 02       		.uleb128 0x2
 2424 0a0f 91       		.byte	0x91
 2425 0a10 6C       		.sleb128 -20
 2426 0a11 00       		.byte	0
 2427 0a12 1F       		.uleb128 0x1f
 2428 0a13 91060000 		.4byte	.LASF156
 2429 0a17 04       		.byte	0x4
 2430 0a18 0801     		.2byte	0x108
 2431 0a1a 00000000 		.4byte	.LFB230
 2432 0a1e 38000000 		.4byte	.LFE230-.LFB230
 2433 0a22 01       		.uleb128 0x1
 2434 0a23 9C       		.byte	0x9c
 2435 0a24 20       		.uleb128 0x20
 2436 0a25 D2040000 		.4byte	.LASF157
 2437 0a29 04       		.byte	0x4
 2438 0a2a FA       		.byte	0xfa
 2439 0a2b 00000000 		.4byte	.LFB229
 2440 0a2f 44000000 		.4byte	.LFE229-.LFB229
ARM GAS  C:\Users\PCHAUT~1\AppData\Local\Temp\ccZi43Pa.s 			page 44


 2441 0a33 01       		.uleb128 0x1
 2442 0a34 9C       		.byte	0x9c
 2443 0a35 20       		.uleb128 0x20
 2444 0a36 A9040000 		.4byte	.LASF158
 2445 0a3a 04       		.byte	0x4
 2446 0a3b EB       		.byte	0xeb
 2447 0a3c 00000000 		.4byte	.LFB228
 2448 0a40 44000000 		.4byte	.LFE228-.LFB228
 2449 0a44 01       		.uleb128 0x1
 2450 0a45 9C       		.byte	0x9c
 2451 0a46 20       		.uleb128 0x20
 2452 0a47 26040000 		.4byte	.LASF159
 2453 0a4b 04       		.byte	0x4
 2454 0a4c D9       		.byte	0xd9
 2455 0a4d 00000000 		.4byte	.LFB227
 2456 0a51 54000000 		.4byte	.LFE227-.LFB227
 2457 0a55 01       		.uleb128 0x1
 2458 0a56 9C       		.byte	0x9c
 2459 0a57 20       		.uleb128 0x20
 2460 0a58 C3050000 		.4byte	.LASF160
 2461 0a5c 04       		.byte	0x4
 2462 0a5d CA       		.byte	0xca
 2463 0a5e 00000000 		.4byte	.LFB226
 2464 0a62 54000000 		.4byte	.LFE226-.LFB226
 2465 0a66 01       		.uleb128 0x1
 2466 0a67 9C       		.byte	0x9c
 2467 0a68 20       		.uleb128 0x20
 2468 0a69 8F080000 		.4byte	.LASF161
 2469 0a6d 04       		.byte	0x4
 2470 0a6e BD       		.byte	0xbd
 2471 0a6f 00000000 		.4byte	.LFB225
 2472 0a73 48000000 		.4byte	.LFE225-.LFB225
 2473 0a77 01       		.uleb128 0x1
 2474 0a78 9C       		.byte	0x9c
 2475 0a79 20       		.uleb128 0x20
 2476 0a7a 07060000 		.4byte	.LASF162
 2477 0a7e 04       		.byte	0x4
 2478 0a7f B0       		.byte	0xb0
 2479 0a80 00000000 		.4byte	.LFB224
 2480 0a84 48000000 		.4byte	.LFE224-.LFB224
 2481 0a88 01       		.uleb128 0x1
 2482 0a89 9C       		.byte	0x9c
 2483 0a8a 20       		.uleb128 0x20
 2484 0a8b E4080000 		.4byte	.LASF163
 2485 0a8f 04       		.byte	0x4
 2486 0a90 A3       		.byte	0xa3
 2487 0a91 00000000 		.4byte	.LFB223
 2488 0a95 48000000 		.4byte	.LFE223-.LFB223
 2489 0a99 01       		.uleb128 0x1
 2490 0a9a 9C       		.byte	0x9c
 2491 0a9b 20       		.uleb128 0x20
 2492 0a9c 62050000 		.4byte	.LASF164
 2493 0aa0 04       		.byte	0x4
 2494 0aa1 96       		.byte	0x96
 2495 0aa2 00000000 		.4byte	.LFB222
 2496 0aa6 48000000 		.4byte	.LFE222-.LFB222
 2497 0aaa 01       		.uleb128 0x1
ARM GAS  C:\Users\PCHAUT~1\AppData\Local\Temp\ccZi43Pa.s 			page 45


 2498 0aab 9C       		.byte	0x9c
 2499 0aac 20       		.uleb128 0x20
 2500 0aad D2010000 		.4byte	.LASF165
 2501 0ab1 04       		.byte	0x4
 2502 0ab2 8A       		.byte	0x8a
 2503 0ab3 00000000 		.4byte	.LFB221
 2504 0ab7 44000000 		.4byte	.LFE221-.LFB221
 2505 0abb 01       		.uleb128 0x1
 2506 0abc 9C       		.byte	0x9c
 2507 0abd 20       		.uleb128 0x20
 2508 0abe 3D050000 		.4byte	.LASF166
 2509 0ac2 04       		.byte	0x4
 2510 0ac3 7E       		.byte	0x7e
 2511 0ac4 00000000 		.4byte	.LFB220
 2512 0ac8 44000000 		.4byte	.LFE220-.LFB220
 2513 0acc 01       		.uleb128 0x1
 2514 0acd 9C       		.byte	0x9c
 2515 0ace 20       		.uleb128 0x20
 2516 0acf 3B030000 		.4byte	.LASF167
 2517 0ad3 04       		.byte	0x4
 2518 0ad4 72       		.byte	0x72
 2519 0ad5 00000000 		.4byte	.LFB219
 2520 0ad9 44000000 		.4byte	.LFE219-.LFB219
 2521 0add 01       		.uleb128 0x1
 2522 0ade 9C       		.byte	0x9c
 2523 0adf 21       		.uleb128 0x21
 2524 0ae0 DA030000 		.4byte	.LASF176
 2525 0ae4 03       		.byte	0x3
 2526 0ae5 E4       		.byte	0xe4
 2527 0ae6 5E010000 		.4byte	0x15e
 2528 0aea 00000000 		.4byte	.LFB153
 2529 0aee 2C000000 		.4byte	.LFE153-.LFB153
 2530 0af2 01       		.uleb128 0x1
 2531 0af3 9C       		.byte	0x9c
 2532 0af4 22       		.uleb128 0x22
 2533 0af5 EA070000 		.4byte	.LASF168
 2534 0af9 01       		.byte	0x1
 2535 0afa E401     		.2byte	0x1e4
 2536 0afc 00000000 		.4byte	.LFB119
 2537 0b00 28000000 		.4byte	.LFE119-.LFB119
 2538 0b04 01       		.uleb128 0x1
 2539 0b05 9C       		.byte	0x9c
 2540 0b06 22       		.uleb128 0x22
 2541 0b07 75080000 		.4byte	.LASF169
 2542 0b0b 01       		.byte	0x1
 2543 0b0c D901     		.2byte	0x1d9
 2544 0b0e 00000000 		.4byte	.LFB118
 2545 0b12 28000000 		.4byte	.LFE118-.LFB118
 2546 0b16 01       		.uleb128 0x1
 2547 0b17 9C       		.byte	0x9c
 2548 0b18 23       		.uleb128 0x23
 2549 0b19 BC010000 		.4byte	.LASF170
 2550 0b1d 01       		.byte	0x1
 2551 0b1e CA01     		.2byte	0x1ca
 2552 0b20 00000000 		.4byte	.LFB117
 2553 0b24 30000000 		.4byte	.LFE117-.LFB117
 2554 0b28 01       		.uleb128 0x1
ARM GAS  C:\Users\PCHAUT~1\AppData\Local\Temp\ccZi43Pa.s 			page 46


 2555 0b29 9C       		.byte	0x9c
 2556 0b2a 480B0000 		.4byte	0xb48
 2557 0b2e 24       		.uleb128 0x24
 2558 0b2f 780B0000 		.4byte	0xb78
 2559 0b33 0E000000 		.4byte	.LBB8
 2560 0b37 06000000 		.4byte	.LBE8-.LBB8
 2561 0b3b 01       		.byte	0x1
 2562 0b3c CD01     		.2byte	0x1cd
 2563 0b3e 25       		.uleb128 0x25
 2564 0b3f 810B0000 		.4byte	0xb81
 2565 0b43 02       		.uleb128 0x2
 2566 0b44 91       		.byte	0x91
 2567 0b45 70       		.sleb128 -16
 2568 0b46 00       		.byte	0
 2569 0b47 00       		.byte	0
 2570 0b48 23       		.uleb128 0x23
 2571 0b49 7B000000 		.4byte	.LASF171
 2572 0b4d 01       		.byte	0x1
 2573 0b4e BC01     		.2byte	0x1bc
 2574 0b50 00000000 		.4byte	.LFB116
 2575 0b54 30000000 		.4byte	.LFE116-.LFB116
 2576 0b58 01       		.uleb128 0x1
 2577 0b59 9C       		.byte	0x9c
 2578 0b5a 780B0000 		.4byte	0xb78
 2579 0b5e 24       		.uleb128 0x24
 2580 0b5f 780B0000 		.4byte	0xb78
 2581 0b63 0E000000 		.4byte	.LBB6
 2582 0b67 06000000 		.4byte	.LBE6-.LBB6
 2583 0b6b 01       		.byte	0x1
 2584 0b6c BF01     		.2byte	0x1bf
 2585 0b6e 25       		.uleb128 0x25
 2586 0b6f 810B0000 		.4byte	0xb81
 2587 0b73 02       		.uleb128 0x2
 2588 0b74 91       		.byte	0x91
 2589 0b75 70       		.sleb128 -16
 2590 0b76 00       		.byte	0
 2591 0b77 00       		.byte	0
 2592 0b78 26       		.uleb128 0x26
 2593 0b79 3D080000 		.4byte	.LASF177
 2594 0b7d 02       		.byte	0x2
 2595 0b7e 2002     		.2byte	0x220
 2596 0b80 03       		.byte	0x3
 2597 0b81 27       		.uleb128 0x27
 2598 0b82 B6030000 		.4byte	.LASF178
 2599 0b86 02       		.byte	0x2
 2600 0b87 2002     		.2byte	0x220
 2601 0b89 CF000000 		.4byte	0xcf
 2602 0b8d 00       		.byte	0
 2603 0b8e 00       		.byte	0
 2604              		.section	.debug_abbrev,"",%progbits
 2605              	.Ldebug_abbrev0:
 2606 0000 01       		.uleb128 0x1
 2607 0001 11       		.uleb128 0x11
 2608 0002 01       		.byte	0x1
 2609 0003 25       		.uleb128 0x25
 2610 0004 0E       		.uleb128 0xe
 2611 0005 13       		.uleb128 0x13
ARM GAS  C:\Users\PCHAUT~1\AppData\Local\Temp\ccZi43Pa.s 			page 47


 2612 0006 0B       		.uleb128 0xb
 2613 0007 03       		.uleb128 0x3
 2614 0008 0E       		.uleb128 0xe
 2615 0009 1B       		.uleb128 0x1b
 2616 000a 0E       		.uleb128 0xe
 2617 000b 55       		.uleb128 0x55
 2618 000c 17       		.uleb128 0x17
 2619 000d 11       		.uleb128 0x11
 2620 000e 01       		.uleb128 0x1
 2621 000f 10       		.uleb128 0x10
 2622 0010 17       		.uleb128 0x17
 2623 0011 00       		.byte	0
 2624 0012 00       		.byte	0
 2625 0013 02       		.uleb128 0x2
 2626 0014 24       		.uleb128 0x24
 2627 0015 00       		.byte	0
 2628 0016 0B       		.uleb128 0xb
 2629 0017 0B       		.uleb128 0xb
 2630 0018 3E       		.uleb128 0x3e
 2631 0019 0B       		.uleb128 0xb
 2632 001a 03       		.uleb128 0x3
 2633 001b 08       		.uleb128 0x8
 2634 001c 00       		.byte	0
 2635 001d 00       		.byte	0
 2636 001e 03       		.uleb128 0x3
 2637 001f 24       		.uleb128 0x24
 2638 0020 00       		.byte	0
 2639 0021 0B       		.uleb128 0xb
 2640 0022 0B       		.uleb128 0xb
 2641 0023 3E       		.uleb128 0x3e
 2642 0024 0B       		.uleb128 0xb
 2643 0025 03       		.uleb128 0x3
 2644 0026 0E       		.uleb128 0xe
 2645 0027 00       		.byte	0
 2646 0028 00       		.byte	0
 2647 0029 04       		.uleb128 0x4
 2648 002a 16       		.uleb128 0x16
 2649 002b 00       		.byte	0
 2650 002c 03       		.uleb128 0x3
 2651 002d 0E       		.uleb128 0xe
 2652 002e 3A       		.uleb128 0x3a
 2653 002f 0B       		.uleb128 0xb
 2654 0030 3B       		.uleb128 0x3b
 2655 0031 0B       		.uleb128 0xb
 2656 0032 49       		.uleb128 0x49
 2657 0033 13       		.uleb128 0x13
 2658 0034 00       		.byte	0
 2659 0035 00       		.byte	0
 2660 0036 05       		.uleb128 0x5
 2661 0037 35       		.uleb128 0x35
 2662 0038 00       		.byte	0
 2663 0039 49       		.uleb128 0x49
 2664 003a 13       		.uleb128 0x13
 2665 003b 00       		.byte	0
 2666 003c 00       		.byte	0
 2667 003d 06       		.uleb128 0x6
 2668 003e 13       		.uleb128 0x13
ARM GAS  C:\Users\PCHAUT~1\AppData\Local\Temp\ccZi43Pa.s 			page 48


 2669 003f 01       		.byte	0x1
 2670 0040 03       		.uleb128 0x3
 2671 0041 0E       		.uleb128 0xe
 2672 0042 0B       		.uleb128 0xb
 2673 0043 0B       		.uleb128 0xb
 2674 0044 3A       		.uleb128 0x3a
 2675 0045 0B       		.uleb128 0xb
 2676 0046 3B       		.uleb128 0x3b
 2677 0047 0B       		.uleb128 0xb
 2678 0048 01       		.uleb128 0x1
 2679 0049 13       		.uleb128 0x13
 2680 004a 00       		.byte	0
 2681 004b 00       		.byte	0
 2682 004c 07       		.uleb128 0x7
 2683 004d 0D       		.uleb128 0xd
 2684 004e 00       		.byte	0
 2685 004f 03       		.uleb128 0x3
 2686 0050 0E       		.uleb128 0xe
 2687 0051 3A       		.uleb128 0x3a
 2688 0052 0B       		.uleb128 0xb
 2689 0053 3B       		.uleb128 0x3b
 2690 0054 0B       		.uleb128 0xb
 2691 0055 49       		.uleb128 0x49
 2692 0056 13       		.uleb128 0x13
 2693 0057 38       		.uleb128 0x38
 2694 0058 0B       		.uleb128 0xb
 2695 0059 00       		.byte	0
 2696 005a 00       		.byte	0
 2697 005b 08       		.uleb128 0x8
 2698 005c 0D       		.uleb128 0xd
 2699 005d 00       		.byte	0
 2700 005e 03       		.uleb128 0x3
 2701 005f 08       		.uleb128 0x8
 2702 0060 3A       		.uleb128 0x3a
 2703 0061 0B       		.uleb128 0xb
 2704 0062 3B       		.uleb128 0x3b
 2705 0063 05       		.uleb128 0x5
 2706 0064 49       		.uleb128 0x49
 2707 0065 13       		.uleb128 0x13
 2708 0066 38       		.uleb128 0x38
 2709 0067 0B       		.uleb128 0xb
 2710 0068 00       		.byte	0
 2711 0069 00       		.byte	0
 2712 006a 09       		.uleb128 0x9
 2713 006b 0D       		.uleb128 0xd
 2714 006c 00       		.byte	0
 2715 006d 03       		.uleb128 0x3
 2716 006e 0E       		.uleb128 0xe
 2717 006f 3A       		.uleb128 0x3a
 2718 0070 0B       		.uleb128 0xb
 2719 0071 3B       		.uleb128 0x3b
 2720 0072 05       		.uleb128 0x5
 2721 0073 49       		.uleb128 0x49
 2722 0074 13       		.uleb128 0x13
 2723 0075 38       		.uleb128 0x38
 2724 0076 0B       		.uleb128 0xb
 2725 0077 00       		.byte	0
ARM GAS  C:\Users\PCHAUT~1\AppData\Local\Temp\ccZi43Pa.s 			page 49


 2726 0078 00       		.byte	0
 2727 0079 0A       		.uleb128 0xa
 2728 007a 0F       		.uleb128 0xf
 2729 007b 00       		.byte	0
 2730 007c 0B       		.uleb128 0xb
 2731 007d 0B       		.uleb128 0xb
 2732 007e 49       		.uleb128 0x49
 2733 007f 13       		.uleb128 0x13
 2734 0080 00       		.byte	0
 2735 0081 00       		.byte	0
 2736 0082 0B       		.uleb128 0xb
 2737 0083 13       		.uleb128 0x13
 2738 0084 01       		.byte	0x1
 2739 0085 03       		.uleb128 0x3
 2740 0086 0E       		.uleb128 0xe
 2741 0087 0B       		.uleb128 0xb
 2742 0088 0B       		.uleb128 0xb
 2743 0089 3A       		.uleb128 0x3a
 2744 008a 0B       		.uleb128 0xb
 2745 008b 3B       		.uleb128 0x3b
 2746 008c 05       		.uleb128 0x5
 2747 008d 01       		.uleb128 0x1
 2748 008e 13       		.uleb128 0x13
 2749 008f 00       		.byte	0
 2750 0090 00       		.byte	0
 2751 0091 0C       		.uleb128 0xc
 2752 0092 15       		.uleb128 0x15
 2753 0093 01       		.byte	0x1
 2754 0094 27       		.uleb128 0x27
 2755 0095 19       		.uleb128 0x19
 2756 0096 01       		.uleb128 0x1
 2757 0097 13       		.uleb128 0x13
 2758 0098 00       		.byte	0
 2759 0099 00       		.byte	0
 2760 009a 0D       		.uleb128 0xd
 2761 009b 05       		.uleb128 0x5
 2762 009c 00       		.byte	0
 2763 009d 49       		.uleb128 0x49
 2764 009e 13       		.uleb128 0x13
 2765 009f 00       		.byte	0
 2766 00a0 00       		.byte	0
 2767 00a1 0E       		.uleb128 0xe
 2768 00a2 0F       		.uleb128 0xf
 2769 00a3 00       		.byte	0
 2770 00a4 0B       		.uleb128 0xb
 2771 00a5 0B       		.uleb128 0xb
 2772 00a6 00       		.byte	0
 2773 00a7 00       		.byte	0
 2774 00a8 0F       		.uleb128 0xf
 2775 00a9 13       		.uleb128 0x13
 2776 00aa 01       		.byte	0x1
 2777 00ab 03       		.uleb128 0x3
 2778 00ac 0E       		.uleb128 0xe
 2779 00ad 0B       		.uleb128 0xb
 2780 00ae 05       		.uleb128 0x5
 2781 00af 3A       		.uleb128 0x3a
 2782 00b0 0B       		.uleb128 0xb
ARM GAS  C:\Users\PCHAUT~1\AppData\Local\Temp\ccZi43Pa.s 			page 50


 2783 00b1 3B       		.uleb128 0x3b
 2784 00b2 05       		.uleb128 0x5
 2785 00b3 01       		.uleb128 0x1
 2786 00b4 13       		.uleb128 0x13
 2787 00b5 00       		.byte	0
 2788 00b6 00       		.byte	0
 2789 00b7 10       		.uleb128 0x10
 2790 00b8 0D       		.uleb128 0xd
 2791 00b9 00       		.byte	0
 2792 00ba 03       		.uleb128 0x3
 2793 00bb 0E       		.uleb128 0xe
 2794 00bc 3A       		.uleb128 0x3a
 2795 00bd 0B       		.uleb128 0xb
 2796 00be 3B       		.uleb128 0x3b
 2797 00bf 05       		.uleb128 0x5
 2798 00c0 49       		.uleb128 0x49
 2799 00c1 13       		.uleb128 0x13
 2800 00c2 38       		.uleb128 0x38
 2801 00c3 05       		.uleb128 0x5
 2802 00c4 00       		.byte	0
 2803 00c5 00       		.byte	0
 2804 00c6 11       		.uleb128 0x11
 2805 00c7 0D       		.uleb128 0xd
 2806 00c8 00       		.byte	0
 2807 00c9 03       		.uleb128 0x3
 2808 00ca 08       		.uleb128 0x8
 2809 00cb 3A       		.uleb128 0x3a
 2810 00cc 0B       		.uleb128 0xb
 2811 00cd 3B       		.uleb128 0x3b
 2812 00ce 05       		.uleb128 0x5
 2813 00cf 49       		.uleb128 0x49
 2814 00d0 13       		.uleb128 0x13
 2815 00d1 38       		.uleb128 0x38
 2816 00d2 05       		.uleb128 0x5
 2817 00d3 00       		.byte	0
 2818 00d4 00       		.byte	0
 2819 00d5 12       		.uleb128 0x12
 2820 00d6 34       		.uleb128 0x34
 2821 00d7 00       		.byte	0
 2822 00d8 03       		.uleb128 0x3
 2823 00d9 0E       		.uleb128 0xe
 2824 00da 3A       		.uleb128 0x3a
 2825 00db 0B       		.uleb128 0xb
 2826 00dc 3B       		.uleb128 0x3b
 2827 00dd 05       		.uleb128 0x5
 2828 00de 49       		.uleb128 0x49
 2829 00df 13       		.uleb128 0x13
 2830 00e0 3F       		.uleb128 0x3f
 2831 00e1 19       		.uleb128 0x19
 2832 00e2 3C       		.uleb128 0x3c
 2833 00e3 19       		.uleb128 0x19
 2834 00e4 00       		.byte	0
 2835 00e5 00       		.byte	0
 2836 00e6 13       		.uleb128 0x13
 2837 00e7 34       		.uleb128 0x34
 2838 00e8 00       		.byte	0
 2839 00e9 03       		.uleb128 0x3
ARM GAS  C:\Users\PCHAUT~1\AppData\Local\Temp\ccZi43Pa.s 			page 51


 2840 00ea 0E       		.uleb128 0xe
 2841 00eb 3A       		.uleb128 0x3a
 2842 00ec 0B       		.uleb128 0xb
 2843 00ed 3B       		.uleb128 0x3b
 2844 00ee 0B       		.uleb128 0xb
 2845 00ef 49       		.uleb128 0x49
 2846 00f0 13       		.uleb128 0x13
 2847 00f1 3F       		.uleb128 0x3f
 2848 00f2 19       		.uleb128 0x19
 2849 00f3 3C       		.uleb128 0x3c
 2850 00f4 19       		.uleb128 0x19
 2851 00f5 00       		.byte	0
 2852 00f6 00       		.byte	0
 2853 00f7 14       		.uleb128 0x14
 2854 00f8 0D       		.uleb128 0xd
 2855 00f9 00       		.byte	0
 2856 00fa 03       		.uleb128 0x3
 2857 00fb 08       		.uleb128 0x8
 2858 00fc 3A       		.uleb128 0x3a
 2859 00fd 0B       		.uleb128 0xb
 2860 00fe 3B       		.uleb128 0x3b
 2861 00ff 0B       		.uleb128 0xb
 2862 0100 49       		.uleb128 0x49
 2863 0101 13       		.uleb128 0x13
 2864 0102 38       		.uleb128 0x38
 2865 0103 0B       		.uleb128 0xb
 2866 0104 00       		.byte	0
 2867 0105 00       		.byte	0
 2868 0106 15       		.uleb128 0x15
 2869 0107 13       		.uleb128 0x13
 2870 0108 01       		.byte	0x1
 2871 0109 0B       		.uleb128 0xb
 2872 010a 0B       		.uleb128 0xb
 2873 010b 3A       		.uleb128 0x3a
 2874 010c 0B       		.uleb128 0xb
 2875 010d 3B       		.uleb128 0x3b
 2876 010e 0B       		.uleb128 0xb
 2877 010f 01       		.uleb128 0x1
 2878 0110 13       		.uleb128 0x13
 2879 0111 00       		.byte	0
 2880 0112 00       		.byte	0
 2881 0113 16       		.uleb128 0x16
 2882 0114 13       		.uleb128 0x13
 2883 0115 01       		.byte	0x1
 2884 0116 0B       		.uleb128 0xb
 2885 0117 05       		.uleb128 0x5
 2886 0118 3A       		.uleb128 0x3a
 2887 0119 0B       		.uleb128 0xb
 2888 011a 3B       		.uleb128 0x3b
 2889 011b 0B       		.uleb128 0xb
 2890 011c 01       		.uleb128 0x1
 2891 011d 13       		.uleb128 0x13
 2892 011e 00       		.byte	0
 2893 011f 00       		.byte	0
 2894 0120 17       		.uleb128 0x17
 2895 0121 01       		.uleb128 0x1
 2896 0122 01       		.byte	0x1
ARM GAS  C:\Users\PCHAUT~1\AppData\Local\Temp\ccZi43Pa.s 			page 52


 2897 0123 49       		.uleb128 0x49
 2898 0124 13       		.uleb128 0x13
 2899 0125 01       		.uleb128 0x1
 2900 0126 13       		.uleb128 0x13
 2901 0127 00       		.byte	0
 2902 0128 00       		.byte	0
 2903 0129 18       		.uleb128 0x18
 2904 012a 21       		.uleb128 0x21
 2905 012b 00       		.byte	0
 2906 012c 49       		.uleb128 0x49
 2907 012d 13       		.uleb128 0x13
 2908 012e 2F       		.uleb128 0x2f
 2909 012f 0B       		.uleb128 0xb
 2910 0130 00       		.byte	0
 2911 0131 00       		.byte	0
 2912 0132 19       		.uleb128 0x19
 2913 0133 17       		.uleb128 0x17
 2914 0134 01       		.byte	0x1
 2915 0135 0B       		.uleb128 0xb
 2916 0136 0B       		.uleb128 0xb
 2917 0137 3A       		.uleb128 0x3a
 2918 0138 0B       		.uleb128 0xb
 2919 0139 3B       		.uleb128 0x3b
 2920 013a 0B       		.uleb128 0xb
 2921 013b 01       		.uleb128 0x1
 2922 013c 13       		.uleb128 0x13
 2923 013d 00       		.byte	0
 2924 013e 00       		.byte	0
 2925 013f 1A       		.uleb128 0x1a
 2926 0140 0D       		.uleb128 0xd
 2927 0141 00       		.byte	0
 2928 0142 03       		.uleb128 0x3
 2929 0143 0E       		.uleb128 0xe
 2930 0144 3A       		.uleb128 0x3a
 2931 0145 0B       		.uleb128 0xb
 2932 0146 3B       		.uleb128 0x3b
 2933 0147 05       		.uleb128 0x5
 2934 0148 49       		.uleb128 0x49
 2935 0149 13       		.uleb128 0x13
 2936 014a 00       		.byte	0
 2937 014b 00       		.byte	0
 2938 014c 1B       		.uleb128 0x1b
 2939 014d 26       		.uleb128 0x26
 2940 014e 00       		.byte	0
 2941 014f 49       		.uleb128 0x49
 2942 0150 13       		.uleb128 0x13
 2943 0151 00       		.byte	0
 2944 0152 00       		.byte	0
 2945 0153 1C       		.uleb128 0x1c
 2946 0154 34       		.uleb128 0x34
 2947 0155 00       		.byte	0
 2948 0156 03       		.uleb128 0x3
 2949 0157 08       		.uleb128 0x8
 2950 0158 3A       		.uleb128 0x3a
 2951 0159 0B       		.uleb128 0xb
 2952 015a 3B       		.uleb128 0x3b
 2953 015b 05       		.uleb128 0x5
ARM GAS  C:\Users\PCHAUT~1\AppData\Local\Temp\ccZi43Pa.s 			page 53


 2954 015c 49       		.uleb128 0x49
 2955 015d 13       		.uleb128 0x13
 2956 015e 3F       		.uleb128 0x3f
 2957 015f 19       		.uleb128 0x19
 2958 0160 3C       		.uleb128 0x3c
 2959 0161 19       		.uleb128 0x19
 2960 0162 00       		.byte	0
 2961 0163 00       		.byte	0
 2962 0164 1D       		.uleb128 0x1d
 2963 0165 2E       		.uleb128 0x2e
 2964 0166 01       		.byte	0x1
 2965 0167 3F       		.uleb128 0x3f
 2966 0168 19       		.uleb128 0x19
 2967 0169 03       		.uleb128 0x3
 2968 016a 0E       		.uleb128 0xe
 2969 016b 3A       		.uleb128 0x3a
 2970 016c 0B       		.uleb128 0xb
 2971 016d 3B       		.uleb128 0x3b
 2972 016e 05       		.uleb128 0x5
 2973 016f 27       		.uleb128 0x27
 2974 0170 19       		.uleb128 0x19
 2975 0171 11       		.uleb128 0x11
 2976 0172 01       		.uleb128 0x1
 2977 0173 12       		.uleb128 0x12
 2978 0174 06       		.uleb128 0x6
 2979 0175 40       		.uleb128 0x40
 2980 0176 18       		.uleb128 0x18
 2981 0177 9642     		.uleb128 0x2116
 2982 0179 19       		.uleb128 0x19
 2983 017a 01       		.uleb128 0x1
 2984 017b 13       		.uleb128 0x13
 2985 017c 00       		.byte	0
 2986 017d 00       		.byte	0
 2987 017e 1E       		.uleb128 0x1e
 2988 017f 05       		.uleb128 0x5
 2989 0180 00       		.byte	0
 2990 0181 03       		.uleb128 0x3
 2991 0182 08       		.uleb128 0x8
 2992 0183 3A       		.uleb128 0x3a
 2993 0184 0B       		.uleb128 0xb
 2994 0185 3B       		.uleb128 0x3b
 2995 0186 05       		.uleb128 0x5
 2996 0187 49       		.uleb128 0x49
 2997 0188 13       		.uleb128 0x13
 2998 0189 02       		.uleb128 0x2
 2999 018a 18       		.uleb128 0x18
 3000 018b 00       		.byte	0
 3001 018c 00       		.byte	0
 3002 018d 1F       		.uleb128 0x1f
 3003 018e 2E       		.uleb128 0x2e
 3004 018f 00       		.byte	0
 3005 0190 3F       		.uleb128 0x3f
 3006 0191 19       		.uleb128 0x19
 3007 0192 03       		.uleb128 0x3
 3008 0193 0E       		.uleb128 0xe
 3009 0194 3A       		.uleb128 0x3a
 3010 0195 0B       		.uleb128 0xb
ARM GAS  C:\Users\PCHAUT~1\AppData\Local\Temp\ccZi43Pa.s 			page 54


 3011 0196 3B       		.uleb128 0x3b
 3012 0197 05       		.uleb128 0x5
 3013 0198 27       		.uleb128 0x27
 3014 0199 19       		.uleb128 0x19
 3015 019a 11       		.uleb128 0x11
 3016 019b 01       		.uleb128 0x1
 3017 019c 12       		.uleb128 0x12
 3018 019d 06       		.uleb128 0x6
 3019 019e 40       		.uleb128 0x40
 3020 019f 18       		.uleb128 0x18
 3021 01a0 9642     		.uleb128 0x2116
 3022 01a2 19       		.uleb128 0x19
 3023 01a3 00       		.byte	0
 3024 01a4 00       		.byte	0
 3025 01a5 20       		.uleb128 0x20
 3026 01a6 2E       		.uleb128 0x2e
 3027 01a7 00       		.byte	0
 3028 01a8 3F       		.uleb128 0x3f
 3029 01a9 19       		.uleb128 0x19
 3030 01aa 03       		.uleb128 0x3
 3031 01ab 0E       		.uleb128 0xe
 3032 01ac 3A       		.uleb128 0x3a
 3033 01ad 0B       		.uleb128 0xb
 3034 01ae 3B       		.uleb128 0x3b
 3035 01af 0B       		.uleb128 0xb
 3036 01b0 27       		.uleb128 0x27
 3037 01b1 19       		.uleb128 0x19
 3038 01b2 11       		.uleb128 0x11
 3039 01b3 01       		.uleb128 0x1
 3040 01b4 12       		.uleb128 0x12
 3041 01b5 06       		.uleb128 0x6
 3042 01b6 40       		.uleb128 0x40
 3043 01b7 18       		.uleb128 0x18
 3044 01b8 9642     		.uleb128 0x2116
 3045 01ba 19       		.uleb128 0x19
 3046 01bb 00       		.byte	0
 3047 01bc 00       		.byte	0
 3048 01bd 21       		.uleb128 0x21
 3049 01be 2E       		.uleb128 0x2e
 3050 01bf 00       		.byte	0
 3051 01c0 03       		.uleb128 0x3
 3052 01c1 0E       		.uleb128 0xe
 3053 01c2 3A       		.uleb128 0x3a
 3054 01c3 0B       		.uleb128 0xb
 3055 01c4 3B       		.uleb128 0x3b
 3056 01c5 0B       		.uleb128 0xb
 3057 01c6 27       		.uleb128 0x27
 3058 01c7 19       		.uleb128 0x19
 3059 01c8 49       		.uleb128 0x49
 3060 01c9 13       		.uleb128 0x13
 3061 01ca 11       		.uleb128 0x11
 3062 01cb 01       		.uleb128 0x1
 3063 01cc 12       		.uleb128 0x12
 3064 01cd 06       		.uleb128 0x6
 3065 01ce 40       		.uleb128 0x40
 3066 01cf 18       		.uleb128 0x18
 3067 01d0 9642     		.uleb128 0x2116
ARM GAS  C:\Users\PCHAUT~1\AppData\Local\Temp\ccZi43Pa.s 			page 55


 3068 01d2 19       		.uleb128 0x19
 3069 01d3 00       		.byte	0
 3070 01d4 00       		.byte	0
 3071 01d5 22       		.uleb128 0x22
 3072 01d6 2E       		.uleb128 0x2e
 3073 01d7 00       		.byte	0
 3074 01d8 03       		.uleb128 0x3
 3075 01d9 0E       		.uleb128 0xe
 3076 01da 3A       		.uleb128 0x3a
 3077 01db 0B       		.uleb128 0xb
 3078 01dc 3B       		.uleb128 0x3b
 3079 01dd 05       		.uleb128 0x5
 3080 01de 27       		.uleb128 0x27
 3081 01df 19       		.uleb128 0x19
 3082 01e0 11       		.uleb128 0x11
 3083 01e1 01       		.uleb128 0x1
 3084 01e2 12       		.uleb128 0x12
 3085 01e3 06       		.uleb128 0x6
 3086 01e4 40       		.uleb128 0x40
 3087 01e5 18       		.uleb128 0x18
 3088 01e6 9642     		.uleb128 0x2116
 3089 01e8 19       		.uleb128 0x19
 3090 01e9 00       		.byte	0
 3091 01ea 00       		.byte	0
 3092 01eb 23       		.uleb128 0x23
 3093 01ec 2E       		.uleb128 0x2e
 3094 01ed 01       		.byte	0x1
 3095 01ee 03       		.uleb128 0x3
 3096 01ef 0E       		.uleb128 0xe
 3097 01f0 3A       		.uleb128 0x3a
 3098 01f1 0B       		.uleb128 0xb
 3099 01f2 3B       		.uleb128 0x3b
 3100 01f3 05       		.uleb128 0x5
 3101 01f4 27       		.uleb128 0x27
 3102 01f5 19       		.uleb128 0x19
 3103 01f6 11       		.uleb128 0x11
 3104 01f7 01       		.uleb128 0x1
 3105 01f8 12       		.uleb128 0x12
 3106 01f9 06       		.uleb128 0x6
 3107 01fa 40       		.uleb128 0x40
 3108 01fb 18       		.uleb128 0x18
 3109 01fc 9642     		.uleb128 0x2116
 3110 01fe 19       		.uleb128 0x19
 3111 01ff 01       		.uleb128 0x1
 3112 0200 13       		.uleb128 0x13
 3113 0201 00       		.byte	0
 3114 0202 00       		.byte	0
 3115 0203 24       		.uleb128 0x24
 3116 0204 1D       		.uleb128 0x1d
 3117 0205 01       		.byte	0x1
 3118 0206 31       		.uleb128 0x31
 3119 0207 13       		.uleb128 0x13
 3120 0208 11       		.uleb128 0x11
 3121 0209 01       		.uleb128 0x1
 3122 020a 12       		.uleb128 0x12
 3123 020b 06       		.uleb128 0x6
 3124 020c 58       		.uleb128 0x58
ARM GAS  C:\Users\PCHAUT~1\AppData\Local\Temp\ccZi43Pa.s 			page 56


 3125 020d 0B       		.uleb128 0xb
 3126 020e 59       		.uleb128 0x59
 3127 020f 05       		.uleb128 0x5
 3128 0210 00       		.byte	0
 3129 0211 00       		.byte	0
 3130 0212 25       		.uleb128 0x25
 3131 0213 05       		.uleb128 0x5
 3132 0214 00       		.byte	0
 3133 0215 31       		.uleb128 0x31
 3134 0216 13       		.uleb128 0x13
 3135 0217 02       		.uleb128 0x2
 3136 0218 18       		.uleb128 0x18
 3137 0219 00       		.byte	0
 3138 021a 00       		.byte	0
 3139 021b 26       		.uleb128 0x26
 3140 021c 2E       		.uleb128 0x2e
 3141 021d 01       		.byte	0x1
 3142 021e 03       		.uleb128 0x3
 3143 021f 0E       		.uleb128 0xe
 3144 0220 3A       		.uleb128 0x3a
 3145 0221 0B       		.uleb128 0xb
 3146 0222 3B       		.uleb128 0x3b
 3147 0223 05       		.uleb128 0x5
 3148 0224 27       		.uleb128 0x27
 3149 0225 19       		.uleb128 0x19
 3150 0226 20       		.uleb128 0x20
 3151 0227 0B       		.uleb128 0xb
 3152 0228 00       		.byte	0
 3153 0229 00       		.byte	0
 3154 022a 27       		.uleb128 0x27
 3155 022b 05       		.uleb128 0x5
 3156 022c 00       		.byte	0
 3157 022d 03       		.uleb128 0x3
 3158 022e 0E       		.uleb128 0xe
 3159 022f 3A       		.uleb128 0x3a
 3160 0230 0B       		.uleb128 0xb
 3161 0231 3B       		.uleb128 0x3b
 3162 0232 05       		.uleb128 0x5
 3163 0233 49       		.uleb128 0x49
 3164 0234 13       		.uleb128 0x13
 3165 0235 00       		.byte	0
 3166 0236 00       		.byte	0
 3167 0237 00       		.byte	0
 3168              		.section	.debug_aranges,"",%progbits
 3169 0000 A4000000 		.4byte	0xa4
 3170 0004 0200     		.2byte	0x2
 3171 0006 00000000 		.4byte	.Ldebug_info0
 3172 000a 04       		.byte	0x4
 3173 000b 00       		.byte	0
 3174 000c 0000     		.2byte	0
 3175 000e 0000     		.2byte	0
 3176 0010 00000000 		.4byte	.LFB116
 3177 0014 30000000 		.4byte	.LFE116-.LFB116
 3178 0018 00000000 		.4byte	.LFB117
 3179 001c 30000000 		.4byte	.LFE117-.LFB117
 3180 0020 00000000 		.4byte	.LFB118
 3181 0024 28000000 		.4byte	.LFE118-.LFB118
ARM GAS  C:\Users\PCHAUT~1\AppData\Local\Temp\ccZi43Pa.s 			page 57


 3182 0028 00000000 		.4byte	.LFB119
 3183 002c 28000000 		.4byte	.LFE119-.LFB119
 3184 0030 00000000 		.4byte	.LFB153
 3185 0034 2C000000 		.4byte	.LFE153-.LFB153
 3186 0038 00000000 		.4byte	.LFB219
 3187 003c 44000000 		.4byte	.LFE219-.LFB219
 3188 0040 00000000 		.4byte	.LFB220
 3189 0044 44000000 		.4byte	.LFE220-.LFB220
 3190 0048 00000000 		.4byte	.LFB221
 3191 004c 44000000 		.4byte	.LFE221-.LFB221
 3192 0050 00000000 		.4byte	.LFB222
 3193 0054 48000000 		.4byte	.LFE222-.LFB222
 3194 0058 00000000 		.4byte	.LFB223
 3195 005c 48000000 		.4byte	.LFE223-.LFB223
 3196 0060 00000000 		.4byte	.LFB224
 3197 0064 48000000 		.4byte	.LFE224-.LFB224
 3198 0068 00000000 		.4byte	.LFB225
 3199 006c 48000000 		.4byte	.LFE225-.LFB225
 3200 0070 00000000 		.4byte	.LFB226
 3201 0074 54000000 		.4byte	.LFE226-.LFB226
 3202 0078 00000000 		.4byte	.LFB227
 3203 007c 54000000 		.4byte	.LFE227-.LFB227
 3204 0080 00000000 		.4byte	.LFB228
 3205 0084 44000000 		.4byte	.LFE228-.LFB228
 3206 0088 00000000 		.4byte	.LFB229
 3207 008c 44000000 		.4byte	.LFE229-.LFB229
 3208 0090 00000000 		.4byte	.LFB230
 3209 0094 38000000 		.4byte	.LFE230-.LFB230
 3210 0098 00000000 		.4byte	.LFB231
 3211 009c 78000000 		.4byte	.LFE231-.LFB231
 3212 00a0 00000000 		.4byte	0
 3213 00a4 00000000 		.4byte	0
 3214              		.section	.debug_ranges,"",%progbits
 3215              	.Ldebug_ranges0:
 3216 0000 00000000 		.4byte	.LFB116
 3217 0004 30000000 		.4byte	.LFE116
 3218 0008 00000000 		.4byte	.LFB117
 3219 000c 30000000 		.4byte	.LFE117
 3220 0010 00000000 		.4byte	.LFB118
 3221 0014 28000000 		.4byte	.LFE118
 3222 0018 00000000 		.4byte	.LFB119
 3223 001c 28000000 		.4byte	.LFE119
 3224 0020 00000000 		.4byte	.LFB153
 3225 0024 2C000000 		.4byte	.LFE153
 3226 0028 00000000 		.4byte	.LFB219
 3227 002c 44000000 		.4byte	.LFE219
 3228 0030 00000000 		.4byte	.LFB220
 3229 0034 44000000 		.4byte	.LFE220
 3230 0038 00000000 		.4byte	.LFB221
 3231 003c 44000000 		.4byte	.LFE221
 3232 0040 00000000 		.4byte	.LFB222
 3233 0044 48000000 		.4byte	.LFE222
 3234 0048 00000000 		.4byte	.LFB223
 3235 004c 48000000 		.4byte	.LFE223
 3236 0050 00000000 		.4byte	.LFB224
 3237 0054 48000000 		.4byte	.LFE224
 3238 0058 00000000 		.4byte	.LFB225
ARM GAS  C:\Users\PCHAUT~1\AppData\Local\Temp\ccZi43Pa.s 			page 58


 3239 005c 48000000 		.4byte	.LFE225
 3240 0060 00000000 		.4byte	.LFB226
 3241 0064 54000000 		.4byte	.LFE226
 3242 0068 00000000 		.4byte	.LFB227
 3243 006c 54000000 		.4byte	.LFE227
 3244 0070 00000000 		.4byte	.LFB228
 3245 0074 44000000 		.4byte	.LFE228
 3246 0078 00000000 		.4byte	.LFB229
 3247 007c 44000000 		.4byte	.LFE229
 3248 0080 00000000 		.4byte	.LFB230
 3249 0084 38000000 		.4byte	.LFE230
 3250 0088 00000000 		.4byte	.LFB231
 3251 008c 78000000 		.4byte	.LFE231
 3252 0090 00000000 		.4byte	0
 3253 0094 00000000 		.4byte	0
 3254              		.section	.debug_line,"",%progbits
 3255              	.Ldebug_line0:
 3256 0000 5D050000 		.section	.debug_str,"MS",%progbits,1
 3256      02007003 
 3256      00000201 
 3256      FB0E0D00 
 3256      01010101 
 3257              	.LASF145:
 3258 0000 63665F6F 		.ascii	"cf_off_older\000"
 3258      66665F6F 
 3258      6C646572 
 3258      00
 3259              	.LASF60:
 3260 000d 72656164 		.ascii	"ready_list_t\000"
 3260      795F6C69 
 3260      73745F74 
 3260      00
 3261              	.LASF98:
 3262 001a 73655F74 		.ascii	"se_time\000"
 3262      696D6500 
 3263              	.LASF122:
 3264 0022 77747472 		.ascii	"wttrp\000"
 3264      7000
 3265              	.LASF119:
 3266 0028 7264796D 		.ascii	"rdymsg\000"
 3266      736700
 3267              	.LASF19:
 3268 002f 75696E74 		.ascii	"uint64_t\000"
 3268      36345F74 
 3268      00
 3269              	.LASF90:
 3270 0038 6B65726E 		.ascii	"kernel_stats\000"
 3270      656C5F73 
 3270      74617473 
 3270      00
 3271              	.LASF6:
 3272 0045 5F5F7569 		.ascii	"__uint8_t\000"
 3272      6E74385F 
 3272      7400
 3273              	.LASF97:
 3274 004f 706F7274 		.ascii	"port_intctx\000"
 3274      5F696E74 
ARM GAS  C:\Users\PCHAUT~1\AppData\Local\Temp\ccZi43Pa.s 			page 59


 3274      63747800 
 3275              	.LASF59:
 3276 005b 63685F74 		.ascii	"ch_threads_queue\000"
 3276      68726561 
 3276      64735F71 
 3276      75657565 
 3276      00
 3277              	.LASF79:
 3278 006c 73797374 		.ascii	"system_debug_t\000"
 3278      656D5F64 
 3278      65627567 
 3278      5F7400
 3279              	.LASF171:
 3280 007b 706F7274 		.ascii	"port_lock\000"
 3280      5F6C6F63 
 3280      6B00
 3281              	.LASF110:
 3282 0085 776F7273 		.ascii	"worst\000"
 3282      7400
 3283              	.LASF113:
 3284 008b 74696D65 		.ascii	"time_measurement_t\000"
 3284      5F6D6561 
 3284      73757265 
 3284      6D656E74 
 3284      5F7400
 3285              	.LASF14:
 3286 009e 6C6F6E67 		.ascii	"long long unsigned int\000"
 3286      206C6F6E 
 3286      6720756E 
 3286      7369676E 
 3286      65642069 
 3287              	.LASF106:
 3288 00b5 63685F74 		.ascii	"ch_trace_buffer_t\000"
 3288      72616365 
 3288      5F627566 
 3288      6665725F 
 3288      7400
 3289              	.LASF173:
 3290 00c7 2E2E2F6C 		.ascii	"../lib/e-puck2_main-processor/ChibiOS//os/rt/src/ch"
 3290      69622F65 
 3290      2D707563 
 3290      6B325F6D 
 3290      61696E2D 
 3291 00fa 64656275 		.ascii	"debug.c\000"
 3291      672E6300 
 3292              	.LASF141:
 3293 0102 63685F74 		.ascii	"ch_threadsize\000"
 3293      68726561 
 3293      6473697A 
 3293      6500
 3294              	.LASF120:
 3295 0110 65786974 		.ascii	"exitcode\000"
 3295      636F6465 
 3295      00
 3296              	.LASF89:
 3297 0119 6D61696E 		.ascii	"mainthread\000"
 3297      74687265 
ARM GAS  C:\Users\PCHAUT~1\AppData\Local\Temp\ccZi43Pa.s 			page 60


 3297      616400
 3298              	.LASF9:
 3299 0124 5F5F696E 		.ascii	"__int32_t\000"
 3299      7433325F 
 3299      7400
 3300              	.LASF76:
 3301 012e 76697274 		.ascii	"virtual_timers_list_t\000"
 3301      75616C5F 
 3301      74696D65 
 3301      72735F6C 
 3301      6973745F 
 3302              	.LASF92:
 3303 0144 49544D5F 		.ascii	"ITM_RxBuffer\000"
 3303      52784275 
 3303      66666572 
 3303      00
 3304              	.LASF21:
 3305 0151 72747469 		.ascii	"rttime_t\000"
 3305      6D655F74 
 3305      00
 3306              	.LASF35:
 3307 015a 705F7072 		.ascii	"p_prio\000"
 3307      696F00
 3308              	.LASF148:
 3309 0161 63665F6F 		.ascii	"cf_off_state\000"
 3309      66665F73 
 3309      74617465 
 3309      00
 3310              	.LASF1:
 3311 016e 6C6F6E67 		.ascii	"long long int\000"
 3311      206C6F6E 
 3311      6720696E 
 3311      7400
 3312              	.LASF3:
 3313 017c 7369676E 		.ascii	"signed char\000"
 3313      65642063 
 3313      68617200 
 3314              	.LASF147:
 3315 0188 63665F6F 		.ascii	"cf_off_stklimit\000"
 3315      66665F73 
 3315      746B6C69 
 3315      6D697400 
 3316              	.LASF149:
 3317 0198 63665F6F 		.ascii	"cf_off_flags\000"
 3317      66665F66 
 3317      6C616773 
 3317      00
 3318              	.LASF52:
 3319 01a5 705F6D70 		.ascii	"p_mpool\000"
 3319      6F6F6C00 
 3320              	.LASF130:
 3321 01ad 6D5F7175 		.ascii	"m_queue\000"
 3321      65756500 
 3322              	.LASF88:
 3323 01b5 76746C69 		.ascii	"vtlist\000"
 3323      737400
 3324              	.LASF170:
ARM GAS  C:\Users\PCHAUT~1\AppData\Local\Temp\ccZi43Pa.s 			page 61


 3325 01bc 706F7274 		.ascii	"port_unlock\000"
 3325      5F756E6C 
 3325      6F636B00 
 3326              	.LASF25:
 3327 01c8 74736C69 		.ascii	"tslices_t\000"
 3327      6365735F 
 3327      7400
 3328              	.LASF165:
 3329 01d2 5F646267 		.ascii	"_dbg_check_enable\000"
 3329      5F636865 
 3329      636B5F65 
 3329      6E61626C 
 3329      6500
 3330              	.LASF86:
 3331 01e4 63685F73 		.ascii	"ch_system\000"
 3331      79737465 
 3331      6D00
 3332              	.LASF10:
 3333 01ee 6C6F6E67 		.ascii	"long int\000"
 3333      20696E74 
 3333      00
 3334              	.LASF172:
 3335 01f7 474E5520 		.ascii	"GNU C11 7.2.1 20170904 (release) [ARM/embedded-7-br"
 3335      43313120 
 3335      372E322E 
 3335      31203230 
 3335      31373039 
 3336 022a 616E6368 		.ascii	"anch revision 255204] -mcpu=cortex-m4 -mfloat-abi=h"
 3336      20726576 
 3336      6973696F 
 3336      6E203235 
 3336      35323034 
 3337 025d 61726420 		.ascii	"ard -mfpu=fpv4-sp-d16 -mno-thumb-interwork -mthumb "
 3337      2D6D6670 
 3337      753D6670 
 3337      76342D73 
 3337      702D6431 
 3338 0290 2D676764 		.ascii	"-ggdb -O0 -fomit-frame-pointer -falign-functions=16"
 3338      62202D4F 
 3338      30202D66 
 3338      6F6D6974 
 3338      2D667261 
 3339 02c3 202D666E 		.ascii	" -fno-strict-aliasing -fstack-protector-all -ffunct"
 3339      6F2D7374 
 3339      72696374 
 3339      2D616C69 
 3339      6173696E 
 3340 02f6 696F6E2D 		.ascii	"ion-sections -fdata-sections -fno-common -fsingle-p"
 3340      73656374 
 3340      696F6E73 
 3340      202D6664 
 3340      6174612D 
 3341 0329 72656369 		.ascii	"recision-constant\000"
 3341      73696F6E 
 3341      2D636F6E 
 3341      7374616E 
 3341      7400
ARM GAS  C:\Users\PCHAUT~1\AppData\Local\Temp\ccZi43Pa.s 			page 62


 3342              	.LASF167:
 3343 033b 5F646267 		.ascii	"_dbg_check_disable\000"
 3343      5F636865 
 3343      636B5F64 
 3343      69736162 
 3343      6C6500
 3344              	.LASF23:
 3345 034e 74737461 		.ascii	"tstate_t\000"
 3345      74655F74 
 3345      00
 3346              	.LASF99:
 3347 0357 73655F74 		.ascii	"se_tp\000"
 3347      7000
 3348              	.LASF153:
 3349 035d 63686465 		.ascii	"chdebug_t\000"
 3349      6275675F 
 3349      7400
 3350              	.LASF37:
 3351 0367 705F6E65 		.ascii	"p_newer\000"
 3351      77657200 
 3352              	.LASF127:
 3353 036f 735F7175 		.ascii	"s_queue\000"
 3353      65756500 
 3354              	.LASF103:
 3355 0377 74625F73 		.ascii	"tb_size\000"
 3355      697A6500 
 3356              	.LASF65:
 3357 037f 725F6E65 		.ascii	"r_newer\000"
 3357      77657200 
 3358              	.LASF94:
 3359 0387 72656761 		.ascii	"regarm_t\000"
 3359      726D5F74 
 3359      00
 3360              	.LASF72:
 3361 0390 76745F70 		.ascii	"vt_prev\000"
 3361      72657600 
 3362              	.LASF80:
 3363 0398 63685F73 		.ascii	"ch_system_debug\000"
 3363      79737465 
 3363      6D5F6465 
 3363      62756700 
 3364              	.LASF133:
 3365 03a8 6D5F636E 		.ascii	"m_cnt\000"
 3365      7400
 3366              	.LASF155:
 3367 03ae 6D757465 		.ascii	"mutex_t\000"
 3367      785F7400 
 3368              	.LASF178:
 3369 03b6 76616C75 		.ascii	"value\000"
 3369      6500
 3370              	.LASF83:
 3371 03bc 6C6F636B 		.ascii	"lock_cnt\000"
 3371      5F636E74 
 3371      00
 3372              	.LASF91:
 3373 03c5 69646C65 		.ascii	"idle_thread_wa\000"
 3373      5F746872 
ARM GAS  C:\Users\PCHAUT~1\AppData\Local\Temp\ccZi43Pa.s 			page 63


 3373      6561645F 
 3373      776100
 3374              	.LASF29:
 3375 03d4 636E745F 		.ascii	"cnt_t\000"
 3375      7400
 3376              	.LASF176:
 3377 03da 63685654 		.ascii	"chVTGetSystemTimeX\000"
 3377      47657453 
 3377      79737465 
 3377      6D54696D 
 3377      655800
 3378              	.LASF40:
 3379 03ed 705F7374 		.ascii	"p_stklimit\000"
 3379      6B6C696D 
 3379      697400
 3380              	.LASF0:
 3381 03f8 756E7369 		.ascii	"unsigned int\000"
 3381      676E6564 
 3381      20696E74 
 3381      00
 3382              	.LASF71:
 3383 0405 76745F6E 		.ascii	"vt_next\000"
 3383      65787400 
 3384              	.LASF16:
 3385 040d 75696E74 		.ascii	"uint16_t\000"
 3385      31365F74 
 3385      00
 3386              	.LASF93:
 3387 0416 53797374 		.ascii	"SystemCoreClock\000"
 3387      656D436F 
 3387      7265436C 
 3387      6F636B00 
 3388              	.LASF159:
 3389 0426 5F646267 		.ascii	"_dbg_check_leave_isr\000"
 3389      5F636865 
 3389      636B5F6C 
 3389      65617665 
 3389      5F697372 
 3390              	.LASF123:
 3391 043b 77747365 		.ascii	"wtsemp\000"
 3391      6D7000
 3392              	.LASF73:
 3393 0442 76745F64 		.ascii	"vt_delta\000"
 3393      656C7461 
 3393      00
 3394              	.LASF47:
 3395 044b 705F6D73 		.ascii	"p_msgqueue\000"
 3395      67717565 
 3395      756500
 3396              	.LASF154:
 3397 0456 63685F64 		.ascii	"ch_debug\000"
 3397      65627567 
 3397      00
 3398              	.LASF114:
 3399 045f 6E5F6972 		.ascii	"n_irq\000"
 3399      7100
 3400              	.LASF128:
ARM GAS  C:\Users\PCHAUT~1\AppData\Local\Temp\ccZi43Pa.s 			page 64


 3401 0465 735F636E 		.ascii	"s_cnt\000"
 3401      7400
 3402              	.LASF8:
 3403 046b 73686F72 		.ascii	"short unsigned int\000"
 3403      7420756E 
 3403      7369676E 
 3403      65642069 
 3403      6E7400
 3404              	.LASF118:
 3405 047e 6B65726E 		.ascii	"kernel_stats_t\000"
 3405      656C5F73 
 3405      74617473 
 3405      5F7400
 3406              	.LASF56:
 3407 048d 63685F74 		.ascii	"ch_thread\000"
 3407      68726561 
 3407      6400
 3408              	.LASF27:
 3409 0497 6D73675F 		.ascii	"msg_t\000"
 3409      7400
 3410              	.LASF111:
 3411 049d 6C617374 		.ascii	"last\000"
 3411      00
 3412              	.LASF30:
 3413 04a2 75636E74 		.ascii	"ucnt_t\000"
 3413      5F7400
 3414              	.LASF158:
 3415 04a9 63684462 		.ascii	"chDbgCheckClassI\000"
 3415      67436865 
 3415      636B436C 
 3415      61737349 
 3415      00
 3416              	.LASF85:
 3417 04ba 63685F73 		.ascii	"ch_system_t\000"
 3417      79737465 
 3417      6D5F7400 
 3418              	.LASF152:
 3419 04c6 63665F6F 		.ascii	"cf_off_time\000"
 3419      66665F74 
 3419      696D6500 
 3420              	.LASF157:
 3421 04d2 63684462 		.ascii	"chDbgCheckClassS\000"
 3421      67436865 
 3421      636B436C 
 3421      61737353 
 3421      00
 3422              	.LASF45:
 3423 04e3 705F7469 		.ascii	"p_time\000"
 3423      6D6500
 3424              	.LASF117:
 3425 04ea 6D5F6372 		.ascii	"m_crit_isr\000"
 3425      69745F69 
 3425      737200
 3426              	.LASF61:
 3427 04f5 63685F72 		.ascii	"ch_ready_list\000"
 3427      65616479 
 3427      5F6C6973 
ARM GAS  C:\Users\PCHAUT~1\AppData\Local\Temp\ccZi43Pa.s 			page 65


 3427      7400
 3428              	.LASF28:
 3429 0503 6576656E 		.ascii	"eventmask_t\000"
 3429      746D6173 
 3429      6B5F7400 
 3430              	.LASF95:
 3431 050f 73746B61 		.ascii	"stkalign_t\000"
 3431      6C69676E 
 3431      5F7400
 3432              	.LASF55:
 3433 051a 74687265 		.ascii	"threads_list_t\000"
 3433      6164735F 
 3433      6C697374 
 3433      5F7400
 3434              	.LASF136:
 3435 0529 63685F7A 		.ascii	"ch_zero\000"
 3435      65726F00 
 3436              	.LASF150:
 3437 0531 63665F6F 		.ascii	"cf_off_refs\000"
 3437      66665F72 
 3437      65667300 
 3438              	.LASF166:
 3439 053d 5F646267 		.ascii	"_dbg_check_suspend\000"
 3439      5F636865 
 3439      636B5F73 
 3439      75737065 
 3439      6E6400
 3440              	.LASF46:
 3441 0550 705F7761 		.ascii	"p_waiting\000"
 3441      6974696E 
 3441      6700
 3442              	.LASF20:
 3443 055a 7274636E 		.ascii	"rtcnt_t\000"
 3443      745F7400 
 3444              	.LASF164:
 3445 0562 5F646267 		.ascii	"_dbg_check_lock\000"
 3445      5F636865 
 3445      636B5F6C 
 3445      6F636B00 
 3446              	.LASF77:
 3447 0572 63685F76 		.ascii	"ch_virtual_timers_list\000"
 3447      69727475 
 3447      616C5F74 
 3447      696D6572 
 3447      735F6C69 
 3448              	.LASF2:
 3449 0589 6C6F6E67 		.ascii	"long double\000"
 3449      20646F75 
 3449      626C6500 
 3450              	.LASF140:
 3451 0595 63685F74 		.ascii	"ch_timesize\000"
 3451      696D6573 
 3451      697A6500 
 3452              	.LASF104:
 3453 05a1 74625F70 		.ascii	"tb_ptr\000"
 3453      747200
 3454              	.LASF102:
ARM GAS  C:\Users\PCHAUT~1\AppData\Local\Temp\ccZi43Pa.s 			page 66


 3455 05a8 63685F73 		.ascii	"ch_swc_event_t\000"
 3455      77635F65 
 3455      76656E74 
 3455      5F7400
 3456              	.LASF146:
 3457 05b7 63665F6F 		.ascii	"cf_off_name\000"
 3457      66665F6E 
 3457      616D6500 
 3458              	.LASF160:
 3459 05c3 5F646267 		.ascii	"_dbg_check_enter_isr\000"
 3459      5F636865 
 3459      636B5F65 
 3459      6E746572 
 3459      5F697372 
 3460              	.LASF64:
 3461 05d8 725F6374 		.ascii	"r_ctx\000"
 3461      7800
 3462              	.LASF36:
 3463 05de 705F6374 		.ascii	"p_ctx\000"
 3463      7800
 3464              	.LASF108:
 3465 05e4 746D5F63 		.ascii	"tm_calibration_t\000"
 3465      616C6962 
 3465      72617469 
 3465      6F6E5F74 
 3465      00
 3466              	.LASF67:
 3467 05f5 725F6375 		.ascii	"r_current\000"
 3467      7272656E 
 3467      7400
 3468              	.LASF66:
 3469 05ff 725F6F6C 		.ascii	"r_older\000"
 3469      64657200 
 3470              	.LASF162:
 3471 0607 5F646267 		.ascii	"_dbg_check_lock_from_isr\000"
 3471      5F636865 
 3471      636B5F6C 
 3471      6F636B5F 
 3471      66726F6D 
 3472              	.LASF13:
 3473 0620 5F5F7569 		.ascii	"__uint64_t\000"
 3473      6E743634 
 3473      5F7400
 3474              	.LASF112:
 3475 062b 63756D75 		.ascii	"cumulative\000"
 3475      6C617469 
 3475      766500
 3476              	.LASF24:
 3477 0636 74726566 		.ascii	"trefs_t\000"
 3477      735F7400 
 3478              	.LASF105:
 3479 063e 74625F62 		.ascii	"tb_buffer\000"
 3479      75666665 
 3479      7200
 3480              	.LASF139:
 3481 0648 63685F70 		.ascii	"ch_ptrsize\000"
 3481      74727369 
ARM GAS  C:\Users\PCHAUT~1\AppData\Local\Temp\ccZi43Pa.s 			page 67


 3481      7A6500
 3482              	.LASF69:
 3483 0653 76697274 		.ascii	"virtual_timer_t\000"
 3483      75616C5F 
 3483      74696D65 
 3483      725F7400 
 3484              	.LASF34:
 3485 0663 705F7072 		.ascii	"p_prev\000"
 3485      657600
 3486              	.LASF26:
 3487 066a 74707269 		.ascii	"tprio_t\000"
 3487      6F5F7400 
 3488              	.LASF115:
 3489 0672 6E5F6374 		.ascii	"n_ctxswc\000"
 3489      78737763 
 3489      00
 3490              	.LASF17:
 3491 067b 696E7433 		.ascii	"int32_t\000"
 3491      325F7400 
 3492              	.LASF4:
 3493 0683 756E7369 		.ascii	"unsigned char\000"
 3493      676E6564 
 3493      20636861 
 3493      7200
 3494              	.LASF156:
 3495 0691 5F646267 		.ascii	"_dbg_trace_init\000"
 3495      5F747261 
 3495      63655F69 
 3495      6E697400 
 3496              	.LASF50:
 3497 06a1 705F6D74 		.ascii	"p_mtxlist\000"
 3497      786C6973 
 3497      7400
 3498              	.LASF5:
 3499 06ab 73686F72 		.ascii	"short int\000"
 3499      7420696E 
 3499      7400
 3500              	.LASF41:
 3501 06b5 705F7374 		.ascii	"p_state\000"
 3501      61746500 
 3502              	.LASF44:
 3503 06bd 705F7072 		.ascii	"p_preempt\000"
 3503      65656D70 
 3503      7400
 3504              	.LASF38:
 3505 06c7 705F6F6C 		.ascii	"p_older\000"
 3505      64657200 
 3506              	.LASF63:
 3507 06cf 725F7072 		.ascii	"r_prio\000"
 3507      696F00
 3508              	.LASF125:
 3509 06d6 65776D61 		.ascii	"ewmask\000"
 3509      736B00
 3510              	.LASF33:
 3511 06dd 705F6E65 		.ascii	"p_next\000"
 3511      787400
 3512              	.LASF22:
ARM GAS  C:\Users\PCHAUT~1\AppData\Local\Temp\ccZi43Pa.s 			page 68


 3513 06e4 746D6F64 		.ascii	"tmode_t\000"
 3513      655F7400 
 3514              	.LASF151:
 3515 06ec 63665F6F 		.ascii	"cf_off_preempt\000"
 3515      66665F70 
 3515      7265656D 
 3515      707400
 3516              	.LASF42:
 3517 06fb 705F666C 		.ascii	"p_flags\000"
 3517      61677300 
 3518              	.LASF53:
 3519 0703 705F7374 		.ascii	"p_stats\000"
 3519      61747300 
 3520              	.LASF174:
 3521 070b 433A5C55 		.ascii	"C:\\Users\\Pchautems\\Documents\\RobotiqueTP\\Proje"
 3521      73657273 
 3521      5C506368 
 3521      61757465 
 3521      6D735C44 
 3522 0739 745C6D69 		.ascii	"t\\miniprojet\000"
 3522      6E697072 
 3522      6F6A6574 
 3522      00
 3523              	.LASF58:
 3524 0746 74687265 		.ascii	"threads_queue_t\000"
 3524      6164735F 
 3524      71756575 
 3524      655F7400 
 3525              	.LASF70:
 3526 0756 63685F76 		.ascii	"ch_virtual_timer\000"
 3526      69727475 
 3526      616C5F74 
 3526      696D6572 
 3526      00
 3527              	.LASF144:
 3528 0767 63665F6F 		.ascii	"cf_off_newer\000"
 3528      66665F6E 
 3528      65776572 
 3528      00
 3529              	.LASF126:
 3530 0774 63685F73 		.ascii	"ch_semaphore\000"
 3530      656D6170 
 3530      686F7265 
 3530      00
 3531              	.LASF49:
 3532 0781 705F6570 		.ascii	"p_epending\000"
 3532      656E6469 
 3532      6E6700
 3533              	.LASF18:
 3534 078c 75696E74 		.ascii	"uint32_t\000"
 3534      33325F74 
 3534      00
 3535              	.LASF142:
 3536 0795 63665F6F 		.ascii	"cf_off_prio\000"
 3536      66665F70 
 3536      72696F00 
 3537              	.LASF62:
ARM GAS  C:\Users\PCHAUT~1\AppData\Local\Temp\ccZi43Pa.s 			page 69


 3538 07a1 725F7175 		.ascii	"r_queue\000"
 3538      65756500 
 3539              	.LASF57:
 3540 07a9 63685F74 		.ascii	"ch_threads_list\000"
 3540      68726561 
 3540      64735F6C 
 3540      69737400 
 3541              	.LASF137:
 3542 07b9 63685F73 		.ascii	"ch_size\000"
 3542      697A6500 
 3543              	.LASF12:
 3544 07c1 6C6F6E67 		.ascii	"long unsigned int\000"
 3544      20756E73 
 3544      69676E65 
 3544      6420696E 
 3544      7400
 3545              	.LASF134:
 3546 07d3 63686172 		.ascii	"char\000"
 3546      00
 3547              	.LASF124:
 3548 07d8 77746D74 		.ascii	"wtmtxp\000"
 3548      787000
 3549              	.LASF7:
 3550 07df 5F5F7569 		.ascii	"__uint16_t\000"
 3550      6E743136 
 3550      5F7400
 3551              	.LASF168:
 3552 07ea 706F7274 		.ascii	"port_unlock_from_isr\000"
 3552      5F756E6C 
 3552      6F636B5F 
 3552      66726F6D 
 3552      5F697372 
 3553              	.LASF32:
 3554 07ff 74687265 		.ascii	"thread_t\000"
 3554      61645F74 
 3554      00
 3555              	.LASF109:
 3556 0808 62657374 		.ascii	"best\000"
 3556      00
 3557              	.LASF132:
 3558 080d 6D5F6E65 		.ascii	"m_next\000"
 3558      787400
 3559              	.LASF31:
 3560 0814 73797374 		.ascii	"systime_t\000"
 3560      696D655F 
 3560      7400
 3561              	.LASF51:
 3562 081e 705F7265 		.ascii	"p_realprio\000"
 3562      616C7072 
 3562      696F00
 3563              	.LASF68:
 3564 0829 76746675 		.ascii	"vtfunc_t\000"
 3564      6E635F74 
 3564      00
 3565              	.LASF11:
 3566 0832 5F5F7569 		.ascii	"__uint32_t\000"
 3566      6E743332 
ARM GAS  C:\Users\PCHAUT~1\AppData\Local\Temp\ccZi43Pa.s 			page 70


 3566      5F7400
 3567              	.LASF177:
 3568 083d 5F5F7365 		.ascii	"__set_BASEPRI\000"
 3568      745F4241 
 3568      53455052 
 3568      4900
 3569              	.LASF81:
 3570 084b 70616E69 		.ascii	"panic_msg\000"
 3570      635F6D73 
 3570      6700
 3571              	.LASF107:
 3572 0855 6F666673 		.ascii	"offset\000"
 3572      657400
 3573              	.LASF96:
 3574 085c 636F6E74 		.ascii	"context\000"
 3574      65787400 
 3575              	.LASF175:
 3576 0864 5F646267 		.ascii	"_dbg_trace\000"
 3576      5F747261 
 3576      636500
 3577              	.LASF48:
 3578 086f 705F6D73 		.ascii	"p_msg\000"
 3578      6700
 3579              	.LASF169:
 3580 0875 706F7274 		.ascii	"port_lock_from_isr\000"
 3580      5F6C6F63 
 3580      6B5F6672 
 3580      6F6D5F69 
 3580      737200
 3581              	.LASF75:
 3582 0888 76745F70 		.ascii	"vt_par\000"
 3582      617200
 3583              	.LASF161:
 3584 088f 5F646267 		.ascii	"_dbg_check_unlock_from_isr\000"
 3584      5F636865 
 3584      636B5F75 
 3584      6E6C6F63 
 3584      6B5F6672 
 3585              	.LASF143:
 3586 08aa 63665F6F 		.ascii	"cf_off_ctx\000"
 3586      66665F63 
 3586      747800
 3587              	.LASF129:
 3588 08b5 63685F6D 		.ascii	"ch_mutex\000"
 3588      75746578 
 3588      00
 3589              	.LASF43:
 3590 08be 705F7265 		.ascii	"p_refs\000"
 3590      667300
 3591              	.LASF82:
 3592 08c5 6973725F 		.ascii	"isr_cnt\000"
 3592      636E7400 
 3593              	.LASF101:
 3594 08cd 73655F73 		.ascii	"se_state\000"
 3594      74617465 
 3594      00
 3595              	.LASF87:
ARM GAS  C:\Users\PCHAUT~1\AppData\Local\Temp\ccZi43Pa.s 			page 71


 3596 08d6 726C6973 		.ascii	"rlist\000"
 3596      7400
 3597              	.LASF15:
 3598 08dc 75696E74 		.ascii	"uint8_t\000"
 3598      385F7400 
 3599              	.LASF163:
 3600 08e4 5F646267 		.ascii	"_dbg_check_unlock\000"
 3600      5F636865 
 3600      636B5F75 
 3600      6E6C6F63 
 3600      6B00
 3601              	.LASF54:
 3602 08f6 74687265 		.ascii	"thread_reference_t\000"
 3602      61645F72 
 3602      65666572 
 3602      656E6365 
 3602      5F7400
 3603              	.LASF121:
 3604 0909 77746F62 		.ascii	"wtobjp\000"
 3604      6A7000
 3605              	.LASF39:
 3606 0910 705F6E61 		.ascii	"p_name\000"
 3606      6D6500
 3607              	.LASF78:
 3608 0917 76745F73 		.ascii	"vt_systime\000"
 3608      79737469 
 3608      6D6500
 3609              	.LASF84:
 3610 0922 74726163 		.ascii	"trace_buffer\000"
 3610      655F6275 
 3610      66666572 
 3610      00
 3611              	.LASF138:
 3612 092f 63685F76 		.ascii	"ch_version\000"
 3612      65727369 
 3612      6F6E00
 3613              	.LASF116:
 3614 093a 6D5F6372 		.ascii	"m_crit_thd\000"
 3614      69745F74 
 3614      686400
 3615              	.LASF131:
 3616 0945 6D5F6F77 		.ascii	"m_owner\000"
 3616      6E657200 
 3617              	.LASF100:
 3618 094d 73655F77 		.ascii	"se_wtobjp\000"
 3618      746F626A 
 3618      7000
 3619              	.LASF135:
 3620 0957 63685F69 		.ascii	"ch_identifier\000"
 3620      64656E74 
 3620      69666965 
 3620      7200
 3621              	.LASF74:
 3622 0965 76745F66 		.ascii	"vt_func\000"
 3622      756E6300 
 3623              		.ident	"GCC: (GNU Tools for Arm Embedded Processors 7-2017-q4-major) 7.2.1 20170904 (release) [ARM
ARM GAS  C:\Users\PCHAUT~1\AppData\Local\Temp\ccZi43Pa.s 			page 72


DEFINED SYMBOLS
                            *ABS*:00000000 chdebug.c
C:\Users\PCHAUT~1\AppData\Local\Temp\ccZi43Pa.s:18     .text.port_lock:00000000 $t
C:\Users\PCHAUT~1\AppData\Local\Temp\ccZi43Pa.s:25     .text.port_lock:00000000 port_lock
C:\Users\PCHAUT~1\AppData\Local\Temp\ccZi43Pa.s:72     .text.port_lock:0000002c $d
C:\Users\PCHAUT~1\AppData\Local\Temp\ccZi43Pa.s:77     .text.port_unlock:00000000 $t
C:\Users\PCHAUT~1\AppData\Local\Temp\ccZi43Pa.s:84     .text.port_unlock:00000000 port_unlock
C:\Users\PCHAUT~1\AppData\Local\Temp\ccZi43Pa.s:129    .text.port_unlock:0000002c $d
C:\Users\PCHAUT~1\AppData\Local\Temp\ccZi43Pa.s:134    .text.port_lock_from_isr:00000000 $t
C:\Users\PCHAUT~1\AppData\Local\Temp\ccZi43Pa.s:141    .text.port_lock_from_isr:00000000 port_lock_from_isr
C:\Users\PCHAUT~1\AppData\Local\Temp\ccZi43Pa.s:174    .text.port_lock_from_isr:00000024 $d
C:\Users\PCHAUT~1\AppData\Local\Temp\ccZi43Pa.s:179    .text.port_unlock_from_isr:00000000 $t
C:\Users\PCHAUT~1\AppData\Local\Temp\ccZi43Pa.s:186    .text.port_unlock_from_isr:00000000 port_unlock_from_isr
C:\Users\PCHAUT~1\AppData\Local\Temp\ccZi43Pa.s:219    .text.port_unlock_from_isr:00000024 $d
C:\Users\PCHAUT~1\AppData\Local\Temp\ccZi43Pa.s:224    .text.chVTGetSystemTimeX:00000000 $t
C:\Users\PCHAUT~1\AppData\Local\Temp\ccZi43Pa.s:231    .text.chVTGetSystemTimeX:00000000 chVTGetSystemTimeX
C:\Users\PCHAUT~1\AppData\Local\Temp\ccZi43Pa.s:266    .text.chVTGetSystemTimeX:00000024 $d
C:\Users\PCHAUT~1\AppData\Local\Temp\ccZi43Pa.s:272    .rodata:00000000 $d
C:\Users\PCHAUT~1\AppData\Local\Temp\ccZi43Pa.s:276    .text._dbg_check_disable:00000000 $t
C:\Users\PCHAUT~1\AppData\Local\Temp\ccZi43Pa.s:284    .text._dbg_check_disable:00000000 _dbg_check_disable
C:\Users\PCHAUT~1\AppData\Local\Temp\ccZi43Pa.s:331    .text._dbg_check_disable:00000038 $d
C:\Users\PCHAUT~1\AppData\Local\Temp\ccZi43Pa.s:342    .text._dbg_check_suspend:00000000 $t
C:\Users\PCHAUT~1\AppData\Local\Temp\ccZi43Pa.s:350    .text._dbg_check_suspend:00000000 _dbg_check_suspend
C:\Users\PCHAUT~1\AppData\Local\Temp\ccZi43Pa.s:396    .text._dbg_check_suspend:00000038 $d
C:\Users\PCHAUT~1\AppData\Local\Temp\ccZi43Pa.s:407    .text._dbg_check_enable:00000000 $t
C:\Users\PCHAUT~1\AppData\Local\Temp\ccZi43Pa.s:415    .text._dbg_check_enable:00000000 _dbg_check_enable
C:\Users\PCHAUT~1\AppData\Local\Temp\ccZi43Pa.s:461    .text._dbg_check_enable:00000038 $d
C:\Users\PCHAUT~1\AppData\Local\Temp\ccZi43Pa.s:472    .text._dbg_check_lock:00000000 $t
C:\Users\PCHAUT~1\AppData\Local\Temp\ccZi43Pa.s:480    .text._dbg_check_lock:00000000 _dbg_check_lock
C:\Users\PCHAUT~1\AppData\Local\Temp\ccZi43Pa.s:530    .text._dbg_check_lock:0000003c $d
C:\Users\PCHAUT~1\AppData\Local\Temp\ccZi43Pa.s:541    .text._dbg_check_unlock:00000000 $t
C:\Users\PCHAUT~1\AppData\Local\Temp\ccZi43Pa.s:549    .text._dbg_check_unlock:00000000 _dbg_check_unlock
C:\Users\PCHAUT~1\AppData\Local\Temp\ccZi43Pa.s:599    .text._dbg_check_unlock:0000003c $d
C:\Users\PCHAUT~1\AppData\Local\Temp\ccZi43Pa.s:610    .text._dbg_check_lock_from_isr:00000000 $t
C:\Users\PCHAUT~1\AppData\Local\Temp\ccZi43Pa.s:618    .text._dbg_check_lock_from_isr:00000000 _dbg_check_lock_from_isr
C:\Users\PCHAUT~1\AppData\Local\Temp\ccZi43Pa.s:668    .text._dbg_check_lock_from_isr:0000003c $d
C:\Users\PCHAUT~1\AppData\Local\Temp\ccZi43Pa.s:679    .text._dbg_check_unlock_from_isr:00000000 $t
C:\Users\PCHAUT~1\AppData\Local\Temp\ccZi43Pa.s:687    .text._dbg_check_unlock_from_isr:00000000 _dbg_check_unlock_from_isr
C:\Users\PCHAUT~1\AppData\Local\Temp\ccZi43Pa.s:737    .text._dbg_check_unlock_from_isr:0000003c $d
C:\Users\PCHAUT~1\AppData\Local\Temp\ccZi43Pa.s:748    .text._dbg_check_enter_isr:00000000 $t
C:\Users\PCHAUT~1\AppData\Local\Temp\ccZi43Pa.s:756    .text._dbg_check_enter_isr:00000000 _dbg_check_enter_isr
C:\Users\PCHAUT~1\AppData\Local\Temp\ccZi43Pa.s:812    .text._dbg_check_enter_isr:00000048 $d
C:\Users\PCHAUT~1\AppData\Local\Temp\ccZi43Pa.s:823    .text._dbg_check_leave_isr:00000000 $t
C:\Users\PCHAUT~1\AppData\Local\Temp\ccZi43Pa.s:831    .text._dbg_check_leave_isr:00000000 _dbg_check_leave_isr
C:\Users\PCHAUT~1\AppData\Local\Temp\ccZi43Pa.s:887    .text._dbg_check_leave_isr:00000048 $d
C:\Users\PCHAUT~1\AppData\Local\Temp\ccZi43Pa.s:898    .text.chDbgCheckClassI:00000000 $t
C:\Users\PCHAUT~1\AppData\Local\Temp\ccZi43Pa.s:906    .text.chDbgCheckClassI:00000000 chDbgCheckClassI
C:\Users\PCHAUT~1\AppData\Local\Temp\ccZi43Pa.s:952    .text.chDbgCheckClassI:00000038 $d
C:\Users\PCHAUT~1\AppData\Local\Temp\ccZi43Pa.s:963    .text.chDbgCheckClassS:00000000 $t
C:\Users\PCHAUT~1\AppData\Local\Temp\ccZi43Pa.s:971    .text.chDbgCheckClassS:00000000 chDbgCheckClassS
C:\Users\PCHAUT~1\AppData\Local\Temp\ccZi43Pa.s:1017   .text.chDbgCheckClassS:00000038 $d
C:\Users\PCHAUT~1\AppData\Local\Temp\ccZi43Pa.s:1024   .text._dbg_trace_init:00000000 $t
C:\Users\PCHAUT~1\AppData\Local\Temp\ccZi43Pa.s:1032   .text._dbg_trace_init:00000000 _dbg_trace_init
C:\Users\PCHAUT~1\AppData\Local\Temp\ccZi43Pa.s:1071   .text._dbg_trace_init:0000002c $d
C:\Users\PCHAUT~1\AppData\Local\Temp\ccZi43Pa.s:1078   .text._dbg_trace:00000000 $t
C:\Users\PCHAUT~1\AppData\Local\Temp\ccZi43Pa.s:1086   .text._dbg_trace:00000000 _dbg_trace
C:\Users\PCHAUT~1\AppData\Local\Temp\ccZi43Pa.s:1159   .text._dbg_trace:00000068 $d
ARM GAS  C:\Users\PCHAUT~1\AppData\Local\Temp\ccZi43Pa.s 			page 73



UNDEFINED SYMBOLS
__stack_chk_fail
__stack_chk_guard
ch
chSysHalt
