ARM GAS  C:\Users\PCHAUT~1\AppData\Local\Temp\ccbWMeVG.s 			page 1


   1              		.cpu cortex-m4
   2              		.eabi_attribute 27, 1
   3              		.eabi_attribute 28, 1
   4              		.eabi_attribute 20, 1
   5              		.eabi_attribute 21, 1
   6              		.eabi_attribute 23, 3
   7              		.eabi_attribute 24, 1
   8              		.eabi_attribute 25, 1
   9              		.eabi_attribute 26, 1
  10              		.eabi_attribute 30, 6
  11              		.eabi_attribute 34, 1
  12              		.eabi_attribute 18, 4
  13              		.file	"chdynamic.c"
  14              		.text
  15              	.Ltext0:
  16              		.cfi_sections	.debug_frame
  17              		.section	.text.port_lock,"ax",%progbits
  18              		.align	1
  19              		.p2align 4,,15
  20              		.syntax unified
  21              		.thumb
  22              		.thumb_func
  23              		.fpu fpv4-sp-d16
  24              		.type	port_lock, %function
  25              	port_lock:
  26              	.LFB116:
  27              		.file 1 "../lib/e-puck2_main-processor/ChibiOS//os/rt/ports/ARMCMx/chcore_v7m.h"
  28              		.loc 1 444 0
  29              		.cfi_startproc
  30              		@ args = 0, pretend = 0, frame = 8
  31              		@ frame_needed = 0, uses_anonymous_args = 0
  32 0000 00B5     		push	{lr}
  33              		.cfi_def_cfa_offset 4
  34              		.cfi_offset 14, -4
  35 0002 83B0     		sub	sp, sp, #12
  36              		.cfi_def_cfa_offset 16
  37              		.loc 1 444 0
  38 0004 094B     		ldr	r3, .L3
  39 0006 1B68     		ldr	r3, [r3]
  40 0008 0193     		str	r3, [sp, #4]
  41 000a 2023     		movs	r3, #32
  42 000c 0093     		str	r3, [sp]
  43              	.LBB6:
  44              	.LBB7:
  45              		.file 2 "../lib/e-puck2_main-processor/ChibiOS//os/ext/CMSIS/include/core_cmFunc.h"
  46              		.loc 2 546 0
  47 000e 009B     		ldr	r3, [sp]
  48              		.syntax unified
  49              	@ 546 "../lib/e-puck2_main-processor/ChibiOS//os/ext/CMSIS/include/core_cmFunc.h" 1
  50 0010 83F31188 		MSR basepri, r3
  51              	@ 0 "" 2
  52              		.thumb
  53              		.syntax unified
  54              	.LBE7:
  55              	.LBE6:
  56              		.loc 1 451 0
  57 0014 00BF     		nop
ARM GAS  C:\Users\PCHAUT~1\AppData\Local\Temp\ccbWMeVG.s 			page 2


  58 0016 054B     		ldr	r3, .L3
  59 0018 019A     		ldr	r2, [sp, #4]
  60 001a 1B68     		ldr	r3, [r3]
  61 001c 9A42     		cmp	r2, r3
  62 001e 01D0     		beq	.L2
  63 0020 FFF7FEFF 		bl	__stack_chk_fail
  64              	.L2:
  65 0024 03B0     		add	sp, sp, #12
  66              		.cfi_def_cfa_offset 4
  67              		@ sp needed
  68 0026 5DF804FB 		ldr	pc, [sp], #4
  69              	.L4:
  70 002a 00BF     		.align	2
  71              	.L3:
  72 002c 00000000 		.word	__stack_chk_guard
  73              		.cfi_endproc
  74              	.LFE116:
  75              		.size	port_lock, .-port_lock
  76              		.section	.text.port_unlock,"ax",%progbits
  77              		.align	1
  78              		.p2align 4,,15
  79              		.syntax unified
  80              		.thumb
  81              		.thumb_func
  82              		.fpu fpv4-sp-d16
  83              		.type	port_unlock, %function
  84              	port_unlock:
  85              	.LFB117:
  86              		.loc 1 458 0
  87              		.cfi_startproc
  88              		@ args = 0, pretend = 0, frame = 8
  89              		@ frame_needed = 0, uses_anonymous_args = 0
  90 0000 00B5     		push	{lr}
  91              		.cfi_def_cfa_offset 4
  92              		.cfi_offset 14, -4
  93 0002 83B0     		sub	sp, sp, #12
  94              		.cfi_def_cfa_offset 16
  95              		.loc 1 458 0
  96 0004 094B     		ldr	r3, .L7
  97 0006 1B68     		ldr	r3, [r3]
  98 0008 0193     		str	r3, [sp, #4]
  99 000a 0023     		movs	r3, #0
 100 000c 0093     		str	r3, [sp]
 101              	.LBB8:
 102              	.LBB9:
 103              		.loc 2 546 0
 104 000e 009B     		ldr	r3, [sp]
 105              		.syntax unified
 106              	@ 546 "../lib/e-puck2_main-processor/ChibiOS//os/ext/CMSIS/include/core_cmFunc.h" 1
 107 0010 83F31188 		MSR basepri, r3
 108              	@ 0 "" 2
 109              		.thumb
 110              		.syntax unified
 111              	.LBE9:
 112              	.LBE8:
 113              		.loc 1 465 0
 114 0014 00BF     		nop
ARM GAS  C:\Users\PCHAUT~1\AppData\Local\Temp\ccbWMeVG.s 			page 3


 115 0016 054B     		ldr	r3, .L7
 116 0018 019A     		ldr	r2, [sp, #4]
 117 001a 1B68     		ldr	r3, [r3]
 118 001c 9A42     		cmp	r2, r3
 119 001e 01D0     		beq	.L6
 120 0020 FFF7FEFF 		bl	__stack_chk_fail
 121              	.L6:
 122 0024 03B0     		add	sp, sp, #12
 123              		.cfi_def_cfa_offset 4
 124              		@ sp needed
 125 0026 5DF804FB 		ldr	pc, [sp], #4
 126              	.L8:
 127 002a 00BF     		.align	2
 128              	.L7:
 129 002c 00000000 		.word	__stack_chk_guard
 130              		.cfi_endproc
 131              	.LFE117:
 132              		.size	port_unlock, .-port_unlock
 133              		.section	.text.chSysLock,"ax",%progbits
 134              		.align	1
 135              		.p2align 4,,15
 136              		.syntax unified
 137              		.thumb
 138              		.thumb_func
 139              		.fpu fpv4-sp-d16
 140              		.type	chSysLock, %function
 141              	chSysLock:
 142              	.LFB145:
 143              		.file 3 "../lib/e-puck2_main-processor/ChibiOS//os/rt/include/chsys.h"
 144              		.loc 3 346 0
 145              		.cfi_startproc
 146              		@ args = 0, pretend = 0, frame = 8
 147              		@ frame_needed = 0, uses_anonymous_args = 0
 148 0000 00B5     		push	{lr}
 149              		.cfi_def_cfa_offset 4
 150              		.cfi_offset 14, -4
 151 0002 83B0     		sub	sp, sp, #12
 152              		.cfi_def_cfa_offset 16
 153              		.loc 3 346 0
 154 0004 094B     		ldr	r3, .L11
 155 0006 1B68     		ldr	r3, [r3]
 156 0008 0193     		str	r3, [sp, #4]
 157              		.loc 3 348 0
 158 000a FFF7FEFF 		bl	port_lock
 159              		.loc 3 349 0
 160 000e FFF7FEFF 		bl	_stats_start_measure_crit_thd
 161              		.loc 3 350 0
 162 0012 FFF7FEFF 		bl	_dbg_check_lock
 163              		.loc 3 351 0
 164 0016 00BF     		nop
 165 0018 044B     		ldr	r3, .L11
 166 001a 019A     		ldr	r2, [sp, #4]
 167 001c 1B68     		ldr	r3, [r3]
 168 001e 9A42     		cmp	r2, r3
 169 0020 01D0     		beq	.L10
 170 0022 FFF7FEFF 		bl	__stack_chk_fail
 171              	.L10:
ARM GAS  C:\Users\PCHAUT~1\AppData\Local\Temp\ccbWMeVG.s 			page 4


 172 0026 03B0     		add	sp, sp, #12
 173              		.cfi_def_cfa_offset 4
 174              		@ sp needed
 175 0028 5DF804FB 		ldr	pc, [sp], #4
 176              	.L12:
 177              		.align	2
 178              	.L11:
 179 002c 00000000 		.word	__stack_chk_guard
 180              		.cfi_endproc
 181              	.LFE145:
 182              		.size	chSysLock, .-chSysLock
 183              		.section	.text.chSysUnlock,"ax",%progbits
 184              		.align	1
 185              		.p2align 4,,15
 186              		.syntax unified
 187              		.thumb
 188              		.thumb_func
 189              		.fpu fpv4-sp-d16
 190              		.type	chSysUnlock, %function
 191              	chSysUnlock:
 192              	.LFB146:
 193              		.loc 3 358 0
 194              		.cfi_startproc
 195              		@ args = 0, pretend = 0, frame = 8
 196              		@ frame_needed = 0, uses_anonymous_args = 0
 197 0000 00B5     		push	{lr}
 198              		.cfi_def_cfa_offset 4
 199              		.cfi_offset 14, -4
 200 0002 83B0     		sub	sp, sp, #12
 201              		.cfi_def_cfa_offset 16
 202              		.loc 3 358 0
 203 0004 114B     		ldr	r3, .L16
 204 0006 1B68     		ldr	r3, [r3]
 205 0008 0193     		str	r3, [sp, #4]
 206              		.loc 3 360 0
 207 000a FFF7FEFF 		bl	_dbg_check_unlock
 208              		.loc 3 361 0
 209 000e FFF7FEFF 		bl	_stats_stop_measure_crit_thd
 210              		.loc 3 367 0
 211 0012 0F4B     		ldr	r3, .L16+4
 212 0014 1B68     		ldr	r3, [r3]
 213 0016 0E4A     		ldr	r2, .L16+4
 214 0018 9342     		cmp	r3, r2
 215 001a 0AD0     		beq	.L14
 216              		.loc 3 367 0 is_stmt 0 discriminator 2
 217 001c 0C4B     		ldr	r3, .L16+4
 218 001e 9B69     		ldr	r3, [r3, #24]
 219 0020 9A68     		ldr	r2, [r3, #8]
 220 0022 0B4B     		ldr	r3, .L16+4
 221 0024 1B68     		ldr	r3, [r3]
 222 0026 9B68     		ldr	r3, [r3, #8]
 223 0028 9A42     		cmp	r2, r3
 224 002a 02D2     		bcs	.L14
 225              		.loc 3 367 0 discriminator 3
 226 002c 0948     		ldr	r0, .L16+8
 227 002e FFF7FEFF 		bl	chSysHalt
 228              	.L14:
ARM GAS  C:\Users\PCHAUT~1\AppData\Local\Temp\ccbWMeVG.s 			page 5


 229              		.loc 3 371 0 is_stmt 1
 230 0032 FFF7FEFF 		bl	port_unlock
 231              		.loc 3 372 0
 232 0036 00BF     		nop
 233 0038 044B     		ldr	r3, .L16
 234 003a 019A     		ldr	r2, [sp, #4]
 235 003c 1B68     		ldr	r3, [r3]
 236 003e 9A42     		cmp	r2, r3
 237 0040 01D0     		beq	.L15
 238 0042 FFF7FEFF 		bl	__stack_chk_fail
 239              	.L15:
 240 0046 03B0     		add	sp, sp, #12
 241              		.cfi_def_cfa_offset 4
 242              		@ sp needed
 243 0048 5DF804FB 		ldr	pc, [sp], #4
 244              	.L17:
 245              		.align	2
 246              	.L16:
 247 004c 00000000 		.word	__stack_chk_guard
 248 0050 00000000 		.word	ch
 249 0054 00000000 		.word	__func__.7153
 250              		.cfi_endproc
 251              	.LFE146:
 252              		.size	chSysUnlock, .-chSysUnlock
 253              		.section	.text.chThdAddRef,"ax",%progbits
 254              		.align	1
 255              		.p2align 4,,15
 256              		.global	chThdAddRef
 257              		.syntax unified
 258              		.thumb
 259              		.thumb_func
 260              		.fpu fpv4-sp-d16
 261              		.type	chThdAddRef, %function
 262              	chThdAddRef:
 263              	.LFB219:
 264              		.file 4 "../lib/e-puck2_main-processor/ChibiOS//os/rt/src/chdynamic.c"
 265              		.loc 4 68 0
 266              		.cfi_startproc
 267              		@ args = 0, pretend = 0, frame = 16
 268              		@ frame_needed = 0, uses_anonymous_args = 0
 269 0000 00B5     		push	{lr}
 270              		.cfi_def_cfa_offset 4
 271              		.cfi_offset 14, -4
 272 0002 85B0     		sub	sp, sp, #20
 273              		.cfi_def_cfa_offset 24
 274 0004 0190     		str	r0, [sp, #4]
 275              		.loc 4 68 0
 276 0006 114B     		ldr	r3, .L22
 277 0008 1B68     		ldr	r3, [r3]
 278 000a 0393     		str	r3, [sp, #12]
 279              		.loc 4 70 0
 280 000c FFF7FEFF 		bl	chSysLock
 281              		.loc 4 71 0
 282 0010 019B     		ldr	r3, [sp, #4]
 283 0012 93F82230 		ldrb	r3, [r3, #34]	@ zero_extendqisi2
 284 0016 FF2B     		cmp	r3, #255
 285 0018 02D1     		bne	.L19
ARM GAS  C:\Users\PCHAUT~1\AppData\Local\Temp\ccbWMeVG.s 			page 6


 286              		.loc 4 71 0 is_stmt 0 discriminator 2
 287 001a 0D48     		ldr	r0, .L22+4
 288 001c FFF7FEFF 		bl	chSysHalt
 289              	.L19:
 290              		.loc 4 72 0 is_stmt 1
 291 0020 019B     		ldr	r3, [sp, #4]
 292 0022 93F82230 		ldrb	r3, [r3, #34]	@ zero_extendqisi2
 293 0026 0133     		adds	r3, r3, #1
 294 0028 DAB2     		uxtb	r2, r3
 295 002a 019B     		ldr	r3, [sp, #4]
 296 002c 83F82220 		strb	r2, [r3, #34]
 297              		.loc 4 73 0
 298 0030 FFF7FEFF 		bl	chSysUnlock
 299              		.loc 4 75 0
 300 0034 019B     		ldr	r3, [sp, #4]
 301              		.loc 4 76 0
 302 0036 1846     		mov	r0, r3
 303 0038 044B     		ldr	r3, .L22
 304 003a 039A     		ldr	r2, [sp, #12]
 305 003c 1B68     		ldr	r3, [r3]
 306 003e 9A42     		cmp	r2, r3
 307 0040 01D0     		beq	.L21
 308 0042 FFF7FEFF 		bl	__stack_chk_fail
 309              	.L21:
 310 0046 05B0     		add	sp, sp, #20
 311              		.cfi_def_cfa_offset 4
 312              		@ sp needed
 313 0048 5DF804FB 		ldr	pc, [sp], #4
 314              	.L23:
 315              		.align	2
 316              	.L22:
 317 004c 00000000 		.word	__stack_chk_guard
 318 0050 00000000 		.word	__func__.7849
 319              		.cfi_endproc
 320              	.LFE219:
 321              		.size	chThdAddRef, .-chThdAddRef
 322              		.section	.text.chThdRelease,"ax",%progbits
 323              		.align	1
 324              		.p2align 4,,15
 325              		.global	chThdRelease
 326              		.syntax unified
 327              		.thumb
 328              		.thumb_func
 329              		.fpu fpv4-sp-d16
 330              		.type	chThdRelease, %function
 331              	chThdRelease:
 332              	.LFB220:
 333              		.loc 4 91 0
 334              		.cfi_startproc
 335              		@ args = 0, pretend = 0, frame = 16
 336              		@ frame_needed = 0, uses_anonymous_args = 0
 337 0000 00B5     		push	{lr}
 338              		.cfi_def_cfa_offset 4
 339              		.cfi_offset 14, -4
 340 0002 85B0     		sub	sp, sp, #20
 341              		.cfi_def_cfa_offset 24
 342 0004 0190     		str	r0, [sp, #4]
ARM GAS  C:\Users\PCHAUT~1\AppData\Local\Temp\ccbWMeVG.s 			page 7


 343              		.loc 4 91 0
 344 0006 2D4B     		ldr	r3, .L32
 345 0008 1B68     		ldr	r3, [r3]
 346 000a 0393     		str	r3, [sp, #12]
 347              		.loc 4 94 0
 348 000c FFF7FEFF 		bl	chSysLock
 349              		.loc 4 95 0
 350 0010 019B     		ldr	r3, [sp, #4]
 351 0012 93F82230 		ldrb	r3, [r3, #34]	@ zero_extendqisi2
 352 0016 002B     		cmp	r3, #0
 353 0018 02D1     		bne	.L25
 354              		.loc 4 95 0 is_stmt 0 discriminator 2
 355 001a 2948     		ldr	r0, .L32+4
 356 001c FFF7FEFF 		bl	chSysHalt
 357              	.L25:
 358              		.loc 4 96 0 is_stmt 1
 359 0020 019B     		ldr	r3, [sp, #4]
 360 0022 93F82230 		ldrb	r3, [r3, #34]	@ zero_extendqisi2
 361 0026 013B     		subs	r3, r3, #1
 362 0028 DAB2     		uxtb	r2, r3
 363 002a 019B     		ldr	r3, [sp, #4]
 364 002c 83F82220 		strb	r2, [r3, #34]
 365              		.loc 4 97 0
 366 0030 019B     		ldr	r3, [sp, #4]
 367 0032 93F82230 		ldrb	r3, [r3, #34]
 368 0036 8DF80B30 		strb	r3, [sp, #11]
 369              		.loc 4 98 0
 370 003a FFF7FEFF 		bl	chSysUnlock
 371              		.loc 4 103 0
 372 003e 9DF80B30 		ldrb	r3, [sp, #11]	@ zero_extendqisi2
 373 0042 002B     		cmp	r3, #0
 374 0044 2DD1     		bne	.L31
 375              		.loc 4 103 0 is_stmt 0 discriminator 1
 376 0046 019B     		ldr	r3, [sp, #4]
 377 0048 93F82030 		ldrb	r3, [r3, #32]	@ zero_extendqisi2
 378 004c 0F2B     		cmp	r3, #15
 379 004e 28D1     		bne	.L31
 380              		.loc 4 104 0 is_stmt 1
 381 0050 019B     		ldr	r3, [sp, #4]
 382 0052 93F82130 		ldrb	r3, [r3, #33]	@ zero_extendqisi2
 383 0056 03F00303 		and	r3, r3, #3
 384 005a 012B     		cmp	r3, #1
 385 005c 02D0     		beq	.L28
 386 005e 022B     		cmp	r3, #2
 387 0060 0ED0     		beq	.L29
 388              		.loc 4 124 0
 389 0062 1FE0     		b	.L26
 390              	.L28:
 391              		.loc 4 108 0
 392 0064 019B     		ldr	r3, [sp, #4]
 393 0066 5B69     		ldr	r3, [r3, #20]
 394 0068 019A     		ldr	r2, [sp, #4]
 395 006a 1269     		ldr	r2, [r2, #16]
 396 006c 1A61     		str	r2, [r3, #16]
 397 006e 019B     		ldr	r3, [sp, #4]
 398 0070 1B69     		ldr	r3, [r3, #16]
 399 0072 019A     		ldr	r2, [sp, #4]
ARM GAS  C:\Users\PCHAUT~1\AppData\Local\Temp\ccbWMeVG.s 			page 8


 400 0074 5269     		ldr	r2, [r2, #20]
 401 0076 5A61     		str	r2, [r3, #20]
 402              		.loc 4 110 0
 403 0078 0198     		ldr	r0, [sp, #4]
 404 007a FFF7FEFF 		bl	chHeapFree
 405              		.loc 4 111 0
 406 007e 11E0     		b	.L26
 407              	.L29:
 408              		.loc 4 116 0
 409 0080 019B     		ldr	r3, [sp, #4]
 410 0082 5B69     		ldr	r3, [r3, #20]
 411 0084 019A     		ldr	r2, [sp, #4]
 412 0086 1269     		ldr	r2, [r2, #16]
 413 0088 1A61     		str	r2, [r3, #16]
 414 008a 019B     		ldr	r3, [sp, #4]
 415 008c 1B69     		ldr	r3, [r3, #16]
 416 008e 019A     		ldr	r2, [sp, #4]
 417 0090 5269     		ldr	r2, [r2, #20]
 418 0092 5A61     		str	r2, [r3, #20]
 419              		.loc 4 118 0
 420 0094 019B     		ldr	r3, [sp, #4]
 421 0096 9B6C     		ldr	r3, [r3, #72]
 422 0098 0199     		ldr	r1, [sp, #4]
 423 009a 1846     		mov	r0, r3
 424 009c FFF7FEFF 		bl	chPoolFree
 425              		.loc 4 119 0
 426 00a0 00E0     		b	.L26
 427              	.L31:
 428              		.loc 4 126 0
 429 00a2 00BF     		nop
 430              	.L26:
 431              		.loc 4 127 0
 432 00a4 00BF     		nop
 433 00a6 054B     		ldr	r3, .L32
 434 00a8 039A     		ldr	r2, [sp, #12]
 435 00aa 1B68     		ldr	r3, [r3]
 436 00ac 9A42     		cmp	r2, r3
 437 00ae 01D0     		beq	.L30
 438 00b0 FFF7FEFF 		bl	__stack_chk_fail
 439              	.L30:
 440 00b4 05B0     		add	sp, sp, #20
 441              		.cfi_def_cfa_offset 4
 442              		@ sp needed
 443 00b6 5DF804FB 		ldr	pc, [sp], #4
 444              	.L33:
 445 00ba 00BF     		.align	2
 446              	.L32:
 447 00bc 00000000 		.word	__stack_chk_guard
 448 00c0 00000000 		.word	__func__.7854
 449              		.cfi_endproc
 450              	.LFE220:
 451              		.size	chThdRelease, .-chThdRelease
 452              		.section	.text.chThdCreateFromHeap,"ax",%progbits
 453              		.align	1
 454              		.p2align 4,,15
 455              		.global	chThdCreateFromHeap
 456              		.syntax unified
ARM GAS  C:\Users\PCHAUT~1\AppData\Local\Temp\ccbWMeVG.s 			page 9


 457              		.thumb
 458              		.thumb_func
 459              		.fpu fpv4-sp-d16
 460              		.type	chThdCreateFromHeap, %function
 461              	chThdCreateFromHeap:
 462              	.LFB221:
 463              		.loc 4 153 0
 464              		.cfi_startproc
 465              		@ args = 4, pretend = 0, frame = 40
 466              		@ frame_needed = 0, uses_anonymous_args = 0
 467 0000 00B5     		push	{lr}
 468              		.cfi_def_cfa_offset 4
 469              		.cfi_offset 14, -4
 470 0002 8DB0     		sub	sp, sp, #52
 471              		.cfi_def_cfa_offset 56
 472 0004 0790     		str	r0, [sp, #28]
 473 0006 0691     		str	r1, [sp, #24]
 474 0008 0592     		str	r2, [sp, #20]
 475 000a 0493     		str	r3, [sp, #16]
 476 000c 0E9B     		ldr	r3, [sp, #56]
 477 000e 0393     		str	r3, [sp, #12]
 478              		.loc 4 153 0
 479 0010 1F4B     		ldr	r3, .L38
 480 0012 1B68     		ldr	r3, [r3]
 481 0014 0B93     		str	r3, [sp, #44]
 482              		.loc 4 157 0
 483 0016 0699     		ldr	r1, [sp, #24]
 484 0018 0798     		ldr	r0, [sp, #28]
 485 001a FFF7FEFF 		bl	chHeapAlloc
 486 001e 0990     		str	r0, [sp, #36]
 487              		.loc 4 158 0
 488 0020 099B     		ldr	r3, [sp, #36]
 489 0022 002B     		cmp	r3, #0
 490 0024 01D1     		bne	.L35
 491              		.loc 4 159 0
 492 0026 0023     		movs	r3, #0
 493 0028 26E0     		b	.L36
 494              	.L35:
 495              		.loc 4 163 0
 496 002a 099B     		ldr	r3, [sp, #36]
 497 002c 6833     		adds	r3, r3, #104
 498 002e FF22     		movs	r2, #255
 499 0030 1946     		mov	r1, r3
 500 0032 0998     		ldr	r0, [sp, #36]
 501 0034 FFF7FEFF 		bl	_thread_memfill
 502              		.loc 4 166 0
 503 0038 099B     		ldr	r3, [sp, #36]
 504 003a 03F16800 		add	r0, r3, #104
 505 003e 099A     		ldr	r2, [sp, #36]
 506 0040 069B     		ldr	r3, [sp, #24]
 507 0042 1344     		add	r3, r3, r2
 508 0044 5522     		movs	r2, #85
 509 0046 1946     		mov	r1, r3
 510 0048 FFF7FEFF 		bl	_thread_memfill
 511              		.loc 4 171 0
 512 004c FFF7FEFF 		bl	chSysLock
 513              		.loc 4 172 0
ARM GAS  C:\Users\PCHAUT~1\AppData\Local\Temp\ccbWMeVG.s 			page 10


 514 0050 039B     		ldr	r3, [sp, #12]
 515 0052 0093     		str	r3, [sp]
 516 0054 049B     		ldr	r3, [sp, #16]
 517 0056 059A     		ldr	r2, [sp, #20]
 518 0058 0699     		ldr	r1, [sp, #24]
 519 005a 0998     		ldr	r0, [sp, #36]
 520 005c FFF7FEFF 		bl	chThdCreateI
 521 0060 0A90     		str	r0, [sp, #40]
 522              		.loc 4 173 0
 523 0062 0A9B     		ldr	r3, [sp, #40]
 524 0064 0122     		movs	r2, #1
 525 0066 83F82120 		strb	r2, [r3, #33]
 526              		.loc 4 174 0
 527 006a 0021     		movs	r1, #0
 528 006c 0A98     		ldr	r0, [sp, #40]
 529 006e FFF7FEFF 		bl	chSchWakeupS
 530              		.loc 4 175 0
 531 0072 FFF7FEFF 		bl	chSysUnlock
 532              		.loc 4 177 0
 533 0076 0A9B     		ldr	r3, [sp, #40]
 534              	.L36:
 535              		.loc 4 178 0
 536 0078 1846     		mov	r0, r3
 537 007a 054B     		ldr	r3, .L38
 538 007c 0B9A     		ldr	r2, [sp, #44]
 539 007e 1B68     		ldr	r3, [r3]
 540 0080 9A42     		cmp	r2, r3
 541 0082 01D0     		beq	.L37
 542 0084 FFF7FEFF 		bl	__stack_chk_fail
 543              	.L37:
 544 0088 0DB0     		add	sp, sp, #52
 545              		.cfi_def_cfa_offset 4
 546              		@ sp needed
 547 008a 5DF804FB 		ldr	pc, [sp], #4
 548              	.L39:
 549 008e 00BF     		.align	2
 550              	.L38:
 551 0090 00000000 		.word	__stack_chk_guard
 552              		.cfi_endproc
 553              	.LFE221:
 554              		.size	chThdCreateFromHeap, .-chThdCreateFromHeap
 555              		.section	.text.chThdCreateFromMemoryPool,"ax",%progbits
 556              		.align	1
 557              		.p2align 4,,15
 558              		.global	chThdCreateFromMemoryPool
 559              		.syntax unified
 560              		.thumb
 561              		.thumb_func
 562              		.fpu fpv4-sp-d16
 563              		.type	chThdCreateFromMemoryPool, %function
 564              	chThdCreateFromMemoryPool:
 565              	.LFB222:
 566              		.loc 4 205 0
 567              		.cfi_startproc
 568              		@ args = 0, pretend = 0, frame = 32
 569              		@ frame_needed = 0, uses_anonymous_args = 0
 570 0000 00B5     		push	{lr}
ARM GAS  C:\Users\PCHAUT~1\AppData\Local\Temp\ccbWMeVG.s 			page 11


 571              		.cfi_def_cfa_offset 4
 572              		.cfi_offset 14, -4
 573 0002 8BB0     		sub	sp, sp, #44
 574              		.cfi_def_cfa_offset 48
 575 0004 0590     		str	r0, [sp, #20]
 576 0006 0491     		str	r1, [sp, #16]
 577 0008 0392     		str	r2, [sp, #12]
 578 000a 0293     		str	r3, [sp, #8]
 579              		.loc 4 205 0
 580 000c 244B     		ldr	r3, .L45
 581 000e 1B68     		ldr	r3, [r3]
 582 0010 0993     		str	r3, [sp, #36]
 583              		.loc 4 209 0
 584 0012 059B     		ldr	r3, [sp, #20]
 585 0014 002B     		cmp	r3, #0
 586 0016 02D1     		bne	.L41
 587              		.loc 4 209 0 is_stmt 0 discriminator 2
 588 0018 2248     		ldr	r0, .L45+4
 589 001a FFF7FEFF 		bl	chSysHalt
 590              	.L41:
 591              		.loc 4 211 0 is_stmt 1
 592 001e 0598     		ldr	r0, [sp, #20]
 593 0020 FFF7FEFF 		bl	chPoolAlloc
 594 0024 0790     		str	r0, [sp, #28]
 595              		.loc 4 212 0
 596 0026 079B     		ldr	r3, [sp, #28]
 597 0028 002B     		cmp	r3, #0
 598 002a 01D1     		bne	.L42
 599              		.loc 4 213 0
 600 002c 0023     		movs	r3, #0
 601 002e 2BE0     		b	.L43
 602              	.L42:
 603              		.loc 4 217 0
 604 0030 079B     		ldr	r3, [sp, #28]
 605 0032 6833     		adds	r3, r3, #104
 606 0034 FF22     		movs	r2, #255
 607 0036 1946     		mov	r1, r3
 608 0038 0798     		ldr	r0, [sp, #28]
 609 003a FFF7FEFF 		bl	_thread_memfill
 610              		.loc 4 220 0
 611 003e 079B     		ldr	r3, [sp, #28]
 612 0040 03F16800 		add	r0, r3, #104
 613              		.loc 4 221 0
 614 0044 059B     		ldr	r3, [sp, #20]
 615 0046 5B68     		ldr	r3, [r3, #4]
 616              		.loc 4 220 0
 617 0048 079A     		ldr	r2, [sp, #28]
 618 004a 1344     		add	r3, r3, r2
 619 004c 5522     		movs	r2, #85
 620 004e 1946     		mov	r1, r3
 621 0050 FFF7FEFF 		bl	_thread_memfill
 622              		.loc 4 225 0
 623 0054 FFF7FEFF 		bl	chSysLock
 624              		.loc 4 226 0
 625 0058 059B     		ldr	r3, [sp, #20]
 626 005a 5968     		ldr	r1, [r3, #4]
 627 005c 029B     		ldr	r3, [sp, #8]
ARM GAS  C:\Users\PCHAUT~1\AppData\Local\Temp\ccbWMeVG.s 			page 12


 628 005e 0093     		str	r3, [sp]
 629 0060 039B     		ldr	r3, [sp, #12]
 630 0062 049A     		ldr	r2, [sp, #16]
 631 0064 0798     		ldr	r0, [sp, #28]
 632 0066 FFF7FEFF 		bl	chThdCreateI
 633 006a 0890     		str	r0, [sp, #32]
 634              		.loc 4 227 0
 635 006c 089B     		ldr	r3, [sp, #32]
 636 006e 0222     		movs	r2, #2
 637 0070 83F82120 		strb	r2, [r3, #33]
 638              		.loc 4 228 0
 639 0074 089B     		ldr	r3, [sp, #32]
 640 0076 059A     		ldr	r2, [sp, #20]
 641 0078 9A64     		str	r2, [r3, #72]
 642              		.loc 4 229 0
 643 007a 0021     		movs	r1, #0
 644 007c 0898     		ldr	r0, [sp, #32]
 645 007e FFF7FEFF 		bl	chSchWakeupS
 646              		.loc 4 230 0
 647 0082 FFF7FEFF 		bl	chSysUnlock
 648              		.loc 4 232 0
 649 0086 089B     		ldr	r3, [sp, #32]
 650              	.L43:
 651              		.loc 4 233 0
 652 0088 1846     		mov	r0, r3
 653 008a 054B     		ldr	r3, .L45
 654 008c 099A     		ldr	r2, [sp, #36]
 655 008e 1B68     		ldr	r3, [r3]
 656 0090 9A42     		cmp	r2, r3
 657 0092 01D0     		beq	.L44
 658 0094 FFF7FEFF 		bl	__stack_chk_fail
 659              	.L44:
 660 0098 0BB0     		add	sp, sp, #44
 661              		.cfi_def_cfa_offset 4
 662              		@ sp needed
 663 009a 5DF804FB 		ldr	pc, [sp], #4
 664              	.L46:
 665 009e 00BF     		.align	2
 666              	.L45:
 667 00a0 00000000 		.word	__stack_chk_guard
 668 00a4 00000000 		.word	__func__.7876
 669              		.cfi_endproc
 670              	.LFE222:
 671              		.size	chThdCreateFromMemoryPool, .-chThdCreateFromMemoryPool
 672              		.section	.rodata.__func__.7849,"a",%progbits
 673              		.align	2
 674              		.type	__func__.7849, %object
 675              		.size	__func__.7849, 12
 676              	__func__.7849:
 677 0000 63685468 		.ascii	"chThdAddRef\000"
 677      64416464 
 677      52656600 
 678              		.section	.rodata.__func__.7153,"a",%progbits
 679              		.align	2
 680              		.type	__func__.7153, %object
 681              		.size	__func__.7153, 12
 682              	__func__.7153:
ARM GAS  C:\Users\PCHAUT~1\AppData\Local\Temp\ccbWMeVG.s 			page 13


 683 0000 63685379 		.ascii	"chSysUnlock\000"
 683      73556E6C 
 683      6F636B00 
 684              		.section	.rodata.__func__.7854,"a",%progbits
 685              		.align	2
 686              		.type	__func__.7854, %object
 687              		.size	__func__.7854, 13
 688              	__func__.7854:
 689 0000 63685468 		.ascii	"chThdRelease\000"
 689      6452656C 
 689      65617365 
 689      00
 690              		.section	.rodata.__func__.7876,"a",%progbits
 691              		.align	2
 692              		.type	__func__.7876, %object
 693              		.size	__func__.7876, 26
 694              	__func__.7876:
 695 0000 63685468 		.ascii	"chThdCreateFromMemoryPool\000"
 695      64437265 
 695      61746546 
 695      726F6D4D 
 695      656D6F72 
 696              		.text
 697              	.Letext0:
 698              		.file 5 "c:\\users\\pchautems\\documents\\robotiquetp\\eclipse_e-puck2\\tools\\gcc-arm-none-eabi-7
 699              		.file 6 "c:\\users\\pchautems\\documents\\robotiquetp\\eclipse_e-puck2\\tools\\gcc-arm-none-eabi-7
 700              		.file 7 "c:\\users\\pchautems\\documents\\robotiquetp\\eclipse_e-puck2\\tools\\gcc-arm-none-eabi-7
 701              		.file 8 "../lib/e-puck2_main-processor/ChibiOS//os/rt/ports/ARMCMx/compilers/GCC/chtypes.h"
 702              		.file 9 "../lib/e-puck2_main-processor/ChibiOS//os/rt/include/chsystypes.h"
 703              		.file 10 "../lib/e-puck2_main-processor/ChibiOS//os/rt/include/chschd.h"
 704              		.file 11 "../lib/e-puck2_main-processor/ChibiOS//os/ext/CMSIS/include/core_cm4.h"
 705              		.file 12 "../lib/e-puck2_main-processor/ChibiOS//os/ext/CMSIS/ST/system_stm32f4xx.h"
 706              		.file 13 "../lib/e-puck2_main-processor/ChibiOS//os/rt/ports/ARMCMx/chcore.h"
 707              		.file 14 "../lib/e-puck2_main-processor/ChibiOS//os/rt/include/chdebug.h"
 708              		.file 15 "../lib/e-puck2_main-processor/ChibiOS//os/rt/include/chtm.h"
 709              		.file 16 "../lib/e-puck2_main-processor/ChibiOS//os/rt/include/chstats.h"
 710              		.file 17 "../lib/e-puck2_main-processor/ChibiOS//os/rt/include/chsem.h"
 711              		.file 18 "../lib/e-puck2_main-processor/ChibiOS//os/rt/include/chmtx.h"
 712              		.file 19 "../lib/e-puck2_main-processor/ChibiOS//os/rt/include/chthreads.h"
 713              		.file 20 "../lib/e-puck2_main-processor/ChibiOS//os/rt/include/chregistry.h"
 714              		.file 21 "../lib/e-puck2_main-processor/ChibiOS//os/rt/include/chmemcore.h"
 715              		.file 22 "../lib/e-puck2_main-processor/ChibiOS//os/rt/include/chheap.h"
 716              		.file 23 "../lib/e-puck2_main-processor/ChibiOS//os/rt/include/chmempools.h"