ARM GAS  C:\Users\PCHAUT~1\AppData\Local\Temp\ccbWMeVG.s 			page 1


   1              		.cpu cortex-m4
   2              		.eabi_attribute 27, 1
   3              		.eabi_attribute 28, 1
   4              		.eabi_attribute 20, 1
   5              		.eabi_attribute 21, 1
   6              		.eabi_attribute 23, 3
   7              		.eabi_attribute 24, 1
   8              		.eabi_attribute 25, 1
   9              		.eabi_attribute 26, 1
  10              		.eabi_attribute 30, 6
  11              		.eabi_attribute 34, 1
  12              		.eabi_attribute 18, 4
  13              		.file	"chdynamic.c"
  14              		.text
  15              	.Ltext0:
  16              		.cfi_sections	.debug_frame
  17              		.section	.text.port_lock,"ax",%progbits
  18              		.align	1
  19              		.p2align 4,,15
  20              		.syntax unified
  21              		.thumb
  22              		.thumb_func
  23              		.fpu fpv4-sp-d16
  24              		.type	port_lock, %function
  25              	port_lock:
  26              	.LFB116:
  27              		.file 1 "../lib/e-puck2_main-processor/ChibiOS//os/rt/ports/ARMCMx/chcore_v7m.h"
  28              		.loc 1 444 0
  29              		.cfi_startproc
  30              		@ args = 0, pretend = 0, frame = 8
  31              		@ frame_needed = 0, uses_anonymous_args = 0
  32 0000 00B5     		push	{lr}
  33              		.cfi_def_cfa_offset 4
  34              		.cfi_offset 14, -4
  35 0002 83B0     		sub	sp, sp, #12
  36              		.cfi_def_cfa_offset 16
  37              		.loc 1 444 0
  38 0004 094B     		ldr	r3, .L3
  39 0006 1B68     		ldr	r3, [r3]
  40 0008 0193     		str	r3, [sp, #4]
  41 000a 2023     		movs	r3, #32
  42 000c 0093     		str	r3, [sp]
  43              	.LBB6:
  44              	.LBB7:
  45              		.file 2 "../lib/e-puck2_main-processor/ChibiOS//os/ext/CMSIS/include/core_cmFunc.h"
  46              		.loc 2 546 0
  47 000e 009B     		ldr	r3, [sp]
  48              		.syntax unified
  49              	@ 546 "../lib/e-puck2_main-processor/ChibiOS//os/ext/CMSIS/include/core_cmFunc.h" 1
  50 0010 83F31188 		MSR basepri, r3
  51              	@ 0 "" 2
  52              		.thumb
  53              		.syntax unified
  54              	.LBE7:
  55              	.LBE6:
  56              		.loc 1 451 0
  57 0014 00BF     		nop
ARM GAS  C:\Users\PCHAUT~1\AppData\Local\Temp\ccbWMeVG.s 			page 2


  58 0016 054B     		ldr	r3, .L3
  59 0018 019A     		ldr	r2, [sp, #4]
  60 001a 1B68     		ldr	r3, [r3]
  61 001c 9A42     		cmp	r2, r3
  62 001e 01D0     		beq	.L2
  63 0020 FFF7FEFF 		bl	__stack_chk_fail
  64              	.L2:
  65 0024 03B0     		add	sp, sp, #12
  66              		.cfi_def_cfa_offset 4
  67              		@ sp needed
  68 0026 5DF804FB 		ldr	pc, [sp], #4
  69              	.L4:
  70 002a 00BF     		.align	2
  71              	.L3:
  72 002c 00000000 		.word	__stack_chk_guard
  73              		.cfi_endproc
  74              	.LFE116:
  75              		.size	port_lock, .-port_lock
  76              		.section	.text.port_unlock,"ax",%progbits
  77              		.align	1
  78              		.p2align 4,,15
  79              		.syntax unified
  80              		.thumb
  81              		.thumb_func
  82              		.fpu fpv4-sp-d16
  83              		.type	port_unlock, %function
  84              	port_unlock:
  85              	.LFB117:
  86              		.loc 1 458 0
  87              		.cfi_startproc
  88              		@ args = 0, pretend = 0, frame = 8
  89              		@ frame_needed = 0, uses_anonymous_args = 0
  90 0000 00B5     		push	{lr}
  91              		.cfi_def_cfa_offset 4
  92              		.cfi_offset 14, -4
  93 0002 83B0     		sub	sp, sp, #12
  94              		.cfi_def_cfa_offset 16
  95              		.loc 1 458 0
  96 0004 094B     		ldr	r3, .L7
  97 0006 1B68     		ldr	r3, [r3]
  98 0008 0193     		str	r3, [sp, #4]
  99 000a 0023     		movs	r3, #0
 100 000c 0093     		str	r3, [sp]
 101              	.LBB8:
 102              	.LBB9:
 103              		.loc 2 546 0
 104 000e 009B     		ldr	r3, [sp]
 105              		.syntax unified
 106              	@ 546 "../lib/e-puck2_main-processor/ChibiOS//os/ext/CMSIS/include/core_cmFunc.h" 1
 107 0010 83F31188 		MSR basepri, r3
 108              	@ 0 "" 2
 109              		.thumb
 110              		.syntax unified
 111              	.LBE9:
 112              	.LBE8:
 113              		.loc 1 465 0
 114 0014 00BF     		nop
ARM GAS  C:\Users\PCHAUT~1\AppData\Local\Temp\ccbWMeVG.s 			page 3


 115 0016 054B     		ldr	r3, .L7
 116 0018 019A     		ldr	r2, [sp, #4]
 117 001a 1B68     		ldr	r3, [r3]
 118 001c 9A42     		cmp	r2, r3
 119 001e 01D0     		beq	.L6
 120 0020 FFF7FEFF 		bl	__stack_chk_fail
 121              	.L6:
 122 0024 03B0     		add	sp, sp, #12
 123              		.cfi_def_cfa_offset 4
 124              		@ sp needed
 125 0026 5DF804FB 		ldr	pc, [sp], #4
 126              	.L8:
 127 002a 00BF     		.align	2
 128              	.L7:
 129 002c 00000000 		.word	__stack_chk_guard
 130              		.cfi_endproc
 131              	.LFE117:
 132              		.size	port_unlock, .-port_unlock
 133              		.section	.text.chSysLock,"ax",%progbits
 134              		.align	1
 135              		.p2align 4,,15
 136              		.syntax unified
 137              		.thumb
 138              		.thumb_func
 139              		.fpu fpv4-sp-d16
 140              		.type	chSysLock, %function
 141              	chSysLock:
 142              	.LFB145:
 143              		.file 3 "../lib/e-puck2_main-processor/ChibiOS//os/rt/include/chsys.h"
 144              		.loc 3 346 0
 145              		.cfi_startproc
 146              		@ args = 0, pretend = 0, frame = 8
 147              		@ frame_needed = 0, uses_anonymous_args = 0
 148 0000 00B5     		push	{lr}
 149              		.cfi_def_cfa_offset 4
 150              		.cfi_offset 14, -4
 151 0002 83B0     		sub	sp, sp, #12
 152              		.cfi_def_cfa_offset 16
 153              		.loc 3 346 0
 154 0004 094B     		ldr	r3, .L11
 155 0006 1B68     		ldr	r3, [r3]
 156 0008 0193     		str	r3, [sp, #4]
 157              		.loc 3 348 0
 158 000a FFF7FEFF 		bl	port_lock
 159              		.loc 3 349 0
 160 000e FFF7FEFF 		bl	_stats_start_measure_crit_thd
 161              		.loc 3 350 0
 162 0012 FFF7FEFF 		bl	_dbg_check_lock
 163              		.loc 3 351 0
 164 0016 00BF     		nop
 165 0018 044B     		ldr	r3, .L11
 166 001a 019A     		ldr	r2, [sp, #4]
 167 001c 1B68     		ldr	r3, [r3]
 168 001e 9A42     		cmp	r2, r3
 169 0020 01D0     		beq	.L10
 170 0022 FFF7FEFF 		bl	__stack_chk_fail
 171              	.L10:
ARM GAS  C:\Users\PCHAUT~1\AppData\Local\Temp\ccbWMeVG.s 			page 4


 172 0026 03B0     		add	sp, sp, #12
 173              		.cfi_def_cfa_offset 4
 174              		@ sp needed
 175 0028 5DF804FB 		ldr	pc, [sp], #4
 176              	.L12:
 177              		.align	2
 178              	.L11:
 179 002c 00000000 		.word	__stack_chk_guard
 180              		.cfi_endproc
 181              	.LFE145:
 182              		.size	chSysLock, .-chSysLock
 183              		.section	.text.chSysUnlock,"ax",%progbits
 184              		.align	1
 185              		.p2align 4,,15
 186              		.syntax unified
 187              		.thumb
 188              		.thumb_func
 189              		.fpu fpv4-sp-d16
 190              		.type	chSysUnlock, %function
 191              	chSysUnlock:
 192              	.LFB146:
 193              		.loc 3 358 0
 194              		.cfi_startproc
 195              		@ args = 0, pretend = 0, frame = 8
 196              		@ frame_needed = 0, uses_anonymous_args = 0
 197 0000 00B5     		push	{lr}
 198              		.cfi_def_cfa_offset 4
 199              		.cfi_offset 14, -4
 200 0002 83B0     		sub	sp, sp, #12
 201              		.cfi_def_cfa_offset 16
 202              		.loc 3 358 0
 203 0004 114B     		ldr	r3, .L16
 204 0006 1B68     		ldr	r3, [r3]
 205 0008 0193     		str	r3, [sp, #4]
 206              		.loc 3 360 0
 207 000a FFF7FEFF 		bl	_dbg_check_unlock
 208              		.loc 3 361 0
 209 000e FFF7FEFF 		bl	_stats_stop_measure_crit_thd
 210              		.loc 3 367 0
 211 0012 0F4B     		ldr	r3, .L16+4
 212 0014 1B68     		ldr	r3, [r3]
 213 0016 0E4A     		ldr	r2, .L16+4
 214 0018 9342     		cmp	r3, r2
 215 001a 0AD0     		beq	.L14
 216              		.loc 3 367 0 is_stmt 0 discriminator 2
 217 001c 0C4B     		ldr	r3, .L16+4
 218 001e 9B69     		ldr	r3, [r3, #24]
 219 0020 9A68     		ldr	r2, [r3, #8]
 220 0022 0B4B     		ldr	r3, .L16+4
 221 0024 1B68     		ldr	r3, [r3]
 222 0026 9B68     		ldr	r3, [r3, #8]
 223 0028 9A42     		cmp	r2, r3
 224 002a 02D2     		bcs	.L14
 225              		.loc 3 367 0 discriminator 3
 226 002c 0948     		ldr	r0, .L16+8
 227 002e FFF7FEFF 		bl	chSysHalt
 228              	.L14:
ARM GAS  C:\Users\PCHAUT~1\AppData\Local\Temp\ccbWMeVG.s 			page 5


 229              		.loc 3 371 0 is_stmt 1
 230 0032 FFF7FEFF 		bl	port_unlock
 231              		.loc 3 372 0
 232 0036 00BF     		nop
 233 0038 044B     		ldr	r3, .L16
 234 003a 019A     		ldr	r2, [sp, #4]
 235 003c 1B68     		ldr	r3, [r3]
 236 003e 9A42     		cmp	r2, r3
 237 0040 01D0     		beq	.L15
 238 0042 FFF7FEFF 		bl	__stack_chk_fail
 239              	.L15:
 240 0046 03B0     		add	sp, sp, #12
 241              		.cfi_def_cfa_offset 4
 242              		@ sp needed
 243 0048 5DF804FB 		ldr	pc, [sp], #4
 244              	.L17:
 245              		.align	2
 246              	.L16:
 247 004c 00000000 		.word	__stack_chk_guard
 248 0050 00000000 		.word	ch
 249 0054 00000000 		.word	__func__.7153
 250              		.cfi_endproc
 251              	.LFE146:
 252              		.size	chSysUnlock, .-chSysUnlock
 253              		.section	.text.chThdAddRef,"ax",%progbits
 254              		.align	1
 255              		.p2align 4,,15
 256              		.global	chThdAddRef
 257              		.syntax unified
 258              		.thumb
 259              		.thumb_func
 260              		.fpu fpv4-sp-d16
 261              		.type	chThdAddRef, %function
 262              	chThdAddRef:
 263              	.LFB219:
 264              		.file 4 "../lib/e-puck2_main-processor/ChibiOS//os/rt/src/chdynamic.c"
 265              		.loc 4 68 0
 266              		.cfi_startproc
 267              		@ args = 0, pretend = 0, frame = 16
 268              		@ frame_needed = 0, uses_anonymous_args = 0
 269 0000 00B5     		push	{lr}
 270              		.cfi_def_cfa_offset 4
 271              		.cfi_offset 14, -4
 272 0002 85B0     		sub	sp, sp, #20
 273              		.cfi_def_cfa_offset 24
 274 0004 0190     		str	r0, [sp, #4]
 275              		.loc 4 68 0
 276 0006 114B     		ldr	r3, .L22
 277 0008 1B68     		ldr	r3, [r3]
 278 000a 0393     		str	r3, [sp, #12]
 279              		.loc 4 70 0
 280 000c FFF7FEFF 		bl	chSysLock
 281              		.loc 4 71 0
 282 0010 019B     		ldr	r3, [sp, #4]
 283 0012 93F82230 		ldrb	r3, [r3, #34]	@ zero_extendqisi2
 284 0016 FF2B     		cmp	r3, #255
 285 0018 02D1     		bne	.L19
ARM GAS  C:\Users\PCHAUT~1\AppData\Local\Temp\ccbWMeVG.s 			page 6


 286              		.loc 4 71 0 is_stmt 0 discriminator 2
 287 001a 0D48     		ldr	r0, .L22+4
 288 001c FFF7FEFF 		bl	chSysHalt
 289              	.L19:
 290              		.loc 4 72 0 is_stmt 1
 291 0020 019B     		ldr	r3, [sp, #4]
 292 0022 93F82230 		ldrb	r3, [r3, #34]	@ zero_extendqisi2
 293 0026 0133     		adds	r3, r3, #1
 294 0028 DAB2     		uxtb	r2, r3
 295 002a 019B     		ldr	r3, [sp, #4]
 296 002c 83F82220 		strb	r2, [r3, #34]
 297              		.loc 4 73 0
 298 0030 FFF7FEFF 		bl	chSysUnlock
 299              		.loc 4 75 0
 300 0034 019B     		ldr	r3, [sp, #4]
 301              		.loc 4 76 0
 302 0036 1846     		mov	r0, r3
 303 0038 044B     		ldr	r3, .L22
 304 003a 039A     		ldr	r2, [sp, #12]
 305 003c 1B68     		ldr	r3, [r3]
 306 003e 9A42     		cmp	r2, r3
 307 0040 01D0     		beq	.L21
 308 0042 FFF7FEFF 		bl	__stack_chk_fail
 309              	.L21:
 310 0046 05B0     		add	sp, sp, #20
 311              		.cfi_def_cfa_offset 4
 312              		@ sp needed
 313 0048 5DF804FB 		ldr	pc, [sp], #4
 314              	.L23:
 315              		.align	2
 316              	.L22:
 317 004c 00000000 		.word	__stack_chk_guard
 318 0050 00000000 		.word	__func__.7849
 319              		.cfi_endproc
 320              	.LFE219:
 321              		.size	chThdAddRef, .-chThdAddRef
 322              		.section	.text.chThdRelease,"ax",%progbits
 323              		.align	1
 324              		.p2align 4,,15
 325              		.global	chThdRelease
 326              		.syntax unified
 327              		.thumb
 328              		.thumb_func
 329              		.fpu fpv4-sp-d16
 330              		.type	chThdRelease, %function
 331              	chThdRelease:
 332              	.LFB220:
 333              		.loc 4 91 0
 334              		.cfi_startproc
 335              		@ args = 0, pretend = 0, frame = 16
 336              		@ frame_needed = 0, uses_anonymous_args = 0
 337 0000 00B5     		push	{lr}
 338              		.cfi_def_cfa_offset 4
 339              		.cfi_offset 14, -4
 340 0002 85B0     		sub	sp, sp, #20
 341              		.cfi_def_cfa_offset 24
 342 0004 0190     		str	r0, [sp, #4]
ARM GAS  C:\Users\PCHAUT~1\AppData\Local\Temp\ccbWMeVG.s 			page 7


 343              		.loc 4 91 0
 344 0006 2D4B     		ldr	r3, .L32
 345 0008 1B68     		ldr	r3, [r3]
 346 000a 0393     		str	r3, [sp, #12]
 347              		.loc 4 94 0
 348 000c FFF7FEFF 		bl	chSysLock
 349              		.loc 4 95 0
 350 0010 019B     		ldr	r3, [sp, #4]
 351 0012 93F82230 		ldrb	r3, [r3, #34]	@ zero_extendqisi2
 352 0016 002B     		cmp	r3, #0
 353 0018 02D1     		bne	.L25
 354              		.loc 4 95 0 is_stmt 0 discriminator 2
 355 001a 2948     		ldr	r0, .L32+4
 356 001c FFF7FEFF 		bl	chSysHalt
 357              	.L25:
 358              		.loc 4 96 0 is_stmt 1
 359 0020 019B     		ldr	r3, [sp, #4]
 360 0022 93F82230 		ldrb	r3, [r3, #34]	@ zero_extendqisi2
 361 0026 013B     		subs	r3, r3, #1
 362 0028 DAB2     		uxtb	r2, r3
 363 002a 019B     		ldr	r3, [sp, #4]
 364 002c 83F82220 		strb	r2, [r3, #34]
 365              		.loc 4 97 0
 366 0030 019B     		ldr	r3, [sp, #4]
 367 0032 93F82230 		ldrb	r3, [r3, #34]
 368 0036 8DF80B30 		strb	r3, [sp, #11]
 369              		.loc 4 98 0
 370 003a FFF7FEFF 		bl	chSysUnlock
 371              		.loc 4 103 0
 372 003e 9DF80B30 		ldrb	r3, [sp, #11]	@ zero_extendqisi2
 373 0042 002B     		cmp	r3, #0
 374 0044 2DD1     		bne	.L31
 375              		.loc 4 103 0 is_stmt 0 discriminator 1
 376 0046 019B     		ldr	r3, [sp, #4]
 377 0048 93F82030 		ldrb	r3, [r3, #32]	@ zero_extendqisi2
 378 004c 0F2B     		cmp	r3, #15
 379 004e 28D1     		bne	.L31
 380              		.loc 4 104 0 is_stmt 1
 381 0050 019B     		ldr	r3, [sp, #4]
 382 0052 93F82130 		ldrb	r3, [r3, #33]	@ zero_extendqisi2
 383 0056 03F00303 		and	r3, r3, #3
 384 005a 012B     		cmp	r3, #1
 385 005c 02D0     		beq	.L28
 386 005e 022B     		cmp	r3, #2
 387 0060 0ED0     		beq	.L29
 388              		.loc 4 124 0
 389 0062 1FE0     		b	.L26
 390              	.L28:
 391              		.loc 4 108 0
 392 0064 019B     		ldr	r3, [sp, #4]
 393 0066 5B69     		ldr	r3, [r3, #20]
 394 0068 019A     		ldr	r2, [sp, #4]
 395 006a 1269     		ldr	r2, [r2, #16]
 396 006c 1A61     		str	r2, [r3, #16]
 397 006e 019B     		ldr	r3, [sp, #4]
 398 0070 1B69     		ldr	r3, [r3, #16]
 399 0072 019A     		ldr	r2, [sp, #4]
ARM GAS  C:\Users\PCHAUT~1\AppData\Local\Temp\ccbWMeVG.s 			page 8


 400 0074 5269     		ldr	r2, [r2, #20]
 401 0076 5A61     		str	r2, [r3, #20]
 402              		.loc 4 110 0
 403 0078 0198     		ldr	r0, [sp, #4]
 404 007a FFF7FEFF 		bl	chHeapFree
 405              		.loc 4 111 0
 406 007e 11E0     		b	.L26
 407              	.L29:
 408              		.loc 4 116 0
 409 0080 019B     		ldr	r3, [sp, #4]
 410 0082 5B69     		ldr	r3, [r3, #20]
 411 0084 019A     		ldr	r2, [sp, #4]
 412 0086 1269     		ldr	r2, [r2, #16]
 413 0088 1A61     		str	r2, [r3, #16]
 414 008a 019B     		ldr	r3, [sp, #4]
 415 008c 1B69     		ldr	r3, [r3, #16]
 416 008e 019A     		ldr	r2, [sp, #4]
 417 0090 5269     		ldr	r2, [r2, #20]
 418 0092 5A61     		str	r2, [r3, #20]
 419              		.loc 4 118 0
 420 0094 019B     		ldr	r3, [sp, #4]
 421 0096 9B6C     		ldr	r3, [r3, #72]
 422 0098 0199     		ldr	r1, [sp, #4]
 423 009a 1846     		mov	r0, r3
 424 009c FFF7FEFF 		bl	chPoolFree
 425              		.loc 4 119 0
 426 00a0 00E0     		b	.L26
 427              	.L31:
 428              		.loc 4 126 0
 429 00a2 00BF     		nop
 430              	.L26:
 431              		.loc 4 127 0
 432 00a4 00BF     		nop
 433 00a6 054B     		ldr	r3, .L32
 434 00a8 039A     		ldr	r2, [sp, #12]
 435 00aa 1B68     		ldr	r3, [r3]
 436 00ac 9A42     		cmp	r2, r3
 437 00ae 01D0     		beq	.L30
 438 00b0 FFF7FEFF 		bl	__stack_chk_fail
 439              	.L30:
 440 00b4 05B0     		add	sp, sp, #20
 441              		.cfi_def_cfa_offset 4
 442              		@ sp needed
 443 00b6 5DF804FB 		ldr	pc, [sp], #4
 444              	.L33:
 445 00ba 00BF     		.align	2
 446              	.L32:
 447 00bc 00000000 		.word	__stack_chk_guard
 448 00c0 00000000 		.word	__func__.7854
 449              		.cfi_endproc
 450              	.LFE220:
 451              		.size	chThdRelease, .-chThdRelease
 452              		.section	.text.chThdCreateFromHeap,"ax",%progbits
 453              		.align	1
 454              		.p2align 4,,15
 455              		.global	chThdCreateFromHeap
 456              		.syntax unified
ARM GAS  C:\Users\PCHAUT~1\AppData\Local\Temp\ccbWMeVG.s 			page 9


 457              		.thumb
 458              		.thumb_func
 459              		.fpu fpv4-sp-d16
 460              		.type	chThdCreateFromHeap, %function
 461              	chThdCreateFromHeap:
 462              	.LFB221:
 463              		.loc 4 153 0
 464              		.cfi_startproc
 465              		@ args = 4, pretend = 0, frame = 40
 466              		@ frame_needed = 0, uses_anonymous_args = 0
 467 0000 00B5     		push	{lr}
 468              		.cfi_def_cfa_offset 4
 469              		.cfi_offset 14, -4
 470 0002 8DB0     		sub	sp, sp, #52
 471              		.cfi_def_cfa_offset 56
 472 0004 0790     		str	r0, [sp, #28]
 473 0006 0691     		str	r1, [sp, #24]
 474 0008 0592     		str	r2, [sp, #20]
 475 000a 0493     		str	r3, [sp, #16]
 476 000c 0E9B     		ldr	r3, [sp, #56]
 477 000e 0393     		str	r3, [sp, #12]
 478              		.loc 4 153 0
 479 0010 1F4B     		ldr	r3, .L38
 480 0012 1B68     		ldr	r3, [r3]
 481 0014 0B93     		str	r3, [sp, #44]
 482              		.loc 4 157 0
 483 0016 0699     		ldr	r1, [sp, #24]
 484 0018 0798     		ldr	r0, [sp, #28]
 485 001a FFF7FEFF 		bl	chHeapAlloc
 486 001e 0990     		str	r0, [sp, #36]
 487              		.loc 4 158 0
 488 0020 099B     		ldr	r3, [sp, #36]
 489 0022 002B     		cmp	r3, #0
 490 0024 01D1     		bne	.L35
 491              		.loc 4 159 0
 492 0026 0023     		movs	r3, #0
 493 0028 26E0     		b	.L36
 494              	.L35:
 495              		.loc 4 163 0
 496 002a 099B     		ldr	r3, [sp, #36]
 497 002c 6833     		adds	r3, r3, #104
 498 002e FF22     		movs	r2, #255
 499 0030 1946     		mov	r1, r3
 500 0032 0998     		ldr	r0, [sp, #36]
 501 0034 FFF7FEFF 		bl	_thread_memfill
 502              		.loc 4 166 0
 503 0038 099B     		ldr	r3, [sp, #36]
 504 003a 03F16800 		add	r0, r3, #104
 505 003e 099A     		ldr	r2, [sp, #36]
 506 0040 069B     		ldr	r3, [sp, #24]
 507 0042 1344     		add	r3, r3, r2
 508 0044 5522     		movs	r2, #85
 509 0046 1946     		mov	r1, r3
 510 0048 FFF7FEFF 		bl	_thread_memfill
 511              		.loc 4 171 0
 512 004c FFF7FEFF 		bl	chSysLock
 513              		.loc 4 172 0
ARM GAS  C:\Users\PCHAUT~1\AppData\Local\Temp\ccbWMeVG.s 			page 10


 514 0050 039B     		ldr	r3, [sp, #12]
 515 0052 0093     		str	r3, [sp]
 516 0054 049B     		ldr	r3, [sp, #16]
 517 0056 059A     		ldr	r2, [sp, #20]
 518 0058 0699     		ldr	r1, [sp, #24]
 519 005a 0998     		ldr	r0, [sp, #36]
 520 005c FFF7FEFF 		bl	chThdCreateI
 521 0060 0A90     		str	r0, [sp, #40]
 522              		.loc 4 173 0
 523 0062 0A9B     		ldr	r3, [sp, #40]
 524 0064 0122     		movs	r2, #1
 525 0066 83F82120 		strb	r2, [r3, #33]
 526              		.loc 4 174 0
 527 006a 0021     		movs	r1, #0
 528 006c 0A98     		ldr	r0, [sp, #40]
 529 006e FFF7FEFF 		bl	chSchWakeupS
 530              		.loc 4 175 0
 531 0072 FFF7FEFF 		bl	chSysUnlock
 532              		.loc 4 177 0
 533 0076 0A9B     		ldr	r3, [sp, #40]
 534              	.L36:
 535              		.loc 4 178 0
 536 0078 1846     		mov	r0, r3
 537 007a 054B     		ldr	r3, .L38
 538 007c 0B9A     		ldr	r2, [sp, #44]
 539 007e 1B68     		ldr	r3, [r3]
 540 0080 9A42     		cmp	r2, r3
 541 0082 01D0     		beq	.L37
 542 0084 FFF7FEFF 		bl	__stack_chk_fail
 543              	.L37:
 544 0088 0DB0     		add	sp, sp, #52
 545              		.cfi_def_cfa_offset 4
 546              		@ sp needed
 547 008a 5DF804FB 		ldr	pc, [sp], #4
 548              	.L39:
 549 008e 00BF     		.align	2
 550              	.L38:
 551 0090 00000000 		.word	__stack_chk_guard
 552              		.cfi_endproc
 553              	.LFE221:
 554              		.size	chThdCreateFromHeap, .-chThdCreateFromHeap
 555              		.section	.text.chThdCreateFromMemoryPool,"ax",%progbits
 556              		.align	1
 557              		.p2align 4,,15
 558              		.global	chThdCreateFromMemoryPool
 559              		.syntax unified
 560              		.thumb
 561              		.thumb_func
 562              		.fpu fpv4-sp-d16
 563              		.type	chThdCreateFromMemoryPool, %function
 564              	chThdCreateFromMemoryPool:
 565              	.LFB222:
 566              		.loc 4 205 0
 567              		.cfi_startproc
 568              		@ args = 0, pretend = 0, frame = 32
 569              		@ frame_needed = 0, uses_anonymous_args = 0
 570 0000 00B5     		push	{lr}
ARM GAS  C:\Users\PCHAUT~1\AppData\Local\Temp\ccbWMeVG.s 			page 11


 571              		.cfi_def_cfa_offset 4
 572              		.cfi_offset 14, -4
 573 0002 8BB0     		sub	sp, sp, #44
 574              		.cfi_def_cfa_offset 48
 575 0004 0590     		str	r0, [sp, #20]
 576 0006 0491     		str	r1, [sp, #16]
 577 0008 0392     		str	r2, [sp, #12]
 578 000a 0293     		str	r3, [sp, #8]
 579              		.loc 4 205 0
 580 000c 244B     		ldr	r3, .L45
 581 000e 1B68     		ldr	r3, [r3]
 582 0010 0993     		str	r3, [sp, #36]
 583              		.loc 4 209 0
 584 0012 059B     		ldr	r3, [sp, #20]
 585 0014 002B     		cmp	r3, #0
 586 0016 02D1     		bne	.L41
 587              		.loc 4 209 0 is_stmt 0 discriminator 2
 588 0018 2248     		ldr	r0, .L45+4
 589 001a FFF7FEFF 		bl	chSysHalt
 590              	.L41:
 591              		.loc 4 211 0 is_stmt 1
 592 001e 0598     		ldr	r0, [sp, #20]
 593 0020 FFF7FEFF 		bl	chPoolAlloc
 594 0024 0790     		str	r0, [sp, #28]
 595              		.loc 4 212 0
 596 0026 079B     		ldr	r3, [sp, #28]
 597 0028 002B     		cmp	r3, #0
 598 002a 01D1     		bne	.L42
 599              		.loc 4 213 0
 600 002c 0023     		movs	r3, #0
 601 002e 2BE0     		b	.L43
 602              	.L42:
 603              		.loc 4 217 0
 604 0030 079B     		ldr	r3, [sp, #28]
 605 0032 6833     		adds	r3, r3, #104
 606 0034 FF22     		movs	r2, #255
 607 0036 1946     		mov	r1, r3
 608 0038 0798     		ldr	r0, [sp, #28]
 609 003a FFF7FEFF 		bl	_thread_memfill
 610              		.loc 4 220 0
 611 003e 079B     		ldr	r3, [sp, #28]
 612 0040 03F16800 		add	r0, r3, #104
 613              		.loc 4 221 0
 614 0044 059B     		ldr	r3, [sp, #20]
 615 0046 5B68     		ldr	r3, [r3, #4]
 616              		.loc 4 220 0
 617 0048 079A     		ldr	r2, [sp, #28]
 618 004a 1344     		add	r3, r3, r2
 619 004c 5522     		movs	r2, #85
 620 004e 1946     		mov	r1, r3
 621 0050 FFF7FEFF 		bl	_thread_memfill
 622              		.loc 4 225 0
 623 0054 FFF7FEFF 		bl	chSysLock
 624              		.loc 4 226 0
 625 0058 059B     		ldr	r3, [sp, #20]
 626 005a 5968     		ldr	r1, [r3, #4]
 627 005c 029B     		ldr	r3, [sp, #8]
ARM GAS  C:\Users\PCHAUT~1\AppData\Local\Temp\ccbWMeVG.s 			page 12


 628 005e 0093     		str	r3, [sp]
 629 0060 039B     		ldr	r3, [sp, #12]
 630 0062 049A     		ldr	r2, [sp, #16]
 631 0064 0798     		ldr	r0, [sp, #28]
 632 0066 FFF7FEFF 		bl	chThdCreateI
 633 006a 0890     		str	r0, [sp, #32]
 634              		.loc 4 227 0
 635 006c 089B     		ldr	r3, [sp, #32]
 636 006e 0222     		movs	r2, #2
 637 0070 83F82120 		strb	r2, [r3, #33]
 638              		.loc 4 228 0
 639 0074 089B     		ldr	r3, [sp, #32]
 640 0076 059A     		ldr	r2, [sp, #20]
 641 0078 9A64     		str	r2, [r3, #72]
 642              		.loc 4 229 0
 643 007a 0021     		movs	r1, #0
 644 007c 0898     		ldr	r0, [sp, #32]
 645 007e FFF7FEFF 		bl	chSchWakeupS
 646              		.loc 4 230 0
 647 0082 FFF7FEFF 		bl	chSysUnlock
 648              		.loc 4 232 0
 649 0086 089B     		ldr	r3, [sp, #32]
 650              	.L43:
 651              		.loc 4 233 0
 652 0088 1846     		mov	r0, r3
 653 008a 054B     		ldr	r3, .L45
 654 008c 099A     		ldr	r2, [sp, #36]
 655 008e 1B68     		ldr	r3, [r3]
 656 0090 9A42     		cmp	r2, r3
 657 0092 01D0     		beq	.L44
 658 0094 FFF7FEFF 		bl	__stack_chk_fail
 659              	.L44:
 660 0098 0BB0     		add	sp, sp, #44
 661              		.cfi_def_cfa_offset 4
 662              		@ sp needed
 663 009a 5DF804FB 		ldr	pc, [sp], #4
 664              	.L46:
 665 009e 00BF     		.align	2
 666              	.L45:
 667 00a0 00000000 		.word	__stack_chk_guard
 668 00a4 00000000 		.word	__func__.7876
 669              		.cfi_endproc
 670              	.LFE222:
 671              		.size	chThdCreateFromMemoryPool, .-chThdCreateFromMemoryPool
 672              		.section	.rodata.__func__.7849,"a",%progbits
 673              		.align	2
 674              		.type	__func__.7849, %object
 675              		.size	__func__.7849, 12
 676              	__func__.7849:
 677 0000 63685468 		.ascii	"chThdAddRef\000"
 677      64416464 
 677      52656600 
 678              		.section	.rodata.__func__.7153,"a",%progbits
 679              		.align	2
 680              		.type	__func__.7153, %object
 681              		.size	__func__.7153, 12
 682              	__func__.7153:
ARM GAS  C:\Users\PCHAUT~1\AppData\Local\Temp\ccbWMeVG.s 			page 13


 683 0000 63685379 		.ascii	"chSysUnlock\000"
 683      73556E6C 
 683      6F636B00 
 684              		.section	.rodata.__func__.7854,"a",%progbits
 685              		.align	2
 686              		.type	__func__.7854, %object
 687              		.size	__func__.7854, 13
 688              	__func__.7854:
 689 0000 63685468 		.ascii	"chThdRelease\000"
 689      6452656C 
 689      65617365 
 689      00
 690              		.section	.rodata.__func__.7876,"a",%progbits
 691              		.align	2
 692              		.type	__func__.7876, %object
 693              		.size	__func__.7876, 26
 694              	__func__.7876:
 695 0000 63685468 		.ascii	"chThdCreateFromMemoryPool\000"
 695      64437265 
 695      61746546 
 695      726F6D4D 
 695      656D6F72 
 696              		.text
 697              	.Letext0:
 698              		.file 5 "c:\\users\\pchautems\\documents\\robotiquetp\\eclipse_e-puck2\\tools\\gcc-arm-none-eabi-7
 699              		.file 6 "c:\\users\\pchautems\\documents\\robotiquetp\\eclipse_e-puck2\\tools\\gcc-arm-none-eabi-7
 700              		.file 7 "c:\\users\\pchautems\\documents\\robotiquetp\\eclipse_e-puck2\\tools\\gcc-arm-none-eabi-7
 701              		.file 8 "../lib/e-puck2_main-processor/ChibiOS//os/rt/ports/ARMCMx/compilers/GCC/chtypes.h"
 702              		.file 9 "../lib/e-puck2_main-processor/ChibiOS//os/rt/include/chsystypes.h"
 703              		.file 10 "../lib/e-puck2_main-processor/ChibiOS//os/rt/include/chschd.h"
 704              		.file 11 "../lib/e-puck2_main-processor/ChibiOS//os/ext/CMSIS/include/core_cm4.h"
 705              		.file 12 "../lib/e-puck2_main-processor/ChibiOS//os/ext/CMSIS/ST/system_stm32f4xx.h"
 706              		.file 13 "../lib/e-puck2_main-processor/ChibiOS//os/rt/ports/ARMCMx/chcore.h"
 707              		.file 14 "../lib/e-puck2_main-processor/ChibiOS//os/rt/include/chdebug.h"
 708              		.file 15 "../lib/e-puck2_main-processor/ChibiOS//os/rt/include/chtm.h"
 709              		.file 16 "../lib/e-puck2_main-processor/ChibiOS//os/rt/include/chstats.h"
 710              		.file 17 "../lib/e-puck2_main-processor/ChibiOS//os/rt/include/chsem.h"
 711              		.file 18 "../lib/e-puck2_main-processor/ChibiOS//os/rt/include/chmtx.h"
 712              		.file 19 "../lib/e-puck2_main-processor/ChibiOS//os/rt/include/chthreads.h"
 713              		.file 20 "../lib/e-puck2_main-processor/ChibiOS//os/rt/include/chregistry.h"
 714              		.file 21 "../lib/e-puck2_main-processor/ChibiOS//os/rt/include/chmemcore.h"
 715              		.file 22 "../lib/e-puck2_main-processor/ChibiOS//os/rt/include/chheap.h"
 716              		.file 23 "../lib/e-puck2_main-processor/ChibiOS//os/rt/include/chmempools.h"
 717              		.section	.debug_info,"",%progbits
 718              	.Ldebug_info0:
 719 0000 7A0D0000 		.4byte	0xd7a
 720 0004 0400     		.2byte	0x4
 721 0006 00000000 		.4byte	.Ldebug_abbrev0
 722 000a 04       		.byte	0x4
 723 000b 01       		.uleb128 0x1
 724 000c C9010000 		.4byte	.LASF184
 725 0010 0C       		.byte	0xc
 726 0011 46050000 		.4byte	.LASF185
 727 0015 F9060000 		.4byte	.LASF186
 728 0019 00000000 		.4byte	.Ldebug_ranges0+0
 729 001d 00000000 		.4byte	0
 730 0021 00000000 		.4byte	.Ldebug_line0
ARM GAS  C:\Users\PCHAUT~1\AppData\Local\Temp\ccbWMeVG.s 			page 14


 731 0025 02       		.uleb128 0x2
 732 0026 04       		.byte	0x4
 733 0027 05       		.byte	0x5
 734 0028 696E7400 		.ascii	"int\000"
 735 002c 03       		.uleb128 0x3
 736 002d 1D000000 		.4byte	.LASF4
 737 0031 05       		.byte	0x5
 738 0032 D8       		.byte	0xd8
 739 0033 37000000 		.4byte	0x37
 740 0037 04       		.uleb128 0x4
 741 0038 04       		.byte	0x4
 742 0039 07       		.byte	0x7
 743 003a D8030000 		.4byte	.LASF0
 744 003e 04       		.uleb128 0x4
 745 003f 08       		.byte	0x8
 746 0040 05       		.byte	0x5
 747 0041 32010000 		.4byte	.LASF1
 748 0045 04       		.uleb128 0x4
 749 0046 08       		.byte	0x8
 750 0047 04       		.byte	0x4
 751 0048 3A050000 		.4byte	.LASF2
 752 004c 04       		.uleb128 0x4
 753 004d 01       		.byte	0x1
 754 004e 06       		.byte	0x6
 755 004f 40010000 		.4byte	.LASF3
 756 0053 03       		.uleb128 0x3
 757 0054 46000000 		.4byte	.LASF5
 758 0058 06       		.byte	0x6
 759 0059 2B       		.byte	0x2b
 760 005a 5E000000 		.4byte	0x5e
 761 005e 04       		.uleb128 0x4
 762 005f 01       		.byte	0x1
 763 0060 08       		.byte	0x8
 764 0061 5D060000 		.4byte	.LASF6
 765 0065 04       		.uleb128 0x4
 766 0066 02       		.byte	0x2
 767 0067 05       		.byte	0x5
 768 0068 81060000 		.4byte	.LASF7
 769 006c 03       		.uleb128 0x3
 770 006d DC070000 		.4byte	.LASF8
 771 0071 06       		.byte	0x6
 772 0072 39       		.byte	0x39
 773 0073 77000000 		.4byte	0x77
 774 0077 04       		.uleb128 0x4
 775 0078 02       		.byte	0x2
 776 0079 07       		.byte	0x7
 777 007a 56040000 		.4byte	.LASF9
 778 007e 03       		.uleb128 0x3
 779 007f DC040000 		.4byte	.LASF10
 780 0083 06       		.byte	0x6
 781 0084 4D       		.byte	0x4d
 782 0085 89000000 		.4byte	0x89
 783 0089 04       		.uleb128 0x4
 784 008a 04       		.byte	0x4
 785 008b 05       		.byte	0x5
 786 008c AC010000 		.4byte	.LASF11
 787 0090 03       		.uleb128 0x3
ARM GAS  C:\Users\PCHAUT~1\AppData\Local\Temp\ccbWMeVG.s 			page 15


 788 0091 1A080000 		.4byte	.LASF12
 789 0095 06       		.byte	0x6
 790 0096 4F       		.byte	0x4f
 791 0097 9B000000 		.4byte	0x9b
 792 009b 04       		.uleb128 0x4
 793 009c 04       		.byte	0x4
 794 009d 07       		.byte	0x7
 795 009e B4070000 		.4byte	.LASF13
 796 00a2 03       		.uleb128 0x3
 797 00a3 F5050000 		.4byte	.LASF14
 798 00a7 06       		.byte	0x6
 799 00a8 69       		.byte	0x69
 800 00a9 AD000000 		.4byte	0xad
 801 00ad 04       		.uleb128 0x4
 802 00ae 08       		.byte	0x8
 803 00af 07       		.byte	0x7
 804 00b0 9F000000 		.4byte	.LASF15
 805 00b4 03       		.uleb128 0x3
 806 00b5 BA080000 		.4byte	.LASF16
 807 00b9 07       		.byte	0x7
 808 00ba 18       		.byte	0x18
 809 00bb 53000000 		.4byte	0x53
 810 00bf 03       		.uleb128 0x3
 811 00c0 ED030000 		.4byte	.LASF17
 812 00c4 07       		.byte	0x7
 813 00c5 24       		.byte	0x24
 814 00c6 6C000000 		.4byte	0x6c
 815 00ca 03       		.uleb128 0x3
 816 00cb 55060000 		.4byte	.LASF18
 817 00cf 07       		.byte	0x7
 818 00d0 2C       		.byte	0x2c
 819 00d1 7E000000 		.4byte	0x7e
 820 00d5 05       		.uleb128 0x5
 821 00d6 CA000000 		.4byte	0xca
 822 00da 03       		.uleb128 0x3
 823 00db 7A070000 		.4byte	.LASF19
 824 00df 07       		.byte	0x7
 825 00e0 30       		.byte	0x30
 826 00e1 90000000 		.4byte	0x90
 827 00e5 03       		.uleb128 0x3
 828 00e6 30000000 		.4byte	.LASF20
 829 00ea 07       		.byte	0x7
 830 00eb 3C       		.byte	0x3c
 831 00ec A2000000 		.4byte	0xa2
 832 00f0 03       		.uleb128 0x3
 833 00f1 1B050000 		.4byte	.LASF21
 834 00f5 08       		.byte	0x8
 835 00f6 45       		.byte	0x45
 836 00f7 DA000000 		.4byte	0xda
 837 00fb 03       		.uleb128 0x3
 838 00fc 15010000 		.4byte	.LASF22
 839 0100 08       		.byte	0x8
 840 0101 46       		.byte	0x46
 841 0102 E5000000 		.4byte	0xe5
 842 0106 03       		.uleb128 0x3
 843 0107 B2060000 		.4byte	.LASF23
 844 010b 08       		.byte	0x8
ARM GAS  C:\Users\PCHAUT~1\AppData\Local\Temp\ccbWMeVG.s 			page 16


 845 010c 48       		.byte	0x48
 846 010d B4000000 		.4byte	0xb4
 847 0111 03       		.uleb128 0x3
 848 0112 0D030000 		.4byte	.LASF24
 849 0116 08       		.byte	0x8
 850 0117 49       		.byte	0x49
 851 0118 B4000000 		.4byte	0xb4
 852 011c 03       		.uleb128 0x3
 853 011d 0B060000 		.4byte	.LASF25
 854 0121 08       		.byte	0x8
 855 0122 4A       		.byte	0x4a
 856 0123 B4000000 		.4byte	0xb4
 857 0127 03       		.uleb128 0x3
 858 0128 92010000 		.4byte	.LASF26
 859 012c 08       		.byte	0x8
 860 012d 4B       		.byte	0x4b
 861 012e B4000000 		.4byte	0xb4
 862 0132 03       		.uleb128 0x3
 863 0133 44060000 		.4byte	.LASF27
 864 0137 08       		.byte	0x8
 865 0138 4C       		.byte	0x4c
 866 0139 DA000000 		.4byte	0xda
 867 013d 03       		.uleb128 0x3
 868 013e 8D040000 		.4byte	.LASF28
 869 0142 08       		.byte	0x8
 870 0143 4D       		.byte	0x4d
 871 0144 CA000000 		.4byte	0xca
 872 0148 03       		.uleb128 0x3
 873 0149 D0040000 		.4byte	.LASF29
 874 014d 08       		.byte	0x8
 875 014e 4F       		.byte	0x4f
 876 014f DA000000 		.4byte	0xda
 877 0153 03       		.uleb128 0x3
 878 0154 C7030000 		.4byte	.LASF30
 879 0158 08       		.byte	0x8
 880 0159 51       		.byte	0x51
 881 015a CA000000 		.4byte	0xca
 882 015e 03       		.uleb128 0x3
 883 015f 98040000 		.4byte	.LASF31
 884 0163 08       		.byte	0x8
 885 0164 52       		.byte	0x52
 886 0165 DA000000 		.4byte	0xda
 887 0169 03       		.uleb128 0x3
 888 016a FC070000 		.4byte	.LASF32
 889 016e 09       		.byte	0x9
 890 016f 33       		.byte	0x33
 891 0170 DA000000 		.4byte	0xda
 892 0174 05       		.uleb128 0x5
 893 0175 69010000 		.4byte	0x169
 894 0179 03       		.uleb128 0x3
 895 017a E7070000 		.4byte	.LASF33
 896 017e 09       		.byte	0x9
 897 017f 3F       		.byte	0x3f
 898 0180 84010000 		.4byte	0x184
 899 0184 06       		.uleb128 0x6
 900 0185 78040000 		.4byte	.LASF57
 901 0189 68       		.byte	0x68
ARM GAS  C:\Users\PCHAUT~1\AppData\Local\Temp\ccbWMeVG.s 			page 17


 902 018a 0A       		.byte	0xa
 903 018b C2       		.byte	0xc2
 904 018c A2020000 		.4byte	0x2a2
 905 0190 07       		.uleb128 0x7
 906 0191 AB060000 		.4byte	.LASF34
 907 0195 0A       		.byte	0xa
 908 0196 C3       		.byte	0xc3
 909 0197 AD020000 		.4byte	0x2ad
 910 019b 00       		.byte	0
 911 019c 07       		.uleb128 0x7
 912 019d 3D060000 		.4byte	.LASF35
 913 01a1 0A       		.byte	0xa
 914 01a2 C5       		.byte	0xc5
 915 01a3 AD020000 		.4byte	0x2ad
 916 01a7 04       		.byte	0x4
 917 01a8 07       		.uleb128 0x7
 918 01a9 1E010000 		.4byte	.LASF36
 919 01ad 0A       		.byte	0xa
 920 01ae C7       		.byte	0xc7
 921 01af 32010000 		.4byte	0x132
 922 01b3 08       		.byte	0x8
 923 01b4 07       		.uleb128 0x7
 924 01b5 C2050000 		.4byte	.LASF37
 925 01b9 0A       		.byte	0xa
 926 01ba C8       		.byte	0xc8
 927 01bb 26050000 		.4byte	0x526
 928 01bf 0C       		.byte	0xc
 929 01c0 07       		.uleb128 0x7
 930 01c1 34030000 		.4byte	.LASF38
 931 01c5 0A       		.byte	0xa
 932 01c6 CA       		.byte	0xca
 933 01c7 AD020000 		.4byte	0x2ad
 934 01cb 10       		.byte	0x10
 935 01cc 07       		.uleb128 0x7
 936 01cd B4050000 		.4byte	.LASF39
 937 01d1 0A       		.byte	0xa
 938 01d2 CB       		.byte	0xcb
 939 01d3 AD020000 		.4byte	0x2ad
 940 01d7 14       		.byte	0x14
 941 01d8 07       		.uleb128 0x7
 942 01d9 EF080000 		.4byte	.LASF40
 943 01dd 0A       		.byte	0xa
 944 01de D2       		.byte	0xd2
 945 01df 9C080000 		.4byte	0x89c
 946 01e3 18       		.byte	0x18
 947 01e4 07       		.uleb128 0x7
 948 01e5 CD030000 		.4byte	.LASF41
 949 01e9 0A       		.byte	0xa
 950 01ea D8       		.byte	0xd8
 951 01eb B3080000 		.4byte	0x8b3
 952 01ef 1C       		.byte	0x1c
 953 01f0 07       		.uleb128 0x7
 954 01f1 8B060000 		.4byte	.LASF42
 955 01f5 0A       		.byte	0xa
 956 01f6 DD       		.byte	0xdd
 957 01f7 11010000 		.4byte	0x111
 958 01fb 20       		.byte	0x20
ARM GAS  C:\Users\PCHAUT~1\AppData\Local\Temp\ccbWMeVG.s 			page 18


 959 01fc 07       		.uleb128 0x7
 960 01fd C9060000 		.4byte	.LASF43
 961 0201 0A       		.byte	0xa
 962 0202 E1       		.byte	0xe1
 963 0203 06010000 		.4byte	0x106
 964 0207 21       		.byte	0x21
 965 0208 07       		.uleb128 0x7
 966 0209 9C080000 		.4byte	.LASF44
 967 020d 0A       		.byte	0xa
 968 020e E6       		.byte	0xe6
 969 020f 1C010000 		.4byte	0x11c
 970 0213 22       		.byte	0x22
 971 0214 07       		.uleb128 0x7
 972 0215 93060000 		.4byte	.LASF45
 973 0219 0A       		.byte	0xa
 974 021a EC       		.byte	0xec
 975 021b 27010000 		.4byte	0x127
 976 021f 23       		.byte	0x23
 977 0220 07       		.uleb128 0x7
 978 0221 06040000 		.4byte	.LASF46
 979 0225 0A       		.byte	0xa
 980 0226 F3       		.byte	0xf3
 981 0227 74010000 		.4byte	0x174
 982 022b 24       		.byte	0x24
 983 022c 08       		.uleb128 0x8
 984 022d 705F7500 		.ascii	"p_u\000"
 985 0231 0A       		.byte	0xa
 986 0232 3101     		.2byte	0x131
 987 0234 CB070000 		.4byte	0x7cb
 988 0238 28       		.byte	0x28
 989 0239 09       		.uleb128 0x9
 990 023a 11050000 		.4byte	.LASF47
 991 023e 0A       		.byte	0xa
 992 023f 3601     		.2byte	0x136
 993 0241 B3020000 		.4byte	0x2b3
 994 0245 2C       		.byte	0x2c
 995 0246 09       		.uleb128 0x9
 996 0247 2A040000 		.4byte	.LASF48
 997 024b 0A       		.byte	0xa
 998 024c 3C01     		.2byte	0x13c
 999 024e D7020000 		.4byte	0x2d7
 1000 0252 30       		.byte	0x30
 1001 0253 09       		.uleb128 0x9
 1002 0254 6B080000 		.4byte	.LASF49
 1003 0258 0A       		.byte	0xa
 1004 0259 4001     		.2byte	0x140
 1005 025b 3D010000 		.4byte	0x13d
 1006 025f 38       		.byte	0x38
 1007 0260 09       		.uleb128 0x9
 1008 0261 6F070000 		.4byte	.LASF50
 1009 0265 0A       		.byte	0xa
 1010 0266 4601     		.2byte	0x146
 1011 0268 48010000 		.4byte	0x148
 1012 026c 3C       		.byte	0x3c
 1013 026d 09       		.uleb128 0x9
 1014 026e 77060000 		.4byte	.LASF51
 1015 0272 0A       		.byte	0xa
ARM GAS  C:\Users\PCHAUT~1\AppData\Local\Temp\ccbWMeVG.s 			page 19


 1016 0273 4D01     		.2byte	0x14d
 1017 0275 96080000 		.4byte	0x896
 1018 0279 40       		.byte	0x40
 1019 027a 09       		.uleb128 0x9
 1020 027b 06080000 		.4byte	.LASF52
 1021 027f 0A       		.byte	0xa
 1022 0280 5101     		.2byte	0x151
 1023 0282 32010000 		.4byte	0x132
 1024 0286 44       		.byte	0x44
 1025 0287 09       		.uleb128 0x9
 1026 0288 6F010000 		.4byte	.LASF53
 1027 028c 0A       		.byte	0xa
 1028 028d 5801     		.2byte	0x158
 1029 028f 8A030000 		.4byte	0x38a
 1030 0293 48       		.byte	0x48
 1031 0294 09       		.uleb128 0x9
 1032 0295 DA060000 		.4byte	.LASF54
 1033 0299 0A       		.byte	0xa
 1034 029a 5E01     		.2byte	0x15e
 1035 029c 7C070000 		.4byte	0x77c
 1036 02a0 50       		.byte	0x50
 1037 02a1 00       		.byte	0
 1038 02a2 03       		.uleb128 0x3
 1039 02a3 CD080000 		.4byte	.LASF55
 1040 02a7 09       		.byte	0x9
 1041 02a8 44       		.byte	0x44
 1042 02a9 AD020000 		.4byte	0x2ad
 1043 02ad 0A       		.uleb128 0xa
 1044 02ae 04       		.byte	0x4
 1045 02af 79010000 		.4byte	0x179
 1046 02b3 03       		.uleb128 0x3
 1047 02b4 A5050000 		.4byte	.LASF56
 1048 02b8 09       		.byte	0x9
 1049 02b9 49       		.byte	0x49
 1050 02ba BE020000 		.4byte	0x2be
 1051 02be 06       		.uleb128 0x6
 1052 02bf 97070000 		.4byte	.LASF58
 1053 02c3 04       		.byte	0x4
 1054 02c4 0A       		.byte	0xa
 1055 02c5 B0       		.byte	0xb0
 1056 02c6 D7020000 		.4byte	0x2d7
 1057 02ca 07       		.uleb128 0x7
 1058 02cb AB060000 		.4byte	.LASF34
 1059 02cf 0A       		.byte	0xa
 1060 02d0 B1       		.byte	0xb1
 1061 02d1 AD020000 		.4byte	0x2ad
 1062 02d5 00       		.byte	0
 1063 02d6 00       		.byte	0
 1064 02d7 03       		.uleb128 0x3
 1065 02d8 34070000 		.4byte	.LASF59
 1066 02dc 09       		.byte	0x9
 1067 02dd 50       		.byte	0x50
 1068 02de E2020000 		.4byte	0x2e2
 1069 02e2 06       		.uleb128 0x6
 1070 02e3 5C000000 		.4byte	.LASF60
 1071 02e7 08       		.byte	0x8
 1072 02e8 0A       		.byte	0xa
ARM GAS  C:\Users\PCHAUT~1\AppData\Local\Temp\ccbWMeVG.s 			page 20


 1073 02e9 B7       		.byte	0xb7
 1074 02ea 07030000 		.4byte	0x307
 1075 02ee 07       		.uleb128 0x7
 1076 02ef AB060000 		.4byte	.LASF34
 1077 02f3 0A       		.byte	0xa
 1078 02f4 B8       		.byte	0xb8
 1079 02f5 AD020000 		.4byte	0x2ad
 1080 02f9 00       		.byte	0
 1081 02fa 07       		.uleb128 0x7
 1082 02fb 3D060000 		.4byte	.LASF35
 1083 02ff 0A       		.byte	0xa
 1084 0300 B9       		.byte	0xb9
 1085 0301 AD020000 		.4byte	0x2ad
 1086 0305 04       		.byte	0x4
 1087 0306 00       		.byte	0
 1088 0307 03       		.uleb128 0x3
 1089 0308 08000000 		.4byte	.LASF61
 1090 030c 09       		.byte	0x9
 1091 030d 57       		.byte	0x57
 1092 030e 12030000 		.4byte	0x312
 1093 0312 0B       		.uleb128 0xb
 1094 0313 C2040000 		.4byte	.LASF62
 1095 0317 1C       		.byte	0x1c
 1096 0318 0A       		.byte	0xa
 1097 0319 9001     		.2byte	0x190
 1098 031b 6E030000 		.4byte	0x36e
 1099 031f 09       		.uleb128 0x9
 1100 0320 8F070000 		.4byte	.LASF63
 1101 0324 0A       		.byte	0xa
 1102 0325 9101     		.2byte	0x191
 1103 0327 D7020000 		.4byte	0x2d7
 1104 032b 00       		.byte	0
 1105 032c 09       		.uleb128 0x9
 1106 032d 9D060000 		.4byte	.LASF64
 1107 0331 0A       		.byte	0xa
 1108 0332 9201     		.2byte	0x192
 1109 0334 32010000 		.4byte	0x132
 1110 0338 08       		.byte	0x8
 1111 0339 09       		.uleb128 0x9
 1112 033a BC050000 		.4byte	.LASF65
 1113 033e 0A       		.byte	0xa
 1114 033f 9401     		.2byte	0x194
 1115 0341 26050000 		.4byte	0x526
 1116 0345 0C       		.byte	0xc
 1117 0346 09       		.uleb128 0x9
 1118 0347 66030000 		.4byte	.LASF66
 1119 034b 0A       		.byte	0xa
 1120 034c 9701     		.2byte	0x197
 1121 034e AD020000 		.4byte	0x2ad
 1122 0352 10       		.byte	0x10
 1123 0353 09       		.uleb128 0x9
 1124 0354 ED050000 		.4byte	.LASF67
 1125 0358 0A       		.byte	0xa
 1126 0359 9801     		.2byte	0x198
 1127 035b AD020000 		.4byte	0x2ad
 1128 035f 14       		.byte	0x14
 1129 0360 09       		.uleb128 0x9
ARM GAS  C:\Users\PCHAUT~1\AppData\Local\Temp\ccbWMeVG.s 			page 21


 1130 0361 C6070000 		.4byte	.LASF68
 1131 0365 0A       		.byte	0xa
 1132 0366 9B01     		.2byte	0x19b
 1133 0368 AD020000 		.4byte	0x2ad
 1134 036c 18       		.byte	0x18
 1135 036d 00       		.byte	0
 1136 036e 03       		.uleb128 0x3
 1137 036f 11080000 		.4byte	.LASF69
 1138 0373 09       		.byte	0x9
 1139 0374 5C       		.byte	0x5c
 1140 0375 79030000 		.4byte	0x379
 1141 0379 0A       		.uleb128 0xa
 1142 037a 04       		.byte	0x4
 1143 037b 7F030000 		.4byte	0x37f
 1144 037f 0C       		.uleb128 0xc
 1145 0380 8A030000 		.4byte	0x38a
 1146 0384 0D       		.uleb128 0xd
 1147 0385 8A030000 		.4byte	0x38a
 1148 0389 00       		.byte	0
 1149 038a 0E       		.uleb128 0xe
 1150 038b 04       		.byte	0x4
 1151 038c 03       		.uleb128 0x3
 1152 038d 2D060000 		.4byte	.LASF70
 1153 0391 09       		.byte	0x9
 1154 0392 61       		.byte	0x61
 1155 0393 97030000 		.4byte	0x397
 1156 0397 0B       		.uleb128 0xb
 1157 0398 44070000 		.4byte	.LASF71
 1158 039c 14       		.byte	0x14
 1159 039d 0A       		.byte	0xa
 1160 039e 6B01     		.2byte	0x16b
 1161 03a0 E6030000 		.4byte	0x3e6
 1162 03a4 09       		.uleb128 0x9
 1163 03a5 E5030000 		.4byte	.LASF72
 1164 03a9 0A       		.byte	0xa
 1165 03aa 6C01     		.2byte	0x16c
 1166 03ac B9080000 		.4byte	0x8b9
 1167 03b0 00       		.byte	0
 1168 03b1 09       		.uleb128 0x9
 1169 03b2 83030000 		.4byte	.LASF73
 1170 03b6 0A       		.byte	0xa
 1171 03b7 6D01     		.2byte	0x16d
 1172 03b9 B9080000 		.4byte	0x8b9
 1173 03bd 04       		.byte	0x4
 1174 03be 09       		.uleb128 0x9
 1175 03bf 21040000 		.4byte	.LASF74
 1176 03c3 0A       		.byte	0xa
 1177 03c4 6E01     		.2byte	0x16e
 1178 03c6 69010000 		.4byte	0x169
 1179 03ca 08       		.byte	0x8
 1180 03cb 09       		.uleb128 0x9
 1181 03cc 55090000 		.4byte	.LASF75
 1182 03d0 0A       		.byte	0xa
 1183 03d1 6F01     		.2byte	0x16f
 1184 03d3 6E030000 		.4byte	0x36e
 1185 03d7 0C       		.byte	0xc
 1186 03d8 09       		.uleb128 0x9
ARM GAS  C:\Users\PCHAUT~1\AppData\Local\Temp\ccbWMeVG.s 			page 22


 1187 03d9 7E080000 		.4byte	.LASF76
 1188 03dd 0A       		.byte	0xa
 1189 03de 7101     		.2byte	0x171
 1190 03e0 8A030000 		.4byte	0x38a
 1191 03e4 10       		.byte	0x10
 1192 03e5 00       		.byte	0
 1193 03e6 03       		.uleb128 0x3
 1194 03e7 E6000000 		.4byte	.LASF77
 1195 03eb 09       		.byte	0x9
 1196 03ec 66       		.byte	0x66
 1197 03ed F1030000 		.4byte	0x3f1
 1198 03f1 0B       		.uleb128 0xb
 1199 03f2 23050000 		.4byte	.LASF78
 1200 03f6 10       		.byte	0x10
 1201 03f7 0A       		.byte	0xa
 1202 03f8 7B01     		.2byte	0x17b
 1203 03fa 33040000 		.4byte	0x433
 1204 03fe 09       		.uleb128 0x9
 1205 03ff E5030000 		.4byte	.LASF72
 1206 0403 0A       		.byte	0xa
 1207 0404 7C01     		.2byte	0x17c
 1208 0406 B9080000 		.4byte	0x8b9
 1209 040a 00       		.byte	0
 1210 040b 09       		.uleb128 0x9
 1211 040c 83030000 		.4byte	.LASF73
 1212 0410 0A       		.byte	0xa
 1213 0411 7E01     		.2byte	0x17e
 1214 0413 B9080000 		.4byte	0x8b9
 1215 0417 04       		.byte	0x4
 1216 0418 09       		.uleb128 0x9
 1217 0419 21040000 		.4byte	.LASF74
 1218 041d 0A       		.byte	0xa
 1219 041e 8001     		.2byte	0x180
 1220 0420 69010000 		.4byte	0x169
 1221 0424 08       		.byte	0x8
 1222 0425 09       		.uleb128 0x9
 1223 0426 FB080000 		.4byte	.LASF79
 1224 042a 0A       		.byte	0xa
 1225 042b 8201     		.2byte	0x182
 1226 042d 74010000 		.4byte	0x174
 1227 0431 0C       		.byte	0xc
 1228 0432 00       		.byte	0
 1229 0433 03       		.uleb128 0x3
 1230 0434 6D000000 		.4byte	.LASF80
 1231 0438 09       		.byte	0x9
 1232 0439 6B       		.byte	0x6b
 1233 043a 3E040000 		.4byte	0x43e
 1234 043e 0F       		.uleb128 0xf
 1235 043f 8B030000 		.4byte	.LASF81
 1236 0443 1404     		.2byte	0x414
 1237 0445 0A       		.byte	0xa
 1238 0446 A201     		.2byte	0x1a2
 1239 0448 81040000 		.4byte	0x481
 1240 044c 09       		.uleb128 0x9
 1241 044d 33080000 		.4byte	.LASF82
 1242 0451 0A       		.byte	0xa
 1243 0452 AA01     		.2byte	0x1aa
ARM GAS  C:\Users\PCHAUT~1\AppData\Local\Temp\ccbWMeVG.s 			page 23


 1244 0454 A2080000 		.4byte	0x8a2
 1245 0458 00       		.byte	0
 1246 0459 09       		.uleb128 0x9
 1247 045a A3080000 		.4byte	.LASF83
 1248 045e 0A       		.byte	0xa
 1249 045f AF01     		.2byte	0x1af
 1250 0461 53010000 		.4byte	0x153
 1251 0465 04       		.byte	0x4
 1252 0466 09       		.uleb128 0x9
 1253 0467 AF030000 		.4byte	.LASF84
 1254 046b 0A       		.byte	0xa
 1255 046c B301     		.2byte	0x1b3
 1256 046e 53010000 		.4byte	0x153
 1257 0472 08       		.byte	0x8
 1258 0473 09       		.uleb128 0x9
 1259 0474 06090000 		.4byte	.LASF85
 1260 0478 0A       		.byte	0xa
 1261 0479 B901     		.2byte	0x1b9
 1262 047b 0E070000 		.4byte	0x70e
 1263 047f 0C       		.byte	0xc
 1264 0480 00       		.byte	0
 1265 0481 03       		.uleb128 0x3
 1266 0482 9F040000 		.4byte	.LASF86
 1267 0486 09       		.byte	0x9
 1268 0487 70       		.byte	0x70
 1269 0488 8C040000 		.4byte	0x48c
 1270 048c 0F       		.uleb128 0xf
 1271 048d A2010000 		.4byte	.LASF87
 1272 0491 7006     		.2byte	0x670
 1273 0493 0A       		.byte	0xa
 1274 0494 C201     		.2byte	0x1c2
 1275 0496 F9040000 		.4byte	0x4f9
 1276 049a 09       		.uleb128 0x9
 1277 049b B4080000 		.4byte	.LASF88
 1278 049f 0A       		.byte	0xa
 1279 04a0 C601     		.2byte	0x1c6
 1280 04a2 07030000 		.4byte	0x307
 1281 04a6 00       		.byte	0
 1282 04a7 09       		.uleb128 0x9
 1283 04a8 7F010000 		.4byte	.LASF89
 1284 04ac 0A       		.byte	0xa
 1285 04ad CA01     		.2byte	0x1ca
 1286 04af E6030000 		.4byte	0x3e6
 1287 04b3 1C       		.byte	0x1c
 1288 04b4 08       		.uleb128 0x8
 1289 04b5 64626700 		.ascii	"dbg\000"
 1290 04b9 0A       		.byte	0xa
 1291 04ba CE01     		.2byte	0x1ce
 1292 04bc 33040000 		.4byte	0x433
 1293 04c0 2C       		.byte	0x2c
 1294 04c1 10       		.uleb128 0x10
 1295 04c2 82040000 		.4byte	.LASF90
 1296 04c6 0A       		.byte	0xa
 1297 04c7 D201     		.2byte	0x1d2
 1298 04c9 79010000 		.4byte	0x179
 1299 04cd 4004     		.2byte	0x440
 1300 04cf 11       		.uleb128 0x11
ARM GAS  C:\Users\PCHAUT~1\AppData\Local\Temp\ccbWMeVG.s 			page 24


 1301 04d0 746D00   		.ascii	"tm\000"
 1302 04d3 0A       		.byte	0xa
 1303 04d4 D701     		.2byte	0x1d7
 1304 04d6 2E070000 		.4byte	0x72e
 1305 04da A804     		.2byte	0x4a8
 1306 04dc 10       		.uleb128 0x10
 1307 04dd 39000000 		.4byte	.LASF91
 1308 04e1 0A       		.byte	0xa
 1309 04e2 DD01     		.2byte	0x1dd
 1310 04e4 C0070000 		.4byte	0x7c0
 1311 04e8 B004     		.2byte	0x4b0
 1312 04ea 10       		.uleb128 0x10
 1313 04eb B8030000 		.4byte	.LASF92
 1314 04ef 0A       		.byte	0xa
 1315 04f0 E301     		.2byte	0x1e3
 1316 04f2 BF080000 		.4byte	0x8bf
 1317 04f6 E804     		.2byte	0x4e8
 1318 04f8 00       		.byte	0
 1319 04f9 12       		.uleb128 0x12
 1320 04fa FC000000 		.4byte	.LASF93
 1321 04fe 0B       		.byte	0xb
 1322 04ff A706     		.2byte	0x6a7
 1323 0501 D5000000 		.4byte	0xd5
 1324 0505 13       		.uleb128 0x13
 1325 0506 F6030000 		.4byte	.LASF94
 1326 050a 0C       		.byte	0xc
 1327 050b 4C       		.byte	0x4c
 1328 050c DA000000 		.4byte	0xda
 1329 0510 03       		.uleb128 0x3
 1330 0511 7A030000 		.4byte	.LASF95
 1331 0515 0D       		.byte	0xd
 1332 0516 65       		.byte	0x65
 1333 0517 8A030000 		.4byte	0x38a
 1334 051b 03       		.uleb128 0x3
 1335 051c F2040000 		.4byte	.LASF96
 1336 0520 0D       		.byte	0xd
 1337 0521 6D       		.byte	0x6d
 1338 0522 E5000000 		.4byte	0xe5
 1339 0526 06       		.uleb128 0x6
 1340 0527 63080000 		.4byte	.LASF97
 1341 052b 04       		.byte	0x4
 1342 052c 0D       		.byte	0xd
 1343 052d 89       		.byte	0x89
 1344 052e 3F050000 		.4byte	0x53f
 1345 0532 14       		.uleb128 0x14
 1346 0533 72313300 		.ascii	"r13\000"
 1347 0537 0D       		.byte	0xd
 1348 0538 8A       		.byte	0x8a
 1349 0539 80060000 		.4byte	0x680
 1350 053d 00       		.byte	0
 1351 053e 00       		.byte	0
 1352 053f 06       		.uleb128 0x6
 1353 0540 50000000 		.4byte	.LASF98
 1354 0544 64       		.byte	0x64
 1355 0545 01       		.byte	0x1
 1356 0546 F4       		.byte	0xf4
 1357 0547 80060000 		.4byte	0x680
ARM GAS  C:\Users\PCHAUT~1\AppData\Local\Temp\ccbWMeVG.s 			page 25


 1358 054b 14       		.uleb128 0x14
 1359 054c 73313600 		.ascii	"s16\000"
 1360 0550 01       		.byte	0x1
 1361 0551 F6       		.byte	0xf6
 1362 0552 10050000 		.4byte	0x510
 1363 0556 00       		.byte	0
 1364 0557 14       		.uleb128 0x14
 1365 0558 73313700 		.ascii	"s17\000"
 1366 055c 01       		.byte	0x1
 1367 055d F7       		.byte	0xf7
 1368 055e 10050000 		.4byte	0x510
 1369 0562 04       		.byte	0x4
 1370 0563 14       		.uleb128 0x14
 1371 0564 73313800 		.ascii	"s18\000"
 1372 0568 01       		.byte	0x1
 1373 0569 F8       		.byte	0xf8
 1374 056a 10050000 		.4byte	0x510
 1375 056e 08       		.byte	0x8
 1376 056f 14       		.uleb128 0x14
 1377 0570 73313900 		.ascii	"s19\000"
 1378 0574 01       		.byte	0x1
 1379 0575 F9       		.byte	0xf9
 1380 0576 10050000 		.4byte	0x510
 1381 057a 0C       		.byte	0xc
 1382 057b 14       		.uleb128 0x14
 1383 057c 73323000 		.ascii	"s20\000"
 1384 0580 01       		.byte	0x1
 1385 0581 FA       		.byte	0xfa
 1386 0582 10050000 		.4byte	0x510
 1387 0586 10       		.byte	0x10
 1388 0587 14       		.uleb128 0x14
 1389 0588 73323100 		.ascii	"s21\000"
 1390 058c 01       		.byte	0x1
 1391 058d FB       		.byte	0xfb
 1392 058e 10050000 		.4byte	0x510
 1393 0592 14       		.byte	0x14
 1394 0593 14       		.uleb128 0x14
 1395 0594 73323200 		.ascii	"s22\000"
 1396 0598 01       		.byte	0x1
 1397 0599 FC       		.byte	0xfc
 1398 059a 10050000 		.4byte	0x510
 1399 059e 18       		.byte	0x18
 1400 059f 14       		.uleb128 0x14
 1401 05a0 73323300 		.ascii	"s23\000"
 1402 05a4 01       		.byte	0x1
 1403 05a5 FD       		.byte	0xfd
 1404 05a6 10050000 		.4byte	0x510
 1405 05aa 1C       		.byte	0x1c
 1406 05ab 14       		.uleb128 0x14
 1407 05ac 73323400 		.ascii	"s24\000"
 1408 05b0 01       		.byte	0x1
 1409 05b1 FE       		.byte	0xfe
 1410 05b2 10050000 		.4byte	0x510
 1411 05b6 20       		.byte	0x20
 1412 05b7 14       		.uleb128 0x14
 1413 05b8 73323500 		.ascii	"s25\000"
 1414 05bc 01       		.byte	0x1
ARM GAS  C:\Users\PCHAUT~1\AppData\Local\Temp\ccbWMeVG.s 			page 26


 1415 05bd FF       		.byte	0xff
 1416 05be 10050000 		.4byte	0x510
 1417 05c2 24       		.byte	0x24
 1418 05c3 08       		.uleb128 0x8
 1419 05c4 73323600 		.ascii	"s26\000"
 1420 05c8 01       		.byte	0x1
 1421 05c9 0001     		.2byte	0x100
 1422 05cb 10050000 		.4byte	0x510
 1423 05cf 28       		.byte	0x28
 1424 05d0 08       		.uleb128 0x8
 1425 05d1 73323700 		.ascii	"s27\000"
 1426 05d5 01       		.byte	0x1
 1427 05d6 0101     		.2byte	0x101
 1428 05d8 10050000 		.4byte	0x510
 1429 05dc 2C       		.byte	0x2c
 1430 05dd 08       		.uleb128 0x8
 1431 05de 73323800 		.ascii	"s28\000"
 1432 05e2 01       		.byte	0x1
 1433 05e3 0201     		.2byte	0x102
 1434 05e5 10050000 		.4byte	0x510
 1435 05e9 30       		.byte	0x30
 1436 05ea 08       		.uleb128 0x8
 1437 05eb 73323900 		.ascii	"s29\000"
 1438 05ef 01       		.byte	0x1
 1439 05f0 0301     		.2byte	0x103
 1440 05f2 10050000 		.4byte	0x510
 1441 05f6 34       		.byte	0x34
 1442 05f7 08       		.uleb128 0x8
 1443 05f8 73333000 		.ascii	"s30\000"
 1444 05fc 01       		.byte	0x1
 1445 05fd 0401     		.2byte	0x104
 1446 05ff 10050000 		.4byte	0x510
 1447 0603 38       		.byte	0x38
 1448 0604 08       		.uleb128 0x8
 1449 0605 73333100 		.ascii	"s31\000"
 1450 0609 01       		.byte	0x1
 1451 060a 0501     		.2byte	0x105
 1452 060c 10050000 		.4byte	0x510
 1453 0610 3C       		.byte	0x3c
 1454 0611 08       		.uleb128 0x8
 1455 0612 723400   		.ascii	"r4\000"
 1456 0615 01       		.byte	0x1
 1457 0616 0701     		.2byte	0x107
 1458 0618 10050000 		.4byte	0x510
 1459 061c 40       		.byte	0x40
 1460 061d 08       		.uleb128 0x8
 1461 061e 723500   		.ascii	"r5\000"
 1462 0621 01       		.byte	0x1
 1463 0622 0801     		.2byte	0x108
 1464 0624 10050000 		.4byte	0x510
 1465 0628 44       		.byte	0x44
 1466 0629 08       		.uleb128 0x8
 1467 062a 723600   		.ascii	"r6\000"
 1468 062d 01       		.byte	0x1
 1469 062e 0901     		.2byte	0x109
 1470 0630 10050000 		.4byte	0x510
 1471 0634 48       		.byte	0x48
ARM GAS  C:\Users\PCHAUT~1\AppData\Local\Temp\ccbWMeVG.s 			page 27


 1472 0635 08       		.uleb128 0x8
 1473 0636 723700   		.ascii	"r7\000"
 1474 0639 01       		.byte	0x1
 1475 063a 0A01     		.2byte	0x10a
 1476 063c 10050000 		.4byte	0x510
 1477 0640 4C       		.byte	0x4c
 1478 0641 08       		.uleb128 0x8
 1479 0642 723800   		.ascii	"r8\000"
 1480 0645 01       		.byte	0x1
 1481 0646 0B01     		.2byte	0x10b
 1482 0648 10050000 		.4byte	0x510
 1483 064c 50       		.byte	0x50
 1484 064d 08       		.uleb128 0x8
 1485 064e 723900   		.ascii	"r9\000"
 1486 0651 01       		.byte	0x1
 1487 0652 0C01     		.2byte	0x10c
 1488 0654 10050000 		.4byte	0x510
 1489 0658 54       		.byte	0x54
 1490 0659 08       		.uleb128 0x8
 1491 065a 72313000 		.ascii	"r10\000"
 1492 065e 01       		.byte	0x1
 1493 065f 0D01     		.2byte	0x10d
 1494 0661 10050000 		.4byte	0x510
 1495 0665 58       		.byte	0x58
 1496 0666 08       		.uleb128 0x8
 1497 0667 72313100 		.ascii	"r11\000"
 1498 066b 01       		.byte	0x1
 1499 066c 0E01     		.2byte	0x10e
 1500 066e 10050000 		.4byte	0x510
 1501 0672 5C       		.byte	0x5c
 1502 0673 08       		.uleb128 0x8
 1503 0674 6C7200   		.ascii	"lr\000"
 1504 0677 01       		.byte	0x1
 1505 0678 0F01     		.2byte	0x10f
 1506 067a 10050000 		.4byte	0x510
 1507 067e 60       		.byte	0x60
 1508 067f 00       		.byte	0
 1509 0680 0A       		.uleb128 0xa
 1510 0681 04       		.byte	0x4
 1511 0682 3F050000 		.4byte	0x53f
 1512 0686 15       		.uleb128 0x15
 1513 0687 10       		.byte	0x10
 1514 0688 0E       		.byte	0xe
 1515 0689 51       		.byte	0x51
 1516 068a BF060000 		.4byte	0x6bf
 1517 068e 07       		.uleb128 0x7
 1518 068f 15000000 		.4byte	.LASF99
 1519 0693 0E       		.byte	0xe
 1520 0694 55       		.byte	0x55
 1521 0695 69010000 		.4byte	0x169
 1522 0699 00       		.byte	0
 1523 069a 07       		.uleb128 0x7
 1524 069b 24030000 		.4byte	.LASF100
 1525 069f 0E       		.byte	0xe
 1526 06a0 59       		.byte	0x59
 1527 06a1 AD020000 		.4byte	0x2ad
 1528 06a5 04       		.byte	0x4
ARM GAS  C:\Users\PCHAUT~1\AppData\Local\Temp\ccbWMeVG.s 			page 28


 1529 06a6 07       		.uleb128 0x7
 1530 06a7 3D090000 		.4byte	.LASF101
 1531 06ab 0E       		.byte	0xe
 1532 06ac 5D       		.byte	0x5d
 1533 06ad 8A030000 		.4byte	0x38a
 1534 06b1 08       		.byte	0x8
 1535 06b2 07       		.uleb128 0x7
 1536 06b3 AB080000 		.4byte	.LASF102
 1537 06b7 0E       		.byte	0xe
 1538 06b8 61       		.byte	0x61
 1539 06b9 B4000000 		.4byte	0xb4
 1540 06bd 0C       		.byte	0xc
 1541 06be 00       		.byte	0
 1542 06bf 03       		.uleb128 0x3
 1543 06c0 8A050000 		.4byte	.LASF103
 1544 06c4 0E       		.byte	0xe
 1545 06c5 62       		.byte	0x62
 1546 06c6 86060000 		.4byte	0x686
 1547 06ca 16       		.uleb128 0x16
 1548 06cb 0804     		.2byte	0x408
 1549 06cd 0E       		.byte	0xe
 1550 06ce 67       		.byte	0x67
 1551 06cf F8060000 		.4byte	0x6f8
 1552 06d3 07       		.uleb128 0x7
 1553 06d4 5E030000 		.4byte	.LASF104
 1554 06d8 0E       		.byte	0xe
 1555 06d9 6B       		.byte	0x6b
 1556 06da 37000000 		.4byte	0x37
 1557 06de 00       		.byte	0
 1558 06df 07       		.uleb128 0x7
 1559 06e0 83050000 		.4byte	.LASF105
 1560 06e4 0E       		.byte	0xe
 1561 06e5 6F       		.byte	0x6f
 1562 06e6 F8060000 		.4byte	0x6f8
 1563 06ea 04       		.byte	0x4
 1564 06eb 07       		.uleb128 0x7
 1565 06ec 13060000 		.4byte	.LASF106
 1566 06f0 0E       		.byte	0xe
 1567 06f1 73       		.byte	0x73
 1568 06f2 FE060000 		.4byte	0x6fe
 1569 06f6 08       		.byte	0x8
 1570 06f7 00       		.byte	0
 1571 06f8 0A       		.uleb128 0xa
 1572 06f9 04       		.byte	0x4
 1573 06fa BF060000 		.4byte	0x6bf
 1574 06fe 17       		.uleb128 0x17
 1575 06ff BF060000 		.4byte	0x6bf
 1576 0703 0E070000 		.4byte	0x70e
 1577 0707 18       		.uleb128 0x18
 1578 0708 37000000 		.4byte	0x37
 1579 070c 3F       		.byte	0x3f
 1580 070d 00       		.byte	0
 1581 070e 03       		.uleb128 0x3
 1582 070f B6000000 		.4byte	.LASF107
 1583 0713 0E       		.byte	0xe
 1584 0714 74       		.byte	0x74
 1585 0715 CA060000 		.4byte	0x6ca
ARM GAS  C:\Users\PCHAUT~1\AppData\Local\Temp\ccbWMeVG.s 			page 29


 1586 0719 15       		.uleb128 0x15
 1587 071a 04       		.byte	0x4
 1588 071b 0F       		.byte	0xf
 1589 071c 38       		.byte	0x38
 1590 071d 2E070000 		.4byte	0x72e
 1591 0721 07       		.uleb128 0x7
 1592 0722 4B080000 		.4byte	.LASF108
 1593 0726 0F       		.byte	0xf
 1594 0727 3C       		.byte	0x3c
 1595 0728 F0000000 		.4byte	0xf0
 1596 072c 00       		.byte	0
 1597 072d 00       		.byte	0
 1598 072e 03       		.uleb128 0x3
 1599 072f D7050000 		.4byte	.LASF109
 1600 0733 0F       		.byte	0xf
 1601 0734 3D       		.byte	0x3d
 1602 0735 19070000 		.4byte	0x719
 1603 0739 15       		.uleb128 0x15
 1604 073a 18       		.byte	0x18
 1605 073b 0F       		.byte	0xf
 1606 073c 48       		.byte	0x48
 1607 073d 7C070000 		.4byte	0x77c
 1608 0741 07       		.uleb128 0x7
 1609 0742 F0070000 		.4byte	.LASF110
 1610 0746 0F       		.byte	0xf
 1611 0747 49       		.byte	0x49
 1612 0748 F0000000 		.4byte	0xf0
 1613 074c 00       		.byte	0
 1614 074d 07       		.uleb128 0x7
 1615 074e 86000000 		.4byte	.LASF111
 1616 0752 0F       		.byte	0xf
 1617 0753 4A       		.byte	0x4a
 1618 0754 F0000000 		.4byte	0xf0
 1619 0758 04       		.byte	0x4
 1620 0759 07       		.uleb128 0x7
 1621 075a 93040000 		.4byte	.LASF112
 1622 075e 0F       		.byte	0xf
 1623 075f 4B       		.byte	0x4b
 1624 0760 F0000000 		.4byte	0xf0
 1625 0764 08       		.byte	0x8
 1626 0765 14       		.uleb128 0x14
 1627 0766 6E00     		.ascii	"n\000"
 1628 0768 0F       		.byte	0xf
 1629 0769 4C       		.byte	0x4c
 1630 076a 5E010000 		.4byte	0x15e
 1631 076e 0C       		.byte	0xc
 1632 076f 07       		.uleb128 0x7
 1633 0770 00060000 		.4byte	.LASF113
 1634 0774 0F       		.byte	0xf
 1635 0775 4D       		.byte	0x4d
 1636 0776 FB000000 		.4byte	0xfb
 1637 077a 10       		.byte	0x10
 1638 077b 00       		.byte	0
 1639 077c 03       		.uleb128 0x3
 1640 077d 8C000000 		.4byte	.LASF114
 1641 0781 0F       		.byte	0xf
 1642 0782 4E       		.byte	0x4e
ARM GAS  C:\Users\PCHAUT~1\AppData\Local\Temp\ccbWMeVG.s 			page 30


 1643 0783 39070000 		.4byte	0x739
 1644 0787 15       		.uleb128 0x15
 1645 0788 38       		.byte	0x38
 1646 0789 10       		.byte	0x10
 1647 078a 38       		.byte	0x38
 1648 078b C0070000 		.4byte	0x7c0
 1649 078f 07       		.uleb128 0x7
 1650 0790 4A040000 		.4byte	.LASF115
 1651 0794 10       		.byte	0x10
 1652 0795 39       		.byte	0x39
 1653 0796 5E010000 		.4byte	0x15e
 1654 079a 00       		.byte	0
 1655 079b 07       		.uleb128 0x7
 1656 079c 4C060000 		.4byte	.LASF116
 1657 07a0 10       		.byte	0x10
 1658 07a1 3A       		.byte	0x3a
 1659 07a2 5E010000 		.4byte	0x15e
 1660 07a6 04       		.byte	0x4
 1661 07a7 07       		.uleb128 0x7
 1662 07a8 2A090000 		.4byte	.LASF117
 1663 07ac 10       		.byte	0x10
 1664 07ad 3B       		.byte	0x3b
 1665 07ae 7C070000 		.4byte	0x77c
 1666 07b2 08       		.byte	0x8
 1667 07b3 07       		.uleb128 0x7
 1668 07b4 B7040000 		.4byte	.LASF118
 1669 07b8 10       		.byte	0x10
 1670 07b9 3D       		.byte	0x3d
 1671 07ba 7C070000 		.4byte	0x77c
 1672 07be 20       		.byte	0x20
 1673 07bf 00       		.byte	0
 1674 07c0 03       		.uleb128 0x3
 1675 07c1 69040000 		.4byte	.LASF119
 1676 07c5 10       		.byte	0x10
 1677 07c6 3F       		.byte	0x3f
 1678 07c7 87070000 		.4byte	0x787
 1679 07cb 19       		.uleb128 0x19
 1680 07cc 04       		.byte	0x4
 1681 07cd 0A       		.byte	0xa
 1682 07ce FA       		.byte	0xfa
 1683 07cf 28080000 		.4byte	0x828
 1684 07d3 1A       		.uleb128 0x1a
 1685 07d4 29000000 		.4byte	.LASF120
 1686 07d8 0A       		.byte	0xa
 1687 07d9 0101     		.2byte	0x101
 1688 07db 3D010000 		.4byte	0x13d
 1689 07df 1A       		.uleb128 0x1a
 1690 07e0 D6000000 		.4byte	.LASF121
 1691 07e4 0A       		.byte	0xa
 1692 07e5 0801     		.2byte	0x108
 1693 07e7 3D010000 		.4byte	0x13d
 1694 07eb 1A       		.uleb128 0x1a
 1695 07ec E0080000 		.4byte	.LASF122
 1696 07f0 0A       		.byte	0xa
 1697 07f1 0F01     		.2byte	0x10f
 1698 07f3 8A030000 		.4byte	0x38a
 1699 07f7 1A       		.uleb128 0x1a
ARM GAS  C:\Users\PCHAUT~1\AppData\Local\Temp\ccbWMeVG.s 			page 31


 1700 07f8 9C010000 		.4byte	.LASF123
 1701 07fc 0A       		.byte	0xa
 1702 07fd 1601     		.2byte	0x116
 1703 07ff 28080000 		.4byte	0x828
 1704 0803 1A       		.uleb128 0x1a
 1705 0804 0D040000 		.4byte	.LASF124
 1706 0808 0A       		.byte	0xa
 1707 0809 1E01     		.2byte	0x11e
 1708 080b 53080000 		.4byte	0x853
 1709 080f 1A       		.uleb128 0x1a
 1710 0810 D5070000 		.4byte	.LASF125
 1711 0814 0A       		.byte	0xa
 1712 0815 2701     		.2byte	0x127
 1713 0817 96080000 		.4byte	0x896
 1714 081b 1A       		.uleb128 0x1a
 1715 081c A4060000 		.4byte	.LASF126
 1716 0820 0A       		.byte	0xa
 1717 0821 2F01     		.2byte	0x12f
 1718 0823 48010000 		.4byte	0x148
 1719 0827 00       		.byte	0
 1720 0828 0A       		.uleb128 0xa
 1721 0829 04       		.byte	0x4
 1722 082a A2020000 		.4byte	0x2a2
 1723 082e 06       		.uleb128 0x6
 1724 082f 62070000 		.4byte	.LASF127
 1725 0833 0C       		.byte	0xc
 1726 0834 11       		.byte	0x11
 1727 0835 34       		.byte	0x34
 1728 0836 53080000 		.4byte	0x853
 1729 083a 07       		.uleb128 0x7
 1730 083b 3C030000 		.4byte	.LASF128
 1731 083f 11       		.byte	0x11
 1732 0840 35       		.byte	0x35
 1733 0841 D7020000 		.4byte	0x2d7
 1734 0845 00       		.byte	0
 1735 0846 07       		.uleb128 0x7
 1736 0847 50040000 		.4byte	.LASF129
 1737 084b 11       		.byte	0x11
 1738 084c 37       		.byte	0x37
 1739 084d 53010000 		.4byte	0x153
 1740 0851 08       		.byte	0x8
 1741 0852 00       		.byte	0
 1742 0853 0A       		.uleb128 0xa
 1743 0854 04       		.byte	0x4
 1744 0855 2E080000 		.4byte	0x82e
 1745 0859 06       		.uleb128 0x6
 1746 085a 52080000 		.4byte	.LASF130
 1747 085e 14       		.byte	0x14
 1748 085f 12       		.byte	0x12
 1749 0860 39       		.byte	0x39
 1750 0861 96080000 		.4byte	0x896
 1751 0865 07       		.uleb128 0x7
 1752 0866 77010000 		.4byte	.LASF131
 1753 086a 12       		.byte	0x12
 1754 086b 3A       		.byte	0x3a
 1755 086c D7020000 		.4byte	0x2d7
 1756 0870 00       		.byte	0
ARM GAS  C:\Users\PCHAUT~1\AppData\Local\Temp\ccbWMeVG.s 			page 32


 1757 0871 07       		.uleb128 0x7
 1758 0872 35090000 		.4byte	.LASF132
 1759 0876 12       		.byte	0x12
 1760 0877 3C       		.byte	0x3c
 1761 0878 AD020000 		.4byte	0x2ad
 1762 087c 08       		.byte	0x8
 1763 087d 07       		.uleb128 0x7
 1764 087e F5070000 		.4byte	.LASF133
 1765 0882 12       		.byte	0x12
 1766 0883 3E       		.byte	0x3e
 1767 0884 FC090000 		.4byte	0x9fc
 1768 0888 0C       		.byte	0xc
 1769 0889 07       		.uleb128 0x7
 1770 088a 9B030000 		.4byte	.LASF134
 1771 088e 12       		.byte	0x12
 1772 088f 41       		.byte	0x41
 1773 0890 53010000 		.4byte	0x153
 1774 0894 10       		.byte	0x10
 1775 0895 00       		.byte	0
 1776 0896 0A       		.uleb128 0xa
 1777 0897 04       		.byte	0x4
 1778 0898 59080000 		.4byte	0x859
 1779 089c 0A       		.uleb128 0xa
 1780 089d 04       		.byte	0x4
 1781 089e AE080000 		.4byte	0x8ae
 1782 08a2 05       		.uleb128 0x5
 1783 08a3 9C080000 		.4byte	0x89c
 1784 08a7 04       		.uleb128 0x4
 1785 08a8 01       		.byte	0x1
 1786 08a9 08       		.byte	0x8
 1787 08aa D0070000 		.4byte	.LASF135
 1788 08ae 1B       		.uleb128 0x1b
 1789 08af A7080000 		.4byte	0x8a7
 1790 08b3 0A       		.uleb128 0xa
 1791 08b4 04       		.byte	0x4
 1792 08b5 1B050000 		.4byte	0x51b
 1793 08b9 0A       		.uleb128 0xa
 1794 08ba 04       		.byte	0x4
 1795 08bb 8C030000 		.4byte	0x38c
 1796 08bf 17       		.uleb128 0x17
 1797 08c0 1B050000 		.4byte	0x51b
 1798 08c4 CF080000 		.4byte	0x8cf
 1799 08c8 18       		.uleb128 0x18
 1800 08c9 37000000 		.4byte	0x37
 1801 08cd 30       		.byte	0x30
 1802 08ce 00       		.byte	0
 1803 08cf 1C       		.uleb128 0x1c
 1804 08d0 636800   		.ascii	"ch\000"
 1805 08d3 0A       		.byte	0xa
 1806 08d4 0902     		.2byte	0x209
 1807 08d6 81040000 		.4byte	0x481
 1808 08da 03       		.uleb128 0x3
 1809 08db 00000000 		.4byte	.LASF136
 1810 08df 13       		.byte	0x13
 1811 08e0 34       		.byte	0x34
 1812 08e1 79030000 		.4byte	0x379
 1813 08e5 15       		.uleb128 0x15
ARM GAS  C:\Users\PCHAUT~1\AppData\Local\Temp\ccbWMeVG.s 			page 33


 1814 08e6 16       		.byte	0x16
 1815 08e7 14       		.byte	0x14
 1816 08e8 34       		.byte	0x34
 1817 08e9 C6090000 		.4byte	0x9c6
 1818 08ed 07       		.uleb128 0x7
 1819 08ee 47090000 		.4byte	.LASF137
 1820 08f2 14       		.byte	0x14
 1821 08f3 35       		.byte	0x35
 1822 08f4 C6090000 		.4byte	0x9c6
 1823 08f8 00       		.byte	0
 1824 08f9 07       		.uleb128 0x7
 1825 08fa FD040000 		.4byte	.LASF138
 1826 08fe 14       		.byte	0x14
 1827 08ff 36       		.byte	0x36
 1828 0900 B4000000 		.4byte	0xb4
 1829 0904 04       		.byte	0x4
 1830 0905 07       		.uleb128 0x7
 1831 0906 A7070000 		.4byte	.LASF139
 1832 090a 14       		.byte	0x14
 1833 090b 37       		.byte	0x37
 1834 090c B4000000 		.4byte	0xb4
 1835 0910 05       		.byte	0x5
 1836 0911 07       		.uleb128 0x7
 1837 0912 1F090000 		.4byte	.LASF140
 1838 0916 14       		.byte	0x14
 1839 0917 38       		.byte	0x38
 1840 0918 BF000000 		.4byte	0xbf
 1841 091c 06       		.byte	0x6
 1842 091d 07       		.uleb128 0x7
 1843 091e 1D060000 		.4byte	.LASF141
 1844 0922 14       		.byte	0x14
 1845 0923 39       		.byte	0x39
 1846 0924 B4000000 		.4byte	0xb4
 1847 0928 08       		.byte	0x8
 1848 0929 07       		.uleb128 0x7
 1849 092a 3E040000 		.4byte	.LASF142
 1850 092e 14       		.byte	0x14
 1851 092f 3A       		.byte	0x3a
 1852 0930 B4000000 		.4byte	0xb4
 1853 0934 09       		.byte	0x9
 1854 0935 07       		.uleb128 0x7
 1855 0936 C8000000 		.4byte	.LASF143
 1856 093a 14       		.byte	0x14
 1857 093b 3B       		.byte	0x3b
 1858 093c B4000000 		.4byte	0xb4
 1859 0940 0A       		.byte	0xa
 1860 0941 07       		.uleb128 0x7
 1861 0942 83070000 		.4byte	.LASF144
 1862 0946 14       		.byte	0x14
 1863 0947 3C       		.byte	0x3c
 1864 0948 B4000000 		.4byte	0xb4
 1865 094c 0B       		.byte	0xb
 1866 094d 07       		.uleb128 0x7
 1867 094e 85080000 		.4byte	.LASF145
 1868 0952 14       		.byte	0x14
 1869 0953 3D       		.byte	0x3d
 1870 0954 B4000000 		.4byte	0xb4
ARM GAS  C:\Users\PCHAUT~1\AppData\Local\Temp\ccbWMeVG.s 			page 34


 1871 0958 0C       		.byte	0xc
 1872 0959 07       		.uleb128 0x7
 1873 095a 55070000 		.4byte	.LASF146
 1874 095e 14       		.byte	0x14
 1875 095f 3E       		.byte	0x3e
 1876 0960 B4000000 		.4byte	0xb4
 1877 0964 0D       		.byte	0xd
 1878 0965 07       		.uleb128 0x7
 1879 0966 14040000 		.4byte	.LASF147
 1880 096a 14       		.byte	0x14
 1881 096b 3F       		.byte	0x3f
 1882 096c B4000000 		.4byte	0xb4
 1883 0970 0E       		.byte	0xe
 1884 0971 07       		.uleb128 0x7
 1885 0972 99050000 		.4byte	.LASF148
 1886 0976 14       		.byte	0x14
 1887 0977 40       		.byte	0x40
 1888 0978 B4000000 		.4byte	0xb4
 1889 097c 0F       		.byte	0xf
 1890 097d 07       		.uleb128 0x7
 1891 097e 52010000 		.4byte	.LASF149
 1892 0982 14       		.byte	0x14
 1893 0983 41       		.byte	0x41
 1894 0984 B4000000 		.4byte	0xb4
 1895 0988 10       		.byte	0x10
 1896 0989 07       		.uleb128 0x7
 1897 098a 25010000 		.4byte	.LASF150
 1898 098e 14       		.byte	0x14
 1899 098f 43       		.byte	0x43
 1900 0990 B4000000 		.4byte	0xb4
 1901 0994 11       		.byte	0x11
 1902 0995 07       		.uleb128 0x7
 1903 0996 62010000 		.4byte	.LASF151
 1904 099a 14       		.byte	0x14
 1905 099b 44       		.byte	0x44
 1906 099c B4000000 		.4byte	0xb4
 1907 09a0 12       		.byte	0x12
 1908 09a1 07       		.uleb128 0x7
 1909 09a2 05050000 		.4byte	.LASF152
 1910 09a6 14       		.byte	0x14
 1911 09a7 45       		.byte	0x45
 1912 09a8 B4000000 		.4byte	0xb4
 1913 09ac 13       		.byte	0x13
 1914 09ad 07       		.uleb128 0x7
 1915 09ae BA060000 		.4byte	.LASF153
 1916 09b2 14       		.byte	0x14
 1917 09b3 46       		.byte	0x46
 1918 09b4 B4000000 		.4byte	0xb4
 1919 09b8 14       		.byte	0x14
 1920 09b9 07       		.uleb128 0x7
 1921 09ba AB040000 		.4byte	.LASF154
 1922 09be 14       		.byte	0x14
 1923 09bf 48       		.byte	0x48
 1924 09c0 B4000000 		.4byte	0xb4
 1925 09c4 15       		.byte	0x15
 1926 09c5 00       		.byte	0
 1927 09c6 17       		.uleb128 0x17
ARM GAS  C:\Users\PCHAUT~1\AppData\Local\Temp\ccbWMeVG.s 			page 35


 1928 09c7 A7080000 		.4byte	0x8a7
 1929 09cb D6090000 		.4byte	0x9d6
 1930 09cf 18       		.uleb128 0x18
 1931 09d0 37000000 		.4byte	0x37
 1932 09d4 03       		.byte	0x3
 1933 09d5 00       		.byte	0
 1934 09d6 03       		.uleb128 0x3
 1935 09d7 2A030000 		.4byte	.LASF155
 1936 09db 14       		.byte	0x14
 1937 09dc 49       		.byte	0x49
 1938 09dd E5080000 		.4byte	0x8e5
 1939 09e1 1B       		.uleb128 0x1b
 1940 09e2 D6090000 		.4byte	0x9d6
 1941 09e6 13       		.uleb128 0x13
 1942 09e7 35040000 		.4byte	.LASF156
 1943 09eb 14       		.byte	0x14
 1944 09ec 6E       		.byte	0x6e
 1945 09ed E1090000 		.4byte	0x9e1
 1946 09f1 03       		.uleb128 0x3
 1947 09f2 A1030000 		.4byte	.LASF157
 1948 09f6 12       		.byte	0x12
 1949 09f7 34       		.byte	0x34
 1950 09f8 59080000 		.4byte	0x859
 1951 09fc 0A       		.uleb128 0xa
 1952 09fd 04       		.byte	0x4
 1953 09fe F1090000 		.4byte	0x9f1
 1954 0a02 03       		.uleb128 0x3
 1955 0a03 71080000 		.4byte	.LASF158
 1956 0a07 15       		.byte	0x15
 1957 0a08 36       		.byte	0x36
 1958 0a09 0D0A0000 		.4byte	0xa0d
 1959 0a0d 0A       		.uleb128 0xa
 1960 0a0e 04       		.byte	0x4
 1961 0a0f 130A0000 		.4byte	0xa13
 1962 0a13 1D       		.uleb128 0x1d
 1963 0a14 8A030000 		.4byte	0x38a
 1964 0a18 220A0000 		.4byte	0xa22
 1965 0a1c 0D       		.uleb128 0xd
 1966 0a1d 2C000000 		.4byte	0x2c
 1967 0a21 00       		.byte	0
 1968 0a22 03       		.uleb128 0x3
 1969 0a23 16030000 		.4byte	.LASF159
 1970 0a27 16       		.byte	0x16
 1971 0a28 3C       		.byte	0x3c
 1972 0a29 2D0A0000 		.4byte	0xa2d
 1973 0a2d 06       		.uleb128 0x6
 1974 0a2e 5D090000 		.4byte	.LASF160
 1975 0a32 28       		.byte	0x28
 1976 0a33 16       		.byte	0x16
 1977 0a34 4F       		.byte	0x4f
 1978 0a35 5E0A0000 		.4byte	0xa5e
 1979 0a39 07       		.uleb128 0x7
 1980 0a3a C2080000 		.4byte	.LASF161
 1981 0a3e 16       		.byte	0x16
 1982 0a3f 50       		.byte	0x50
 1983 0a40 020A0000 		.4byte	0xa02
 1984 0a44 00       		.byte	0
ARM GAS  C:\Users\PCHAUT~1\AppData\Local\Temp\ccbWMeVG.s 			page 36


 1985 0a45 07       		.uleb128 0x7
 1986 0a46 DF000000 		.4byte	.LASF162
 1987 0a4a 16       		.byte	0x16
 1988 0a4b 52       		.byte	0x52
 1989 0a4c 7D0A0000 		.4byte	0xa7d
 1990 0a50 08       		.byte	0x8
 1991 0a51 07       		.uleb128 0x7
 1992 0a52 4C010000 		.4byte	.LASF163
 1993 0a56 16       		.byte	0x16
 1994 0a57 54       		.byte	0x54
 1995 0a58 F1090000 		.4byte	0x9f1
 1996 0a5c 10       		.byte	0x10
 1997 0a5d 00       		.byte	0
 1998 0a5e 19       		.uleb128 0x19
 1999 0a5f 04       		.byte	0x4
 2000 0a60 16       		.byte	0x16
 2001 0a61 44       		.byte	0x44
 2002 0a62 7D0A0000 		.4byte	0xa7d
 2003 0a66 1E       		.uleb128 0x1e
 2004 0a67 24000000 		.4byte	.LASF164
 2005 0a6b 16       		.byte	0x16
 2006 0a6c 45       		.byte	0x45
 2007 0a6d 9E0A0000 		.4byte	0xa9e
 2008 0a71 1E       		.uleb128 0x1e
 2009 0a72 AF070000 		.4byte	.LASF165
 2010 0a76 16       		.byte	0x16
 2011 0a77 46       		.byte	0x46
 2012 0a78 A40A0000 		.4byte	0xaa4
 2013 0a7c 00       		.byte	0
 2014 0a7d 1F       		.uleb128 0x1f
 2015 0a7e 6B060000 		.4byte	.LASF187
 2016 0a82 08       		.byte	0x8
 2017 0a83 16       		.byte	0x16
 2018 0a84 41       		.byte	0x41
 2019 0a85 9E0A0000 		.4byte	0xa9e
 2020 0a89 1E       		.uleb128 0x1e
 2021 0a8a 0F010000 		.4byte	.LASF166
 2022 0a8e 16       		.byte	0x16
 2023 0a8f 42       		.byte	0x42
 2024 0a90 1B050000 		.4byte	0x51b
 2025 0a94 20       		.uleb128 0x20
 2026 0a95 6800     		.ascii	"h\000"
 2027 0a97 16       		.byte	0x16
 2028 0a98 49       		.byte	0x49
 2029 0a99 AA0A0000 		.4byte	0xaaa
 2030 0a9d 00       		.byte	0
 2031 0a9e 0A       		.uleb128 0xa
 2032 0a9f 04       		.byte	0x4
 2033 0aa0 7D0A0000 		.4byte	0xa7d
 2034 0aa4 0A       		.uleb128 0xa
 2035 0aa5 04       		.byte	0x4
 2036 0aa6 220A0000 		.4byte	0xa22
 2037 0aaa 15       		.uleb128 0x15
 2038 0aab 08       		.byte	0x8
 2039 0aac 16       		.byte	0x16
 2040 0aad 43       		.byte	0x43
 2041 0aae C90A0000 		.4byte	0xac9
ARM GAS  C:\Users\PCHAUT~1\AppData\Local\Temp\ccbWMeVG.s 			page 37


 2042 0ab2 14       		.uleb128 0x14
 2043 0ab3 7500     		.ascii	"u\000"
 2044 0ab5 16       		.byte	0x16
 2045 0ab6 47       		.byte	0x47
 2046 0ab7 5E0A0000 		.4byte	0xa5e
 2047 0abb 00       		.byte	0
 2048 0abc 07       		.uleb128 0x7
 2049 0abd F6080000 		.4byte	.LASF167
 2050 0ac1 16       		.byte	0x16
 2051 0ac2 48       		.byte	0x48
 2052 0ac3 2C000000 		.4byte	0x2c
 2053 0ac7 04       		.byte	0x4
 2054 0ac8 00       		.byte	0
 2055 0ac9 06       		.uleb128 0x6
 2056 0aca 90080000 		.4byte	.LASF168
 2057 0ace 04       		.byte	0x4
 2058 0acf 17       		.byte	0x17
 2059 0ad0 38       		.byte	0x38
 2060 0ad1 E20A0000 		.4byte	0xae2
 2061 0ad5 07       		.uleb128 0x7
 2062 0ad6 E7080000 		.4byte	.LASF169
 2063 0ada 17       		.byte	0x17
 2064 0adb 39       		.byte	0x39
 2065 0adc E20A0000 		.4byte	0xae2
 2066 0ae0 00       		.byte	0
 2067 0ae1 00       		.byte	0
 2068 0ae2 0A       		.uleb128 0xa
 2069 0ae3 04       		.byte	0x4
 2070 0ae4 C90A0000 		.4byte	0xac9
 2071 0ae8 15       		.uleb128 0x15
 2072 0ae9 0C       		.byte	0xc
 2073 0aea 17       		.byte	0x17
 2074 0aeb 40       		.byte	0x40
 2075 0aec 150B0000 		.4byte	0xb15
 2076 0af0 07       		.uleb128 0x7
 2077 0af1 5B080000 		.4byte	.LASF170
 2078 0af5 17       		.byte	0x17
 2079 0af6 41       		.byte	0x41
 2080 0af7 E20A0000 		.4byte	0xae2
 2081 0afb 00       		.byte	0
 2082 0afc 07       		.uleb128 0x7
 2083 0afd C8050000 		.4byte	.LASF171
 2084 0b01 17       		.byte	0x17
 2085 0b02 42       		.byte	0x42
 2086 0b03 2C000000 		.4byte	0x2c
 2087 0b07 04       		.byte	0x4
 2088 0b08 07       		.uleb128 0x7
 2089 0b09 6E030000 		.4byte	.LASF172
 2090 0b0d 17       		.byte	0x17
 2091 0b0e 44       		.byte	0x44
 2092 0b0f 020A0000 		.4byte	0xa02
 2093 0b13 08       		.byte	0x8
 2094 0b14 00       		.byte	0
 2095 0b15 03       		.uleb128 0x3
 2096 0b16 3D080000 		.4byte	.LASF173
 2097 0b1a 17       		.byte	0x17
 2098 0b1b 46       		.byte	0x46
ARM GAS  C:\Users\PCHAUT~1\AppData\Local\Temp\ccbWMeVG.s 			page 38


 2099 0b1c E80A0000 		.4byte	0xae8
 2100 0b20 21       		.uleb128 0x21
 2101 0b21 44030000 		.4byte	.LASF175
 2102 0b25 04       		.byte	0x4
 2103 0b26 CC       		.byte	0xcc
 2104 0b27 AD020000 		.4byte	0x2ad
 2105 0b2b 00000000 		.4byte	.LFB222
 2106 0b2f A8000000 		.4byte	.LFE222-.LFB222
 2107 0b33 01       		.uleb128 0x1
 2108 0b34 9C       		.byte	0x9c
 2109 0b35 9A0B0000 		.4byte	0xb9a
 2110 0b39 22       		.uleb128 0x22
 2111 0b3a 6D7000   		.ascii	"mp\000"
 2112 0b3d 04       		.byte	0x4
 2113 0b3e CC       		.byte	0xcc
 2114 0b3f 9A0B0000 		.4byte	0xb9a
 2115 0b43 02       		.uleb128 0x2
 2116 0b44 91       		.byte	0x91
 2117 0b45 64       		.sleb128 -28
 2118 0b46 23       		.uleb128 0x23
 2119 0b47 E8050000 		.4byte	.LASF174
 2120 0b4b 04       		.byte	0x4
 2121 0b4c CC       		.byte	0xcc
 2122 0b4d 32010000 		.4byte	0x132
 2123 0b51 02       		.uleb128 0x2
 2124 0b52 91       		.byte	0x91
 2125 0b53 60       		.sleb128 -32
 2126 0b54 22       		.uleb128 0x22
 2127 0b55 706600   		.ascii	"pf\000"
 2128 0b58 04       		.byte	0x4
 2129 0b59 CD       		.byte	0xcd
 2130 0b5a DA080000 		.4byte	0x8da
 2131 0b5e 02       		.uleb128 0x2
 2132 0b5f 91       		.byte	0x91
 2133 0b60 5C       		.sleb128 -36
 2134 0b61 22       		.uleb128 0x22
 2135 0b62 61726700 		.ascii	"arg\000"
 2136 0b66 04       		.byte	0x4
 2137 0b67 CD       		.byte	0xcd
 2138 0b68 8A030000 		.4byte	0x38a
 2139 0b6c 02       		.uleb128 0x2
 2140 0b6d 91       		.byte	0x91
 2141 0b6e 58       		.sleb128 -40
 2142 0b6f 24       		.uleb128 0x24
 2143 0b70 77737000 		.ascii	"wsp\000"
 2144 0b74 04       		.byte	0x4
 2145 0b75 CE       		.byte	0xce
 2146 0b76 8A030000 		.4byte	0x38a
 2147 0b7a 02       		.uleb128 0x2
 2148 0b7b 91       		.byte	0x91
 2149 0b7c 6C       		.sleb128 -20
 2150 0b7d 24       		.uleb128 0x24
 2151 0b7e 747000   		.ascii	"tp\000"
 2152 0b81 04       		.byte	0x4
 2153 0b82 CF       		.byte	0xcf
 2154 0b83 AD020000 		.4byte	0x2ad
 2155 0b87 02       		.uleb128 0x2
ARM GAS  C:\Users\PCHAUT~1\AppData\Local\Temp\ccbWMeVG.s 			page 39


 2156 0b88 91       		.byte	0x91
 2157 0b89 70       		.sleb128 -16
 2158 0b8a 25       		.uleb128 0x25
 2159 0b8b D1060000 		.4byte	.LASF179
 2160 0b8f B00B0000 		.4byte	0xbb0
 2161 0b93 05       		.uleb128 0x5
 2162 0b94 03       		.byte	0x3
 2163 0b95 00000000 		.4byte	__func__.7876
 2164 0b99 00       		.byte	0
 2165 0b9a 0A       		.uleb128 0xa
 2166 0b9b 04       		.byte	0x4
 2167 0b9c 150B0000 		.4byte	0xb15
 2168 0ba0 17       		.uleb128 0x17
 2169 0ba1 AE080000 		.4byte	0x8ae
 2170 0ba5 B00B0000 		.4byte	0xbb0
 2171 0ba9 18       		.uleb128 0x18
 2172 0baa 37000000 		.4byte	0x37
 2173 0bae 19       		.byte	0x19
 2174 0baf 00       		.byte	0
 2175 0bb0 1B       		.uleb128 0x1b
 2176 0bb1 A00B0000 		.4byte	0xba0
 2177 0bb5 21       		.uleb128 0x21
 2178 0bb6 B5010000 		.4byte	.LASF176
 2179 0bba 04       		.byte	0x4
 2180 0bbb 98       		.byte	0x98
 2181 0bbc AD020000 		.4byte	0x2ad
 2182 0bc0 00000000 		.4byte	.LFB221
 2183 0bc4 94000000 		.4byte	.LFE221-.LFB221
 2184 0bc8 01       		.uleb128 0x1
 2185 0bc9 9C       		.byte	0x9c
 2186 0bca 2F0C0000 		.4byte	0xc2f
 2187 0bce 23       		.uleb128 0x23
 2188 0bcf 09010000 		.4byte	.LASF177
 2189 0bd3 04       		.byte	0x4
 2190 0bd4 98       		.byte	0x98
 2191 0bd5 A40A0000 		.4byte	0xaa4
 2192 0bd9 02       		.uleb128 0x2
 2193 0bda 91       		.byte	0x91
 2194 0bdb 64       		.sleb128 -28
 2195 0bdc 23       		.uleb128 0x23
 2196 0bdd F6080000 		.4byte	.LASF167
 2197 0be1 04       		.byte	0x4
 2198 0be2 98       		.byte	0x98
 2199 0be3 2C000000 		.4byte	0x2c
 2200 0be7 02       		.uleb128 0x2
 2201 0be8 91       		.byte	0x91
 2202 0be9 60       		.sleb128 -32
 2203 0bea 23       		.uleb128 0x23
 2204 0beb E8050000 		.4byte	.LASF174
 2205 0bef 04       		.byte	0x4
 2206 0bf0 99       		.byte	0x99
 2207 0bf1 32010000 		.4byte	0x132
 2208 0bf5 02       		.uleb128 0x2
 2209 0bf6 91       		.byte	0x91
 2210 0bf7 5C       		.sleb128 -36
 2211 0bf8 22       		.uleb128 0x22
 2212 0bf9 706600   		.ascii	"pf\000"
ARM GAS  C:\Users\PCHAUT~1\AppData\Local\Temp\ccbWMeVG.s 			page 40


 2213 0bfc 04       		.byte	0x4
 2214 0bfd 99       		.byte	0x99
 2215 0bfe DA080000 		.4byte	0x8da
 2216 0c02 02       		.uleb128 0x2
 2217 0c03 91       		.byte	0x91
 2218 0c04 58       		.sleb128 -40
 2219 0c05 22       		.uleb128 0x22
 2220 0c06 61726700 		.ascii	"arg\000"
 2221 0c0a 04       		.byte	0x4
 2222 0c0b 99       		.byte	0x99
 2223 0c0c 8A030000 		.4byte	0x38a
 2224 0c10 02       		.uleb128 0x2
 2225 0c11 91       		.byte	0x91
 2226 0c12 54       		.sleb128 -44
 2227 0c13 24       		.uleb128 0x24
 2228 0c14 77737000 		.ascii	"wsp\000"
 2229 0c18 04       		.byte	0x4
 2230 0c19 9A       		.byte	0x9a
 2231 0c1a 8A030000 		.4byte	0x38a
 2232 0c1e 02       		.uleb128 0x2
 2233 0c1f 91       		.byte	0x91
 2234 0c20 6C       		.sleb128 -20
 2235 0c21 24       		.uleb128 0x24
 2236 0c22 747000   		.ascii	"tp\000"
 2237 0c25 04       		.byte	0x4
 2238 0c26 9B       		.byte	0x9b
 2239 0c27 AD020000 		.4byte	0x2ad
 2240 0c2b 02       		.uleb128 0x2
 2241 0c2c 91       		.byte	0x91
 2242 0c2d 70       		.sleb128 -16
 2243 0c2e 00       		.byte	0
 2244 0c2f 26       		.uleb128 0x26
 2245 0c30 EC060000 		.4byte	.LASF188
 2246 0c34 04       		.byte	0x4
 2247 0c35 5B       		.byte	0x5b
 2248 0c36 00000000 		.4byte	.LFB220
 2249 0c3a C4000000 		.4byte	.LFE220-.LFB220
 2250 0c3e 01       		.uleb128 0x1
 2251 0c3f 9C       		.byte	0x9c
 2252 0c40 6F0C0000 		.4byte	0xc6f
 2253 0c44 22       		.uleb128 0x22
 2254 0c45 747000   		.ascii	"tp\000"
 2255 0c48 04       		.byte	0x4
 2256 0c49 5B       		.byte	0x5b
 2257 0c4a AD020000 		.4byte	0x2ad
 2258 0c4e 02       		.uleb128 0x2
 2259 0c4f 91       		.byte	0x91
 2260 0c50 6C       		.sleb128 -20
 2261 0c51 27       		.uleb128 0x27
 2262 0c52 28060000 		.4byte	.LASF178
 2263 0c56 04       		.byte	0x4
 2264 0c57 5C       		.byte	0x5c
 2265 0c58 1C010000 		.4byte	0x11c
 2266 0c5c 02       		.uleb128 0x2
 2267 0c5d 91       		.byte	0x91
 2268 0c5e 73       		.sleb128 -13
 2269 0c5f 25       		.uleb128 0x25
ARM GAS  C:\Users\PCHAUT~1\AppData\Local\Temp\ccbWMeVG.s 			page 41


 2270 0c60 D1060000 		.4byte	.LASF179
 2271 0c64 7F0C0000 		.4byte	0xc7f
 2272 0c68 05       		.uleb128 0x5
 2273 0c69 03       		.byte	0x3
 2274 0c6a 00000000 		.4byte	__func__.7854
 2275 0c6e 00       		.byte	0
 2276 0c6f 17       		.uleb128 0x17
 2277 0c70 AE080000 		.4byte	0x8ae
 2278 0c74 7F0C0000 		.4byte	0xc7f
 2279 0c78 18       		.uleb128 0x18
 2280 0c79 37000000 		.4byte	0x37
 2281 0c7d 0C       		.byte	0xc
 2282 0c7e 00       		.byte	0
 2283 0c7f 1B       		.uleb128 0x1b
 2284 0c80 6F0C0000 		.4byte	0xc6f
 2285 0c84 21       		.uleb128 0x21
 2286 0c85 E6040000 		.4byte	.LASF180
 2287 0c89 04       		.byte	0x4
 2288 0c8a 44       		.byte	0x44
 2289 0c8b AD020000 		.4byte	0x2ad
 2290 0c8f 00000000 		.4byte	.LFB219
 2291 0c93 54000000 		.4byte	.LFE219-.LFB219
 2292 0c97 01       		.uleb128 0x1
 2293 0c98 9C       		.byte	0x9c
 2294 0c99 BA0C0000 		.4byte	0xcba
 2295 0c9d 22       		.uleb128 0x22
 2296 0c9e 747000   		.ascii	"tp\000"
 2297 0ca1 04       		.byte	0x4
 2298 0ca2 44       		.byte	0x44
 2299 0ca3 AD020000 		.4byte	0x2ad
 2300 0ca7 02       		.uleb128 0x2
 2301 0ca8 91       		.byte	0x91
 2302 0ca9 6C       		.sleb128 -20
 2303 0caa 25       		.uleb128 0x25
 2304 0cab D1060000 		.4byte	.LASF179
 2305 0caf CA0C0000 		.4byte	0xcca
 2306 0cb3 05       		.uleb128 0x5
 2307 0cb4 03       		.byte	0x3
 2308 0cb5 00000000 		.4byte	__func__.7849
 2309 0cb9 00       		.byte	0
 2310 0cba 17       		.uleb128 0x17
 2311 0cbb AE080000 		.4byte	0x8ae
 2312 0cbf CA0C0000 		.4byte	0xcca
 2313 0cc3 18       		.uleb128 0x18
 2314 0cc4 37000000 		.4byte	0x37
 2315 0cc8 0B       		.byte	0xb
 2316 0cc9 00       		.byte	0
 2317 0cca 1B       		.uleb128 0x1b
 2318 0ccb BA0C0000 		.4byte	0xcba
 2319 0ccf 28       		.uleb128 0x28
 2320 0cd0 13090000 		.4byte	.LASF181
 2321 0cd4 03       		.byte	0x3
 2322 0cd5 6601     		.2byte	0x166
 2323 0cd7 00000000 		.4byte	.LFB146
 2324 0cdb 58000000 		.4byte	.LFE146-.LFB146
 2325 0cdf 01       		.uleb128 0x1
 2326 0ce0 9C       		.byte	0x9c
ARM GAS  C:\Users\PCHAUT~1\AppData\Local\Temp\ccbWMeVG.s 			page 42


 2327 0ce1 F50C0000 		.4byte	0xcf5
 2328 0ce5 25       		.uleb128 0x25
 2329 0ce6 D1060000 		.4byte	.LASF179
 2330 0cea CA0C0000 		.4byte	0xcca
 2331 0cee 05       		.uleb128 0x5
 2332 0cef 03       		.byte	0x3
 2333 0cf0 00000000 		.4byte	__func__.7153
 2334 0cf4 00       		.byte	0
 2335 0cf5 29       		.uleb128 0x29
 2336 0cf6 E2060000 		.4byte	.LASF189
 2337 0cfa 03       		.byte	0x3
 2338 0cfb 5A01     		.2byte	0x15a
 2339 0cfd 00000000 		.4byte	.LFB145
 2340 0d01 30000000 		.4byte	.LFE145-.LFB145
 2341 0d05 01       		.uleb128 0x1
 2342 0d06 9C       		.byte	0x9c
 2343 0d07 28       		.uleb128 0x28
 2344 0d08 86010000 		.4byte	.LASF182
 2345 0d0c 01       		.byte	0x1
 2346 0d0d CA01     		.2byte	0x1ca
 2347 0d0f 00000000 		.4byte	.LFB117
 2348 0d13 30000000 		.4byte	.LFE117-.LFB117
 2349 0d17 01       		.uleb128 0x1
 2350 0d18 9C       		.byte	0x9c
 2351 0d19 370D0000 		.4byte	0xd37
 2352 0d1d 2A       		.uleb128 0x2a
 2353 0d1e 670D0000 		.4byte	0xd67
 2354 0d22 0E000000 		.4byte	.LBB8
 2355 0d26 06000000 		.4byte	.LBE8-.LBB8
 2356 0d2a 01       		.byte	0x1
 2357 0d2b CD01     		.2byte	0x1cd
 2358 0d2d 2B       		.uleb128 0x2b
 2359 0d2e 700D0000 		.4byte	0xd70
 2360 0d32 02       		.uleb128 0x2
 2361 0d33 91       		.byte	0x91
 2362 0d34 70       		.sleb128 -16
 2363 0d35 00       		.byte	0
 2364 0d36 00       		.byte	0
 2365 0d37 28       		.uleb128 0x28
 2366 0d38 7C000000 		.4byte	.LASF183
 2367 0d3c 01       		.byte	0x1
 2368 0d3d BC01     		.2byte	0x1bc
 2369 0d3f 00000000 		.4byte	.LFB116
 2370 0d43 30000000 		.4byte	.LFE116-.LFB116
 2371 0d47 01       		.uleb128 0x1
 2372 0d48 9C       		.byte	0x9c
 2373 0d49 670D0000 		.4byte	0xd67
 2374 0d4d 2A       		.uleb128 0x2a
 2375 0d4e 670D0000 		.4byte	0xd67
 2376 0d52 0E000000 		.4byte	.LBB6
 2377 0d56 06000000 		.4byte	.LBE6-.LBB6
 2378 0d5a 01       		.byte	0x1
 2379 0d5b BF01     		.2byte	0x1bf
 2380 0d5d 2B       		.uleb128 0x2b
 2381 0d5e 700D0000 		.4byte	0xd70
 2382 0d62 02       		.uleb128 0x2
 2383 0d63 91       		.byte	0x91
ARM GAS  C:\Users\PCHAUT~1\AppData\Local\Temp\ccbWMeVG.s 			page 43


 2384 0d64 70       		.sleb128 -16
 2385 0d65 00       		.byte	0
 2386 0d66 00       		.byte	0
 2387 0d67 2C       		.uleb128 0x2c
 2388 0d68 25080000 		.4byte	.LASF190
 2389 0d6c 02       		.byte	0x2
 2390 0d6d 2002     		.2byte	0x220
 2391 0d6f 03       		.byte	0x3
 2392 0d70 2D       		.uleb128 0x2d
 2393 0d71 A9030000 		.4byte	.LASF191
 2394 0d75 02       		.byte	0x2
 2395 0d76 2002     		.2byte	0x220
 2396 0d78 DA000000 		.4byte	0xda
 2397 0d7c 00       		.byte	0
 2398 0d7d 00       		.byte	0
 2399              		.section	.debug_abbrev,"",%progbits
 2400              	.Ldebug_abbrev0:
 2401 0000 01       		.uleb128 0x1
 2402 0001 11       		.uleb128 0x11
 2403 0002 01       		.byte	0x1
 2404 0003 25       		.uleb128 0x25
 2405 0004 0E       		.uleb128 0xe
 2406 0005 13       		.uleb128 0x13
 2407 0006 0B       		.uleb128 0xb
 2408 0007 03       		.uleb128 0x3
 2409 0008 0E       		.uleb128 0xe
 2410 0009 1B       		.uleb128 0x1b
 2411 000a 0E       		.uleb128 0xe
 2412 000b 55       		.uleb128 0x55
 2413 000c 17       		.uleb128 0x17
 2414 000d 11       		.uleb128 0x11
 2415 000e 01       		.uleb128 0x1
 2416 000f 10       		.uleb128 0x10
 2417 0010 17       		.uleb128 0x17
 2418 0011 00       		.byte	0
 2419 0012 00       		.byte	0
 2420 0013 02       		.uleb128 0x2
 2421 0014 24       		.uleb128 0x24
 2422 0015 00       		.byte	0
 2423 0016 0B       		.uleb128 0xb
 2424 0017 0B       		.uleb128 0xb
 2425 0018 3E       		.uleb128 0x3e
 2426 0019 0B       		.uleb128 0xb
 2427 001a 03       		.uleb128 0x3
 2428 001b 08       		.uleb128 0x8
 2429 001c 00       		.byte	0
 2430 001d 00       		.byte	0
 2431 001e 03       		.uleb128 0x3
 2432 001f 16       		.uleb128 0x16
 2433 0020 00       		.byte	0
 2434 0021 03       		.uleb128 0x3
 2435 0022 0E       		.uleb128 0xe
 2436 0023 3A       		.uleb128 0x3a
 2437 0024 0B       		.uleb128 0xb
 2438 0025 3B       		.uleb128 0x3b
 2439 0026 0B       		.uleb128 0xb
 2440 0027 49       		.uleb128 0x49
ARM GAS  C:\Users\PCHAUT~1\AppData\Local\Temp\ccbWMeVG.s 			page 44


 2441 0028 13       		.uleb128 0x13
 2442 0029 00       		.byte	0
 2443 002a 00       		.byte	0
 2444 002b 04       		.uleb128 0x4
 2445 002c 24       		.uleb128 0x24
 2446 002d 00       		.byte	0
 2447 002e 0B       		.uleb128 0xb
 2448 002f 0B       		.uleb128 0xb
 2449 0030 3E       		.uleb128 0x3e
 2450 0031 0B       		.uleb128 0xb
 2451 0032 03       		.uleb128 0x3
 2452 0033 0E       		.uleb128 0xe
 2453 0034 00       		.byte	0
 2454 0035 00       		.byte	0
 2455 0036 05       		.uleb128 0x5
 2456 0037 35       		.uleb128 0x35
 2457 0038 00       		.byte	0
 2458 0039 49       		.uleb128 0x49
 2459 003a 13       		.uleb128 0x13
 2460 003b 00       		.byte	0
 2461 003c 00       		.byte	0
 2462 003d 06       		.uleb128 0x6
 2463 003e 13       		.uleb128 0x13
 2464 003f 01       		.byte	0x1
 2465 0040 03       		.uleb128 0x3
 2466 0041 0E       		.uleb128 0xe
 2467 0042 0B       		.uleb128 0xb
 2468 0043 0B       		.uleb128 0xb
 2469 0044 3A       		.uleb128 0x3a
 2470 0045 0B       		.uleb128 0xb
 2471 0046 3B       		.uleb128 0x3b
 2472 0047 0B       		.uleb128 0xb
 2473 0048 01       		.uleb128 0x1
 2474 0049 13       		.uleb128 0x13
 2475 004a 00       		.byte	0
 2476 004b 00       		.byte	0
 2477 004c 07       		.uleb128 0x7
 2478 004d 0D       		.uleb128 0xd
 2479 004e 00       		.byte	0
 2480 004f 03       		.uleb128 0x3
 2481 0050 0E       		.uleb128 0xe
 2482 0051 3A       		.uleb128 0x3a
 2483 0052 0B       		.uleb128 0xb
 2484 0053 3B       		.uleb128 0x3b
 2485 0054 0B       		.uleb128 0xb
 2486 0055 49       		.uleb128 0x49
 2487 0056 13       		.uleb128 0x13
 2488 0057 38       		.uleb128 0x38
 2489 0058 0B       		.uleb128 0xb
 2490 0059 00       		.byte	0
 2491 005a 00       		.byte	0
 2492 005b 08       		.uleb128 0x8
 2493 005c 0D       		.uleb128 0xd
 2494 005d 00       		.byte	0
 2495 005e 03       		.uleb128 0x3
 2496 005f 08       		.uleb128 0x8
 2497 0060 3A       		.uleb128 0x3a
ARM GAS  C:\Users\PCHAUT~1\AppData\Local\Temp\ccbWMeVG.s 			page 45


 2498 0061 0B       		.uleb128 0xb
 2499 0062 3B       		.uleb128 0x3b
 2500 0063 05       		.uleb128 0x5
 2501 0064 49       		.uleb128 0x49
 2502 0065 13       		.uleb128 0x13
 2503 0066 38       		.uleb128 0x38
 2504 0067 0B       		.uleb128 0xb
 2505 0068 00       		.byte	0
 2506 0069 00       		.byte	0
 2507 006a 09       		.uleb128 0x9
 2508 006b 0D       		.uleb128 0xd
 2509 006c 00       		.byte	0
 2510 006d 03       		.uleb128 0x3
 2511 006e 0E       		.uleb128 0xe
 2512 006f 3A       		.uleb128 0x3a
 2513 0070 0B       		.uleb128 0xb
 2514 0071 3B       		.uleb128 0x3b
 2515 0072 05       		.uleb128 0x5
 2516 0073 49       		.uleb128 0x49
 2517 0074 13       		.uleb128 0x13
 2518 0075 38       		.uleb128 0x38
 2519 0076 0B       		.uleb128 0xb
 2520 0077 00       		.byte	0
 2521 0078 00       		.byte	0
 2522 0079 0A       		.uleb128 0xa
 2523 007a 0F       		.uleb128 0xf
 2524 007b 00       		.byte	0
 2525 007c 0B       		.uleb128 0xb
 2526 007d 0B       		.uleb128 0xb
 2527 007e 49       		.uleb128 0x49
 2528 007f 13       		.uleb128 0x13
 2529 0080 00       		.byte	0
 2530 0081 00       		.byte	0
 2531 0082 0B       		.uleb128 0xb
 2532 0083 13       		.uleb128 0x13
 2533 0084 01       		.byte	0x1
 2534 0085 03       		.uleb128 0x3
 2535 0086 0E       		.uleb128 0xe
 2536 0087 0B       		.uleb128 0xb
 2537 0088 0B       		.uleb128 0xb
 2538 0089 3A       		.uleb128 0x3a
 2539 008a 0B       		.uleb128 0xb
 2540 008b 3B       		.uleb128 0x3b
 2541 008c 05       		.uleb128 0x5
 2542 008d 01       		.uleb128 0x1
 2543 008e 13       		.uleb128 0x13
 2544 008f 00       		.byte	0
 2545 0090 00       		.byte	0
 2546 0091 0C       		.uleb128 0xc
 2547 0092 15       		.uleb128 0x15
 2548 0093 01       		.byte	0x1
 2549 0094 27       		.uleb128 0x27
 2550 0095 19       		.uleb128 0x19
 2551 0096 01       		.uleb128 0x1
 2552 0097 13       		.uleb128 0x13
 2553 0098 00       		.byte	0
 2554 0099 00       		.byte	0
ARM GAS  C:\Users\PCHAUT~1\AppData\Local\Temp\ccbWMeVG.s 			page 46


 2555 009a 0D       		.uleb128 0xd
 2556 009b 05       		.uleb128 0x5
 2557 009c 00       		.byte	0
 2558 009d 49       		.uleb128 0x49
 2559 009e 13       		.uleb128 0x13
 2560 009f 00       		.byte	0
 2561 00a0 00       		.byte	0
 2562 00a1 0E       		.uleb128 0xe
 2563 00a2 0F       		.uleb128 0xf
 2564 00a3 00       		.byte	0
 2565 00a4 0B       		.uleb128 0xb
 2566 00a5 0B       		.uleb128 0xb
 2567 00a6 00       		.byte	0
 2568 00a7 00       		.byte	0
 2569 00a8 0F       		.uleb128 0xf
 2570 00a9 13       		.uleb128 0x13
 2571 00aa 01       		.byte	0x1
 2572 00ab 03       		.uleb128 0x3
 2573 00ac 0E       		.uleb128 0xe
 2574 00ad 0B       		.uleb128 0xb
 2575 00ae 05       		.uleb128 0x5
 2576 00af 3A       		.uleb128 0x3a
 2577 00b0 0B       		.uleb128 0xb
 2578 00b1 3B       		.uleb128 0x3b
 2579 00b2 05       		.uleb128 0x5
 2580 00b3 01       		.uleb128 0x1
 2581 00b4 13       		.uleb128 0x13
 2582 00b5 00       		.byte	0
 2583 00b6 00       		.byte	0
 2584 00b7 10       		.uleb128 0x10
 2585 00b8 0D       		.uleb128 0xd
 2586 00b9 00       		.byte	0
 2587 00ba 03       		.uleb128 0x3
 2588 00bb 0E       		.uleb128 0xe
 2589 00bc 3A       		.uleb128 0x3a
 2590 00bd 0B       		.uleb128 0xb
 2591 00be 3B       		.uleb128 0x3b
 2592 00bf 05       		.uleb128 0x5
 2593 00c0 49       		.uleb128 0x49
 2594 00c1 13       		.uleb128 0x13
 2595 00c2 38       		.uleb128 0x38
 2596 00c3 05       		.uleb128 0x5
 2597 00c4 00       		.byte	0
 2598 00c5 00       		.byte	0
 2599 00c6 11       		.uleb128 0x11
 2600 00c7 0D       		.uleb128 0xd
 2601 00c8 00       		.byte	0
 2602 00c9 03       		.uleb128 0x3
 2603 00ca 08       		.uleb128 0x8
 2604 00cb 3A       		.uleb128 0x3a
 2605 00cc 0B       		.uleb128 0xb
 2606 00cd 3B       		.uleb128 0x3b
 2607 00ce 05       		.uleb128 0x5
 2608 00cf 49       		.uleb128 0x49
 2609 00d0 13       		.uleb128 0x13
 2610 00d1 38       		.uleb128 0x38
 2611 00d2 05       		.uleb128 0x5
ARM GAS  C:\Users\PCHAUT~1\AppData\Local\Temp\ccbWMeVG.s 			page 47


 2612 00d3 00       		.byte	0
 2613 00d4 00       		.byte	0
 2614 00d5 12       		.uleb128 0x12
 2615 00d6 34       		.uleb128 0x34
 2616 00d7 00       		.byte	0
 2617 00d8 03       		.uleb128 0x3
 2618 00d9 0E       		.uleb128 0xe
 2619 00da 3A       		.uleb128 0x3a
 2620 00db 0B       		.uleb128 0xb
 2621 00dc 3B       		.uleb128 0x3b
 2622 00dd 05       		.uleb128 0x5
 2623 00de 49       		.uleb128 0x49
 2624 00df 13       		.uleb128 0x13
 2625 00e0 3F       		.uleb128 0x3f
 2626 00e1 19       		.uleb128 0x19
 2627 00e2 3C       		.uleb128 0x3c
 2628 00e3 19       		.uleb128 0x19
 2629 00e4 00       		.byte	0
 2630 00e5 00       		.byte	0
 2631 00e6 13       		.uleb128 0x13
 2632 00e7 34       		.uleb128 0x34
 2633 00e8 00       		.byte	0
 2634 00e9 03       		.uleb128 0x3
 2635 00ea 0E       		.uleb128 0xe
 2636 00eb 3A       		.uleb128 0x3a
 2637 00ec 0B       		.uleb128 0xb
 2638 00ed 3B       		.uleb128 0x3b
 2639 00ee 0B       		.uleb128 0xb
 2640 00ef 49       		.uleb128 0x49
 2641 00f0 13       		.uleb128 0x13
 2642 00f1 3F       		.uleb128 0x3f
 2643 00f2 19       		.uleb128 0x19
 2644 00f3 3C       		.uleb128 0x3c
 2645 00f4 19       		.uleb128 0x19
 2646 00f5 00       		.byte	0
 2647 00f6 00       		.byte	0
 2648 00f7 14       		.uleb128 0x14
 2649 00f8 0D       		.uleb128 0xd
 2650 00f9 00       		.byte	0
 2651 00fa 03       		.uleb128 0x3
 2652 00fb 08       		.uleb128 0x8
 2653 00fc 3A       		.uleb128 0x3a
 2654 00fd 0B       		.uleb128 0xb
 2655 00fe 3B       		.uleb128 0x3b
 2656 00ff 0B       		.uleb128 0xb
 2657 0100 49       		.uleb128 0x49
 2658 0101 13       		.uleb128 0x13
 2659 0102 38       		.uleb128 0x38
 2660 0103 0B       		.uleb128 0xb
 2661 0104 00       		.byte	0
 2662 0105 00       		.byte	0
 2663 0106 15       		.uleb128 0x15
 2664 0107 13       		.uleb128 0x13
 2665 0108 01       		.byte	0x1
 2666 0109 0B       		.uleb128 0xb
 2667 010a 0B       		.uleb128 0xb
 2668 010b 3A       		.uleb128 0x3a
ARM GAS  C:\Users\PCHAUT~1\AppData\Local\Temp\ccbWMeVG.s 			page 48


 2669 010c 0B       		.uleb128 0xb
 2670 010d 3B       		.uleb128 0x3b
 2671 010e 0B       		.uleb128 0xb
 2672 010f 01       		.uleb128 0x1
 2673 0110 13       		.uleb128 0x13
 2674 0111 00       		.byte	0
 2675 0112 00       		.byte	0
 2676 0113 16       		.uleb128 0x16
 2677 0114 13       		.uleb128 0x13
 2678 0115 01       		.byte	0x1
 2679 0116 0B       		.uleb128 0xb
 2680 0117 05       		.uleb128 0x5
 2681 0118 3A       		.uleb128 0x3a
 2682 0119 0B       		.uleb128 0xb
 2683 011a 3B       		.uleb128 0x3b
 2684 011b 0B       		.uleb128 0xb
 2685 011c 01       		.uleb128 0x1
 2686 011d 13       		.uleb128 0x13
 2687 011e 00       		.byte	0
 2688 011f 00       		.byte	0
 2689 0120 17       		.uleb128 0x17
 2690 0121 01       		.uleb128 0x1
 2691 0122 01       		.byte	0x1
 2692 0123 49       		.uleb128 0x49
 2693 0124 13       		.uleb128 0x13
 2694 0125 01       		.uleb128 0x1
 2695 0126 13       		.uleb128 0x13
 2696 0127 00       		.byte	0
 2697 0128 00       		.byte	0
 2698 0129 18       		.uleb128 0x18
 2699 012a 21       		.uleb128 0x21
 2700 012b 00       		.byte	0
 2701 012c 49       		.uleb128 0x49
 2702 012d 13       		.uleb128 0x13
 2703 012e 2F       		.uleb128 0x2f
 2704 012f 0B       		.uleb128 0xb
 2705 0130 00       		.byte	0
 2706 0131 00       		.byte	0
 2707 0132 19       		.uleb128 0x19
 2708 0133 17       		.uleb128 0x17
 2709 0134 01       		.byte	0x1
 2710 0135 0B       		.uleb128 0xb
 2711 0136 0B       		.uleb128 0xb
 2712 0137 3A       		.uleb128 0x3a
 2713 0138 0B       		.uleb128 0xb
 2714 0139 3B       		.uleb128 0x3b
 2715 013a 0B       		.uleb128 0xb
 2716 013b 01       		.uleb128 0x1
 2717 013c 13       		.uleb128 0x13
 2718 013d 00       		.byte	0
 2719 013e 00       		.byte	0
 2720 013f 1A       		.uleb128 0x1a
 2721 0140 0D       		.uleb128 0xd
 2722 0141 00       		.byte	0
 2723 0142 03       		.uleb128 0x3
 2724 0143 0E       		.uleb128 0xe
 2725 0144 3A       		.uleb128 0x3a
ARM GAS  C:\Users\PCHAUT~1\AppData\Local\Temp\ccbWMeVG.s 			page 49


 2726 0145 0B       		.uleb128 0xb
 2727 0146 3B       		.uleb128 0x3b
 2728 0147 05       		.uleb128 0x5
 2729 0148 49       		.uleb128 0x49
 2730 0149 13       		.uleb128 0x13
 2731 014a 00       		.byte	0
 2732 014b 00       		.byte	0
 2733 014c 1B       		.uleb128 0x1b
 2734 014d 26       		.uleb128 0x26
 2735 014e 00       		.byte	0
 2736 014f 49       		.uleb128 0x49
 2737 0150 13       		.uleb128 0x13
 2738 0151 00       		.byte	0
 2739 0152 00       		.byte	0
 2740 0153 1C       		.uleb128 0x1c
 2741 0154 34       		.uleb128 0x34
 2742 0155 00       		.byte	0
 2743 0156 03       		.uleb128 0x3
 2744 0157 08       		.uleb128 0x8
 2745 0158 3A       		.uleb128 0x3a
 2746 0159 0B       		.uleb128 0xb
 2747 015a 3B       		.uleb128 0x3b
 2748 015b 05       		.uleb128 0x5
 2749 015c 49       		.uleb128 0x49
 2750 015d 13       		.uleb128 0x13
 2751 015e 3F       		.uleb128 0x3f
 2752 015f 19       		.uleb128 0x19
 2753 0160 3C       		.uleb128 0x3c
 2754 0161 19       		.uleb128 0x19
 2755 0162 00       		.byte	0
 2756 0163 00       		.byte	0
 2757 0164 1D       		.uleb128 0x1d
 2758 0165 15       		.uleb128 0x15
 2759 0166 01       		.byte	0x1
 2760 0167 27       		.uleb128 0x27
 2761 0168 19       		.uleb128 0x19
 2762 0169 49       		.uleb128 0x49
 2763 016a 13       		.uleb128 0x13
 2764 016b 01       		.uleb128 0x1
 2765 016c 13       		.uleb128 0x13
 2766 016d 00       		.byte	0
 2767 016e 00       		.byte	0
 2768 016f 1E       		.uleb128 0x1e
 2769 0170 0D       		.uleb128 0xd
 2770 0171 00       		.byte	0
 2771 0172 03       		.uleb128 0x3
 2772 0173 0E       		.uleb128 0xe
 2773 0174 3A       		.uleb128 0x3a
 2774 0175 0B       		.uleb128 0xb
 2775 0176 3B       		.uleb128 0x3b
 2776 0177 0B       		.uleb128 0xb
 2777 0178 49       		.uleb128 0x49
 2778 0179 13       		.uleb128 0x13
 2779 017a 00       		.byte	0
 2780 017b 00       		.byte	0
 2781 017c 1F       		.uleb128 0x1f
 2782 017d 17       		.uleb128 0x17
ARM GAS  C:\Users\PCHAUT~1\AppData\Local\Temp\ccbWMeVG.s 			page 50


 2783 017e 01       		.byte	0x1
 2784 017f 03       		.uleb128 0x3
 2785 0180 0E       		.uleb128 0xe
 2786 0181 0B       		.uleb128 0xb
 2787 0182 0B       		.uleb128 0xb
 2788 0183 3A       		.uleb128 0x3a
 2789 0184 0B       		.uleb128 0xb
 2790 0185 3B       		.uleb128 0x3b
 2791 0186 0B       		.uleb128 0xb
 2792 0187 01       		.uleb128 0x1
 2793 0188 13       		.uleb128 0x13
 2794 0189 00       		.byte	0
 2795 018a 00       		.byte	0
 2796 018b 20       		.uleb128 0x20
 2797 018c 0D       		.uleb128 0xd
 2798 018d 00       		.byte	0
 2799 018e 03       		.uleb128 0x3
 2800 018f 08       		.uleb128 0x8
 2801 0190 3A       		.uleb128 0x3a
 2802 0191 0B       		.uleb128 0xb
 2803 0192 3B       		.uleb128 0x3b
 2804 0193 0B       		.uleb128 0xb
 2805 0194 49       		.uleb128 0x49
 2806 0195 13       		.uleb128 0x13
 2807 0196 00       		.byte	0
 2808 0197 00       		.byte	0
 2809 0198 21       		.uleb128 0x21
 2810 0199 2E       		.uleb128 0x2e
 2811 019a 01       		.byte	0x1
 2812 019b 3F       		.uleb128 0x3f
 2813 019c 19       		.uleb128 0x19
 2814 019d 03       		.uleb128 0x3
 2815 019e 0E       		.uleb128 0xe
 2816 019f 3A       		.uleb128 0x3a
 2817 01a0 0B       		.uleb128 0xb
 2818 01a1 3B       		.uleb128 0x3b
 2819 01a2 0B       		.uleb128 0xb
 2820 01a3 27       		.uleb128 0x27
 2821 01a4 19       		.uleb128 0x19
 2822 01a5 49       		.uleb128 0x49
 2823 01a6 13       		.uleb128 0x13
 2824 01a7 11       		.uleb128 0x11
 2825 01a8 01       		.uleb128 0x1
 2826 01a9 12       		.uleb128 0x12
 2827 01aa 06       		.uleb128 0x6
 2828 01ab 40       		.uleb128 0x40
 2829 01ac 18       		.uleb128 0x18
 2830 01ad 9642     		.uleb128 0x2116
 2831 01af 19       		.uleb128 0x19
 2832 01b0 01       		.uleb128 0x1
 2833 01b1 13       		.uleb128 0x13
 2834 01b2 00       		.byte	0
 2835 01b3 00       		.byte	0
 2836 01b4 22       		.uleb128 0x22
 2837 01b5 05       		.uleb128 0x5
 2838 01b6 00       		.byte	0
 2839 01b7 03       		.uleb128 0x3
ARM GAS  C:\Users\PCHAUT~1\AppData\Local\Temp\ccbWMeVG.s 			page 51


 2840 01b8 08       		.uleb128 0x8
 2841 01b9 3A       		.uleb128 0x3a
 2842 01ba 0B       		.uleb128 0xb
 2843 01bb 3B       		.uleb128 0x3b
 2844 01bc 0B       		.uleb128 0xb
 2845 01bd 49       		.uleb128 0x49
 2846 01be 13       		.uleb128 0x13
 2847 01bf 02       		.uleb128 0x2
 2848 01c0 18       		.uleb128 0x18
 2849 01c1 00       		.byte	0
 2850 01c2 00       		.byte	0
 2851 01c3 23       		.uleb128 0x23
 2852 01c4 05       		.uleb128 0x5
 2853 01c5 00       		.byte	0
 2854 01c6 03       		.uleb128 0x3
 2855 01c7 0E       		.uleb128 0xe
 2856 01c8 3A       		.uleb128 0x3a
 2857 01c9 0B       		.uleb128 0xb
 2858 01ca 3B       		.uleb128 0x3b
 2859 01cb 0B       		.uleb128 0xb
 2860 01cc 49       		.uleb128 0x49
 2861 01cd 13       		.uleb128 0x13
 2862 01ce 02       		.uleb128 0x2
 2863 01cf 18       		.uleb128 0x18
 2864 01d0 00       		.byte	0
 2865 01d1 00       		.byte	0
 2866 01d2 24       		.uleb128 0x24
 2867 01d3 34       		.uleb128 0x34
 2868 01d4 00       		.byte	0
 2869 01d5 03       		.uleb128 0x3
 2870 01d6 08       		.uleb128 0x8
 2871 01d7 3A       		.uleb128 0x3a
 2872 01d8 0B       		.uleb128 0xb
 2873 01d9 3B       		.uleb128 0x3b
 2874 01da 0B       		.uleb128 0xb
 2875 01db 49       		.uleb128 0x49
 2876 01dc 13       		.uleb128 0x13
 2877 01dd 02       		.uleb128 0x2
 2878 01de 18       		.uleb128 0x18
 2879 01df 00       		.byte	0
 2880 01e0 00       		.byte	0
 2881 01e1 25       		.uleb128 0x25
 2882 01e2 34       		.uleb128 0x34
 2883 01e3 00       		.byte	0
 2884 01e4 03       		.uleb128 0x3
 2885 01e5 0E       		.uleb128 0xe
 2886 01e6 49       		.uleb128 0x49
 2887 01e7 13       		.uleb128 0x13
 2888 01e8 34       		.uleb128 0x34
 2889 01e9 19       		.uleb128 0x19
 2890 01ea 02       		.uleb128 0x2
 2891 01eb 18       		.uleb128 0x18
 2892 01ec 00       		.byte	0
 2893 01ed 00       		.byte	0
 2894 01ee 26       		.uleb128 0x26
 2895 01ef 2E       		.uleb128 0x2e
 2896 01f0 01       		.byte	0x1
ARM GAS  C:\Users\PCHAUT~1\AppData\Local\Temp\ccbWMeVG.s 			page 52


 2897 01f1 3F       		.uleb128 0x3f
 2898 01f2 19       		.uleb128 0x19
 2899 01f3 03       		.uleb128 0x3
 2900 01f4 0E       		.uleb128 0xe
 2901 01f5 3A       		.uleb128 0x3a
 2902 01f6 0B       		.uleb128 0xb
 2903 01f7 3B       		.uleb128 0x3b
 2904 01f8 0B       		.uleb128 0xb
 2905 01f9 27       		.uleb128 0x27
 2906 01fa 19       		.uleb128 0x19
 2907 01fb 11       		.uleb128 0x11
 2908 01fc 01       		.uleb128 0x1
 2909 01fd 12       		.uleb128 0x12
 2910 01fe 06       		.uleb128 0x6
 2911 01ff 40       		.uleb128 0x40
 2912 0200 18       		.uleb128 0x18
 2913 0201 9642     		.uleb128 0x2116
 2914 0203 19       		.uleb128 0x19
 2915 0204 01       		.uleb128 0x1
 2916 0205 13       		.uleb128 0x13
 2917 0206 00       		.byte	0
 2918 0207 00       		.byte	0
 2919 0208 27       		.uleb128 0x27
 2920 0209 34       		.uleb128 0x34
 2921 020a 00       		.byte	0
 2922 020b 03       		.uleb128 0x3
 2923 020c 0E       		.uleb128 0xe
 2924 020d 3A       		.uleb128 0x3a
 2925 020e 0B       		.uleb128 0xb
 2926 020f 3B       		.uleb128 0x3b
 2927 0210 0B       		.uleb128 0xb
 2928 0211 49       		.uleb128 0x49
 2929 0212 13       		.uleb128 0x13
 2930 0213 02       		.uleb128 0x2
 2931 0214 18       		.uleb128 0x18
 2932 0215 00       		.byte	0
 2933 0216 00       		.byte	0
 2934 0217 28       		.uleb128 0x28
 2935 0218 2E       		.uleb128 0x2e
 2936 0219 01       		.byte	0x1
 2937 021a 03       		.uleb128 0x3
 2938 021b 0E       		.uleb128 0xe
 2939 021c 3A       		.uleb128 0x3a
 2940 021d 0B       		.uleb128 0xb
 2941 021e 3B       		.uleb128 0x3b
 2942 021f 05       		.uleb128 0x5
 2943 0220 27       		.uleb128 0x27
 2944 0221 19       		.uleb128 0x19
 2945 0222 11       		.uleb128 0x11
 2946 0223 01       		.uleb128 0x1
 2947 0224 12       		.uleb128 0x12
 2948 0225 06       		.uleb128 0x6
 2949 0226 40       		.uleb128 0x40
 2950 0227 18       		.uleb128 0x18
 2951 0228 9642     		.uleb128 0x2116
 2952 022a 19       		.uleb128 0x19
 2953 022b 01       		.uleb128 0x1
ARM GAS  C:\Users\PCHAUT~1\AppData\Local\Temp\ccbWMeVG.s 			page 53


 2954 022c 13       		.uleb128 0x13
 2955 022d 00       		.byte	0
 2956 022e 00       		.byte	0
 2957 022f 29       		.uleb128 0x29
 2958 0230 2E       		.uleb128 0x2e
 2959 0231 00       		.byte	0
 2960 0232 03       		.uleb128 0x3
 2961 0233 0E       		.uleb128 0xe
 2962 0234 3A       		.uleb128 0x3a
 2963 0235 0B       		.uleb128 0xb
 2964 0236 3B       		.uleb128 0x3b
 2965 0237 05       		.uleb128 0x5
 2966 0238 27       		.uleb128 0x27
 2967 0239 19       		.uleb128 0x19
 2968 023a 11       		.uleb128 0x11
 2969 023b 01       		.uleb128 0x1
 2970 023c 12       		.uleb128 0x12
 2971 023d 06       		.uleb128 0x6
 2972 023e 40       		.uleb128 0x40
 2973 023f 18       		.uleb128 0x18
 2974 0240 9642     		.uleb128 0x2116
 2975 0242 19       		.uleb128 0x19
 2976 0243 00       		.byte	0
 2977 0244 00       		.byte	0
 2978 0245 2A       		.uleb128 0x2a
 2979 0246 1D       		.uleb128 0x1d
 2980 0247 01       		.byte	0x1
 2981 0248 31       		.uleb128 0x31
 2982 0249 13       		.uleb128 0x13
 2983 024a 11       		.uleb128 0x11
 2984 024b 01       		.uleb128 0x1
 2985 024c 12       		.uleb128 0x12
 2986 024d 06       		.uleb128 0x6
 2987 024e 58       		.uleb128 0x58
 2988 024f 0B       		.uleb128 0xb
 2989 0250 59       		.uleb128 0x59
 2990 0251 05       		.uleb128 0x5
 2991 0252 00       		.byte	0
 2992 0253 00       		.byte	0
 2993 0254 2B       		.uleb128 0x2b
 2994 0255 05       		.uleb128 0x5
 2995 0256 00       		.byte	0
 2996 0257 31       		.uleb128 0x31
 2997 0258 13       		.uleb128 0x13
 2998 0259 02       		.uleb128 0x2
 2999 025a 18       		.uleb128 0x18
 3000 025b 00       		.byte	0
 3001 025c 00       		.byte	0
 3002 025d 2C       		.uleb128 0x2c
 3003 025e 2E       		.uleb128 0x2e
 3004 025f 01       		.byte	0x1
 3005 0260 03       		.uleb128 0x3
 3006 0261 0E       		.uleb128 0xe
 3007 0262 3A       		.uleb128 0x3a
 3008 0263 0B       		.uleb128 0xb
 3009 0264 3B       		.uleb128 0x3b
 3010 0265 05       		.uleb128 0x5
ARM GAS  C:\Users\PCHAUT~1\AppData\Local\Temp\ccbWMeVG.s 			page 54


 3011 0266 27       		.uleb128 0x27
 3012 0267 19       		.uleb128 0x19
 3013 0268 20       		.uleb128 0x20
 3014 0269 0B       		.uleb128 0xb
 3015 026a 00       		.byte	0
 3016 026b 00       		.byte	0
 3017 026c 2D       		.uleb128 0x2d
 3018 026d 05       		.uleb128 0x5
 3019 026e 00       		.byte	0
 3020 026f 03       		.uleb128 0x3
 3021 0270 0E       		.uleb128 0xe
 3022 0271 3A       		.uleb128 0x3a
 3023 0272 0B       		.uleb128 0xb
 3024 0273 3B       		.uleb128 0x3b
 3025 0274 05       		.uleb128 0x5
 3026 0275 49       		.uleb128 0x49
 3027 0276 13       		.uleb128 0x13
 3028 0277 00       		.byte	0
 3029 0278 00       		.byte	0
 3030 0279 00       		.byte	0
 3031              		.section	.debug_aranges,"",%progbits
 3032 0000 54000000 		.4byte	0x54
 3033 0004 0200     		.2byte	0x2
 3034 0006 00000000 		.4byte	.Ldebug_info0
 3035 000a 04       		.byte	0x4
 3036 000b 00       		.byte	0
 3037 000c 0000     		.2byte	0
 3038 000e 0000     		.2byte	0
 3039 0010 00000000 		.4byte	.LFB116
 3040 0014 30000000 		.4byte	.LFE116-.LFB116
 3041 0018 00000000 		.4byte	.LFB117
 3042 001c 30000000 		.4byte	.LFE117-.LFB117
 3043 0020 00000000 		.4byte	.LFB145
 3044 0024 30000000 		.4byte	.LFE145-.LFB145
 3045 0028 00000000 		.4byte	.LFB146
 3046 002c 58000000 		.4byte	.LFE146-.LFB146
 3047 0030 00000000 		.4byte	.LFB219
 3048 0034 54000000 		.4byte	.LFE219-.LFB219
 3049 0038 00000000 		.4byte	.LFB220
 3050 003c C4000000 		.4byte	.LFE220-.LFB220
 3051 0040 00000000 		.4byte	.LFB221
 3052 0044 94000000 		.4byte	.LFE221-.LFB221
 3053 0048 00000000 		.4byte	.LFB222
 3054 004c A8000000 		.4byte	.LFE222-.LFB222
 3055 0050 00000000 		.4byte	0
 3056 0054 00000000 		.4byte	0
 3057              		.section	.debug_ranges,"",%progbits
 3058              	.Ldebug_ranges0:
 3059 0000 00000000 		.4byte	.LFB116
 3060 0004 30000000 		.4byte	.LFE116
 3061 0008 00000000 		.4byte	.LFB117
 3062 000c 30000000 		.4byte	.LFE117
 3063 0010 00000000 		.4byte	.LFB145
 3064 0014 30000000 		.4byte	.LFE145
 3065 0018 00000000 		.4byte	.LFB146
 3066 001c 58000000 		.4byte	.LFE146
 3067 0020 00000000 		.4byte	.LFB219
ARM GAS  C:\Users\PCHAUT~1\AppData\Local\Temp\ccbWMeVG.s 			page 55


 3068 0024 54000000 		.4byte	.LFE219
 3069 0028 00000000 		.4byte	.LFB220
 3070 002c C4000000 		.4byte	.LFE220
 3071 0030 00000000 		.4byte	.LFB221
 3072 0034 94000000 		.4byte	.LFE221
 3073 0038 00000000 		.4byte	.LFB222
 3074 003c A8000000 		.4byte	.LFE222
 3075 0040 00000000 		.4byte	0
 3076 0044 00000000 		.4byte	0
 3077              		.section	.debug_line,"",%progbits
 3078              	.Ldebug_line0:
 3079 0000 5C050000 		.section	.debug_str,"MS",%progbits,1
 3079      02004404 
 3079      00000201 
 3079      FB0E0D00 
 3079      01010101 
 3080              	.LASF136:
 3081 0000 7466756E 		.ascii	"tfunc_t\000"
 3081      635F7400 
 3082              	.LASF61:
 3083 0008 72656164 		.ascii	"ready_list_t\000"
 3083      795F6C69 
 3083      73745F74 
 3083      00
 3084              	.LASF99:
 3085 0015 73655F74 		.ascii	"se_time\000"
 3085      696D6500 
 3086              	.LASF4:
 3087 001d 73697A65 		.ascii	"size_t\000"
 3087      5F7400
 3088              	.LASF164:
 3089 0024 6E657874 		.ascii	"next\000"
 3089      00
 3090              	.LASF120:
 3091 0029 7264796D 		.ascii	"rdymsg\000"
 3091      736700
 3092              	.LASF20:
 3093 0030 75696E74 		.ascii	"uint64_t\000"
 3093      36345F74 
 3093      00
 3094              	.LASF91:
 3095 0039 6B65726E 		.ascii	"kernel_stats\000"
 3095      656C5F73 
 3095      74617473 
 3095      00
 3096              	.LASF5:
 3097 0046 5F5F7569 		.ascii	"__uint8_t\000"
 3097      6E74385F 
 3097      7400
 3098              	.LASF98:
 3099 0050 706F7274 		.ascii	"port_intctx\000"
 3099      5F696E74 
 3099      63747800 
 3100              	.LASF60:
 3101 005c 63685F74 		.ascii	"ch_threads_queue\000"
 3101      68726561 
 3101      64735F71 
ARM GAS  C:\Users\PCHAUT~1\AppData\Local\Temp\ccbWMeVG.s 			page 56


 3101      75657565 
 3101      00
 3102              	.LASF80:
 3103 006d 73797374 		.ascii	"system_debug_t\000"
 3103      656D5F64 
 3103      65627567 
 3103      5F7400
 3104              	.LASF183:
 3105 007c 706F7274 		.ascii	"port_lock\000"
 3105      5F6C6F63 
 3105      6B00
 3106              	.LASF111:
 3107 0086 776F7273 		.ascii	"worst\000"
 3107      7400
 3108              	.LASF114:
 3109 008c 74696D65 		.ascii	"time_measurement_t\000"
 3109      5F6D6561 
 3109      73757265 
 3109      6D656E74 
 3109      5F7400
 3110              	.LASF15:
 3111 009f 6C6F6E67 		.ascii	"long long unsigned int\000"
 3111      206C6F6E 
 3111      6720756E 
 3111      7369676E 
 3111      65642069 
 3112              	.LASF107:
 3113 00b6 63685F74 		.ascii	"ch_trace_buffer_t\000"
 3113      72616365 
 3113      5F627566 
 3113      6665725F 
 3113      7400
 3114              	.LASF143:
 3115 00c8 63685F74 		.ascii	"ch_threadsize\000"
 3115      68726561 
 3115      6473697A 
 3115      6500
 3116              	.LASF121:
 3117 00d6 65786974 		.ascii	"exitcode\000"
 3117      636F6465 
 3117      00
 3118              	.LASF162:
 3119 00df 685F6672 		.ascii	"h_free\000"
 3119      656500
 3120              	.LASF77:
 3121 00e6 76697274 		.ascii	"virtual_timers_list_t\000"
 3121      75616C5F 
 3121      74696D65 
 3121      72735F6C 
 3121      6973745F 
 3122              	.LASF93:
 3123 00fc 49544D5F 		.ascii	"ITM_RxBuffer\000"
 3123      52784275 
 3123      66666572 
 3123      00
 3124              	.LASF177:
 3125 0109 68656170 		.ascii	"heapp\000"
ARM GAS  C:\Users\PCHAUT~1\AppData\Local\Temp\ccbWMeVG.s 			page 57


 3125      7000
 3126              	.LASF166:
 3127 010f 616C6967 		.ascii	"align\000"
 3127      6E00
 3128              	.LASF22:
 3129 0115 72747469 		.ascii	"rttime_t\000"
 3129      6D655F74 
 3129      00
 3130              	.LASF36:
 3131 011e 705F7072 		.ascii	"p_prio\000"
 3131      696F00
 3132              	.LASF150:
 3133 0125 63665F6F 		.ascii	"cf_off_state\000"
 3133      66665F73 
 3133      74617465 
 3133      00
 3134              	.LASF1:
 3135 0132 6C6F6E67 		.ascii	"long long int\000"
 3135      206C6F6E 
 3135      6720696E 
 3135      7400
 3136              	.LASF3:
 3137 0140 7369676E 		.ascii	"signed char\000"
 3137      65642063 
 3137      68617200 
 3138              	.LASF163:
 3139 014c 685F6D74 		.ascii	"h_mtx\000"
 3139      7800
 3140              	.LASF149:
 3141 0152 63665F6F 		.ascii	"cf_off_stklimit\000"
 3141      66665F73 
 3141      746B6C69 
 3141      6D697400 
 3142              	.LASF151:
 3143 0162 63665F6F 		.ascii	"cf_off_flags\000"
 3143      66665F66 
 3143      6C616773 
 3143      00
 3144              	.LASF53:
 3145 016f 705F6D70 		.ascii	"p_mpool\000"
 3145      6F6F6C00 
 3146              	.LASF131:
 3147 0177 6D5F7175 		.ascii	"m_queue\000"
 3147      65756500 
 3148              	.LASF89:
 3149 017f 76746C69 		.ascii	"vtlist\000"
 3149      737400
 3150              	.LASF182:
 3151 0186 706F7274 		.ascii	"port_unlock\000"
 3151      5F756E6C 
 3151      6F636B00 
 3152              	.LASF26:
 3153 0192 74736C69 		.ascii	"tslices_t\000"
 3153      6365735F 
 3153      7400
 3154              	.LASF123:
 3155 019c 77747472 		.ascii	"wttrp\000"
ARM GAS  C:\Users\PCHAUT~1\AppData\Local\Temp\ccbWMeVG.s 			page 58


 3155      7000
 3156              	.LASF87:
 3157 01a2 63685F73 		.ascii	"ch_system\000"
 3157      79737465 
 3157      6D00
 3158              	.LASF11:
 3159 01ac 6C6F6E67 		.ascii	"long int\000"
 3159      20696E74 
 3159      00
 3160              	.LASF176:
 3161 01b5 63685468 		.ascii	"chThdCreateFromHeap\000"
 3161      64437265 
 3161      61746546 
 3161      726F6D48 
 3161      65617000 
 3162              	.LASF184:
 3163 01c9 474E5520 		.ascii	"GNU C11 7.2.1 20170904 (release) [ARM/embedded-7-br"
 3163      43313120 
 3163      372E322E 
 3163      31203230 
 3163      31373039 
 3164 01fc 616E6368 		.ascii	"anch revision 255204] -mcpu=cortex-m4 -mfloat-abi=h"
 3164      20726576 
 3164      6973696F 
 3164      6E203235 
 3164      35323034 
 3165 022f 61726420 		.ascii	"ard -mfpu=fpv4-sp-d16 -mno-thumb-interwork -mthumb "
 3165      2D6D6670 
 3165      753D6670 
 3165      76342D73 
 3165      702D6431 
 3166 0262 2D676764 		.ascii	"-ggdb -O0 -fomit-frame-pointer -falign-functions=16"
 3166      62202D4F 
 3166      30202D66 
 3166      6F6D6974 
 3166      2D667261 
 3167 0295 202D666E 		.ascii	" -fno-strict-aliasing -fstack-protector-all -ffunct"
 3167      6F2D7374 
 3167      72696374 
 3167      2D616C69 
 3167      6173696E 
 3168 02c8 696F6E2D 		.ascii	"ion-sections -fdata-sections -fno-common -fsingle-p"
 3168      73656374 
 3168      696F6E73 
 3168      202D6664 
 3168      6174612D 
 3169 02fb 72656369 		.ascii	"recision-constant\000"
 3169      73696F6E 
 3169      2D636F6E 
 3169      7374616E 
 3169      7400
 3170              	.LASF24:
 3171 030d 74737461 		.ascii	"tstate_t\000"
 3171      74655F74 
 3171      00
 3172              	.LASF159:
 3173 0316 6D656D6F 		.ascii	"memory_heap_t\000"
ARM GAS  C:\Users\PCHAUT~1\AppData\Local\Temp\ccbWMeVG.s 			page 59


 3173      72795F68 
 3173      6561705F 
 3173      7400
 3174              	.LASF100:
 3175 0324 73655F74 		.ascii	"se_tp\000"
 3175      7000
 3176              	.LASF155:
 3177 032a 63686465 		.ascii	"chdebug_t\000"
 3177      6275675F 
 3177      7400
 3178              	.LASF38:
 3179 0334 705F6E65 		.ascii	"p_newer\000"
 3179      77657200 
 3180              	.LASF128:
 3181 033c 735F7175 		.ascii	"s_queue\000"
 3181      65756500 
 3182              	.LASF175:
 3183 0344 63685468 		.ascii	"chThdCreateFromMemoryPool\000"
 3183      64437265 
 3183      61746546 
 3183      726F6D4D 
 3183      656D6F72 
 3184              	.LASF104:
 3185 035e 74625F73 		.ascii	"tb_size\000"
 3185      697A6500 
 3186              	.LASF66:
 3187 0366 725F6E65 		.ascii	"r_newer\000"
 3187      77657200 
 3188              	.LASF172:
 3189 036e 6D705F70 		.ascii	"mp_provider\000"
 3189      726F7669 
 3189      64657200 
 3190              	.LASF95:
 3191 037a 72656761 		.ascii	"regarm_t\000"
 3191      726D5F74 
 3191      00
 3192              	.LASF73:
 3193 0383 76745F70 		.ascii	"vt_prev\000"
 3193      72657600 
 3194              	.LASF81:
 3195 038b 63685F73 		.ascii	"ch_system_debug\000"
 3195      79737465 
 3195      6D5F6465 
 3195      62756700 
 3196              	.LASF134:
 3197 039b 6D5F636E 		.ascii	"m_cnt\000"
 3197      7400
 3198              	.LASF157:
 3199 03a1 6D757465 		.ascii	"mutex_t\000"
 3199      785F7400 
 3200              	.LASF191:
 3201 03a9 76616C75 		.ascii	"value\000"
 3201      6500
 3202              	.LASF84:
 3203 03af 6C6F636B 		.ascii	"lock_cnt\000"
 3203      5F636E74 
 3203      00
ARM GAS  C:\Users\PCHAUT~1\AppData\Local\Temp\ccbWMeVG.s 			page 60


 3204              	.LASF92:
 3205 03b8 69646C65 		.ascii	"idle_thread_wa\000"
 3205      5F746872 
 3205      6561645F 
 3205      776100
 3206              	.LASF30:
 3207 03c7 636E745F 		.ascii	"cnt_t\000"
 3207      7400
 3208              	.LASF41:
 3209 03cd 705F7374 		.ascii	"p_stklimit\000"
 3209      6B6C696D 
 3209      697400
 3210              	.LASF0:
 3211 03d8 756E7369 		.ascii	"unsigned int\000"
 3211      676E6564 
 3211      20696E74 
 3211      00
 3212              	.LASF72:
 3213 03e5 76745F6E 		.ascii	"vt_next\000"
 3213      65787400 
 3214              	.LASF17:
 3215 03ed 75696E74 		.ascii	"uint16_t\000"
 3215      31365F74 
 3215      00
 3216              	.LASF94:
 3217 03f6 53797374 		.ascii	"SystemCoreClock\000"
 3217      656D436F 
 3217      7265436C 
 3217      6F636B00 
 3218              	.LASF46:
 3219 0406 705F7469 		.ascii	"p_time\000"
 3219      6D6500
 3220              	.LASF124:
 3221 040d 77747365 		.ascii	"wtsemp\000"
 3221      6D7000
 3222              	.LASF147:
 3223 0414 63665F6F 		.ascii	"cf_off_older\000"
 3223      66665F6F 
 3223      6C646572 
 3223      00
 3224              	.LASF74:
 3225 0421 76745F64 		.ascii	"vt_delta\000"
 3225      656C7461 
 3225      00
 3226              	.LASF48:
 3227 042a 705F6D73 		.ascii	"p_msgqueue\000"
 3227      67717565 
 3227      756500
 3228              	.LASF156:
 3229 0435 63685F64 		.ascii	"ch_debug\000"
 3229      65627567 
 3229      00
 3230              	.LASF142:
 3231 043e 63685F74 		.ascii	"ch_timesize\000"
 3231      696D6573 
 3231      697A6500 
 3232              	.LASF115:
ARM GAS  C:\Users\PCHAUT~1\AppData\Local\Temp\ccbWMeVG.s 			page 61


 3233 044a 6E5F6972 		.ascii	"n_irq\000"
 3233      7100
 3234              	.LASF129:
 3235 0450 735F636E 		.ascii	"s_cnt\000"
 3235      7400
 3236              	.LASF9:
 3237 0456 73686F72 		.ascii	"short unsigned int\000"
 3237      7420756E 
 3237      7369676E 
 3237      65642069 
 3237      6E7400
 3238              	.LASF119:
 3239 0469 6B65726E 		.ascii	"kernel_stats_t\000"
 3239      656C5F73 
 3239      74617473 
 3239      5F7400
 3240              	.LASF57:
 3241 0478 63685F74 		.ascii	"ch_thread\000"
 3241      68726561 
 3241      6400
 3242              	.LASF90:
 3243 0482 6D61696E 		.ascii	"mainthread\000"
 3243      74687265 
 3243      616400
 3244              	.LASF28:
 3245 048d 6D73675F 		.ascii	"msg_t\000"
 3245      7400
 3246              	.LASF112:
 3247 0493 6C617374 		.ascii	"last\000"
 3247      00
 3248              	.LASF31:
 3249 0498 75636E74 		.ascii	"ucnt_t\000"
 3249      5F7400
 3250              	.LASF86:
 3251 049f 63685F73 		.ascii	"ch_system_t\000"
 3251      79737465 
 3251      6D5F7400 
 3252              	.LASF154:
 3253 04ab 63665F6F 		.ascii	"cf_off_time\000"
 3253      66665F74 
 3253      696D6500 
 3254              	.LASF118:
 3255 04b7 6D5F6372 		.ascii	"m_crit_isr\000"
 3255      69745F69 
 3255      737200
 3256              	.LASF62:
 3257 04c2 63685F72 		.ascii	"ch_ready_list\000"
 3257      65616479 
 3257      5F6C6973 
 3257      7400
 3258              	.LASF29:
 3259 04d0 6576656E 		.ascii	"eventmask_t\000"
 3259      746D6173 
 3259      6B5F7400 
 3260              	.LASF10:
 3261 04dc 5F5F696E 		.ascii	"__int32_t\000"
 3261      7433325F 
ARM GAS  C:\Users\PCHAUT~1\AppData\Local\Temp\ccbWMeVG.s 			page 62


 3261      7400
 3262              	.LASF180:
 3263 04e6 63685468 		.ascii	"chThdAddRef\000"
 3263      64416464 
 3263      52656600 
 3264              	.LASF96:
 3265 04f2 73746B61 		.ascii	"stkalign_t\000"
 3265      6C69676E 
 3265      5F7400
 3266              	.LASF138:
 3267 04fd 63685F7A 		.ascii	"ch_zero\000"
 3267      65726F00 
 3268              	.LASF152:
 3269 0505 63665F6F 		.ascii	"cf_off_refs\000"
 3269      66665F72 
 3269      65667300 
 3270              	.LASF47:
 3271 0511 705F7761 		.ascii	"p_waiting\000"
 3271      6974696E 
 3271      6700
 3272              	.LASF21:
 3273 051b 7274636E 		.ascii	"rtcnt_t\000"
 3273      745F7400 
 3274              	.LASF78:
 3275 0523 63685F76 		.ascii	"ch_virtual_timers_list\000"
 3275      69727475 
 3275      616C5F74 
 3275      696D6572 
 3275      735F6C69 
 3276              	.LASF2:
 3277 053a 6C6F6E67 		.ascii	"long double\000"
 3277      20646F75 
 3277      626C6500 
 3278              	.LASF185:
 3279 0546 2E2E2F6C 		.ascii	"../lib/e-puck2_main-processor/ChibiOS//os/rt/src/ch"
 3279      69622F65 
 3279      2D707563 
 3279      6B325F6D 
 3279      61696E2D 
 3280 0579 64796E61 		.ascii	"dynamic.c\000"
 3280      6D69632E 
 3280      6300
 3281              	.LASF105:
 3282 0583 74625F70 		.ascii	"tb_ptr\000"
 3282      747200
 3283              	.LASF103:
 3284 058a 63685F73 		.ascii	"ch_swc_event_t\000"
 3284      77635F65 
 3284      76656E74 
 3284      5F7400
 3285              	.LASF148:
 3286 0599 63665F6F 		.ascii	"cf_off_name\000"
 3286      66665F6E 
 3286      616D6500 
 3287              	.LASF56:
 3288 05a5 74687265 		.ascii	"threads_list_t\000"
 3288      6164735F 
ARM GAS  C:\Users\PCHAUT~1\AppData\Local\Temp\ccbWMeVG.s 			page 63


 3288      6C697374 
 3288      5F7400
 3289              	.LASF39:
 3290 05b4 705F6F6C 		.ascii	"p_older\000"
 3290      64657200 
 3291              	.LASF65:
 3292 05bc 725F6374 		.ascii	"r_ctx\000"
 3292      7800
 3293              	.LASF37:
 3294 05c2 705F6374 		.ascii	"p_ctx\000"
 3294      7800
 3295              	.LASF171:
 3296 05c8 6D705F6F 		.ascii	"mp_object_size\000"
 3296      626A6563 
 3296      745F7369 
 3296      7A6500
 3297              	.LASF109:
 3298 05d7 746D5F63 		.ascii	"tm_calibration_t\000"
 3298      616C6962 
 3298      72617469 
 3298      6F6E5F74 
 3298      00
 3299              	.LASF174:
 3300 05e8 7072696F 		.ascii	"prio\000"
 3300      00
 3301              	.LASF67:
 3302 05ed 725F6F6C 		.ascii	"r_older\000"
 3302      64657200 
 3303              	.LASF14:
 3304 05f5 5F5F7569 		.ascii	"__uint64_t\000"
 3304      6E743634 
 3304      5F7400
 3305              	.LASF113:
 3306 0600 63756D75 		.ascii	"cumulative\000"
 3306      6C617469 
 3306      766500
 3307              	.LASF25:
 3308 060b 74726566 		.ascii	"trefs_t\000"
 3308      735F7400 
 3309              	.LASF106:
 3310 0613 74625F62 		.ascii	"tb_buffer\000"
 3310      75666665 
 3310      7200
 3311              	.LASF141:
 3312 061d 63685F70 		.ascii	"ch_ptrsize\000"
 3312      74727369 
 3312      7A6500
 3313              	.LASF178:
 3314 0628 72656673 		.ascii	"refs\000"
 3314      00
 3315              	.LASF70:
 3316 062d 76697274 		.ascii	"virtual_timer_t\000"
 3316      75616C5F 
 3316      74696D65 
 3316      725F7400 
 3317              	.LASF35:
 3318 063d 705F7072 		.ascii	"p_prev\000"
ARM GAS  C:\Users\PCHAUT~1\AppData\Local\Temp\ccbWMeVG.s 			page 64


 3318      657600
 3319              	.LASF27:
 3320 0644 74707269 		.ascii	"tprio_t\000"
 3320      6F5F7400 
 3321              	.LASF116:
 3322 064c 6E5F6374 		.ascii	"n_ctxswc\000"
 3322      78737763 
 3322      00
 3323              	.LASF18:
 3324 0655 696E7433 		.ascii	"int32_t\000"
 3324      325F7400 
 3325              	.LASF6:
 3326 065d 756E7369 		.ascii	"unsigned char\000"
 3326      676E6564 
 3326      20636861 
 3326      7200
 3327              	.LASF187:
 3328 066b 68656170 		.ascii	"heap_header\000"
 3328      5F686561 
 3328      64657200 
 3329              	.LASF51:
 3330 0677 705F6D74 		.ascii	"p_mtxlist\000"
 3330      786C6973 
 3330      7400
 3331              	.LASF7:
 3332 0681 73686F72 		.ascii	"short int\000"
 3332      7420696E 
 3332      7400
 3333              	.LASF42:
 3334 068b 705F7374 		.ascii	"p_state\000"
 3334      61746500 
 3335              	.LASF45:
 3336 0693 705F7072 		.ascii	"p_preempt\000"
 3336      65656D70 
 3336      7400
 3337              	.LASF64:
 3338 069d 725F7072 		.ascii	"r_prio\000"
 3338      696F00
 3339              	.LASF126:
 3340 06a4 65776D61 		.ascii	"ewmask\000"
 3340      736B00
 3341              	.LASF34:
 3342 06ab 705F6E65 		.ascii	"p_next\000"
 3342      787400
 3343              	.LASF23:
 3344 06b2 746D6F64 		.ascii	"tmode_t\000"
 3344      655F7400 
 3345              	.LASF153:
 3346 06ba 63665F6F 		.ascii	"cf_off_preempt\000"
 3346      66665F70 
 3346      7265656D 
 3346      707400
 3347              	.LASF43:
 3348 06c9 705F666C 		.ascii	"p_flags\000"
 3348      61677300 
 3349              	.LASF179:
 3350 06d1 5F5F6675 		.ascii	"__func__\000"
ARM GAS  C:\Users\PCHAUT~1\AppData\Local\Temp\ccbWMeVG.s 			page 65


 3350      6E635F5F 
 3350      00
 3351              	.LASF54:
 3352 06da 705F7374 		.ascii	"p_stats\000"
 3352      61747300 
 3353              	.LASF189:
 3354 06e2 63685379 		.ascii	"chSysLock\000"
 3354      734C6F63 
 3354      6B00
 3355              	.LASF188:
 3356 06ec 63685468 		.ascii	"chThdRelease\000"
 3356      6452656C 
 3356      65617365 
 3356      00
 3357              	.LASF186:
 3358 06f9 433A5C55 		.ascii	"C:\\Users\\Pchautems\\Documents\\RobotiqueTP\\Proje"
 3358      73657273 
 3358      5C506368 
 3358      61757465 
 3358      6D735C44 
 3359 0727 745C6D69 		.ascii	"t\\miniprojet\000"
 3359      6E697072 
 3359      6F6A6574 
 3359      00
 3360              	.LASF59:
 3361 0734 74687265 		.ascii	"threads_queue_t\000"
 3361      6164735F 
 3361      71756575 
 3361      655F7400 
 3362              	.LASF71:
 3363 0744 63685F76 		.ascii	"ch_virtual_timer\000"
 3363      69727475 
 3363      616C5F74 
 3363      696D6572 
 3363      00
 3364              	.LASF146:
 3365 0755 63665F6F 		.ascii	"cf_off_newer\000"
 3365      66665F6E 
 3365      65776572 
 3365      00
 3366              	.LASF127:
 3367 0762 63685F73 		.ascii	"ch_semaphore\000"
 3367      656D6170 
 3367      686F7265 
 3367      00
 3368              	.LASF50:
 3369 076f 705F6570 		.ascii	"p_epending\000"
 3369      656E6469 
 3369      6E6700
 3370              	.LASF19:
 3371 077a 75696E74 		.ascii	"uint32_t\000"
 3371      33325F74 
 3371      00
 3372              	.LASF144:
 3373 0783 63665F6F 		.ascii	"cf_off_prio\000"
 3373      66665F70 
 3373      72696F00 
ARM GAS  C:\Users\PCHAUT~1\AppData\Local\Temp\ccbWMeVG.s 			page 66


 3374              	.LASF63:
 3375 078f 725F7175 		.ascii	"r_queue\000"
 3375      65756500 
 3376              	.LASF58:
 3377 0797 63685F74 		.ascii	"ch_threads_list\000"
 3377      68726561 
 3377      64735F6C 
 3377      69737400 
 3378              	.LASF139:
 3379 07a7 63685F73 		.ascii	"ch_size\000"
 3379      697A6500 
 3380              	.LASF165:
 3381 07af 68656170 		.ascii	"heap\000"
 3381      00
 3382              	.LASF13:
 3383 07b4 6C6F6E67 		.ascii	"long unsigned int\000"
 3383      20756E73 
 3383      69676E65 
 3383      6420696E 
 3383      7400
 3384              	.LASF68:
 3385 07c6 725F6375 		.ascii	"r_current\000"
 3385      7272656E 
 3385      7400
 3386              	.LASF135:
 3387 07d0 63686172 		.ascii	"char\000"
 3387      00
 3388              	.LASF125:
 3389 07d5 77746D74 		.ascii	"wtmtxp\000"
 3389      787000
 3390              	.LASF8:
 3391 07dc 5F5F7569 		.ascii	"__uint16_t\000"
 3391      6E743136 
 3391      5F7400
 3392              	.LASF33:
 3393 07e7 74687265 		.ascii	"thread_t\000"
 3393      61645F74 
 3393      00
 3394              	.LASF110:
 3395 07f0 62657374 		.ascii	"best\000"
 3395      00
 3396              	.LASF133:
 3397 07f5 6D5F6E65 		.ascii	"m_next\000"
 3397      787400
 3398              	.LASF32:
 3399 07fc 73797374 		.ascii	"systime_t\000"
 3399      696D655F 
 3399      7400
 3400              	.LASF52:
 3401 0806 705F7265 		.ascii	"p_realprio\000"
 3401      616C7072 
 3401      696F00
 3402              	.LASF69:
 3403 0811 76746675 		.ascii	"vtfunc_t\000"
 3403      6E635F74 
 3403      00
 3404              	.LASF12:
ARM GAS  C:\Users\PCHAUT~1\AppData\Local\Temp\ccbWMeVG.s 			page 67


 3405 081a 5F5F7569 		.ascii	"__uint32_t\000"
 3405      6E743332 
 3405      5F7400
 3406              	.LASF190:
 3407 0825 5F5F7365 		.ascii	"__set_BASEPRI\000"
 3407      745F4241 
 3407      53455052 
 3407      4900
 3408              	.LASF82:
 3409 0833 70616E69 		.ascii	"panic_msg\000"
 3409      635F6D73 
 3409      6700
 3410              	.LASF173:
 3411 083d 6D656D6F 		.ascii	"memory_pool_t\000"
 3411      72795F70 
 3411      6F6F6C5F 
 3411      7400
 3412              	.LASF108:
 3413 084b 6F666673 		.ascii	"offset\000"
 3413      657400
 3414              	.LASF130:
 3415 0852 63685F6D 		.ascii	"ch_mutex\000"
 3415      75746578 
 3415      00
 3416              	.LASF170:
 3417 085b 6D705F6E 		.ascii	"mp_next\000"
 3417      65787400 
 3418              	.LASF97:
 3419 0863 636F6E74 		.ascii	"context\000"
 3419      65787400 
 3420              	.LASF49:
 3421 086b 705F6D73 		.ascii	"p_msg\000"
 3421      6700
 3422              	.LASF158:
 3423 0871 6D656D67 		.ascii	"memgetfunc_t\000"
 3423      65746675 
 3423      6E635F74 
 3423      00
 3424              	.LASF76:
 3425 087e 76745F70 		.ascii	"vt_par\000"
 3425      617200
 3426              	.LASF145:
 3427 0885 63665F6F 		.ascii	"cf_off_ctx\000"
 3427      66665F63 
 3427      747800
 3428              	.LASF168:
 3429 0890 706F6F6C 		.ascii	"pool_header\000"
 3429      5F686561 
 3429      64657200 
 3430              	.LASF44:
 3431 089c 705F7265 		.ascii	"p_refs\000"
 3431      667300
 3432              	.LASF83:
 3433 08a3 6973725F 		.ascii	"isr_cnt\000"
 3433      636E7400 
 3434              	.LASF102:
 3435 08ab 73655F73 		.ascii	"se_state\000"
ARM GAS  C:\Users\PCHAUT~1\AppData\Local\Temp\ccbWMeVG.s 			page 68


 3435      74617465 
 3435      00
 3436              	.LASF88:
 3437 08b4 726C6973 		.ascii	"rlist\000"
 3437      7400
 3438              	.LASF16:
 3439 08ba 75696E74 		.ascii	"uint8_t\000"
 3439      385F7400 
 3440              	.LASF161:
 3441 08c2 685F7072 		.ascii	"h_provider\000"
 3441      6F766964 
 3441      657200
 3442              	.LASF55:
 3443 08cd 74687265 		.ascii	"thread_reference_t\000"
 3443      61645F72 
 3443      65666572 
 3443      656E6365 
 3443      5F7400
 3444              	.LASF122:
 3445 08e0 77746F62 		.ascii	"wtobjp\000"
 3445      6A7000
 3446              	.LASF169:
 3447 08e7 70685F6E 		.ascii	"ph_next\000"
 3447      65787400 
 3448              	.LASF40:
 3449 08ef 705F6E61 		.ascii	"p_name\000"
 3449      6D6500
 3450              	.LASF167:
 3451 08f6 73697A65 		.ascii	"size\000"
 3451      00
 3452              	.LASF79:
 3453 08fb 76745F73 		.ascii	"vt_systime\000"
 3453      79737469 
 3453      6D6500
 3454              	.LASF85:
 3455 0906 74726163 		.ascii	"trace_buffer\000"
 3455      655F6275 
 3455      66666572 
 3455      00
 3456              	.LASF181:
 3457 0913 63685379 		.ascii	"chSysUnlock\000"
 3457      73556E6C 
 3457      6F636B00 
 3458              	.LASF140:
 3459 091f 63685F76 		.ascii	"ch_version\000"
 3459      65727369 
 3459      6F6E00
 3460              	.LASF117:
 3461 092a 6D5F6372 		.ascii	"m_crit_thd\000"
 3461      69745F74 
 3461      686400
 3462              	.LASF132:
 3463 0935 6D5F6F77 		.ascii	"m_owner\000"
 3463      6E657200 
 3464              	.LASF101:
 3465 093d 73655F77 		.ascii	"se_wtobjp\000"
 3465      746F626A 
ARM GAS  C:\Users\PCHAUT~1\AppData\Local\Temp\ccbWMeVG.s 			page 69


 3465      7000
 3466              	.LASF137:
 3467 0947 63685F69 		.ascii	"ch_identifier\000"
 3467      64656E74 
 3467      69666965 
 3467      7200
 3468              	.LASF75:
 3469 0955 76745F66 		.ascii	"vt_func\000"
 3469      756E6300 
 3470              	.LASF160:
 3471 095d 6D656D6F 		.ascii	"memory_heap\000"
 3471      72795F68 
 3471      65617000 
 3472              		.ident	"GCC: (GNU Tools for Arm Embedded Processors 7-2017-q4-major) 7.2.1 20170904 (release) [ARM
ARM GAS  C:\Users\PCHAUT~1\AppData\Local\Temp\ccbWMeVG.s 			page 70


DEFINED SYMBOLS
                            *ABS*:00000000 chdynamic.c
C:\Users\PCHAUT~1\AppData\Local\Temp\ccbWMeVG.s:18     .text.port_lock:00000000 $t
C:\Users\PCHAUT~1\AppData\Local\Temp\ccbWMeVG.s:25     .text.port_lock:00000000 port_lock
C:\Users\PCHAUT~1\AppData\Local\Temp\ccbWMeVG.s:72     .text.port_lock:0000002c $d
C:\Users\PCHAUT~1\AppData\Local\Temp\ccbWMeVG.s:77     .text.port_unlock:00000000 $t
C:\Users\PCHAUT~1\AppData\Local\Temp\ccbWMeVG.s:84     .text.port_unlock:00000000 port_unlock
C:\Users\PCHAUT~1\AppData\Local\Temp\ccbWMeVG.s:129    .text.port_unlock:0000002c $d
C:\Users\PCHAUT~1\AppData\Local\Temp\ccbWMeVG.s:134    .text.chSysLock:00000000 $t
C:\Users\PCHAUT~1\AppData\Local\Temp\ccbWMeVG.s:141    .text.chSysLock:00000000 chSysLock
C:\Users\PCHAUT~1\AppData\Local\Temp\ccbWMeVG.s:179    .text.chSysLock:0000002c $d
C:\Users\PCHAUT~1\AppData\Local\Temp\ccbWMeVG.s:184    .text.chSysUnlock:00000000 $t
C:\Users\PCHAUT~1\AppData\Local\Temp\ccbWMeVG.s:191    .text.chSysUnlock:00000000 chSysUnlock
C:\Users\PCHAUT~1\AppData\Local\Temp\ccbWMeVG.s:247    .text.chSysUnlock:0000004c $d
C:\Users\PCHAUT~1\AppData\Local\Temp\ccbWMeVG.s:682    .rodata.__func__.7153:00000000 __func__.7153
C:\Users\PCHAUT~1\AppData\Local\Temp\ccbWMeVG.s:254    .text.chThdAddRef:00000000 $t
C:\Users\PCHAUT~1\AppData\Local\Temp\ccbWMeVG.s:262    .text.chThdAddRef:00000000 chThdAddRef
C:\Users\PCHAUT~1\AppData\Local\Temp\ccbWMeVG.s:317    .text.chThdAddRef:0000004c $d
C:\Users\PCHAUT~1\AppData\Local\Temp\ccbWMeVG.s:676    .rodata.__func__.7849:00000000 __func__.7849
C:\Users\PCHAUT~1\AppData\Local\Temp\ccbWMeVG.s:323    .text.chThdRelease:00000000 $t
C:\Users\PCHAUT~1\AppData\Local\Temp\ccbWMeVG.s:331    .text.chThdRelease:00000000 chThdRelease
C:\Users\PCHAUT~1\AppData\Local\Temp\ccbWMeVG.s:447    .text.chThdRelease:000000bc $d
C:\Users\PCHAUT~1\AppData\Local\Temp\ccbWMeVG.s:688    .rodata.__func__.7854:00000000 __func__.7854
C:\Users\PCHAUT~1\AppData\Local\Temp\ccbWMeVG.s:453    .text.chThdCreateFromHeap:00000000 $t
C:\Users\PCHAUT~1\AppData\Local\Temp\ccbWMeVG.s:461    .text.chThdCreateFromHeap:00000000 chThdCreateFromHeap
C:\Users\PCHAUT~1\AppData\Local\Temp\ccbWMeVG.s:551    .text.chThdCreateFromHeap:00000090 $d
C:\Users\PCHAUT~1\AppData\Local\Temp\ccbWMeVG.s:556    .text.chThdCreateFromMemoryPool:00000000 $t
C:\Users\PCHAUT~1\AppData\Local\Temp\ccbWMeVG.s:564    .text.chThdCreateFromMemoryPool:00000000 chThdCreateFromMemoryPool
C:\Users\PCHAUT~1\AppData\Local\Temp\ccbWMeVG.s:667    .text.chThdCreateFromMemoryPool:000000a0 $d
C:\Users\PCHAUT~1\AppData\Local\Temp\ccbWMeVG.s:694    .rodata.__func__.7876:00000000 __func__.7876
C:\Users\PCHAUT~1\AppData\Local\Temp\ccbWMeVG.s:673    .rodata.__func__.7849:00000000 $d
C:\Users\PCHAUT~1\AppData\Local\Temp\ccbWMeVG.s:679    .rodata.__func__.7153:00000000 $d
C:\Users\PCHAUT~1\AppData\Local\Temp\ccbWMeVG.s:685    .rodata.__func__.7854:00000000 $d
C:\Users\PCHAUT~1\AppData\Local\Temp\ccbWMeVG.s:691    .rodata.__func__.7876:00000000 $d

UNDEFINED SYMBOLS
__stack_chk_fail
__stack_chk_guard
_stats_start_measure_crit_thd
_dbg_check_lock
_dbg_check_unlock
_stats_stop_measure_crit_thd
chSysHalt
ch
chHeapFree
chPoolFree
chHeapAlloc
_thread_memfill
chThdCreateI
chSchWakeupS
chPoolAlloc
