ARM GAS  C:\Users\PCHAUT~1\AppData\Local\Temp\cceHHvsU.s 			page 1


   1              		.cpu cortex-m4
   2              		.eabi_attribute 27, 1
   3              		.eabi_attribute 28, 1
   4              		.eabi_attribute 20, 1
   5              		.eabi_attribute 21, 1
   6              		.eabi_attribute 23, 3
   7              		.eabi_attribute 24, 1
   8              		.eabi_attribute 25, 1
   9              		.eabi_attribute 26, 1
  10              		.eabi_attribute 30, 6
  11              		.eabi_attribute 34, 1
  12              		.eabi_attribute 18, 4
  13              		.file	"chevents.c"
  14              		.text
  15              	.Ltext0:
  16              		.cfi_sections	.debug_frame
  17              		.section	.text.port_lock,"ax",%progbits
  18              		.align	1
  19              		.p2align 4,,15
  20              		.syntax unified
  21              		.thumb
  22              		.thumb_func
  23              		.fpu fpv4-sp-d16
  24              		.type	port_lock, %function
  25              	port_lock:
  26              	.LFB116:
  27              		.file 1 "../lib/e-puck2_main-processor/ChibiOS//os/rt/ports/ARMCMx/chcore_v7m.h"
  28              		.loc 1 444 0
  29              		.cfi_startproc
  30              		@ args = 0, pretend = 0, frame = 8
  31              		@ frame_needed = 0, uses_anonymous_args = 0
  32 0000 00B5     		push	{lr}
  33              		.cfi_def_cfa_offset 4
  34              		.cfi_offset 14, -4
  35 0002 83B0     		sub	sp, sp, #12
  36              		.cfi_def_cfa_offset 16
  37              		.loc 1 444 0
  38 0004 094B     		ldr	r3, .L3
  39 0006 1B68     		ldr	r3, [r3]
  40 0008 0193     		str	r3, [sp, #4]
  41 000a 2023     		movs	r3, #32
  42 000c 0093     		str	r3, [sp]
  43              	.LBB6:
  44              	.LBB7:
  45              		.file 2 "../lib/e-puck2_main-processor/ChibiOS//os/ext/CMSIS/include/core_cmFunc.h"
  46              		.loc 2 546 0
  47 000e 009B     		ldr	r3, [sp]
  48              		.syntax unified
  49              	@ 546 "../lib/e-puck2_main-processor/ChibiOS//os/ext/CMSIS/include/core_cmFunc.h" 1
  50 0010 83F31188 		MSR basepri, r3
  51              	@ 0 "" 2
  52              		.thumb
  53              		.syntax unified
  54              	.LBE7:
  55              	.LBE6:
  56              		.loc 1 451 0
  57 0014 00BF     		nop
ARM GAS  C:\Users\PCHAUT~1\AppData\Local\Temp\cceHHvsU.s 			page 2


  58 0016 054B     		ldr	r3, .L3
  59 0018 019A     		ldr	r2, [sp, #4]
  60 001a 1B68     		ldr	r3, [r3]
  61 001c 9A42     		cmp	r2, r3
  62 001e 01D0     		beq	.L2
  63 0020 FFF7FEFF 		bl	__stack_chk_fail
  64              	.L2:
  65 0024 03B0     		add	sp, sp, #12
  66              		.cfi_def_cfa_offset 4
  67              		@ sp needed
  68 0026 5DF804FB 		ldr	pc, [sp], #4
  69              	.L4:
  70 002a 00BF     		.align	2
  71              	.L3:
  72 002c 00000000 		.word	__stack_chk_guard
  73              		.cfi_endproc
  74              	.LFE116:
  75              		.size	port_lock, .-port_lock
  76              		.section	.text.port_unlock,"ax",%progbits
  77              		.align	1
  78              		.p2align 4,,15
  79              		.syntax unified
  80              		.thumb
  81              		.thumb_func
  82              		.fpu fpv4-sp-d16
  83              		.type	port_unlock, %function
  84              	port_unlock:
  85              	.LFB117:
  86              		.loc 1 458 0
  87              		.cfi_startproc
  88              		@ args = 0, pretend = 0, frame = 8
  89              		@ frame_needed = 0, uses_anonymous_args = 0
  90 0000 00B5     		push	{lr}
  91              		.cfi_def_cfa_offset 4
  92              		.cfi_offset 14, -4
  93 0002 83B0     		sub	sp, sp, #12
  94              		.cfi_def_cfa_offset 16
  95              		.loc 1 458 0
  96 0004 094B     		ldr	r3, .L7
  97 0006 1B68     		ldr	r3, [r3]
  98 0008 0193     		str	r3, [sp, #4]
  99 000a 0023     		movs	r3, #0
 100 000c 0093     		str	r3, [sp]
 101              	.LBB8:
 102              	.LBB9:
 103              		.loc 2 546 0
 104 000e 009B     		ldr	r3, [sp]
 105              		.syntax unified
 106              	@ 546 "../lib/e-puck2_main-processor/ChibiOS//os/ext/CMSIS/include/core_cmFunc.h" 1
 107 0010 83F31188 		MSR basepri, r3
 108              	@ 0 "" 2
 109              		.thumb
 110              		.syntax unified
 111              	.LBE9:
 112              	.LBE8:
 113              		.loc 1 465 0
 114 0014 00BF     		nop
ARM GAS  C:\Users\PCHAUT~1\AppData\Local\Temp\cceHHvsU.s 			page 3


 115 0016 054B     		ldr	r3, .L7
 116 0018 019A     		ldr	r2, [sp, #4]
 117 001a 1B68     		ldr	r3, [r3]
 118 001c 9A42     		cmp	r2, r3
 119 001e 01D0     		beq	.L6
 120 0020 FFF7FEFF 		bl	__stack_chk_fail
 121              	.L6:
 122 0024 03B0     		add	sp, sp, #12
 123              		.cfi_def_cfa_offset 4
 124              		@ sp needed
 125 0026 5DF804FB 		ldr	pc, [sp], #4
 126              	.L8:
 127 002a 00BF     		.align	2
 128              	.L7:
 129 002c 00000000 		.word	__stack_chk_guard
 130              		.cfi_endproc
 131              	.LFE117:
 132              		.size	port_unlock, .-port_unlock
 133              		.section	.text.chSysLock,"ax",%progbits
 134              		.align	1
 135              		.p2align 4,,15
 136              		.syntax unified
 137              		.thumb
 138              		.thumb_func
 139              		.fpu fpv4-sp-d16
 140              		.type	chSysLock, %function
 141              	chSysLock:
 142              	.LFB145:
 143              		.file 3 "../lib/e-puck2_main-processor/ChibiOS//os/rt/include/chsys.h"
 144              		.loc 3 346 0
 145              		.cfi_startproc
 146              		@ args = 0, pretend = 0, frame = 8
 147              		@ frame_needed = 0, uses_anonymous_args = 0
 148 0000 00B5     		push	{lr}
 149              		.cfi_def_cfa_offset 4
 150              		.cfi_offset 14, -4
 151 0002 83B0     		sub	sp, sp, #12
 152              		.cfi_def_cfa_offset 16
 153              		.loc 3 346 0
 154 0004 094B     		ldr	r3, .L11
 155 0006 1B68     		ldr	r3, [r3]
 156 0008 0193     		str	r3, [sp, #4]
 157              		.loc 3 348 0
 158 000a FFF7FEFF 		bl	port_lock
 159              		.loc 3 349 0
 160 000e FFF7FEFF 		bl	_stats_start_measure_crit_thd
 161              		.loc 3 350 0
 162 0012 FFF7FEFF 		bl	_dbg_check_lock
 163              		.loc 3 351 0
 164 0016 00BF     		nop
 165 0018 044B     		ldr	r3, .L11
 166 001a 019A     		ldr	r2, [sp, #4]
 167 001c 1B68     		ldr	r3, [r3]
 168 001e 9A42     		cmp	r2, r3
 169 0020 01D0     		beq	.L10
 170 0022 FFF7FEFF 		bl	__stack_chk_fail
 171              	.L10:
ARM GAS  C:\Users\PCHAUT~1\AppData\Local\Temp\cceHHvsU.s 			page 4


 172 0026 03B0     		add	sp, sp, #12
 173              		.cfi_def_cfa_offset 4
 174              		@ sp needed
 175 0028 5DF804FB 		ldr	pc, [sp], #4
 176              	.L12:
 177              		.align	2
 178              	.L11:
 179 002c 00000000 		.word	__stack_chk_guard
 180              		.cfi_endproc
 181              	.LFE145:
 182              		.size	chSysLock, .-chSysLock
 183              		.section	.text.chSysUnlock,"ax",%progbits
 184              		.align	1
 185              		.p2align 4,,15
 186              		.syntax unified
 187              		.thumb
 188              		.thumb_func
 189              		.fpu fpv4-sp-d16
 190              		.type	chSysUnlock, %function
 191              	chSysUnlock:
 192              	.LFB146:
 193              		.loc 3 358 0
 194              		.cfi_startproc
 195              		@ args = 0, pretend = 0, frame = 8
 196              		@ frame_needed = 0, uses_anonymous_args = 0
 197 0000 00B5     		push	{lr}
 198              		.cfi_def_cfa_offset 4
 199              		.cfi_offset 14, -4
 200 0002 83B0     		sub	sp, sp, #12
 201              		.cfi_def_cfa_offset 16
 202              		.loc 3 358 0
 203 0004 114B     		ldr	r3, .L16
 204 0006 1B68     		ldr	r3, [r3]
 205 0008 0193     		str	r3, [sp, #4]
 206              		.loc 3 360 0
 207 000a FFF7FEFF 		bl	_dbg_check_unlock
 208              		.loc 3 361 0
 209 000e FFF7FEFF 		bl	_stats_stop_measure_crit_thd
 210              		.loc 3 367 0
 211 0012 0F4B     		ldr	r3, .L16+4
 212 0014 1B68     		ldr	r3, [r3]
 213 0016 0E4A     		ldr	r2, .L16+4
 214 0018 9342     		cmp	r3, r2
 215 001a 0AD0     		beq	.L14
 216              		.loc 3 367 0 is_stmt 0 discriminator 2
 217 001c 0C4B     		ldr	r3, .L16+4
 218 001e 9B69     		ldr	r3, [r3, #24]
 219 0020 9A68     		ldr	r2, [r3, #8]
 220 0022 0B4B     		ldr	r3, .L16+4
 221 0024 1B68     		ldr	r3, [r3]
 222 0026 9B68     		ldr	r3, [r3, #8]
 223 0028 9A42     		cmp	r2, r3
 224 002a 02D2     		bcs	.L14
 225              		.loc 3 367 0 discriminator 3
 226 002c 0948     		ldr	r0, .L16+8
 227 002e FFF7FEFF 		bl	chSysHalt
 228              	.L14:
ARM GAS  C:\Users\PCHAUT~1\AppData\Local\Temp\cceHHvsU.s 			page 5


 229              		.loc 3 371 0 is_stmt 1
 230 0032 FFF7FEFF 		bl	port_unlock
 231              		.loc 3 372 0
 232 0036 00BF     		nop
 233 0038 044B     		ldr	r3, .L16
 234 003a 019A     		ldr	r2, [sp, #4]
 235 003c 1B68     		ldr	r3, [r3]
 236 003e 9A42     		cmp	r2, r3
 237 0040 01D0     		beq	.L15
 238 0042 FFF7FEFF 		bl	__stack_chk_fail
 239              	.L15:
 240 0046 03B0     		add	sp, sp, #12
 241              		.cfi_def_cfa_offset 4
 242              		@ sp needed
 243 0048 5DF804FB 		ldr	pc, [sp], #4
 244              	.L17:
 245              		.align	2
 246              	.L16:
 247 004c 00000000 		.word	__stack_chk_guard
 248 0050 00000000 		.word	ch
 249 0054 00000000 		.word	__func__.7153
 250              		.cfi_endproc
 251              	.LFE146:
 252              		.size	chSysUnlock, .-chSysUnlock
 253              		.section	.text.chEvtRegisterMaskWithFlags,"ax",%progbits
 254              		.align	1
 255              		.p2align 4,,15
 256              		.global	chEvtRegisterMaskWithFlags
 257              		.syntax unified
 258              		.thumb
 259              		.thumb_func
 260              		.fpu fpv4-sp-d16
 261              		.type	chEvtRegisterMaskWithFlags, %function
 262              	chEvtRegisterMaskWithFlags:
 263              	.LFB219:
 264              		.file 4 "../lib/e-puck2_main-processor/ChibiOS//os/rt/src/chevents.c"
 265              		.loc 4 106 0
 266              		.cfi_startproc
 267              		@ args = 0, pretend = 0, frame = 24
 268              		@ frame_needed = 0, uses_anonymous_args = 0
 269 0000 00B5     		push	{lr}
 270              		.cfi_def_cfa_offset 4
 271              		.cfi_offset 14, -4
 272 0002 87B0     		sub	sp, sp, #28
 273              		.cfi_def_cfa_offset 32
 274 0004 0390     		str	r0, [sp, #12]
 275 0006 0291     		str	r1, [sp, #8]
 276 0008 0192     		str	r2, [sp, #4]
 277 000a 0093     		str	r3, [sp]
 278              		.loc 4 106 0
 279 000c 174B     		ldr	r3, .L22
 280 000e 1B68     		ldr	r3, [r3]
 281 0010 0593     		str	r3, [sp, #20]
 282              		.loc 4 108 0
 283 0012 039B     		ldr	r3, [sp, #12]
 284 0014 002B     		cmp	r3, #0
 285 0016 02D0     		beq	.L19
ARM GAS  C:\Users\PCHAUT~1\AppData\Local\Temp\cceHHvsU.s 			page 6


 286              		.loc 4 108 0 is_stmt 0 discriminator 3
 287 0018 029B     		ldr	r3, [sp, #8]
 288 001a 002B     		cmp	r3, #0
 289 001c 02D1     		bne	.L20
 290              	.L19:
 291              		.loc 4 108 0 discriminator 4
 292 001e 1448     		ldr	r0, .L22+4
 293 0020 FFF7FEFF 		bl	chSysHalt
 294              	.L20:
 295              		.loc 4 110 0 is_stmt 1
 296 0024 FFF7FEFF 		bl	chSysLock
 297              		.loc 4 111 0
 298 0028 039B     		ldr	r3, [sp, #12]
 299 002a 1A68     		ldr	r2, [r3]
 300 002c 029B     		ldr	r3, [sp, #8]
 301 002e 1A60     		str	r2, [r3]
 302              		.loc 4 112 0
 303 0030 039B     		ldr	r3, [sp, #12]
 304 0032 029A     		ldr	r2, [sp, #8]
 305 0034 1A60     		str	r2, [r3]
 306              		.loc 4 113 0
 307 0036 0F4B     		ldr	r3, .L22+8
 308 0038 9A69     		ldr	r2, [r3, #24]
 309 003a 029B     		ldr	r3, [sp, #8]
 310 003c 5A60     		str	r2, [r3, #4]
 311              		.loc 4 114 0
 312 003e 029B     		ldr	r3, [sp, #8]
 313 0040 019A     		ldr	r2, [sp, #4]
 314 0042 9A60     		str	r2, [r3, #8]
 315              		.loc 4 115 0
 316 0044 029B     		ldr	r3, [sp, #8]
 317 0046 0022     		movs	r2, #0
 318 0048 DA60     		str	r2, [r3, #12]
 319              		.loc 4 116 0
 320 004a 029B     		ldr	r3, [sp, #8]
 321 004c 009A     		ldr	r2, [sp]
 322 004e 1A61     		str	r2, [r3, #16]
 323              		.loc 4 117 0
 324 0050 FFF7FEFF 		bl	chSysUnlock
 325              		.loc 4 118 0
 326 0054 00BF     		nop
 327 0056 054B     		ldr	r3, .L22
 328 0058 059A     		ldr	r2, [sp, #20]
 329 005a 1B68     		ldr	r3, [r3]
 330 005c 9A42     		cmp	r2, r3
 331 005e 01D0     		beq	.L21
 332 0060 FFF7FEFF 		bl	__stack_chk_fail
 333              	.L21:
 334 0064 07B0     		add	sp, sp, #28
 335              		.cfi_def_cfa_offset 4
 336              		@ sp needed
 337 0066 5DF804FB 		ldr	pc, [sp], #4
 338              	.L23:
 339 006a 00BF     		.align	2
 340              	.L22:
 341 006c 00000000 		.word	__stack_chk_guard
 342 0070 00000000 		.word	__func__.7852
ARM GAS  C:\Users\PCHAUT~1\AppData\Local\Temp\cceHHvsU.s 			page 7


 343 0074 00000000 		.word	ch
 344              		.cfi_endproc
 345              	.LFE219:
 346              		.size	chEvtRegisterMaskWithFlags, .-chEvtRegisterMaskWithFlags
 347              		.section	.text.chEvtUnregister,"ax",%progbits
 348              		.align	1
 349              		.p2align 4,,15
 350              		.global	chEvtUnregister
 351              		.syntax unified
 352              		.thumb
 353              		.thumb_func
 354              		.fpu fpv4-sp-d16
 355              		.type	chEvtUnregister, %function
 356              	chEvtUnregister:
 357              	.LFB220:
 358              		.loc 4 133 0
 359              		.cfi_startproc
 360              		@ args = 0, pretend = 0, frame = 16
 361              		@ frame_needed = 0, uses_anonymous_args = 0
 362 0000 00B5     		push	{lr}
 363              		.cfi_def_cfa_offset 4
 364              		.cfi_offset 14, -4
 365 0002 85B0     		sub	sp, sp, #20
 366              		.cfi_def_cfa_offset 24
 367 0004 0190     		str	r0, [sp, #4]
 368 0006 0091     		str	r1, [sp]
 369              		.loc 4 133 0
 370 0008 174B     		ldr	r3, .L32
 371 000a 1B68     		ldr	r3, [r3]
 372 000c 0393     		str	r3, [sp, #12]
 373              		.loc 4 136 0
 374 000e 019B     		ldr	r3, [sp, #4]
 375 0010 002B     		cmp	r3, #0
 376 0012 02D0     		beq	.L25
 377              		.loc 4 136 0 is_stmt 0 discriminator 3
 378 0014 009B     		ldr	r3, [sp]
 379 0016 002B     		cmp	r3, #0
 380 0018 02D1     		bne	.L26
 381              	.L25:
 382              		.loc 4 136 0 discriminator 4
 383 001a 1448     		ldr	r0, .L32+4
 384 001c FFF7FEFF 		bl	chSysHalt
 385              	.L26:
 386              		.loc 4 139 0 is_stmt 1
 387 0020 019B     		ldr	r3, [sp, #4]
 388 0022 0293     		str	r3, [sp, #8]
 389              		.loc 4 141 0
 390 0024 FFF7FEFF 		bl	chSysLock
 391              		.loc 4 143 0
 392 0028 0CE0     		b	.L27
 393              	.L30:
 394              		.loc 4 145 0
 395 002a 029B     		ldr	r3, [sp, #8]
 396 002c 1B68     		ldr	r3, [r3]
 397 002e 009A     		ldr	r2, [sp]
 398 0030 9A42     		cmp	r2, r3
 399 0032 04D1     		bne	.L28
ARM GAS  C:\Users\PCHAUT~1\AppData\Local\Temp\cceHHvsU.s 			page 8


 400              		.loc 4 146 0
 401 0034 009B     		ldr	r3, [sp]
 402 0036 1A68     		ldr	r2, [r3]
 403 0038 029B     		ldr	r3, [sp, #8]
 404 003a 1A60     		str	r2, [r3]
 405              		.loc 4 147 0
 406 003c 07E0     		b	.L29
 407              	.L28:
 408              		.loc 4 149 0
 409 003e 029B     		ldr	r3, [sp, #8]
 410 0040 1B68     		ldr	r3, [r3]
 411 0042 0293     		str	r3, [sp, #8]
 412              	.L27:
 413              		.loc 4 143 0
 414 0044 029B     		ldr	r3, [sp, #8]
 415 0046 1B68     		ldr	r3, [r3]
 416 0048 019A     		ldr	r2, [sp, #4]
 417 004a 9A42     		cmp	r2, r3
 418 004c EDD1     		bne	.L30
 419              	.L29:
 420              		.loc 4 151 0
 421 004e FFF7FEFF 		bl	chSysUnlock
 422              		.loc 4 152 0
 423 0052 00BF     		nop
 424 0054 044B     		ldr	r3, .L32
 425 0056 039A     		ldr	r2, [sp, #12]
 426 0058 1B68     		ldr	r3, [r3]
 427 005a 9A42     		cmp	r2, r3
 428 005c 01D0     		beq	.L31
 429 005e FFF7FEFF 		bl	__stack_chk_fail
 430              	.L31:
 431 0062 05B0     		add	sp, sp, #20
 432              		.cfi_def_cfa_offset 4
 433              		@ sp needed
 434 0064 5DF804FB 		ldr	pc, [sp], #4
 435              	.L33:
 436              		.align	2
 437              	.L32:
 438 0068 00000000 		.word	__stack_chk_guard
 439 006c 00000000 		.word	__func__.7858
 440              		.cfi_endproc
 441              	.LFE220:
 442              		.size	chEvtUnregister, .-chEvtUnregister
 443              		.section	.text.chEvtGetAndClearEvents,"ax",%progbits
 444              		.align	1
 445              		.p2align 4,,15
 446              		.global	chEvtGetAndClearEvents
 447              		.syntax unified
 448              		.thumb
 449              		.thumb_func
 450              		.fpu fpv4-sp-d16
 451              		.type	chEvtGetAndClearEvents, %function
 452              	chEvtGetAndClearEvents:
 453              	.LFB221:
 454              		.loc 4 162 0
 455              		.cfi_startproc
 456              		@ args = 0, pretend = 0, frame = 16
ARM GAS  C:\Users\PCHAUT~1\AppData\Local\Temp\cceHHvsU.s 			page 9


 457              		@ frame_needed = 0, uses_anonymous_args = 0
 458 0000 00B5     		push	{lr}
 459              		.cfi_def_cfa_offset 4
 460              		.cfi_offset 14, -4
 461 0002 85B0     		sub	sp, sp, #20
 462              		.cfi_def_cfa_offset 24
 463 0004 0190     		str	r0, [sp, #4]
 464              		.loc 4 162 0
 465 0006 114B     		ldr	r3, .L37
 466 0008 1B68     		ldr	r3, [r3]
 467 000a 0393     		str	r3, [sp, #12]
 468              		.loc 4 165 0
 469 000c FFF7FEFF 		bl	chSysLock
 470              		.loc 4 166 0
 471 0010 0F4B     		ldr	r3, .L37+4
 472 0012 9B69     		ldr	r3, [r3, #24]
 473 0014 DB6B     		ldr	r3, [r3, #60]
 474 0016 019A     		ldr	r2, [sp, #4]
 475 0018 1340     		ands	r3, r3, r2
 476 001a 0293     		str	r3, [sp, #8]
 477              		.loc 4 167 0
 478 001c 0C4B     		ldr	r3, .L37+4
 479 001e 9B69     		ldr	r3, [r3, #24]
 480 0020 D96B     		ldr	r1, [r3, #60]
 481 0022 019B     		ldr	r3, [sp, #4]
 482 0024 DA43     		mvns	r2, r3
 483 0026 0A4B     		ldr	r3, .L37+4
 484 0028 9B69     		ldr	r3, [r3, #24]
 485 002a 0A40     		ands	r2, r2, r1
 486 002c DA63     		str	r2, [r3, #60]
 487              		.loc 4 168 0
 488 002e FFF7FEFF 		bl	chSysUnlock
 489              		.loc 4 170 0
 490 0032 029B     		ldr	r3, [sp, #8]
 491              		.loc 4 171 0
 492 0034 1846     		mov	r0, r3
 493 0036 054B     		ldr	r3, .L37
 494 0038 039A     		ldr	r2, [sp, #12]
 495 003a 1B68     		ldr	r3, [r3]
 496 003c 9A42     		cmp	r2, r3
 497 003e 01D0     		beq	.L36
 498 0040 FFF7FEFF 		bl	__stack_chk_fail
 499              	.L36:
 500 0044 05B0     		add	sp, sp, #20
 501              		.cfi_def_cfa_offset 4
 502              		@ sp needed
 503 0046 5DF804FB 		ldr	pc, [sp], #4
 504              	.L38:
 505 004a 00BF     		.align	2
 506              	.L37:
 507 004c 00000000 		.word	__stack_chk_guard
 508 0050 00000000 		.word	ch
 509              		.cfi_endproc
 510              	.LFE221:
 511              		.size	chEvtGetAndClearEvents, .-chEvtGetAndClearEvents
 512              		.section	.text.chEvtAddEvents,"ax",%progbits
 513              		.align	1
ARM GAS  C:\Users\PCHAUT~1\AppData\Local\Temp\cceHHvsU.s 			page 10


 514              		.p2align 4,,15
 515              		.global	chEvtAddEvents
 516              		.syntax unified
 517              		.thumb
 518              		.thumb_func
 519              		.fpu fpv4-sp-d16
 520              		.type	chEvtAddEvents, %function
 521              	chEvtAddEvents:
 522              	.LFB222:
 523              		.loc 4 182 0
 524              		.cfi_startproc
 525              		@ args = 0, pretend = 0, frame = 16
 526              		@ frame_needed = 0, uses_anonymous_args = 0
 527 0000 00B5     		push	{lr}
 528              		.cfi_def_cfa_offset 4
 529              		.cfi_offset 14, -4
 530 0002 85B0     		sub	sp, sp, #20
 531              		.cfi_def_cfa_offset 24
 532 0004 0190     		str	r0, [sp, #4]
 533              		.loc 4 182 0
 534 0006 0F4B     		ldr	r3, .L42
 535 0008 1B68     		ldr	r3, [r3]
 536 000a 0393     		str	r3, [sp, #12]
 537              		.loc 4 184 0
 538 000c FFF7FEFF 		bl	chSysLock
 539              		.loc 4 185 0
 540 0010 0D4B     		ldr	r3, .L42+4
 541 0012 9B69     		ldr	r3, [r3, #24]
 542 0014 D96B     		ldr	r1, [r3, #60]
 543 0016 0C4B     		ldr	r3, .L42+4
 544 0018 9B69     		ldr	r3, [r3, #24]
 545 001a 019A     		ldr	r2, [sp, #4]
 546 001c 0A43     		orrs	r2, r2, r1
 547 001e DA63     		str	r2, [r3, #60]
 548              		.loc 4 186 0
 549 0020 094B     		ldr	r3, .L42+4
 550 0022 9B69     		ldr	r3, [r3, #24]
 551 0024 DB6B     		ldr	r3, [r3, #60]
 552 0026 0193     		str	r3, [sp, #4]
 553              		.loc 4 187 0
 554 0028 FFF7FEFF 		bl	chSysUnlock
 555              		.loc 4 189 0
 556 002c 019B     		ldr	r3, [sp, #4]
 557              		.loc 4 190 0
 558 002e 1846     		mov	r0, r3
 559 0030 044B     		ldr	r3, .L42
 560 0032 039A     		ldr	r2, [sp, #12]
 561 0034 1B68     		ldr	r3, [r3]
 562 0036 9A42     		cmp	r2, r3
 563 0038 01D0     		beq	.L41
 564 003a FFF7FEFF 		bl	__stack_chk_fail
 565              	.L41:
 566 003e 05B0     		add	sp, sp, #20
 567              		.cfi_def_cfa_offset 4
 568              		@ sp needed
 569 0040 5DF804FB 		ldr	pc, [sp], #4
 570              	.L43:
ARM GAS  C:\Users\PCHAUT~1\AppData\Local\Temp\cceHHvsU.s 			page 11


 571              		.align	2
 572              	.L42:
 573 0044 00000000 		.word	__stack_chk_guard
 574 0048 00000000 		.word	ch
 575              		.cfi_endproc
 576              	.LFE222:
 577              		.size	chEvtAddEvents, .-chEvtAddEvents
 578              		.section	.text.chEvtBroadcastFlagsI,"ax",%progbits
 579              		.align	1
 580              		.p2align 4,,15
 581              		.global	chEvtBroadcastFlagsI
 582              		.syntax unified
 583              		.thumb
 584              		.thumb_func
 585              		.fpu fpv4-sp-d16
 586              		.type	chEvtBroadcastFlagsI, %function
 587              	chEvtBroadcastFlagsI:
 588              	.LFB223:
 589              		.loc 4 209 0
 590              		.cfi_startproc
 591              		@ args = 0, pretend = 0, frame = 16
 592              		@ frame_needed = 0, uses_anonymous_args = 0
 593 0000 00B5     		push	{lr}
 594              		.cfi_def_cfa_offset 4
 595              		.cfi_offset 14, -4
 596 0002 85B0     		sub	sp, sp, #20
 597              		.cfi_def_cfa_offset 24
 598 0004 0190     		str	r0, [sp, #4]
 599 0006 0091     		str	r1, [sp]
 600              		.loc 4 209 0
 601 0008 1C4B     		ldr	r3, .L51
 602 000a 1B68     		ldr	r3, [r3]
 603 000c 0393     		str	r3, [sp, #12]
 604              		.loc 4 212 0
 605 000e FFF7FEFF 		bl	chDbgCheckClassI
 606              		.loc 4 213 0
 607 0012 019B     		ldr	r3, [sp, #4]
 608 0014 002B     		cmp	r3, #0
 609 0016 02D1     		bne	.L45
 610              		.loc 4 213 0 is_stmt 0 discriminator 2
 611 0018 1948     		ldr	r0, .L51+4
 612 001a FFF7FEFF 		bl	chSysHalt
 613              	.L45:
 614              		.loc 4 215 0 is_stmt 1
 615 001e 019B     		ldr	r3, [sp, #4]
 616 0020 1B68     		ldr	r3, [r3]
 617 0022 0293     		str	r3, [sp, #8]
 618              		.loc 4 217 0
 619 0024 1AE0     		b	.L46
 620              	.L49:
 621              		.loc 4 219 0
 622 0026 029B     		ldr	r3, [sp, #8]
 623 0028 DA68     		ldr	r2, [r3, #12]
 624 002a 009B     		ldr	r3, [sp]
 625 002c 1A43     		orrs	r2, r2, r3
 626 002e 029B     		ldr	r3, [sp, #8]
 627 0030 DA60     		str	r2, [r3, #12]
ARM GAS  C:\Users\PCHAUT~1\AppData\Local\Temp\cceHHvsU.s 			page 12


 628              		.loc 4 222 0
 629 0032 009B     		ldr	r3, [sp]
 630 0034 002B     		cmp	r3, #0
 631 0036 06D0     		beq	.L47
 632              		.loc 4 223 0 discriminator 1
 633 0038 029B     		ldr	r3, [sp, #8]
 634 003a DA68     		ldr	r2, [r3, #12]
 635 003c 029B     		ldr	r3, [sp, #8]
 636 003e 1B69     		ldr	r3, [r3, #16]
 637 0040 1340     		ands	r3, r3, r2
 638              		.loc 4 222 0 discriminator 1
 639 0042 002B     		cmp	r3, #0
 640 0044 07D0     		beq	.L48
 641              	.L47:
 642              		.loc 4 224 0
 643 0046 029B     		ldr	r3, [sp, #8]
 644 0048 5A68     		ldr	r2, [r3, #4]
 645 004a 029B     		ldr	r3, [sp, #8]
 646 004c 9B68     		ldr	r3, [r3, #8]
 647 004e 1946     		mov	r1, r3
 648 0050 1046     		mov	r0, r2
 649 0052 FFF7FEFF 		bl	chEvtSignalI
 650              	.L48:
 651              		.loc 4 226 0
 652 0056 029B     		ldr	r3, [sp, #8]
 653 0058 1B68     		ldr	r3, [r3]
 654 005a 0293     		str	r3, [sp, #8]
 655              	.L46:
 656              		.loc 4 217 0
 657 005c 029A     		ldr	r2, [sp, #8]
 658 005e 019B     		ldr	r3, [sp, #4]
 659 0060 9A42     		cmp	r2, r3
 660 0062 E0D1     		bne	.L49
 661              		.loc 4 228 0
 662 0064 00BF     		nop
 663 0066 054B     		ldr	r3, .L51
 664 0068 039A     		ldr	r2, [sp, #12]
 665 006a 1B68     		ldr	r3, [r3]
 666 006c 9A42     		cmp	r2, r3
 667 006e 01D0     		beq	.L50
 668 0070 FFF7FEFF 		bl	__stack_chk_fail
 669              	.L50:
 670 0074 05B0     		add	sp, sp, #20
 671              		.cfi_def_cfa_offset 4
 672              		@ sp needed
 673 0076 5DF804FB 		ldr	pc, [sp], #4
 674              	.L52:
 675 007a 00BF     		.align	2
 676              	.L51:
 677 007c 00000000 		.word	__stack_chk_guard
 678 0080 00000000 		.word	__func__.7874
 679              		.cfi_endproc
 680              	.LFE223:
 681              		.size	chEvtBroadcastFlagsI, .-chEvtBroadcastFlagsI
 682              		.section	.text.chEvtGetAndClearFlags,"ax",%progbits
 683              		.align	1
 684              		.p2align 4,,15
ARM GAS  C:\Users\PCHAUT~1\AppData\Local\Temp\cceHHvsU.s 			page 13


 685              		.global	chEvtGetAndClearFlags
 686              		.syntax unified
 687              		.thumb
 688              		.thumb_func
 689              		.fpu fpv4-sp-d16
 690              		.type	chEvtGetAndClearFlags, %function
 691              	chEvtGetAndClearFlags:
 692              	.LFB224:
 693              		.loc 4 241 0
 694              		.cfi_startproc
 695              		@ args = 0, pretend = 0, frame = 16
 696              		@ frame_needed = 0, uses_anonymous_args = 0
 697 0000 00B5     		push	{lr}
 698              		.cfi_def_cfa_offset 4
 699              		.cfi_offset 14, -4
 700 0002 85B0     		sub	sp, sp, #20
 701              		.cfi_def_cfa_offset 24
 702 0004 0190     		str	r0, [sp, #4]
 703              		.loc 4 241 0
 704 0006 0C4B     		ldr	r3, .L56
 705 0008 1B68     		ldr	r3, [r3]
 706 000a 0393     		str	r3, [sp, #12]
 707              		.loc 4 244 0
 708 000c FFF7FEFF 		bl	chSysLock
 709              		.loc 4 245 0
 710 0010 019B     		ldr	r3, [sp, #4]
 711 0012 DB68     		ldr	r3, [r3, #12]
 712 0014 0293     		str	r3, [sp, #8]
 713              		.loc 4 246 0
 714 0016 019B     		ldr	r3, [sp, #4]
 715 0018 0022     		movs	r2, #0
 716 001a DA60     		str	r2, [r3, #12]
 717              		.loc 4 247 0
 718 001c FFF7FEFF 		bl	chSysUnlock
 719              		.loc 4 249 0
 720 0020 029B     		ldr	r3, [sp, #8]
 721              		.loc 4 250 0
 722 0022 1846     		mov	r0, r3
 723 0024 044B     		ldr	r3, .L56
 724 0026 039A     		ldr	r2, [sp, #12]
 725 0028 1B68     		ldr	r3, [r3]
 726 002a 9A42     		cmp	r2, r3
 727 002c 01D0     		beq	.L55
 728 002e FFF7FEFF 		bl	__stack_chk_fail
 729              	.L55:
 730 0032 05B0     		add	sp, sp, #20
 731              		.cfi_def_cfa_offset 4
 732              		@ sp needed
 733 0034 5DF804FB 		ldr	pc, [sp], #4
 734              	.L57:
 735              		.align	2
 736              	.L56:
 737 0038 00000000 		.word	__stack_chk_guard
 738              		.cfi_endproc
 739              	.LFE224:
 740              		.size	chEvtGetAndClearFlags, .-chEvtGetAndClearFlags
 741              		.section	.text.chEvtSignal,"ax",%progbits
ARM GAS  C:\Users\PCHAUT~1\AppData\Local\Temp\cceHHvsU.s 			page 14


 742              		.align	1
 743              		.p2align 4,,15
 744              		.global	chEvtSignal
 745              		.syntax unified
 746              		.thumb
 747              		.thumb_func
 748              		.fpu fpv4-sp-d16
 749              		.type	chEvtSignal, %function
 750              	chEvtSignal:
 751              	.LFB225:
 752              		.loc 4 260 0
 753              		.cfi_startproc
 754              		@ args = 0, pretend = 0, frame = 16
 755              		@ frame_needed = 0, uses_anonymous_args = 0
 756 0000 00B5     		push	{lr}
 757              		.cfi_def_cfa_offset 4
 758              		.cfi_offset 14, -4
 759 0002 85B0     		sub	sp, sp, #20
 760              		.cfi_def_cfa_offset 24
 761 0004 0190     		str	r0, [sp, #4]
 762 0006 0091     		str	r1, [sp]
 763              		.loc 4 260 0
 764 0008 0E4B     		ldr	r3, .L61
 765 000a 1B68     		ldr	r3, [r3]
 766 000c 0393     		str	r3, [sp, #12]
 767              		.loc 4 262 0
 768 000e 019B     		ldr	r3, [sp, #4]
 769 0010 002B     		cmp	r3, #0
 770 0012 02D1     		bne	.L59
 771              		.loc 4 262 0 is_stmt 0 discriminator 2
 772 0014 0C48     		ldr	r0, .L61+4
 773 0016 FFF7FEFF 		bl	chSysHalt
 774              	.L59:
 775              		.loc 4 264 0 is_stmt 1
 776 001a FFF7FEFF 		bl	chSysLock
 777              		.loc 4 265 0
 778 001e 0099     		ldr	r1, [sp]
 779 0020 0198     		ldr	r0, [sp, #4]
 780 0022 FFF7FEFF 		bl	chEvtSignalI
 781              		.loc 4 266 0
 782 0026 FFF7FEFF 		bl	chSchRescheduleS
 783              		.loc 4 267 0
 784 002a FFF7FEFF 		bl	chSysUnlock
 785              		.loc 4 268 0
 786 002e 00BF     		nop
 787 0030 044B     		ldr	r3, .L61
 788 0032 039A     		ldr	r2, [sp, #12]
 789 0034 1B68     		ldr	r3, [r3]
 790 0036 9A42     		cmp	r2, r3
 791 0038 01D0     		beq	.L60
 792 003a FFF7FEFF 		bl	__stack_chk_fail
 793              	.L60:
 794 003e 05B0     		add	sp, sp, #20
 795              		.cfi_def_cfa_offset 4
 796              		@ sp needed
 797 0040 5DF804FB 		ldr	pc, [sp], #4
 798              	.L62:
ARM GAS  C:\Users\PCHAUT~1\AppData\Local\Temp\cceHHvsU.s 			page 15


 799              		.align	2
 800              	.L61:
 801 0044 00000000 		.word	__stack_chk_guard
 802 0048 00000000 		.word	__func__.7886
 803              		.cfi_endproc
 804              	.LFE225:
 805              		.size	chEvtSignal, .-chEvtSignal
 806              		.section	.text.chEvtSignalI,"ax",%progbits
 807              		.align	1
 808              		.p2align 4,,15
 809              		.global	chEvtSignalI
 810              		.syntax unified
 811              		.thumb
 812              		.thumb_func
 813              		.fpu fpv4-sp-d16
 814              		.type	chEvtSignalI, %function
 815              	chEvtSignalI:
 816              	.LFB226:
 817              		.loc 4 282 0
 818              		.cfi_startproc
 819              		@ args = 0, pretend = 0, frame = 16
 820              		@ frame_needed = 0, uses_anonymous_args = 0
 821 0000 00B5     		push	{lr}
 822              		.cfi_def_cfa_offset 4
 823              		.cfi_offset 14, -4
 824 0002 85B0     		sub	sp, sp, #20
 825              		.cfi_def_cfa_offset 24
 826 0004 0190     		str	r0, [sp, #4]
 827 0006 0091     		str	r1, [sp]
 828              		.loc 4 282 0
 829 0008 1D4B     		ldr	r3, .L70
 830 000a 1B68     		ldr	r3, [r3]
 831 000c 0393     		str	r3, [sp, #12]
 832              		.loc 4 284 0
 833 000e FFF7FEFF 		bl	chDbgCheckClassI
 834              		.loc 4 285 0
 835 0012 019B     		ldr	r3, [sp, #4]
 836 0014 002B     		cmp	r3, #0
 837 0016 02D1     		bne	.L64
 838              		.loc 4 285 0 is_stmt 0 discriminator 2
 839 0018 1A48     		ldr	r0, .L70+4
 840 001a FFF7FEFF 		bl	chSysHalt
 841              	.L64:
 842              		.loc 4 287 0 is_stmt 1
 843 001e 019B     		ldr	r3, [sp, #4]
 844 0020 DA6B     		ldr	r2, [r3, #60]
 845 0022 009B     		ldr	r3, [sp]
 846 0024 1A43     		orrs	r2, r2, r3
 847 0026 019B     		ldr	r3, [sp, #4]
 848 0028 DA63     		str	r2, [r3, #60]
 849              		.loc 4 289 0
 850 002a 019B     		ldr	r3, [sp, #4]
 851 002c 93F82030 		ldrb	r3, [r3, #32]	@ zero_extendqisi2
 852 0030 0A2B     		cmp	r3, #10
 853 0032 06D1     		bne	.L65
 854              		.loc 4 290 0 discriminator 1
 855 0034 019B     		ldr	r3, [sp, #4]
ARM GAS  C:\Users\PCHAUT~1\AppData\Local\Temp\cceHHvsU.s 			page 16


 856 0036 DA6B     		ldr	r2, [r3, #60]
 857 0038 019B     		ldr	r3, [sp, #4]
 858 003a 9B6A     		ldr	r3, [r3, #40]
 859 003c 1340     		ands	r3, r3, r2
 860              		.loc 4 289 0 discriminator 1
 861 003e 002B     		cmp	r3, #0
 862 0040 0DD1     		bne	.L66
 863              	.L65:
 864              		.loc 4 291 0
 865 0042 019B     		ldr	r3, [sp, #4]
 866 0044 93F82030 		ldrb	r3, [r3, #32]	@ zero_extendqisi2
 867              		.loc 4 290 0
 868 0048 0B2B     		cmp	r3, #11
 869 004a 0ED1     		bne	.L69
 870              		.loc 4 292 0
 871 004c 019B     		ldr	r3, [sp, #4]
 872 004e DA6B     		ldr	r2, [r3, #60]
 873 0050 019B     		ldr	r3, [sp, #4]
 874 0052 9B6A     		ldr	r3, [r3, #40]
 875 0054 1A40     		ands	r2, r2, r3
 876 0056 019B     		ldr	r3, [sp, #4]
 877 0058 9B6A     		ldr	r3, [r3, #40]
 878              		.loc 4 291 0
 879 005a 9A42     		cmp	r2, r3
 880 005c 05D1     		bne	.L69
 881              	.L66:
 882              		.loc 4 293 0
 883 005e 019B     		ldr	r3, [sp, #4]
 884 0060 0022     		movs	r2, #0
 885 0062 9A62     		str	r2, [r3, #40]
 886              		.loc 4 294 0
 887 0064 0198     		ldr	r0, [sp, #4]
 888 0066 FFF7FEFF 		bl	chSchReadyI
 889              	.L69:
 890              		.loc 4 296 0
 891 006a 00BF     		nop
 892 006c 044B     		ldr	r3, .L70
 893 006e 039A     		ldr	r2, [sp, #12]
 894 0070 1B68     		ldr	r3, [r3]
 895 0072 9A42     		cmp	r2, r3
 896 0074 01D0     		beq	.L68
 897 0076 FFF7FEFF 		bl	__stack_chk_fail
 898              	.L68:
 899 007a 05B0     		add	sp, sp, #20
 900              		.cfi_def_cfa_offset 4
 901              		@ sp needed
 902 007c 5DF804FB 		ldr	pc, [sp], #4
 903              	.L71:
 904              		.align	2
 905              	.L70:
 906 0080 00000000 		.word	__stack_chk_guard
 907 0084 00000000 		.word	__func__.7891
 908              		.cfi_endproc
 909              	.LFE226:
 910              		.size	chEvtSignalI, .-chEvtSignalI
 911              		.section	.text.chEvtBroadcastFlags,"ax",%progbits
 912              		.align	1
ARM GAS  C:\Users\PCHAUT~1\AppData\Local\Temp\cceHHvsU.s 			page 17


 913              		.p2align 4,,15
 914              		.global	chEvtBroadcastFlags
 915              		.syntax unified
 916              		.thumb
 917              		.thumb_func
 918              		.fpu fpv4-sp-d16
 919              		.type	chEvtBroadcastFlags, %function
 920              	chEvtBroadcastFlags:
 921              	.LFB227:
 922              		.loc 4 311 0
 923              		.cfi_startproc
 924              		@ args = 0, pretend = 0, frame = 16
 925              		@ frame_needed = 0, uses_anonymous_args = 0
 926 0000 00B5     		push	{lr}
 927              		.cfi_def_cfa_offset 4
 928              		.cfi_offset 14, -4
 929 0002 85B0     		sub	sp, sp, #20
 930              		.cfi_def_cfa_offset 24
 931 0004 0190     		str	r0, [sp, #4]
 932 0006 0091     		str	r1, [sp]
 933              		.loc 4 311 0
 934 0008 0B4B     		ldr	r3, .L74
 935 000a 1B68     		ldr	r3, [r3]
 936 000c 0393     		str	r3, [sp, #12]
 937              		.loc 4 313 0
 938 000e FFF7FEFF 		bl	chSysLock
 939              		.loc 4 314 0
 940 0012 0099     		ldr	r1, [sp]
 941 0014 0198     		ldr	r0, [sp, #4]
 942 0016 FFF7FEFF 		bl	chEvtBroadcastFlagsI
 943              		.loc 4 315 0
 944 001a FFF7FEFF 		bl	chSchRescheduleS
 945              		.loc 4 316 0
 946 001e FFF7FEFF 		bl	chSysUnlock
 947              		.loc 4 317 0
 948 0022 00BF     		nop
 949 0024 044B     		ldr	r3, .L74
 950 0026 039A     		ldr	r2, [sp, #12]
 951 0028 1B68     		ldr	r3, [r3]
 952 002a 9A42     		cmp	r2, r3
 953 002c 01D0     		beq	.L73
 954 002e FFF7FEFF 		bl	__stack_chk_fail
 955              	.L73:
 956 0032 05B0     		add	sp, sp, #20
 957              		.cfi_def_cfa_offset 4
 958              		@ sp needed
 959 0034 5DF804FB 		ldr	pc, [sp], #4
 960              	.L75:
 961              		.align	2
 962              	.L74:
 963 0038 00000000 		.word	__stack_chk_guard
 964              		.cfi_endproc
 965              	.LFE227:
 966              		.size	chEvtBroadcastFlags, .-chEvtBroadcastFlags
 967              		.section	.text.chEvtGetAndClearFlagsI,"ax",%progbits
 968              		.align	1
 969              		.p2align 4,,15
ARM GAS  C:\Users\PCHAUT~1\AppData\Local\Temp\cceHHvsU.s 			page 18


 970              		.global	chEvtGetAndClearFlagsI
 971              		.syntax unified
 972              		.thumb
 973              		.thumb_func
 974              		.fpu fpv4-sp-d16
 975              		.type	chEvtGetAndClearFlagsI, %function
 976              	chEvtGetAndClearFlagsI:
 977              	.LFB228:
 978              		.loc 4 330 0
 979              		.cfi_startproc
 980              		@ args = 0, pretend = 0, frame = 16
 981              		@ frame_needed = 0, uses_anonymous_args = 0
 982 0000 00B5     		push	{lr}
 983              		.cfi_def_cfa_offset 4
 984              		.cfi_offset 14, -4
 985 0002 85B0     		sub	sp, sp, #20
 986              		.cfi_def_cfa_offset 24
 987 0004 0190     		str	r0, [sp, #4]
 988              		.loc 4 330 0
 989 0006 0A4B     		ldr	r3, .L79
 990 0008 1B68     		ldr	r3, [r3]
 991 000a 0393     		str	r3, [sp, #12]
 992              		.loc 4 333 0
 993 000c 019B     		ldr	r3, [sp, #4]
 994 000e DB68     		ldr	r3, [r3, #12]
 995 0010 0293     		str	r3, [sp, #8]
 996              		.loc 4 334 0
 997 0012 019B     		ldr	r3, [sp, #4]
 998 0014 0022     		movs	r2, #0
 999 0016 DA60     		str	r2, [r3, #12]
 1000              		.loc 4 336 0
 1001 0018 029B     		ldr	r3, [sp, #8]
 1002              		.loc 4 337 0
 1003 001a 1846     		mov	r0, r3
 1004 001c 044B     		ldr	r3, .L79
 1005 001e 039A     		ldr	r2, [sp, #12]
 1006 0020 1B68     		ldr	r3, [r3]
 1007 0022 9A42     		cmp	r2, r3
 1008 0024 01D0     		beq	.L78
 1009 0026 FFF7FEFF 		bl	__stack_chk_fail
 1010              	.L78:
 1011 002a 05B0     		add	sp, sp, #20
 1012              		.cfi_def_cfa_offset 4
 1013              		@ sp needed
 1014 002c 5DF804FB 		ldr	pc, [sp], #4
 1015              	.L80:
 1016              		.align	2
 1017              	.L79:
 1018 0030 00000000 		.word	__stack_chk_guard
 1019              		.cfi_endproc
 1020              	.LFE228:
 1021              		.size	chEvtGetAndClearFlagsI, .-chEvtGetAndClearFlagsI
 1022              		.section	.text.chEvtDispatch,"ax",%progbits
 1023              		.align	1
 1024              		.p2align 4,,15
 1025              		.global	chEvtDispatch
 1026              		.syntax unified
ARM GAS  C:\Users\PCHAUT~1\AppData\Local\Temp\cceHHvsU.s 			page 19


 1027              		.thumb
 1028              		.thumb_func
 1029              		.fpu fpv4-sp-d16
 1030              		.type	chEvtDispatch, %function
 1031              	chEvtDispatch:
 1032              	.LFB229:
 1033              		.loc 4 348 0
 1034              		.cfi_startproc
 1035              		@ args = 0, pretend = 0, frame = 16
 1036              		@ frame_needed = 0, uses_anonymous_args = 0
 1037 0000 00B5     		push	{lr}
 1038              		.cfi_def_cfa_offset 4
 1039              		.cfi_offset 14, -4
 1040 0002 85B0     		sub	sp, sp, #20
 1041              		.cfi_def_cfa_offset 24
 1042 0004 0190     		str	r0, [sp, #4]
 1043 0006 0091     		str	r1, [sp]
 1044              		.loc 4 348 0
 1045 0008 1E4B     		ldr	r3, .L88
 1046 000a 1B68     		ldr	r3, [r3]
 1047 000c 0393     		str	r3, [sp, #12]
 1048              		.loc 4 351 0
 1049 000e 019B     		ldr	r3, [sp, #4]
 1050 0010 002B     		cmp	r3, #0
 1051 0012 02D1     		bne	.L82
 1052              		.loc 4 351 0 is_stmt 0 discriminator 2
 1053 0014 1C48     		ldr	r0, .L88+4
 1054 0016 FFF7FEFF 		bl	chSysHalt
 1055              	.L82:
 1056              		.loc 4 353 0 is_stmt 1
 1057 001a 0023     		movs	r3, #0
 1058 001c 0293     		str	r3, [sp, #8]
 1059              		.loc 4 354 0
 1060 001e 23E0     		b	.L83
 1061              	.L86:
 1062              		.loc 4 355 0
 1063 0020 029B     		ldr	r3, [sp, #8]
 1064 0022 009A     		ldr	r2, [sp]
 1065 0024 22FA03F3 		lsr	r3, r2, r3
 1066 0028 03F00103 		and	r3, r3, #1
 1067 002c 002B     		cmp	r3, #0
 1068 002e 18D0     		beq	.L84
 1069              		.loc 4 356 0 discriminator 1
 1070 0030 029B     		ldr	r3, [sp, #8]
 1071 0032 9B00     		lsls	r3, r3, #2
 1072 0034 019A     		ldr	r2, [sp, #4]
 1073 0036 1344     		add	r3, r3, r2
 1074 0038 1B68     		ldr	r3, [r3]
 1075 003a 002B     		cmp	r3, #0
 1076 003c 02D1     		bne	.L85
 1077              		.loc 4 356 0 is_stmt 0 discriminator 2
 1078 003e 1248     		ldr	r0, .L88+4
 1079 0040 FFF7FEFF 		bl	chSysHalt
 1080              	.L85:
 1081              		.loc 4 357 0 is_stmt 1
 1082 0044 029B     		ldr	r3, [sp, #8]
 1083 0046 0122     		movs	r2, #1
ARM GAS  C:\Users\PCHAUT~1\AppData\Local\Temp\cceHHvsU.s 			page 20


 1084 0048 02FA03F3 		lsl	r3, r2, r3
 1085 004c DB43     		mvns	r3, r3
 1086 004e 009A     		ldr	r2, [sp]
 1087 0050 1340     		ands	r3, r3, r2
 1088 0052 0093     		str	r3, [sp]
 1089              		.loc 4 358 0
 1090 0054 029B     		ldr	r3, [sp, #8]
 1091 0056 9B00     		lsls	r3, r3, #2
 1092 0058 019A     		ldr	r2, [sp, #4]
 1093 005a 1344     		add	r3, r3, r2
 1094 005c 1B68     		ldr	r3, [r3]
 1095 005e 0298     		ldr	r0, [sp, #8]
 1096 0060 9847     		blx	r3
 1097              	.LVL0:
 1098              	.L84:
 1099              		.loc 4 360 0
 1100 0062 029B     		ldr	r3, [sp, #8]
 1101 0064 0133     		adds	r3, r3, #1
 1102 0066 0293     		str	r3, [sp, #8]
 1103              	.L83:
 1104              		.loc 4 354 0
 1105 0068 009B     		ldr	r3, [sp]
 1106 006a 002B     		cmp	r3, #0
 1107 006c D8D1     		bne	.L86
 1108              		.loc 4 362 0
 1109 006e 00BF     		nop
 1110 0070 044B     		ldr	r3, .L88
 1111 0072 039A     		ldr	r2, [sp, #12]
 1112 0074 1B68     		ldr	r3, [r3]
 1113 0076 9A42     		cmp	r2, r3
 1114 0078 01D0     		beq	.L87
 1115 007a FFF7FEFF 		bl	__stack_chk_fail
 1116              	.L87:
 1117 007e 05B0     		add	sp, sp, #20
 1118              		.cfi_def_cfa_offset 4
 1119              		@ sp needed
 1120 0080 5DF804FB 		ldr	pc, [sp], #4
 1121              	.L89:
 1122              		.align	2
 1123              	.L88:
 1124 0084 00000000 		.word	__stack_chk_guard
 1125 0088 00000000 		.word	__func__.7905
 1126              		.cfi_endproc
 1127              	.LFE229:
 1128              		.size	chEvtDispatch, .-chEvtDispatch
 1129              		.section	.text.chEvtWaitOne,"ax",%progbits
 1130              		.align	1
 1131              		.p2align 4,,15
 1132              		.global	chEvtWaitOne
 1133              		.syntax unified
 1134              		.thumb
 1135              		.thumb_func
 1136              		.fpu fpv4-sp-d16
 1137              		.type	chEvtWaitOne, %function
 1138              	chEvtWaitOne:
 1139              	.LFB230:
 1140              		.loc 4 383 0
ARM GAS  C:\Users\PCHAUT~1\AppData\Local\Temp\cceHHvsU.s 			page 21


 1141              		.cfi_startproc
 1142              		@ args = 0, pretend = 0, frame = 24
 1143              		@ frame_needed = 0, uses_anonymous_args = 0
 1144 0000 00B5     		push	{lr}
 1145              		.cfi_def_cfa_offset 4
 1146              		.cfi_offset 14, -4
 1147 0002 87B0     		sub	sp, sp, #28
 1148              		.cfi_def_cfa_offset 32
 1149 0004 0190     		str	r0, [sp, #4]
 1150              		.loc 4 383 0
 1151 0006 1A4B     		ldr	r3, .L94
 1152 0008 1B68     		ldr	r3, [r3]
 1153 000a 0593     		str	r3, [sp, #20]
 1154              		.loc 4 384 0
 1155 000c 194B     		ldr	r3, .L94+4
 1156 000e 9B69     		ldr	r3, [r3, #24]
 1157 0010 0493     		str	r3, [sp, #16]
 1158              		.loc 4 387 0
 1159 0012 FFF7FEFF 		bl	chSysLock
 1160              		.loc 4 388 0
 1161 0016 049B     		ldr	r3, [sp, #16]
 1162 0018 DB6B     		ldr	r3, [r3, #60]
 1163 001a 019A     		ldr	r2, [sp, #4]
 1164 001c 1340     		ands	r3, r3, r2
 1165 001e 0393     		str	r3, [sp, #12]
 1166              		.loc 4 389 0
 1167 0020 039B     		ldr	r3, [sp, #12]
 1168 0022 002B     		cmp	r3, #0
 1169 0024 0AD1     		bne	.L91
 1170              		.loc 4 390 0
 1171 0026 049B     		ldr	r3, [sp, #16]
 1172 0028 019A     		ldr	r2, [sp, #4]
 1173 002a 9A62     		str	r2, [r3, #40]
 1174              		.loc 4 391 0
 1175 002c 0A20     		movs	r0, #10
 1176 002e FFF7FEFF 		bl	chSchGoSleepS
 1177              		.loc 4 392 0
 1178 0032 049B     		ldr	r3, [sp, #16]
 1179 0034 DB6B     		ldr	r3, [r3, #60]
 1180 0036 019A     		ldr	r2, [sp, #4]
 1181 0038 1340     		ands	r3, r3, r2
 1182 003a 0393     		str	r3, [sp, #12]
 1183              	.L91:
 1184              		.loc 4 394 0
 1185 003c 039B     		ldr	r3, [sp, #12]
 1186 003e 5B42     		negs	r3, r3
 1187 0040 039A     		ldr	r2, [sp, #12]
 1188 0042 1340     		ands	r3, r3, r2
 1189 0044 0393     		str	r3, [sp, #12]
 1190              		.loc 4 395 0
 1191 0046 049B     		ldr	r3, [sp, #16]
 1192 0048 DA6B     		ldr	r2, [r3, #60]
 1193 004a 039B     		ldr	r3, [sp, #12]
 1194 004c DB43     		mvns	r3, r3
 1195 004e 1A40     		ands	r2, r2, r3
 1196 0050 049B     		ldr	r3, [sp, #16]
 1197 0052 DA63     		str	r2, [r3, #60]
ARM GAS  C:\Users\PCHAUT~1\AppData\Local\Temp\cceHHvsU.s 			page 22


 1198              		.loc 4 396 0
 1199 0054 FFF7FEFF 		bl	chSysUnlock
 1200              		.loc 4 398 0
 1201 0058 039B     		ldr	r3, [sp, #12]
 1202              		.loc 4 399 0
 1203 005a 1846     		mov	r0, r3
 1204 005c 044B     		ldr	r3, .L94
 1205 005e 059A     		ldr	r2, [sp, #20]
 1206 0060 1B68     		ldr	r3, [r3]
 1207 0062 9A42     		cmp	r2, r3
 1208 0064 01D0     		beq	.L93
 1209 0066 FFF7FEFF 		bl	__stack_chk_fail
 1210              	.L93:
 1211 006a 07B0     		add	sp, sp, #28
 1212              		.cfi_def_cfa_offset 4
 1213              		@ sp needed
 1214 006c 5DF804FB 		ldr	pc, [sp], #4
 1215              	.L95:
 1216              		.align	2
 1217              	.L94:
 1218 0070 00000000 		.word	__stack_chk_guard
 1219 0074 00000000 		.word	ch
 1220              		.cfi_endproc
 1221              	.LFE230:
 1222              		.size	chEvtWaitOne, .-chEvtWaitOne
 1223              		.section	.text.chEvtWaitAny,"ax",%progbits
 1224              		.align	1
 1225              		.p2align 4,,15
 1226              		.global	chEvtWaitAny
 1227              		.syntax unified
 1228              		.thumb
 1229              		.thumb_func
 1230              		.fpu fpv4-sp-d16
 1231              		.type	chEvtWaitAny, %function
 1232              	chEvtWaitAny:
 1233              	.LFB231:
 1234              		.loc 4 413 0
 1235              		.cfi_startproc
 1236              		@ args = 0, pretend = 0, frame = 24
 1237              		@ frame_needed = 0, uses_anonymous_args = 0
 1238 0000 00B5     		push	{lr}
 1239              		.cfi_def_cfa_offset 4
 1240              		.cfi_offset 14, -4
 1241 0002 87B0     		sub	sp, sp, #28
 1242              		.cfi_def_cfa_offset 32
 1243 0004 0190     		str	r0, [sp, #4]
 1244              		.loc 4 413 0
 1245 0006 184B     		ldr	r3, .L100
 1246 0008 1B68     		ldr	r3, [r3]
 1247 000a 0593     		str	r3, [sp, #20]
 1248              		.loc 4 414 0
 1249 000c 174B     		ldr	r3, .L100+4
 1250 000e 9B69     		ldr	r3, [r3, #24]
 1251 0010 0493     		str	r3, [sp, #16]
 1252              		.loc 4 417 0
 1253 0012 FFF7FEFF 		bl	chSysLock
 1254              		.loc 4 418 0
ARM GAS  C:\Users\PCHAUT~1\AppData\Local\Temp\cceHHvsU.s 			page 23


 1255 0016 049B     		ldr	r3, [sp, #16]
 1256 0018 DB6B     		ldr	r3, [r3, #60]
 1257 001a 019A     		ldr	r2, [sp, #4]
 1258 001c 1340     		ands	r3, r3, r2
 1259 001e 0393     		str	r3, [sp, #12]
 1260              		.loc 4 419 0
 1261 0020 039B     		ldr	r3, [sp, #12]
 1262 0022 002B     		cmp	r3, #0
 1263 0024 0AD1     		bne	.L97
 1264              		.loc 4 420 0
 1265 0026 049B     		ldr	r3, [sp, #16]
 1266 0028 019A     		ldr	r2, [sp, #4]
 1267 002a 9A62     		str	r2, [r3, #40]
 1268              		.loc 4 421 0
 1269 002c 0A20     		movs	r0, #10
 1270 002e FFF7FEFF 		bl	chSchGoSleepS
 1271              		.loc 4 422 0
 1272 0032 049B     		ldr	r3, [sp, #16]
 1273 0034 DB6B     		ldr	r3, [r3, #60]
 1274 0036 019A     		ldr	r2, [sp, #4]
 1275 0038 1340     		ands	r3, r3, r2
 1276 003a 0393     		str	r3, [sp, #12]
 1277              	.L97:
 1278              		.loc 4 424 0
 1279 003c 049B     		ldr	r3, [sp, #16]
 1280 003e DA6B     		ldr	r2, [r3, #60]
 1281 0040 039B     		ldr	r3, [sp, #12]
 1282 0042 DB43     		mvns	r3, r3
 1283 0044 1A40     		ands	r2, r2, r3
 1284 0046 049B     		ldr	r3, [sp, #16]
 1285 0048 DA63     		str	r2, [r3, #60]
 1286              		.loc 4 425 0
 1287 004a FFF7FEFF 		bl	chSysUnlock
 1288              		.loc 4 427 0
 1289 004e 039B     		ldr	r3, [sp, #12]
 1290              		.loc 4 428 0
 1291 0050 1846     		mov	r0, r3
 1292 0052 054B     		ldr	r3, .L100
 1293 0054 059A     		ldr	r2, [sp, #20]
 1294 0056 1B68     		ldr	r3, [r3]
 1295 0058 9A42     		cmp	r2, r3
 1296 005a 01D0     		beq	.L99
 1297 005c FFF7FEFF 		bl	__stack_chk_fail
 1298              	.L99:
 1299 0060 07B0     		add	sp, sp, #28
 1300              		.cfi_def_cfa_offset 4
 1301              		@ sp needed
 1302 0062 5DF804FB 		ldr	pc, [sp], #4
 1303              	.L101:
 1304 0066 00BF     		.align	2
 1305              	.L100:
 1306 0068 00000000 		.word	__stack_chk_guard
 1307 006c 00000000 		.word	ch
 1308              		.cfi_endproc
 1309              	.LFE231:
 1310              		.size	chEvtWaitAny, .-chEvtWaitAny
 1311              		.section	.text.chEvtWaitAll,"ax",%progbits
ARM GAS  C:\Users\PCHAUT~1\AppData\Local\Temp\cceHHvsU.s 			page 24


 1312              		.align	1
 1313              		.p2align 4,,15
 1314              		.global	chEvtWaitAll
 1315              		.syntax unified
 1316              		.thumb
 1317              		.thumb_func
 1318              		.fpu fpv4-sp-d16
 1319              		.type	chEvtWaitAll, %function
 1320              	chEvtWaitAll:
 1321              	.LFB232:
 1322              		.loc 4 441 0
 1323              		.cfi_startproc
 1324              		@ args = 0, pretend = 0, frame = 16
 1325              		@ frame_needed = 0, uses_anonymous_args = 0
 1326 0000 00B5     		push	{lr}
 1327              		.cfi_def_cfa_offset 4
 1328              		.cfi_offset 14, -4
 1329 0002 85B0     		sub	sp, sp, #20
 1330              		.cfi_def_cfa_offset 24
 1331 0004 0190     		str	r0, [sp, #4]
 1332              		.loc 4 441 0
 1333 0006 154B     		ldr	r3, .L106
 1334 0008 1B68     		ldr	r3, [r3]
 1335 000a 0393     		str	r3, [sp, #12]
 1336              		.loc 4 442 0
 1337 000c 144B     		ldr	r3, .L106+4
 1338 000e 9B69     		ldr	r3, [r3, #24]
 1339 0010 0293     		str	r3, [sp, #8]
 1340              		.loc 4 444 0
 1341 0012 FFF7FEFF 		bl	chSysLock
 1342              		.loc 4 445 0
 1343 0016 029B     		ldr	r3, [sp, #8]
 1344 0018 DA6B     		ldr	r2, [r3, #60]
 1345 001a 019B     		ldr	r3, [sp, #4]
 1346 001c 1340     		ands	r3, r3, r2
 1347 001e 019A     		ldr	r2, [sp, #4]
 1348 0020 9A42     		cmp	r2, r3
 1349 0022 05D0     		beq	.L103
 1350              		.loc 4 446 0
 1351 0024 029B     		ldr	r3, [sp, #8]
 1352 0026 019A     		ldr	r2, [sp, #4]
 1353 0028 9A62     		str	r2, [r3, #40]
 1354              		.loc 4 447 0
 1355 002a 0B20     		movs	r0, #11
 1356 002c FFF7FEFF 		bl	chSchGoSleepS
 1357              	.L103:
 1358              		.loc 4 449 0
 1359 0030 029B     		ldr	r3, [sp, #8]
 1360 0032 DA6B     		ldr	r2, [r3, #60]
 1361 0034 019B     		ldr	r3, [sp, #4]
 1362 0036 DB43     		mvns	r3, r3
 1363 0038 1A40     		ands	r2, r2, r3
 1364 003a 029B     		ldr	r3, [sp, #8]
 1365 003c DA63     		str	r2, [r3, #60]
 1366              		.loc 4 450 0
 1367 003e FFF7FEFF 		bl	chSysUnlock
 1368              		.loc 4 452 0
ARM GAS  C:\Users\PCHAUT~1\AppData\Local\Temp\cceHHvsU.s 			page 25


 1369 0042 019B     		ldr	r3, [sp, #4]
 1370              		.loc 4 453 0
 1371 0044 1846     		mov	r0, r3
 1372 0046 054B     		ldr	r3, .L106
 1373 0048 039A     		ldr	r2, [sp, #12]
 1374 004a 1B68     		ldr	r3, [r3]
 1375 004c 9A42     		cmp	r2, r3
 1376 004e 01D0     		beq	.L105
 1377 0050 FFF7FEFF 		bl	__stack_chk_fail
 1378              	.L105:
 1379 0054 05B0     		add	sp, sp, #20
 1380              		.cfi_def_cfa_offset 4
 1381              		@ sp needed
 1382 0056 5DF804FB 		ldr	pc, [sp], #4
 1383              	.L107:
 1384 005a 00BF     		.align	2
 1385              	.L106:
 1386 005c 00000000 		.word	__stack_chk_guard
 1387 0060 00000000 		.word	ch
 1388              		.cfi_endproc
 1389              	.LFE232:
 1390              		.size	chEvtWaitAll, .-chEvtWaitAll
 1391              		.section	.text.chEvtWaitOneTimeout,"ax",%progbits
 1392              		.align	1
 1393              		.p2align 4,,15
 1394              		.global	chEvtWaitOneTimeout
 1395              		.syntax unified
 1396              		.thumb
 1397              		.thumb_func
 1398              		.fpu fpv4-sp-d16
 1399              		.type	chEvtWaitOneTimeout, %function
 1400              	chEvtWaitOneTimeout:
 1401              	.LFB233:
 1402              		.loc 4 479 0
 1403              		.cfi_startproc
 1404              		@ args = 0, pretend = 0, frame = 24
 1405              		@ frame_needed = 0, uses_anonymous_args = 0
 1406 0000 00B5     		push	{lr}
 1407              		.cfi_def_cfa_offset 4
 1408              		.cfi_offset 14, -4
 1409 0002 87B0     		sub	sp, sp, #28
 1410              		.cfi_def_cfa_offset 32
 1411 0004 0190     		str	r0, [sp, #4]
 1412 0006 0091     		str	r1, [sp]
 1413              		.loc 4 479 0
 1414 0008 214B     		ldr	r3, .L114
 1415 000a 1B68     		ldr	r3, [r3]
 1416 000c 0593     		str	r3, [sp, #20]
 1417              		.loc 4 480 0
 1418 000e 214B     		ldr	r3, .L114+4
 1419 0010 9B69     		ldr	r3, [r3, #24]
 1420 0012 0493     		str	r3, [sp, #16]
 1421              		.loc 4 483 0
 1422 0014 FFF7FEFF 		bl	chSysLock
 1423              		.loc 4 484 0
 1424 0018 049B     		ldr	r3, [sp, #16]
 1425 001a DB6B     		ldr	r3, [r3, #60]
ARM GAS  C:\Users\PCHAUT~1\AppData\Local\Temp\cceHHvsU.s 			page 26


 1426 001c 019A     		ldr	r2, [sp, #4]
 1427 001e 1340     		ands	r3, r3, r2
 1428 0020 0393     		str	r3, [sp, #12]
 1429              		.loc 4 485 0
 1430 0022 039B     		ldr	r3, [sp, #12]
 1431 0024 002B     		cmp	r3, #0
 1432 0026 19D1     		bne	.L109
 1433              		.loc 4 486 0
 1434 0028 009B     		ldr	r3, [sp]
 1435 002a 002B     		cmp	r3, #0
 1436 002c 03D1     		bne	.L110
 1437              		.loc 4 487 0
 1438 002e FFF7FEFF 		bl	chSysUnlock
 1439              		.loc 4 488 0
 1440 0032 0023     		movs	r3, #0
 1441 0034 21E0     		b	.L111
 1442              	.L110:
 1443              		.loc 4 490 0
 1444 0036 049B     		ldr	r3, [sp, #16]
 1445 0038 019A     		ldr	r2, [sp, #4]
 1446 003a 9A62     		str	r2, [r3, #40]
 1447              		.loc 4 491 0
 1448 003c 0099     		ldr	r1, [sp]
 1449 003e 0A20     		movs	r0, #10
 1450 0040 FFF7FEFF 		bl	chSchGoSleepTimeoutS
 1451 0044 0346     		mov	r3, r0
 1452 0046 002B     		cmp	r3, #0
 1453 0048 03DA     		bge	.L112
 1454              		.loc 4 492 0
 1455 004a FFF7FEFF 		bl	chSysUnlock
 1456              		.loc 4 493 0
 1457 004e 0023     		movs	r3, #0
 1458 0050 13E0     		b	.L111
 1459              	.L112:
 1460              		.loc 4 495 0
 1461 0052 049B     		ldr	r3, [sp, #16]
 1462 0054 DB6B     		ldr	r3, [r3, #60]
 1463 0056 019A     		ldr	r2, [sp, #4]
 1464 0058 1340     		ands	r3, r3, r2
 1465 005a 0393     		str	r3, [sp, #12]
 1466              	.L109:
 1467              		.loc 4 497 0
 1468 005c 039B     		ldr	r3, [sp, #12]
 1469 005e 5B42     		negs	r3, r3
 1470 0060 039A     		ldr	r2, [sp, #12]
 1471 0062 1340     		ands	r3, r3, r2
 1472 0064 0393     		str	r3, [sp, #12]
 1473              		.loc 4 498 0
 1474 0066 049B     		ldr	r3, [sp, #16]
 1475 0068 DA6B     		ldr	r2, [r3, #60]
 1476 006a 039B     		ldr	r3, [sp, #12]
 1477 006c DB43     		mvns	r3, r3
 1478 006e 1A40     		ands	r2, r2, r3
 1479 0070 049B     		ldr	r3, [sp, #16]
 1480 0072 DA63     		str	r2, [r3, #60]
 1481              		.loc 4 499 0
 1482 0074 FFF7FEFF 		bl	chSysUnlock
ARM GAS  C:\Users\PCHAUT~1\AppData\Local\Temp\cceHHvsU.s 			page 27


 1483              		.loc 4 501 0
 1484 0078 039B     		ldr	r3, [sp, #12]
 1485              	.L111:
 1486              		.loc 4 502 0
 1487 007a 1846     		mov	r0, r3
 1488 007c 044B     		ldr	r3, .L114
 1489 007e 059A     		ldr	r2, [sp, #20]
 1490 0080 1B68     		ldr	r3, [r3]
 1491 0082 9A42     		cmp	r2, r3
 1492 0084 01D0     		beq	.L113
 1493 0086 FFF7FEFF 		bl	__stack_chk_fail
 1494              	.L113:
 1495 008a 07B0     		add	sp, sp, #28
 1496              		.cfi_def_cfa_offset 4
 1497              		@ sp needed
 1498 008c 5DF804FB 		ldr	pc, [sp], #4
 1499              	.L115:
 1500              		.align	2
 1501              	.L114:
 1502 0090 00000000 		.word	__stack_chk_guard
 1503 0094 00000000 		.word	ch
 1504              		.cfi_endproc
 1505              	.LFE233:
 1506              		.size	chEvtWaitOneTimeout, .-chEvtWaitOneTimeout
 1507              		.section	.text.chEvtWaitAnyTimeout,"ax",%progbits
 1508              		.align	1
 1509              		.p2align 4,,15
 1510              		.global	chEvtWaitAnyTimeout
 1511              		.syntax unified
 1512              		.thumb
 1513              		.thumb_func
 1514              		.fpu fpv4-sp-d16
 1515              		.type	chEvtWaitAnyTimeout, %function
 1516              	chEvtWaitAnyTimeout:
 1517              	.LFB234:
 1518              		.loc 4 522 0
 1519              		.cfi_startproc
 1520              		@ args = 0, pretend = 0, frame = 24
 1521              		@ frame_needed = 0, uses_anonymous_args = 0
 1522 0000 00B5     		push	{lr}
 1523              		.cfi_def_cfa_offset 4
 1524              		.cfi_offset 14, -4
 1525 0002 87B0     		sub	sp, sp, #28
 1526              		.cfi_def_cfa_offset 32
 1527 0004 0190     		str	r0, [sp, #4]
 1528 0006 0091     		str	r1, [sp]
 1529              		.loc 4 522 0
 1530 0008 1F4B     		ldr	r3, .L122
 1531 000a 1B68     		ldr	r3, [r3]
 1532 000c 0593     		str	r3, [sp, #20]
 1533              		.loc 4 523 0
 1534 000e 1F4B     		ldr	r3, .L122+4
 1535 0010 9B69     		ldr	r3, [r3, #24]
 1536 0012 0493     		str	r3, [sp, #16]
 1537              		.loc 4 526 0
 1538 0014 FFF7FEFF 		bl	chSysLock
 1539              		.loc 4 527 0
ARM GAS  C:\Users\PCHAUT~1\AppData\Local\Temp\cceHHvsU.s 			page 28


 1540 0018 049B     		ldr	r3, [sp, #16]
 1541 001a DB6B     		ldr	r3, [r3, #60]
 1542 001c 019A     		ldr	r2, [sp, #4]
 1543 001e 1340     		ands	r3, r3, r2
 1544 0020 0393     		str	r3, [sp, #12]
 1545              		.loc 4 528 0
 1546 0022 039B     		ldr	r3, [sp, #12]
 1547 0024 002B     		cmp	r3, #0
 1548 0026 19D1     		bne	.L117
 1549              		.loc 4 529 0
 1550 0028 009B     		ldr	r3, [sp]
 1551 002a 002B     		cmp	r3, #0
 1552 002c 03D1     		bne	.L118
 1553              		.loc 4 530 0
 1554 002e FFF7FEFF 		bl	chSysUnlock
 1555              		.loc 4 531 0
 1556 0032 0023     		movs	r3, #0
 1557 0034 1CE0     		b	.L119
 1558              	.L118:
 1559              		.loc 4 533 0
 1560 0036 049B     		ldr	r3, [sp, #16]
 1561 0038 019A     		ldr	r2, [sp, #4]
 1562 003a 9A62     		str	r2, [r3, #40]
 1563              		.loc 4 534 0
 1564 003c 0099     		ldr	r1, [sp]
 1565 003e 0A20     		movs	r0, #10
 1566 0040 FFF7FEFF 		bl	chSchGoSleepTimeoutS
 1567 0044 0346     		mov	r3, r0
 1568 0046 002B     		cmp	r3, #0
 1569 0048 03DA     		bge	.L120
 1570              		.loc 4 535 0
 1571 004a FFF7FEFF 		bl	chSysUnlock
 1572              		.loc 4 536 0
 1573 004e 0023     		movs	r3, #0
 1574 0050 0EE0     		b	.L119
 1575              	.L120:
 1576              		.loc 4 538 0
 1577 0052 049B     		ldr	r3, [sp, #16]
 1578 0054 DB6B     		ldr	r3, [r3, #60]
 1579 0056 019A     		ldr	r2, [sp, #4]
 1580 0058 1340     		ands	r3, r3, r2
 1581 005a 0393     		str	r3, [sp, #12]
 1582              	.L117:
 1583              		.loc 4 540 0
 1584 005c 049B     		ldr	r3, [sp, #16]
 1585 005e DA6B     		ldr	r2, [r3, #60]
 1586 0060 039B     		ldr	r3, [sp, #12]
 1587 0062 DB43     		mvns	r3, r3
 1588 0064 1A40     		ands	r2, r2, r3
 1589 0066 049B     		ldr	r3, [sp, #16]
 1590 0068 DA63     		str	r2, [r3, #60]
 1591              		.loc 4 541 0
 1592 006a FFF7FEFF 		bl	chSysUnlock
 1593              		.loc 4 543 0
 1594 006e 039B     		ldr	r3, [sp, #12]
 1595              	.L119:
 1596              		.loc 4 544 0
ARM GAS  C:\Users\PCHAUT~1\AppData\Local\Temp\cceHHvsU.s 			page 29


 1597 0070 1846     		mov	r0, r3
 1598 0072 054B     		ldr	r3, .L122
 1599 0074 059A     		ldr	r2, [sp, #20]
 1600 0076 1B68     		ldr	r3, [r3]
 1601 0078 9A42     		cmp	r2, r3
 1602 007a 01D0     		beq	.L121
 1603 007c FFF7FEFF 		bl	__stack_chk_fail
 1604              	.L121:
 1605 0080 07B0     		add	sp, sp, #28
 1606              		.cfi_def_cfa_offset 4
 1607              		@ sp needed
 1608 0082 5DF804FB 		ldr	pc, [sp], #4
 1609              	.L123:
 1610 0086 00BF     		.align	2
 1611              	.L122:
 1612 0088 00000000 		.word	__stack_chk_guard
 1613 008c 00000000 		.word	ch
 1614              		.cfi_endproc
 1615              	.LFE234:
 1616              		.size	chEvtWaitAnyTimeout, .-chEvtWaitAnyTimeout
 1617              		.section	.text.chEvtWaitAllTimeout,"ax",%progbits
 1618              		.align	1
 1619              		.p2align 4,,15
 1620              		.global	chEvtWaitAllTimeout
 1621              		.syntax unified
 1622              		.thumb
 1623              		.thumb_func
 1624              		.fpu fpv4-sp-d16
 1625              		.type	chEvtWaitAllTimeout, %function
 1626              	chEvtWaitAllTimeout:
 1627              	.LFB235:
 1628              		.loc 4 563 0
 1629              		.cfi_startproc
 1630              		@ args = 0, pretend = 0, frame = 16
 1631              		@ frame_needed = 0, uses_anonymous_args = 0
 1632 0000 00B5     		push	{lr}
 1633              		.cfi_def_cfa_offset 4
 1634              		.cfi_offset 14, -4
 1635 0002 85B0     		sub	sp, sp, #20
 1636              		.cfi_def_cfa_offset 24
 1637 0004 0190     		str	r0, [sp, #4]
 1638 0006 0091     		str	r1, [sp]
 1639              		.loc 4 563 0
 1640 0008 1C4B     		ldr	r3, .L129
 1641 000a 1B68     		ldr	r3, [r3]
 1642 000c 0393     		str	r3, [sp, #12]
 1643              		.loc 4 564 0
 1644 000e 1C4B     		ldr	r3, .L129+4
 1645 0010 9B69     		ldr	r3, [r3, #24]
 1646 0012 0293     		str	r3, [sp, #8]
 1647              		.loc 4 566 0
 1648 0014 FFF7FEFF 		bl	chSysLock
 1649              		.loc 4 567 0
 1650 0018 029B     		ldr	r3, [sp, #8]
 1651 001a DA6B     		ldr	r2, [r3, #60]
 1652 001c 019B     		ldr	r3, [sp, #4]
 1653 001e 1340     		ands	r3, r3, r2
ARM GAS  C:\Users\PCHAUT~1\AppData\Local\Temp\cceHHvsU.s 			page 30


 1654 0020 019A     		ldr	r2, [sp, #4]
 1655 0022 9A42     		cmp	r2, r3
 1656 0024 14D0     		beq	.L125
 1657              		.loc 4 568 0
 1658 0026 009B     		ldr	r3, [sp]
 1659 0028 002B     		cmp	r3, #0
 1660 002a 03D1     		bne	.L126
 1661              		.loc 4 569 0
 1662 002c FFF7FEFF 		bl	chSysUnlock
 1663              		.loc 4 570 0
 1664 0030 0023     		movs	r3, #0
 1665 0032 17E0     		b	.L127
 1666              	.L126:
 1667              		.loc 4 572 0
 1668 0034 029B     		ldr	r3, [sp, #8]
 1669 0036 019A     		ldr	r2, [sp, #4]
 1670 0038 9A62     		str	r2, [r3, #40]
 1671              		.loc 4 573 0
 1672 003a 0099     		ldr	r1, [sp]
 1673 003c 0B20     		movs	r0, #11
 1674 003e FFF7FEFF 		bl	chSchGoSleepTimeoutS
 1675 0042 0346     		mov	r3, r0
 1676 0044 002B     		cmp	r3, #0
 1677 0046 03DA     		bge	.L125
 1678              		.loc 4 574 0
 1679 0048 FFF7FEFF 		bl	chSysUnlock
 1680              		.loc 4 575 0
 1681 004c 0023     		movs	r3, #0
 1682 004e 09E0     		b	.L127
 1683              	.L125:
 1684              		.loc 4 578 0
 1685 0050 029B     		ldr	r3, [sp, #8]
 1686 0052 DA6B     		ldr	r2, [r3, #60]
 1687 0054 019B     		ldr	r3, [sp, #4]
 1688 0056 DB43     		mvns	r3, r3
 1689 0058 1A40     		ands	r2, r2, r3
 1690 005a 029B     		ldr	r3, [sp, #8]
 1691 005c DA63     		str	r2, [r3, #60]
 1692              		.loc 4 579 0
 1693 005e FFF7FEFF 		bl	chSysUnlock
 1694              		.loc 4 581 0
 1695 0062 019B     		ldr	r3, [sp, #4]
 1696              	.L127:
 1697              		.loc 4 582 0
 1698 0064 1846     		mov	r0, r3
 1699 0066 054B     		ldr	r3, .L129
 1700 0068 039A     		ldr	r2, [sp, #12]
 1701 006a 1B68     		ldr	r3, [r3]
 1702 006c 9A42     		cmp	r2, r3
 1703 006e 01D0     		beq	.L128
 1704 0070 FFF7FEFF 		bl	__stack_chk_fail
 1705              	.L128:
 1706 0074 05B0     		add	sp, sp, #20
 1707              		.cfi_def_cfa_offset 4
 1708              		@ sp needed
 1709 0076 5DF804FB 		ldr	pc, [sp], #4
 1710              	.L130:
ARM GAS  C:\Users\PCHAUT~1\AppData\Local\Temp\cceHHvsU.s 			page 31


 1711 007a 00BF     		.align	2
 1712              	.L129:
 1713 007c 00000000 		.word	__stack_chk_guard
 1714 0080 00000000 		.word	ch
 1715              		.cfi_endproc
 1716              	.LFE235:
 1717              		.size	chEvtWaitAllTimeout, .-chEvtWaitAllTimeout
 1718              		.section	.rodata.__func__.7852,"a",%progbits
 1719              		.align	2
 1720              		.type	__func__.7852, %object
 1721              		.size	__func__.7852, 27
 1722              	__func__.7852:
 1723 0000 63684576 		.ascii	"chEvtRegisterMaskWithFlags\000"
 1723      74526567 
 1723      69737465 
 1723      724D6173 
 1723      6B576974 
 1724              		.section	.rodata.__func__.7153,"a",%progbits
 1725              		.align	2
 1726              		.type	__func__.7153, %object
 1727              		.size	__func__.7153, 12
 1728              	__func__.7153:
 1729 0000 63685379 		.ascii	"chSysUnlock\000"
 1729      73556E6C 
 1729      6F636B00 
 1730              		.section	.rodata.__func__.7858,"a",%progbits
 1731              		.align	2
 1732              		.type	__func__.7858, %object
 1733              		.size	__func__.7858, 16
 1734              	__func__.7858:
 1735 0000 63684576 		.ascii	"chEvtUnregister\000"
 1735      74556E72 
 1735      65676973 
 1735      74657200 
 1736              		.section	.rodata.__func__.7874,"a",%progbits
 1737              		.align	2
 1738              		.type	__func__.7874, %object
 1739              		.size	__func__.7874, 21
 1740              	__func__.7874:
 1741 0000 63684576 		.ascii	"chEvtBroadcastFlagsI\000"
 1741      7442726F 
 1741      61646361 
 1741      7374466C 
 1741      61677349 
 1742              		.section	.rodata.__func__.7886,"a",%progbits
 1743              		.align	2
 1744              		.type	__func__.7886, %object
 1745              		.size	__func__.7886, 12
 1746              	__func__.7886:
 1747 0000 63684576 		.ascii	"chEvtSignal\000"
 1747      74536967 
 1747      6E616C00 
 1748              		.section	.rodata.__func__.7891,"a",%progbits
 1749              		.align	2
 1750              		.type	__func__.7891, %object
 1751              		.size	__func__.7891, 13
 1752              	__func__.7891:
ARM GAS  C:\Users\PCHAUT~1\AppData\Local\Temp\cceHHvsU.s 			page 32


 1753 0000 63684576 		.ascii	"chEvtSignalI\000"
 1753      74536967 
 1753      6E616C49 
 1753      00
 1754              		.section	.rodata.__func__.7905,"a",%progbits
 1755              		.align	2
 1756              		.type	__func__.7905, %object
 1757              		.size	__func__.7905, 14
 1758              	__func__.7905:
 1759 0000 63684576 		.ascii	"chEvtDispatch\000"
 1759      74446973 
 1759      70617463 
 1759      6800
 1760              		.text
 1761              	.Letext0:
 1762              		.file 5 "c:\\users\\pchautems\\documents\\robotiquetp\\eclipse_e-puck2\\tools\\gcc-arm-none-eabi-7
 1763              		.file 6 "c:\\users\\pchautems\\documents\\robotiquetp\\eclipse_e-puck2\\tools\\gcc-arm-none-eabi-7
 1764              		.file 7 "../lib/e-puck2_main-processor/ChibiOS//os/rt/ports/ARMCMx/compilers/GCC/chtypes.h"
 1765              		.file 8 "../lib/e-puck2_main-processor/ChibiOS//os/rt/include/chsystypes.h"
 1766              		.file 9 "../lib/e-puck2_main-processor/ChibiOS//os/rt/include/chschd.h"
 1767              		.file 10 "../lib/e-puck2_main-processor/ChibiOS//os/ext/CMSIS/include/core_cm4.h"
 1768              		.file 11 "../lib/e-puck2_main-processor/ChibiOS//os/ext/CMSIS/ST/system_stm32f4xx.h"
 1769              		.file 12 "../lib/e-puck2_main-processor/ChibiOS//os/rt/ports/ARMCMx/chcore.h"
 1770              		.file 13 "../lib/e-puck2_main-processor/ChibiOS//os/rt/include/chdebug.h"
 1771              		.file 14 "../lib/e-puck2_main-processor/ChibiOS//os/rt/include/chtm.h"
 1772              		.file 15 "../lib/e-puck2_main-processor/ChibiOS//os/rt/include/chstats.h"
 1773              		.file 16 "../lib/e-puck2_main-processor/ChibiOS//os/rt/include/chsem.h"
 1774              		.file 17 "../lib/e-puck2_main-processor/ChibiOS//os/rt/include/chmtx.h"
 1775              		.file 18 "../lib/e-puck2_main-processor/ChibiOS//os/rt/include/chregistry.h"
 1776              		.file 19 "../lib/e-puck2_main-processor/ChibiOS//os/rt/include/chevents.h"