ARM GAS  C:\Users\PCHAUT~1\AppData\Local\Temp\cceHHvsU.s 			page 1


   1              		.cpu cortex-m4
   2              		.eabi_attribute 27, 1
   3              		.eabi_attribute 28, 1
   4              		.eabi_attribute 20, 1
   5              		.eabi_attribute 21, 1
   6              		.eabi_attribute 23, 3
   7              		.eabi_attribute 24, 1
   8              		.eabi_attribute 25, 1
   9              		.eabi_attribute 26, 1
  10              		.eabi_attribute 30, 6
  11              		.eabi_attribute 34, 1
  12              		.eabi_attribute 18, 4
  13              		.file	"chevents.c"
  14              		.text
  15              	.Ltext0:
  16              		.cfi_sections	.debug_frame
  17              		.section	.text.port_lock,"ax",%progbits
  18              		.align	1
  19              		.p2align 4,,15
  20              		.syntax unified
  21              		.thumb
  22              		.thumb_func
  23              		.fpu fpv4-sp-d16
  24              		.type	port_lock, %function
  25              	port_lock:
  26              	.LFB116:
  27              		.file 1 "../lib/e-puck2_main-processor/ChibiOS//os/rt/ports/ARMCMx/chcore_v7m.h"
  28              		.loc 1 444 0
  29              		.cfi_startproc
  30              		@ args = 0, pretend = 0, frame = 8
  31              		@ frame_needed = 0, uses_anonymous_args = 0
  32 0000 00B5     		push	{lr}
  33              		.cfi_def_cfa_offset 4
  34              		.cfi_offset 14, -4
  35 0002 83B0     		sub	sp, sp, #12
  36              		.cfi_def_cfa_offset 16
  37              		.loc 1 444 0
  38 0004 094B     		ldr	r3, .L3
  39 0006 1B68     		ldr	r3, [r3]
  40 0008 0193     		str	r3, [sp, #4]
  41 000a 2023     		movs	r3, #32
  42 000c 0093     		str	r3, [sp]
  43              	.LBB6:
  44              	.LBB7:
  45              		.file 2 "../lib/e-puck2_main-processor/ChibiOS//os/ext/CMSIS/include/core_cmFunc.h"
  46              		.loc 2 546 0
  47 000e 009B     		ldr	r3, [sp]
  48              		.syntax unified
  49              	@ 546 "../lib/e-puck2_main-processor/ChibiOS//os/ext/CMSIS/include/core_cmFunc.h" 1
  50 0010 83F31188 		MSR basepri, r3
  51              	@ 0 "" 2
  52              		.thumb
  53              		.syntax unified
  54              	.LBE7:
  55              	.LBE6:
  56              		.loc 1 451 0
  57 0014 00BF     		nop
ARM GAS  C:\Users\PCHAUT~1\AppData\Local\Temp\cceHHvsU.s 			page 2


  58 0016 054B     		ldr	r3, .L3
  59 0018 019A     		ldr	r2, [sp, #4]
  60 001a 1B68     		ldr	r3, [r3]
  61 001c 9A42     		cmp	r2, r3
  62 001e 01D0     		beq	.L2
  63 0020 FFF7FEFF 		bl	__stack_chk_fail
  64              	.L2:
  65 0024 03B0     		add	sp, sp, #12
  66              		.cfi_def_cfa_offset 4
  67              		@ sp needed
  68 0026 5DF804FB 		ldr	pc, [sp], #4
  69              	.L4:
  70 002a 00BF     		.align	2
  71              	.L3:
  72 002c 00000000 		.word	__stack_chk_guard
  73              		.cfi_endproc
  74              	.LFE116:
  75              		.size	port_lock, .-port_lock
  76              		.section	.text.port_unlock,"ax",%progbits
  77              		.align	1
  78              		.p2align 4,,15
  79              		.syntax unified
  80              		.thumb
  81              		.thumb_func
  82              		.fpu fpv4-sp-d16
  83              		.type	port_unlock, %function
  84              	port_unlock:
  85              	.LFB117:
  86              		.loc 1 458 0
  87              		.cfi_startproc
  88              		@ args = 0, pretend = 0, frame = 8
  89              		@ frame_needed = 0, uses_anonymous_args = 0
  90 0000 00B5     		push	{lr}
  91              		.cfi_def_cfa_offset 4
  92              		.cfi_offset 14, -4
  93 0002 83B0     		sub	sp, sp, #12
  94              		.cfi_def_cfa_offset 16
  95              		.loc 1 458 0
  96 0004 094B     		ldr	r3, .L7
  97 0006 1B68     		ldr	r3, [r3]
  98 0008 0193     		str	r3, [sp, #4]
  99 000a 0023     		movs	r3, #0
 100 000c 0093     		str	r3, [sp]
 101              	.LBB8:
 102              	.LBB9:
 103              		.loc 2 546 0
 104 000e 009B     		ldr	r3, [sp]
 105              		.syntax unified
 106              	@ 546 "../lib/e-puck2_main-processor/ChibiOS//os/ext/CMSIS/include/core_cmFunc.h" 1
 107 0010 83F31188 		MSR basepri, r3
 108              	@ 0 "" 2
 109              		.thumb
 110              		.syntax unified
 111              	.LBE9:
 112              	.LBE8:
 113              		.loc 1 465 0
 114 0014 00BF     		nop
ARM GAS  C:\Users\PCHAUT~1\AppData\Local\Temp\cceHHvsU.s 			page 3


 115 0016 054B     		ldr	r3, .L7
 116 0018 019A     		ldr	r2, [sp, #4]
 117 001a 1B68     		ldr	r3, [r3]
 118 001c 9A42     		cmp	r2, r3
 119 001e 01D0     		beq	.L6
 120 0020 FFF7FEFF 		bl	__stack_chk_fail
 121              	.L6:
 122 0024 03B0     		add	sp, sp, #12
 123              		.cfi_def_cfa_offset 4
 124              		@ sp needed
 125 0026 5DF804FB 		ldr	pc, [sp], #4
 126              	.L8:
 127 002a 00BF     		.align	2
 128              	.L7:
 129 002c 00000000 		.word	__stack_chk_guard
 130              		.cfi_endproc
 131              	.LFE117:
 132              		.size	port_unlock, .-port_unlock
 133              		.section	.text.chSysLock,"ax",%progbits
 134              		.align	1
 135              		.p2align 4,,15
 136              		.syntax unified
 137              		.thumb
 138              		.thumb_func
 139              		.fpu fpv4-sp-d16
 140              		.type	chSysLock, %function
 141              	chSysLock:
 142              	.LFB145:
 143              		.file 3 "../lib/e-puck2_main-processor/ChibiOS//os/rt/include/chsys.h"
 144              		.loc 3 346 0
 145              		.cfi_startproc
 146              		@ args = 0, pretend = 0, frame = 8
 147              		@ frame_needed = 0, uses_anonymous_args = 0
 148 0000 00B5     		push	{lr}
 149              		.cfi_def_cfa_offset 4
 150              		.cfi_offset 14, -4
 151 0002 83B0     		sub	sp, sp, #12
 152              		.cfi_def_cfa_offset 16
 153              		.loc 3 346 0
 154 0004 094B     		ldr	r3, .L11
 155 0006 1B68     		ldr	r3, [r3]
 156 0008 0193     		str	r3, [sp, #4]
 157              		.loc 3 348 0
 158 000a FFF7FEFF 		bl	port_lock
 159              		.loc 3 349 0
 160 000e FFF7FEFF 		bl	_stats_start_measure_crit_thd
 161              		.loc 3 350 0
 162 0012 FFF7FEFF 		bl	_dbg_check_lock
 163              		.loc 3 351 0
 164 0016 00BF     		nop
 165 0018 044B     		ldr	r3, .L11
 166 001a 019A     		ldr	r2, [sp, #4]
 167 001c 1B68     		ldr	r3, [r3]
 168 001e 9A42     		cmp	r2, r3
 169 0020 01D0     		beq	.L10
 170 0022 FFF7FEFF 		bl	__stack_chk_fail
 171              	.L10:
ARM GAS  C:\Users\PCHAUT~1\AppData\Local\Temp\cceHHvsU.s 			page 4


 172 0026 03B0     		add	sp, sp, #12
 173              		.cfi_def_cfa_offset 4
 174              		@ sp needed
 175 0028 5DF804FB 		ldr	pc, [sp], #4
 176              	.L12:
 177              		.align	2
 178              	.L11:
 179 002c 00000000 		.word	__stack_chk_guard
 180              		.cfi_endproc
 181              	.LFE145:
 182              		.size	chSysLock, .-chSysLock
 183              		.section	.text.chSysUnlock,"ax",%progbits
 184              		.align	1
 185              		.p2align 4,,15
 186              		.syntax unified
 187              		.thumb
 188              		.thumb_func
 189              		.fpu fpv4-sp-d16
 190              		.type	chSysUnlock, %function
 191              	chSysUnlock:
 192              	.LFB146:
 193              		.loc 3 358 0
 194              		.cfi_startproc
 195              		@ args = 0, pretend = 0, frame = 8
 196              		@ frame_needed = 0, uses_anonymous_args = 0
 197 0000 00B5     		push	{lr}
 198              		.cfi_def_cfa_offset 4
 199              		.cfi_offset 14, -4
 200 0002 83B0     		sub	sp, sp, #12
 201              		.cfi_def_cfa_offset 16
 202              		.loc 3 358 0
 203 0004 114B     		ldr	r3, .L16
 204 0006 1B68     		ldr	r3, [r3]
 205 0008 0193     		str	r3, [sp, #4]
 206              		.loc 3 360 0
 207 000a FFF7FEFF 		bl	_dbg_check_unlock
 208              		.loc 3 361 0
 209 000e FFF7FEFF 		bl	_stats_stop_measure_crit_thd
 210              		.loc 3 367 0
 211 0012 0F4B     		ldr	r3, .L16+4
 212 0014 1B68     		ldr	r3, [r3]
 213 0016 0E4A     		ldr	r2, .L16+4
 214 0018 9342     		cmp	r3, r2
 215 001a 0AD0     		beq	.L14
 216              		.loc 3 367 0 is_stmt 0 discriminator 2
 217 001c 0C4B     		ldr	r3, .L16+4
 218 001e 9B69     		ldr	r3, [r3, #24]
 219 0020 9A68     		ldr	r2, [r3, #8]
 220 0022 0B4B     		ldr	r3, .L16+4
 221 0024 1B68     		ldr	r3, [r3]
 222 0026 9B68     		ldr	r3, [r3, #8]
 223 0028 9A42     		cmp	r2, r3
 224 002a 02D2     		bcs	.L14
 225              		.loc 3 367 0 discriminator 3
 226 002c 0948     		ldr	r0, .L16+8
 227 002e FFF7FEFF 		bl	chSysHalt
 228              	.L14:
ARM GAS  C:\Users\PCHAUT~1\AppData\Local\Temp\cceHHvsU.s 			page 5


 229              		.loc 3 371 0 is_stmt 1
 230 0032 FFF7FEFF 		bl	port_unlock
 231              		.loc 3 372 0
 232 0036 00BF     		nop
 233 0038 044B     		ldr	r3, .L16
 234 003a 019A     		ldr	r2, [sp, #4]
 235 003c 1B68     		ldr	r3, [r3]
 236 003e 9A42     		cmp	r2, r3
 237 0040 01D0     		beq	.L15
 238 0042 FFF7FEFF 		bl	__stack_chk_fail
 239              	.L15:
 240 0046 03B0     		add	sp, sp, #12
 241              		.cfi_def_cfa_offset 4
 242              		@ sp needed
 243 0048 5DF804FB 		ldr	pc, [sp], #4
 244              	.L17:
 245              		.align	2
 246              	.L16:
 247 004c 00000000 		.word	__stack_chk_guard
 248 0050 00000000 		.word	ch
 249 0054 00000000 		.word	__func__.7153
 250              		.cfi_endproc
 251              	.LFE146:
 252              		.size	chSysUnlock, .-chSysUnlock
 253              		.section	.text.chEvtRegisterMaskWithFlags,"ax",%progbits
 254              		.align	1
 255              		.p2align 4,,15
 256              		.global	chEvtRegisterMaskWithFlags
 257              		.syntax unified
 258              		.thumb
 259              		.thumb_func
 260              		.fpu fpv4-sp-d16
 261              		.type	chEvtRegisterMaskWithFlags, %function
 262              	chEvtRegisterMaskWithFlags:
 263              	.LFB219:
 264              		.file 4 "../lib/e-puck2_main-processor/ChibiOS//os/rt/src/chevents.c"
 265              		.loc 4 106 0
 266              		.cfi_startproc
 267              		@ args = 0, pretend = 0, frame = 24
 268              		@ frame_needed = 0, uses_anonymous_args = 0
 269 0000 00B5     		push	{lr}
 270              		.cfi_def_cfa_offset 4
 271              		.cfi_offset 14, -4
 272 0002 87B0     		sub	sp, sp, #28
 273              		.cfi_def_cfa_offset 32
 274 0004 0390     		str	r0, [sp, #12]
 275 0006 0291     		str	r1, [sp, #8]
 276 0008 0192     		str	r2, [sp, #4]
 277 000a 0093     		str	r3, [sp]
 278              		.loc 4 106 0
 279 000c 174B     		ldr	r3, .L22
 280 000e 1B68     		ldr	r3, [r3]
 281 0010 0593     		str	r3, [sp, #20]
 282              		.loc 4 108 0
 283 0012 039B     		ldr	r3, [sp, #12]
 284 0014 002B     		cmp	r3, #0
 285 0016 02D0     		beq	.L19
ARM GAS  C:\Users\PCHAUT~1\AppData\Local\Temp\cceHHvsU.s 			page 6


 286              		.loc 4 108 0 is_stmt 0 discriminator 3
 287 0018 029B     		ldr	r3, [sp, #8]
 288 001a 002B     		cmp	r3, #0
 289 001c 02D1     		bne	.L20
 290              	.L19:
 291              		.loc 4 108 0 discriminator 4
 292 001e 1448     		ldr	r0, .L22+4
 293 0020 FFF7FEFF 		bl	chSysHalt
 294              	.L20:
 295              		.loc 4 110 0 is_stmt 1
 296 0024 FFF7FEFF 		bl	chSysLock
 297              		.loc 4 111 0
 298 0028 039B     		ldr	r3, [sp, #12]
 299 002a 1A68     		ldr	r2, [r3]
 300 002c 029B     		ldr	r3, [sp, #8]
 301 002e 1A60     		str	r2, [r3]
 302              		.loc 4 112 0
 303 0030 039B     		ldr	r3, [sp, #12]
 304 0032 029A     		ldr	r2, [sp, #8]
 305 0034 1A60     		str	r2, [r3]
 306              		.loc 4 113 0
 307 0036 0F4B     		ldr	r3, .L22+8
 308 0038 9A69     		ldr	r2, [r3, #24]
 309 003a 029B     		ldr	r3, [sp, #8]
 310 003c 5A60     		str	r2, [r3, #4]
 311              		.loc 4 114 0
 312 003e 029B     		ldr	r3, [sp, #8]
 313 0040 019A     		ldr	r2, [sp, #4]
 314 0042 9A60     		str	r2, [r3, #8]
 315              		.loc 4 115 0
 316 0044 029B     		ldr	r3, [sp, #8]
 317 0046 0022     		movs	r2, #0
 318 0048 DA60     		str	r2, [r3, #12]
 319              		.loc 4 116 0
 320 004a 029B     		ldr	r3, [sp, #8]
 321 004c 009A     		ldr	r2, [sp]
 322 004e 1A61     		str	r2, [r3, #16]
 323              		.loc 4 117 0
 324 0050 FFF7FEFF 		bl	chSysUnlock
 325              		.loc 4 118 0
 326 0054 00BF     		nop
 327 0056 054B     		ldr	r3, .L22
 328 0058 059A     		ldr	r2, [sp, #20]
 329 005a 1B68     		ldr	r3, [r3]
 330 005c 9A42     		cmp	r2, r3
 331 005e 01D0     		beq	.L21
 332 0060 FFF7FEFF 		bl	__stack_chk_fail
 333              	.L21:
 334 0064 07B0     		add	sp, sp, #28
 335              		.cfi_def_cfa_offset 4
 336              		@ sp needed
 337 0066 5DF804FB 		ldr	pc, [sp], #4
 338              	.L23:
 339 006a 00BF     		.align	2
 340              	.L22:
 341 006c 00000000 		.word	__stack_chk_guard
 342 0070 00000000 		.word	__func__.7852
ARM GAS  C:\Users\PCHAUT~1\AppData\Local\Temp\cceHHvsU.s 			page 7


 343 0074 00000000 		.word	ch
 344              		.cfi_endproc
 345              	.LFE219:
 346              		.size	chEvtRegisterMaskWithFlags, .-chEvtRegisterMaskWithFlags
 347              		.section	.text.chEvtUnregister,"ax",%progbits
 348              		.align	1
 349              		.p2align 4,,15
 350              		.global	chEvtUnregister
 351              		.syntax unified
 352              		.thumb
 353              		.thumb_func
 354              		.fpu fpv4-sp-d16
 355              		.type	chEvtUnregister, %function
 356              	chEvtUnregister:
 357              	.LFB220:
 358              		.loc 4 133 0
 359              		.cfi_startproc
 360              		@ args = 0, pretend = 0, frame = 16
 361              		@ frame_needed = 0, uses_anonymous_args = 0
 362 0000 00B5     		push	{lr}
 363              		.cfi_def_cfa_offset 4
 364              		.cfi_offset 14, -4
 365 0002 85B0     		sub	sp, sp, #20
 366              		.cfi_def_cfa_offset 24
 367 0004 0190     		str	r0, [sp, #4]
 368 0006 0091     		str	r1, [sp]
 369              		.loc 4 133 0
 370 0008 174B     		ldr	r3, .L32
 371 000a 1B68     		ldr	r3, [r3]
 372 000c 0393     		str	r3, [sp, #12]
 373              		.loc 4 136 0
 374 000e 019B     		ldr	r3, [sp, #4]
 375 0010 002B     		cmp	r3, #0
 376 0012 02D0     		beq	.L25
 377              		.loc 4 136 0 is_stmt 0 discriminator 3
 378 0014 009B     		ldr	r3, [sp]
 379 0016 002B     		cmp	r3, #0
 380 0018 02D1     		bne	.L26
 381              	.L25:
 382              		.loc 4 136 0 discriminator 4
 383 001a 1448     		ldr	r0, .L32+4
 384 001c FFF7FEFF 		bl	chSysHalt
 385              	.L26:
 386              		.loc 4 139 0 is_stmt 1
 387 0020 019B     		ldr	r3, [sp, #4]
 388 0022 0293     		str	r3, [sp, #8]
 389              		.loc 4 141 0
 390 0024 FFF7FEFF 		bl	chSysLock
 391              		.loc 4 143 0
 392 0028 0CE0     		b	.L27
 393              	.L30:
 394              		.loc 4 145 0
 395 002a 029B     		ldr	r3, [sp, #8]
 396 002c 1B68     		ldr	r3, [r3]
 397 002e 009A     		ldr	r2, [sp]
 398 0030 9A42     		cmp	r2, r3
 399 0032 04D1     		bne	.L28
ARM GAS  C:\Users\PCHAUT~1\AppData\Local\Temp\cceHHvsU.s 			page 8


 400              		.loc 4 146 0
 401 0034 009B     		ldr	r3, [sp]
 402 0036 1A68     		ldr	r2, [r3]
 403 0038 029B     		ldr	r3, [sp, #8]
 404 003a 1A60     		str	r2, [r3]
 405              		.loc 4 147 0
 406 003c 07E0     		b	.L29
 407              	.L28:
 408              		.loc 4 149 0
 409 003e 029B     		ldr	r3, [sp, #8]
 410 0040 1B68     		ldr	r3, [r3]
 411 0042 0293     		str	r3, [sp, #8]
 412              	.L27:
 413              		.loc 4 143 0
 414 0044 029B     		ldr	r3, [sp, #8]
 415 0046 1B68     		ldr	r3, [r3]
 416 0048 019A     		ldr	r2, [sp, #4]
 417 004a 9A42     		cmp	r2, r3
 418 004c EDD1     		bne	.L30
 419              	.L29:
 420              		.loc 4 151 0
 421 004e FFF7FEFF 		bl	chSysUnlock
 422              		.loc 4 152 0
 423 0052 00BF     		nop
 424 0054 044B     		ldr	r3, .L32
 425 0056 039A     		ldr	r2, [sp, #12]
 426 0058 1B68     		ldr	r3, [r3]
 427 005a 9A42     		cmp	r2, r3
 428 005c 01D0     		beq	.L31
 429 005e FFF7FEFF 		bl	__stack_chk_fail
 430              	.L31:
 431 0062 05B0     		add	sp, sp, #20
 432              		.cfi_def_cfa_offset 4
 433              		@ sp needed
 434 0064 5DF804FB 		ldr	pc, [sp], #4
 435              	.L33:
 436              		.align	2
 437              	.L32:
 438 0068 00000000 		.word	__stack_chk_guard
 439 006c 00000000 		.word	__func__.7858
 440              		.cfi_endproc
 441              	.LFE220:
 442              		.size	chEvtUnregister, .-chEvtUnregister
 443              		.section	.text.chEvtGetAndClearEvents,"ax",%progbits
 444              		.align	1
 445              		.p2align 4,,15
 446              		.global	chEvtGetAndClearEvents
 447              		.syntax unified
 448              		.thumb
 449              		.thumb_func
 450              		.fpu fpv4-sp-d16
 451              		.type	chEvtGetAndClearEvents, %function
 452              	chEvtGetAndClearEvents:
 453              	.LFB221:
 454              		.loc 4 162 0
 455              		.cfi_startproc
 456              		@ args = 0, pretend = 0, frame = 16
ARM GAS  C:\Users\PCHAUT~1\AppData\Local\Temp\cceHHvsU.s 			page 9


 457              		@ frame_needed = 0, uses_anonymous_args = 0
 458 0000 00B5     		push	{lr}
 459              		.cfi_def_cfa_offset 4
 460              		.cfi_offset 14, -4
 461 0002 85B0     		sub	sp, sp, #20
 462              		.cfi_def_cfa_offset 24
 463 0004 0190     		str	r0, [sp, #4]
 464              		.loc 4 162 0
 465 0006 114B     		ldr	r3, .L37
 466 0008 1B68     		ldr	r3, [r3]
 467 000a 0393     		str	r3, [sp, #12]
 468              		.loc 4 165 0
 469 000c FFF7FEFF 		bl	chSysLock
 470              		.loc 4 166 0
 471 0010 0F4B     		ldr	r3, .L37+4
 472 0012 9B69     		ldr	r3, [r3, #24]
 473 0014 DB6B     		ldr	r3, [r3, #60]
 474 0016 019A     		ldr	r2, [sp, #4]
 475 0018 1340     		ands	r3, r3, r2
 476 001a 0293     		str	r3, [sp, #8]
 477              		.loc 4 167 0
 478 001c 0C4B     		ldr	r3, .L37+4
 479 001e 9B69     		ldr	r3, [r3, #24]
 480 0020 D96B     		ldr	r1, [r3, #60]
 481 0022 019B     		ldr	r3, [sp, #4]
 482 0024 DA43     		mvns	r2, r3
 483 0026 0A4B     		ldr	r3, .L37+4
 484 0028 9B69     		ldr	r3, [r3, #24]
 485 002a 0A40     		ands	r2, r2, r1
 486 002c DA63     		str	r2, [r3, #60]
 487              		.loc 4 168 0
 488 002e FFF7FEFF 		bl	chSysUnlock
 489              		.loc 4 170 0
 490 0032 029B     		ldr	r3, [sp, #8]
 491              		.loc 4 171 0
 492 0034 1846     		mov	r0, r3
 493 0036 054B     		ldr	r3, .L37
 494 0038 039A     		ldr	r2, [sp, #12]
 495 003a 1B68     		ldr	r3, [r3]
 496 003c 9A42     		cmp	r2, r3
 497 003e 01D0     		beq	.L36
 498 0040 FFF7FEFF 		bl	__stack_chk_fail
 499              	.L36:
 500 0044 05B0     		add	sp, sp, #20
 501              		.cfi_def_cfa_offset 4
 502              		@ sp needed
 503 0046 5DF804FB 		ldr	pc, [sp], #4
 504              	.L38:
 505 004a 00BF     		.align	2
 506              	.L37:
 507 004c 00000000 		.word	__stack_chk_guard
 508 0050 00000000 		.word	ch
 509              		.cfi_endproc
 510              	.LFE221:
 511              		.size	chEvtGetAndClearEvents, .-chEvtGetAndClearEvents
 512              		.section	.text.chEvtAddEvents,"ax",%progbits
 513              		.align	1
ARM GAS  C:\Users\PCHAUT~1\AppData\Local\Temp\cceHHvsU.s 			page 10


 514              		.p2align 4,,15
 515              		.global	chEvtAddEvents
 516              		.syntax unified
 517              		.thumb
 518              		.thumb_func
 519              		.fpu fpv4-sp-d16
 520              		.type	chEvtAddEvents, %function
 521              	chEvtAddEvents:
 522              	.LFB222:
 523              		.loc 4 182 0
 524              		.cfi_startproc
 525              		@ args = 0, pretend = 0, frame = 16
 526              		@ frame_needed = 0, uses_anonymous_args = 0
 527 0000 00B5     		push	{lr}
 528              		.cfi_def_cfa_offset 4
 529              		.cfi_offset 14, -4
 530 0002 85B0     		sub	sp, sp, #20
 531              		.cfi_def_cfa_offset 24
 532 0004 0190     		str	r0, [sp, #4]
 533              		.loc 4 182 0
 534 0006 0F4B     		ldr	r3, .L42
 535 0008 1B68     		ldr	r3, [r3]
 536 000a 0393     		str	r3, [sp, #12]
 537              		.loc 4 184 0
 538 000c FFF7FEFF 		bl	chSysLock
 539              		.loc 4 185 0
 540 0010 0D4B     		ldr	r3, .L42+4
 541 0012 9B69     		ldr	r3, [r3, #24]
 542 0014 D96B     		ldr	r1, [r3, #60]
 543 0016 0C4B     		ldr	r3, .L42+4
 544 0018 9B69     		ldr	r3, [r3, #24]
 545 001a 019A     		ldr	r2, [sp, #4]
 546 001c 0A43     		orrs	r2, r2, r1
 547 001e DA63     		str	r2, [r3, #60]
 548              		.loc 4 186 0
 549 0020 094B     		ldr	r3, .L42+4
 550 0022 9B69     		ldr	r3, [r3, #24]
 551 0024 DB6B     		ldr	r3, [r3, #60]
 552 0026 0193     		str	r3, [sp, #4]
 553              		.loc 4 187 0
 554 0028 FFF7FEFF 		bl	chSysUnlock
 555              		.loc 4 189 0
 556 002c 019B     		ldr	r3, [sp, #4]
 557              		.loc 4 190 0
 558 002e 1846     		mov	r0, r3
 559 0030 044B     		ldr	r3, .L42
 560 0032 039A     		ldr	r2, [sp, #12]
 561 0034 1B68     		ldr	r3, [r3]
 562 0036 9A42     		cmp	r2, r3
 563 0038 01D0     		beq	.L41
 564 003a FFF7FEFF 		bl	__stack_chk_fail
 565              	.L41:
 566 003e 05B0     		add	sp, sp, #20
 567              		.cfi_def_cfa_offset 4
 568              		@ sp needed
 569 0040 5DF804FB 		ldr	pc, [sp], #4
 570              	.L43:
ARM GAS  C:\Users\PCHAUT~1\AppData\Local\Temp\cceHHvsU.s 			page 11


 571              		.align	2
 572              	.L42:
 573 0044 00000000 		.word	__stack_chk_guard
 574 0048 00000000 		.word	ch
 575              		.cfi_endproc
 576              	.LFE222:
 577              		.size	chEvtAddEvents, .-chEvtAddEvents
 578              		.section	.text.chEvtBroadcastFlagsI,"ax",%progbits
 579              		.align	1
 580              		.p2align 4,,15
 581              		.global	chEvtBroadcastFlagsI
 582              		.syntax unified
 583              		.thumb
 584              		.thumb_func
 585              		.fpu fpv4-sp-d16
 586              		.type	chEvtBroadcastFlagsI, %function
 587              	chEvtBroadcastFlagsI:
 588              	.LFB223:
 589              		.loc 4 209 0
 590              		.cfi_startproc
 591              		@ args = 0, pretend = 0, frame = 16
 592              		@ frame_needed = 0, uses_anonymous_args = 0
 593 0000 00B5     		push	{lr}
 594              		.cfi_def_cfa_offset 4
 595              		.cfi_offset 14, -4
 596 0002 85B0     		sub	sp, sp, #20
 597              		.cfi_def_cfa_offset 24
 598 0004 0190     		str	r0, [sp, #4]
 599 0006 0091     		str	r1, [sp]
 600              		.loc 4 209 0
 601 0008 1C4B     		ldr	r3, .L51
 602 000a 1B68     		ldr	r3, [r3]
 603 000c 0393     		str	r3, [sp, #12]
 604              		.loc 4 212 0
 605 000e FFF7FEFF 		bl	chDbgCheckClassI
 606              		.loc 4 213 0
 607 0012 019B     		ldr	r3, [sp, #4]
 608 0014 002B     		cmp	r3, #0
 609 0016 02D1     		bne	.L45
 610              		.loc 4 213 0 is_stmt 0 discriminator 2
 611 0018 1948     		ldr	r0, .L51+4
 612 001a FFF7FEFF 		bl	chSysHalt
 613              	.L45:
 614              		.loc 4 215 0 is_stmt 1
 615 001e 019B     		ldr	r3, [sp, #4]
 616 0020 1B68     		ldr	r3, [r3]
 617 0022 0293     		str	r3, [sp, #8]
 618              		.loc 4 217 0
 619 0024 1AE0     		b	.L46
 620              	.L49:
 621              		.loc 4 219 0
 622 0026 029B     		ldr	r3, [sp, #8]
 623 0028 DA68     		ldr	r2, [r3, #12]
 624 002a 009B     		ldr	r3, [sp]
 625 002c 1A43     		orrs	r2, r2, r3
 626 002e 029B     		ldr	r3, [sp, #8]
 627 0030 DA60     		str	r2, [r3, #12]
ARM GAS  C:\Users\PCHAUT~1\AppData\Local\Temp\cceHHvsU.s 			page 12


 628              		.loc 4 222 0
 629 0032 009B     		ldr	r3, [sp]
 630 0034 002B     		cmp	r3, #0
 631 0036 06D0     		beq	.L47
 632              		.loc 4 223 0 discriminator 1
 633 0038 029B     		ldr	r3, [sp, #8]
 634 003a DA68     		ldr	r2, [r3, #12]
 635 003c 029B     		ldr	r3, [sp, #8]
 636 003e 1B69     		ldr	r3, [r3, #16]
 637 0040 1340     		ands	r3, r3, r2
 638              		.loc 4 222 0 discriminator 1
 639 0042 002B     		cmp	r3, #0
 640 0044 07D0     		beq	.L48
 641              	.L47:
 642              		.loc 4 224 0
 643 0046 029B     		ldr	r3, [sp, #8]
 644 0048 5A68     		ldr	r2, [r3, #4]
 645 004a 029B     		ldr	r3, [sp, #8]
 646 004c 9B68     		ldr	r3, [r3, #8]
 647 004e 1946     		mov	r1, r3
 648 0050 1046     		mov	r0, r2
 649 0052 FFF7FEFF 		bl	chEvtSignalI
 650              	.L48:
 651              		.loc 4 226 0
 652 0056 029B     		ldr	r3, [sp, #8]
 653 0058 1B68     		ldr	r3, [r3]
 654 005a 0293     		str	r3, [sp, #8]
 655              	.L46:
 656              		.loc 4 217 0
 657 005c 029A     		ldr	r2, [sp, #8]
 658 005e 019B     		ldr	r3, [sp, #4]
 659 0060 9A42     		cmp	r2, r3
 660 0062 E0D1     		bne	.L49
 661              		.loc 4 228 0
 662 0064 00BF     		nop
 663 0066 054B     		ldr	r3, .L51
 664 0068 039A     		ldr	r2, [sp, #12]
 665 006a 1B68     		ldr	r3, [r3]
 666 006c 9A42     		cmp	r2, r3
 667 006e 01D0     		beq	.L50
 668 0070 FFF7FEFF 		bl	__stack_chk_fail
 669              	.L50:
 670 0074 05B0     		add	sp, sp, #20
 671              		.cfi_def_cfa_offset 4
 672              		@ sp needed
 673 0076 5DF804FB 		ldr	pc, [sp], #4
 674              	.L52:
 675 007a 00BF     		.align	2
 676              	.L51:
 677 007c 00000000 		.word	__stack_chk_guard
 678 0080 00000000 		.word	__func__.7874
 679              		.cfi_endproc
 680              	.LFE223:
 681              		.size	chEvtBroadcastFlagsI, .-chEvtBroadcastFlagsI
 682              		.section	.text.chEvtGetAndClearFlags,"ax",%progbits
 683              		.align	1
 684              		.p2align 4,,15
ARM GAS  C:\Users\PCHAUT~1\AppData\Local\Temp\cceHHvsU.s 			page 13


 685              		.global	chEvtGetAndClearFlags
 686              		.syntax unified
 687              		.thumb
 688              		.thumb_func
 689              		.fpu fpv4-sp-d16
 690              		.type	chEvtGetAndClearFlags, %function
 691              	chEvtGetAndClearFlags:
 692              	.LFB224:
 693              		.loc 4 241 0
 694              		.cfi_startproc
 695              		@ args = 0, pretend = 0, frame = 16
 696              		@ frame_needed = 0, uses_anonymous_args = 0
 697 0000 00B5     		push	{lr}
 698              		.cfi_def_cfa_offset 4
 699              		.cfi_offset 14, -4
 700 0002 85B0     		sub	sp, sp, #20
 701              		.cfi_def_cfa_offset 24
 702 0004 0190     		str	r0, [sp, #4]
 703              		.loc 4 241 0
 704 0006 0C4B     		ldr	r3, .L56
 705 0008 1B68     		ldr	r3, [r3]
 706 000a 0393     		str	r3, [sp, #12]
 707              		.loc 4 244 0
 708 000c FFF7FEFF 		bl	chSysLock
 709              		.loc 4 245 0
 710 0010 019B     		ldr	r3, [sp, #4]
 711 0012 DB68     		ldr	r3, [r3, #12]
 712 0014 0293     		str	r3, [sp, #8]
 713              		.loc 4 246 0
 714 0016 019B     		ldr	r3, [sp, #4]
 715 0018 0022     		movs	r2, #0
 716 001a DA60     		str	r2, [r3, #12]
 717              		.loc 4 247 0
 718 001c FFF7FEFF 		bl	chSysUnlock
 719              		.loc 4 249 0
 720 0020 029B     		ldr	r3, [sp, #8]
 721              		.loc 4 250 0
 722 0022 1846     		mov	r0, r3
 723 0024 044B     		ldr	r3, .L56
 724 0026 039A     		ldr	r2, [sp, #12]
 725 0028 1B68     		ldr	r3, [r3]
 726 002a 9A42     		cmp	r2, r3
 727 002c 01D0     		beq	.L55
 728 002e FFF7FEFF 		bl	__stack_chk_fail
 729              	.L55:
 730 0032 05B0     		add	sp, sp, #20
 731              		.cfi_def_cfa_offset 4
 732              		@ sp needed
 733 0034 5DF804FB 		ldr	pc, [sp], #4
 734              	.L57:
 735              		.align	2
 736              	.L56:
 737 0038 00000000 		.word	__stack_chk_guard
 738              		.cfi_endproc
 739              	.LFE224:
 740              		.size	chEvtGetAndClearFlags, .-chEvtGetAndClearFlags
 741              		.section	.text.chEvtSignal,"ax",%progbits
ARM GAS  C:\Users\PCHAUT~1\AppData\Local\Temp\cceHHvsU.s 			page 14


 742              		.align	1
 743              		.p2align 4,,15
 744              		.global	chEvtSignal
 745              		.syntax unified
 746              		.thumb
 747              		.thumb_func
 748              		.fpu fpv4-sp-d16
 749              		.type	chEvtSignal, %function
 750              	chEvtSignal:
 751              	.LFB225:
 752              		.loc 4 260 0
 753              		.cfi_startproc
 754              		@ args = 0, pretend = 0, frame = 16
 755              		@ frame_needed = 0, uses_anonymous_args = 0
 756 0000 00B5     		push	{lr}
 757              		.cfi_def_cfa_offset 4
 758              		.cfi_offset 14, -4
 759 0002 85B0     		sub	sp, sp, #20
 760              		.cfi_def_cfa_offset 24
 761 0004 0190     		str	r0, [sp, #4]
 762 0006 0091     		str	r1, [sp]
 763              		.loc 4 260 0
 764 0008 0E4B     		ldr	r3, .L61
 765 000a 1B68     		ldr	r3, [r3]
 766 000c 0393     		str	r3, [sp, #12]
 767              		.loc 4 262 0
 768 000e 019B     		ldr	r3, [sp, #4]
 769 0010 002B     		cmp	r3, #0
 770 0012 02D1     		bne	.L59
 771              		.loc 4 262 0 is_stmt 0 discriminator 2
 772 0014 0C48     		ldr	r0, .L61+4
 773 0016 FFF7FEFF 		bl	chSysHalt
 774              	.L59:
 775              		.loc 4 264 0 is_stmt 1
 776 001a FFF7FEFF 		bl	chSysLock
 777              		.loc 4 265 0
 778 001e 0099     		ldr	r1, [sp]
 779 0020 0198     		ldr	r0, [sp, #4]
 780 0022 FFF7FEFF 		bl	chEvtSignalI
 781              		.loc 4 266 0
 782 0026 FFF7FEFF 		bl	chSchRescheduleS
 783              		.loc 4 267 0
 784 002a FFF7FEFF 		bl	chSysUnlock
 785              		.loc 4 268 0
 786 002e 00BF     		nop
 787 0030 044B     		ldr	r3, .L61
 788 0032 039A     		ldr	r2, [sp, #12]
 789 0034 1B68     		ldr	r3, [r3]
 790 0036 9A42     		cmp	r2, r3
 791 0038 01D0     		beq	.L60
 792 003a FFF7FEFF 		bl	__stack_chk_fail
 793              	.L60:
 794 003e 05B0     		add	sp, sp, #20
 795              		.cfi_def_cfa_offset 4
 796              		@ sp needed
 797 0040 5DF804FB 		ldr	pc, [sp], #4
 798              	.L62:
ARM GAS  C:\Users\PCHAUT~1\AppData\Local\Temp\cceHHvsU.s 			page 15


 799              		.align	2
 800              	.L61:
 801 0044 00000000 		.word	__stack_chk_guard
 802 0048 00000000 		.word	__func__.7886
 803              		.cfi_endproc
 804              	.LFE225:
 805              		.size	chEvtSignal, .-chEvtSignal
 806              		.section	.text.chEvtSignalI,"ax",%progbits
 807              		.align	1
 808              		.p2align 4,,15
 809              		.global	chEvtSignalI
 810              		.syntax unified
 811              		.thumb
 812              		.thumb_func
 813              		.fpu fpv4-sp-d16
 814              		.type	chEvtSignalI, %function
 815              	chEvtSignalI:
 816              	.LFB226:
 817              		.loc 4 282 0
 818              		.cfi_startproc
 819              		@ args = 0, pretend = 0, frame = 16
 820              		@ frame_needed = 0, uses_anonymous_args = 0
 821 0000 00B5     		push	{lr}
 822              		.cfi_def_cfa_offset 4
 823              		.cfi_offset 14, -4
 824 0002 85B0     		sub	sp, sp, #20
 825              		.cfi_def_cfa_offset 24
 826 0004 0190     		str	r0, [sp, #4]
 827 0006 0091     		str	r1, [sp]
 828              		.loc 4 282 0
 829 0008 1D4B     		ldr	r3, .L70
 830 000a 1B68     		ldr	r3, [r3]
 831 000c 0393     		str	r3, [sp, #12]
 832              		.loc 4 284 0
 833 000e FFF7FEFF 		bl	chDbgCheckClassI
 834              		.loc 4 285 0
 835 0012 019B     		ldr	r3, [sp, #4]
 836 0014 002B     		cmp	r3, #0
 837 0016 02D1     		bne	.L64
 838              		.loc 4 285 0 is_stmt 0 discriminator 2
 839 0018 1A48     		ldr	r0, .L70+4
 840 001a FFF7FEFF 		bl	chSysHalt
 841              	.L64:
 842              		.loc 4 287 0 is_stmt 1
 843 001e 019B     		ldr	r3, [sp, #4]
 844 0020 DA6B     		ldr	r2, [r3, #60]
 845 0022 009B     		ldr	r3, [sp]
 846 0024 1A43     		orrs	r2, r2, r3
 847 0026 019B     		ldr	r3, [sp, #4]
 848 0028 DA63     		str	r2, [r3, #60]
 849              		.loc 4 289 0
 850 002a 019B     		ldr	r3, [sp, #4]
 851 002c 93F82030 		ldrb	r3, [r3, #32]	@ zero_extendqisi2
 852 0030 0A2B     		cmp	r3, #10
 853 0032 06D1     		bne	.L65
 854              		.loc 4 290 0 discriminator 1
 855 0034 019B     		ldr	r3, [sp, #4]
ARM GAS  C:\Users\PCHAUT~1\AppData\Local\Temp\cceHHvsU.s 			page 16


 856 0036 DA6B     		ldr	r2, [r3, #60]
 857 0038 019B     		ldr	r3, [sp, #4]
 858 003a 9B6A     		ldr	r3, [r3, #40]
 859 003c 1340     		ands	r3, r3, r2
 860              		.loc 4 289 0 discriminator 1
 861 003e 002B     		cmp	r3, #0
 862 0040 0DD1     		bne	.L66
 863              	.L65:
 864              		.loc 4 291 0
 865 0042 019B     		ldr	r3, [sp, #4]
 866 0044 93F82030 		ldrb	r3, [r3, #32]	@ zero_extendqisi2
 867              		.loc 4 290 0
 868 0048 0B2B     		cmp	r3, #11
 869 004a 0ED1     		bne	.L69
 870              		.loc 4 292 0
 871 004c 019B     		ldr	r3, [sp, #4]
 872 004e DA6B     		ldr	r2, [r3, #60]
 873 0050 019B     		ldr	r3, [sp, #4]
 874 0052 9B6A     		ldr	r3, [r3, #40]
 875 0054 1A40     		ands	r2, r2, r3
 876 0056 019B     		ldr	r3, [sp, #4]
 877 0058 9B6A     		ldr	r3, [r3, #40]
 878              		.loc 4 291 0
 879 005a 9A42     		cmp	r2, r3
 880 005c 05D1     		bne	.L69
 881              	.L66:
 882              		.loc 4 293 0
 883 005e 019B     		ldr	r3, [sp, #4]
 884 0060 0022     		movs	r2, #0
 885 0062 9A62     		str	r2, [r3, #40]
 886              		.loc 4 294 0
 887 0064 0198     		ldr	r0, [sp, #4]
 888 0066 FFF7FEFF 		bl	chSchReadyI
 889              	.L69:
 890              		.loc 4 296 0
 891 006a 00BF     		nop
 892 006c 044B     		ldr	r3, .L70
 893 006e 039A     		ldr	r2, [sp, #12]
 894 0070 1B68     		ldr	r3, [r3]
 895 0072 9A42     		cmp	r2, r3
 896 0074 01D0     		beq	.L68
 897 0076 FFF7FEFF 		bl	__stack_chk_fail
 898              	.L68:
 899 007a 05B0     		add	sp, sp, #20
 900              		.cfi_def_cfa_offset 4
 901              		@ sp needed
 902 007c 5DF804FB 		ldr	pc, [sp], #4
 903              	.L71:
 904              		.align	2
 905              	.L70:
 906 0080 00000000 		.word	__stack_chk_guard
 907 0084 00000000 		.word	__func__.7891
 908              		.cfi_endproc
 909              	.LFE226:
 910              		.size	chEvtSignalI, .-chEvtSignalI
 911              		.section	.text.chEvtBroadcastFlags,"ax",%progbits
 912              		.align	1
ARM GAS  C:\Users\PCHAUT~1\AppData\Local\Temp\cceHHvsU.s 			page 17


 913              		.p2align 4,,15
 914              		.global	chEvtBroadcastFlags
 915              		.syntax unified
 916              		.thumb
 917              		.thumb_func
 918              		.fpu fpv4-sp-d16
 919              		.type	chEvtBroadcastFlags, %function
 920              	chEvtBroadcastFlags:
 921              	.LFB227:
 922              		.loc 4 311 0
 923              		.cfi_startproc
 924              		@ args = 0, pretend = 0, frame = 16
 925              		@ frame_needed = 0, uses_anonymous_args = 0
 926 0000 00B5     		push	{lr}
 927              		.cfi_def_cfa_offset 4
 928              		.cfi_offset 14, -4
 929 0002 85B0     		sub	sp, sp, #20
 930              		.cfi_def_cfa_offset 24
 931 0004 0190     		str	r0, [sp, #4]
 932 0006 0091     		str	r1, [sp]
 933              		.loc 4 311 0
 934 0008 0B4B     		ldr	r3, .L74
 935 000a 1B68     		ldr	r3, [r3]
 936 000c 0393     		str	r3, [sp, #12]
 937              		.loc 4 313 0
 938 000e FFF7FEFF 		bl	chSysLock
 939              		.loc 4 314 0
 940 0012 0099     		ldr	r1, [sp]
 941 0014 0198     		ldr	r0, [sp, #4]
 942 0016 FFF7FEFF 		bl	chEvtBroadcastFlagsI
 943              		.loc 4 315 0
 944 001a FFF7FEFF 		bl	chSchRescheduleS
 945              		.loc 4 316 0
 946 001e FFF7FEFF 		bl	chSysUnlock
 947              		.loc 4 317 0
 948 0022 00BF     		nop
 949 0024 044B     		ldr	r3, .L74
 950 0026 039A     		ldr	r2, [sp, #12]
 951 0028 1B68     		ldr	r3, [r3]
 952 002a 9A42     		cmp	r2, r3
 953 002c 01D0     		beq	.L73
 954 002e FFF7FEFF 		bl	__stack_chk_fail
 955              	.L73:
 956 0032 05B0     		add	sp, sp, #20
 957              		.cfi_def_cfa_offset 4
 958              		@ sp needed
 959 0034 5DF804FB 		ldr	pc, [sp], #4
 960              	.L75:
 961              		.align	2
 962              	.L74:
 963 0038 00000000 		.word	__stack_chk_guard
 964              		.cfi_endproc
 965              	.LFE227:
 966              		.size	chEvtBroadcastFlags, .-chEvtBroadcastFlags
 967              		.section	.text.chEvtGetAndClearFlagsI,"ax",%progbits
 968              		.align	1
 969              		.p2align 4,,15
ARM GAS  C:\Users\PCHAUT~1\AppData\Local\Temp\cceHHvsU.s 			page 18


 970              		.global	chEvtGetAndClearFlagsI
 971              		.syntax unified
 972              		.thumb
 973              		.thumb_func
 974              		.fpu fpv4-sp-d16
 975              		.type	chEvtGetAndClearFlagsI, %function
 976              	chEvtGetAndClearFlagsI:
 977              	.LFB228:
 978              		.loc 4 330 0
 979              		.cfi_startproc
 980              		@ args = 0, pretend = 0, frame = 16
 981              		@ frame_needed = 0, uses_anonymous_args = 0
 982 0000 00B5     		push	{lr}
 983              		.cfi_def_cfa_offset 4
 984              		.cfi_offset 14, -4
 985 0002 85B0     		sub	sp, sp, #20
 986              		.cfi_def_cfa_offset 24
 987 0004 0190     		str	r0, [sp, #4]
 988              		.loc 4 330 0
 989 0006 0A4B     		ldr	r3, .L79
 990 0008 1B68     		ldr	r3, [r3]
 991 000a 0393     		str	r3, [sp, #12]
 992              		.loc 4 333 0
 993 000c 019B     		ldr	r3, [sp, #4]
 994 000e DB68     		ldr	r3, [r3, #12]
 995 0010 0293     		str	r3, [sp, #8]
 996              		.loc 4 334 0
 997 0012 019B     		ldr	r3, [sp, #4]
 998 0014 0022     		movs	r2, #0
 999 0016 DA60     		str	r2, [r3, #12]
 1000              		.loc 4 336 0
 1001 0018 029B     		ldr	r3, [sp, #8]
 1002              		.loc 4 337 0
 1003 001a 1846     		mov	r0, r3
 1004 001c 044B     		ldr	r3, .L79
 1005 001e 039A     		ldr	r2, [sp, #12]
 1006 0020 1B68     		ldr	r3, [r3]
 1007 0022 9A42     		cmp	r2, r3
 1008 0024 01D0     		beq	.L78
 1009 0026 FFF7FEFF 		bl	__stack_chk_fail
 1010              	.L78:
 1011 002a 05B0     		add	sp, sp, #20
 1012              		.cfi_def_cfa_offset 4
 1013              		@ sp needed
 1014 002c 5DF804FB 		ldr	pc, [sp], #4
 1015              	.L80:
 1016              		.align	2
 1017              	.L79:
 1018 0030 00000000 		.word	__stack_chk_guard
 1019              		.cfi_endproc
 1020              	.LFE228:
 1021              		.size	chEvtGetAndClearFlagsI, .-chEvtGetAndClearFlagsI
 1022              		.section	.text.chEvtDispatch,"ax",%progbits
 1023              		.align	1
 1024              		.p2align 4,,15
 1025              		.global	chEvtDispatch
 1026              		.syntax unified
ARM GAS  C:\Users\PCHAUT~1\AppData\Local\Temp\cceHHvsU.s 			page 19


 1027              		.thumb
 1028              		.thumb_func
 1029              		.fpu fpv4-sp-d16
 1030              		.type	chEvtDispatch, %function
 1031              	chEvtDispatch:
 1032              	.LFB229:
 1033              		.loc 4 348 0
 1034              		.cfi_startproc
 1035              		@ args = 0, pretend = 0, frame = 16
 1036              		@ frame_needed = 0, uses_anonymous_args = 0
 1037 0000 00B5     		push	{lr}
 1038              		.cfi_def_cfa_offset 4
 1039              		.cfi_offset 14, -4
 1040 0002 85B0     		sub	sp, sp, #20
 1041              		.cfi_def_cfa_offset 24
 1042 0004 0190     		str	r0, [sp, #4]
 1043 0006 0091     		str	r1, [sp]
 1044              		.loc 4 348 0
 1045 0008 1E4B     		ldr	r3, .L88
 1046 000a 1B68     		ldr	r3, [r3]
 1047 000c 0393     		str	r3, [sp, #12]
 1048              		.loc 4 351 0
 1049 000e 019B     		ldr	r3, [sp, #4]
 1050 0010 002B     		cmp	r3, #0
 1051 0012 02D1     		bne	.L82
 1052              		.loc 4 351 0 is_stmt 0 discriminator 2
 1053 0014 1C48     		ldr	r0, .L88+4
 1054 0016 FFF7FEFF 		bl	chSysHalt
 1055              	.L82:
 1056              		.loc 4 353 0 is_stmt 1
 1057 001a 0023     		movs	r3, #0
 1058 001c 0293     		str	r3, [sp, #8]
 1059              		.loc 4 354 0
 1060 001e 23E0     		b	.L83
 1061              	.L86:
 1062              		.loc 4 355 0
 1063 0020 029B     		ldr	r3, [sp, #8]
 1064 0022 009A     		ldr	r2, [sp]
 1065 0024 22FA03F3 		lsr	r3, r2, r3
 1066 0028 03F00103 		and	r3, r3, #1
 1067 002c 002B     		cmp	r3, #0
 1068 002e 18D0     		beq	.L84
 1069              		.loc 4 356 0 discriminator 1
 1070 0030 029B     		ldr	r3, [sp, #8]
 1071 0032 9B00     		lsls	r3, r3, #2
 1072 0034 019A     		ldr	r2, [sp, #4]
 1073 0036 1344     		add	r3, r3, r2
 1074 0038 1B68     		ldr	r3, [r3]
 1075 003a 002B     		cmp	r3, #0
 1076 003c 02D1     		bne	.L85
 1077              		.loc 4 356 0 is_stmt 0 discriminator 2
 1078 003e 1248     		ldr	r0, .L88+4
 1079 0040 FFF7FEFF 		bl	chSysHalt
 1080              	.L85:
 1081              		.loc 4 357 0 is_stmt 1
 1082 0044 029B     		ldr	r3, [sp, #8]
 1083 0046 0122     		movs	r2, #1
ARM GAS  C:\Users\PCHAUT~1\AppData\Local\Temp\cceHHvsU.s 			page 20


 1084 0048 02FA03F3 		lsl	r3, r2, r3
 1085 004c DB43     		mvns	r3, r3
 1086 004e 009A     		ldr	r2, [sp]
 1087 0050 1340     		ands	r3, r3, r2
 1088 0052 0093     		str	r3, [sp]
 1089              		.loc 4 358 0
 1090 0054 029B     		ldr	r3, [sp, #8]
 1091 0056 9B00     		lsls	r3, r3, #2
 1092 0058 019A     		ldr	r2, [sp, #4]
 1093 005a 1344     		add	r3, r3, r2
 1094 005c 1B68     		ldr	r3, [r3]
 1095 005e 0298     		ldr	r0, [sp, #8]
 1096 0060 9847     		blx	r3
 1097              	.LVL0:
 1098              	.L84:
 1099              		.loc 4 360 0
 1100 0062 029B     		ldr	r3, [sp, #8]
 1101 0064 0133     		adds	r3, r3, #1
 1102 0066 0293     		str	r3, [sp, #8]
 1103              	.L83:
 1104              		.loc 4 354 0
 1105 0068 009B     		ldr	r3, [sp]
 1106 006a 002B     		cmp	r3, #0
 1107 006c D8D1     		bne	.L86
 1108              		.loc 4 362 0
 1109 006e 00BF     		nop
 1110 0070 044B     		ldr	r3, .L88
 1111 0072 039A     		ldr	r2, [sp, #12]
 1112 0074 1B68     		ldr	r3, [r3]
 1113 0076 9A42     		cmp	r2, r3
 1114 0078 01D0     		beq	.L87
 1115 007a FFF7FEFF 		bl	__stack_chk_fail
 1116              	.L87:
 1117 007e 05B0     		add	sp, sp, #20
 1118              		.cfi_def_cfa_offset 4
 1119              		@ sp needed
 1120 0080 5DF804FB 		ldr	pc, [sp], #4
 1121              	.L89:
 1122              		.align	2
 1123              	.L88:
 1124 0084 00000000 		.word	__stack_chk_guard
 1125 0088 00000000 		.word	__func__.7905
 1126              		.cfi_endproc
 1127              	.LFE229:
 1128              		.size	chEvtDispatch, .-chEvtDispatch
 1129              		.section	.text.chEvtWaitOne,"ax",%progbits
 1130              		.align	1
 1131              		.p2align 4,,15
 1132              		.global	chEvtWaitOne
 1133              		.syntax unified
 1134              		.thumb
 1135              		.thumb_func
 1136              		.fpu fpv4-sp-d16
 1137              		.type	chEvtWaitOne, %function
 1138              	chEvtWaitOne:
 1139              	.LFB230:
 1140              		.loc 4 383 0
ARM GAS  C:\Users\PCHAUT~1\AppData\Local\Temp\cceHHvsU.s 			page 21


 1141              		.cfi_startproc
 1142              		@ args = 0, pretend = 0, frame = 24
 1143              		@ frame_needed = 0, uses_anonymous_args = 0
 1144 0000 00B5     		push	{lr}
 1145              		.cfi_def_cfa_offset 4
 1146              		.cfi_offset 14, -4
 1147 0002 87B0     		sub	sp, sp, #28
 1148              		.cfi_def_cfa_offset 32
 1149 0004 0190     		str	r0, [sp, #4]
 1150              		.loc 4 383 0
 1151 0006 1A4B     		ldr	r3, .L94
 1152 0008 1B68     		ldr	r3, [r3]
 1153 000a 0593     		str	r3, [sp, #20]
 1154              		.loc 4 384 0
 1155 000c 194B     		ldr	r3, .L94+4
 1156 000e 9B69     		ldr	r3, [r3, #24]
 1157 0010 0493     		str	r3, [sp, #16]
 1158              		.loc 4 387 0
 1159 0012 FFF7FEFF 		bl	chSysLock
 1160              		.loc 4 388 0
 1161 0016 049B     		ldr	r3, [sp, #16]
 1162 0018 DB6B     		ldr	r3, [r3, #60]
 1163 001a 019A     		ldr	r2, [sp, #4]
 1164 001c 1340     		ands	r3, r3, r2
 1165 001e 0393     		str	r3, [sp, #12]
 1166              		.loc 4 389 0
 1167 0020 039B     		ldr	r3, [sp, #12]
 1168 0022 002B     		cmp	r3, #0
 1169 0024 0AD1     		bne	.L91
 1170              		.loc 4 390 0
 1171 0026 049B     		ldr	r3, [sp, #16]
 1172 0028 019A     		ldr	r2, [sp, #4]
 1173 002a 9A62     		str	r2, [r3, #40]
 1174              		.loc 4 391 0
 1175 002c 0A20     		movs	r0, #10
 1176 002e FFF7FEFF 		bl	chSchGoSleepS
 1177              		.loc 4 392 0
 1178 0032 049B     		ldr	r3, [sp, #16]
 1179 0034 DB6B     		ldr	r3, [r3, #60]
 1180 0036 019A     		ldr	r2, [sp, #4]
 1181 0038 1340     		ands	r3, r3, r2
 1182 003a 0393     		str	r3, [sp, #12]
 1183              	.L91:
 1184              		.loc 4 394 0
 1185 003c 039B     		ldr	r3, [sp, #12]
 1186 003e 5B42     		negs	r3, r3
 1187 0040 039A     		ldr	r2, [sp, #12]
 1188 0042 1340     		ands	r3, r3, r2
 1189 0044 0393     		str	r3, [sp, #12]
 1190              		.loc 4 395 0
 1191 0046 049B     		ldr	r3, [sp, #16]
 1192 0048 DA6B     		ldr	r2, [r3, #60]
 1193 004a 039B     		ldr	r3, [sp, #12]
 1194 004c DB43     		mvns	r3, r3
 1195 004e 1A40     		ands	r2, r2, r3
 1196 0050 049B     		ldr	r3, [sp, #16]
 1197 0052 DA63     		str	r2, [r3, #60]
ARM GAS  C:\Users\PCHAUT~1\AppData\Local\Temp\cceHHvsU.s 			page 22


 1198              		.loc 4 396 0
 1199 0054 FFF7FEFF 		bl	chSysUnlock
 1200              		.loc 4 398 0
 1201 0058 039B     		ldr	r3, [sp, #12]
 1202              		.loc 4 399 0
 1203 005a 1846     		mov	r0, r3
 1204 005c 044B     		ldr	r3, .L94
 1205 005e 059A     		ldr	r2, [sp, #20]
 1206 0060 1B68     		ldr	r3, [r3]
 1207 0062 9A42     		cmp	r2, r3
 1208 0064 01D0     		beq	.L93
 1209 0066 FFF7FEFF 		bl	__stack_chk_fail
 1210              	.L93:
 1211 006a 07B0     		add	sp, sp, #28
 1212              		.cfi_def_cfa_offset 4
 1213              		@ sp needed
 1214 006c 5DF804FB 		ldr	pc, [sp], #4
 1215              	.L95:
 1216              		.align	2
 1217              	.L94:
 1218 0070 00000000 		.word	__stack_chk_guard
 1219 0074 00000000 		.word	ch
 1220              		.cfi_endproc
 1221              	.LFE230:
 1222              		.size	chEvtWaitOne, .-chEvtWaitOne
 1223              		.section	.text.chEvtWaitAny,"ax",%progbits
 1224              		.align	1
 1225              		.p2align 4,,15
 1226              		.global	chEvtWaitAny
 1227              		.syntax unified
 1228              		.thumb
 1229              		.thumb_func
 1230              		.fpu fpv4-sp-d16
 1231              		.type	chEvtWaitAny, %function
 1232              	chEvtWaitAny:
 1233              	.LFB231:
 1234              		.loc 4 413 0
 1235              		.cfi_startproc
 1236              		@ args = 0, pretend = 0, frame = 24
 1237              		@ frame_needed = 0, uses_anonymous_args = 0
 1238 0000 00B5     		push	{lr}
 1239              		.cfi_def_cfa_offset 4
 1240              		.cfi_offset 14, -4
 1241 0002 87B0     		sub	sp, sp, #28
 1242              		.cfi_def_cfa_offset 32
 1243 0004 0190     		str	r0, [sp, #4]
 1244              		.loc 4 413 0
 1245 0006 184B     		ldr	r3, .L100
 1246 0008 1B68     		ldr	r3, [r3]
 1247 000a 0593     		str	r3, [sp, #20]
 1248              		.loc 4 414 0
 1249 000c 174B     		ldr	r3, .L100+4
 1250 000e 9B69     		ldr	r3, [r3, #24]
 1251 0010 0493     		str	r3, [sp, #16]
 1252              		.loc 4 417 0
 1253 0012 FFF7FEFF 		bl	chSysLock
 1254              		.loc 4 418 0
ARM GAS  C:\Users\PCHAUT~1\AppData\Local\Temp\cceHHvsU.s 			page 23


 1255 0016 049B     		ldr	r3, [sp, #16]
 1256 0018 DB6B     		ldr	r3, [r3, #60]
 1257 001a 019A     		ldr	r2, [sp, #4]
 1258 001c 1340     		ands	r3, r3, r2
 1259 001e 0393     		str	r3, [sp, #12]
 1260              		.loc 4 419 0
 1261 0020 039B     		ldr	r3, [sp, #12]
 1262 0022 002B     		cmp	r3, #0
 1263 0024 0AD1     		bne	.L97
 1264              		.loc 4 420 0
 1265 0026 049B     		ldr	r3, [sp, #16]
 1266 0028 019A     		ldr	r2, [sp, #4]
 1267 002a 9A62     		str	r2, [r3, #40]
 1268              		.loc 4 421 0
 1269 002c 0A20     		movs	r0, #10
 1270 002e FFF7FEFF 		bl	chSchGoSleepS
 1271              		.loc 4 422 0
 1272 0032 049B     		ldr	r3, [sp, #16]
 1273 0034 DB6B     		ldr	r3, [r3, #60]
 1274 0036 019A     		ldr	r2, [sp, #4]
 1275 0038 1340     		ands	r3, r3, r2
 1276 003a 0393     		str	r3, [sp, #12]
 1277              	.L97:
 1278              		.loc 4 424 0
 1279 003c 049B     		ldr	r3, [sp, #16]
 1280 003e DA6B     		ldr	r2, [r3, #60]
 1281 0040 039B     		ldr	r3, [sp, #12]
 1282 0042 DB43     		mvns	r3, r3
 1283 0044 1A40     		ands	r2, r2, r3
 1284 0046 049B     		ldr	r3, [sp, #16]
 1285 0048 DA63     		str	r2, [r3, #60]
 1286              		.loc 4 425 0
 1287 004a FFF7FEFF 		bl	chSysUnlock
 1288              		.loc 4 427 0
 1289 004e 039B     		ldr	r3, [sp, #12]
 1290              		.loc 4 428 0
 1291 0050 1846     		mov	r0, r3
 1292 0052 054B     		ldr	r3, .L100
 1293 0054 059A     		ldr	r2, [sp, #20]
 1294 0056 1B68     		ldr	r3, [r3]
 1295 0058 9A42     		cmp	r2, r3
 1296 005a 01D0     		beq	.L99
 1297 005c FFF7FEFF 		bl	__stack_chk_fail
 1298              	.L99:
 1299 0060 07B0     		add	sp, sp, #28
 1300              		.cfi_def_cfa_offset 4
 1301              		@ sp needed
 1302 0062 5DF804FB 		ldr	pc, [sp], #4
 1303              	.L101:
 1304 0066 00BF     		.align	2
 1305              	.L100:
 1306 0068 00000000 		.word	__stack_chk_guard
 1307 006c 00000000 		.word	ch
 1308              		.cfi_endproc
 1309              	.LFE231:
 1310              		.size	chEvtWaitAny, .-chEvtWaitAny
 1311              		.section	.text.chEvtWaitAll,"ax",%progbits
ARM GAS  C:\Users\PCHAUT~1\AppData\Local\Temp\cceHHvsU.s 			page 24


 1312              		.align	1
 1313              		.p2align 4,,15
 1314              		.global	chEvtWaitAll
 1315              		.syntax unified
 1316              		.thumb
 1317              		.thumb_func
 1318              		.fpu fpv4-sp-d16
 1319              		.type	chEvtWaitAll, %function
 1320              	chEvtWaitAll:
 1321              	.LFB232:
 1322              		.loc 4 441 0
 1323              		.cfi_startproc
 1324              		@ args = 0, pretend = 0, frame = 16
 1325              		@ frame_needed = 0, uses_anonymous_args = 0
 1326 0000 00B5     		push	{lr}
 1327              		.cfi_def_cfa_offset 4
 1328              		.cfi_offset 14, -4
 1329 0002 85B0     		sub	sp, sp, #20
 1330              		.cfi_def_cfa_offset 24
 1331 0004 0190     		str	r0, [sp, #4]
 1332              		.loc 4 441 0
 1333 0006 154B     		ldr	r3, .L106
 1334 0008 1B68     		ldr	r3, [r3]
 1335 000a 0393     		str	r3, [sp, #12]
 1336              		.loc 4 442 0
 1337 000c 144B     		ldr	r3, .L106+4
 1338 000e 9B69     		ldr	r3, [r3, #24]
 1339 0010 0293     		str	r3, [sp, #8]
 1340              		.loc 4 444 0
 1341 0012 FFF7FEFF 		bl	chSysLock
 1342              		.loc 4 445 0
 1343 0016 029B     		ldr	r3, [sp, #8]
 1344 0018 DA6B     		ldr	r2, [r3, #60]
 1345 001a 019B     		ldr	r3, [sp, #4]
 1346 001c 1340     		ands	r3, r3, r2
 1347 001e 019A     		ldr	r2, [sp, #4]
 1348 0020 9A42     		cmp	r2, r3
 1349 0022 05D0     		beq	.L103
 1350              		.loc 4 446 0
 1351 0024 029B     		ldr	r3, [sp, #8]
 1352 0026 019A     		ldr	r2, [sp, #4]
 1353 0028 9A62     		str	r2, [r3, #40]
 1354              		.loc 4 447 0
 1355 002a 0B20     		movs	r0, #11
 1356 002c FFF7FEFF 		bl	chSchGoSleepS
 1357              	.L103:
 1358              		.loc 4 449 0
 1359 0030 029B     		ldr	r3, [sp, #8]
 1360 0032 DA6B     		ldr	r2, [r3, #60]
 1361 0034 019B     		ldr	r3, [sp, #4]
 1362 0036 DB43     		mvns	r3, r3
 1363 0038 1A40     		ands	r2, r2, r3
 1364 003a 029B     		ldr	r3, [sp, #8]
 1365 003c DA63     		str	r2, [r3, #60]
 1366              		.loc 4 450 0
 1367 003e FFF7FEFF 		bl	chSysUnlock
 1368              		.loc 4 452 0
ARM GAS  C:\Users\PCHAUT~1\AppData\Local\Temp\cceHHvsU.s 			page 25


 1369 0042 019B     		ldr	r3, [sp, #4]
 1370              		.loc 4 453 0
 1371 0044 1846     		mov	r0, r3
 1372 0046 054B     		ldr	r3, .L106
 1373 0048 039A     		ldr	r2, [sp, #12]
 1374 004a 1B68     		ldr	r3, [r3]
 1375 004c 9A42     		cmp	r2, r3
 1376 004e 01D0     		beq	.L105
 1377 0050 FFF7FEFF 		bl	__stack_chk_fail
 1378              	.L105:
 1379 0054 05B0     		add	sp, sp, #20
 1380              		.cfi_def_cfa_offset 4
 1381              		@ sp needed
 1382 0056 5DF804FB 		ldr	pc, [sp], #4
 1383              	.L107:
 1384 005a 00BF     		.align	2
 1385              	.L106:
 1386 005c 00000000 		.word	__stack_chk_guard
 1387 0060 00000000 		.word	ch
 1388              		.cfi_endproc
 1389              	.LFE232:
 1390              		.size	chEvtWaitAll, .-chEvtWaitAll
 1391              		.section	.text.chEvtWaitOneTimeout,"ax",%progbits
 1392              		.align	1
 1393              		.p2align 4,,15
 1394              		.global	chEvtWaitOneTimeout
 1395              		.syntax unified
 1396              		.thumb
 1397              		.thumb_func
 1398              		.fpu fpv4-sp-d16
 1399              		.type	chEvtWaitOneTimeout, %function
 1400              	chEvtWaitOneTimeout:
 1401              	.LFB233:
 1402              		.loc 4 479 0
 1403              		.cfi_startproc
 1404              		@ args = 0, pretend = 0, frame = 24
 1405              		@ frame_needed = 0, uses_anonymous_args = 0
 1406 0000 00B5     		push	{lr}
 1407              		.cfi_def_cfa_offset 4
 1408              		.cfi_offset 14, -4
 1409 0002 87B0     		sub	sp, sp, #28
 1410              		.cfi_def_cfa_offset 32
 1411 0004 0190     		str	r0, [sp, #4]
 1412 0006 0091     		str	r1, [sp]
 1413              		.loc 4 479 0
 1414 0008 214B     		ldr	r3, .L114
 1415 000a 1B68     		ldr	r3, [r3]
 1416 000c 0593     		str	r3, [sp, #20]
 1417              		.loc 4 480 0
 1418 000e 214B     		ldr	r3, .L114+4
 1419 0010 9B69     		ldr	r3, [r3, #24]
 1420 0012 0493     		str	r3, [sp, #16]
 1421              		.loc 4 483 0
 1422 0014 FFF7FEFF 		bl	chSysLock
 1423              		.loc 4 484 0
 1424 0018 049B     		ldr	r3, [sp, #16]
 1425 001a DB6B     		ldr	r3, [r3, #60]
ARM GAS  C:\Users\PCHAUT~1\AppData\Local\Temp\cceHHvsU.s 			page 26


 1426 001c 019A     		ldr	r2, [sp, #4]
 1427 001e 1340     		ands	r3, r3, r2
 1428 0020 0393     		str	r3, [sp, #12]
 1429              		.loc 4 485 0
 1430 0022 039B     		ldr	r3, [sp, #12]
 1431 0024 002B     		cmp	r3, #0
 1432 0026 19D1     		bne	.L109
 1433              		.loc 4 486 0
 1434 0028 009B     		ldr	r3, [sp]
 1435 002a 002B     		cmp	r3, #0
 1436 002c 03D1     		bne	.L110
 1437              		.loc 4 487 0
 1438 002e FFF7FEFF 		bl	chSysUnlock
 1439              		.loc 4 488 0
 1440 0032 0023     		movs	r3, #0
 1441 0034 21E0     		b	.L111
 1442              	.L110:
 1443              		.loc 4 490 0
 1444 0036 049B     		ldr	r3, [sp, #16]
 1445 0038 019A     		ldr	r2, [sp, #4]
 1446 003a 9A62     		str	r2, [r3, #40]
 1447              		.loc 4 491 0
 1448 003c 0099     		ldr	r1, [sp]
 1449 003e 0A20     		movs	r0, #10
 1450 0040 FFF7FEFF 		bl	chSchGoSleepTimeoutS
 1451 0044 0346     		mov	r3, r0
 1452 0046 002B     		cmp	r3, #0
 1453 0048 03DA     		bge	.L112
 1454              		.loc 4 492 0
 1455 004a FFF7FEFF 		bl	chSysUnlock
 1456              		.loc 4 493 0
 1457 004e 0023     		movs	r3, #0
 1458 0050 13E0     		b	.L111
 1459              	.L112:
 1460              		.loc 4 495 0
 1461 0052 049B     		ldr	r3, [sp, #16]
 1462 0054 DB6B     		ldr	r3, [r3, #60]
 1463 0056 019A     		ldr	r2, [sp, #4]
 1464 0058 1340     		ands	r3, r3, r2
 1465 005a 0393     		str	r3, [sp, #12]
 1466              	.L109:
 1467              		.loc 4 497 0
 1468 005c 039B     		ldr	r3, [sp, #12]
 1469 005e 5B42     		negs	r3, r3
 1470 0060 039A     		ldr	r2, [sp, #12]
 1471 0062 1340     		ands	r3, r3, r2
 1472 0064 0393     		str	r3, [sp, #12]
 1473              		.loc 4 498 0
 1474 0066 049B     		ldr	r3, [sp, #16]
 1475 0068 DA6B     		ldr	r2, [r3, #60]
 1476 006a 039B     		ldr	r3, [sp, #12]
 1477 006c DB43     		mvns	r3, r3
 1478 006e 1A40     		ands	r2, r2, r3
 1479 0070 049B     		ldr	r3, [sp, #16]
 1480 0072 DA63     		str	r2, [r3, #60]
 1481              		.loc 4 499 0
 1482 0074 FFF7FEFF 		bl	chSysUnlock
ARM GAS  C:\Users\PCHAUT~1\AppData\Local\Temp\cceHHvsU.s 			page 27


 1483              		.loc 4 501 0
 1484 0078 039B     		ldr	r3, [sp, #12]
 1485              	.L111:
 1486              		.loc 4 502 0
 1487 007a 1846     		mov	r0, r3
 1488 007c 044B     		ldr	r3, .L114
 1489 007e 059A     		ldr	r2, [sp, #20]
 1490 0080 1B68     		ldr	r3, [r3]
 1491 0082 9A42     		cmp	r2, r3
 1492 0084 01D0     		beq	.L113
 1493 0086 FFF7FEFF 		bl	__stack_chk_fail
 1494              	.L113:
 1495 008a 07B0     		add	sp, sp, #28
 1496              		.cfi_def_cfa_offset 4
 1497              		@ sp needed
 1498 008c 5DF804FB 		ldr	pc, [sp], #4
 1499              	.L115:
 1500              		.align	2
 1501              	.L114:
 1502 0090 00000000 		.word	__stack_chk_guard
 1503 0094 00000000 		.word	ch
 1504              		.cfi_endproc
 1505              	.LFE233:
 1506              		.size	chEvtWaitOneTimeout, .-chEvtWaitOneTimeout
 1507              		.section	.text.chEvtWaitAnyTimeout,"ax",%progbits
 1508              		.align	1
 1509              		.p2align 4,,15
 1510              		.global	chEvtWaitAnyTimeout
 1511              		.syntax unified
 1512              		.thumb
 1513              		.thumb_func
 1514              		.fpu fpv4-sp-d16
 1515              		.type	chEvtWaitAnyTimeout, %function
 1516              	chEvtWaitAnyTimeout:
 1517              	.LFB234:
 1518              		.loc 4 522 0
 1519              		.cfi_startproc
 1520              		@ args = 0, pretend = 0, frame = 24
 1521              		@ frame_needed = 0, uses_anonymous_args = 0
 1522 0000 00B5     		push	{lr}
 1523              		.cfi_def_cfa_offset 4
 1524              		.cfi_offset 14, -4
 1525 0002 87B0     		sub	sp, sp, #28
 1526              		.cfi_def_cfa_offset 32
 1527 0004 0190     		str	r0, [sp, #4]
 1528 0006 0091     		str	r1, [sp]
 1529              		.loc 4 522 0
 1530 0008 1F4B     		ldr	r3, .L122
 1531 000a 1B68     		ldr	r3, [r3]
 1532 000c 0593     		str	r3, [sp, #20]
 1533              		.loc 4 523 0
 1534 000e 1F4B     		ldr	r3, .L122+4
 1535 0010 9B69     		ldr	r3, [r3, #24]
 1536 0012 0493     		str	r3, [sp, #16]
 1537              		.loc 4 526 0
 1538 0014 FFF7FEFF 		bl	chSysLock
 1539              		.loc 4 527 0
ARM GAS  C:\Users\PCHAUT~1\AppData\Local\Temp\cceHHvsU.s 			page 28


 1540 0018 049B     		ldr	r3, [sp, #16]
 1541 001a DB6B     		ldr	r3, [r3, #60]
 1542 001c 019A     		ldr	r2, [sp, #4]
 1543 001e 1340     		ands	r3, r3, r2
 1544 0020 0393     		str	r3, [sp, #12]
 1545              		.loc 4 528 0
 1546 0022 039B     		ldr	r3, [sp, #12]
 1547 0024 002B     		cmp	r3, #0
 1548 0026 19D1     		bne	.L117
 1549              		.loc 4 529 0
 1550 0028 009B     		ldr	r3, [sp]
 1551 002a 002B     		cmp	r3, #0
 1552 002c 03D1     		bne	.L118
 1553              		.loc 4 530 0
 1554 002e FFF7FEFF 		bl	chSysUnlock
 1555              		.loc 4 531 0
 1556 0032 0023     		movs	r3, #0
 1557 0034 1CE0     		b	.L119
 1558              	.L118:
 1559              		.loc 4 533 0
 1560 0036 049B     		ldr	r3, [sp, #16]
 1561 0038 019A     		ldr	r2, [sp, #4]
 1562 003a 9A62     		str	r2, [r3, #40]
 1563              		.loc 4 534 0
 1564 003c 0099     		ldr	r1, [sp]
 1565 003e 0A20     		movs	r0, #10
 1566 0040 FFF7FEFF 		bl	chSchGoSleepTimeoutS
 1567 0044 0346     		mov	r3, r0
 1568 0046 002B     		cmp	r3, #0
 1569 0048 03DA     		bge	.L120
 1570              		.loc 4 535 0
 1571 004a FFF7FEFF 		bl	chSysUnlock
 1572              		.loc 4 536 0
 1573 004e 0023     		movs	r3, #0
 1574 0050 0EE0     		b	.L119
 1575              	.L120:
 1576              		.loc 4 538 0
 1577 0052 049B     		ldr	r3, [sp, #16]
 1578 0054 DB6B     		ldr	r3, [r3, #60]
 1579 0056 019A     		ldr	r2, [sp, #4]
 1580 0058 1340     		ands	r3, r3, r2
 1581 005a 0393     		str	r3, [sp, #12]
 1582              	.L117:
 1583              		.loc 4 540 0
 1584 005c 049B     		ldr	r3, [sp, #16]
 1585 005e DA6B     		ldr	r2, [r3, #60]
 1586 0060 039B     		ldr	r3, [sp, #12]
 1587 0062 DB43     		mvns	r3, r3
 1588 0064 1A40     		ands	r2, r2, r3
 1589 0066 049B     		ldr	r3, [sp, #16]
 1590 0068 DA63     		str	r2, [r3, #60]
 1591              		.loc 4 541 0
 1592 006a FFF7FEFF 		bl	chSysUnlock
 1593              		.loc 4 543 0
 1594 006e 039B     		ldr	r3, [sp, #12]
 1595              	.L119:
 1596              		.loc 4 544 0
ARM GAS  C:\Users\PCHAUT~1\AppData\Local\Temp\cceHHvsU.s 			page 29


 1597 0070 1846     		mov	r0, r3
 1598 0072 054B     		ldr	r3, .L122
 1599 0074 059A     		ldr	r2, [sp, #20]
 1600 0076 1B68     		ldr	r3, [r3]
 1601 0078 9A42     		cmp	r2, r3
 1602 007a 01D0     		beq	.L121
 1603 007c FFF7FEFF 		bl	__stack_chk_fail
 1604              	.L121:
 1605 0080 07B0     		add	sp, sp, #28
 1606              		.cfi_def_cfa_offset 4
 1607              		@ sp needed
 1608 0082 5DF804FB 		ldr	pc, [sp], #4
 1609              	.L123:
 1610 0086 00BF     		.align	2
 1611              	.L122:
 1612 0088 00000000 		.word	__stack_chk_guard
 1613 008c 00000000 		.word	ch
 1614              		.cfi_endproc
 1615              	.LFE234:
 1616              		.size	chEvtWaitAnyTimeout, .-chEvtWaitAnyTimeout
 1617              		.section	.text.chEvtWaitAllTimeout,"ax",%progbits
 1618              		.align	1
 1619              		.p2align 4,,15
 1620              		.global	chEvtWaitAllTimeout
 1621              		.syntax unified
 1622              		.thumb
 1623              		.thumb_func
 1624              		.fpu fpv4-sp-d16
 1625              		.type	chEvtWaitAllTimeout, %function
 1626              	chEvtWaitAllTimeout:
 1627              	.LFB235:
 1628              		.loc 4 563 0
 1629              		.cfi_startproc
 1630              		@ args = 0, pretend = 0, frame = 16
 1631              		@ frame_needed = 0, uses_anonymous_args = 0
 1632 0000 00B5     		push	{lr}
 1633              		.cfi_def_cfa_offset 4
 1634              		.cfi_offset 14, -4
 1635 0002 85B0     		sub	sp, sp, #20
 1636              		.cfi_def_cfa_offset 24
 1637 0004 0190     		str	r0, [sp, #4]
 1638 0006 0091     		str	r1, [sp]
 1639              		.loc 4 563 0
 1640 0008 1C4B     		ldr	r3, .L129
 1641 000a 1B68     		ldr	r3, [r3]
 1642 000c 0393     		str	r3, [sp, #12]
 1643              		.loc 4 564 0
 1644 000e 1C4B     		ldr	r3, .L129+4
 1645 0010 9B69     		ldr	r3, [r3, #24]
 1646 0012 0293     		str	r3, [sp, #8]
 1647              		.loc 4 566 0
 1648 0014 FFF7FEFF 		bl	chSysLock
 1649              		.loc 4 567 0
 1650 0018 029B     		ldr	r3, [sp, #8]
 1651 001a DA6B     		ldr	r2, [r3, #60]
 1652 001c 019B     		ldr	r3, [sp, #4]
 1653 001e 1340     		ands	r3, r3, r2
ARM GAS  C:\Users\PCHAUT~1\AppData\Local\Temp\cceHHvsU.s 			page 30


 1654 0020 019A     		ldr	r2, [sp, #4]
 1655 0022 9A42     		cmp	r2, r3
 1656 0024 14D0     		beq	.L125
 1657              		.loc 4 568 0
 1658 0026 009B     		ldr	r3, [sp]
 1659 0028 002B     		cmp	r3, #0
 1660 002a 03D1     		bne	.L126
 1661              		.loc 4 569 0
 1662 002c FFF7FEFF 		bl	chSysUnlock
 1663              		.loc 4 570 0
 1664 0030 0023     		movs	r3, #0
 1665 0032 17E0     		b	.L127
 1666              	.L126:
 1667              		.loc 4 572 0
 1668 0034 029B     		ldr	r3, [sp, #8]
 1669 0036 019A     		ldr	r2, [sp, #4]
 1670 0038 9A62     		str	r2, [r3, #40]
 1671              		.loc 4 573 0
 1672 003a 0099     		ldr	r1, [sp]
 1673 003c 0B20     		movs	r0, #11
 1674 003e FFF7FEFF 		bl	chSchGoSleepTimeoutS
 1675 0042 0346     		mov	r3, r0
 1676 0044 002B     		cmp	r3, #0
 1677 0046 03DA     		bge	.L125
 1678              		.loc 4 574 0
 1679 0048 FFF7FEFF 		bl	chSysUnlock
 1680              		.loc 4 575 0
 1681 004c 0023     		movs	r3, #0
 1682 004e 09E0     		b	.L127
 1683              	.L125:
 1684              		.loc 4 578 0
 1685 0050 029B     		ldr	r3, [sp, #8]
 1686 0052 DA6B     		ldr	r2, [r3, #60]
 1687 0054 019B     		ldr	r3, [sp, #4]
 1688 0056 DB43     		mvns	r3, r3
 1689 0058 1A40     		ands	r2, r2, r3
 1690 005a 029B     		ldr	r3, [sp, #8]
 1691 005c DA63     		str	r2, [r3, #60]
 1692              		.loc 4 579 0
 1693 005e FFF7FEFF 		bl	chSysUnlock
 1694              		.loc 4 581 0
 1695 0062 019B     		ldr	r3, [sp, #4]
 1696              	.L127:
 1697              		.loc 4 582 0
 1698 0064 1846     		mov	r0, r3
 1699 0066 054B     		ldr	r3, .L129
 1700 0068 039A     		ldr	r2, [sp, #12]
 1701 006a 1B68     		ldr	r3, [r3]
 1702 006c 9A42     		cmp	r2, r3
 1703 006e 01D0     		beq	.L128
 1704 0070 FFF7FEFF 		bl	__stack_chk_fail
 1705              	.L128:
 1706 0074 05B0     		add	sp, sp, #20
 1707              		.cfi_def_cfa_offset 4
 1708              		@ sp needed
 1709 0076 5DF804FB 		ldr	pc, [sp], #4
 1710              	.L130:
ARM GAS  C:\Users\PCHAUT~1\AppData\Local\Temp\cceHHvsU.s 			page 31


 1711 007a 00BF     		.align	2
 1712              	.L129:
 1713 007c 00000000 		.word	__stack_chk_guard
 1714 0080 00000000 		.word	ch
 1715              		.cfi_endproc
 1716              	.LFE235:
 1717              		.size	chEvtWaitAllTimeout, .-chEvtWaitAllTimeout
 1718              		.section	.rodata.__func__.7852,"a",%progbits
 1719              		.align	2
 1720              		.type	__func__.7852, %object
 1721              		.size	__func__.7852, 27
 1722              	__func__.7852:
 1723 0000 63684576 		.ascii	"chEvtRegisterMaskWithFlags\000"
 1723      74526567 
 1723      69737465 
 1723      724D6173 
 1723      6B576974 
 1724              		.section	.rodata.__func__.7153,"a",%progbits
 1725              		.align	2
 1726              		.type	__func__.7153, %object
 1727              		.size	__func__.7153, 12
 1728              	__func__.7153:
 1729 0000 63685379 		.ascii	"chSysUnlock\000"
 1729      73556E6C 
 1729      6F636B00 
 1730              		.section	.rodata.__func__.7858,"a",%progbits
 1731              		.align	2
 1732              		.type	__func__.7858, %object
 1733              		.size	__func__.7858, 16
 1734              	__func__.7858:
 1735 0000 63684576 		.ascii	"chEvtUnregister\000"
 1735      74556E72 
 1735      65676973 
 1735      74657200 
 1736              		.section	.rodata.__func__.7874,"a",%progbits
 1737              		.align	2
 1738              		.type	__func__.7874, %object
 1739              		.size	__func__.7874, 21
 1740              	__func__.7874:
 1741 0000 63684576 		.ascii	"chEvtBroadcastFlagsI\000"
 1741      7442726F 
 1741      61646361 
 1741      7374466C 
 1741      61677349 
 1742              		.section	.rodata.__func__.7886,"a",%progbits
 1743              		.align	2
 1744              		.type	__func__.7886, %object
 1745              		.size	__func__.7886, 12
 1746              	__func__.7886:
 1747 0000 63684576 		.ascii	"chEvtSignal\000"
 1747      74536967 
 1747      6E616C00 
 1748              		.section	.rodata.__func__.7891,"a",%progbits
 1749              		.align	2
 1750              		.type	__func__.7891, %object
 1751              		.size	__func__.7891, 13
 1752              	__func__.7891:
ARM GAS  C:\Users\PCHAUT~1\AppData\Local\Temp\cceHHvsU.s 			page 32


 1753 0000 63684576 		.ascii	"chEvtSignalI\000"
 1753      74536967 
 1753      6E616C49 
 1753      00
 1754              		.section	.rodata.__func__.7905,"a",%progbits
 1755              		.align	2
 1756              		.type	__func__.7905, %object
 1757              		.size	__func__.7905, 14
 1758              	__func__.7905:
 1759 0000 63684576 		.ascii	"chEvtDispatch\000"
 1759      74446973 
 1759      70617463 
 1759      6800
 1760              		.text
 1761              	.Letext0:
 1762              		.file 5 "c:\\users\\pchautems\\documents\\robotiquetp\\eclipse_e-puck2\\tools\\gcc-arm-none-eabi-7
 1763              		.file 6 "c:\\users\\pchautems\\documents\\robotiquetp\\eclipse_e-puck2\\tools\\gcc-arm-none-eabi-7
 1764              		.file 7 "../lib/e-puck2_main-processor/ChibiOS//os/rt/ports/ARMCMx/compilers/GCC/chtypes.h"
 1765              		.file 8 "../lib/e-puck2_main-processor/ChibiOS//os/rt/include/chsystypes.h"
 1766              		.file 9 "../lib/e-puck2_main-processor/ChibiOS//os/rt/include/chschd.h"
 1767              		.file 10 "../lib/e-puck2_main-processor/ChibiOS//os/ext/CMSIS/include/core_cm4.h"
 1768              		.file 11 "../lib/e-puck2_main-processor/ChibiOS//os/ext/CMSIS/ST/system_stm32f4xx.h"
 1769              		.file 12 "../lib/e-puck2_main-processor/ChibiOS//os/rt/ports/ARMCMx/chcore.h"
 1770              		.file 13 "../lib/e-puck2_main-processor/ChibiOS//os/rt/include/chdebug.h"
 1771              		.file 14 "../lib/e-puck2_main-processor/ChibiOS//os/rt/include/chtm.h"
 1772              		.file 15 "../lib/e-puck2_main-processor/ChibiOS//os/rt/include/chstats.h"
 1773              		.file 16 "../lib/e-puck2_main-processor/ChibiOS//os/rt/include/chsem.h"
 1774              		.file 17 "../lib/e-puck2_main-processor/ChibiOS//os/rt/include/chmtx.h"
 1775              		.file 18 "../lib/e-puck2_main-processor/ChibiOS//os/rt/include/chregistry.h"
 1776              		.file 19 "../lib/e-puck2_main-processor/ChibiOS//os/rt/include/chevents.h"
 1777              		.section	.debug_info,"",%progbits
 1778              	.Ldebug_info0:
 1779 0000 5F100000 		.4byte	0x105f
 1780 0004 0400     		.2byte	0x4
 1781 0006 00000000 		.4byte	.Ldebug_abbrev0
 1782 000a 04       		.byte	0x4
 1783 000b 01       		.uleb128 0x1
 1784 000c FC010000 		.4byte	.LASF195
 1785 0010 0C       		.byte	0xc
 1786 0011 90010000 		.4byte	.LASF196
 1787 0015 C8070000 		.4byte	.LASF197
 1788 0019 00000000 		.4byte	.Ldebug_ranges0+0
 1789 001d 00000000 		.4byte	0
 1790 0021 00000000 		.4byte	.Ldebug_line0
 1791 0025 02       		.uleb128 0x2
 1792 0026 04       		.byte	0x4
 1793 0027 05       		.byte	0x5
 1794 0028 696E7400 		.ascii	"int\000"
 1795 002c 03       		.uleb128 0x3
 1796 002d 04       		.byte	0x4
 1797 002e 07       		.byte	0x7
 1798 002f 4D040000 		.4byte	.LASF0
 1799 0033 03       		.uleb128 0x3
 1800 0034 08       		.byte	0x8
 1801 0035 05       		.byte	0x5
 1802 0036 35010000 		.4byte	.LASF1
 1803 003a 03       		.uleb128 0x3
ARM GAS  C:\Users\PCHAUT~1\AppData\Local\Temp\cceHHvsU.s 			page 33


 1804 003b 08       		.byte	0x8
 1805 003c 04       		.byte	0x4
 1806 003d F4050000 		.4byte	.LASF2
 1807 0041 03       		.uleb128 0x3
 1808 0042 01       		.byte	0x1
 1809 0043 06       		.byte	0x6
 1810 0044 43010000 		.4byte	.LASF3
 1811 0048 04       		.uleb128 0x4
 1812 0049 45000000 		.4byte	.LASF6
 1813 004d 05       		.byte	0x5
 1814 004e 2B       		.byte	0x2b
 1815 004f 53000000 		.4byte	0x53
 1816 0053 03       		.uleb128 0x3
 1817 0054 01       		.byte	0x1
 1818 0055 08       		.byte	0x8
 1819 0056 02070000 		.4byte	.LASF4
 1820 005a 03       		.uleb128 0x3
 1821 005b 02       		.byte	0x2
 1822 005c 05       		.byte	0x5
 1823 005d 46070000 		.4byte	.LASF5
 1824 0061 04       		.uleb128 0x4
 1825 0062 AD080000 		.4byte	.LASF7
 1826 0066 05       		.byte	0x5
 1827 0067 39       		.byte	0x39
 1828 0068 6C000000 		.4byte	0x6c
 1829 006c 03       		.uleb128 0x3
 1830 006d 02       		.byte	0x2
 1831 006e 07       		.byte	0x7
 1832 006f C9040000 		.4byte	.LASF8
 1833 0073 04       		.uleb128 0x4
 1834 0074 8E050000 		.4byte	.LASF9
 1835 0078 05       		.byte	0x5
 1836 0079 4D       		.byte	0x4d
 1837 007a 7E000000 		.4byte	0x7e
 1838 007e 03       		.uleb128 0x3
 1839 007f 04       		.byte	0x4
 1840 0080 05       		.byte	0x5
 1841 0081 F3010000 		.4byte	.LASF10
 1842 0085 04       		.uleb128 0x4
 1843 0086 EB080000 		.4byte	.LASF11
 1844 008a 05       		.byte	0x5
 1845 008b 4F       		.byte	0x4f
 1846 008c 90000000 		.4byte	0x90
 1847 0090 03       		.uleb128 0x3
 1848 0091 04       		.byte	0x4
 1849 0092 07       		.byte	0x7
 1850 0093 85080000 		.4byte	.LASF12
 1851 0097 04       		.uleb128 0x4
 1852 0098 87060000 		.4byte	.LASF13
 1853 009c 05       		.byte	0x5
 1854 009d 69       		.byte	0x69
 1855 009e A2000000 		.4byte	0xa2
 1856 00a2 03       		.uleb128 0x3
 1857 00a3 08       		.byte	0x8
 1858 00a4 07       		.byte	0x7
 1859 00a5 AA000000 		.4byte	.LASF14
 1860 00a9 04       		.uleb128 0x4
ARM GAS  C:\Users\PCHAUT~1\AppData\Local\Temp\cceHHvsU.s 			page 34


 1861 00aa 6F090000 		.4byte	.LASF15
 1862 00ae 06       		.byte	0x6
 1863 00af 18       		.byte	0x18
 1864 00b0 48000000 		.4byte	0x48
 1865 00b4 04       		.uleb128 0x4
 1866 00b5 62040000 		.4byte	.LASF16
 1867 00b9 06       		.byte	0x6
 1868 00ba 24       		.byte	0x24
 1869 00bb 61000000 		.4byte	0x61
 1870 00bf 04       		.uleb128 0x4
 1871 00c0 FA060000 		.4byte	.LASF17
 1872 00c4 06       		.byte	0x6
 1873 00c5 2C       		.byte	0x2c
 1874 00c6 73000000 		.4byte	0x73
 1875 00ca 05       		.uleb128 0x5
 1876 00cb BF000000 		.4byte	0xbf
 1877 00cf 04       		.uleb128 0x4
 1878 00d0 50080000 		.4byte	.LASF18
 1879 00d4 06       		.byte	0x6
 1880 00d5 30       		.byte	0x30
 1881 00d6 85000000 		.4byte	0x85
 1882 00da 04       		.uleb128 0x4
 1883 00db 2F000000 		.4byte	.LASF19
 1884 00df 06       		.byte	0x6
 1885 00e0 3C       		.byte	0x3c
 1886 00e1 97000000 		.4byte	0x97
 1887 00e5 04       		.uleb128 0x4
 1888 00e6 D5050000 		.4byte	.LASF20
 1889 00ea 07       		.byte	0x7
 1890 00eb 45       		.byte	0x45
 1891 00ec CF000000 		.4byte	0xcf
 1892 00f0 04       		.uleb128 0x4
 1893 00f1 18010000 		.4byte	.LASF21
 1894 00f5 07       		.byte	0x7
 1895 00f6 46       		.byte	0x46
 1896 00f7 DA000000 		.4byte	0xda
 1897 00fb 04       		.uleb128 0x4
 1898 00fc 8E070000 		.4byte	.LASF22
 1899 0100 07       		.byte	0x7
 1900 0101 48       		.byte	0x48
 1901 0102 A9000000 		.4byte	0xa9
 1902 0106 04       		.uleb128 0x4
 1903 0107 72030000 		.4byte	.LASF23
 1904 010b 07       		.byte	0x7
 1905 010c 49       		.byte	0x49
 1906 010d A9000000 		.4byte	0xa9
 1907 0111 04       		.uleb128 0x4
 1908 0112 A6060000 		.4byte	.LASF24
 1909 0116 07       		.byte	0x7
 1910 0117 4A       		.byte	0x4a
 1911 0118 A9000000 		.4byte	0xa9
 1912 011c 04       		.uleb128 0x4
 1913 011d DF010000 		.4byte	.LASF25
 1914 0121 07       		.byte	0x7
 1915 0122 4B       		.byte	0x4b
 1916 0123 A9000000 		.4byte	0xa9
 1917 0127 04       		.uleb128 0x4
ARM GAS  C:\Users\PCHAUT~1\AppData\Local\Temp\cceHHvsU.s 			page 35


 1918 0128 DA060000 		.4byte	.LASF26
 1919 012c 07       		.byte	0x7
 1920 012d 4C       		.byte	0x4c
 1921 012e CF000000 		.4byte	0xcf
 1922 0132 04       		.uleb128 0x4
 1923 0133 0C050000 		.4byte	.LASF27
 1924 0137 07       		.byte	0x7
 1925 0138 4D       		.byte	0x4d
 1926 0139 BF000000 		.4byte	0xbf
 1927 013d 04       		.uleb128 0x4
 1928 013e EB030000 		.4byte	.LASF28
 1929 0142 07       		.byte	0x7
 1930 0143 4E       		.byte	0x4e
 1931 0144 BF000000 		.4byte	0xbf
 1932 0148 04       		.uleb128 0x4
 1933 0149 82050000 		.4byte	.LASF29
 1934 014d 07       		.byte	0x7
 1935 014e 4F       		.byte	0x4f
 1936 014f CF000000 		.4byte	0xcf
 1937 0153 04       		.uleb128 0x4
 1938 0154 FF040000 		.4byte	.LASF30
 1939 0158 07       		.byte	0x7
 1940 0159 50       		.byte	0x50
 1941 015a CF000000 		.4byte	0xcf
 1942 015e 04       		.uleb128 0x4
 1943 015f 3C040000 		.4byte	.LASF31
 1944 0163 07       		.byte	0x7
 1945 0164 51       		.byte	0x51
 1946 0165 BF000000 		.4byte	0xbf
 1947 0169 04       		.uleb128 0x4
 1948 016a 17050000 		.4byte	.LASF32
 1949 016e 07       		.byte	0x7
 1950 016f 52       		.byte	0x52
 1951 0170 CF000000 		.4byte	0xcf
 1952 0174 04       		.uleb128 0x4
 1953 0175 CD080000 		.4byte	.LASF33
 1954 0179 08       		.byte	0x8
 1955 017a 33       		.byte	0x33
 1956 017b CF000000 		.4byte	0xcf
 1957 017f 05       		.uleb128 0x5
 1958 0180 74010000 		.4byte	0x174
 1959 0184 04       		.uleb128 0x4
 1960 0185 B8080000 		.4byte	.LASF34
 1961 0189 08       		.byte	0x8
 1962 018a 3F       		.byte	0x3f
 1963 018b 8F010000 		.4byte	0x18f
 1964 018f 06       		.uleb128 0x6
 1965 0190 EB040000 		.4byte	.LASF58
 1966 0194 68       		.byte	0x68
 1967 0195 09       		.byte	0x9
 1968 0196 C2       		.byte	0xc2
 1969 0197 AD020000 		.4byte	0x2ad
 1970 019b 07       		.uleb128 0x7
 1971 019c 87070000 		.4byte	.LASF35
 1972 01a0 09       		.byte	0x9
 1973 01a1 C3       		.byte	0xc3
 1974 01a2 B8020000 		.4byte	0x2b8
ARM GAS  C:\Users\PCHAUT~1\AppData\Local\Temp\cceHHvsU.s 			page 36


 1975 01a6 00       		.byte	0
 1976 01a7 07       		.uleb128 0x7
 1977 01a8 D3060000 		.4byte	.LASF36
 1978 01ac 09       		.byte	0x9
 1979 01ad C5       		.byte	0xc5
 1980 01ae B8020000 		.4byte	0x2b8
 1981 01b2 04       		.byte	0x4
 1982 01b3 07       		.uleb128 0x7
 1983 01b4 21010000 		.4byte	.LASF37
 1984 01b8 09       		.byte	0x9
 1985 01b9 C7       		.byte	0xc7
 1986 01ba 27010000 		.4byte	0x127
 1987 01be 08       		.byte	0x8
 1988 01bf 07       		.uleb128 0x7
 1989 01c0 4A060000 		.4byte	.LASF38
 1990 01c4 09       		.byte	0x9
 1991 01c5 C8       		.byte	0xc8
 1992 01c6 31050000 		.4byte	0x531
 1993 01ca 0C       		.byte	0xc
 1994 01cb 07       		.uleb128 0x7
 1995 01cc 96030000 		.4byte	.LASF39
 1996 01d0 09       		.byte	0x9
 1997 01d1 CA       		.byte	0xca
 1998 01d2 B8020000 		.4byte	0x2b8
 1999 01d6 10       		.byte	0x10
 2000 01d7 07       		.uleb128 0x7
 2001 01d8 3C060000 		.4byte	.LASF40
 2002 01dc 09       		.byte	0x9
 2003 01dd CB       		.byte	0xcb
 2004 01de B8020000 		.4byte	0x2b8
 2005 01e2 14       		.byte	0x14
 2006 01e3 07       		.uleb128 0x7
 2007 01e4 B7090000 		.4byte	.LASF41
 2008 01e8 09       		.byte	0x9
 2009 01e9 D2       		.byte	0xd2
 2010 01ea A7080000 		.4byte	0x8a7
 2011 01ee 18       		.byte	0x18
 2012 01ef 07       		.uleb128 0x7
 2013 01f0 42040000 		.4byte	.LASF42
 2014 01f4 09       		.byte	0x9
 2015 01f5 D8       		.byte	0xd8
 2016 01f6 BE080000 		.4byte	0x8be
 2017 01fa 1C       		.byte	0x1c
 2018 01fb 07       		.uleb128 0x7
 2019 01fc 50070000 		.4byte	.LASF43
 2020 0200 09       		.byte	0x9
 2021 0201 DD       		.byte	0xdd
 2022 0202 06010000 		.4byte	0x106
 2023 0206 20       		.byte	0x20
 2024 0207 07       		.uleb128 0x7
 2025 0208 A5070000 		.4byte	.LASF44
 2026 020c 09       		.byte	0x9
 2027 020d E1       		.byte	0xe1
 2028 020e FB000000 		.4byte	0xfb
 2029 0212 21       		.byte	0x21
 2030 0213 07       		.uleb128 0x7
 2031 0214 61060000 		.4byte	.LASF45
ARM GAS  C:\Users\PCHAUT~1\AppData\Local\Temp\cceHHvsU.s 			page 37


 2032 0218 09       		.byte	0x9
 2033 0219 E6       		.byte	0xe6
 2034 021a 11010000 		.4byte	0x111
 2035 021e 22       		.byte	0x22
 2036 021f 07       		.uleb128 0x7
 2037 0220 58070000 		.4byte	.LASF46
 2038 0224 09       		.byte	0x9
 2039 0225 EC       		.byte	0xec
 2040 0226 1C010000 		.4byte	0x11c
 2041 022a 23       		.byte	0x23
 2042 022b 07       		.uleb128 0x7
 2043 022c 7B040000 		.4byte	.LASF47
 2044 0230 09       		.byte	0x9
 2045 0231 F3       		.byte	0xf3
 2046 0232 7F010000 		.4byte	0x17f
 2047 0236 24       		.byte	0x24
 2048 0237 08       		.uleb128 0x8
 2049 0238 705F7500 		.ascii	"p_u\000"
 2050 023c 09       		.byte	0x9
 2051 023d 3101     		.2byte	0x131
 2052 023f D6070000 		.4byte	0x7d6
 2053 0243 28       		.byte	0x28
 2054 0244 09       		.uleb128 0x9
 2055 0245 CB050000 		.4byte	.LASF48
 2056 0249 09       		.byte	0x9
 2057 024a 3601     		.2byte	0x136
 2058 024c BE020000 		.4byte	0x2be
 2059 0250 2C       		.byte	0x2c
 2060 0251 09       		.uleb128 0x9
 2061 0252 92040000 		.4byte	.LASF49
 2062 0256 09       		.byte	0x9
 2063 0257 3C01     		.2byte	0x13c
 2064 0259 E2020000 		.4byte	0x2e2
 2065 025d 30       		.byte	0x30
 2066 025e 09       		.uleb128 0x9
 2067 025f 1D090000 		.4byte	.LASF50
 2068 0263 09       		.byte	0x9
 2069 0264 4001     		.2byte	0x140
 2070 0266 32010000 		.4byte	0x132
 2071 026a 38       		.byte	0x38
 2072 026b 09       		.uleb128 0x9
 2073 026c 3E080000 		.4byte	.LASF51
 2074 0270 09       		.byte	0x9
 2075 0271 4601     		.2byte	0x146
 2076 0273 48010000 		.4byte	0x148
 2077 0277 3C       		.byte	0x3c
 2078 0278 09       		.uleb128 0x9
 2079 0279 3C070000 		.4byte	.LASF52
 2080 027d 09       		.byte	0x9
 2081 027e 4D01     		.2byte	0x14d
 2082 0280 A1080000 		.4byte	0x8a1
 2083 0284 40       		.byte	0x40
 2084 0285 09       		.uleb128 0x9
 2085 0286 D7080000 		.4byte	.LASF53
 2086 028a 09       		.byte	0x9
 2087 028b 5101     		.2byte	0x151
 2088 028d 27010000 		.4byte	0x127
ARM GAS  C:\Users\PCHAUT~1\AppData\Local\Temp\cceHHvsU.s 			page 38


 2089 0291 44       		.byte	0x44
 2090 0292 09       		.uleb128 0x9
 2091 0293 80010000 		.4byte	.LASF54
 2092 0297 09       		.byte	0x9
 2093 0298 5801     		.2byte	0x158
 2094 029a 95030000 		.4byte	0x395
 2095 029e 48       		.byte	0x48
 2096 029f 09       		.uleb128 0x9
 2097 02a0 B6070000 		.4byte	.LASF55
 2098 02a4 09       		.byte	0x9
 2099 02a5 5E01     		.2byte	0x15e
 2100 02a7 87070000 		.4byte	0x787
 2101 02ab 50       		.byte	0x50
 2102 02ac 00       		.byte	0
 2103 02ad 04       		.uleb128 0x4
 2104 02ae 7D090000 		.4byte	.LASF56
 2105 02b2 08       		.byte	0x8
 2106 02b3 44       		.byte	0x44
 2107 02b4 B8020000 		.4byte	0x2b8
 2108 02b8 0A       		.uleb128 0xa
 2109 02b9 04       		.byte	0x4
 2110 02ba 84010000 		.4byte	0x184
 2111 02be 04       		.uleb128 0x4
 2112 02bf A3050000 		.4byte	.LASF57
 2113 02c3 08       		.byte	0x8
 2114 02c4 49       		.byte	0x49
 2115 02c5 C9020000 		.4byte	0x2c9
 2116 02c9 06       		.uleb128 0x6
 2117 02ca 6D080000 		.4byte	.LASF59
 2118 02ce 04       		.byte	0x4
 2119 02cf 09       		.byte	0x9
 2120 02d0 B0       		.byte	0xb0
 2121 02d1 E2020000 		.4byte	0x2e2
 2122 02d5 07       		.uleb128 0x7
 2123 02d6 87070000 		.4byte	.LASF35
 2124 02da 09       		.byte	0x9
 2125 02db B1       		.byte	0xb1
 2126 02dc B8020000 		.4byte	0x2b8
 2127 02e0 00       		.byte	0
 2128 02e1 00       		.byte	0
 2129 02e2 04       		.uleb128 0x4
 2130 02e3 03080000 		.4byte	.LASF60
 2131 02e7 08       		.byte	0x8
 2132 02e8 50       		.byte	0x50
 2133 02e9 ED020000 		.4byte	0x2ed
 2134 02ed 06       		.uleb128 0x6
 2135 02ee 5B000000 		.4byte	.LASF61
 2136 02f2 08       		.byte	0x8
 2137 02f3 09       		.byte	0x9
 2138 02f4 B7       		.byte	0xb7
 2139 02f5 12030000 		.4byte	0x312
 2140 02f9 07       		.uleb128 0x7
 2141 02fa 87070000 		.4byte	.LASF35
 2142 02fe 09       		.byte	0x9
 2143 02ff B8       		.byte	0xb8
 2144 0300 B8020000 		.4byte	0x2b8
 2145 0304 00       		.byte	0
ARM GAS  C:\Users\PCHAUT~1\AppData\Local\Temp\cceHHvsU.s 			page 39


 2146 0305 07       		.uleb128 0x7
 2147 0306 D3060000 		.4byte	.LASF36
 2148 030a 09       		.byte	0x9
 2149 030b B9       		.byte	0xb9
 2150 030c B8020000 		.4byte	0x2b8
 2151 0310 04       		.byte	0x4
 2152 0311 00       		.byte	0
 2153 0312 04       		.uleb128 0x4
 2154 0313 0D000000 		.4byte	.LASF62
 2155 0317 08       		.byte	0x8
 2156 0318 57       		.byte	0x57
 2157 0319 1D030000 		.4byte	0x31d
 2158 031d 0B       		.uleb128 0xb
 2159 031e 74050000 		.4byte	.LASF63
 2160 0322 1C       		.byte	0x1c
 2161 0323 09       		.byte	0x9
 2162 0324 9001     		.2byte	0x190
 2163 0326 79030000 		.4byte	0x379
 2164 032a 09       		.uleb128 0x9
 2165 032b 65080000 		.4byte	.LASF64
 2166 032f 09       		.byte	0x9
 2167 0330 9101     		.2byte	0x191
 2168 0332 E2020000 		.4byte	0x2e2
 2169 0336 00       		.byte	0
 2170 0337 09       		.uleb128 0x9
 2171 0338 62070000 		.4byte	.LASF65
 2172 033c 09       		.byte	0x9
 2173 033d 9201     		.2byte	0x192
 2174 033f 27010000 		.4byte	0x127
 2175 0343 08       		.byte	0x8
 2176 0344 09       		.uleb128 0x9
 2177 0345 44060000 		.4byte	.LASF66
 2178 0349 09       		.byte	0x9
 2179 034a 9401     		.2byte	0x194
 2180 034c 31050000 		.4byte	0x531
 2181 0350 0C       		.byte	0xc
 2182 0351 09       		.uleb128 0x9
 2183 0352 AE030000 		.4byte	.LASF67
 2184 0356 09       		.byte	0x9
 2185 0357 9701     		.2byte	0x197
 2186 0359 B8020000 		.4byte	0x2b8
 2187 035d 10       		.byte	0x10
 2188 035e 09       		.uleb128 0x9
 2189 035f 75060000 		.4byte	.LASF68
 2190 0363 09       		.byte	0x9
 2191 0364 9801     		.2byte	0x198
 2192 0366 B8020000 		.4byte	0x2b8
 2193 036a 14       		.byte	0x14
 2194 036b 09       		.uleb128 0x9
 2195 036c 97080000 		.4byte	.LASF69
 2196 0370 09       		.byte	0x9
 2197 0371 9B01     		.2byte	0x19b
 2198 0373 B8020000 		.4byte	0x2b8
 2199 0377 18       		.byte	0x18
 2200 0378 00       		.byte	0
 2201 0379 04       		.uleb128 0x4
 2202 037a E2080000 		.4byte	.LASF70
ARM GAS  C:\Users\PCHAUT~1\AppData\Local\Temp\cceHHvsU.s 			page 40


 2203 037e 08       		.byte	0x8
 2204 037f 5C       		.byte	0x5c
 2205 0380 84030000 		.4byte	0x384
 2206 0384 0A       		.uleb128 0xa
 2207 0385 04       		.byte	0x4
 2208 0386 8A030000 		.4byte	0x38a
 2209 038a 0C       		.uleb128 0xc
 2210 038b 95030000 		.4byte	0x395
 2211 038f 0D       		.uleb128 0xd
 2212 0390 95030000 		.4byte	0x395
 2213 0394 00       		.byte	0
 2214 0395 0E       		.uleb128 0xe
 2215 0396 04       		.byte	0x4
 2216 0397 04       		.uleb128 0x4
 2217 0398 C3060000 		.4byte	.LASF71
 2218 039c 08       		.byte	0x8
 2219 039d 61       		.byte	0x61
 2220 039e A2030000 		.4byte	0x3a2
 2221 03a2 0B       		.uleb128 0xb
 2222 03a3 13080000 		.4byte	.LASF72
 2223 03a7 14       		.byte	0x14
 2224 03a8 09       		.byte	0x9
 2225 03a9 6B01     		.2byte	0x16b
 2226 03ab F1030000 		.4byte	0x3f1
 2227 03af 09       		.uleb128 0x9
 2228 03b0 5A040000 		.4byte	.LASF73
 2229 03b4 09       		.byte	0x9
 2230 03b5 6C01     		.2byte	0x16c
 2231 03b7 C4080000 		.4byte	0x8c4
 2232 03bb 00       		.byte	0
 2233 03bc 09       		.uleb128 0x9
 2234 03bd BF030000 		.4byte	.LASF74
 2235 03c1 09       		.byte	0x9
 2236 03c2 6D01     		.2byte	0x16d
 2237 03c4 C4080000 		.4byte	0x8c4
 2238 03c8 04       		.byte	0x4
 2239 03c9 09       		.uleb128 0x9
 2240 03ca 89040000 		.4byte	.LASF75
 2241 03ce 09       		.byte	0x9
 2242 03cf 6E01     		.2byte	0x16e
 2243 03d1 74010000 		.4byte	0x174
 2244 03d5 08       		.byte	0x8
 2245 03d6 09       		.uleb128 0x9
 2246 03d7 240A0000 		.4byte	.LASF76
 2247 03db 09       		.byte	0x9
 2248 03dc 6F01     		.2byte	0x16f
 2249 03de 79030000 		.4byte	0x379
 2250 03e2 0C       		.byte	0xc
 2251 03e3 09       		.uleb128 0x9
 2252 03e4 28090000 		.4byte	.LASF77
 2253 03e8 09       		.byte	0x9
 2254 03e9 7101     		.2byte	0x171
 2255 03eb 95030000 		.4byte	0x395
 2256 03ef 10       		.byte	0x10
 2257 03f0 00       		.byte	0
 2258 03f1 04       		.uleb128 0x4
 2259 03f2 F5000000 		.4byte	.LASF78
ARM GAS  C:\Users\PCHAUT~1\AppData\Local\Temp\cceHHvsU.s 			page 41


 2260 03f6 08       		.byte	0x8
 2261 03f7 66       		.byte	0x66
 2262 03f8 FC030000 		.4byte	0x3fc
 2263 03fc 0B       		.uleb128 0xb
 2264 03fd DD050000 		.4byte	.LASF79
 2265 0401 10       		.byte	0x10
 2266 0402 09       		.byte	0x9
 2267 0403 7B01     		.2byte	0x17b
 2268 0405 3E040000 		.4byte	0x43e
 2269 0409 09       		.uleb128 0x9
 2270 040a 5A040000 		.4byte	.LASF73
 2271 040e 09       		.byte	0x9
 2272 040f 7C01     		.2byte	0x17c
 2273 0411 C4080000 		.4byte	0x8c4
 2274 0415 00       		.byte	0
 2275 0416 09       		.uleb128 0x9
 2276 0417 BF030000 		.4byte	.LASF74
 2277 041b 09       		.byte	0x9
 2278 041c 7E01     		.2byte	0x17e
 2279 041e C4080000 		.4byte	0x8c4
 2280 0422 04       		.byte	0x4
 2281 0423 09       		.uleb128 0x9
 2282 0424 89040000 		.4byte	.LASF75
 2283 0428 09       		.byte	0x9
 2284 0429 8001     		.2byte	0x180
 2285 042b 74010000 		.4byte	0x174
 2286 042f 08       		.byte	0x8
 2287 0430 09       		.uleb128 0x9
 2288 0431 BE090000 		.4byte	.LASF80
 2289 0435 09       		.byte	0x9
 2290 0436 8201     		.2byte	0x182
 2291 0438 7F010000 		.4byte	0x17f
 2292 043c 0C       		.byte	0xc
 2293 043d 00       		.byte	0
 2294 043e 04       		.uleb128 0x4
 2295 043f 6C000000 		.4byte	.LASF81
 2296 0443 08       		.byte	0x8
 2297 0444 6B       		.byte	0x6b
 2298 0445 49040000 		.4byte	0x449
 2299 0449 0F       		.uleb128 0xf
 2300 044a DB030000 		.4byte	.LASF82
 2301 044e 1404     		.2byte	0x414
 2302 0450 09       		.byte	0x9
 2303 0451 A201     		.2byte	0x1a2
 2304 0453 8C040000 		.4byte	0x48c
 2305 0457 09       		.uleb128 0x9
 2306 0458 04090000 		.4byte	.LASF83
 2307 045c 09       		.byte	0x9
 2308 045d AA01     		.2byte	0x1aa
 2309 045f AD080000 		.4byte	0x8ad
 2310 0463 00       		.byte	0
 2311 0464 09       		.uleb128 0x9
 2312 0465 4B090000 		.4byte	.LASF84
 2313 0469 09       		.byte	0x9
 2314 046a AF01     		.2byte	0x1af
 2315 046c 5E010000 		.4byte	0x15e
 2316 0470 04       		.byte	0x4
ARM GAS  C:\Users\PCHAUT~1\AppData\Local\Temp\cceHHvsU.s 			page 42


 2317 0471 09       		.uleb128 0x9
 2318 0472 09040000 		.4byte	.LASF85
 2319 0476 09       		.byte	0x9
 2320 0477 B301     		.2byte	0x1b3
 2321 0479 5E010000 		.4byte	0x15e
 2322 047d 08       		.byte	0x8
 2323 047e 09       		.uleb128 0x9
 2324 047f C9090000 		.4byte	.LASF86
 2325 0483 09       		.byte	0x9
 2326 0484 B901     		.2byte	0x1b9
 2327 0486 19070000 		.4byte	0x719
 2328 048a 0C       		.byte	0xc
 2329 048b 00       		.byte	0
 2330 048c 04       		.uleb128 0x4
 2331 048d 36050000 		.4byte	.LASF87
 2332 0491 08       		.byte	0x8
 2333 0492 70       		.byte	0x70
 2334 0493 97040000 		.4byte	0x497
 2335 0497 0F       		.uleb128 0xf
 2336 0498 E9010000 		.4byte	.LASF88
 2337 049c 7006     		.2byte	0x670
 2338 049e 09       		.byte	0x9
 2339 049f C201     		.2byte	0x1c2
 2340 04a1 04050000 		.4byte	0x504
 2341 04a5 09       		.uleb128 0x9
 2342 04a6 5C090000 		.4byte	.LASF89
 2343 04aa 09       		.byte	0x9
 2344 04ab C601     		.2byte	0x1c6
 2345 04ad 12030000 		.4byte	0x312
 2346 04b1 00       		.byte	0
 2347 04b2 09       		.uleb128 0x9
 2348 04b3 CC010000 		.4byte	.LASF90
 2349 04b7 09       		.byte	0x9
 2350 04b8 CA01     		.2byte	0x1ca
 2351 04ba F1030000 		.4byte	0x3f1
 2352 04be 1C       		.byte	0x1c
 2353 04bf 08       		.uleb128 0x8
 2354 04c0 64626700 		.ascii	"dbg\000"
 2355 04c4 09       		.byte	0x9
 2356 04c5 CE01     		.2byte	0x1ce
 2357 04c7 3E040000 		.4byte	0x43e
 2358 04cb 2C       		.byte	0x2c
 2359 04cc 10       		.uleb128 0x10
 2360 04cd EA000000 		.4byte	.LASF91
 2361 04d1 09       		.byte	0x9
 2362 04d2 D201     		.2byte	0x1d2
 2363 04d4 84010000 		.4byte	0x184
 2364 04d8 4004     		.2byte	0x440
 2365 04da 11       		.uleb128 0x11
 2366 04db 746D00   		.ascii	"tm\000"
 2367 04de 09       		.byte	0x9
 2368 04df D701     		.2byte	0x1d7
 2369 04e1 39070000 		.4byte	0x739
 2370 04e5 A804     		.2byte	0x4a8
 2371 04e7 10       		.uleb128 0x10
 2372 04e8 38000000 		.4byte	.LASF92
 2373 04ec 09       		.byte	0x9
ARM GAS  C:\Users\PCHAUT~1\AppData\Local\Temp\cceHHvsU.s 			page 43


 2374 04ed DD01     		.2byte	0x1dd
 2375 04ef CB070000 		.4byte	0x7cb
 2376 04f3 B004     		.2byte	0x4b0
 2377 04f5 10       		.uleb128 0x10
 2378 04f6 21040000 		.4byte	.LASF93
 2379 04fa 09       		.byte	0x9
 2380 04fb E301     		.2byte	0x1e3
 2381 04fd CA080000 		.4byte	0x8ca
 2382 0501 E804     		.2byte	0x4e8
 2383 0503 00       		.byte	0
 2384 0504 12       		.uleb128 0x12
 2385 0505 0B010000 		.4byte	.LASF94
 2386 0509 0A       		.byte	0xa
 2387 050a A706     		.2byte	0x6a7
 2388 050c CA000000 		.4byte	0xca
 2389 0510 13       		.uleb128 0x13
 2390 0511 6B040000 		.4byte	.LASF95
 2391 0515 0B       		.byte	0xb
 2392 0516 4C       		.byte	0x4c
 2393 0517 CF000000 		.4byte	0xcf
 2394 051b 04       		.uleb128 0x4
 2395 051c B6030000 		.4byte	.LASF96
 2396 0520 0C       		.byte	0xc
 2397 0521 65       		.byte	0x65
 2398 0522 95030000 		.4byte	0x395
 2399 0526 04       		.uleb128 0x4
 2400 0527 98050000 		.4byte	.LASF97
 2401 052b 0C       		.byte	0xc
 2402 052c 6D       		.byte	0x6d
 2403 052d DA000000 		.4byte	0xda
 2404 0531 06       		.uleb128 0x6
 2405 0532 15090000 		.4byte	.LASF98
 2406 0536 04       		.byte	0x4
 2407 0537 0C       		.byte	0xc
 2408 0538 89       		.byte	0x89
 2409 0539 4A050000 		.4byte	0x54a
 2410 053d 14       		.uleb128 0x14
 2411 053e 72313300 		.ascii	"r13\000"
 2412 0542 0C       		.byte	0xc
 2413 0543 8A       		.byte	0x8a
 2414 0544 8B060000 		.4byte	0x68b
 2415 0548 00       		.byte	0
 2416 0549 00       		.byte	0
 2417 054a 06       		.uleb128 0x6
 2418 054b 4F000000 		.4byte	.LASF99
 2419 054f 64       		.byte	0x64
 2420 0550 01       		.byte	0x1
 2421 0551 F4       		.byte	0xf4
 2422 0552 8B060000 		.4byte	0x68b
 2423 0556 14       		.uleb128 0x14
 2424 0557 73313600 		.ascii	"s16\000"
 2425 055b 01       		.byte	0x1
 2426 055c F6       		.byte	0xf6
 2427 055d 1B050000 		.4byte	0x51b
 2428 0561 00       		.byte	0
 2429 0562 14       		.uleb128 0x14
 2430 0563 73313700 		.ascii	"s17\000"
ARM GAS  C:\Users\PCHAUT~1\AppData\Local\Temp\cceHHvsU.s 			page 44


 2431 0567 01       		.byte	0x1
 2432 0568 F7       		.byte	0xf7
 2433 0569 1B050000 		.4byte	0x51b
 2434 056d 04       		.byte	0x4
 2435 056e 14       		.uleb128 0x14
 2436 056f 73313800 		.ascii	"s18\000"
 2437 0573 01       		.byte	0x1
 2438 0574 F8       		.byte	0xf8
 2439 0575 1B050000 		.4byte	0x51b
 2440 0579 08       		.byte	0x8
 2441 057a 14       		.uleb128 0x14
 2442 057b 73313900 		.ascii	"s19\000"
 2443 057f 01       		.byte	0x1
 2444 0580 F9       		.byte	0xf9
 2445 0581 1B050000 		.4byte	0x51b
 2446 0585 0C       		.byte	0xc
 2447 0586 14       		.uleb128 0x14
 2448 0587 73323000 		.ascii	"s20\000"
 2449 058b 01       		.byte	0x1
 2450 058c FA       		.byte	0xfa
 2451 058d 1B050000 		.4byte	0x51b
 2452 0591 10       		.byte	0x10
 2453 0592 14       		.uleb128 0x14
 2454 0593 73323100 		.ascii	"s21\000"
 2455 0597 01       		.byte	0x1
 2456 0598 FB       		.byte	0xfb
 2457 0599 1B050000 		.4byte	0x51b
 2458 059d 14       		.byte	0x14
 2459 059e 14       		.uleb128 0x14
 2460 059f 73323200 		.ascii	"s22\000"
 2461 05a3 01       		.byte	0x1
 2462 05a4 FC       		.byte	0xfc
 2463 05a5 1B050000 		.4byte	0x51b
 2464 05a9 18       		.byte	0x18
 2465 05aa 14       		.uleb128 0x14
 2466 05ab 73323300 		.ascii	"s23\000"
 2467 05af 01       		.byte	0x1
 2468 05b0 FD       		.byte	0xfd
 2469 05b1 1B050000 		.4byte	0x51b
 2470 05b5 1C       		.byte	0x1c
 2471 05b6 14       		.uleb128 0x14
 2472 05b7 73323400 		.ascii	"s24\000"
 2473 05bb 01       		.byte	0x1
 2474 05bc FE       		.byte	0xfe
 2475 05bd 1B050000 		.4byte	0x51b
 2476 05c1 20       		.byte	0x20
 2477 05c2 14       		.uleb128 0x14
 2478 05c3 73323500 		.ascii	"s25\000"
 2479 05c7 01       		.byte	0x1
 2480 05c8 FF       		.byte	0xff
 2481 05c9 1B050000 		.4byte	0x51b
 2482 05cd 24       		.byte	0x24
 2483 05ce 08       		.uleb128 0x8
 2484 05cf 73323600 		.ascii	"s26\000"
 2485 05d3 01       		.byte	0x1
 2486 05d4 0001     		.2byte	0x100
 2487 05d6 1B050000 		.4byte	0x51b
ARM GAS  C:\Users\PCHAUT~1\AppData\Local\Temp\cceHHvsU.s 			page 45


 2488 05da 28       		.byte	0x28
 2489 05db 08       		.uleb128 0x8
 2490 05dc 73323700 		.ascii	"s27\000"
 2491 05e0 01       		.byte	0x1
 2492 05e1 0101     		.2byte	0x101
 2493 05e3 1B050000 		.4byte	0x51b
 2494 05e7 2C       		.byte	0x2c
 2495 05e8 08       		.uleb128 0x8
 2496 05e9 73323800 		.ascii	"s28\000"
 2497 05ed 01       		.byte	0x1
 2498 05ee 0201     		.2byte	0x102
 2499 05f0 1B050000 		.4byte	0x51b
 2500 05f4 30       		.byte	0x30
 2501 05f5 08       		.uleb128 0x8
 2502 05f6 73323900 		.ascii	"s29\000"
 2503 05fa 01       		.byte	0x1
 2504 05fb 0301     		.2byte	0x103
 2505 05fd 1B050000 		.4byte	0x51b
 2506 0601 34       		.byte	0x34
 2507 0602 08       		.uleb128 0x8
 2508 0603 73333000 		.ascii	"s30\000"
 2509 0607 01       		.byte	0x1
 2510 0608 0401     		.2byte	0x104
 2511 060a 1B050000 		.4byte	0x51b
 2512 060e 38       		.byte	0x38
 2513 060f 08       		.uleb128 0x8
 2514 0610 73333100 		.ascii	"s31\000"
 2515 0614 01       		.byte	0x1
 2516 0615 0501     		.2byte	0x105
 2517 0617 1B050000 		.4byte	0x51b
 2518 061b 3C       		.byte	0x3c
 2519 061c 08       		.uleb128 0x8
 2520 061d 723400   		.ascii	"r4\000"
 2521 0620 01       		.byte	0x1
 2522 0621 0701     		.2byte	0x107
 2523 0623 1B050000 		.4byte	0x51b
 2524 0627 40       		.byte	0x40
 2525 0628 08       		.uleb128 0x8
 2526 0629 723500   		.ascii	"r5\000"
 2527 062c 01       		.byte	0x1
 2528 062d 0801     		.2byte	0x108
 2529 062f 1B050000 		.4byte	0x51b
 2530 0633 44       		.byte	0x44
 2531 0634 08       		.uleb128 0x8
 2532 0635 723600   		.ascii	"r6\000"
 2533 0638 01       		.byte	0x1
 2534 0639 0901     		.2byte	0x109
 2535 063b 1B050000 		.4byte	0x51b
 2536 063f 48       		.byte	0x48
 2537 0640 08       		.uleb128 0x8
 2538 0641 723700   		.ascii	"r7\000"
 2539 0644 01       		.byte	0x1
 2540 0645 0A01     		.2byte	0x10a
 2541 0647 1B050000 		.4byte	0x51b
 2542 064b 4C       		.byte	0x4c
 2543 064c 08       		.uleb128 0x8
 2544 064d 723800   		.ascii	"r8\000"
ARM GAS  C:\Users\PCHAUT~1\AppData\Local\Temp\cceHHvsU.s 			page 46


 2545 0650 01       		.byte	0x1
 2546 0651 0B01     		.2byte	0x10b
 2547 0653 1B050000 		.4byte	0x51b
 2548 0657 50       		.byte	0x50
 2549 0658 08       		.uleb128 0x8
 2550 0659 723900   		.ascii	"r9\000"
 2551 065c 01       		.byte	0x1
 2552 065d 0C01     		.2byte	0x10c
 2553 065f 1B050000 		.4byte	0x51b
 2554 0663 54       		.byte	0x54
 2555 0664 08       		.uleb128 0x8
 2556 0665 72313000 		.ascii	"r10\000"
 2557 0669 01       		.byte	0x1
 2558 066a 0D01     		.2byte	0x10d
 2559 066c 1B050000 		.4byte	0x51b
 2560 0670 58       		.byte	0x58
 2561 0671 08       		.uleb128 0x8
 2562 0672 72313100 		.ascii	"r11\000"
 2563 0676 01       		.byte	0x1
 2564 0677 0E01     		.2byte	0x10e
 2565 0679 1B050000 		.4byte	0x51b
 2566 067d 5C       		.byte	0x5c
 2567 067e 08       		.uleb128 0x8
 2568 067f 6C7200   		.ascii	"lr\000"
 2569 0682 01       		.byte	0x1
 2570 0683 0F01     		.2byte	0x10f
 2571 0685 1B050000 		.4byte	0x51b
 2572 0689 60       		.byte	0x60
 2573 068a 00       		.byte	0
 2574 068b 0A       		.uleb128 0xa
 2575 068c 04       		.byte	0x4
 2576 068d 4A050000 		.4byte	0x54a
 2577 0691 15       		.uleb128 0x15
 2578 0692 10       		.byte	0x10
 2579 0693 0D       		.byte	0xd
 2580 0694 51       		.byte	0x51
 2581 0695 CA060000 		.4byte	0x6ca
 2582 0699 07       		.uleb128 0x7
 2583 069a 1A000000 		.4byte	.LASF100
 2584 069e 0D       		.byte	0xd
 2585 069f 55       		.byte	0x55
 2586 06a0 74010000 		.4byte	0x174
 2587 06a4 00       		.byte	0
 2588 06a5 07       		.uleb128 0x7
 2589 06a6 4D030000 		.4byte	.LASF101
 2590 06aa 0D       		.byte	0xd
 2591 06ab 59       		.byte	0x59
 2592 06ac B8020000 		.4byte	0x2b8
 2593 06b0 04       		.byte	0x4
 2594 06b1 07       		.uleb128 0x7
 2595 06b2 0C0A0000 		.4byte	.LASF102
 2596 06b6 0D       		.byte	0xd
 2597 06b7 5D       		.byte	0x5d
 2598 06b8 95030000 		.4byte	0x395
 2599 06bc 08       		.byte	0x8
 2600 06bd 07       		.uleb128 0x7
 2601 06be 53090000 		.4byte	.LASF103
ARM GAS  C:\Users\PCHAUT~1\AppData\Local\Temp\cceHHvsU.s 			page 47


 2602 06c2 0D       		.byte	0xd
 2603 06c3 61       		.byte	0x61
 2604 06c4 A9000000 		.4byte	0xa9
 2605 06c8 0C       		.byte	0xc
 2606 06c9 00       		.byte	0
 2607 06ca 04       		.uleb128 0x4
 2608 06cb 21060000 		.4byte	.LASF104
 2609 06cf 0D       		.byte	0xd
 2610 06d0 62       		.byte	0x62
 2611 06d1 91060000 		.4byte	0x691
 2612 06d5 16       		.uleb128 0x16
 2613 06d6 0804     		.2byte	0x408
 2614 06d8 0D       		.byte	0xd
 2615 06d9 67       		.byte	0x67
 2616 06da 03070000 		.4byte	0x703
 2617 06de 07       		.uleb128 0x7
 2618 06df A6030000 		.4byte	.LASF105
 2619 06e3 0D       		.byte	0xd
 2620 06e4 6B       		.byte	0x6b
 2621 06e5 2C000000 		.4byte	0x2c
 2622 06e9 00       		.byte	0
 2623 06ea 07       		.uleb128 0x7
 2624 06eb 1A060000 		.4byte	.LASF106
 2625 06ef 0D       		.byte	0xd
 2626 06f0 6F       		.byte	0x6f
 2627 06f1 03070000 		.4byte	0x703
 2628 06f5 04       		.byte	0x4
 2629 06f6 07       		.uleb128 0x7
 2630 06f7 AE060000 		.4byte	.LASF107
 2631 06fb 0D       		.byte	0xd
 2632 06fc 73       		.byte	0x73
 2633 06fd 09070000 		.4byte	0x709
 2634 0701 08       		.byte	0x8
 2635 0702 00       		.byte	0
 2636 0703 0A       		.uleb128 0xa
 2637 0704 04       		.byte	0x4
 2638 0705 CA060000 		.4byte	0x6ca
 2639 0709 17       		.uleb128 0x17
 2640 070a CA060000 		.4byte	0x6ca
 2641 070e 19070000 		.4byte	0x719
 2642 0712 18       		.uleb128 0x18
 2643 0713 2C000000 		.4byte	0x2c
 2644 0717 3F       		.byte	0x3f
 2645 0718 00       		.byte	0
 2646 0719 04       		.uleb128 0x4
 2647 071a C1000000 		.4byte	.LASF108
 2648 071e 0D       		.byte	0xd
 2649 071f 74       		.byte	0x74
 2650 0720 D5060000 		.4byte	0x6d5
 2651 0724 15       		.uleb128 0x15
 2652 0725 04       		.byte	0x4
 2653 0726 0E       		.byte	0xe
 2654 0727 38       		.byte	0x38
 2655 0728 39070000 		.4byte	0x739
 2656 072c 07       		.uleb128 0x7
 2657 072d 0E090000 		.4byte	.LASF109
 2658 0731 0E       		.byte	0xe
ARM GAS  C:\Users\PCHAUT~1\AppData\Local\Temp\cceHHvsU.s 			page 48


 2659 0732 3C       		.byte	0x3c
 2660 0733 E5000000 		.4byte	0xe5
 2661 0737 00       		.byte	0
 2662 0738 00       		.byte	0
 2663 0739 04       		.uleb128 0x4
 2664 073a 50060000 		.4byte	.LASF110
 2665 073e 0E       		.byte	0xe
 2666 073f 3D       		.byte	0x3d
 2667 0740 24070000 		.4byte	0x724
 2668 0744 15       		.uleb128 0x15
 2669 0745 18       		.byte	0x18
 2670 0746 0E       		.byte	0xe
 2671 0747 48       		.byte	0x48
 2672 0748 87070000 		.4byte	0x787
 2673 074c 07       		.uleb128 0x7
 2674 074d C1080000 		.4byte	.LASF111
 2675 0751 0E       		.byte	0xe
 2676 0752 49       		.byte	0x49
 2677 0753 E5000000 		.4byte	0xe5
 2678 0757 00       		.byte	0
 2679 0758 07       		.uleb128 0x7
 2680 0759 91000000 		.4byte	.LASF112
 2681 075d 0E       		.byte	0xe
 2682 075e 4A       		.byte	0x4a
 2683 075f E5000000 		.4byte	0xe5
 2684 0763 04       		.byte	0x4
 2685 0764 07       		.uleb128 0x7
 2686 0765 12050000 		.4byte	.LASF113
 2687 0769 0E       		.byte	0xe
 2688 076a 4B       		.byte	0x4b
 2689 076b E5000000 		.4byte	0xe5
 2690 076f 08       		.byte	0x8
 2691 0770 14       		.uleb128 0x14
 2692 0771 6E00     		.ascii	"n\000"
 2693 0773 0E       		.byte	0xe
 2694 0774 4C       		.byte	0x4c
 2695 0775 69010000 		.4byte	0x169
 2696 0779 0C       		.byte	0xc
 2697 077a 07       		.uleb128 0x7
 2698 077b 92060000 		.4byte	.LASF114
 2699 077f 0E       		.byte	0xe
 2700 0780 4D       		.byte	0x4d
 2701 0781 F0000000 		.4byte	0xf0
 2702 0785 10       		.byte	0x10
 2703 0786 00       		.byte	0
 2704 0787 04       		.uleb128 0x4
 2705 0788 97000000 		.4byte	.LASF115
 2706 078c 0E       		.byte	0xe
 2707 078d 4E       		.byte	0x4e
 2708 078e 44070000 		.4byte	0x744
 2709 0792 15       		.uleb128 0x15
 2710 0793 38       		.byte	0x38
 2711 0794 0F       		.byte	0xf
 2712 0795 38       		.byte	0x38
 2713 0796 CB070000 		.4byte	0x7cb
 2714 079a 07       		.uleb128 0x7
 2715 079b BD040000 		.4byte	.LASF116
ARM GAS  C:\Users\PCHAUT~1\AppData\Local\Temp\cceHHvsU.s 			page 49


 2716 079f 0F       		.byte	0xf
 2717 07a0 39       		.byte	0x39
 2718 07a1 69010000 		.4byte	0x169
 2719 07a5 00       		.byte	0
 2720 07a6 07       		.uleb128 0x7
 2721 07a7 F1060000 		.4byte	.LASF117
 2722 07ab 0F       		.byte	0xf
 2723 07ac 3A       		.byte	0x3a
 2724 07ad 69010000 		.4byte	0x169
 2725 07b1 04       		.byte	0x4
 2726 07b2 07       		.uleb128 0x7
 2727 07b3 F9090000 		.4byte	.LASF118
 2728 07b7 0F       		.byte	0xf
 2729 07b8 3B       		.byte	0x3b
 2730 07b9 87070000 		.4byte	0x787
 2731 07bd 08       		.byte	0x8
 2732 07be 07       		.uleb128 0x7
 2733 07bf 69050000 		.4byte	.LASF119
 2734 07c3 0F       		.byte	0xf
 2735 07c4 3D       		.byte	0x3d
 2736 07c5 87070000 		.4byte	0x787
 2737 07c9 20       		.byte	0x20
 2738 07ca 00       		.byte	0
 2739 07cb 04       		.uleb128 0x4
 2740 07cc DC040000 		.4byte	.LASF120
 2741 07d0 0F       		.byte	0xf
 2742 07d1 3F       		.byte	0x3f
 2743 07d2 92070000 		.4byte	0x792
 2744 07d6 19       		.uleb128 0x19
 2745 07d7 04       		.byte	0x4
 2746 07d8 09       		.byte	0x9
 2747 07d9 FA       		.byte	0xfa
 2748 07da 33080000 		.4byte	0x833
 2749 07de 1A       		.uleb128 0x1a
 2750 07df 28000000 		.4byte	.LASF121
 2751 07e3 09       		.byte	0x9
 2752 07e4 0101     		.2byte	0x101
 2753 07e6 32010000 		.4byte	0x132
 2754 07ea 1A       		.uleb128 0x1a
 2755 07eb E1000000 		.4byte	.LASF122
 2756 07ef 09       		.byte	0x9
 2757 07f0 0801     		.2byte	0x108
 2758 07f2 32010000 		.4byte	0x132
 2759 07f6 1A       		.uleb128 0x1a
 2760 07f7 A4090000 		.4byte	.LASF123
 2761 07fb 09       		.byte	0x9
 2762 07fc 0F01     		.2byte	0x10f
 2763 07fe 95030000 		.4byte	0x395
 2764 0802 1A       		.uleb128 0x1a
 2765 0803 22000000 		.4byte	.LASF124
 2766 0807 09       		.byte	0x9
 2767 0808 1601     		.2byte	0x116
 2768 080a 33080000 		.4byte	0x833
 2769 080e 1A       		.uleb128 0x1a
 2770 080f 82040000 		.4byte	.LASF125
 2771 0813 09       		.byte	0x9
 2772 0814 1E01     		.2byte	0x11e
ARM GAS  C:\Users\PCHAUT~1\AppData\Local\Temp\cceHHvsU.s 			page 50


 2773 0816 5E080000 		.4byte	0x85e
 2774 081a 1A       		.uleb128 0x1a
 2775 081b A6080000 		.4byte	.LASF126
 2776 081f 09       		.byte	0x9
 2777 0820 2701     		.2byte	0x127
 2778 0822 A1080000 		.4byte	0x8a1
 2779 0826 1A       		.uleb128 0x1a
 2780 0827 80070000 		.4byte	.LASF127
 2781 082b 09       		.byte	0x9
 2782 082c 2F01     		.2byte	0x12f
 2783 082e 48010000 		.4byte	0x148
 2784 0832 00       		.byte	0
 2785 0833 0A       		.uleb128 0xa
 2786 0834 04       		.byte	0x4
 2787 0835 AD020000 		.4byte	0x2ad
 2788 0839 06       		.uleb128 0x6
 2789 083a 31080000 		.4byte	.LASF128
 2790 083e 0C       		.byte	0xc
 2791 083f 10       		.byte	0x10
 2792 0840 34       		.byte	0x34
 2793 0841 5E080000 		.4byte	0x85e
 2794 0845 07       		.uleb128 0x7
 2795 0846 9E030000 		.4byte	.LASF129
 2796 084a 10       		.byte	0x10
 2797 084b 35       		.byte	0x35
 2798 084c E2020000 		.4byte	0x2e2
 2799 0850 00       		.byte	0
 2800 0851 07       		.uleb128 0x7
 2801 0852 C3040000 		.4byte	.LASF130
 2802 0856 10       		.byte	0x10
 2803 0857 37       		.byte	0x37
 2804 0858 5E010000 		.4byte	0x15e
 2805 085c 08       		.byte	0x8
 2806 085d 00       		.byte	0
 2807 085e 0A       		.uleb128 0xa
 2808 085f 04       		.byte	0x4
 2809 0860 39080000 		.4byte	0x839
 2810 0864 06       		.uleb128 0x6
 2811 0865 3A090000 		.4byte	.LASF131
 2812 0869 14       		.byte	0x14
 2813 086a 11       		.byte	0x11
 2814 086b 39       		.byte	0x39
 2815 086c A1080000 		.4byte	0x8a1
 2816 0870 07       		.uleb128 0x7
 2817 0871 88010000 		.4byte	.LASF132
 2818 0875 11       		.byte	0x11
 2819 0876 3A       		.byte	0x3a
 2820 0877 E2020000 		.4byte	0x2e2
 2821 087b 00       		.byte	0
 2822 087c 07       		.uleb128 0x7
 2823 087d 040A0000 		.4byte	.LASF133
 2824 0881 11       		.byte	0x11
 2825 0882 3C       		.byte	0x3c
 2826 0883 B8020000 		.4byte	0x2b8
 2827 0887 08       		.byte	0x8
 2828 0888 07       		.uleb128 0x7
 2829 0889 C6080000 		.4byte	.LASF134
ARM GAS  C:\Users\PCHAUT~1\AppData\Local\Temp\cceHHvsU.s 			page 51


 2830 088d 11       		.byte	0x11
 2831 088e 3E       		.byte	0x3e
 2832 088f FC090000 		.4byte	0x9fc
 2833 0893 0C       		.byte	0xc
 2834 0894 07       		.uleb128 0x7
 2835 0895 F5030000 		.4byte	.LASF135
 2836 0899 11       		.byte	0x11
 2837 089a 41       		.byte	0x41
 2838 089b 5E010000 		.4byte	0x15e
 2839 089f 10       		.byte	0x10
 2840 08a0 00       		.byte	0
 2841 08a1 0A       		.uleb128 0xa
 2842 08a2 04       		.byte	0x4
 2843 08a3 64080000 		.4byte	0x864
 2844 08a7 0A       		.uleb128 0xa
 2845 08a8 04       		.byte	0x4
 2846 08a9 B9080000 		.4byte	0x8b9
 2847 08ad 05       		.uleb128 0x5
 2848 08ae A7080000 		.4byte	0x8a7
 2849 08b2 03       		.uleb128 0x3
 2850 08b3 01       		.byte	0x1
 2851 08b4 08       		.byte	0x8
 2852 08b5 A1080000 		.4byte	.LASF136
 2853 08b9 1B       		.uleb128 0x1b
 2854 08ba B2080000 		.4byte	0x8b2
 2855 08be 0A       		.uleb128 0xa
 2856 08bf 04       		.byte	0x4
 2857 08c0 26050000 		.4byte	0x526
 2858 08c4 0A       		.uleb128 0xa
 2859 08c5 04       		.byte	0x4
 2860 08c6 97030000 		.4byte	0x397
 2861 08ca 17       		.uleb128 0x17
 2862 08cb 26050000 		.4byte	0x526
 2863 08cf DA080000 		.4byte	0x8da
 2864 08d3 18       		.uleb128 0x18
 2865 08d4 2C000000 		.4byte	0x2c
 2866 08d8 30       		.byte	0x30
 2867 08d9 00       		.byte	0
 2868 08da 1C       		.uleb128 0x1c
 2869 08db 636800   		.ascii	"ch\000"
 2870 08de 09       		.byte	0x9
 2871 08df 0902     		.2byte	0x209
 2872 08e1 8C040000 		.4byte	0x48c
 2873 08e5 15       		.uleb128 0x15
 2874 08e6 16       		.byte	0x16
 2875 08e7 12       		.byte	0x12
 2876 08e8 34       		.byte	0x34
 2877 08e9 C6090000 		.4byte	0x9c6
 2878 08ed 07       		.uleb128 0x7
 2879 08ee 160A0000 		.4byte	.LASF137
 2880 08f2 12       		.byte	0x12
 2881 08f3 35       		.byte	0x35
 2882 08f4 C6090000 		.4byte	0x9c6
 2883 08f8 00       		.byte	0
 2884 08f9 07       		.uleb128 0x7
 2885 08fa B2050000 		.4byte	.LASF138
 2886 08fe 12       		.byte	0x12
ARM GAS  C:\Users\PCHAUT~1\AppData\Local\Temp\cceHHvsU.s 			page 52


 2887 08ff 36       		.byte	0x36
 2888 0900 A9000000 		.4byte	0xa9
 2889 0904 04       		.byte	0x4
 2890 0905 07       		.uleb128 0x7
 2891 0906 7D080000 		.4byte	.LASF139
 2892 090a 12       		.byte	0x12
 2893 090b 37       		.byte	0x37
 2894 090c A9000000 		.4byte	0xa9
 2895 0910 05       		.byte	0x5
 2896 0911 07       		.uleb128 0x7
 2897 0912 E2090000 		.4byte	.LASF140
 2898 0916 12       		.byte	0x12
 2899 0917 38       		.byte	0x38
 2900 0918 B4000000 		.4byte	0xb4
 2901 091c 06       		.byte	0x6
 2902 091d 07       		.uleb128 0x7
 2903 091e B8060000 		.4byte	.LASF141
 2904 0922 12       		.byte	0x12
 2905 0923 39       		.byte	0x39
 2906 0924 A9000000 		.4byte	0xa9
 2907 0928 08       		.byte	0x8
 2908 0929 07       		.uleb128 0x7
 2909 092a 0E060000 		.4byte	.LASF142
 2910 092e 12       		.byte	0x12
 2911 092f 3A       		.byte	0x3a
 2912 0930 A9000000 		.4byte	0xa9
 2913 0934 09       		.byte	0x9
 2914 0935 07       		.uleb128 0x7
 2915 0936 D3000000 		.4byte	.LASF143
 2916 093a 12       		.byte	0x12
 2917 093b 3B       		.byte	0x3b
 2918 093c A9000000 		.4byte	0xa9
 2919 0940 0A       		.byte	0xa
 2920 0941 07       		.uleb128 0x7
 2921 0942 59080000 		.4byte	.LASF144
 2922 0946 12       		.byte	0x12
 2923 0947 3C       		.byte	0x3c
 2924 0948 A9000000 		.4byte	0xa9
 2925 094c 0B       		.byte	0xb
 2926 094d 07       		.uleb128 0x7
 2927 094e 2F090000 		.4byte	.LASF145
 2928 0952 12       		.byte	0x12
 2929 0953 3D       		.byte	0x3d
 2930 0954 A9000000 		.4byte	0xa9
 2931 0958 0C       		.byte	0xc
 2932 0959 07       		.uleb128 0x7
 2933 095a 24080000 		.4byte	.LASF146
 2934 095e 12       		.byte	0x12
 2935 095f 3E       		.byte	0x3e
 2936 0960 A9000000 		.4byte	0xa9
 2937 0964 0D       		.byte	0xd
 2938 0965 07       		.uleb128 0x7
 2939 0966 00000000 		.4byte	.LASF147
 2940 096a 12       		.byte	0x12
 2941 096b 3F       		.byte	0x3f
 2942 096c A9000000 		.4byte	0xa9
 2943 0970 0E       		.byte	0xe
ARM GAS  C:\Users\PCHAUT~1\AppData\Local\Temp\cceHHvsU.s 			page 53


 2944 0971 07       		.uleb128 0x7
 2945 0972 30060000 		.4byte	.LASF148
 2946 0976 12       		.byte	0x12
 2947 0977 40       		.byte	0x40
 2948 0978 A9000000 		.4byte	0xa9
 2949 097c 0F       		.byte	0xf
 2950 097d 07       		.uleb128 0x7
 2951 097e 4F010000 		.4byte	.LASF149
 2952 0982 12       		.byte	0x12
 2953 0983 41       		.byte	0x41
 2954 0984 A9000000 		.4byte	0xa9
 2955 0988 10       		.byte	0x10
 2956 0989 07       		.uleb128 0x7
 2957 098a 28010000 		.4byte	.LASF150
 2958 098e 12       		.byte	0x12
 2959 098f 43       		.byte	0x43
 2960 0990 A9000000 		.4byte	0xa9
 2961 0994 11       		.byte	0x11
 2962 0995 07       		.uleb128 0x7
 2963 0996 73010000 		.4byte	.LASF151
 2964 099a 12       		.byte	0x12
 2965 099b 44       		.byte	0x44
 2966 099c A9000000 		.4byte	0xa9
 2967 09a0 12       		.byte	0x12
 2968 09a1 07       		.uleb128 0x7
 2969 09a2 ED090000 		.4byte	.LASF152
 2970 09a6 12       		.byte	0x12
 2971 09a7 45       		.byte	0x45
 2972 09a8 A9000000 		.4byte	0xa9
 2973 09ac 13       		.byte	0x13
 2974 09ad 07       		.uleb128 0x7
 2975 09ae 96070000 		.4byte	.LASF153
 2976 09b2 12       		.byte	0x12
 2977 09b3 46       		.byte	0x46
 2978 09b4 A9000000 		.4byte	0xa9
 2979 09b8 14       		.byte	0x14
 2980 09b9 07       		.uleb128 0x7
 2981 09ba 5D050000 		.4byte	.LASF154
 2982 09be 12       		.byte	0x12
 2983 09bf 48       		.byte	0x48
 2984 09c0 A9000000 		.4byte	0xa9
 2985 09c4 15       		.byte	0x15
 2986 09c5 00       		.byte	0
 2987 09c6 17       		.uleb128 0x17
 2988 09c7 B2080000 		.4byte	0x8b2
 2989 09cb D6090000 		.4byte	0x9d6
 2990 09cf 18       		.uleb128 0x18
 2991 09d0 2C000000 		.4byte	0x2c
 2992 09d4 03       		.byte	0x3
 2993 09d5 00       		.byte	0
 2994 09d6 04       		.uleb128 0x4
 2995 09d7 53030000 		.4byte	.LASF155
 2996 09db 12       		.byte	0x12
 2997 09dc 49       		.byte	0x49
 2998 09dd E5080000 		.4byte	0x8e5
 2999 09e1 1B       		.uleb128 0x1b
 3000 09e2 D6090000 		.4byte	0x9d6
ARM GAS  C:\Users\PCHAUT~1\AppData\Local\Temp\cceHHvsU.s 			page 54


 3001 09e6 13       		.uleb128 0x13
 3002 09e7 B4040000 		.4byte	.LASF156
 3003 09eb 12       		.byte	0x12
 3004 09ec 6E       		.byte	0x6e
 3005 09ed E1090000 		.4byte	0x9e1
 3006 09f1 04       		.uleb128 0x4
 3007 09f2 FB030000 		.4byte	.LASF157
 3008 09f6 11       		.byte	0x11
 3009 09f7 34       		.byte	0x34
 3010 09f8 64080000 		.4byte	0x864
 3011 09fc 0A       		.uleb128 0xa
 3012 09fd 04       		.byte	0x4
 3013 09fe F1090000 		.4byte	0x9f1
 3014 0a02 04       		.uleb128 0x4
 3015 0a03 BA050000 		.4byte	.LASF158
 3016 0a07 13       		.byte	0x13
 3017 0a08 34       		.byte	0x34
 3018 0a09 0D0A0000 		.4byte	0xa0d
 3019 0a0d 06       		.uleb128 0x6
 3020 0a0e 2C0A0000 		.4byte	.LASF159
 3021 0a12 14       		.byte	0x14
 3022 0a13 13       		.byte	0x13
 3023 0a14 39       		.byte	0x39
 3024 0a15 560A0000 		.4byte	0xa56
 3025 0a19 07       		.uleb128 0x7
 3026 0a1a 1E050000 		.4byte	.LASF160
 3027 0a1e 13       		.byte	0x13
 3028 0a1f 3A       		.byte	0x3a
 3029 0a20 560A0000 		.4byte	0xa56
 3030 0a24 00       		.byte	0
 3031 0a25 07       		.uleb128 0x7
 3032 0a26 AB090000 		.4byte	.LASF161
 3033 0a2a 13       		.byte	0x13
 3034 0a2b 3D       		.byte	0x3d
 3035 0a2c B8020000 		.4byte	0x2b8
 3036 0a30 04       		.byte	0x4
 3037 0a31 07       		.uleb128 0x7
 3038 0a32 7D060000 		.4byte	.LASF162
 3039 0a36 13       		.byte	0x13
 3040 0a37 3F       		.byte	0x3f
 3041 0a38 48010000 		.4byte	0x148
 3042 0a3c 08       		.byte	0x8
 3043 0a3d 07       		.uleb128 0x7
 3044 0a3e 33070000 		.4byte	.LASF163
 3045 0a42 13       		.byte	0x13
 3046 0a43 41       		.byte	0x41
 3047 0a44 53010000 		.4byte	0x153
 3048 0a48 0C       		.byte	0xc
 3049 0a49 07       		.uleb128 0x7
 3050 0a4a F5040000 		.4byte	.LASF164
 3051 0a4e 13       		.byte	0x13
 3052 0a4f 43       		.byte	0x43
 3053 0a50 53010000 		.4byte	0x153
 3054 0a54 10       		.byte	0x10
 3055 0a55 00       		.byte	0
 3056 0a56 0A       		.uleb128 0xa
 3057 0a57 04       		.byte	0x4
ARM GAS  C:\Users\PCHAUT~1\AppData\Local\Temp\cceHHvsU.s 			page 55


 3058 0a58 020A0000 		.4byte	0xa02
 3059 0a5c 06       		.uleb128 0x6
 3060 0a5d 62090000 		.4byte	.LASF165
 3061 0a61 04       		.byte	0x4
 3062 0a62 13       		.byte	0x13
 3063 0a63 4A       		.byte	0x4a
 3064 0a64 750A0000 		.4byte	0xa75
 3065 0a68 07       		.uleb128 0x7
 3066 0a69 43090000 		.4byte	.LASF166
 3067 0a6d 13       		.byte	0x13
 3068 0a6e 4B       		.byte	0x4b
 3069 0a6f 560A0000 		.4byte	0xa56
 3070 0a73 00       		.byte	0
 3071 0a74 00       		.byte	0
 3072 0a75 04       		.uleb128 0x4
 3073 0a76 12040000 		.4byte	.LASF167
 3074 0a7a 13       		.byte	0x13
 3075 0a7b 4E       		.byte	0x4e
 3076 0a7c 5C0A0000 		.4byte	0xa5c
 3077 0a80 04       		.uleb128 0x4
 3078 0a81 30040000 		.4byte	.LASF168
 3079 0a85 13       		.byte	0x13
 3080 0a86 53       		.byte	0x53
 3081 0a87 900A0000 		.4byte	0xa90
 3082 0a8b 1B       		.uleb128 0x1b
 3083 0a8c 800A0000 		.4byte	0xa80
 3084 0a90 0A       		.uleb128 0xa
 3085 0a91 04       		.byte	0x4
 3086 0a92 960A0000 		.4byte	0xa96
 3087 0a96 0C       		.uleb128 0xc
 3088 0a97 A10A0000 		.4byte	0xaa1
 3089 0a9b 0D       		.uleb128 0xd
 3090 0a9c 3D010000 		.4byte	0x13d
 3091 0aa0 00       		.byte	0
 3092 0aa1 1D       		.uleb128 0x1d
 3093 0aa2 5F010000 		.4byte	.LASF171
 3094 0aa6 04       		.byte	0x4
 3095 0aa7 3302     		.2byte	0x233
 3096 0aa9 48010000 		.4byte	0x148
 3097 0aad 00000000 		.4byte	.LFB235
 3098 0ab1 84000000 		.4byte	.LFE235-.LFB235
 3099 0ab5 01       		.uleb128 0x1
 3100 0ab6 9C       		.byte	0x9c
 3101 0ab7 E90A0000 		.4byte	0xae9
 3102 0abb 1E       		.uleb128 0x1e
 3103 0abc 49080000 		.4byte	.LASF169
 3104 0ac0 04       		.byte	0x4
 3105 0ac1 3302     		.2byte	0x233
 3106 0ac3 48010000 		.4byte	0x148
 3107 0ac7 02       		.uleb128 0x2
 3108 0ac8 91       		.byte	0x91
 3109 0ac9 6C       		.sleb128 -20
 3110 0aca 1E       		.uleb128 0x1e
 3111 0acb 23090000 		.4byte	.LASF170
 3112 0acf 04       		.byte	0x4
 3113 0ad0 3302     		.2byte	0x233
 3114 0ad2 74010000 		.4byte	0x174
ARM GAS  C:\Users\PCHAUT~1\AppData\Local\Temp\cceHHvsU.s 			page 56


 3115 0ad6 02       		.uleb128 0x2
 3116 0ad7 91       		.byte	0x91
 3117 0ad8 68       		.sleb128 -24
 3118 0ad9 1F       		.uleb128 0x1f
 3119 0ada 63747000 		.ascii	"ctp\000"
 3120 0ade 04       		.byte	0x4
 3121 0adf 3402     		.2byte	0x234
 3122 0ae1 B8020000 		.4byte	0x2b8
 3123 0ae5 02       		.uleb128 0x2
 3124 0ae6 91       		.byte	0x91
 3125 0ae7 70       		.sleb128 -16
 3126 0ae8 00       		.byte	0
 3127 0ae9 1D       		.uleb128 0x1d
 3128 0aea 7B030000 		.4byte	.LASF172
 3129 0aee 04       		.byte	0x4
 3130 0aef 0A02     		.2byte	0x20a
 3131 0af1 48010000 		.4byte	0x148
 3132 0af5 00000000 		.4byte	.LFB234
 3133 0af9 90000000 		.4byte	.LFE234-.LFB234
 3134 0afd 01       		.uleb128 0x1
 3135 0afe 9C       		.byte	0x9c
 3136 0aff 3E0B0000 		.4byte	0xb3e
 3137 0b03 1E       		.uleb128 0x1e
 3138 0b04 49080000 		.4byte	.LASF169
 3139 0b08 04       		.byte	0x4
 3140 0b09 0A02     		.2byte	0x20a
 3141 0b0b 48010000 		.4byte	0x148
 3142 0b0f 02       		.uleb128 0x2
 3143 0b10 91       		.byte	0x91
 3144 0b11 64       		.sleb128 -28
 3145 0b12 1E       		.uleb128 0x1e
 3146 0b13 23090000 		.4byte	.LASF170
 3147 0b17 04       		.byte	0x4
 3148 0b18 0A02     		.2byte	0x20a
 3149 0b1a 74010000 		.4byte	0x174
 3150 0b1e 02       		.uleb128 0x2
 3151 0b1f 91       		.byte	0x91
 3152 0b20 60       		.sleb128 -32
 3153 0b21 1F       		.uleb128 0x1f
 3154 0b22 63747000 		.ascii	"ctp\000"
 3155 0b26 04       		.byte	0x4
 3156 0b27 0B02     		.2byte	0x20b
 3157 0b29 B8020000 		.4byte	0x2b8
 3158 0b2d 02       		.uleb128 0x2
 3159 0b2e 91       		.byte	0x91
 3160 0b2f 70       		.sleb128 -16
 3161 0b30 1F       		.uleb128 0x1f
 3162 0b31 6D00     		.ascii	"m\000"
 3163 0b33 04       		.byte	0x4
 3164 0b34 0C02     		.2byte	0x20c
 3165 0b36 48010000 		.4byte	0x148
 3166 0b3a 02       		.uleb128 0x2
 3167 0b3b 91       		.byte	0x91
 3168 0b3c 6C       		.sleb128 -20
 3169 0b3d 00       		.byte	0
 3170 0b3e 1D       		.uleb128 0x1d
 3171 0b3f 90090000 		.4byte	.LASF173
ARM GAS  C:\Users\PCHAUT~1\AppData\Local\Temp\cceHHvsU.s 			page 57


 3172 0b43 04       		.byte	0x4
 3173 0b44 DF01     		.2byte	0x1df
 3174 0b46 48010000 		.4byte	0x148
 3175 0b4a 00000000 		.4byte	.LFB233
 3176 0b4e 98000000 		.4byte	.LFE233-.LFB233
 3177 0b52 01       		.uleb128 0x1
 3178 0b53 9C       		.byte	0x9c
 3179 0b54 930B0000 		.4byte	0xb93
 3180 0b58 1E       		.uleb128 0x1e
 3181 0b59 49080000 		.4byte	.LASF169
 3182 0b5d 04       		.byte	0x4
 3183 0b5e DF01     		.2byte	0x1df
 3184 0b60 48010000 		.4byte	0x148
 3185 0b64 02       		.uleb128 0x2
 3186 0b65 91       		.byte	0x91
 3187 0b66 64       		.sleb128 -28
 3188 0b67 1E       		.uleb128 0x1e
 3189 0b68 23090000 		.4byte	.LASF170
 3190 0b6c 04       		.byte	0x4
 3191 0b6d DF01     		.2byte	0x1df
 3192 0b6f 74010000 		.4byte	0x174
 3193 0b73 02       		.uleb128 0x2
 3194 0b74 91       		.byte	0x91
 3195 0b75 60       		.sleb128 -32
 3196 0b76 1F       		.uleb128 0x1f
 3197 0b77 63747000 		.ascii	"ctp\000"
 3198 0b7b 04       		.byte	0x4
 3199 0b7c E001     		.2byte	0x1e0
 3200 0b7e B8020000 		.4byte	0x2b8
 3201 0b82 02       		.uleb128 0x2
 3202 0b83 91       		.byte	0x91
 3203 0b84 70       		.sleb128 -16
 3204 0b85 1F       		.uleb128 0x1f
 3205 0b86 6D00     		.ascii	"m\000"
 3206 0b88 04       		.byte	0x4
 3207 0b89 E101     		.2byte	0x1e1
 3208 0b8b 48010000 		.4byte	0x148
 3209 0b8f 02       		.uleb128 0x2
 3210 0b90 91       		.byte	0x91
 3211 0b91 6C       		.sleb128 -20
 3212 0b92 00       		.byte	0
 3213 0b93 1D       		.uleb128 0x1d
 3214 0b94 68060000 		.4byte	.LASF174
 3215 0b98 04       		.byte	0x4
 3216 0b99 B901     		.2byte	0x1b9
 3217 0b9b 48010000 		.4byte	0x148
 3218 0b9f 00000000 		.4byte	.LFB232
 3219 0ba3 64000000 		.4byte	.LFE232-.LFB232
 3220 0ba7 01       		.uleb128 0x1
 3221 0ba8 9C       		.byte	0x9c
 3222 0ba9 CC0B0000 		.4byte	0xbcc
 3223 0bad 1E       		.uleb128 0x1e
 3224 0bae 49080000 		.4byte	.LASF169
 3225 0bb2 04       		.byte	0x4
 3226 0bb3 B901     		.2byte	0x1b9
 3227 0bb5 48010000 		.4byte	0x148
 3228 0bb9 02       		.uleb128 0x2
ARM GAS  C:\Users\PCHAUT~1\AppData\Local\Temp\cceHHvsU.s 			page 58


 3229 0bba 91       		.byte	0x91
 3230 0bbb 6C       		.sleb128 -20
 3231 0bbc 1F       		.uleb128 0x1f
 3232 0bbd 63747000 		.ascii	"ctp\000"
 3233 0bc1 04       		.byte	0x4
 3234 0bc2 BA01     		.2byte	0x1ba
 3235 0bc4 B8020000 		.4byte	0x2b8
 3236 0bc8 02       		.uleb128 0x2
 3237 0bc9 91       		.byte	0x91
 3238 0bca 70       		.sleb128 -16
 3239 0bcb 00       		.byte	0
 3240 0bcc 1D       		.uleb128 0x1d
 3241 0bcd 40030000 		.4byte	.LASF175
 3242 0bd1 04       		.byte	0x4
 3243 0bd2 9D01     		.2byte	0x19d
 3244 0bd4 48010000 		.4byte	0x148
 3245 0bd8 00000000 		.4byte	.LFB231
 3246 0bdc 70000000 		.4byte	.LFE231-.LFB231
 3247 0be0 01       		.uleb128 0x1
 3248 0be1 9C       		.byte	0x9c
 3249 0be2 120C0000 		.4byte	0xc12
 3250 0be6 1E       		.uleb128 0x1e
 3251 0be7 49080000 		.4byte	.LASF169
 3252 0beb 04       		.byte	0x4
 3253 0bec 9D01     		.2byte	0x19d
 3254 0bee 48010000 		.4byte	0x148
 3255 0bf2 02       		.uleb128 0x2
 3256 0bf3 91       		.byte	0x91
 3257 0bf4 64       		.sleb128 -28
 3258 0bf5 1F       		.uleb128 0x1f
 3259 0bf6 63747000 		.ascii	"ctp\000"
 3260 0bfa 04       		.byte	0x4
 3261 0bfb 9E01     		.2byte	0x19e
 3262 0bfd B8020000 		.4byte	0x2b8
 3263 0c01 02       		.uleb128 0x2
 3264 0c02 91       		.byte	0x91
 3265 0c03 70       		.sleb128 -16
 3266 0c04 1F       		.uleb128 0x1f
 3267 0c05 6D00     		.ascii	"m\000"
 3268 0c07 04       		.byte	0x4
 3269 0c08 9F01     		.2byte	0x19f
 3270 0c0a 48010000 		.4byte	0x148
 3271 0c0e 02       		.uleb128 0x2
 3272 0c0f 91       		.byte	0x91
 3273 0c10 6C       		.sleb128 -20
 3274 0c11 00       		.byte	0
 3275 0c12 1D       		.uleb128 0x1d
 3276 0c13 10070000 		.4byte	.LASF176
 3277 0c17 04       		.byte	0x4
 3278 0c18 7F01     		.2byte	0x17f
 3279 0c1a 48010000 		.4byte	0x148
 3280 0c1e 00000000 		.4byte	.LFB230
 3281 0c22 78000000 		.4byte	.LFE230-.LFB230
 3282 0c26 01       		.uleb128 0x1
 3283 0c27 9C       		.byte	0x9c
 3284 0c28 580C0000 		.4byte	0xc58
 3285 0c2c 1E       		.uleb128 0x1e
ARM GAS  C:\Users\PCHAUT~1\AppData\Local\Temp\cceHHvsU.s 			page 59


 3286 0c2d 49080000 		.4byte	.LASF169
 3287 0c31 04       		.byte	0x4
 3288 0c32 7F01     		.2byte	0x17f
 3289 0c34 48010000 		.4byte	0x148
 3290 0c38 02       		.uleb128 0x2
 3291 0c39 91       		.byte	0x91
 3292 0c3a 64       		.sleb128 -28
 3293 0c3b 1F       		.uleb128 0x1f
 3294 0c3c 63747000 		.ascii	"ctp\000"
 3295 0c40 04       		.byte	0x4
 3296 0c41 8001     		.2byte	0x180
 3297 0c43 B8020000 		.4byte	0x2b8
 3298 0c47 02       		.uleb128 0x2
 3299 0c48 91       		.byte	0x91
 3300 0c49 70       		.sleb128 -16
 3301 0c4a 1F       		.uleb128 0x1f
 3302 0c4b 6D00     		.ascii	"m\000"
 3303 0c4d 04       		.byte	0x4
 3304 0c4e 8101     		.2byte	0x181
 3305 0c50 48010000 		.4byte	0x148
 3306 0c54 02       		.uleb128 0x2
 3307 0c55 91       		.byte	0x91
 3308 0c56 6C       		.sleb128 -20
 3309 0c57 00       		.byte	0
 3310 0c58 20       		.uleb128 0x20
 3311 0c59 00060000 		.4byte	.LASF180
 3312 0c5d 04       		.byte	0x4
 3313 0c5e 5C01     		.2byte	0x15c
 3314 0c60 00000000 		.4byte	.LFB229
 3315 0c64 8C000000 		.4byte	.LFE229-.LFB229
 3316 0c68 01       		.uleb128 0x1
 3317 0c69 9C       		.byte	0x9c
 3318 0c6a AB0C0000 		.4byte	0xcab
 3319 0c6e 1E       		.uleb128 0x1e
 3320 0c6f 9D060000 		.4byte	.LASF177
 3321 0c73 04       		.byte	0x4
 3322 0c74 5C01     		.2byte	0x15c
 3323 0c76 AB0C0000 		.4byte	0xcab
 3324 0c7a 02       		.uleb128 0x2
 3325 0c7b 91       		.byte	0x91
 3326 0c7c 6C       		.sleb128 -20
 3327 0c7d 1E       		.uleb128 0x1e
 3328 0c7e 49080000 		.4byte	.LASF169
 3329 0c82 04       		.byte	0x4
 3330 0c83 5C01     		.2byte	0x15c
 3331 0c85 48010000 		.4byte	0x148
 3332 0c89 02       		.uleb128 0x2
 3333 0c8a 91       		.byte	0x91
 3334 0c8b 68       		.sleb128 -24
 3335 0c8c 1F       		.uleb128 0x1f
 3336 0c8d 65696400 		.ascii	"eid\000"
 3337 0c91 04       		.byte	0x4
 3338 0c92 5D01     		.2byte	0x15d
 3339 0c94 3D010000 		.4byte	0x13d
 3340 0c98 02       		.uleb128 0x2
 3341 0c99 91       		.byte	0x91
 3342 0c9a 70       		.sleb128 -16
ARM GAS  C:\Users\PCHAUT~1\AppData\Local\Temp\cceHHvsU.s 			page 60


 3343 0c9b 21       		.uleb128 0x21
 3344 0c9c AD070000 		.4byte	.LASF183
 3345 0ca0 C10C0000 		.4byte	0xcc1
 3346 0ca4 05       		.uleb128 0x5
 3347 0ca5 03       		.byte	0x3
 3348 0ca6 00000000 		.4byte	__func__.7905
 3349 0caa 00       		.byte	0
 3350 0cab 0A       		.uleb128 0xa
 3351 0cac 04       		.byte	0x4
 3352 0cad 8B0A0000 		.4byte	0xa8b
 3353 0cb1 17       		.uleb128 0x17
 3354 0cb2 B9080000 		.4byte	0x8b9
 3355 0cb6 C10C0000 		.4byte	0xcc1
 3356 0cba 18       		.uleb128 0x18
 3357 0cbb 2C000000 		.4byte	0x2c
 3358 0cbf 0D       		.byte	0xd
 3359 0cc0 00       		.byte	0
 3360 0cc1 1B       		.uleb128 0x1b
 3361 0cc2 B10C0000 		.4byte	0xcb1
 3362 0cc6 1D       		.uleb128 0x1d
 3363 0cc7 69070000 		.4byte	.LASF178
 3364 0ccb 04       		.byte	0x4
 3365 0ccc 4A01     		.2byte	0x14a
 3366 0cce 53010000 		.4byte	0x153
 3367 0cd2 00000000 		.4byte	.LFB228
 3368 0cd6 34000000 		.4byte	.LFE228-.LFB228
 3369 0cda 01       		.uleb128 0x1
 3370 0cdb 9C       		.byte	0x9c
 3371 0cdc FF0C0000 		.4byte	0xcff
 3372 0ce0 22       		.uleb128 0x22
 3373 0ce1 656C7000 		.ascii	"elp\000"
 3374 0ce5 04       		.byte	0x4
 3375 0ce6 4A01     		.2byte	0x14a
 3376 0ce8 560A0000 		.4byte	0xa56
 3377 0cec 02       		.uleb128 0x2
 3378 0ced 91       		.byte	0x91
 3379 0cee 6C       		.sleb128 -20
 3380 0cef 23       		.uleb128 0x23
 3381 0cf0 77090000 		.4byte	.LASF179
 3382 0cf4 04       		.byte	0x4
 3383 0cf5 4B01     		.2byte	0x14b
 3384 0cf7 53010000 		.4byte	0x153
 3385 0cfb 02       		.uleb128 0x2
 3386 0cfc 91       		.byte	0x91
 3387 0cfd 70       		.sleb128 -16
 3388 0cfe 00       		.byte	0
 3389 0cff 20       		.uleb128 0x20
 3390 0d00 C7030000 		.4byte	.LASF181
 3391 0d04 04       		.byte	0x4
 3392 0d05 3701     		.2byte	0x137
 3393 0d07 00000000 		.4byte	.LFB227
 3394 0d0b 3C000000 		.4byte	.LFE227-.LFB227
 3395 0d0f 01       		.uleb128 0x1
 3396 0d10 9C       		.byte	0x9c
 3397 0d11 340D0000 		.4byte	0xd34
 3398 0d15 22       		.uleb128 0x22
 3399 0d16 65737000 		.ascii	"esp\000"
ARM GAS  C:\Users\PCHAUT~1\AppData\Local\Temp\cceHHvsU.s 			page 61


 3400 0d1a 04       		.byte	0x4
 3401 0d1b 3701     		.2byte	0x137
 3402 0d1d 340D0000 		.4byte	0xd34
 3403 0d21 02       		.uleb128 0x2
 3404 0d22 91       		.byte	0x91
 3405 0d23 6C       		.sleb128 -20
 3406 0d24 1E       		.uleb128 0x1e
 3407 0d25 77090000 		.4byte	.LASF179
 3408 0d29 04       		.byte	0x4
 3409 0d2a 3701     		.2byte	0x137
 3410 0d2c 53010000 		.4byte	0x153
 3411 0d30 02       		.uleb128 0x2
 3412 0d31 91       		.byte	0x91
 3413 0d32 68       		.sleb128 -24
 3414 0d33 00       		.byte	0
 3415 0d34 0A       		.uleb128 0xa
 3416 0d35 04       		.byte	0x4
 3417 0d36 750A0000 		.4byte	0xa75
 3418 0d3a 20       		.uleb128 0x20
 3419 0d3b 3B0A0000 		.4byte	.LASF182
 3420 0d3f 04       		.byte	0x4
 3421 0d40 1A01     		.2byte	0x11a
 3422 0d42 00000000 		.4byte	.LFB226
 3423 0d46 88000000 		.4byte	.LFE226-.LFB226
 3424 0d4a 01       		.uleb128 0x1
 3425 0d4b 9C       		.byte	0x9c
 3426 0d4c 7D0D0000 		.4byte	0xd7d
 3427 0d50 22       		.uleb128 0x22
 3428 0d51 747000   		.ascii	"tp\000"
 3429 0d54 04       		.byte	0x4
 3430 0d55 1A01     		.2byte	0x11a
 3431 0d57 B8020000 		.4byte	0x2b8
 3432 0d5b 02       		.uleb128 0x2
 3433 0d5c 91       		.byte	0x91
 3434 0d5d 6C       		.sleb128 -20
 3435 0d5e 1E       		.uleb128 0x1e
 3436 0d5f 49080000 		.4byte	.LASF169
 3437 0d63 04       		.byte	0x4
 3438 0d64 1A01     		.2byte	0x11a
 3439 0d66 48010000 		.4byte	0x148
 3440 0d6a 02       		.uleb128 0x2
 3441 0d6b 91       		.byte	0x91
 3442 0d6c 68       		.sleb128 -24
 3443 0d6d 21       		.uleb128 0x21
 3444 0d6e AD070000 		.4byte	.LASF183
 3445 0d72 8D0D0000 		.4byte	0xd8d
 3446 0d76 05       		.uleb128 0x5
 3447 0d77 03       		.byte	0x3
 3448 0d78 00000000 		.4byte	__func__.7891
 3449 0d7c 00       		.byte	0
 3450 0d7d 17       		.uleb128 0x17
 3451 0d7e B9080000 		.4byte	0x8b9
 3452 0d82 8D0D0000 		.4byte	0xd8d
 3453 0d86 18       		.uleb128 0x18
 3454 0d87 2C000000 		.4byte	0x2c
 3455 0d8b 0C       		.byte	0xc
 3456 0d8c 00       		.byte	0
ARM GAS  C:\Users\PCHAUT~1\AppData\Local\Temp\cceHHvsU.s 			page 62


 3457 0d8d 1B       		.uleb128 0x1b
 3458 0d8e 7D0D0000 		.4byte	0xd7d
 3459 0d92 20       		.uleb128 0x20
 3460 0d93 7B000000 		.4byte	.LASF184
 3461 0d97 04       		.byte	0x4
 3462 0d98 0401     		.2byte	0x104
 3463 0d9a 00000000 		.4byte	.LFB225
 3464 0d9e 4C000000 		.4byte	.LFE225-.LFB225
 3465 0da2 01       		.uleb128 0x1
 3466 0da3 9C       		.byte	0x9c
 3467 0da4 D50D0000 		.4byte	0xdd5
 3468 0da8 22       		.uleb128 0x22
 3469 0da9 747000   		.ascii	"tp\000"
 3470 0dac 04       		.byte	0x4
 3471 0dad 0401     		.2byte	0x104
 3472 0daf B8020000 		.4byte	0x2b8
 3473 0db3 02       		.uleb128 0x2
 3474 0db4 91       		.byte	0x91
 3475 0db5 6C       		.sleb128 -20
 3476 0db6 1E       		.uleb128 0x1e
 3477 0db7 49080000 		.4byte	.LASF169
 3478 0dbb 04       		.byte	0x4
 3479 0dbc 0401     		.2byte	0x104
 3480 0dbe 48010000 		.4byte	0x148
 3481 0dc2 02       		.uleb128 0x2
 3482 0dc3 91       		.byte	0x91
 3483 0dc4 68       		.sleb128 -24
 3484 0dc5 21       		.uleb128 0x21
 3485 0dc6 AD070000 		.4byte	.LASF183
 3486 0dca E50D0000 		.4byte	0xde5
 3487 0dce 05       		.uleb128 0x5
 3488 0dcf 03       		.byte	0x3
 3489 0dd0 00000000 		.4byte	__func__.7886
 3490 0dd4 00       		.byte	0
 3491 0dd5 17       		.uleb128 0x17
 3492 0dd6 B9080000 		.4byte	0x8b9
 3493 0dda E50D0000 		.4byte	0xde5
 3494 0dde 18       		.uleb128 0x18
 3495 0ddf 2C000000 		.4byte	0x2c
 3496 0de3 0B       		.byte	0xb
 3497 0de4 00       		.byte	0
 3498 0de5 1B       		.uleb128 0x1b
 3499 0de6 D50D0000 		.4byte	0xdd5
 3500 0dea 24       		.uleb128 0x24
 3501 0deb 1D070000 		.4byte	.LASF185
 3502 0def 04       		.byte	0x4
 3503 0df0 F1       		.byte	0xf1
 3504 0df1 53010000 		.4byte	0x153
 3505 0df5 00000000 		.4byte	.LFB224
 3506 0df9 3C000000 		.4byte	.LFE224-.LFB224
 3507 0dfd 01       		.uleb128 0x1
 3508 0dfe 9C       		.byte	0x9c
 3509 0dff 200E0000 		.4byte	0xe20
 3510 0e03 25       		.uleb128 0x25
 3511 0e04 656C7000 		.ascii	"elp\000"
 3512 0e08 04       		.byte	0x4
 3513 0e09 F1       		.byte	0xf1
ARM GAS  C:\Users\PCHAUT~1\AppData\Local\Temp\cceHHvsU.s 			page 63


 3514 0e0a 560A0000 		.4byte	0xa56
 3515 0e0e 02       		.uleb128 0x2
 3516 0e0f 91       		.byte	0x91
 3517 0e10 6C       		.sleb128 -20
 3518 0e11 26       		.uleb128 0x26
 3519 0e12 77090000 		.4byte	.LASF179
 3520 0e16 04       		.byte	0x4
 3521 0e17 F2       		.byte	0xf2
 3522 0e18 53010000 		.4byte	0x153
 3523 0e1c 02       		.uleb128 0x2
 3524 0e1d 91       		.byte	0x91
 3525 0e1e 70       		.sleb128 -16
 3526 0e1f 00       		.byte	0
 3527 0e20 27       		.uleb128 0x27
 3528 0e21 5D030000 		.4byte	.LASF186
 3529 0e25 04       		.byte	0x4
 3530 0e26 D1       		.byte	0xd1
 3531 0e27 00000000 		.4byte	.LFB223
 3532 0e2b 84000000 		.4byte	.LFE223-.LFB223
 3533 0e2f 01       		.uleb128 0x1
 3534 0e30 9C       		.byte	0x9c
 3535 0e31 6F0E0000 		.4byte	0xe6f
 3536 0e35 25       		.uleb128 0x25
 3537 0e36 65737000 		.ascii	"esp\000"
 3538 0e3a 04       		.byte	0x4
 3539 0e3b D1       		.byte	0xd1
 3540 0e3c 340D0000 		.4byte	0xd34
 3541 0e40 02       		.uleb128 0x2
 3542 0e41 91       		.byte	0x91
 3543 0e42 6C       		.sleb128 -20
 3544 0e43 28       		.uleb128 0x28
 3545 0e44 77090000 		.4byte	.LASF179
 3546 0e48 04       		.byte	0x4
 3547 0e49 D1       		.byte	0xd1
 3548 0e4a 53010000 		.4byte	0x153
 3549 0e4e 02       		.uleb128 0x2
 3550 0e4f 91       		.byte	0x91
 3551 0e50 68       		.sleb128 -24
 3552 0e51 29       		.uleb128 0x29
 3553 0e52 656C7000 		.ascii	"elp\000"
 3554 0e56 04       		.byte	0x4
 3555 0e57 D2       		.byte	0xd2
 3556 0e58 560A0000 		.4byte	0xa56
 3557 0e5c 02       		.uleb128 0x2
 3558 0e5d 91       		.byte	0x91
 3559 0e5e 70       		.sleb128 -16
 3560 0e5f 21       		.uleb128 0x21
 3561 0e60 AD070000 		.4byte	.LASF183
 3562 0e64 7F0E0000 		.4byte	0xe7f
 3563 0e68 05       		.uleb128 0x5
 3564 0e69 03       		.byte	0x3
 3565 0e6a 00000000 		.4byte	__func__.7874
 3566 0e6e 00       		.byte	0
 3567 0e6f 17       		.uleb128 0x17
 3568 0e70 B9080000 		.4byte	0x8b9
 3569 0e74 7F0E0000 		.4byte	0xe7f
 3570 0e78 18       		.uleb128 0x18
ARM GAS  C:\Users\PCHAUT~1\AppData\Local\Temp\cceHHvsU.s 			page 64


 3571 0e79 2C000000 		.4byte	0x2c
 3572 0e7d 14       		.byte	0x14
 3573 0e7e 00       		.byte	0
 3574 0e7f 1B       		.uleb128 0x1b
 3575 0e80 6F0E0000 		.4byte	0xe6f
 3576 0e84 24       		.uleb128 0x24
 3577 0e85 E2060000 		.4byte	.LASF187
 3578 0e89 04       		.byte	0x4
 3579 0e8a B6       		.byte	0xb6
 3580 0e8b 48010000 		.4byte	0x148
 3581 0e8f 00000000 		.4byte	.LFB222
 3582 0e93 4C000000 		.4byte	.LFE222-.LFB222
 3583 0e97 01       		.uleb128 0x1
 3584 0e98 9C       		.byte	0x9c
 3585 0e99 AC0E0000 		.4byte	0xeac
 3586 0e9d 28       		.uleb128 0x28
 3587 0e9e 49080000 		.4byte	.LASF169
 3588 0ea2 04       		.byte	0x4
 3589 0ea3 B6       		.byte	0xb6
 3590 0ea4 48010000 		.4byte	0x148
 3591 0ea8 02       		.uleb128 0x2
 3592 0ea9 91       		.byte	0x91
 3593 0eaa 6C       		.sleb128 -20
 3594 0eab 00       		.byte	0
 3595 0eac 24       		.uleb128 0x24
 3596 0ead 9D040000 		.4byte	.LASF188
 3597 0eb1 04       		.byte	0x4
 3598 0eb2 A2       		.byte	0xa2
 3599 0eb3 48010000 		.4byte	0x148
 3600 0eb7 00000000 		.4byte	.LFB221
 3601 0ebb 54000000 		.4byte	.LFE221-.LFB221
 3602 0ebf 01       		.uleb128 0x1
 3603 0ec0 9C       		.byte	0x9c
 3604 0ec1 E00E0000 		.4byte	0xee0
 3605 0ec5 28       		.uleb128 0x28
 3606 0ec6 49080000 		.4byte	.LASF169
 3607 0eca 04       		.byte	0x4
 3608 0ecb A2       		.byte	0xa2
 3609 0ecc 48010000 		.4byte	0x148
 3610 0ed0 02       		.uleb128 0x2
 3611 0ed1 91       		.byte	0x91
 3612 0ed2 6C       		.sleb128 -20
 3613 0ed3 29       		.uleb128 0x29
 3614 0ed4 6D00     		.ascii	"m\000"
 3615 0ed6 04       		.byte	0x4
 3616 0ed7 A3       		.byte	0xa3
 3617 0ed8 48010000 		.4byte	0x148
 3618 0edc 02       		.uleb128 0x2
 3619 0edd 91       		.byte	0x91
 3620 0ede 70       		.sleb128 -16
 3621 0edf 00       		.byte	0
 3622 0ee0 27       		.uleb128 0x27
 3623 0ee1 26050000 		.4byte	.LASF189
 3624 0ee5 04       		.byte	0x4
 3625 0ee6 85       		.byte	0x85
 3626 0ee7 00000000 		.4byte	.LFB220
 3627 0eeb 70000000 		.4byte	.LFE220-.LFB220
ARM GAS  C:\Users\PCHAUT~1\AppData\Local\Temp\cceHHvsU.s 			page 65


 3628 0eef 01       		.uleb128 0x1
 3629 0ef0 9C       		.byte	0x9c
 3630 0ef1 2D0F0000 		.4byte	0xf2d
 3631 0ef5 25       		.uleb128 0x25
 3632 0ef6 65737000 		.ascii	"esp\000"
 3633 0efa 04       		.byte	0x4
 3634 0efb 85       		.byte	0x85
 3635 0efc 340D0000 		.4byte	0xd34
 3636 0f00 02       		.uleb128 0x2
 3637 0f01 91       		.byte	0x91
 3638 0f02 6C       		.sleb128 -20
 3639 0f03 25       		.uleb128 0x25
 3640 0f04 656C7000 		.ascii	"elp\000"
 3641 0f08 04       		.byte	0x4
 3642 0f09 85       		.byte	0x85
 3643 0f0a 560A0000 		.4byte	0xa56
 3644 0f0e 02       		.uleb128 0x2
 3645 0f0f 91       		.byte	0x91
 3646 0f10 68       		.sleb128 -24
 3647 0f11 29       		.uleb128 0x29
 3648 0f12 7000     		.ascii	"p\000"
 3649 0f14 04       		.byte	0x4
 3650 0f15 86       		.byte	0x86
 3651 0f16 560A0000 		.4byte	0xa56
 3652 0f1a 02       		.uleb128 0x2
 3653 0f1b 91       		.byte	0x91
 3654 0f1c 70       		.sleb128 -16
 3655 0f1d 21       		.uleb128 0x21
 3656 0f1e AD070000 		.4byte	.LASF183
 3657 0f22 3D0F0000 		.4byte	0xf3d
 3658 0f26 05       		.uleb128 0x5
 3659 0f27 03       		.byte	0x3
 3660 0f28 00000000 		.4byte	__func__.7858
 3661 0f2c 00       		.byte	0
 3662 0f2d 17       		.uleb128 0x17
 3663 0f2e B9080000 		.4byte	0x8b9
 3664 0f32 3D0F0000 		.4byte	0xf3d
 3665 0f36 18       		.uleb128 0x18
 3666 0f37 2C000000 		.4byte	0x2c
 3667 0f3b 0F       		.byte	0xf
 3668 0f3c 00       		.byte	0
 3669 0f3d 1B       		.uleb128 0x1b
 3670 0f3e 2D0F0000 		.4byte	0xf2d
 3671 0f42 27       		.uleb128 0x27
 3672 0f43 42050000 		.4byte	.LASF190
 3673 0f47 04       		.byte	0x4
 3674 0f48 67       		.byte	0x67
 3675 0f49 00000000 		.4byte	.LFB219
 3676 0f4d 78000000 		.4byte	.LFE219-.LFB219
 3677 0f51 01       		.uleb128 0x1
 3678 0f52 9C       		.byte	0x9c
 3679 0f53 9F0F0000 		.4byte	0xf9f
 3680 0f57 25       		.uleb128 0x25
 3681 0f58 65737000 		.ascii	"esp\000"
 3682 0f5c 04       		.byte	0x4
 3683 0f5d 67       		.byte	0x67
 3684 0f5e 340D0000 		.4byte	0xd34
ARM GAS  C:\Users\PCHAUT~1\AppData\Local\Temp\cceHHvsU.s 			page 66


 3685 0f62 02       		.uleb128 0x2
 3686 0f63 91       		.byte	0x91
 3687 0f64 6C       		.sleb128 -20
 3688 0f65 25       		.uleb128 0x25
 3689 0f66 656C7000 		.ascii	"elp\000"
 3690 0f6a 04       		.byte	0x4
 3691 0f6b 68       		.byte	0x68
 3692 0f6c 560A0000 		.4byte	0xa56
 3693 0f70 02       		.uleb128 0x2
 3694 0f71 91       		.byte	0x91
 3695 0f72 68       		.sleb128 -24
 3696 0f73 28       		.uleb128 0x28
 3697 0f74 49080000 		.4byte	.LASF169
 3698 0f78 04       		.byte	0x4
 3699 0f79 69       		.byte	0x69
 3700 0f7a 48010000 		.4byte	0x148
 3701 0f7e 02       		.uleb128 0x2
 3702 0f7f 91       		.byte	0x91
 3703 0f80 64       		.sleb128 -28
 3704 0f81 28       		.uleb128 0x28
 3705 0f82 8F030000 		.4byte	.LASF191
 3706 0f86 04       		.byte	0x4
 3707 0f87 6A       		.byte	0x6a
 3708 0f88 53010000 		.4byte	0x153
 3709 0f8c 02       		.uleb128 0x2
 3710 0f8d 91       		.byte	0x91
 3711 0f8e 60       		.sleb128 -32
 3712 0f8f 21       		.uleb128 0x21
 3713 0f90 AD070000 		.4byte	.LASF183
 3714 0f94 AF0F0000 		.4byte	0xfaf
 3715 0f98 05       		.uleb128 0x5
 3716 0f99 03       		.byte	0x3
 3717 0f9a 00000000 		.4byte	__func__.7852
 3718 0f9e 00       		.byte	0
 3719 0f9f 17       		.uleb128 0x17
 3720 0fa0 B9080000 		.4byte	0x8b9
 3721 0fa4 AF0F0000 		.4byte	0xfaf
 3722 0fa8 18       		.uleb128 0x18
 3723 0fa9 2C000000 		.4byte	0x2c
 3724 0fad 1A       		.byte	0x1a
 3725 0fae 00       		.byte	0
 3726 0faf 1B       		.uleb128 0x1b
 3727 0fb0 9F0F0000 		.4byte	0xf9f
 3728 0fb4 2A       		.uleb128 0x2a
 3729 0fb5 D6090000 		.4byte	.LASF192
 3730 0fb9 03       		.byte	0x3
 3731 0fba 6601     		.2byte	0x166
 3732 0fbc 00000000 		.4byte	.LFB146
 3733 0fc0 58000000 		.4byte	.LFE146-.LFB146
 3734 0fc4 01       		.uleb128 0x1
 3735 0fc5 9C       		.byte	0x9c
 3736 0fc6 DA0F0000 		.4byte	0xfda
 3737 0fca 21       		.uleb128 0x21
 3738 0fcb AD070000 		.4byte	.LASF183
 3739 0fcf E50D0000 		.4byte	0xde5
 3740 0fd3 05       		.uleb128 0x5
 3741 0fd4 03       		.byte	0x3
ARM GAS  C:\Users\PCHAUT~1\AppData\Local\Temp\cceHHvsU.s 			page 67


 3742 0fd5 00000000 		.4byte	__func__.7153
 3743 0fd9 00       		.byte	0
 3744 0fda 2B       		.uleb128 0x2b
 3745 0fdb BE070000 		.4byte	.LASF198
 3746 0fdf 03       		.byte	0x3
 3747 0fe0 5A01     		.2byte	0x15a
 3748 0fe2 00000000 		.4byte	.LFB145
 3749 0fe6 30000000 		.4byte	.LFE145-.LFB145
 3750 0fea 01       		.uleb128 0x1
 3751 0feb 9C       		.byte	0x9c
 3752 0fec 2A       		.uleb128 0x2a
 3753 0fed D3010000 		.4byte	.LASF193
 3754 0ff1 01       		.byte	0x1
 3755 0ff2 CA01     		.2byte	0x1ca
 3756 0ff4 00000000 		.4byte	.LFB117
 3757 0ff8 30000000 		.4byte	.LFE117-.LFB117
 3758 0ffc 01       		.uleb128 0x1
 3759 0ffd 9C       		.byte	0x9c
 3760 0ffe 1C100000 		.4byte	0x101c
 3761 1002 2C       		.uleb128 0x2c
 3762 1003 4C100000 		.4byte	0x104c
 3763 1007 0E000000 		.4byte	.LBB8
 3764 100b 06000000 		.4byte	.LBE8-.LBB8
 3765 100f 01       		.byte	0x1
 3766 1010 CD01     		.2byte	0x1cd
 3767 1012 2D       		.uleb128 0x2d
 3768 1013 55100000 		.4byte	0x1055
 3769 1017 02       		.uleb128 0x2
 3770 1018 91       		.byte	0x91
 3771 1019 70       		.sleb128 -16
 3772 101a 00       		.byte	0
 3773 101b 00       		.byte	0
 3774 101c 2A       		.uleb128 0x2a
 3775 101d 87000000 		.4byte	.LASF194
 3776 1021 01       		.byte	0x1
 3777 1022 BC01     		.2byte	0x1bc
 3778 1024 00000000 		.4byte	.LFB116
 3779 1028 30000000 		.4byte	.LFE116-.LFB116
 3780 102c 01       		.uleb128 0x1
 3781 102d 9C       		.byte	0x9c
 3782 102e 4C100000 		.4byte	0x104c
 3783 1032 2C       		.uleb128 0x2c
 3784 1033 4C100000 		.4byte	0x104c
 3785 1037 0E000000 		.4byte	.LBB6
 3786 103b 06000000 		.4byte	.LBE6-.LBB6
 3787 103f 01       		.byte	0x1
 3788 1040 BF01     		.2byte	0x1bf
 3789 1042 2D       		.uleb128 0x2d
 3790 1043 55100000 		.4byte	0x1055
 3791 1047 02       		.uleb128 0x2
 3792 1048 91       		.byte	0x91
 3793 1049 70       		.sleb128 -16
 3794 104a 00       		.byte	0
 3795 104b 00       		.byte	0
 3796 104c 2E       		.uleb128 0x2e
 3797 104d F6080000 		.4byte	.LASF199
 3798 1051 02       		.byte	0x2
ARM GAS  C:\Users\PCHAUT~1\AppData\Local\Temp\cceHHvsU.s 			page 68


 3799 1052 2002     		.2byte	0x220
 3800 1054 03       		.byte	0x3
 3801 1055 2F       		.uleb128 0x2f
 3802 1056 03040000 		.4byte	.LASF200
 3803 105a 02       		.byte	0x2
 3804 105b 2002     		.2byte	0x220
 3805 105d CF000000 		.4byte	0xcf
 3806 1061 00       		.byte	0
 3807 1062 00       		.byte	0
 3808              		.section	.debug_abbrev,"",%progbits
 3809              	.Ldebug_abbrev0:
 3810 0000 01       		.uleb128 0x1
 3811 0001 11       		.uleb128 0x11
 3812 0002 01       		.byte	0x1
 3813 0003 25       		.uleb128 0x25
 3814 0004 0E       		.uleb128 0xe
 3815 0005 13       		.uleb128 0x13
 3816 0006 0B       		.uleb128 0xb
 3817 0007 03       		.uleb128 0x3
 3818 0008 0E       		.uleb128 0xe
 3819 0009 1B       		.uleb128 0x1b
 3820 000a 0E       		.uleb128 0xe
 3821 000b 55       		.uleb128 0x55
 3822 000c 17       		.uleb128 0x17
 3823 000d 11       		.uleb128 0x11
 3824 000e 01       		.uleb128 0x1
 3825 000f 10       		.uleb128 0x10
 3826 0010 17       		.uleb128 0x17
 3827 0011 00       		.byte	0
 3828 0012 00       		.byte	0
 3829 0013 02       		.uleb128 0x2
 3830 0014 24       		.uleb128 0x24
 3831 0015 00       		.byte	0
 3832 0016 0B       		.uleb128 0xb
 3833 0017 0B       		.uleb128 0xb
 3834 0018 3E       		.uleb128 0x3e
 3835 0019 0B       		.uleb128 0xb
 3836 001a 03       		.uleb128 0x3
 3837 001b 08       		.uleb128 0x8
 3838 001c 00       		.byte	0
 3839 001d 00       		.byte	0
 3840 001e 03       		.uleb128 0x3
 3841 001f 24       		.uleb128 0x24
 3842 0020 00       		.byte	0
 3843 0021 0B       		.uleb128 0xb
 3844 0022 0B       		.uleb128 0xb
 3845 0023 3E       		.uleb128 0x3e
 3846 0024 0B       		.uleb128 0xb
 3847 0025 03       		.uleb128 0x3
 3848 0026 0E       		.uleb128 0xe
 3849 0027 00       		.byte	0
 3850 0028 00       		.byte	0
 3851 0029 04       		.uleb128 0x4
 3852 002a 16       		.uleb128 0x16
 3853 002b 00       		.byte	0
 3854 002c 03       		.uleb128 0x3
 3855 002d 0E       		.uleb128 0xe
ARM GAS  C:\Users\PCHAUT~1\AppData\Local\Temp\cceHHvsU.s 			page 69


 3856 002e 3A       		.uleb128 0x3a
 3857 002f 0B       		.uleb128 0xb
 3858 0030 3B       		.uleb128 0x3b
 3859 0031 0B       		.uleb128 0xb
 3860 0032 49       		.uleb128 0x49
 3861 0033 13       		.uleb128 0x13
 3862 0034 00       		.byte	0
 3863 0035 00       		.byte	0
 3864 0036 05       		.uleb128 0x5
 3865 0037 35       		.uleb128 0x35
 3866 0038 00       		.byte	0
 3867 0039 49       		.uleb128 0x49
 3868 003a 13       		.uleb128 0x13
 3869 003b 00       		.byte	0
 3870 003c 00       		.byte	0
 3871 003d 06       		.uleb128 0x6
 3872 003e 13       		.uleb128 0x13
 3873 003f 01       		.byte	0x1
 3874 0040 03       		.uleb128 0x3
 3875 0041 0E       		.uleb128 0xe
 3876 0042 0B       		.uleb128 0xb
 3877 0043 0B       		.uleb128 0xb
 3878 0044 3A       		.uleb128 0x3a
 3879 0045 0B       		.uleb128 0xb
 3880 0046 3B       		.uleb128 0x3b
 3881 0047 0B       		.uleb128 0xb
 3882 0048 01       		.uleb128 0x1
 3883 0049 13       		.uleb128 0x13
 3884 004a 00       		.byte	0
 3885 004b 00       		.byte	0
 3886 004c 07       		.uleb128 0x7
 3887 004d 0D       		.uleb128 0xd
 3888 004e 00       		.byte	0
 3889 004f 03       		.uleb128 0x3
 3890 0050 0E       		.uleb128 0xe
 3891 0051 3A       		.uleb128 0x3a
 3892 0052 0B       		.uleb128 0xb
 3893 0053 3B       		.uleb128 0x3b
 3894 0054 0B       		.uleb128 0xb
 3895 0055 49       		.uleb128 0x49
 3896 0056 13       		.uleb128 0x13
 3897 0057 38       		.uleb128 0x38
 3898 0058 0B       		.uleb128 0xb
 3899 0059 00       		.byte	0
 3900 005a 00       		.byte	0
 3901 005b 08       		.uleb128 0x8
 3902 005c 0D       		.uleb128 0xd
 3903 005d 00       		.byte	0
 3904 005e 03       		.uleb128 0x3
 3905 005f 08       		.uleb128 0x8
 3906 0060 3A       		.uleb128 0x3a
 3907 0061 0B       		.uleb128 0xb
 3908 0062 3B       		.uleb128 0x3b
 3909 0063 05       		.uleb128 0x5
 3910 0064 49       		.uleb128 0x49
 3911 0065 13       		.uleb128 0x13
 3912 0066 38       		.uleb128 0x38
ARM GAS  C:\Users\PCHAUT~1\AppData\Local\Temp\cceHHvsU.s 			page 70


 3913 0067 0B       		.uleb128 0xb
 3914 0068 00       		.byte	0
 3915 0069 00       		.byte	0
 3916 006a 09       		.uleb128 0x9
 3917 006b 0D       		.uleb128 0xd
 3918 006c 00       		.byte	0
 3919 006d 03       		.uleb128 0x3
 3920 006e 0E       		.uleb128 0xe
 3921 006f 3A       		.uleb128 0x3a
 3922 0070 0B       		.uleb128 0xb
 3923 0071 3B       		.uleb128 0x3b
 3924 0072 05       		.uleb128 0x5
 3925 0073 49       		.uleb128 0x49
 3926 0074 13       		.uleb128 0x13
 3927 0075 38       		.uleb128 0x38
 3928 0076 0B       		.uleb128 0xb
 3929 0077 00       		.byte	0
 3930 0078 00       		.byte	0
 3931 0079 0A       		.uleb128 0xa
 3932 007a 0F       		.uleb128 0xf
 3933 007b 00       		.byte	0
 3934 007c 0B       		.uleb128 0xb
 3935 007d 0B       		.uleb128 0xb
 3936 007e 49       		.uleb128 0x49
 3937 007f 13       		.uleb128 0x13
 3938 0080 00       		.byte	0
 3939 0081 00       		.byte	0
 3940 0082 0B       		.uleb128 0xb
 3941 0083 13       		.uleb128 0x13
 3942 0084 01       		.byte	0x1
 3943 0085 03       		.uleb128 0x3
 3944 0086 0E       		.uleb128 0xe
 3945 0087 0B       		.uleb128 0xb
 3946 0088 0B       		.uleb128 0xb
 3947 0089 3A       		.uleb128 0x3a
 3948 008a 0B       		.uleb128 0xb
 3949 008b 3B       		.uleb128 0x3b
 3950 008c 05       		.uleb128 0x5
 3951 008d 01       		.uleb128 0x1
 3952 008e 13       		.uleb128 0x13
 3953 008f 00       		.byte	0
 3954 0090 00       		.byte	0
 3955 0091 0C       		.uleb128 0xc
 3956 0092 15       		.uleb128 0x15
 3957 0093 01       		.byte	0x1
 3958 0094 27       		.uleb128 0x27
 3959 0095 19       		.uleb128 0x19
 3960 0096 01       		.uleb128 0x1
 3961 0097 13       		.uleb128 0x13
 3962 0098 00       		.byte	0
 3963 0099 00       		.byte	0
 3964 009a 0D       		.uleb128 0xd
 3965 009b 05       		.uleb128 0x5
 3966 009c 00       		.byte	0
 3967 009d 49       		.uleb128 0x49
 3968 009e 13       		.uleb128 0x13
 3969 009f 00       		.byte	0
ARM GAS  C:\Users\PCHAUT~1\AppData\Local\Temp\cceHHvsU.s 			page 71


 3970 00a0 00       		.byte	0
 3971 00a1 0E       		.uleb128 0xe
 3972 00a2 0F       		.uleb128 0xf
 3973 00a3 00       		.byte	0
 3974 00a4 0B       		.uleb128 0xb
 3975 00a5 0B       		.uleb128 0xb
 3976 00a6 00       		.byte	0
 3977 00a7 00       		.byte	0
 3978 00a8 0F       		.uleb128 0xf
 3979 00a9 13       		.uleb128 0x13
 3980 00aa 01       		.byte	0x1
 3981 00ab 03       		.uleb128 0x3
 3982 00ac 0E       		.uleb128 0xe
 3983 00ad 0B       		.uleb128 0xb
 3984 00ae 05       		.uleb128 0x5
 3985 00af 3A       		.uleb128 0x3a
 3986 00b0 0B       		.uleb128 0xb
 3987 00b1 3B       		.uleb128 0x3b
 3988 00b2 05       		.uleb128 0x5
 3989 00b3 01       		.uleb128 0x1
 3990 00b4 13       		.uleb128 0x13
 3991 00b5 00       		.byte	0
 3992 00b6 00       		.byte	0
 3993 00b7 10       		.uleb128 0x10
 3994 00b8 0D       		.uleb128 0xd
 3995 00b9 00       		.byte	0
 3996 00ba 03       		.uleb128 0x3
 3997 00bb 0E       		.uleb128 0xe
 3998 00bc 3A       		.uleb128 0x3a
 3999 00bd 0B       		.uleb128 0xb
 4000 00be 3B       		.uleb128 0x3b
 4001 00bf 05       		.uleb128 0x5
 4002 00c0 49       		.uleb128 0x49
 4003 00c1 13       		.uleb128 0x13
 4004 00c2 38       		.uleb128 0x38
 4005 00c3 05       		.uleb128 0x5
 4006 00c4 00       		.byte	0
 4007 00c5 00       		.byte	0
 4008 00c6 11       		.uleb128 0x11
 4009 00c7 0D       		.uleb128 0xd
 4010 00c8 00       		.byte	0
 4011 00c9 03       		.uleb128 0x3
 4012 00ca 08       		.uleb128 0x8
 4013 00cb 3A       		.uleb128 0x3a
 4014 00cc 0B       		.uleb128 0xb
 4015 00cd 3B       		.uleb128 0x3b
 4016 00ce 05       		.uleb128 0x5
 4017 00cf 49       		.uleb128 0x49
 4018 00d0 13       		.uleb128 0x13
 4019 00d1 38       		.uleb128 0x38
 4020 00d2 05       		.uleb128 0x5
 4021 00d3 00       		.byte	0
 4022 00d4 00       		.byte	0
 4023 00d5 12       		.uleb128 0x12
 4024 00d6 34       		.uleb128 0x34
 4025 00d7 00       		.byte	0
 4026 00d8 03       		.uleb128 0x3
ARM GAS  C:\Users\PCHAUT~1\AppData\Local\Temp\cceHHvsU.s 			page 72


 4027 00d9 0E       		.uleb128 0xe
 4028 00da 3A       		.uleb128 0x3a
 4029 00db 0B       		.uleb128 0xb
 4030 00dc 3B       		.uleb128 0x3b
 4031 00dd 05       		.uleb128 0x5
 4032 00de 49       		.uleb128 0x49
 4033 00df 13       		.uleb128 0x13
 4034 00e0 3F       		.uleb128 0x3f
 4035 00e1 19       		.uleb128 0x19
 4036 00e2 3C       		.uleb128 0x3c
 4037 00e3 19       		.uleb128 0x19
 4038 00e4 00       		.byte	0
 4039 00e5 00       		.byte	0
 4040 00e6 13       		.uleb128 0x13
 4041 00e7 34       		.uleb128 0x34
 4042 00e8 00       		.byte	0
 4043 00e9 03       		.uleb128 0x3
 4044 00ea 0E       		.uleb128 0xe
 4045 00eb 3A       		.uleb128 0x3a
 4046 00ec 0B       		.uleb128 0xb
 4047 00ed 3B       		.uleb128 0x3b
 4048 00ee 0B       		.uleb128 0xb
 4049 00ef 49       		.uleb128 0x49
 4050 00f0 13       		.uleb128 0x13
 4051 00f1 3F       		.uleb128 0x3f
 4052 00f2 19       		.uleb128 0x19
 4053 00f3 3C       		.uleb128 0x3c
 4054 00f4 19       		.uleb128 0x19
 4055 00f5 00       		.byte	0
 4056 00f6 00       		.byte	0
 4057 00f7 14       		.uleb128 0x14
 4058 00f8 0D       		.uleb128 0xd
 4059 00f9 00       		.byte	0
 4060 00fa 03       		.uleb128 0x3
 4061 00fb 08       		.uleb128 0x8
 4062 00fc 3A       		.uleb128 0x3a
 4063 00fd 0B       		.uleb128 0xb
 4064 00fe 3B       		.uleb128 0x3b
 4065 00ff 0B       		.uleb128 0xb
 4066 0100 49       		.uleb128 0x49
 4067 0101 13       		.uleb128 0x13
 4068 0102 38       		.uleb128 0x38
 4069 0103 0B       		.uleb128 0xb
 4070 0104 00       		.byte	0
 4071 0105 00       		.byte	0
 4072 0106 15       		.uleb128 0x15
 4073 0107 13       		.uleb128 0x13
 4074 0108 01       		.byte	0x1
 4075 0109 0B       		.uleb128 0xb
 4076 010a 0B       		.uleb128 0xb
 4077 010b 3A       		.uleb128 0x3a
 4078 010c 0B       		.uleb128 0xb
 4079 010d 3B       		.uleb128 0x3b
 4080 010e 0B       		.uleb128 0xb
 4081 010f 01       		.uleb128 0x1
 4082 0110 13       		.uleb128 0x13
 4083 0111 00       		.byte	0
ARM GAS  C:\Users\PCHAUT~1\AppData\Local\Temp\cceHHvsU.s 			page 73


 4084 0112 00       		.byte	0
 4085 0113 16       		.uleb128 0x16
 4086 0114 13       		.uleb128 0x13
 4087 0115 01       		.byte	0x1
 4088 0116 0B       		.uleb128 0xb
 4089 0117 05       		.uleb128 0x5
 4090 0118 3A       		.uleb128 0x3a
 4091 0119 0B       		.uleb128 0xb
 4092 011a 3B       		.uleb128 0x3b
 4093 011b 0B       		.uleb128 0xb
 4094 011c 01       		.uleb128 0x1
 4095 011d 13       		.uleb128 0x13
 4096 011e 00       		.byte	0
 4097 011f 00       		.byte	0
 4098 0120 17       		.uleb128 0x17
 4099 0121 01       		.uleb128 0x1
 4100 0122 01       		.byte	0x1
 4101 0123 49       		.uleb128 0x49
 4102 0124 13       		.uleb128 0x13
 4103 0125 01       		.uleb128 0x1
 4104 0126 13       		.uleb128 0x13
 4105 0127 00       		.byte	0
 4106 0128 00       		.byte	0
 4107 0129 18       		.uleb128 0x18
 4108 012a 21       		.uleb128 0x21
 4109 012b 00       		.byte	0
 4110 012c 49       		.uleb128 0x49
 4111 012d 13       		.uleb128 0x13
 4112 012e 2F       		.uleb128 0x2f
 4113 012f 0B       		.uleb128 0xb
 4114 0130 00       		.byte	0
 4115 0131 00       		.byte	0
 4116 0132 19       		.uleb128 0x19
 4117 0133 17       		.uleb128 0x17
 4118 0134 01       		.byte	0x1
 4119 0135 0B       		.uleb128 0xb
 4120 0136 0B       		.uleb128 0xb
 4121 0137 3A       		.uleb128 0x3a
 4122 0138 0B       		.uleb128 0xb
 4123 0139 3B       		.uleb128 0x3b
 4124 013a 0B       		.uleb128 0xb
 4125 013b 01       		.uleb128 0x1
 4126 013c 13       		.uleb128 0x13
 4127 013d 00       		.byte	0
 4128 013e 00       		.byte	0
 4129 013f 1A       		.uleb128 0x1a
 4130 0140 0D       		.uleb128 0xd
 4131 0141 00       		.byte	0
 4132 0142 03       		.uleb128 0x3
 4133 0143 0E       		.uleb128 0xe
 4134 0144 3A       		.uleb128 0x3a
 4135 0145 0B       		.uleb128 0xb
 4136 0146 3B       		.uleb128 0x3b
 4137 0147 05       		.uleb128 0x5
 4138 0148 49       		.uleb128 0x49
 4139 0149 13       		.uleb128 0x13
 4140 014a 00       		.byte	0
ARM GAS  C:\Users\PCHAUT~1\AppData\Local\Temp\cceHHvsU.s 			page 74


 4141 014b 00       		.byte	0
 4142 014c 1B       		.uleb128 0x1b
 4143 014d 26       		.uleb128 0x26
 4144 014e 00       		.byte	0
 4145 014f 49       		.uleb128 0x49
 4146 0150 13       		.uleb128 0x13
 4147 0151 00       		.byte	0
 4148 0152 00       		.byte	0
 4149 0153 1C       		.uleb128 0x1c
 4150 0154 34       		.uleb128 0x34
 4151 0155 00       		.byte	0
 4152 0156 03       		.uleb128 0x3
 4153 0157 08       		.uleb128 0x8
 4154 0158 3A       		.uleb128 0x3a
 4155 0159 0B       		.uleb128 0xb
 4156 015a 3B       		.uleb128 0x3b
 4157 015b 05       		.uleb128 0x5
 4158 015c 49       		.uleb128 0x49
 4159 015d 13       		.uleb128 0x13
 4160 015e 3F       		.uleb128 0x3f
 4161 015f 19       		.uleb128 0x19
 4162 0160 3C       		.uleb128 0x3c
 4163 0161 19       		.uleb128 0x19
 4164 0162 00       		.byte	0
 4165 0163 00       		.byte	0
 4166 0164 1D       		.uleb128 0x1d
 4167 0165 2E       		.uleb128 0x2e
 4168 0166 01       		.byte	0x1
 4169 0167 3F       		.uleb128 0x3f
 4170 0168 19       		.uleb128 0x19
 4171 0169 03       		.uleb128 0x3
 4172 016a 0E       		.uleb128 0xe
 4173 016b 3A       		.uleb128 0x3a
 4174 016c 0B       		.uleb128 0xb
 4175 016d 3B       		.uleb128 0x3b
 4176 016e 05       		.uleb128 0x5
 4177 016f 27       		.uleb128 0x27
 4178 0170 19       		.uleb128 0x19
 4179 0171 49       		.uleb128 0x49
 4180 0172 13       		.uleb128 0x13
 4181 0173 11       		.uleb128 0x11
 4182 0174 01       		.uleb128 0x1
 4183 0175 12       		.uleb128 0x12
 4184 0176 06       		.uleb128 0x6
 4185 0177 40       		.uleb128 0x40
 4186 0178 18       		.uleb128 0x18
 4187 0179 9642     		.uleb128 0x2116
 4188 017b 19       		.uleb128 0x19
 4189 017c 01       		.uleb128 0x1
 4190 017d 13       		.uleb128 0x13
 4191 017e 00       		.byte	0
 4192 017f 00       		.byte	0
 4193 0180 1E       		.uleb128 0x1e
 4194 0181 05       		.uleb128 0x5
 4195 0182 00       		.byte	0
 4196 0183 03       		.uleb128 0x3
 4197 0184 0E       		.uleb128 0xe
ARM GAS  C:\Users\PCHAUT~1\AppData\Local\Temp\cceHHvsU.s 			page 75


 4198 0185 3A       		.uleb128 0x3a
 4199 0186 0B       		.uleb128 0xb
 4200 0187 3B       		.uleb128 0x3b
 4201 0188 05       		.uleb128 0x5
 4202 0189 49       		.uleb128 0x49
 4203 018a 13       		.uleb128 0x13
 4204 018b 02       		.uleb128 0x2
 4205 018c 18       		.uleb128 0x18
 4206 018d 00       		.byte	0
 4207 018e 00       		.byte	0
 4208 018f 1F       		.uleb128 0x1f
 4209 0190 34       		.uleb128 0x34
 4210 0191 00       		.byte	0
 4211 0192 03       		.uleb128 0x3
 4212 0193 08       		.uleb128 0x8
 4213 0194 3A       		.uleb128 0x3a
 4214 0195 0B       		.uleb128 0xb
 4215 0196 3B       		.uleb128 0x3b
 4216 0197 05       		.uleb128 0x5
 4217 0198 49       		.uleb128 0x49
 4218 0199 13       		.uleb128 0x13
 4219 019a 02       		.uleb128 0x2
 4220 019b 18       		.uleb128 0x18
 4221 019c 00       		.byte	0
 4222 019d 00       		.byte	0
 4223 019e 20       		.uleb128 0x20
 4224 019f 2E       		.uleb128 0x2e
 4225 01a0 01       		.byte	0x1
 4226 01a1 3F       		.uleb128 0x3f
 4227 01a2 19       		.uleb128 0x19
 4228 01a3 03       		.uleb128 0x3
 4229 01a4 0E       		.uleb128 0xe
 4230 01a5 3A       		.uleb128 0x3a
 4231 01a6 0B       		.uleb128 0xb
 4232 01a7 3B       		.uleb128 0x3b
 4233 01a8 05       		.uleb128 0x5
 4234 01a9 27       		.uleb128 0x27
 4235 01aa 19       		.uleb128 0x19
 4236 01ab 11       		.uleb128 0x11
 4237 01ac 01       		.uleb128 0x1
 4238 01ad 12       		.uleb128 0x12
 4239 01ae 06       		.uleb128 0x6
 4240 01af 40       		.uleb128 0x40
 4241 01b0 18       		.uleb128 0x18
 4242 01b1 9642     		.uleb128 0x2116
 4243 01b3 19       		.uleb128 0x19
 4244 01b4 01       		.uleb128 0x1
 4245 01b5 13       		.uleb128 0x13
 4246 01b6 00       		.byte	0
 4247 01b7 00       		.byte	0
 4248 01b8 21       		.uleb128 0x21
 4249 01b9 34       		.uleb128 0x34
 4250 01ba 00       		.byte	0
 4251 01bb 03       		.uleb128 0x3
 4252 01bc 0E       		.uleb128 0xe
 4253 01bd 49       		.uleb128 0x49
 4254 01be 13       		.uleb128 0x13
ARM GAS  C:\Users\PCHAUT~1\AppData\Local\Temp\cceHHvsU.s 			page 76


 4255 01bf 34       		.uleb128 0x34
 4256 01c0 19       		.uleb128 0x19
 4257 01c1 02       		.uleb128 0x2
 4258 01c2 18       		.uleb128 0x18
 4259 01c3 00       		.byte	0
 4260 01c4 00       		.byte	0
 4261 01c5 22       		.uleb128 0x22
 4262 01c6 05       		.uleb128 0x5
 4263 01c7 00       		.byte	0
 4264 01c8 03       		.uleb128 0x3
 4265 01c9 08       		.uleb128 0x8
 4266 01ca 3A       		.uleb128 0x3a
 4267 01cb 0B       		.uleb128 0xb
 4268 01cc 3B       		.uleb128 0x3b
 4269 01cd 05       		.uleb128 0x5
 4270 01ce 49       		.uleb128 0x49
 4271 01cf 13       		.uleb128 0x13
 4272 01d0 02       		.uleb128 0x2
 4273 01d1 18       		.uleb128 0x18
 4274 01d2 00       		.byte	0
 4275 01d3 00       		.byte	0
 4276 01d4 23       		.uleb128 0x23
 4277 01d5 34       		.uleb128 0x34
 4278 01d6 00       		.byte	0
 4279 01d7 03       		.uleb128 0x3
 4280 01d8 0E       		.uleb128 0xe
 4281 01d9 3A       		.uleb128 0x3a
 4282 01da 0B       		.uleb128 0xb
 4283 01db 3B       		.uleb128 0x3b
 4284 01dc 05       		.uleb128 0x5
 4285 01dd 49       		.uleb128 0x49
 4286 01de 13       		.uleb128 0x13
 4287 01df 02       		.uleb128 0x2
 4288 01e0 18       		.uleb128 0x18
 4289 01e1 00       		.byte	0
 4290 01e2 00       		.byte	0
 4291 01e3 24       		.uleb128 0x24
 4292 01e4 2E       		.uleb128 0x2e
 4293 01e5 01       		.byte	0x1
 4294 01e6 3F       		.uleb128 0x3f
 4295 01e7 19       		.uleb128 0x19
 4296 01e8 03       		.uleb128 0x3
 4297 01e9 0E       		.uleb128 0xe
 4298 01ea 3A       		.uleb128 0x3a
 4299 01eb 0B       		.uleb128 0xb
 4300 01ec 3B       		.uleb128 0x3b
 4301 01ed 0B       		.uleb128 0xb
 4302 01ee 27       		.uleb128 0x27
 4303 01ef 19       		.uleb128 0x19
 4304 01f0 49       		.uleb128 0x49
 4305 01f1 13       		.uleb128 0x13
 4306 01f2 11       		.uleb128 0x11
 4307 01f3 01       		.uleb128 0x1
 4308 01f4 12       		.uleb128 0x12
 4309 01f5 06       		.uleb128 0x6
 4310 01f6 40       		.uleb128 0x40
 4311 01f7 18       		.uleb128 0x18
ARM GAS  C:\Users\PCHAUT~1\AppData\Local\Temp\cceHHvsU.s 			page 77


 4312 01f8 9642     		.uleb128 0x2116
 4313 01fa 19       		.uleb128 0x19
 4314 01fb 01       		.uleb128 0x1
 4315 01fc 13       		.uleb128 0x13
 4316 01fd 00       		.byte	0
 4317 01fe 00       		.byte	0
 4318 01ff 25       		.uleb128 0x25
 4319 0200 05       		.uleb128 0x5
 4320 0201 00       		.byte	0
 4321 0202 03       		.uleb128 0x3
 4322 0203 08       		.uleb128 0x8
 4323 0204 3A       		.uleb128 0x3a
 4324 0205 0B       		.uleb128 0xb
 4325 0206 3B       		.uleb128 0x3b
 4326 0207 0B       		.uleb128 0xb
 4327 0208 49       		.uleb128 0x49
 4328 0209 13       		.uleb128 0x13
 4329 020a 02       		.uleb128 0x2
 4330 020b 18       		.uleb128 0x18
 4331 020c 00       		.byte	0
 4332 020d 00       		.byte	0
 4333 020e 26       		.uleb128 0x26
 4334 020f 34       		.uleb128 0x34
 4335 0210 00       		.byte	0
 4336 0211 03       		.uleb128 0x3
 4337 0212 0E       		.uleb128 0xe
 4338 0213 3A       		.uleb128 0x3a
 4339 0214 0B       		.uleb128 0xb
 4340 0215 3B       		.uleb128 0x3b
 4341 0216 0B       		.uleb128 0xb
 4342 0217 49       		.uleb128 0x49
 4343 0218 13       		.uleb128 0x13
 4344 0219 02       		.uleb128 0x2
 4345 021a 18       		.uleb128 0x18
 4346 021b 00       		.byte	0
 4347 021c 00       		.byte	0
 4348 021d 27       		.uleb128 0x27
 4349 021e 2E       		.uleb128 0x2e
 4350 021f 01       		.byte	0x1
 4351 0220 3F       		.uleb128 0x3f
 4352 0221 19       		.uleb128 0x19
 4353 0222 03       		.uleb128 0x3
 4354 0223 0E       		.uleb128 0xe
 4355 0224 3A       		.uleb128 0x3a
 4356 0225 0B       		.uleb128 0xb
 4357 0226 3B       		.uleb128 0x3b
 4358 0227 0B       		.uleb128 0xb
 4359 0228 27       		.uleb128 0x27
 4360 0229 19       		.uleb128 0x19
 4361 022a 11       		.uleb128 0x11
 4362 022b 01       		.uleb128 0x1
 4363 022c 12       		.uleb128 0x12
 4364 022d 06       		.uleb128 0x6
 4365 022e 40       		.uleb128 0x40
 4366 022f 18       		.uleb128 0x18
 4367 0230 9642     		.uleb128 0x2116
 4368 0232 19       		.uleb128 0x19
ARM GAS  C:\Users\PCHAUT~1\AppData\Local\Temp\cceHHvsU.s 			page 78


 4369 0233 01       		.uleb128 0x1
 4370 0234 13       		.uleb128 0x13
 4371 0235 00       		.byte	0
 4372 0236 00       		.byte	0
 4373 0237 28       		.uleb128 0x28
 4374 0238 05       		.uleb128 0x5
 4375 0239 00       		.byte	0
 4376 023a 03       		.uleb128 0x3
 4377 023b 0E       		.uleb128 0xe
 4378 023c 3A       		.uleb128 0x3a
 4379 023d 0B       		.uleb128 0xb
 4380 023e 3B       		.uleb128 0x3b
 4381 023f 0B       		.uleb128 0xb
 4382 0240 49       		.uleb128 0x49
 4383 0241 13       		.uleb128 0x13
 4384 0242 02       		.uleb128 0x2
 4385 0243 18       		.uleb128 0x18
 4386 0244 00       		.byte	0
 4387 0245 00       		.byte	0
 4388 0246 29       		.uleb128 0x29
 4389 0247 34       		.uleb128 0x34
 4390 0248 00       		.byte	0
 4391 0249 03       		.uleb128 0x3
 4392 024a 08       		.uleb128 0x8
 4393 024b 3A       		.uleb128 0x3a
 4394 024c 0B       		.uleb128 0xb
 4395 024d 3B       		.uleb128 0x3b
 4396 024e 0B       		.uleb128 0xb
 4397 024f 49       		.uleb128 0x49
 4398 0250 13       		.uleb128 0x13
 4399 0251 02       		.uleb128 0x2
 4400 0252 18       		.uleb128 0x18
 4401 0253 00       		.byte	0
 4402 0254 00       		.byte	0
 4403 0255 2A       		.uleb128 0x2a
 4404 0256 2E       		.uleb128 0x2e
 4405 0257 01       		.byte	0x1
 4406 0258 03       		.uleb128 0x3
 4407 0259 0E       		.uleb128 0xe
 4408 025a 3A       		.uleb128 0x3a
 4409 025b 0B       		.uleb128 0xb
 4410 025c 3B       		.uleb128 0x3b
 4411 025d 05       		.uleb128 0x5
 4412 025e 27       		.uleb128 0x27
 4413 025f 19       		.uleb128 0x19
 4414 0260 11       		.uleb128 0x11
 4415 0261 01       		.uleb128 0x1
 4416 0262 12       		.uleb128 0x12
 4417 0263 06       		.uleb128 0x6
 4418 0264 40       		.uleb128 0x40
 4419 0265 18       		.uleb128 0x18
 4420 0266 9642     		.uleb128 0x2116
 4421 0268 19       		.uleb128 0x19
 4422 0269 01       		.uleb128 0x1
 4423 026a 13       		.uleb128 0x13
 4424 026b 00       		.byte	0
 4425 026c 00       		.byte	0
ARM GAS  C:\Users\PCHAUT~1\AppData\Local\Temp\cceHHvsU.s 			page 79


 4426 026d 2B       		.uleb128 0x2b
 4427 026e 2E       		.uleb128 0x2e
 4428 026f 00       		.byte	0
 4429 0270 03       		.uleb128 0x3
 4430 0271 0E       		.uleb128 0xe
 4431 0272 3A       		.uleb128 0x3a
 4432 0273 0B       		.uleb128 0xb
 4433 0274 3B       		.uleb128 0x3b
 4434 0275 05       		.uleb128 0x5
 4435 0276 27       		.uleb128 0x27
 4436 0277 19       		.uleb128 0x19
 4437 0278 11       		.uleb128 0x11
 4438 0279 01       		.uleb128 0x1
 4439 027a 12       		.uleb128 0x12
 4440 027b 06       		.uleb128 0x6
 4441 027c 40       		.uleb128 0x40
 4442 027d 18       		.uleb128 0x18
 4443 027e 9642     		.uleb128 0x2116
 4444 0280 19       		.uleb128 0x19
 4445 0281 00       		.byte	0
 4446 0282 00       		.byte	0
 4447 0283 2C       		.uleb128 0x2c
 4448 0284 1D       		.uleb128 0x1d
 4449 0285 01       		.byte	0x1
 4450 0286 31       		.uleb128 0x31
 4451 0287 13       		.uleb128 0x13
 4452 0288 11       		.uleb128 0x11
 4453 0289 01       		.uleb128 0x1
 4454 028a 12       		.uleb128 0x12
 4455 028b 06       		.uleb128 0x6
 4456 028c 58       		.uleb128 0x58
 4457 028d 0B       		.uleb128 0xb
 4458 028e 59       		.uleb128 0x59
 4459 028f 05       		.uleb128 0x5
 4460 0290 00       		.byte	0
 4461 0291 00       		.byte	0
 4462 0292 2D       		.uleb128 0x2d
 4463 0293 05       		.uleb128 0x5
 4464 0294 00       		.byte	0
 4465 0295 31       		.uleb128 0x31
 4466 0296 13       		.uleb128 0x13
 4467 0297 02       		.uleb128 0x2
 4468 0298 18       		.uleb128 0x18
 4469 0299 00       		.byte	0
 4470 029a 00       		.byte	0
 4471 029b 2E       		.uleb128 0x2e
 4472 029c 2E       		.uleb128 0x2e
 4473 029d 01       		.byte	0x1
 4474 029e 03       		.uleb128 0x3
 4475 029f 0E       		.uleb128 0xe
 4476 02a0 3A       		.uleb128 0x3a
 4477 02a1 0B       		.uleb128 0xb
 4478 02a2 3B       		.uleb128 0x3b
 4479 02a3 05       		.uleb128 0x5
 4480 02a4 27       		.uleb128 0x27
 4481 02a5 19       		.uleb128 0x19
 4482 02a6 20       		.uleb128 0x20
ARM GAS  C:\Users\PCHAUT~1\AppData\Local\Temp\cceHHvsU.s 			page 80


 4483 02a7 0B       		.uleb128 0xb
 4484 02a8 00       		.byte	0
 4485 02a9 00       		.byte	0
 4486 02aa 2F       		.uleb128 0x2f
 4487 02ab 05       		.uleb128 0x5
 4488 02ac 00       		.byte	0
 4489 02ad 03       		.uleb128 0x3
 4490 02ae 0E       		.uleb128 0xe
 4491 02af 3A       		.uleb128 0x3a
 4492 02b0 0B       		.uleb128 0xb
 4493 02b1 3B       		.uleb128 0x3b
 4494 02b2 05       		.uleb128 0x5
 4495 02b3 49       		.uleb128 0x49
 4496 02b4 13       		.uleb128 0x13
 4497 02b5 00       		.byte	0
 4498 02b6 00       		.byte	0
 4499 02b7 00       		.byte	0
 4500              		.section	.debug_aranges,"",%progbits
 4501 0000 BC000000 		.4byte	0xbc
 4502 0004 0200     		.2byte	0x2
 4503 0006 00000000 		.4byte	.Ldebug_info0
 4504 000a 04       		.byte	0x4
 4505 000b 00       		.byte	0
 4506 000c 0000     		.2byte	0
 4507 000e 0000     		.2byte	0
 4508 0010 00000000 		.4byte	.LFB116
 4509 0014 30000000 		.4byte	.LFE116-.LFB116
 4510 0018 00000000 		.4byte	.LFB117
 4511 001c 30000000 		.4byte	.LFE117-.LFB117
 4512 0020 00000000 		.4byte	.LFB145
 4513 0024 30000000 		.4byte	.LFE145-.LFB145
 4514 0028 00000000 		.4byte	.LFB146
 4515 002c 58000000 		.4byte	.LFE146-.LFB146
 4516 0030 00000000 		.4byte	.LFB219
 4517 0034 78000000 		.4byte	.LFE219-.LFB219
 4518 0038 00000000 		.4byte	.LFB220
 4519 003c 70000000 		.4byte	.LFE220-.LFB220
 4520 0040 00000000 		.4byte	.LFB221
 4521 0044 54000000 		.4byte	.LFE221-.LFB221
 4522 0048 00000000 		.4byte	.LFB222
 4523 004c 4C000000 		.4byte	.LFE222-.LFB222
 4524 0050 00000000 		.4byte	.LFB223
 4525 0054 84000000 		.4byte	.LFE223-.LFB223
 4526 0058 00000000 		.4byte	.LFB224
 4527 005c 3C000000 		.4byte	.LFE224-.LFB224
 4528 0060 00000000 		.4byte	.LFB225
 4529 0064 4C000000 		.4byte	.LFE225-.LFB225
 4530 0068 00000000 		.4byte	.LFB226
 4531 006c 88000000 		.4byte	.LFE226-.LFB226
 4532 0070 00000000 		.4byte	.LFB227
 4533 0074 3C000000 		.4byte	.LFE227-.LFB227
 4534 0078 00000000 		.4byte	.LFB228
 4535 007c 34000000 		.4byte	.LFE228-.LFB228
 4536 0080 00000000 		.4byte	.LFB229
 4537 0084 8C000000 		.4byte	.LFE229-.LFB229
 4538 0088 00000000 		.4byte	.LFB230
 4539 008c 78000000 		.4byte	.LFE230-.LFB230
ARM GAS  C:\Users\PCHAUT~1\AppData\Local\Temp\cceHHvsU.s 			page 81


 4540 0090 00000000 		.4byte	.LFB231
 4541 0094 70000000 		.4byte	.LFE231-.LFB231
 4542 0098 00000000 		.4byte	.LFB232
 4543 009c 64000000 		.4byte	.LFE232-.LFB232
 4544 00a0 00000000 		.4byte	.LFB233
 4545 00a4 98000000 		.4byte	.LFE233-.LFB233
 4546 00a8 00000000 		.4byte	.LFB234
 4547 00ac 90000000 		.4byte	.LFE234-.LFB234
 4548 00b0 00000000 		.4byte	.LFB235
 4549 00b4 84000000 		.4byte	.LFE235-.LFB235
 4550 00b8 00000000 		.4byte	0
 4551 00bc 00000000 		.4byte	0
 4552              		.section	.debug_ranges,"",%progbits
 4553              	.Ldebug_ranges0:
 4554 0000 00000000 		.4byte	.LFB116
 4555 0004 30000000 		.4byte	.LFE116
 4556 0008 00000000 		.4byte	.LFB117
 4557 000c 30000000 		.4byte	.LFE117
 4558 0010 00000000 		.4byte	.LFB145
 4559 0014 30000000 		.4byte	.LFE145
 4560 0018 00000000 		.4byte	.LFB146
 4561 001c 58000000 		.4byte	.LFE146
 4562 0020 00000000 		.4byte	.LFB219
 4563 0024 78000000 		.4byte	.LFE219
 4564 0028 00000000 		.4byte	.LFB220
 4565 002c 70000000 		.4byte	.LFE220
 4566 0030 00000000 		.4byte	.LFB221
 4567 0034 54000000 		.4byte	.LFE221
 4568 0038 00000000 		.4byte	.LFB222
 4569 003c 4C000000 		.4byte	.LFE222
 4570 0040 00000000 		.4byte	.LFB223
 4571 0044 84000000 		.4byte	.LFE223
 4572 0048 00000000 		.4byte	.LFB224
 4573 004c 3C000000 		.4byte	.LFE224
 4574 0050 00000000 		.4byte	.LFB225
 4575 0054 4C000000 		.4byte	.LFE225
 4576 0058 00000000 		.4byte	.LFB226
 4577 005c 88000000 		.4byte	.LFE226
 4578 0060 00000000 		.4byte	.LFB227
 4579 0064 3C000000 		.4byte	.LFE227
 4580 0068 00000000 		.4byte	.LFB228
 4581 006c 34000000 		.4byte	.LFE228
 4582 0070 00000000 		.4byte	.LFB229
 4583 0074 8C000000 		.4byte	.LFE229
 4584 0078 00000000 		.4byte	.LFB230
 4585 007c 78000000 		.4byte	.LFE230
 4586 0080 00000000 		.4byte	.LFB231
 4587 0084 70000000 		.4byte	.LFE231
 4588 0088 00000000 		.4byte	.LFB232
 4589 008c 64000000 		.4byte	.LFE232
 4590 0090 00000000 		.4byte	.LFB233
 4591 0094 98000000 		.4byte	.LFE233
 4592 0098 00000000 		.4byte	.LFB234
 4593 009c 90000000 		.4byte	.LFE234
 4594 00a0 00000000 		.4byte	.LFB235
 4595 00a4 84000000 		.4byte	.LFE235
 4596 00a8 00000000 		.4byte	0
ARM GAS  C:\Users\PCHAUT~1\AppData\Local\Temp\cceHHvsU.s 			page 82


 4597 00ac 00000000 		.4byte	0
 4598              		.section	.debug_line,"",%progbits
 4599              	.Ldebug_line0:
 4600 0000 3C060000 		.section	.debug_str,"MS",%progbits,1
 4600      02008003 
 4600      00000201 
 4600      FB0E0D00 
 4600      01010101 
 4601              	.LASF147:
 4602 0000 63665F6F 		.ascii	"cf_off_older\000"
 4602      66665F6F 
 4602      6C646572 
 4602      00
 4603              	.LASF62:
 4604 000d 72656164 		.ascii	"ready_list_t\000"
 4604      795F6C69 
 4604      73745F74 
 4604      00
 4605              	.LASF100:
 4606 001a 73655F74 		.ascii	"se_time\000"
 4606      696D6500 
 4607              	.LASF124:
 4608 0022 77747472 		.ascii	"wttrp\000"
 4608      7000
 4609              	.LASF121:
 4610 0028 7264796D 		.ascii	"rdymsg\000"
 4610      736700
 4611              	.LASF19:
 4612 002f 75696E74 		.ascii	"uint64_t\000"
 4612      36345F74 
 4612      00
 4613              	.LASF92:
 4614 0038 6B65726E 		.ascii	"kernel_stats\000"
 4614      656C5F73 
 4614      74617473 
 4614      00
 4615              	.LASF6:
 4616 0045 5F5F7569 		.ascii	"__uint8_t\000"
 4616      6E74385F 
 4616      7400
 4617              	.LASF99:
 4618 004f 706F7274 		.ascii	"port_intctx\000"
 4618      5F696E74 
 4618      63747800 
 4619              	.LASF61:
 4620 005b 63685F74 		.ascii	"ch_threads_queue\000"
 4620      68726561 
 4620      64735F71 
 4620      75657565 
 4620      00
 4621              	.LASF81:
 4622 006c 73797374 		.ascii	"system_debug_t\000"
 4622      656D5F64 
 4622      65627567 
 4622      5F7400
 4623              	.LASF184:
 4624 007b 63684576 		.ascii	"chEvtSignal\000"
ARM GAS  C:\Users\PCHAUT~1\AppData\Local\Temp\cceHHvsU.s 			page 83


 4624      74536967 
 4624      6E616C00 
 4625              	.LASF194:
 4626 0087 706F7274 		.ascii	"port_lock\000"
 4626      5F6C6F63 
 4626      6B00
 4627              	.LASF112:
 4628 0091 776F7273 		.ascii	"worst\000"
 4628      7400
 4629              	.LASF115:
 4630 0097 74696D65 		.ascii	"time_measurement_t\000"
 4630      5F6D6561 
 4630      73757265 
 4630      6D656E74 
 4630      5F7400
 4631              	.LASF14:
 4632 00aa 6C6F6E67 		.ascii	"long long unsigned int\000"
 4632      206C6F6E 
 4632      6720756E 
 4632      7369676E 
 4632      65642069 
 4633              	.LASF108:
 4634 00c1 63685F74 		.ascii	"ch_trace_buffer_t\000"
 4634      72616365 
 4634      5F627566 
 4634      6665725F 
 4634      7400
 4635              	.LASF143:
 4636 00d3 63685F74 		.ascii	"ch_threadsize\000"
 4636      68726561 
 4636      6473697A 
 4636      6500
 4637              	.LASF122:
 4638 00e1 65786974 		.ascii	"exitcode\000"
 4638      636F6465 
 4638      00
 4639              	.LASF91:
 4640 00ea 6D61696E 		.ascii	"mainthread\000"
 4640      74687265 
 4640      616400
 4641              	.LASF78:
 4642 00f5 76697274 		.ascii	"virtual_timers_list_t\000"
 4642      75616C5F 
 4642      74696D65 
 4642      72735F6C 
 4642      6973745F 
 4643              	.LASF94:
 4644 010b 49544D5F 		.ascii	"ITM_RxBuffer\000"
 4644      52784275 
 4644      66666572 
 4644      00
 4645              	.LASF21:
 4646 0118 72747469 		.ascii	"rttime_t\000"
 4646      6D655F74 
 4646      00
 4647              	.LASF37:
 4648 0121 705F7072 		.ascii	"p_prio\000"
ARM GAS  C:\Users\PCHAUT~1\AppData\Local\Temp\cceHHvsU.s 			page 84


 4648      696F00
 4649              	.LASF150:
 4650 0128 63665F6F 		.ascii	"cf_off_state\000"
 4650      66665F73 
 4650      74617465 
 4650      00
 4651              	.LASF1:
 4652 0135 6C6F6E67 		.ascii	"long long int\000"
 4652      206C6F6E 
 4652      6720696E 
 4652      7400
 4653              	.LASF3:
 4654 0143 7369676E 		.ascii	"signed char\000"
 4654      65642063 
 4654      68617200 
 4655              	.LASF149:
 4656 014f 63665F6F 		.ascii	"cf_off_stklimit\000"
 4656      66665F73 
 4656      746B6C69 
 4656      6D697400 
 4657              	.LASF171:
 4658 015f 63684576 		.ascii	"chEvtWaitAllTimeout\000"
 4658      74576169 
 4658      74416C6C 
 4658      54696D65 
 4658      6F757400 
 4659              	.LASF151:
 4660 0173 63665F6F 		.ascii	"cf_off_flags\000"
 4660      66665F66 
 4660      6C616773 
 4660      00
 4661              	.LASF54:
 4662 0180 705F6D70 		.ascii	"p_mpool\000"
 4662      6F6F6C00 
 4663              	.LASF132:
 4664 0188 6D5F7175 		.ascii	"m_queue\000"
 4664      65756500 
 4665              	.LASF196:
 4666 0190 2E2E2F6C 		.ascii	"../lib/e-puck2_main-processor/ChibiOS//os/rt/src/ch"
 4666      69622F65 
 4666      2D707563 
 4666      6B325F6D 
 4666      61696E2D 
 4667 01c3 6576656E 		.ascii	"events.c\000"
 4667      74732E63 
 4667      00
 4668              	.LASF90:
 4669 01cc 76746C69 		.ascii	"vtlist\000"
 4669      737400
 4670              	.LASF193:
 4671 01d3 706F7274 		.ascii	"port_unlock\000"
 4671      5F756E6C 
 4671      6F636B00 
 4672              	.LASF25:
 4673 01df 74736C69 		.ascii	"tslices_t\000"
 4673      6365735F 
 4673      7400
ARM GAS  C:\Users\PCHAUT~1\AppData\Local\Temp\cceHHvsU.s 			page 85


 4674              	.LASF88:
 4675 01e9 63685F73 		.ascii	"ch_system\000"
 4675      79737465 
 4675      6D00
 4676              	.LASF10:
 4677 01f3 6C6F6E67 		.ascii	"long int\000"
 4677      20696E74 
 4677      00
 4678              	.LASF195:
 4679 01fc 474E5520 		.ascii	"GNU C11 7.2.1 20170904 (release) [ARM/embedded-7-br"
 4679      43313120 
 4679      372E322E 
 4679      31203230 
 4679      31373039 
 4680 022f 616E6368 		.ascii	"anch revision 255204] -mcpu=cortex-m4 -mfloat-abi=h"
 4680      20726576 
 4680      6973696F 
 4680      6E203235 
 4680      35323034 
 4681 0262 61726420 		.ascii	"ard -mfpu=fpv4-sp-d16 -mno-thumb-interwork -mthumb "
 4681      2D6D6670 
 4681      753D6670 
 4681      76342D73 
 4681      702D6431 
 4682 0295 2D676764 		.ascii	"-ggdb -O0 -fomit-frame-pointer -falign-functions=16"
 4682      62202D4F 
 4682      30202D66 
 4682      6F6D6974 
 4682      2D667261 
 4683 02c8 202D666E 		.ascii	" -fno-strict-aliasing -fstack-protector-all -ffunct"
 4683      6F2D7374 
 4683      72696374 
 4683      2D616C69 
 4683      6173696E 
 4684 02fb 696F6E2D 		.ascii	"ion-sections -fdata-sections -fno-common -fsingle-p"
 4684      73656374 
 4684      696F6E73 
 4684      202D6664 
 4684      6174612D 
 4685 032e 72656369 		.ascii	"recision-constant\000"
 4685      73696F6E 
 4685      2D636F6E 
 4685      7374616E 
 4685      7400
 4686              	.LASF175:
 4687 0340 63684576 		.ascii	"chEvtWaitAny\000"
 4687      74576169 
 4687      74416E79 
 4687      00
 4688              	.LASF101:
 4689 034d 73655F74 		.ascii	"se_tp\000"
 4689      7000
 4690              	.LASF155:
 4691 0353 63686465 		.ascii	"chdebug_t\000"
 4691      6275675F 
 4691      7400
 4692              	.LASF186:
ARM GAS  C:\Users\PCHAUT~1\AppData\Local\Temp\cceHHvsU.s 			page 86


 4693 035d 63684576 		.ascii	"chEvtBroadcastFlagsI\000"
 4693      7442726F 
 4693      61646361 
 4693      7374466C 
 4693      61677349 
 4694              	.LASF23:
 4695 0372 74737461 		.ascii	"tstate_t\000"
 4695      74655F74 
 4695      00
 4696              	.LASF172:
 4697 037b 63684576 		.ascii	"chEvtWaitAnyTimeout\000"
 4697      74576169 
 4697      74416E79 
 4697      54696D65 
 4697      6F757400 
 4698              	.LASF191:
 4699 038f 77666C61 		.ascii	"wflags\000"
 4699      677300
 4700              	.LASF39:
 4701 0396 705F6E65 		.ascii	"p_newer\000"
 4701      77657200 
 4702              	.LASF129:
 4703 039e 735F7175 		.ascii	"s_queue\000"
 4703      65756500 
 4704              	.LASF105:
 4705 03a6 74625F73 		.ascii	"tb_size\000"
 4705      697A6500 
 4706              	.LASF67:
 4707 03ae 725F6E65 		.ascii	"r_newer\000"
 4707      77657200 
 4708              	.LASF96:
 4709 03b6 72656761 		.ascii	"regarm_t\000"
 4709      726D5F74 
 4709      00
 4710              	.LASF74:
 4711 03bf 76745F70 		.ascii	"vt_prev\000"
 4711      72657600 
 4712              	.LASF181:
 4713 03c7 63684576 		.ascii	"chEvtBroadcastFlags\000"
 4713      7442726F 
 4713      61646361 
 4713      7374466C 
 4713      61677300 
 4714              	.LASF82:
 4715 03db 63685F73 		.ascii	"ch_system_debug\000"
 4715      79737465 
 4715      6D5F6465 
 4715      62756700 
 4716              	.LASF28:
 4717 03eb 6576656E 		.ascii	"eventid_t\000"
 4717      7469645F 
 4717      7400
 4718              	.LASF135:
 4719 03f5 6D5F636E 		.ascii	"m_cnt\000"
 4719      7400
 4720              	.LASF157:
 4721 03fb 6D757465 		.ascii	"mutex_t\000"
ARM GAS  C:\Users\PCHAUT~1\AppData\Local\Temp\cceHHvsU.s 			page 87


 4721      785F7400 
 4722              	.LASF200:
 4723 0403 76616C75 		.ascii	"value\000"
 4723      6500
 4724              	.LASF85:
 4725 0409 6C6F636B 		.ascii	"lock_cnt\000"
 4725      5F636E74 
 4725      00
 4726              	.LASF167:
 4727 0412 6576656E 		.ascii	"event_source_t\000"
 4727      745F736F 
 4727      75726365 
 4727      5F7400
 4728              	.LASF93:
 4729 0421 69646C65 		.ascii	"idle_thread_wa\000"
 4729      5F746872 
 4729      6561645F 
 4729      776100
 4730              	.LASF168:
 4731 0430 65766861 		.ascii	"evhandler_t\000"
 4731      6E646C65 
 4731      725F7400 
 4732              	.LASF31:
 4733 043c 636E745F 		.ascii	"cnt_t\000"
 4733      7400
 4734              	.LASF42:
 4735 0442 705F7374 		.ascii	"p_stklimit\000"
 4735      6B6C696D 
 4735      697400
 4736              	.LASF0:
 4737 044d 756E7369 		.ascii	"unsigned int\000"
 4737      676E6564 
 4737      20696E74 
 4737      00
 4738              	.LASF73:
 4739 045a 76745F6E 		.ascii	"vt_next\000"
 4739      65787400 
 4740              	.LASF16:
 4741 0462 75696E74 		.ascii	"uint16_t\000"
 4741      31365F74 
 4741      00
 4742              	.LASF95:
 4743 046b 53797374 		.ascii	"SystemCoreClock\000"
 4743      656D436F 
 4743      7265436C 
 4743      6F636B00 
 4744              	.LASF47:
 4745 047b 705F7469 		.ascii	"p_time\000"
 4745      6D6500
 4746              	.LASF125:
 4747 0482 77747365 		.ascii	"wtsemp\000"
 4747      6D7000
 4748              	.LASF75:
 4749 0489 76745F64 		.ascii	"vt_delta\000"
 4749      656C7461 
 4749      00
 4750              	.LASF49:
ARM GAS  C:\Users\PCHAUT~1\AppData\Local\Temp\cceHHvsU.s 			page 88


 4751 0492 705F6D73 		.ascii	"p_msgqueue\000"
 4751      67717565 
 4751      756500
 4752              	.LASF188:
 4753 049d 63684576 		.ascii	"chEvtGetAndClearEvents\000"
 4753      74476574 
 4753      416E6443 
 4753      6C656172 
 4753      4576656E 
 4754              	.LASF156:
 4755 04b4 63685F64 		.ascii	"ch_debug\000"
 4755      65627567 
 4755      00
 4756              	.LASF116:
 4757 04bd 6E5F6972 		.ascii	"n_irq\000"
 4757      7100
 4758              	.LASF130:
 4759 04c3 735F636E 		.ascii	"s_cnt\000"
 4759      7400
 4760              	.LASF8:
 4761 04c9 73686F72 		.ascii	"short unsigned int\000"
 4761      7420756E 
 4761      7369676E 
 4761      65642069 
 4761      6E7400
 4762              	.LASF120:
 4763 04dc 6B65726E 		.ascii	"kernel_stats_t\000"
 4763      656C5F73 
 4763      74617473 
 4763      5F7400
 4764              	.LASF58:
 4765 04eb 63685F74 		.ascii	"ch_thread\000"
 4765      68726561 
 4765      6400
 4766              	.LASF164:
 4767 04f5 656C5F77 		.ascii	"el_wflags\000"
 4767      666C6167 
 4767      7300
 4768              	.LASF30:
 4769 04ff 6576656E 		.ascii	"eventflags_t\000"
 4769      74666C61 
 4769      67735F74 
 4769      00
 4770              	.LASF27:
 4771 050c 6D73675F 		.ascii	"msg_t\000"
 4771      7400
 4772              	.LASF113:
 4773 0512 6C617374 		.ascii	"last\000"
 4773      00
 4774              	.LASF32:
 4775 0517 75636E74 		.ascii	"ucnt_t\000"
 4775      5F7400
 4776              	.LASF160:
 4777 051e 656C5F6E 		.ascii	"el_next\000"
 4777      65787400 
 4778              	.LASF189:
 4779 0526 63684576 		.ascii	"chEvtUnregister\000"
ARM GAS  C:\Users\PCHAUT~1\AppData\Local\Temp\cceHHvsU.s 			page 89


 4779      74556E72 
 4779      65676973 
 4779      74657200 
 4780              	.LASF87:
 4781 0536 63685F73 		.ascii	"ch_system_t\000"
 4781      79737465 
 4781      6D5F7400 
 4782              	.LASF190:
 4783 0542 63684576 		.ascii	"chEvtRegisterMaskWithFlags\000"
 4783      74526567 
 4783      69737465 
 4783      724D6173 
 4783      6B576974 
 4784              	.LASF154:
 4785 055d 63665F6F 		.ascii	"cf_off_time\000"
 4785      66665F74 
 4785      696D6500 
 4786              	.LASF119:
 4787 0569 6D5F6372 		.ascii	"m_crit_isr\000"
 4787      69745F69 
 4787      737200
 4788              	.LASF63:
 4789 0574 63685F72 		.ascii	"ch_ready_list\000"
 4789      65616479 
 4789      5F6C6973 
 4789      7400
 4790              	.LASF29:
 4791 0582 6576656E 		.ascii	"eventmask_t\000"
 4791      746D6173 
 4791      6B5F7400 
 4792              	.LASF9:
 4793 058e 5F5F696E 		.ascii	"__int32_t\000"
 4793      7433325F 
 4793      7400
 4794              	.LASF97:
 4795 0598 73746B61 		.ascii	"stkalign_t\000"
 4795      6C69676E 
 4795      5F7400
 4796              	.LASF57:
 4797 05a3 74687265 		.ascii	"threads_list_t\000"
 4797      6164735F 
 4797      6C697374 
 4797      5F7400
 4798              	.LASF138:
 4799 05b2 63685F7A 		.ascii	"ch_zero\000"
 4799      65726F00 
 4800              	.LASF158:
 4801 05ba 6576656E 		.ascii	"event_listener_t\000"
 4801      745F6C69 
 4801      7374656E 
 4801      65725F74 
 4801      00
 4802              	.LASF48:
 4803 05cb 705F7761 		.ascii	"p_waiting\000"
 4803      6974696E 
 4803      6700
 4804              	.LASF20:
ARM GAS  C:\Users\PCHAUT~1\AppData\Local\Temp\cceHHvsU.s 			page 90


 4805 05d5 7274636E 		.ascii	"rtcnt_t\000"
 4805      745F7400 
 4806              	.LASF79:
 4807 05dd 63685F76 		.ascii	"ch_virtual_timers_list\000"
 4807      69727475 
 4807      616C5F74 
 4807      696D6572 
 4807      735F6C69 
 4808              	.LASF2:
 4809 05f4 6C6F6E67 		.ascii	"long double\000"
 4809      20646F75 
 4809      626C6500 
 4810              	.LASF180:
 4811 0600 63684576 		.ascii	"chEvtDispatch\000"
 4811      74446973 
 4811      70617463 
 4811      6800
 4812              	.LASF142:
 4813 060e 63685F74 		.ascii	"ch_timesize\000"
 4813      696D6573 
 4813      697A6500 
 4814              	.LASF106:
 4815 061a 74625F70 		.ascii	"tb_ptr\000"
 4815      747200
 4816              	.LASF104:
 4817 0621 63685F73 		.ascii	"ch_swc_event_t\000"
 4817      77635F65 
 4817      76656E74 
 4817      5F7400
 4818              	.LASF148:
 4819 0630 63665F6F 		.ascii	"cf_off_name\000"
 4819      66665F6E 
 4819      616D6500 
 4820              	.LASF40:
 4821 063c 705F6F6C 		.ascii	"p_older\000"
 4821      64657200 
 4822              	.LASF66:
 4823 0644 725F6374 		.ascii	"r_ctx\000"
 4823      7800
 4824              	.LASF38:
 4825 064a 705F6374 		.ascii	"p_ctx\000"
 4825      7800
 4826              	.LASF110:
 4827 0650 746D5F63 		.ascii	"tm_calibration_t\000"
 4827      616C6962 
 4827      72617469 
 4827      6F6E5F74 
 4827      00
 4828              	.LASF45:
 4829 0661 705F7265 		.ascii	"p_refs\000"
 4829      667300
 4830              	.LASF174:
 4831 0668 63684576 		.ascii	"chEvtWaitAll\000"
 4831      74576169 
 4831      74416C6C 
 4831      00
 4832              	.LASF68:
ARM GAS  C:\Users\PCHAUT~1\AppData\Local\Temp\cceHHvsU.s 			page 91


 4833 0675 725F6F6C 		.ascii	"r_older\000"
 4833      64657200 
 4834              	.LASF162:
 4835 067d 656C5F65 		.ascii	"el_events\000"
 4835      76656E74 
 4835      7300
 4836              	.LASF13:
 4837 0687 5F5F7569 		.ascii	"__uint64_t\000"
 4837      6E743634 
 4837      5F7400
 4838              	.LASF114:
 4839 0692 63756D75 		.ascii	"cumulative\000"
 4839      6C617469 
 4839      766500
 4840              	.LASF177:
 4841 069d 68616E64 		.ascii	"handlers\000"
 4841      6C657273 
 4841      00
 4842              	.LASF24:
 4843 06a6 74726566 		.ascii	"trefs_t\000"
 4843      735F7400 
 4844              	.LASF107:
 4845 06ae 74625F62 		.ascii	"tb_buffer\000"
 4845      75666665 
 4845      7200
 4846              	.LASF141:
 4847 06b8 63685F70 		.ascii	"ch_ptrsize\000"
 4847      74727369 
 4847      7A6500
 4848              	.LASF71:
 4849 06c3 76697274 		.ascii	"virtual_timer_t\000"
 4849      75616C5F 
 4849      74696D65 
 4849      725F7400 
 4850              	.LASF36:
 4851 06d3 705F7072 		.ascii	"p_prev\000"
 4851      657600
 4852              	.LASF26:
 4853 06da 74707269 		.ascii	"tprio_t\000"
 4853      6F5F7400 
 4854              	.LASF187:
 4855 06e2 63684576 		.ascii	"chEvtAddEvents\000"
 4855      74416464 
 4855      4576656E 
 4855      747300
 4856              	.LASF117:
 4857 06f1 6E5F6374 		.ascii	"n_ctxswc\000"
 4857      78737763 
 4857      00
 4858              	.LASF17:
 4859 06fa 696E7433 		.ascii	"int32_t\000"
 4859      325F7400 
 4860              	.LASF4:
 4861 0702 756E7369 		.ascii	"unsigned char\000"
 4861      676E6564 
 4861      20636861 
 4861      7200
ARM GAS  C:\Users\PCHAUT~1\AppData\Local\Temp\cceHHvsU.s 			page 92


 4862              	.LASF176:
 4863 0710 63684576 		.ascii	"chEvtWaitOne\000"
 4863      74576169 
 4863      744F6E65 
 4863      00
 4864              	.LASF185:
 4865 071d 63684576 		.ascii	"chEvtGetAndClearFlags\000"
 4865      74476574 
 4865      416E6443 
 4865      6C656172 
 4865      466C6167 
 4866              	.LASF163:
 4867 0733 656C5F66 		.ascii	"el_flags\000"
 4867      6C616773 
 4867      00
 4868              	.LASF52:
 4869 073c 705F6D74 		.ascii	"p_mtxlist\000"
 4869      786C6973 
 4869      7400
 4870              	.LASF5:
 4871 0746 73686F72 		.ascii	"short int\000"
 4871      7420696E 
 4871      7400
 4872              	.LASF43:
 4873 0750 705F7374 		.ascii	"p_state\000"
 4873      61746500 
 4874              	.LASF46:
 4875 0758 705F7072 		.ascii	"p_preempt\000"
 4875      65656D70 
 4875      7400
 4876              	.LASF65:
 4877 0762 725F7072 		.ascii	"r_prio\000"
 4877      696F00
 4878              	.LASF178:
 4879 0769 63684576 		.ascii	"chEvtGetAndClearFlagsI\000"
 4879      74476574 
 4879      416E6443 
 4879      6C656172 
 4879      466C6167 
 4880              	.LASF127:
 4881 0780 65776D61 		.ascii	"ewmask\000"
 4881      736B00
 4882              	.LASF35:
 4883 0787 705F6E65 		.ascii	"p_next\000"
 4883      787400
 4884              	.LASF22:
 4885 078e 746D6F64 		.ascii	"tmode_t\000"
 4885      655F7400 
 4886              	.LASF153:
 4887 0796 63665F6F 		.ascii	"cf_off_preempt\000"
 4887      66665F70 
 4887      7265656D 
 4887      707400
 4888              	.LASF44:
 4889 07a5 705F666C 		.ascii	"p_flags\000"
 4889      61677300 
 4890              	.LASF183:
ARM GAS  C:\Users\PCHAUT~1\AppData\Local\Temp\cceHHvsU.s 			page 93


 4891 07ad 5F5F6675 		.ascii	"__func__\000"
 4891      6E635F5F 
 4891      00
 4892              	.LASF55:
 4893 07b6 705F7374 		.ascii	"p_stats\000"
 4893      61747300 
 4894              	.LASF198:
 4895 07be 63685379 		.ascii	"chSysLock\000"
 4895      734C6F63 
 4895      6B00
 4896              	.LASF197:
 4897 07c8 433A5C55 		.ascii	"C:\\Users\\Pchautems\\Documents\\RobotiqueTP\\Proje"
 4897      73657273 
 4897      5C506368 
 4897      61757465 
 4897      6D735C44 
 4898 07f6 745C6D69 		.ascii	"t\\miniprojet\000"
 4898      6E697072 
 4898      6F6A6574 
 4898      00
 4899              	.LASF60:
 4900 0803 74687265 		.ascii	"threads_queue_t\000"
 4900      6164735F 
 4900      71756575 
 4900      655F7400 
 4901              	.LASF72:
 4902 0813 63685F76 		.ascii	"ch_virtual_timer\000"
 4902      69727475 
 4902      616C5F74 
 4902      696D6572 
 4902      00
 4903              	.LASF146:
 4904 0824 63665F6F 		.ascii	"cf_off_newer\000"
 4904      66665F6E 
 4904      65776572 
 4904      00
 4905              	.LASF128:
 4906 0831 63685F73 		.ascii	"ch_semaphore\000"
 4906      656D6170 
 4906      686F7265 
 4906      00
 4907              	.LASF51:
 4908 083e 705F6570 		.ascii	"p_epending\000"
 4908      656E6469 
 4908      6E6700
 4909              	.LASF169:
 4910 0849 6576656E 		.ascii	"events\000"
 4910      747300
 4911              	.LASF18:
 4912 0850 75696E74 		.ascii	"uint32_t\000"
 4912      33325F74 
 4912      00
 4913              	.LASF144:
 4914 0859 63665F6F 		.ascii	"cf_off_prio\000"
 4914      66665F70 
 4914      72696F00 
 4915              	.LASF64:
ARM GAS  C:\Users\PCHAUT~1\AppData\Local\Temp\cceHHvsU.s 			page 94


 4916 0865 725F7175 		.ascii	"r_queue\000"
 4916      65756500 
 4917              	.LASF59:
 4918 086d 63685F74 		.ascii	"ch_threads_list\000"
 4918      68726561 
 4918      64735F6C 
 4918      69737400 
 4919              	.LASF139:
 4920 087d 63685F73 		.ascii	"ch_size\000"
 4920      697A6500 
 4921              	.LASF12:
 4922 0885 6C6F6E67 		.ascii	"long unsigned int\000"
 4922      20756E73 
 4922      69676E65 
 4922      6420696E 
 4922      7400
 4923              	.LASF69:
 4924 0897 725F6375 		.ascii	"r_current\000"
 4924      7272656E 
 4924      7400
 4925              	.LASF136:
 4926 08a1 63686172 		.ascii	"char\000"
 4926      00
 4927              	.LASF126:
 4928 08a6 77746D74 		.ascii	"wtmtxp\000"
 4928      787000
 4929              	.LASF7:
 4930 08ad 5F5F7569 		.ascii	"__uint16_t\000"
 4930      6E743136 
 4930      5F7400
 4931              	.LASF34:
 4932 08b8 74687265 		.ascii	"thread_t\000"
 4932      61645F74 
 4932      00
 4933              	.LASF111:
 4934 08c1 62657374 		.ascii	"best\000"
 4934      00
 4935              	.LASF134:
 4936 08c6 6D5F6E65 		.ascii	"m_next\000"
 4936      787400
 4937              	.LASF33:
 4938 08cd 73797374 		.ascii	"systime_t\000"
 4938      696D655F 
 4938      7400
 4939              	.LASF53:
 4940 08d7 705F7265 		.ascii	"p_realprio\000"
 4940      616C7072 
 4940      696F00
 4941              	.LASF70:
 4942 08e2 76746675 		.ascii	"vtfunc_t\000"
 4942      6E635F74 
 4942      00
 4943              	.LASF11:
 4944 08eb 5F5F7569 		.ascii	"__uint32_t\000"
 4944      6E743332 
 4944      5F7400
 4945              	.LASF199:
ARM GAS  C:\Users\PCHAUT~1\AppData\Local\Temp\cceHHvsU.s 			page 95


 4946 08f6 5F5F7365 		.ascii	"__set_BASEPRI\000"
 4946      745F4241 
 4946      53455052 
 4946      4900
 4947              	.LASF83:
 4948 0904 70616E69 		.ascii	"panic_msg\000"
 4948      635F6D73 
 4948      6700
 4949              	.LASF109:
 4950 090e 6F666673 		.ascii	"offset\000"
 4950      657400
 4951              	.LASF98:
 4952 0915 636F6E74 		.ascii	"context\000"
 4952      65787400 
 4953              	.LASF50:
 4954 091d 705F6D73 		.ascii	"p_msg\000"
 4954      6700
 4955              	.LASF170:
 4956 0923 74696D65 		.ascii	"time\000"
 4956      00
 4957              	.LASF77:
 4958 0928 76745F70 		.ascii	"vt_par\000"
 4958      617200
 4959              	.LASF145:
 4960 092f 63665F6F 		.ascii	"cf_off_ctx\000"
 4960      66665F63 
 4960      747800
 4961              	.LASF131:
 4962 093a 63685F6D 		.ascii	"ch_mutex\000"
 4962      75746578 
 4962      00
 4963              	.LASF166:
 4964 0943 65735F6E 		.ascii	"es_next\000"
 4964      65787400 
 4965              	.LASF84:
 4966 094b 6973725F 		.ascii	"isr_cnt\000"
 4966      636E7400 
 4967              	.LASF103:
 4968 0953 73655F73 		.ascii	"se_state\000"
 4968      74617465 
 4968      00
 4969              	.LASF89:
 4970 095c 726C6973 		.ascii	"rlist\000"
 4970      7400
 4971              	.LASF165:
 4972 0962 6576656E 		.ascii	"event_source\000"
 4972      745F736F 
 4972      75726365 
 4972      00
 4973              	.LASF15:
 4974 096f 75696E74 		.ascii	"uint8_t\000"
 4974      385F7400 
 4975              	.LASF179:
 4976 0977 666C6167 		.ascii	"flags\000"
 4976      7300
 4977              	.LASF56:
 4978 097d 74687265 		.ascii	"thread_reference_t\000"
ARM GAS  C:\Users\PCHAUT~1\AppData\Local\Temp\cceHHvsU.s 			page 96


 4978      61645F72 
 4978      65666572 
 4978      656E6365 
 4978      5F7400
 4979              	.LASF173:
 4980 0990 63684576 		.ascii	"chEvtWaitOneTimeout\000"
 4980      74576169 
 4980      744F6E65 
 4980      54696D65 
 4980      6F757400 
 4981              	.LASF123:
 4982 09a4 77746F62 		.ascii	"wtobjp\000"
 4982      6A7000
 4983              	.LASF161:
 4984 09ab 656C5F6C 		.ascii	"el_listener\000"
 4984      69737465 
 4984      6E657200 
 4985              	.LASF41:
 4986 09b7 705F6E61 		.ascii	"p_name\000"
 4986      6D6500
 4987              	.LASF80:
 4988 09be 76745F73 		.ascii	"vt_systime\000"
 4988      79737469 
 4988      6D6500
 4989              	.LASF86:
 4990 09c9 74726163 		.ascii	"trace_buffer\000"
 4990      655F6275 
 4990      66666572 
 4990      00
 4991              	.LASF192:
 4992 09d6 63685379 		.ascii	"chSysUnlock\000"
 4992      73556E6C 
 4992      6F636B00 
 4993              	.LASF140:
 4994 09e2 63685F76 		.ascii	"ch_version\000"
 4994      65727369 
 4994      6F6E00
 4995              	.LASF152:
 4996 09ed 63665F6F 		.ascii	"cf_off_refs\000"
 4996      66665F72 
 4996      65667300 
 4997              	.LASF118:
 4998 09f9 6D5F6372 		.ascii	"m_crit_thd\000"
 4998      69745F74 
 4998      686400
 4999              	.LASF133:
 5000 0a04 6D5F6F77 		.ascii	"m_owner\000"
 5000      6E657200 
 5001              	.LASF102:
 5002 0a0c 73655F77 		.ascii	"se_wtobjp\000"
 5002      746F626A 
 5002      7000
 5003              	.LASF137:
 5004 0a16 63685F69 		.ascii	"ch_identifier\000"
 5004      64656E74 
 5004      69666965 
 5004      7200
ARM GAS  C:\Users\PCHAUT~1\AppData\Local\Temp\cceHHvsU.s 			page 97


 5005              	.LASF76:
 5006 0a24 76745F66 		.ascii	"vt_func\000"
 5006      756E6300 
 5007              	.LASF159:
 5008 0a2c 6576656E 		.ascii	"event_listener\000"
 5008      745F6C69 
 5008      7374656E 
 5008      657200
 5009              	.LASF182:
 5010 0a3b 63684576 		.ascii	"chEvtSignalI\000"
 5010      74536967 
 5010      6E616C49 
 5010      00
 5011              		.ident	"GCC: (GNU Tools for Arm Embedded Processors 7-2017-q4-major) 7.2.1 20170904 (release) [ARM
ARM GAS  C:\Users\PCHAUT~1\AppData\Local\Temp\cceHHvsU.s 			page 98


DEFINED SYMBOLS
                            *ABS*:00000000 chevents.c
C:\Users\PCHAUT~1\AppData\Local\Temp\cceHHvsU.s:18     .text.port_lock:00000000 $t
C:\Users\PCHAUT~1\AppData\Local\Temp\cceHHvsU.s:25     .text.port_lock:00000000 port_lock
C:\Users\PCHAUT~1\AppData\Local\Temp\cceHHvsU.s:72     .text.port_lock:0000002c $d
C:\Users\PCHAUT~1\AppData\Local\Temp\cceHHvsU.s:77     .text.port_unlock:00000000 $t
C:\Users\PCHAUT~1\AppData\Local\Temp\cceHHvsU.s:84     .text.port_unlock:00000000 port_unlock
C:\Users\PCHAUT~1\AppData\Local\Temp\cceHHvsU.s:129    .text.port_unlock:0000002c $d
C:\Users\PCHAUT~1\AppData\Local\Temp\cceHHvsU.s:134    .text.chSysLock:00000000 $t
C:\Users\PCHAUT~1\AppData\Local\Temp\cceHHvsU.s:141    .text.chSysLock:00000000 chSysLock
C:\Users\PCHAUT~1\AppData\Local\Temp\cceHHvsU.s:179    .text.chSysLock:0000002c $d
C:\Users\PCHAUT~1\AppData\Local\Temp\cceHHvsU.s:184    .text.chSysUnlock:00000000 $t
C:\Users\PCHAUT~1\AppData\Local\Temp\cceHHvsU.s:191    .text.chSysUnlock:00000000 chSysUnlock
C:\Users\PCHAUT~1\AppData\Local\Temp\cceHHvsU.s:247    .text.chSysUnlock:0000004c $d
C:\Users\PCHAUT~1\AppData\Local\Temp\cceHHvsU.s:1728   .rodata.__func__.7153:00000000 __func__.7153
C:\Users\PCHAUT~1\AppData\Local\Temp\cceHHvsU.s:254    .text.chEvtRegisterMaskWithFlags:00000000 $t
C:\Users\PCHAUT~1\AppData\Local\Temp\cceHHvsU.s:262    .text.chEvtRegisterMaskWithFlags:00000000 chEvtRegisterMaskWithFlags
C:\Users\PCHAUT~1\AppData\Local\Temp\cceHHvsU.s:341    .text.chEvtRegisterMaskWithFlags:0000006c $d
C:\Users\PCHAUT~1\AppData\Local\Temp\cceHHvsU.s:1722   .rodata.__func__.7852:00000000 __func__.7852
C:\Users\PCHAUT~1\AppData\Local\Temp\cceHHvsU.s:348    .text.chEvtUnregister:00000000 $t
C:\Users\PCHAUT~1\AppData\Local\Temp\cceHHvsU.s:356    .text.chEvtUnregister:00000000 chEvtUnregister
C:\Users\PCHAUT~1\AppData\Local\Temp\cceHHvsU.s:438    .text.chEvtUnregister:00000068 $d
C:\Users\PCHAUT~1\AppData\Local\Temp\cceHHvsU.s:1734   .rodata.__func__.7858:00000000 __func__.7858
C:\Users\PCHAUT~1\AppData\Local\Temp\cceHHvsU.s:444    .text.chEvtGetAndClearEvents:00000000 $t
C:\Users\PCHAUT~1\AppData\Local\Temp\cceHHvsU.s:452    .text.chEvtGetAndClearEvents:00000000 chEvtGetAndClearEvents
C:\Users\PCHAUT~1\AppData\Local\Temp\cceHHvsU.s:507    .text.chEvtGetAndClearEvents:0000004c $d
C:\Users\PCHAUT~1\AppData\Local\Temp\cceHHvsU.s:513    .text.chEvtAddEvents:00000000 $t
C:\Users\PCHAUT~1\AppData\Local\Temp\cceHHvsU.s:521    .text.chEvtAddEvents:00000000 chEvtAddEvents
C:\Users\PCHAUT~1\AppData\Local\Temp\cceHHvsU.s:573    .text.chEvtAddEvents:00000044 $d
C:\Users\PCHAUT~1\AppData\Local\Temp\cceHHvsU.s:579    .text.chEvtBroadcastFlagsI:00000000 $t
C:\Users\PCHAUT~1\AppData\Local\Temp\cceHHvsU.s:587    .text.chEvtBroadcastFlagsI:00000000 chEvtBroadcastFlagsI
C:\Users\PCHAUT~1\AppData\Local\Temp\cceHHvsU.s:815    .text.chEvtSignalI:00000000 chEvtSignalI
C:\Users\PCHAUT~1\AppData\Local\Temp\cceHHvsU.s:677    .text.chEvtBroadcastFlagsI:0000007c $d
C:\Users\PCHAUT~1\AppData\Local\Temp\cceHHvsU.s:1740   .rodata.__func__.7874:00000000 __func__.7874
C:\Users\PCHAUT~1\AppData\Local\Temp\cceHHvsU.s:683    .text.chEvtGetAndClearFlags:00000000 $t
C:\Users\PCHAUT~1\AppData\Local\Temp\cceHHvsU.s:691    .text.chEvtGetAndClearFlags:00000000 chEvtGetAndClearFlags
C:\Users\PCHAUT~1\AppData\Local\Temp\cceHHvsU.s:737    .text.chEvtGetAndClearFlags:00000038 $d
C:\Users\PCHAUT~1\AppData\Local\Temp\cceHHvsU.s:742    .text.chEvtSignal:00000000 $t
C:\Users\PCHAUT~1\AppData\Local\Temp\cceHHvsU.s:750    .text.chEvtSignal:00000000 chEvtSignal
C:\Users\PCHAUT~1\AppData\Local\Temp\cceHHvsU.s:801    .text.chEvtSignal:00000044 $d
C:\Users\PCHAUT~1\AppData\Local\Temp\cceHHvsU.s:1746   .rodata.__func__.7886:00000000 __func__.7886
C:\Users\PCHAUT~1\AppData\Local\Temp\cceHHvsU.s:807    .text.chEvtSignalI:00000000 $t
C:\Users\PCHAUT~1\AppData\Local\Temp\cceHHvsU.s:906    .text.chEvtSignalI:00000080 $d
C:\Users\PCHAUT~1\AppData\Local\Temp\cceHHvsU.s:1752   .rodata.__func__.7891:00000000 __func__.7891
C:\Users\PCHAUT~1\AppData\Local\Temp\cceHHvsU.s:912    .text.chEvtBroadcastFlags:00000000 $t
C:\Users\PCHAUT~1\AppData\Local\Temp\cceHHvsU.s:920    .text.chEvtBroadcastFlags:00000000 chEvtBroadcastFlags
C:\Users\PCHAUT~1\AppData\Local\Temp\cceHHvsU.s:963    .text.chEvtBroadcastFlags:00000038 $d
C:\Users\PCHAUT~1\AppData\Local\Temp\cceHHvsU.s:968    .text.chEvtGetAndClearFlagsI:00000000 $t
C:\Users\PCHAUT~1\AppData\Local\Temp\cceHHvsU.s:976    .text.chEvtGetAndClearFlagsI:00000000 chEvtGetAndClearFlagsI
C:\Users\PCHAUT~1\AppData\Local\Temp\cceHHvsU.s:1018   .text.chEvtGetAndClearFlagsI:00000030 $d
C:\Users\PCHAUT~1\AppData\Local\Temp\cceHHvsU.s:1023   .text.chEvtDispatch:00000000 $t
C:\Users\PCHAUT~1\AppData\Local\Temp\cceHHvsU.s:1031   .text.chEvtDispatch:00000000 chEvtDispatch
C:\Users\PCHAUT~1\AppData\Local\Temp\cceHHvsU.s:1124   .text.chEvtDispatch:00000084 $d
C:\Users\PCHAUT~1\AppData\Local\Temp\cceHHvsU.s:1758   .rodata.__func__.7905:00000000 __func__.7905
C:\Users\PCHAUT~1\AppData\Local\Temp\cceHHvsU.s:1130   .text.chEvtWaitOne:00000000 $t
C:\Users\PCHAUT~1\AppData\Local\Temp\cceHHvsU.s:1138   .text.chEvtWaitOne:00000000 chEvtWaitOne
C:\Users\PCHAUT~1\AppData\Local\Temp\cceHHvsU.s:1218   .text.chEvtWaitOne:00000070 $d
ARM GAS  C:\Users\PCHAUT~1\AppData\Local\Temp\cceHHvsU.s 			page 99


C:\Users\PCHAUT~1\AppData\Local\Temp\cceHHvsU.s:1224   .text.chEvtWaitAny:00000000 $t
C:\Users\PCHAUT~1\AppData\Local\Temp\cceHHvsU.s:1232   .text.chEvtWaitAny:00000000 chEvtWaitAny
C:\Users\PCHAUT~1\AppData\Local\Temp\cceHHvsU.s:1306   .text.chEvtWaitAny:00000068 $d
C:\Users\PCHAUT~1\AppData\Local\Temp\cceHHvsU.s:1312   .text.chEvtWaitAll:00000000 $t
C:\Users\PCHAUT~1\AppData\Local\Temp\cceHHvsU.s:1320   .text.chEvtWaitAll:00000000 chEvtWaitAll
C:\Users\PCHAUT~1\AppData\Local\Temp\cceHHvsU.s:1386   .text.chEvtWaitAll:0000005c $d
C:\Users\PCHAUT~1\AppData\Local\Temp\cceHHvsU.s:1392   .text.chEvtWaitOneTimeout:00000000 $t
C:\Users\PCHAUT~1\AppData\Local\Temp\cceHHvsU.s:1400   .text.chEvtWaitOneTimeout:00000000 chEvtWaitOneTimeout
C:\Users\PCHAUT~1\AppData\Local\Temp\cceHHvsU.s:1502   .text.chEvtWaitOneTimeout:00000090 $d
C:\Users\PCHAUT~1\AppData\Local\Temp\cceHHvsU.s:1508   .text.chEvtWaitAnyTimeout:00000000 $t
C:\Users\PCHAUT~1\AppData\Local\Temp\cceHHvsU.s:1516   .text.chEvtWaitAnyTimeout:00000000 chEvtWaitAnyTimeout
C:\Users\PCHAUT~1\AppData\Local\Temp\cceHHvsU.s:1612   .text.chEvtWaitAnyTimeout:00000088 $d
C:\Users\PCHAUT~1\AppData\Local\Temp\cceHHvsU.s:1618   .text.chEvtWaitAllTimeout:00000000 $t
C:\Users\PCHAUT~1\AppData\Local\Temp\cceHHvsU.s:1626   .text.chEvtWaitAllTimeout:00000000 chEvtWaitAllTimeout
C:\Users\PCHAUT~1\AppData\Local\Temp\cceHHvsU.s:1713   .text.chEvtWaitAllTimeout:0000007c $d
C:\Users\PCHAUT~1\AppData\Local\Temp\cceHHvsU.s:1719   .rodata.__func__.7852:00000000 $d
C:\Users\PCHAUT~1\AppData\Local\Temp\cceHHvsU.s:1725   .rodata.__func__.7153:00000000 $d
C:\Users\PCHAUT~1\AppData\Local\Temp\cceHHvsU.s:1731   .rodata.__func__.7858:00000000 $d
C:\Users\PCHAUT~1\AppData\Local\Temp\cceHHvsU.s:1737   .rodata.__func__.7874:00000000 $d
C:\Users\PCHAUT~1\AppData\Local\Temp\cceHHvsU.s:1743   .rodata.__func__.7886:00000000 $d
C:\Users\PCHAUT~1\AppData\Local\Temp\cceHHvsU.s:1749   .rodata.__func__.7891:00000000 $d
C:\Users\PCHAUT~1\AppData\Local\Temp\cceHHvsU.s:1755   .rodata.__func__.7905:00000000 $d

UNDEFINED SYMBOLS
__stack_chk_fail
__stack_chk_guard
_stats_start_measure_crit_thd
_dbg_check_lock
_dbg_check_unlock
_stats_stop_measure_crit_thd
chSysHalt
ch
chDbgCheckClassI
chSchRescheduleS
chSchReadyI
chSchGoSleepS
chSchGoSleepTimeoutS
