ARM GAS  C:\Users\PCHAUT~1\AppData\Local\Temp\ccRqVguf.s 			page 1


   1              		.cpu cortex-m4
   2              		.eabi_attribute 27, 1
   3              		.eabi_attribute 28, 1
   4              		.eabi_attribute 20, 1
   5              		.eabi_attribute 21, 1
   6              		.eabi_attribute 23, 3
   7              		.eabi_attribute 24, 1
   8              		.eabi_attribute 25, 1
   9              		.eabi_attribute 26, 1
  10              		.eabi_attribute 30, 6
  11              		.eabi_attribute 34, 1
  12              		.eabi_attribute 18, 4
  13              		.file	"chmboxes.c"
  14              		.text
  15              	.Ltext0:
  16              		.cfi_sections	.debug_frame
  17              		.section	.text.port_lock,"ax",%progbits
  18              		.align	1
  19              		.p2align 4,,15
  20              		.syntax unified
  21              		.thumb
  22              		.thumb_func
  23              		.fpu fpv4-sp-d16
  24              		.type	port_lock, %function
  25              	port_lock:
  26              	.LFB116:
  27              		.file 1 "../lib/e-puck2_main-processor/ChibiOS//os/rt/ports/ARMCMx/chcore_v7m.h"
  28              		.loc 1 444 0
  29              		.cfi_startproc
  30              		@ args = 0, pretend = 0, frame = 8
  31              		@ frame_needed = 0, uses_anonymous_args = 0
  32 0000 00B5     		push	{lr}
  33              		.cfi_def_cfa_offset 4
  34              		.cfi_offset 14, -4
  35 0002 83B0     		sub	sp, sp, #12
  36              		.cfi_def_cfa_offset 16
  37              		.loc 1 444 0
  38 0004 094B     		ldr	r3, .L3
  39 0006 1B68     		ldr	r3, [r3]
  40 0008 0193     		str	r3, [sp, #4]
  41 000a 2023     		movs	r3, #32
  42 000c 0093     		str	r3, [sp]
  43              	.LBB6:
  44              	.LBB7:
  45              		.file 2 "../lib/e-puck2_main-processor/ChibiOS//os/ext/CMSIS/include/core_cmFunc.h"
  46              		.loc 2 546 0
  47 000e 009B     		ldr	r3, [sp]
  48              		.syntax unified
  49              	@ 546 "../lib/e-puck2_main-processor/ChibiOS//os/ext/CMSIS/include/core_cmFunc.h" 1
  50 0010 83F31188 		MSR basepri, r3
  51              	@ 0 "" 2
  52              		.thumb
  53              		.syntax unified
  54              	.LBE7:
  55              	.LBE6:
  56              		.loc 1 451 0
  57 0014 00BF     		nop
ARM GAS  C:\Users\PCHAUT~1\AppData\Local\Temp\ccRqVguf.s 			page 2


  58 0016 054B     		ldr	r3, .L3
  59 0018 019A     		ldr	r2, [sp, #4]
  60 001a 1B68     		ldr	r3, [r3]
  61 001c 9A42     		cmp	r2, r3
  62 001e 01D0     		beq	.L2
  63 0020 FFF7FEFF 		bl	__stack_chk_fail
  64              	.L2:
  65 0024 03B0     		add	sp, sp, #12
  66              		.cfi_def_cfa_offset 4
  67              		@ sp needed
  68 0026 5DF804FB 		ldr	pc, [sp], #4
  69              	.L4:
  70 002a 00BF     		.align	2
  71              	.L3:
  72 002c 00000000 		.word	__stack_chk_guard
  73              		.cfi_endproc
  74              	.LFE116:
  75              		.size	port_lock, .-port_lock
  76              		.section	.text.port_unlock,"ax",%progbits
  77              		.align	1
  78              		.p2align 4,,15
  79              		.syntax unified
  80              		.thumb
  81              		.thumb_func
  82              		.fpu fpv4-sp-d16
  83              		.type	port_unlock, %function
  84              	port_unlock:
  85              	.LFB117:
  86              		.loc 1 458 0
  87              		.cfi_startproc
  88              		@ args = 0, pretend = 0, frame = 8
  89              		@ frame_needed = 0, uses_anonymous_args = 0
  90 0000 00B5     		push	{lr}
  91              		.cfi_def_cfa_offset 4
  92              		.cfi_offset 14, -4
  93 0002 83B0     		sub	sp, sp, #12
  94              		.cfi_def_cfa_offset 16
  95              		.loc 1 458 0
  96 0004 094B     		ldr	r3, .L7
  97 0006 1B68     		ldr	r3, [r3]
  98 0008 0193     		str	r3, [sp, #4]
  99 000a 0023     		movs	r3, #0
 100 000c 0093     		str	r3, [sp]
 101              	.LBB8:
 102              	.LBB9:
 103              		.loc 2 546 0
 104 000e 009B     		ldr	r3, [sp]
 105              		.syntax unified
 106              	@ 546 "../lib/e-puck2_main-processor/ChibiOS//os/ext/CMSIS/include/core_cmFunc.h" 1
 107 0010 83F31188 		MSR basepri, r3
 108              	@ 0 "" 2
 109              		.thumb
 110              		.syntax unified
 111              	.LBE9:
 112              	.LBE8:
 113              		.loc 1 465 0
 114 0014 00BF     		nop
ARM GAS  C:\Users\PCHAUT~1\AppData\Local\Temp\ccRqVguf.s 			page 3


 115 0016 054B     		ldr	r3, .L7
 116 0018 019A     		ldr	r2, [sp, #4]
 117 001a 1B68     		ldr	r3, [r3]
 118 001c 9A42     		cmp	r2, r3
 119 001e 01D0     		beq	.L6
 120 0020 FFF7FEFF 		bl	__stack_chk_fail
 121              	.L6:
 122 0024 03B0     		add	sp, sp, #12
 123              		.cfi_def_cfa_offset 4
 124              		@ sp needed
 125 0026 5DF804FB 		ldr	pc, [sp], #4
 126              	.L8:
 127 002a 00BF     		.align	2
 128              	.L7:
 129 002c 00000000 		.word	__stack_chk_guard
 130              		.cfi_endproc
 131              	.LFE117:
 132              		.size	port_unlock, .-port_unlock
 133              		.section	.text.chSysLock,"ax",%progbits
 134              		.align	1
 135              		.p2align 4,,15
 136              		.syntax unified
 137              		.thumb
 138              		.thumb_func
 139              		.fpu fpv4-sp-d16
 140              		.type	chSysLock, %function
 141              	chSysLock:
 142              	.LFB145:
 143              		.file 3 "../lib/e-puck2_main-processor/ChibiOS//os/rt/include/chsys.h"
 144              		.loc 3 346 0
 145              		.cfi_startproc
 146              		@ args = 0, pretend = 0, frame = 8
 147              		@ frame_needed = 0, uses_anonymous_args = 0
 148 0000 00B5     		push	{lr}
 149              		.cfi_def_cfa_offset 4
 150              		.cfi_offset 14, -4
 151 0002 83B0     		sub	sp, sp, #12
 152              		.cfi_def_cfa_offset 16
 153              		.loc 3 346 0
 154 0004 094B     		ldr	r3, .L11
 155 0006 1B68     		ldr	r3, [r3]
 156 0008 0193     		str	r3, [sp, #4]
 157              		.loc 3 348 0
 158 000a FFF7FEFF 		bl	port_lock
 159              		.loc 3 349 0
 160 000e FFF7FEFF 		bl	_stats_start_measure_crit_thd
 161              		.loc 3 350 0
 162 0012 FFF7FEFF 		bl	_dbg_check_lock
 163              		.loc 3 351 0
 164 0016 00BF     		nop
 165 0018 044B     		ldr	r3, .L11
 166 001a 019A     		ldr	r2, [sp, #4]
 167 001c 1B68     		ldr	r3, [r3]
 168 001e 9A42     		cmp	r2, r3
 169 0020 01D0     		beq	.L10
 170 0022 FFF7FEFF 		bl	__stack_chk_fail
 171              	.L10:
ARM GAS  C:\Users\PCHAUT~1\AppData\Local\Temp\ccRqVguf.s 			page 4


 172 0026 03B0     		add	sp, sp, #12
 173              		.cfi_def_cfa_offset 4
 174              		@ sp needed
 175 0028 5DF804FB 		ldr	pc, [sp], #4
 176              	.L12:
 177              		.align	2
 178              	.L11:
 179 002c 00000000 		.word	__stack_chk_guard
 180              		.cfi_endproc
 181              	.LFE145:
 182              		.size	chSysLock, .-chSysLock
 183              		.section	.text.chSysUnlock,"ax",%progbits
 184              		.align	1
 185              		.p2align 4,,15
 186              		.syntax unified
 187              		.thumb
 188              		.thumb_func
 189              		.fpu fpv4-sp-d16
 190              		.type	chSysUnlock, %function
 191              	chSysUnlock:
 192              	.LFB146:
 193              		.loc 3 358 0
 194              		.cfi_startproc
 195              		@ args = 0, pretend = 0, frame = 8
 196              		@ frame_needed = 0, uses_anonymous_args = 0
 197 0000 00B5     		push	{lr}
 198              		.cfi_def_cfa_offset 4
 199              		.cfi_offset 14, -4
 200 0002 83B0     		sub	sp, sp, #12
 201              		.cfi_def_cfa_offset 16
 202              		.loc 3 358 0
 203 0004 114B     		ldr	r3, .L16
 204 0006 1B68     		ldr	r3, [r3]
 205 0008 0193     		str	r3, [sp, #4]
 206              		.loc 3 360 0
 207 000a FFF7FEFF 		bl	_dbg_check_unlock
 208              		.loc 3 361 0
 209 000e FFF7FEFF 		bl	_stats_stop_measure_crit_thd
 210              		.loc 3 367 0
 211 0012 0F4B     		ldr	r3, .L16+4
 212 0014 1B68     		ldr	r3, [r3]
 213 0016 0E4A     		ldr	r2, .L16+4
 214 0018 9342     		cmp	r3, r2
 215 001a 0AD0     		beq	.L14
 216              		.loc 3 367 0 is_stmt 0 discriminator 2
 217 001c 0C4B     		ldr	r3, .L16+4
 218 001e 9B69     		ldr	r3, [r3, #24]
 219 0020 9A68     		ldr	r2, [r3, #8]
 220 0022 0B4B     		ldr	r3, .L16+4
 221 0024 1B68     		ldr	r3, [r3]
 222 0026 9B68     		ldr	r3, [r3, #8]
 223 0028 9A42     		cmp	r2, r3
 224 002a 02D2     		bcs	.L14
 225              		.loc 3 367 0 discriminator 3
 226 002c 0948     		ldr	r0, .L16+8
 227 002e FFF7FEFF 		bl	chSysHalt
 228              	.L14:
ARM GAS  C:\Users\PCHAUT~1\AppData\Local\Temp\ccRqVguf.s 			page 5


 229              		.loc 3 371 0 is_stmt 1
 230 0032 FFF7FEFF 		bl	port_unlock
 231              		.loc 3 372 0
 232 0036 00BF     		nop
 233 0038 044B     		ldr	r3, .L16
 234 003a 019A     		ldr	r2, [sp, #4]
 235 003c 1B68     		ldr	r3, [r3]
 236 003e 9A42     		cmp	r2, r3
 237 0040 01D0     		beq	.L15
 238 0042 FFF7FEFF 		bl	__stack_chk_fail
 239              	.L15:
 240 0046 03B0     		add	sp, sp, #12
 241              		.cfi_def_cfa_offset 4
 242              		@ sp needed
 243 0048 5DF804FB 		ldr	pc, [sp], #4
 244              	.L17:
 245              		.align	2
 246              	.L16:
 247 004c 00000000 		.word	__stack_chk_guard
 248 0050 00000000 		.word	ch
 249 0054 00000000 		.word	__func__.7153
 250              		.cfi_endproc
 251              	.LFE146:
 252              		.size	chSysUnlock, .-chSysUnlock
 253              		.section	.text.chSemFastWaitI,"ax",%progbits
 254              		.align	1
 255              		.p2align 4,,15
 256              		.syntax unified
 257              		.thumb
 258              		.thumb_func
 259              		.fpu fpv4-sp-d16
 260              		.type	chSemFastWaitI, %function
 261              	chSemFastWaitI:
 262              	.LFB179:
 263              		.file 4 "../lib/e-puck2_main-processor/ChibiOS//os/rt/include/chsem.h"
 264              		.loc 4 118 0
 265              		.cfi_startproc
 266              		@ args = 0, pretend = 0, frame = 16
 267              		@ frame_needed = 0, uses_anonymous_args = 0
 268 0000 00B5     		push	{lr}
 269              		.cfi_def_cfa_offset 4
 270              		.cfi_offset 14, -4
 271 0002 85B0     		sub	sp, sp, #20
 272              		.cfi_def_cfa_offset 24
 273 0004 0190     		str	r0, [sp, #4]
 274              		.loc 4 118 0
 275 0006 0A4B     		ldr	r3, .L20
 276 0008 1B68     		ldr	r3, [r3]
 277 000a 0393     		str	r3, [sp, #12]
 278              		.loc 4 120 0
 279 000c FFF7FEFF 		bl	chDbgCheckClassI
 280              		.loc 4 122 0
 281 0010 019B     		ldr	r3, [sp, #4]
 282 0012 9B68     		ldr	r3, [r3, #8]
 283 0014 5A1E     		subs	r2, r3, #1
 284 0016 019B     		ldr	r3, [sp, #4]
 285 0018 9A60     		str	r2, [r3, #8]
ARM GAS  C:\Users\PCHAUT~1\AppData\Local\Temp\ccRqVguf.s 			page 6


 286              		.loc 4 123 0
 287 001a 00BF     		nop
 288 001c 044B     		ldr	r3, .L20
 289 001e 039A     		ldr	r2, [sp, #12]
 290 0020 1B68     		ldr	r3, [r3]
 291 0022 9A42     		cmp	r2, r3
 292 0024 01D0     		beq	.L19
 293 0026 FFF7FEFF 		bl	__stack_chk_fail
 294              	.L19:
 295 002a 05B0     		add	sp, sp, #20
 296              		.cfi_def_cfa_offset 4
 297              		@ sp needed
 298 002c 5DF804FB 		ldr	pc, [sp], #4
 299              	.L21:
 300              		.align	2
 301              	.L20:
 302 0030 00000000 		.word	__stack_chk_guard
 303              		.cfi_endproc
 304              	.LFE179:
 305              		.size	chSemFastWaitI, .-chSemFastWaitI
 306              		.section	.text.chSemGetCounterI,"ax",%progbits
 307              		.align	1
 308              		.p2align 4,,15
 309              		.syntax unified
 310              		.thumb
 311              		.thumb_func
 312              		.fpu fpv4-sp-d16
 313              		.type	chSemGetCounterI, %function
 314              	chSemGetCounterI:
 315              	.LFB181:
 316              		.loc 4 149 0
 317              		.cfi_startproc
 318              		@ args = 0, pretend = 0, frame = 16
 319              		@ frame_needed = 0, uses_anonymous_args = 0
 320 0000 00B5     		push	{lr}
 321              		.cfi_def_cfa_offset 4
 322              		.cfi_offset 14, -4
 323 0002 85B0     		sub	sp, sp, #20
 324              		.cfi_def_cfa_offset 24
 325 0004 0190     		str	r0, [sp, #4]
 326              		.loc 4 149 0
 327 0006 094B     		ldr	r3, .L25
 328 0008 1B68     		ldr	r3, [r3]
 329 000a 0393     		str	r3, [sp, #12]
 330              		.loc 4 151 0
 331 000c FFF7FEFF 		bl	chDbgCheckClassI
 332              		.loc 4 153 0
 333 0010 019B     		ldr	r3, [sp, #4]
 334 0012 9B68     		ldr	r3, [r3, #8]
 335              		.loc 4 154 0
 336 0014 1846     		mov	r0, r3
 337 0016 054B     		ldr	r3, .L25
 338 0018 039A     		ldr	r2, [sp, #12]
 339 001a 1B68     		ldr	r3, [r3]
 340 001c 9A42     		cmp	r2, r3
 341 001e 01D0     		beq	.L24
 342 0020 FFF7FEFF 		bl	__stack_chk_fail
ARM GAS  C:\Users\PCHAUT~1\AppData\Local\Temp\ccRqVguf.s 			page 7


 343              	.L24:
 344 0024 05B0     		add	sp, sp, #20
 345              		.cfi_def_cfa_offset 4
 346              		@ sp needed
 347 0026 5DF804FB 		ldr	pc, [sp], #4
 348              	.L26:
 349 002a 00BF     		.align	2
 350              	.L25:
 351 002c 00000000 		.word	__stack_chk_guard
 352              		.cfi_endproc
 353              	.LFE181:
 354              		.size	chSemGetCounterI, .-chSemGetCounterI
 355              		.section	.text.chMBObjectInit,"ax",%progbits
 356              		.align	1
 357              		.p2align 4,,15
 358              		.global	chMBObjectInit
 359              		.syntax unified
 360              		.thumb
 361              		.thumb_func
 362              		.fpu fpv4-sp-d16
 363              		.type	chMBObjectInit, %function
 364              	chMBObjectInit:
 365              	.LFB219:
 366              		.file 5 "../lib/e-puck2_main-processor/ChibiOS//os/rt/src/chmboxes.c"
 367              		.loc 5 86 0
 368              		.cfi_startproc
 369              		@ args = 0, pretend = 0, frame = 24
 370              		@ frame_needed = 0, uses_anonymous_args = 0
 371 0000 00B5     		push	{lr}
 372              		.cfi_def_cfa_offset 4
 373              		.cfi_offset 14, -4
 374 0002 87B0     		sub	sp, sp, #28
 375              		.cfi_def_cfa_offset 32
 376 0004 0390     		str	r0, [sp, #12]
 377 0006 0291     		str	r1, [sp, #8]
 378 0008 0192     		str	r2, [sp, #4]
 379              		.loc 5 86 0
 380 000a 1A4B     		ldr	r3, .L31
 381 000c 1B68     		ldr	r3, [r3]
 382 000e 0593     		str	r3, [sp, #20]
 383              		.loc 5 88 0
 384 0010 039B     		ldr	r3, [sp, #12]
 385 0012 002B     		cmp	r3, #0
 386 0014 05D0     		beq	.L28
 387              		.loc 5 88 0 is_stmt 0 discriminator 3
 388 0016 029B     		ldr	r3, [sp, #8]
 389 0018 002B     		cmp	r3, #0
 390 001a 02D0     		beq	.L28
 391              		.loc 5 88 0 discriminator 5
 392 001c 019B     		ldr	r3, [sp, #4]
 393 001e 002B     		cmp	r3, #0
 394 0020 02DC     		bgt	.L29
 395              	.L28:
 396              		.loc 5 88 0 discriminator 6
 397 0022 1548     		ldr	r0, .L31+4
 398 0024 FFF7FEFF 		bl	chSysHalt
 399              	.L29:
ARM GAS  C:\Users\PCHAUT~1\AppData\Local\Temp\ccRqVguf.s 			page 8


 400              		.loc 5 90 0 is_stmt 1
 401 0028 039B     		ldr	r3, [sp, #12]
 402 002a 029A     		ldr	r2, [sp, #8]
 403 002c 1A60     		str	r2, [r3]
 404              		.loc 5 91 0
 405 002e 039B     		ldr	r3, [sp, #12]
 406 0030 029A     		ldr	r2, [sp, #8]
 407 0032 DA60     		str	r2, [r3, #12]
 408              		.loc 5 92 0
 409 0034 039B     		ldr	r3, [sp, #12]
 410 0036 029A     		ldr	r2, [sp, #8]
 411 0038 9A60     		str	r2, [r3, #8]
 412              		.loc 5 93 0
 413 003a 019B     		ldr	r3, [sp, #4]
 414 003c 9B00     		lsls	r3, r3, #2
 415 003e 029A     		ldr	r2, [sp, #8]
 416 0040 1A44     		add	r2, r2, r3
 417 0042 039B     		ldr	r3, [sp, #12]
 418 0044 5A60     		str	r2, [r3, #4]
 419              		.loc 5 94 0
 420 0046 039B     		ldr	r3, [sp, #12]
 421 0048 1C33     		adds	r3, r3, #28
 422 004a 0199     		ldr	r1, [sp, #4]
 423 004c 1846     		mov	r0, r3
 424 004e FFF7FEFF 		bl	chSemObjectInit
 425              		.loc 5 95 0
 426 0052 039B     		ldr	r3, [sp, #12]
 427 0054 1033     		adds	r3, r3, #16
 428 0056 0021     		movs	r1, #0
 429 0058 1846     		mov	r0, r3
 430 005a FFF7FEFF 		bl	chSemObjectInit
 431              		.loc 5 96 0
 432 005e 00BF     		nop
 433 0060 044B     		ldr	r3, .L31
 434 0062 059A     		ldr	r2, [sp, #20]
 435 0064 1B68     		ldr	r3, [r3]
 436 0066 9A42     		cmp	r2, r3
 437 0068 01D0     		beq	.L30
 438 006a FFF7FEFF 		bl	__stack_chk_fail
 439              	.L30:
 440 006e 07B0     		add	sp, sp, #28
 441              		.cfi_def_cfa_offset 4
 442              		@ sp needed
 443 0070 5DF804FB 		ldr	pc, [sp], #4
 444              	.L32:
 445              		.align	2
 446              	.L31:
 447 0074 00000000 		.word	__stack_chk_guard
 448 0078 00000000 		.word	__func__.7851
 449              		.cfi_endproc
 450              	.LFE219:
 451              		.size	chMBObjectInit, .-chMBObjectInit
 452              		.section	.text.chMBReset,"ax",%progbits
 453              		.align	1
 454              		.p2align 4,,15
 455              		.global	chMBReset
 456              		.syntax unified
ARM GAS  C:\Users\PCHAUT~1\AppData\Local\Temp\ccRqVguf.s 			page 9


 457              		.thumb
 458              		.thumb_func
 459              		.fpu fpv4-sp-d16
 460              		.type	chMBReset, %function
 461              	chMBReset:
 462              	.LFB220:
 463              		.loc 5 107 0
 464              		.cfi_startproc
 465              		@ args = 0, pretend = 0, frame = 16
 466              		@ frame_needed = 0, uses_anonymous_args = 0
 467 0000 00B5     		push	{lr}
 468              		.cfi_def_cfa_offset 4
 469              		.cfi_offset 14, -4
 470 0002 85B0     		sub	sp, sp, #20
 471              		.cfi_def_cfa_offset 24
 472 0004 0190     		str	r0, [sp, #4]
 473              		.loc 5 107 0
 474 0006 0B4B     		ldr	r3, .L35
 475 0008 1B68     		ldr	r3, [r3]
 476 000a 0393     		str	r3, [sp, #12]
 477              		.loc 5 109 0
 478 000c FFF7FEFF 		bl	chSysLock
 479              		.loc 5 110 0
 480 0010 0198     		ldr	r0, [sp, #4]
 481 0012 FFF7FEFF 		bl	chMBResetI
 482              		.loc 5 111 0
 483 0016 FFF7FEFF 		bl	chSchRescheduleS
 484              		.loc 5 112 0
 485 001a FFF7FEFF 		bl	chSysUnlock
 486              		.loc 5 113 0
 487 001e 00BF     		nop
 488 0020 044B     		ldr	r3, .L35
 489 0022 039A     		ldr	r2, [sp, #12]
 490 0024 1B68     		ldr	r3, [r3]
 491 0026 9A42     		cmp	r2, r3
 492 0028 01D0     		beq	.L34
 493 002a FFF7FEFF 		bl	__stack_chk_fail
 494              	.L34:
 495 002e 05B0     		add	sp, sp, #20
 496              		.cfi_def_cfa_offset 4
 497              		@ sp needed
 498 0030 5DF804FB 		ldr	pc, [sp], #4
 499              	.L36:
 500              		.align	2
 501              	.L35:
 502 0034 00000000 		.word	__stack_chk_guard
 503              		.cfi_endproc
 504              	.LFE220:
 505              		.size	chMBReset, .-chMBReset
 506              		.section	.text.chMBResetI,"ax",%progbits
 507              		.align	1
 508              		.p2align 4,,15
 509              		.global	chMBResetI
 510              		.syntax unified
 511              		.thumb
 512              		.thumb_func
 513              		.fpu fpv4-sp-d16
ARM GAS  C:\Users\PCHAUT~1\AppData\Local\Temp\ccRqVguf.s 			page 10


 514              		.type	chMBResetI, %function
 515              	chMBResetI:
 516              	.LFB221:
 517              		.loc 5 124 0
 518              		.cfi_startproc
 519              		@ args = 0, pretend = 0, frame = 16
 520              		@ frame_needed = 0, uses_anonymous_args = 0
 521 0000 00B5     		push	{lr}
 522              		.cfi_def_cfa_offset 4
 523              		.cfi_offset 14, -4
 524 0002 85B0     		sub	sp, sp, #20
 525              		.cfi_def_cfa_offset 24
 526 0004 0190     		str	r0, [sp, #4]
 527              		.loc 5 124 0
 528 0006 194B     		ldr	r3, .L40
 529 0008 1B68     		ldr	r3, [r3]
 530 000a 0393     		str	r3, [sp, #12]
 531              		.loc 5 126 0
 532 000c FFF7FEFF 		bl	chDbgCheckClassI
 533              		.loc 5 127 0
 534 0010 019B     		ldr	r3, [sp, #4]
 535 0012 002B     		cmp	r3, #0
 536 0014 02D1     		bne	.L38
 537              		.loc 5 127 0 is_stmt 0 discriminator 2
 538 0016 1648     		ldr	r0, .L40+4
 539 0018 FFF7FEFF 		bl	chSysHalt
 540              	.L38:
 541              		.loc 5 129 0 is_stmt 1
 542 001c 019B     		ldr	r3, [sp, #4]
 543 001e 1A68     		ldr	r2, [r3]
 544 0020 019B     		ldr	r3, [sp, #4]
 545 0022 9A60     		str	r2, [r3, #8]
 546              		.loc 5 130 0
 547 0024 019B     		ldr	r3, [sp, #4]
 548 0026 1A68     		ldr	r2, [r3]
 549 0028 019B     		ldr	r3, [sp, #4]
 550 002a DA60     		str	r2, [r3, #12]
 551              		.loc 5 131 0
 552 002c 019B     		ldr	r3, [sp, #4]
 553 002e 03F11C02 		add	r2, r3, #28
 554 0032 019B     		ldr	r3, [sp, #4]
 555 0034 5B68     		ldr	r3, [r3, #4]
 556 0036 1946     		mov	r1, r3
 557 0038 019B     		ldr	r3, [sp, #4]
 558 003a 1B68     		ldr	r3, [r3]
 559 003c CB1A     		subs	r3, r1, r3
 560 003e 9B10     		asrs	r3, r3, #2
 561 0040 1946     		mov	r1, r3
 562 0042 1046     		mov	r0, r2
 563 0044 FFF7FEFF 		bl	chSemResetI
 564              		.loc 5 132 0
 565 0048 019B     		ldr	r3, [sp, #4]
 566 004a 1033     		adds	r3, r3, #16
 567 004c 0021     		movs	r1, #0
 568 004e 1846     		mov	r0, r3
 569 0050 FFF7FEFF 		bl	chSemResetI
 570              		.loc 5 133 0
ARM GAS  C:\Users\PCHAUT~1\AppData\Local\Temp\ccRqVguf.s 			page 11


 571 0054 00BF     		nop
 572 0056 054B     		ldr	r3, .L40
 573 0058 039A     		ldr	r2, [sp, #12]
 574 005a 1B68     		ldr	r3, [r3]
 575 005c 9A42     		cmp	r2, r3
 576 005e 01D0     		beq	.L39
 577 0060 FFF7FEFF 		bl	__stack_chk_fail
 578              	.L39:
 579 0064 05B0     		add	sp, sp, #20
 580              		.cfi_def_cfa_offset 4
 581              		@ sp needed
 582 0066 5DF804FB 		ldr	pc, [sp], #4
 583              	.L41:
 584 006a 00BF     		.align	2
 585              	.L40:
 586 006c 00000000 		.word	__stack_chk_guard
 587 0070 00000000 		.word	__func__.7858
 588              		.cfi_endproc
 589              	.LFE221:
 590              		.size	chMBResetI, .-chMBResetI
 591              		.section	.text.chMBPost,"ax",%progbits
 592              		.align	1
 593              		.p2align 4,,15
 594              		.global	chMBPost
 595              		.syntax unified
 596              		.thumb
 597              		.thumb_func
 598              		.fpu fpv4-sp-d16
 599              		.type	chMBPost, %function
 600              	chMBPost:
 601              	.LFB222:
 602              		.loc 5 154 0
 603              		.cfi_startproc
 604              		@ args = 0, pretend = 0, frame = 24
 605              		@ frame_needed = 0, uses_anonymous_args = 0
 606 0000 00B5     		push	{lr}
 607              		.cfi_def_cfa_offset 4
 608              		.cfi_offset 14, -4
 609 0002 87B0     		sub	sp, sp, #28
 610              		.cfi_def_cfa_offset 32
 611 0004 0390     		str	r0, [sp, #12]
 612 0006 0291     		str	r1, [sp, #8]
 613 0008 0192     		str	r2, [sp, #4]
 614              		.loc 5 154 0
 615 000a 0C4B     		ldr	r3, .L45
 616 000c 1B68     		ldr	r3, [r3]
 617 000e 0593     		str	r3, [sp, #20]
 618              		.loc 5 157 0
 619 0010 FFF7FEFF 		bl	chSysLock
 620              		.loc 5 158 0
 621 0014 019A     		ldr	r2, [sp, #4]
 622 0016 0299     		ldr	r1, [sp, #8]
 623 0018 0398     		ldr	r0, [sp, #12]
 624 001a FFF7FEFF 		bl	chMBPostS
 625 001e 0490     		str	r0, [sp, #16]
 626              		.loc 5 159 0
 627 0020 FFF7FEFF 		bl	chSysUnlock
ARM GAS  C:\Users\PCHAUT~1\AppData\Local\Temp\ccRqVguf.s 			page 12


 628              		.loc 5 161 0
 629 0024 049B     		ldr	r3, [sp, #16]
 630              		.loc 5 162 0
 631 0026 1846     		mov	r0, r3
 632 0028 044B     		ldr	r3, .L45
 633 002a 059A     		ldr	r2, [sp, #20]
 634 002c 1B68     		ldr	r3, [r3]
 635 002e 9A42     		cmp	r2, r3
 636 0030 01D0     		beq	.L44
 637 0032 FFF7FEFF 		bl	__stack_chk_fail
 638              	.L44:
 639 0036 07B0     		add	sp, sp, #28
 640              		.cfi_def_cfa_offset 4
 641              		@ sp needed
 642 0038 5DF804FB 		ldr	pc, [sp], #4
 643              	.L46:
 644              		.align	2
 645              	.L45:
 646 003c 00000000 		.word	__stack_chk_guard
 647              		.cfi_endproc
 648              	.LFE222:
 649              		.size	chMBPost, .-chMBPost
 650              		.section	.text.chMBPostS,"ax",%progbits
 651              		.align	1
 652              		.p2align 4,,15
 653              		.global	chMBPostS
 654              		.syntax unified
 655              		.thumb
 656              		.thumb_func
 657              		.fpu fpv4-sp-d16
 658              		.type	chMBPostS, %function
 659              	chMBPostS:
 660              	.LFB223:
 661              		.loc 5 183 0
 662              		.cfi_startproc
 663              		@ args = 0, pretend = 0, frame = 24
 664              		@ frame_needed = 0, uses_anonymous_args = 0
 665 0000 00B5     		push	{lr}
 666              		.cfi_def_cfa_offset 4
 667              		.cfi_offset 14, -4
 668 0002 87B0     		sub	sp, sp, #28
 669              		.cfi_def_cfa_offset 32
 670 0004 0390     		str	r0, [sp, #12]
 671 0006 0291     		str	r1, [sp, #8]
 672 0008 0192     		str	r2, [sp, #4]
 673              		.loc 5 183 0
 674 000a 1C4B     		ldr	r3, .L53
 675 000c 1B68     		ldr	r3, [r3]
 676 000e 0593     		str	r3, [sp, #20]
 677              		.loc 5 186 0
 678 0010 FFF7FEFF 		bl	chDbgCheckClassS
 679              		.loc 5 187 0
 680 0014 039B     		ldr	r3, [sp, #12]
 681 0016 002B     		cmp	r3, #0
 682 0018 02D1     		bne	.L48
 683              		.loc 5 187 0 is_stmt 0 discriminator 2
 684 001a 1948     		ldr	r0, .L53+4
ARM GAS  C:\Users\PCHAUT~1\AppData\Local\Temp\ccRqVguf.s 			page 13


 685 001c FFF7FEFF 		bl	chSysHalt
 686              	.L48:
 687              		.loc 5 189 0 is_stmt 1
 688 0020 039B     		ldr	r3, [sp, #12]
 689 0022 1C33     		adds	r3, r3, #28
 690 0024 0199     		ldr	r1, [sp, #4]
 691 0026 1846     		mov	r0, r3
 692 0028 FFF7FEFF 		bl	chSemWaitTimeoutS
 693 002c 0490     		str	r0, [sp, #16]
 694              		.loc 5 190 0
 695 002e 049B     		ldr	r3, [sp, #16]
 696 0030 002B     		cmp	r3, #0
 697 0032 17D1     		bne	.L49
 698              		.loc 5 191 0
 699 0034 039B     		ldr	r3, [sp, #12]
 700 0036 9B68     		ldr	r3, [r3, #8]
 701 0038 191D     		adds	r1, r3, #4
 702 003a 039A     		ldr	r2, [sp, #12]
 703 003c 9160     		str	r1, [r2, #8]
 704 003e 029A     		ldr	r2, [sp, #8]
 705 0040 1A60     		str	r2, [r3]
 706              		.loc 5 192 0
 707 0042 039B     		ldr	r3, [sp, #12]
 708 0044 9A68     		ldr	r2, [r3, #8]
 709 0046 039B     		ldr	r3, [sp, #12]
 710 0048 5B68     		ldr	r3, [r3, #4]
 711 004a 9A42     		cmp	r2, r3
 712 004c 03D3     		bcc	.L50
 713              		.loc 5 193 0
 714 004e 039B     		ldr	r3, [sp, #12]
 715 0050 1A68     		ldr	r2, [r3]
 716 0052 039B     		ldr	r3, [sp, #12]
 717 0054 9A60     		str	r2, [r3, #8]
 718              	.L50:
 719              		.loc 5 195 0
 720 0056 039B     		ldr	r3, [sp, #12]
 721 0058 1033     		adds	r3, r3, #16
 722 005a 1846     		mov	r0, r3
 723 005c FFF7FEFF 		bl	chSemSignalI
 724              		.loc 5 196 0
 725 0060 FFF7FEFF 		bl	chSchRescheduleS
 726              	.L49:
 727              		.loc 5 199 0
 728 0064 049B     		ldr	r3, [sp, #16]
 729              		.loc 5 200 0
 730 0066 1846     		mov	r0, r3
 731 0068 044B     		ldr	r3, .L53
 732 006a 059A     		ldr	r2, [sp, #20]
 733 006c 1B68     		ldr	r3, [r3]
 734 006e 9A42     		cmp	r2, r3
 735 0070 01D0     		beq	.L52
 736 0072 FFF7FEFF 		bl	__stack_chk_fail
 737              	.L52:
 738 0076 07B0     		add	sp, sp, #28
 739              		.cfi_def_cfa_offset 4
 740              		@ sp needed
 741 0078 5DF804FB 		ldr	pc, [sp], #4
ARM GAS  C:\Users\PCHAUT~1\AppData\Local\Temp\ccRqVguf.s 			page 14


 742              	.L54:
 743              		.align	2
 744              	.L53:
 745 007c 00000000 		.word	__stack_chk_guard
 746 0080 00000000 		.word	__func__.7871
 747              		.cfi_endproc
 748              	.LFE223:
 749              		.size	chMBPostS, .-chMBPostS
 750              		.section	.text.chMBPostI,"ax",%progbits
 751              		.align	1
 752              		.p2align 4,,15
 753              		.global	chMBPostI
 754              		.syntax unified
 755              		.thumb
 756              		.thumb_func
 757              		.fpu fpv4-sp-d16
 758              		.type	chMBPostI, %function
 759              	chMBPostI:
 760              	.LFB224:
 761              		.loc 5 216 0
 762              		.cfi_startproc
 763              		@ args = 0, pretend = 0, frame = 16
 764              		@ frame_needed = 0, uses_anonymous_args = 0
 765 0000 00B5     		push	{lr}
 766              		.cfi_def_cfa_offset 4
 767              		.cfi_offset 14, -4
 768 0002 85B0     		sub	sp, sp, #20
 769              		.cfi_def_cfa_offset 24
 770 0004 0190     		str	r0, [sp, #4]
 771 0006 0091     		str	r1, [sp]
 772              		.loc 5 216 0
 773 0008 1E4B     		ldr	r3, .L61
 774 000a 1B68     		ldr	r3, [r3]
 775 000c 0393     		str	r3, [sp, #12]
 776              		.loc 5 218 0
 777 000e FFF7FEFF 		bl	chDbgCheckClassI
 778              		.loc 5 219 0
 779 0012 019B     		ldr	r3, [sp, #4]
 780 0014 002B     		cmp	r3, #0
 781 0016 02D1     		bne	.L56
 782              		.loc 5 219 0 is_stmt 0 discriminator 2
 783 0018 1B48     		ldr	r0, .L61+4
 784 001a FFF7FEFF 		bl	chSysHalt
 785              	.L56:
 786              		.loc 5 221 0 is_stmt 1
 787 001e 019B     		ldr	r3, [sp, #4]
 788 0020 1C33     		adds	r3, r3, #28
 789 0022 1846     		mov	r0, r3
 790 0024 FFF7FEFF 		bl	chSemGetCounterI
 791 0028 0346     		mov	r3, r0
 792 002a 002B     		cmp	r3, #0
 793 002c 02DC     		bgt	.L57
 794              		.loc 5 222 0
 795 002e 4FF0FF33 		mov	r3, #-1
 796 0032 1BE0     		b	.L58
 797              	.L57:
 798              		.loc 5 225 0
ARM GAS  C:\Users\PCHAUT~1\AppData\Local\Temp\ccRqVguf.s 			page 15


 799 0034 019B     		ldr	r3, [sp, #4]
 800 0036 1C33     		adds	r3, r3, #28
 801 0038 1846     		mov	r0, r3
 802 003a FFF7FEFF 		bl	chSemFastWaitI
 803              		.loc 5 226 0
 804 003e 019B     		ldr	r3, [sp, #4]
 805 0040 9B68     		ldr	r3, [r3, #8]
 806 0042 191D     		adds	r1, r3, #4
 807 0044 019A     		ldr	r2, [sp, #4]
 808 0046 9160     		str	r1, [r2, #8]
 809 0048 009A     		ldr	r2, [sp]
 810 004a 1A60     		str	r2, [r3]
 811              		.loc 5 227 0
 812 004c 019B     		ldr	r3, [sp, #4]
 813 004e 9A68     		ldr	r2, [r3, #8]
 814 0050 019B     		ldr	r3, [sp, #4]
 815 0052 5B68     		ldr	r3, [r3, #4]
 816 0054 9A42     		cmp	r2, r3
 817 0056 03D3     		bcc	.L59
 818              		.loc 5 228 0
 819 0058 019B     		ldr	r3, [sp, #4]
 820 005a 1A68     		ldr	r2, [r3]
 821 005c 019B     		ldr	r3, [sp, #4]
 822 005e 9A60     		str	r2, [r3, #8]
 823              	.L59:
 824              		.loc 5 230 0
 825 0060 019B     		ldr	r3, [sp, #4]
 826 0062 1033     		adds	r3, r3, #16
 827 0064 1846     		mov	r0, r3
 828 0066 FFF7FEFF 		bl	chSemSignalI
 829              		.loc 5 232 0
 830 006a 0023     		movs	r3, #0
 831              	.L58:
 832              		.loc 5 233 0
 833 006c 1846     		mov	r0, r3
 834 006e 054B     		ldr	r3, .L61
 835 0070 039A     		ldr	r2, [sp, #12]
 836 0072 1B68     		ldr	r3, [r3]
 837 0074 9A42     		cmp	r2, r3
 838 0076 01D0     		beq	.L60
 839 0078 FFF7FEFF 		bl	__stack_chk_fail
 840              	.L60:
 841 007c 05B0     		add	sp, sp, #20
 842              		.cfi_def_cfa_offset 4
 843              		@ sp needed
 844 007e 5DF804FB 		ldr	pc, [sp], #4
 845              	.L62:
 846 0082 00BF     		.align	2
 847              	.L61:
 848 0084 00000000 		.word	__stack_chk_guard
 849 0088 00000000 		.word	__func__.7876
 850              		.cfi_endproc
 851              	.LFE224:
 852              		.size	chMBPostI, .-chMBPostI
 853              		.section	.text.chMBPostAhead,"ax",%progbits
 854              		.align	1
 855              		.p2align 4,,15
ARM GAS  C:\Users\PCHAUT~1\AppData\Local\Temp\ccRqVguf.s 			page 16


 856              		.global	chMBPostAhead
 857              		.syntax unified
 858              		.thumb
 859              		.thumb_func
 860              		.fpu fpv4-sp-d16
 861              		.type	chMBPostAhead, %function
 862              	chMBPostAhead:
 863              	.LFB225:
 864              		.loc 5 254 0
 865              		.cfi_startproc
 866              		@ args = 0, pretend = 0, frame = 24
 867              		@ frame_needed = 0, uses_anonymous_args = 0
 868 0000 00B5     		push	{lr}
 869              		.cfi_def_cfa_offset 4
 870              		.cfi_offset 14, -4
 871 0002 87B0     		sub	sp, sp, #28
 872              		.cfi_def_cfa_offset 32
 873 0004 0390     		str	r0, [sp, #12]
 874 0006 0291     		str	r1, [sp, #8]
 875 0008 0192     		str	r2, [sp, #4]
 876              		.loc 5 254 0
 877 000a 0C4B     		ldr	r3, .L66
 878 000c 1B68     		ldr	r3, [r3]
 879 000e 0593     		str	r3, [sp, #20]
 880              		.loc 5 257 0
 881 0010 FFF7FEFF 		bl	chSysLock
 882              		.loc 5 258 0
 883 0014 019A     		ldr	r2, [sp, #4]
 884 0016 0299     		ldr	r1, [sp, #8]
 885 0018 0398     		ldr	r0, [sp, #12]
 886 001a FFF7FEFF 		bl	chMBPostAheadS
 887 001e 0490     		str	r0, [sp, #16]
 888              		.loc 5 259 0
 889 0020 FFF7FEFF 		bl	chSysUnlock
 890              		.loc 5 261 0
 891 0024 049B     		ldr	r3, [sp, #16]
 892              		.loc 5 262 0
 893 0026 1846     		mov	r0, r3
 894 0028 044B     		ldr	r3, .L66
 895 002a 059A     		ldr	r2, [sp, #20]
 896 002c 1B68     		ldr	r3, [r3]
 897 002e 9A42     		cmp	r2, r3
 898 0030 01D0     		beq	.L65
 899 0032 FFF7FEFF 		bl	__stack_chk_fail
 900              	.L65:
 901 0036 07B0     		add	sp, sp, #28
 902              		.cfi_def_cfa_offset 4
 903              		@ sp needed
 904 0038 5DF804FB 		ldr	pc, [sp], #4
 905              	.L67:
 906              		.align	2
 907              	.L66:
 908 003c 00000000 		.word	__stack_chk_guard
 909              		.cfi_endproc
 910              	.LFE225:
 911              		.size	chMBPostAhead, .-chMBPostAhead
 912              		.section	.text.chMBPostAheadS,"ax",%progbits
ARM GAS  C:\Users\PCHAUT~1\AppData\Local\Temp\ccRqVguf.s 			page 17


 913              		.align	1
 914              		.p2align 4,,15
 915              		.global	chMBPostAheadS
 916              		.syntax unified
 917              		.thumb
 918              		.thumb_func
 919              		.fpu fpv4-sp-d16
 920              		.type	chMBPostAheadS, %function
 921              	chMBPostAheadS:
 922              	.LFB226:
 923              		.loc 5 283 0
 924              		.cfi_startproc
 925              		@ args = 0, pretend = 0, frame = 24
 926              		@ frame_needed = 0, uses_anonymous_args = 0
 927 0000 00B5     		push	{lr}
 928              		.cfi_def_cfa_offset 4
 929              		.cfi_offset 14, -4
 930 0002 87B0     		sub	sp, sp, #28
 931              		.cfi_def_cfa_offset 32
 932 0004 0390     		str	r0, [sp, #12]
 933 0006 0291     		str	r1, [sp, #8]
 934 0008 0192     		str	r2, [sp, #4]
 935              		.loc 5 283 0
 936 000a 1E4B     		ldr	r3, .L74
 937 000c 1B68     		ldr	r3, [r3]
 938 000e 0593     		str	r3, [sp, #20]
 939              		.loc 5 286 0
 940 0010 FFF7FEFF 		bl	chDbgCheckClassS
 941              		.loc 5 287 0
 942 0014 039B     		ldr	r3, [sp, #12]
 943 0016 002B     		cmp	r3, #0
 944 0018 02D1     		bne	.L69
 945              		.loc 5 287 0 is_stmt 0 discriminator 2
 946 001a 1B48     		ldr	r0, .L74+4
 947 001c FFF7FEFF 		bl	chSysHalt
 948              	.L69:
 949              		.loc 5 289 0 is_stmt 1
 950 0020 039B     		ldr	r3, [sp, #12]
 951 0022 1C33     		adds	r3, r3, #28
 952 0024 0199     		ldr	r1, [sp, #4]
 953 0026 1846     		mov	r0, r3
 954 0028 FFF7FEFF 		bl	chSemWaitTimeoutS
 955 002c 0490     		str	r0, [sp, #16]
 956              		.loc 5 290 0
 957 002e 049B     		ldr	r3, [sp, #16]
 958 0030 002B     		cmp	r3, #0
 959 0032 1AD1     		bne	.L70
 960              		.loc 5 291 0
 961 0034 039B     		ldr	r3, [sp, #12]
 962 0036 DB68     		ldr	r3, [r3, #12]
 963 0038 1A1F     		subs	r2, r3, #4
 964 003a 039B     		ldr	r3, [sp, #12]
 965 003c DA60     		str	r2, [r3, #12]
 966 003e 039B     		ldr	r3, [sp, #12]
 967 0040 DA68     		ldr	r2, [r3, #12]
 968 0042 039B     		ldr	r3, [sp, #12]
 969 0044 1B68     		ldr	r3, [r3]
ARM GAS  C:\Users\PCHAUT~1\AppData\Local\Temp\ccRqVguf.s 			page 18


 970 0046 9A42     		cmp	r2, r3
 971 0048 04D2     		bcs	.L71
 972              		.loc 5 292 0
 973 004a 039B     		ldr	r3, [sp, #12]
 974 004c 5B68     		ldr	r3, [r3, #4]
 975 004e 1A1F     		subs	r2, r3, #4
 976 0050 039B     		ldr	r3, [sp, #12]
 977 0052 DA60     		str	r2, [r3, #12]
 978              	.L71:
 979              		.loc 5 294 0
 980 0054 039B     		ldr	r3, [sp, #12]
 981 0056 DB68     		ldr	r3, [r3, #12]
 982 0058 029A     		ldr	r2, [sp, #8]
 983 005a 1A60     		str	r2, [r3]
 984              		.loc 5 295 0
 985 005c 039B     		ldr	r3, [sp, #12]
 986 005e 1033     		adds	r3, r3, #16
 987 0060 1846     		mov	r0, r3
 988 0062 FFF7FEFF 		bl	chSemSignalI
 989              		.loc 5 296 0
 990 0066 FFF7FEFF 		bl	chSchRescheduleS
 991              	.L70:
 992              		.loc 5 299 0
 993 006a 049B     		ldr	r3, [sp, #16]
 994              		.loc 5 300 0
 995 006c 1846     		mov	r0, r3
 996 006e 054B     		ldr	r3, .L74
 997 0070 059A     		ldr	r2, [sp, #20]
 998 0072 1B68     		ldr	r3, [r3]
 999 0074 9A42     		cmp	r2, r3
 1000 0076 01D0     		beq	.L73
 1001 0078 FFF7FEFF 		bl	__stack_chk_fail
 1002              	.L73:
 1003 007c 07B0     		add	sp, sp, #28
 1004              		.cfi_def_cfa_offset 4
 1005              		@ sp needed
 1006 007e 5DF804FB 		ldr	pc, [sp], #4
 1007              	.L75:
 1008 0082 00BF     		.align	2
 1009              	.L74:
 1010 0084 00000000 		.word	__stack_chk_guard
 1011 0088 00000000 		.word	__func__.7889
 1012              		.cfi_endproc
 1013              	.LFE226:
 1014              		.size	chMBPostAheadS, .-chMBPostAheadS
 1015              		.section	.text.chMBPostAheadI,"ax",%progbits
 1016              		.align	1
 1017              		.p2align 4,,15
 1018              		.global	chMBPostAheadI
 1019              		.syntax unified
 1020              		.thumb
 1021              		.thumb_func
 1022              		.fpu fpv4-sp-d16
 1023              		.type	chMBPostAheadI, %function
 1024              	chMBPostAheadI:
 1025              	.LFB227:
 1026              		.loc 5 316 0
ARM GAS  C:\Users\PCHAUT~1\AppData\Local\Temp\ccRqVguf.s 			page 19


 1027              		.cfi_startproc
 1028              		@ args = 0, pretend = 0, frame = 16
 1029              		@ frame_needed = 0, uses_anonymous_args = 0
 1030 0000 00B5     		push	{lr}
 1031              		.cfi_def_cfa_offset 4
 1032              		.cfi_offset 14, -4
 1033 0002 85B0     		sub	sp, sp, #20
 1034              		.cfi_def_cfa_offset 24
 1035 0004 0190     		str	r0, [sp, #4]
 1036 0006 0091     		str	r1, [sp]
 1037              		.loc 5 316 0
 1038 0008 1F4B     		ldr	r3, .L82
 1039 000a 1B68     		ldr	r3, [r3]
 1040 000c 0393     		str	r3, [sp, #12]
 1041              		.loc 5 318 0
 1042 000e FFF7FEFF 		bl	chDbgCheckClassI
 1043              		.loc 5 319 0
 1044 0012 019B     		ldr	r3, [sp, #4]
 1045 0014 002B     		cmp	r3, #0
 1046 0016 02D1     		bne	.L77
 1047              		.loc 5 319 0 is_stmt 0 discriminator 2
 1048 0018 1C48     		ldr	r0, .L82+4
 1049 001a FFF7FEFF 		bl	chSysHalt
 1050              	.L77:
 1051              		.loc 5 321 0 is_stmt 1
 1052 001e 019B     		ldr	r3, [sp, #4]
 1053 0020 1C33     		adds	r3, r3, #28
 1054 0022 1846     		mov	r0, r3
 1055 0024 FFF7FEFF 		bl	chSemGetCounterI
 1056 0028 0346     		mov	r3, r0
 1057 002a 002B     		cmp	r3, #0
 1058 002c 02DC     		bgt	.L78
 1059              		.loc 5 322 0
 1060 002e 4FF0FF33 		mov	r3, #-1
 1061 0032 1EE0     		b	.L79
 1062              	.L78:
 1063              		.loc 5 324 0
 1064 0034 019B     		ldr	r3, [sp, #4]
 1065 0036 1C33     		adds	r3, r3, #28
 1066 0038 1846     		mov	r0, r3
 1067 003a FFF7FEFF 		bl	chSemFastWaitI
 1068              		.loc 5 325 0
 1069 003e 019B     		ldr	r3, [sp, #4]
 1070 0040 DB68     		ldr	r3, [r3, #12]
 1071 0042 1A1F     		subs	r2, r3, #4
 1072 0044 019B     		ldr	r3, [sp, #4]
 1073 0046 DA60     		str	r2, [r3, #12]
 1074 0048 019B     		ldr	r3, [sp, #4]
 1075 004a DA68     		ldr	r2, [r3, #12]
 1076 004c 019B     		ldr	r3, [sp, #4]
 1077 004e 1B68     		ldr	r3, [r3]
 1078 0050 9A42     		cmp	r2, r3
 1079 0052 04D2     		bcs	.L80
 1080              		.loc 5 326 0
 1081 0054 019B     		ldr	r3, [sp, #4]
 1082 0056 5B68     		ldr	r3, [r3, #4]
 1083 0058 1A1F     		subs	r2, r3, #4
ARM GAS  C:\Users\PCHAUT~1\AppData\Local\Temp\ccRqVguf.s 			page 20


 1084 005a 019B     		ldr	r3, [sp, #4]
 1085 005c DA60     		str	r2, [r3, #12]
 1086              	.L80:
 1087              		.loc 5 328 0
 1088 005e 019B     		ldr	r3, [sp, #4]
 1089 0060 DB68     		ldr	r3, [r3, #12]
 1090 0062 009A     		ldr	r2, [sp]
 1091 0064 1A60     		str	r2, [r3]
 1092              		.loc 5 329 0
 1093 0066 019B     		ldr	r3, [sp, #4]
 1094 0068 1033     		adds	r3, r3, #16
 1095 006a 1846     		mov	r0, r3
 1096 006c FFF7FEFF 		bl	chSemSignalI
 1097              		.loc 5 331 0
 1098 0070 0023     		movs	r3, #0
 1099              	.L79:
 1100              		.loc 5 332 0
 1101 0072 1846     		mov	r0, r3
 1102 0074 044B     		ldr	r3, .L82
 1103 0076 039A     		ldr	r2, [sp, #12]
 1104 0078 1B68     		ldr	r3, [r3]
 1105 007a 9A42     		cmp	r2, r3
 1106 007c 01D0     		beq	.L81
 1107 007e FFF7FEFF 		bl	__stack_chk_fail
 1108              	.L81:
 1109 0082 05B0     		add	sp, sp, #20
 1110              		.cfi_def_cfa_offset 4
 1111              		@ sp needed
 1112 0084 5DF804FB 		ldr	pc, [sp], #4
 1113              	.L83:
 1114              		.align	2
 1115              	.L82:
 1116 0088 00000000 		.word	__stack_chk_guard
 1117 008c 00000000 		.word	__func__.7894
 1118              		.cfi_endproc
 1119              	.LFE227:
 1120              		.size	chMBPostAheadI, .-chMBPostAheadI
 1121              		.section	.text.chMBFetch,"ax",%progbits
 1122              		.align	1
 1123              		.p2align 4,,15
 1124              		.global	chMBFetch
 1125              		.syntax unified
 1126              		.thumb
 1127              		.thumb_func
 1128              		.fpu fpv4-sp-d16
 1129              		.type	chMBFetch, %function
 1130              	chMBFetch:
 1131              	.LFB228:
 1132              		.loc 5 353 0
 1133              		.cfi_startproc
 1134              		@ args = 0, pretend = 0, frame = 24
 1135              		@ frame_needed = 0, uses_anonymous_args = 0
 1136 0000 00B5     		push	{lr}
 1137              		.cfi_def_cfa_offset 4
 1138              		.cfi_offset 14, -4
 1139 0002 87B0     		sub	sp, sp, #28
 1140              		.cfi_def_cfa_offset 32
ARM GAS  C:\Users\PCHAUT~1\AppData\Local\Temp\ccRqVguf.s 			page 21


 1141 0004 0390     		str	r0, [sp, #12]
 1142 0006 0291     		str	r1, [sp, #8]
 1143 0008 0192     		str	r2, [sp, #4]
 1144              		.loc 5 353 0
 1145 000a 0C4B     		ldr	r3, .L87
 1146 000c 1B68     		ldr	r3, [r3]
 1147 000e 0593     		str	r3, [sp, #20]
 1148              		.loc 5 356 0
 1149 0010 FFF7FEFF 		bl	chSysLock
 1150              		.loc 5 357 0
 1151 0014 019A     		ldr	r2, [sp, #4]
 1152 0016 0299     		ldr	r1, [sp, #8]
 1153 0018 0398     		ldr	r0, [sp, #12]
 1154 001a FFF7FEFF 		bl	chMBFetchS
 1155 001e 0490     		str	r0, [sp, #16]
 1156              		.loc 5 358 0
 1157 0020 FFF7FEFF 		bl	chSysUnlock
 1158              		.loc 5 360 0
 1159 0024 049B     		ldr	r3, [sp, #16]
 1160              		.loc 5 361 0
 1161 0026 1846     		mov	r0, r3
 1162 0028 044B     		ldr	r3, .L87
 1163 002a 059A     		ldr	r2, [sp, #20]
 1164 002c 1B68     		ldr	r3, [r3]
 1165 002e 9A42     		cmp	r2, r3
 1166 0030 01D0     		beq	.L86
 1167 0032 FFF7FEFF 		bl	__stack_chk_fail
 1168              	.L86:
 1169 0036 07B0     		add	sp, sp, #28
 1170              		.cfi_def_cfa_offset 4
 1171              		@ sp needed
 1172 0038 5DF804FB 		ldr	pc, [sp], #4
 1173              	.L88:
 1174              		.align	2
 1175              	.L87:
 1176 003c 00000000 		.word	__stack_chk_guard
 1177              		.cfi_endproc
 1178              	.LFE228:
 1179              		.size	chMBFetch, .-chMBFetch
 1180              		.section	.text.chMBFetchS,"ax",%progbits
 1181              		.align	1
 1182              		.p2align 4,,15
 1183              		.global	chMBFetchS
 1184              		.syntax unified
 1185              		.thumb
 1186              		.thumb_func
 1187              		.fpu fpv4-sp-d16
 1188              		.type	chMBFetchS, %function
 1189              	chMBFetchS:
 1190              	.LFB229:
 1191              		.loc 5 382 0
 1192              		.cfi_startproc
 1193              		@ args = 0, pretend = 0, frame = 24
 1194              		@ frame_needed = 0, uses_anonymous_args = 0
 1195 0000 00B5     		push	{lr}
 1196              		.cfi_def_cfa_offset 4
 1197              		.cfi_offset 14, -4
ARM GAS  C:\Users\PCHAUT~1\AppData\Local\Temp\ccRqVguf.s 			page 22


 1198 0002 87B0     		sub	sp, sp, #28
 1199              		.cfi_def_cfa_offset 32
 1200 0004 0390     		str	r0, [sp, #12]
 1201 0006 0291     		str	r1, [sp, #8]
 1202 0008 0192     		str	r2, [sp, #4]
 1203              		.loc 5 382 0
 1204 000a 1E4B     		ldr	r3, .L96
 1205 000c 1B68     		ldr	r3, [r3]
 1206 000e 0593     		str	r3, [sp, #20]
 1207              		.loc 5 385 0
 1208 0010 FFF7FEFF 		bl	chDbgCheckClassS
 1209              		.loc 5 386 0
 1210 0014 039B     		ldr	r3, [sp, #12]
 1211 0016 002B     		cmp	r3, #0
 1212 0018 02D0     		beq	.L90
 1213              		.loc 5 386 0 is_stmt 0 discriminator 3
 1214 001a 029B     		ldr	r3, [sp, #8]
 1215 001c 002B     		cmp	r3, #0
 1216 001e 02D1     		bne	.L91
 1217              	.L90:
 1218              		.loc 5 386 0 discriminator 4
 1219 0020 1948     		ldr	r0, .L96+4
 1220 0022 FFF7FEFF 		bl	chSysHalt
 1221              	.L91:
 1222              		.loc 5 388 0 is_stmt 1
 1223 0026 039B     		ldr	r3, [sp, #12]
 1224 0028 1033     		adds	r3, r3, #16
 1225 002a 0199     		ldr	r1, [sp, #4]
 1226 002c 1846     		mov	r0, r3
 1227 002e FFF7FEFF 		bl	chSemWaitTimeoutS
 1228 0032 0490     		str	r0, [sp, #16]
 1229              		.loc 5 389 0
 1230 0034 049B     		ldr	r3, [sp, #16]
 1231 0036 002B     		cmp	r3, #0
 1232 0038 18D1     		bne	.L92
 1233              		.loc 5 390 0
 1234 003a 039B     		ldr	r3, [sp, #12]
 1235 003c DB68     		ldr	r3, [r3, #12]
 1236 003e 191D     		adds	r1, r3, #4
 1237 0040 039A     		ldr	r2, [sp, #12]
 1238 0042 D160     		str	r1, [r2, #12]
 1239 0044 1A68     		ldr	r2, [r3]
 1240 0046 029B     		ldr	r3, [sp, #8]
 1241 0048 1A60     		str	r2, [r3]
 1242              		.loc 5 391 0
 1243 004a 039B     		ldr	r3, [sp, #12]
 1244 004c DA68     		ldr	r2, [r3, #12]
 1245 004e 039B     		ldr	r3, [sp, #12]
 1246 0050 5B68     		ldr	r3, [r3, #4]
 1247 0052 9A42     		cmp	r2, r3
 1248 0054 03D3     		bcc	.L93
 1249              		.loc 5 392 0
 1250 0056 039B     		ldr	r3, [sp, #12]
 1251 0058 1A68     		ldr	r2, [r3]
 1252 005a 039B     		ldr	r3, [sp, #12]
 1253 005c DA60     		str	r2, [r3, #12]
 1254              	.L93:
ARM GAS  C:\Users\PCHAUT~1\AppData\Local\Temp\ccRqVguf.s 			page 23


 1255              		.loc 5 394 0
 1256 005e 039B     		ldr	r3, [sp, #12]
 1257 0060 1C33     		adds	r3, r3, #28
 1258 0062 1846     		mov	r0, r3
 1259 0064 FFF7FEFF 		bl	chSemSignalI
 1260              		.loc 5 395 0
 1261 0068 FFF7FEFF 		bl	chSchRescheduleS
 1262              	.L92:
 1263              		.loc 5 398 0
 1264 006c 049B     		ldr	r3, [sp, #16]
 1265              		.loc 5 399 0
 1266 006e 1846     		mov	r0, r3
 1267 0070 044B     		ldr	r3, .L96
 1268 0072 059A     		ldr	r2, [sp, #20]
 1269 0074 1B68     		ldr	r3, [r3]
 1270 0076 9A42     		cmp	r2, r3
 1271 0078 01D0     		beq	.L95
 1272 007a FFF7FEFF 		bl	__stack_chk_fail
 1273              	.L95:
 1274 007e 07B0     		add	sp, sp, #28
 1275              		.cfi_def_cfa_offset 4
 1276              		@ sp needed
 1277 0080 5DF804FB 		ldr	pc, [sp], #4
 1278              	.L97:
 1279              		.align	2
 1280              	.L96:
 1281 0084 00000000 		.word	__stack_chk_guard
 1282 0088 00000000 		.word	__func__.7907
 1283              		.cfi_endproc
 1284              	.LFE229:
 1285              		.size	chMBFetchS, .-chMBFetchS
 1286              		.section	.text.chMBFetchI,"ax",%progbits
 1287              		.align	1
 1288              		.p2align 4,,15
 1289              		.global	chMBFetchI
 1290              		.syntax unified
 1291              		.thumb
 1292              		.thumb_func
 1293              		.fpu fpv4-sp-d16
 1294              		.type	chMBFetchI, %function
 1295              	chMBFetchI:
 1296              	.LFB230:
 1297              		.loc 5 415 0
 1298              		.cfi_startproc
 1299              		@ args = 0, pretend = 0, frame = 16
 1300              		@ frame_needed = 0, uses_anonymous_args = 0
 1301 0000 00B5     		push	{lr}
 1302              		.cfi_def_cfa_offset 4
 1303              		.cfi_offset 14, -4
 1304 0002 85B0     		sub	sp, sp, #20
 1305              		.cfi_def_cfa_offset 24
 1306 0004 0190     		str	r0, [sp, #4]
 1307 0006 0091     		str	r1, [sp]
 1308              		.loc 5 415 0
 1309 0008 204B     		ldr	r3, .L105
 1310 000a 1B68     		ldr	r3, [r3]
 1311 000c 0393     		str	r3, [sp, #12]
ARM GAS  C:\Users\PCHAUT~1\AppData\Local\Temp\ccRqVguf.s 			page 24


 1312              		.loc 5 417 0
 1313 000e FFF7FEFF 		bl	chDbgCheckClassI
 1314              		.loc 5 418 0
 1315 0012 019B     		ldr	r3, [sp, #4]
 1316 0014 002B     		cmp	r3, #0
 1317 0016 02D0     		beq	.L99
 1318              		.loc 5 418 0 is_stmt 0 discriminator 3
 1319 0018 009B     		ldr	r3, [sp]
 1320 001a 002B     		cmp	r3, #0
 1321 001c 02D1     		bne	.L100
 1322              	.L99:
 1323              		.loc 5 418 0 discriminator 4
 1324 001e 1C48     		ldr	r0, .L105+4
 1325 0020 FFF7FEFF 		bl	chSysHalt
 1326              	.L100:
 1327              		.loc 5 420 0 is_stmt 1
 1328 0024 019B     		ldr	r3, [sp, #4]
 1329 0026 1033     		adds	r3, r3, #16
 1330 0028 1846     		mov	r0, r3
 1331 002a FFF7FEFF 		bl	chSemGetCounterI
 1332 002e 0346     		mov	r3, r0
 1333 0030 002B     		cmp	r3, #0
 1334 0032 02DC     		bgt	.L101
 1335              		.loc 5 421 0
 1336 0034 4FF0FF33 		mov	r3, #-1
 1337 0038 1CE0     		b	.L102
 1338              	.L101:
 1339              		.loc 5 423 0
 1340 003a 019B     		ldr	r3, [sp, #4]
 1341 003c 1033     		adds	r3, r3, #16
 1342 003e 1846     		mov	r0, r3
 1343 0040 FFF7FEFF 		bl	chSemFastWaitI
 1344              		.loc 5 424 0
 1345 0044 019B     		ldr	r3, [sp, #4]
 1346 0046 DB68     		ldr	r3, [r3, #12]
 1347 0048 191D     		adds	r1, r3, #4
 1348 004a 019A     		ldr	r2, [sp, #4]
 1349 004c D160     		str	r1, [r2, #12]
 1350 004e 1A68     		ldr	r2, [r3]
 1351 0050 009B     		ldr	r3, [sp]
 1352 0052 1A60     		str	r2, [r3]
 1353              		.loc 5 425 0
 1354 0054 019B     		ldr	r3, [sp, #4]
 1355 0056 DA68     		ldr	r2, [r3, #12]
 1356 0058 019B     		ldr	r3, [sp, #4]
 1357 005a 5B68     		ldr	r3, [r3, #4]
 1358 005c 9A42     		cmp	r2, r3
 1359 005e 03D3     		bcc	.L103
 1360              		.loc 5 426 0
 1361 0060 019B     		ldr	r3, [sp, #4]
 1362 0062 1A68     		ldr	r2, [r3]
 1363 0064 019B     		ldr	r3, [sp, #4]
 1364 0066 DA60     		str	r2, [r3, #12]
 1365              	.L103:
 1366              		.loc 5 428 0
 1367 0068 019B     		ldr	r3, [sp, #4]
 1368 006a 1C33     		adds	r3, r3, #28
ARM GAS  C:\Users\PCHAUT~1\AppData\Local\Temp\ccRqVguf.s 			page 25


 1369 006c 1846     		mov	r0, r3
 1370 006e FFF7FEFF 		bl	chSemSignalI
 1371              		.loc 5 430 0
 1372 0072 0023     		movs	r3, #0
 1373              	.L102:
 1374              		.loc 5 431 0
 1375 0074 1846     		mov	r0, r3
 1376 0076 054B     		ldr	r3, .L105
 1377 0078 039A     		ldr	r2, [sp, #12]
 1378 007a 1B68     		ldr	r3, [r3]
 1379 007c 9A42     		cmp	r2, r3
 1380 007e 01D0     		beq	.L104
 1381 0080 FFF7FEFF 		bl	__stack_chk_fail
 1382              	.L104:
 1383 0084 05B0     		add	sp, sp, #20
 1384              		.cfi_def_cfa_offset 4
 1385              		@ sp needed
 1386 0086 5DF804FB 		ldr	pc, [sp], #4
 1387              	.L106:
 1388 008a 00BF     		.align	2
 1389              	.L105:
 1390 008c 00000000 		.word	__stack_chk_guard
 1391 0090 00000000 		.word	__func__.7912
 1392              		.cfi_endproc
 1393              	.LFE230:
 1394              		.size	chMBFetchI, .-chMBFetchI
 1395              		.section	.rodata.__func__.7851,"a",%progbits
 1396              		.align	2
 1397              		.type	__func__.7851, %object
 1398              		.size	__func__.7851, 15
 1399              	__func__.7851:
 1400 0000 63684D42 		.ascii	"chMBObjectInit\000"
 1400      4F626A65 
 1400      6374496E 
 1400      697400
 1401              		.section	.rodata.__func__.7153,"a",%progbits
 1402              		.align	2
 1403              		.type	__func__.7153, %object
 1404              		.size	__func__.7153, 12
 1405              	__func__.7153:
 1406 0000 63685379 		.ascii	"chSysUnlock\000"
 1406      73556E6C 
 1406      6F636B00 
 1407              		.section	.rodata.__func__.7858,"a",%progbits
 1408              		.align	2
 1409              		.type	__func__.7858, %object
 1410              		.size	__func__.7858, 11
 1411              	__func__.7858:
 1412 0000 63684D42 		.ascii	"chMBResetI\000"
 1412      52657365 
 1412      744900
 1413              		.section	.rodata.__func__.7871,"a",%progbits
 1414              		.align	2
 1415              		.type	__func__.7871, %object
 1416              		.size	__func__.7871, 10
 1417              	__func__.7871:
 1418 0000 63684D42 		.ascii	"chMBPostS\000"
ARM GAS  C:\Users\PCHAUT~1\AppData\Local\Temp\ccRqVguf.s 			page 26


 1418      506F7374 
 1418      5300
 1419              		.section	.rodata.__func__.7876,"a",%progbits
 1420              		.align	2
 1421              		.type	__func__.7876, %object
 1422              		.size	__func__.7876, 10
 1423              	__func__.7876:
 1424 0000 63684D42 		.ascii	"chMBPostI\000"
 1424      506F7374 
 1424      4900
 1425              		.section	.rodata.__func__.7889,"a",%progbits
 1426              		.align	2
 1427              		.type	__func__.7889, %object
 1428              		.size	__func__.7889, 15
 1429              	__func__.7889:
 1430 0000 63684D42 		.ascii	"chMBPostAheadS\000"
 1430      506F7374 
 1430      41686561 
 1430      645300
 1431              		.section	.rodata.__func__.7894,"a",%progbits
 1432              		.align	2
 1433              		.type	__func__.7894, %object
 1434              		.size	__func__.7894, 15
 1435              	__func__.7894:
 1436 0000 63684D42 		.ascii	"chMBPostAheadI\000"
 1436      506F7374 
 1436      41686561 
 1436      644900
 1437              		.section	.rodata.__func__.7907,"a",%progbits
 1438              		.align	2
 1439              		.type	__func__.7907, %object
 1440              		.size	__func__.7907, 11
 1441              	__func__.7907:
 1442 0000 63684D42 		.ascii	"chMBFetchS\000"
 1442      46657463 
 1442      685300
 1443              		.section	.rodata.__func__.7912,"a",%progbits
 1444              		.align	2
 1445              		.type	__func__.7912, %object
 1446              		.size	__func__.7912, 11
 1447              	__func__.7912:
 1448 0000 63684D42 		.ascii	"chMBFetchI\000"
 1448      46657463 
 1448      684900
 1449              		.text
 1450              	.Letext0:
 1451              		.file 6 "c:\\users\\pchautems\\documents\\robotiquetp\\eclipse_e-puck2\\tools\\gcc-arm-none-eabi-7
 1452              		.file 7 "c:\\users\\pchautems\\documents\\robotiquetp\\eclipse_e-puck2\\tools\\gcc-arm-none-eabi-7
 1453              		.file 8 "../lib/e-puck2_main-processor/ChibiOS//os/rt/ports/ARMCMx/compilers/GCC/chtypes.h"
 1454              		.file 9 "../lib/e-puck2_main-processor/ChibiOS//os/rt/include/chsystypes.h"
 1455              		.file 10 "../lib/e-puck2_main-processor/ChibiOS//os/rt/include/chschd.h"
 1456              		.file 11 "../lib/e-puck2_main-processor/ChibiOS//os/ext/CMSIS/include/core_cm4.h"
 1457              		.file 12 "../lib/e-puck2_main-processor/ChibiOS//os/ext/CMSIS/ST/system_stm32f4xx.h"
 1458              		.file 13 "../lib/e-puck2_main-processor/ChibiOS//os/rt/ports/ARMCMx/chcore.h"
 1459              		.file 14 "../lib/e-puck2_main-processor/ChibiOS//os/rt/include/chdebug.h"
 1460              		.file 15 "../lib/e-puck2_main-processor/ChibiOS//os/rt/include/chtm.h"
 1461              		.file 16 "../lib/e-puck2_main-processor/ChibiOS//os/rt/include/chstats.h"
ARM GAS  C:\Users\PCHAUT~1\AppData\Local\Temp\ccRqVguf.s 			page 27


 1462              		.file 17 "../lib/e-puck2_main-processor/ChibiOS//os/rt/include/chmtx.h"
 1463              		.file 18 "../lib/e-puck2_main-processor/ChibiOS//os/rt/include/chregistry.h"
 1464              		.file 19 "../lib/e-puck2_main-processor/ChibiOS//os/rt/include/chmboxes.h"