ARM GAS  C:\Users\PCHAUT~1\AppData\Local\Temp\ccRqVguf.s 			page 1


   1              		.cpu cortex-m4
   2              		.eabi_attribute 27, 1
   3              		.eabi_attribute 28, 1
   4              		.eabi_attribute 20, 1
   5              		.eabi_attribute 21, 1
   6              		.eabi_attribute 23, 3
   7              		.eabi_attribute 24, 1
   8              		.eabi_attribute 25, 1
   9              		.eabi_attribute 26, 1
  10              		.eabi_attribute 30, 6
  11              		.eabi_attribute 34, 1
  12              		.eabi_attribute 18, 4
  13              		.file	"chmboxes.c"
  14              		.text
  15              	.Ltext0:
  16              		.cfi_sections	.debug_frame
  17              		.section	.text.port_lock,"ax",%progbits
  18              		.align	1
  19              		.p2align 4,,15
  20              		.syntax unified
  21              		.thumb
  22              		.thumb_func
  23              		.fpu fpv4-sp-d16
  24              		.type	port_lock, %function
  25              	port_lock:
  26              	.LFB116:
  27              		.file 1 "../lib/e-puck2_main-processor/ChibiOS//os/rt/ports/ARMCMx/chcore_v7m.h"
  28              		.loc 1 444 0
  29              		.cfi_startproc
  30              		@ args = 0, pretend = 0, frame = 8
  31              		@ frame_needed = 0, uses_anonymous_args = 0
  32 0000 00B5     		push	{lr}
  33              		.cfi_def_cfa_offset 4
  34              		.cfi_offset 14, -4
  35 0002 83B0     		sub	sp, sp, #12
  36              		.cfi_def_cfa_offset 16
  37              		.loc 1 444 0
  38 0004 094B     		ldr	r3, .L3
  39 0006 1B68     		ldr	r3, [r3]
  40 0008 0193     		str	r3, [sp, #4]
  41 000a 2023     		movs	r3, #32
  42 000c 0093     		str	r3, [sp]
  43              	.LBB6:
  44              	.LBB7:
  45              		.file 2 "../lib/e-puck2_main-processor/ChibiOS//os/ext/CMSIS/include/core_cmFunc.h"
  46              		.loc 2 546 0
  47 000e 009B     		ldr	r3, [sp]
  48              		.syntax unified
  49              	@ 546 "../lib/e-puck2_main-processor/ChibiOS//os/ext/CMSIS/include/core_cmFunc.h" 1
  50 0010 83F31188 		MSR basepri, r3
  51              	@ 0 "" 2
  52              		.thumb
  53              		.syntax unified
  54              	.LBE7:
  55              	.LBE6:
  56              		.loc 1 451 0
  57 0014 00BF     		nop
ARM GAS  C:\Users\PCHAUT~1\AppData\Local\Temp\ccRqVguf.s 			page 2


  58 0016 054B     		ldr	r3, .L3
  59 0018 019A     		ldr	r2, [sp, #4]
  60 001a 1B68     		ldr	r3, [r3]
  61 001c 9A42     		cmp	r2, r3
  62 001e 01D0     		beq	.L2
  63 0020 FFF7FEFF 		bl	__stack_chk_fail
  64              	.L2:
  65 0024 03B0     		add	sp, sp, #12
  66              		.cfi_def_cfa_offset 4
  67              		@ sp needed
  68 0026 5DF804FB 		ldr	pc, [sp], #4
  69              	.L4:
  70 002a 00BF     		.align	2
  71              	.L3:
  72 002c 00000000 		.word	__stack_chk_guard
  73              		.cfi_endproc
  74              	.LFE116:
  75              		.size	port_lock, .-port_lock
  76              		.section	.text.port_unlock,"ax",%progbits
  77              		.align	1
  78              		.p2align 4,,15
  79              		.syntax unified
  80              		.thumb
  81              		.thumb_func
  82              		.fpu fpv4-sp-d16
  83              		.type	port_unlock, %function
  84              	port_unlock:
  85              	.LFB117:
  86              		.loc 1 458 0
  87              		.cfi_startproc
  88              		@ args = 0, pretend = 0, frame = 8
  89              		@ frame_needed = 0, uses_anonymous_args = 0
  90 0000 00B5     		push	{lr}
  91              		.cfi_def_cfa_offset 4
  92              		.cfi_offset 14, -4
  93 0002 83B0     		sub	sp, sp, #12
  94              		.cfi_def_cfa_offset 16
  95              		.loc 1 458 0
  96 0004 094B     		ldr	r3, .L7
  97 0006 1B68     		ldr	r3, [r3]
  98 0008 0193     		str	r3, [sp, #4]
  99 000a 0023     		movs	r3, #0
 100 000c 0093     		str	r3, [sp]
 101              	.LBB8:
 102              	.LBB9:
 103              		.loc 2 546 0
 104 000e 009B     		ldr	r3, [sp]
 105              		.syntax unified
 106              	@ 546 "../lib/e-puck2_main-processor/ChibiOS//os/ext/CMSIS/include/core_cmFunc.h" 1
 107 0010 83F31188 		MSR basepri, r3
 108              	@ 0 "" 2
 109              		.thumb
 110              		.syntax unified
 111              	.LBE9:
 112              	.LBE8:
 113              		.loc 1 465 0
 114 0014 00BF     		nop
ARM GAS  C:\Users\PCHAUT~1\AppData\Local\Temp\ccRqVguf.s 			page 3


 115 0016 054B     		ldr	r3, .L7
 116 0018 019A     		ldr	r2, [sp, #4]
 117 001a 1B68     		ldr	r3, [r3]
 118 001c 9A42     		cmp	r2, r3
 119 001e 01D0     		beq	.L6
 120 0020 FFF7FEFF 		bl	__stack_chk_fail
 121              	.L6:
 122 0024 03B0     		add	sp, sp, #12
 123              		.cfi_def_cfa_offset 4
 124              		@ sp needed
 125 0026 5DF804FB 		ldr	pc, [sp], #4
 126              	.L8:
 127 002a 00BF     		.align	2
 128              	.L7:
 129 002c 00000000 		.word	__stack_chk_guard
 130              		.cfi_endproc
 131              	.LFE117:
 132              		.size	port_unlock, .-port_unlock
 133              		.section	.text.chSysLock,"ax",%progbits
 134              		.align	1
 135              		.p2align 4,,15
 136              		.syntax unified
 137              		.thumb
 138              		.thumb_func
 139              		.fpu fpv4-sp-d16
 140              		.type	chSysLock, %function
 141              	chSysLock:
 142              	.LFB145:
 143              		.file 3 "../lib/e-puck2_main-processor/ChibiOS//os/rt/include/chsys.h"
 144              		.loc 3 346 0
 145              		.cfi_startproc
 146              		@ args = 0, pretend = 0, frame = 8
 147              		@ frame_needed = 0, uses_anonymous_args = 0
 148 0000 00B5     		push	{lr}
 149              		.cfi_def_cfa_offset 4
 150              		.cfi_offset 14, -4
 151 0002 83B0     		sub	sp, sp, #12
 152              		.cfi_def_cfa_offset 16
 153              		.loc 3 346 0
 154 0004 094B     		ldr	r3, .L11
 155 0006 1B68     		ldr	r3, [r3]
 156 0008 0193     		str	r3, [sp, #4]
 157              		.loc 3 348 0
 158 000a FFF7FEFF 		bl	port_lock
 159              		.loc 3 349 0
 160 000e FFF7FEFF 		bl	_stats_start_measure_crit_thd
 161              		.loc 3 350 0
 162 0012 FFF7FEFF 		bl	_dbg_check_lock
 163              		.loc 3 351 0
 164 0016 00BF     		nop
 165 0018 044B     		ldr	r3, .L11
 166 001a 019A     		ldr	r2, [sp, #4]
 167 001c 1B68     		ldr	r3, [r3]
 168 001e 9A42     		cmp	r2, r3
 169 0020 01D0     		beq	.L10
 170 0022 FFF7FEFF 		bl	__stack_chk_fail
 171              	.L10:
ARM GAS  C:\Users\PCHAUT~1\AppData\Local\Temp\ccRqVguf.s 			page 4


 172 0026 03B0     		add	sp, sp, #12
 173              		.cfi_def_cfa_offset 4
 174              		@ sp needed
 175 0028 5DF804FB 		ldr	pc, [sp], #4
 176              	.L12:
 177              		.align	2
 178              	.L11:
 179 002c 00000000 		.word	__stack_chk_guard
 180              		.cfi_endproc
 181              	.LFE145:
 182              		.size	chSysLock, .-chSysLock
 183              		.section	.text.chSysUnlock,"ax",%progbits
 184              		.align	1
 185              		.p2align 4,,15
 186              		.syntax unified
 187              		.thumb
 188              		.thumb_func
 189              		.fpu fpv4-sp-d16
 190              		.type	chSysUnlock, %function
 191              	chSysUnlock:
 192              	.LFB146:
 193              		.loc 3 358 0
 194              		.cfi_startproc
 195              		@ args = 0, pretend = 0, frame = 8
 196              		@ frame_needed = 0, uses_anonymous_args = 0
 197 0000 00B5     		push	{lr}
 198              		.cfi_def_cfa_offset 4
 199              		.cfi_offset 14, -4
 200 0002 83B0     		sub	sp, sp, #12
 201              		.cfi_def_cfa_offset 16
 202              		.loc 3 358 0
 203 0004 114B     		ldr	r3, .L16
 204 0006 1B68     		ldr	r3, [r3]
 205 0008 0193     		str	r3, [sp, #4]
 206              		.loc 3 360 0
 207 000a FFF7FEFF 		bl	_dbg_check_unlock
 208              		.loc 3 361 0
 209 000e FFF7FEFF 		bl	_stats_stop_measure_crit_thd
 210              		.loc 3 367 0
 211 0012 0F4B     		ldr	r3, .L16+4
 212 0014 1B68     		ldr	r3, [r3]
 213 0016 0E4A     		ldr	r2, .L16+4
 214 0018 9342     		cmp	r3, r2
 215 001a 0AD0     		beq	.L14
 216              		.loc 3 367 0 is_stmt 0 discriminator 2
 217 001c 0C4B     		ldr	r3, .L16+4
 218 001e 9B69     		ldr	r3, [r3, #24]
 219 0020 9A68     		ldr	r2, [r3, #8]
 220 0022 0B4B     		ldr	r3, .L16+4
 221 0024 1B68     		ldr	r3, [r3]
 222 0026 9B68     		ldr	r3, [r3, #8]
 223 0028 9A42     		cmp	r2, r3
 224 002a 02D2     		bcs	.L14
 225              		.loc 3 367 0 discriminator 3
 226 002c 0948     		ldr	r0, .L16+8
 227 002e FFF7FEFF 		bl	chSysHalt
 228              	.L14:
ARM GAS  C:\Users\PCHAUT~1\AppData\Local\Temp\ccRqVguf.s 			page 5


 229              		.loc 3 371 0 is_stmt 1
 230 0032 FFF7FEFF 		bl	port_unlock
 231              		.loc 3 372 0
 232 0036 00BF     		nop
 233 0038 044B     		ldr	r3, .L16
 234 003a 019A     		ldr	r2, [sp, #4]
 235 003c 1B68     		ldr	r3, [r3]
 236 003e 9A42     		cmp	r2, r3
 237 0040 01D0     		beq	.L15
 238 0042 FFF7FEFF 		bl	__stack_chk_fail
 239              	.L15:
 240 0046 03B0     		add	sp, sp, #12
 241              		.cfi_def_cfa_offset 4
 242              		@ sp needed
 243 0048 5DF804FB 		ldr	pc, [sp], #4
 244              	.L17:
 245              		.align	2
 246              	.L16:
 247 004c 00000000 		.word	__stack_chk_guard
 248 0050 00000000 		.word	ch
 249 0054 00000000 		.word	__func__.7153
 250              		.cfi_endproc
 251              	.LFE146:
 252              		.size	chSysUnlock, .-chSysUnlock
 253              		.section	.text.chSemFastWaitI,"ax",%progbits
 254              		.align	1
 255              		.p2align 4,,15
 256              		.syntax unified
 257              		.thumb
 258              		.thumb_func
 259              		.fpu fpv4-sp-d16
 260              		.type	chSemFastWaitI, %function
 261              	chSemFastWaitI:
 262              	.LFB179:
 263              		.file 4 "../lib/e-puck2_main-processor/ChibiOS//os/rt/include/chsem.h"
 264              		.loc 4 118 0
 265              		.cfi_startproc
 266              		@ args = 0, pretend = 0, frame = 16
 267              		@ frame_needed = 0, uses_anonymous_args = 0
 268 0000 00B5     		push	{lr}
 269              		.cfi_def_cfa_offset 4
 270              		.cfi_offset 14, -4
 271 0002 85B0     		sub	sp, sp, #20
 272              		.cfi_def_cfa_offset 24
 273 0004 0190     		str	r0, [sp, #4]
 274              		.loc 4 118 0
 275 0006 0A4B     		ldr	r3, .L20
 276 0008 1B68     		ldr	r3, [r3]
 277 000a 0393     		str	r3, [sp, #12]
 278              		.loc 4 120 0
 279 000c FFF7FEFF 		bl	chDbgCheckClassI
 280              		.loc 4 122 0
 281 0010 019B     		ldr	r3, [sp, #4]
 282 0012 9B68     		ldr	r3, [r3, #8]
 283 0014 5A1E     		subs	r2, r3, #1
 284 0016 019B     		ldr	r3, [sp, #4]
 285 0018 9A60     		str	r2, [r3, #8]
ARM GAS  C:\Users\PCHAUT~1\AppData\Local\Temp\ccRqVguf.s 			page 6


 286              		.loc 4 123 0
 287 001a 00BF     		nop
 288 001c 044B     		ldr	r3, .L20
 289 001e 039A     		ldr	r2, [sp, #12]
 290 0020 1B68     		ldr	r3, [r3]
 291 0022 9A42     		cmp	r2, r3
 292 0024 01D0     		beq	.L19
 293 0026 FFF7FEFF 		bl	__stack_chk_fail
 294              	.L19:
 295 002a 05B0     		add	sp, sp, #20
 296              		.cfi_def_cfa_offset 4
 297              		@ sp needed
 298 002c 5DF804FB 		ldr	pc, [sp], #4
 299              	.L21:
 300              		.align	2
 301              	.L20:
 302 0030 00000000 		.word	__stack_chk_guard
 303              		.cfi_endproc
 304              	.LFE179:
 305              		.size	chSemFastWaitI, .-chSemFastWaitI
 306              		.section	.text.chSemGetCounterI,"ax",%progbits
 307              		.align	1
 308              		.p2align 4,,15
 309              		.syntax unified
 310              		.thumb
 311              		.thumb_func
 312              		.fpu fpv4-sp-d16
 313              		.type	chSemGetCounterI, %function
 314              	chSemGetCounterI:
 315              	.LFB181:
 316              		.loc 4 149 0
 317              		.cfi_startproc
 318              		@ args = 0, pretend = 0, frame = 16
 319              		@ frame_needed = 0, uses_anonymous_args = 0
 320 0000 00B5     		push	{lr}
 321              		.cfi_def_cfa_offset 4
 322              		.cfi_offset 14, -4
 323 0002 85B0     		sub	sp, sp, #20
 324              		.cfi_def_cfa_offset 24
 325 0004 0190     		str	r0, [sp, #4]
 326              		.loc 4 149 0
 327 0006 094B     		ldr	r3, .L25
 328 0008 1B68     		ldr	r3, [r3]
 329 000a 0393     		str	r3, [sp, #12]
 330              		.loc 4 151 0
 331 000c FFF7FEFF 		bl	chDbgCheckClassI
 332              		.loc 4 153 0
 333 0010 019B     		ldr	r3, [sp, #4]
 334 0012 9B68     		ldr	r3, [r3, #8]
 335              		.loc 4 154 0
 336 0014 1846     		mov	r0, r3
 337 0016 054B     		ldr	r3, .L25
 338 0018 039A     		ldr	r2, [sp, #12]
 339 001a 1B68     		ldr	r3, [r3]
 340 001c 9A42     		cmp	r2, r3
 341 001e 01D0     		beq	.L24
 342 0020 FFF7FEFF 		bl	__stack_chk_fail
ARM GAS  C:\Users\PCHAUT~1\AppData\Local\Temp\ccRqVguf.s 			page 7


 343              	.L24:
 344 0024 05B0     		add	sp, sp, #20
 345              		.cfi_def_cfa_offset 4
 346              		@ sp needed
 347 0026 5DF804FB 		ldr	pc, [sp], #4
 348              	.L26:
 349 002a 00BF     		.align	2
 350              	.L25:
 351 002c 00000000 		.word	__stack_chk_guard
 352              		.cfi_endproc
 353              	.LFE181:
 354              		.size	chSemGetCounterI, .-chSemGetCounterI
 355              		.section	.text.chMBObjectInit,"ax",%progbits
 356              		.align	1
 357              		.p2align 4,,15
 358              		.global	chMBObjectInit
 359              		.syntax unified
 360              		.thumb
 361              		.thumb_func
 362              		.fpu fpv4-sp-d16
 363              		.type	chMBObjectInit, %function
 364              	chMBObjectInit:
 365              	.LFB219:
 366              		.file 5 "../lib/e-puck2_main-processor/ChibiOS//os/rt/src/chmboxes.c"
 367              		.loc 5 86 0
 368              		.cfi_startproc
 369              		@ args = 0, pretend = 0, frame = 24
 370              		@ frame_needed = 0, uses_anonymous_args = 0
 371 0000 00B5     		push	{lr}
 372              		.cfi_def_cfa_offset 4
 373              		.cfi_offset 14, -4
 374 0002 87B0     		sub	sp, sp, #28
 375              		.cfi_def_cfa_offset 32
 376 0004 0390     		str	r0, [sp, #12]
 377 0006 0291     		str	r1, [sp, #8]
 378 0008 0192     		str	r2, [sp, #4]
 379              		.loc 5 86 0
 380 000a 1A4B     		ldr	r3, .L31
 381 000c 1B68     		ldr	r3, [r3]
 382 000e 0593     		str	r3, [sp, #20]
 383              		.loc 5 88 0
 384 0010 039B     		ldr	r3, [sp, #12]
 385 0012 002B     		cmp	r3, #0
 386 0014 05D0     		beq	.L28
 387              		.loc 5 88 0 is_stmt 0 discriminator 3
 388 0016 029B     		ldr	r3, [sp, #8]
 389 0018 002B     		cmp	r3, #0
 390 001a 02D0     		beq	.L28
 391              		.loc 5 88 0 discriminator 5
 392 001c 019B     		ldr	r3, [sp, #4]
 393 001e 002B     		cmp	r3, #0
 394 0020 02DC     		bgt	.L29
 395              	.L28:
 396              		.loc 5 88 0 discriminator 6
 397 0022 1548     		ldr	r0, .L31+4
 398 0024 FFF7FEFF 		bl	chSysHalt
 399              	.L29:
ARM GAS  C:\Users\PCHAUT~1\AppData\Local\Temp\ccRqVguf.s 			page 8


 400              		.loc 5 90 0 is_stmt 1
 401 0028 039B     		ldr	r3, [sp, #12]
 402 002a 029A     		ldr	r2, [sp, #8]
 403 002c 1A60     		str	r2, [r3]
 404              		.loc 5 91 0
 405 002e 039B     		ldr	r3, [sp, #12]
 406 0030 029A     		ldr	r2, [sp, #8]
 407 0032 DA60     		str	r2, [r3, #12]
 408              		.loc 5 92 0
 409 0034 039B     		ldr	r3, [sp, #12]
 410 0036 029A     		ldr	r2, [sp, #8]
 411 0038 9A60     		str	r2, [r3, #8]
 412              		.loc 5 93 0
 413 003a 019B     		ldr	r3, [sp, #4]
 414 003c 9B00     		lsls	r3, r3, #2
 415 003e 029A     		ldr	r2, [sp, #8]
 416 0040 1A44     		add	r2, r2, r3
 417 0042 039B     		ldr	r3, [sp, #12]
 418 0044 5A60     		str	r2, [r3, #4]
 419              		.loc 5 94 0
 420 0046 039B     		ldr	r3, [sp, #12]
 421 0048 1C33     		adds	r3, r3, #28
 422 004a 0199     		ldr	r1, [sp, #4]
 423 004c 1846     		mov	r0, r3
 424 004e FFF7FEFF 		bl	chSemObjectInit
 425              		.loc 5 95 0
 426 0052 039B     		ldr	r3, [sp, #12]
 427 0054 1033     		adds	r3, r3, #16
 428 0056 0021     		movs	r1, #0
 429 0058 1846     		mov	r0, r3
 430 005a FFF7FEFF 		bl	chSemObjectInit
 431              		.loc 5 96 0
 432 005e 00BF     		nop
 433 0060 044B     		ldr	r3, .L31
 434 0062 059A     		ldr	r2, [sp, #20]
 435 0064 1B68     		ldr	r3, [r3]
 436 0066 9A42     		cmp	r2, r3
 437 0068 01D0     		beq	.L30
 438 006a FFF7FEFF 		bl	__stack_chk_fail
 439              	.L30:
 440 006e 07B0     		add	sp, sp, #28
 441              		.cfi_def_cfa_offset 4
 442              		@ sp needed
 443 0070 5DF804FB 		ldr	pc, [sp], #4
 444              	.L32:
 445              		.align	2
 446              	.L31:
 447 0074 00000000 		.word	__stack_chk_guard
 448 0078 00000000 		.word	__func__.7851
 449              		.cfi_endproc
 450              	.LFE219:
 451              		.size	chMBObjectInit, .-chMBObjectInit
 452              		.section	.text.chMBReset,"ax",%progbits
 453              		.align	1
 454              		.p2align 4,,15
 455              		.global	chMBReset
 456              		.syntax unified
ARM GAS  C:\Users\PCHAUT~1\AppData\Local\Temp\ccRqVguf.s 			page 9


 457              		.thumb
 458              		.thumb_func
 459              		.fpu fpv4-sp-d16
 460              		.type	chMBReset, %function
 461              	chMBReset:
 462              	.LFB220:
 463              		.loc 5 107 0
 464              		.cfi_startproc
 465              		@ args = 0, pretend = 0, frame = 16
 466              		@ frame_needed = 0, uses_anonymous_args = 0
 467 0000 00B5     		push	{lr}
 468              		.cfi_def_cfa_offset 4
 469              		.cfi_offset 14, -4
 470 0002 85B0     		sub	sp, sp, #20
 471              		.cfi_def_cfa_offset 24
 472 0004 0190     		str	r0, [sp, #4]
 473              		.loc 5 107 0
 474 0006 0B4B     		ldr	r3, .L35
 475 0008 1B68     		ldr	r3, [r3]
 476 000a 0393     		str	r3, [sp, #12]
 477              		.loc 5 109 0
 478 000c FFF7FEFF 		bl	chSysLock
 479              		.loc 5 110 0
 480 0010 0198     		ldr	r0, [sp, #4]
 481 0012 FFF7FEFF 		bl	chMBResetI
 482              		.loc 5 111 0
 483 0016 FFF7FEFF 		bl	chSchRescheduleS
 484              		.loc 5 112 0
 485 001a FFF7FEFF 		bl	chSysUnlock
 486              		.loc 5 113 0
 487 001e 00BF     		nop
 488 0020 044B     		ldr	r3, .L35
 489 0022 039A     		ldr	r2, [sp, #12]
 490 0024 1B68     		ldr	r3, [r3]
 491 0026 9A42     		cmp	r2, r3
 492 0028 01D0     		beq	.L34
 493 002a FFF7FEFF 		bl	__stack_chk_fail
 494              	.L34:
 495 002e 05B0     		add	sp, sp, #20
 496              		.cfi_def_cfa_offset 4
 497              		@ sp needed
 498 0030 5DF804FB 		ldr	pc, [sp], #4
 499              	.L36:
 500              		.align	2
 501              	.L35:
 502 0034 00000000 		.word	__stack_chk_guard
 503              		.cfi_endproc
 504              	.LFE220:
 505              		.size	chMBReset, .-chMBReset
 506              		.section	.text.chMBResetI,"ax",%progbits
 507              		.align	1
 508              		.p2align 4,,15
 509              		.global	chMBResetI
 510              		.syntax unified
 511              		.thumb
 512              		.thumb_func
 513              		.fpu fpv4-sp-d16
ARM GAS  C:\Users\PCHAUT~1\AppData\Local\Temp\ccRqVguf.s 			page 10


 514              		.type	chMBResetI, %function
 515              	chMBResetI:
 516              	.LFB221:
 517              		.loc 5 124 0
 518              		.cfi_startproc
 519              		@ args = 0, pretend = 0, frame = 16
 520              		@ frame_needed = 0, uses_anonymous_args = 0
 521 0000 00B5     		push	{lr}
 522              		.cfi_def_cfa_offset 4
 523              		.cfi_offset 14, -4
 524 0002 85B0     		sub	sp, sp, #20
 525              		.cfi_def_cfa_offset 24
 526 0004 0190     		str	r0, [sp, #4]
 527              		.loc 5 124 0
 528 0006 194B     		ldr	r3, .L40
 529 0008 1B68     		ldr	r3, [r3]
 530 000a 0393     		str	r3, [sp, #12]
 531              		.loc 5 126 0
 532 000c FFF7FEFF 		bl	chDbgCheckClassI
 533              		.loc 5 127 0
 534 0010 019B     		ldr	r3, [sp, #4]
 535 0012 002B     		cmp	r3, #0
 536 0014 02D1     		bne	.L38
 537              		.loc 5 127 0 is_stmt 0 discriminator 2
 538 0016 1648     		ldr	r0, .L40+4
 539 0018 FFF7FEFF 		bl	chSysHalt
 540              	.L38:
 541              		.loc 5 129 0 is_stmt 1
 542 001c 019B     		ldr	r3, [sp, #4]
 543 001e 1A68     		ldr	r2, [r3]
 544 0020 019B     		ldr	r3, [sp, #4]
 545 0022 9A60     		str	r2, [r3, #8]
 546              		.loc 5 130 0
 547 0024 019B     		ldr	r3, [sp, #4]
 548 0026 1A68     		ldr	r2, [r3]
 549 0028 019B     		ldr	r3, [sp, #4]
 550 002a DA60     		str	r2, [r3, #12]
 551              		.loc 5 131 0
 552 002c 019B     		ldr	r3, [sp, #4]
 553 002e 03F11C02 		add	r2, r3, #28
 554 0032 019B     		ldr	r3, [sp, #4]
 555 0034 5B68     		ldr	r3, [r3, #4]
 556 0036 1946     		mov	r1, r3
 557 0038 019B     		ldr	r3, [sp, #4]
 558 003a 1B68     		ldr	r3, [r3]
 559 003c CB1A     		subs	r3, r1, r3
 560 003e 9B10     		asrs	r3, r3, #2
 561 0040 1946     		mov	r1, r3
 562 0042 1046     		mov	r0, r2
 563 0044 FFF7FEFF 		bl	chSemResetI
 564              		.loc 5 132 0
 565 0048 019B     		ldr	r3, [sp, #4]
 566 004a 1033     		adds	r3, r3, #16
 567 004c 0021     		movs	r1, #0
 568 004e 1846     		mov	r0, r3
 569 0050 FFF7FEFF 		bl	chSemResetI
 570              		.loc 5 133 0
ARM GAS  C:\Users\PCHAUT~1\AppData\Local\Temp\ccRqVguf.s 			page 11


 571 0054 00BF     		nop
 572 0056 054B     		ldr	r3, .L40
 573 0058 039A     		ldr	r2, [sp, #12]
 574 005a 1B68     		ldr	r3, [r3]
 575 005c 9A42     		cmp	r2, r3
 576 005e 01D0     		beq	.L39
 577 0060 FFF7FEFF 		bl	__stack_chk_fail
 578              	.L39:
 579 0064 05B0     		add	sp, sp, #20
 580              		.cfi_def_cfa_offset 4
 581              		@ sp needed
 582 0066 5DF804FB 		ldr	pc, [sp], #4
 583              	.L41:
 584 006a 00BF     		.align	2
 585              	.L40:
 586 006c 00000000 		.word	__stack_chk_guard
 587 0070 00000000 		.word	__func__.7858
 588              		.cfi_endproc
 589              	.LFE221:
 590              		.size	chMBResetI, .-chMBResetI
 591              		.section	.text.chMBPost,"ax",%progbits
 592              		.align	1
 593              		.p2align 4,,15
 594              		.global	chMBPost
 595              		.syntax unified
 596              		.thumb
 597              		.thumb_func
 598              		.fpu fpv4-sp-d16
 599              		.type	chMBPost, %function
 600              	chMBPost:
 601              	.LFB222:
 602              		.loc 5 154 0
 603              		.cfi_startproc
 604              		@ args = 0, pretend = 0, frame = 24
 605              		@ frame_needed = 0, uses_anonymous_args = 0
 606 0000 00B5     		push	{lr}
 607              		.cfi_def_cfa_offset 4
 608              		.cfi_offset 14, -4
 609 0002 87B0     		sub	sp, sp, #28
 610              		.cfi_def_cfa_offset 32
 611 0004 0390     		str	r0, [sp, #12]
 612 0006 0291     		str	r1, [sp, #8]
 613 0008 0192     		str	r2, [sp, #4]
 614              		.loc 5 154 0
 615 000a 0C4B     		ldr	r3, .L45
 616 000c 1B68     		ldr	r3, [r3]
 617 000e 0593     		str	r3, [sp, #20]
 618              		.loc 5 157 0
 619 0010 FFF7FEFF 		bl	chSysLock
 620              		.loc 5 158 0
 621 0014 019A     		ldr	r2, [sp, #4]
 622 0016 0299     		ldr	r1, [sp, #8]
 623 0018 0398     		ldr	r0, [sp, #12]
 624 001a FFF7FEFF 		bl	chMBPostS
 625 001e 0490     		str	r0, [sp, #16]
 626              		.loc 5 159 0
 627 0020 FFF7FEFF 		bl	chSysUnlock
ARM GAS  C:\Users\PCHAUT~1\AppData\Local\Temp\ccRqVguf.s 			page 12


 628              		.loc 5 161 0
 629 0024 049B     		ldr	r3, [sp, #16]
 630              		.loc 5 162 0
 631 0026 1846     		mov	r0, r3
 632 0028 044B     		ldr	r3, .L45
 633 002a 059A     		ldr	r2, [sp, #20]
 634 002c 1B68     		ldr	r3, [r3]
 635 002e 9A42     		cmp	r2, r3
 636 0030 01D0     		beq	.L44
 637 0032 FFF7FEFF 		bl	__stack_chk_fail
 638              	.L44:
 639 0036 07B0     		add	sp, sp, #28
 640              		.cfi_def_cfa_offset 4
 641              		@ sp needed
 642 0038 5DF804FB 		ldr	pc, [sp], #4
 643              	.L46:
 644              		.align	2
 645              	.L45:
 646 003c 00000000 		.word	__stack_chk_guard
 647              		.cfi_endproc
 648              	.LFE222:
 649              		.size	chMBPost, .-chMBPost
 650              		.section	.text.chMBPostS,"ax",%progbits
 651              		.align	1
 652              		.p2align 4,,15
 653              		.global	chMBPostS
 654              		.syntax unified
 655              		.thumb
 656              		.thumb_func
 657              		.fpu fpv4-sp-d16
 658              		.type	chMBPostS, %function
 659              	chMBPostS:
 660              	.LFB223:
 661              		.loc 5 183 0
 662              		.cfi_startproc
 663              		@ args = 0, pretend = 0, frame = 24
 664              		@ frame_needed = 0, uses_anonymous_args = 0
 665 0000 00B5     		push	{lr}
 666              		.cfi_def_cfa_offset 4
 667              		.cfi_offset 14, -4
 668 0002 87B0     		sub	sp, sp, #28
 669              		.cfi_def_cfa_offset 32
 670 0004 0390     		str	r0, [sp, #12]
 671 0006 0291     		str	r1, [sp, #8]
 672 0008 0192     		str	r2, [sp, #4]
 673              		.loc 5 183 0
 674 000a 1C4B     		ldr	r3, .L53
 675 000c 1B68     		ldr	r3, [r3]
 676 000e 0593     		str	r3, [sp, #20]
 677              		.loc 5 186 0
 678 0010 FFF7FEFF 		bl	chDbgCheckClassS
 679              		.loc 5 187 0
 680 0014 039B     		ldr	r3, [sp, #12]
 681 0016 002B     		cmp	r3, #0
 682 0018 02D1     		bne	.L48
 683              		.loc 5 187 0 is_stmt 0 discriminator 2
 684 001a 1948     		ldr	r0, .L53+4
ARM GAS  C:\Users\PCHAUT~1\AppData\Local\Temp\ccRqVguf.s 			page 13


 685 001c FFF7FEFF 		bl	chSysHalt
 686              	.L48:
 687              		.loc 5 189 0 is_stmt 1
 688 0020 039B     		ldr	r3, [sp, #12]
 689 0022 1C33     		adds	r3, r3, #28
 690 0024 0199     		ldr	r1, [sp, #4]
 691 0026 1846     		mov	r0, r3
 692 0028 FFF7FEFF 		bl	chSemWaitTimeoutS
 693 002c 0490     		str	r0, [sp, #16]
 694              		.loc 5 190 0
 695 002e 049B     		ldr	r3, [sp, #16]
 696 0030 002B     		cmp	r3, #0
 697 0032 17D1     		bne	.L49
 698              		.loc 5 191 0
 699 0034 039B     		ldr	r3, [sp, #12]
 700 0036 9B68     		ldr	r3, [r3, #8]
 701 0038 191D     		adds	r1, r3, #4
 702 003a 039A     		ldr	r2, [sp, #12]
 703 003c 9160     		str	r1, [r2, #8]
 704 003e 029A     		ldr	r2, [sp, #8]
 705 0040 1A60     		str	r2, [r3]
 706              		.loc 5 192 0
 707 0042 039B     		ldr	r3, [sp, #12]
 708 0044 9A68     		ldr	r2, [r3, #8]
 709 0046 039B     		ldr	r3, [sp, #12]
 710 0048 5B68     		ldr	r3, [r3, #4]
 711 004a 9A42     		cmp	r2, r3
 712 004c 03D3     		bcc	.L50
 713              		.loc 5 193 0
 714 004e 039B     		ldr	r3, [sp, #12]
 715 0050 1A68     		ldr	r2, [r3]
 716 0052 039B     		ldr	r3, [sp, #12]
 717 0054 9A60     		str	r2, [r3, #8]
 718              	.L50:
 719              		.loc 5 195 0
 720 0056 039B     		ldr	r3, [sp, #12]
 721 0058 1033     		adds	r3, r3, #16
 722 005a 1846     		mov	r0, r3
 723 005c FFF7FEFF 		bl	chSemSignalI
 724              		.loc 5 196 0
 725 0060 FFF7FEFF 		bl	chSchRescheduleS
 726              	.L49:
 727              		.loc 5 199 0
 728 0064 049B     		ldr	r3, [sp, #16]
 729              		.loc 5 200 0
 730 0066 1846     		mov	r0, r3
 731 0068 044B     		ldr	r3, .L53
 732 006a 059A     		ldr	r2, [sp, #20]
 733 006c 1B68     		ldr	r3, [r3]
 734 006e 9A42     		cmp	r2, r3
 735 0070 01D0     		beq	.L52
 736 0072 FFF7FEFF 		bl	__stack_chk_fail
 737              	.L52:
 738 0076 07B0     		add	sp, sp, #28
 739              		.cfi_def_cfa_offset 4
 740              		@ sp needed
 741 0078 5DF804FB 		ldr	pc, [sp], #4
ARM GAS  C:\Users\PCHAUT~1\AppData\Local\Temp\ccRqVguf.s 			page 14


 742              	.L54:
 743              		.align	2
 744              	.L53:
 745 007c 00000000 		.word	__stack_chk_guard
 746 0080 00000000 		.word	__func__.7871
 747              		.cfi_endproc
 748              	.LFE223:
 749              		.size	chMBPostS, .-chMBPostS
 750              		.section	.text.chMBPostI,"ax",%progbits
 751              		.align	1
 752              		.p2align 4,,15
 753              		.global	chMBPostI
 754              		.syntax unified
 755              		.thumb
 756              		.thumb_func
 757              		.fpu fpv4-sp-d16
 758              		.type	chMBPostI, %function
 759              	chMBPostI:
 760              	.LFB224:
 761              		.loc 5 216 0
 762              		.cfi_startproc
 763              		@ args = 0, pretend = 0, frame = 16
 764              		@ frame_needed = 0, uses_anonymous_args = 0
 765 0000 00B5     		push	{lr}
 766              		.cfi_def_cfa_offset 4
 767              		.cfi_offset 14, -4
 768 0002 85B0     		sub	sp, sp, #20
 769              		.cfi_def_cfa_offset 24
 770 0004 0190     		str	r0, [sp, #4]
 771 0006 0091     		str	r1, [sp]
 772              		.loc 5 216 0
 773 0008 1E4B     		ldr	r3, .L61
 774 000a 1B68     		ldr	r3, [r3]
 775 000c 0393     		str	r3, [sp, #12]
 776              		.loc 5 218 0
 777 000e FFF7FEFF 		bl	chDbgCheckClassI
 778              		.loc 5 219 0
 779 0012 019B     		ldr	r3, [sp, #4]
 780 0014 002B     		cmp	r3, #0
 781 0016 02D1     		bne	.L56
 782              		.loc 5 219 0 is_stmt 0 discriminator 2
 783 0018 1B48     		ldr	r0, .L61+4
 784 001a FFF7FEFF 		bl	chSysHalt
 785              	.L56:
 786              		.loc 5 221 0 is_stmt 1
 787 001e 019B     		ldr	r3, [sp, #4]
 788 0020 1C33     		adds	r3, r3, #28
 789 0022 1846     		mov	r0, r3
 790 0024 FFF7FEFF 		bl	chSemGetCounterI
 791 0028 0346     		mov	r3, r0
 792 002a 002B     		cmp	r3, #0
 793 002c 02DC     		bgt	.L57
 794              		.loc 5 222 0
 795 002e 4FF0FF33 		mov	r3, #-1
 796 0032 1BE0     		b	.L58
 797              	.L57:
 798              		.loc 5 225 0
ARM GAS  C:\Users\PCHAUT~1\AppData\Local\Temp\ccRqVguf.s 			page 15


 799 0034 019B     		ldr	r3, [sp, #4]
 800 0036 1C33     		adds	r3, r3, #28
 801 0038 1846     		mov	r0, r3
 802 003a FFF7FEFF 		bl	chSemFastWaitI
 803              		.loc 5 226 0
 804 003e 019B     		ldr	r3, [sp, #4]
 805 0040 9B68     		ldr	r3, [r3, #8]
 806 0042 191D     		adds	r1, r3, #4
 807 0044 019A     		ldr	r2, [sp, #4]
 808 0046 9160     		str	r1, [r2, #8]
 809 0048 009A     		ldr	r2, [sp]
 810 004a 1A60     		str	r2, [r3]
 811              		.loc 5 227 0
 812 004c 019B     		ldr	r3, [sp, #4]
 813 004e 9A68     		ldr	r2, [r3, #8]
 814 0050 019B     		ldr	r3, [sp, #4]
 815 0052 5B68     		ldr	r3, [r3, #4]
 816 0054 9A42     		cmp	r2, r3
 817 0056 03D3     		bcc	.L59
 818              		.loc 5 228 0
 819 0058 019B     		ldr	r3, [sp, #4]
 820 005a 1A68     		ldr	r2, [r3]
 821 005c 019B     		ldr	r3, [sp, #4]
 822 005e 9A60     		str	r2, [r3, #8]
 823              	.L59:
 824              		.loc 5 230 0
 825 0060 019B     		ldr	r3, [sp, #4]
 826 0062 1033     		adds	r3, r3, #16
 827 0064 1846     		mov	r0, r3
 828 0066 FFF7FEFF 		bl	chSemSignalI
 829              		.loc 5 232 0
 830 006a 0023     		movs	r3, #0
 831              	.L58:
 832              		.loc 5 233 0
 833 006c 1846     		mov	r0, r3
 834 006e 054B     		ldr	r3, .L61
 835 0070 039A     		ldr	r2, [sp, #12]
 836 0072 1B68     		ldr	r3, [r3]
 837 0074 9A42     		cmp	r2, r3
 838 0076 01D0     		beq	.L60
 839 0078 FFF7FEFF 		bl	__stack_chk_fail
 840              	.L60:
 841 007c 05B0     		add	sp, sp, #20
 842              		.cfi_def_cfa_offset 4
 843              		@ sp needed
 844 007e 5DF804FB 		ldr	pc, [sp], #4
 845              	.L62:
 846 0082 00BF     		.align	2
 847              	.L61:
 848 0084 00000000 		.word	__stack_chk_guard
 849 0088 00000000 		.word	__func__.7876
 850              		.cfi_endproc
 851              	.LFE224:
 852              		.size	chMBPostI, .-chMBPostI
 853              		.section	.text.chMBPostAhead,"ax",%progbits
 854              		.align	1
 855              		.p2align 4,,15
ARM GAS  C:\Users\PCHAUT~1\AppData\Local\Temp\ccRqVguf.s 			page 16


 856              		.global	chMBPostAhead
 857              		.syntax unified
 858              		.thumb
 859              		.thumb_func
 860              		.fpu fpv4-sp-d16
 861              		.type	chMBPostAhead, %function
 862              	chMBPostAhead:
 863              	.LFB225:
 864              		.loc 5 254 0
 865              		.cfi_startproc
 866              		@ args = 0, pretend = 0, frame = 24
 867              		@ frame_needed = 0, uses_anonymous_args = 0
 868 0000 00B5     		push	{lr}
 869              		.cfi_def_cfa_offset 4
 870              		.cfi_offset 14, -4
 871 0002 87B0     		sub	sp, sp, #28
 872              		.cfi_def_cfa_offset 32
 873 0004 0390     		str	r0, [sp, #12]
 874 0006 0291     		str	r1, [sp, #8]
 875 0008 0192     		str	r2, [sp, #4]
 876              		.loc 5 254 0
 877 000a 0C4B     		ldr	r3, .L66
 878 000c 1B68     		ldr	r3, [r3]
 879 000e 0593     		str	r3, [sp, #20]
 880              		.loc 5 257 0
 881 0010 FFF7FEFF 		bl	chSysLock
 882              		.loc 5 258 0
 883 0014 019A     		ldr	r2, [sp, #4]
 884 0016 0299     		ldr	r1, [sp, #8]
 885 0018 0398     		ldr	r0, [sp, #12]
 886 001a FFF7FEFF 		bl	chMBPostAheadS
 887 001e 0490     		str	r0, [sp, #16]
 888              		.loc 5 259 0
 889 0020 FFF7FEFF 		bl	chSysUnlock
 890              		.loc 5 261 0
 891 0024 049B     		ldr	r3, [sp, #16]
 892              		.loc 5 262 0
 893 0026 1846     		mov	r0, r3
 894 0028 044B     		ldr	r3, .L66
 895 002a 059A     		ldr	r2, [sp, #20]
 896 002c 1B68     		ldr	r3, [r3]
 897 002e 9A42     		cmp	r2, r3
 898 0030 01D0     		beq	.L65
 899 0032 FFF7FEFF 		bl	__stack_chk_fail
 900              	.L65:
 901 0036 07B0     		add	sp, sp, #28
 902              		.cfi_def_cfa_offset 4
 903              		@ sp needed
 904 0038 5DF804FB 		ldr	pc, [sp], #4
 905              	.L67:
 906              		.align	2
 907              	.L66:
 908 003c 00000000 		.word	__stack_chk_guard
 909              		.cfi_endproc
 910              	.LFE225:
 911              		.size	chMBPostAhead, .-chMBPostAhead
 912              		.section	.text.chMBPostAheadS,"ax",%progbits
ARM GAS  C:\Users\PCHAUT~1\AppData\Local\Temp\ccRqVguf.s 			page 17


 913              		.align	1
 914              		.p2align 4,,15
 915              		.global	chMBPostAheadS
 916              		.syntax unified
 917              		.thumb
 918              		.thumb_func
 919              		.fpu fpv4-sp-d16
 920              		.type	chMBPostAheadS, %function
 921              	chMBPostAheadS:
 922              	.LFB226:
 923              		.loc 5 283 0
 924              		.cfi_startproc
 925              		@ args = 0, pretend = 0, frame = 24
 926              		@ frame_needed = 0, uses_anonymous_args = 0
 927 0000 00B5     		push	{lr}
 928              		.cfi_def_cfa_offset 4
 929              		.cfi_offset 14, -4
 930 0002 87B0     		sub	sp, sp, #28
 931              		.cfi_def_cfa_offset 32
 932 0004 0390     		str	r0, [sp, #12]
 933 0006 0291     		str	r1, [sp, #8]
 934 0008 0192     		str	r2, [sp, #4]
 935              		.loc 5 283 0
 936 000a 1E4B     		ldr	r3, .L74
 937 000c 1B68     		ldr	r3, [r3]
 938 000e 0593     		str	r3, [sp, #20]
 939              		.loc 5 286 0
 940 0010 FFF7FEFF 		bl	chDbgCheckClassS
 941              		.loc 5 287 0
 942 0014 039B     		ldr	r3, [sp, #12]
 943 0016 002B     		cmp	r3, #0
 944 0018 02D1     		bne	.L69
 945              		.loc 5 287 0 is_stmt 0 discriminator 2
 946 001a 1B48     		ldr	r0, .L74+4
 947 001c FFF7FEFF 		bl	chSysHalt
 948              	.L69:
 949              		.loc 5 289 0 is_stmt 1
 950 0020 039B     		ldr	r3, [sp, #12]
 951 0022 1C33     		adds	r3, r3, #28
 952 0024 0199     		ldr	r1, [sp, #4]
 953 0026 1846     		mov	r0, r3
 954 0028 FFF7FEFF 		bl	chSemWaitTimeoutS
 955 002c 0490     		str	r0, [sp, #16]
 956              		.loc 5 290 0
 957 002e 049B     		ldr	r3, [sp, #16]
 958 0030 002B     		cmp	r3, #0
 959 0032 1AD1     		bne	.L70
 960              		.loc 5 291 0
 961 0034 039B     		ldr	r3, [sp, #12]
 962 0036 DB68     		ldr	r3, [r3, #12]
 963 0038 1A1F     		subs	r2, r3, #4
 964 003a 039B     		ldr	r3, [sp, #12]
 965 003c DA60     		str	r2, [r3, #12]
 966 003e 039B     		ldr	r3, [sp, #12]
 967 0040 DA68     		ldr	r2, [r3, #12]
 968 0042 039B     		ldr	r3, [sp, #12]
 969 0044 1B68     		ldr	r3, [r3]
ARM GAS  C:\Users\PCHAUT~1\AppData\Local\Temp\ccRqVguf.s 			page 18


 970 0046 9A42     		cmp	r2, r3
 971 0048 04D2     		bcs	.L71
 972              		.loc 5 292 0
 973 004a 039B     		ldr	r3, [sp, #12]
 974 004c 5B68     		ldr	r3, [r3, #4]
 975 004e 1A1F     		subs	r2, r3, #4
 976 0050 039B     		ldr	r3, [sp, #12]
 977 0052 DA60     		str	r2, [r3, #12]
 978              	.L71:
 979              		.loc 5 294 0
 980 0054 039B     		ldr	r3, [sp, #12]
 981 0056 DB68     		ldr	r3, [r3, #12]
 982 0058 029A     		ldr	r2, [sp, #8]
 983 005a 1A60     		str	r2, [r3]
 984              		.loc 5 295 0
 985 005c 039B     		ldr	r3, [sp, #12]
 986 005e 1033     		adds	r3, r3, #16
 987 0060 1846     		mov	r0, r3
 988 0062 FFF7FEFF 		bl	chSemSignalI
 989              		.loc 5 296 0
 990 0066 FFF7FEFF 		bl	chSchRescheduleS
 991              	.L70:
 992              		.loc 5 299 0
 993 006a 049B     		ldr	r3, [sp, #16]
 994              		.loc 5 300 0
 995 006c 1846     		mov	r0, r3
 996 006e 054B     		ldr	r3, .L74
 997 0070 059A     		ldr	r2, [sp, #20]
 998 0072 1B68     		ldr	r3, [r3]
 999 0074 9A42     		cmp	r2, r3
 1000 0076 01D0     		beq	.L73
 1001 0078 FFF7FEFF 		bl	__stack_chk_fail
 1002              	.L73:
 1003 007c 07B0     		add	sp, sp, #28
 1004              		.cfi_def_cfa_offset 4
 1005              		@ sp needed
 1006 007e 5DF804FB 		ldr	pc, [sp], #4
 1007              	.L75:
 1008 0082 00BF     		.align	2
 1009              	.L74:
 1010 0084 00000000 		.word	__stack_chk_guard
 1011 0088 00000000 		.word	__func__.7889
 1012              		.cfi_endproc
 1013              	.LFE226:
 1014              		.size	chMBPostAheadS, .-chMBPostAheadS
 1015              		.section	.text.chMBPostAheadI,"ax",%progbits
 1016              		.align	1
 1017              		.p2align 4,,15
 1018              		.global	chMBPostAheadI
 1019              		.syntax unified
 1020              		.thumb
 1021              		.thumb_func
 1022              		.fpu fpv4-sp-d16
 1023              		.type	chMBPostAheadI, %function
 1024              	chMBPostAheadI:
 1025              	.LFB227:
 1026              		.loc 5 316 0
ARM GAS  C:\Users\PCHAUT~1\AppData\Local\Temp\ccRqVguf.s 			page 19


 1027              		.cfi_startproc
 1028              		@ args = 0, pretend = 0, frame = 16
 1029              		@ frame_needed = 0, uses_anonymous_args = 0
 1030 0000 00B5     		push	{lr}
 1031              		.cfi_def_cfa_offset 4
 1032              		.cfi_offset 14, -4
 1033 0002 85B0     		sub	sp, sp, #20
 1034              		.cfi_def_cfa_offset 24
 1035 0004 0190     		str	r0, [sp, #4]
 1036 0006 0091     		str	r1, [sp]
 1037              		.loc 5 316 0
 1038 0008 1F4B     		ldr	r3, .L82
 1039 000a 1B68     		ldr	r3, [r3]
 1040 000c 0393     		str	r3, [sp, #12]
 1041              		.loc 5 318 0
 1042 000e FFF7FEFF 		bl	chDbgCheckClassI
 1043              		.loc 5 319 0
 1044 0012 019B     		ldr	r3, [sp, #4]
 1045 0014 002B     		cmp	r3, #0
 1046 0016 02D1     		bne	.L77
 1047              		.loc 5 319 0 is_stmt 0 discriminator 2
 1048 0018 1C48     		ldr	r0, .L82+4
 1049 001a FFF7FEFF 		bl	chSysHalt
 1050              	.L77:
 1051              		.loc 5 321 0 is_stmt 1
 1052 001e 019B     		ldr	r3, [sp, #4]
 1053 0020 1C33     		adds	r3, r3, #28
 1054 0022 1846     		mov	r0, r3
 1055 0024 FFF7FEFF 		bl	chSemGetCounterI
 1056 0028 0346     		mov	r3, r0
 1057 002a 002B     		cmp	r3, #0
 1058 002c 02DC     		bgt	.L78
 1059              		.loc 5 322 0
 1060 002e 4FF0FF33 		mov	r3, #-1
 1061 0032 1EE0     		b	.L79
 1062              	.L78:
 1063              		.loc 5 324 0
 1064 0034 019B     		ldr	r3, [sp, #4]
 1065 0036 1C33     		adds	r3, r3, #28
 1066 0038 1846     		mov	r0, r3
 1067 003a FFF7FEFF 		bl	chSemFastWaitI
 1068              		.loc 5 325 0
 1069 003e 019B     		ldr	r3, [sp, #4]
 1070 0040 DB68     		ldr	r3, [r3, #12]
 1071 0042 1A1F     		subs	r2, r3, #4
 1072 0044 019B     		ldr	r3, [sp, #4]
 1073 0046 DA60     		str	r2, [r3, #12]
 1074 0048 019B     		ldr	r3, [sp, #4]
 1075 004a DA68     		ldr	r2, [r3, #12]
 1076 004c 019B     		ldr	r3, [sp, #4]
 1077 004e 1B68     		ldr	r3, [r3]
 1078 0050 9A42     		cmp	r2, r3
 1079 0052 04D2     		bcs	.L80
 1080              		.loc 5 326 0
 1081 0054 019B     		ldr	r3, [sp, #4]
 1082 0056 5B68     		ldr	r3, [r3, #4]
 1083 0058 1A1F     		subs	r2, r3, #4
ARM GAS  C:\Users\PCHAUT~1\AppData\Local\Temp\ccRqVguf.s 			page 20


 1084 005a 019B     		ldr	r3, [sp, #4]
 1085 005c DA60     		str	r2, [r3, #12]
 1086              	.L80:
 1087              		.loc 5 328 0
 1088 005e 019B     		ldr	r3, [sp, #4]
 1089 0060 DB68     		ldr	r3, [r3, #12]
 1090 0062 009A     		ldr	r2, [sp]
 1091 0064 1A60     		str	r2, [r3]
 1092              		.loc 5 329 0
 1093 0066 019B     		ldr	r3, [sp, #4]
 1094 0068 1033     		adds	r3, r3, #16
 1095 006a 1846     		mov	r0, r3
 1096 006c FFF7FEFF 		bl	chSemSignalI
 1097              		.loc 5 331 0
 1098 0070 0023     		movs	r3, #0
 1099              	.L79:
 1100              		.loc 5 332 0
 1101 0072 1846     		mov	r0, r3
 1102 0074 044B     		ldr	r3, .L82
 1103 0076 039A     		ldr	r2, [sp, #12]
 1104 0078 1B68     		ldr	r3, [r3]
 1105 007a 9A42     		cmp	r2, r3
 1106 007c 01D0     		beq	.L81
 1107 007e FFF7FEFF 		bl	__stack_chk_fail
 1108              	.L81:
 1109 0082 05B0     		add	sp, sp, #20
 1110              		.cfi_def_cfa_offset 4
 1111              		@ sp needed
 1112 0084 5DF804FB 		ldr	pc, [sp], #4
 1113              	.L83:
 1114              		.align	2
 1115              	.L82:
 1116 0088 00000000 		.word	__stack_chk_guard
 1117 008c 00000000 		.word	__func__.7894
 1118              		.cfi_endproc
 1119              	.LFE227:
 1120              		.size	chMBPostAheadI, .-chMBPostAheadI
 1121              		.section	.text.chMBFetch,"ax",%progbits
 1122              		.align	1
 1123              		.p2align 4,,15
 1124              		.global	chMBFetch
 1125              		.syntax unified
 1126              		.thumb
 1127              		.thumb_func
 1128              		.fpu fpv4-sp-d16
 1129              		.type	chMBFetch, %function
 1130              	chMBFetch:
 1131              	.LFB228:
 1132              		.loc 5 353 0
 1133              		.cfi_startproc
 1134              		@ args = 0, pretend = 0, frame = 24
 1135              		@ frame_needed = 0, uses_anonymous_args = 0
 1136 0000 00B5     		push	{lr}
 1137              		.cfi_def_cfa_offset 4
 1138              		.cfi_offset 14, -4
 1139 0002 87B0     		sub	sp, sp, #28
 1140              		.cfi_def_cfa_offset 32
ARM GAS  C:\Users\PCHAUT~1\AppData\Local\Temp\ccRqVguf.s 			page 21


 1141 0004 0390     		str	r0, [sp, #12]
 1142 0006 0291     		str	r1, [sp, #8]
 1143 0008 0192     		str	r2, [sp, #4]
 1144              		.loc 5 353 0
 1145 000a 0C4B     		ldr	r3, .L87
 1146 000c 1B68     		ldr	r3, [r3]
 1147 000e 0593     		str	r3, [sp, #20]
 1148              		.loc 5 356 0
 1149 0010 FFF7FEFF 		bl	chSysLock
 1150              		.loc 5 357 0
 1151 0014 019A     		ldr	r2, [sp, #4]
 1152 0016 0299     		ldr	r1, [sp, #8]
 1153 0018 0398     		ldr	r0, [sp, #12]
 1154 001a FFF7FEFF 		bl	chMBFetchS
 1155 001e 0490     		str	r0, [sp, #16]
 1156              		.loc 5 358 0
 1157 0020 FFF7FEFF 		bl	chSysUnlock
 1158              		.loc 5 360 0
 1159 0024 049B     		ldr	r3, [sp, #16]
 1160              		.loc 5 361 0
 1161 0026 1846     		mov	r0, r3
 1162 0028 044B     		ldr	r3, .L87
 1163 002a 059A     		ldr	r2, [sp, #20]
 1164 002c 1B68     		ldr	r3, [r3]
 1165 002e 9A42     		cmp	r2, r3
 1166 0030 01D0     		beq	.L86
 1167 0032 FFF7FEFF 		bl	__stack_chk_fail
 1168              	.L86:
 1169 0036 07B0     		add	sp, sp, #28
 1170              		.cfi_def_cfa_offset 4
 1171              		@ sp needed
 1172 0038 5DF804FB 		ldr	pc, [sp], #4
 1173              	.L88:
 1174              		.align	2
 1175              	.L87:
 1176 003c 00000000 		.word	__stack_chk_guard
 1177              		.cfi_endproc
 1178              	.LFE228:
 1179              		.size	chMBFetch, .-chMBFetch
 1180              		.section	.text.chMBFetchS,"ax",%progbits
 1181              		.align	1
 1182              		.p2align 4,,15
 1183              		.global	chMBFetchS
 1184              		.syntax unified
 1185              		.thumb
 1186              		.thumb_func
 1187              		.fpu fpv4-sp-d16
 1188              		.type	chMBFetchS, %function
 1189              	chMBFetchS:
 1190              	.LFB229:
 1191              		.loc 5 382 0
 1192              		.cfi_startproc
 1193              		@ args = 0, pretend = 0, frame = 24
 1194              		@ frame_needed = 0, uses_anonymous_args = 0
 1195 0000 00B5     		push	{lr}
 1196              		.cfi_def_cfa_offset 4
 1197              		.cfi_offset 14, -4
ARM GAS  C:\Users\PCHAUT~1\AppData\Local\Temp\ccRqVguf.s 			page 22


 1198 0002 87B0     		sub	sp, sp, #28
 1199              		.cfi_def_cfa_offset 32
 1200 0004 0390     		str	r0, [sp, #12]
 1201 0006 0291     		str	r1, [sp, #8]
 1202 0008 0192     		str	r2, [sp, #4]
 1203              		.loc 5 382 0
 1204 000a 1E4B     		ldr	r3, .L96
 1205 000c 1B68     		ldr	r3, [r3]
 1206 000e 0593     		str	r3, [sp, #20]
 1207              		.loc 5 385 0
 1208 0010 FFF7FEFF 		bl	chDbgCheckClassS
 1209              		.loc 5 386 0
 1210 0014 039B     		ldr	r3, [sp, #12]
 1211 0016 002B     		cmp	r3, #0
 1212 0018 02D0     		beq	.L90
 1213              		.loc 5 386 0 is_stmt 0 discriminator 3
 1214 001a 029B     		ldr	r3, [sp, #8]
 1215 001c 002B     		cmp	r3, #0
 1216 001e 02D1     		bne	.L91
 1217              	.L90:
 1218              		.loc 5 386 0 discriminator 4
 1219 0020 1948     		ldr	r0, .L96+4
 1220 0022 FFF7FEFF 		bl	chSysHalt
 1221              	.L91:
 1222              		.loc 5 388 0 is_stmt 1
 1223 0026 039B     		ldr	r3, [sp, #12]
 1224 0028 1033     		adds	r3, r3, #16
 1225 002a 0199     		ldr	r1, [sp, #4]
 1226 002c 1846     		mov	r0, r3
 1227 002e FFF7FEFF 		bl	chSemWaitTimeoutS
 1228 0032 0490     		str	r0, [sp, #16]
 1229              		.loc 5 389 0
 1230 0034 049B     		ldr	r3, [sp, #16]
 1231 0036 002B     		cmp	r3, #0
 1232 0038 18D1     		bne	.L92
 1233              		.loc 5 390 0
 1234 003a 039B     		ldr	r3, [sp, #12]
 1235 003c DB68     		ldr	r3, [r3, #12]
 1236 003e 191D     		adds	r1, r3, #4
 1237 0040 039A     		ldr	r2, [sp, #12]
 1238 0042 D160     		str	r1, [r2, #12]
 1239 0044 1A68     		ldr	r2, [r3]
 1240 0046 029B     		ldr	r3, [sp, #8]
 1241 0048 1A60     		str	r2, [r3]
 1242              		.loc 5 391 0
 1243 004a 039B     		ldr	r3, [sp, #12]
 1244 004c DA68     		ldr	r2, [r3, #12]
 1245 004e 039B     		ldr	r3, [sp, #12]
 1246 0050 5B68     		ldr	r3, [r3, #4]
 1247 0052 9A42     		cmp	r2, r3
 1248 0054 03D3     		bcc	.L93
 1249              		.loc 5 392 0
 1250 0056 039B     		ldr	r3, [sp, #12]
 1251 0058 1A68     		ldr	r2, [r3]
 1252 005a 039B     		ldr	r3, [sp, #12]
 1253 005c DA60     		str	r2, [r3, #12]
 1254              	.L93:
ARM GAS  C:\Users\PCHAUT~1\AppData\Local\Temp\ccRqVguf.s 			page 23


 1255              		.loc 5 394 0
 1256 005e 039B     		ldr	r3, [sp, #12]
 1257 0060 1C33     		adds	r3, r3, #28
 1258 0062 1846     		mov	r0, r3
 1259 0064 FFF7FEFF 		bl	chSemSignalI
 1260              		.loc 5 395 0
 1261 0068 FFF7FEFF 		bl	chSchRescheduleS
 1262              	.L92:
 1263              		.loc 5 398 0
 1264 006c 049B     		ldr	r3, [sp, #16]
 1265              		.loc 5 399 0
 1266 006e 1846     		mov	r0, r3
 1267 0070 044B     		ldr	r3, .L96
 1268 0072 059A     		ldr	r2, [sp, #20]
 1269 0074 1B68     		ldr	r3, [r3]
 1270 0076 9A42     		cmp	r2, r3
 1271 0078 01D0     		beq	.L95
 1272 007a FFF7FEFF 		bl	__stack_chk_fail
 1273              	.L95:
 1274 007e 07B0     		add	sp, sp, #28
 1275              		.cfi_def_cfa_offset 4
 1276              		@ sp needed
 1277 0080 5DF804FB 		ldr	pc, [sp], #4
 1278              	.L97:
 1279              		.align	2
 1280              	.L96:
 1281 0084 00000000 		.word	__stack_chk_guard
 1282 0088 00000000 		.word	__func__.7907
 1283              		.cfi_endproc
 1284              	.LFE229:
 1285              		.size	chMBFetchS, .-chMBFetchS
 1286              		.section	.text.chMBFetchI,"ax",%progbits
 1287              		.align	1
 1288              		.p2align 4,,15
 1289              		.global	chMBFetchI
 1290              		.syntax unified
 1291              		.thumb
 1292              		.thumb_func
 1293              		.fpu fpv4-sp-d16
 1294              		.type	chMBFetchI, %function
 1295              	chMBFetchI:
 1296              	.LFB230:
 1297              		.loc 5 415 0
 1298              		.cfi_startproc
 1299              		@ args = 0, pretend = 0, frame = 16
 1300              		@ frame_needed = 0, uses_anonymous_args = 0
 1301 0000 00B5     		push	{lr}
 1302              		.cfi_def_cfa_offset 4
 1303              		.cfi_offset 14, -4
 1304 0002 85B0     		sub	sp, sp, #20
 1305              		.cfi_def_cfa_offset 24
 1306 0004 0190     		str	r0, [sp, #4]
 1307 0006 0091     		str	r1, [sp]
 1308              		.loc 5 415 0
 1309 0008 204B     		ldr	r3, .L105
 1310 000a 1B68     		ldr	r3, [r3]
 1311 000c 0393     		str	r3, [sp, #12]
ARM GAS  C:\Users\PCHAUT~1\AppData\Local\Temp\ccRqVguf.s 			page 24


 1312              		.loc 5 417 0
 1313 000e FFF7FEFF 		bl	chDbgCheckClassI
 1314              		.loc 5 418 0
 1315 0012 019B     		ldr	r3, [sp, #4]
 1316 0014 002B     		cmp	r3, #0
 1317 0016 02D0     		beq	.L99
 1318              		.loc 5 418 0 is_stmt 0 discriminator 3
 1319 0018 009B     		ldr	r3, [sp]
 1320 001a 002B     		cmp	r3, #0
 1321 001c 02D1     		bne	.L100
 1322              	.L99:
 1323              		.loc 5 418 0 discriminator 4
 1324 001e 1C48     		ldr	r0, .L105+4
 1325 0020 FFF7FEFF 		bl	chSysHalt
 1326              	.L100:
 1327              		.loc 5 420 0 is_stmt 1
 1328 0024 019B     		ldr	r3, [sp, #4]
 1329 0026 1033     		adds	r3, r3, #16
 1330 0028 1846     		mov	r0, r3
 1331 002a FFF7FEFF 		bl	chSemGetCounterI
 1332 002e 0346     		mov	r3, r0
 1333 0030 002B     		cmp	r3, #0
 1334 0032 02DC     		bgt	.L101
 1335              		.loc 5 421 0
 1336 0034 4FF0FF33 		mov	r3, #-1
 1337 0038 1CE0     		b	.L102
 1338              	.L101:
 1339              		.loc 5 423 0
 1340 003a 019B     		ldr	r3, [sp, #4]
 1341 003c 1033     		adds	r3, r3, #16
 1342 003e 1846     		mov	r0, r3
 1343 0040 FFF7FEFF 		bl	chSemFastWaitI
 1344              		.loc 5 424 0
 1345 0044 019B     		ldr	r3, [sp, #4]
 1346 0046 DB68     		ldr	r3, [r3, #12]
 1347 0048 191D     		adds	r1, r3, #4
 1348 004a 019A     		ldr	r2, [sp, #4]
 1349 004c D160     		str	r1, [r2, #12]
 1350 004e 1A68     		ldr	r2, [r3]
 1351 0050 009B     		ldr	r3, [sp]
 1352 0052 1A60     		str	r2, [r3]
 1353              		.loc 5 425 0
 1354 0054 019B     		ldr	r3, [sp, #4]
 1355 0056 DA68     		ldr	r2, [r3, #12]
 1356 0058 019B     		ldr	r3, [sp, #4]
 1357 005a 5B68     		ldr	r3, [r3, #4]
 1358 005c 9A42     		cmp	r2, r3
 1359 005e 03D3     		bcc	.L103
 1360              		.loc 5 426 0
 1361 0060 019B     		ldr	r3, [sp, #4]
 1362 0062 1A68     		ldr	r2, [r3]
 1363 0064 019B     		ldr	r3, [sp, #4]
 1364 0066 DA60     		str	r2, [r3, #12]
 1365              	.L103:
 1366              		.loc 5 428 0
 1367 0068 019B     		ldr	r3, [sp, #4]
 1368 006a 1C33     		adds	r3, r3, #28
ARM GAS  C:\Users\PCHAUT~1\AppData\Local\Temp\ccRqVguf.s 			page 25


 1369 006c 1846     		mov	r0, r3
 1370 006e FFF7FEFF 		bl	chSemSignalI
 1371              		.loc 5 430 0
 1372 0072 0023     		movs	r3, #0
 1373              	.L102:
 1374              		.loc 5 431 0
 1375 0074 1846     		mov	r0, r3
 1376 0076 054B     		ldr	r3, .L105
 1377 0078 039A     		ldr	r2, [sp, #12]
 1378 007a 1B68     		ldr	r3, [r3]
 1379 007c 9A42     		cmp	r2, r3
 1380 007e 01D0     		beq	.L104
 1381 0080 FFF7FEFF 		bl	__stack_chk_fail
 1382              	.L104:
 1383 0084 05B0     		add	sp, sp, #20
 1384              		.cfi_def_cfa_offset 4
 1385              		@ sp needed
 1386 0086 5DF804FB 		ldr	pc, [sp], #4
 1387              	.L106:
 1388 008a 00BF     		.align	2
 1389              	.L105:
 1390 008c 00000000 		.word	__stack_chk_guard
 1391 0090 00000000 		.word	__func__.7912
 1392              		.cfi_endproc
 1393              	.LFE230:
 1394              		.size	chMBFetchI, .-chMBFetchI
 1395              		.section	.rodata.__func__.7851,"a",%progbits
 1396              		.align	2
 1397              		.type	__func__.7851, %object
 1398              		.size	__func__.7851, 15
 1399              	__func__.7851:
 1400 0000 63684D42 		.ascii	"chMBObjectInit\000"
 1400      4F626A65 
 1400      6374496E 
 1400      697400
 1401              		.section	.rodata.__func__.7153,"a",%progbits
 1402              		.align	2
 1403              		.type	__func__.7153, %object
 1404              		.size	__func__.7153, 12
 1405              	__func__.7153:
 1406 0000 63685379 		.ascii	"chSysUnlock\000"
 1406      73556E6C 
 1406      6F636B00 
 1407              		.section	.rodata.__func__.7858,"a",%progbits
 1408              		.align	2
 1409              		.type	__func__.7858, %object
 1410              		.size	__func__.7858, 11
 1411              	__func__.7858:
 1412 0000 63684D42 		.ascii	"chMBResetI\000"
 1412      52657365 
 1412      744900
 1413              		.section	.rodata.__func__.7871,"a",%progbits
 1414              		.align	2
 1415              		.type	__func__.7871, %object
 1416              		.size	__func__.7871, 10
 1417              	__func__.7871:
 1418 0000 63684D42 		.ascii	"chMBPostS\000"
ARM GAS  C:\Users\PCHAUT~1\AppData\Local\Temp\ccRqVguf.s 			page 26


 1418      506F7374 
 1418      5300
 1419              		.section	.rodata.__func__.7876,"a",%progbits
 1420              		.align	2
 1421              		.type	__func__.7876, %object
 1422              		.size	__func__.7876, 10
 1423              	__func__.7876:
 1424 0000 63684D42 		.ascii	"chMBPostI\000"
 1424      506F7374 
 1424      4900
 1425              		.section	.rodata.__func__.7889,"a",%progbits
 1426              		.align	2
 1427              		.type	__func__.7889, %object
 1428              		.size	__func__.7889, 15
 1429              	__func__.7889:
 1430 0000 63684D42 		.ascii	"chMBPostAheadS\000"
 1430      506F7374 
 1430      41686561 
 1430      645300
 1431              		.section	.rodata.__func__.7894,"a",%progbits
 1432              		.align	2
 1433              		.type	__func__.7894, %object
 1434              		.size	__func__.7894, 15
 1435              	__func__.7894:
 1436 0000 63684D42 		.ascii	"chMBPostAheadI\000"
 1436      506F7374 
 1436      41686561 
 1436      644900
 1437              		.section	.rodata.__func__.7907,"a",%progbits
 1438              		.align	2
 1439              		.type	__func__.7907, %object
 1440              		.size	__func__.7907, 11
 1441              	__func__.7907:
 1442 0000 63684D42 		.ascii	"chMBFetchS\000"
 1442      46657463 
 1442      685300
 1443              		.section	.rodata.__func__.7912,"a",%progbits
 1444              		.align	2
 1445              		.type	__func__.7912, %object
 1446              		.size	__func__.7912, 11
 1447              	__func__.7912:
 1448 0000 63684D42 		.ascii	"chMBFetchI\000"
 1448      46657463 
 1448      684900
 1449              		.text
 1450              	.Letext0:
 1451              		.file 6 "c:\\users\\pchautems\\documents\\robotiquetp\\eclipse_e-puck2\\tools\\gcc-arm-none-eabi-7
 1452              		.file 7 "c:\\users\\pchautems\\documents\\robotiquetp\\eclipse_e-puck2\\tools\\gcc-arm-none-eabi-7
 1453              		.file 8 "../lib/e-puck2_main-processor/ChibiOS//os/rt/ports/ARMCMx/compilers/GCC/chtypes.h"
 1454              		.file 9 "../lib/e-puck2_main-processor/ChibiOS//os/rt/include/chsystypes.h"
 1455              		.file 10 "../lib/e-puck2_main-processor/ChibiOS//os/rt/include/chschd.h"
 1456              		.file 11 "../lib/e-puck2_main-processor/ChibiOS//os/ext/CMSIS/include/core_cm4.h"
 1457              		.file 12 "../lib/e-puck2_main-processor/ChibiOS//os/ext/CMSIS/ST/system_stm32f4xx.h"
 1458              		.file 13 "../lib/e-puck2_main-processor/ChibiOS//os/rt/ports/ARMCMx/chcore.h"
 1459              		.file 14 "../lib/e-puck2_main-processor/ChibiOS//os/rt/include/chdebug.h"
 1460              		.file 15 "../lib/e-puck2_main-processor/ChibiOS//os/rt/include/chtm.h"
 1461              		.file 16 "../lib/e-puck2_main-processor/ChibiOS//os/rt/include/chstats.h"
ARM GAS  C:\Users\PCHAUT~1\AppData\Local\Temp\ccRqVguf.s 			page 27


 1462              		.file 17 "../lib/e-puck2_main-processor/ChibiOS//os/rt/include/chmtx.h"
 1463              		.file 18 "../lib/e-puck2_main-processor/ChibiOS//os/rt/include/chregistry.h"
 1464              		.file 19 "../lib/e-puck2_main-processor/ChibiOS//os/rt/include/chmboxes.h"
 1465              		.section	.debug_info,"",%progbits
 1466              	.Ldebug_info0:
 1467 0000 4F0F0000 		.4byte	0xf4f
 1468 0004 0400     		.2byte	0x4
 1469 0006 00000000 		.4byte	.Ldebug_abbrev0
 1470 000a 04       		.byte	0x4
 1471 000b 01       		.uleb128 0x1
 1472 000c E1010000 		.4byte	.LASF183
 1473 0010 0C       		.byte	0xc
 1474 0011 A9030000 		.4byte	.LASF184
 1475 0015 0F070000 		.4byte	.LASF185
 1476 0019 00000000 		.4byte	.Ldebug_ranges0+0
 1477 001d 00000000 		.4byte	0
 1478 0021 00000000 		.4byte	.Ldebug_line0
 1479 0025 02       		.uleb128 0x2
 1480 0026 04       		.byte	0x4
 1481 0027 05       		.byte	0x5
 1482 0028 696E7400 		.ascii	"int\000"
 1483 002c 03       		.uleb128 0x3
 1484 002d 04       		.byte	0x4
 1485 002e 07       		.byte	0x7
 1486 002f 01040000 		.4byte	.LASF0
 1487 0033 03       		.uleb128 0x3
 1488 0034 08       		.byte	0x8
 1489 0035 05       		.byte	0x5
 1490 0036 6B010000 		.4byte	.LASF1
 1491 003a 03       		.uleb128 0x3
 1492 003b 08       		.byte	0x8
 1493 003c 04       		.byte	0x4
 1494 003d 4E030000 		.4byte	.LASF2
 1495 0041 03       		.uleb128 0x3
 1496 0042 01       		.byte	0x1
 1497 0043 06       		.byte	0x6
 1498 0044 79010000 		.4byte	.LASF3
 1499 0048 04       		.uleb128 0x4
 1500 0049 5F000000 		.4byte	.LASF6
 1501 004d 06       		.byte	0x6
 1502 004e 2B       		.byte	0x2b
 1503 004f 53000000 		.4byte	0x53
 1504 0053 03       		.uleb128 0x3
 1505 0054 01       		.byte	0x1
 1506 0055 08       		.byte	0x8
 1507 0056 6E060000 		.4byte	.LASF4
 1508 005a 03       		.uleb128 0x3
 1509 005b 02       		.byte	0x2
 1510 005c 05       		.byte	0x5
 1511 005d 9A060000 		.4byte	.LASF5
 1512 0061 04       		.uleb128 0x4
 1513 0062 E9070000 		.4byte	.LASF7
 1514 0066 06       		.byte	0x6
 1515 0067 39       		.byte	0x39
 1516 0068 6C000000 		.4byte	0x6c
 1517 006c 03       		.uleb128 0x3
 1518 006d 02       		.byte	0x2
ARM GAS  C:\Users\PCHAUT~1\AppData\Local\Temp\ccRqVguf.s 			page 28


 1519 006e 07       		.byte	0x7
 1520 006f 00000000 		.4byte	.LASF8
 1521 0073 04       		.uleb128 0x4
 1522 0074 16050000 		.4byte	.LASF9
 1523 0078 06       		.byte	0x6
 1524 0079 4D       		.byte	0x4d
 1525 007a 7E000000 		.4byte	0x7e
 1526 007e 03       		.uleb128 0x3
 1527 007f 04       		.byte	0x4
 1528 0080 05       		.byte	0x5
 1529 0081 D8010000 		.4byte	.LASF10
 1530 0085 04       		.uleb128 0x4
 1531 0086 E5030000 		.4byte	.LASF11
 1532 008a 06       		.byte	0x6
 1533 008b 4F       		.byte	0x4f
 1534 008c 90000000 		.4byte	0x90
 1535 0090 03       		.uleb128 0x3
 1536 0091 04       		.byte	0x4
 1537 0092 07       		.byte	0x7
 1538 0093 C5070000 		.4byte	.LASF12
 1539 0097 04       		.uleb128 0x4
 1540 0098 0B060000 		.4byte	.LASF13
 1541 009c 06       		.byte	0x6
 1542 009d 69       		.byte	0x69
 1543 009e A2000000 		.4byte	0xa2
 1544 00a2 03       		.uleb128 0x3
 1545 00a3 08       		.byte	0x8
 1546 00a4 07       		.byte	0x7
 1547 00a5 E0000000 		.4byte	.LASF14
 1548 00a9 04       		.uleb128 0x4
 1549 00aa C8080000 		.4byte	.LASF15
 1550 00ae 07       		.byte	0x7
 1551 00af 18       		.byte	0x18
 1552 00b0 48000000 		.4byte	0x48
 1553 00b4 04       		.uleb128 0x4
 1554 00b5 16040000 		.4byte	.LASF16
 1555 00b9 07       		.byte	0x7
 1556 00ba 24       		.byte	0x24
 1557 00bb 61000000 		.4byte	0x61
 1558 00bf 04       		.uleb128 0x4
 1559 00c0 66060000 		.4byte	.LASF17
 1560 00c4 07       		.byte	0x7
 1561 00c5 2C       		.byte	0x2c
 1562 00c6 73000000 		.4byte	0x73
 1563 00ca 05       		.uleb128 0x5
 1564 00cb BF000000 		.4byte	0xbf
 1565 00cf 04       		.uleb128 0x4
 1566 00d0 90070000 		.4byte	.LASF18
 1567 00d4 07       		.byte	0x7
 1568 00d5 30       		.byte	0x30
 1569 00d6 85000000 		.4byte	0x85
 1570 00da 04       		.uleb128 0x4
 1571 00db 49000000 		.4byte	.LASF19
 1572 00df 07       		.byte	0x7
 1573 00e0 3C       		.byte	0x3c
 1574 00e1 97000000 		.4byte	0x97
 1575 00e5 04       		.uleb128 0x4
ARM GAS  C:\Users\PCHAUT~1\AppData\Local\Temp\ccRqVguf.s 			page 29


 1576 00e6 69050000 		.4byte	.LASF20
 1577 00ea 08       		.byte	0x8
 1578 00eb 45       		.byte	0x45
 1579 00ec CF000000 		.4byte	0xcf
 1580 00f0 04       		.uleb128 0x4
 1581 00f1 4E010000 		.4byte	.LASF21
 1582 00f5 08       		.byte	0x8
 1583 00f6 46       		.byte	0x46
 1584 00f7 DA000000 		.4byte	0xda
 1585 00fb 04       		.uleb128 0x4
 1586 00fc CB060000 		.4byte	.LASF22
 1587 0100 08       		.byte	0x8
 1588 0101 48       		.byte	0x48
 1589 0102 A9000000 		.4byte	0xa9
 1590 0106 04       		.uleb128 0x4
 1591 0107 25030000 		.4byte	.LASF23
 1592 010b 08       		.byte	0x8
 1593 010c 49       		.byte	0x49
 1594 010d A9000000 		.4byte	0xa9
 1595 0111 04       		.uleb128 0x4
 1596 0112 21060000 		.4byte	.LASF24
 1597 0116 08       		.byte	0x8
 1598 0117 4A       		.byte	0x4a
 1599 0118 A9000000 		.4byte	0xa9
 1600 011c 04       		.uleb128 0x4
 1601 011d C5010000 		.4byte	.LASF25
 1602 0121 08       		.byte	0x8
 1603 0122 4B       		.byte	0x4b
 1604 0123 A9000000 		.4byte	0xa9
 1605 0127 04       		.uleb128 0x4
 1606 0128 55060000 		.4byte	.LASF26
 1607 012c 08       		.byte	0x8
 1608 012d 4C       		.byte	0x4c
 1609 012e CF000000 		.4byte	0xcf
 1610 0132 04       		.uleb128 0x4
 1611 0133 B4040000 		.4byte	.LASF27
 1612 0137 08       		.byte	0x8
 1613 0138 4D       		.byte	0x4d
 1614 0139 BF000000 		.4byte	0xbf
 1615 013d 04       		.uleb128 0x4
 1616 013e 0A050000 		.4byte	.LASF28
 1617 0142 08       		.byte	0x8
 1618 0143 4F       		.byte	0x4f
 1619 0144 CF000000 		.4byte	0xcf
 1620 0148 04       		.uleb128 0x4
 1621 0149 F0030000 		.4byte	.LASF29
 1622 014d 08       		.byte	0x8
 1623 014e 51       		.byte	0x51
 1624 014f BF000000 		.4byte	0xbf
 1625 0153 04       		.uleb128 0x4
 1626 0154 BF040000 		.4byte	.LASF30
 1627 0158 08       		.byte	0x8
 1628 0159 52       		.byte	0x52
 1629 015a CF000000 		.4byte	0xcf
 1630 015e 04       		.uleb128 0x4
 1631 015f 09080000 		.4byte	.LASF31
 1632 0163 09       		.byte	0x9
ARM GAS  C:\Users\PCHAUT~1\AppData\Local\Temp\ccRqVguf.s 			page 30


 1633 0164 33       		.byte	0x33
 1634 0165 CF000000 		.4byte	0xcf
 1635 0169 05       		.uleb128 0x5
 1636 016a 5E010000 		.4byte	0x15e
 1637 016e 04       		.uleb128 0x4
 1638 016f F4070000 		.4byte	.LASF32
 1639 0173 09       		.byte	0x9
 1640 0174 3F       		.byte	0x3f
 1641 0175 79010000 		.4byte	0x179
 1642 0179 06       		.uleb128 0x6
 1643 017a 94040000 		.4byte	.LASF56
 1644 017e 68       		.byte	0x68
 1645 017f 0A       		.byte	0xa
 1646 0180 C2       		.byte	0xc2
 1647 0181 97020000 		.4byte	0x297
 1648 0185 07       		.uleb128 0x7
 1649 0186 C4060000 		.4byte	.LASF33
 1650 018a 0A       		.byte	0xa
 1651 018b C3       		.byte	0xc3
 1652 018c A2020000 		.4byte	0x2a2
 1653 0190 00       		.byte	0
 1654 0191 07       		.uleb128 0x7
 1655 0192 4E060000 		.4byte	.LASF34
 1656 0196 0A       		.byte	0xa
 1657 0197 C5       		.byte	0xc5
 1658 0198 A2020000 		.4byte	0x2a2
 1659 019c 04       		.byte	0x4
 1660 019d 07       		.uleb128 0x7
 1661 019e 57010000 		.4byte	.LASF35
 1662 01a2 0A       		.byte	0xa
 1663 01a3 C7       		.byte	0xc7
 1664 01a4 27010000 		.4byte	0x127
 1665 01a8 08       		.byte	0x8
 1666 01a9 07       		.uleb128 0x7
 1667 01aa D8050000 		.4byte	.LASF36
 1668 01ae 0A       		.byte	0xa
 1669 01af C8       		.byte	0xc8
 1670 01b0 1B050000 		.4byte	0x51b
 1671 01b4 0C       		.byte	0xc
 1672 01b5 07       		.uleb128 0x7
 1673 01b6 3E030000 		.4byte	.LASF37
 1674 01ba 0A       		.byte	0xa
 1675 01bb CA       		.byte	0xca
 1676 01bc A2020000 		.4byte	0x2a2
 1677 01c0 10       		.byte	0x10
 1678 01c1 07       		.uleb128 0x7
 1679 01c2 CA050000 		.4byte	.LASF38
 1680 01c6 0A       		.byte	0xa
 1681 01c7 CB       		.byte	0xcb
 1682 01c8 A2020000 		.4byte	0x2a2
 1683 01cc 14       		.byte	0x14
 1684 01cd 07       		.uleb128 0x7
 1685 01ce EA080000 		.4byte	.LASF39
 1686 01d2 0A       		.byte	0xa
 1687 01d3 D2       		.byte	0xd2
 1688 01d4 91080000 		.4byte	0x891
 1689 01d8 18       		.byte	0x18
ARM GAS  C:\Users\PCHAUT~1\AppData\Local\Temp\ccRqVguf.s 			page 31


 1690 01d9 07       		.uleb128 0x7
 1691 01da F6030000 		.4byte	.LASF40
 1692 01de 0A       		.byte	0xa
 1693 01df D8       		.byte	0xd8
 1694 01e0 A8080000 		.4byte	0x8a8
 1695 01e4 1C       		.byte	0x1c
 1696 01e5 07       		.uleb128 0x7
 1697 01e6 A4060000 		.4byte	.LASF41
 1698 01ea 0A       		.byte	0xa
 1699 01eb DD       		.byte	0xdd
 1700 01ec 06010000 		.4byte	0x106
 1701 01f0 20       		.byte	0x20
 1702 01f1 07       		.uleb128 0x7
 1703 01f2 E2060000 		.4byte	.LASF42
 1704 01f6 0A       		.byte	0xa
 1705 01f7 E1       		.byte	0xe1
 1706 01f8 FB000000 		.4byte	0xfb
 1707 01fc 21       		.byte	0x21
 1708 01fd 07       		.uleb128 0x7
 1709 01fe AA080000 		.4byte	.LASF43
 1710 0202 0A       		.byte	0xa
 1711 0203 E6       		.byte	0xe6
 1712 0204 11010000 		.4byte	0x111
 1713 0208 22       		.byte	0x22
 1714 0209 07       		.uleb128 0x7
 1715 020a AC060000 		.4byte	.LASF44
 1716 020e 0A       		.byte	0xa
 1717 020f EC       		.byte	0xec
 1718 0210 1C010000 		.4byte	0x11c
 1719 0214 23       		.byte	0x23
 1720 0215 07       		.uleb128 0x7
 1721 0216 2F040000 		.4byte	.LASF45
 1722 021a 0A       		.byte	0xa
 1723 021b F3       		.byte	0xf3
 1724 021c 69010000 		.4byte	0x169
 1725 0220 24       		.byte	0x24
 1726 0221 08       		.uleb128 0x8
 1727 0222 705F7500 		.ascii	"p_u\000"
 1728 0226 0A       		.byte	0xa
 1729 0227 3101     		.2byte	0x131
 1730 0229 C0070000 		.4byte	0x7c0
 1731 022d 28       		.byte	0x28
 1732 022e 09       		.uleb128 0x9
 1733 022f 5F050000 		.4byte	.LASF46
 1734 0233 0A       		.byte	0xa
 1735 0234 3601     		.2byte	0x136
 1736 0236 A8020000 		.4byte	0x2a8
 1737 023a 2C       		.byte	0x2c
 1738 023b 09       		.uleb128 0x9
 1739 023c 46040000 		.4byte	.LASF47
 1740 0240 0A       		.byte	0xa
 1741 0241 3C01     		.2byte	0x13c
 1742 0243 CC020000 		.4byte	0x2cc
 1743 0247 30       		.byte	0x30
 1744 0248 09       		.uleb128 0x9
 1745 0249 E3070000 		.4byte	.LASF48
 1746 024d 0A       		.byte	0xa
ARM GAS  C:\Users\PCHAUT~1\AppData\Local\Temp\ccRqVguf.s 			page 32


 1747 024e 4001     		.2byte	0x140
 1748 0250 32010000 		.4byte	0x132
 1749 0254 38       		.byte	0x38
 1750 0255 09       		.uleb128 0x9
 1751 0256 85070000 		.4byte	.LASF49
 1752 025a 0A       		.byte	0xa
 1753 025b 4601     		.2byte	0x146
 1754 025d 3D010000 		.4byte	0x13d
 1755 0261 3C       		.byte	0x3c
 1756 0262 09       		.uleb128 0x9
 1757 0263 90060000 		.4byte	.LASF50
 1758 0267 0A       		.byte	0xa
 1759 0268 4D01     		.2byte	0x14d
 1760 026a 8B080000 		.4byte	0x88b
 1761 026e 40       		.byte	0x40
 1762 026f 09       		.uleb128 0x9
 1763 0270 13080000 		.4byte	.LASF51
 1764 0274 0A       		.byte	0xa
 1765 0275 5101     		.2byte	0x151
 1766 0277 27010000 		.4byte	0x127
 1767 027b 44       		.byte	0x44
 1768 027c 09       		.uleb128 0x9
 1769 027d A2010000 		.4byte	.LASF52
 1770 0281 0A       		.byte	0xa
 1771 0282 5801     		.2byte	0x158
 1772 0284 7F030000 		.4byte	0x37f
 1773 0288 48       		.byte	0x48
 1774 0289 09       		.uleb128 0x9
 1775 028a F3060000 		.4byte	.LASF53
 1776 028e 0A       		.byte	0xa
 1777 028f 5E01     		.2byte	0x15e
 1778 0291 71070000 		.4byte	0x771
 1779 0295 50       		.byte	0x50
 1780 0296 00       		.byte	0
 1781 0297 04       		.uleb128 0x4
 1782 0298 D0080000 		.4byte	.LASF54
 1783 029c 09       		.byte	0x9
 1784 029d 44       		.byte	0x44
 1785 029e A2020000 		.4byte	0x2a2
 1786 02a2 0A       		.uleb128 0xa
 1787 02a3 04       		.byte	0x4
 1788 02a4 6E010000 		.4byte	0x16e
 1789 02a8 04       		.uleb128 0x4
 1790 02a9 30050000 		.4byte	.LASF55
 1791 02ad 09       		.byte	0x9
 1792 02ae 49       		.byte	0x49
 1793 02af B3020000 		.4byte	0x2b3
 1794 02b3 06       		.uleb128 0x6
 1795 02b4 AD070000 		.4byte	.LASF57
 1796 02b8 04       		.byte	0x4
 1797 02b9 0A       		.byte	0xa
 1798 02ba B0       		.byte	0xb0
 1799 02bb CC020000 		.4byte	0x2cc
 1800 02bf 07       		.uleb128 0x7
 1801 02c0 C4060000 		.4byte	.LASF33
 1802 02c4 0A       		.byte	0xa
 1803 02c5 B1       		.byte	0xb1
ARM GAS  C:\Users\PCHAUT~1\AppData\Local\Temp\ccRqVguf.s 			page 33


 1804 02c6 A2020000 		.4byte	0x2a2
 1805 02ca 00       		.byte	0
 1806 02cb 00       		.byte	0
 1807 02cc 04       		.uleb128 0x4
 1808 02cd 4A070000 		.4byte	.LASF58
 1809 02d1 09       		.byte	0x9
 1810 02d2 50       		.byte	0x50
 1811 02d3 D7020000 		.4byte	0x2d7
 1812 02d7 06       		.uleb128 0x6
 1813 02d8 7F000000 		.4byte	.LASF59
 1814 02dc 08       		.byte	0x8
 1815 02dd 0A       		.byte	0xa
 1816 02de B7       		.byte	0xb7
 1817 02df FC020000 		.4byte	0x2fc
 1818 02e3 07       		.uleb128 0x7
 1819 02e4 C4060000 		.4byte	.LASF33
 1820 02e8 0A       		.byte	0xa
 1821 02e9 B8       		.byte	0xb8
 1822 02ea A2020000 		.4byte	0x2a2
 1823 02ee 00       		.byte	0
 1824 02ef 07       		.uleb128 0x7
 1825 02f0 4E060000 		.4byte	.LASF34
 1826 02f4 0A       		.byte	0xa
 1827 02f5 B9       		.byte	0xb9
 1828 02f6 A2020000 		.4byte	0x2a2
 1829 02fa 04       		.byte	0x4
 1830 02fb 00       		.byte	0
 1831 02fc 04       		.uleb128 0x4
 1832 02fd 20000000 		.4byte	.LASF60
 1833 0301 09       		.byte	0x9
 1834 0302 57       		.byte	0x57
 1835 0303 07030000 		.4byte	0x307
 1836 0307 0B       		.uleb128 0xb
 1837 0308 FC040000 		.4byte	.LASF61
 1838 030c 1C       		.byte	0x1c
 1839 030d 0A       		.byte	0xa
 1840 030e 9001     		.2byte	0x190
 1841 0310 63030000 		.4byte	0x363
 1842 0314 09       		.uleb128 0x9
 1843 0315 A5070000 		.4byte	.LASF62
 1844 0319 0A       		.byte	0xa
 1845 031a 9101     		.2byte	0x191
 1846 031c CC020000 		.4byte	0x2cc
 1847 0320 00       		.byte	0
 1848 0321 09       		.uleb128 0x9
 1849 0322 B6060000 		.4byte	.LASF63
 1850 0326 0A       		.byte	0xa
 1851 0327 9201     		.2byte	0x192
 1852 0329 27010000 		.4byte	0x127
 1853 032d 08       		.byte	0x8
 1854 032e 09       		.uleb128 0x9
 1855 032f D2050000 		.4byte	.LASF64
 1856 0333 0A       		.byte	0xa
 1857 0334 9401     		.2byte	0x194
 1858 0336 1B050000 		.4byte	0x51b
 1859 033a 0C       		.byte	0xc
 1860 033b 09       		.uleb128 0x9
ARM GAS  C:\Users\PCHAUT~1\AppData\Local\Temp\ccRqVguf.s 			page 34


 1861 033c C6040000 		.4byte	.LASF65
 1862 0340 0A       		.byte	0xa
 1863 0341 9701     		.2byte	0x197
 1864 0343 A2020000 		.4byte	0x2a2
 1865 0347 10       		.byte	0x10
 1866 0348 09       		.uleb128 0x9
 1867 0349 03060000 		.4byte	.LASF66
 1868 034d 0A       		.byte	0xa
 1869 034e 9801     		.2byte	0x198
 1870 0350 A2020000 		.4byte	0x2a2
 1871 0354 14       		.byte	0x14
 1872 0355 09       		.uleb128 0x9
 1873 0356 F9050000 		.4byte	.LASF67
 1874 035a 0A       		.byte	0xa
 1875 035b 9B01     		.2byte	0x19b
 1876 035d A2020000 		.4byte	0x2a2
 1877 0361 18       		.byte	0x18
 1878 0362 00       		.byte	0
 1879 0363 04       		.uleb128 0x4
 1880 0364 1E080000 		.4byte	.LASF68
 1881 0368 09       		.byte	0x9
 1882 0369 5C       		.byte	0x5c
 1883 036a 6E030000 		.4byte	0x36e
 1884 036e 0A       		.uleb128 0xa
 1885 036f 04       		.byte	0x4
 1886 0370 74030000 		.4byte	0x374
 1887 0374 0C       		.uleb128 0xc
 1888 0375 7F030000 		.4byte	0x37f
 1889 0379 0D       		.uleb128 0xd
 1890 037a 7F030000 		.4byte	0x37f
 1891 037e 00       		.byte	0
 1892 037f 0E       		.uleb128 0xe
 1893 0380 04       		.byte	0x4
 1894 0381 04       		.uleb128 0x4
 1895 0382 3E060000 		.4byte	.LASF69
 1896 0386 09       		.byte	0x9
 1897 0387 61       		.byte	0x61
 1898 0388 8C030000 		.4byte	0x38c
 1899 038c 0B       		.uleb128 0xb
 1900 038d 5A070000 		.4byte	.LASF70
 1901 0391 14       		.byte	0x14
 1902 0392 0A       		.byte	0xa
 1903 0393 6B01     		.2byte	0x16b
 1904 0395 DB030000 		.4byte	0x3db
 1905 0399 09       		.uleb128 0x9
 1906 039a 0E040000 		.4byte	.LASF71
 1907 039e 0A       		.byte	0xa
 1908 039f 6C01     		.2byte	0x16c
 1909 03a1 AE080000 		.4byte	0x8ae
 1910 03a5 00       		.byte	0
 1911 03a6 09       		.uleb128 0x9
 1912 03a7 74030000 		.4byte	.LASF72
 1913 03ab 0A       		.byte	0xa
 1914 03ac 6D01     		.2byte	0x16d
 1915 03ae AE080000 		.4byte	0x8ae
 1916 03b2 04       		.byte	0x4
 1917 03b3 09       		.uleb128 0x9
ARM GAS  C:\Users\PCHAUT~1\AppData\Local\Temp\ccRqVguf.s 			page 35


 1918 03b4 3D040000 		.4byte	.LASF73
 1919 03b8 0A       		.byte	0xa
 1920 03b9 6E01     		.2byte	0x16e
 1921 03bb 5E010000 		.4byte	0x15e
 1922 03bf 08       		.byte	0x8
 1923 03c0 09       		.uleb128 0x9
 1924 03c1 5F090000 		.4byte	.LASF74
 1925 03c5 0A       		.byte	0xa
 1926 03c6 6F01     		.2byte	0x16f
 1927 03c8 63030000 		.4byte	0x363
 1928 03cc 0C       		.byte	0xc
 1929 03cd 09       		.uleb128 0x9
 1930 03ce 6D080000 		.4byte	.LASF75
 1931 03d2 0A       		.byte	0xa
 1932 03d3 7101     		.2byte	0x171
 1933 03d5 7F030000 		.4byte	0x37f
 1934 03d9 10       		.byte	0x10
 1935 03da 00       		.byte	0
 1936 03db 04       		.uleb128 0x4
 1937 03dc 2F010000 		.4byte	.LASF76
 1938 03e0 09       		.byte	0x9
 1939 03e1 66       		.byte	0x66
 1940 03e2 E6030000 		.4byte	0x3e6
 1941 03e6 0B       		.uleb128 0xb
 1942 03e7 71050000 		.4byte	.LASF77
 1943 03eb 10       		.byte	0x10
 1944 03ec 0A       		.byte	0xa
 1945 03ed 7B01     		.2byte	0x17b
 1946 03ef 28040000 		.4byte	0x428
 1947 03f3 09       		.uleb128 0x9
 1948 03f4 0E040000 		.4byte	.LASF71
 1949 03f8 0A       		.byte	0xa
 1950 03f9 7C01     		.2byte	0x17c
 1951 03fb AE080000 		.4byte	0x8ae
 1952 03ff 00       		.byte	0
 1953 0400 09       		.uleb128 0x9
 1954 0401 74030000 		.4byte	.LASF72
 1955 0405 0A       		.byte	0xa
 1956 0406 7E01     		.2byte	0x17e
 1957 0408 AE080000 		.4byte	0x8ae
 1958 040c 04       		.byte	0x4
 1959 040d 09       		.uleb128 0x9
 1960 040e 3D040000 		.4byte	.LASF73
 1961 0412 0A       		.byte	0xa
 1962 0413 8001     		.2byte	0x180
 1963 0415 5E010000 		.4byte	0x15e
 1964 0419 08       		.byte	0x8
 1965 041a 09       		.uleb128 0x9
 1966 041b F1080000 		.4byte	.LASF78
 1967 041f 0A       		.byte	0xa
 1968 0420 8201     		.2byte	0x182
 1969 0422 69010000 		.4byte	0x169
 1970 0426 0C       		.byte	0xc
 1971 0427 00       		.byte	0
 1972 0428 04       		.uleb128 0x4
 1973 0429 90000000 		.4byte	.LASF79
 1974 042d 09       		.byte	0x9
ARM GAS  C:\Users\PCHAUT~1\AppData\Local\Temp\ccRqVguf.s 			page 36


 1975 042e 6B       		.byte	0x6b
 1976 042f 33040000 		.4byte	0x433
 1977 0433 0F       		.uleb128 0xf
 1978 0434 7C030000 		.4byte	.LASF80
 1979 0438 1404     		.2byte	0x414
 1980 043a 0A       		.byte	0xa
 1981 043b A201     		.2byte	0x1a2
 1982 043d 76040000 		.4byte	0x476
 1983 0441 09       		.uleb128 0x9
 1984 0442 46080000 		.4byte	.LASF81
 1985 0446 0A       		.byte	0xa
 1986 0447 AA01     		.2byte	0x1aa
 1987 0449 97080000 		.4byte	0x897
 1988 044d 00       		.byte	0
 1989 044e 09       		.uleb128 0x9
 1990 044f B1080000 		.4byte	.LASF82
 1991 0453 0A       		.byte	0xa
 1992 0454 AF01     		.2byte	0x1af
 1993 0456 48010000 		.4byte	0x148
 1994 045a 04       		.byte	0x4
 1995 045b 09       		.uleb128 0x9
 1996 045c A0030000 		.4byte	.LASF83
 1997 0460 0A       		.byte	0xa
 1998 0461 B301     		.2byte	0x1b3
 1999 0463 48010000 		.4byte	0x148
 2000 0467 08       		.byte	0x8
 2001 0468 09       		.uleb128 0x9
 2002 0469 06090000 		.4byte	.LASF84
 2003 046d 0A       		.byte	0xa
 2004 046e B901     		.2byte	0x1b9
 2005 0470 03070000 		.4byte	0x703
 2006 0474 0C       		.byte	0xc
 2007 0475 00       		.byte	0
 2008 0476 04       		.uleb128 0x4
 2009 0477 CE040000 		.4byte	.LASF85
 2010 047b 09       		.byte	0x9
 2011 047c 70       		.byte	0x70
 2012 047d 81040000 		.4byte	0x481
 2013 0481 0F       		.uleb128 0xf
 2014 0482 05070000 		.4byte	.LASF86
 2015 0486 7006     		.2byte	0x670
 2016 0488 0A       		.byte	0xa
 2017 0489 C201     		.2byte	0x1c2
 2018 048b EE040000 		.4byte	0x4ee
 2019 048f 09       		.uleb128 0x9
 2020 0490 C2080000 		.4byte	.LASF87
 2021 0494 0A       		.byte	0xa
 2022 0495 C601     		.2byte	0x1c6
 2023 0497 FC020000 		.4byte	0x2fc
 2024 049b 00       		.byte	0
 2025 049c 09       		.uleb128 0x9
 2026 049d B2010000 		.4byte	.LASF88
 2027 04a1 0A       		.byte	0xa
 2028 04a2 CA01     		.2byte	0x1ca
 2029 04a4 DB030000 		.4byte	0x3db
 2030 04a8 1C       		.byte	0x1c
 2031 04a9 08       		.uleb128 0x8
ARM GAS  C:\Users\PCHAUT~1\AppData\Local\Temp\ccRqVguf.s 			page 37


 2032 04aa 64626700 		.ascii	"dbg\000"
 2033 04ae 0A       		.byte	0xa
 2034 04af CE01     		.2byte	0x1ce
 2035 04b1 28040000 		.4byte	0x428
 2036 04b5 2C       		.byte	0x2c
 2037 04b6 10       		.uleb128 0x10
 2038 04b7 9E040000 		.4byte	.LASF89
 2039 04bb 0A       		.byte	0xa
 2040 04bc D201     		.2byte	0x1d2
 2041 04be 6E010000 		.4byte	0x16e
 2042 04c2 4004     		.2byte	0x440
 2043 04c4 11       		.uleb128 0x11
 2044 04c5 746D00   		.ascii	"tm\000"
 2045 04c8 0A       		.byte	0xa
 2046 04c9 D701     		.2byte	0x1d7
 2047 04cb 23070000 		.4byte	0x723
 2048 04cf A804     		.2byte	0x4a8
 2049 04d1 10       		.uleb128 0x10
 2050 04d2 52000000 		.4byte	.LASF90
 2051 04d6 0A       		.byte	0xa
 2052 04d7 DD01     		.2byte	0x1dd
 2053 04d9 B5070000 		.4byte	0x7b5
 2054 04dd B004     		.2byte	0x4b0
 2055 04df 10       		.uleb128 0x10
 2056 04e0 9F000000 		.4byte	.LASF91
 2057 04e4 0A       		.byte	0xa
 2058 04e5 E301     		.2byte	0x1e3
 2059 04e7 B4080000 		.4byte	0x8b4
 2060 04eb E804     		.2byte	0x4e8
 2061 04ed 00       		.byte	0
 2062 04ee 12       		.uleb128 0x12
 2063 04ef 83060000 		.4byte	.LASF92
 2064 04f3 0B       		.byte	0xb
 2065 04f4 A706     		.2byte	0x6a7
 2066 04f6 CA000000 		.4byte	0xca
 2067 04fa 13       		.uleb128 0x13
 2068 04fb 1F040000 		.4byte	.LASF93
 2069 04ff 0C       		.byte	0xc
 2070 0500 4C       		.byte	0x4c
 2071 0501 CF000000 		.4byte	0xcf
 2072 0505 04       		.uleb128 0x4
 2073 0506 6B030000 		.4byte	.LASF94
 2074 050a 0D       		.byte	0xd
 2075 050b 65       		.byte	0x65
 2076 050c 7F030000 		.4byte	0x37f
 2077 0510 04       		.uleb128 0x4
 2078 0511 25050000 		.4byte	.LASF95
 2079 0515 0D       		.byte	0xd
 2080 0516 6D       		.byte	0x6d
 2081 0517 DA000000 		.4byte	0xda
 2082 051b 06       		.uleb128 0x6
 2083 051c 57080000 		.4byte	.LASF96
 2084 0520 04       		.byte	0x4
 2085 0521 0D       		.byte	0xd
 2086 0522 89       		.byte	0x89
 2087 0523 34050000 		.4byte	0x534
 2088 0527 14       		.uleb128 0x14
ARM GAS  C:\Users\PCHAUT~1\AppData\Local\Temp\ccRqVguf.s 			page 38


 2089 0528 72313300 		.ascii	"r13\000"
 2090 052c 0D       		.byte	0xd
 2091 052d 8A       		.byte	0x8a
 2092 052e 75060000 		.4byte	0x675
 2093 0532 00       		.byte	0
 2094 0533 00       		.byte	0
 2095 0534 06       		.uleb128 0x6
 2096 0535 73000000 		.4byte	.LASF97
 2097 0539 64       		.byte	0x64
 2098 053a 01       		.byte	0x1
 2099 053b F4       		.byte	0xf4
 2100 053c 75060000 		.4byte	0x675
 2101 0540 14       		.uleb128 0x14
 2102 0541 73313600 		.ascii	"s16\000"
 2103 0545 01       		.byte	0x1
 2104 0546 F6       		.byte	0xf6
 2105 0547 05050000 		.4byte	0x505
 2106 054b 00       		.byte	0
 2107 054c 14       		.uleb128 0x14
 2108 054d 73313700 		.ascii	"s17\000"
 2109 0551 01       		.byte	0x1
 2110 0552 F7       		.byte	0xf7
 2111 0553 05050000 		.4byte	0x505
 2112 0557 04       		.byte	0x4
 2113 0558 14       		.uleb128 0x14
 2114 0559 73313800 		.ascii	"s18\000"
 2115 055d 01       		.byte	0x1
 2116 055e F8       		.byte	0xf8
 2117 055f 05050000 		.4byte	0x505
 2118 0563 08       		.byte	0x8
 2119 0564 14       		.uleb128 0x14
 2120 0565 73313900 		.ascii	"s19\000"
 2121 0569 01       		.byte	0x1
 2122 056a F9       		.byte	0xf9
 2123 056b 05050000 		.4byte	0x505
 2124 056f 0C       		.byte	0xc
 2125 0570 14       		.uleb128 0x14
 2126 0571 73323000 		.ascii	"s20\000"
 2127 0575 01       		.byte	0x1
 2128 0576 FA       		.byte	0xfa
 2129 0577 05050000 		.4byte	0x505
 2130 057b 10       		.byte	0x10
 2131 057c 14       		.uleb128 0x14
 2132 057d 73323100 		.ascii	"s21\000"
 2133 0581 01       		.byte	0x1
 2134 0582 FB       		.byte	0xfb
 2135 0583 05050000 		.4byte	0x505
 2136 0587 14       		.byte	0x14
 2137 0588 14       		.uleb128 0x14
 2138 0589 73323200 		.ascii	"s22\000"
 2139 058d 01       		.byte	0x1
 2140 058e FC       		.byte	0xfc
 2141 058f 05050000 		.4byte	0x505
 2142 0593 18       		.byte	0x18
 2143 0594 14       		.uleb128 0x14
 2144 0595 73323300 		.ascii	"s23\000"
 2145 0599 01       		.byte	0x1
ARM GAS  C:\Users\PCHAUT~1\AppData\Local\Temp\ccRqVguf.s 			page 39


 2146 059a FD       		.byte	0xfd
 2147 059b 05050000 		.4byte	0x505
 2148 059f 1C       		.byte	0x1c
 2149 05a0 14       		.uleb128 0x14
 2150 05a1 73323400 		.ascii	"s24\000"
 2151 05a5 01       		.byte	0x1
 2152 05a6 FE       		.byte	0xfe
 2153 05a7 05050000 		.4byte	0x505
 2154 05ab 20       		.byte	0x20
 2155 05ac 14       		.uleb128 0x14
 2156 05ad 73323500 		.ascii	"s25\000"
 2157 05b1 01       		.byte	0x1
 2158 05b2 FF       		.byte	0xff
 2159 05b3 05050000 		.4byte	0x505
 2160 05b7 24       		.byte	0x24
 2161 05b8 08       		.uleb128 0x8
 2162 05b9 73323600 		.ascii	"s26\000"
 2163 05bd 01       		.byte	0x1
 2164 05be 0001     		.2byte	0x100
 2165 05c0 05050000 		.4byte	0x505
 2166 05c4 28       		.byte	0x28
 2167 05c5 08       		.uleb128 0x8
 2168 05c6 73323700 		.ascii	"s27\000"
 2169 05ca 01       		.byte	0x1
 2170 05cb 0101     		.2byte	0x101
 2171 05cd 05050000 		.4byte	0x505
 2172 05d1 2C       		.byte	0x2c
 2173 05d2 08       		.uleb128 0x8
 2174 05d3 73323800 		.ascii	"s28\000"
 2175 05d7 01       		.byte	0x1
 2176 05d8 0201     		.2byte	0x102
 2177 05da 05050000 		.4byte	0x505
 2178 05de 30       		.byte	0x30
 2179 05df 08       		.uleb128 0x8
 2180 05e0 73323900 		.ascii	"s29\000"
 2181 05e4 01       		.byte	0x1
 2182 05e5 0301     		.2byte	0x103
 2183 05e7 05050000 		.4byte	0x505
 2184 05eb 34       		.byte	0x34
 2185 05ec 08       		.uleb128 0x8
 2186 05ed 73333000 		.ascii	"s30\000"
 2187 05f1 01       		.byte	0x1
 2188 05f2 0401     		.2byte	0x104
 2189 05f4 05050000 		.4byte	0x505
 2190 05f8 38       		.byte	0x38
 2191 05f9 08       		.uleb128 0x8
 2192 05fa 73333100 		.ascii	"s31\000"
 2193 05fe 01       		.byte	0x1
 2194 05ff 0501     		.2byte	0x105
 2195 0601 05050000 		.4byte	0x505
 2196 0605 3C       		.byte	0x3c
 2197 0606 08       		.uleb128 0x8
 2198 0607 723400   		.ascii	"r4\000"
 2199 060a 01       		.byte	0x1
 2200 060b 0701     		.2byte	0x107
 2201 060d 05050000 		.4byte	0x505
 2202 0611 40       		.byte	0x40
ARM GAS  C:\Users\PCHAUT~1\AppData\Local\Temp\ccRqVguf.s 			page 40


 2203 0612 08       		.uleb128 0x8
 2204 0613 723500   		.ascii	"r5\000"
 2205 0616 01       		.byte	0x1
 2206 0617 0801     		.2byte	0x108
 2207 0619 05050000 		.4byte	0x505
 2208 061d 44       		.byte	0x44
 2209 061e 08       		.uleb128 0x8
 2210 061f 723600   		.ascii	"r6\000"
 2211 0622 01       		.byte	0x1
 2212 0623 0901     		.2byte	0x109
 2213 0625 05050000 		.4byte	0x505
 2214 0629 48       		.byte	0x48
 2215 062a 08       		.uleb128 0x8
 2216 062b 723700   		.ascii	"r7\000"
 2217 062e 01       		.byte	0x1
 2218 062f 0A01     		.2byte	0x10a
 2219 0631 05050000 		.4byte	0x505
 2220 0635 4C       		.byte	0x4c
 2221 0636 08       		.uleb128 0x8
 2222 0637 723800   		.ascii	"r8\000"
 2223 063a 01       		.byte	0x1
 2224 063b 0B01     		.2byte	0x10b
 2225 063d 05050000 		.4byte	0x505
 2226 0641 50       		.byte	0x50
 2227 0642 08       		.uleb128 0x8
 2228 0643 723900   		.ascii	"r9\000"
 2229 0646 01       		.byte	0x1
 2230 0647 0C01     		.2byte	0x10c
 2231 0649 05050000 		.4byte	0x505
 2232 064d 54       		.byte	0x54
 2233 064e 08       		.uleb128 0x8
 2234 064f 72313000 		.ascii	"r10\000"
 2235 0653 01       		.byte	0x1
 2236 0654 0D01     		.2byte	0x10d
 2237 0656 05050000 		.4byte	0x505
 2238 065a 58       		.byte	0x58
 2239 065b 08       		.uleb128 0x8
 2240 065c 72313100 		.ascii	"r11\000"
 2241 0660 01       		.byte	0x1
 2242 0661 0E01     		.2byte	0x10e
 2243 0663 05050000 		.4byte	0x505
 2244 0667 5C       		.byte	0x5c
 2245 0668 08       		.uleb128 0x8
 2246 0669 6C7200   		.ascii	"lr\000"
 2247 066c 01       		.byte	0x1
 2248 066d 0F01     		.2byte	0x10f
 2249 066f 05050000 		.4byte	0x505
 2250 0673 60       		.byte	0x60
 2251 0674 00       		.byte	0
 2252 0675 0A       		.uleb128 0xa
 2253 0676 04       		.byte	0x4
 2254 0677 34050000 		.4byte	0x534
 2255 067b 15       		.uleb128 0x15
 2256 067c 10       		.byte	0x10
 2257 067d 0E       		.byte	0xe
 2258 067e 51       		.byte	0x51
 2259 067f B4060000 		.4byte	0x6b4
ARM GAS  C:\Users\PCHAUT~1\AppData\Local\Temp\ccRqVguf.s 			page 41


 2260 0683 07       		.uleb128 0x7
 2261 0684 83080000 		.4byte	.LASF98
 2262 0688 0E       		.byte	0xe
 2263 0689 55       		.byte	0x55
 2264 068a 5E010000 		.4byte	0x15e
 2265 068e 00       		.byte	0
 2266 068f 07       		.uleb128 0x7
 2267 0690 2E030000 		.4byte	.LASF99
 2268 0694 0E       		.byte	0xe
 2269 0695 59       		.byte	0x59
 2270 0696 A2020000 		.4byte	0x2a2
 2271 069a 04       		.byte	0x4
 2272 069b 07       		.uleb128 0x7
 2273 069c 47090000 		.4byte	.LASF100
 2274 06a0 0E       		.byte	0xe
 2275 06a1 5D       		.byte	0x5d
 2276 06a2 7F030000 		.4byte	0x37f
 2277 06a6 08       		.byte	0x8
 2278 06a7 07       		.uleb128 0x7
 2279 06a8 B9080000 		.4byte	.LASF101
 2280 06ac 0E       		.byte	0xe
 2281 06ad 61       		.byte	0x61
 2282 06ae A9000000 		.4byte	0xa9
 2283 06b2 0C       		.byte	0xc
 2284 06b3 00       		.byte	0
 2285 06b4 04       		.uleb128 0x4
 2286 06b5 AF050000 		.4byte	.LASF102
 2287 06b9 0E       		.byte	0xe
 2288 06ba 62       		.byte	0x62
 2289 06bb 7B060000 		.4byte	0x67b
 2290 06bf 16       		.uleb128 0x16
 2291 06c0 0804     		.2byte	0x408
 2292 06c2 0E       		.byte	0xe
 2293 06c3 67       		.byte	0x67
 2294 06c4 ED060000 		.4byte	0x6ed
 2295 06c8 07       		.uleb128 0x7
 2296 06c9 5A030000 		.4byte	.LASF103
 2297 06cd 0E       		.byte	0xe
 2298 06ce 6B       		.byte	0x6b
 2299 06cf 2C000000 		.4byte	0x2c
 2300 06d3 00       		.byte	0
 2301 06d4 07       		.uleb128 0x7
 2302 06d5 9E050000 		.4byte	.LASF104
 2303 06d9 0E       		.byte	0xe
 2304 06da 6F       		.byte	0x6f
 2305 06db ED060000 		.4byte	0x6ed
 2306 06df 04       		.byte	0x4
 2307 06e0 07       		.uleb128 0x7
 2308 06e1 29060000 		.4byte	.LASF105
 2309 06e5 0E       		.byte	0xe
 2310 06e6 73       		.byte	0x73
 2311 06e7 F3060000 		.4byte	0x6f3
 2312 06eb 08       		.byte	0x8
 2313 06ec 00       		.byte	0
 2314 06ed 0A       		.uleb128 0xa
 2315 06ee 04       		.byte	0x4
 2316 06ef B4060000 		.4byte	0x6b4
ARM GAS  C:\Users\PCHAUT~1\AppData\Local\Temp\ccRqVguf.s 			page 42


 2317 06f3 17       		.uleb128 0x17
 2318 06f4 B4060000 		.4byte	0x6b4
 2319 06f8 03070000 		.4byte	0x703
 2320 06fc 18       		.uleb128 0x18
 2321 06fd 2C000000 		.4byte	0x2c
 2322 0701 3F       		.byte	0x3f
 2323 0702 00       		.byte	0
 2324 0703 04       		.uleb128 0x4
 2325 0704 F7000000 		.4byte	.LASF106
 2326 0708 0E       		.byte	0xe
 2327 0709 74       		.byte	0x74
 2328 070a BF060000 		.4byte	0x6bf
 2329 070e 15       		.uleb128 0x15
 2330 070f 04       		.byte	0x4
 2331 0710 0F       		.byte	0xf
 2332 0711 38       		.byte	0x38
 2333 0712 23070000 		.4byte	0x723
 2334 0716 07       		.uleb128 0x7
 2335 0717 50080000 		.4byte	.LASF107
 2336 071b 0F       		.byte	0xf
 2337 071c 3C       		.byte	0x3c
 2338 071d E5000000 		.4byte	0xe5
 2339 0721 00       		.byte	0
 2340 0722 00       		.byte	0
 2341 0723 04       		.uleb128 0x4
 2342 0724 DE050000 		.4byte	.LASF108
 2343 0728 0F       		.byte	0xf
 2344 0729 3D       		.byte	0x3d
 2345 072a 0E070000 		.4byte	0x70e
 2346 072e 15       		.uleb128 0x15
 2347 072f 18       		.byte	0x18
 2348 0730 0F       		.byte	0xf
 2349 0731 48       		.byte	0x48
 2350 0732 71070000 		.4byte	0x771
 2351 0736 07       		.uleb128 0x7
 2352 0737 FD070000 		.4byte	.LASF109
 2353 073b 0F       		.byte	0xf
 2354 073c 49       		.byte	0x49
 2355 073d E5000000 		.4byte	0xe5
 2356 0741 00       		.byte	0
 2357 0742 07       		.uleb128 0x7
 2358 0743 B8000000 		.4byte	.LASF110
 2359 0747 0F       		.byte	0xf
 2360 0748 4A       		.byte	0x4a
 2361 0749 E5000000 		.4byte	0xe5
 2362 074d 04       		.byte	0x4
 2363 074e 07       		.uleb128 0x7
 2364 074f BA040000 		.4byte	.LASF111
 2365 0753 0F       		.byte	0xf
 2366 0754 4B       		.byte	0x4b
 2367 0755 E5000000 		.4byte	0xe5
 2368 0759 08       		.byte	0x8
 2369 075a 14       		.uleb128 0x14
 2370 075b 6E00     		.ascii	"n\000"
 2371 075d 0F       		.byte	0xf
 2372 075e 4C       		.byte	0x4c
 2373 075f 53010000 		.4byte	0x153
ARM GAS  C:\Users\PCHAUT~1\AppData\Local\Temp\ccRqVguf.s 			page 43


 2374 0763 0C       		.byte	0xc
 2375 0764 07       		.uleb128 0x7
 2376 0765 16060000 		.4byte	.LASF112
 2377 0769 0F       		.byte	0xf
 2378 076a 4D       		.byte	0x4d
 2379 076b F0000000 		.4byte	0xf0
 2380 076f 10       		.byte	0x10
 2381 0770 00       		.byte	0
 2382 0771 04       		.uleb128 0x4
 2383 0772 BE000000 		.4byte	.LASF113
 2384 0776 0F       		.byte	0xf
 2385 0777 4E       		.byte	0x4e
 2386 0778 2E070000 		.4byte	0x72e
 2387 077c 15       		.uleb128 0x15
 2388 077d 38       		.byte	0x38
 2389 077e 10       		.byte	0x10
 2390 077f 38       		.byte	0x38
 2391 0780 B5070000 		.4byte	0x7b5
 2392 0784 07       		.uleb128 0x7
 2393 0785 6E040000 		.4byte	.LASF114
 2394 0789 10       		.byte	0x10
 2395 078a 39       		.byte	0x39
 2396 078b 53010000 		.4byte	0x153
 2397 078f 00       		.byte	0
 2398 0790 07       		.uleb128 0x7
 2399 0791 5D060000 		.4byte	.LASF115
 2400 0795 10       		.byte	0x10
 2401 0796 3A       		.byte	0x3a
 2402 0797 53010000 		.4byte	0x153
 2403 079b 04       		.byte	0x4
 2404 079c 07       		.uleb128 0x7
 2405 079d 34090000 		.4byte	.LASF116
 2406 07a1 10       		.byte	0x10
 2407 07a2 3B       		.byte	0x3b
 2408 07a3 71070000 		.4byte	0x771
 2409 07a7 08       		.byte	0x8
 2410 07a8 07       		.uleb128 0x7
 2411 07a9 F1040000 		.4byte	.LASF117
 2412 07ad 10       		.byte	0x10
 2413 07ae 3D       		.byte	0x3d
 2414 07af 71070000 		.4byte	0x771
 2415 07b3 20       		.byte	0x20
 2416 07b4 00       		.byte	0
 2417 07b5 04       		.uleb128 0x4
 2418 07b6 85040000 		.4byte	.LASF118
 2419 07ba 10       		.byte	0x10
 2420 07bb 3F       		.byte	0x3f
 2421 07bc 7C070000 		.4byte	0x77c
 2422 07c0 19       		.uleb128 0x19
 2423 07c1 04       		.byte	0x4
 2424 07c2 0A       		.byte	0xa
 2425 07c3 FA       		.byte	0xfa
 2426 07c4 1D080000 		.4byte	0x81d
 2427 07c8 1A       		.uleb128 0x1a
 2428 07c9 42000000 		.4byte	.LASF119
 2429 07cd 0A       		.byte	0xa
 2430 07ce 0101     		.2byte	0x101
ARM GAS  C:\Users\PCHAUT~1\AppData\Local\Temp\ccRqVguf.s 			page 44


 2431 07d0 32010000 		.4byte	0x132
 2432 07d4 1A       		.uleb128 0x1a
 2433 07d5 17010000 		.4byte	.LASF120
 2434 07d9 0A       		.byte	0xa
 2435 07da 0801     		.2byte	0x108
 2436 07dc 32010000 		.4byte	0x132
 2437 07e0 1A       		.uleb128 0x1a
 2438 07e1 E3080000 		.4byte	.LASF121
 2439 07e5 0A       		.byte	0xa
 2440 07e6 0F01     		.2byte	0x10f
 2441 07e8 7F030000 		.4byte	0x37f
 2442 07ec 1A       		.uleb128 0x1a
 2443 07ed 3C000000 		.4byte	.LASF122
 2444 07f1 0A       		.byte	0xa
 2445 07f2 1601     		.2byte	0x116
 2446 07f4 1D080000 		.4byte	0x81d
 2447 07f8 1A       		.uleb128 0x1a
 2448 07f9 36040000 		.4byte	.LASF123
 2449 07fd 0A       		.byte	0xa
 2450 07fe 1E01     		.2byte	0x11e
 2451 0800 48080000 		.4byte	0x848
 2452 0804 1A       		.uleb128 0x1a
 2453 0805 DC070000 		.4byte	.LASF124
 2454 0809 0A       		.byte	0xa
 2455 080a 2701     		.2byte	0x127
 2456 080c 8B080000 		.4byte	0x88b
 2457 0810 1A       		.uleb128 0x1a
 2458 0811 BD060000 		.4byte	.LASF125
 2459 0815 0A       		.byte	0xa
 2460 0816 2F01     		.2byte	0x12f
 2461 0818 3D010000 		.4byte	0x13d
 2462 081c 00       		.byte	0
 2463 081d 0A       		.uleb128 0xa
 2464 081e 04       		.byte	0x4
 2465 081f 97020000 		.4byte	0x297
 2466 0823 06       		.uleb128 0x6
 2467 0824 78070000 		.4byte	.LASF126
 2468 0828 0C       		.byte	0xc
 2469 0829 04       		.byte	0x4
 2470 082a 34       		.byte	0x34
 2471 082b 48080000 		.4byte	0x848
 2472 082f 07       		.uleb128 0x7
 2473 0830 46030000 		.4byte	.LASF127
 2474 0834 04       		.byte	0x4
 2475 0835 35       		.byte	0x35
 2476 0836 CC020000 		.4byte	0x2cc
 2477 083a 00       		.byte	0
 2478 083b 07       		.uleb128 0x7
 2479 083c 74040000 		.4byte	.LASF128
 2480 0840 04       		.byte	0x4
 2481 0841 37       		.byte	0x37
 2482 0842 48010000 		.4byte	0x148
 2483 0846 08       		.byte	0x8
 2484 0847 00       		.byte	0
 2485 0848 0A       		.uleb128 0xa
 2486 0849 04       		.byte	0x4
 2487 084a 23080000 		.4byte	0x823
ARM GAS  C:\Users\PCHAUT~1\AppData\Local\Temp\ccRqVguf.s 			page 45


 2488 084e 06       		.uleb128 0x6
 2489 084f A1080000 		.4byte	.LASF129
 2490 0853 14       		.byte	0x14
 2491 0854 11       		.byte	0x11
 2492 0855 39       		.byte	0x39
 2493 0856 8B080000 		.4byte	0x88b
 2494 085a 07       		.uleb128 0x7
 2495 085b AA010000 		.4byte	.LASF130
 2496 085f 11       		.byte	0x11
 2497 0860 3A       		.byte	0x3a
 2498 0861 CC020000 		.4byte	0x2cc
 2499 0865 00       		.byte	0
 2500 0866 07       		.uleb128 0x7
 2501 0867 3F090000 		.4byte	.LASF131
 2502 086b 11       		.byte	0x11
 2503 086c 3C       		.byte	0x3c
 2504 086d A2020000 		.4byte	0x2a2
 2505 0871 08       		.byte	0x8
 2506 0872 07       		.uleb128 0x7
 2507 0873 02080000 		.4byte	.LASF132
 2508 0877 11       		.byte	0x11
 2509 0878 3E       		.byte	0x3e
 2510 0879 F1090000 		.4byte	0x9f1
 2511 087d 0C       		.byte	0xc
 2512 087e 07       		.uleb128 0x7
 2513 087f 8C030000 		.4byte	.LASF133
 2514 0883 11       		.byte	0x11
 2515 0884 41       		.byte	0x41
 2516 0885 48010000 		.4byte	0x148
 2517 0889 10       		.byte	0x10
 2518 088a 00       		.byte	0
 2519 088b 0A       		.uleb128 0xa
 2520 088c 04       		.byte	0x4
 2521 088d 4E080000 		.4byte	0x84e
 2522 0891 0A       		.uleb128 0xa
 2523 0892 04       		.byte	0x4
 2524 0893 A3080000 		.4byte	0x8a3
 2525 0897 05       		.uleb128 0x5
 2526 0898 91080000 		.4byte	0x891
 2527 089c 03       		.uleb128 0x3
 2528 089d 01       		.byte	0x1
 2529 089e 08       		.byte	0x8
 2530 089f D7070000 		.4byte	.LASF134
 2531 08a3 1B       		.uleb128 0x1b
 2532 08a4 9C080000 		.4byte	0x89c
 2533 08a8 0A       		.uleb128 0xa
 2534 08a9 04       		.byte	0x4
 2535 08aa 10050000 		.4byte	0x510
 2536 08ae 0A       		.uleb128 0xa
 2537 08af 04       		.byte	0x4
 2538 08b0 81030000 		.4byte	0x381
 2539 08b4 17       		.uleb128 0x17
 2540 08b5 10050000 		.4byte	0x510
 2541 08b9 C4080000 		.4byte	0x8c4
 2542 08bd 18       		.uleb128 0x18
 2543 08be 2C000000 		.4byte	0x2c
 2544 08c2 30       		.byte	0x30
ARM GAS  C:\Users\PCHAUT~1\AppData\Local\Temp\ccRqVguf.s 			page 46


 2545 08c3 00       		.byte	0
 2546 08c4 1C       		.uleb128 0x1c
 2547 08c5 636800   		.ascii	"ch\000"
 2548 08c8 0A       		.byte	0xa
 2549 08c9 0902     		.2byte	0x209
 2550 08cb 76040000 		.4byte	0x476
 2551 08cf 15       		.uleb128 0x15
 2552 08d0 16       		.byte	0x16
 2553 08d1 12       		.byte	0x12
 2554 08d2 34       		.byte	0x34
 2555 08d3 B0090000 		.4byte	0x9b0
 2556 08d7 07       		.uleb128 0x7
 2557 08d8 51090000 		.4byte	.LASF135
 2558 08dc 12       		.byte	0x12
 2559 08dd 35       		.byte	0x35
 2560 08de B0090000 		.4byte	0x9b0
 2561 08e2 00       		.byte	0
 2562 08e3 07       		.uleb128 0x7
 2563 08e4 3F050000 		.4byte	.LASF136
 2564 08e8 12       		.byte	0x12
 2565 08e9 36       		.byte	0x36
 2566 08ea A9000000 		.4byte	0xa9
 2567 08ee 04       		.byte	0x4
 2568 08ef 07       		.uleb128 0x7
 2569 08f0 BD070000 		.4byte	.LASF137
 2570 08f4 12       		.byte	0x12
 2571 08f5 37       		.byte	0x37
 2572 08f6 A9000000 		.4byte	0xa9
 2573 08fa 05       		.byte	0x5
 2574 08fb 07       		.uleb128 0x7
 2575 08fc 1F090000 		.4byte	.LASF138
 2576 0900 12       		.byte	0x12
 2577 0901 38       		.byte	0x38
 2578 0902 B4000000 		.4byte	0xb4
 2579 0906 06       		.byte	0x6
 2580 0907 07       		.uleb128 0x7
 2581 0908 33060000 		.4byte	.LASF139
 2582 090c 12       		.byte	0x12
 2583 090d 39       		.byte	0x39
 2584 090e A9000000 		.4byte	0xa9
 2585 0912 08       		.byte	0x8
 2586 0913 07       		.uleb128 0x7
 2587 0914 92050000 		.4byte	.LASF140
 2588 0918 12       		.byte	0x12
 2589 0919 3A       		.byte	0x3a
 2590 091a A9000000 		.4byte	0xa9
 2591 091e 09       		.byte	0x9
 2592 091f 07       		.uleb128 0x7
 2593 0920 09010000 		.4byte	.LASF141
 2594 0924 12       		.byte	0x12
 2595 0925 3B       		.byte	0x3b
 2596 0926 A9000000 		.4byte	0xa9
 2597 092a 0A       		.byte	0xa
 2598 092b 07       		.uleb128 0x7
 2599 092c 99070000 		.4byte	.LASF142
 2600 0930 12       		.byte	0x12
 2601 0931 3C       		.byte	0x3c
ARM GAS  C:\Users\PCHAUT~1\AppData\Local\Temp\ccRqVguf.s 			page 47


 2602 0932 A9000000 		.4byte	0xa9
 2603 0936 0B       		.byte	0xb
 2604 0937 07       		.uleb128 0x7
 2605 0938 96080000 		.4byte	.LASF143
 2606 093c 12       		.byte	0x12
 2607 093d 3D       		.byte	0x3d
 2608 093e A9000000 		.4byte	0xa9
 2609 0942 0C       		.byte	0xc
 2610 0943 07       		.uleb128 0x7
 2611 0944 6B070000 		.4byte	.LASF144
 2612 0948 12       		.byte	0x12
 2613 0949 3E       		.byte	0x3e
 2614 094a A9000000 		.4byte	0xa9
 2615 094e 0D       		.byte	0xd
 2616 094f 07       		.uleb128 0x7
 2617 0950 13000000 		.4byte	.LASF145
 2618 0954 12       		.byte	0x12
 2619 0955 3F       		.byte	0x3f
 2620 0956 A9000000 		.4byte	0xa9
 2621 095a 0E       		.byte	0xe
 2622 095b 07       		.uleb128 0x7
 2623 095c BE050000 		.4byte	.LASF146
 2624 0960 12       		.byte	0x12
 2625 0961 40       		.byte	0x40
 2626 0962 A9000000 		.4byte	0xa9
 2627 0966 0F       		.byte	0xf
 2628 0967 07       		.uleb128 0x7
 2629 0968 85010000 		.4byte	.LASF147
 2630 096c 12       		.byte	0x12
 2631 096d 41       		.byte	0x41
 2632 096e A9000000 		.4byte	0xa9
 2633 0972 10       		.byte	0x10
 2634 0973 07       		.uleb128 0x7
 2635 0974 5E010000 		.4byte	.LASF148
 2636 0978 12       		.byte	0x12
 2637 0979 43       		.byte	0x43
 2638 097a A9000000 		.4byte	0xa9
 2639 097e 11       		.byte	0x11
 2640 097f 07       		.uleb128 0x7
 2641 0980 95010000 		.4byte	.LASF149
 2642 0984 12       		.byte	0x12
 2643 0985 44       		.byte	0x44
 2644 0986 A9000000 		.4byte	0xa9
 2645 098a 12       		.byte	0x12
 2646 098b 07       		.uleb128 0x7
 2647 098c 47050000 		.4byte	.LASF150
 2648 0990 12       		.byte	0x12
 2649 0991 45       		.byte	0x45
 2650 0992 A9000000 		.4byte	0xa9
 2651 0996 13       		.byte	0x13
 2652 0997 07       		.uleb128 0x7
 2653 0998 D3060000 		.4byte	.LASF151
 2654 099c 12       		.byte	0x12
 2655 099d 46       		.byte	0x46
 2656 099e A9000000 		.4byte	0xa9
 2657 09a2 14       		.byte	0x14
 2658 09a3 07       		.uleb128 0x7
ARM GAS  C:\Users\PCHAUT~1\AppData\Local\Temp\ccRqVguf.s 			page 48


 2659 09a4 E5040000 		.4byte	.LASF152
 2660 09a8 12       		.byte	0x12
 2661 09a9 48       		.byte	0x48
 2662 09aa A9000000 		.4byte	0xa9
 2663 09ae 15       		.byte	0x15
 2664 09af 00       		.byte	0
 2665 09b0 17       		.uleb128 0x17
 2666 09b1 9C080000 		.4byte	0x89c
 2667 09b5 C0090000 		.4byte	0x9c0
 2668 09b9 18       		.uleb128 0x18
 2669 09ba 2C000000 		.4byte	0x2c
 2670 09be 03       		.byte	0x3
 2671 09bf 00       		.byte	0
 2672 09c0 04       		.uleb128 0x4
 2673 09c1 34030000 		.4byte	.LASF153
 2674 09c5 12       		.byte	0x12
 2675 09c6 49       		.byte	0x49
 2676 09c7 CF080000 		.4byte	0x8cf
 2677 09cb 1B       		.uleb128 0x1b
 2678 09cc C0090000 		.4byte	0x9c0
 2679 09d0 13       		.uleb128 0x13
 2680 09d1 51040000 		.4byte	.LASF154
 2681 09d5 12       		.byte	0x12
 2682 09d6 6E       		.byte	0x6e
 2683 09d7 CB090000 		.4byte	0x9cb
 2684 09db 04       		.uleb128 0x4
 2685 09dc 53050000 		.4byte	.LASF155
 2686 09e0 04       		.byte	0x4
 2687 09e1 38       		.byte	0x38
 2688 09e2 23080000 		.4byte	0x823
 2689 09e6 04       		.uleb128 0x4
 2690 09e7 92030000 		.4byte	.LASF156
 2691 09eb 11       		.byte	0x11
 2692 09ec 34       		.byte	0x34
 2693 09ed 4E080000 		.4byte	0x84e
 2694 09f1 0A       		.uleb128 0xa
 2695 09f2 04       		.byte	0x4
 2696 09f3 E6090000 		.4byte	0x9e6
 2697 09f7 15       		.uleb128 0x15
 2698 09f8 28       		.byte	0x28
 2699 09f9 13       		.byte	0x13
 2700 09fa 38       		.byte	0x38
 2701 09fb 480A0000 		.4byte	0xa48
 2702 09ff 07       		.uleb128 0x7
 2703 0a00 EF050000 		.4byte	.LASF157
 2704 0a04 13       		.byte	0x13
 2705 0a05 39       		.byte	0x39
 2706 0a06 480A0000 		.4byte	0xa48
 2707 0a0a 00       		.byte	0
 2708 0a0b 07       		.uleb128 0x7
 2709 0a0c 7C060000 		.4byte	.LASF158
 2710 0a10 13       		.byte	0x13
 2711 0a11 3B       		.byte	0x3b
 2712 0a12 480A0000 		.4byte	0xa48
 2713 0a16 04       		.byte	0x4
 2714 0a17 07       		.uleb128 0x7
 2715 0a18 45010000 		.4byte	.LASF159
ARM GAS  C:\Users\PCHAUT~1\AppData\Local\Temp\ccRqVguf.s 			page 49


 2716 0a1c 13       		.byte	0x13
 2717 0a1d 3D       		.byte	0x3d
 2718 0a1e 480A0000 		.4byte	0xa48
 2719 0a22 08       		.byte	0x8
 2720 0a23 07       		.uleb128 0x7
 2721 0a24 62030000 		.4byte	.LASF160
 2722 0a28 13       		.byte	0x13
 2723 0a29 3E       		.byte	0x3e
 2724 0a2a 480A0000 		.4byte	0xa48
 2725 0a2e 0C       		.byte	0xc
 2726 0a2f 07       		.uleb128 0x7
 2727 0a30 8B080000 		.4byte	.LASF161
 2728 0a34 13       		.byte	0x13
 2729 0a35 3F       		.byte	0x3f
 2730 0a36 DB090000 		.4byte	0x9db
 2731 0a3a 10       		.byte	0x10
 2732 0a3b 07       		.uleb128 0x7
 2733 0a3c 62040000 		.4byte	.LASF162
 2734 0a40 13       		.byte	0x13
 2735 0a41 41       		.byte	0x41
 2736 0a42 DB090000 		.4byte	0x9db
 2737 0a46 1C       		.byte	0x1c
 2738 0a47 00       		.byte	0
 2739 0a48 0A       		.uleb128 0xa
 2740 0a49 04       		.byte	0x4
 2741 0a4a 32010000 		.4byte	0x132
 2742 0a4e 04       		.uleb128 0x4
 2743 0a4f FC080000 		.4byte	.LASF163
 2744 0a53 13       		.byte	0x13
 2745 0a54 43       		.byte	0x43
 2746 0a55 F7090000 		.4byte	0x9f7
 2747 0a59 1D       		.uleb128 0x1d
 2748 0a5a A9040000 		.4byte	.LASF165
 2749 0a5e 05       		.byte	0x5
 2750 0a5f 9F01     		.2byte	0x19f
 2751 0a61 32010000 		.4byte	0x132
 2752 0a65 00000000 		.4byte	.LFB230
 2753 0a69 94000000 		.4byte	.LFE230-.LFB230
 2754 0a6d 01       		.uleb128 0x1
 2755 0a6e 9C       		.byte	0x9c
 2756 0a6f A10A0000 		.4byte	0xaa1
 2757 0a73 1E       		.uleb128 0x1e
 2758 0a74 6D627000 		.ascii	"mbp\000"
 2759 0a78 05       		.byte	0x5
 2760 0a79 9F01     		.2byte	0x19f
 2761 0a7b A10A0000 		.4byte	0xaa1
 2762 0a7f 02       		.uleb128 0x2
 2763 0a80 91       		.byte	0x91
 2764 0a81 6C       		.sleb128 -20
 2765 0a82 1F       		.uleb128 0x1f
 2766 0a83 20050000 		.4byte	.LASF164
 2767 0a87 05       		.byte	0x5
 2768 0a88 9F01     		.2byte	0x19f
 2769 0a8a 480A0000 		.4byte	0xa48
 2770 0a8e 02       		.uleb128 0x2
 2771 0a8f 91       		.byte	0x91
 2772 0a90 68       		.sleb128 -24
ARM GAS  C:\Users\PCHAUT~1\AppData\Local\Temp\ccRqVguf.s 			page 50


 2773 0a91 20       		.uleb128 0x20
 2774 0a92 EA060000 		.4byte	.LASF168
 2775 0a96 B70A0000 		.4byte	0xab7
 2776 0a9a 05       		.uleb128 0x5
 2777 0a9b 03       		.byte	0x3
 2778 0a9c 00000000 		.4byte	__func__.7912
 2779 0aa0 00       		.byte	0
 2780 0aa1 0A       		.uleb128 0xa
 2781 0aa2 04       		.byte	0x4
 2782 0aa3 4E0A0000 		.4byte	0xa4e
 2783 0aa7 17       		.uleb128 0x17
 2784 0aa8 A3080000 		.4byte	0x8a3
 2785 0aac B70A0000 		.4byte	0xab7
 2786 0ab0 18       		.uleb128 0x18
 2787 0ab1 2C000000 		.4byte	0x2c
 2788 0ab5 0A       		.byte	0xa
 2789 0ab6 00       		.byte	0
 2790 0ab7 1B       		.uleb128 0x1b
 2791 0ab8 A70A0000 		.4byte	0xaa7
 2792 0abc 1D       		.uleb128 0x1d
 2793 0abd DA040000 		.4byte	.LASF166
 2794 0ac1 05       		.byte	0x5
 2795 0ac2 7E01     		.2byte	0x17e
 2796 0ac4 32010000 		.4byte	0x132
 2797 0ac8 00000000 		.4byte	.LFB229
 2798 0acc 8C000000 		.4byte	.LFE229-.LFB229
 2799 0ad0 01       		.uleb128 0x1
 2800 0ad1 9C       		.byte	0x9c
 2801 0ad2 220B0000 		.4byte	0xb22
 2802 0ad6 1E       		.uleb128 0x1e
 2803 0ad7 6D627000 		.ascii	"mbp\000"
 2804 0adb 05       		.byte	0x5
 2805 0adc 7E01     		.2byte	0x17e
 2806 0ade A10A0000 		.4byte	0xaa1
 2807 0ae2 02       		.uleb128 0x2
 2808 0ae3 91       		.byte	0x91
 2809 0ae4 6C       		.sleb128 -20
 2810 0ae5 1F       		.uleb128 0x1f
 2811 0ae6 20050000 		.4byte	.LASF164
 2812 0aea 05       		.byte	0x5
 2813 0aeb 7E01     		.2byte	0x17e
 2814 0aed 480A0000 		.4byte	0xa48
 2815 0af1 02       		.uleb128 0x2
 2816 0af2 91       		.byte	0x91
 2817 0af3 68       		.sleb128 -24
 2818 0af4 1F       		.uleb128 0x1f
 2819 0af5 5A040000 		.4byte	.LASF167
 2820 0af9 05       		.byte	0x5
 2821 0afa 7E01     		.2byte	0x17e
 2822 0afc 5E010000 		.4byte	0x15e
 2823 0b00 02       		.uleb128 0x2
 2824 0b01 91       		.byte	0x91
 2825 0b02 64       		.sleb128 -28
 2826 0b03 21       		.uleb128 0x21
 2827 0b04 42000000 		.4byte	.LASF119
 2828 0b08 05       		.byte	0x5
 2829 0b09 7F01     		.2byte	0x17f
ARM GAS  C:\Users\PCHAUT~1\AppData\Local\Temp\ccRqVguf.s 			page 51


 2830 0b0b 32010000 		.4byte	0x132
 2831 0b0f 02       		.uleb128 0x2
 2832 0b10 91       		.byte	0x91
 2833 0b11 70       		.sleb128 -16
 2834 0b12 20       		.uleb128 0x20
 2835 0b13 EA060000 		.4byte	.LASF168
 2836 0b17 B70A0000 		.4byte	0xab7
 2837 0b1b 05       		.uleb128 0x5
 2838 0b1c 03       		.byte	0x3
 2839 0b1d 00000000 		.4byte	__func__.7907
 2840 0b21 00       		.byte	0
 2841 0b22 1D       		.uleb128 0x1d
 2842 0b23 88050000 		.4byte	.LASF169
 2843 0b27 05       		.byte	0x5
 2844 0b28 6101     		.2byte	0x161
 2845 0b2a 32010000 		.4byte	0x132
 2846 0b2e 00000000 		.4byte	.LFB228
 2847 0b32 40000000 		.4byte	.LFE228-.LFB228
 2848 0b36 01       		.uleb128 0x1
 2849 0b37 9C       		.byte	0x9c
 2850 0b38 790B0000 		.4byte	0xb79
 2851 0b3c 1E       		.uleb128 0x1e
 2852 0b3d 6D627000 		.ascii	"mbp\000"
 2853 0b41 05       		.byte	0x5
 2854 0b42 6101     		.2byte	0x161
 2855 0b44 A10A0000 		.4byte	0xaa1
 2856 0b48 02       		.uleb128 0x2
 2857 0b49 91       		.byte	0x91
 2858 0b4a 6C       		.sleb128 -20
 2859 0b4b 1F       		.uleb128 0x1f
 2860 0b4c 20050000 		.4byte	.LASF164
 2861 0b50 05       		.byte	0x5
 2862 0b51 6101     		.2byte	0x161
 2863 0b53 480A0000 		.4byte	0xa48
 2864 0b57 02       		.uleb128 0x2
 2865 0b58 91       		.byte	0x91
 2866 0b59 68       		.sleb128 -24
 2867 0b5a 1F       		.uleb128 0x1f
 2868 0b5b 5A040000 		.4byte	.LASF167
 2869 0b5f 05       		.byte	0x5
 2870 0b60 6101     		.2byte	0x161
 2871 0b62 5E010000 		.4byte	0x15e
 2872 0b66 02       		.uleb128 0x2
 2873 0b67 91       		.byte	0x91
 2874 0b68 64       		.sleb128 -28
 2875 0b69 21       		.uleb128 0x21
 2876 0b6a 42000000 		.4byte	.LASF119
 2877 0b6e 05       		.byte	0x5
 2878 0b6f 6201     		.2byte	0x162
 2879 0b71 32010000 		.4byte	0x132
 2880 0b75 02       		.uleb128 0x2
 2881 0b76 91       		.byte	0x91
 2882 0b77 70       		.sleb128 -16
 2883 0b78 00       		.byte	0
 2884 0b79 1D       		.uleb128 0x1d
 2885 0b7a D1000000 		.4byte	.LASF170
 2886 0b7e 05       		.byte	0x5
ARM GAS  C:\Users\PCHAUT~1\AppData\Local\Temp\ccRqVguf.s 			page 52


 2887 0b7f 3C01     		.2byte	0x13c
 2888 0b81 32010000 		.4byte	0x132
 2889 0b85 00000000 		.4byte	.LFB227
 2890 0b89 90000000 		.4byte	.LFE227-.LFB227
 2891 0b8d 01       		.uleb128 0x1
 2892 0b8e 9C       		.byte	0x9c
 2893 0b8f C10B0000 		.4byte	0xbc1
 2894 0b93 1E       		.uleb128 0x1e
 2895 0b94 6D627000 		.ascii	"mbp\000"
 2896 0b98 05       		.byte	0x5
 2897 0b99 3C01     		.2byte	0x13c
 2898 0b9b A10A0000 		.4byte	0xaa1
 2899 0b9f 02       		.uleb128 0x2
 2900 0ba0 91       		.byte	0x91
 2901 0ba1 6C       		.sleb128 -20
 2902 0ba2 1E       		.uleb128 0x1e
 2903 0ba3 6D736700 		.ascii	"msg\000"
 2904 0ba7 05       		.byte	0x5
 2905 0ba8 3C01     		.2byte	0x13c
 2906 0baa 32010000 		.4byte	0x132
 2907 0bae 02       		.uleb128 0x2
 2908 0baf 91       		.byte	0x91
 2909 0bb0 68       		.sleb128 -24
 2910 0bb1 20       		.uleb128 0x20
 2911 0bb2 EA060000 		.4byte	.LASF168
 2912 0bb6 D10B0000 		.4byte	0xbd1
 2913 0bba 05       		.uleb128 0x5
 2914 0bbb 03       		.byte	0x3
 2915 0bbc 00000000 		.4byte	__func__.7894
 2916 0bc0 00       		.byte	0
 2917 0bc1 17       		.uleb128 0x17
 2918 0bc2 A3080000 		.4byte	0x8a3
 2919 0bc6 D10B0000 		.4byte	0xbd1
 2920 0bca 18       		.uleb128 0x18
 2921 0bcb 2C000000 		.4byte	0x2c
 2922 0bcf 0E       		.byte	0xe
 2923 0bd0 00       		.byte	0
 2924 0bd1 1B       		.uleb128 0x1b
 2925 0bd2 C10B0000 		.4byte	0xbc1
 2926 0bd6 1D       		.uleb128 0x1d
 2927 0bd7 20010000 		.4byte	.LASF171
 2928 0bdb 05       		.byte	0x5
 2929 0bdc 1B01     		.2byte	0x11b
 2930 0bde 32010000 		.4byte	0x132
 2931 0be2 00000000 		.4byte	.LFB226
 2932 0be6 8C000000 		.4byte	.LFE226-.LFB226
 2933 0bea 01       		.uleb128 0x1
 2934 0beb 9C       		.byte	0x9c
 2935 0bec 3C0C0000 		.4byte	0xc3c
 2936 0bf0 1E       		.uleb128 0x1e
 2937 0bf1 6D627000 		.ascii	"mbp\000"
 2938 0bf5 05       		.byte	0x5
 2939 0bf6 1B01     		.2byte	0x11b
 2940 0bf8 A10A0000 		.4byte	0xaa1
 2941 0bfc 02       		.uleb128 0x2
 2942 0bfd 91       		.byte	0x91
 2943 0bfe 6C       		.sleb128 -20
ARM GAS  C:\Users\PCHAUT~1\AppData\Local\Temp\ccRqVguf.s 			page 53


 2944 0bff 1E       		.uleb128 0x1e
 2945 0c00 6D736700 		.ascii	"msg\000"
 2946 0c04 05       		.byte	0x5
 2947 0c05 1B01     		.2byte	0x11b
 2948 0c07 32010000 		.4byte	0x132
 2949 0c0b 02       		.uleb128 0x2
 2950 0c0c 91       		.byte	0x91
 2951 0c0d 68       		.sleb128 -24
 2952 0c0e 1F       		.uleb128 0x1f
 2953 0c0f 5A040000 		.4byte	.LASF167
 2954 0c13 05       		.byte	0x5
 2955 0c14 1B01     		.2byte	0x11b
 2956 0c16 5E010000 		.4byte	0x15e
 2957 0c1a 02       		.uleb128 0x2
 2958 0c1b 91       		.byte	0x91
 2959 0c1c 64       		.sleb128 -28
 2960 0c1d 21       		.uleb128 0x21
 2961 0c1e 42000000 		.4byte	.LASF119
 2962 0c22 05       		.byte	0x5
 2963 0c23 1C01     		.2byte	0x11c
 2964 0c25 32010000 		.4byte	0x132
 2965 0c29 02       		.uleb128 0x2
 2966 0c2a 91       		.byte	0x91
 2967 0c2b 70       		.sleb128 -16
 2968 0c2c 20       		.uleb128 0x20
 2969 0c2d EA060000 		.4byte	.LASF168
 2970 0c31 D10B0000 		.4byte	0xbd1
 2971 0c35 05       		.uleb128 0x5
 2972 0c36 03       		.byte	0x3
 2973 0c37 00000000 		.4byte	__func__.7889
 2974 0c3b 00       		.byte	0
 2975 0c3c 22       		.uleb128 0x22
 2976 0c3d 5F080000 		.4byte	.LASF172
 2977 0c41 05       		.byte	0x5
 2978 0c42 FE       		.byte	0xfe
 2979 0c43 32010000 		.4byte	0x132
 2980 0c47 00000000 		.4byte	.LFB225
 2981 0c4b 40000000 		.4byte	.LFE225-.LFB225
 2982 0c4f 01       		.uleb128 0x1
 2983 0c50 9C       		.byte	0x9c
 2984 0c51 8E0C0000 		.4byte	0xc8e
 2985 0c55 23       		.uleb128 0x23
 2986 0c56 6D627000 		.ascii	"mbp\000"
 2987 0c5a 05       		.byte	0x5
 2988 0c5b FE       		.byte	0xfe
 2989 0c5c A10A0000 		.4byte	0xaa1
 2990 0c60 02       		.uleb128 0x2
 2991 0c61 91       		.byte	0x91
 2992 0c62 6C       		.sleb128 -20
 2993 0c63 23       		.uleb128 0x23
 2994 0c64 6D736700 		.ascii	"msg\000"
 2995 0c68 05       		.byte	0x5
 2996 0c69 FE       		.byte	0xfe
 2997 0c6a 32010000 		.4byte	0x132
 2998 0c6e 02       		.uleb128 0x2
 2999 0c6f 91       		.byte	0x91
 3000 0c70 68       		.sleb128 -24
ARM GAS  C:\Users\PCHAUT~1\AppData\Local\Temp\ccRqVguf.s 			page 54


 3001 0c71 24       		.uleb128 0x24
 3002 0c72 5A040000 		.4byte	.LASF167
 3003 0c76 05       		.byte	0x5
 3004 0c77 FE       		.byte	0xfe
 3005 0c78 5E010000 		.4byte	0x15e
 3006 0c7c 02       		.uleb128 0x2
 3007 0c7d 91       		.byte	0x91
 3008 0c7e 64       		.sleb128 -28
 3009 0c7f 25       		.uleb128 0x25
 3010 0c80 42000000 		.4byte	.LASF119
 3011 0c84 05       		.byte	0x5
 3012 0c85 FF       		.byte	0xff
 3013 0c86 32010000 		.4byte	0x132
 3014 0c8a 02       		.uleb128 0x2
 3015 0c8b 91       		.byte	0x91
 3016 0c8c 70       		.sleb128 -16
 3017 0c8d 00       		.byte	0
 3018 0c8e 22       		.uleb128 0x22
 3019 0c8f 69000000 		.4byte	.LASF173
 3020 0c93 05       		.byte	0x5
 3021 0c94 D8       		.byte	0xd8
 3022 0c95 32010000 		.4byte	0x132
 3023 0c99 00000000 		.4byte	.LFB224
 3024 0c9d 8C000000 		.4byte	.LFE224-.LFB224
 3025 0ca1 01       		.uleb128 0x1
 3026 0ca2 9C       		.byte	0x9c
 3027 0ca3 D30C0000 		.4byte	0xcd3
 3028 0ca7 23       		.uleb128 0x23
 3029 0ca8 6D627000 		.ascii	"mbp\000"
 3030 0cac 05       		.byte	0x5
 3031 0cad D8       		.byte	0xd8
 3032 0cae A10A0000 		.4byte	0xaa1
 3033 0cb2 02       		.uleb128 0x2
 3034 0cb3 91       		.byte	0x91
 3035 0cb4 6C       		.sleb128 -20
 3036 0cb5 23       		.uleb128 0x23
 3037 0cb6 6D736700 		.ascii	"msg\000"
 3038 0cba 05       		.byte	0x5
 3039 0cbb D8       		.byte	0xd8
 3040 0cbc 32010000 		.4byte	0x132
 3041 0cc0 02       		.uleb128 0x2
 3042 0cc1 91       		.byte	0x91
 3043 0cc2 68       		.sleb128 -24
 3044 0cc3 20       		.uleb128 0x20
 3045 0cc4 EA060000 		.4byte	.LASF168
 3046 0cc8 E30C0000 		.4byte	0xce3
 3047 0ccc 05       		.uleb128 0x5
 3048 0ccd 03       		.byte	0x3
 3049 0cce 00000000 		.4byte	__func__.7876
 3050 0cd2 00       		.byte	0
 3051 0cd3 17       		.uleb128 0x17
 3052 0cd4 A3080000 		.4byte	0x8a3
 3053 0cd8 E30C0000 		.4byte	0xce3
 3054 0cdc 18       		.uleb128 0x18
 3055 0cdd 2C000000 		.4byte	0x2c
 3056 0ce1 09       		.byte	0x9
 3057 0ce2 00       		.byte	0
ARM GAS  C:\Users\PCHAUT~1\AppData\Local\Temp\ccRqVguf.s 			page 55


 3058 0ce3 1B       		.uleb128 0x1b
 3059 0ce4 D30C0000 		.4byte	0xcd3
 3060 0ce8 22       		.uleb128 0x22
 3061 0ce9 AE000000 		.4byte	.LASF174
 3062 0ced 05       		.byte	0x5
 3063 0cee B7       		.byte	0xb7
 3064 0cef 32010000 		.4byte	0x132
 3065 0cf3 00000000 		.4byte	.LFB223
 3066 0cf7 84000000 		.4byte	.LFE223-.LFB223
 3067 0cfb 01       		.uleb128 0x1
 3068 0cfc 9C       		.byte	0x9c
 3069 0cfd 490D0000 		.4byte	0xd49
 3070 0d01 23       		.uleb128 0x23
 3071 0d02 6D627000 		.ascii	"mbp\000"
 3072 0d06 05       		.byte	0x5
 3073 0d07 B7       		.byte	0xb7
 3074 0d08 A10A0000 		.4byte	0xaa1
 3075 0d0c 02       		.uleb128 0x2
 3076 0d0d 91       		.byte	0x91
 3077 0d0e 6C       		.sleb128 -20
 3078 0d0f 23       		.uleb128 0x23
 3079 0d10 6D736700 		.ascii	"msg\000"
 3080 0d14 05       		.byte	0x5
 3081 0d15 B7       		.byte	0xb7
 3082 0d16 32010000 		.4byte	0x132
 3083 0d1a 02       		.uleb128 0x2
 3084 0d1b 91       		.byte	0x91
 3085 0d1c 68       		.sleb128 -24
 3086 0d1d 24       		.uleb128 0x24
 3087 0d1e 5A040000 		.4byte	.LASF167
 3088 0d22 05       		.byte	0x5
 3089 0d23 B7       		.byte	0xb7
 3090 0d24 5E010000 		.4byte	0x15e
 3091 0d28 02       		.uleb128 0x2
 3092 0d29 91       		.byte	0x91
 3093 0d2a 64       		.sleb128 -28
 3094 0d2b 25       		.uleb128 0x25
 3095 0d2c 42000000 		.4byte	.LASF119
 3096 0d30 05       		.byte	0x5
 3097 0d31 B8       		.byte	0xb8
 3098 0d32 32010000 		.4byte	0x132
 3099 0d36 02       		.uleb128 0x2
 3100 0d37 91       		.byte	0x91
 3101 0d38 70       		.sleb128 -16
 3102 0d39 20       		.uleb128 0x20
 3103 0d3a EA060000 		.4byte	.LASF168
 3104 0d3e E30C0000 		.4byte	0xce3
 3105 0d42 05       		.uleb128 0x5
 3106 0d43 03       		.byte	0x3
 3107 0d44 00000000 		.4byte	__func__.7871
 3108 0d48 00       		.byte	0
 3109 0d49 22       		.uleb128 0x22
 3110 0d4a CF010000 		.4byte	.LASF175
 3111 0d4e 05       		.byte	0x5
 3112 0d4f 9A       		.byte	0x9a
 3113 0d50 32010000 		.4byte	0x132
 3114 0d54 00000000 		.4byte	.LFB222
ARM GAS  C:\Users\PCHAUT~1\AppData\Local\Temp\ccRqVguf.s 			page 56


 3115 0d58 40000000 		.4byte	.LFE222-.LFB222
 3116 0d5c 01       		.uleb128 0x1
 3117 0d5d 9C       		.byte	0x9c
 3118 0d5e 9B0D0000 		.4byte	0xd9b
 3119 0d62 23       		.uleb128 0x23
 3120 0d63 6D627000 		.ascii	"mbp\000"
 3121 0d67 05       		.byte	0x5
 3122 0d68 9A       		.byte	0x9a
 3123 0d69 A10A0000 		.4byte	0xaa1
 3124 0d6d 02       		.uleb128 0x2
 3125 0d6e 91       		.byte	0x91
 3126 0d6f 6C       		.sleb128 -20
 3127 0d70 23       		.uleb128 0x23
 3128 0d71 6D736700 		.ascii	"msg\000"
 3129 0d75 05       		.byte	0x5
 3130 0d76 9A       		.byte	0x9a
 3131 0d77 32010000 		.4byte	0x132
 3132 0d7b 02       		.uleb128 0x2
 3133 0d7c 91       		.byte	0x91
 3134 0d7d 68       		.sleb128 -24
 3135 0d7e 24       		.uleb128 0x24
 3136 0d7f 5A040000 		.4byte	.LASF167
 3137 0d83 05       		.byte	0x5
 3138 0d84 9A       		.byte	0x9a
 3139 0d85 5E010000 		.4byte	0x15e
 3140 0d89 02       		.uleb128 0x2
 3141 0d8a 91       		.byte	0x91
 3142 0d8b 64       		.sleb128 -28
 3143 0d8c 25       		.uleb128 0x25
 3144 0d8d 42000000 		.4byte	.LASF119
 3145 0d91 05       		.byte	0x5
 3146 0d92 9B       		.byte	0x9b
 3147 0d93 32010000 		.4byte	0x132
 3148 0d97 02       		.uleb128 0x2
 3149 0d98 91       		.byte	0x91
 3150 0d99 70       		.sleb128 -16
 3151 0d9a 00       		.byte	0
 3152 0d9b 26       		.uleb128 0x26
 3153 0d9c 7A040000 		.4byte	.LASF176
 3154 0da0 05       		.byte	0x5
 3155 0da1 7C       		.byte	0x7c
 3156 0da2 00000000 		.4byte	.LFB221
 3157 0da6 74000000 		.4byte	.LFE221-.LFB221
 3158 0daa 01       		.uleb128 0x1
 3159 0dab 9C       		.byte	0x9c
 3160 0dac CE0D0000 		.4byte	0xdce
 3161 0db0 23       		.uleb128 0x23
 3162 0db1 6D627000 		.ascii	"mbp\000"
 3163 0db5 05       		.byte	0x5
 3164 0db6 7C       		.byte	0x7c
 3165 0db7 A10A0000 		.4byte	0xaa1
 3166 0dbb 02       		.uleb128 0x2
 3167 0dbc 91       		.byte	0x91
 3168 0dbd 6C       		.sleb128 -20
 3169 0dbe 20       		.uleb128 0x20
 3170 0dbf EA060000 		.4byte	.LASF168
 3171 0dc3 B70A0000 		.4byte	0xab7
ARM GAS  C:\Users\PCHAUT~1\AppData\Local\Temp\ccRqVguf.s 			page 57


 3172 0dc7 05       		.uleb128 0x5
 3173 0dc8 03       		.byte	0x3
 3174 0dc9 00000000 		.4byte	__func__.7858
 3175 0dcd 00       		.byte	0
 3176 0dce 26       		.uleb128 0x26
 3177 0dcf A5050000 		.4byte	.LASF177
 3178 0dd3 05       		.byte	0x5
 3179 0dd4 6B       		.byte	0x6b
 3180 0dd5 00000000 		.4byte	.LFB220
 3181 0dd9 38000000 		.4byte	.LFE220-.LFB220
 3182 0ddd 01       		.uleb128 0x1
 3183 0dde 9C       		.byte	0x9c
 3184 0ddf F20D0000 		.4byte	0xdf2
 3185 0de3 23       		.uleb128 0x23
 3186 0de4 6D627000 		.ascii	"mbp\000"
 3187 0de8 05       		.byte	0x5
 3188 0de9 6B       		.byte	0x6b
 3189 0dea A10A0000 		.4byte	0xaa1
 3190 0dee 02       		.uleb128 0x2
 3191 0def 91       		.byte	0x91
 3192 0df0 6C       		.sleb128 -20
 3193 0df1 00       		.byte	0
 3194 0df2 26       		.uleb128 0x26
 3195 0df3 2D000000 		.4byte	.LASF178
 3196 0df7 05       		.byte	0x5
 3197 0df8 56       		.byte	0x56
 3198 0df9 00000000 		.4byte	.LFB219
 3199 0dfd 7C000000 		.4byte	.LFE219-.LFB219
 3200 0e01 01       		.uleb128 0x1
 3201 0e02 9C       		.byte	0x9c
 3202 0e03 3F0E0000 		.4byte	0xe3f
 3203 0e07 23       		.uleb128 0x23
 3204 0e08 6D627000 		.ascii	"mbp\000"
 3205 0e0c 05       		.byte	0x5
 3206 0e0d 56       		.byte	0x56
 3207 0e0e A10A0000 		.4byte	0xaa1
 3208 0e12 02       		.uleb128 0x2
 3209 0e13 91       		.byte	0x91
 3210 0e14 6C       		.sleb128 -20
 3211 0e15 23       		.uleb128 0x23
 3212 0e16 62756600 		.ascii	"buf\000"
 3213 0e1a 05       		.byte	0x5
 3214 0e1b 56       		.byte	0x56
 3215 0e1c 480A0000 		.4byte	0xa48
 3216 0e20 02       		.uleb128 0x2
 3217 0e21 91       		.byte	0x91
 3218 0e22 68       		.sleb128 -24
 3219 0e23 23       		.uleb128 0x23
 3220 0e24 6E00     		.ascii	"n\000"
 3221 0e26 05       		.byte	0x5
 3222 0e27 56       		.byte	0x56
 3223 0e28 48010000 		.4byte	0x148
 3224 0e2c 02       		.uleb128 0x2
 3225 0e2d 91       		.byte	0x91
 3226 0e2e 64       		.sleb128 -28
 3227 0e2f 20       		.uleb128 0x20
 3228 0e30 EA060000 		.4byte	.LASF168
ARM GAS  C:\Users\PCHAUT~1\AppData\Local\Temp\ccRqVguf.s 			page 58


 3229 0e34 D10B0000 		.4byte	0xbd1
 3230 0e38 05       		.uleb128 0x5
 3231 0e39 03       		.byte	0x3
 3232 0e3a 00000000 		.4byte	__func__.7851
 3233 0e3e 00       		.byte	0
 3234 0e3f 27       		.uleb128 0x27
 3235 0e40 27080000 		.4byte	.LASF186
 3236 0e44 04       		.byte	0x4
 3237 0e45 95       		.byte	0x95
 3238 0e46 48010000 		.4byte	0x148
 3239 0e4a 00000000 		.4byte	.LFB181
 3240 0e4e 30000000 		.4byte	.LFE181-.LFB181
 3241 0e52 01       		.uleb128 0x1
 3242 0e53 9C       		.byte	0x9c
 3243 0e54 660E0000 		.4byte	0xe66
 3244 0e58 23       		.uleb128 0x23
 3245 0e59 737000   		.ascii	"sp\000"
 3246 0e5c 04       		.byte	0x4
 3247 0e5d 95       		.byte	0x95
 3248 0e5e 660E0000 		.4byte	0xe66
 3249 0e62 02       		.uleb128 0x2
 3250 0e63 91       		.byte	0x91
 3251 0e64 6C       		.sleb128 -20
 3252 0e65 00       		.byte	0
 3253 0e66 0A       		.uleb128 0xa
 3254 0e67 04       		.byte	0x4
 3255 0e68 DB090000 		.4byte	0x9db
 3256 0e6c 28       		.uleb128 0x28
 3257 0e6d 74080000 		.4byte	.LASF179
 3258 0e71 04       		.byte	0x4
 3259 0e72 76       		.byte	0x76
 3260 0e73 00000000 		.4byte	.LFB179
 3261 0e77 34000000 		.4byte	.LFE179-.LFB179
 3262 0e7b 01       		.uleb128 0x1
 3263 0e7c 9C       		.byte	0x9c
 3264 0e7d 8F0E0000 		.4byte	0xe8f
 3265 0e81 23       		.uleb128 0x23
 3266 0e82 737000   		.ascii	"sp\000"
 3267 0e85 04       		.byte	0x4
 3268 0e86 76       		.byte	0x76
 3269 0e87 660E0000 		.4byte	0xe66
 3270 0e8b 02       		.uleb128 0x2
 3271 0e8c 91       		.byte	0x91
 3272 0e8d 6C       		.sleb128 -20
 3273 0e8e 00       		.byte	0
 3274 0e8f 29       		.uleb128 0x29
 3275 0e90 13090000 		.4byte	.LASF180
 3276 0e94 03       		.byte	0x3
 3277 0e95 6601     		.2byte	0x166
 3278 0e97 00000000 		.4byte	.LFB146
 3279 0e9b 58000000 		.4byte	.LFE146-.LFB146
 3280 0e9f 01       		.uleb128 0x1
 3281 0ea0 9C       		.byte	0x9c
 3282 0ea1 B50E0000 		.4byte	0xeb5
 3283 0ea5 20       		.uleb128 0x20
 3284 0ea6 EA060000 		.4byte	.LASF168
 3285 0eaa C50E0000 		.4byte	0xec5
ARM GAS  C:\Users\PCHAUT~1\AppData\Local\Temp\ccRqVguf.s 			page 59


 3286 0eae 05       		.uleb128 0x5
 3287 0eaf 03       		.byte	0x3
 3288 0eb0 00000000 		.4byte	__func__.7153
 3289 0eb4 00       		.byte	0
 3290 0eb5 17       		.uleb128 0x17
 3291 0eb6 A3080000 		.4byte	0x8a3
 3292 0eba C50E0000 		.4byte	0xec5
 3293 0ebe 18       		.uleb128 0x18
 3294 0ebf 2C000000 		.4byte	0x2c
 3295 0ec3 0B       		.byte	0xb
 3296 0ec4 00       		.byte	0
 3297 0ec5 1B       		.uleb128 0x1b
 3298 0ec6 B50E0000 		.4byte	0xeb5
 3299 0eca 2A       		.uleb128 0x2a
 3300 0ecb FB060000 		.4byte	.LASF187
 3301 0ecf 03       		.byte	0x3
 3302 0ed0 5A01     		.2byte	0x15a
 3303 0ed2 00000000 		.4byte	.LFB145
 3304 0ed6 30000000 		.4byte	.LFE145-.LFB145
 3305 0eda 01       		.uleb128 0x1
 3306 0edb 9C       		.byte	0x9c
 3307 0edc 29       		.uleb128 0x29
 3308 0edd B9010000 		.4byte	.LASF181
 3309 0ee1 01       		.byte	0x1
 3310 0ee2 CA01     		.2byte	0x1ca
 3311 0ee4 00000000 		.4byte	.LFB117
 3312 0ee8 30000000 		.4byte	.LFE117-.LFB117
 3313 0eec 01       		.uleb128 0x1
 3314 0eed 9C       		.byte	0x9c
 3315 0eee 0C0F0000 		.4byte	0xf0c
 3316 0ef2 2B       		.uleb128 0x2b
 3317 0ef3 3C0F0000 		.4byte	0xf3c
 3318 0ef7 0E000000 		.4byte	.LBB8
 3319 0efb 06000000 		.4byte	.LBE8-.LBB8
 3320 0eff 01       		.byte	0x1
 3321 0f00 CD01     		.2byte	0x1cd
 3322 0f02 2C       		.uleb128 0x2c
 3323 0f03 450F0000 		.4byte	0xf45
 3324 0f07 02       		.uleb128 0x2
 3325 0f08 91       		.byte	0x91
 3326 0f09 70       		.sleb128 -16
 3327 0f0a 00       		.byte	0
 3328 0f0b 00       		.byte	0
 3329 0f0c 29       		.uleb128 0x29
 3330 0f0d 2A090000 		.4byte	.LASF182
 3331 0f11 01       		.byte	0x1
 3332 0f12 BC01     		.2byte	0x1bc
 3333 0f14 00000000 		.4byte	.LFB116
 3334 0f18 30000000 		.4byte	.LFE116-.LFB116
 3335 0f1c 01       		.uleb128 0x1
 3336 0f1d 9C       		.byte	0x9c
 3337 0f1e 3C0F0000 		.4byte	0xf3c
 3338 0f22 2B       		.uleb128 0x2b
 3339 0f23 3C0F0000 		.4byte	0xf3c
 3340 0f27 0E000000 		.4byte	.LBB6
 3341 0f2b 06000000 		.4byte	.LBE6-.LBB6
 3342 0f2f 01       		.byte	0x1
ARM GAS  C:\Users\PCHAUT~1\AppData\Local\Temp\ccRqVguf.s 			page 60


 3343 0f30 BF01     		.2byte	0x1bf
 3344 0f32 2C       		.uleb128 0x2c
 3345 0f33 450F0000 		.4byte	0xf45
 3346 0f37 02       		.uleb128 0x2
 3347 0f38 91       		.byte	0x91
 3348 0f39 70       		.sleb128 -16
 3349 0f3a 00       		.byte	0
 3350 0f3b 00       		.byte	0
 3351 0f3c 2D       		.uleb128 0x2d
 3352 0f3d 38080000 		.4byte	.LASF188
 3353 0f41 02       		.byte	0x2
 3354 0f42 2002     		.2byte	0x220
 3355 0f44 03       		.byte	0x3
 3356 0f45 2E       		.uleb128 0x2e
 3357 0f46 9A030000 		.4byte	.LASF189
 3358 0f4a 02       		.byte	0x2
 3359 0f4b 2002     		.2byte	0x220
 3360 0f4d CF000000 		.4byte	0xcf
 3361 0f51 00       		.byte	0
 3362 0f52 00       		.byte	0
 3363              		.section	.debug_abbrev,"",%progbits
 3364              	.Ldebug_abbrev0:
 3365 0000 01       		.uleb128 0x1
 3366 0001 11       		.uleb128 0x11
 3367 0002 01       		.byte	0x1
 3368 0003 25       		.uleb128 0x25
 3369 0004 0E       		.uleb128 0xe
 3370 0005 13       		.uleb128 0x13
 3371 0006 0B       		.uleb128 0xb
 3372 0007 03       		.uleb128 0x3
 3373 0008 0E       		.uleb128 0xe
 3374 0009 1B       		.uleb128 0x1b
 3375 000a 0E       		.uleb128 0xe
 3376 000b 55       		.uleb128 0x55
 3377 000c 17       		.uleb128 0x17
 3378 000d 11       		.uleb128 0x11
 3379 000e 01       		.uleb128 0x1
 3380 000f 10       		.uleb128 0x10
 3381 0010 17       		.uleb128 0x17
 3382 0011 00       		.byte	0
 3383 0012 00       		.byte	0
 3384 0013 02       		.uleb128 0x2
 3385 0014 24       		.uleb128 0x24
 3386 0015 00       		.byte	0
 3387 0016 0B       		.uleb128 0xb
 3388 0017 0B       		.uleb128 0xb
 3389 0018 3E       		.uleb128 0x3e
 3390 0019 0B       		.uleb128 0xb
 3391 001a 03       		.uleb128 0x3
 3392 001b 08       		.uleb128 0x8
 3393 001c 00       		.byte	0
 3394 001d 00       		.byte	0
 3395 001e 03       		.uleb128 0x3
 3396 001f 24       		.uleb128 0x24
 3397 0020 00       		.byte	0
 3398 0021 0B       		.uleb128 0xb
 3399 0022 0B       		.uleb128 0xb
ARM GAS  C:\Users\PCHAUT~1\AppData\Local\Temp\ccRqVguf.s 			page 61


 3400 0023 3E       		.uleb128 0x3e
 3401 0024 0B       		.uleb128 0xb
 3402 0025 03       		.uleb128 0x3
 3403 0026 0E       		.uleb128 0xe
 3404 0027 00       		.byte	0
 3405 0028 00       		.byte	0
 3406 0029 04       		.uleb128 0x4
 3407 002a 16       		.uleb128 0x16
 3408 002b 00       		.byte	0
 3409 002c 03       		.uleb128 0x3
 3410 002d 0E       		.uleb128 0xe
 3411 002e 3A       		.uleb128 0x3a
 3412 002f 0B       		.uleb128 0xb
 3413 0030 3B       		.uleb128 0x3b
 3414 0031 0B       		.uleb128 0xb
 3415 0032 49       		.uleb128 0x49
 3416 0033 13       		.uleb128 0x13
 3417 0034 00       		.byte	0
 3418 0035 00       		.byte	0
 3419 0036 05       		.uleb128 0x5
 3420 0037 35       		.uleb128 0x35
 3421 0038 00       		.byte	0
 3422 0039 49       		.uleb128 0x49
 3423 003a 13       		.uleb128 0x13
 3424 003b 00       		.byte	0
 3425 003c 00       		.byte	0
 3426 003d 06       		.uleb128 0x6
 3427 003e 13       		.uleb128 0x13
 3428 003f 01       		.byte	0x1
 3429 0040 03       		.uleb128 0x3
 3430 0041 0E       		.uleb128 0xe
 3431 0042 0B       		.uleb128 0xb
 3432 0043 0B       		.uleb128 0xb
 3433 0044 3A       		.uleb128 0x3a
 3434 0045 0B       		.uleb128 0xb
 3435 0046 3B       		.uleb128 0x3b
 3436 0047 0B       		.uleb128 0xb
 3437 0048 01       		.uleb128 0x1
 3438 0049 13       		.uleb128 0x13
 3439 004a 00       		.byte	0
 3440 004b 00       		.byte	0
 3441 004c 07       		.uleb128 0x7
 3442 004d 0D       		.uleb128 0xd
 3443 004e 00       		.byte	0
 3444 004f 03       		.uleb128 0x3
 3445 0050 0E       		.uleb128 0xe
 3446 0051 3A       		.uleb128 0x3a
 3447 0052 0B       		.uleb128 0xb
 3448 0053 3B       		.uleb128 0x3b
 3449 0054 0B       		.uleb128 0xb
 3450 0055 49       		.uleb128 0x49
 3451 0056 13       		.uleb128 0x13
 3452 0057 38       		.uleb128 0x38
 3453 0058 0B       		.uleb128 0xb
 3454 0059 00       		.byte	0
 3455 005a 00       		.byte	0
 3456 005b 08       		.uleb128 0x8
ARM GAS  C:\Users\PCHAUT~1\AppData\Local\Temp\ccRqVguf.s 			page 62


 3457 005c 0D       		.uleb128 0xd
 3458 005d 00       		.byte	0
 3459 005e 03       		.uleb128 0x3
 3460 005f 08       		.uleb128 0x8
 3461 0060 3A       		.uleb128 0x3a
 3462 0061 0B       		.uleb128 0xb
 3463 0062 3B       		.uleb128 0x3b
 3464 0063 05       		.uleb128 0x5
 3465 0064 49       		.uleb128 0x49
 3466 0065 13       		.uleb128 0x13
 3467 0066 38       		.uleb128 0x38
 3468 0067 0B       		.uleb128 0xb
 3469 0068 00       		.byte	0
 3470 0069 00       		.byte	0
 3471 006a 09       		.uleb128 0x9
 3472 006b 0D       		.uleb128 0xd
 3473 006c 00       		.byte	0
 3474 006d 03       		.uleb128 0x3
 3475 006e 0E       		.uleb128 0xe
 3476 006f 3A       		.uleb128 0x3a
 3477 0070 0B       		.uleb128 0xb
 3478 0071 3B       		.uleb128 0x3b
 3479 0072 05       		.uleb128 0x5
 3480 0073 49       		.uleb128 0x49
 3481 0074 13       		.uleb128 0x13
 3482 0075 38       		.uleb128 0x38
 3483 0076 0B       		.uleb128 0xb
 3484 0077 00       		.byte	0
 3485 0078 00       		.byte	0
 3486 0079 0A       		.uleb128 0xa
 3487 007a 0F       		.uleb128 0xf
 3488 007b 00       		.byte	0
 3489 007c 0B       		.uleb128 0xb
 3490 007d 0B       		.uleb128 0xb
 3491 007e 49       		.uleb128 0x49
 3492 007f 13       		.uleb128 0x13
 3493 0080 00       		.byte	0
 3494 0081 00       		.byte	0
 3495 0082 0B       		.uleb128 0xb
 3496 0083 13       		.uleb128 0x13
 3497 0084 01       		.byte	0x1
 3498 0085 03       		.uleb128 0x3
 3499 0086 0E       		.uleb128 0xe
 3500 0087 0B       		.uleb128 0xb
 3501 0088 0B       		.uleb128 0xb
 3502 0089 3A       		.uleb128 0x3a
 3503 008a 0B       		.uleb128 0xb
 3504 008b 3B       		.uleb128 0x3b
 3505 008c 05       		.uleb128 0x5
 3506 008d 01       		.uleb128 0x1
 3507 008e 13       		.uleb128 0x13
 3508 008f 00       		.byte	0
 3509 0090 00       		.byte	0
 3510 0091 0C       		.uleb128 0xc
 3511 0092 15       		.uleb128 0x15
 3512 0093 01       		.byte	0x1
 3513 0094 27       		.uleb128 0x27
ARM GAS  C:\Users\PCHAUT~1\AppData\Local\Temp\ccRqVguf.s 			page 63


 3514 0095 19       		.uleb128 0x19
 3515 0096 01       		.uleb128 0x1
 3516 0097 13       		.uleb128 0x13
 3517 0098 00       		.byte	0
 3518 0099 00       		.byte	0
 3519 009a 0D       		.uleb128 0xd
 3520 009b 05       		.uleb128 0x5
 3521 009c 00       		.byte	0
 3522 009d 49       		.uleb128 0x49
 3523 009e 13       		.uleb128 0x13
 3524 009f 00       		.byte	0
 3525 00a0 00       		.byte	0
 3526 00a1 0E       		.uleb128 0xe
 3527 00a2 0F       		.uleb128 0xf
 3528 00a3 00       		.byte	0
 3529 00a4 0B       		.uleb128 0xb
 3530 00a5 0B       		.uleb128 0xb
 3531 00a6 00       		.byte	0
 3532 00a7 00       		.byte	0
 3533 00a8 0F       		.uleb128 0xf
 3534 00a9 13       		.uleb128 0x13
 3535 00aa 01       		.byte	0x1
 3536 00ab 03       		.uleb128 0x3
 3537 00ac 0E       		.uleb128 0xe
 3538 00ad 0B       		.uleb128 0xb
 3539 00ae 05       		.uleb128 0x5
 3540 00af 3A       		.uleb128 0x3a
 3541 00b0 0B       		.uleb128 0xb
 3542 00b1 3B       		.uleb128 0x3b
 3543 00b2 05       		.uleb128 0x5
 3544 00b3 01       		.uleb128 0x1
 3545 00b4 13       		.uleb128 0x13
 3546 00b5 00       		.byte	0
 3547 00b6 00       		.byte	0
 3548 00b7 10       		.uleb128 0x10
 3549 00b8 0D       		.uleb128 0xd
 3550 00b9 00       		.byte	0
 3551 00ba 03       		.uleb128 0x3
 3552 00bb 0E       		.uleb128 0xe
 3553 00bc 3A       		.uleb128 0x3a
 3554 00bd 0B       		.uleb128 0xb
 3555 00be 3B       		.uleb128 0x3b
 3556 00bf 05       		.uleb128 0x5
 3557 00c0 49       		.uleb128 0x49
 3558 00c1 13       		.uleb128 0x13
 3559 00c2 38       		.uleb128 0x38
 3560 00c3 05       		.uleb128 0x5
 3561 00c4 00       		.byte	0
 3562 00c5 00       		.byte	0
 3563 00c6 11       		.uleb128 0x11
 3564 00c7 0D       		.uleb128 0xd
 3565 00c8 00       		.byte	0
 3566 00c9 03       		.uleb128 0x3
 3567 00ca 08       		.uleb128 0x8
 3568 00cb 3A       		.uleb128 0x3a
 3569 00cc 0B       		.uleb128 0xb
 3570 00cd 3B       		.uleb128 0x3b
ARM GAS  C:\Users\PCHAUT~1\AppData\Local\Temp\ccRqVguf.s 			page 64


 3571 00ce 05       		.uleb128 0x5
 3572 00cf 49       		.uleb128 0x49
 3573 00d0 13       		.uleb128 0x13
 3574 00d1 38       		.uleb128 0x38
 3575 00d2 05       		.uleb128 0x5
 3576 00d3 00       		.byte	0
 3577 00d4 00       		.byte	0
 3578 00d5 12       		.uleb128 0x12
 3579 00d6 34       		.uleb128 0x34
 3580 00d7 00       		.byte	0
 3581 00d8 03       		.uleb128 0x3
 3582 00d9 0E       		.uleb128 0xe
 3583 00da 3A       		.uleb128 0x3a
 3584 00db 0B       		.uleb128 0xb
 3585 00dc 3B       		.uleb128 0x3b
 3586 00dd 05       		.uleb128 0x5
 3587 00de 49       		.uleb128 0x49
 3588 00df 13       		.uleb128 0x13
 3589 00e0 3F       		.uleb128 0x3f
 3590 00e1 19       		.uleb128 0x19
 3591 00e2 3C       		.uleb128 0x3c
 3592 00e3 19       		.uleb128 0x19
 3593 00e4 00       		.byte	0
 3594 00e5 00       		.byte	0
 3595 00e6 13       		.uleb128 0x13
 3596 00e7 34       		.uleb128 0x34
 3597 00e8 00       		.byte	0
 3598 00e9 03       		.uleb128 0x3
 3599 00ea 0E       		.uleb128 0xe
 3600 00eb 3A       		.uleb128 0x3a
 3601 00ec 0B       		.uleb128 0xb
 3602 00ed 3B       		.uleb128 0x3b
 3603 00ee 0B       		.uleb128 0xb
 3604 00ef 49       		.uleb128 0x49
 3605 00f0 13       		.uleb128 0x13
 3606 00f1 3F       		.uleb128 0x3f
 3607 00f2 19       		.uleb128 0x19
 3608 00f3 3C       		.uleb128 0x3c
 3609 00f4 19       		.uleb128 0x19
 3610 00f5 00       		.byte	0
 3611 00f6 00       		.byte	0
 3612 00f7 14       		.uleb128 0x14
 3613 00f8 0D       		.uleb128 0xd
 3614 00f9 00       		.byte	0
 3615 00fa 03       		.uleb128 0x3
 3616 00fb 08       		.uleb128 0x8
 3617 00fc 3A       		.uleb128 0x3a
 3618 00fd 0B       		.uleb128 0xb
 3619 00fe 3B       		.uleb128 0x3b
 3620 00ff 0B       		.uleb128 0xb
 3621 0100 49       		.uleb128 0x49
 3622 0101 13       		.uleb128 0x13
 3623 0102 38       		.uleb128 0x38
 3624 0103 0B       		.uleb128 0xb
 3625 0104 00       		.byte	0
 3626 0105 00       		.byte	0
 3627 0106 15       		.uleb128 0x15
ARM GAS  C:\Users\PCHAUT~1\AppData\Local\Temp\ccRqVguf.s 			page 65


 3628 0107 13       		.uleb128 0x13
 3629 0108 01       		.byte	0x1
 3630 0109 0B       		.uleb128 0xb
 3631 010a 0B       		.uleb128 0xb
 3632 010b 3A       		.uleb128 0x3a
 3633 010c 0B       		.uleb128 0xb
 3634 010d 3B       		.uleb128 0x3b
 3635 010e 0B       		.uleb128 0xb
 3636 010f 01       		.uleb128 0x1
 3637 0110 13       		.uleb128 0x13
 3638 0111 00       		.byte	0
 3639 0112 00       		.byte	0
 3640 0113 16       		.uleb128 0x16
 3641 0114 13       		.uleb128 0x13
 3642 0115 01       		.byte	0x1
 3643 0116 0B       		.uleb128 0xb
 3644 0117 05       		.uleb128 0x5
 3645 0118 3A       		.uleb128 0x3a
 3646 0119 0B       		.uleb128 0xb
 3647 011a 3B       		.uleb128 0x3b
 3648 011b 0B       		.uleb128 0xb
 3649 011c 01       		.uleb128 0x1
 3650 011d 13       		.uleb128 0x13
 3651 011e 00       		.byte	0
 3652 011f 00       		.byte	0
 3653 0120 17       		.uleb128 0x17
 3654 0121 01       		.uleb128 0x1
 3655 0122 01       		.byte	0x1
 3656 0123 49       		.uleb128 0x49
 3657 0124 13       		.uleb128 0x13
 3658 0125 01       		.uleb128 0x1
 3659 0126 13       		.uleb128 0x13
 3660 0127 00       		.byte	0
 3661 0128 00       		.byte	0
 3662 0129 18       		.uleb128 0x18
 3663 012a 21       		.uleb128 0x21
 3664 012b 00       		.byte	0
 3665 012c 49       		.uleb128 0x49
 3666 012d 13       		.uleb128 0x13
 3667 012e 2F       		.uleb128 0x2f
 3668 012f 0B       		.uleb128 0xb
 3669 0130 00       		.byte	0
 3670 0131 00       		.byte	0
 3671 0132 19       		.uleb128 0x19
 3672 0133 17       		.uleb128 0x17
 3673 0134 01       		.byte	0x1
 3674 0135 0B       		.uleb128 0xb
 3675 0136 0B       		.uleb128 0xb
 3676 0137 3A       		.uleb128 0x3a
 3677 0138 0B       		.uleb128 0xb
 3678 0139 3B       		.uleb128 0x3b
 3679 013a 0B       		.uleb128 0xb
 3680 013b 01       		.uleb128 0x1
 3681 013c 13       		.uleb128 0x13
 3682 013d 00       		.byte	0
 3683 013e 00       		.byte	0
 3684 013f 1A       		.uleb128 0x1a
ARM GAS  C:\Users\PCHAUT~1\AppData\Local\Temp\ccRqVguf.s 			page 66


 3685 0140 0D       		.uleb128 0xd
 3686 0141 00       		.byte	0
 3687 0142 03       		.uleb128 0x3
 3688 0143 0E       		.uleb128 0xe
 3689 0144 3A       		.uleb128 0x3a
 3690 0145 0B       		.uleb128 0xb
 3691 0146 3B       		.uleb128 0x3b
 3692 0147 05       		.uleb128 0x5
 3693 0148 49       		.uleb128 0x49
 3694 0149 13       		.uleb128 0x13
 3695 014a 00       		.byte	0
 3696 014b 00       		.byte	0
 3697 014c 1B       		.uleb128 0x1b
 3698 014d 26       		.uleb128 0x26
 3699 014e 00       		.byte	0
 3700 014f 49       		.uleb128 0x49
 3701 0150 13       		.uleb128 0x13
 3702 0151 00       		.byte	0
 3703 0152 00       		.byte	0
 3704 0153 1C       		.uleb128 0x1c
 3705 0154 34       		.uleb128 0x34
 3706 0155 00       		.byte	0
 3707 0156 03       		.uleb128 0x3
 3708 0157 08       		.uleb128 0x8
 3709 0158 3A       		.uleb128 0x3a
 3710 0159 0B       		.uleb128 0xb
 3711 015a 3B       		.uleb128 0x3b
 3712 015b 05       		.uleb128 0x5
 3713 015c 49       		.uleb128 0x49
 3714 015d 13       		.uleb128 0x13
 3715 015e 3F       		.uleb128 0x3f
 3716 015f 19       		.uleb128 0x19
 3717 0160 3C       		.uleb128 0x3c
 3718 0161 19       		.uleb128 0x19
 3719 0162 00       		.byte	0
 3720 0163 00       		.byte	0
 3721 0164 1D       		.uleb128 0x1d
 3722 0165 2E       		.uleb128 0x2e
 3723 0166 01       		.byte	0x1
 3724 0167 3F       		.uleb128 0x3f
 3725 0168 19       		.uleb128 0x19
 3726 0169 03       		.uleb128 0x3
 3727 016a 0E       		.uleb128 0xe
 3728 016b 3A       		.uleb128 0x3a
 3729 016c 0B       		.uleb128 0xb
 3730 016d 3B       		.uleb128 0x3b
 3731 016e 05       		.uleb128 0x5
 3732 016f 27       		.uleb128 0x27
 3733 0170 19       		.uleb128 0x19
 3734 0171 49       		.uleb128 0x49
 3735 0172 13       		.uleb128 0x13
 3736 0173 11       		.uleb128 0x11
 3737 0174 01       		.uleb128 0x1
 3738 0175 12       		.uleb128 0x12
 3739 0176 06       		.uleb128 0x6
 3740 0177 40       		.uleb128 0x40
 3741 0178 18       		.uleb128 0x18
ARM GAS  C:\Users\PCHAUT~1\AppData\Local\Temp\ccRqVguf.s 			page 67


 3742 0179 9642     		.uleb128 0x2116
 3743 017b 19       		.uleb128 0x19
 3744 017c 01       		.uleb128 0x1
 3745 017d 13       		.uleb128 0x13
 3746 017e 00       		.byte	0
 3747 017f 00       		.byte	0
 3748 0180 1E       		.uleb128 0x1e
 3749 0181 05       		.uleb128 0x5
 3750 0182 00       		.byte	0
 3751 0183 03       		.uleb128 0x3
 3752 0184 08       		.uleb128 0x8
 3753 0185 3A       		.uleb128 0x3a
 3754 0186 0B       		.uleb128 0xb
 3755 0187 3B       		.uleb128 0x3b
 3756 0188 05       		.uleb128 0x5
 3757 0189 49       		.uleb128 0x49
 3758 018a 13       		.uleb128 0x13
 3759 018b 02       		.uleb128 0x2
 3760 018c 18       		.uleb128 0x18
 3761 018d 00       		.byte	0
 3762 018e 00       		.byte	0
 3763 018f 1F       		.uleb128 0x1f
 3764 0190 05       		.uleb128 0x5
 3765 0191 00       		.byte	0
 3766 0192 03       		.uleb128 0x3
 3767 0193 0E       		.uleb128 0xe
 3768 0194 3A       		.uleb128 0x3a
 3769 0195 0B       		.uleb128 0xb
 3770 0196 3B       		.uleb128 0x3b
 3771 0197 05       		.uleb128 0x5
 3772 0198 49       		.uleb128 0x49
 3773 0199 13       		.uleb128 0x13
 3774 019a 02       		.uleb128 0x2
 3775 019b 18       		.uleb128 0x18
 3776 019c 00       		.byte	0
 3777 019d 00       		.byte	0
 3778 019e 20       		.uleb128 0x20
 3779 019f 34       		.uleb128 0x34
 3780 01a0 00       		.byte	0
 3781 01a1 03       		.uleb128 0x3
 3782 01a2 0E       		.uleb128 0xe
 3783 01a3 49       		.uleb128 0x49
 3784 01a4 13       		.uleb128 0x13
 3785 01a5 34       		.uleb128 0x34
 3786 01a6 19       		.uleb128 0x19
 3787 01a7 02       		.uleb128 0x2
 3788 01a8 18       		.uleb128 0x18
 3789 01a9 00       		.byte	0
 3790 01aa 00       		.byte	0
 3791 01ab 21       		.uleb128 0x21
 3792 01ac 34       		.uleb128 0x34
 3793 01ad 00       		.byte	0
 3794 01ae 03       		.uleb128 0x3
 3795 01af 0E       		.uleb128 0xe
 3796 01b0 3A       		.uleb128 0x3a
 3797 01b1 0B       		.uleb128 0xb
 3798 01b2 3B       		.uleb128 0x3b
ARM GAS  C:\Users\PCHAUT~1\AppData\Local\Temp\ccRqVguf.s 			page 68


 3799 01b3 05       		.uleb128 0x5
 3800 01b4 49       		.uleb128 0x49
 3801 01b5 13       		.uleb128 0x13
 3802 01b6 02       		.uleb128 0x2
 3803 01b7 18       		.uleb128 0x18
 3804 01b8 00       		.byte	0
 3805 01b9 00       		.byte	0
 3806 01ba 22       		.uleb128 0x22
 3807 01bb 2E       		.uleb128 0x2e
 3808 01bc 01       		.byte	0x1
 3809 01bd 3F       		.uleb128 0x3f
 3810 01be 19       		.uleb128 0x19
 3811 01bf 03       		.uleb128 0x3
 3812 01c0 0E       		.uleb128 0xe
 3813 01c1 3A       		.uleb128 0x3a
 3814 01c2 0B       		.uleb128 0xb
 3815 01c3 3B       		.uleb128 0x3b
 3816 01c4 0B       		.uleb128 0xb
 3817 01c5 27       		.uleb128 0x27
 3818 01c6 19       		.uleb128 0x19
 3819 01c7 49       		.uleb128 0x49
 3820 01c8 13       		.uleb128 0x13
 3821 01c9 11       		.uleb128 0x11
 3822 01ca 01       		.uleb128 0x1
 3823 01cb 12       		.uleb128 0x12
 3824 01cc 06       		.uleb128 0x6
 3825 01cd 40       		.uleb128 0x40
 3826 01ce 18       		.uleb128 0x18
 3827 01cf 9642     		.uleb128 0x2116
 3828 01d1 19       		.uleb128 0x19
 3829 01d2 01       		.uleb128 0x1
 3830 01d3 13       		.uleb128 0x13
 3831 01d4 00       		.byte	0
 3832 01d5 00       		.byte	0
 3833 01d6 23       		.uleb128 0x23
 3834 01d7 05       		.uleb128 0x5
 3835 01d8 00       		.byte	0
 3836 01d9 03       		.uleb128 0x3
 3837 01da 08       		.uleb128 0x8
 3838 01db 3A       		.uleb128 0x3a
 3839 01dc 0B       		.uleb128 0xb
 3840 01dd 3B       		.uleb128 0x3b
 3841 01de 0B       		.uleb128 0xb
 3842 01df 49       		.uleb128 0x49
 3843 01e0 13       		.uleb128 0x13
 3844 01e1 02       		.uleb128 0x2
 3845 01e2 18       		.uleb128 0x18
 3846 01e3 00       		.byte	0
 3847 01e4 00       		.byte	0
 3848 01e5 24       		.uleb128 0x24
 3849 01e6 05       		.uleb128 0x5
 3850 01e7 00       		.byte	0
 3851 01e8 03       		.uleb128 0x3
 3852 01e9 0E       		.uleb128 0xe
 3853 01ea 3A       		.uleb128 0x3a
 3854 01eb 0B       		.uleb128 0xb
 3855 01ec 3B       		.uleb128 0x3b
ARM GAS  C:\Users\PCHAUT~1\AppData\Local\Temp\ccRqVguf.s 			page 69


 3856 01ed 0B       		.uleb128 0xb
 3857 01ee 49       		.uleb128 0x49
 3858 01ef 13       		.uleb128 0x13
 3859 01f0 02       		.uleb128 0x2
 3860 01f1 18       		.uleb128 0x18
 3861 01f2 00       		.byte	0
 3862 01f3 00       		.byte	0
 3863 01f4 25       		.uleb128 0x25
 3864 01f5 34       		.uleb128 0x34
 3865 01f6 00       		.byte	0
 3866 01f7 03       		.uleb128 0x3
 3867 01f8 0E       		.uleb128 0xe
 3868 01f9 3A       		.uleb128 0x3a
 3869 01fa 0B       		.uleb128 0xb
 3870 01fb 3B       		.uleb128 0x3b
 3871 01fc 0B       		.uleb128 0xb
 3872 01fd 49       		.uleb128 0x49
 3873 01fe 13       		.uleb128 0x13
 3874 01ff 02       		.uleb128 0x2
 3875 0200 18       		.uleb128 0x18
 3876 0201 00       		.byte	0
 3877 0202 00       		.byte	0
 3878 0203 26       		.uleb128 0x26
 3879 0204 2E       		.uleb128 0x2e
 3880 0205 01       		.byte	0x1
 3881 0206 3F       		.uleb128 0x3f
 3882 0207 19       		.uleb128 0x19
 3883 0208 03       		.uleb128 0x3
 3884 0209 0E       		.uleb128 0xe
 3885 020a 3A       		.uleb128 0x3a
 3886 020b 0B       		.uleb128 0xb
 3887 020c 3B       		.uleb128 0x3b
 3888 020d 0B       		.uleb128 0xb
 3889 020e 27       		.uleb128 0x27
 3890 020f 19       		.uleb128 0x19
 3891 0210 11       		.uleb128 0x11
 3892 0211 01       		.uleb128 0x1
 3893 0212 12       		.uleb128 0x12
 3894 0213 06       		.uleb128 0x6
 3895 0214 40       		.uleb128 0x40
 3896 0215 18       		.uleb128 0x18
 3897 0216 9642     		.uleb128 0x2116
 3898 0218 19       		.uleb128 0x19
 3899 0219 01       		.uleb128 0x1
 3900 021a 13       		.uleb128 0x13
 3901 021b 00       		.byte	0
 3902 021c 00       		.byte	0
 3903 021d 27       		.uleb128 0x27
 3904 021e 2E       		.uleb128 0x2e
 3905 021f 01       		.byte	0x1
 3906 0220 03       		.uleb128 0x3
 3907 0221 0E       		.uleb128 0xe
 3908 0222 3A       		.uleb128 0x3a
 3909 0223 0B       		.uleb128 0xb
 3910 0224 3B       		.uleb128 0x3b
 3911 0225 0B       		.uleb128 0xb
 3912 0226 27       		.uleb128 0x27
ARM GAS  C:\Users\PCHAUT~1\AppData\Local\Temp\ccRqVguf.s 			page 70


 3913 0227 19       		.uleb128 0x19
 3914 0228 49       		.uleb128 0x49
 3915 0229 13       		.uleb128 0x13
 3916 022a 11       		.uleb128 0x11
 3917 022b 01       		.uleb128 0x1
 3918 022c 12       		.uleb128 0x12
 3919 022d 06       		.uleb128 0x6
 3920 022e 40       		.uleb128 0x40
 3921 022f 18       		.uleb128 0x18
 3922 0230 9642     		.uleb128 0x2116
 3923 0232 19       		.uleb128 0x19
 3924 0233 01       		.uleb128 0x1
 3925 0234 13       		.uleb128 0x13
 3926 0235 00       		.byte	0
 3927 0236 00       		.byte	0
 3928 0237 28       		.uleb128 0x28
 3929 0238 2E       		.uleb128 0x2e
 3930 0239 01       		.byte	0x1
 3931 023a 03       		.uleb128 0x3
 3932 023b 0E       		.uleb128 0xe
 3933 023c 3A       		.uleb128 0x3a
 3934 023d 0B       		.uleb128 0xb
 3935 023e 3B       		.uleb128 0x3b
 3936 023f 0B       		.uleb128 0xb
 3937 0240 27       		.uleb128 0x27
 3938 0241 19       		.uleb128 0x19
 3939 0242 11       		.uleb128 0x11
 3940 0243 01       		.uleb128 0x1
 3941 0244 12       		.uleb128 0x12
 3942 0245 06       		.uleb128 0x6
 3943 0246 40       		.uleb128 0x40
 3944 0247 18       		.uleb128 0x18
 3945 0248 9642     		.uleb128 0x2116
 3946 024a 19       		.uleb128 0x19
 3947 024b 01       		.uleb128 0x1
 3948 024c 13       		.uleb128 0x13
 3949 024d 00       		.byte	0
 3950 024e 00       		.byte	0
 3951 024f 29       		.uleb128 0x29
 3952 0250 2E       		.uleb128 0x2e
 3953 0251 01       		.byte	0x1
 3954 0252 03       		.uleb128 0x3
 3955 0253 0E       		.uleb128 0xe
 3956 0254 3A       		.uleb128 0x3a
 3957 0255 0B       		.uleb128 0xb
 3958 0256 3B       		.uleb128 0x3b
 3959 0257 05       		.uleb128 0x5
 3960 0258 27       		.uleb128 0x27
 3961 0259 19       		.uleb128 0x19
 3962 025a 11       		.uleb128 0x11
 3963 025b 01       		.uleb128 0x1
 3964 025c 12       		.uleb128 0x12
 3965 025d 06       		.uleb128 0x6
 3966 025e 40       		.uleb128 0x40
 3967 025f 18       		.uleb128 0x18
 3968 0260 9642     		.uleb128 0x2116
 3969 0262 19       		.uleb128 0x19
ARM GAS  C:\Users\PCHAUT~1\AppData\Local\Temp\ccRqVguf.s 			page 71


 3970 0263 01       		.uleb128 0x1
 3971 0264 13       		.uleb128 0x13
 3972 0265 00       		.byte	0
 3973 0266 00       		.byte	0
 3974 0267 2A       		.uleb128 0x2a
 3975 0268 2E       		.uleb128 0x2e
 3976 0269 00       		.byte	0
 3977 026a 03       		.uleb128 0x3
 3978 026b 0E       		.uleb128 0xe
 3979 026c 3A       		.uleb128 0x3a
 3980 026d 0B       		.uleb128 0xb
 3981 026e 3B       		.uleb128 0x3b
 3982 026f 05       		.uleb128 0x5
 3983 0270 27       		.uleb128 0x27
 3984 0271 19       		.uleb128 0x19
 3985 0272 11       		.uleb128 0x11
 3986 0273 01       		.uleb128 0x1
 3987 0274 12       		.uleb128 0x12
 3988 0275 06       		.uleb128 0x6
 3989 0276 40       		.uleb128 0x40
 3990 0277 18       		.uleb128 0x18
 3991 0278 9642     		.uleb128 0x2116
 3992 027a 19       		.uleb128 0x19
 3993 027b 00       		.byte	0
 3994 027c 00       		.byte	0
 3995 027d 2B       		.uleb128 0x2b
 3996 027e 1D       		.uleb128 0x1d
 3997 027f 01       		.byte	0x1
 3998 0280 31       		.uleb128 0x31
 3999 0281 13       		.uleb128 0x13
 4000 0282 11       		.uleb128 0x11
 4001 0283 01       		.uleb128 0x1
 4002 0284 12       		.uleb128 0x12
 4003 0285 06       		.uleb128 0x6
 4004 0286 58       		.uleb128 0x58
 4005 0287 0B       		.uleb128 0xb
 4006 0288 59       		.uleb128 0x59
 4007 0289 05       		.uleb128 0x5
 4008 028a 00       		.byte	0
 4009 028b 00       		.byte	0
 4010 028c 2C       		.uleb128 0x2c
 4011 028d 05       		.uleb128 0x5
 4012 028e 00       		.byte	0
 4013 028f 31       		.uleb128 0x31
 4014 0290 13       		.uleb128 0x13
 4015 0291 02       		.uleb128 0x2
 4016 0292 18       		.uleb128 0x18
 4017 0293 00       		.byte	0
 4018 0294 00       		.byte	0
 4019 0295 2D       		.uleb128 0x2d
 4020 0296 2E       		.uleb128 0x2e
 4021 0297 01       		.byte	0x1
 4022 0298 03       		.uleb128 0x3
 4023 0299 0E       		.uleb128 0xe
 4024 029a 3A       		.uleb128 0x3a
 4025 029b 0B       		.uleb128 0xb
 4026 029c 3B       		.uleb128 0x3b
ARM GAS  C:\Users\PCHAUT~1\AppData\Local\Temp\ccRqVguf.s 			page 72


 4027 029d 05       		.uleb128 0x5
 4028 029e 27       		.uleb128 0x27
 4029 029f 19       		.uleb128 0x19
 4030 02a0 20       		.uleb128 0x20
 4031 02a1 0B       		.uleb128 0xb
 4032 02a2 00       		.byte	0
 4033 02a3 00       		.byte	0
 4034 02a4 2E       		.uleb128 0x2e
 4035 02a5 05       		.uleb128 0x5
 4036 02a6 00       		.byte	0
 4037 02a7 03       		.uleb128 0x3
 4038 02a8 0E       		.uleb128 0xe
 4039 02a9 3A       		.uleb128 0x3a
 4040 02aa 0B       		.uleb128 0xb
 4041 02ab 3B       		.uleb128 0x3b
 4042 02ac 05       		.uleb128 0x5
 4043 02ad 49       		.uleb128 0x49
 4044 02ae 13       		.uleb128 0x13
 4045 02af 00       		.byte	0
 4046 02b0 00       		.byte	0
 4047 02b1 00       		.byte	0
 4048              		.section	.debug_aranges,"",%progbits
 4049 0000 A4000000 		.4byte	0xa4
 4050 0004 0200     		.2byte	0x2
 4051 0006 00000000 		.4byte	.Ldebug_info0
 4052 000a 04       		.byte	0x4
 4053 000b 00       		.byte	0
 4054 000c 0000     		.2byte	0
 4055 000e 0000     		.2byte	0
 4056 0010 00000000 		.4byte	.LFB116
 4057 0014 30000000 		.4byte	.LFE116-.LFB116
 4058 0018 00000000 		.4byte	.LFB117
 4059 001c 30000000 		.4byte	.LFE117-.LFB117
 4060 0020 00000000 		.4byte	.LFB145
 4061 0024 30000000 		.4byte	.LFE145-.LFB145
 4062 0028 00000000 		.4byte	.LFB146
 4063 002c 58000000 		.4byte	.LFE146-.LFB146
 4064 0030 00000000 		.4byte	.LFB179
 4065 0034 34000000 		.4byte	.LFE179-.LFB179
 4066 0038 00000000 		.4byte	.LFB181
 4067 003c 30000000 		.4byte	.LFE181-.LFB181
 4068 0040 00000000 		.4byte	.LFB219
 4069 0044 7C000000 		.4byte	.LFE219-.LFB219
 4070 0048 00000000 		.4byte	.LFB220
 4071 004c 38000000 		.4byte	.LFE220-.LFB220
 4072 0050 00000000 		.4byte	.LFB221
 4073 0054 74000000 		.4byte	.LFE221-.LFB221
 4074 0058 00000000 		.4byte	.LFB222
 4075 005c 40000000 		.4byte	.LFE222-.LFB222
 4076 0060 00000000 		.4byte	.LFB223
 4077 0064 84000000 		.4byte	.LFE223-.LFB223
 4078 0068 00000000 		.4byte	.LFB224
 4079 006c 8C000000 		.4byte	.LFE224-.LFB224
 4080 0070 00000000 		.4byte	.LFB225
 4081 0074 40000000 		.4byte	.LFE225-.LFB225
 4082 0078 00000000 		.4byte	.LFB226
 4083 007c 8C000000 		.4byte	.LFE226-.LFB226
ARM GAS  C:\Users\PCHAUT~1\AppData\Local\Temp\ccRqVguf.s 			page 73


 4084 0080 00000000 		.4byte	.LFB227
 4085 0084 90000000 		.4byte	.LFE227-.LFB227
 4086 0088 00000000 		.4byte	.LFB228
 4087 008c 40000000 		.4byte	.LFE228-.LFB228
 4088 0090 00000000 		.4byte	.LFB229
 4089 0094 8C000000 		.4byte	.LFE229-.LFB229
 4090 0098 00000000 		.4byte	.LFB230
 4091 009c 94000000 		.4byte	.LFE230-.LFB230
 4092 00a0 00000000 		.4byte	0
 4093 00a4 00000000 		.4byte	0
 4094              		.section	.debug_ranges,"",%progbits
 4095              	.Ldebug_ranges0:
 4096 0000 00000000 		.4byte	.LFB116
 4097 0004 30000000 		.4byte	.LFE116
 4098 0008 00000000 		.4byte	.LFB117
 4099 000c 30000000 		.4byte	.LFE117
 4100 0010 00000000 		.4byte	.LFB145
 4101 0014 30000000 		.4byte	.LFE145
 4102 0018 00000000 		.4byte	.LFB146
 4103 001c 58000000 		.4byte	.LFE146
 4104 0020 00000000 		.4byte	.LFB179
 4105 0024 34000000 		.4byte	.LFE179
 4106 0028 00000000 		.4byte	.LFB181
 4107 002c 30000000 		.4byte	.LFE181
 4108 0030 00000000 		.4byte	.LFB219
 4109 0034 7C000000 		.4byte	.LFE219
 4110 0038 00000000 		.4byte	.LFB220
 4111 003c 38000000 		.4byte	.LFE220
 4112 0040 00000000 		.4byte	.LFB221
 4113 0044 74000000 		.4byte	.LFE221
 4114 0048 00000000 		.4byte	.LFB222
 4115 004c 40000000 		.4byte	.LFE222
 4116 0050 00000000 		.4byte	.LFB223
 4117 0054 84000000 		.4byte	.LFE223
 4118 0058 00000000 		.4byte	.LFB224
 4119 005c 8C000000 		.4byte	.LFE224
 4120 0060 00000000 		.4byte	.LFB225
 4121 0064 40000000 		.4byte	.LFE225
 4122 0068 00000000 		.4byte	.LFB226
 4123 006c 8C000000 		.4byte	.LFE226
 4124 0070 00000000 		.4byte	.LFB227
 4125 0074 90000000 		.4byte	.LFE227
 4126 0078 00000000 		.4byte	.LFB228
 4127 007c 40000000 		.4byte	.LFE228
 4128 0080 00000000 		.4byte	.LFB229
 4129 0084 8C000000 		.4byte	.LFE229
 4130 0088 00000000 		.4byte	.LFB230
 4131 008c 94000000 		.4byte	.LFE230
 4132 0090 00000000 		.4byte	0
 4133 0094 00000000 		.4byte	0
 4134              		.section	.debug_line,"",%progbits
 4135              	.Ldebug_line0:
 4136 0000 BB050000 		.section	.debug_str,"MS",%progbits,1
 4136      02008003 
 4136      00000201 
 4136      FB0E0D00 
 4136      01010101 
ARM GAS  C:\Users\PCHAUT~1\AppData\Local\Temp\ccRqVguf.s 			page 74


 4137              	.LASF8:
 4138 0000 73686F72 		.ascii	"short unsigned int\000"
 4138      7420756E 
 4138      7369676E 
 4138      65642069 
 4138      6E7400
 4139              	.LASF145:
 4140 0013 63665F6F 		.ascii	"cf_off_older\000"
 4140      66665F6F 
 4140      6C646572 
 4140      00
 4141              	.LASF60:
 4142 0020 72656164 		.ascii	"ready_list_t\000"
 4142      795F6C69 
 4142      73745F74 
 4142      00
 4143              	.LASF178:
 4144 002d 63684D42 		.ascii	"chMBObjectInit\000"
 4144      4F626A65 
 4144      6374496E 
 4144      697400
 4145              	.LASF122:
 4146 003c 77747472 		.ascii	"wttrp\000"
 4146      7000
 4147              	.LASF119:
 4148 0042 7264796D 		.ascii	"rdymsg\000"
 4148      736700
 4149              	.LASF19:
 4150 0049 75696E74 		.ascii	"uint64_t\000"
 4150      36345F74 
 4150      00
 4151              	.LASF90:
 4152 0052 6B65726E 		.ascii	"kernel_stats\000"
 4152      656C5F73 
 4152      74617473 
 4152      00
 4153              	.LASF6:
 4154 005f 5F5F7569 		.ascii	"__uint8_t\000"
 4154      6E74385F 
 4154      7400
 4155              	.LASF173:
 4156 0069 63684D42 		.ascii	"chMBPostI\000"
 4156      506F7374 
 4156      4900
 4157              	.LASF97:
 4158 0073 706F7274 		.ascii	"port_intctx\000"
 4158      5F696E74 
 4158      63747800 
 4159              	.LASF59:
 4160 007f 63685F74 		.ascii	"ch_threads_queue\000"
 4160      68726561 
 4160      64735F71 
 4160      75657565 
 4160      00
 4161              	.LASF79:
 4162 0090 73797374 		.ascii	"system_debug_t\000"
 4162      656D5F64 
ARM GAS  C:\Users\PCHAUT~1\AppData\Local\Temp\ccRqVguf.s 			page 75


 4162      65627567 
 4162      5F7400
 4163              	.LASF91:
 4164 009f 69646C65 		.ascii	"idle_thread_wa\000"
 4164      5F746872 
 4164      6561645F 
 4164      776100
 4165              	.LASF174:
 4166 00ae 63684D42 		.ascii	"chMBPostS\000"
 4166      506F7374 
 4166      5300
 4167              	.LASF110:
 4168 00b8 776F7273 		.ascii	"worst\000"
 4168      7400
 4169              	.LASF113:
 4170 00be 74696D65 		.ascii	"time_measurement_t\000"
 4170      5F6D6561 
 4170      73757265 
 4170      6D656E74 
 4170      5F7400
 4171              	.LASF170:
 4172 00d1 63684D42 		.ascii	"chMBPostAheadI\000"
 4172      506F7374 
 4172      41686561 
 4172      644900
 4173              	.LASF14:
 4174 00e0 6C6F6E67 		.ascii	"long long unsigned int\000"
 4174      206C6F6E 
 4174      6720756E 
 4174      7369676E 
 4174      65642069 
 4175              	.LASF106:
 4176 00f7 63685F74 		.ascii	"ch_trace_buffer_t\000"
 4176      72616365 
 4176      5F627566 
 4176      6665725F 
 4176      7400
 4177              	.LASF141:
 4178 0109 63685F74 		.ascii	"ch_threadsize\000"
 4178      68726561 
 4178      6473697A 
 4178      6500
 4179              	.LASF120:
 4180 0117 65786974 		.ascii	"exitcode\000"
 4180      636F6465 
 4180      00
 4181              	.LASF171:
 4182 0120 63684D42 		.ascii	"chMBPostAheadS\000"
 4182      506F7374 
 4182      41686561 
 4182      645300
 4183              	.LASF76:
 4184 012f 76697274 		.ascii	"virtual_timers_list_t\000"
 4184      75616C5F 
 4184      74696D65 
 4184      72735F6C 
 4184      6973745F 
ARM GAS  C:\Users\PCHAUT~1\AppData\Local\Temp\ccRqVguf.s 			page 76


 4185              	.LASF159:
 4186 0145 6D625F77 		.ascii	"mb_wrptr\000"
 4186      72707472 
 4186      00
 4187              	.LASF21:
 4188 014e 72747469 		.ascii	"rttime_t\000"
 4188      6D655F74 
 4188      00
 4189              	.LASF35:
 4190 0157 705F7072 		.ascii	"p_prio\000"
 4190      696F00
 4191              	.LASF148:
 4192 015e 63665F6F 		.ascii	"cf_off_state\000"
 4192      66665F73 
 4192      74617465 
 4192      00
 4193              	.LASF1:
 4194 016b 6C6F6E67 		.ascii	"long long int\000"
 4194      206C6F6E 
 4194      6720696E 
 4194      7400
 4195              	.LASF3:
 4196 0179 7369676E 		.ascii	"signed char\000"
 4196      65642063 
 4196      68617200 
 4197              	.LASF147:
 4198 0185 63665F6F 		.ascii	"cf_off_stklimit\000"
 4198      66665F73 
 4198      746B6C69 
 4198      6D697400 
 4199              	.LASF149:
 4200 0195 63665F6F 		.ascii	"cf_off_flags\000"
 4200      66665F66 
 4200      6C616773 
 4200      00
 4201              	.LASF52:
 4202 01a2 705F6D70 		.ascii	"p_mpool\000"
 4202      6F6F6C00 
 4203              	.LASF130:
 4204 01aa 6D5F7175 		.ascii	"m_queue\000"
 4204      65756500 
 4205              	.LASF88:
 4206 01b2 76746C69 		.ascii	"vtlist\000"
 4206      737400
 4207              	.LASF181:
 4208 01b9 706F7274 		.ascii	"port_unlock\000"
 4208      5F756E6C 
 4208      6F636B00 
 4209              	.LASF25:
 4210 01c5 74736C69 		.ascii	"tslices_t\000"
 4210      6365735F 
 4210      7400
 4211              	.LASF175:
 4212 01cf 63684D42 		.ascii	"chMBPost\000"
 4212      506F7374 
 4212      00
 4213              	.LASF10:
ARM GAS  C:\Users\PCHAUT~1\AppData\Local\Temp\ccRqVguf.s 			page 77


 4214 01d8 6C6F6E67 		.ascii	"long int\000"
 4214      20696E74 
 4214      00
 4215              	.LASF183:
 4216 01e1 474E5520 		.ascii	"GNU C11 7.2.1 20170904 (release) [ARM/embedded-7-br"
 4216      43313120 
 4216      372E322E 
 4216      31203230 
 4216      31373039 
 4217 0214 616E6368 		.ascii	"anch revision 255204] -mcpu=cortex-m4 -mfloat-abi=h"
 4217      20726576 
 4217      6973696F 
 4217      6E203235 
 4217      35323034 
 4218 0247 61726420 		.ascii	"ard -mfpu=fpv4-sp-d16 -mno-thumb-interwork -mthumb "
 4218      2D6D6670 
 4218      753D6670 
 4218      76342D73 
 4218      702D6431 
 4219 027a 2D676764 		.ascii	"-ggdb -O0 -fomit-frame-pointer -falign-functions=16"
 4219      62202D4F 
 4219      30202D66 
 4219      6F6D6974 
 4219      2D667261 
 4220 02ad 202D666E 		.ascii	" -fno-strict-aliasing -fstack-protector-all -ffunct"
 4220      6F2D7374 
 4220      72696374 
 4220      2D616C69 
 4220      6173696E 
 4221 02e0 696F6E2D 		.ascii	"ion-sections -fdata-sections -fno-common -fsingle-p"
 4221      73656374 
 4221      696F6E73 
 4221      202D6664 
 4221      6174612D 
 4222 0313 72656369 		.ascii	"recision-constant\000"
 4222      73696F6E 
 4222      2D636F6E 
 4222      7374616E 
 4222      7400
 4223              	.LASF23:
 4224 0325 74737461 		.ascii	"tstate_t\000"
 4224      74655F74 
 4224      00
 4225              	.LASF99:
 4226 032e 73655F74 		.ascii	"se_tp\000"
 4226      7000
 4227              	.LASF153:
 4228 0334 63686465 		.ascii	"chdebug_t\000"
 4228      6275675F 
 4228      7400
 4229              	.LASF37:
 4230 033e 705F6E65 		.ascii	"p_newer\000"
 4230      77657200 
 4231              	.LASF127:
 4232 0346 735F7175 		.ascii	"s_queue\000"
 4232      65756500 
 4233              	.LASF2:
ARM GAS  C:\Users\PCHAUT~1\AppData\Local\Temp\ccRqVguf.s 			page 78


 4234 034e 6C6F6E67 		.ascii	"long double\000"
 4234      20646F75 
 4234      626C6500 
 4235              	.LASF103:
 4236 035a 74625F73 		.ascii	"tb_size\000"
 4236      697A6500 
 4237              	.LASF160:
 4238 0362 6D625F72 		.ascii	"mb_rdptr\000"
 4238      64707472 
 4238      00
 4239              	.LASF94:
 4240 036b 72656761 		.ascii	"regarm_t\000"
 4240      726D5F74 
 4240      00
 4241              	.LASF72:
 4242 0374 76745F70 		.ascii	"vt_prev\000"
 4242      72657600 
 4243              	.LASF80:
 4244 037c 63685F73 		.ascii	"ch_system_debug\000"
 4244      79737465 
 4244      6D5F6465 
 4244      62756700 
 4245              	.LASF133:
 4246 038c 6D5F636E 		.ascii	"m_cnt\000"
 4246      7400
 4247              	.LASF156:
 4248 0392 6D757465 		.ascii	"mutex_t\000"
 4248      785F7400 
 4249              	.LASF189:
 4250 039a 76616C75 		.ascii	"value\000"
 4250      6500
 4251              	.LASF83:
 4252 03a0 6C6F636B 		.ascii	"lock_cnt\000"
 4252      5F636E74 
 4252      00
 4253              	.LASF184:
 4254 03a9 2E2E2F6C 		.ascii	"../lib/e-puck2_main-processor/ChibiOS//os/rt/src/ch"
 4254      69622F65 
 4254      2D707563 
 4254      6B325F6D 
 4254      61696E2D 
 4255 03dc 6D626F78 		.ascii	"mboxes.c\000"
 4255      65732E63 
 4255      00
 4256              	.LASF11:
 4257 03e5 5F5F7569 		.ascii	"__uint32_t\000"
 4257      6E743332 
 4257      5F7400
 4258              	.LASF29:
 4259 03f0 636E745F 		.ascii	"cnt_t\000"
 4259      7400
 4260              	.LASF40:
 4261 03f6 705F7374 		.ascii	"p_stklimit\000"
 4261      6B6C696D 
 4261      697400
 4262              	.LASF0:
 4263 0401 756E7369 		.ascii	"unsigned int\000"
ARM GAS  C:\Users\PCHAUT~1\AppData\Local\Temp\ccRqVguf.s 			page 79


 4263      676E6564 
 4263      20696E74 
 4263      00
 4264              	.LASF71:
 4265 040e 76745F6E 		.ascii	"vt_next\000"
 4265      65787400 
 4266              	.LASF16:
 4267 0416 75696E74 		.ascii	"uint16_t\000"
 4267      31365F74 
 4267      00
 4268              	.LASF93:
 4269 041f 53797374 		.ascii	"SystemCoreClock\000"
 4269      656D436F 
 4269      7265436C 
 4269      6F636B00 
 4270              	.LASF45:
 4271 042f 705F7469 		.ascii	"p_time\000"
 4271      6D6500
 4272              	.LASF123:
 4273 0436 77747365 		.ascii	"wtsemp\000"
 4273      6D7000
 4274              	.LASF73:
 4275 043d 76745F64 		.ascii	"vt_delta\000"
 4275      656C7461 
 4275      00
 4276              	.LASF47:
 4277 0446 705F6D73 		.ascii	"p_msgqueue\000"
 4277      67717565 
 4277      756500
 4278              	.LASF154:
 4279 0451 63685F64 		.ascii	"ch_debug\000"
 4279      65627567 
 4279      00
 4280              	.LASF167:
 4281 045a 74696D65 		.ascii	"timeout\000"
 4281      6F757400 
 4282              	.LASF162:
 4283 0462 6D625F65 		.ascii	"mb_emptysem\000"
 4283      6D707479 
 4283      73656D00 
 4284              	.LASF114:
 4285 046e 6E5F6972 		.ascii	"n_irq\000"
 4285      7100
 4286              	.LASF128:
 4287 0474 735F636E 		.ascii	"s_cnt\000"
 4287      7400
 4288              	.LASF176:
 4289 047a 63684D42 		.ascii	"chMBResetI\000"
 4289      52657365 
 4289      744900
 4290              	.LASF118:
 4291 0485 6B65726E 		.ascii	"kernel_stats_t\000"
 4291      656C5F73 
 4291      74617473 
 4291      5F7400
 4292              	.LASF56:
 4293 0494 63685F74 		.ascii	"ch_thread\000"
ARM GAS  C:\Users\PCHAUT~1\AppData\Local\Temp\ccRqVguf.s 			page 80


 4293      68726561 
 4293      6400
 4294              	.LASF89:
 4295 049e 6D61696E 		.ascii	"mainthread\000"
 4295      74687265 
 4295      616400
 4296              	.LASF165:
 4297 04a9 63684D42 		.ascii	"chMBFetchI\000"
 4297      46657463 
 4297      684900
 4298              	.LASF27:
 4299 04b4 6D73675F 		.ascii	"msg_t\000"
 4299      7400
 4300              	.LASF111:
 4301 04ba 6C617374 		.ascii	"last\000"
 4301      00
 4302              	.LASF30:
 4303 04bf 75636E74 		.ascii	"ucnt_t\000"
 4303      5F7400
 4304              	.LASF65:
 4305 04c6 725F6E65 		.ascii	"r_newer\000"
 4305      77657200 
 4306              	.LASF85:
 4307 04ce 63685F73 		.ascii	"ch_system_t\000"
 4307      79737465 
 4307      6D5F7400 
 4308              	.LASF166:
 4309 04da 63684D42 		.ascii	"chMBFetchS\000"
 4309      46657463 
 4309      685300
 4310              	.LASF152:
 4311 04e5 63665F6F 		.ascii	"cf_off_time\000"
 4311      66665F74 
 4311      696D6500 
 4312              	.LASF117:
 4313 04f1 6D5F6372 		.ascii	"m_crit_isr\000"
 4313      69745F69 
 4313      737200
 4314              	.LASF61:
 4315 04fc 63685F72 		.ascii	"ch_ready_list\000"
 4315      65616479 
 4315      5F6C6973 
 4315      7400
 4316              	.LASF28:
 4317 050a 6576656E 		.ascii	"eventmask_t\000"
 4317      746D6173 
 4317      6B5F7400 
 4318              	.LASF9:
 4319 0516 5F5F696E 		.ascii	"__int32_t\000"
 4319      7433325F 
 4319      7400
 4320              	.LASF164:
 4321 0520 6D736770 		.ascii	"msgp\000"
 4321      00
 4322              	.LASF95:
 4323 0525 73746B61 		.ascii	"stkalign_t\000"
 4323      6C69676E 
ARM GAS  C:\Users\PCHAUT~1\AppData\Local\Temp\ccRqVguf.s 			page 81


 4323      5F7400
 4324              	.LASF55:
 4325 0530 74687265 		.ascii	"threads_list_t\000"
 4325      6164735F 
 4325      6C697374 
 4325      5F7400
 4326              	.LASF136:
 4327 053f 63685F7A 		.ascii	"ch_zero\000"
 4327      65726F00 
 4328              	.LASF150:
 4329 0547 63665F6F 		.ascii	"cf_off_refs\000"
 4329      66665F72 
 4329      65667300 
 4330              	.LASF155:
 4331 0553 73656D61 		.ascii	"semaphore_t\000"
 4331      70686F72 
 4331      655F7400 
 4332              	.LASF46:
 4333 055f 705F7761 		.ascii	"p_waiting\000"
 4333      6974696E 
 4333      6700
 4334              	.LASF20:
 4335 0569 7274636E 		.ascii	"rtcnt_t\000"
 4335      745F7400 
 4336              	.LASF77:
 4337 0571 63685F76 		.ascii	"ch_virtual_timers_list\000"
 4337      69727475 
 4337      616C5F74 
 4337      696D6572 
 4337      735F6C69 
 4338              	.LASF169:
 4339 0588 63684D42 		.ascii	"chMBFetch\000"
 4339      46657463 
 4339      6800
 4340              	.LASF140:
 4341 0592 63685F74 		.ascii	"ch_timesize\000"
 4341      696D6573 
 4341      697A6500 
 4342              	.LASF104:
 4343 059e 74625F70 		.ascii	"tb_ptr\000"
 4343      747200
 4344              	.LASF177:
 4345 05a5 63684D42 		.ascii	"chMBReset\000"
 4345      52657365 
 4345      7400
 4346              	.LASF102:
 4347 05af 63685F73 		.ascii	"ch_swc_event_t\000"
 4347      77635F65 
 4347      76656E74 
 4347      5F7400
 4348              	.LASF146:
 4349 05be 63665F6F 		.ascii	"cf_off_name\000"
 4349      66665F6E 
 4349      616D6500 
 4350              	.LASF38:
 4351 05ca 705F6F6C 		.ascii	"p_older\000"
 4351      64657200 
ARM GAS  C:\Users\PCHAUT~1\AppData\Local\Temp\ccRqVguf.s 			page 82


 4352              	.LASF64:
 4353 05d2 725F6374 		.ascii	"r_ctx\000"
 4353      7800
 4354              	.LASF36:
 4355 05d8 705F6374 		.ascii	"p_ctx\000"
 4355      7800
 4356              	.LASF108:
 4357 05de 746D5F63 		.ascii	"tm_calibration_t\000"
 4357      616C6962 
 4357      72617469 
 4357      6F6E5F74 
 4357      00
 4358              	.LASF157:
 4359 05ef 6D625F62 		.ascii	"mb_buffer\000"
 4359      75666665 
 4359      7200
 4360              	.LASF67:
 4361 05f9 725F6375 		.ascii	"r_current\000"
 4361      7272656E 
 4361      7400
 4362              	.LASF66:
 4363 0603 725F6F6C 		.ascii	"r_older\000"
 4363      64657200 
 4364              	.LASF13:
 4365 060b 5F5F7569 		.ascii	"__uint64_t\000"
 4365      6E743634 
 4365      5F7400
 4366              	.LASF112:
 4367 0616 63756D75 		.ascii	"cumulative\000"
 4367      6C617469 
 4367      766500
 4368              	.LASF24:
 4369 0621 74726566 		.ascii	"trefs_t\000"
 4369      735F7400 
 4370              	.LASF105:
 4371 0629 74625F62 		.ascii	"tb_buffer\000"
 4371      75666665 
 4371      7200
 4372              	.LASF139:
 4373 0633 63685F70 		.ascii	"ch_ptrsize\000"
 4373      74727369 
 4373      7A6500
 4374              	.LASF69:
 4375 063e 76697274 		.ascii	"virtual_timer_t\000"
 4375      75616C5F 
 4375      74696D65 
 4375      725F7400 
 4376              	.LASF34:
 4377 064e 705F7072 		.ascii	"p_prev\000"
 4377      657600
 4378              	.LASF26:
 4379 0655 74707269 		.ascii	"tprio_t\000"
 4379      6F5F7400 
 4380              	.LASF115:
 4381 065d 6E5F6374 		.ascii	"n_ctxswc\000"
 4381      78737763 
 4381      00
ARM GAS  C:\Users\PCHAUT~1\AppData\Local\Temp\ccRqVguf.s 			page 83


 4382              	.LASF17:
 4383 0666 696E7433 		.ascii	"int32_t\000"
 4383      325F7400 
 4384              	.LASF4:
 4385 066e 756E7369 		.ascii	"unsigned char\000"
 4385      676E6564 
 4385      20636861 
 4385      7200
 4386              	.LASF158:
 4387 067c 6D625F74 		.ascii	"mb_top\000"
 4387      6F7000
 4388              	.LASF92:
 4389 0683 49544D5F 		.ascii	"ITM_RxBuffer\000"
 4389      52784275 
 4389      66666572 
 4389      00
 4390              	.LASF50:
 4391 0690 705F6D74 		.ascii	"p_mtxlist\000"
 4391      786C6973 
 4391      7400
 4392              	.LASF5:
 4393 069a 73686F72 		.ascii	"short int\000"
 4393      7420696E 
 4393      7400
 4394              	.LASF41:
 4395 06a4 705F7374 		.ascii	"p_state\000"
 4395      61746500 
 4396              	.LASF44:
 4397 06ac 705F7072 		.ascii	"p_preempt\000"
 4397      65656D70 
 4397      7400
 4398              	.LASF63:
 4399 06b6 725F7072 		.ascii	"r_prio\000"
 4399      696F00
 4400              	.LASF125:
 4401 06bd 65776D61 		.ascii	"ewmask\000"
 4401      736B00
 4402              	.LASF33:
 4403 06c4 705F6E65 		.ascii	"p_next\000"
 4403      787400
 4404              	.LASF22:
 4405 06cb 746D6F64 		.ascii	"tmode_t\000"
 4405      655F7400 
 4406              	.LASF151:
 4407 06d3 63665F6F 		.ascii	"cf_off_preempt\000"
 4407      66665F70 
 4407      7265656D 
 4407      707400
 4408              	.LASF42:
 4409 06e2 705F666C 		.ascii	"p_flags\000"
 4409      61677300 
 4410              	.LASF168:
 4411 06ea 5F5F6675 		.ascii	"__func__\000"
 4411      6E635F5F 
 4411      00
 4412              	.LASF53:
 4413 06f3 705F7374 		.ascii	"p_stats\000"
ARM GAS  C:\Users\PCHAUT~1\AppData\Local\Temp\ccRqVguf.s 			page 84


 4413      61747300 
 4414              	.LASF187:
 4415 06fb 63685379 		.ascii	"chSysLock\000"
 4415      734C6F63 
 4415      6B00
 4416              	.LASF86:
 4417 0705 63685F73 		.ascii	"ch_system\000"
 4417      79737465 
 4417      6D00
 4418              	.LASF185:
 4419 070f 433A5C55 		.ascii	"C:\\Users\\Pchautems\\Documents\\RobotiqueTP\\Proje"
 4419      73657273 
 4419      5C506368 
 4419      61757465 
 4419      6D735C44 
 4420 073d 745C6D69 		.ascii	"t\\miniprojet\000"
 4420      6E697072 
 4420      6F6A6574 
 4420      00
 4421              	.LASF58:
 4422 074a 74687265 		.ascii	"threads_queue_t\000"
 4422      6164735F 
 4422      71756575 
 4422      655F7400 
 4423              	.LASF70:
 4424 075a 63685F76 		.ascii	"ch_virtual_timer\000"
 4424      69727475 
 4424      616C5F74 
 4424      696D6572 
 4424      00
 4425              	.LASF144:
 4426 076b 63665F6F 		.ascii	"cf_off_newer\000"
 4426      66665F6E 
 4426      65776572 
 4426      00
 4427              	.LASF126:
 4428 0778 63685F73 		.ascii	"ch_semaphore\000"
 4428      656D6170 
 4428      686F7265 
 4428      00
 4429              	.LASF49:
 4430 0785 705F6570 		.ascii	"p_epending\000"
 4430      656E6469 
 4430      6E6700
 4431              	.LASF18:
 4432 0790 75696E74 		.ascii	"uint32_t\000"
 4432      33325F74 
 4432      00
 4433              	.LASF142:
 4434 0799 63665F6F 		.ascii	"cf_off_prio\000"
 4434      66665F70 
 4434      72696F00 
 4435              	.LASF62:
 4436 07a5 725F7175 		.ascii	"r_queue\000"
 4436      65756500 
 4437              	.LASF57:
 4438 07ad 63685F74 		.ascii	"ch_threads_list\000"
ARM GAS  C:\Users\PCHAUT~1\AppData\Local\Temp\ccRqVguf.s 			page 85


 4438      68726561 
 4438      64735F6C 
 4438      69737400 
 4439              	.LASF137:
 4440 07bd 63685F73 		.ascii	"ch_size\000"
 4440      697A6500 
 4441              	.LASF12:
 4442 07c5 6C6F6E67 		.ascii	"long unsigned int\000"
 4442      20756E73 
 4442      69676E65 
 4442      6420696E 
 4442      7400
 4443              	.LASF134:
 4444 07d7 63686172 		.ascii	"char\000"
 4444      00
 4445              	.LASF124:
 4446 07dc 77746D74 		.ascii	"wtmtxp\000"
 4446      787000
 4447              	.LASF48:
 4448 07e3 705F6D73 		.ascii	"p_msg\000"
 4448      6700
 4449              	.LASF7:
 4450 07e9 5F5F7569 		.ascii	"__uint16_t\000"
 4450      6E743136 
 4450      5F7400
 4451              	.LASF32:
 4452 07f4 74687265 		.ascii	"thread_t\000"
 4452      61645F74 
 4452      00
 4453              	.LASF109:
 4454 07fd 62657374 		.ascii	"best\000"
 4454      00
 4455              	.LASF132:
 4456 0802 6D5F6E65 		.ascii	"m_next\000"
 4456      787400
 4457              	.LASF31:
 4458 0809 73797374 		.ascii	"systime_t\000"
 4458      696D655F 
 4458      7400
 4459              	.LASF51:
 4460 0813 705F7265 		.ascii	"p_realprio\000"
 4460      616C7072 
 4460      696F00
 4461              	.LASF68:
 4462 081e 76746675 		.ascii	"vtfunc_t\000"
 4462      6E635F74 
 4462      00
 4463              	.LASF186:
 4464 0827 63685365 		.ascii	"chSemGetCounterI\000"
 4464      6D476574 
 4464      436F756E 
 4464      74657249 
 4464      00
 4465              	.LASF188:
 4466 0838 5F5F7365 		.ascii	"__set_BASEPRI\000"
 4466      745F4241 
 4466      53455052 
ARM GAS  C:\Users\PCHAUT~1\AppData\Local\Temp\ccRqVguf.s 			page 86


 4466      4900
 4467              	.LASF81:
 4468 0846 70616E69 		.ascii	"panic_msg\000"
 4468      635F6D73 
 4468      6700
 4469              	.LASF107:
 4470 0850 6F666673 		.ascii	"offset\000"
 4470      657400
 4471              	.LASF96:
 4472 0857 636F6E74 		.ascii	"context\000"
 4472      65787400 
 4473              	.LASF172:
 4474 085f 63684D42 		.ascii	"chMBPostAhead\000"
 4474      506F7374 
 4474      41686561 
 4474      6400
 4475              	.LASF75:
 4476 086d 76745F70 		.ascii	"vt_par\000"
 4476      617200
 4477              	.LASF179:
 4478 0874 63685365 		.ascii	"chSemFastWaitI\000"
 4478      6D466173 
 4478      74576169 
 4478      744900
 4479              	.LASF98:
 4480 0883 73655F74 		.ascii	"se_time\000"
 4480      696D6500 
 4481              	.LASF161:
 4482 088b 6D625F66 		.ascii	"mb_fullsem\000"
 4482      756C6C73 
 4482      656D00
 4483              	.LASF143:
 4484 0896 63665F6F 		.ascii	"cf_off_ctx\000"
 4484      66665F63 
 4484      747800
 4485              	.LASF129:
 4486 08a1 63685F6D 		.ascii	"ch_mutex\000"
 4486      75746578 
 4486      00
 4487              	.LASF43:
 4488 08aa 705F7265 		.ascii	"p_refs\000"
 4488      667300
 4489              	.LASF82:
 4490 08b1 6973725F 		.ascii	"isr_cnt\000"
 4490      636E7400 
 4491              	.LASF101:
 4492 08b9 73655F73 		.ascii	"se_state\000"
 4492      74617465 
 4492      00
 4493              	.LASF87:
 4494 08c2 726C6973 		.ascii	"rlist\000"
 4494      7400
 4495              	.LASF15:
 4496 08c8 75696E74 		.ascii	"uint8_t\000"
 4496      385F7400 
 4497              	.LASF54:
 4498 08d0 74687265 		.ascii	"thread_reference_t\000"
ARM GAS  C:\Users\PCHAUT~1\AppData\Local\Temp\ccRqVguf.s 			page 87


 4498      61645F72 
 4498      65666572 
 4498      656E6365 
 4498      5F7400
 4499              	.LASF121:
 4500 08e3 77746F62 		.ascii	"wtobjp\000"
 4500      6A7000
 4501              	.LASF39:
 4502 08ea 705F6E61 		.ascii	"p_name\000"
 4502      6D6500
 4503              	.LASF78:
 4504 08f1 76745F73 		.ascii	"vt_systime\000"
 4504      79737469 
 4504      6D6500
 4505              	.LASF163:
 4506 08fc 6D61696C 		.ascii	"mailbox_t\000"
 4506      626F785F 
 4506      7400
 4507              	.LASF84:
 4508 0906 74726163 		.ascii	"trace_buffer\000"
 4508      655F6275 
 4508      66666572 
 4508      00
 4509              	.LASF180:
 4510 0913 63685379 		.ascii	"chSysUnlock\000"
 4510      73556E6C 
 4510      6F636B00 
 4511              	.LASF138:
 4512 091f 63685F76 		.ascii	"ch_version\000"
 4512      65727369 
 4512      6F6E00
 4513              	.LASF182:
 4514 092a 706F7274 		.ascii	"port_lock\000"
 4514      5F6C6F63 
 4514      6B00
 4515              	.LASF116:
 4516 0934 6D5F6372 		.ascii	"m_crit_thd\000"
 4516      69745F74 
 4516      686400
 4517              	.LASF131:
 4518 093f 6D5F6F77 		.ascii	"m_owner\000"
 4518      6E657200 
 4519              	.LASF100:
 4520 0947 73655F77 		.ascii	"se_wtobjp\000"
 4520      746F626A 
 4520      7000
 4521              	.LASF135:
 4522 0951 63685F69 		.ascii	"ch_identifier\000"
 4522      64656E74 
 4522      69666965 
 4522      7200
 4523              	.LASF74:
 4524 095f 76745F66 		.ascii	"vt_func\000"
 4524      756E6300 
 4525              		.ident	"GCC: (GNU Tools for Arm Embedded Processors 7-2017-q4-major) 7.2.1 20170904 (release) [ARM
ARM GAS  C:\Users\PCHAUT~1\AppData\Local\Temp\ccRqVguf.s 			page 88


DEFINED SYMBOLS
                            *ABS*:00000000 chmboxes.c
C:\Users\PCHAUT~1\AppData\Local\Temp\ccRqVguf.s:18     .text.port_lock:00000000 $t
C:\Users\PCHAUT~1\AppData\Local\Temp\ccRqVguf.s:25     .text.port_lock:00000000 port_lock
C:\Users\PCHAUT~1\AppData\Local\Temp\ccRqVguf.s:72     .text.port_lock:0000002c $d
C:\Users\PCHAUT~1\AppData\Local\Temp\ccRqVguf.s:77     .text.port_unlock:00000000 $t
C:\Users\PCHAUT~1\AppData\Local\Temp\ccRqVguf.s:84     .text.port_unlock:00000000 port_unlock
C:\Users\PCHAUT~1\AppData\Local\Temp\ccRqVguf.s:129    .text.port_unlock:0000002c $d
C:\Users\PCHAUT~1\AppData\Local\Temp\ccRqVguf.s:134    .text.chSysLock:00000000 $t
C:\Users\PCHAUT~1\AppData\Local\Temp\ccRqVguf.s:141    .text.chSysLock:00000000 chSysLock
C:\Users\PCHAUT~1\AppData\Local\Temp\ccRqVguf.s:179    .text.chSysLock:0000002c $d
C:\Users\PCHAUT~1\AppData\Local\Temp\ccRqVguf.s:184    .text.chSysUnlock:00000000 $t
C:\Users\PCHAUT~1\AppData\Local\Temp\ccRqVguf.s:191    .text.chSysUnlock:00000000 chSysUnlock
C:\Users\PCHAUT~1\AppData\Local\Temp\ccRqVguf.s:247    .text.chSysUnlock:0000004c $d
C:\Users\PCHAUT~1\AppData\Local\Temp\ccRqVguf.s:1405   .rodata.__func__.7153:00000000 __func__.7153
C:\Users\PCHAUT~1\AppData\Local\Temp\ccRqVguf.s:254    .text.chSemFastWaitI:00000000 $t
C:\Users\PCHAUT~1\AppData\Local\Temp\ccRqVguf.s:261    .text.chSemFastWaitI:00000000 chSemFastWaitI
C:\Users\PCHAUT~1\AppData\Local\Temp\ccRqVguf.s:302    .text.chSemFastWaitI:00000030 $d
C:\Users\PCHAUT~1\AppData\Local\Temp\ccRqVguf.s:307    .text.chSemGetCounterI:00000000 $t
C:\Users\PCHAUT~1\AppData\Local\Temp\ccRqVguf.s:314    .text.chSemGetCounterI:00000000 chSemGetCounterI
C:\Users\PCHAUT~1\AppData\Local\Temp\ccRqVguf.s:351    .text.chSemGetCounterI:0000002c $d
C:\Users\PCHAUT~1\AppData\Local\Temp\ccRqVguf.s:356    .text.chMBObjectInit:00000000 $t
C:\Users\PCHAUT~1\AppData\Local\Temp\ccRqVguf.s:364    .text.chMBObjectInit:00000000 chMBObjectInit
C:\Users\PCHAUT~1\AppData\Local\Temp\ccRqVguf.s:447    .text.chMBObjectInit:00000074 $d
C:\Users\PCHAUT~1\AppData\Local\Temp\ccRqVguf.s:1399   .rodata.__func__.7851:00000000 __func__.7851
C:\Users\PCHAUT~1\AppData\Local\Temp\ccRqVguf.s:453    .text.chMBReset:00000000 $t
C:\Users\PCHAUT~1\AppData\Local\Temp\ccRqVguf.s:461    .text.chMBReset:00000000 chMBReset
C:\Users\PCHAUT~1\AppData\Local\Temp\ccRqVguf.s:515    .text.chMBResetI:00000000 chMBResetI
C:\Users\PCHAUT~1\AppData\Local\Temp\ccRqVguf.s:502    .text.chMBReset:00000034 $d
C:\Users\PCHAUT~1\AppData\Local\Temp\ccRqVguf.s:507    .text.chMBResetI:00000000 $t
C:\Users\PCHAUT~1\AppData\Local\Temp\ccRqVguf.s:586    .text.chMBResetI:0000006c $d
C:\Users\PCHAUT~1\AppData\Local\Temp\ccRqVguf.s:1411   .rodata.__func__.7858:00000000 __func__.7858
C:\Users\PCHAUT~1\AppData\Local\Temp\ccRqVguf.s:592    .text.chMBPost:00000000 $t
C:\Users\PCHAUT~1\AppData\Local\Temp\ccRqVguf.s:600    .text.chMBPost:00000000 chMBPost
C:\Users\PCHAUT~1\AppData\Local\Temp\ccRqVguf.s:659    .text.chMBPostS:00000000 chMBPostS
C:\Users\PCHAUT~1\AppData\Local\Temp\ccRqVguf.s:646    .text.chMBPost:0000003c $d
C:\Users\PCHAUT~1\AppData\Local\Temp\ccRqVguf.s:651    .text.chMBPostS:00000000 $t
C:\Users\PCHAUT~1\AppData\Local\Temp\ccRqVguf.s:745    .text.chMBPostS:0000007c $d
C:\Users\PCHAUT~1\AppData\Local\Temp\ccRqVguf.s:1417   .rodata.__func__.7871:00000000 __func__.7871
C:\Users\PCHAUT~1\AppData\Local\Temp\ccRqVguf.s:751    .text.chMBPostI:00000000 $t
C:\Users\PCHAUT~1\AppData\Local\Temp\ccRqVguf.s:759    .text.chMBPostI:00000000 chMBPostI
C:\Users\PCHAUT~1\AppData\Local\Temp\ccRqVguf.s:848    .text.chMBPostI:00000084 $d
C:\Users\PCHAUT~1\AppData\Local\Temp\ccRqVguf.s:1423   .rodata.__func__.7876:00000000 __func__.7876
C:\Users\PCHAUT~1\AppData\Local\Temp\ccRqVguf.s:854    .text.chMBPostAhead:00000000 $t
C:\Users\PCHAUT~1\AppData\Local\Temp\ccRqVguf.s:862    .text.chMBPostAhead:00000000 chMBPostAhead
C:\Users\PCHAUT~1\AppData\Local\Temp\ccRqVguf.s:921    .text.chMBPostAheadS:00000000 chMBPostAheadS
C:\Users\PCHAUT~1\AppData\Local\Temp\ccRqVguf.s:908    .text.chMBPostAhead:0000003c $d
C:\Users\PCHAUT~1\AppData\Local\Temp\ccRqVguf.s:913    .text.chMBPostAheadS:00000000 $t
C:\Users\PCHAUT~1\AppData\Local\Temp\ccRqVguf.s:1010   .text.chMBPostAheadS:00000084 $d
C:\Users\PCHAUT~1\AppData\Local\Temp\ccRqVguf.s:1429   .rodata.__func__.7889:00000000 __func__.7889
C:\Users\PCHAUT~1\AppData\Local\Temp\ccRqVguf.s:1016   .text.chMBPostAheadI:00000000 $t
C:\Users\PCHAUT~1\AppData\Local\Temp\ccRqVguf.s:1024   .text.chMBPostAheadI:00000000 chMBPostAheadI
C:\Users\PCHAUT~1\AppData\Local\Temp\ccRqVguf.s:1116   .text.chMBPostAheadI:00000088 $d
C:\Users\PCHAUT~1\AppData\Local\Temp\ccRqVguf.s:1435   .rodata.__func__.7894:00000000 __func__.7894
C:\Users\PCHAUT~1\AppData\Local\Temp\ccRqVguf.s:1122   .text.chMBFetch:00000000 $t
C:\Users\PCHAUT~1\AppData\Local\Temp\ccRqVguf.s:1130   .text.chMBFetch:00000000 chMBFetch
C:\Users\PCHAUT~1\AppData\Local\Temp\ccRqVguf.s:1189   .text.chMBFetchS:00000000 chMBFetchS
ARM GAS  C:\Users\PCHAUT~1\AppData\Local\Temp\ccRqVguf.s 			page 89


C:\Users\PCHAUT~1\AppData\Local\Temp\ccRqVguf.s:1176   .text.chMBFetch:0000003c $d
C:\Users\PCHAUT~1\AppData\Local\Temp\ccRqVguf.s:1181   .text.chMBFetchS:00000000 $t
C:\Users\PCHAUT~1\AppData\Local\Temp\ccRqVguf.s:1281   .text.chMBFetchS:00000084 $d
C:\Users\PCHAUT~1\AppData\Local\Temp\ccRqVguf.s:1441   .rodata.__func__.7907:00000000 __func__.7907
C:\Users\PCHAUT~1\AppData\Local\Temp\ccRqVguf.s:1287   .text.chMBFetchI:00000000 $t
C:\Users\PCHAUT~1\AppData\Local\Temp\ccRqVguf.s:1295   .text.chMBFetchI:00000000 chMBFetchI
C:\Users\PCHAUT~1\AppData\Local\Temp\ccRqVguf.s:1390   .text.chMBFetchI:0000008c $d
C:\Users\PCHAUT~1\AppData\Local\Temp\ccRqVguf.s:1447   .rodata.__func__.7912:00000000 __func__.7912
C:\Users\PCHAUT~1\AppData\Local\Temp\ccRqVguf.s:1396   .rodata.__func__.7851:00000000 $d
C:\Users\PCHAUT~1\AppData\Local\Temp\ccRqVguf.s:1402   .rodata.__func__.7153:00000000 $d
C:\Users\PCHAUT~1\AppData\Local\Temp\ccRqVguf.s:1408   .rodata.__func__.7858:00000000 $d
C:\Users\PCHAUT~1\AppData\Local\Temp\ccRqVguf.s:1414   .rodata.__func__.7871:00000000 $d
C:\Users\PCHAUT~1\AppData\Local\Temp\ccRqVguf.s:1420   .rodata.__func__.7876:00000000 $d
C:\Users\PCHAUT~1\AppData\Local\Temp\ccRqVguf.s:1426   .rodata.__func__.7889:00000000 $d
C:\Users\PCHAUT~1\AppData\Local\Temp\ccRqVguf.s:1432   .rodata.__func__.7894:00000000 $d
C:\Users\PCHAUT~1\AppData\Local\Temp\ccRqVguf.s:1438   .rodata.__func__.7907:00000000 $d
C:\Users\PCHAUT~1\AppData\Local\Temp\ccRqVguf.s:1444   .rodata.__func__.7912:00000000 $d

UNDEFINED SYMBOLS
__stack_chk_fail
__stack_chk_guard
_stats_start_measure_crit_thd
_dbg_check_lock
_dbg_check_unlock
_stats_stop_measure_crit_thd
chSysHalt
ch
chDbgCheckClassI
chSemObjectInit
chSchRescheduleS
chSemResetI
chDbgCheckClassS
chSemWaitTimeoutS
chSemSignalI
