ARM GAS  C:\Users\PCHAUT~1\AppData\Local\Temp\ccmzKLV9.s 			page 1


   1              		.cpu cortex-m4
   2              		.eabi_attribute 27, 1
   3              		.eabi_attribute 28, 1
   4              		.eabi_attribute 20, 1
   5              		.eabi_attribute 21, 1
   6              		.eabi_attribute 23, 3
   7              		.eabi_attribute 24, 1
   8              		.eabi_attribute 25, 1
   9              		.eabi_attribute 26, 1
  10              		.eabi_attribute 30, 6
  11              		.eabi_attribute 34, 1
  12              		.eabi_attribute 18, 4
  13              		.file	"chmsg.c"
  14              		.text
  15              	.Ltext0:
  16              		.cfi_sections	.debug_frame
  17              		.section	.text.port_lock,"ax",%progbits
  18              		.align	1
  19              		.p2align 4,,15
  20              		.syntax unified
  21              		.thumb
  22              		.thumb_func
  23              		.fpu fpv4-sp-d16
  24              		.type	port_lock, %function
  25              	port_lock:
  26              	.LFB116:
  27              		.file 1 "../lib/e-puck2_main-processor/ChibiOS//os/rt/ports/ARMCMx/chcore_v7m.h"
  28              		.loc 1 444 0
  29              		.cfi_startproc
  30              		@ args = 0, pretend = 0, frame = 8
  31              		@ frame_needed = 0, uses_anonymous_args = 0
  32 0000 00B5     		push	{lr}
  33              		.cfi_def_cfa_offset 4
  34              		.cfi_offset 14, -4
  35 0002 83B0     		sub	sp, sp, #12
  36              		.cfi_def_cfa_offset 16
  37              		.loc 1 444 0
  38 0004 094B     		ldr	r3, .L3
  39 0006 1B68     		ldr	r3, [r3]
  40 0008 0193     		str	r3, [sp, #4]
  41 000a 2023     		movs	r3, #32
  42 000c 0093     		str	r3, [sp]
  43              	.LBB6:
  44              	.LBB7:
  45              		.file 2 "../lib/e-puck2_main-processor/ChibiOS//os/ext/CMSIS/include/core_cmFunc.h"
  46              		.loc 2 546 0
  47 000e 009B     		ldr	r3, [sp]
  48              		.syntax unified
  49              	@ 546 "../lib/e-puck2_main-processor/ChibiOS//os/ext/CMSIS/include/core_cmFunc.h" 1
  50 0010 83F31188 		MSR basepri, r3
  51              	@ 0 "" 2
  52              		.thumb
  53              		.syntax unified
  54              	.LBE7:
  55              	.LBE6:
  56              		.loc 1 451 0
  57 0014 00BF     		nop
ARM GAS  C:\Users\PCHAUT~1\AppData\Local\Temp\ccmzKLV9.s 			page 2


  58 0016 054B     		ldr	r3, .L3
  59 0018 019A     		ldr	r2, [sp, #4]
  60 001a 1B68     		ldr	r3, [r3]
  61 001c 9A42     		cmp	r2, r3
  62 001e 01D0     		beq	.L2
  63 0020 FFF7FEFF 		bl	__stack_chk_fail
  64              	.L2:
  65 0024 03B0     		add	sp, sp, #12
  66              		.cfi_def_cfa_offset 4
  67              		@ sp needed
  68 0026 5DF804FB 		ldr	pc, [sp], #4
  69              	.L4:
  70 002a 00BF     		.align	2
  71              	.L3:
  72 002c 00000000 		.word	__stack_chk_guard
  73              		.cfi_endproc
  74              	.LFE116:
  75              		.size	port_lock, .-port_lock
  76              		.section	.text.port_unlock,"ax",%progbits
  77              		.align	1
  78              		.p2align 4,,15
  79              		.syntax unified
  80              		.thumb
  81              		.thumb_func
  82              		.fpu fpv4-sp-d16
  83              		.type	port_unlock, %function
  84              	port_unlock:
  85              	.LFB117:
  86              		.loc 1 458 0
  87              		.cfi_startproc
  88              		@ args = 0, pretend = 0, frame = 8
  89              		@ frame_needed = 0, uses_anonymous_args = 0
  90 0000 00B5     		push	{lr}
  91              		.cfi_def_cfa_offset 4
  92              		.cfi_offset 14, -4
  93 0002 83B0     		sub	sp, sp, #12
  94              		.cfi_def_cfa_offset 16
  95              		.loc 1 458 0
  96 0004 094B     		ldr	r3, .L7
  97 0006 1B68     		ldr	r3, [r3]
  98 0008 0193     		str	r3, [sp, #4]
  99 000a 0023     		movs	r3, #0
 100 000c 0093     		str	r3, [sp]
 101              	.LBB8:
 102              	.LBB9:
 103              		.loc 2 546 0
 104 000e 009B     		ldr	r3, [sp]
 105              		.syntax unified
 106              	@ 546 "../lib/e-puck2_main-processor/ChibiOS//os/ext/CMSIS/include/core_cmFunc.h" 1
 107 0010 83F31188 		MSR basepri, r3
 108              	@ 0 "" 2
 109              		.thumb
 110              		.syntax unified
 111              	.LBE9:
 112              	.LBE8:
 113              		.loc 1 465 0
 114 0014 00BF     		nop
ARM GAS  C:\Users\PCHAUT~1\AppData\Local\Temp\ccmzKLV9.s 			page 3


 115 0016 054B     		ldr	r3, .L7
 116 0018 019A     		ldr	r2, [sp, #4]
 117 001a 1B68     		ldr	r3, [r3]
 118 001c 9A42     		cmp	r2, r3
 119 001e 01D0     		beq	.L6
 120 0020 FFF7FEFF 		bl	__stack_chk_fail
 121              	.L6:
 122 0024 03B0     		add	sp, sp, #12
 123              		.cfi_def_cfa_offset 4
 124              		@ sp needed
 125 0026 5DF804FB 		ldr	pc, [sp], #4
 126              	.L8:
 127 002a 00BF     		.align	2
 128              	.L7:
 129 002c 00000000 		.word	__stack_chk_guard
 130              		.cfi_endproc
 131              	.LFE117:
 132              		.size	port_unlock, .-port_unlock
 133              		.section	.text.queue_insert,"ax",%progbits
 134              		.align	1
 135              		.p2align 4,,15
 136              		.syntax unified
 137              		.thumb
 138              		.thumb_func
 139              		.fpu fpv4-sp-d16
 140              		.type	queue_insert, %function
 141              	queue_insert:
 142              	.LFB134:
 143              		.file 3 "../lib/e-puck2_main-processor/ChibiOS//os/rt/include/chschd.h"
 144              		.loc 3 663 0
 145              		.cfi_startproc
 146              		@ args = 0, pretend = 0, frame = 16
 147              		@ frame_needed = 0, uses_anonymous_args = 0
 148 0000 00B5     		push	{lr}
 149              		.cfi_def_cfa_offset 4
 150              		.cfi_offset 14, -4
 151 0002 85B0     		sub	sp, sp, #20
 152              		.cfi_def_cfa_offset 24
 153 0004 0190     		str	r0, [sp, #4]
 154 0006 0091     		str	r1, [sp]
 155              		.loc 3 663 0
 156 0008 0D4B     		ldr	r3, .L11
 157 000a 1B68     		ldr	r3, [r3]
 158 000c 0393     		str	r3, [sp, #12]
 159              		.loc 3 665 0
 160 000e 019B     		ldr	r3, [sp, #4]
 161 0010 009A     		ldr	r2, [sp]
 162 0012 1A60     		str	r2, [r3]
 163              		.loc 3 666 0
 164 0014 009B     		ldr	r3, [sp]
 165 0016 5A68     		ldr	r2, [r3, #4]
 166 0018 019B     		ldr	r3, [sp, #4]
 167 001a 5A60     		str	r2, [r3, #4]
 168              		.loc 3 667 0
 169 001c 019B     		ldr	r3, [sp, #4]
 170 001e 5B68     		ldr	r3, [r3, #4]
 171 0020 019A     		ldr	r2, [sp, #4]
ARM GAS  C:\Users\PCHAUT~1\AppData\Local\Temp\ccmzKLV9.s 			page 4


 172 0022 1A60     		str	r2, [r3]
 173              		.loc 3 668 0
 174 0024 009B     		ldr	r3, [sp]
 175 0026 019A     		ldr	r2, [sp, #4]
 176 0028 5A60     		str	r2, [r3, #4]
 177              		.loc 3 669 0
 178 002a 00BF     		nop
 179 002c 044B     		ldr	r3, .L11
 180 002e 039A     		ldr	r2, [sp, #12]
 181 0030 1B68     		ldr	r3, [r3]
 182 0032 9A42     		cmp	r2, r3
 183 0034 01D0     		beq	.L10
 184 0036 FFF7FEFF 		bl	__stack_chk_fail
 185              	.L10:
 186 003a 05B0     		add	sp, sp, #20
 187              		.cfi_def_cfa_offset 4
 188              		@ sp needed
 189 003c 5DF804FB 		ldr	pc, [sp], #4
 190              	.L12:
 191              		.align	2
 192              	.L11:
 193 0040 00000000 		.word	__stack_chk_guard
 194              		.cfi_endproc
 195              	.LFE134:
 196              		.size	queue_insert, .-queue_insert
 197              		.section	.text.queue_fifo_remove,"ax",%progbits
 198              		.align	1
 199              		.p2align 4,,15
 200              		.syntax unified
 201              		.thumb
 202              		.thumb_func
 203              		.fpu fpv4-sp-d16
 204              		.type	queue_fifo_remove, %function
 205              	queue_fifo_remove:
 206              	.LFB135:
 207              		.loc 3 671 0
 208              		.cfi_startproc
 209              		@ args = 0, pretend = 0, frame = 16
 210              		@ frame_needed = 0, uses_anonymous_args = 0
 211 0000 00B5     		push	{lr}
 212              		.cfi_def_cfa_offset 4
 213              		.cfi_offset 14, -4
 214 0002 85B0     		sub	sp, sp, #20
 215              		.cfi_def_cfa_offset 24
 216 0004 0190     		str	r0, [sp, #4]
 217              		.loc 3 671 0
 218 0006 0D4B     		ldr	r3, .L16
 219 0008 1B68     		ldr	r3, [r3]
 220 000a 0393     		str	r3, [sp, #12]
 221              		.loc 3 672 0
 222 000c 019B     		ldr	r3, [sp, #4]
 223 000e 1B68     		ldr	r3, [r3]
 224 0010 0293     		str	r3, [sp, #8]
 225              		.loc 3 674 0
 226 0012 029B     		ldr	r3, [sp, #8]
 227 0014 1A68     		ldr	r2, [r3]
 228 0016 019B     		ldr	r3, [sp, #4]
ARM GAS  C:\Users\PCHAUT~1\AppData\Local\Temp\ccmzKLV9.s 			page 5


 229 0018 1A60     		str	r2, [r3]
 230              		.loc 3 675 0
 231 001a 019B     		ldr	r3, [sp, #4]
 232 001c 1B68     		ldr	r3, [r3]
 233 001e 019A     		ldr	r2, [sp, #4]
 234 0020 5A60     		str	r2, [r3, #4]
 235              		.loc 3 677 0
 236 0022 029B     		ldr	r3, [sp, #8]
 237              		.loc 3 678 0
 238 0024 1846     		mov	r0, r3
 239 0026 054B     		ldr	r3, .L16
 240 0028 039A     		ldr	r2, [sp, #12]
 241 002a 1B68     		ldr	r3, [r3]
 242 002c 9A42     		cmp	r2, r3
 243 002e 01D0     		beq	.L15
 244 0030 FFF7FEFF 		bl	__stack_chk_fail
 245              	.L15:
 246 0034 05B0     		add	sp, sp, #20
 247              		.cfi_def_cfa_offset 4
 248              		@ sp needed
 249 0036 5DF804FB 		ldr	pc, [sp], #4
 250              	.L17:
 251 003a 00BF     		.align	2
 252              	.L16:
 253 003c 00000000 		.word	__stack_chk_guard
 254              		.cfi_endproc
 255              	.LFE135:
 256              		.size	queue_fifo_remove, .-queue_fifo_remove
 257              		.section	.text.chSysLock,"ax",%progbits
 258              		.align	1
 259              		.p2align 4,,15
 260              		.syntax unified
 261              		.thumb
 262              		.thumb_func
 263              		.fpu fpv4-sp-d16
 264              		.type	chSysLock, %function
 265              	chSysLock:
 266              	.LFB145:
 267              		.file 4 "../lib/e-puck2_main-processor/ChibiOS//os/rt/include/chsys.h"
 268              		.loc 4 346 0
 269              		.cfi_startproc
 270              		@ args = 0, pretend = 0, frame = 8
 271              		@ frame_needed = 0, uses_anonymous_args = 0
 272 0000 00B5     		push	{lr}
 273              		.cfi_def_cfa_offset 4
 274              		.cfi_offset 14, -4
 275 0002 83B0     		sub	sp, sp, #12
 276              		.cfi_def_cfa_offset 16
 277              		.loc 4 346 0
 278 0004 094B     		ldr	r3, .L20
 279 0006 1B68     		ldr	r3, [r3]
 280 0008 0193     		str	r3, [sp, #4]
 281              		.loc 4 348 0
 282 000a FFF7FEFF 		bl	port_lock
 283              		.loc 4 349 0
 284 000e FFF7FEFF 		bl	_stats_start_measure_crit_thd
 285              		.loc 4 350 0
ARM GAS  C:\Users\PCHAUT~1\AppData\Local\Temp\ccmzKLV9.s 			page 6


 286 0012 FFF7FEFF 		bl	_dbg_check_lock
 287              		.loc 4 351 0
 288 0016 00BF     		nop
 289 0018 044B     		ldr	r3, .L20
 290 001a 019A     		ldr	r2, [sp, #4]
 291 001c 1B68     		ldr	r3, [r3]
 292 001e 9A42     		cmp	r2, r3
 293 0020 01D0     		beq	.L19
 294 0022 FFF7FEFF 		bl	__stack_chk_fail
 295              	.L19:
 296 0026 03B0     		add	sp, sp, #12
 297              		.cfi_def_cfa_offset 4
 298              		@ sp needed
 299 0028 5DF804FB 		ldr	pc, [sp], #4
 300              	.L21:
 301              		.align	2
 302              	.L20:
 303 002c 00000000 		.word	__stack_chk_guard
 304              		.cfi_endproc
 305              	.LFE145:
 306              		.size	chSysLock, .-chSysLock
 307              		.section	.text.chSysUnlock,"ax",%progbits
 308              		.align	1
 309              		.p2align 4,,15
 310              		.syntax unified
 311              		.thumb
 312              		.thumb_func
 313              		.fpu fpv4-sp-d16
 314              		.type	chSysUnlock, %function
 315              	chSysUnlock:
 316              	.LFB146:
 317              		.loc 4 358 0
 318              		.cfi_startproc
 319              		@ args = 0, pretend = 0, frame = 8
 320              		@ frame_needed = 0, uses_anonymous_args = 0
 321 0000 00B5     		push	{lr}
 322              		.cfi_def_cfa_offset 4
 323              		.cfi_offset 14, -4
 324 0002 83B0     		sub	sp, sp, #12
 325              		.cfi_def_cfa_offset 16
 326              		.loc 4 358 0
 327 0004 114B     		ldr	r3, .L25
 328 0006 1B68     		ldr	r3, [r3]
 329 0008 0193     		str	r3, [sp, #4]
 330              		.loc 4 360 0
 331 000a FFF7FEFF 		bl	_dbg_check_unlock
 332              		.loc 4 361 0
 333 000e FFF7FEFF 		bl	_stats_stop_measure_crit_thd
 334              		.loc 4 367 0
 335 0012 0F4B     		ldr	r3, .L25+4
 336 0014 1B68     		ldr	r3, [r3]
 337 0016 0E4A     		ldr	r2, .L25+4
 338 0018 9342     		cmp	r3, r2
 339 001a 0AD0     		beq	.L23
 340              		.loc 4 367 0 is_stmt 0 discriminator 2
 341 001c 0C4B     		ldr	r3, .L25+4
 342 001e 9B69     		ldr	r3, [r3, #24]
ARM GAS  C:\Users\PCHAUT~1\AppData\Local\Temp\ccmzKLV9.s 			page 7


 343 0020 9A68     		ldr	r2, [r3, #8]
 344 0022 0B4B     		ldr	r3, .L25+4
 345 0024 1B68     		ldr	r3, [r3]
 346 0026 9B68     		ldr	r3, [r3, #8]
 347 0028 9A42     		cmp	r2, r3
 348 002a 02D2     		bcs	.L23
 349              		.loc 4 367 0 discriminator 3
 350 002c 0948     		ldr	r0, .L25+8
 351 002e FFF7FEFF 		bl	chSysHalt
 352              	.L23:
 353              		.loc 4 371 0 is_stmt 1
 354 0032 FFF7FEFF 		bl	port_unlock
 355              		.loc 4 372 0
 356 0036 00BF     		nop
 357 0038 044B     		ldr	r3, .L25
 358 003a 019A     		ldr	r2, [sp, #4]
 359 003c 1B68     		ldr	r3, [r3]
 360 003e 9A42     		cmp	r2, r3
 361 0040 01D0     		beq	.L24
 362 0042 FFF7FEFF 		bl	__stack_chk_fail
 363              	.L24:
 364 0046 03B0     		add	sp, sp, #12
 365              		.cfi_def_cfa_offset 4
 366              		@ sp needed
 367 0048 5DF804FB 		ldr	pc, [sp], #4
 368              	.L26:
 369              		.align	2
 370              	.L25:
 371 004c 00000000 		.word	__stack_chk_guard
 372 0050 00000000 		.word	ch
 373 0054 00000000 		.word	__func__.7153
 374              		.cfi_endproc
 375              	.LFE146:
 376              		.size	chSysUnlock, .-chSysUnlock
 377              		.section	.text.chMsgIsPendingI,"ax",%progbits
 378              		.align	1
 379              		.p2align 4,,15
 380              		.syntax unified
 381              		.thumb
 382              		.thumb_func
 383              		.fpu fpv4-sp-d16
 384              		.type	chMsgIsPendingI, %function
 385              	chMsgIsPendingI:
 386              	.LFB200:
 387              		.file 5 "../lib/e-puck2_main-processor/ChibiOS//os/rt/include/chmsg.h"
 388              		.loc 5 79 0
 389              		.cfi_startproc
 390              		@ args = 0, pretend = 0, frame = 16
 391              		@ frame_needed = 0, uses_anonymous_args = 0
 392 0000 00B5     		push	{lr}
 393              		.cfi_def_cfa_offset 4
 394              		.cfi_offset 14, -4
 395 0002 85B0     		sub	sp, sp, #20
 396              		.cfi_def_cfa_offset 24
 397 0004 0190     		str	r0, [sp, #4]
 398              		.loc 5 79 0
 399 0006 0C4B     		ldr	r3, .L30
ARM GAS  C:\Users\PCHAUT~1\AppData\Local\Temp\ccmzKLV9.s 			page 8


 400 0008 1B68     		ldr	r3, [r3]
 401 000a 0393     		str	r3, [sp, #12]
 402              		.loc 5 81 0
 403 000c FFF7FEFF 		bl	chDbgCheckClassI
 404              		.loc 5 83 0
 405 0010 019B     		ldr	r3, [sp, #4]
 406 0012 1A6B     		ldr	r2, [r3, #48]
 407 0014 019B     		ldr	r3, [sp, #4]
 408 0016 3033     		adds	r3, r3, #48
 409 0018 9A42     		cmp	r2, r3
 410 001a 14BF     		ite	ne
 411 001c 0123     		movne	r3, #1
 412 001e 0023     		moveq	r3, #0
 413 0020 DBB2     		uxtb	r3, r3
 414              		.loc 5 84 0
 415 0022 1846     		mov	r0, r3
 416 0024 044B     		ldr	r3, .L30
 417 0026 039A     		ldr	r2, [sp, #12]
 418 0028 1B68     		ldr	r3, [r3]
 419 002a 9A42     		cmp	r2, r3
 420 002c 01D0     		beq	.L29
 421 002e FFF7FEFF 		bl	__stack_chk_fail
 422              	.L29:
 423 0032 05B0     		add	sp, sp, #20
 424              		.cfi_def_cfa_offset 4
 425              		@ sp needed
 426 0034 5DF804FB 		ldr	pc, [sp], #4
 427              	.L31:
 428              		.align	2
 429              	.L30:
 430 0038 00000000 		.word	__stack_chk_guard
 431              		.cfi_endproc
 432              	.LFE200:
 433              		.size	chMsgIsPendingI, .-chMsgIsPendingI
 434              		.section	.text.chMsgReleaseS,"ax",%progbits
 435              		.align	1
 436              		.p2align 4,,15
 437              		.syntax unified
 438              		.thumb
 439              		.thumb_func
 440              		.fpu fpv4-sp-d16
 441              		.type	chMsgReleaseS, %function
 442              	chMsgReleaseS:
 443              	.LFB202:
 444              		.loc 5 111 0
 445              		.cfi_startproc
 446              		@ args = 0, pretend = 0, frame = 16
 447              		@ frame_needed = 0, uses_anonymous_args = 0
 448 0000 00B5     		push	{lr}
 449              		.cfi_def_cfa_offset 4
 450              		.cfi_offset 14, -4
 451 0002 85B0     		sub	sp, sp, #20
 452              		.cfi_def_cfa_offset 24
 453 0004 0190     		str	r0, [sp, #4]
 454 0006 0091     		str	r1, [sp]
 455              		.loc 5 111 0
 456 0008 094B     		ldr	r3, .L34
ARM GAS  C:\Users\PCHAUT~1\AppData\Local\Temp\ccmzKLV9.s 			page 9


 457 000a 1B68     		ldr	r3, [r3]
 458 000c 0393     		str	r3, [sp, #12]
 459              		.loc 5 113 0
 460 000e FFF7FEFF 		bl	chDbgCheckClassS
 461              		.loc 5 115 0
 462 0012 0099     		ldr	r1, [sp]
 463 0014 0198     		ldr	r0, [sp, #4]
 464 0016 FFF7FEFF 		bl	chSchWakeupS
 465              		.loc 5 116 0
 466 001a 00BF     		nop
 467 001c 044B     		ldr	r3, .L34
 468 001e 039A     		ldr	r2, [sp, #12]
 469 0020 1B68     		ldr	r3, [r3]
 470 0022 9A42     		cmp	r2, r3
 471 0024 01D0     		beq	.L33
 472 0026 FFF7FEFF 		bl	__stack_chk_fail
 473              	.L33:
 474 002a 05B0     		add	sp, sp, #20
 475              		.cfi_def_cfa_offset 4
 476              		@ sp needed
 477 002c 5DF804FB 		ldr	pc, [sp], #4
 478              	.L35:
 479              		.align	2
 480              	.L34:
 481 0030 00000000 		.word	__stack_chk_guard
 482              		.cfi_endproc
 483              	.LFE202:
 484              		.size	chMsgReleaseS, .-chMsgReleaseS
 485              		.section	.text.chMsgSend,"ax",%progbits
 486              		.align	1
 487              		.p2align 4,,15
 488              		.global	chMsgSend
 489              		.syntax unified
 490              		.thumb
 491              		.thumb_func
 492              		.fpu fpv4-sp-d16
 493              		.type	chMsgSend, %function
 494              	chMsgSend:
 495              	.LFB219:
 496              		.file 6 "../lib/e-puck2_main-processor/ChibiOS//os/rt/src/chmsg.c"
 497              		.loc 6 87 0
 498              		.cfi_startproc
 499              		@ args = 0, pretend = 0, frame = 16
 500              		@ frame_needed = 0, uses_anonymous_args = 0
 501 0000 00B5     		push	{lr}
 502              		.cfi_def_cfa_offset 4
 503              		.cfi_offset 14, -4
 504 0002 85B0     		sub	sp, sp, #20
 505              		.cfi_def_cfa_offset 24
 506 0004 0190     		str	r0, [sp, #4]
 507 0006 0091     		str	r1, [sp]
 508              		.loc 6 87 0
 509 0008 1B4B     		ldr	r3, .L41
 510 000a 1B68     		ldr	r3, [r3]
 511 000c 0393     		str	r3, [sp, #12]
 512              		.loc 6 88 0
 513 000e 1B4B     		ldr	r3, .L41+4
ARM GAS  C:\Users\PCHAUT~1\AppData\Local\Temp\ccmzKLV9.s 			page 10


 514 0010 9B69     		ldr	r3, [r3, #24]
 515 0012 0293     		str	r3, [sp, #8]
 516              		.loc 6 90 0
 517 0014 019B     		ldr	r3, [sp, #4]
 518 0016 002B     		cmp	r3, #0
 519 0018 02D1     		bne	.L37
 520              		.loc 6 90 0 is_stmt 0 discriminator 2
 521 001a 1948     		ldr	r0, .L41+8
 522 001c FFF7FEFF 		bl	chSysHalt
 523              	.L37:
 524              		.loc 6 92 0 is_stmt 1
 525 0020 FFF7FEFF 		bl	chSysLock
 526              		.loc 6 93 0
 527 0024 029B     		ldr	r3, [sp, #8]
 528 0026 009A     		ldr	r2, [sp]
 529 0028 9A63     		str	r2, [r3, #56]
 530              		.loc 6 94 0
 531 002a 019B     		ldr	r3, [sp, #4]
 532 002c 03F13002 		add	r2, r3, #48
 533 0030 029B     		ldr	r3, [sp, #8]
 534 0032 9A62     		str	r2, [r3, #40]
 535              		.loc 6 95 0
 536 0034 019B     		ldr	r3, [sp, #4]
 537 0036 3033     		adds	r3, r3, #48
 538 0038 1946     		mov	r1, r3
 539 003a 0298     		ldr	r0, [sp, #8]
 540 003c FFF7FEFF 		bl	queue_insert
 541              		.loc 6 96 0
 542 0040 019B     		ldr	r3, [sp, #4]
 543 0042 93F82030 		ldrb	r3, [r3, #32]	@ zero_extendqisi2
 544 0046 0E2B     		cmp	r3, #14
 545 0048 02D1     		bne	.L38
 546              		.loc 6 97 0
 547 004a 0198     		ldr	r0, [sp, #4]
 548 004c FFF7FEFF 		bl	chSchReadyI
 549              	.L38:
 550              		.loc 6 99 0
 551 0050 0C20     		movs	r0, #12
 552 0052 FFF7FEFF 		bl	chSchGoSleepS
 553              		.loc 6 100 0
 554 0056 029B     		ldr	r3, [sp, #8]
 555 0058 9B6A     		ldr	r3, [r3, #40]
 556 005a 0093     		str	r3, [sp]
 557              		.loc 6 101 0
 558 005c FFF7FEFF 		bl	chSysUnlock
 559              		.loc 6 103 0
 560 0060 009B     		ldr	r3, [sp]
 561              		.loc 6 104 0
 562 0062 1846     		mov	r0, r3
 563 0064 044B     		ldr	r3, .L41
 564 0066 039A     		ldr	r2, [sp, #12]
 565 0068 1B68     		ldr	r3, [r3]
 566 006a 9A42     		cmp	r2, r3
 567 006c 01D0     		beq	.L40
 568 006e FFF7FEFF 		bl	__stack_chk_fail
 569              	.L40:
 570 0072 05B0     		add	sp, sp, #20
ARM GAS  C:\Users\PCHAUT~1\AppData\Local\Temp\ccmzKLV9.s 			page 11


 571              		.cfi_def_cfa_offset 4
 572              		@ sp needed
 573 0074 5DF804FB 		ldr	pc, [sp], #4
 574              	.L42:
 575              		.align	2
 576              	.L41:
 577 0078 00000000 		.word	__stack_chk_guard
 578 007c 00000000 		.word	ch
 579 0080 00000000 		.word	__func__.7851
 580              		.cfi_endproc
 581              	.LFE219:
 582              		.size	chMsgSend, .-chMsgSend
 583              		.section	.text.chMsgWait,"ax",%progbits
 584              		.align	1
 585              		.p2align 4,,15
 586              		.global	chMsgWait
 587              		.syntax unified
 588              		.thumb
 589              		.thumb_func
 590              		.fpu fpv4-sp-d16
 591              		.type	chMsgWait, %function
 592              	chMsgWait:
 593              	.LFB220:
 594              		.loc 6 120 0
 595              		.cfi_startproc
 596              		@ args = 0, pretend = 0, frame = 8
 597              		@ frame_needed = 0, uses_anonymous_args = 0
 598 0000 00B5     		push	{lr}
 599              		.cfi_def_cfa_offset 4
 600              		.cfi_offset 14, -4
 601 0002 83B0     		sub	sp, sp, #12
 602              		.cfi_def_cfa_offset 16
 603              		.loc 6 120 0
 604 0004 154B     		ldr	r3, .L47
 605 0006 1B68     		ldr	r3, [r3]
 606 0008 0193     		str	r3, [sp, #4]
 607              		.loc 6 123 0
 608 000a FFF7FEFF 		bl	chSysLock
 609              		.loc 6 124 0
 610 000e 144B     		ldr	r3, .L47+4
 611 0010 9B69     		ldr	r3, [r3, #24]
 612 0012 1846     		mov	r0, r3
 613 0014 FFF7FEFF 		bl	chMsgIsPendingI
 614 0018 0346     		mov	r3, r0
 615 001a 83F00103 		eor	r3, r3, #1
 616 001e DBB2     		uxtb	r3, r3
 617 0020 002B     		cmp	r3, #0
 618 0022 02D0     		beq	.L44
 619              		.loc 6 125 0
 620 0024 0E20     		movs	r0, #14
 621 0026 FFF7FEFF 		bl	chSchGoSleepS
 622              	.L44:
 623              		.loc 6 127 0
 624 002a 0D4B     		ldr	r3, .L47+4
 625 002c 9B69     		ldr	r3, [r3, #24]
 626 002e 3033     		adds	r3, r3, #48
 627 0030 1846     		mov	r0, r3
ARM GAS  C:\Users\PCHAUT~1\AppData\Local\Temp\ccmzKLV9.s 			page 12


 628 0032 FFF7FEFF 		bl	queue_fifo_remove
 629 0036 0090     		str	r0, [sp]
 630              		.loc 6 128 0
 631 0038 009B     		ldr	r3, [sp]
 632 003a 0D22     		movs	r2, #13
 633 003c 83F82020 		strb	r2, [r3, #32]
 634              		.loc 6 129 0
 635 0040 FFF7FEFF 		bl	chSysUnlock
 636              		.loc 6 131 0
 637 0044 009B     		ldr	r3, [sp]
 638              		.loc 6 132 0
 639 0046 1846     		mov	r0, r3
 640 0048 044B     		ldr	r3, .L47
 641 004a 019A     		ldr	r2, [sp, #4]
 642 004c 1B68     		ldr	r3, [r3]
 643 004e 9A42     		cmp	r2, r3
 644 0050 01D0     		beq	.L46
 645 0052 FFF7FEFF 		bl	__stack_chk_fail
 646              	.L46:
 647 0056 03B0     		add	sp, sp, #12
 648              		.cfi_def_cfa_offset 4
 649              		@ sp needed
 650 0058 5DF804FB 		ldr	pc, [sp], #4
 651              	.L48:
 652              		.align	2
 653              	.L47:
 654 005c 00000000 		.word	__stack_chk_guard
 655 0060 00000000 		.word	ch
 656              		.cfi_endproc
 657              	.LFE220:
 658              		.size	chMsgWait, .-chMsgWait
 659              		.section	.text.chMsgRelease,"ax",%progbits
 660              		.align	1
 661              		.p2align 4,,15
 662              		.global	chMsgRelease
 663              		.syntax unified
 664              		.thumb
 665              		.thumb_func
 666              		.fpu fpv4-sp-d16
 667              		.type	chMsgRelease, %function
 668              	chMsgRelease:
 669              	.LFB221:
 670              		.loc 6 144 0
 671              		.cfi_startproc
 672              		@ args = 0, pretend = 0, frame = 16
 673              		@ frame_needed = 0, uses_anonymous_args = 0
 674 0000 00B5     		push	{lr}
 675              		.cfi_def_cfa_offset 4
 676              		.cfi_offset 14, -4
 677 0002 85B0     		sub	sp, sp, #20
 678              		.cfi_def_cfa_offset 24
 679 0004 0190     		str	r0, [sp, #4]
 680 0006 0091     		str	r1, [sp]
 681              		.loc 6 144 0
 682 0008 0E4B     		ldr	r3, .L52
 683 000a 1B68     		ldr	r3, [r3]
 684 000c 0393     		str	r3, [sp, #12]
ARM GAS  C:\Users\PCHAUT~1\AppData\Local\Temp\ccmzKLV9.s 			page 13


 685              		.loc 6 146 0
 686 000e FFF7FEFF 		bl	chSysLock
 687              		.loc 6 147 0
 688 0012 019B     		ldr	r3, [sp, #4]
 689 0014 93F82030 		ldrb	r3, [r3, #32]	@ zero_extendqisi2
 690 0018 0D2B     		cmp	r3, #13
 691 001a 02D0     		beq	.L50
 692              		.loc 6 147 0 is_stmt 0 discriminator 2
 693 001c 0A48     		ldr	r0, .L52+4
 694 001e FFF7FEFF 		bl	chSysHalt
 695              	.L50:
 696              		.loc 6 148 0 is_stmt 1
 697 0022 0099     		ldr	r1, [sp]
 698 0024 0198     		ldr	r0, [sp, #4]
 699 0026 FFF7FEFF 		bl	chMsgReleaseS
 700              		.loc 6 149 0
 701 002a FFF7FEFF 		bl	chSysUnlock
 702              		.loc 6 150 0
 703 002e 00BF     		nop
 704 0030 044B     		ldr	r3, .L52
 705 0032 039A     		ldr	r2, [sp, #12]
 706 0034 1B68     		ldr	r3, [r3]
 707 0036 9A42     		cmp	r2, r3
 708 0038 01D0     		beq	.L51
 709 003a FFF7FEFF 		bl	__stack_chk_fail
 710              	.L51:
 711 003e 05B0     		add	sp, sp, #20
 712              		.cfi_def_cfa_offset 4
 713              		@ sp needed
 714 0040 5DF804FB 		ldr	pc, [sp], #4
 715              	.L53:
 716              		.align	2
 717              	.L52:
 718 0044 00000000 		.word	__stack_chk_guard
 719 0048 00000000 		.word	__func__.7860
 720              		.cfi_endproc
 721              	.LFE221:
 722              		.size	chMsgRelease, .-chMsgRelease
 723              		.section	.rodata.__func__.7851,"a",%progbits
 724              		.align	2
 725              		.type	__func__.7851, %object
 726              		.size	__func__.7851, 10
 727              	__func__.7851:
 728 0000 63684D73 		.ascii	"chMsgSend\000"
 728      6753656E 
 728      6400
 729              		.section	.rodata.__func__.7153,"a",%progbits
 730              		.align	2
 731              		.type	__func__.7153, %object
 732              		.size	__func__.7153, 12
 733              	__func__.7153:
 734 0000 63685379 		.ascii	"chSysUnlock\000"
 734      73556E6C 
 734      6F636B00 
 735              		.section	.rodata.__func__.7860,"a",%progbits
 736              		.align	2
 737              		.type	__func__.7860, %object
ARM GAS  C:\Users\PCHAUT~1\AppData\Local\Temp\ccmzKLV9.s 			page 14


 738              		.size	__func__.7860, 13
 739              	__func__.7860:
 740 0000 63684D73 		.ascii	"chMsgRelease\000"
 740      6752656C 
 740      65617365 
 740      00
 741              		.text
 742              	.Letext0:
 743              		.file 7 "c:\\users\\pchautems\\documents\\robotiquetp\\eclipse_e-puck2\\tools\\gcc-arm-none-eabi-7
 744              		.file 8 "c:\\users\\pchautems\\documents\\robotiquetp\\eclipse_e-puck2\\tools\\gcc-arm-none-eabi-7
 745              		.file 9 "../lib/e-puck2_main-processor/ChibiOS//os/rt/ports/ARMCMx/compilers/GCC/chtypes.h"
 746              		.file 10 "../lib/e-puck2_main-processor/ChibiOS//os/rt/include/chsystypes.h"
 747              		.file 11 "../lib/e-puck2_main-processor/ChibiOS//os/ext/CMSIS/include/core_cm4.h"
 748              		.file 12 "../lib/e-puck2_main-processor/ChibiOS//os/ext/CMSIS/ST/system_stm32f4xx.h"
 749              		.file 13 "../lib/e-puck2_main-processor/ChibiOS//os/rt/ports/ARMCMx/chcore.h"
 750              		.file 14 "../lib/e-puck2_main-processor/ChibiOS//os/rt/include/chdebug.h"
 751              		.file 15 "../lib/e-puck2_main-processor/ChibiOS//os/rt/include/chtm.h"
 752              		.file 16 "../lib/e-puck2_main-processor/ChibiOS//os/rt/include/chstats.h"
 753              		.file 17 "../lib/e-puck2_main-processor/ChibiOS//os/rt/include/chsem.h"
 754              		.file 18 "../lib/e-puck2_main-processor/ChibiOS//os/rt/include/chmtx.h"
 755              		.file 19 "../lib/e-puck2_main-processor/ChibiOS//os/rt/include/chregistry.h"