ARM GAS  C:\Users\PCHAUT~1\AppData\Local\Temp\ccmzKLV9.s 			page 1


   1              		.cpu cortex-m4
   2              		.eabi_attribute 27, 1
   3              		.eabi_attribute 28, 1
   4              		.eabi_attribute 20, 1
   5              		.eabi_attribute 21, 1
   6              		.eabi_attribute 23, 3
   7              		.eabi_attribute 24, 1
   8              		.eabi_attribute 25, 1
   9              		.eabi_attribute 26, 1
  10              		.eabi_attribute 30, 6
  11              		.eabi_attribute 34, 1
  12              		.eabi_attribute 18, 4
  13              		.file	"chmsg.c"
  14              		.text
  15              	.Ltext0:
  16              		.cfi_sections	.debug_frame
  17              		.section	.text.port_lock,"ax",%progbits
  18              		.align	1
  19              		.p2align 4,,15
  20              		.syntax unified
  21              		.thumb
  22              		.thumb_func
  23              		.fpu fpv4-sp-d16
  24              		.type	port_lock, %function
  25              	port_lock:
  26              	.LFB116:
  27              		.file 1 "../lib/e-puck2_main-processor/ChibiOS//os/rt/ports/ARMCMx/chcore_v7m.h"
  28              		.loc 1 444 0
  29              		.cfi_startproc
  30              		@ args = 0, pretend = 0, frame = 8
  31              		@ frame_needed = 0, uses_anonymous_args = 0
  32 0000 00B5     		push	{lr}
  33              		.cfi_def_cfa_offset 4
  34              		.cfi_offset 14, -4
  35 0002 83B0     		sub	sp, sp, #12
  36              		.cfi_def_cfa_offset 16
  37              		.loc 1 444 0
  38 0004 094B     		ldr	r3, .L3
  39 0006 1B68     		ldr	r3, [r3]
  40 0008 0193     		str	r3, [sp, #4]
  41 000a 2023     		movs	r3, #32
  42 000c 0093     		str	r3, [sp]
  43              	.LBB6:
  44              	.LBB7:
  45              		.file 2 "../lib/e-puck2_main-processor/ChibiOS//os/ext/CMSIS/include/core_cmFunc.h"
  46              		.loc 2 546 0
  47 000e 009B     		ldr	r3, [sp]
  48              		.syntax unified
  49              	@ 546 "../lib/e-puck2_main-processor/ChibiOS//os/ext/CMSIS/include/core_cmFunc.h" 1
  50 0010 83F31188 		MSR basepri, r3
  51              	@ 0 "" 2
  52              		.thumb
  53              		.syntax unified
  54              	.LBE7:
  55              	.LBE6:
  56              		.loc 1 451 0
  57 0014 00BF     		nop
ARM GAS  C:\Users\PCHAUT~1\AppData\Local\Temp\ccmzKLV9.s 			page 2


  58 0016 054B     		ldr	r3, .L3
  59 0018 019A     		ldr	r2, [sp, #4]
  60 001a 1B68     		ldr	r3, [r3]
  61 001c 9A42     		cmp	r2, r3
  62 001e 01D0     		beq	.L2
  63 0020 FFF7FEFF 		bl	__stack_chk_fail
  64              	.L2:
  65 0024 03B0     		add	sp, sp, #12
  66              		.cfi_def_cfa_offset 4
  67              		@ sp needed
  68 0026 5DF804FB 		ldr	pc, [sp], #4
  69              	.L4:
  70 002a 00BF     		.align	2
  71              	.L3:
  72 002c 00000000 		.word	__stack_chk_guard
  73              		.cfi_endproc
  74              	.LFE116:
  75              		.size	port_lock, .-port_lock
  76              		.section	.text.port_unlock,"ax",%progbits
  77              		.align	1
  78              		.p2align 4,,15
  79              		.syntax unified
  80              		.thumb
  81              		.thumb_func
  82              		.fpu fpv4-sp-d16
  83              		.type	port_unlock, %function
  84              	port_unlock:
  85              	.LFB117:
  86              		.loc 1 458 0
  87              		.cfi_startproc
  88              		@ args = 0, pretend = 0, frame = 8
  89              		@ frame_needed = 0, uses_anonymous_args = 0
  90 0000 00B5     		push	{lr}
  91              		.cfi_def_cfa_offset 4
  92              		.cfi_offset 14, -4
  93 0002 83B0     		sub	sp, sp, #12
  94              		.cfi_def_cfa_offset 16
  95              		.loc 1 458 0
  96 0004 094B     		ldr	r3, .L7
  97 0006 1B68     		ldr	r3, [r3]
  98 0008 0193     		str	r3, [sp, #4]
  99 000a 0023     		movs	r3, #0
 100 000c 0093     		str	r3, [sp]
 101              	.LBB8:
 102              	.LBB9:
 103              		.loc 2 546 0
 104 000e 009B     		ldr	r3, [sp]
 105              		.syntax unified
 106              	@ 546 "../lib/e-puck2_main-processor/ChibiOS//os/ext/CMSIS/include/core_cmFunc.h" 1
 107 0010 83F31188 		MSR basepri, r3
 108              	@ 0 "" 2
 109              		.thumb
 110              		.syntax unified
 111              	.LBE9:
 112              	.LBE8:
 113              		.loc 1 465 0
 114 0014 00BF     		nop
ARM GAS  C:\Users\PCHAUT~1\AppData\Local\Temp\ccmzKLV9.s 			page 3


 115 0016 054B     		ldr	r3, .L7
 116 0018 019A     		ldr	r2, [sp, #4]
 117 001a 1B68     		ldr	r3, [r3]
 118 001c 9A42     		cmp	r2, r3
 119 001e 01D0     		beq	.L6
 120 0020 FFF7FEFF 		bl	__stack_chk_fail
 121              	.L6:
 122 0024 03B0     		add	sp, sp, #12
 123              		.cfi_def_cfa_offset 4
 124              		@ sp needed
 125 0026 5DF804FB 		ldr	pc, [sp], #4
 126              	.L8:
 127 002a 00BF     		.align	2
 128              	.L7:
 129 002c 00000000 		.word	__stack_chk_guard
 130              		.cfi_endproc
 131              	.LFE117:
 132              		.size	port_unlock, .-port_unlock
 133              		.section	.text.queue_insert,"ax",%progbits
 134              		.align	1
 135              		.p2align 4,,15
 136              		.syntax unified
 137              		.thumb
 138              		.thumb_func
 139              		.fpu fpv4-sp-d16
 140              		.type	queue_insert, %function
 141              	queue_insert:
 142              	.LFB134:
 143              		.file 3 "../lib/e-puck2_main-processor/ChibiOS//os/rt/include/chschd.h"
 144              		.loc 3 663 0
 145              		.cfi_startproc
 146              		@ args = 0, pretend = 0, frame = 16
 147              		@ frame_needed = 0, uses_anonymous_args = 0
 148 0000 00B5     		push	{lr}
 149              		.cfi_def_cfa_offset 4
 150              		.cfi_offset 14, -4
 151 0002 85B0     		sub	sp, sp, #20
 152              		.cfi_def_cfa_offset 24
 153 0004 0190     		str	r0, [sp, #4]
 154 0006 0091     		str	r1, [sp]
 155              		.loc 3 663 0
 156 0008 0D4B     		ldr	r3, .L11
 157 000a 1B68     		ldr	r3, [r3]
 158 000c 0393     		str	r3, [sp, #12]
 159              		.loc 3 665 0
 160 000e 019B     		ldr	r3, [sp, #4]
 161 0010 009A     		ldr	r2, [sp]
 162 0012 1A60     		str	r2, [r3]
 163              		.loc 3 666 0
 164 0014 009B     		ldr	r3, [sp]
 165 0016 5A68     		ldr	r2, [r3, #4]
 166 0018 019B     		ldr	r3, [sp, #4]
 167 001a 5A60     		str	r2, [r3, #4]
 168              		.loc 3 667 0
 169 001c 019B     		ldr	r3, [sp, #4]
 170 001e 5B68     		ldr	r3, [r3, #4]
 171 0020 019A     		ldr	r2, [sp, #4]
ARM GAS  C:\Users\PCHAUT~1\AppData\Local\Temp\ccmzKLV9.s 			page 4


 172 0022 1A60     		str	r2, [r3]
 173              		.loc 3 668 0
 174 0024 009B     		ldr	r3, [sp]
 175 0026 019A     		ldr	r2, [sp, #4]
 176 0028 5A60     		str	r2, [r3, #4]
 177              		.loc 3 669 0
 178 002a 00BF     		nop
 179 002c 044B     		ldr	r3, .L11
 180 002e 039A     		ldr	r2, [sp, #12]
 181 0030 1B68     		ldr	r3, [r3]
 182 0032 9A42     		cmp	r2, r3
 183 0034 01D0     		beq	.L10
 184 0036 FFF7FEFF 		bl	__stack_chk_fail
 185              	.L10:
 186 003a 05B0     		add	sp, sp, #20
 187              		.cfi_def_cfa_offset 4
 188              		@ sp needed
 189 003c 5DF804FB 		ldr	pc, [sp], #4
 190              	.L12:
 191              		.align	2
 192              	.L11:
 193 0040 00000000 		.word	__stack_chk_guard
 194              		.cfi_endproc
 195              	.LFE134:
 196              		.size	queue_insert, .-queue_insert
 197              		.section	.text.queue_fifo_remove,"ax",%progbits
 198              		.align	1
 199              		.p2align 4,,15
 200              		.syntax unified
 201              		.thumb
 202              		.thumb_func
 203              		.fpu fpv4-sp-d16
 204              		.type	queue_fifo_remove, %function
 205              	queue_fifo_remove:
 206              	.LFB135:
 207              		.loc 3 671 0
 208              		.cfi_startproc
 209              		@ args = 0, pretend = 0, frame = 16
 210              		@ frame_needed = 0, uses_anonymous_args = 0
 211 0000 00B5     		push	{lr}
 212              		.cfi_def_cfa_offset 4
 213              		.cfi_offset 14, -4
 214 0002 85B0     		sub	sp, sp, #20
 215              		.cfi_def_cfa_offset 24
 216 0004 0190     		str	r0, [sp, #4]
 217              		.loc 3 671 0
 218 0006 0D4B     		ldr	r3, .L16
 219 0008 1B68     		ldr	r3, [r3]
 220 000a 0393     		str	r3, [sp, #12]
 221              		.loc 3 672 0
 222 000c 019B     		ldr	r3, [sp, #4]
 223 000e 1B68     		ldr	r3, [r3]
 224 0010 0293     		str	r3, [sp, #8]
 225              		.loc 3 674 0
 226 0012 029B     		ldr	r3, [sp, #8]
 227 0014 1A68     		ldr	r2, [r3]
 228 0016 019B     		ldr	r3, [sp, #4]
ARM GAS  C:\Users\PCHAUT~1\AppData\Local\Temp\ccmzKLV9.s 			page 5


 229 0018 1A60     		str	r2, [r3]
 230              		.loc 3 675 0
 231 001a 019B     		ldr	r3, [sp, #4]
 232 001c 1B68     		ldr	r3, [r3]
 233 001e 019A     		ldr	r2, [sp, #4]
 234 0020 5A60     		str	r2, [r3, #4]
 235              		.loc 3 677 0
 236 0022 029B     		ldr	r3, [sp, #8]
 237              		.loc 3 678 0
 238 0024 1846     		mov	r0, r3
 239 0026 054B     		ldr	r3, .L16
 240 0028 039A     		ldr	r2, [sp, #12]
 241 002a 1B68     		ldr	r3, [r3]
 242 002c 9A42     		cmp	r2, r3
 243 002e 01D0     		beq	.L15
 244 0030 FFF7FEFF 		bl	__stack_chk_fail
 245              	.L15:
 246 0034 05B0     		add	sp, sp, #20
 247              		.cfi_def_cfa_offset 4
 248              		@ sp needed
 249 0036 5DF804FB 		ldr	pc, [sp], #4
 250              	.L17:
 251 003a 00BF     		.align	2
 252              	.L16:
 253 003c 00000000 		.word	__stack_chk_guard
 254              		.cfi_endproc
 255              	.LFE135:
 256              		.size	queue_fifo_remove, .-queue_fifo_remove
 257              		.section	.text.chSysLock,"ax",%progbits
 258              		.align	1
 259              		.p2align 4,,15
 260              		.syntax unified
 261              		.thumb
 262              		.thumb_func
 263              		.fpu fpv4-sp-d16
 264              		.type	chSysLock, %function
 265              	chSysLock:
 266              	.LFB145:
 267              		.file 4 "../lib/e-puck2_main-processor/ChibiOS//os/rt/include/chsys.h"
 268              		.loc 4 346 0
 269              		.cfi_startproc
 270              		@ args = 0, pretend = 0, frame = 8
 271              		@ frame_needed = 0, uses_anonymous_args = 0
 272 0000 00B5     		push	{lr}
 273              		.cfi_def_cfa_offset 4
 274              		.cfi_offset 14, -4
 275 0002 83B0     		sub	sp, sp, #12
 276              		.cfi_def_cfa_offset 16
 277              		.loc 4 346 0
 278 0004 094B     		ldr	r3, .L20
 279 0006 1B68     		ldr	r3, [r3]
 280 0008 0193     		str	r3, [sp, #4]
 281              		.loc 4 348 0
 282 000a FFF7FEFF 		bl	port_lock
 283              		.loc 4 349 0
 284 000e FFF7FEFF 		bl	_stats_start_measure_crit_thd
 285              		.loc 4 350 0
ARM GAS  C:\Users\PCHAUT~1\AppData\Local\Temp\ccmzKLV9.s 			page 6


 286 0012 FFF7FEFF 		bl	_dbg_check_lock
 287              		.loc 4 351 0
 288 0016 00BF     		nop
 289 0018 044B     		ldr	r3, .L20
 290 001a 019A     		ldr	r2, [sp, #4]
 291 001c 1B68     		ldr	r3, [r3]
 292 001e 9A42     		cmp	r2, r3
 293 0020 01D0     		beq	.L19
 294 0022 FFF7FEFF 		bl	__stack_chk_fail
 295              	.L19:
 296 0026 03B0     		add	sp, sp, #12
 297              		.cfi_def_cfa_offset 4
 298              		@ sp needed
 299 0028 5DF804FB 		ldr	pc, [sp], #4
 300              	.L21:
 301              		.align	2
 302              	.L20:
 303 002c 00000000 		.word	__stack_chk_guard
 304              		.cfi_endproc
 305              	.LFE145:
 306              		.size	chSysLock, .-chSysLock
 307              		.section	.text.chSysUnlock,"ax",%progbits
 308              		.align	1
 309              		.p2align 4,,15
 310              		.syntax unified
 311              		.thumb
 312              		.thumb_func
 313              		.fpu fpv4-sp-d16
 314              		.type	chSysUnlock, %function
 315              	chSysUnlock:
 316              	.LFB146:
 317              		.loc 4 358 0
 318              		.cfi_startproc
 319              		@ args = 0, pretend = 0, frame = 8
 320              		@ frame_needed = 0, uses_anonymous_args = 0
 321 0000 00B5     		push	{lr}
 322              		.cfi_def_cfa_offset 4
 323              		.cfi_offset 14, -4
 324 0002 83B0     		sub	sp, sp, #12
 325              		.cfi_def_cfa_offset 16
 326              		.loc 4 358 0
 327 0004 114B     		ldr	r3, .L25
 328 0006 1B68     		ldr	r3, [r3]
 329 0008 0193     		str	r3, [sp, #4]
 330              		.loc 4 360 0
 331 000a FFF7FEFF 		bl	_dbg_check_unlock
 332              		.loc 4 361 0
 333 000e FFF7FEFF 		bl	_stats_stop_measure_crit_thd
 334              		.loc 4 367 0
 335 0012 0F4B     		ldr	r3, .L25+4
 336 0014 1B68     		ldr	r3, [r3]
 337 0016 0E4A     		ldr	r2, .L25+4
 338 0018 9342     		cmp	r3, r2
 339 001a 0AD0     		beq	.L23
 340              		.loc 4 367 0 is_stmt 0 discriminator 2
 341 001c 0C4B     		ldr	r3, .L25+4
 342 001e 9B69     		ldr	r3, [r3, #24]
ARM GAS  C:\Users\PCHAUT~1\AppData\Local\Temp\ccmzKLV9.s 			page 7


 343 0020 9A68     		ldr	r2, [r3, #8]
 344 0022 0B4B     		ldr	r3, .L25+4
 345 0024 1B68     		ldr	r3, [r3]
 346 0026 9B68     		ldr	r3, [r3, #8]
 347 0028 9A42     		cmp	r2, r3
 348 002a 02D2     		bcs	.L23
 349              		.loc 4 367 0 discriminator 3
 350 002c 0948     		ldr	r0, .L25+8
 351 002e FFF7FEFF 		bl	chSysHalt
 352              	.L23:
 353              		.loc 4 371 0 is_stmt 1
 354 0032 FFF7FEFF 		bl	port_unlock
 355              		.loc 4 372 0
 356 0036 00BF     		nop
 357 0038 044B     		ldr	r3, .L25
 358 003a 019A     		ldr	r2, [sp, #4]
 359 003c 1B68     		ldr	r3, [r3]
 360 003e 9A42     		cmp	r2, r3
 361 0040 01D0     		beq	.L24
 362 0042 FFF7FEFF 		bl	__stack_chk_fail
 363              	.L24:
 364 0046 03B0     		add	sp, sp, #12
 365              		.cfi_def_cfa_offset 4
 366              		@ sp needed
 367 0048 5DF804FB 		ldr	pc, [sp], #4
 368              	.L26:
 369              		.align	2
 370              	.L25:
 371 004c 00000000 		.word	__stack_chk_guard
 372 0050 00000000 		.word	ch
 373 0054 00000000 		.word	__func__.7153
 374              		.cfi_endproc
 375              	.LFE146:
 376              		.size	chSysUnlock, .-chSysUnlock
 377              		.section	.text.chMsgIsPendingI,"ax",%progbits
 378              		.align	1
 379              		.p2align 4,,15
 380              		.syntax unified
 381              		.thumb
 382              		.thumb_func
 383              		.fpu fpv4-sp-d16
 384              		.type	chMsgIsPendingI, %function
 385              	chMsgIsPendingI:
 386              	.LFB200:
 387              		.file 5 "../lib/e-puck2_main-processor/ChibiOS//os/rt/include/chmsg.h"
 388              		.loc 5 79 0
 389              		.cfi_startproc
 390              		@ args = 0, pretend = 0, frame = 16
 391              		@ frame_needed = 0, uses_anonymous_args = 0
 392 0000 00B5     		push	{lr}
 393              		.cfi_def_cfa_offset 4
 394              		.cfi_offset 14, -4
 395 0002 85B0     		sub	sp, sp, #20
 396              		.cfi_def_cfa_offset 24
 397 0004 0190     		str	r0, [sp, #4]
 398              		.loc 5 79 0
 399 0006 0C4B     		ldr	r3, .L30
ARM GAS  C:\Users\PCHAUT~1\AppData\Local\Temp\ccmzKLV9.s 			page 8


 400 0008 1B68     		ldr	r3, [r3]
 401 000a 0393     		str	r3, [sp, #12]
 402              		.loc 5 81 0
 403 000c FFF7FEFF 		bl	chDbgCheckClassI
 404              		.loc 5 83 0
 405 0010 019B     		ldr	r3, [sp, #4]
 406 0012 1A6B     		ldr	r2, [r3, #48]
 407 0014 019B     		ldr	r3, [sp, #4]
 408 0016 3033     		adds	r3, r3, #48
 409 0018 9A42     		cmp	r2, r3
 410 001a 14BF     		ite	ne
 411 001c 0123     		movne	r3, #1
 412 001e 0023     		moveq	r3, #0
 413 0020 DBB2     		uxtb	r3, r3
 414              		.loc 5 84 0
 415 0022 1846     		mov	r0, r3
 416 0024 044B     		ldr	r3, .L30
 417 0026 039A     		ldr	r2, [sp, #12]
 418 0028 1B68     		ldr	r3, [r3]
 419 002a 9A42     		cmp	r2, r3
 420 002c 01D0     		beq	.L29
 421 002e FFF7FEFF 		bl	__stack_chk_fail
 422              	.L29:
 423 0032 05B0     		add	sp, sp, #20
 424              		.cfi_def_cfa_offset 4
 425              		@ sp needed
 426 0034 5DF804FB 		ldr	pc, [sp], #4
 427              	.L31:
 428              		.align	2
 429              	.L30:
 430 0038 00000000 		.word	__stack_chk_guard
 431              		.cfi_endproc
 432              	.LFE200:
 433              		.size	chMsgIsPendingI, .-chMsgIsPendingI
 434              		.section	.text.chMsgReleaseS,"ax",%progbits
 435              		.align	1
 436              		.p2align 4,,15
 437              		.syntax unified
 438              		.thumb
 439              		.thumb_func
 440              		.fpu fpv4-sp-d16
 441              		.type	chMsgReleaseS, %function
 442              	chMsgReleaseS:
 443              	.LFB202:
 444              		.loc 5 111 0
 445              		.cfi_startproc
 446              		@ args = 0, pretend = 0, frame = 16
 447              		@ frame_needed = 0, uses_anonymous_args = 0
 448 0000 00B5     		push	{lr}
 449              		.cfi_def_cfa_offset 4
 450              		.cfi_offset 14, -4
 451 0002 85B0     		sub	sp, sp, #20
 452              		.cfi_def_cfa_offset 24
 453 0004 0190     		str	r0, [sp, #4]
 454 0006 0091     		str	r1, [sp]
 455              		.loc 5 111 0
 456 0008 094B     		ldr	r3, .L34
ARM GAS  C:\Users\PCHAUT~1\AppData\Local\Temp\ccmzKLV9.s 			page 9


 457 000a 1B68     		ldr	r3, [r3]
 458 000c 0393     		str	r3, [sp, #12]
 459              		.loc 5 113 0
 460 000e FFF7FEFF 		bl	chDbgCheckClassS
 461              		.loc 5 115 0
 462 0012 0099     		ldr	r1, [sp]
 463 0014 0198     		ldr	r0, [sp, #4]
 464 0016 FFF7FEFF 		bl	chSchWakeupS
 465              		.loc 5 116 0
 466 001a 00BF     		nop
 467 001c 044B     		ldr	r3, .L34
 468 001e 039A     		ldr	r2, [sp, #12]
 469 0020 1B68     		ldr	r3, [r3]
 470 0022 9A42     		cmp	r2, r3
 471 0024 01D0     		beq	.L33
 472 0026 FFF7FEFF 		bl	__stack_chk_fail
 473              	.L33:
 474 002a 05B0     		add	sp, sp, #20
 475              		.cfi_def_cfa_offset 4
 476              		@ sp needed
 477 002c 5DF804FB 		ldr	pc, [sp], #4
 478              	.L35:
 479              		.align	2
 480              	.L34:
 481 0030 00000000 		.word	__stack_chk_guard
 482              		.cfi_endproc
 483              	.LFE202:
 484              		.size	chMsgReleaseS, .-chMsgReleaseS
 485              		.section	.text.chMsgSend,"ax",%progbits
 486              		.align	1
 487              		.p2align 4,,15
 488              		.global	chMsgSend
 489              		.syntax unified
 490              		.thumb
 491              		.thumb_func
 492              		.fpu fpv4-sp-d16
 493              		.type	chMsgSend, %function
 494              	chMsgSend:
 495              	.LFB219:
 496              		.file 6 "../lib/e-puck2_main-processor/ChibiOS//os/rt/src/chmsg.c"
 497              		.loc 6 87 0
 498              		.cfi_startproc
 499              		@ args = 0, pretend = 0, frame = 16
 500              		@ frame_needed = 0, uses_anonymous_args = 0
 501 0000 00B5     		push	{lr}
 502              		.cfi_def_cfa_offset 4
 503              		.cfi_offset 14, -4
 504 0002 85B0     		sub	sp, sp, #20
 505              		.cfi_def_cfa_offset 24
 506 0004 0190     		str	r0, [sp, #4]
 507 0006 0091     		str	r1, [sp]
 508              		.loc 6 87 0
 509 0008 1B4B     		ldr	r3, .L41
 510 000a 1B68     		ldr	r3, [r3]
 511 000c 0393     		str	r3, [sp, #12]
 512              		.loc 6 88 0
 513 000e 1B4B     		ldr	r3, .L41+4
ARM GAS  C:\Users\PCHAUT~1\AppData\Local\Temp\ccmzKLV9.s 			page 10


 514 0010 9B69     		ldr	r3, [r3, #24]
 515 0012 0293     		str	r3, [sp, #8]
 516              		.loc 6 90 0
 517 0014 019B     		ldr	r3, [sp, #4]
 518 0016 002B     		cmp	r3, #0
 519 0018 02D1     		bne	.L37
 520              		.loc 6 90 0 is_stmt 0 discriminator 2
 521 001a 1948     		ldr	r0, .L41+8
 522 001c FFF7FEFF 		bl	chSysHalt
 523              	.L37:
 524              		.loc 6 92 0 is_stmt 1
 525 0020 FFF7FEFF 		bl	chSysLock
 526              		.loc 6 93 0
 527 0024 029B     		ldr	r3, [sp, #8]
 528 0026 009A     		ldr	r2, [sp]
 529 0028 9A63     		str	r2, [r3, #56]
 530              		.loc 6 94 0
 531 002a 019B     		ldr	r3, [sp, #4]
 532 002c 03F13002 		add	r2, r3, #48
 533 0030 029B     		ldr	r3, [sp, #8]
 534 0032 9A62     		str	r2, [r3, #40]
 535              		.loc 6 95 0
 536 0034 019B     		ldr	r3, [sp, #4]
 537 0036 3033     		adds	r3, r3, #48
 538 0038 1946     		mov	r1, r3
 539 003a 0298     		ldr	r0, [sp, #8]
 540 003c FFF7FEFF 		bl	queue_insert
 541              		.loc 6 96 0
 542 0040 019B     		ldr	r3, [sp, #4]
 543 0042 93F82030 		ldrb	r3, [r3, #32]	@ zero_extendqisi2
 544 0046 0E2B     		cmp	r3, #14
 545 0048 02D1     		bne	.L38
 546              		.loc 6 97 0
 547 004a 0198     		ldr	r0, [sp, #4]
 548 004c FFF7FEFF 		bl	chSchReadyI
 549              	.L38:
 550              		.loc 6 99 0
 551 0050 0C20     		movs	r0, #12
 552 0052 FFF7FEFF 		bl	chSchGoSleepS
 553              		.loc 6 100 0
 554 0056 029B     		ldr	r3, [sp, #8]
 555 0058 9B6A     		ldr	r3, [r3, #40]
 556 005a 0093     		str	r3, [sp]
 557              		.loc 6 101 0
 558 005c FFF7FEFF 		bl	chSysUnlock
 559              		.loc 6 103 0
 560 0060 009B     		ldr	r3, [sp]
 561              		.loc 6 104 0
 562 0062 1846     		mov	r0, r3
 563 0064 044B     		ldr	r3, .L41
 564 0066 039A     		ldr	r2, [sp, #12]
 565 0068 1B68     		ldr	r3, [r3]
 566 006a 9A42     		cmp	r2, r3
 567 006c 01D0     		beq	.L40
 568 006e FFF7FEFF 		bl	__stack_chk_fail
 569              	.L40:
 570 0072 05B0     		add	sp, sp, #20
ARM GAS  C:\Users\PCHAUT~1\AppData\Local\Temp\ccmzKLV9.s 			page 11


 571              		.cfi_def_cfa_offset 4
 572              		@ sp needed
 573 0074 5DF804FB 		ldr	pc, [sp], #4
 574              	.L42:
 575              		.align	2
 576              	.L41:
 577 0078 00000000 		.word	__stack_chk_guard
 578 007c 00000000 		.word	ch
 579 0080 00000000 		.word	__func__.7851
 580              		.cfi_endproc
 581              	.LFE219:
 582              		.size	chMsgSend, .-chMsgSend
 583              		.section	.text.chMsgWait,"ax",%progbits
 584              		.align	1
 585              		.p2align 4,,15
 586              		.global	chMsgWait
 587              		.syntax unified
 588              		.thumb
 589              		.thumb_func
 590              		.fpu fpv4-sp-d16
 591              		.type	chMsgWait, %function
 592              	chMsgWait:
 593              	.LFB220:
 594              		.loc 6 120 0
 595              		.cfi_startproc
 596              		@ args = 0, pretend = 0, frame = 8
 597              		@ frame_needed = 0, uses_anonymous_args = 0
 598 0000 00B5     		push	{lr}
 599              		.cfi_def_cfa_offset 4
 600              		.cfi_offset 14, -4
 601 0002 83B0     		sub	sp, sp, #12
 602              		.cfi_def_cfa_offset 16
 603              		.loc 6 120 0
 604 0004 154B     		ldr	r3, .L47
 605 0006 1B68     		ldr	r3, [r3]
 606 0008 0193     		str	r3, [sp, #4]
 607              		.loc 6 123 0
 608 000a FFF7FEFF 		bl	chSysLock
 609              		.loc 6 124 0
 610 000e 144B     		ldr	r3, .L47+4
 611 0010 9B69     		ldr	r3, [r3, #24]
 612 0012 1846     		mov	r0, r3
 613 0014 FFF7FEFF 		bl	chMsgIsPendingI
 614 0018 0346     		mov	r3, r0
 615 001a 83F00103 		eor	r3, r3, #1
 616 001e DBB2     		uxtb	r3, r3
 617 0020 002B     		cmp	r3, #0
 618 0022 02D0     		beq	.L44
 619              		.loc 6 125 0
 620 0024 0E20     		movs	r0, #14
 621 0026 FFF7FEFF 		bl	chSchGoSleepS
 622              	.L44:
 623              		.loc 6 127 0
 624 002a 0D4B     		ldr	r3, .L47+4
 625 002c 9B69     		ldr	r3, [r3, #24]
 626 002e 3033     		adds	r3, r3, #48
 627 0030 1846     		mov	r0, r3
ARM GAS  C:\Users\PCHAUT~1\AppData\Local\Temp\ccmzKLV9.s 			page 12


 628 0032 FFF7FEFF 		bl	queue_fifo_remove
 629 0036 0090     		str	r0, [sp]
 630              		.loc 6 128 0
 631 0038 009B     		ldr	r3, [sp]
 632 003a 0D22     		movs	r2, #13
 633 003c 83F82020 		strb	r2, [r3, #32]
 634              		.loc 6 129 0
 635 0040 FFF7FEFF 		bl	chSysUnlock
 636              		.loc 6 131 0
 637 0044 009B     		ldr	r3, [sp]
 638              		.loc 6 132 0
 639 0046 1846     		mov	r0, r3
 640 0048 044B     		ldr	r3, .L47
 641 004a 019A     		ldr	r2, [sp, #4]
 642 004c 1B68     		ldr	r3, [r3]
 643 004e 9A42     		cmp	r2, r3
 644 0050 01D0     		beq	.L46
 645 0052 FFF7FEFF 		bl	__stack_chk_fail
 646              	.L46:
 647 0056 03B0     		add	sp, sp, #12
 648              		.cfi_def_cfa_offset 4
 649              		@ sp needed
 650 0058 5DF804FB 		ldr	pc, [sp], #4
 651              	.L48:
 652              		.align	2
 653              	.L47:
 654 005c 00000000 		.word	__stack_chk_guard
 655 0060 00000000 		.word	ch
 656              		.cfi_endproc
 657              	.LFE220:
 658              		.size	chMsgWait, .-chMsgWait
 659              		.section	.text.chMsgRelease,"ax",%progbits
 660              		.align	1
 661              		.p2align 4,,15
 662              		.global	chMsgRelease
 663              		.syntax unified
 664              		.thumb
 665              		.thumb_func
 666              		.fpu fpv4-sp-d16
 667              		.type	chMsgRelease, %function
 668              	chMsgRelease:
 669              	.LFB221:
 670              		.loc 6 144 0
 671              		.cfi_startproc
 672              		@ args = 0, pretend = 0, frame = 16
 673              		@ frame_needed = 0, uses_anonymous_args = 0
 674 0000 00B5     		push	{lr}
 675              		.cfi_def_cfa_offset 4
 676              		.cfi_offset 14, -4
 677 0002 85B0     		sub	sp, sp, #20
 678              		.cfi_def_cfa_offset 24
 679 0004 0190     		str	r0, [sp, #4]
 680 0006 0091     		str	r1, [sp]
 681              		.loc 6 144 0
 682 0008 0E4B     		ldr	r3, .L52
 683 000a 1B68     		ldr	r3, [r3]
 684 000c 0393     		str	r3, [sp, #12]
ARM GAS  C:\Users\PCHAUT~1\AppData\Local\Temp\ccmzKLV9.s 			page 13


 685              		.loc 6 146 0
 686 000e FFF7FEFF 		bl	chSysLock
 687              		.loc 6 147 0
 688 0012 019B     		ldr	r3, [sp, #4]
 689 0014 93F82030 		ldrb	r3, [r3, #32]	@ zero_extendqisi2
 690 0018 0D2B     		cmp	r3, #13
 691 001a 02D0     		beq	.L50
 692              		.loc 6 147 0 is_stmt 0 discriminator 2
 693 001c 0A48     		ldr	r0, .L52+4
 694 001e FFF7FEFF 		bl	chSysHalt
 695              	.L50:
 696              		.loc 6 148 0 is_stmt 1
 697 0022 0099     		ldr	r1, [sp]
 698 0024 0198     		ldr	r0, [sp, #4]
 699 0026 FFF7FEFF 		bl	chMsgReleaseS
 700              		.loc 6 149 0
 701 002a FFF7FEFF 		bl	chSysUnlock
 702              		.loc 6 150 0
 703 002e 00BF     		nop
 704 0030 044B     		ldr	r3, .L52
 705 0032 039A     		ldr	r2, [sp, #12]
 706 0034 1B68     		ldr	r3, [r3]
 707 0036 9A42     		cmp	r2, r3
 708 0038 01D0     		beq	.L51
 709 003a FFF7FEFF 		bl	__stack_chk_fail
 710              	.L51:
 711 003e 05B0     		add	sp, sp, #20
 712              		.cfi_def_cfa_offset 4
 713              		@ sp needed
 714 0040 5DF804FB 		ldr	pc, [sp], #4
 715              	.L53:
 716              		.align	2
 717              	.L52:
 718 0044 00000000 		.word	__stack_chk_guard
 719 0048 00000000 		.word	__func__.7860
 720              		.cfi_endproc
 721              	.LFE221:
 722              		.size	chMsgRelease, .-chMsgRelease
 723              		.section	.rodata.__func__.7851,"a",%progbits
 724              		.align	2
 725              		.type	__func__.7851, %object
 726              		.size	__func__.7851, 10
 727              	__func__.7851:
 728 0000 63684D73 		.ascii	"chMsgSend\000"
 728      6753656E 
 728      6400
 729              		.section	.rodata.__func__.7153,"a",%progbits
 730              		.align	2
 731              		.type	__func__.7153, %object
 732              		.size	__func__.7153, 12
 733              	__func__.7153:
 734 0000 63685379 		.ascii	"chSysUnlock\000"
 734      73556E6C 
 734      6F636B00 
 735              		.section	.rodata.__func__.7860,"a",%progbits
 736              		.align	2
 737              		.type	__func__.7860, %object
ARM GAS  C:\Users\PCHAUT~1\AppData\Local\Temp\ccmzKLV9.s 			page 14


 738              		.size	__func__.7860, 13
 739              	__func__.7860:
 740 0000 63684D73 		.ascii	"chMsgRelease\000"
 740      6752656C 
 740      65617365 
 740      00
 741              		.text
 742              	.Letext0:
 743              		.file 7 "c:\\users\\pchautems\\documents\\robotiquetp\\eclipse_e-puck2\\tools\\gcc-arm-none-eabi-7
 744              		.file 8 "c:\\users\\pchautems\\documents\\robotiquetp\\eclipse_e-puck2\\tools\\gcc-arm-none-eabi-7
 745              		.file 9 "../lib/e-puck2_main-processor/ChibiOS//os/rt/ports/ARMCMx/compilers/GCC/chtypes.h"
 746              		.file 10 "../lib/e-puck2_main-processor/ChibiOS//os/rt/include/chsystypes.h"
 747              		.file 11 "../lib/e-puck2_main-processor/ChibiOS//os/ext/CMSIS/include/core_cm4.h"
 748              		.file 12 "../lib/e-puck2_main-processor/ChibiOS//os/ext/CMSIS/ST/system_stm32f4xx.h"
 749              		.file 13 "../lib/e-puck2_main-processor/ChibiOS//os/rt/ports/ARMCMx/chcore.h"
 750              		.file 14 "../lib/e-puck2_main-processor/ChibiOS//os/rt/include/chdebug.h"
 751              		.file 15 "../lib/e-puck2_main-processor/ChibiOS//os/rt/include/chtm.h"
 752              		.file 16 "../lib/e-puck2_main-processor/ChibiOS//os/rt/include/chstats.h"
 753              		.file 17 "../lib/e-puck2_main-processor/ChibiOS//os/rt/include/chsem.h"
 754              		.file 18 "../lib/e-puck2_main-processor/ChibiOS//os/rt/include/chmtx.h"
 755              		.file 19 "../lib/e-puck2_main-processor/ChibiOS//os/rt/include/chregistry.h"
 756              		.section	.debug_info,"",%progbits
 757              	.Ldebug_info0:
 758 0000 600C0000 		.4byte	0xc60
 759 0004 0400     		.2byte	0x4
 760 0006 00000000 		.4byte	.Ldebug_abbrev0
 761 000a 04       		.byte	0x4
 762 000b 01       		.uleb128 0x1
 763 000c DE010000 		.4byte	.LASF167
 764 0010 0C       		.byte	0xc
 765 0011 A3000000 		.4byte	.LASF168
 766 0015 78060000 		.4byte	.LASF169
 767 0019 00000000 		.4byte	.Ldebug_ranges0+0
 768 001d 00000000 		.4byte	0
 769 0021 00000000 		.4byte	.Ldebug_line0
 770 0025 02       		.uleb128 0x2
 771 0026 04       		.byte	0x4
 772 0027 05       		.byte	0x5
 773 0028 696E7400 		.ascii	"int\000"
 774 002c 03       		.uleb128 0x3
 775 002d 04       		.byte	0x4
 776 002e 07       		.byte	0x7
 777 002f D3030000 		.4byte	.LASF0
 778 0033 03       		.uleb128 0x3
 779 0034 08       		.byte	0x8
 780 0035 05       		.byte	0x5
 781 0036 67010000 		.4byte	.LASF1
 782 003a 03       		.uleb128 0x3
 783 003b 08       		.byte	0x8
 784 003c 04       		.byte	0x4
 785 003d 14050000 		.4byte	.LASF2
 786 0041 03       		.uleb128 0x3
 787 0042 01       		.byte	0x1
 788 0043 06       		.byte	0x6
 789 0044 75010000 		.4byte	.LASF3
 790 0048 04       		.uleb128 0x4
 791 0049 4A000000 		.4byte	.LASF6
ARM GAS  C:\Users\PCHAUT~1\AppData\Local\Temp\ccmzKLV9.s 			page 15


 792 004d 07       		.byte	0x7
 793 004e 2B       		.byte	0x2b
 794 004f 53000000 		.4byte	0x53
 795 0053 03       		.uleb128 0x3
 796 0054 01       		.byte	0x1
 797 0055 08       		.byte	0x8
 798 0056 F5050000 		.4byte	.LASF4
 799 005a 03       		.uleb128 0x3
 800 005b 02       		.byte	0x2
 801 005c 05       		.byte	0x5
 802 005d 0D060000 		.4byte	.LASF5
 803 0061 04       		.uleb128 0x4
 804 0062 4C070000 		.4byte	.LASF7
 805 0066 07       		.byte	0x7
 806 0067 39       		.byte	0x39
 807 0068 6C000000 		.4byte	0x6c
 808 006c 03       		.uleb128 0x3
 809 006d 02       		.byte	0x2
 810 006e 07       		.byte	0x7
 811 006f 38040000 		.4byte	.LASF8
 812 0073 04       		.uleb128 0x4
 813 0074 B3040000 		.4byte	.LASF9
 814 0078 07       		.byte	0x7
 815 0079 4D       		.byte	0x4d
 816 007a 7E000000 		.4byte	0x7e
 817 007e 03       		.uleb128 0x3
 818 007f 04       		.byte	0x4
 819 0080 05       		.byte	0x5
 820 0081 D5010000 		.4byte	.LASF10
 821 0085 04       		.uleb128 0x4
 822 0086 95070000 		.4byte	.LASF11
 823 008a 07       		.byte	0x7
 824 008b 4F       		.byte	0x4f
 825 008c 90000000 		.4byte	0x90
 826 0090 03       		.uleb128 0x3
 827 0091 04       		.byte	0x4
 828 0092 07       		.byte	0x7
 829 0093 2E070000 		.4byte	.LASF12
 830 0097 04       		.uleb128 0x4
 831 0098 8C050000 		.4byte	.LASF13
 832 009c 07       		.byte	0x7
 833 009d 69       		.byte	0x69
 834 009e A2000000 		.4byte	0xa2
 835 00a2 03       		.uleb128 0x3
 836 00a3 08       		.byte	0x8
 837 00a4 07       		.byte	0x7
 838 00a5 DC000000 		.4byte	.LASF14
 839 00a9 04       		.uleb128 0x4
 840 00aa 18080000 		.4byte	.LASF15
 841 00ae 08       		.byte	0x8
 842 00af 18       		.byte	0x18
 843 00b0 48000000 		.4byte	0x48
 844 00b4 04       		.uleb128 0x4
 845 00b5 E8030000 		.4byte	.LASF16
 846 00b9 08       		.byte	0x8
 847 00ba 24       		.byte	0x24
 848 00bb 61000000 		.4byte	0x61
ARM GAS  C:\Users\PCHAUT~1\AppData\Local\Temp\ccmzKLV9.s 			page 16


 849 00bf 04       		.uleb128 0x4
 850 00c0 ED050000 		.4byte	.LASF17
 851 00c4 08       		.byte	0x8
 852 00c5 2C       		.byte	0x2c
 853 00c6 73000000 		.4byte	0x73
 854 00ca 05       		.uleb128 0x5
 855 00cb BF000000 		.4byte	0xbf
 856 00cf 04       		.uleb128 0x4
 857 00d0 F9060000 		.4byte	.LASF18
 858 00d4 08       		.byte	0x8
 859 00d5 30       		.byte	0x30
 860 00d6 85000000 		.4byte	0x85
 861 00da 04       		.uleb128 0x4
 862 00db 34000000 		.4byte	.LASF19
 863 00df 08       		.byte	0x8
 864 00e0 3C       		.byte	0x3c
 865 00e1 97000000 		.4byte	0x97
 866 00e5 04       		.uleb128 0x4
 867 00e6 F5040000 		.4byte	.LASF20
 868 00ea 09       		.byte	0x9
 869 00eb 45       		.byte	0x45
 870 00ec CF000000 		.4byte	0xcf
 871 00f0 04       		.uleb128 0x4
 872 00f1 4A010000 		.4byte	.LASF21
 873 00f5 09       		.byte	0x9
 874 00f6 46       		.byte	0x46
 875 00f7 DA000000 		.4byte	0xda
 876 00fb 04       		.uleb128 0x4
 877 00fc 3E060000 		.4byte	.LASF22
 878 0100 09       		.byte	0x9
 879 0101 48       		.byte	0x48
 880 0102 A9000000 		.4byte	0xa9
 881 0106 04       		.uleb128 0x4
 882 0107 2C030000 		.4byte	.LASF23
 883 010b 09       		.byte	0x9
 884 010c 49       		.byte	0x49
 885 010d A9000000 		.4byte	0xa9
 886 0111 04       		.uleb128 0x4
 887 0112 A2050000 		.4byte	.LASF24
 888 0116 09       		.byte	0x9
 889 0117 4A       		.byte	0x4a
 890 0118 A9000000 		.4byte	0xa9
 891 011c 04       		.uleb128 0x4
 892 011d C1010000 		.4byte	.LASF25
 893 0121 09       		.byte	0x9
 894 0122 4B       		.byte	0x4b
 895 0123 A9000000 		.4byte	0xa9
 896 0127 04       		.uleb128 0x4
 897 0128 D6050000 		.4byte	.LASF26
 898 012c 09       		.byte	0x9
 899 012d 4C       		.byte	0x4c
 900 012e CF000000 		.4byte	0xcf
 901 0132 04       		.uleb128 0x4
 902 0133 64040000 		.4byte	.LASF27
 903 0137 09       		.byte	0x9
 904 0138 4D       		.byte	0x4d
 905 0139 BF000000 		.4byte	0xbf
ARM GAS  C:\Users\PCHAUT~1\AppData\Local\Temp\ccmzKLV9.s 			page 17


 906 013d 04       		.uleb128 0x4
 907 013e A7040000 		.4byte	.LASF28
 908 0142 09       		.byte	0x9
 909 0143 4F       		.byte	0x4f
 910 0144 CF000000 		.4byte	0xcf
 911 0148 04       		.uleb128 0x4
 912 0149 C2030000 		.4byte	.LASF29
 913 014d 09       		.byte	0x9
 914 014e 51       		.byte	0x51
 915 014f BF000000 		.4byte	0xbf
 916 0153 04       		.uleb128 0x4
 917 0154 6F040000 		.4byte	.LASF30
 918 0158 09       		.byte	0x9
 919 0159 52       		.byte	0x52
 920 015a CF000000 		.4byte	0xcf
 921 015e 04       		.uleb128 0x4
 922 015f 77070000 		.4byte	.LASF31
 923 0163 0A       		.byte	0xa
 924 0164 33       		.byte	0x33
 925 0165 CF000000 		.4byte	0xcf
 926 0169 05       		.uleb128 0x5
 927 016a 5E010000 		.4byte	0x15e
 928 016e 04       		.uleb128 0x4
 929 016f 57070000 		.4byte	.LASF32
 930 0173 0A       		.byte	0xa
 931 0174 3F       		.byte	0x3f
 932 0175 79010000 		.4byte	0x179
 933 0179 06       		.uleb128 0x6
 934 017a 5A040000 		.4byte	.LASF56
 935 017e 68       		.byte	0x68
 936 017f 03       		.byte	0x3
 937 0180 C2       		.byte	0xc2
 938 0181 97020000 		.4byte	0x297
 939 0185 07       		.uleb128 0x7
 940 0186 37060000 		.4byte	.LASF33
 941 018a 03       		.byte	0x3
 942 018b C3       		.byte	0xc3
 943 018c A2020000 		.4byte	0x2a2
 944 0190 00       		.byte	0
 945 0191 07       		.uleb128 0x7
 946 0192 CF050000 		.4byte	.LASF34
 947 0196 03       		.byte	0x3
 948 0197 C5       		.byte	0xc5
 949 0198 A2020000 		.4byte	0x2a2
 950 019c 04       		.byte	0x4
 951 019d 07       		.uleb128 0x7
 952 019e 53010000 		.4byte	.LASF35
 953 01a2 03       		.byte	0x3
 954 01a3 C7       		.byte	0xc7
 955 01a4 27010000 		.4byte	0x127
 956 01a8 08       		.byte	0x8
 957 01a9 07       		.uleb128 0x7
 958 01aa 5C050000 		.4byte	.LASF36
 959 01ae 03       		.byte	0x3
 960 01af C8       		.byte	0xc8
 961 01b0 1B050000 		.4byte	0x51b
 962 01b4 0C       		.byte	0xc
ARM GAS  C:\Users\PCHAUT~1\AppData\Local\Temp\ccmzKLV9.s 			page 18


 963 01b5 07       		.uleb128 0x7
 964 01b6 55030000 		.4byte	.LASF37
 965 01ba 03       		.byte	0x3
 966 01bb CA       		.byte	0xca
 967 01bc A2020000 		.4byte	0x2a2
 968 01c0 10       		.byte	0x10
 969 01c1 07       		.uleb128 0x7
 970 01c2 4E050000 		.4byte	.LASF38
 971 01c6 03       		.byte	0x3
 972 01c7 CB       		.byte	0xcb
 973 01c8 A2020000 		.4byte	0x2a2
 974 01cc 14       		.byte	0x14
 975 01cd 07       		.uleb128 0x7
 976 01ce 47080000 		.4byte	.LASF39
 977 01d2 03       		.byte	0x3
 978 01d3 D2       		.byte	0xd2
 979 01d4 91080000 		.4byte	0x891
 980 01d8 18       		.byte	0x18
 981 01d9 07       		.uleb128 0x7
 982 01da C8030000 		.4byte	.LASF40
 983 01de 03       		.byte	0x3
 984 01df D8       		.byte	0xd8
 985 01e0 A8080000 		.4byte	0x8a8
 986 01e4 1C       		.byte	0x1c
 987 01e5 07       		.uleb128 0x7
 988 01e6 17060000 		.4byte	.LASF41
 989 01ea 03       		.byte	0x3
 990 01eb DD       		.byte	0xdd
 991 01ec 06010000 		.4byte	0x106
 992 01f0 20       		.byte	0x20
 993 01f1 07       		.uleb128 0x7
 994 01f2 55060000 		.4byte	.LASF42
 995 01f6 03       		.byte	0x3
 996 01f7 E1       		.byte	0xe1
 997 01f8 FB000000 		.4byte	0xfb
 998 01fc 21       		.byte	0x21
 999 01fd 07       		.uleb128 0x7
 1000 01fe FA070000 		.4byte	.LASF43
 1001 0202 03       		.byte	0x3
 1002 0203 E6       		.byte	0xe6
 1003 0204 11010000 		.4byte	0x111
 1004 0208 22       		.byte	0x22
 1005 0209 07       		.uleb128 0x7
 1006 020a 1F060000 		.4byte	.LASF44
 1007 020e 03       		.byte	0x3
 1008 020f EC       		.byte	0xec
 1009 0210 1C010000 		.4byte	0x11c
 1010 0214 23       		.byte	0x23
 1011 0215 07       		.uleb128 0x7
 1012 0216 01040000 		.4byte	.LASF45
 1013 021a 03       		.byte	0x3
 1014 021b F3       		.byte	0xf3
 1015 021c 69010000 		.4byte	0x169
 1016 0220 24       		.byte	0x24
 1017 0221 08       		.uleb128 0x8
 1018 0222 705F7500 		.ascii	"p_u\000"
 1019 0226 03       		.byte	0x3
ARM GAS  C:\Users\PCHAUT~1\AppData\Local\Temp\ccmzKLV9.s 			page 19


 1020 0227 3101     		.2byte	0x131
 1021 0229 C0070000 		.4byte	0x7c0
 1022 022d 28       		.byte	0x28
 1023 022e 09       		.uleb128 0x9
 1024 022f EB040000 		.4byte	.LASF46
 1025 0233 03       		.byte	0x3
 1026 0234 3601     		.2byte	0x136
 1027 0236 A8020000 		.4byte	0x2a8
 1028 023a 2C       		.byte	0x2c
 1029 023b 09       		.uleb128 0x9
 1030 023c 18040000 		.4byte	.LASF47
 1031 0240 03       		.byte	0x3
 1032 0241 3C01     		.2byte	0x13c
 1033 0243 CC020000 		.4byte	0x2cc
 1034 0247 30       		.byte	0x30
 1035 0248 09       		.uleb128 0x9
 1036 0249 C7070000 		.4byte	.LASF48
 1037 024d 03       		.byte	0x3
 1038 024e 4001     		.2byte	0x140
 1039 0250 32010000 		.4byte	0x132
 1040 0254 38       		.byte	0x38
 1041 0255 09       		.uleb128 0x9
 1042 0256 EE060000 		.4byte	.LASF49
 1043 025a 03       		.byte	0x3
 1044 025b 4601     		.2byte	0x146
 1045 025d 3D010000 		.4byte	0x13d
 1046 0261 3C       		.byte	0x3c
 1047 0262 09       		.uleb128 0x9
 1048 0263 03060000 		.4byte	.LASF50
 1049 0267 03       		.byte	0x3
 1050 0268 4D01     		.2byte	0x14d
 1051 026a 8B080000 		.4byte	0x88b
 1052 026e 40       		.byte	0x40
 1053 026f 09       		.uleb128 0x9
 1054 0270 81070000 		.4byte	.LASF51
 1055 0274 03       		.byte	0x3
 1056 0275 5101     		.2byte	0x151
 1057 0277 27010000 		.4byte	0x127
 1058 027b 44       		.byte	0x44
 1059 027c 09       		.uleb128 0x9
 1060 027d 9E010000 		.4byte	.LASF52
 1061 0281 03       		.byte	0x3
 1062 0282 5801     		.2byte	0x158
 1063 0284 7F030000 		.4byte	0x37f
 1064 0288 48       		.byte	0x48
 1065 0289 09       		.uleb128 0x9
 1066 028a 66060000 		.4byte	.LASF53
 1067 028e 03       		.byte	0x3
 1068 028f 5E01     		.2byte	0x15e
 1069 0291 71070000 		.4byte	0x771
 1070 0295 50       		.byte	0x50
 1071 0296 00       		.byte	0
 1072 0297 04       		.uleb128 0x4
 1073 0298 20080000 		.4byte	.LASF54
 1074 029c 0A       		.byte	0xa
 1075 029d 44       		.byte	0x44
 1076 029e A2020000 		.4byte	0x2a2
ARM GAS  C:\Users\PCHAUT~1\AppData\Local\Temp\ccmzKLV9.s 			page 20


 1077 02a2 0A       		.uleb128 0xa
 1078 02a3 04       		.byte	0x4
 1079 02a4 6E010000 		.4byte	0x16e
 1080 02a8 04       		.uleb128 0x4
 1081 02a9 C8040000 		.4byte	.LASF55
 1082 02ad 0A       		.byte	0xa
 1083 02ae 49       		.byte	0x49
 1084 02af B3020000 		.4byte	0x2b3
 1085 02b3 06       		.uleb128 0x6
 1086 02b4 16070000 		.4byte	.LASF57
 1087 02b8 04       		.byte	0x4
 1088 02b9 03       		.byte	0x3
 1089 02ba B0       		.byte	0xb0
 1090 02bb CC020000 		.4byte	0x2cc
 1091 02bf 07       		.uleb128 0x7
 1092 02c0 37060000 		.4byte	.LASF33
 1093 02c4 03       		.byte	0x3
 1094 02c5 B1       		.byte	0xb1
 1095 02c6 A2020000 		.4byte	0x2a2
 1096 02ca 00       		.byte	0
 1097 02cb 00       		.byte	0
 1098 02cc 04       		.uleb128 0x4
 1099 02cd B3060000 		.4byte	.LASF58
 1100 02d1 0A       		.byte	0xa
 1101 02d2 50       		.byte	0x50
 1102 02d3 D7020000 		.4byte	0x2d7
 1103 02d7 06       		.uleb128 0x6
 1104 02d8 60000000 		.4byte	.LASF59
 1105 02dc 08       		.byte	0x8
 1106 02dd 03       		.byte	0x3
 1107 02de B7       		.byte	0xb7
 1108 02df FC020000 		.4byte	0x2fc
 1109 02e3 07       		.uleb128 0x7
 1110 02e4 37060000 		.4byte	.LASF33
 1111 02e8 03       		.byte	0x3
 1112 02e9 B8       		.byte	0xb8
 1113 02ea A2020000 		.4byte	0x2a2
 1114 02ee 00       		.byte	0
 1115 02ef 07       		.uleb128 0x7
 1116 02f0 CF050000 		.4byte	.LASF34
 1117 02f4 03       		.byte	0x3
 1118 02f5 B9       		.byte	0xb9
 1119 02f6 A2020000 		.4byte	0x2a2
 1120 02fa 04       		.byte	0x4
 1121 02fb 00       		.byte	0
 1122 02fc 04       		.uleb128 0x4
 1123 02fd 0D000000 		.4byte	.LASF60
 1124 0301 0A       		.byte	0xa
 1125 0302 57       		.byte	0x57
 1126 0303 07030000 		.4byte	0x307
 1127 0307 0B       		.uleb128 0xb
 1128 0308 99040000 		.4byte	.LASF61
 1129 030c 1C       		.byte	0x1c
 1130 030d 03       		.byte	0x3
 1131 030e 9001     		.2byte	0x190
 1132 0310 63030000 		.4byte	0x363
 1133 0314 09       		.uleb128 0x9
ARM GAS  C:\Users\PCHAUT~1\AppData\Local\Temp\ccmzKLV9.s 			page 21


 1134 0315 0E070000 		.4byte	.LASF62
 1135 0319 03       		.byte	0x3
 1136 031a 9101     		.2byte	0x191
 1137 031c CC020000 		.4byte	0x2cc
 1138 0320 00       		.byte	0
 1139 0321 09       		.uleb128 0x9
 1140 0322 29060000 		.4byte	.LASF63
 1141 0326 03       		.byte	0x3
 1142 0327 9201     		.2byte	0x192
 1143 0329 27010000 		.4byte	0x127
 1144 032d 08       		.byte	0x8
 1145 032e 09       		.uleb128 0x9
 1146 032f 56050000 		.4byte	.LASF64
 1147 0333 03       		.byte	0x3
 1148 0334 9401     		.2byte	0x194
 1149 0336 1B050000 		.4byte	0x51b
 1150 033a 0C       		.byte	0xc
 1151 033b 09       		.uleb128 0x9
 1152 033c 6D030000 		.4byte	.LASF65
 1153 0340 03       		.byte	0x3
 1154 0341 9701     		.2byte	0x197
 1155 0343 A2020000 		.4byte	0x2a2
 1156 0347 10       		.byte	0x10
 1157 0348 09       		.uleb128 0x9
 1158 0349 84050000 		.4byte	.LASF66
 1159 034d 03       		.byte	0x3
 1160 034e 9801     		.2byte	0x198
 1161 0350 A2020000 		.4byte	0x2a2
 1162 0354 14       		.byte	0x14
 1163 0355 09       		.uleb128 0x9
 1164 0356 7A050000 		.4byte	.LASF67
 1165 035a 03       		.byte	0x3
 1166 035b 9B01     		.2byte	0x19b
 1167 035d A2020000 		.4byte	0x2a2
 1168 0361 18       		.byte	0x18
 1169 0362 00       		.byte	0
 1170 0363 04       		.uleb128 0x4
 1171 0364 8C070000 		.4byte	.LASF68
 1172 0368 0A       		.byte	0xa
 1173 0369 5C       		.byte	0x5c
 1174 036a 6E030000 		.4byte	0x36e
 1175 036e 0A       		.uleb128 0xa
 1176 036f 04       		.byte	0x4
 1177 0370 74030000 		.4byte	0x374
 1178 0374 0C       		.uleb128 0xc
 1179 0375 7F030000 		.4byte	0x37f
 1180 0379 0D       		.uleb128 0xd
 1181 037a 7F030000 		.4byte	0x37f
 1182 037e 00       		.byte	0
 1183 037f 0E       		.uleb128 0xe
 1184 0380 04       		.byte	0x4
 1185 0381 04       		.uleb128 0x4
 1186 0382 BF050000 		.4byte	.LASF69
 1187 0386 0A       		.byte	0xa
 1188 0387 61       		.byte	0x61
 1189 0388 8C030000 		.4byte	0x38c
 1190 038c 0B       		.uleb128 0xb
ARM GAS  C:\Users\PCHAUT~1\AppData\Local\Temp\ccmzKLV9.s 			page 22


 1191 038d C3060000 		.4byte	.LASF70
 1192 0391 14       		.byte	0x14
 1193 0392 03       		.byte	0x3
 1194 0393 6B01     		.2byte	0x16b
 1195 0395 DB030000 		.4byte	0x3db
 1196 0399 09       		.uleb128 0x9
 1197 039a E0030000 		.4byte	.LASF71
 1198 039e 03       		.byte	0x3
 1199 039f 6C01     		.2byte	0x16c
 1200 03a1 AE080000 		.4byte	0x8ae
 1201 03a5 00       		.byte	0
 1202 03a6 09       		.uleb128 0x9
 1203 03a7 7E030000 		.4byte	.LASF72
 1204 03ab 03       		.byte	0x3
 1205 03ac 6D01     		.2byte	0x16d
 1206 03ae AE080000 		.4byte	0x8ae
 1207 03b2 04       		.byte	0x4
 1208 03b3 09       		.uleb128 0x9
 1209 03b4 0F040000 		.4byte	.LASF73
 1210 03b8 03       		.byte	0x3
 1211 03b9 6E01     		.2byte	0x16e
 1212 03bb 5E010000 		.4byte	0x15e
 1213 03bf 08       		.byte	0x8
 1214 03c0 09       		.uleb128 0x9
 1215 03c1 B6080000 		.4byte	.LASF74
 1216 03c5 03       		.byte	0x3
 1217 03c6 6F01     		.2byte	0x16f
 1218 03c8 63030000 		.4byte	0x363
 1219 03cc 0C       		.byte	0xc
 1220 03cd 09       		.uleb128 0x9
 1221 03ce CD070000 		.4byte	.LASF75
 1222 03d2 03       		.byte	0x3
 1223 03d3 7101     		.2byte	0x171
 1224 03d5 7F030000 		.4byte	0x37f
 1225 03d9 10       		.byte	0x10
 1226 03da 00       		.byte	0
 1227 03db 04       		.uleb128 0x4
 1228 03dc 27010000 		.4byte	.LASF76
 1229 03e0 0A       		.byte	0xa
 1230 03e1 66       		.byte	0x66
 1231 03e2 E6030000 		.4byte	0x3e6
 1232 03e6 0B       		.uleb128 0xb
 1233 03e7 FD040000 		.4byte	.LASF77
 1234 03eb 10       		.byte	0x10
 1235 03ec 03       		.byte	0x3
 1236 03ed 7B01     		.2byte	0x17b
 1237 03ef 28040000 		.4byte	0x428
 1238 03f3 09       		.uleb128 0x9
 1239 03f4 E0030000 		.4byte	.LASF71
 1240 03f8 03       		.byte	0x3
 1241 03f9 7C01     		.2byte	0x17c
 1242 03fb AE080000 		.4byte	0x8ae
 1243 03ff 00       		.byte	0
 1244 0400 09       		.uleb128 0x9
 1245 0401 7E030000 		.4byte	.LASF72
 1246 0405 03       		.byte	0x3
 1247 0406 7E01     		.2byte	0x17e
ARM GAS  C:\Users\PCHAUT~1\AppData\Local\Temp\ccmzKLV9.s 			page 23


 1248 0408 AE080000 		.4byte	0x8ae
 1249 040c 04       		.byte	0x4
 1250 040d 09       		.uleb128 0x9
 1251 040e 0F040000 		.4byte	.LASF73
 1252 0412 03       		.byte	0x3
 1253 0413 8001     		.2byte	0x180
 1254 0415 5E010000 		.4byte	0x15e
 1255 0419 08       		.byte	0x8
 1256 041a 09       		.uleb128 0x9
 1257 041b 4E080000 		.4byte	.LASF78
 1258 041f 03       		.byte	0x3
 1259 0420 8201     		.2byte	0x182
 1260 0422 69010000 		.4byte	0x169
 1261 0426 0C       		.byte	0xc
 1262 0427 00       		.byte	0
 1263 0428 04       		.uleb128 0x4
 1264 0429 71000000 		.4byte	.LASF79
 1265 042d 0A       		.byte	0xa
 1266 042e 6B       		.byte	0x6b
 1267 042f 33040000 		.4byte	0x433
 1268 0433 0F       		.uleb128 0xf
 1269 0434 86030000 		.4byte	.LASF80
 1270 0438 1404     		.2byte	0x414
 1271 043a 03       		.byte	0x3
 1272 043b A201     		.2byte	0x1a2
 1273 043d 76040000 		.4byte	0x476
 1274 0441 09       		.uleb128 0x9
 1275 0442 AE070000 		.4byte	.LASF81
 1276 0446 03       		.byte	0x3
 1277 0447 AA01     		.2byte	0x1aa
 1278 0449 97080000 		.4byte	0x897
 1279 044d 00       		.byte	0
 1280 044e 09       		.uleb128 0x9
 1281 044f 01080000 		.4byte	.LASF82
 1282 0453 03       		.byte	0x3
 1283 0454 AF01     		.2byte	0x1af
 1284 0456 48010000 		.4byte	0x148
 1285 045a 04       		.byte	0x4
 1286 045b 09       		.uleb128 0x9
 1287 045c AA030000 		.4byte	.LASF83
 1288 0460 03       		.byte	0x3
 1289 0461 B301     		.2byte	0x1b3
 1290 0463 48010000 		.4byte	0x148
 1291 0467 08       		.byte	0x8
 1292 0468 09       		.uleb128 0x9
 1293 0469 59080000 		.4byte	.LASF84
 1294 046d 03       		.byte	0x3
 1295 046e B901     		.2byte	0x1b9
 1296 0470 03070000 		.4byte	0x703
 1297 0474 0C       		.byte	0xc
 1298 0475 00       		.byte	0
 1299 0476 04       		.uleb128 0x4
 1300 0477 76040000 		.4byte	.LASF85
 1301 047b 0A       		.byte	0xa
 1302 047c 70       		.byte	0x70
 1303 047d 81040000 		.4byte	0x481
 1304 0481 0F       		.uleb128 0xf
ARM GAS  C:\Users\PCHAUT~1\AppData\Local\Temp\ccmzKLV9.s 			page 24


 1305 0482 CB010000 		.4byte	.LASF86
 1306 0486 7006     		.2byte	0x670
 1307 0488 03       		.byte	0x3
 1308 0489 C201     		.2byte	0x1c2
 1309 048b EE040000 		.4byte	0x4ee
 1310 048f 09       		.uleb128 0x9
 1311 0490 12080000 		.4byte	.LASF87
 1312 0494 03       		.byte	0x3
 1313 0495 C601     		.2byte	0x1c6
 1314 0497 FC020000 		.4byte	0x2fc
 1315 049b 00       		.byte	0
 1316 049c 09       		.uleb128 0x9
 1317 049d AE010000 		.4byte	.LASF88
 1318 04a1 03       		.byte	0x3
 1319 04a2 CA01     		.2byte	0x1ca
 1320 04a4 DB030000 		.4byte	0x3db
 1321 04a8 1C       		.byte	0x1c
 1322 04a9 08       		.uleb128 0x8
 1323 04aa 64626700 		.ascii	"dbg\000"
 1324 04ae 03       		.byte	0x3
 1325 04af CE01     		.2byte	0x1ce
 1326 04b1 28040000 		.4byte	0x428
 1327 04b5 2C       		.byte	0x2c
 1328 04b6 10       		.uleb128 0x10
 1329 04b7 1C010000 		.4byte	.LASF89
 1330 04bb 03       		.byte	0x3
 1331 04bc D201     		.2byte	0x1d2
 1332 04be 6E010000 		.4byte	0x16e
 1333 04c2 4004     		.2byte	0x440
 1334 04c4 11       		.uleb128 0x11
 1335 04c5 746D00   		.ascii	"tm\000"
 1336 04c8 03       		.byte	0x3
 1337 04c9 D701     		.2byte	0x1d7
 1338 04cb 23070000 		.4byte	0x723
 1339 04cf A804     		.2byte	0x4a8
 1340 04d1 10       		.uleb128 0x10
 1341 04d2 3D000000 		.4byte	.LASF90
 1342 04d6 03       		.byte	0x3
 1343 04d7 DD01     		.2byte	0x1dd
 1344 04d9 B5070000 		.4byte	0x7b5
 1345 04dd B004     		.2byte	0x4b0
 1346 04df 10       		.uleb128 0x10
 1347 04e0 B3030000 		.4byte	.LASF91
 1348 04e4 03       		.byte	0x3
 1349 04e5 E301     		.2byte	0x1e3
 1350 04e7 B4080000 		.4byte	0x8b4
 1351 04eb E804     		.2byte	0x4e8
 1352 04ed 00       		.byte	0
 1353 04ee 12       		.uleb128 0x12
 1354 04ef 3D010000 		.4byte	.LASF92
 1355 04f3 0B       		.byte	0xb
 1356 04f4 A706     		.2byte	0x6a7
 1357 04f6 CA000000 		.4byte	0xca
 1358 04fa 13       		.uleb128 0x13
 1359 04fb F1030000 		.4byte	.LASF93
 1360 04ff 0C       		.byte	0xc
 1361 0500 4C       		.byte	0x4c
ARM GAS  C:\Users\PCHAUT~1\AppData\Local\Temp\ccmzKLV9.s 			page 25


 1362 0501 CF000000 		.4byte	0xcf
 1363 0505 04       		.uleb128 0x4
 1364 0506 75030000 		.4byte	.LASF94
 1365 050a 0D       		.byte	0xd
 1366 050b 65       		.byte	0x65
 1367 050c 7F030000 		.4byte	0x37f
 1368 0510 04       		.uleb128 0x4
 1369 0511 BD040000 		.4byte	.LASF95
 1370 0515 0D       		.byte	0xd
 1371 0516 6D       		.byte	0x6d
 1372 0517 DA000000 		.4byte	0xda
 1373 051b 06       		.uleb128 0x6
 1374 051c BF070000 		.4byte	.LASF96
 1375 0520 04       		.byte	0x4
 1376 0521 0D       		.byte	0xd
 1377 0522 89       		.byte	0x89
 1378 0523 34050000 		.4byte	0x534
 1379 0527 14       		.uleb128 0x14
 1380 0528 72313300 		.ascii	"r13\000"
 1381 052c 0D       		.byte	0xd
 1382 052d 8A       		.byte	0x8a
 1383 052e 75060000 		.4byte	0x675
 1384 0532 00       		.byte	0
 1385 0533 00       		.byte	0
 1386 0534 06       		.uleb128 0x6
 1387 0535 54000000 		.4byte	.LASF97
 1388 0539 64       		.byte	0x64
 1389 053a 01       		.byte	0x1
 1390 053b F4       		.byte	0xf4
 1391 053c 75060000 		.4byte	0x675
 1392 0540 14       		.uleb128 0x14
 1393 0541 73313600 		.ascii	"s16\000"
 1394 0545 01       		.byte	0x1
 1395 0546 F6       		.byte	0xf6
 1396 0547 05050000 		.4byte	0x505
 1397 054b 00       		.byte	0
 1398 054c 14       		.uleb128 0x14
 1399 054d 73313700 		.ascii	"s17\000"
 1400 0551 01       		.byte	0x1
 1401 0552 F7       		.byte	0xf7
 1402 0553 05050000 		.4byte	0x505
 1403 0557 04       		.byte	0x4
 1404 0558 14       		.uleb128 0x14
 1405 0559 73313800 		.ascii	"s18\000"
 1406 055d 01       		.byte	0x1
 1407 055e F8       		.byte	0xf8
 1408 055f 05050000 		.4byte	0x505
 1409 0563 08       		.byte	0x8
 1410 0564 14       		.uleb128 0x14
 1411 0565 73313900 		.ascii	"s19\000"
 1412 0569 01       		.byte	0x1
 1413 056a F9       		.byte	0xf9
 1414 056b 05050000 		.4byte	0x505
 1415 056f 0C       		.byte	0xc
 1416 0570 14       		.uleb128 0x14
 1417 0571 73323000 		.ascii	"s20\000"
 1418 0575 01       		.byte	0x1
ARM GAS  C:\Users\PCHAUT~1\AppData\Local\Temp\ccmzKLV9.s 			page 26


 1419 0576 FA       		.byte	0xfa
 1420 0577 05050000 		.4byte	0x505
 1421 057b 10       		.byte	0x10
 1422 057c 14       		.uleb128 0x14
 1423 057d 73323100 		.ascii	"s21\000"
 1424 0581 01       		.byte	0x1
 1425 0582 FB       		.byte	0xfb
 1426 0583 05050000 		.4byte	0x505
 1427 0587 14       		.byte	0x14
 1428 0588 14       		.uleb128 0x14
 1429 0589 73323200 		.ascii	"s22\000"
 1430 058d 01       		.byte	0x1
 1431 058e FC       		.byte	0xfc
 1432 058f 05050000 		.4byte	0x505
 1433 0593 18       		.byte	0x18
 1434 0594 14       		.uleb128 0x14
 1435 0595 73323300 		.ascii	"s23\000"
 1436 0599 01       		.byte	0x1
 1437 059a FD       		.byte	0xfd
 1438 059b 05050000 		.4byte	0x505
 1439 059f 1C       		.byte	0x1c
 1440 05a0 14       		.uleb128 0x14
 1441 05a1 73323400 		.ascii	"s24\000"
 1442 05a5 01       		.byte	0x1
 1443 05a6 FE       		.byte	0xfe
 1444 05a7 05050000 		.4byte	0x505
 1445 05ab 20       		.byte	0x20
 1446 05ac 14       		.uleb128 0x14
 1447 05ad 73323500 		.ascii	"s25\000"
 1448 05b1 01       		.byte	0x1
 1449 05b2 FF       		.byte	0xff
 1450 05b3 05050000 		.4byte	0x505
 1451 05b7 24       		.byte	0x24
 1452 05b8 08       		.uleb128 0x8
 1453 05b9 73323600 		.ascii	"s26\000"
 1454 05bd 01       		.byte	0x1
 1455 05be 0001     		.2byte	0x100
 1456 05c0 05050000 		.4byte	0x505
 1457 05c4 28       		.byte	0x28
 1458 05c5 08       		.uleb128 0x8
 1459 05c6 73323700 		.ascii	"s27\000"
 1460 05ca 01       		.byte	0x1
 1461 05cb 0101     		.2byte	0x101
 1462 05cd 05050000 		.4byte	0x505
 1463 05d1 2C       		.byte	0x2c
 1464 05d2 08       		.uleb128 0x8
 1465 05d3 73323800 		.ascii	"s28\000"
 1466 05d7 01       		.byte	0x1
 1467 05d8 0201     		.2byte	0x102
 1468 05da 05050000 		.4byte	0x505
 1469 05de 30       		.byte	0x30
 1470 05df 08       		.uleb128 0x8
 1471 05e0 73323900 		.ascii	"s29\000"
 1472 05e4 01       		.byte	0x1
 1473 05e5 0301     		.2byte	0x103
 1474 05e7 05050000 		.4byte	0x505
 1475 05eb 34       		.byte	0x34
ARM GAS  C:\Users\PCHAUT~1\AppData\Local\Temp\ccmzKLV9.s 			page 27


 1476 05ec 08       		.uleb128 0x8
 1477 05ed 73333000 		.ascii	"s30\000"
 1478 05f1 01       		.byte	0x1
 1479 05f2 0401     		.2byte	0x104
 1480 05f4 05050000 		.4byte	0x505
 1481 05f8 38       		.byte	0x38
 1482 05f9 08       		.uleb128 0x8
 1483 05fa 73333100 		.ascii	"s31\000"
 1484 05fe 01       		.byte	0x1
 1485 05ff 0501     		.2byte	0x105
 1486 0601 05050000 		.4byte	0x505
 1487 0605 3C       		.byte	0x3c
 1488 0606 08       		.uleb128 0x8
 1489 0607 723400   		.ascii	"r4\000"
 1490 060a 01       		.byte	0x1
 1491 060b 0701     		.2byte	0x107
 1492 060d 05050000 		.4byte	0x505
 1493 0611 40       		.byte	0x40
 1494 0612 08       		.uleb128 0x8
 1495 0613 723500   		.ascii	"r5\000"
 1496 0616 01       		.byte	0x1
 1497 0617 0801     		.2byte	0x108
 1498 0619 05050000 		.4byte	0x505
 1499 061d 44       		.byte	0x44
 1500 061e 08       		.uleb128 0x8
 1501 061f 723600   		.ascii	"r6\000"
 1502 0622 01       		.byte	0x1
 1503 0623 0901     		.2byte	0x109
 1504 0625 05050000 		.4byte	0x505
 1505 0629 48       		.byte	0x48
 1506 062a 08       		.uleb128 0x8
 1507 062b 723700   		.ascii	"r7\000"
 1508 062e 01       		.byte	0x1
 1509 062f 0A01     		.2byte	0x10a
 1510 0631 05050000 		.4byte	0x505
 1511 0635 4C       		.byte	0x4c
 1512 0636 08       		.uleb128 0x8
 1513 0637 723800   		.ascii	"r8\000"
 1514 063a 01       		.byte	0x1
 1515 063b 0B01     		.2byte	0x10b
 1516 063d 05050000 		.4byte	0x505
 1517 0641 50       		.byte	0x50
 1518 0642 08       		.uleb128 0x8
 1519 0643 723900   		.ascii	"r9\000"
 1520 0646 01       		.byte	0x1
 1521 0647 0C01     		.2byte	0x10c
 1522 0649 05050000 		.4byte	0x505
 1523 064d 54       		.byte	0x54
 1524 064e 08       		.uleb128 0x8
 1525 064f 72313000 		.ascii	"r10\000"
 1526 0653 01       		.byte	0x1
 1527 0654 0D01     		.2byte	0x10d
 1528 0656 05050000 		.4byte	0x505
 1529 065a 58       		.byte	0x58
 1530 065b 08       		.uleb128 0x8
 1531 065c 72313100 		.ascii	"r11\000"
 1532 0660 01       		.byte	0x1
ARM GAS  C:\Users\PCHAUT~1\AppData\Local\Temp\ccmzKLV9.s 			page 28


 1533 0661 0E01     		.2byte	0x10e
 1534 0663 05050000 		.4byte	0x505
 1535 0667 5C       		.byte	0x5c
 1536 0668 08       		.uleb128 0x8
 1537 0669 6C7200   		.ascii	"lr\000"
 1538 066c 01       		.byte	0x1
 1539 066d 0F01     		.2byte	0x10f
 1540 066f 05050000 		.4byte	0x505
 1541 0673 60       		.byte	0x60
 1542 0674 00       		.byte	0
 1543 0675 0A       		.uleb128 0xa
 1544 0676 04       		.byte	0x4
 1545 0677 34050000 		.4byte	0x534
 1546 067b 15       		.uleb128 0x15
 1547 067c 10       		.byte	0x10
 1548 067d 0E       		.byte	0xe
 1549 067e 51       		.byte	0x51
 1550 067f B4060000 		.4byte	0x6b4
 1551 0683 07       		.uleb128 0x7
 1552 0684 DE070000 		.4byte	.LASF98
 1553 0688 0E       		.byte	0xe
 1554 0689 55       		.byte	0x55
 1555 068a 5E010000 		.4byte	0x15e
 1556 068e 00       		.byte	0
 1557 068f 07       		.uleb128 0x7
 1558 0690 35030000 		.4byte	.LASF99
 1559 0694 0E       		.byte	0xe
 1560 0695 59       		.byte	0x59
 1561 0696 A2020000 		.4byte	0x2a2
 1562 069a 04       		.byte	0x4
 1563 069b 07       		.uleb128 0x7
 1564 069c 9E080000 		.4byte	.LASF100
 1565 06a0 0E       		.byte	0xe
 1566 06a1 5D       		.byte	0x5d
 1567 06a2 7F030000 		.4byte	0x37f
 1568 06a6 08       		.byte	0x8
 1569 06a7 07       		.uleb128 0x7
 1570 06a8 09080000 		.4byte	.LASF101
 1571 06ac 0E       		.byte	0xe
 1572 06ad 61       		.byte	0x61
 1573 06ae A9000000 		.4byte	0xa9
 1574 06b2 0C       		.byte	0xc
 1575 06b3 00       		.byte	0
 1576 06b4 04       		.uleb128 0x4
 1577 06b5 33050000 		.4byte	.LASF102
 1578 06b9 0E       		.byte	0xe
 1579 06ba 62       		.byte	0x62
 1580 06bb 7B060000 		.4byte	0x67b
 1581 06bf 16       		.uleb128 0x16
 1582 06c0 0804     		.2byte	0x408
 1583 06c2 0E       		.byte	0xe
 1584 06c3 67       		.byte	0x67
 1585 06c4 ED060000 		.4byte	0x6ed
 1586 06c8 07       		.uleb128 0x7
 1587 06c9 65030000 		.4byte	.LASF103
 1588 06cd 0E       		.byte	0xe
 1589 06ce 6B       		.byte	0x6b
ARM GAS  C:\Users\PCHAUT~1\AppData\Local\Temp\ccmzKLV9.s 			page 29


 1590 06cf 2C000000 		.4byte	0x2c
 1591 06d3 00       		.byte	0
 1592 06d4 07       		.uleb128 0x7
 1593 06d5 2C050000 		.4byte	.LASF104
 1594 06d9 0E       		.byte	0xe
 1595 06da 6F       		.byte	0x6f
 1596 06db ED060000 		.4byte	0x6ed
 1597 06df 04       		.byte	0x4
 1598 06e0 07       		.uleb128 0x7
 1599 06e1 AA050000 		.4byte	.LASF105
 1600 06e5 0E       		.byte	0xe
 1601 06e6 73       		.byte	0x73
 1602 06e7 F3060000 		.4byte	0x6f3
 1603 06eb 08       		.byte	0x8
 1604 06ec 00       		.byte	0
 1605 06ed 0A       		.uleb128 0xa
 1606 06ee 04       		.byte	0x4
 1607 06ef B4060000 		.4byte	0x6b4
 1608 06f3 17       		.uleb128 0x17
 1609 06f4 B4060000 		.4byte	0x6b4
 1610 06f8 03070000 		.4byte	0x703
 1611 06fc 18       		.uleb128 0x18
 1612 06fd 2C000000 		.4byte	0x2c
 1613 0701 3F       		.byte	0x3f
 1614 0702 00       		.byte	0
 1615 0703 04       		.uleb128 0x4
 1616 0704 F3000000 		.4byte	.LASF106
 1617 0708 0E       		.byte	0xe
 1618 0709 74       		.byte	0x74
 1619 070a BF060000 		.4byte	0x6bf
 1620 070e 15       		.uleb128 0x15
 1621 070f 04       		.byte	0x4
 1622 0710 0F       		.byte	0xf
 1623 0711 38       		.byte	0x38
 1624 0712 23070000 		.4byte	0x723
 1625 0716 07       		.uleb128 0x7
 1626 0717 B8070000 		.4byte	.LASF107
 1627 071b 0F       		.byte	0xf
 1628 071c 3C       		.byte	0x3c
 1629 071d E5000000 		.4byte	0xe5
 1630 0721 00       		.byte	0
 1631 0722 00       		.byte	0
 1632 0723 04       		.uleb128 0x4
 1633 0724 62050000 		.4byte	.LASF108
 1634 0728 0F       		.byte	0xf
 1635 0729 3D       		.byte	0x3d
 1636 072a 0E070000 		.4byte	0x70e
 1637 072e 15       		.uleb128 0x15
 1638 072f 18       		.byte	0x18
 1639 0730 0F       		.byte	0xf
 1640 0731 48       		.byte	0x48
 1641 0732 71070000 		.4byte	0x771
 1642 0736 07       		.uleb128 0x7
 1643 0737 60070000 		.4byte	.LASF109
 1644 073b 0F       		.byte	0xf
 1645 073c 49       		.byte	0x49
 1646 073d E5000000 		.4byte	0xe5
ARM GAS  C:\Users\PCHAUT~1\AppData\Local\Temp\ccmzKLV9.s 			page 30


 1647 0741 00       		.byte	0
 1648 0742 07       		.uleb128 0x7
 1649 0743 8A000000 		.4byte	.LASF110
 1650 0747 0F       		.byte	0xf
 1651 0748 4A       		.byte	0x4a
 1652 0749 E5000000 		.4byte	0xe5
 1653 074d 04       		.byte	0x4
 1654 074e 07       		.uleb128 0x7
 1655 074f 6A040000 		.4byte	.LASF111
 1656 0753 0F       		.byte	0xf
 1657 0754 4B       		.byte	0x4b
 1658 0755 E5000000 		.4byte	0xe5
 1659 0759 08       		.byte	0x8
 1660 075a 14       		.uleb128 0x14
 1661 075b 6E00     		.ascii	"n\000"
 1662 075d 0F       		.byte	0xf
 1663 075e 4C       		.byte	0x4c
 1664 075f 53010000 		.4byte	0x153
 1665 0763 0C       		.byte	0xc
 1666 0764 07       		.uleb128 0x7
 1667 0765 97050000 		.4byte	.LASF112
 1668 0769 0F       		.byte	0xf
 1669 076a 4D       		.byte	0x4d
 1670 076b F0000000 		.4byte	0xf0
 1671 076f 10       		.byte	0x10
 1672 0770 00       		.byte	0
 1673 0771 04       		.uleb128 0x4
 1674 0772 90000000 		.4byte	.LASF113
 1675 0776 0F       		.byte	0xf
 1676 0777 4E       		.byte	0x4e
 1677 0778 2E070000 		.4byte	0x72e
 1678 077c 15       		.uleb128 0x15
 1679 077d 38       		.byte	0x38
 1680 077e 10       		.byte	0x10
 1681 077f 38       		.byte	0x38
 1682 0780 B5070000 		.4byte	0x7b5
 1683 0784 07       		.uleb128 0x7
 1684 0785 2C040000 		.4byte	.LASF114
 1685 0789 10       		.byte	0x10
 1686 078a 39       		.byte	0x39
 1687 078b 53010000 		.4byte	0x153
 1688 078f 00       		.byte	0
 1689 0790 07       		.uleb128 0x7
 1690 0791 DE050000 		.4byte	.LASF115
 1691 0795 10       		.byte	0x10
 1692 0796 3A       		.byte	0x3a
 1693 0797 53010000 		.4byte	0x153
 1694 079b 04       		.byte	0x4
 1695 079c 07       		.uleb128 0x7
 1696 079d 8B080000 		.4byte	.LASF116
 1697 07a1 10       		.byte	0x10
 1698 07a2 3B       		.byte	0x3b
 1699 07a3 71070000 		.4byte	0x771
 1700 07a7 08       		.byte	0x8
 1701 07a8 07       		.uleb128 0x7
 1702 07a9 8E040000 		.4byte	.LASF117
 1703 07ad 10       		.byte	0x10
ARM GAS  C:\Users\PCHAUT~1\AppData\Local\Temp\ccmzKLV9.s 			page 31


 1704 07ae 3D       		.byte	0x3d
 1705 07af 71070000 		.4byte	0x771
 1706 07b3 20       		.byte	0x20
 1707 07b4 00       		.byte	0
 1708 07b5 04       		.uleb128 0x4
 1709 07b6 4B040000 		.4byte	.LASF118
 1710 07ba 10       		.byte	0x10
 1711 07bb 3F       		.byte	0x3f
 1712 07bc 7C070000 		.4byte	0x77c
 1713 07c0 19       		.uleb128 0x19
 1714 07c1 04       		.byte	0x4
 1715 07c2 03       		.byte	0x3
 1716 07c3 FA       		.byte	0xfa
 1717 07c4 1D080000 		.4byte	0x81d
 1718 07c8 1A       		.uleb128 0x1a
 1719 07c9 2D000000 		.4byte	.LASF119
 1720 07cd 03       		.byte	0x3
 1721 07ce 0101     		.2byte	0x101
 1722 07d0 32010000 		.4byte	0x132
 1723 07d4 1A       		.uleb128 0x1a
 1724 07d5 13010000 		.4byte	.LASF120
 1725 07d9 03       		.byte	0x3
 1726 07da 0801     		.2byte	0x108
 1727 07dc 32010000 		.4byte	0x132
 1728 07e0 1A       		.uleb128 0x1a
 1729 07e1 33080000 		.4byte	.LASF121
 1730 07e5 03       		.byte	0x3
 1731 07e6 0F01     		.2byte	0x10f
 1732 07e8 7F030000 		.4byte	0x37f
 1733 07ec 1A       		.uleb128 0x1a
 1734 07ed 27000000 		.4byte	.LASF122
 1735 07f1 03       		.byte	0x3
 1736 07f2 1601     		.2byte	0x116
 1737 07f4 1D080000 		.4byte	0x81d
 1738 07f8 1A       		.uleb128 0x1a
 1739 07f9 08040000 		.4byte	.LASF123
 1740 07fd 03       		.byte	0x3
 1741 07fe 1E01     		.2byte	0x11e
 1742 0800 48080000 		.4byte	0x848
 1743 0804 1A       		.uleb128 0x1a
 1744 0805 45070000 		.4byte	.LASF124
 1745 0809 03       		.byte	0x3
 1746 080a 2701     		.2byte	0x127
 1747 080c 8B080000 		.4byte	0x88b
 1748 0810 1A       		.uleb128 0x1a
 1749 0811 30060000 		.4byte	.LASF125
 1750 0815 03       		.byte	0x3
 1751 0816 2F01     		.2byte	0x12f
 1752 0818 3D010000 		.4byte	0x13d
 1753 081c 00       		.byte	0
 1754 081d 0A       		.uleb128 0xa
 1755 081e 04       		.byte	0x4
 1756 081f 97020000 		.4byte	0x297
 1757 0823 06       		.uleb128 0x6
 1758 0824 E1060000 		.4byte	.LASF126
 1759 0828 0C       		.byte	0xc
 1760 0829 11       		.byte	0x11
ARM GAS  C:\Users\PCHAUT~1\AppData\Local\Temp\ccmzKLV9.s 			page 32


 1761 082a 34       		.byte	0x34
 1762 082b 48080000 		.4byte	0x848
 1763 082f 07       		.uleb128 0x7
 1764 0830 5D030000 		.4byte	.LASF127
 1765 0834 11       		.byte	0x11
 1766 0835 35       		.byte	0x35
 1767 0836 CC020000 		.4byte	0x2cc
 1768 083a 00       		.byte	0
 1769 083b 07       		.uleb128 0x7
 1770 083c 32040000 		.4byte	.LASF128
 1771 0840 11       		.byte	0x11
 1772 0841 37       		.byte	0x37
 1773 0842 48010000 		.4byte	0x148
 1774 0846 08       		.byte	0x8
 1775 0847 00       		.byte	0
 1776 0848 0A       		.uleb128 0xa
 1777 0849 04       		.byte	0x4
 1778 084a 23080000 		.4byte	0x823
 1779 084e 06       		.uleb128 0x6
 1780 084f F1070000 		.4byte	.LASF129
 1781 0853 14       		.byte	0x14
 1782 0854 12       		.byte	0x12
 1783 0855 39       		.byte	0x39
 1784 0856 8B080000 		.4byte	0x88b
 1785 085a 07       		.uleb128 0x7
 1786 085b A6010000 		.4byte	.LASF130
 1787 085f 12       		.byte	0x12
 1788 0860 3A       		.byte	0x3a
 1789 0861 CC020000 		.4byte	0x2cc
 1790 0865 00       		.byte	0
 1791 0866 07       		.uleb128 0x7
 1792 0867 96080000 		.4byte	.LASF131
 1793 086b 12       		.byte	0x12
 1794 086c 3C       		.byte	0x3c
 1795 086d A2020000 		.4byte	0x2a2
 1796 0871 08       		.byte	0x8
 1797 0872 07       		.uleb128 0x7
 1798 0873 73050000 		.4byte	.LASF132
 1799 0877 12       		.byte	0x12
 1800 0878 3E       		.byte	0x3e
 1801 0879 E6090000 		.4byte	0x9e6
 1802 087d 0C       		.byte	0xc
 1803 087e 07       		.uleb128 0x7
 1804 087f 96030000 		.4byte	.LASF133
 1805 0883 12       		.byte	0x12
 1806 0884 41       		.byte	0x41
 1807 0885 48010000 		.4byte	0x148
 1808 0889 10       		.byte	0x10
 1809 088a 00       		.byte	0
 1810 088b 0A       		.uleb128 0xa
 1811 088c 04       		.byte	0x4
 1812 088d 4E080000 		.4byte	0x84e
 1813 0891 0A       		.uleb128 0xa
 1814 0892 04       		.byte	0x4
 1815 0893 A3080000 		.4byte	0x8a3
 1816 0897 05       		.uleb128 0x5
 1817 0898 91080000 		.4byte	0x891
ARM GAS  C:\Users\PCHAUT~1\AppData\Local\Temp\ccmzKLV9.s 			page 33


 1818 089c 03       		.uleb128 0x3
 1819 089d 01       		.byte	0x1
 1820 089e 08       		.byte	0x8
 1821 089f 40070000 		.4byte	.LASF134
 1822 08a3 1B       		.uleb128 0x1b
 1823 08a4 9C080000 		.4byte	0x89c
 1824 08a8 0A       		.uleb128 0xa
 1825 08a9 04       		.byte	0x4
 1826 08aa 10050000 		.4byte	0x510
 1827 08ae 0A       		.uleb128 0xa
 1828 08af 04       		.byte	0x4
 1829 08b0 81030000 		.4byte	0x381
 1830 08b4 17       		.uleb128 0x17
 1831 08b5 10050000 		.4byte	0x510
 1832 08b9 C4080000 		.4byte	0x8c4
 1833 08bd 18       		.uleb128 0x18
 1834 08be 2C000000 		.4byte	0x2c
 1835 08c2 30       		.byte	0x30
 1836 08c3 00       		.byte	0
 1837 08c4 1C       		.uleb128 0x1c
 1838 08c5 636800   		.ascii	"ch\000"
 1839 08c8 03       		.byte	0x3
 1840 08c9 0902     		.2byte	0x209
 1841 08cb 76040000 		.4byte	0x476
 1842 08cf 15       		.uleb128 0x15
 1843 08d0 16       		.byte	0x16
 1844 08d1 13       		.byte	0x13
 1845 08d2 34       		.byte	0x34
 1846 08d3 B0090000 		.4byte	0x9b0
 1847 08d7 07       		.uleb128 0x7
 1848 08d8 A8080000 		.4byte	.LASF135
 1849 08dc 13       		.byte	0x13
 1850 08dd 35       		.byte	0x35
 1851 08de B0090000 		.4byte	0x9b0
 1852 08e2 00       		.byte	0
 1853 08e3 07       		.uleb128 0x7
 1854 08e4 D7040000 		.4byte	.LASF136
 1855 08e8 13       		.byte	0x13
 1856 08e9 36       		.byte	0x36
 1857 08ea A9000000 		.4byte	0xa9
 1858 08ee 04       		.byte	0x4
 1859 08ef 07       		.uleb128 0x7
 1860 08f0 26070000 		.4byte	.LASF137
 1861 08f4 13       		.byte	0x13
 1862 08f5 37       		.byte	0x37
 1863 08f6 A9000000 		.4byte	0xa9
 1864 08fa 05       		.byte	0x5
 1865 08fb 07       		.uleb128 0x7
 1866 08fc 72080000 		.4byte	.LASF138
 1867 0900 13       		.byte	0x13
 1868 0901 38       		.byte	0x38
 1869 0902 B4000000 		.4byte	0xb4
 1870 0906 06       		.byte	0x6
 1871 0907 07       		.uleb128 0x7
 1872 0908 B4050000 		.4byte	.LASF139
 1873 090c 13       		.byte	0x13
 1874 090d 39       		.byte	0x39
ARM GAS  C:\Users\PCHAUT~1\AppData\Local\Temp\ccmzKLV9.s 			page 34


 1875 090e A9000000 		.4byte	0xa9
 1876 0912 08       		.byte	0x8
 1877 0913 07       		.uleb128 0x7
 1878 0914 20050000 		.4byte	.LASF140
 1879 0918 13       		.byte	0x13
 1880 0919 3A       		.byte	0x3a
 1881 091a A9000000 		.4byte	0xa9
 1882 091e 09       		.byte	0x9
 1883 091f 07       		.uleb128 0x7
 1884 0920 05010000 		.4byte	.LASF141
 1885 0924 13       		.byte	0x13
 1886 0925 3B       		.byte	0x3b
 1887 0926 A9000000 		.4byte	0xa9
 1888 092a 0A       		.byte	0xa
 1889 092b 07       		.uleb128 0x7
 1890 092c 02070000 		.4byte	.LASF142
 1891 0930 13       		.byte	0x13
 1892 0931 3C       		.byte	0x3c
 1893 0932 A9000000 		.4byte	0xa9
 1894 0936 0B       		.byte	0xb
 1895 0937 07       		.uleb128 0x7
 1896 0938 E6070000 		.4byte	.LASF143
 1897 093c 13       		.byte	0x13
 1898 093d 3D       		.byte	0x3d
 1899 093e A9000000 		.4byte	0xa9
 1900 0942 0C       		.byte	0xc
 1901 0943 07       		.uleb128 0x7
 1902 0944 3A080000 		.4byte	.LASF144
 1903 0948 13       		.byte	0x13
 1904 0949 3E       		.byte	0x3e
 1905 094a A9000000 		.4byte	0xa9
 1906 094e 0D       		.byte	0xd
 1907 094f 07       		.uleb128 0x7
 1908 0950 00000000 		.4byte	.LASF145
 1909 0954 13       		.byte	0x13
 1910 0955 3F       		.byte	0x3f
 1911 0956 A9000000 		.4byte	0xa9
 1912 095a 0E       		.byte	0xe
 1913 095b 07       		.uleb128 0x7
 1914 095c 42050000 		.4byte	.LASF146
 1915 0960 13       		.byte	0x13
 1916 0961 40       		.byte	0x40
 1917 0962 A9000000 		.4byte	0xa9
 1918 0966 0F       		.byte	0xf
 1919 0967 07       		.uleb128 0x7
 1920 0968 81010000 		.4byte	.LASF147
 1921 096c 13       		.byte	0x13
 1922 096d 41       		.byte	0x41
 1923 096e A9000000 		.4byte	0xa9
 1924 0972 10       		.byte	0x10
 1925 0973 07       		.uleb128 0x7
 1926 0974 5A010000 		.4byte	.LASF148
 1927 0978 13       		.byte	0x13
 1928 0979 43       		.byte	0x43
 1929 097a A9000000 		.4byte	0xa9
 1930 097e 11       		.byte	0x11
 1931 097f 07       		.uleb128 0x7
ARM GAS  C:\Users\PCHAUT~1\AppData\Local\Temp\ccmzKLV9.s 			page 35


 1932 0980 91010000 		.4byte	.LASF149
 1933 0984 13       		.byte	0x13
 1934 0985 44       		.byte	0x44
 1935 0986 A9000000 		.4byte	0xa9
 1936 098a 12       		.byte	0x12
 1937 098b 07       		.uleb128 0x7
 1938 098c DF040000 		.4byte	.LASF150
 1939 0990 13       		.byte	0x13
 1940 0991 45       		.byte	0x45
 1941 0992 A9000000 		.4byte	0xa9
 1942 0996 13       		.byte	0x13
 1943 0997 07       		.uleb128 0x7
 1944 0998 46060000 		.4byte	.LASF151
 1945 099c 13       		.byte	0x13
 1946 099d 46       		.byte	0x46
 1947 099e A9000000 		.4byte	0xa9
 1948 09a2 14       		.byte	0x14
 1949 09a3 07       		.uleb128 0x7
 1950 09a4 82040000 		.4byte	.LASF152
 1951 09a8 13       		.byte	0x13
 1952 09a9 48       		.byte	0x48
 1953 09aa A9000000 		.4byte	0xa9
 1954 09ae 15       		.byte	0x15
 1955 09af 00       		.byte	0
 1956 09b0 17       		.uleb128 0x17
 1957 09b1 9C080000 		.4byte	0x89c
 1958 09b5 C0090000 		.4byte	0x9c0
 1959 09b9 18       		.uleb128 0x18
 1960 09ba 2C000000 		.4byte	0x2c
 1961 09be 03       		.byte	0x3
 1962 09bf 00       		.byte	0
 1963 09c0 04       		.uleb128 0x4
 1964 09c1 3B030000 		.4byte	.LASF153
 1965 09c5 13       		.byte	0x13
 1966 09c6 49       		.byte	0x49
 1967 09c7 CF080000 		.4byte	0x8cf
 1968 09cb 1B       		.uleb128 0x1b
 1969 09cc C0090000 		.4byte	0x9c0
 1970 09d0 13       		.uleb128 0x13
 1971 09d1 23040000 		.4byte	.LASF154
 1972 09d5 13       		.byte	0x13
 1973 09d6 6E       		.byte	0x6e
 1974 09d7 CB090000 		.4byte	0x9cb
 1975 09db 04       		.uleb128 0x4
 1976 09dc 9C030000 		.4byte	.LASF155
 1977 09e0 12       		.byte	0x12
 1978 09e1 34       		.byte	0x34
 1979 09e2 4E080000 		.4byte	0x84e
 1980 09e6 0A       		.uleb128 0xa
 1981 09e7 04       		.byte	0x4
 1982 09e8 DB090000 		.4byte	0x9db
 1983 09ec 1D       		.uleb128 0x1d
 1984 09ed D4060000 		.4byte	.LASF170
 1985 09f1 06       		.byte	0x6
 1986 09f2 90       		.byte	0x90
 1987 09f3 00000000 		.4byte	.LFB221
 1988 09f7 4C000000 		.4byte	.LFE221-.LFB221
ARM GAS  C:\Users\PCHAUT~1\AppData\Local\Temp\ccmzKLV9.s 			page 36


 1989 09fb 01       		.uleb128 0x1
 1990 09fc 9C       		.byte	0x9c
 1991 09fd 2C0A0000 		.4byte	0xa2c
 1992 0a01 1E       		.uleb128 0x1e
 1993 0a02 747000   		.ascii	"tp\000"
 1994 0a05 06       		.byte	0x6
 1995 0a06 90       		.byte	0x90
 1996 0a07 A2020000 		.4byte	0x2a2
 1997 0a0b 02       		.uleb128 0x2
 1998 0a0c 91       		.byte	0x91
 1999 0a0d 6C       		.sleb128 -20
 2000 0a0e 1E       		.uleb128 0x1e
 2001 0a0f 6D736700 		.ascii	"msg\000"
 2002 0a13 06       		.byte	0x6
 2003 0a14 90       		.byte	0x90
 2004 0a15 32010000 		.4byte	0x132
 2005 0a19 02       		.uleb128 0x2
 2006 0a1a 91       		.byte	0x91
 2007 0a1b 68       		.sleb128 -24
 2008 0a1c 1F       		.uleb128 0x1f
 2009 0a1d 5D060000 		.4byte	.LASF158
 2010 0a21 3C0A0000 		.4byte	0xa3c
 2011 0a25 05       		.uleb128 0x5
 2012 0a26 03       		.byte	0x3
 2013 0a27 00000000 		.4byte	__func__.7860
 2014 0a2b 00       		.byte	0
 2015 0a2c 17       		.uleb128 0x17
 2016 0a2d A3080000 		.4byte	0x8a3
 2017 0a31 3C0A0000 		.4byte	0xa3c
 2018 0a35 18       		.uleb128 0x18
 2019 0a36 2C000000 		.4byte	0x2c
 2020 0a3a 0C       		.byte	0xc
 2021 0a3b 00       		.byte	0
 2022 0a3c 1B       		.uleb128 0x1b
 2023 0a3d 2C0A0000 		.4byte	0xa2c
 2024 0a41 20       		.uleb128 0x20
 2025 0a42 D4070000 		.4byte	.LASF156
 2026 0a46 06       		.byte	0x6
 2027 0a47 78       		.byte	0x78
 2028 0a48 A2020000 		.4byte	0x2a2
 2029 0a4c 00000000 		.4byte	.LFB220
 2030 0a50 64000000 		.4byte	.LFE220-.LFB220
 2031 0a54 01       		.uleb128 0x1
 2032 0a55 9C       		.byte	0x9c
 2033 0a56 680A0000 		.4byte	0xa68
 2034 0a5a 21       		.uleb128 0x21
 2035 0a5b 747000   		.ascii	"tp\000"
 2036 0a5e 06       		.byte	0x6
 2037 0a5f 79       		.byte	0x79
 2038 0a60 A2020000 		.4byte	0x2a2
 2039 0a64 02       		.uleb128 0x2
 2040 0a65 91       		.byte	0x91
 2041 0a66 70       		.sleb128 -16
 2042 0a67 00       		.byte	0
 2043 0a68 20       		.uleb128 0x20
 2044 0a69 22030000 		.4byte	.LASF157
 2045 0a6d 06       		.byte	0x6
ARM GAS  C:\Users\PCHAUT~1\AppData\Local\Temp\ccmzKLV9.s 			page 37


 2046 0a6e 57       		.byte	0x57
 2047 0a6f 32010000 		.4byte	0x132
 2048 0a73 00000000 		.4byte	.LFB219
 2049 0a77 84000000 		.4byte	.LFE219-.LFB219
 2050 0a7b 01       		.uleb128 0x1
 2051 0a7c 9C       		.byte	0x9c
 2052 0a7d BA0A0000 		.4byte	0xaba
 2053 0a81 1E       		.uleb128 0x1e
 2054 0a82 747000   		.ascii	"tp\000"
 2055 0a85 06       		.byte	0x6
 2056 0a86 57       		.byte	0x57
 2057 0a87 A2020000 		.4byte	0x2a2
 2058 0a8b 02       		.uleb128 0x2
 2059 0a8c 91       		.byte	0x91
 2060 0a8d 6C       		.sleb128 -20
 2061 0a8e 1E       		.uleb128 0x1e
 2062 0a8f 6D736700 		.ascii	"msg\000"
 2063 0a93 06       		.byte	0x6
 2064 0a94 57       		.byte	0x57
 2065 0a95 32010000 		.4byte	0x132
 2066 0a99 02       		.uleb128 0x2
 2067 0a9a 91       		.byte	0x91
 2068 0a9b 68       		.sleb128 -24
 2069 0a9c 21       		.uleb128 0x21
 2070 0a9d 63747000 		.ascii	"ctp\000"
 2071 0aa1 06       		.byte	0x6
 2072 0aa2 58       		.byte	0x58
 2073 0aa3 A2020000 		.4byte	0x2a2
 2074 0aa7 02       		.uleb128 0x2
 2075 0aa8 91       		.byte	0x91
 2076 0aa9 70       		.sleb128 -16
 2077 0aaa 1F       		.uleb128 0x1f
 2078 0aab 5D060000 		.4byte	.LASF158
 2079 0aaf CA0A0000 		.4byte	0xaca
 2080 0ab3 05       		.uleb128 0x5
 2081 0ab4 03       		.byte	0x3
 2082 0ab5 00000000 		.4byte	__func__.7851
 2083 0ab9 00       		.byte	0
 2084 0aba 17       		.uleb128 0x17
 2085 0abb A3080000 		.4byte	0x8a3
 2086 0abf CA0A0000 		.4byte	0xaca
 2087 0ac3 18       		.uleb128 0x18
 2088 0ac4 2C000000 		.4byte	0x2c
 2089 0ac8 09       		.byte	0x9
 2090 0ac9 00       		.byte	0
 2091 0aca 1B       		.uleb128 0x1b
 2092 0acb BA0A0000 		.4byte	0xaba
 2093 0acf 22       		.uleb128 0x22
 2094 0ad0 7D080000 		.4byte	.LASF160
 2095 0ad4 05       		.byte	0x5
 2096 0ad5 6F       		.byte	0x6f
 2097 0ad6 00000000 		.4byte	.LFB202
 2098 0ada 34000000 		.4byte	.LFE202-.LFB202
 2099 0ade 01       		.uleb128 0x1
 2100 0adf 9C       		.byte	0x9c
 2101 0ae0 000B0000 		.4byte	0xb00
 2102 0ae4 1E       		.uleb128 0x1e
ARM GAS  C:\Users\PCHAUT~1\AppData\Local\Temp\ccmzKLV9.s 			page 38


 2103 0ae5 747000   		.ascii	"tp\000"
 2104 0ae8 05       		.byte	0x5
 2105 0ae9 6F       		.byte	0x6f
 2106 0aea A2020000 		.4byte	0x2a2
 2107 0aee 02       		.uleb128 0x2
 2108 0aef 91       		.byte	0x91
 2109 0af0 6C       		.sleb128 -20
 2110 0af1 1E       		.uleb128 0x1e
 2111 0af2 6D736700 		.ascii	"msg\000"
 2112 0af6 05       		.byte	0x5
 2113 0af7 6F       		.byte	0x6f
 2114 0af8 32010000 		.4byte	0x132
 2115 0afc 02       		.uleb128 0x2
 2116 0afd 91       		.byte	0x91
 2117 0afe 68       		.sleb128 -24
 2118 0aff 00       		.byte	0
 2119 0b00 23       		.uleb128 0x23
 2120 0b01 45030000 		.4byte	.LASF162
 2121 0b05 05       		.byte	0x5
 2122 0b06 4F       		.byte	0x4f
 2123 0b07 270B0000 		.4byte	0xb27
 2124 0b0b 00000000 		.4byte	.LFB200
 2125 0b0f 3C000000 		.4byte	.LFE200-.LFB200
 2126 0b13 01       		.uleb128 0x1
 2127 0b14 9C       		.byte	0x9c
 2128 0b15 270B0000 		.4byte	0xb27
 2129 0b19 1E       		.uleb128 0x1e
 2130 0b1a 747000   		.ascii	"tp\000"
 2131 0b1d 05       		.byte	0x5
 2132 0b1e 4F       		.byte	0x4f
 2133 0b1f A2020000 		.4byte	0x2a2
 2134 0b23 02       		.uleb128 0x2
 2135 0b24 91       		.byte	0x91
 2136 0b25 6C       		.sleb128 -20
 2137 0b26 00       		.byte	0
 2138 0b27 03       		.uleb128 0x3
 2139 0b28 01       		.byte	0x1
 2140 0b29 02       		.byte	0x2
 2141 0b2a E7050000 		.4byte	.LASF159
 2142 0b2e 24       		.uleb128 0x24
 2143 0b2f 66080000 		.4byte	.LASF161
 2144 0b33 04       		.byte	0x4
 2145 0b34 6601     		.2byte	0x166
 2146 0b36 00000000 		.4byte	.LFB146
 2147 0b3a 58000000 		.4byte	.LFE146-.LFB146
 2148 0b3e 01       		.uleb128 0x1
 2149 0b3f 9C       		.byte	0x9c
 2150 0b40 540B0000 		.4byte	0xb54
 2151 0b44 1F       		.uleb128 0x1f
 2152 0b45 5D060000 		.4byte	.LASF158
 2153 0b49 640B0000 		.4byte	0xb64
 2154 0b4d 05       		.uleb128 0x5
 2155 0b4e 03       		.byte	0x3
 2156 0b4f 00000000 		.4byte	__func__.7153
 2157 0b53 00       		.byte	0
 2158 0b54 17       		.uleb128 0x17
 2159 0b55 A3080000 		.4byte	0x8a3
ARM GAS  C:\Users\PCHAUT~1\AppData\Local\Temp\ccmzKLV9.s 			page 39


 2160 0b59 640B0000 		.4byte	0xb64
 2161 0b5d 18       		.uleb128 0x18
 2162 0b5e 2C000000 		.4byte	0x2c
 2163 0b62 0B       		.byte	0xb
 2164 0b63 00       		.byte	0
 2165 0b64 1B       		.uleb128 0x1b
 2166 0b65 540B0000 		.4byte	0xb54
 2167 0b69 25       		.uleb128 0x25
 2168 0b6a 6E060000 		.4byte	.LASF171
 2169 0b6e 04       		.byte	0x4
 2170 0b6f 5A01     		.2byte	0x15a
 2171 0b71 00000000 		.4byte	.LFB145
 2172 0b75 30000000 		.4byte	.LFE145-.LFB145
 2173 0b79 01       		.uleb128 0x1
 2174 0b7a 9C       		.byte	0x9c
 2175 0b7b 26       		.uleb128 0x26
 2176 0b7c 65070000 		.4byte	.LASF163
 2177 0b80 03       		.byte	0x3
 2178 0b81 9F02     		.2byte	0x29f
 2179 0b83 A2020000 		.4byte	0x2a2
 2180 0b87 00000000 		.4byte	.LFB135
 2181 0b8b 40000000 		.4byte	.LFE135-.LFB135
 2182 0b8f 01       		.uleb128 0x1
 2183 0b90 9C       		.byte	0x9c
 2184 0b91 B30B0000 		.4byte	0xbb3
 2185 0b95 27       		.uleb128 0x27
 2186 0b96 74717000 		.ascii	"tqp\000"
 2187 0b9a 03       		.byte	0x3
 2188 0b9b 9F02     		.2byte	0x29f
 2189 0b9d B30B0000 		.4byte	0xbb3
 2190 0ba1 02       		.uleb128 0x2
 2191 0ba2 91       		.byte	0x91
 2192 0ba3 6C       		.sleb128 -20
 2193 0ba4 28       		.uleb128 0x28
 2194 0ba5 747000   		.ascii	"tp\000"
 2195 0ba8 03       		.byte	0x3
 2196 0ba9 A002     		.2byte	0x2a0
 2197 0bab A2020000 		.4byte	0x2a2
 2198 0baf 02       		.uleb128 0x2
 2199 0bb0 91       		.byte	0x91
 2200 0bb1 70       		.sleb128 -16
 2201 0bb2 00       		.byte	0
 2202 0bb3 0A       		.uleb128 0xa
 2203 0bb4 04       		.byte	0x4
 2204 0bb5 CC020000 		.4byte	0x2cc
 2205 0bb9 24       		.uleb128 0x24
 2206 0bba 1A000000 		.4byte	.LASF164
 2207 0bbe 03       		.byte	0x3
 2208 0bbf 9702     		.2byte	0x297
 2209 0bc1 00000000 		.4byte	.LFB134
 2210 0bc5 44000000 		.4byte	.LFE134-.LFB134
 2211 0bc9 01       		.uleb128 0x1
 2212 0bca 9C       		.byte	0x9c
 2213 0bcb ED0B0000 		.4byte	0xbed
 2214 0bcf 27       		.uleb128 0x27
 2215 0bd0 747000   		.ascii	"tp\000"
 2216 0bd3 03       		.byte	0x3
ARM GAS  C:\Users\PCHAUT~1\AppData\Local\Temp\ccmzKLV9.s 			page 40


 2217 0bd4 9702     		.2byte	0x297
 2218 0bd6 A2020000 		.4byte	0x2a2
 2219 0bda 02       		.uleb128 0x2
 2220 0bdb 91       		.byte	0x91
 2221 0bdc 6C       		.sleb128 -20
 2222 0bdd 27       		.uleb128 0x27
 2223 0bde 74717000 		.ascii	"tqp\000"
 2224 0be2 03       		.byte	0x3
 2225 0be3 9702     		.2byte	0x297
 2226 0be5 B30B0000 		.4byte	0xbb3
 2227 0be9 02       		.uleb128 0x2
 2228 0bea 91       		.byte	0x91
 2229 0beb 68       		.sleb128 -24
 2230 0bec 00       		.byte	0
 2231 0bed 24       		.uleb128 0x24
 2232 0bee B5010000 		.4byte	.LASF165
 2233 0bf2 01       		.byte	0x1
 2234 0bf3 CA01     		.2byte	0x1ca
 2235 0bf5 00000000 		.4byte	.LFB117
 2236 0bf9 30000000 		.4byte	.LFE117-.LFB117
 2237 0bfd 01       		.uleb128 0x1
 2238 0bfe 9C       		.byte	0x9c
 2239 0bff 1D0C0000 		.4byte	0xc1d
 2240 0c03 29       		.uleb128 0x29
 2241 0c04 4D0C0000 		.4byte	0xc4d
 2242 0c08 0E000000 		.4byte	.LBB8
 2243 0c0c 06000000 		.4byte	.LBE8-.LBB8
 2244 0c10 01       		.byte	0x1
 2245 0c11 CD01     		.2byte	0x1cd
 2246 0c13 2A       		.uleb128 0x2a
 2247 0c14 560C0000 		.4byte	0xc56
 2248 0c18 02       		.uleb128 0x2
 2249 0c19 91       		.byte	0x91
 2250 0c1a 70       		.sleb128 -16
 2251 0c1b 00       		.byte	0
 2252 0c1c 00       		.byte	0
 2253 0c1d 24       		.uleb128 0x24
 2254 0c1e 80000000 		.4byte	.LASF166
 2255 0c22 01       		.byte	0x1
 2256 0c23 BC01     		.2byte	0x1bc
 2257 0c25 00000000 		.4byte	.LFB116
 2258 0c29 30000000 		.4byte	.LFE116-.LFB116
 2259 0c2d 01       		.uleb128 0x1
 2260 0c2e 9C       		.byte	0x9c
 2261 0c2f 4D0C0000 		.4byte	0xc4d
 2262 0c33 29       		.uleb128 0x29
 2263 0c34 4D0C0000 		.4byte	0xc4d
 2264 0c38 0E000000 		.4byte	.LBB6
 2265 0c3c 06000000 		.4byte	.LBE6-.LBB6
 2266 0c40 01       		.byte	0x1
 2267 0c41 BF01     		.2byte	0x1bf
 2268 0c43 2A       		.uleb128 0x2a
 2269 0c44 560C0000 		.4byte	0xc56
 2270 0c48 02       		.uleb128 0x2
 2271 0c49 91       		.byte	0x91
 2272 0c4a 70       		.sleb128 -16
 2273 0c4b 00       		.byte	0
ARM GAS  C:\Users\PCHAUT~1\AppData\Local\Temp\ccmzKLV9.s 			page 41


 2274 0c4c 00       		.byte	0
 2275 0c4d 2B       		.uleb128 0x2b
 2276 0c4e A0070000 		.4byte	.LASF172
 2277 0c52 02       		.byte	0x2
 2278 0c53 2002     		.2byte	0x220
 2279 0c55 03       		.byte	0x3
 2280 0c56 2C       		.uleb128 0x2c
 2281 0c57 A4030000 		.4byte	.LASF173
 2282 0c5b 02       		.byte	0x2
 2283 0c5c 2002     		.2byte	0x220
 2284 0c5e CF000000 		.4byte	0xcf
 2285 0c62 00       		.byte	0
 2286 0c63 00       		.byte	0
 2287              		.section	.debug_abbrev,"",%progbits
 2288              	.Ldebug_abbrev0:
 2289 0000 01       		.uleb128 0x1
 2290 0001 11       		.uleb128 0x11
 2291 0002 01       		.byte	0x1
 2292 0003 25       		.uleb128 0x25
 2293 0004 0E       		.uleb128 0xe
 2294 0005 13       		.uleb128 0x13
 2295 0006 0B       		.uleb128 0xb
 2296 0007 03       		.uleb128 0x3
 2297 0008 0E       		.uleb128 0xe
 2298 0009 1B       		.uleb128 0x1b
 2299 000a 0E       		.uleb128 0xe
 2300 000b 55       		.uleb128 0x55
 2301 000c 17       		.uleb128 0x17
 2302 000d 11       		.uleb128 0x11
 2303 000e 01       		.uleb128 0x1
 2304 000f 10       		.uleb128 0x10
 2305 0010 17       		.uleb128 0x17
 2306 0011 00       		.byte	0
 2307 0012 00       		.byte	0
 2308 0013 02       		.uleb128 0x2
 2309 0014 24       		.uleb128 0x24
 2310 0015 00       		.byte	0
 2311 0016 0B       		.uleb128 0xb
 2312 0017 0B       		.uleb128 0xb
 2313 0018 3E       		.uleb128 0x3e
 2314 0019 0B       		.uleb128 0xb
 2315 001a 03       		.uleb128 0x3
 2316 001b 08       		.uleb128 0x8
 2317 001c 00       		.byte	0
 2318 001d 00       		.byte	0
 2319 001e 03       		.uleb128 0x3
 2320 001f 24       		.uleb128 0x24
 2321 0020 00       		.byte	0
 2322 0021 0B       		.uleb128 0xb
 2323 0022 0B       		.uleb128 0xb
 2324 0023 3E       		.uleb128 0x3e
 2325 0024 0B       		.uleb128 0xb
 2326 0025 03       		.uleb128 0x3
 2327 0026 0E       		.uleb128 0xe
 2328 0027 00       		.byte	0
 2329 0028 00       		.byte	0
 2330 0029 04       		.uleb128 0x4
ARM GAS  C:\Users\PCHAUT~1\AppData\Local\Temp\ccmzKLV9.s 			page 42


 2331 002a 16       		.uleb128 0x16
 2332 002b 00       		.byte	0
 2333 002c 03       		.uleb128 0x3
 2334 002d 0E       		.uleb128 0xe
 2335 002e 3A       		.uleb128 0x3a
 2336 002f 0B       		.uleb128 0xb
 2337 0030 3B       		.uleb128 0x3b
 2338 0031 0B       		.uleb128 0xb
 2339 0032 49       		.uleb128 0x49
 2340 0033 13       		.uleb128 0x13
 2341 0034 00       		.byte	0
 2342 0035 00       		.byte	0
 2343 0036 05       		.uleb128 0x5
 2344 0037 35       		.uleb128 0x35
 2345 0038 00       		.byte	0
 2346 0039 49       		.uleb128 0x49
 2347 003a 13       		.uleb128 0x13
 2348 003b 00       		.byte	0
 2349 003c 00       		.byte	0
 2350 003d 06       		.uleb128 0x6
 2351 003e 13       		.uleb128 0x13
 2352 003f 01       		.byte	0x1
 2353 0040 03       		.uleb128 0x3
 2354 0041 0E       		.uleb128 0xe
 2355 0042 0B       		.uleb128 0xb
 2356 0043 0B       		.uleb128 0xb
 2357 0044 3A       		.uleb128 0x3a
 2358 0045 0B       		.uleb128 0xb
 2359 0046 3B       		.uleb128 0x3b
 2360 0047 0B       		.uleb128 0xb
 2361 0048 01       		.uleb128 0x1
 2362 0049 13       		.uleb128 0x13
 2363 004a 00       		.byte	0
 2364 004b 00       		.byte	0
 2365 004c 07       		.uleb128 0x7
 2366 004d 0D       		.uleb128 0xd
 2367 004e 00       		.byte	0
 2368 004f 03       		.uleb128 0x3
 2369 0050 0E       		.uleb128 0xe
 2370 0051 3A       		.uleb128 0x3a
 2371 0052 0B       		.uleb128 0xb
 2372 0053 3B       		.uleb128 0x3b
 2373 0054 0B       		.uleb128 0xb
 2374 0055 49       		.uleb128 0x49
 2375 0056 13       		.uleb128 0x13
 2376 0057 38       		.uleb128 0x38
 2377 0058 0B       		.uleb128 0xb
 2378 0059 00       		.byte	0
 2379 005a 00       		.byte	0
 2380 005b 08       		.uleb128 0x8
 2381 005c 0D       		.uleb128 0xd
 2382 005d 00       		.byte	0
 2383 005e 03       		.uleb128 0x3
 2384 005f 08       		.uleb128 0x8
 2385 0060 3A       		.uleb128 0x3a
 2386 0061 0B       		.uleb128 0xb
 2387 0062 3B       		.uleb128 0x3b
ARM GAS  C:\Users\PCHAUT~1\AppData\Local\Temp\ccmzKLV9.s 			page 43


 2388 0063 05       		.uleb128 0x5
 2389 0064 49       		.uleb128 0x49
 2390 0065 13       		.uleb128 0x13
 2391 0066 38       		.uleb128 0x38
 2392 0067 0B       		.uleb128 0xb
 2393 0068 00       		.byte	0
 2394 0069 00       		.byte	0
 2395 006a 09       		.uleb128 0x9
 2396 006b 0D       		.uleb128 0xd
 2397 006c 00       		.byte	0
 2398 006d 03       		.uleb128 0x3
 2399 006e 0E       		.uleb128 0xe
 2400 006f 3A       		.uleb128 0x3a
 2401 0070 0B       		.uleb128 0xb
 2402 0071 3B       		.uleb128 0x3b
 2403 0072 05       		.uleb128 0x5
 2404 0073 49       		.uleb128 0x49
 2405 0074 13       		.uleb128 0x13
 2406 0075 38       		.uleb128 0x38
 2407 0076 0B       		.uleb128 0xb
 2408 0077 00       		.byte	0
 2409 0078 00       		.byte	0
 2410 0079 0A       		.uleb128 0xa
 2411 007a 0F       		.uleb128 0xf
 2412 007b 00       		.byte	0
 2413 007c 0B       		.uleb128 0xb
 2414 007d 0B       		.uleb128 0xb
 2415 007e 49       		.uleb128 0x49
 2416 007f 13       		.uleb128 0x13
 2417 0080 00       		.byte	0
 2418 0081 00       		.byte	0
 2419 0082 0B       		.uleb128 0xb
 2420 0083 13       		.uleb128 0x13
 2421 0084 01       		.byte	0x1
 2422 0085 03       		.uleb128 0x3
 2423 0086 0E       		.uleb128 0xe
 2424 0087 0B       		.uleb128 0xb
 2425 0088 0B       		.uleb128 0xb
 2426 0089 3A       		.uleb128 0x3a
 2427 008a 0B       		.uleb128 0xb
 2428 008b 3B       		.uleb128 0x3b
 2429 008c 05       		.uleb128 0x5
 2430 008d 01       		.uleb128 0x1
 2431 008e 13       		.uleb128 0x13
 2432 008f 00       		.byte	0
 2433 0090 00       		.byte	0
 2434 0091 0C       		.uleb128 0xc
 2435 0092 15       		.uleb128 0x15
 2436 0093 01       		.byte	0x1
 2437 0094 27       		.uleb128 0x27
 2438 0095 19       		.uleb128 0x19
 2439 0096 01       		.uleb128 0x1
 2440 0097 13       		.uleb128 0x13
 2441 0098 00       		.byte	0
 2442 0099 00       		.byte	0
 2443 009a 0D       		.uleb128 0xd
 2444 009b 05       		.uleb128 0x5
ARM GAS  C:\Users\PCHAUT~1\AppData\Local\Temp\ccmzKLV9.s 			page 44


 2445 009c 00       		.byte	0
 2446 009d 49       		.uleb128 0x49
 2447 009e 13       		.uleb128 0x13
 2448 009f 00       		.byte	0
 2449 00a0 00       		.byte	0
 2450 00a1 0E       		.uleb128 0xe
 2451 00a2 0F       		.uleb128 0xf
 2452 00a3 00       		.byte	0
 2453 00a4 0B       		.uleb128 0xb
 2454 00a5 0B       		.uleb128 0xb
 2455 00a6 00       		.byte	0
 2456 00a7 00       		.byte	0
 2457 00a8 0F       		.uleb128 0xf
 2458 00a9 13       		.uleb128 0x13
 2459 00aa 01       		.byte	0x1
 2460 00ab 03       		.uleb128 0x3
 2461 00ac 0E       		.uleb128 0xe
 2462 00ad 0B       		.uleb128 0xb
 2463 00ae 05       		.uleb128 0x5
 2464 00af 3A       		.uleb128 0x3a
 2465 00b0 0B       		.uleb128 0xb
 2466 00b1 3B       		.uleb128 0x3b
 2467 00b2 05       		.uleb128 0x5
 2468 00b3 01       		.uleb128 0x1
 2469 00b4 13       		.uleb128 0x13
 2470 00b5 00       		.byte	0
 2471 00b6 00       		.byte	0
 2472 00b7 10       		.uleb128 0x10
 2473 00b8 0D       		.uleb128 0xd
 2474 00b9 00       		.byte	0
 2475 00ba 03       		.uleb128 0x3
 2476 00bb 0E       		.uleb128 0xe
 2477 00bc 3A       		.uleb128 0x3a
 2478 00bd 0B       		.uleb128 0xb
 2479 00be 3B       		.uleb128 0x3b
 2480 00bf 05       		.uleb128 0x5
 2481 00c0 49       		.uleb128 0x49
 2482 00c1 13       		.uleb128 0x13
 2483 00c2 38       		.uleb128 0x38
 2484 00c3 05       		.uleb128 0x5
 2485 00c4 00       		.byte	0
 2486 00c5 00       		.byte	0
 2487 00c6 11       		.uleb128 0x11
 2488 00c7 0D       		.uleb128 0xd
 2489 00c8 00       		.byte	0
 2490 00c9 03       		.uleb128 0x3
 2491 00ca 08       		.uleb128 0x8
 2492 00cb 3A       		.uleb128 0x3a
 2493 00cc 0B       		.uleb128 0xb
 2494 00cd 3B       		.uleb128 0x3b
 2495 00ce 05       		.uleb128 0x5
 2496 00cf 49       		.uleb128 0x49
 2497 00d0 13       		.uleb128 0x13
 2498 00d1 38       		.uleb128 0x38
 2499 00d2 05       		.uleb128 0x5
 2500 00d3 00       		.byte	0
 2501 00d4 00       		.byte	0
ARM GAS  C:\Users\PCHAUT~1\AppData\Local\Temp\ccmzKLV9.s 			page 45


 2502 00d5 12       		.uleb128 0x12
 2503 00d6 34       		.uleb128 0x34
 2504 00d7 00       		.byte	0
 2505 00d8 03       		.uleb128 0x3
 2506 00d9 0E       		.uleb128 0xe
 2507 00da 3A       		.uleb128 0x3a
 2508 00db 0B       		.uleb128 0xb
 2509 00dc 3B       		.uleb128 0x3b
 2510 00dd 05       		.uleb128 0x5
 2511 00de 49       		.uleb128 0x49
 2512 00df 13       		.uleb128 0x13
 2513 00e0 3F       		.uleb128 0x3f
 2514 00e1 19       		.uleb128 0x19
 2515 00e2 3C       		.uleb128 0x3c
 2516 00e3 19       		.uleb128 0x19
 2517 00e4 00       		.byte	0
 2518 00e5 00       		.byte	0
 2519 00e6 13       		.uleb128 0x13
 2520 00e7 34       		.uleb128 0x34
 2521 00e8 00       		.byte	0
 2522 00e9 03       		.uleb128 0x3
 2523 00ea 0E       		.uleb128 0xe
 2524 00eb 3A       		.uleb128 0x3a
 2525 00ec 0B       		.uleb128 0xb
 2526 00ed 3B       		.uleb128 0x3b
 2527 00ee 0B       		.uleb128 0xb
 2528 00ef 49       		.uleb128 0x49
 2529 00f0 13       		.uleb128 0x13
 2530 00f1 3F       		.uleb128 0x3f
 2531 00f2 19       		.uleb128 0x19
 2532 00f3 3C       		.uleb128 0x3c
 2533 00f4 19       		.uleb128 0x19
 2534 00f5 00       		.byte	0
 2535 00f6 00       		.byte	0
 2536 00f7 14       		.uleb128 0x14
 2537 00f8 0D       		.uleb128 0xd
 2538 00f9 00       		.byte	0
 2539 00fa 03       		.uleb128 0x3
 2540 00fb 08       		.uleb128 0x8
 2541 00fc 3A       		.uleb128 0x3a
 2542 00fd 0B       		.uleb128 0xb
 2543 00fe 3B       		.uleb128 0x3b
 2544 00ff 0B       		.uleb128 0xb
 2545 0100 49       		.uleb128 0x49
 2546 0101 13       		.uleb128 0x13
 2547 0102 38       		.uleb128 0x38
 2548 0103 0B       		.uleb128 0xb
 2549 0104 00       		.byte	0
 2550 0105 00       		.byte	0
 2551 0106 15       		.uleb128 0x15
 2552 0107 13       		.uleb128 0x13
 2553 0108 01       		.byte	0x1
 2554 0109 0B       		.uleb128 0xb
 2555 010a 0B       		.uleb128 0xb
 2556 010b 3A       		.uleb128 0x3a
 2557 010c 0B       		.uleb128 0xb
 2558 010d 3B       		.uleb128 0x3b
ARM GAS  C:\Users\PCHAUT~1\AppData\Local\Temp\ccmzKLV9.s 			page 46


 2559 010e 0B       		.uleb128 0xb
 2560 010f 01       		.uleb128 0x1
 2561 0110 13       		.uleb128 0x13
 2562 0111 00       		.byte	0
 2563 0112 00       		.byte	0
 2564 0113 16       		.uleb128 0x16
 2565 0114 13       		.uleb128 0x13
 2566 0115 01       		.byte	0x1
 2567 0116 0B       		.uleb128 0xb
 2568 0117 05       		.uleb128 0x5
 2569 0118 3A       		.uleb128 0x3a
 2570 0119 0B       		.uleb128 0xb
 2571 011a 3B       		.uleb128 0x3b
 2572 011b 0B       		.uleb128 0xb
 2573 011c 01       		.uleb128 0x1
 2574 011d 13       		.uleb128 0x13
 2575 011e 00       		.byte	0
 2576 011f 00       		.byte	0
 2577 0120 17       		.uleb128 0x17
 2578 0121 01       		.uleb128 0x1
 2579 0122 01       		.byte	0x1
 2580 0123 49       		.uleb128 0x49
 2581 0124 13       		.uleb128 0x13
 2582 0125 01       		.uleb128 0x1
 2583 0126 13       		.uleb128 0x13
 2584 0127 00       		.byte	0
 2585 0128 00       		.byte	0
 2586 0129 18       		.uleb128 0x18
 2587 012a 21       		.uleb128 0x21
 2588 012b 00       		.byte	0
 2589 012c 49       		.uleb128 0x49
 2590 012d 13       		.uleb128 0x13
 2591 012e 2F       		.uleb128 0x2f
 2592 012f 0B       		.uleb128 0xb
 2593 0130 00       		.byte	0
 2594 0131 00       		.byte	0
 2595 0132 19       		.uleb128 0x19
 2596 0133 17       		.uleb128 0x17
 2597 0134 01       		.byte	0x1
 2598 0135 0B       		.uleb128 0xb
 2599 0136 0B       		.uleb128 0xb
 2600 0137 3A       		.uleb128 0x3a
 2601 0138 0B       		.uleb128 0xb
 2602 0139 3B       		.uleb128 0x3b
 2603 013a 0B       		.uleb128 0xb
 2604 013b 01       		.uleb128 0x1
 2605 013c 13       		.uleb128 0x13
 2606 013d 00       		.byte	0
 2607 013e 00       		.byte	0
 2608 013f 1A       		.uleb128 0x1a
 2609 0140 0D       		.uleb128 0xd
 2610 0141 00       		.byte	0
 2611 0142 03       		.uleb128 0x3
 2612 0143 0E       		.uleb128 0xe
 2613 0144 3A       		.uleb128 0x3a
 2614 0145 0B       		.uleb128 0xb
 2615 0146 3B       		.uleb128 0x3b
ARM GAS  C:\Users\PCHAUT~1\AppData\Local\Temp\ccmzKLV9.s 			page 47


 2616 0147 05       		.uleb128 0x5
 2617 0148 49       		.uleb128 0x49
 2618 0149 13       		.uleb128 0x13
 2619 014a 00       		.byte	0
 2620 014b 00       		.byte	0
 2621 014c 1B       		.uleb128 0x1b
 2622 014d 26       		.uleb128 0x26
 2623 014e 00       		.byte	0
 2624 014f 49       		.uleb128 0x49
 2625 0150 13       		.uleb128 0x13
 2626 0151 00       		.byte	0
 2627 0152 00       		.byte	0
 2628 0153 1C       		.uleb128 0x1c
 2629 0154 34       		.uleb128 0x34
 2630 0155 00       		.byte	0
 2631 0156 03       		.uleb128 0x3
 2632 0157 08       		.uleb128 0x8
 2633 0158 3A       		.uleb128 0x3a
 2634 0159 0B       		.uleb128 0xb
 2635 015a 3B       		.uleb128 0x3b
 2636 015b 05       		.uleb128 0x5
 2637 015c 49       		.uleb128 0x49
 2638 015d 13       		.uleb128 0x13
 2639 015e 3F       		.uleb128 0x3f
 2640 015f 19       		.uleb128 0x19
 2641 0160 3C       		.uleb128 0x3c
 2642 0161 19       		.uleb128 0x19
 2643 0162 00       		.byte	0
 2644 0163 00       		.byte	0
 2645 0164 1D       		.uleb128 0x1d
 2646 0165 2E       		.uleb128 0x2e
 2647 0166 01       		.byte	0x1
 2648 0167 3F       		.uleb128 0x3f
 2649 0168 19       		.uleb128 0x19
 2650 0169 03       		.uleb128 0x3
 2651 016a 0E       		.uleb128 0xe
 2652 016b 3A       		.uleb128 0x3a
 2653 016c 0B       		.uleb128 0xb
 2654 016d 3B       		.uleb128 0x3b
 2655 016e 0B       		.uleb128 0xb
 2656 016f 27       		.uleb128 0x27
 2657 0170 19       		.uleb128 0x19
 2658 0171 11       		.uleb128 0x11
 2659 0172 01       		.uleb128 0x1
 2660 0173 12       		.uleb128 0x12
 2661 0174 06       		.uleb128 0x6
 2662 0175 40       		.uleb128 0x40
 2663 0176 18       		.uleb128 0x18
 2664 0177 9642     		.uleb128 0x2116
 2665 0179 19       		.uleb128 0x19
 2666 017a 01       		.uleb128 0x1
 2667 017b 13       		.uleb128 0x13
 2668 017c 00       		.byte	0
 2669 017d 00       		.byte	0
 2670 017e 1E       		.uleb128 0x1e
 2671 017f 05       		.uleb128 0x5
 2672 0180 00       		.byte	0
ARM GAS  C:\Users\PCHAUT~1\AppData\Local\Temp\ccmzKLV9.s 			page 48


 2673 0181 03       		.uleb128 0x3
 2674 0182 08       		.uleb128 0x8
 2675 0183 3A       		.uleb128 0x3a
 2676 0184 0B       		.uleb128 0xb
 2677 0185 3B       		.uleb128 0x3b
 2678 0186 0B       		.uleb128 0xb
 2679 0187 49       		.uleb128 0x49
 2680 0188 13       		.uleb128 0x13
 2681 0189 02       		.uleb128 0x2
 2682 018a 18       		.uleb128 0x18
 2683 018b 00       		.byte	0
 2684 018c 00       		.byte	0
 2685 018d 1F       		.uleb128 0x1f
 2686 018e 34       		.uleb128 0x34
 2687 018f 00       		.byte	0
 2688 0190 03       		.uleb128 0x3
 2689 0191 0E       		.uleb128 0xe
 2690 0192 49       		.uleb128 0x49
 2691 0193 13       		.uleb128 0x13
 2692 0194 34       		.uleb128 0x34
 2693 0195 19       		.uleb128 0x19
 2694 0196 02       		.uleb128 0x2
 2695 0197 18       		.uleb128 0x18
 2696 0198 00       		.byte	0
 2697 0199 00       		.byte	0
 2698 019a 20       		.uleb128 0x20
 2699 019b 2E       		.uleb128 0x2e
 2700 019c 01       		.byte	0x1
 2701 019d 3F       		.uleb128 0x3f
 2702 019e 19       		.uleb128 0x19
 2703 019f 03       		.uleb128 0x3
 2704 01a0 0E       		.uleb128 0xe
 2705 01a1 3A       		.uleb128 0x3a
 2706 01a2 0B       		.uleb128 0xb
 2707 01a3 3B       		.uleb128 0x3b
 2708 01a4 0B       		.uleb128 0xb
 2709 01a5 27       		.uleb128 0x27
 2710 01a6 19       		.uleb128 0x19
 2711 01a7 49       		.uleb128 0x49
 2712 01a8 13       		.uleb128 0x13
 2713 01a9 11       		.uleb128 0x11
 2714 01aa 01       		.uleb128 0x1
 2715 01ab 12       		.uleb128 0x12
 2716 01ac 06       		.uleb128 0x6
 2717 01ad 40       		.uleb128 0x40
 2718 01ae 18       		.uleb128 0x18
 2719 01af 9642     		.uleb128 0x2116
 2720 01b1 19       		.uleb128 0x19
 2721 01b2 01       		.uleb128 0x1
 2722 01b3 13       		.uleb128 0x13
 2723 01b4 00       		.byte	0
 2724 01b5 00       		.byte	0
 2725 01b6 21       		.uleb128 0x21
 2726 01b7 34       		.uleb128 0x34
 2727 01b8 00       		.byte	0
 2728 01b9 03       		.uleb128 0x3
 2729 01ba 08       		.uleb128 0x8
ARM GAS  C:\Users\PCHAUT~1\AppData\Local\Temp\ccmzKLV9.s 			page 49


 2730 01bb 3A       		.uleb128 0x3a
 2731 01bc 0B       		.uleb128 0xb
 2732 01bd 3B       		.uleb128 0x3b
 2733 01be 0B       		.uleb128 0xb
 2734 01bf 49       		.uleb128 0x49
 2735 01c0 13       		.uleb128 0x13
 2736 01c1 02       		.uleb128 0x2
 2737 01c2 18       		.uleb128 0x18
 2738 01c3 00       		.byte	0
 2739 01c4 00       		.byte	0
 2740 01c5 22       		.uleb128 0x22
 2741 01c6 2E       		.uleb128 0x2e
 2742 01c7 01       		.byte	0x1
 2743 01c8 03       		.uleb128 0x3
 2744 01c9 0E       		.uleb128 0xe
 2745 01ca 3A       		.uleb128 0x3a
 2746 01cb 0B       		.uleb128 0xb
 2747 01cc 3B       		.uleb128 0x3b
 2748 01cd 0B       		.uleb128 0xb
 2749 01ce 27       		.uleb128 0x27
 2750 01cf 19       		.uleb128 0x19
 2751 01d0 11       		.uleb128 0x11
 2752 01d1 01       		.uleb128 0x1
 2753 01d2 12       		.uleb128 0x12
 2754 01d3 06       		.uleb128 0x6
 2755 01d4 40       		.uleb128 0x40
 2756 01d5 18       		.uleb128 0x18
 2757 01d6 9642     		.uleb128 0x2116
 2758 01d8 19       		.uleb128 0x19
 2759 01d9 01       		.uleb128 0x1
 2760 01da 13       		.uleb128 0x13
 2761 01db 00       		.byte	0
 2762 01dc 00       		.byte	0
 2763 01dd 23       		.uleb128 0x23
 2764 01de 2E       		.uleb128 0x2e
 2765 01df 01       		.byte	0x1
 2766 01e0 03       		.uleb128 0x3
 2767 01e1 0E       		.uleb128 0xe
 2768 01e2 3A       		.uleb128 0x3a
 2769 01e3 0B       		.uleb128 0xb
 2770 01e4 3B       		.uleb128 0x3b
 2771 01e5 0B       		.uleb128 0xb
 2772 01e6 27       		.uleb128 0x27
 2773 01e7 19       		.uleb128 0x19
 2774 01e8 49       		.uleb128 0x49
 2775 01e9 13       		.uleb128 0x13
 2776 01ea 11       		.uleb128 0x11
 2777 01eb 01       		.uleb128 0x1
 2778 01ec 12       		.uleb128 0x12
 2779 01ed 06       		.uleb128 0x6
 2780 01ee 40       		.uleb128 0x40
 2781 01ef 18       		.uleb128 0x18
 2782 01f0 9642     		.uleb128 0x2116
 2783 01f2 19       		.uleb128 0x19
 2784 01f3 01       		.uleb128 0x1
 2785 01f4 13       		.uleb128 0x13
 2786 01f5 00       		.byte	0
ARM GAS  C:\Users\PCHAUT~1\AppData\Local\Temp\ccmzKLV9.s 			page 50


 2787 01f6 00       		.byte	0
 2788 01f7 24       		.uleb128 0x24
 2789 01f8 2E       		.uleb128 0x2e
 2790 01f9 01       		.byte	0x1
 2791 01fa 03       		.uleb128 0x3
 2792 01fb 0E       		.uleb128 0xe
 2793 01fc 3A       		.uleb128 0x3a
 2794 01fd 0B       		.uleb128 0xb
 2795 01fe 3B       		.uleb128 0x3b
 2796 01ff 05       		.uleb128 0x5
 2797 0200 27       		.uleb128 0x27
 2798 0201 19       		.uleb128 0x19
 2799 0202 11       		.uleb128 0x11
 2800 0203 01       		.uleb128 0x1
 2801 0204 12       		.uleb128 0x12
 2802 0205 06       		.uleb128 0x6
 2803 0206 40       		.uleb128 0x40
 2804 0207 18       		.uleb128 0x18
 2805 0208 9642     		.uleb128 0x2116
 2806 020a 19       		.uleb128 0x19
 2807 020b 01       		.uleb128 0x1
 2808 020c 13       		.uleb128 0x13
 2809 020d 00       		.byte	0
 2810 020e 00       		.byte	0
 2811 020f 25       		.uleb128 0x25
 2812 0210 2E       		.uleb128 0x2e
 2813 0211 00       		.byte	0
 2814 0212 03       		.uleb128 0x3
 2815 0213 0E       		.uleb128 0xe
 2816 0214 3A       		.uleb128 0x3a
 2817 0215 0B       		.uleb128 0xb
 2818 0216 3B       		.uleb128 0x3b
 2819 0217 05       		.uleb128 0x5
 2820 0218 27       		.uleb128 0x27
 2821 0219 19       		.uleb128 0x19
 2822 021a 11       		.uleb128 0x11
 2823 021b 01       		.uleb128 0x1
 2824 021c 12       		.uleb128 0x12
 2825 021d 06       		.uleb128 0x6
 2826 021e 40       		.uleb128 0x40
 2827 021f 18       		.uleb128 0x18
 2828 0220 9642     		.uleb128 0x2116
 2829 0222 19       		.uleb128 0x19
 2830 0223 00       		.byte	0
 2831 0224 00       		.byte	0
 2832 0225 26       		.uleb128 0x26
 2833 0226 2E       		.uleb128 0x2e
 2834 0227 01       		.byte	0x1
 2835 0228 03       		.uleb128 0x3
 2836 0229 0E       		.uleb128 0xe
 2837 022a 3A       		.uleb128 0x3a
 2838 022b 0B       		.uleb128 0xb
 2839 022c 3B       		.uleb128 0x3b
 2840 022d 05       		.uleb128 0x5
 2841 022e 27       		.uleb128 0x27
 2842 022f 19       		.uleb128 0x19
 2843 0230 49       		.uleb128 0x49
ARM GAS  C:\Users\PCHAUT~1\AppData\Local\Temp\ccmzKLV9.s 			page 51


 2844 0231 13       		.uleb128 0x13
 2845 0232 11       		.uleb128 0x11
 2846 0233 01       		.uleb128 0x1
 2847 0234 12       		.uleb128 0x12
 2848 0235 06       		.uleb128 0x6
 2849 0236 40       		.uleb128 0x40
 2850 0237 18       		.uleb128 0x18
 2851 0238 9642     		.uleb128 0x2116
 2852 023a 19       		.uleb128 0x19
 2853 023b 01       		.uleb128 0x1
 2854 023c 13       		.uleb128 0x13
 2855 023d 00       		.byte	0
 2856 023e 00       		.byte	0
 2857 023f 27       		.uleb128 0x27
 2858 0240 05       		.uleb128 0x5
 2859 0241 00       		.byte	0
 2860 0242 03       		.uleb128 0x3
 2861 0243 08       		.uleb128 0x8
 2862 0244 3A       		.uleb128 0x3a
 2863 0245 0B       		.uleb128 0xb
 2864 0246 3B       		.uleb128 0x3b
 2865 0247 05       		.uleb128 0x5
 2866 0248 49       		.uleb128 0x49
 2867 0249 13       		.uleb128 0x13
 2868 024a 02       		.uleb128 0x2
 2869 024b 18       		.uleb128 0x18
 2870 024c 00       		.byte	0
 2871 024d 00       		.byte	0
 2872 024e 28       		.uleb128 0x28
 2873 024f 34       		.uleb128 0x34
 2874 0250 00       		.byte	0
 2875 0251 03       		.uleb128 0x3
 2876 0252 08       		.uleb128 0x8
 2877 0253 3A       		.uleb128 0x3a
 2878 0254 0B       		.uleb128 0xb
 2879 0255 3B       		.uleb128 0x3b
 2880 0256 05       		.uleb128 0x5
 2881 0257 49       		.uleb128 0x49
 2882 0258 13       		.uleb128 0x13
 2883 0259 02       		.uleb128 0x2
 2884 025a 18       		.uleb128 0x18
 2885 025b 00       		.byte	0
 2886 025c 00       		.byte	0
 2887 025d 29       		.uleb128 0x29
 2888 025e 1D       		.uleb128 0x1d
 2889 025f 01       		.byte	0x1
 2890 0260 31       		.uleb128 0x31
 2891 0261 13       		.uleb128 0x13
 2892 0262 11       		.uleb128 0x11
 2893 0263 01       		.uleb128 0x1
 2894 0264 12       		.uleb128 0x12
 2895 0265 06       		.uleb128 0x6
 2896 0266 58       		.uleb128 0x58
 2897 0267 0B       		.uleb128 0xb
 2898 0268 59       		.uleb128 0x59
 2899 0269 05       		.uleb128 0x5
 2900 026a 00       		.byte	0
ARM GAS  C:\Users\PCHAUT~1\AppData\Local\Temp\ccmzKLV9.s 			page 52


 2901 026b 00       		.byte	0
 2902 026c 2A       		.uleb128 0x2a
 2903 026d 05       		.uleb128 0x5
 2904 026e 00       		.byte	0
 2905 026f 31       		.uleb128 0x31
 2906 0270 13       		.uleb128 0x13
 2907 0271 02       		.uleb128 0x2
 2908 0272 18       		.uleb128 0x18
 2909 0273 00       		.byte	0
 2910 0274 00       		.byte	0
 2911 0275 2B       		.uleb128 0x2b
 2912 0276 2E       		.uleb128 0x2e
 2913 0277 01       		.byte	0x1
 2914 0278 03       		.uleb128 0x3
 2915 0279 0E       		.uleb128 0xe
 2916 027a 3A       		.uleb128 0x3a
 2917 027b 0B       		.uleb128 0xb
 2918 027c 3B       		.uleb128 0x3b
 2919 027d 05       		.uleb128 0x5
 2920 027e 27       		.uleb128 0x27
 2921 027f 19       		.uleb128 0x19
 2922 0280 20       		.uleb128 0x20
 2923 0281 0B       		.uleb128 0xb
 2924 0282 00       		.byte	0
 2925 0283 00       		.byte	0
 2926 0284 2C       		.uleb128 0x2c
 2927 0285 05       		.uleb128 0x5
 2928 0286 00       		.byte	0
 2929 0287 03       		.uleb128 0x3
 2930 0288 0E       		.uleb128 0xe
 2931 0289 3A       		.uleb128 0x3a
 2932 028a 0B       		.uleb128 0xb
 2933 028b 3B       		.uleb128 0x3b
 2934 028c 05       		.uleb128 0x5
 2935 028d 49       		.uleb128 0x49
 2936 028e 13       		.uleb128 0x13
 2937 028f 00       		.byte	0
 2938 0290 00       		.byte	0
 2939 0291 00       		.byte	0
 2940              		.section	.debug_aranges,"",%progbits
 2941 0000 6C000000 		.4byte	0x6c
 2942 0004 0200     		.2byte	0x2
 2943 0006 00000000 		.4byte	.Ldebug_info0
 2944 000a 04       		.byte	0x4
 2945 000b 00       		.byte	0
 2946 000c 0000     		.2byte	0
 2947 000e 0000     		.2byte	0
 2948 0010 00000000 		.4byte	.LFB116
 2949 0014 30000000 		.4byte	.LFE116-.LFB116
 2950 0018 00000000 		.4byte	.LFB117
 2951 001c 30000000 		.4byte	.LFE117-.LFB117
 2952 0020 00000000 		.4byte	.LFB134
 2953 0024 44000000 		.4byte	.LFE134-.LFB134
 2954 0028 00000000 		.4byte	.LFB135
 2955 002c 40000000 		.4byte	.LFE135-.LFB135
 2956 0030 00000000 		.4byte	.LFB145
 2957 0034 30000000 		.4byte	.LFE145-.LFB145
ARM GAS  C:\Users\PCHAUT~1\AppData\Local\Temp\ccmzKLV9.s 			page 53


 2958 0038 00000000 		.4byte	.LFB146
 2959 003c 58000000 		.4byte	.LFE146-.LFB146
 2960 0040 00000000 		.4byte	.LFB200
 2961 0044 3C000000 		.4byte	.LFE200-.LFB200
 2962 0048 00000000 		.4byte	.LFB202
 2963 004c 34000000 		.4byte	.LFE202-.LFB202
 2964 0050 00000000 		.4byte	.LFB219
 2965 0054 84000000 		.4byte	.LFE219-.LFB219
 2966 0058 00000000 		.4byte	.LFB220
 2967 005c 64000000 		.4byte	.LFE220-.LFB220
 2968 0060 00000000 		.4byte	.LFB221
 2969 0064 4C000000 		.4byte	.LFE221-.LFB221
 2970 0068 00000000 		.4byte	0
 2971 006c 00000000 		.4byte	0
 2972              		.section	.debug_ranges,"",%progbits
 2973              	.Ldebug_ranges0:
 2974 0000 00000000 		.4byte	.LFB116
 2975 0004 30000000 		.4byte	.LFE116
 2976 0008 00000000 		.4byte	.LFB117
 2977 000c 30000000 		.4byte	.LFE117
 2978 0010 00000000 		.4byte	.LFB134
 2979 0014 44000000 		.4byte	.LFE134
 2980 0018 00000000 		.4byte	.LFB135
 2981 001c 40000000 		.4byte	.LFE135
 2982 0020 00000000 		.4byte	.LFB145
 2983 0024 30000000 		.4byte	.LFE145
 2984 0028 00000000 		.4byte	.LFB146
 2985 002c 58000000 		.4byte	.LFE146
 2986 0030 00000000 		.4byte	.LFB200
 2987 0034 3C000000 		.4byte	.LFE200
 2988 0038 00000000 		.4byte	.LFB202
 2989 003c 34000000 		.4byte	.LFE202
 2990 0040 00000000 		.4byte	.LFB219
 2991 0044 84000000 		.4byte	.LFE219
 2992 0048 00000000 		.4byte	.LFB220
 2993 004c 64000000 		.4byte	.LFE220
 2994 0050 00000000 		.4byte	.LFB221
 2995 0054 4C000000 		.4byte	.LFE221
 2996 0058 00000000 		.4byte	0
 2997 005c 00000000 		.4byte	0
 2998              		.section	.debug_line,"",%progbits
 2999              	.Ldebug_line0:
 3000 0000 B0040000 		.section	.debug_str,"MS",%progbits,1
 3000      02007A03 
 3000      00000201 
 3000      FB0E0D00 
 3000      01010101 
 3001              	.LASF145:
 3002 0000 63665F6F 		.ascii	"cf_off_older\000"
 3002      66665F6F 
 3002      6C646572 
 3002      00
 3003              	.LASF60:
 3004 000d 72656164 		.ascii	"ready_list_t\000"
 3004      795F6C69 
 3004      73745F74 
 3004      00
ARM GAS  C:\Users\PCHAUT~1\AppData\Local\Temp\ccmzKLV9.s 			page 54


 3005              	.LASF164:
 3006 001a 71756575 		.ascii	"queue_insert\000"
 3006      655F696E 
 3006      73657274 
 3006      00
 3007              	.LASF122:
 3008 0027 77747472 		.ascii	"wttrp\000"
 3008      7000
 3009              	.LASF119:
 3010 002d 7264796D 		.ascii	"rdymsg\000"
 3010      736700
 3011              	.LASF19:
 3012 0034 75696E74 		.ascii	"uint64_t\000"
 3012      36345F74 
 3012      00
 3013              	.LASF90:
 3014 003d 6B65726E 		.ascii	"kernel_stats\000"
 3014      656C5F73 
 3014      74617473 
 3014      00
 3015              	.LASF6:
 3016 004a 5F5F7569 		.ascii	"__uint8_t\000"
 3016      6E74385F 
 3016      7400
 3017              	.LASF97:
 3018 0054 706F7274 		.ascii	"port_intctx\000"
 3018      5F696E74 
 3018      63747800 
 3019              	.LASF59:
 3020 0060 63685F74 		.ascii	"ch_threads_queue\000"
 3020      68726561 
 3020      64735F71 
 3020      75657565 
 3020      00
 3021              	.LASF79:
 3022 0071 73797374 		.ascii	"system_debug_t\000"
 3022      656D5F64 
 3022      65627567 
 3022      5F7400
 3023              	.LASF166:
 3024 0080 706F7274 		.ascii	"port_lock\000"
 3024      5F6C6F63 
 3024      6B00
 3025              	.LASF110:
 3026 008a 776F7273 		.ascii	"worst\000"
 3026      7400
 3027              	.LASF113:
 3028 0090 74696D65 		.ascii	"time_measurement_t\000"
 3028      5F6D6561 
 3028      73757265 
 3028      6D656E74 
 3028      5F7400
 3029              	.LASF168:
 3030 00a3 2E2E2F6C 		.ascii	"../lib/e-puck2_main-processor/ChibiOS//os/rt/src/ch"
 3030      69622F65 
 3030      2D707563 
 3030      6B325F6D 
ARM GAS  C:\Users\PCHAUT~1\AppData\Local\Temp\ccmzKLV9.s 			page 55


 3030      61696E2D 
 3031 00d6 6D73672E 		.ascii	"msg.c\000"
 3031      6300
 3032              	.LASF14:
 3033 00dc 6C6F6E67 		.ascii	"long long unsigned int\000"
 3033      206C6F6E 
 3033      6720756E 
 3033      7369676E 
 3033      65642069 
 3034              	.LASF106:
 3035 00f3 63685F74 		.ascii	"ch_trace_buffer_t\000"
 3035      72616365 
 3035      5F627566 
 3035      6665725F 
 3035      7400
 3036              	.LASF141:
 3037 0105 63685F74 		.ascii	"ch_threadsize\000"
 3037      68726561 
 3037      6473697A 
 3037      6500
 3038              	.LASF120:
 3039 0113 65786974 		.ascii	"exitcode\000"
 3039      636F6465 
 3039      00
 3040              	.LASF89:
 3041 011c 6D61696E 		.ascii	"mainthread\000"
 3041      74687265 
 3041      616400
 3042              	.LASF76:
 3043 0127 76697274 		.ascii	"virtual_timers_list_t\000"
 3043      75616C5F 
 3043      74696D65 
 3043      72735F6C 
 3043      6973745F 
 3044              	.LASF92:
 3045 013d 49544D5F 		.ascii	"ITM_RxBuffer\000"
 3045      52784275 
 3045      66666572 
 3045      00
 3046              	.LASF21:
 3047 014a 72747469 		.ascii	"rttime_t\000"
 3047      6D655F74 
 3047      00
 3048              	.LASF35:
 3049 0153 705F7072 		.ascii	"p_prio\000"
 3049      696F00
 3050              	.LASF148:
 3051 015a 63665F6F 		.ascii	"cf_off_state\000"
 3051      66665F73 
 3051      74617465 
 3051      00
 3052              	.LASF1:
 3053 0167 6C6F6E67 		.ascii	"long long int\000"
 3053      206C6F6E 
 3053      6720696E 
 3053      7400
 3054              	.LASF3:
ARM GAS  C:\Users\PCHAUT~1\AppData\Local\Temp\ccmzKLV9.s 			page 56


 3055 0175 7369676E 		.ascii	"signed char\000"
 3055      65642063 
 3055      68617200 
 3056              	.LASF147:
 3057 0181 63665F6F 		.ascii	"cf_off_stklimit\000"
 3057      66665F73 
 3057      746B6C69 
 3057      6D697400 
 3058              	.LASF149:
 3059 0191 63665F6F 		.ascii	"cf_off_flags\000"
 3059      66665F66 
 3059      6C616773 
 3059      00
 3060              	.LASF52:
 3061 019e 705F6D70 		.ascii	"p_mpool\000"
 3061      6F6F6C00 
 3062              	.LASF130:
 3063 01a6 6D5F7175 		.ascii	"m_queue\000"
 3063      65756500 
 3064              	.LASF88:
 3065 01ae 76746C69 		.ascii	"vtlist\000"
 3065      737400
 3066              	.LASF165:
 3067 01b5 706F7274 		.ascii	"port_unlock\000"
 3067      5F756E6C 
 3067      6F636B00 
 3068              	.LASF25:
 3069 01c1 74736C69 		.ascii	"tslices_t\000"
 3069      6365735F 
 3069      7400
 3070              	.LASF86:
 3071 01cb 63685F73 		.ascii	"ch_system\000"
 3071      79737465 
 3071      6D00
 3072              	.LASF10:
 3073 01d5 6C6F6E67 		.ascii	"long int\000"
 3073      20696E74 
 3073      00
 3074              	.LASF167:
 3075 01de 474E5520 		.ascii	"GNU C11 7.2.1 20170904 (release) [ARM/embedded-7-br"
 3075      43313120 
 3075      372E322E 
 3075      31203230 
 3075      31373039 
 3076 0211 616E6368 		.ascii	"anch revision 255204] -mcpu=cortex-m4 -mfloat-abi=h"
 3076      20726576 
 3076      6973696F 
 3076      6E203235 
 3076      35323034 
 3077 0244 61726420 		.ascii	"ard -mfpu=fpv4-sp-d16 -mno-thumb-interwork -mthumb "
 3077      2D6D6670 
 3077      753D6670 
 3077      76342D73 
 3077      702D6431 
 3078 0277 2D676764 		.ascii	"-ggdb -O0 -fomit-frame-pointer -falign-functions=16"
 3078      62202D4F 
 3078      30202D66 
ARM GAS  C:\Users\PCHAUT~1\AppData\Local\Temp\ccmzKLV9.s 			page 57


 3078      6F6D6974 
 3078      2D667261 
 3079 02aa 202D666E 		.ascii	" -fno-strict-aliasing -fstack-protector-all -ffunct"
 3079      6F2D7374 
 3079      72696374 
 3079      2D616C69 
 3079      6173696E 
 3080 02dd 696F6E2D 		.ascii	"ion-sections -fdata-sections -fno-common -fsingle-p"
 3080      73656374 
 3080      696F6E73 
 3080      202D6664 
 3080      6174612D 
 3081 0310 72656369 		.ascii	"recision-constant\000"
 3081      73696F6E 
 3081      2D636F6E 
 3081      7374616E 
 3081      7400
 3082              	.LASF157:
 3083 0322 63684D73 		.ascii	"chMsgSend\000"
 3083      6753656E 
 3083      6400
 3084              	.LASF23:
 3085 032c 74737461 		.ascii	"tstate_t\000"
 3085      74655F74 
 3085      00
 3086              	.LASF99:
 3087 0335 73655F74 		.ascii	"se_tp\000"
 3087      7000
 3088              	.LASF153:
 3089 033b 63686465 		.ascii	"chdebug_t\000"
 3089      6275675F 
 3089      7400
 3090              	.LASF162:
 3091 0345 63684D73 		.ascii	"chMsgIsPendingI\000"
 3091      67497350 
 3091      656E6469 
 3091      6E674900 
 3092              	.LASF37:
 3093 0355 705F6E65 		.ascii	"p_newer\000"
 3093      77657200 
 3094              	.LASF127:
 3095 035d 735F7175 		.ascii	"s_queue\000"
 3095      65756500 
 3096              	.LASF103:
 3097 0365 74625F73 		.ascii	"tb_size\000"
 3097      697A6500 
 3098              	.LASF65:
 3099 036d 725F6E65 		.ascii	"r_newer\000"
 3099      77657200 
 3100              	.LASF94:
 3101 0375 72656761 		.ascii	"regarm_t\000"
 3101      726D5F74 
 3101      00
 3102              	.LASF72:
 3103 037e 76745F70 		.ascii	"vt_prev\000"
 3103      72657600 
 3104              	.LASF80:
ARM GAS  C:\Users\PCHAUT~1\AppData\Local\Temp\ccmzKLV9.s 			page 58


 3105 0386 63685F73 		.ascii	"ch_system_debug\000"
 3105      79737465 
 3105      6D5F6465 
 3105      62756700 
 3106              	.LASF133:
 3107 0396 6D5F636E 		.ascii	"m_cnt\000"
 3107      7400
 3108              	.LASF155:
 3109 039c 6D757465 		.ascii	"mutex_t\000"
 3109      785F7400 
 3110              	.LASF173:
 3111 03a4 76616C75 		.ascii	"value\000"
 3111      6500
 3112              	.LASF83:
 3113 03aa 6C6F636B 		.ascii	"lock_cnt\000"
 3113      5F636E74 
 3113      00
 3114              	.LASF91:
 3115 03b3 69646C65 		.ascii	"idle_thread_wa\000"
 3115      5F746872 
 3115      6561645F 
 3115      776100
 3116              	.LASF29:
 3117 03c2 636E745F 		.ascii	"cnt_t\000"
 3117      7400
 3118              	.LASF40:
 3119 03c8 705F7374 		.ascii	"p_stklimit\000"
 3119      6B6C696D 
 3119      697400
 3120              	.LASF0:
 3121 03d3 756E7369 		.ascii	"unsigned int\000"
 3121      676E6564 
 3121      20696E74 
 3121      00
 3122              	.LASF71:
 3123 03e0 76745F6E 		.ascii	"vt_next\000"
 3123      65787400 
 3124              	.LASF16:
 3125 03e8 75696E74 		.ascii	"uint16_t\000"
 3125      31365F74 
 3125      00
 3126              	.LASF93:
 3127 03f1 53797374 		.ascii	"SystemCoreClock\000"
 3127      656D436F 
 3127      7265436C 
 3127      6F636B00 
 3128              	.LASF45:
 3129 0401 705F7469 		.ascii	"p_time\000"
 3129      6D6500
 3130              	.LASF123:
 3131 0408 77747365 		.ascii	"wtsemp\000"
 3131      6D7000
 3132              	.LASF73:
 3133 040f 76745F64 		.ascii	"vt_delta\000"
 3133      656C7461 
 3133      00
 3134              	.LASF47:
ARM GAS  C:\Users\PCHAUT~1\AppData\Local\Temp\ccmzKLV9.s 			page 59


 3135 0418 705F6D73 		.ascii	"p_msgqueue\000"
 3135      67717565 
 3135      756500
 3136              	.LASF154:
 3137 0423 63685F64 		.ascii	"ch_debug\000"
 3137      65627567 
 3137      00
 3138              	.LASF114:
 3139 042c 6E5F6972 		.ascii	"n_irq\000"
 3139      7100
 3140              	.LASF128:
 3141 0432 735F636E 		.ascii	"s_cnt\000"
 3141      7400
 3142              	.LASF8:
 3143 0438 73686F72 		.ascii	"short unsigned int\000"
 3143      7420756E 
 3143      7369676E 
 3143      65642069 
 3143      6E7400
 3144              	.LASF118:
 3145 044b 6B65726E 		.ascii	"kernel_stats_t\000"
 3145      656C5F73 
 3145      74617473 
 3145      5F7400
 3146              	.LASF56:
 3147 045a 63685F74 		.ascii	"ch_thread\000"
 3147      68726561 
 3147      6400
 3148              	.LASF27:
 3149 0464 6D73675F 		.ascii	"msg_t\000"
 3149      7400
 3150              	.LASF111:
 3151 046a 6C617374 		.ascii	"last\000"
 3151      00
 3152              	.LASF30:
 3153 046f 75636E74 		.ascii	"ucnt_t\000"
 3153      5F7400
 3154              	.LASF85:
 3155 0476 63685F73 		.ascii	"ch_system_t\000"
 3155      79737465 
 3155      6D5F7400 
 3156              	.LASF152:
 3157 0482 63665F6F 		.ascii	"cf_off_time\000"
 3157      66665F74 
 3157      696D6500 
 3158              	.LASF117:
 3159 048e 6D5F6372 		.ascii	"m_crit_isr\000"
 3159      69745F69 
 3159      737200
 3160              	.LASF61:
 3161 0499 63685F72 		.ascii	"ch_ready_list\000"
 3161      65616479 
 3161      5F6C6973 
 3161      7400
 3162              	.LASF28:
 3163 04a7 6576656E 		.ascii	"eventmask_t\000"
 3163      746D6173 
ARM GAS  C:\Users\PCHAUT~1\AppData\Local\Temp\ccmzKLV9.s 			page 60


 3163      6B5F7400 
 3164              	.LASF9:
 3165 04b3 5F5F696E 		.ascii	"__int32_t\000"
 3165      7433325F 
 3165      7400
 3166              	.LASF95:
 3167 04bd 73746B61 		.ascii	"stkalign_t\000"
 3167      6C69676E 
 3167      5F7400
 3168              	.LASF55:
 3169 04c8 74687265 		.ascii	"threads_list_t\000"
 3169      6164735F 
 3169      6C697374 
 3169      5F7400
 3170              	.LASF136:
 3171 04d7 63685F7A 		.ascii	"ch_zero\000"
 3171      65726F00 
 3172              	.LASF150:
 3173 04df 63665F6F 		.ascii	"cf_off_refs\000"
 3173      66665F72 
 3173      65667300 
 3174              	.LASF46:
 3175 04eb 705F7761 		.ascii	"p_waiting\000"
 3175      6974696E 
 3175      6700
 3176              	.LASF20:
 3177 04f5 7274636E 		.ascii	"rtcnt_t\000"
 3177      745F7400 
 3178              	.LASF77:
 3179 04fd 63685F76 		.ascii	"ch_virtual_timers_list\000"
 3179      69727475 
 3179      616C5F74 
 3179      696D6572 
 3179      735F6C69 
 3180              	.LASF2:
 3181 0514 6C6F6E67 		.ascii	"long double\000"
 3181      20646F75 
 3181      626C6500 
 3182              	.LASF140:
 3183 0520 63685F74 		.ascii	"ch_timesize\000"
 3183      696D6573 
 3183      697A6500 
 3184              	.LASF104:
 3185 052c 74625F70 		.ascii	"tb_ptr\000"
 3185      747200
 3186              	.LASF102:
 3187 0533 63685F73 		.ascii	"ch_swc_event_t\000"
 3187      77635F65 
 3187      76656E74 
 3187      5F7400
 3188              	.LASF146:
 3189 0542 63665F6F 		.ascii	"cf_off_name\000"
 3189      66665F6E 
 3189      616D6500 
 3190              	.LASF38:
 3191 054e 705F6F6C 		.ascii	"p_older\000"
 3191      64657200 
ARM GAS  C:\Users\PCHAUT~1\AppData\Local\Temp\ccmzKLV9.s 			page 61


 3192              	.LASF64:
 3193 0556 725F6374 		.ascii	"r_ctx\000"
 3193      7800
 3194              	.LASF36:
 3195 055c 705F6374 		.ascii	"p_ctx\000"
 3195      7800
 3196              	.LASF108:
 3197 0562 746D5F63 		.ascii	"tm_calibration_t\000"
 3197      616C6962 
 3197      72617469 
 3197      6F6E5F74 
 3197      00
 3198              	.LASF132:
 3199 0573 6D5F6E65 		.ascii	"m_next\000"
 3199      787400
 3200              	.LASF67:
 3201 057a 725F6375 		.ascii	"r_current\000"
 3201      7272656E 
 3201      7400
 3202              	.LASF66:
 3203 0584 725F6F6C 		.ascii	"r_older\000"
 3203      64657200 
 3204              	.LASF13:
 3205 058c 5F5F7569 		.ascii	"__uint64_t\000"
 3205      6E743634 
 3205      5F7400
 3206              	.LASF112:
 3207 0597 63756D75 		.ascii	"cumulative\000"
 3207      6C617469 
 3207      766500
 3208              	.LASF24:
 3209 05a2 74726566 		.ascii	"trefs_t\000"
 3209      735F7400 
 3210              	.LASF105:
 3211 05aa 74625F62 		.ascii	"tb_buffer\000"
 3211      75666665 
 3211      7200
 3212              	.LASF139:
 3213 05b4 63685F70 		.ascii	"ch_ptrsize\000"
 3213      74727369 
 3213      7A6500
 3214              	.LASF69:
 3215 05bf 76697274 		.ascii	"virtual_timer_t\000"
 3215      75616C5F 
 3215      74696D65 
 3215      725F7400 
 3216              	.LASF34:
 3217 05cf 705F7072 		.ascii	"p_prev\000"
 3217      657600
 3218              	.LASF26:
 3219 05d6 74707269 		.ascii	"tprio_t\000"
 3219      6F5F7400 
 3220              	.LASF115:
 3221 05de 6E5F6374 		.ascii	"n_ctxswc\000"
 3221      78737763 
 3221      00
 3222              	.LASF159:
ARM GAS  C:\Users\PCHAUT~1\AppData\Local\Temp\ccmzKLV9.s 			page 62


 3223 05e7 5F426F6F 		.ascii	"_Bool\000"
 3223      6C00
 3224              	.LASF17:
 3225 05ed 696E7433 		.ascii	"int32_t\000"
 3225      325F7400 
 3226              	.LASF4:
 3227 05f5 756E7369 		.ascii	"unsigned char\000"
 3227      676E6564 
 3227      20636861 
 3227      7200
 3228              	.LASF50:
 3229 0603 705F6D74 		.ascii	"p_mtxlist\000"
 3229      786C6973 
 3229      7400
 3230              	.LASF5:
 3231 060d 73686F72 		.ascii	"short int\000"
 3231      7420696E 
 3231      7400
 3232              	.LASF41:
 3233 0617 705F7374 		.ascii	"p_state\000"
 3233      61746500 
 3234              	.LASF44:
 3235 061f 705F7072 		.ascii	"p_preempt\000"
 3235      65656D70 
 3235      7400
 3236              	.LASF63:
 3237 0629 725F7072 		.ascii	"r_prio\000"
 3237      696F00
 3238              	.LASF125:
 3239 0630 65776D61 		.ascii	"ewmask\000"
 3239      736B00
 3240              	.LASF33:
 3241 0637 705F6E65 		.ascii	"p_next\000"
 3241      787400
 3242              	.LASF22:
 3243 063e 746D6F64 		.ascii	"tmode_t\000"
 3243      655F7400 
 3244              	.LASF151:
 3245 0646 63665F6F 		.ascii	"cf_off_preempt\000"
 3245      66665F70 
 3245      7265656D 
 3245      707400
 3246              	.LASF42:
 3247 0655 705F666C 		.ascii	"p_flags\000"
 3247      61677300 
 3248              	.LASF158:
 3249 065d 5F5F6675 		.ascii	"__func__\000"
 3249      6E635F5F 
 3249      00
 3250              	.LASF53:
 3251 0666 705F7374 		.ascii	"p_stats\000"
 3251      61747300 
 3252              	.LASF171:
 3253 066e 63685379 		.ascii	"chSysLock\000"
 3253      734C6F63 
 3253      6B00
 3254              	.LASF169:
ARM GAS  C:\Users\PCHAUT~1\AppData\Local\Temp\ccmzKLV9.s 			page 63


 3255 0678 433A5C55 		.ascii	"C:\\Users\\Pchautems\\Documents\\RobotiqueTP\\Proje"
 3255      73657273 
 3255      5C506368 
 3255      61757465 
 3255      6D735C44 
 3256 06a6 745C6D69 		.ascii	"t\\miniprojet\000"
 3256      6E697072 
 3256      6F6A6574 
 3256      00
 3257              	.LASF58:
 3258 06b3 74687265 		.ascii	"threads_queue_t\000"
 3258      6164735F 
 3258      71756575 
 3258      655F7400 
 3259              	.LASF70:
 3260 06c3 63685F76 		.ascii	"ch_virtual_timer\000"
 3260      69727475 
 3260      616C5F74 
 3260      696D6572 
 3260      00
 3261              	.LASF170:
 3262 06d4 63684D73 		.ascii	"chMsgRelease\000"
 3262      6752656C 
 3262      65617365 
 3262      00
 3263              	.LASF126:
 3264 06e1 63685F73 		.ascii	"ch_semaphore\000"
 3264      656D6170 
 3264      686F7265 
 3264      00
 3265              	.LASF49:
 3266 06ee 705F6570 		.ascii	"p_epending\000"
 3266      656E6469 
 3266      6E6700
 3267              	.LASF18:
 3268 06f9 75696E74 		.ascii	"uint32_t\000"
 3268      33325F74 
 3268      00
 3269              	.LASF142:
 3270 0702 63665F6F 		.ascii	"cf_off_prio\000"
 3270      66665F70 
 3270      72696F00 
 3271              	.LASF62:
 3272 070e 725F7175 		.ascii	"r_queue\000"
 3272      65756500 
 3273              	.LASF57:
 3274 0716 63685F74 		.ascii	"ch_threads_list\000"
 3274      68726561 
 3274      64735F6C 
 3274      69737400 
 3275              	.LASF137:
 3276 0726 63685F73 		.ascii	"ch_size\000"
 3276      697A6500 
 3277              	.LASF12:
 3278 072e 6C6F6E67 		.ascii	"long unsigned int\000"
 3278      20756E73 
 3278      69676E65 
ARM GAS  C:\Users\PCHAUT~1\AppData\Local\Temp\ccmzKLV9.s 			page 64


 3278      6420696E 
 3278      7400
 3279              	.LASF134:
 3280 0740 63686172 		.ascii	"char\000"
 3280      00
 3281              	.LASF124:
 3282 0745 77746D74 		.ascii	"wtmtxp\000"
 3282      787000
 3283              	.LASF7:
 3284 074c 5F5F7569 		.ascii	"__uint16_t\000"
 3284      6E743136 
 3284      5F7400
 3285              	.LASF32:
 3286 0757 74687265 		.ascii	"thread_t\000"
 3286      61645F74 
 3286      00
 3287              	.LASF109:
 3288 0760 62657374 		.ascii	"best\000"
 3288      00
 3289              	.LASF163:
 3290 0765 71756575 		.ascii	"queue_fifo_remove\000"
 3290      655F6669 
 3290      666F5F72 
 3290      656D6F76 
 3290      6500
 3291              	.LASF31:
 3292 0777 73797374 		.ascii	"systime_t\000"
 3292      696D655F 
 3292      7400
 3293              	.LASF51:
 3294 0781 705F7265 		.ascii	"p_realprio\000"
 3294      616C7072 
 3294      696F00
 3295              	.LASF68:
 3296 078c 76746675 		.ascii	"vtfunc_t\000"
 3296      6E635F74 
 3296      00
 3297              	.LASF11:
 3298 0795 5F5F7569 		.ascii	"__uint32_t\000"
 3298      6E743332 
 3298      5F7400
 3299              	.LASF172:
 3300 07a0 5F5F7365 		.ascii	"__set_BASEPRI\000"
 3300      745F4241 
 3300      53455052 
 3300      4900
 3301              	.LASF81:
 3302 07ae 70616E69 		.ascii	"panic_msg\000"
 3302      635F6D73 
 3302      6700
 3303              	.LASF107:
 3304 07b8 6F666673 		.ascii	"offset\000"
 3304      657400
 3305              	.LASF96:
 3306 07bf 636F6E74 		.ascii	"context\000"
 3306      65787400 
 3307              	.LASF48:
ARM GAS  C:\Users\PCHAUT~1\AppData\Local\Temp\ccmzKLV9.s 			page 65


 3308 07c7 705F6D73 		.ascii	"p_msg\000"
 3308      6700
 3309              	.LASF75:
 3310 07cd 76745F70 		.ascii	"vt_par\000"
 3310      617200
 3311              	.LASF156:
 3312 07d4 63684D73 		.ascii	"chMsgWait\000"
 3312      67576169 
 3312      7400
 3313              	.LASF98:
 3314 07de 73655F74 		.ascii	"se_time\000"
 3314      696D6500 
 3315              	.LASF143:
 3316 07e6 63665F6F 		.ascii	"cf_off_ctx\000"
 3316      66665F63 
 3316      747800
 3317              	.LASF129:
 3318 07f1 63685F6D 		.ascii	"ch_mutex\000"
 3318      75746578 
 3318      00
 3319              	.LASF43:
 3320 07fa 705F7265 		.ascii	"p_refs\000"
 3320      667300
 3321              	.LASF82:
 3322 0801 6973725F 		.ascii	"isr_cnt\000"
 3322      636E7400 
 3323              	.LASF101:
 3324 0809 73655F73 		.ascii	"se_state\000"
 3324      74617465 
 3324      00
 3325              	.LASF87:
 3326 0812 726C6973 		.ascii	"rlist\000"
 3326      7400
 3327              	.LASF15:
 3328 0818 75696E74 		.ascii	"uint8_t\000"
 3328      385F7400 
 3329              	.LASF54:
 3330 0820 74687265 		.ascii	"thread_reference_t\000"
 3330      61645F72 
 3330      65666572 
 3330      656E6365 
 3330      5F7400
 3331              	.LASF121:
 3332 0833 77746F62 		.ascii	"wtobjp\000"
 3332      6A7000
 3333              	.LASF144:
 3334 083a 63665F6F 		.ascii	"cf_off_newer\000"
 3334      66665F6E 
 3334      65776572 
 3334      00
 3335              	.LASF39:
 3336 0847 705F6E61 		.ascii	"p_name\000"
 3336      6D6500
 3337              	.LASF78:
 3338 084e 76745F73 		.ascii	"vt_systime\000"
 3338      79737469 
 3338      6D6500
ARM GAS  C:\Users\PCHAUT~1\AppData\Local\Temp\ccmzKLV9.s 			page 66


 3339              	.LASF84:
 3340 0859 74726163 		.ascii	"trace_buffer\000"
 3340      655F6275 
 3340      66666572 
 3340      00
 3341              	.LASF161:
 3342 0866 63685379 		.ascii	"chSysUnlock\000"
 3342      73556E6C 
 3342      6F636B00 
 3343              	.LASF138:
 3344 0872 63685F76 		.ascii	"ch_version\000"
 3344      65727369 
 3344      6F6E00
 3345              	.LASF160:
 3346 087d 63684D73 		.ascii	"chMsgReleaseS\000"
 3346      6752656C 
 3346      65617365 
 3346      5300
 3347              	.LASF116:
 3348 088b 6D5F6372 		.ascii	"m_crit_thd\000"
 3348      69745F74 
 3348      686400
 3349              	.LASF131:
 3350 0896 6D5F6F77 		.ascii	"m_owner\000"
 3350      6E657200 
 3351              	.LASF100:
 3352 089e 73655F77 		.ascii	"se_wtobjp\000"
 3352      746F626A 
 3352      7000
 3353              	.LASF135:
 3354 08a8 63685F69 		.ascii	"ch_identifier\000"
 3354      64656E74 
 3354      69666965 
 3354      7200
 3355              	.LASF74:
 3356 08b6 76745F66 		.ascii	"vt_func\000"
 3356      756E6300 
 3357              		.ident	"GCC: (GNU Tools for Arm Embedded Processors 7-2017-q4-major) 7.2.1 20170904 (release) [ARM
ARM GAS  C:\Users\PCHAUT~1\AppData\Local\Temp\ccmzKLV9.s 			page 67


DEFINED SYMBOLS
                            *ABS*:00000000 chmsg.c
C:\Users\PCHAUT~1\AppData\Local\Temp\ccmzKLV9.s:18     .text.port_lock:00000000 $t
C:\Users\PCHAUT~1\AppData\Local\Temp\ccmzKLV9.s:25     .text.port_lock:00000000 port_lock
C:\Users\PCHAUT~1\AppData\Local\Temp\ccmzKLV9.s:72     .text.port_lock:0000002c $d
C:\Users\PCHAUT~1\AppData\Local\Temp\ccmzKLV9.s:77     .text.port_unlock:00000000 $t
C:\Users\PCHAUT~1\AppData\Local\Temp\ccmzKLV9.s:84     .text.port_unlock:00000000 port_unlock
C:\Users\PCHAUT~1\AppData\Local\Temp\ccmzKLV9.s:129    .text.port_unlock:0000002c $d
C:\Users\PCHAUT~1\AppData\Local\Temp\ccmzKLV9.s:134    .text.queue_insert:00000000 $t
C:\Users\PCHAUT~1\AppData\Local\Temp\ccmzKLV9.s:141    .text.queue_insert:00000000 queue_insert
C:\Users\PCHAUT~1\AppData\Local\Temp\ccmzKLV9.s:193    .text.queue_insert:00000040 $d
C:\Users\PCHAUT~1\AppData\Local\Temp\ccmzKLV9.s:198    .text.queue_fifo_remove:00000000 $t
C:\Users\PCHAUT~1\AppData\Local\Temp\ccmzKLV9.s:205    .text.queue_fifo_remove:00000000 queue_fifo_remove
C:\Users\PCHAUT~1\AppData\Local\Temp\ccmzKLV9.s:253    .text.queue_fifo_remove:0000003c $d
C:\Users\PCHAUT~1\AppData\Local\Temp\ccmzKLV9.s:258    .text.chSysLock:00000000 $t
C:\Users\PCHAUT~1\AppData\Local\Temp\ccmzKLV9.s:265    .text.chSysLock:00000000 chSysLock
C:\Users\PCHAUT~1\AppData\Local\Temp\ccmzKLV9.s:303    .text.chSysLock:0000002c $d
C:\Users\PCHAUT~1\AppData\Local\Temp\ccmzKLV9.s:308    .text.chSysUnlock:00000000 $t
C:\Users\PCHAUT~1\AppData\Local\Temp\ccmzKLV9.s:315    .text.chSysUnlock:00000000 chSysUnlock
C:\Users\PCHAUT~1\AppData\Local\Temp\ccmzKLV9.s:371    .text.chSysUnlock:0000004c $d
C:\Users\PCHAUT~1\AppData\Local\Temp\ccmzKLV9.s:733    .rodata.__func__.7153:00000000 __func__.7153
C:\Users\PCHAUT~1\AppData\Local\Temp\ccmzKLV9.s:378    .text.chMsgIsPendingI:00000000 $t
C:\Users\PCHAUT~1\AppData\Local\Temp\ccmzKLV9.s:385    .text.chMsgIsPendingI:00000000 chMsgIsPendingI
C:\Users\PCHAUT~1\AppData\Local\Temp\ccmzKLV9.s:430    .text.chMsgIsPendingI:00000038 $d
C:\Users\PCHAUT~1\AppData\Local\Temp\ccmzKLV9.s:435    .text.chMsgReleaseS:00000000 $t
C:\Users\PCHAUT~1\AppData\Local\Temp\ccmzKLV9.s:442    .text.chMsgReleaseS:00000000 chMsgReleaseS
C:\Users\PCHAUT~1\AppData\Local\Temp\ccmzKLV9.s:481    .text.chMsgReleaseS:00000030 $d
C:\Users\PCHAUT~1\AppData\Local\Temp\ccmzKLV9.s:486    .text.chMsgSend:00000000 $t
C:\Users\PCHAUT~1\AppData\Local\Temp\ccmzKLV9.s:494    .text.chMsgSend:00000000 chMsgSend
C:\Users\PCHAUT~1\AppData\Local\Temp\ccmzKLV9.s:577    .text.chMsgSend:00000078 $d
C:\Users\PCHAUT~1\AppData\Local\Temp\ccmzKLV9.s:727    .rodata.__func__.7851:00000000 __func__.7851
C:\Users\PCHAUT~1\AppData\Local\Temp\ccmzKLV9.s:584    .text.chMsgWait:00000000 $t
C:\Users\PCHAUT~1\AppData\Local\Temp\ccmzKLV9.s:592    .text.chMsgWait:00000000 chMsgWait
C:\Users\PCHAUT~1\AppData\Local\Temp\ccmzKLV9.s:654    .text.chMsgWait:0000005c $d
C:\Users\PCHAUT~1\AppData\Local\Temp\ccmzKLV9.s:660    .text.chMsgRelease:00000000 $t
C:\Users\PCHAUT~1\AppData\Local\Temp\ccmzKLV9.s:668    .text.chMsgRelease:00000000 chMsgRelease
C:\Users\PCHAUT~1\AppData\Local\Temp\ccmzKLV9.s:718    .text.chMsgRelease:00000044 $d
C:\Users\PCHAUT~1\AppData\Local\Temp\ccmzKLV9.s:739    .rodata.__func__.7860:00000000 __func__.7860
C:\Users\PCHAUT~1\AppData\Local\Temp\ccmzKLV9.s:724    .rodata.__func__.7851:00000000 $d
C:\Users\PCHAUT~1\AppData\Local\Temp\ccmzKLV9.s:730    .rodata.__func__.7153:00000000 $d
C:\Users\PCHAUT~1\AppData\Local\Temp\ccmzKLV9.s:736    .rodata.__func__.7860:00000000 $d

UNDEFINED SYMBOLS
__stack_chk_fail
__stack_chk_guard
_stats_start_measure_crit_thd
_dbg_check_lock
_dbg_check_unlock
_stats_stop_measure_crit_thd
chSysHalt
ch
chDbgCheckClassI
chDbgCheckClassS
chSchWakeupS
chSchReadyI
chSchGoSleepS
