ARM GAS  C:\Users\PCHAUT~1\AppData\Local\Temp\ccGFPeii.s 			page 1


   1              		.cpu cortex-m4
   2              		.eabi_attribute 27, 1
   3              		.eabi_attribute 28, 1
   4              		.eabi_attribute 20, 1
   5              		.eabi_attribute 21, 1
   6              		.eabi_attribute 23, 3
   7              		.eabi_attribute 24, 1
   8              		.eabi_attribute 25, 1
   9              		.eabi_attribute 26, 1
  10              		.eabi_attribute 30, 6
  11              		.eabi_attribute 34, 1
  12              		.eabi_attribute 18, 4
  13              		.file	"chmtx.c"
  14              		.text
  15              	.Ltext0:
  16              		.cfi_sections	.debug_frame
  17              		.section	.text.port_lock,"ax",%progbits
  18              		.align	1
  19              		.p2align 4,,15
  20              		.syntax unified
  21              		.thumb
  22              		.thumb_func
  23              		.fpu fpv4-sp-d16
  24              		.type	port_lock, %function
  25              	port_lock:
  26              	.LFB116:
  27              		.file 1 "../lib/e-puck2_main-processor/ChibiOS//os/rt/ports/ARMCMx/chcore_v7m.h"
  28              		.loc 1 444 0
  29              		.cfi_startproc
  30              		@ args = 0, pretend = 0, frame = 8
  31              		@ frame_needed = 0, uses_anonymous_args = 0
  32 0000 00B5     		push	{lr}
  33              		.cfi_def_cfa_offset 4
  34              		.cfi_offset 14, -4
  35 0002 83B0     		sub	sp, sp, #12
  36              		.cfi_def_cfa_offset 16
  37              		.loc 1 444 0
  38 0004 094B     		ldr	r3, .L3
  39 0006 1B68     		ldr	r3, [r3]
  40 0008 0193     		str	r3, [sp, #4]
  41 000a 2023     		movs	r3, #32
  42 000c 0093     		str	r3, [sp]
  43              	.LBB6:
  44              	.LBB7:
  45              		.file 2 "../lib/e-puck2_main-processor/ChibiOS//os/ext/CMSIS/include/core_cmFunc.h"
  46              		.loc 2 546 0
  47 000e 009B     		ldr	r3, [sp]
  48              		.syntax unified
  49              	@ 546 "../lib/e-puck2_main-processor/ChibiOS//os/ext/CMSIS/include/core_cmFunc.h" 1
  50 0010 83F31188 		MSR basepri, r3
  51              	@ 0 "" 2
  52              		.thumb
  53              		.syntax unified
  54              	.LBE7:
  55              	.LBE6:
  56              		.loc 1 451 0
  57 0014 00BF     		nop
ARM GAS  C:\Users\PCHAUT~1\AppData\Local\Temp\ccGFPeii.s 			page 2


  58 0016 054B     		ldr	r3, .L3
  59 0018 019A     		ldr	r2, [sp, #4]
  60 001a 1B68     		ldr	r3, [r3]
  61 001c 9A42     		cmp	r2, r3
  62 001e 01D0     		beq	.L2
  63 0020 FFF7FEFF 		bl	__stack_chk_fail
  64              	.L2:
  65 0024 03B0     		add	sp, sp, #12
  66              		.cfi_def_cfa_offset 4
  67              		@ sp needed
  68 0026 5DF804FB 		ldr	pc, [sp], #4
  69              	.L4:
  70 002a 00BF     		.align	2
  71              	.L3:
  72 002c 00000000 		.word	__stack_chk_guard
  73              		.cfi_endproc
  74              	.LFE116:
  75              		.size	port_lock, .-port_lock
  76              		.section	.text.port_unlock,"ax",%progbits
  77              		.align	1
  78              		.p2align 4,,15
  79              		.syntax unified
  80              		.thumb
  81              		.thumb_func
  82              		.fpu fpv4-sp-d16
  83              		.type	port_unlock, %function
  84              	port_unlock:
  85              	.LFB117:
  86              		.loc 1 458 0
  87              		.cfi_startproc
  88              		@ args = 0, pretend = 0, frame = 8
  89              		@ frame_needed = 0, uses_anonymous_args = 0
  90 0000 00B5     		push	{lr}
  91              		.cfi_def_cfa_offset 4
  92              		.cfi_offset 14, -4
  93 0002 83B0     		sub	sp, sp, #12
  94              		.cfi_def_cfa_offset 16
  95              		.loc 1 458 0
  96 0004 094B     		ldr	r3, .L7
  97 0006 1B68     		ldr	r3, [r3]
  98 0008 0193     		str	r3, [sp, #4]
  99 000a 0023     		movs	r3, #0
 100 000c 0093     		str	r3, [sp]
 101              	.LBB8:
 102              	.LBB9:
 103              		.loc 2 546 0
 104 000e 009B     		ldr	r3, [sp]
 105              		.syntax unified
 106              	@ 546 "../lib/e-puck2_main-processor/ChibiOS//os/ext/CMSIS/include/core_cmFunc.h" 1
 107 0010 83F31188 		MSR basepri, r3
 108              	@ 0 "" 2
 109              		.thumb
 110              		.syntax unified
 111              	.LBE9:
 112              	.LBE8:
 113              		.loc 1 465 0
 114 0014 00BF     		nop
ARM GAS  C:\Users\PCHAUT~1\AppData\Local\Temp\ccGFPeii.s 			page 3


 115 0016 054B     		ldr	r3, .L7
 116 0018 019A     		ldr	r2, [sp, #4]
 117 001a 1B68     		ldr	r3, [r3]
 118 001c 9A42     		cmp	r2, r3
 119 001e 01D0     		beq	.L6
 120 0020 FFF7FEFF 		bl	__stack_chk_fail
 121              	.L6:
 122 0024 03B0     		add	sp, sp, #12
 123              		.cfi_def_cfa_offset 4
 124              		@ sp needed
 125 0026 5DF804FB 		ldr	pc, [sp], #4
 126              	.L8:
 127 002a 00BF     		.align	2
 128              	.L7:
 129 002c 00000000 		.word	__stack_chk_guard
 130              		.cfi_endproc
 131              	.LFE117:
 132              		.size	port_unlock, .-port_unlock
 133              		.section	.text.queue_init,"ax",%progbits
 134              		.align	1
 135              		.p2align 4,,15
 136              		.syntax unified
 137              		.thumb
 138              		.thumb_func
 139              		.fpu fpv4-sp-d16
 140              		.type	queue_init, %function
 141              	queue_init:
 142              	.LFB128:
 143              		.file 3 "../lib/e-puck2_main-processor/ChibiOS//os/rt/include/chschd.h"
 144              		.loc 3 602 0
 145              		.cfi_startproc
 146              		@ args = 0, pretend = 0, frame = 16
 147              		@ frame_needed = 0, uses_anonymous_args = 0
 148 0000 00B5     		push	{lr}
 149              		.cfi_def_cfa_offset 4
 150              		.cfi_offset 14, -4
 151 0002 85B0     		sub	sp, sp, #20
 152              		.cfi_def_cfa_offset 24
 153 0004 0190     		str	r0, [sp, #4]
 154              		.loc 3 602 0
 155 0006 0A4B     		ldr	r3, .L11
 156 0008 1B68     		ldr	r3, [r3]
 157 000a 0393     		str	r3, [sp, #12]
 158              		.loc 3 604 0
 159 000c 019B     		ldr	r3, [sp, #4]
 160 000e 019A     		ldr	r2, [sp, #4]
 161 0010 1A60     		str	r2, [r3]
 162              		.loc 3 605 0
 163 0012 019B     		ldr	r3, [sp, #4]
 164 0014 019A     		ldr	r2, [sp, #4]
 165 0016 5A60     		str	r2, [r3, #4]
 166              		.loc 3 606 0
 167 0018 00BF     		nop
 168 001a 054B     		ldr	r3, .L11
 169 001c 039A     		ldr	r2, [sp, #12]
 170 001e 1B68     		ldr	r3, [r3]
 171 0020 9A42     		cmp	r2, r3
ARM GAS  C:\Users\PCHAUT~1\AppData\Local\Temp\ccGFPeii.s 			page 4


 172 0022 01D0     		beq	.L10
 173 0024 FFF7FEFF 		bl	__stack_chk_fail
 174              	.L10:
 175 0028 05B0     		add	sp, sp, #20
 176              		.cfi_def_cfa_offset 4
 177              		@ sp needed
 178 002a 5DF804FB 		ldr	pc, [sp], #4
 179              	.L12:
 180 002e 00BF     		.align	2
 181              	.L11:
 182 0030 00000000 		.word	__stack_chk_guard
 183              		.cfi_endproc
 184              	.LFE128:
 185              		.size	queue_init, .-queue_init
 186              		.section	.text.queue_notempty,"ax",%progbits
 187              		.align	1
 188              		.p2align 4,,15
 189              		.syntax unified
 190              		.thumb
 191              		.thumb_func
 192              		.fpu fpv4-sp-d16
 193              		.type	queue_notempty, %function
 194              	queue_notempty:
 195              	.LFB130:
 196              		.loc 3 629 0
 197              		.cfi_startproc
 198              		@ args = 0, pretend = 0, frame = 16
 199              		@ frame_needed = 0, uses_anonymous_args = 0
 200 0000 00B5     		push	{lr}
 201              		.cfi_def_cfa_offset 4
 202              		.cfi_offset 14, -4
 203 0002 85B0     		sub	sp, sp, #20
 204              		.cfi_def_cfa_offset 24
 205 0004 0190     		str	r0, [sp, #4]
 206              		.loc 3 629 0
 207 0006 0B4B     		ldr	r3, .L16
 208 0008 1B68     		ldr	r3, [r3]
 209 000a 0393     		str	r3, [sp, #12]
 210              		.loc 3 631 0
 211 000c 019B     		ldr	r3, [sp, #4]
 212 000e 1B68     		ldr	r3, [r3]
 213 0010 019A     		ldr	r2, [sp, #4]
 214 0012 9A42     		cmp	r2, r3
 215 0014 14BF     		ite	ne
 216 0016 0123     		movne	r3, #1
 217 0018 0023     		moveq	r3, #0
 218 001a DBB2     		uxtb	r3, r3
 219              		.loc 3 632 0
 220 001c 1846     		mov	r0, r3
 221 001e 054B     		ldr	r3, .L16
 222 0020 039A     		ldr	r2, [sp, #12]
 223 0022 1B68     		ldr	r3, [r3]
 224 0024 9A42     		cmp	r2, r3
 225 0026 01D0     		beq	.L15
 226 0028 FFF7FEFF 		bl	__stack_chk_fail
 227              	.L15:
 228 002c 05B0     		add	sp, sp, #20
ARM GAS  C:\Users\PCHAUT~1\AppData\Local\Temp\ccGFPeii.s 			page 5


 229              		.cfi_def_cfa_offset 4
 230              		@ sp needed
 231 002e 5DF804FB 		ldr	pc, [sp], #4
 232              	.L17:
 233 0032 00BF     		.align	2
 234              	.L16:
 235 0034 00000000 		.word	__stack_chk_guard
 236              		.cfi_endproc
 237              	.LFE130:
 238              		.size	queue_notempty, .-queue_notempty
 239              		.section	.text.queue_prio_insert,"ax",%progbits
 240              		.align	1
 241              		.p2align 4,,15
 242              		.syntax unified
 243              		.thumb
 244              		.thumb_func
 245              		.fpu fpv4-sp-d16
 246              		.type	queue_prio_insert, %function
 247              	queue_prio_insert:
 248              	.LFB133:
 249              		.loc 3 651 0
 250              		.cfi_startproc
 251              		@ args = 0, pretend = 0, frame = 16
 252              		@ frame_needed = 0, uses_anonymous_args = 0
 253 0000 00B5     		push	{lr}
 254              		.cfi_def_cfa_offset 4
 255              		.cfi_offset 14, -4
 256 0002 85B0     		sub	sp, sp, #20
 257              		.cfi_def_cfa_offset 24
 258 0004 0190     		str	r0, [sp, #4]
 259 0006 0091     		str	r1, [sp]
 260              		.loc 3 651 0
 261 0008 154B     		ldr	r3, .L22
 262 000a 1B68     		ldr	r3, [r3]
 263 000c 0393     		str	r3, [sp, #12]
 264              		.loc 3 653 0
 265 000e 009B     		ldr	r3, [sp]
 266 0010 0293     		str	r3, [sp, #8]
 267              	.L20:
 268              		.loc 3 655 0 discriminator 2
 269 0012 029B     		ldr	r3, [sp, #8]
 270 0014 1B68     		ldr	r3, [r3]
 271 0016 0293     		str	r3, [sp, #8]
 272              		.loc 3 656 0 discriminator 2
 273 0018 029A     		ldr	r2, [sp, #8]
 274 001a 009B     		ldr	r3, [sp]
 275 001c 9A42     		cmp	r2, r3
 276 001e 05D0     		beq	.L19
 277              		.loc 3 656 0 is_stmt 0 discriminator 1
 278 0020 029B     		ldr	r3, [sp, #8]
 279 0022 9A68     		ldr	r2, [r3, #8]
 280 0024 019B     		ldr	r3, [sp, #4]
 281 0026 9B68     		ldr	r3, [r3, #8]
 282 0028 9A42     		cmp	r2, r3
 283 002a F2D2     		bcs	.L20
 284              	.L19:
 285              		.loc 3 657 0 is_stmt 1
ARM GAS  C:\Users\PCHAUT~1\AppData\Local\Temp\ccGFPeii.s 			page 6


 286 002c 019B     		ldr	r3, [sp, #4]
 287 002e 029A     		ldr	r2, [sp, #8]
 288 0030 1A60     		str	r2, [r3]
 289              		.loc 3 658 0
 290 0032 029B     		ldr	r3, [sp, #8]
 291 0034 5A68     		ldr	r2, [r3, #4]
 292 0036 019B     		ldr	r3, [sp, #4]
 293 0038 5A60     		str	r2, [r3, #4]
 294              		.loc 3 659 0
 295 003a 019B     		ldr	r3, [sp, #4]
 296 003c 5B68     		ldr	r3, [r3, #4]
 297 003e 019A     		ldr	r2, [sp, #4]
 298 0040 1A60     		str	r2, [r3]
 299              		.loc 3 660 0
 300 0042 029B     		ldr	r3, [sp, #8]
 301 0044 019A     		ldr	r2, [sp, #4]
 302 0046 5A60     		str	r2, [r3, #4]
 303              		.loc 3 661 0
 304 0048 00BF     		nop
 305 004a 054B     		ldr	r3, .L22
 306 004c 039A     		ldr	r2, [sp, #12]
 307 004e 1B68     		ldr	r3, [r3]
 308 0050 9A42     		cmp	r2, r3
 309 0052 01D0     		beq	.L21
 310 0054 FFF7FEFF 		bl	__stack_chk_fail
 311              	.L21:
 312 0058 05B0     		add	sp, sp, #20
 313              		.cfi_def_cfa_offset 4
 314              		@ sp needed
 315 005a 5DF804FB 		ldr	pc, [sp], #4
 316              	.L23:
 317 005e 00BF     		.align	2
 318              	.L22:
 319 0060 00000000 		.word	__stack_chk_guard
 320              		.cfi_endproc
 321              	.LFE133:
 322              		.size	queue_prio_insert, .-queue_prio_insert
 323              		.section	.text.queue_fifo_remove,"ax",%progbits
 324              		.align	1
 325              		.p2align 4,,15
 326              		.syntax unified
 327              		.thumb
 328              		.thumb_func
 329              		.fpu fpv4-sp-d16
 330              		.type	queue_fifo_remove, %function
 331              	queue_fifo_remove:
 332              	.LFB135:
 333              		.loc 3 671 0
 334              		.cfi_startproc
 335              		@ args = 0, pretend = 0, frame = 16
 336              		@ frame_needed = 0, uses_anonymous_args = 0
 337 0000 00B5     		push	{lr}
 338              		.cfi_def_cfa_offset 4
 339              		.cfi_offset 14, -4
 340 0002 85B0     		sub	sp, sp, #20
 341              		.cfi_def_cfa_offset 24
 342 0004 0190     		str	r0, [sp, #4]
ARM GAS  C:\Users\PCHAUT~1\AppData\Local\Temp\ccGFPeii.s 			page 7


 343              		.loc 3 671 0
 344 0006 0D4B     		ldr	r3, .L27
 345 0008 1B68     		ldr	r3, [r3]
 346 000a 0393     		str	r3, [sp, #12]
 347              		.loc 3 672 0
 348 000c 019B     		ldr	r3, [sp, #4]
 349 000e 1B68     		ldr	r3, [r3]
 350 0010 0293     		str	r3, [sp, #8]
 351              		.loc 3 674 0
 352 0012 029B     		ldr	r3, [sp, #8]
 353 0014 1A68     		ldr	r2, [r3]
 354 0016 019B     		ldr	r3, [sp, #4]
 355 0018 1A60     		str	r2, [r3]
 356              		.loc 3 675 0
 357 001a 019B     		ldr	r3, [sp, #4]
 358 001c 1B68     		ldr	r3, [r3]
 359 001e 019A     		ldr	r2, [sp, #4]
 360 0020 5A60     		str	r2, [r3, #4]
 361              		.loc 3 677 0
 362 0022 029B     		ldr	r3, [sp, #8]
 363              		.loc 3 678 0
 364 0024 1846     		mov	r0, r3
 365 0026 054B     		ldr	r3, .L27
 366 0028 039A     		ldr	r2, [sp, #12]
 367 002a 1B68     		ldr	r3, [r3]
 368 002c 9A42     		cmp	r2, r3
 369 002e 01D0     		beq	.L26
 370 0030 FFF7FEFF 		bl	__stack_chk_fail
 371              	.L26:
 372 0034 05B0     		add	sp, sp, #20
 373              		.cfi_def_cfa_offset 4
 374              		@ sp needed
 375 0036 5DF804FB 		ldr	pc, [sp], #4
 376              	.L28:
 377 003a 00BF     		.align	2
 378              	.L27:
 379 003c 00000000 		.word	__stack_chk_guard
 380              		.cfi_endproc
 381              	.LFE135:
 382              		.size	queue_fifo_remove, .-queue_fifo_remove
 383              		.section	.text.queue_dequeue,"ax",%progbits
 384              		.align	1
 385              		.p2align 4,,15
 386              		.syntax unified
 387              		.thumb
 388              		.thumb_func
 389              		.fpu fpv4-sp-d16
 390              		.type	queue_dequeue, %function
 391              	queue_dequeue:
 392              	.LFB137:
 393              		.loc 3 689 0
 394              		.cfi_startproc
 395              		@ args = 0, pretend = 0, frame = 16
 396              		@ frame_needed = 0, uses_anonymous_args = 0
 397 0000 00B5     		push	{lr}
 398              		.cfi_def_cfa_offset 4
 399              		.cfi_offset 14, -4
ARM GAS  C:\Users\PCHAUT~1\AppData\Local\Temp\ccGFPeii.s 			page 8


 400 0002 85B0     		sub	sp, sp, #20
 401              		.cfi_def_cfa_offset 24
 402 0004 0190     		str	r0, [sp, #4]
 403              		.loc 3 689 0
 404 0006 0C4B     		ldr	r3, .L32
 405 0008 1B68     		ldr	r3, [r3]
 406 000a 0393     		str	r3, [sp, #12]
 407              		.loc 3 691 0
 408 000c 019B     		ldr	r3, [sp, #4]
 409 000e 5B68     		ldr	r3, [r3, #4]
 410 0010 019A     		ldr	r2, [sp, #4]
 411 0012 1268     		ldr	r2, [r2]
 412 0014 1A60     		str	r2, [r3]
 413              		.loc 3 692 0
 414 0016 019B     		ldr	r3, [sp, #4]
 415 0018 1B68     		ldr	r3, [r3]
 416 001a 019A     		ldr	r2, [sp, #4]
 417 001c 5268     		ldr	r2, [r2, #4]
 418 001e 5A60     		str	r2, [r3, #4]
 419              		.loc 3 694 0
 420 0020 019B     		ldr	r3, [sp, #4]
 421              		.loc 3 695 0
 422 0022 1846     		mov	r0, r3
 423 0024 044B     		ldr	r3, .L32
 424 0026 039A     		ldr	r2, [sp, #12]
 425 0028 1B68     		ldr	r3, [r3]
 426 002a 9A42     		cmp	r2, r3
 427 002c 01D0     		beq	.L31
 428 002e FFF7FEFF 		bl	__stack_chk_fail
 429              	.L31:
 430 0032 05B0     		add	sp, sp, #20
 431              		.cfi_def_cfa_offset 4
 432              		@ sp needed
 433 0034 5DF804FB 		ldr	pc, [sp], #4
 434              	.L33:
 435              		.align	2
 436              	.L32:
 437 0038 00000000 		.word	__stack_chk_guard
 438              		.cfi_endproc
 439              	.LFE137:
 440              		.size	queue_dequeue, .-queue_dequeue
 441              		.section	.text.chSysLock,"ax",%progbits
 442              		.align	1
 443              		.p2align 4,,15
 444              		.syntax unified
 445              		.thumb
 446              		.thumb_func
 447              		.fpu fpv4-sp-d16
 448              		.type	chSysLock, %function
 449              	chSysLock:
 450              	.LFB145:
 451              		.file 4 "../lib/e-puck2_main-processor/ChibiOS//os/rt/include/chsys.h"
 452              		.loc 4 346 0
 453              		.cfi_startproc
 454              		@ args = 0, pretend = 0, frame = 8
 455              		@ frame_needed = 0, uses_anonymous_args = 0
 456 0000 00B5     		push	{lr}
ARM GAS  C:\Users\PCHAUT~1\AppData\Local\Temp\ccGFPeii.s 			page 9


 457              		.cfi_def_cfa_offset 4
 458              		.cfi_offset 14, -4
 459 0002 83B0     		sub	sp, sp, #12
 460              		.cfi_def_cfa_offset 16
 461              		.loc 4 346 0
 462 0004 094B     		ldr	r3, .L36
 463 0006 1B68     		ldr	r3, [r3]
 464 0008 0193     		str	r3, [sp, #4]
 465              		.loc 4 348 0
 466 000a FFF7FEFF 		bl	port_lock
 467              		.loc 4 349 0
 468 000e FFF7FEFF 		bl	_stats_start_measure_crit_thd
 469              		.loc 4 350 0
 470 0012 FFF7FEFF 		bl	_dbg_check_lock
 471              		.loc 4 351 0
 472 0016 00BF     		nop
 473 0018 044B     		ldr	r3, .L36
 474 001a 019A     		ldr	r2, [sp, #4]
 475 001c 1B68     		ldr	r3, [r3]
 476 001e 9A42     		cmp	r2, r3
 477 0020 01D0     		beq	.L35
 478 0022 FFF7FEFF 		bl	__stack_chk_fail
 479              	.L35:
 480 0026 03B0     		add	sp, sp, #12
 481              		.cfi_def_cfa_offset 4
 482              		@ sp needed
 483 0028 5DF804FB 		ldr	pc, [sp], #4
 484              	.L37:
 485              		.align	2
 486              	.L36:
 487 002c 00000000 		.word	__stack_chk_guard
 488              		.cfi_endproc
 489              	.LFE145:
 490              		.size	chSysLock, .-chSysLock
 491              		.section	.text.chSysUnlock,"ax",%progbits
 492              		.align	1
 493              		.p2align 4,,15
 494              		.syntax unified
 495              		.thumb
 496              		.thumb_func
 497              		.fpu fpv4-sp-d16
 498              		.type	chSysUnlock, %function
 499              	chSysUnlock:
 500              	.LFB146:
 501              		.loc 4 358 0
 502              		.cfi_startproc
 503              		@ args = 0, pretend = 0, frame = 8
 504              		@ frame_needed = 0, uses_anonymous_args = 0
 505 0000 00B5     		push	{lr}
 506              		.cfi_def_cfa_offset 4
 507              		.cfi_offset 14, -4
 508 0002 83B0     		sub	sp, sp, #12
 509              		.cfi_def_cfa_offset 16
 510              		.loc 4 358 0
 511 0004 114B     		ldr	r3, .L41
 512 0006 1B68     		ldr	r3, [r3]
 513 0008 0193     		str	r3, [sp, #4]
ARM GAS  C:\Users\PCHAUT~1\AppData\Local\Temp\ccGFPeii.s 			page 10


 514              		.loc 4 360 0
 515 000a FFF7FEFF 		bl	_dbg_check_unlock
 516              		.loc 4 361 0
 517 000e FFF7FEFF 		bl	_stats_stop_measure_crit_thd
 518              		.loc 4 367 0
 519 0012 0F4B     		ldr	r3, .L41+4
 520 0014 1B68     		ldr	r3, [r3]
 521 0016 0E4A     		ldr	r2, .L41+4
 522 0018 9342     		cmp	r3, r2
 523 001a 0AD0     		beq	.L39
 524              		.loc 4 367 0 is_stmt 0 discriminator 2
 525 001c 0C4B     		ldr	r3, .L41+4
 526 001e 9B69     		ldr	r3, [r3, #24]
 527 0020 9A68     		ldr	r2, [r3, #8]
 528 0022 0B4B     		ldr	r3, .L41+4
 529 0024 1B68     		ldr	r3, [r3]
 530 0026 9B68     		ldr	r3, [r3, #8]
 531 0028 9A42     		cmp	r2, r3
 532 002a 02D2     		bcs	.L39
 533              		.loc 4 367 0 discriminator 3
 534 002c 0948     		ldr	r0, .L41+8
 535 002e FFF7FEFF 		bl	chSysHalt
 536              	.L39:
 537              		.loc 4 371 0 is_stmt 1
 538 0032 FFF7FEFF 		bl	port_unlock
 539              		.loc 4 372 0
 540 0036 00BF     		nop
 541 0038 044B     		ldr	r3, .L41
 542 003a 019A     		ldr	r2, [sp, #4]
 543 003c 1B68     		ldr	r3, [r3]
 544 003e 9A42     		cmp	r2, r3
 545 0040 01D0     		beq	.L40
 546 0042 FFF7FEFF 		bl	__stack_chk_fail
 547              	.L40:
 548 0046 03B0     		add	sp, sp, #12
 549              		.cfi_def_cfa_offset 4
 550              		@ sp needed
 551 0048 5DF804FB 		ldr	pc, [sp], #4
 552              	.L42:
 553              		.align	2
 554              	.L41:
 555 004c 00000000 		.word	__stack_chk_guard
 556 0050 00000000 		.word	ch
 557 0054 00000000 		.word	__func__.7153
 558              		.cfi_endproc
 559              	.LFE146:
 560              		.size	chSysUnlock, .-chSysUnlock
 561              		.section	.text.chMtxQueueNotEmptyS,"ax",%progbits
 562              		.align	1
 563              		.p2align 4,,15
 564              		.syntax unified
 565              		.thumb
 566              		.thumb_func
 567              		.fpu fpv4-sp-d16
 568              		.type	chMtxQueueNotEmptyS, %function
 569              	chMtxQueueNotEmptyS:
 570              	.LFB192:
ARM GAS  C:\Users\PCHAUT~1\AppData\Local\Temp\ccGFPeii.s 			page 11


 571              		.file 5 "../lib/e-puck2_main-processor/ChibiOS//os/rt/include/chmtx.h"
 572              		.loc 5 129 0
 573              		.cfi_startproc
 574              		@ args = 0, pretend = 0, frame = 16
 575              		@ frame_needed = 0, uses_anonymous_args = 0
 576 0000 00B5     		push	{lr}
 577              		.cfi_def_cfa_offset 4
 578              		.cfi_offset 14, -4
 579 0002 85B0     		sub	sp, sp, #20
 580              		.cfi_def_cfa_offset 24
 581 0004 0190     		str	r0, [sp, #4]
 582              		.loc 5 129 0
 583 0006 0A4B     		ldr	r3, .L46
 584 0008 1B68     		ldr	r3, [r3]
 585 000a 0393     		str	r3, [sp, #12]
 586              		.loc 5 131 0
 587 000c FFF7FEFF 		bl	chDbgCheckClassS
 588              		.loc 5 133 0
 589 0010 019B     		ldr	r3, [sp, #4]
 590 0012 1846     		mov	r0, r3
 591 0014 FFF7FEFF 		bl	queue_notempty
 592 0018 0346     		mov	r3, r0
 593              		.loc 5 134 0
 594 001a 1846     		mov	r0, r3
 595 001c 044B     		ldr	r3, .L46
 596 001e 039A     		ldr	r2, [sp, #12]
 597 0020 1B68     		ldr	r3, [r3]
 598 0022 9A42     		cmp	r2, r3
 599 0024 01D0     		beq	.L45
 600 0026 FFF7FEFF 		bl	__stack_chk_fail
 601              	.L45:
 602 002a 05B0     		add	sp, sp, #20
 603              		.cfi_def_cfa_offset 4
 604              		@ sp needed
 605 002c 5DF804FB 		ldr	pc, [sp], #4
 606              	.L47:
 607              		.align	2
 608              	.L46:
 609 0030 00000000 		.word	__stack_chk_guard
 610              		.cfi_endproc
 611              	.LFE192:
 612              		.size	chMtxQueueNotEmptyS, .-chMtxQueueNotEmptyS
 613              		.section	.text.chMtxObjectInit,"ax",%progbits
 614              		.align	1
 615              		.p2align 4,,15
 616              		.global	chMtxObjectInit
 617              		.syntax unified
 618              		.thumb
 619              		.thumb_func
 620              		.fpu fpv4-sp-d16
 621              		.type	chMtxObjectInit, %function
 622              	chMtxObjectInit:
 623              	.LFB219:
 624              		.file 6 "../lib/e-puck2_main-processor/ChibiOS//os/rt/src/chmtx.c"
 625              		.loc 6 103 0
 626              		.cfi_startproc
 627              		@ args = 0, pretend = 0, frame = 16
ARM GAS  C:\Users\PCHAUT~1\AppData\Local\Temp\ccGFPeii.s 			page 12


 628              		@ frame_needed = 0, uses_anonymous_args = 0
 629 0000 00B5     		push	{lr}
 630              		.cfi_def_cfa_offset 4
 631              		.cfi_offset 14, -4
 632 0002 85B0     		sub	sp, sp, #20
 633              		.cfi_def_cfa_offset 24
 634 0004 0190     		str	r0, [sp, #4]
 635              		.loc 6 103 0
 636 0006 0F4B     		ldr	r3, .L51
 637 0008 1B68     		ldr	r3, [r3]
 638 000a 0393     		str	r3, [sp, #12]
 639              		.loc 6 105 0
 640 000c 019B     		ldr	r3, [sp, #4]
 641 000e 002B     		cmp	r3, #0
 642 0010 02D1     		bne	.L49
 643              		.loc 6 105 0 is_stmt 0 discriminator 2
 644 0012 0D48     		ldr	r0, .L51+4
 645 0014 FFF7FEFF 		bl	chSysHalt
 646              	.L49:
 647              		.loc 6 107 0 is_stmt 1
 648 0018 019B     		ldr	r3, [sp, #4]
 649 001a 1846     		mov	r0, r3
 650 001c FFF7FEFF 		bl	queue_init
 651              		.loc 6 108 0
 652 0020 019B     		ldr	r3, [sp, #4]
 653 0022 0022     		movs	r2, #0
 654 0024 9A60     		str	r2, [r3, #8]
 655              		.loc 6 110 0
 656 0026 019B     		ldr	r3, [sp, #4]
 657 0028 0022     		movs	r2, #0
 658 002a 1A61     		str	r2, [r3, #16]
 659              		.loc 6 112 0
 660 002c 00BF     		nop
 661 002e 054B     		ldr	r3, .L51
 662 0030 039A     		ldr	r2, [sp, #12]
 663 0032 1B68     		ldr	r3, [r3]
 664 0034 9A42     		cmp	r2, r3
 665 0036 01D0     		beq	.L50
 666 0038 FFF7FEFF 		bl	__stack_chk_fail
 667              	.L50:
 668 003c 05B0     		add	sp, sp, #20
 669              		.cfi_def_cfa_offset 4
 670              		@ sp needed
 671 003e 5DF804FB 		ldr	pc, [sp], #4
 672              	.L52:
 673 0042 00BF     		.align	2
 674              	.L51:
 675 0044 00000000 		.word	__stack_chk_guard
 676 0048 00000000 		.word	__func__.7849
 677              		.cfi_endproc
 678              	.LFE219:
 679              		.size	chMtxObjectInit, .-chMtxObjectInit
 680              		.section	.text.chMtxLock,"ax",%progbits
 681              		.align	1
 682              		.p2align 4,,15
 683              		.global	chMtxLock
 684              		.syntax unified
ARM GAS  C:\Users\PCHAUT~1\AppData\Local\Temp\ccGFPeii.s 			page 13


 685              		.thumb
 686              		.thumb_func
 687              		.fpu fpv4-sp-d16
 688              		.type	chMtxLock, %function
 689              	chMtxLock:
 690              	.LFB220:
 691              		.loc 6 123 0
 692              		.cfi_startproc
 693              		@ args = 0, pretend = 0, frame = 16
 694              		@ frame_needed = 0, uses_anonymous_args = 0
 695 0000 00B5     		push	{lr}
 696              		.cfi_def_cfa_offset 4
 697              		.cfi_offset 14, -4
 698 0002 85B0     		sub	sp, sp, #20
 699              		.cfi_def_cfa_offset 24
 700 0004 0190     		str	r0, [sp, #4]
 701              		.loc 6 123 0
 702 0006 0A4B     		ldr	r3, .L55
 703 0008 1B68     		ldr	r3, [r3]
 704 000a 0393     		str	r3, [sp, #12]
 705              		.loc 6 125 0
 706 000c FFF7FEFF 		bl	chSysLock
 707              		.loc 6 126 0
 708 0010 0198     		ldr	r0, [sp, #4]
 709 0012 FFF7FEFF 		bl	chMtxLockS
 710              		.loc 6 127 0
 711 0016 FFF7FEFF 		bl	chSysUnlock
 712              		.loc 6 128 0
 713 001a 00BF     		nop
 714 001c 044B     		ldr	r3, .L55
 715 001e 039A     		ldr	r2, [sp, #12]
 716 0020 1B68     		ldr	r3, [r3]
 717 0022 9A42     		cmp	r2, r3
 718 0024 01D0     		beq	.L54
 719 0026 FFF7FEFF 		bl	__stack_chk_fail
 720              	.L54:
 721 002a 05B0     		add	sp, sp, #20
 722              		.cfi_def_cfa_offset 4
 723              		@ sp needed
 724 002c 5DF804FB 		ldr	pc, [sp], #4
 725              	.L56:
 726              		.align	2
 727              	.L55:
 728 0030 00000000 		.word	__stack_chk_guard
 729              		.cfi_endproc
 730              	.LFE220:
 731              		.size	chMtxLock, .-chMtxLock
 732              		.section	.text.chMtxLockS,"ax",%progbits
 733              		.align	1
 734              		.p2align 4,,15
 735              		.global	chMtxLockS
 736              		.syntax unified
 737              		.thumb
 738              		.thumb_func
 739              		.fpu fpv4-sp-d16
 740              		.type	chMtxLockS, %function
 741              	chMtxLockS:
ARM GAS  C:\Users\PCHAUT~1\AppData\Local\Temp\ccGFPeii.s 			page 14


 742              	.LFB221:
 743              		.loc 6 139 0
 744              		.cfi_startproc
 745              		@ args = 0, pretend = 0, frame = 24
 746              		@ frame_needed = 0, uses_anonymous_args = 0
 747 0000 00B5     		push	{lr}
 748              		.cfi_def_cfa_offset 4
 749              		.cfi_offset 14, -4
 750 0002 87B0     		sub	sp, sp, #28
 751              		.cfi_def_cfa_offset 32
 752 0004 0190     		str	r0, [sp, #4]
 753              		.loc 6 139 0
 754 0006 534B     		ldr	r3, .L79
 755 0008 1B68     		ldr	r3, [r3]
 756 000a 0593     		str	r3, [sp, #20]
 757              		.loc 6 140 0
 758 000c 524B     		ldr	r3, .L79+4
 759 000e 9B69     		ldr	r3, [r3, #24]
 760 0010 0493     		str	r3, [sp, #16]
 761              		.loc 6 142 0
 762 0012 FFF7FEFF 		bl	chDbgCheckClassS
 763              		.loc 6 143 0
 764 0016 019B     		ldr	r3, [sp, #4]
 765 0018 002B     		cmp	r3, #0
 766 001a 02D1     		bne	.L58
 767              		.loc 6 143 0 is_stmt 0 discriminator 2
 768 001c 4F48     		ldr	r0, .L79+8
 769 001e FFF7FEFF 		bl	chSysHalt
 770              	.L58:
 771              		.loc 6 146 0 is_stmt 1
 772 0022 019B     		ldr	r3, [sp, #4]
 773 0024 9B68     		ldr	r3, [r3, #8]
 774 0026 002B     		cmp	r3, #0
 775 0028 73D0     		beq	.L59
 776              		.loc 6 149 0 discriminator 1
 777 002a 019B     		ldr	r3, [sp, #4]
 778 002c 1B69     		ldr	r3, [r3, #16]
 779 002e 002B     		cmp	r3, #0
 780 0030 02DC     		bgt	.L60
 781              		.loc 6 149 0 is_stmt 0 discriminator 2
 782 0032 4A48     		ldr	r0, .L79+8
 783 0034 FFF7FEFF 		bl	chSysHalt
 784              	.L60:
 785              		.loc 6 153 0 is_stmt 1
 786 0038 019B     		ldr	r3, [sp, #4]
 787 003a 9B68     		ldr	r3, [r3, #8]
 788 003c 049A     		ldr	r2, [sp, #16]
 789 003e 9A42     		cmp	r2, r3
 790 0040 05D1     		bne	.L61
 791              		.loc 6 154 0
 792 0042 019B     		ldr	r3, [sp, #4]
 793 0044 1B69     		ldr	r3, [r3, #16]
 794 0046 5A1C     		adds	r2, r3, #1
 795 0048 019B     		ldr	r3, [sp, #4]
 796 004a 1A61     		str	r2, [r3, #16]
 797              		.loc 6 236 0
 798 004c 77E0     		b	.L78
ARM GAS  C:\Users\PCHAUT~1\AppData\Local\Temp\ccGFPeii.s 			page 15


 799              	.L61:
 800              	.LBB10:
 801              		.loc 6 161 0
 802 004e 019B     		ldr	r3, [sp, #4]
 803 0050 9B68     		ldr	r3, [r3, #8]
 804 0052 0393     		str	r3, [sp, #12]
 805              		.loc 6 165 0
 806 0054 34E0     		b	.L63
 807              	.L70:
 808              		.loc 6 167 0
 809 0056 049B     		ldr	r3, [sp, #16]
 810 0058 9A68     		ldr	r2, [r3, #8]
 811 005a 039B     		ldr	r3, [sp, #12]
 812 005c 9A60     		str	r2, [r3, #8]
 813              		.loc 6 170 0
 814 005e 039B     		ldr	r3, [sp, #12]
 815 0060 93F82030 		ldrb	r3, [r3, #32]	@ zero_extendqisi2
 816 0064 062B     		cmp	r3, #6
 817 0066 04D0     		beq	.L65
 818 0068 072B     		cmp	r3, #7
 819 006a 11D0     		beq	.L66
 820 006c 002B     		cmp	r3, #0
 821 006e 1AD0     		beq	.L67
 822              		.loc 6 206 0
 823 0070 25E0     		b	.L68
 824              	.L65:
 825              		.loc 6 173 0
 826 0072 0398     		ldr	r0, [sp, #12]
 827 0074 FFF7FEFF 		bl	queue_dequeue
 828 0078 0246     		mov	r2, r0
 829 007a 039B     		ldr	r3, [sp, #12]
 830 007c 9B6A     		ldr	r3, [r3, #40]
 831 007e 1946     		mov	r1, r3
 832 0080 1046     		mov	r0, r2
 833 0082 FFF7FEFF 		bl	queue_prio_insert
 834              		.loc 6 174 0
 835 0086 039B     		ldr	r3, [sp, #12]
 836 0088 9B6A     		ldr	r3, [r3, #40]
 837 008a 9B68     		ldr	r3, [r3, #8]
 838 008c 0393     		str	r3, [sp, #12]
 839              		.loc 6 176 0
 840 008e 17E0     		b	.L63
 841              	.L66:
 842              		.loc 6 193 0
 843 0090 0398     		ldr	r0, [sp, #12]
 844 0092 FFF7FEFF 		bl	queue_dequeue
 845 0096 0246     		mov	r2, r0
 846 0098 039B     		ldr	r3, [sp, #12]
 847 009a 9B6A     		ldr	r3, [r3, #40]
 848 009c 1946     		mov	r1, r3
 849 009e 1046     		mov	r0, r2
 850 00a0 FFF7FEFF 		bl	queue_prio_insert
 851              		.loc 6 194 0
 852 00a4 0BE0     		b	.L68
 853              	.L67:
 854              		.loc 6 199 0
 855 00a6 039B     		ldr	r3, [sp, #12]
ARM GAS  C:\Users\PCHAUT~1\AppData\Local\Temp\ccGFPeii.s 			page 16


 856 00a8 0122     		movs	r2, #1
 857 00aa 83F82020 		strb	r2, [r3, #32]
 858              		.loc 6 202 0
 859 00ae 0398     		ldr	r0, [sp, #12]
 860 00b0 FFF7FEFF 		bl	queue_dequeue
 861 00b4 0346     		mov	r3, r0
 862 00b6 1846     		mov	r0, r3
 863 00b8 FFF7FEFF 		bl	chSchReadyI
 864              		.loc 6 203 0
 865 00bc 00BF     		nop
 866              	.L68:
 867              		.loc 6 208 0
 868 00be 05E0     		b	.L69
 869              	.L63:
 870              		.loc 6 165 0
 871 00c0 039B     		ldr	r3, [sp, #12]
 872 00c2 9A68     		ldr	r2, [r3, #8]
 873 00c4 049B     		ldr	r3, [sp, #16]
 874 00c6 9B68     		ldr	r3, [r3, #8]
 875 00c8 9A42     		cmp	r2, r3
 876 00ca C4D3     		bcc	.L70
 877              	.L69:
 878              		.loc 6 212 0
 879 00cc 019B     		ldr	r3, [sp, #4]
 880 00ce 1946     		mov	r1, r3
 881 00d0 0498     		ldr	r0, [sp, #16]
 882 00d2 FFF7FEFF 		bl	queue_prio_insert
 883              		.loc 6 213 0
 884 00d6 049B     		ldr	r3, [sp, #16]
 885 00d8 019A     		ldr	r2, [sp, #4]
 886 00da 9A62     		str	r2, [r3, #40]
 887              		.loc 6 214 0
 888 00dc 0620     		movs	r0, #6
 889 00de FFF7FEFF 		bl	chSchGoSleepS
 890              		.loc 6 218 0
 891 00e2 019B     		ldr	r3, [sp, #4]
 892 00e4 9B68     		ldr	r3, [r3, #8]
 893 00e6 049A     		ldr	r2, [sp, #16]
 894 00e8 9A42     		cmp	r2, r3
 895 00ea 02D0     		beq	.L76
 896              		.loc 6 218 0 is_stmt 0 discriminator 2
 897 00ec 1B48     		ldr	r0, .L79+8
 898 00ee FFF7FEFF 		bl	chSysHalt
 899              	.L76:
 900              		.loc 6 219 0 is_stmt 1 discriminator 1
 901 00f2 049B     		ldr	r3, [sp, #16]
 902 00f4 1B6C     		ldr	r3, [r3, #64]
 903 00f6 019A     		ldr	r2, [sp, #4]
 904 00f8 9A42     		cmp	r2, r3
 905 00fa 02D0     		beq	.L77
 906              		.loc 6 219 0 is_stmt 0 discriminator 2
 907 00fc 1748     		ldr	r0, .L79+8
 908 00fe FFF7FEFF 		bl	chSysHalt
 909              	.L77:
 910              		.loc 6 221 0 is_stmt 1 discriminator 1
 911 0102 019B     		ldr	r3, [sp, #4]
 912 0104 1B69     		ldr	r3, [r3, #16]
ARM GAS  C:\Users\PCHAUT~1\AppData\Local\Temp\ccGFPeii.s 			page 17


 913 0106 012B     		cmp	r3, #1
 914 0108 19D0     		beq	.L78
 915              		.loc 6 221 0 is_stmt 0 discriminator 2
 916 010a 1448     		ldr	r0, .L79+8
 917 010c FFF7FEFF 		bl	chSysHalt
 918              	.LBE10:
 919              		.loc 6 236 0 is_stmt 1 discriminator 2
 920 0110 15E0     		b	.L78
 921              	.L59:
 922              		.loc 6 227 0 discriminator 1
 923 0112 019B     		ldr	r3, [sp, #4]
 924 0114 1B69     		ldr	r3, [r3, #16]
 925 0116 002B     		cmp	r3, #0
 926 0118 02D0     		beq	.L74
 927              		.loc 6 227 0 is_stmt 0 discriminator 2
 928 011a 1048     		ldr	r0, .L79+8
 929 011c FFF7FEFF 		bl	chSysHalt
 930              	.L74:
 931              		.loc 6 229 0 is_stmt 1
 932 0120 019B     		ldr	r3, [sp, #4]
 933 0122 1B69     		ldr	r3, [r3, #16]
 934 0124 5A1C     		adds	r2, r3, #1
 935 0126 019B     		ldr	r3, [sp, #4]
 936 0128 1A61     		str	r2, [r3, #16]
 937              		.loc 6 232 0
 938 012a 019B     		ldr	r3, [sp, #4]
 939 012c 049A     		ldr	r2, [sp, #16]
 940 012e 9A60     		str	r2, [r3, #8]
 941              		.loc 6 233 0
 942 0130 049B     		ldr	r3, [sp, #16]
 943 0132 1A6C     		ldr	r2, [r3, #64]
 944 0134 019B     		ldr	r3, [sp, #4]
 945 0136 DA60     		str	r2, [r3, #12]
 946              		.loc 6 234 0
 947 0138 049B     		ldr	r3, [sp, #16]
 948 013a 019A     		ldr	r2, [sp, #4]
 949 013c 1A64     		str	r2, [r3, #64]
 950              	.L78:
 951              		.loc 6 236 0
 952 013e 00BF     		nop
 953 0140 044B     		ldr	r3, .L79
 954 0142 059A     		ldr	r2, [sp, #20]
 955 0144 1B68     		ldr	r3, [r3]
 956 0146 9A42     		cmp	r2, r3
 957 0148 01D0     		beq	.L75
 958 014a FFF7FEFF 		bl	__stack_chk_fail
 959              	.L75:
 960 014e 07B0     		add	sp, sp, #28
 961              		.cfi_def_cfa_offset 4
 962              		@ sp needed
 963 0150 5DF804FB 		ldr	pc, [sp], #4
 964              	.L80:
 965              		.align	2
 966              	.L79:
 967 0154 00000000 		.word	__stack_chk_guard
 968 0158 00000000 		.word	ch
 969 015c 00000000 		.word	__func__.7857
ARM GAS  C:\Users\PCHAUT~1\AppData\Local\Temp\ccGFPeii.s 			page 18


 970              		.cfi_endproc
 971              	.LFE221:
 972              		.size	chMtxLockS, .-chMtxLockS
 973              		.section	.text.chMtxTryLock,"ax",%progbits
 974              		.align	1
 975              		.p2align 4,,15
 976              		.global	chMtxTryLock
 977              		.syntax unified
 978              		.thumb
 979              		.thumb_func
 980              		.fpu fpv4-sp-d16
 981              		.type	chMtxTryLock, %function
 982              	chMtxTryLock:
 983              	.LFB222:
 984              		.loc 6 255 0
 985              		.cfi_startproc
 986              		@ args = 0, pretend = 0, frame = 16
 987              		@ frame_needed = 0, uses_anonymous_args = 0
 988 0000 00B5     		push	{lr}
 989              		.cfi_def_cfa_offset 4
 990              		.cfi_offset 14, -4
 991 0002 85B0     		sub	sp, sp, #20
 992              		.cfi_def_cfa_offset 24
 993 0004 0190     		str	r0, [sp, #4]
 994              		.loc 6 255 0
 995 0006 0D4B     		ldr	r3, .L84
 996 0008 1B68     		ldr	r3, [r3]
 997 000a 0393     		str	r3, [sp, #12]
 998              		.loc 6 258 0
 999 000c FFF7FEFF 		bl	chSysLock
 1000              		.loc 6 259 0
 1001 0010 0198     		ldr	r0, [sp, #4]
 1002 0012 FFF7FEFF 		bl	chMtxTryLockS
 1003 0016 0346     		mov	r3, r0
 1004 0018 8DF80B30 		strb	r3, [sp, #11]
 1005              		.loc 6 260 0
 1006 001c FFF7FEFF 		bl	chSysUnlock
 1007              		.loc 6 262 0
 1008 0020 9DF80B30 		ldrb	r3, [sp, #11]	@ zero_extendqisi2
 1009              		.loc 6 263 0
 1010 0024 1846     		mov	r0, r3
 1011 0026 054B     		ldr	r3, .L84
 1012 0028 039A     		ldr	r2, [sp, #12]
 1013 002a 1B68     		ldr	r3, [r3]
 1014 002c 9A42     		cmp	r2, r3
 1015 002e 01D0     		beq	.L83
 1016 0030 FFF7FEFF 		bl	__stack_chk_fail
 1017              	.L83:
 1018 0034 05B0     		add	sp, sp, #20
 1019              		.cfi_def_cfa_offset 4
 1020              		@ sp needed
 1021 0036 5DF804FB 		ldr	pc, [sp], #4
 1022              	.L85:
 1023 003a 00BF     		.align	2
 1024              	.L84:
 1025 003c 00000000 		.word	__stack_chk_guard
 1026              		.cfi_endproc
ARM GAS  C:\Users\PCHAUT~1\AppData\Local\Temp\ccGFPeii.s 			page 19


 1027              	.LFE222:
 1028              		.size	chMtxTryLock, .-chMtxTryLock
 1029              		.section	.text.chMtxTryLockS,"ax",%progbits
 1030              		.align	1
 1031              		.p2align 4,,15
 1032              		.global	chMtxTryLockS
 1033              		.syntax unified
 1034              		.thumb
 1035              		.thumb_func
 1036              		.fpu fpv4-sp-d16
 1037              		.type	chMtxTryLockS, %function
 1038              	chMtxTryLockS:
 1039              	.LFB223:
 1040              		.loc 6 282 0
 1041              		.cfi_startproc
 1042              		@ args = 0, pretend = 0, frame = 16
 1043              		@ frame_needed = 0, uses_anonymous_args = 0
 1044 0000 00B5     		push	{lr}
 1045              		.cfi_def_cfa_offset 4
 1046              		.cfi_offset 14, -4
 1047 0002 85B0     		sub	sp, sp, #20
 1048              		.cfi_def_cfa_offset 24
 1049 0004 0190     		str	r0, [sp, #4]
 1050              		.loc 6 282 0
 1051 0006 254B     		ldr	r3, .L94
 1052 0008 1B68     		ldr	r3, [r3]
 1053 000a 0393     		str	r3, [sp, #12]
 1054              		.loc 6 284 0
 1055 000c FFF7FEFF 		bl	chDbgCheckClassS
 1056              		.loc 6 285 0
 1057 0010 019B     		ldr	r3, [sp, #4]
 1058 0012 002B     		cmp	r3, #0
 1059 0014 02D1     		bne	.L87
 1060              		.loc 6 285 0 is_stmt 0 discriminator 2
 1061 0016 2248     		ldr	r0, .L94+4
 1062 0018 FFF7FEFF 		bl	chSysHalt
 1063              	.L87:
 1064              		.loc 6 287 0 is_stmt 1
 1065 001c 019B     		ldr	r3, [sp, #4]
 1066 001e 9B68     		ldr	r3, [r3, #8]
 1067 0020 002B     		cmp	r3, #0
 1068 0022 15D0     		beq	.L88
 1069              		.loc 6 290 0 discriminator 1
 1070 0024 019B     		ldr	r3, [sp, #4]
 1071 0026 1B69     		ldr	r3, [r3, #16]
 1072 0028 002B     		cmp	r3, #0
 1073 002a 02DC     		bgt	.L89
 1074              		.loc 6 290 0 is_stmt 0 discriminator 2
 1075 002c 1C48     		ldr	r0, .L94+4
 1076 002e FFF7FEFF 		bl	chSysHalt
 1077              	.L89:
 1078              		.loc 6 292 0 is_stmt 1
 1079 0032 019B     		ldr	r3, [sp, #4]
 1080 0034 9A68     		ldr	r2, [r3, #8]
 1081 0036 1B4B     		ldr	r3, .L94+8
 1082 0038 9B69     		ldr	r3, [r3, #24]
 1083 003a 9A42     		cmp	r2, r3
ARM GAS  C:\Users\PCHAUT~1\AppData\Local\Temp\ccGFPeii.s 			page 20


 1084 003c 06D1     		bne	.L90
 1085              		.loc 6 293 0
 1086 003e 019B     		ldr	r3, [sp, #4]
 1087 0040 1B69     		ldr	r3, [r3, #16]
 1088 0042 5A1C     		adds	r2, r3, #1
 1089 0044 019B     		ldr	r3, [sp, #4]
 1090 0046 1A61     		str	r2, [r3, #16]
 1091              		.loc 6 294 0
 1092 0048 0123     		movs	r3, #1
 1093 004a 1BE0     		b	.L91
 1094              	.L90:
 1095              		.loc 6 297 0
 1096 004c 0023     		movs	r3, #0
 1097 004e 19E0     		b	.L91
 1098              	.L88:
 1099              		.loc 6 301 0 discriminator 1
 1100 0050 019B     		ldr	r3, [sp, #4]
 1101 0052 1B69     		ldr	r3, [r3, #16]
 1102 0054 002B     		cmp	r3, #0
 1103 0056 02D0     		beq	.L92
 1104              		.loc 6 301 0 is_stmt 0 discriminator 2
 1105 0058 1148     		ldr	r0, .L94+4
 1106 005a FFF7FEFF 		bl	chSysHalt
 1107              	.L92:
 1108              		.loc 6 303 0 is_stmt 1
 1109 005e 019B     		ldr	r3, [sp, #4]
 1110 0060 1B69     		ldr	r3, [r3, #16]
 1111 0062 5A1C     		adds	r2, r3, #1
 1112 0064 019B     		ldr	r3, [sp, #4]
 1113 0066 1A61     		str	r2, [r3, #16]
 1114              		.loc 6 305 0
 1115 0068 0E4B     		ldr	r3, .L94+8
 1116 006a 9A69     		ldr	r2, [r3, #24]
 1117 006c 019B     		ldr	r3, [sp, #4]
 1118 006e 9A60     		str	r2, [r3, #8]
 1119              		.loc 6 306 0
 1120 0070 0C4B     		ldr	r3, .L94+8
 1121 0072 9B69     		ldr	r3, [r3, #24]
 1122 0074 1A6C     		ldr	r2, [r3, #64]
 1123 0076 019B     		ldr	r3, [sp, #4]
 1124 0078 DA60     		str	r2, [r3, #12]
 1125              		.loc 6 307 0
 1126 007a 0A4B     		ldr	r3, .L94+8
 1127 007c 9B69     		ldr	r3, [r3, #24]
 1128 007e 019A     		ldr	r2, [sp, #4]
 1129 0080 1A64     		str	r2, [r3, #64]
 1130              		.loc 6 308 0
 1131 0082 0123     		movs	r3, #1
 1132              	.L91:
 1133              		.loc 6 309 0
 1134 0084 1846     		mov	r0, r3
 1135 0086 054B     		ldr	r3, .L94
 1136 0088 039A     		ldr	r2, [sp, #12]
 1137 008a 1B68     		ldr	r3, [r3]
 1138 008c 9A42     		cmp	r2, r3
 1139 008e 01D0     		beq	.L93
 1140 0090 FFF7FEFF 		bl	__stack_chk_fail
ARM GAS  C:\Users\PCHAUT~1\AppData\Local\Temp\ccGFPeii.s 			page 21


 1141              	.L93:
 1142 0094 05B0     		add	sp, sp, #20
 1143              		.cfi_def_cfa_offset 4
 1144              		@ sp needed
 1145 0096 5DF804FB 		ldr	pc, [sp], #4
 1146              	.L95:
 1147 009a 00BF     		.align	2
 1148              	.L94:
 1149 009c 00000000 		.word	__stack_chk_guard
 1150 00a0 00000000 		.word	__func__.7874
 1151 00a4 00000000 		.word	ch
 1152              		.cfi_endproc
 1153              	.LFE223:
 1154              		.size	chMtxTryLockS, .-chMtxTryLockS
 1155              		.section	.text.chMtxUnlock,"ax",%progbits
 1156              		.align	1
 1157              		.p2align 4,,15
 1158              		.global	chMtxUnlock
 1159              		.syntax unified
 1160              		.thumb
 1161              		.thumb_func
 1162              		.fpu fpv4-sp-d16
 1163              		.type	chMtxUnlock, %function
 1164              	chMtxUnlock:
 1165              	.LFB224:
 1166              		.loc 6 323 0
 1167              		.cfi_startproc
 1168              		@ args = 0, pretend = 0, frame = 32
 1169              		@ frame_needed = 0, uses_anonymous_args = 0
 1170 0000 00B5     		push	{lr}
 1171              		.cfi_def_cfa_offset 4
 1172              		.cfi_offset 14, -4
 1173 0002 89B0     		sub	sp, sp, #36
 1174              		.cfi_def_cfa_offset 40
 1175 0004 0190     		str	r0, [sp, #4]
 1176              		.loc 6 323 0
 1177 0006 434B     		ldr	r3, .L110
 1178 0008 1B68     		ldr	r3, [r3]
 1179 000a 0793     		str	r3, [sp, #28]
 1180              		.loc 6 324 0
 1181 000c 424B     		ldr	r3, .L110+4
 1182 000e 9B69     		ldr	r3, [r3, #24]
 1183 0010 0593     		str	r3, [sp, #20]
 1184              		.loc 6 327 0
 1185 0012 019B     		ldr	r3, [sp, #4]
 1186 0014 002B     		cmp	r3, #0
 1187 0016 02D1     		bne	.L97
 1188              		.loc 6 327 0 is_stmt 0 discriminator 2
 1189 0018 4048     		ldr	r0, .L110+8
 1190 001a FFF7FEFF 		bl	chSysHalt
 1191              	.L97:
 1192              		.loc 6 329 0 is_stmt 1
 1193 001e FFF7FEFF 		bl	chSysLock
 1194              		.loc 6 331 0
 1195 0022 059B     		ldr	r3, [sp, #20]
 1196 0024 1B6C     		ldr	r3, [r3, #64]
 1197 0026 002B     		cmp	r3, #0
ARM GAS  C:\Users\PCHAUT~1\AppData\Local\Temp\ccGFPeii.s 			page 22


 1198 0028 02D1     		bne	.L108
 1199              		.loc 6 331 0 is_stmt 0 discriminator 2
 1200 002a 3C48     		ldr	r0, .L110+8
 1201 002c FFF7FEFF 		bl	chSysHalt
 1202              	.L108:
 1203              		.loc 6 332 0 is_stmt 1 discriminator 1
 1204 0030 059B     		ldr	r3, [sp, #20]
 1205 0032 1B6C     		ldr	r3, [r3, #64]
 1206 0034 9B68     		ldr	r3, [r3, #8]
 1207 0036 059A     		ldr	r2, [sp, #20]
 1208 0038 9A42     		cmp	r2, r3
 1209 003a 02D0     		beq	.L109
 1210              		.loc 6 332 0 is_stmt 0 discriminator 2
 1211 003c 3748     		ldr	r0, .L110+8
 1212 003e FFF7FEFF 		bl	chSysHalt
 1213              	.L109:
 1214              		.loc 6 334 0 is_stmt 1 discriminator 1
 1215 0042 019B     		ldr	r3, [sp, #4]
 1216 0044 1B69     		ldr	r3, [r3, #16]
 1217 0046 002B     		cmp	r3, #0
 1218 0048 02DC     		bgt	.L100
 1219              		.loc 6 334 0 is_stmt 0 discriminator 2
 1220 004a 3448     		ldr	r0, .L110+8
 1221 004c FFF7FEFF 		bl	chSysHalt
 1222              	.L100:
 1223              		.loc 6 336 0 is_stmt 1
 1224 0050 019B     		ldr	r3, [sp, #4]
 1225 0052 1B69     		ldr	r3, [r3, #16]
 1226 0054 5A1E     		subs	r2, r3, #1
 1227 0056 019B     		ldr	r3, [sp, #4]
 1228 0058 1A61     		str	r2, [r3, #16]
 1229 005a 019B     		ldr	r3, [sp, #4]
 1230 005c 1B69     		ldr	r3, [r3, #16]
 1231 005e 002B     		cmp	r3, #0
 1232 0060 4BD1     		bne	.L101
 1233              		.loc 6 339 0 discriminator 1
 1234 0062 059B     		ldr	r3, [sp, #20]
 1235 0064 1B6C     		ldr	r3, [r3, #64]
 1236 0066 019A     		ldr	r2, [sp, #4]
 1237 0068 9A42     		cmp	r2, r3
 1238 006a 02D0     		beq	.L102
 1239              		.loc 6 339 0 is_stmt 0 discriminator 2
 1240 006c 2B48     		ldr	r0, .L110+8
 1241 006e FFF7FEFF 		bl	chSysHalt
 1242              	.L102:
 1243              		.loc 6 344 0 is_stmt 1
 1244 0072 019B     		ldr	r3, [sp, #4]
 1245 0074 DA68     		ldr	r2, [r3, #12]
 1246 0076 059B     		ldr	r3, [sp, #20]
 1247 0078 1A64     		str	r2, [r3, #64]
 1248              		.loc 6 347 0
 1249 007a 0198     		ldr	r0, [sp, #4]
 1250 007c FFF7FEFF 		bl	chMtxQueueNotEmptyS
 1251 0080 0346     		mov	r3, r0
 1252 0082 002B     		cmp	r3, #0
 1253 0084 36D0     		beq	.L103
 1254              	.LBB11:
ARM GAS  C:\Users\PCHAUT~1\AppData\Local\Temp\ccGFPeii.s 			page 23


 1255              		.loc 6 352 0
 1256 0086 059B     		ldr	r3, [sp, #20]
 1257 0088 5B6C     		ldr	r3, [r3, #68]
 1258 008a 0493     		str	r3, [sp, #16]
 1259              		.loc 6 353 0
 1260 008c 059B     		ldr	r3, [sp, #20]
 1261 008e 1B6C     		ldr	r3, [r3, #64]
 1262 0090 0393     		str	r3, [sp, #12]
 1263              		.loc 6 354 0
 1264 0092 12E0     		b	.L104
 1265              	.L106:
 1266              		.loc 6 358 0
 1267 0094 0398     		ldr	r0, [sp, #12]
 1268 0096 FFF7FEFF 		bl	chMtxQueueNotEmptyS
 1269 009a 0346     		mov	r3, r0
 1270 009c 002B     		cmp	r3, #0
 1271 009e 09D0     		beq	.L105
 1272              		.loc 6 359 0 discriminator 1
 1273 00a0 039B     		ldr	r3, [sp, #12]
 1274 00a2 1B68     		ldr	r3, [r3]
 1275 00a4 9B68     		ldr	r3, [r3, #8]
 1276              		.loc 6 358 0 discriminator 1
 1277 00a6 049A     		ldr	r2, [sp, #16]
 1278 00a8 9A42     		cmp	r2, r3
 1279 00aa 03D2     		bcs	.L105
 1280              		.loc 6 360 0
 1281 00ac 039B     		ldr	r3, [sp, #12]
 1282 00ae 1B68     		ldr	r3, [r3]
 1283 00b0 9B68     		ldr	r3, [r3, #8]
 1284 00b2 0493     		str	r3, [sp, #16]
 1285              	.L105:
 1286              		.loc 6 362 0
 1287 00b4 039B     		ldr	r3, [sp, #12]
 1288 00b6 DB68     		ldr	r3, [r3, #12]
 1289 00b8 0393     		str	r3, [sp, #12]
 1290              	.L104:
 1291              		.loc 6 354 0
 1292 00ba 039B     		ldr	r3, [sp, #12]
 1293 00bc 002B     		cmp	r3, #0
 1294 00be E9D1     		bne	.L106
 1295              		.loc 6 367 0
 1296 00c0 059B     		ldr	r3, [sp, #20]
 1297 00c2 049A     		ldr	r2, [sp, #16]
 1298 00c4 9A60     		str	r2, [r3, #8]
 1299              		.loc 6 372 0
 1300 00c6 019B     		ldr	r3, [sp, #4]
 1301 00c8 0122     		movs	r2, #1
 1302 00ca 1A61     		str	r2, [r3, #16]
 1303              		.loc 6 374 0
 1304 00cc 019B     		ldr	r3, [sp, #4]
 1305 00ce 1846     		mov	r0, r3
 1306 00d0 FFF7FEFF 		bl	queue_fifo_remove
 1307 00d4 0690     		str	r0, [sp, #24]
 1308              		.loc 6 375 0
 1309 00d6 019B     		ldr	r3, [sp, #4]
 1310 00d8 069A     		ldr	r2, [sp, #24]
 1311 00da 9A60     		str	r2, [r3, #8]
ARM GAS  C:\Users\PCHAUT~1\AppData\Local\Temp\ccGFPeii.s 			page 24


 1312              		.loc 6 376 0
 1313 00dc 069B     		ldr	r3, [sp, #24]
 1314 00de 1A6C     		ldr	r2, [r3, #64]
 1315 00e0 019B     		ldr	r3, [sp, #4]
 1316 00e2 DA60     		str	r2, [r3, #12]
 1317              		.loc 6 377 0
 1318 00e4 069B     		ldr	r3, [sp, #24]
 1319 00e6 019A     		ldr	r2, [sp, #4]
 1320 00e8 1A64     		str	r2, [r3, #64]
 1321              		.loc 6 378 0
 1322 00ea 0021     		movs	r1, #0
 1323 00ec 0698     		ldr	r0, [sp, #24]
 1324 00ee FFF7FEFF 		bl	chSchWakeupS
 1325              	.LBE11:
 1326 00f2 02E0     		b	.L101
 1327              	.L103:
 1328              		.loc 6 381 0
 1329 00f4 019B     		ldr	r3, [sp, #4]
 1330 00f6 0022     		movs	r2, #0
 1331 00f8 9A60     		str	r2, [r3, #8]
 1332              	.L101:
 1333              		.loc 6 387 0
 1334 00fa FFF7FEFF 		bl	chSysUnlock
 1335              		.loc 6 388 0
 1336 00fe 00BF     		nop
 1337 0100 044B     		ldr	r3, .L110
 1338 0102 079A     		ldr	r2, [sp, #28]
 1339 0104 1B68     		ldr	r3, [r3]
 1340 0106 9A42     		cmp	r2, r3
 1341 0108 01D0     		beq	.L107
 1342 010a FFF7FEFF 		bl	__stack_chk_fail
 1343              	.L107:
 1344 010e 09B0     		add	sp, sp, #36
 1345              		.cfi_def_cfa_offset 4
 1346              		@ sp needed
 1347 0110 5DF804FB 		ldr	pc, [sp], #4
 1348              	.L111:
 1349              		.align	2
 1350              	.L110:
 1351 0114 00000000 		.word	__stack_chk_guard
 1352 0118 00000000 		.word	ch
 1353 011c 00000000 		.word	__func__.7880
 1354              		.cfi_endproc
 1355              	.LFE224:
 1356              		.size	chMtxUnlock, .-chMtxUnlock
 1357              		.section	.text.chMtxUnlockS,"ax",%progbits
 1358              		.align	1
 1359              		.p2align 4,,15
 1360              		.global	chMtxUnlockS
 1361              		.syntax unified
 1362              		.thumb
 1363              		.thumb_func
 1364              		.fpu fpv4-sp-d16
 1365              		.type	chMtxUnlockS, %function
 1366              	chMtxUnlockS:
 1367              	.LFB225:
 1368              		.loc 6 404 0
ARM GAS  C:\Users\PCHAUT~1\AppData\Local\Temp\ccGFPeii.s 			page 25


 1369              		.cfi_startproc
 1370              		@ args = 0, pretend = 0, frame = 32
 1371              		@ frame_needed = 0, uses_anonymous_args = 0
 1372 0000 00B5     		push	{lr}
 1373              		.cfi_def_cfa_offset 4
 1374              		.cfi_offset 14, -4
 1375 0002 89B0     		sub	sp, sp, #36
 1376              		.cfi_def_cfa_offset 40
 1377 0004 0190     		str	r0, [sp, #4]
 1378              		.loc 6 404 0
 1379 0006 424B     		ldr	r3, .L128
 1380 0008 1B68     		ldr	r3, [r3]
 1381 000a 0793     		str	r3, [sp, #28]
 1382              		.loc 6 405 0
 1383 000c 414B     		ldr	r3, .L128+4
 1384 000e 9B69     		ldr	r3, [r3, #24]
 1385 0010 0593     		str	r3, [sp, #20]
 1386              		.loc 6 408 0
 1387 0012 FFF7FEFF 		bl	chDbgCheckClassS
 1388              		.loc 6 409 0
 1389 0016 019B     		ldr	r3, [sp, #4]
 1390 0018 002B     		cmp	r3, #0
 1391 001a 02D1     		bne	.L124
 1392              		.loc 6 409 0 is_stmt 0 discriminator 2
 1393 001c 3E48     		ldr	r0, .L128+8
 1394 001e FFF7FEFF 		bl	chSysHalt
 1395              	.L124:
 1396              		.loc 6 411 0 is_stmt 1 discriminator 1
 1397 0022 059B     		ldr	r3, [sp, #20]
 1398 0024 1B6C     		ldr	r3, [r3, #64]
 1399 0026 002B     		cmp	r3, #0
 1400 0028 02D1     		bne	.L125
 1401              		.loc 6 411 0 is_stmt 0 discriminator 2
 1402 002a 3B48     		ldr	r0, .L128+8
 1403 002c FFF7FEFF 		bl	chSysHalt
 1404              	.L125:
 1405              		.loc 6 412 0 is_stmt 1 discriminator 1
 1406 0030 059B     		ldr	r3, [sp, #20]
 1407 0032 1B6C     		ldr	r3, [r3, #64]
 1408 0034 9B68     		ldr	r3, [r3, #8]
 1409 0036 059A     		ldr	r2, [sp, #20]
 1410 0038 9A42     		cmp	r2, r3
 1411 003a 02D0     		beq	.L126
 1412              		.loc 6 412 0 is_stmt 0 discriminator 2
 1413 003c 3648     		ldr	r0, .L128+8
 1414 003e FFF7FEFF 		bl	chSysHalt
 1415              	.L126:
 1416              		.loc 6 414 0 is_stmt 1 discriminator 1
 1417 0042 019B     		ldr	r3, [sp, #4]
 1418 0044 1B69     		ldr	r3, [r3, #16]
 1419 0046 002B     		cmp	r3, #0
 1420 0048 02DC     		bgt	.L116
 1421              		.loc 6 414 0 is_stmt 0 discriminator 2
 1422 004a 3348     		ldr	r0, .L128+8
 1423 004c FFF7FEFF 		bl	chSysHalt
 1424              	.L116:
 1425              		.loc 6 416 0 is_stmt 1
ARM GAS  C:\Users\PCHAUT~1\AppData\Local\Temp\ccGFPeii.s 			page 26


 1426 0050 019B     		ldr	r3, [sp, #4]
 1427 0052 1B69     		ldr	r3, [r3, #16]
 1428 0054 5A1E     		subs	r2, r3, #1
 1429 0056 019B     		ldr	r3, [sp, #4]
 1430 0058 1A61     		str	r2, [r3, #16]
 1431 005a 019B     		ldr	r3, [sp, #4]
 1432 005c 1B69     		ldr	r3, [r3, #16]
 1433 005e 002B     		cmp	r3, #0
 1434 0060 4AD1     		bne	.L127
 1435              		.loc 6 419 0 discriminator 1
 1436 0062 059B     		ldr	r3, [sp, #20]
 1437 0064 1B6C     		ldr	r3, [r3, #64]
 1438 0066 019A     		ldr	r2, [sp, #4]
 1439 0068 9A42     		cmp	r2, r3
 1440 006a 02D0     		beq	.L118
 1441              		.loc 6 419 0 is_stmt 0 discriminator 2
 1442 006c 2A48     		ldr	r0, .L128+8
 1443 006e FFF7FEFF 		bl	chSysHalt
 1444              	.L118:
 1445              		.loc 6 424 0 is_stmt 1
 1446 0072 019B     		ldr	r3, [sp, #4]
 1447 0074 DA68     		ldr	r2, [r3, #12]
 1448 0076 059B     		ldr	r3, [sp, #20]
 1449 0078 1A64     		str	r2, [r3, #64]
 1450              		.loc 6 427 0
 1451 007a 0198     		ldr	r0, [sp, #4]
 1452 007c FFF7FEFF 		bl	chMtxQueueNotEmptyS
 1453 0080 0346     		mov	r3, r0
 1454 0082 002B     		cmp	r3, #0
 1455 0084 35D0     		beq	.L119
 1456              	.LBB12:
 1457              		.loc 6 432 0
 1458 0086 059B     		ldr	r3, [sp, #20]
 1459 0088 5B6C     		ldr	r3, [r3, #68]
 1460 008a 0493     		str	r3, [sp, #16]
 1461              		.loc 6 433 0
 1462 008c 059B     		ldr	r3, [sp, #20]
 1463 008e 1B6C     		ldr	r3, [r3, #64]
 1464 0090 0393     		str	r3, [sp, #12]
 1465              		.loc 6 434 0
 1466 0092 12E0     		b	.L120
 1467              	.L122:
 1468              		.loc 6 438 0
 1469 0094 0398     		ldr	r0, [sp, #12]
 1470 0096 FFF7FEFF 		bl	chMtxQueueNotEmptyS
 1471 009a 0346     		mov	r3, r0
 1472 009c 002B     		cmp	r3, #0
 1473 009e 09D0     		beq	.L121
 1474              		.loc 6 439 0 discriminator 1
 1475 00a0 039B     		ldr	r3, [sp, #12]
 1476 00a2 1B68     		ldr	r3, [r3]
 1477 00a4 9B68     		ldr	r3, [r3, #8]
 1478              		.loc 6 438 0 discriminator 1
 1479 00a6 049A     		ldr	r2, [sp, #16]
 1480 00a8 9A42     		cmp	r2, r3
 1481 00aa 03D2     		bcs	.L121
 1482              		.loc 6 440 0
ARM GAS  C:\Users\PCHAUT~1\AppData\Local\Temp\ccGFPeii.s 			page 27


 1483 00ac 039B     		ldr	r3, [sp, #12]
 1484 00ae 1B68     		ldr	r3, [r3]
 1485 00b0 9B68     		ldr	r3, [r3, #8]
 1486 00b2 0493     		str	r3, [sp, #16]
 1487              	.L121:
 1488              		.loc 6 442 0
 1489 00b4 039B     		ldr	r3, [sp, #12]
 1490 00b6 DB68     		ldr	r3, [r3, #12]
 1491 00b8 0393     		str	r3, [sp, #12]
 1492              	.L120:
 1493              		.loc 6 434 0
 1494 00ba 039B     		ldr	r3, [sp, #12]
 1495 00bc 002B     		cmp	r3, #0
 1496 00be E9D1     		bne	.L122
 1497              		.loc 6 447 0
 1498 00c0 059B     		ldr	r3, [sp, #20]
 1499 00c2 049A     		ldr	r2, [sp, #16]
 1500 00c4 9A60     		str	r2, [r3, #8]
 1501              		.loc 6 452 0
 1502 00c6 019B     		ldr	r3, [sp, #4]
 1503 00c8 0122     		movs	r2, #1
 1504 00ca 1A61     		str	r2, [r3, #16]
 1505              		.loc 6 454 0
 1506 00cc 019B     		ldr	r3, [sp, #4]
 1507 00ce 1846     		mov	r0, r3
 1508 00d0 FFF7FEFF 		bl	queue_fifo_remove
 1509 00d4 0690     		str	r0, [sp, #24]
 1510              		.loc 6 455 0
 1511 00d6 019B     		ldr	r3, [sp, #4]
 1512 00d8 069A     		ldr	r2, [sp, #24]
 1513 00da 9A60     		str	r2, [r3, #8]
 1514              		.loc 6 456 0
 1515 00dc 069B     		ldr	r3, [sp, #24]
 1516 00de 1A6C     		ldr	r2, [r3, #64]
 1517 00e0 019B     		ldr	r3, [sp, #4]
 1518 00e2 DA60     		str	r2, [r3, #12]
 1519              		.loc 6 457 0
 1520 00e4 069B     		ldr	r3, [sp, #24]
 1521 00e6 019A     		ldr	r2, [sp, #4]
 1522 00e8 1A64     		str	r2, [r3, #64]
 1523              		.loc 6 458 0
 1524 00ea 0698     		ldr	r0, [sp, #24]
 1525 00ec FFF7FEFF 		bl	chSchReadyI
 1526              	.LBE12:
 1527              		.loc 6 466 0
 1528 00f0 02E0     		b	.L127
 1529              	.L119:
 1530              		.loc 6 461 0
 1531 00f2 019B     		ldr	r3, [sp, #4]
 1532 00f4 0022     		movs	r2, #0
 1533 00f6 9A60     		str	r2, [r3, #8]
 1534              	.L127:
 1535              		.loc 6 466 0
 1536 00f8 00BF     		nop
 1537 00fa 054B     		ldr	r3, .L128
 1538 00fc 079A     		ldr	r2, [sp, #28]
 1539 00fe 1B68     		ldr	r3, [r3]
ARM GAS  C:\Users\PCHAUT~1\AppData\Local\Temp\ccGFPeii.s 			page 28


 1540 0100 9A42     		cmp	r2, r3
 1541 0102 01D0     		beq	.L123
 1542 0104 FFF7FEFF 		bl	__stack_chk_fail
 1543              	.L123:
 1544 0108 09B0     		add	sp, sp, #36
 1545              		.cfi_def_cfa_offset 4
 1546              		@ sp needed
 1547 010a 5DF804FB 		ldr	pc, [sp], #4
 1548              	.L129:
 1549 010e 00BF     		.align	2
 1550              	.L128:
 1551 0110 00000000 		.word	__stack_chk_guard
 1552 0114 00000000 		.word	ch
 1553 0118 00000000 		.word	__func__.7891
 1554              		.cfi_endproc
 1555              	.LFE225:
 1556              		.size	chMtxUnlockS, .-chMtxUnlockS
 1557              		.section	.text.chMtxUnlockAll,"ax",%progbits
 1558              		.align	1
 1559              		.p2align 4,,15
 1560              		.global	chMtxUnlockAll
 1561              		.syntax unified
 1562              		.thumb
 1563              		.thumb_func
 1564              		.fpu fpv4-sp-d16
 1565              		.type	chMtxUnlockAll, %function
 1566              	chMtxUnlockAll:
 1567              	.LFB226:
 1568              		.loc 6 479 0
 1569              		.cfi_startproc
 1570              		@ args = 0, pretend = 0, frame = 16
 1571              		@ frame_needed = 0, uses_anonymous_args = 0
 1572 0000 00B5     		push	{lr}
 1573              		.cfi_def_cfa_offset 4
 1574              		.cfi_offset 14, -4
 1575 0002 85B0     		sub	sp, sp, #20
 1576              		.cfi_def_cfa_offset 24
 1577              		.loc 6 479 0
 1578 0004 254B     		ldr	r3, .L136
 1579 0006 1B68     		ldr	r3, [r3]
 1580 0008 0393     		str	r3, [sp, #12]
 1581              		.loc 6 480 0
 1582 000a 254B     		ldr	r3, .L136+4
 1583 000c 9B69     		ldr	r3, [r3, #24]
 1584 000e 0093     		str	r3, [sp]
 1585              		.loc 6 482 0
 1586 0010 FFF7FEFF 		bl	chSysLock
 1587              		.loc 6 483 0
 1588 0014 009B     		ldr	r3, [sp]
 1589 0016 1B6C     		ldr	r3, [r3, #64]
 1590 0018 002B     		cmp	r3, #0
 1591 001a 32D0     		beq	.L131
 1592              	.L134:
 1593              	.LBB13:
 1594              		.loc 6 485 0
 1595 001c 009B     		ldr	r3, [sp]
 1596 001e 1B6C     		ldr	r3, [r3, #64]
ARM GAS  C:\Users\PCHAUT~1\AppData\Local\Temp\ccGFPeii.s 			page 29


 1597 0020 0193     		str	r3, [sp, #4]
 1598              		.loc 6 486 0
 1599 0022 019B     		ldr	r3, [sp, #4]
 1600 0024 DA68     		ldr	r2, [r3, #12]
 1601 0026 009B     		ldr	r3, [sp]
 1602 0028 1A64     		str	r2, [r3, #64]
 1603              		.loc 6 487 0
 1604 002a 0198     		ldr	r0, [sp, #4]
 1605 002c FFF7FEFF 		bl	chMtxQueueNotEmptyS
 1606 0030 0346     		mov	r3, r0
 1607 0032 002B     		cmp	r3, #0
 1608 0034 15D0     		beq	.L132
 1609              	.LBB14:
 1610              		.loc 6 489 0
 1611 0036 019B     		ldr	r3, [sp, #4]
 1612 0038 0122     		movs	r2, #1
 1613 003a 1A61     		str	r2, [r3, #16]
 1614              		.loc 6 491 0
 1615 003c 019B     		ldr	r3, [sp, #4]
 1616 003e 1846     		mov	r0, r3
 1617 0040 FFF7FEFF 		bl	queue_fifo_remove
 1618 0044 0290     		str	r0, [sp, #8]
 1619              		.loc 6 492 0
 1620 0046 019B     		ldr	r3, [sp, #4]
 1621 0048 029A     		ldr	r2, [sp, #8]
 1622 004a 9A60     		str	r2, [r3, #8]
 1623              		.loc 6 493 0
 1624 004c 029B     		ldr	r3, [sp, #8]
 1625 004e 1A6C     		ldr	r2, [r3, #64]
 1626 0050 019B     		ldr	r3, [sp, #4]
 1627 0052 DA60     		str	r2, [r3, #12]
 1628              		.loc 6 494 0
 1629 0054 029B     		ldr	r3, [sp, #8]
 1630 0056 019A     		ldr	r2, [sp, #4]
 1631 0058 1A64     		str	r2, [r3, #64]
 1632              		.loc 6 495 0
 1633 005a 0298     		ldr	r0, [sp, #8]
 1634 005c FFF7FEFF 		bl	chSchReadyI
 1635              	.LBE14:
 1636 0060 05E0     		b	.L133
 1637              	.L132:
 1638              		.loc 6 499 0
 1639 0062 019B     		ldr	r3, [sp, #4]
 1640 0064 0022     		movs	r2, #0
 1641 0066 1A61     		str	r2, [r3, #16]
 1642              		.loc 6 501 0
 1643 0068 019B     		ldr	r3, [sp, #4]
 1644 006a 0022     		movs	r2, #0
 1645 006c 9A60     		str	r2, [r3, #8]
 1646              	.L133:
 1647              	.LBE13:
 1648              		.loc 6 503 0
 1649 006e 009B     		ldr	r3, [sp]
 1650 0070 1B6C     		ldr	r3, [r3, #64]
 1651 0072 002B     		cmp	r3, #0
 1652 0074 D2D1     		bne	.L134
 1653              		.loc 6 504 0
ARM GAS  C:\Users\PCHAUT~1\AppData\Local\Temp\ccGFPeii.s 			page 30


 1654 0076 009B     		ldr	r3, [sp]
 1655 0078 5A6C     		ldr	r2, [r3, #68]
 1656 007a 009B     		ldr	r3, [sp]
 1657 007c 9A60     		str	r2, [r3, #8]
 1658              		.loc 6 505 0
 1659 007e FFF7FEFF 		bl	chSchRescheduleS
 1660              	.L131:
 1661              		.loc 6 507 0
 1662 0082 FFF7FEFF 		bl	chSysUnlock
 1663              		.loc 6 508 0
 1664 0086 00BF     		nop
 1665 0088 044B     		ldr	r3, .L136
 1666 008a 039A     		ldr	r2, [sp, #12]
 1667 008c 1B68     		ldr	r3, [r3]
 1668 008e 9A42     		cmp	r2, r3
 1669 0090 01D0     		beq	.L135
 1670 0092 FFF7FEFF 		bl	__stack_chk_fail
 1671              	.L135:
 1672 0096 05B0     		add	sp, sp, #20
 1673              		.cfi_def_cfa_offset 4
 1674              		@ sp needed
 1675 0098 5DF804FB 		ldr	pc, [sp], #4
 1676              	.L137:
 1677              		.align	2
 1678              	.L136:
 1679 009c 00000000 		.word	__stack_chk_guard
 1680 00a0 00000000 		.word	ch
 1681              		.cfi_endproc
 1682              	.LFE226:
 1683              		.size	chMtxUnlockAll, .-chMtxUnlockAll
 1684              		.section	.rodata.__func__.7849,"a",%progbits
 1685              		.align	2
 1686              		.type	__func__.7849, %object
 1687              		.size	__func__.7849, 16
 1688              	__func__.7849:
 1689 0000 63684D74 		.ascii	"chMtxObjectInit\000"
 1689      784F626A 
 1689      65637449 
 1689      6E697400 
 1690              		.section	.rodata.__func__.7153,"a",%progbits
 1691              		.align	2
 1692              		.type	__func__.7153, %object
 1693              		.size	__func__.7153, 12
 1694              	__func__.7153:
 1695 0000 63685379 		.ascii	"chSysUnlock\000"
 1695      73556E6C 
 1695      6F636B00 
 1696              		.section	.rodata.__func__.7857,"a",%progbits
 1697              		.align	2
 1698              		.type	__func__.7857, %object
 1699              		.size	__func__.7857, 11
 1700              	__func__.7857:
 1701 0000 63684D74 		.ascii	"chMtxLockS\000"
 1701      784C6F63 
 1701      6B5300
 1702              		.section	.rodata.__func__.7874,"a",%progbits
 1703              		.align	2
ARM GAS  C:\Users\PCHAUT~1\AppData\Local\Temp\ccGFPeii.s 			page 31


 1704              		.type	__func__.7874, %object
 1705              		.size	__func__.7874, 14
 1706              	__func__.7874:
 1707 0000 63684D74 		.ascii	"chMtxTryLockS\000"
 1707      78547279 
 1707      4C6F636B 
 1707      5300
 1708              		.section	.rodata.__func__.7880,"a",%progbits
 1709              		.align	2
 1710              		.type	__func__.7880, %object
 1711              		.size	__func__.7880, 12
 1712              	__func__.7880:
 1713 0000 63684D74 		.ascii	"chMtxUnlock\000"
 1713      78556E6C 
 1713      6F636B00 
 1714              		.section	.rodata.__func__.7891,"a",%progbits
 1715              		.align	2
 1716              		.type	__func__.7891, %object
 1717              		.size	__func__.7891, 13
 1718              	__func__.7891:
 1719 0000 63684D74 		.ascii	"chMtxUnlockS\000"
 1719      78556E6C 
 1719      6F636B53 
 1719      00
 1720              		.text
 1721              	.Letext0:
 1722              		.file 7 "c:\\users\\pchautems\\documents\\robotiquetp\\eclipse_e-puck2\\tools\\gcc-arm-none-eabi-7
 1723              		.file 8 "c:\\users\\pchautems\\documents\\robotiquetp\\eclipse_e-puck2\\tools\\gcc-arm-none-eabi-7
 1724              		.file 9 "../lib/e-puck2_main-processor/ChibiOS//os/rt/ports/ARMCMx/compilers/GCC/chtypes.h"
 1725              		.file 10 "../lib/e-puck2_main-processor/ChibiOS//os/rt/include/chsystypes.h"
 1726              		.file 11 "../lib/e-puck2_main-processor/ChibiOS//os/ext/CMSIS/include/core_cm4.h"
 1727              		.file 12 "../lib/e-puck2_main-processor/ChibiOS//os/ext/CMSIS/ST/system_stm32f4xx.h"
 1728              		.file 13 "../lib/e-puck2_main-processor/ChibiOS//os/rt/ports/ARMCMx/chcore.h"
 1729              		.file 14 "../lib/e-puck2_main-processor/ChibiOS//os/rt/include/chdebug.h"
 1730              		.file 15 "../lib/e-puck2_main-processor/ChibiOS//os/rt/include/chtm.h"
 1731              		.file 16 "../lib/e-puck2_main-processor/ChibiOS//os/rt/include/chstats.h"
 1732              		.file 17 "../lib/e-puck2_main-processor/ChibiOS//os/rt/include/chsem.h"
 1733              		.file 18 "../lib/e-puck2_main-processor/ChibiOS//os/rt/include/chregistry.h"