ARM GAS  C:\Users\PCHAUT~1\AppData\Local\Temp\ccSngEmg.s 			page 1


   1              		.cpu cortex-m4
   2              		.eabi_attribute 27, 1
   3              		.eabi_attribute 28, 1
   4              		.eabi_attribute 20, 1
   5              		.eabi_attribute 21, 1
   6              		.eabi_attribute 23, 3
   7              		.eabi_attribute 24, 1
   8              		.eabi_attribute 25, 1
   9              		.eabi_attribute 26, 1
  10              		.eabi_attribute 30, 6
  11              		.eabi_attribute 34, 1
  12              		.eabi_attribute 18, 4
  13              		.file	"chprintf.c"
  14              		.text
  15              	.Ltext0:
  16              		.cfi_sections	.debug_frame
  17              		.section	.text.long_to_string_with_divisor,"ax",%progbits
  18              		.align	1
  19              		.p2align 4,,15
  20              		.syntax unified
  21              		.thumb
  22              		.thumb_func
  23              		.fpu fpv4-sp-d16
  24              		.type	long_to_string_with_divisor, %function
  25              	long_to_string_with_divisor:
  26              	.LFB257:
  27              		.file 1 "../lib/e-puck2_main-processor/ChibiOS//os/hal/lib/streams/chprintf.c"
  28              		.loc 1 40 0
  29              		.cfi_startproc
  30              		@ args = 0, pretend = 0, frame = 40
  31              		@ frame_needed = 0, uses_anonymous_args = 0
  32 0000 00B5     		push	{lr}
  33              		.cfi_def_cfa_offset 4
  34              		.cfi_offset 14, -4
  35 0002 8BB0     		sub	sp, sp, #44
  36              		.cfi_def_cfa_offset 48
  37 0004 0390     		str	r0, [sp, #12]
  38 0006 0291     		str	r1, [sp, #8]
  39 0008 0192     		str	r2, [sp, #4]
  40 000a 0093     		str	r3, [sp]
  41              		.loc 1 40 0
  42 000c 2A4B     		ldr	r3, .L9
  43 000e 1B68     		ldr	r3, [r3]
  44 0010 0993     		str	r3, [sp, #36]
  45              		.loc 1 45 0
  46 0012 029B     		ldr	r3, [sp, #8]
  47 0014 0793     		str	r3, [sp, #28]
  48              		.loc 1 46 0
  49 0016 009B     		ldr	r3, [sp]
  50 0018 002B     		cmp	r3, #0
  51 001a 02D1     		bne	.L2
  52              		.loc 1 47 0
  53 001c 029B     		ldr	r3, [sp, #8]
  54 001e 0893     		str	r3, [sp, #32]
  55 0020 01E0     		b	.L3
  56              	.L2:
  57              		.loc 1 49 0
ARM GAS  C:\Users\PCHAUT~1\AppData\Local\Temp\ccSngEmg.s 			page 2


  58 0022 009B     		ldr	r3, [sp]
  59 0024 0893     		str	r3, [sp, #32]
  60              	.L3:
  61              		.loc 1 52 0
  62 0026 039B     		ldr	r3, [sp, #12]
  63 0028 0B33     		adds	r3, r3, #11
  64 002a 0693     		str	r3, [sp, #24]
  65              	.L5:
  66              		.loc 1 54 0
  67 002c 079B     		ldr	r3, [sp, #28]
  68 002e 019A     		ldr	r2, [sp, #4]
  69 0030 B3FBF2F2 		udiv	r2, r3, r2
  70 0034 0199     		ldr	r1, [sp, #4]
  71 0036 01FB02F2 		mul	r2, r1, r2
  72 003a 9B1A     		subs	r3, r3, r2
  73 003c 0593     		str	r3, [sp, #20]
  74              		.loc 1 55 0
  75 003e 059B     		ldr	r3, [sp, #20]
  76 0040 3033     		adds	r3, r3, #48
  77 0042 0593     		str	r3, [sp, #20]
  78              		.loc 1 56 0
  79 0044 059B     		ldr	r3, [sp, #20]
  80 0046 392B     		cmp	r3, #57
  81 0048 02DD     		ble	.L4
  82              		.loc 1 57 0
  83 004a 059B     		ldr	r3, [sp, #20]
  84 004c 0733     		adds	r3, r3, #7
  85 004e 0593     		str	r3, [sp, #20]
  86              	.L4:
  87              		.loc 1 58 0
  88 0050 069B     		ldr	r3, [sp, #24]
  89 0052 013B     		subs	r3, r3, #1
  90 0054 0693     		str	r3, [sp, #24]
  91 0056 059B     		ldr	r3, [sp, #20]
  92 0058 DAB2     		uxtb	r2, r3
  93 005a 069B     		ldr	r3, [sp, #24]
  94 005c 1A70     		strb	r2, [r3]
  95              		.loc 1 59 0
  96 005e 079A     		ldr	r2, [sp, #28]
  97 0060 019B     		ldr	r3, [sp, #4]
  98 0062 B2FBF3F3 		udiv	r3, r2, r3
  99 0066 0793     		str	r3, [sp, #28]
 100              		.loc 1 60 0
 101 0068 089A     		ldr	r2, [sp, #32]
 102 006a 019B     		ldr	r3, [sp, #4]
 103 006c B2FBF3F3 		udiv	r3, r2, r3
 104 0070 0893     		str	r3, [sp, #32]
 105 0072 089B     		ldr	r3, [sp, #32]
 106 0074 002B     		cmp	r3, #0
 107 0076 D9D1     		bne	.L5
 108              		.loc 1 62 0
 109 0078 039B     		ldr	r3, [sp, #12]
 110 007a 0B33     		adds	r3, r3, #11
 111 007c 1A46     		mov	r2, r3
 112 007e 069B     		ldr	r3, [sp, #24]
 113 0080 D31A     		subs	r3, r2, r3
 114 0082 0593     		str	r3, [sp, #20]
ARM GAS  C:\Users\PCHAUT~1\AppData\Local\Temp\ccSngEmg.s 			page 3


 115              	.L6:
 116              		.loc 1 64 0 discriminator 1
 117 0084 069A     		ldr	r2, [sp, #24]
 118 0086 531C     		adds	r3, r2, #1
 119 0088 0693     		str	r3, [sp, #24]
 120 008a 039B     		ldr	r3, [sp, #12]
 121 008c 591C     		adds	r1, r3, #1
 122 008e 0391     		str	r1, [sp, #12]
 123 0090 1278     		ldrb	r2, [r2]	@ zero_extendqisi2
 124 0092 1A70     		strb	r2, [r3]
 125              		.loc 1 65 0 discriminator 1
 126 0094 059B     		ldr	r3, [sp, #20]
 127 0096 013B     		subs	r3, r3, #1
 128 0098 0593     		str	r3, [sp, #20]
 129 009a 059B     		ldr	r3, [sp, #20]
 130 009c 002B     		cmp	r3, #0
 131 009e F1D1     		bne	.L6
 132              		.loc 1 67 0
 133 00a0 039B     		ldr	r3, [sp, #12]
 134              		.loc 1 68 0
 135 00a2 1846     		mov	r0, r3
 136 00a4 044B     		ldr	r3, .L9
 137 00a6 099A     		ldr	r2, [sp, #36]
 138 00a8 1B68     		ldr	r3, [r3]
 139 00aa 9A42     		cmp	r2, r3
 140 00ac 01D0     		beq	.L8
 141 00ae FFF7FEFF 		bl	__stack_chk_fail
 142              	.L8:
 143 00b2 0BB0     		add	sp, sp, #44
 144              		.cfi_def_cfa_offset 4
 145              		@ sp needed
 146 00b4 5DF804FB 		ldr	pc, [sp], #4
 147              	.L10:
 148              		.align	2
 149              	.L9:
 150 00b8 00000000 		.word	__stack_chk_guard
 151              		.cfi_endproc
 152              	.LFE257:
 153              		.size	long_to_string_with_divisor, .-long_to_string_with_divisor
 154              		.section	.text.ch_ltoa,"ax",%progbits
 155              		.align	1
 156              		.p2align 4,,15
 157              		.syntax unified
 158              		.thumb
 159              		.thumb_func
 160              		.fpu fpv4-sp-d16
 161              		.type	ch_ltoa, %function
 162              	ch_ltoa:
 163              	.LFB258:
 164              		.loc 1 70 0
 165              		.cfi_startproc
 166              		@ args = 0, pretend = 0, frame = 24
 167              		@ frame_needed = 0, uses_anonymous_args = 0
 168 0000 00B5     		push	{lr}
 169              		.cfi_def_cfa_offset 4
 170              		.cfi_offset 14, -4
 171 0002 87B0     		sub	sp, sp, #28
ARM GAS  C:\Users\PCHAUT~1\AppData\Local\Temp\ccSngEmg.s 			page 4


 172              		.cfi_def_cfa_offset 32
 173 0004 0390     		str	r0, [sp, #12]
 174 0006 0291     		str	r1, [sp, #8]
 175 0008 0192     		str	r2, [sp, #4]
 176              		.loc 1 70 0
 177 000a 0A4B     		ldr	r3, .L14
 178 000c 1B68     		ldr	r3, [r3]
 179 000e 0593     		str	r3, [sp, #20]
 180              		.loc 1 72 0
 181 0010 0023     		movs	r3, #0
 182 0012 019A     		ldr	r2, [sp, #4]
 183 0014 0299     		ldr	r1, [sp, #8]
 184 0016 0398     		ldr	r0, [sp, #12]
 185 0018 FFF7FEFF 		bl	long_to_string_with_divisor
 186 001c 0346     		mov	r3, r0
 187              		.loc 1 73 0
 188 001e 1846     		mov	r0, r3
 189 0020 044B     		ldr	r3, .L14
 190 0022 059A     		ldr	r2, [sp, #20]
 191 0024 1B68     		ldr	r3, [r3]
 192 0026 9A42     		cmp	r2, r3
 193 0028 01D0     		beq	.L13
 194 002a FFF7FEFF 		bl	__stack_chk_fail
 195              	.L13:
 196 002e 07B0     		add	sp, sp, #28
 197              		.cfi_def_cfa_offset 4
 198              		@ sp needed
 199 0030 5DF804FB 		ldr	pc, [sp], #4
 200              	.L15:
 201              		.align	2
 202              	.L14:
 203 0034 00000000 		.word	__stack_chk_guard
 204              		.cfi_endproc
 205              	.LFE258:
 206              		.size	ch_ltoa, .-ch_ltoa
 207              		.section	.rodata.pow10,"a",%progbits
 208              		.align	2
 209              		.type	pow10, %object
 210              		.size	pow10, 36
 211              	pow10:
 212 0000 0A000000 		.word	10
 213 0004 64000000 		.word	100
 214 0008 E8030000 		.word	1000
 215 000c 10270000 		.word	10000
 216 0010 A0860100 		.word	100000
 217 0014 40420F00 		.word	1000000
 218 0018 80969800 		.word	10000000
 219 001c 00E1F505 		.word	100000000
 220 0020 00CA9A3B 		.word	1000000000
 221              		.global	__aeabi_d2iz
 222              		.global	__aeabi_i2d
 223              		.global	__aeabi_dsub
 224              		.global	__aeabi_ui2d
 225              		.global	__aeabi_dmul
 226              		.section	.text.ftoa,"ax",%progbits
 227              		.align	1
 228              		.p2align 4,,15
ARM GAS  C:\Users\PCHAUT~1\AppData\Local\Temp\ccSngEmg.s 			page 5


 229              		.syntax unified
 230              		.thumb
 231              		.thumb_func
 232              		.fpu fpv4-sp-d16
 233              		.type	ftoa, %function
 234              	ftoa:
 235              	.LFB259:
 236              		.loc 1 80 0
 237              		.cfi_startproc
 238              		@ args = 0, pretend = 0, frame = 24
 239              		@ frame_needed = 0, uses_anonymous_args = 0
 240 0000 30B5     		push	{r4, r5, lr}
 241              		.cfi_def_cfa_offset 12
 242              		.cfi_offset 4, -12
 243              		.cfi_offset 5, -8
 244              		.cfi_offset 14, -4
 245 0002 87B0     		sub	sp, sp, #28
 246              		.cfi_def_cfa_offset 40
 247 0004 0390     		str	r0, [sp, #12]
 248 0006 8DED000B 		vstr.64	d0, [sp]
 249 000a 0291     		str	r1, [sp, #8]
 250              		.loc 1 80 0
 251 000c 2B4B     		ldr	r3, .L21
 252 000e 1B68     		ldr	r3, [r3]
 253 0010 0593     		str	r3, [sp, #20]
 254              		.loc 1 83 0
 255 0012 029B     		ldr	r3, [sp, #8]
 256 0014 002B     		cmp	r3, #0
 257 0016 02D0     		beq	.L17
 258              		.loc 1 83 0 is_stmt 0 discriminator 1
 259 0018 029B     		ldr	r3, [sp, #8]
 260 001a 092B     		cmp	r3, #9
 261 001c 01D9     		bls	.L18
 262              	.L17:
 263              		.loc 1 84 0 is_stmt 1
 264 001e 0923     		movs	r3, #9
 265 0020 0293     		str	r3, [sp, #8]
 266              	.L18:
 267              		.loc 1 85 0
 268 0022 029B     		ldr	r3, [sp, #8]
 269 0024 013B     		subs	r3, r3, #1
 270 0026 264A     		ldr	r2, .L21+4
 271 0028 52F82330 		ldr	r3, [r2, r3, lsl #2]
 272 002c 0293     		str	r3, [sp, #8]
 273              		.loc 1 87 0
 274 002e DDE90001 		ldrd	r0, [sp]
 275 0032 FFF7FEFF 		bl	__aeabi_d2iz
 276              	.LVL0:
 277 0036 0346     		mov	r3, r0
 278 0038 0493     		str	r3, [sp, #16]
 279              		.loc 1 88 0
 280 003a 0023     		movs	r3, #0
 281 003c 0A22     		movs	r2, #10
 282 003e 0499     		ldr	r1, [sp, #16]
 283 0040 0398     		ldr	r0, [sp, #12]
 284 0042 FFF7FEFF 		bl	long_to_string_with_divisor
 285 0046 0390     		str	r0, [sp, #12]
ARM GAS  C:\Users\PCHAUT~1\AppData\Local\Temp\ccSngEmg.s 			page 6


 286              		.loc 1 89 0
 287 0048 039B     		ldr	r3, [sp, #12]
 288 004a 5A1C     		adds	r2, r3, #1
 289 004c 0392     		str	r2, [sp, #12]
 290 004e 2E22     		movs	r2, #46
 291 0050 1A70     		strb	r2, [r3]
 292              		.loc 1 90 0
 293 0052 0498     		ldr	r0, [sp, #16]
 294 0054 FFF7FEFF 		bl	__aeabi_i2d
 295              	.LVL1:
 296 0058 0346     		mov	r3, r0
 297 005a 0C46     		mov	r4, r1
 298 005c 1A46     		mov	r2, r3
 299 005e 2346     		mov	r3, r4
 300 0060 DDE90001 		ldrd	r0, [sp]
 301 0064 FFF7FEFF 		bl	__aeabi_dsub
 302              	.LVL2:
 303 0068 0346     		mov	r3, r0
 304 006a 0C46     		mov	r4, r1
 305 006c 2546     		mov	r5, r4
 306 006e 1C46     		mov	r4, r3
 307 0070 0298     		ldr	r0, [sp, #8]
 308 0072 FFF7FEFF 		bl	__aeabi_ui2d
 309              	.LVL3:
 310 0076 0246     		mov	r2, r0
 311 0078 0B46     		mov	r3, r1
 312 007a 2046     		mov	r0, r4
 313 007c 2946     		mov	r1, r5
 314 007e FFF7FEFF 		bl	__aeabi_dmul
 315              	.LVL4:
 316 0082 0346     		mov	r3, r0
 317 0084 0C46     		mov	r4, r1
 318 0086 1846     		mov	r0, r3
 319 0088 2146     		mov	r1, r4
 320 008a FFF7FEFF 		bl	__aeabi_d2iz
 321              	.LVL5:
 322 008e 0346     		mov	r3, r0
 323 0090 0493     		str	r3, [sp, #16]
 324              		.loc 1 91 0
 325 0092 029B     		ldr	r3, [sp, #8]
 326 0094 0B4A     		ldr	r2, .L21+8
 327 0096 A2FB0323 		umull	r2, r3, r2, r3
 328 009a DB08     		lsrs	r3, r3, #3
 329 009c 0A22     		movs	r2, #10
 330 009e 0499     		ldr	r1, [sp, #16]
 331 00a0 0398     		ldr	r0, [sp, #12]
 332 00a2 FFF7FEFF 		bl	long_to_string_with_divisor
 333 00a6 0346     		mov	r3, r0
 334              		.loc 1 92 0
 335 00a8 1846     		mov	r0, r3
 336 00aa 044B     		ldr	r3, .L21
 337 00ac 059A     		ldr	r2, [sp, #20]
 338 00ae 1B68     		ldr	r3, [r3]
 339 00b0 9A42     		cmp	r2, r3
 340 00b2 01D0     		beq	.L20
 341 00b4 FFF7FEFF 		bl	__stack_chk_fail
 342              	.L20:
ARM GAS  C:\Users\PCHAUT~1\AppData\Local\Temp\ccSngEmg.s 			page 7


 343 00b8 07B0     		add	sp, sp, #28
 344              		.cfi_def_cfa_offset 12
 345              		@ sp needed
 346 00ba 30BD     		pop	{r4, r5, pc}
 347              	.L22:
 348              		.align	2
 349              	.L21:
 350 00bc 00000000 		.word	__stack_chk_guard
 351 00c0 00000000 		.word	pow10
 352 00c4 CDCCCCCC 		.word	-858993459
 353              		.cfi_endproc
 354              	.LFE259:
 355              		.size	ftoa, .-ftoa
 356              		.section	.rodata
 357              		.align	2
 358              	.LC0:
 359 0000 286E756C 		.ascii	"(null)\000"
 359      6C2900
 360              		.global	__aeabi_d2f
 361              		.global	__aeabi_f2d
 362              		.section	.text.chvprintf,"ax",%progbits
 363              		.align	1
 364              		.p2align 4,,15
 365              		.global	chvprintf
 366              		.syntax unified
 367              		.thumb
 368              		.thumb_func
 369              		.fpu fpv4-sp-d16
 370              		.type	chvprintf, %function
 371              	chvprintf:
 372              	.LFB260:
 373              		.loc 1 121 0
 374              		.cfi_startproc
 375              		@ args = 0, pretend = 0, frame = 80
 376              		@ frame_needed = 0, uses_anonymous_args = 0
 377 0000 30B5     		push	{r4, r5, lr}
 378              		.cfi_def_cfa_offset 12
 379              		.cfi_offset 4, -12
 380              		.cfi_offset 5, -8
 381              		.cfi_offset 14, -4
 382 0002 95B0     		sub	sp, sp, #84
 383              		.cfi_def_cfa_offset 96
 384 0004 0390     		str	r0, [sp, #12]
 385 0006 0291     		str	r1, [sp, #8]
 386 0008 0192     		str	r2, [sp, #4]
 387              		.loc 1 121 0
 388 000a BD4B     		ldr	r3, .L85
 389 000c 1B68     		ldr	r3, [r3]
 390 000e 1393     		str	r3, [sp, #76]
 391              		.loc 1 124 0
 392 0010 0023     		movs	r3, #0
 393 0012 0A93     		str	r3, [sp, #40]
 394              	.L78:
 395              		.loc 1 135 0
 396 0014 029B     		ldr	r3, [sp, #8]
 397 0016 5A1C     		adds	r2, r3, #1
 398 0018 0292     		str	r2, [sp, #8]
ARM GAS  C:\Users\PCHAUT~1\AppData\Local\Temp\ccSngEmg.s 			page 8


 399 001a 1B78     		ldrb	r3, [r3]
 400 001c 8DF81030 		strb	r3, [sp, #16]
 401              		.loc 1 136 0
 402 0020 9DF81030 		ldrb	r3, [sp, #16]	@ zero_extendqisi2
 403 0024 002B     		cmp	r3, #0
 404 0026 08D1     		bne	.L24
 405              		.loc 1 137 0
 406 0028 0A9B     		ldr	r3, [sp, #40]
 407              		.loc 1 277 0
 408 002a 1846     		mov	r0, r3
 409 002c B44B     		ldr	r3, .L85
 410 002e 139A     		ldr	r2, [sp, #76]
 411 0030 1B68     		ldr	r3, [r3]
 412 0032 9A42     		cmp	r2, r3
 413 0034 00F04582 		beq	.L79
 414 0038 41E2     		b	.L81
 415              	.L24:
 416              		.loc 1 138 0
 417 003a 9DF81030 		ldrb	r3, [sp, #16]	@ zero_extendqisi2
 418 003e 252B     		cmp	r3, #37
 419 0040 0BD0     		beq	.L26
 420              		.loc 1 139 0
 421 0042 039B     		ldr	r3, [sp, #12]
 422 0044 1B68     		ldr	r3, [r3]
 423 0046 9B68     		ldr	r3, [r3, #8]
 424 0048 9DF81020 		ldrb	r2, [sp, #16]	@ zero_extendqisi2
 425 004c 1146     		mov	r1, r2
 426 004e 0398     		ldr	r0, [sp, #12]
 427 0050 9847     		blx	r3
 428              	.LVL6:
 429              		.loc 1 140 0
 430 0052 0A9B     		ldr	r3, [sp, #40]
 431 0054 0133     		adds	r3, r3, #1
 432 0056 0A93     		str	r3, [sp, #40]
 433              		.loc 1 141 0
 434 0058 30E2     		b	.L27
 435              	.L26:
 436              		.loc 1 143 0
 437 005a 0DAB     		add	r3, sp, #52
 438 005c 0593     		str	r3, [sp, #20]
 439              		.loc 1 144 0
 440 005e 0DAB     		add	r3, sp, #52
 441 0060 0693     		str	r3, [sp, #24]
 442              		.loc 1 145 0
 443 0062 0023     		movs	r3, #0
 444 0064 8DF81330 		strb	r3, [sp, #19]
 445              		.loc 1 146 0
 446 0068 029B     		ldr	r3, [sp, #8]
 447 006a 1B78     		ldrb	r3, [r3]	@ zero_extendqisi2
 448 006c 2D2B     		cmp	r3, #45
 449 006e 05D1     		bne	.L28
 450              		.loc 1 147 0
 451 0070 029B     		ldr	r3, [sp, #8]
 452 0072 0133     		adds	r3, r3, #1
 453 0074 0293     		str	r3, [sp, #8]
 454              		.loc 1 148 0
 455 0076 0123     		movs	r3, #1
ARM GAS  C:\Users\PCHAUT~1\AppData\Local\Temp\ccSngEmg.s 			page 9


 456 0078 8DF81330 		strb	r3, [sp, #19]
 457              	.L28:
 458              		.loc 1 150 0
 459 007c 2023     		movs	r3, #32
 460 007e 8DF81130 		strb	r3, [sp, #17]
 461              		.loc 1 151 0
 462 0082 029B     		ldr	r3, [sp, #8]
 463 0084 1B78     		ldrb	r3, [r3]	@ zero_extendqisi2
 464 0086 302B     		cmp	r3, #48
 465 0088 05D1     		bne	.L29
 466              		.loc 1 152 0
 467 008a 029B     		ldr	r3, [sp, #8]
 468 008c 0133     		adds	r3, r3, #1
 469 008e 0293     		str	r3, [sp, #8]
 470              		.loc 1 153 0
 471 0090 3023     		movs	r3, #48
 472 0092 8DF81130 		strb	r3, [sp, #17]
 473              	.L29:
 474              		.loc 1 155 0
 475 0096 0023     		movs	r3, #0
 476 0098 0993     		str	r3, [sp, #36]
 477              	.L34:
 478              		.loc 1 157 0
 479 009a 029B     		ldr	r3, [sp, #8]
 480 009c 5A1C     		adds	r2, r3, #1
 481 009e 0292     		str	r2, [sp, #8]
 482 00a0 1B78     		ldrb	r3, [r3]
 483 00a2 8DF81030 		strb	r3, [sp, #16]
 484              		.loc 1 158 0
 485 00a6 9DF81030 		ldrb	r3, [sp, #16]	@ zero_extendqisi2
 486 00aa 2F2B     		cmp	r3, #47
 487 00ac 09D9     		bls	.L30
 488              		.loc 1 158 0 is_stmt 0 discriminator 1
 489 00ae 9DF81030 		ldrb	r3, [sp, #16]	@ zero_extendqisi2
 490 00b2 392B     		cmp	r3, #57
 491 00b4 05D8     		bhi	.L30
 492              		.loc 1 159 0 is_stmt 1
 493 00b6 9DF81030 		ldrb	r3, [sp, #16]
 494 00ba 303B     		subs	r3, r3, #48
 495 00bc 8DF81030 		strb	r3, [sp, #16]
 496 00c0 09E0     		b	.L31
 497              	.L30:
 498              		.loc 1 160 0
 499 00c2 9DF81030 		ldrb	r3, [sp, #16]	@ zero_extendqisi2
 500 00c6 2A2B     		cmp	r3, #42
 501 00c8 10D1     		bne	.L82
 502              		.loc 1 161 0
 503 00ca 019B     		ldr	r3, [sp, #4]
 504 00cc 1A1D     		adds	r2, r3, #4
 505 00ce 0192     		str	r2, [sp, #4]
 506 00d0 1B68     		ldr	r3, [r3]
 507 00d2 8DF81030 		strb	r3, [sp, #16]
 508              	.L31:
 509              		.loc 1 164 0
 510 00d6 099A     		ldr	r2, [sp, #36]
 511 00d8 1346     		mov	r3, r2
 512 00da 9B00     		lsls	r3, r3, #2
ARM GAS  C:\Users\PCHAUT~1\AppData\Local\Temp\ccSngEmg.s 			page 10


 513 00dc 1344     		add	r3, r3, r2
 514 00de 5B00     		lsls	r3, r3, #1
 515 00e0 1A46     		mov	r2, r3
 516 00e2 9DF81030 		ldrb	r3, [sp, #16]	@ zero_extendqisi2
 517 00e6 1344     		add	r3, r3, r2
 518 00e8 0993     		str	r3, [sp, #36]
 519              		.loc 1 157 0
 520 00ea D6E7     		b	.L34
 521              	.L82:
 522              		.loc 1 163 0
 523 00ec 00BF     		nop
 524              		.loc 1 166 0
 525 00ee 0023     		movs	r3, #0
 526 00f0 0893     		str	r3, [sp, #32]
 527              		.loc 1 167 0
 528 00f2 9DF81030 		ldrb	r3, [sp, #16]	@ zero_extendqisi2
 529 00f6 2E2B     		cmp	r3, #46
 530 00f8 2AD1     		bne	.L35
 531              	.L39:
 532              		.loc 1 169 0
 533 00fa 029B     		ldr	r3, [sp, #8]
 534 00fc 5A1C     		adds	r2, r3, #1
 535 00fe 0292     		str	r2, [sp, #8]
 536 0100 1B78     		ldrb	r3, [r3]
 537 0102 8DF81030 		strb	r3, [sp, #16]
 538              		.loc 1 170 0
 539 0106 9DF81030 		ldrb	r3, [sp, #16]	@ zero_extendqisi2
 540 010a 2F2B     		cmp	r3, #47
 541 010c 09D9     		bls	.L36
 542              		.loc 1 170 0 is_stmt 0 discriminator 1
 543 010e 9DF81030 		ldrb	r3, [sp, #16]	@ zero_extendqisi2
 544 0112 392B     		cmp	r3, #57
 545 0114 05D8     		bhi	.L36
 546              		.loc 1 171 0 is_stmt 1
 547 0116 9DF81030 		ldrb	r3, [sp, #16]
 548 011a 303B     		subs	r3, r3, #48
 549 011c 8DF81030 		strb	r3, [sp, #16]
 550 0120 09E0     		b	.L37
 551              	.L36:
 552              		.loc 1 172 0
 553 0122 9DF81030 		ldrb	r3, [sp, #16]	@ zero_extendqisi2
 554 0126 2A2B     		cmp	r3, #42
 555 0128 11D1     		bne	.L83
 556              		.loc 1 173 0
 557 012a 019B     		ldr	r3, [sp, #4]
 558 012c 1A1D     		adds	r2, r3, #4
 559 012e 0192     		str	r2, [sp, #4]
 560 0130 1B68     		ldr	r3, [r3]
 561 0132 8DF81030 		strb	r3, [sp, #16]
 562              	.L37:
 563              		.loc 1 176 0
 564 0136 089A     		ldr	r2, [sp, #32]
 565 0138 1346     		mov	r3, r2
 566 013a 9B00     		lsls	r3, r3, #2
 567 013c 1344     		add	r3, r3, r2
 568 013e 5B00     		lsls	r3, r3, #1
 569 0140 0893     		str	r3, [sp, #32]
ARM GAS  C:\Users\PCHAUT~1\AppData\Local\Temp\ccSngEmg.s 			page 11


 570              		.loc 1 177 0
 571 0142 9DF81030 		ldrb	r3, [sp, #16]	@ zero_extendqisi2
 572 0146 089A     		ldr	r2, [sp, #32]
 573 0148 1344     		add	r3, r3, r2
 574 014a 0893     		str	r3, [sp, #32]
 575              		.loc 1 169 0
 576 014c D5E7     		b	.L39
 577              	.L83:
 578              		.loc 1 175 0
 579 014e 00BF     		nop
 580              	.L35:
 581              		.loc 1 181 0
 582 0150 9DF81030 		ldrb	r3, [sp, #16]	@ zero_extendqisi2
 583 0154 6C2B     		cmp	r3, #108
 584 0156 03D0     		beq	.L40
 585              		.loc 1 181 0 is_stmt 0 discriminator 1
 586 0158 9DF81030 		ldrb	r3, [sp, #16]	@ zero_extendqisi2
 587 015c 4C2B     		cmp	r3, #76
 588 015e 0DD1     		bne	.L41
 589              	.L40:
 590              		.loc 1 182 0 is_stmt 1
 591 0160 0123     		movs	r3, #1
 592 0162 8DF81230 		strb	r3, [sp, #18]
 593              		.loc 1 183 0
 594 0166 029B     		ldr	r3, [sp, #8]
 595 0168 1B78     		ldrb	r3, [r3]	@ zero_extendqisi2
 596 016a 002B     		cmp	r3, #0
 597 016c 19D0     		beq	.L43
 598              		.loc 1 184 0
 599 016e 029B     		ldr	r3, [sp, #8]
 600 0170 5A1C     		adds	r2, r3, #1
 601 0172 0292     		str	r2, [sp, #8]
 602 0174 1B78     		ldrb	r3, [r3]
 603 0176 8DF81030 		strb	r3, [sp, #16]
 604              		.loc 1 183 0
 605 017a 12E0     		b	.L43
 606              	.L41:
 607              		.loc 1 187 0
 608 017c 9DF81030 		ldrb	r3, [sp, #16]	@ zero_extendqisi2
 609 0180 402B     		cmp	r3, #64
 610 0182 05D9     		bls	.L44
 611              		.loc 1 187 0 is_stmt 0 discriminator 1
 612 0184 9DF81030 		ldrb	r3, [sp, #16]	@ zero_extendqisi2
 613 0188 5A2B     		cmp	r3, #90
 614 018a 01D8     		bhi	.L44
 615              		.loc 1 187 0 discriminator 3
 616 018c 0123     		movs	r3, #1
 617 018e 00E0     		b	.L45
 618              	.L44:
 619              		.loc 1 187 0 discriminator 4
 620 0190 0023     		movs	r3, #0
 621              	.L45:
 622              		.loc 1 187 0 discriminator 6
 623 0192 8DF81230 		strb	r3, [sp, #18]
 624 0196 9DF81230 		ldrb	r3, [sp, #18]
 625 019a 03F00103 		and	r3, r3, #1
 626 019e 8DF81230 		strb	r3, [sp, #18]
ARM GAS  C:\Users\PCHAUT~1\AppData\Local\Temp\ccSngEmg.s 			page 12


 627              	.L43:
 628              		.loc 1 190 0 is_stmt 1
 629 01a2 9DF81030 		ldrb	r3, [sp, #16]	@ zero_extendqisi2
 630 01a6 443B     		subs	r3, r3, #68
 631 01a8 342B     		cmp	r3, #52
 632 01aa 00F21681 		bhi	.L46
 633 01ae 01A2     		adr	r2, .L48
 634 01b0 52F823F0 		ldr	pc, [r2, r3, lsl #2]
 635              		.p2align 2
 636              	.L48:
 637 01b4 ED020000 		.word	.L47+1
 638 01b8 DB030000 		.word	.L46+1
 639 01bc DB030000 		.word	.L46+1
 640 01c0 DB030000 		.word	.L46+1
 641 01c4 DB030000 		.word	.L46+1
 642 01c8 ED020000 		.word	.L47+1
 643 01cc DB030000 		.word	.L46+1
 644 01d0 DB030000 		.word	.L46+1
 645 01d4 DB030000 		.word	.L46+1
 646 01d8 DB030000 		.word	.L46+1
 647 01dc DB030000 		.word	.L46+1
 648 01e0 A5030000 		.word	.L49+1
 649 01e4 DB030000 		.word	.L46+1
 650 01e8 DB030000 		.word	.L46+1
 651 01ec DB030000 		.word	.L46+1
 652 01f0 DB030000 		.word	.L46+1
 653 01f4 DB030000 		.word	.L46+1
 654 01f8 9D030000 		.word	.L50+1
 655 01fc DB030000 		.word	.L46+1
 656 0200 DB030000 		.word	.L46+1
 657 0204 95030000 		.word	.L51+1
 658 0208 DB030000 		.word	.L46+1
 659 020c DB030000 		.word	.L46+1
 660 0210 DB030000 		.word	.L46+1
 661 0214 DB030000 		.word	.L46+1
 662 0218 DB030000 		.word	.L46+1
 663 021c DB030000 		.word	.L46+1
 664 0220 DB030000 		.word	.L46+1
 665 0224 DB030000 		.word	.L46+1
 666 0228 DB030000 		.word	.L46+1
 667 022c DB030000 		.word	.L46+1
 668 0230 89020000 		.word	.L52+1
 669 0234 ED020000 		.word	.L47+1
 670 0238 DB030000 		.word	.L46+1
 671 023c 37030000 		.word	.L53+1
 672 0240 DB030000 		.word	.L46+1
 673 0244 DB030000 		.word	.L46+1
 674 0248 ED020000 		.word	.L47+1
 675 024c DB030000 		.word	.L46+1
 676 0250 DB030000 		.word	.L46+1
 677 0254 DB030000 		.word	.L46+1
 678 0258 DB030000 		.word	.L46+1
 679 025c DB030000 		.word	.L46+1
 680 0260 A5030000 		.word	.L49+1
 681 0264 DB030000 		.word	.L46+1
 682 0268 DB030000 		.word	.L46+1
 683 026c DB030000 		.word	.L46+1
ARM GAS  C:\Users\PCHAUT~1\AppData\Local\Temp\ccSngEmg.s 			page 13


 684 0270 A3020000 		.word	.L54+1
 685 0274 DB030000 		.word	.L46+1
 686 0278 9D030000 		.word	.L50+1
 687 027c DB030000 		.word	.L46+1
 688 0280 DB030000 		.word	.L46+1
 689 0284 95030000 		.word	.L51+1
 690              		.p2align 1
 691              	.L52:
 692              		.loc 1 192 0
 693 0288 2023     		movs	r3, #32
 694 028a 8DF81130 		strb	r3, [sp, #17]
 695              		.loc 1 193 0
 696 028e 019B     		ldr	r3, [sp, #4]
 697 0290 1A1D     		adds	r2, r3, #4
 698 0292 0192     		str	r2, [sp, #4]
 699 0294 1968     		ldr	r1, [r3]
 700 0296 059B     		ldr	r3, [sp, #20]
 701 0298 5A1C     		adds	r2, r3, #1
 702 029a 0592     		str	r2, [sp, #20]
 703 029c CAB2     		uxtb	r2, r1
 704 029e 1A70     		strb	r2, [r3]
 705              		.loc 1 194 0
 706 02a0 A3E0     		b	.L55
 707              	.L54:
 708              		.loc 1 196 0
 709 02a2 2023     		movs	r3, #32
 710 02a4 8DF81130 		strb	r3, [sp, #17]
 711              		.loc 1 197 0
 712 02a8 019B     		ldr	r3, [sp, #4]
 713 02aa 1A1D     		adds	r2, r3, #4
 714 02ac 0192     		str	r2, [sp, #4]
 715 02ae 1B68     		ldr	r3, [r3]
 716 02b0 0693     		str	r3, [sp, #24]
 717 02b2 069B     		ldr	r3, [sp, #24]
 718 02b4 002B     		cmp	r3, #0
 719 02b6 01D1     		bne	.L56
 720              		.loc 1 198 0
 721 02b8 124B     		ldr	r3, .L85+4
 722 02ba 0693     		str	r3, [sp, #24]
 723              	.L56:
 724              		.loc 1 199 0
 725 02bc 089B     		ldr	r3, [sp, #32]
 726 02be 002B     		cmp	r3, #0
 727 02c0 02D1     		bne	.L57
 728              		.loc 1 200 0
 729 02c2 47F6FF73 		movw	r3, #32767
 730 02c6 0893     		str	r3, [sp, #32]
 731              	.L57:
 732              		.loc 1 201 0
 733 02c8 069B     		ldr	r3, [sp, #24]
 734 02ca 0593     		str	r3, [sp, #20]
 735 02cc 02E0     		b	.L58
 736              	.L60:
 737              		.loc 1 201 0 is_stmt 0 discriminator 4
 738 02ce 059B     		ldr	r3, [sp, #20]
 739 02d0 0133     		adds	r3, r3, #1
 740 02d2 0593     		str	r3, [sp, #20]
ARM GAS  C:\Users\PCHAUT~1\AppData\Local\Temp\ccSngEmg.s 			page 14


 741              	.L58:
 742              		.loc 1 201 0 discriminator 1
 743 02d4 059B     		ldr	r3, [sp, #20]
 744 02d6 1B78     		ldrb	r3, [r3]	@ zero_extendqisi2
 745 02d8 002B     		cmp	r3, #0
 746 02da 00F08580 		beq	.L84
 747              		.loc 1 201 0 discriminator 3
 748 02de 089B     		ldr	r3, [sp, #32]
 749 02e0 013B     		subs	r3, r3, #1
 750 02e2 0893     		str	r3, [sp, #32]
 751 02e4 089B     		ldr	r3, [sp, #32]
 752 02e6 002B     		cmp	r3, #0
 753 02e8 F1DA     		bge	.L60
 754              		.loc 1 203 0 is_stmt 1
 755 02ea 7DE0     		b	.L84
 756              	.L47:
 757              		.loc 1 208 0
 758 02ec 9DF81230 		ldrb	r3, [sp, #18]	@ zero_extendqisi2
 759 02f0 002B     		cmp	r3, #0
 760 02f2 09D0     		beq	.L61
 761              		.loc 1 209 0
 762 02f4 019B     		ldr	r3, [sp, #4]
 763 02f6 1A1D     		adds	r2, r3, #4
 764 02f8 0192     		str	r2, [sp, #4]
 765 02fa 1B68     		ldr	r3, [r3]
 766 02fc 0B93     		str	r3, [sp, #44]
 767 02fe 08E0     		b	.L62
 768              	.L86:
 769              		.align	2
 770              	.L85:
 771 0300 00000000 		.word	__stack_chk_guard
 772 0304 00000000 		.word	.LC0
 773              	.L61:
 774              		.loc 1 211 0
 775 0308 019B     		ldr	r3, [sp, #4]
 776 030a 1A1D     		adds	r2, r3, #4
 777 030c 0192     		str	r2, [sp, #4]
 778 030e 1B68     		ldr	r3, [r3]
 779 0310 0B93     		str	r3, [sp, #44]
 780              	.L62:
 781              		.loc 1 212 0
 782 0312 0B9B     		ldr	r3, [sp, #44]
 783 0314 002B     		cmp	r3, #0
 784 0316 07DA     		bge	.L63
 785              		.loc 1 213 0
 786 0318 059B     		ldr	r3, [sp, #20]
 787 031a 5A1C     		adds	r2, r3, #1
 788 031c 0592     		str	r2, [sp, #20]
 789 031e 2D22     		movs	r2, #45
 790 0320 1A70     		strb	r2, [r3]
 791              		.loc 1 214 0
 792 0322 0B9B     		ldr	r3, [sp, #44]
 793 0324 5B42     		negs	r3, r3
 794 0326 0B93     		str	r3, [sp, #44]
 795              	.L63:
 796              		.loc 1 216 0
 797 0328 0A22     		movs	r2, #10
ARM GAS  C:\Users\PCHAUT~1\AppData\Local\Temp\ccSngEmg.s 			page 15


 798 032a 0B99     		ldr	r1, [sp, #44]
 799 032c 0598     		ldr	r0, [sp, #20]
 800 032e FFF7FEFF 		bl	ch_ltoa
 801 0332 0590     		str	r0, [sp, #20]
 802              		.loc 1 217 0
 803 0334 59E0     		b	.L55
 804              	.L53:
 805              		.loc 1 220 0
 806 0336 019B     		ldr	r3, [sp, #4]
 807 0338 0733     		adds	r3, r3, #7
 808 033a 23F00703 		bic	r3, r3, #7
 809 033e 03F10802 		add	r2, r3, #8
 810 0342 0192     		str	r2, [sp, #4]
 811 0344 D3E90034 		ldrd	r3, [r3]
 812 0348 1846     		mov	r0, r3
 813 034a 2146     		mov	r1, r4
 814 034c FFF7FEFF 		bl	__aeabi_d2f
 815              	.LVL7:
 816 0350 0346     		mov	r3, r0	@ float
 817 0352 0C93     		str	r3, [sp, #48]	@ float
 818              		.loc 1 221 0
 819 0354 DDED0C7A 		vldr.32	s15, [sp, #48]
 820 0358 F5EEC07A 		vcmpe.f32	s15, #0
 821 035c F1EE10FA 		vmrs	APSR_nzcv, FPSCR
 822 0360 0AD5     		bpl	.L64
 823              		.loc 1 222 0
 824 0362 059B     		ldr	r3, [sp, #20]
 825 0364 5A1C     		adds	r2, r3, #1
 826 0366 0592     		str	r2, [sp, #20]
 827 0368 2D22     		movs	r2, #45
 828 036a 1A70     		strb	r2, [r3]
 829              		.loc 1 223 0
 830 036c DDED0C7A 		vldr.32	s15, [sp, #48]
 831 0370 F1EE677A 		vneg.f32	s15, s15
 832 0374 CDED0C7A 		vstr.32	s15, [sp, #48]
 833              	.L64:
 834              		.loc 1 225 0
 835 0378 0C98     		ldr	r0, [sp, #48]	@ float
 836 037a FFF7FEFF 		bl	__aeabi_f2d
 837              	.LVL8:
 838 037e 0446     		mov	r4, r0
 839 0380 0D46     		mov	r5, r1
 840 0382 089B     		ldr	r3, [sp, #32]
 841 0384 1946     		mov	r1, r3
 842 0386 45EC104B 		vmov	d0, r4, r5
 843 038a 0598     		ldr	r0, [sp, #20]
 844 038c FFF7FEFF 		bl	ftoa
 845 0390 0590     		str	r0, [sp, #20]
 846              		.loc 1 226 0
 847 0392 2AE0     		b	.L55
 848              	.L51:
 849              		.loc 1 230 0
 850 0394 1023     		movs	r3, #16
 851 0396 8DF81030 		strb	r3, [sp, #16]
 852              		.loc 1 231 0
 853 039a 06E0     		b	.L66
 854              	.L50:
ARM GAS  C:\Users\PCHAUT~1\AppData\Local\Temp\ccSngEmg.s 			page 16


 855              		.loc 1 234 0
 856 039c 0A23     		movs	r3, #10
 857 039e 8DF81030 		strb	r3, [sp, #16]
 858              		.loc 1 235 0
 859 03a2 02E0     		b	.L66
 860              	.L49:
 861              		.loc 1 238 0
 862 03a4 0823     		movs	r3, #8
 863 03a6 8DF81030 		strb	r3, [sp, #16]
 864              	.L66:
 865              		.loc 1 240 0
 866 03aa 9DF81230 		ldrb	r3, [sp, #18]	@ zero_extendqisi2
 867 03ae 002B     		cmp	r3, #0
 868 03b0 05D0     		beq	.L67
 869              		.loc 1 241 0
 870 03b2 019B     		ldr	r3, [sp, #4]
 871 03b4 1A1D     		adds	r2, r3, #4
 872 03b6 0192     		str	r2, [sp, #4]
 873 03b8 1B68     		ldr	r3, [r3]
 874 03ba 0B93     		str	r3, [sp, #44]
 875 03bc 04E0     		b	.L68
 876              	.L67:
 877              		.loc 1 243 0
 878 03be 019B     		ldr	r3, [sp, #4]
 879 03c0 1A1D     		adds	r2, r3, #4
 880 03c2 0192     		str	r2, [sp, #4]
 881 03c4 1B68     		ldr	r3, [r3]
 882 03c6 0B93     		str	r3, [sp, #44]
 883              	.L68:
 884              		.loc 1 244 0
 885 03c8 9DF81030 		ldrb	r3, [sp, #16]	@ zero_extendqisi2
 886 03cc 1A46     		mov	r2, r3
 887 03ce 0B99     		ldr	r1, [sp, #44]
 888 03d0 0598     		ldr	r0, [sp, #20]
 889 03d2 FFF7FEFF 		bl	ch_ltoa
 890 03d6 0590     		str	r0, [sp, #20]
 891              		.loc 1 245 0
 892 03d8 07E0     		b	.L55
 893              	.L46:
 894              		.loc 1 247 0
 895 03da 059B     		ldr	r3, [sp, #20]
 896 03dc 5A1C     		adds	r2, r3, #1
 897 03de 0592     		str	r2, [sp, #20]
 898 03e0 9DF81020 		ldrb	r2, [sp, #16]
 899 03e4 1A70     		strb	r2, [r3]
 900              		.loc 1 248 0
 901 03e6 00E0     		b	.L55
 902              	.L84:
 903              		.loc 1 203 0
 904 03e8 00BF     		nop
 905              	.L55:
 906              		.loc 1 250 0
 907 03ea 059A     		ldr	r2, [sp, #20]
 908 03ec 069B     		ldr	r3, [sp, #24]
 909 03ee D31A     		subs	r3, r2, r3
 910 03f0 0793     		str	r3, [sp, #28]
 911              		.loc 1 251 0
ARM GAS  C:\Users\PCHAUT~1\AppData\Local\Temp\ccSngEmg.s 			page 17


 912 03f2 099A     		ldr	r2, [sp, #36]
 913 03f4 079B     		ldr	r3, [sp, #28]
 914 03f6 D31A     		subs	r3, r2, r3
 915 03f8 0993     		str	r3, [sp, #36]
 916 03fa 099B     		ldr	r3, [sp, #36]
 917 03fc 002B     		cmp	r3, #0
 918 03fe 01DA     		bge	.L69
 919              		.loc 1 252 0
 920 0400 0023     		movs	r3, #0
 921 0402 0993     		str	r3, [sp, #36]
 922              	.L69:
 923              		.loc 1 253 0
 924 0404 9DF81330 		ldrb	r3, [sp, #19]
 925 0408 83F00103 		eor	r3, r3, #1
 926 040c DBB2     		uxtb	r3, r3
 927 040e 002B     		cmp	r3, #0
 928 0410 02D0     		beq	.L70
 929              		.loc 1 254 0
 930 0412 099B     		ldr	r3, [sp, #36]
 931 0414 5B42     		negs	r3, r3
 932 0416 0993     		str	r3, [sp, #36]
 933              	.L70:
 934              		.loc 1 255 0
 935 0418 099B     		ldr	r3, [sp, #36]
 936 041a 002B     		cmp	r3, #0
 937 041c 36DA     		bge	.L74
 938              		.loc 1 256 0
 939 041e 069B     		ldr	r3, [sp, #24]
 940 0420 1B78     		ldrb	r3, [r3]	@ zero_extendqisi2
 941 0422 2D2B     		cmp	r3, #45
 942 0424 13D1     		bne	.L73
 943              		.loc 1 256 0 is_stmt 0 discriminator 1
 944 0426 9DF81130 		ldrb	r3, [sp, #17]	@ zero_extendqisi2
 945 042a 302B     		cmp	r3, #48
 946 042c 0FD1     		bne	.L73
 947              		.loc 1 257 0 is_stmt 1
 948 042e 039B     		ldr	r3, [sp, #12]
 949 0430 1B68     		ldr	r3, [r3]
 950 0432 9A68     		ldr	r2, [r3, #8]
 951 0434 069B     		ldr	r3, [sp, #24]
 952 0436 591C     		adds	r1, r3, #1
 953 0438 0691     		str	r1, [sp, #24]
 954 043a 1B78     		ldrb	r3, [r3]	@ zero_extendqisi2
 955 043c 1946     		mov	r1, r3
 956 043e 0398     		ldr	r0, [sp, #12]
 957 0440 9047     		blx	r2
 958              	.LVL9:
 959              		.loc 1 258 0
 960 0442 0A9B     		ldr	r3, [sp, #40]
 961 0444 0133     		adds	r3, r3, #1
 962 0446 0A93     		str	r3, [sp, #40]
 963              		.loc 1 259 0
 964 0448 079B     		ldr	r3, [sp, #28]
 965 044a 013B     		subs	r3, r3, #1
 966 044c 0793     		str	r3, [sp, #28]
 967              	.L73:
 968              		.loc 1 262 0 discriminator 1
ARM GAS  C:\Users\PCHAUT~1\AppData\Local\Temp\ccSngEmg.s 			page 18


 969 044e 039B     		ldr	r3, [sp, #12]
 970 0450 1B68     		ldr	r3, [r3]
 971 0452 9B68     		ldr	r3, [r3, #8]
 972 0454 9DF81120 		ldrb	r2, [sp, #17]	@ zero_extendqisi2
 973 0458 1146     		mov	r1, r2
 974 045a 0398     		ldr	r0, [sp, #12]
 975 045c 9847     		blx	r3
 976              	.LVL10:
 977              		.loc 1 263 0 discriminator 1
 978 045e 0A9B     		ldr	r3, [sp, #40]
 979 0460 0133     		adds	r3, r3, #1
 980 0462 0A93     		str	r3, [sp, #40]
 981              		.loc 1 264 0 discriminator 1
 982 0464 099B     		ldr	r3, [sp, #36]
 983 0466 0133     		adds	r3, r3, #1
 984 0468 0993     		str	r3, [sp, #36]
 985 046a 099B     		ldr	r3, [sp, #36]
 986 046c 002B     		cmp	r3, #0
 987 046e EED1     		bne	.L73
 988              		.loc 1 266 0
 989 0470 0CE0     		b	.L74
 990              	.L75:
 991              		.loc 1 267 0
 992 0472 039B     		ldr	r3, [sp, #12]
 993 0474 1B68     		ldr	r3, [r3]
 994 0476 9A68     		ldr	r2, [r3, #8]
 995 0478 069B     		ldr	r3, [sp, #24]
 996 047a 591C     		adds	r1, r3, #1
 997 047c 0691     		str	r1, [sp, #24]
 998 047e 1B78     		ldrb	r3, [r3]	@ zero_extendqisi2
 999 0480 1946     		mov	r1, r3
 1000 0482 0398     		ldr	r0, [sp, #12]
 1001 0484 9047     		blx	r2
 1002              	.LVL11:
 1003              		.loc 1 268 0
 1004 0486 0A9B     		ldr	r3, [sp, #40]
 1005 0488 0133     		adds	r3, r3, #1
 1006 048a 0A93     		str	r3, [sp, #40]
 1007              	.L74:
 1008              		.loc 1 266 0
 1009 048c 079B     		ldr	r3, [sp, #28]
 1010 048e 013B     		subs	r3, r3, #1
 1011 0490 0793     		str	r3, [sp, #28]
 1012 0492 079B     		ldr	r3, [sp, #28]
 1013 0494 002B     		cmp	r3, #0
 1014 0496 ECDA     		bge	.L75
 1015              		.loc 1 271 0
 1016 0498 0DE0     		b	.L76
 1017              	.L77:
 1018              		.loc 1 272 0
 1019 049a 039B     		ldr	r3, [sp, #12]
 1020 049c 1B68     		ldr	r3, [r3]
 1021 049e 9B68     		ldr	r3, [r3, #8]
 1022 04a0 9DF81120 		ldrb	r2, [sp, #17]	@ zero_extendqisi2
 1023 04a4 1146     		mov	r1, r2
 1024 04a6 0398     		ldr	r0, [sp, #12]
 1025 04a8 9847     		blx	r3
ARM GAS  C:\Users\PCHAUT~1\AppData\Local\Temp\ccSngEmg.s 			page 19


 1026              	.LVL12:
 1027              		.loc 1 273 0
 1028 04aa 0A9B     		ldr	r3, [sp, #40]
 1029 04ac 0133     		adds	r3, r3, #1
 1030 04ae 0A93     		str	r3, [sp, #40]
 1031              		.loc 1 274 0
 1032 04b0 099B     		ldr	r3, [sp, #36]
 1033 04b2 013B     		subs	r3, r3, #1
 1034 04b4 0993     		str	r3, [sp, #36]
 1035              	.L76:
 1036              		.loc 1 271 0
 1037 04b6 099B     		ldr	r3, [sp, #36]
 1038 04b8 002B     		cmp	r3, #0
 1039 04ba EED1     		bne	.L77
 1040              	.L27:
 1041              		.loc 1 135 0
 1042 04bc AAE5     		b	.L78
 1043              	.L81:
 1044              		.loc 1 277 0
 1045 04be FFF7FEFF 		bl	__stack_chk_fail
 1046              	.L79:
 1047 04c2 15B0     		add	sp, sp, #84
 1048              		.cfi_def_cfa_offset 12
 1049              		@ sp needed
 1050 04c4 30BD     		pop	{r4, r5, pc}
 1051              		.cfi_endproc
 1052              	.LFE260:
 1053              		.size	chvprintf, .-chvprintf
 1054 04c6 00BF     		.section	.text.chsnprintf,"ax",%progbits
 1055              		.align	1
 1056              		.p2align 4,,15
 1057              		.global	chsnprintf
 1058              		.syntax unified
 1059              		.thumb
 1060              		.thumb_func
 1061              		.fpu fpv4-sp-d16
 1062              		.type	chsnprintf, %function
 1063              	chsnprintf:
 1064              	.LFB261:
 1065              		.loc 1 307 0
 1066              		.cfi_startproc
 1067              		@ args = 4, pretend = 8, frame = 56
 1068              		@ frame_needed = 0, uses_anonymous_args = 1
 1069 0000 0CB4     		push	{r2, r3}
 1070              		.cfi_def_cfa_offset 8
 1071              		.cfi_offset 2, -8
 1072              		.cfi_offset 3, -4
 1073 0002 00B5     		push	{lr}
 1074              		.cfi_def_cfa_offset 12
 1075              		.cfi_offset 14, -12
 1076 0004 8FB0     		sub	sp, sp, #60
 1077              		.cfi_def_cfa_offset 72
 1078 0006 0390     		str	r0, [sp, #12]
 1079 0008 0291     		str	r1, [sp, #8]
 1080 000a 109B     		ldr	r3, [sp, #64]
 1081 000c 0193     		str	r3, [sp, #4]
 1082              		.loc 1 307 0
ARM GAS  C:\Users\PCHAUT~1\AppData\Local\Temp\ccSngEmg.s 			page 20


 1083 000e 194B     		ldr	r3, .L93
 1084 0010 1B68     		ldr	r3, [r3]
 1085 0012 0D93     		str	r3, [sp, #52]
 1086              		.loc 1 314 0
 1087 0014 029B     		ldr	r3, [sp, #8]
 1088 0016 002B     		cmp	r3, #0
 1089 0018 03D0     		beq	.L88
 1090              		.loc 1 315 0
 1091 001a 029B     		ldr	r3, [sp, #8]
 1092 001c 013B     		subs	r3, r3, #1
 1093 001e 0593     		str	r3, [sp, #20]
 1094 0020 01E0     		b	.L89
 1095              	.L88:
 1096              		.loc 1 317 0
 1097 0022 0023     		movs	r3, #0
 1098 0024 0593     		str	r3, [sp, #20]
 1099              	.L89:
 1100              		.loc 1 321 0
 1101 0026 08A8     		add	r0, sp, #32
 1102 0028 0023     		movs	r3, #0
 1103 002a 059A     		ldr	r2, [sp, #20]
 1104 002c 0399     		ldr	r1, [sp, #12]
 1105 002e FFF7FEFF 		bl	msObjectInit
 1106              		.loc 1 324 0
 1107 0032 08AB     		add	r3, sp, #32
 1108 0034 0693     		str	r3, [sp, #24]
 1109              		.loc 1 325 0
 1110 0036 11AB     		add	r3, sp, #68
 1111 0038 0493     		str	r3, [sp, #16]
 1112              		.loc 1 326 0
 1113 003a 049A     		ldr	r2, [sp, #16]
 1114 003c 0199     		ldr	r1, [sp, #4]
 1115 003e 0698     		ldr	r0, [sp, #24]
 1116 0040 FFF7FEFF 		bl	chvprintf
 1117 0044 0790     		str	r0, [sp, #28]
 1118              		.loc 1 330 0
 1119 0046 0B9B     		ldr	r3, [sp, #44]
 1120 0048 029A     		ldr	r2, [sp, #8]
 1121 004a 9A42     		cmp	r2, r3
 1122 004c 04D9     		bls	.L90
 1123              		.loc 1 331 0
 1124 004e 0B9B     		ldr	r3, [sp, #44]
 1125 0050 039A     		ldr	r2, [sp, #12]
 1126 0052 1344     		add	r3, r3, r2
 1127 0054 0022     		movs	r2, #0
 1128 0056 1A70     		strb	r2, [r3]
 1129              	.L90:
 1130              		.loc 1 334 0
 1131 0058 079B     		ldr	r3, [sp, #28]
 1132              		.loc 1 335 0
 1133 005a 1846     		mov	r0, r3
 1134 005c 054B     		ldr	r3, .L93
 1135 005e 0D9A     		ldr	r2, [sp, #52]
 1136 0060 1B68     		ldr	r3, [r3]
 1137 0062 9A42     		cmp	r2, r3
 1138 0064 01D0     		beq	.L92
 1139 0066 FFF7FEFF 		bl	__stack_chk_fail
ARM GAS  C:\Users\PCHAUT~1\AppData\Local\Temp\ccSngEmg.s 			page 21


 1140              	.L92:
 1141 006a 0FB0     		add	sp, sp, #60
 1142              		.cfi_def_cfa_offset 12
 1143              		@ sp needed
 1144 006c 5DF804EB 		ldr	lr, [sp], #4
 1145              		.cfi_restore 14
 1146              		.cfi_def_cfa_offset 8
 1147 0070 02B0     		add	sp, sp, #8
 1148              		.cfi_restore 3
 1149              		.cfi_restore 2
 1150              		.cfi_def_cfa_offset 0
 1151 0072 7047     		bx	lr
 1152              	.L94:
 1153              		.align	2
 1154              	.L93:
 1155 0074 00000000 		.word	__stack_chk_guard
 1156              		.cfi_endproc
 1157              	.LFE261:
 1158              		.size	chsnprintf, .-chsnprintf
 1159              		.text
 1160              	.Letext0:
 1161              		.file 2 "c:\\users\\pchautems\\documents\\robotiquetp\\eclipse_e-puck2\\tools\\gcc-arm-none-eabi-7
 1162              		.file 3 "c:\\users\\pchautems\\documents\\robotiquetp\\eclipse_e-puck2\\tools\\gcc-arm-none-eabi-7
 1163              		.file 4 "c:\\users\\pchautems\\documents\\robotiquetp\\eclipse_e-puck2\\tools\\gcc-arm-none-eabi-7
 1164              		.file 5 "../lib/e-puck2_main-processor/ChibiOS//os/rt/ports/ARMCMx/compilers/GCC/chtypes.h"
 1165              		.file 6 "../lib/e-puck2_main-processor/ChibiOS//os/rt/include/chsystypes.h"
 1166              		.file 7 "../lib/e-puck2_main-processor/ChibiOS//os/rt/include/chschd.h"
 1167              		.file 8 "../lib/e-puck2_main-processor/ChibiOS//os/ext/CMSIS/include/core_cm4.h"
 1168              		.file 9 "../lib/e-puck2_main-processor/ChibiOS//os/ext/CMSIS/ST/system_stm32f4xx.h"
 1169              		.file 10 "../lib/e-puck2_main-processor/ChibiOS//os/ext/CMSIS/ST/stm32f407xx.h"
 1170              		.file 11 "../lib/e-puck2_main-processor/ChibiOS//os/rt/ports/ARMCMx/chcore.h"
 1171              		.file 12 "../lib/e-puck2_main-processor/ChibiOS//os/rt/ports/ARMCMx/chcore_v7m.h"
 1172              		.file 13 "../lib/e-puck2_main-processor/ChibiOS//os/rt/include/chdebug.h"
 1173              		.file 14 "../lib/e-puck2_main-processor/ChibiOS//os/rt/include/chtm.h"
 1174              		.file 15 "../lib/e-puck2_main-processor/ChibiOS//os/rt/include/chstats.h"
 1175              		.file 16 "../lib/e-puck2_main-processor/ChibiOS//os/rt/include/chsem.h"
 1176              		.file 17 "../lib/e-puck2_main-processor/ChibiOS//os/rt/include/chmtx.h"
 1177              		.file 18 "../lib/e-puck2_main-processor/ChibiOS//os/rt/include/chregistry.h"
 1178              		.file 19 "../lib/e-puck2_main-processor/ChibiOS//os/rt/include/chevents.h"
 1179              		.file 20 "../lib/e-puck2_main-processor/ChibiOS//os/rt/include/chqueues.h"
 1180              		.file 21 "../lib/e-puck2_main-processor/ChibiOS//os/rt/include/chstreams.h"
 1181              		.file 22 "../lib/e-puck2_main-processor/ChibiOS//os/hal/ports/STM32/STM32F4xx/stm32_dma.h"
 1182              		.file 23 "../lib/e-puck2_main-processor/ChibiOS//os/hal/include/hal_ioblock.h"
 1183              		.file 24 "../lib/e-puck2_main-processor/ChibiOS//os/hal/ports/STM32/LLD/GPIOv2/pal_lld.h"
 1184              		.file 25 "../lib/e-puck2_main-processor/ChibiOS//os/hal/include/adc.h"
 1185              		.file 26 "../lib/e-puck2_main-processor/ChibiOS//os/hal/ports/STM32/STM32F4xx/adc_lld.h"
 1186              		.file 27 "../lib/e-puck2_main-processor/ChibiOS//os/hal/include/can.h"
 1187              		.file 28 "../lib/e-puck2_main-processor/ChibiOS//os/hal/ports/STM32/LLD/can_lld.h"
 1188              		.file 29 "../lib/e-puck2_main-processor/ChibiOS//os/hal/include/dac.h"
 1189              		.file 30 "../lib/e-puck2_main-processor/ChibiOS//os/hal/ports/STM32/LLD/DACv1/dac_lld.h"
 1190              		.file 31 "../lib/e-puck2_main-processor/ChibiOS//os/hal/include/ext.h"
 1191              		.file 32 "../lib/e-puck2_main-processor/ChibiOS//os/hal/ports/STM32/LLD/ext_lld.h"
 1192              		.file 33 "../lib/e-puck2_main-processor/ChibiOS//os/hal/include/gpt.h"
 1193              		.file 34 "../lib/e-puck2_main-processor/ChibiOS//os/hal/ports/STM32/LLD/TIMv1/gpt_lld.h"
 1194              		.file 35 "../lib/e-puck2_main-processor/ChibiOS//os/hal/ports/STM32/LLD/TIMv1/stm32_tim.h"
 1195              		.file 36 "../lib/e-puck2_main-processor/ChibiOS//os/hal/include/i2c.h"
 1196              		.file 37 "../lib/e-puck2_main-processor/ChibiOS//os/hal/ports/STM32/LLD/I2Cv1/i2c_lld.h"
ARM GAS  C:\Users\PCHAUT~1\AppData\Local\Temp\ccSngEmg.s 			page 22


 1197              		.file 38 "../lib/e-puck2_main-processor/ChibiOS//os/hal/include/i2s.h"
 1198              		.file 39 "../lib/e-puck2_main-processor/ChibiOS//os/hal/ports/STM32/LLD/SPIv1/i2s_lld.h"
 1199              		.file 40 "../lib/e-puck2_main-processor/ChibiOS//os/hal/include/pwm.h"
 1200              		.file 41 "../lib/e-puck2_main-processor/ChibiOS//os/hal/ports/STM32/LLD/TIMv1/pwm_lld.h"
 1201              		.file 42 "../lib/e-puck2_main-processor/ChibiOS//os/hal/include/serial.h"
 1202              		.file 43 "../lib/e-puck2_main-processor/ChibiOS//os/hal/ports/STM32/LLD/USARTv1/serial_lld.h"
 1203              		.file 44 "../lib/e-puck2_main-processor/ChibiOS//os/hal/include/sdc.h"
 1204              		.file 45 "../lib/e-puck2_main-processor/ChibiOS//os/hal/ports/STM32/LLD/sdc_lld.h"
 1205              		.file 46 "../lib/e-puck2_main-processor/ChibiOS//os/hal/include/spi.h"
 1206              		.file 47 "../lib/e-puck2_main-processor/ChibiOS//os/hal/ports/STM32/LLD/SPIv1/spi_lld.h"
 1207              		.file 48 "../lib/e-puck2_main-processor/ChibiOS//os/hal/include/usb.h"
 1208              		.file 49 "../lib/e-puck2_main-processor/ChibiOS//os/hal/ports/STM32/LLD/OTGv1/usb_lld.h"
 1209              		.file 50 "../lib/e-puck2_main-processor/ChibiOS//os/hal/ports/STM32/LLD/OTGv1/stm32_otg.h"
 1210              		.file 51 "c:\\users\\pchautems\\documents\\robotiquetp\\eclipse_e-puck2\\tools\\gcc-arm-none-eabi-
 1211              		.file 52 "<built-in>"
 1212              		.file 53 "../lib/e-puck2_main-processor/ChibiOS//os/hal/lib/streams/memstreams.h"