ARM GAS  C:\Users\PCHAUT~1\AppData\Local\Temp\ccLTr2Pw.s 			page 1


   1              		.cpu cortex-m4
   2              		.eabi_attribute 27, 1
   3              		.eabi_attribute 28, 1
   4              		.eabi_attribute 20, 1
   5              		.eabi_attribute 21, 1
   6              		.eabi_attribute 23, 3
   7              		.eabi_attribute 24, 1
   8              		.eabi_attribute 25, 1
   9              		.eabi_attribute 26, 1
  10              		.eabi_attribute 30, 6
  11              		.eabi_attribute 34, 1
  12              		.eabi_attribute 18, 4
  13              		.file	"chqueues.c"
  14              		.text
  15              	.Ltext0:
  16              		.cfi_sections	.debug_frame
  17              		.section	.text.port_lock,"ax",%progbits
  18              		.align	1
  19              		.p2align 4,,15
  20              		.syntax unified
  21              		.thumb
  22              		.thumb_func
  23              		.fpu fpv4-sp-d16
  24              		.type	port_lock, %function
  25              	port_lock:
  26              	.LFB116:
  27              		.file 1 "../lib/e-puck2_main-processor/ChibiOS//os/rt/ports/ARMCMx/chcore_v7m.h"
  28              		.loc 1 444 0
  29              		.cfi_startproc
  30              		@ args = 0, pretend = 0, frame = 8
  31              		@ frame_needed = 0, uses_anonymous_args = 0
  32 0000 00B5     		push	{lr}
  33              		.cfi_def_cfa_offset 4
  34              		.cfi_offset 14, -4
  35 0002 83B0     		sub	sp, sp, #12
  36              		.cfi_def_cfa_offset 16
  37              		.loc 1 444 0
  38 0004 094B     		ldr	r3, .L3
  39 0006 1B68     		ldr	r3, [r3]
  40 0008 0193     		str	r3, [sp, #4]
  41 000a 2023     		movs	r3, #32
  42 000c 0093     		str	r3, [sp]
  43              	.LBB6:
  44              	.LBB7:
  45              		.file 2 "../lib/e-puck2_main-processor/ChibiOS//os/ext/CMSIS/include/core_cmFunc.h"
  46              		.loc 2 546 0
  47 000e 009B     		ldr	r3, [sp]
  48              		.syntax unified
  49              	@ 546 "../lib/e-puck2_main-processor/ChibiOS//os/ext/CMSIS/include/core_cmFunc.h" 1
  50 0010 83F31188 		MSR basepri, r3
  51              	@ 0 "" 2
  52              		.thumb
  53              		.syntax unified
  54              	.LBE7:
  55              	.LBE6:
  56              		.loc 1 451 0
  57 0014 00BF     		nop
ARM GAS  C:\Users\PCHAUT~1\AppData\Local\Temp\ccLTr2Pw.s 			page 2


  58 0016 054B     		ldr	r3, .L3
  59 0018 019A     		ldr	r2, [sp, #4]
  60 001a 1B68     		ldr	r3, [r3]
  61 001c 9A42     		cmp	r2, r3
  62 001e 01D0     		beq	.L2
  63 0020 FFF7FEFF 		bl	__stack_chk_fail
  64              	.L2:
  65 0024 03B0     		add	sp, sp, #12
  66              		.cfi_def_cfa_offset 4
  67              		@ sp needed
  68 0026 5DF804FB 		ldr	pc, [sp], #4
  69              	.L4:
  70 002a 00BF     		.align	2
  71              	.L3:
  72 002c 00000000 		.word	__stack_chk_guard
  73              		.cfi_endproc
  74              	.LFE116:
  75              		.size	port_lock, .-port_lock
  76              		.section	.text.port_unlock,"ax",%progbits
  77              		.align	1
  78              		.p2align 4,,15
  79              		.syntax unified
  80              		.thumb
  81              		.thumb_func
  82              		.fpu fpv4-sp-d16
  83              		.type	port_unlock, %function
  84              	port_unlock:
  85              	.LFB117:
  86              		.loc 1 458 0
  87              		.cfi_startproc
  88              		@ args = 0, pretend = 0, frame = 8
  89              		@ frame_needed = 0, uses_anonymous_args = 0
  90 0000 00B5     		push	{lr}
  91              		.cfi_def_cfa_offset 4
  92              		.cfi_offset 14, -4
  93 0002 83B0     		sub	sp, sp, #12
  94              		.cfi_def_cfa_offset 16
  95              		.loc 1 458 0
  96 0004 094B     		ldr	r3, .L7
  97 0006 1B68     		ldr	r3, [r3]
  98 0008 0193     		str	r3, [sp, #4]
  99 000a 0023     		movs	r3, #0
 100 000c 0093     		str	r3, [sp]
 101              	.LBB8:
 102              	.LBB9:
 103              		.loc 2 546 0
 104 000e 009B     		ldr	r3, [sp]
 105              		.syntax unified
 106              	@ 546 "../lib/e-puck2_main-processor/ChibiOS//os/ext/CMSIS/include/core_cmFunc.h" 1
 107 0010 83F31188 		MSR basepri, r3
 108              	@ 0 "" 2
 109              		.thumb
 110              		.syntax unified
 111              	.LBE9:
 112              	.LBE8:
 113              		.loc 1 465 0
 114 0014 00BF     		nop
ARM GAS  C:\Users\PCHAUT~1\AppData\Local\Temp\ccLTr2Pw.s 			page 3


 115 0016 054B     		ldr	r3, .L7
 116 0018 019A     		ldr	r2, [sp, #4]
 117 001a 1B68     		ldr	r3, [r3]
 118 001c 9A42     		cmp	r2, r3
 119 001e 01D0     		beq	.L6
 120 0020 FFF7FEFF 		bl	__stack_chk_fail
 121              	.L6:
 122 0024 03B0     		add	sp, sp, #12
 123              		.cfi_def_cfa_offset 4
 124              		@ sp needed
 125 0026 5DF804FB 		ldr	pc, [sp], #4
 126              	.L8:
 127 002a 00BF     		.align	2
 128              	.L7:
 129 002c 00000000 		.word	__stack_chk_guard
 130              		.cfi_endproc
 131              	.LFE117:
 132              		.size	port_unlock, .-port_unlock
 133              		.section	.text.queue_init,"ax",%progbits
 134              		.align	1
 135              		.p2align 4,,15
 136              		.syntax unified
 137              		.thumb
 138              		.thumb_func
 139              		.fpu fpv4-sp-d16
 140              		.type	queue_init, %function
 141              	queue_init:
 142              	.LFB128:
 143              		.file 3 "../lib/e-puck2_main-processor/ChibiOS//os/rt/include/chschd.h"
 144              		.loc 3 602 0
 145              		.cfi_startproc
 146              		@ args = 0, pretend = 0, frame = 16
 147              		@ frame_needed = 0, uses_anonymous_args = 0
 148 0000 00B5     		push	{lr}
 149              		.cfi_def_cfa_offset 4
 150              		.cfi_offset 14, -4
 151 0002 85B0     		sub	sp, sp, #20
 152              		.cfi_def_cfa_offset 24
 153 0004 0190     		str	r0, [sp, #4]
 154              		.loc 3 602 0
 155 0006 0A4B     		ldr	r3, .L11
 156 0008 1B68     		ldr	r3, [r3]
 157 000a 0393     		str	r3, [sp, #12]
 158              		.loc 3 604 0
 159 000c 019B     		ldr	r3, [sp, #4]
 160 000e 019A     		ldr	r2, [sp, #4]
 161 0010 1A60     		str	r2, [r3]
 162              		.loc 3 605 0
 163 0012 019B     		ldr	r3, [sp, #4]
 164 0014 019A     		ldr	r2, [sp, #4]
 165 0016 5A60     		str	r2, [r3, #4]
 166              		.loc 3 606 0
 167 0018 00BF     		nop
 168 001a 054B     		ldr	r3, .L11
 169 001c 039A     		ldr	r2, [sp, #12]
 170 001e 1B68     		ldr	r3, [r3]
 171 0020 9A42     		cmp	r2, r3
ARM GAS  C:\Users\PCHAUT~1\AppData\Local\Temp\ccLTr2Pw.s 			page 4


 172 0022 01D0     		beq	.L10
 173 0024 FFF7FEFF 		bl	__stack_chk_fail
 174              	.L10:
 175 0028 05B0     		add	sp, sp, #20
 176              		.cfi_def_cfa_offset 4
 177              		@ sp needed
 178 002a 5DF804FB 		ldr	pc, [sp], #4
 179              	.L12:
 180 002e 00BF     		.align	2
 181              	.L11:
 182 0030 00000000 		.word	__stack_chk_guard
 183              		.cfi_endproc
 184              	.LFE128:
 185              		.size	queue_init, .-queue_init
 186              		.section	.text.chSysLock,"ax",%progbits
 187              		.align	1
 188              		.p2align 4,,15
 189              		.syntax unified
 190              		.thumb
 191              		.thumb_func
 192              		.fpu fpv4-sp-d16
 193              		.type	chSysLock, %function
 194              	chSysLock:
 195              	.LFB145:
 196              		.file 4 "../lib/e-puck2_main-processor/ChibiOS//os/rt/include/chsys.h"
 197              		.loc 4 346 0
 198              		.cfi_startproc
 199              		@ args = 0, pretend = 0, frame = 8
 200              		@ frame_needed = 0, uses_anonymous_args = 0
 201 0000 00B5     		push	{lr}
 202              		.cfi_def_cfa_offset 4
 203              		.cfi_offset 14, -4
 204 0002 83B0     		sub	sp, sp, #12
 205              		.cfi_def_cfa_offset 16
 206              		.loc 4 346 0
 207 0004 094B     		ldr	r3, .L15
 208 0006 1B68     		ldr	r3, [r3]
 209 0008 0193     		str	r3, [sp, #4]
 210              		.loc 4 348 0
 211 000a FFF7FEFF 		bl	port_lock
 212              		.loc 4 349 0
 213 000e FFF7FEFF 		bl	_stats_start_measure_crit_thd
 214              		.loc 4 350 0
 215 0012 FFF7FEFF 		bl	_dbg_check_lock
 216              		.loc 4 351 0
 217 0016 00BF     		nop
 218 0018 044B     		ldr	r3, .L15
 219 001a 019A     		ldr	r2, [sp, #4]
 220 001c 1B68     		ldr	r3, [r3]
 221 001e 9A42     		cmp	r2, r3
 222 0020 01D0     		beq	.L14
 223 0022 FFF7FEFF 		bl	__stack_chk_fail
 224              	.L14:
 225 0026 03B0     		add	sp, sp, #12
 226              		.cfi_def_cfa_offset 4
 227              		@ sp needed
 228 0028 5DF804FB 		ldr	pc, [sp], #4
ARM GAS  C:\Users\PCHAUT~1\AppData\Local\Temp\ccLTr2Pw.s 			page 5


 229              	.L16:
 230              		.align	2
 231              	.L15:
 232 002c 00000000 		.word	__stack_chk_guard
 233              		.cfi_endproc
 234              	.LFE145:
 235              		.size	chSysLock, .-chSysLock
 236              		.section	.text.chSysUnlock,"ax",%progbits
 237              		.align	1
 238              		.p2align 4,,15
 239              		.syntax unified
 240              		.thumb
 241              		.thumb_func
 242              		.fpu fpv4-sp-d16
 243              		.type	chSysUnlock, %function
 244              	chSysUnlock:
 245              	.LFB146:
 246              		.loc 4 358 0
 247              		.cfi_startproc
 248              		@ args = 0, pretend = 0, frame = 8
 249              		@ frame_needed = 0, uses_anonymous_args = 0
 250 0000 00B5     		push	{lr}
 251              		.cfi_def_cfa_offset 4
 252              		.cfi_offset 14, -4
 253 0002 83B0     		sub	sp, sp, #12
 254              		.cfi_def_cfa_offset 16
 255              		.loc 4 358 0
 256 0004 114B     		ldr	r3, .L20
 257 0006 1B68     		ldr	r3, [r3]
 258 0008 0193     		str	r3, [sp, #4]
 259              		.loc 4 360 0
 260 000a FFF7FEFF 		bl	_dbg_check_unlock
 261              		.loc 4 361 0
 262 000e FFF7FEFF 		bl	_stats_stop_measure_crit_thd
 263              		.loc 4 367 0
 264 0012 0F4B     		ldr	r3, .L20+4
 265 0014 1B68     		ldr	r3, [r3]
 266 0016 0E4A     		ldr	r2, .L20+4
 267 0018 9342     		cmp	r3, r2
 268 001a 0AD0     		beq	.L18
 269              		.loc 4 367 0 is_stmt 0 discriminator 2
 270 001c 0C4B     		ldr	r3, .L20+4
 271 001e 9B69     		ldr	r3, [r3, #24]
 272 0020 9A68     		ldr	r2, [r3, #8]
 273 0022 0B4B     		ldr	r3, .L20+4
 274 0024 1B68     		ldr	r3, [r3]
 275 0026 9B68     		ldr	r3, [r3, #8]
 276 0028 9A42     		cmp	r2, r3
 277 002a 02D2     		bcs	.L18
 278              		.loc 4 367 0 discriminator 3
 279 002c 0948     		ldr	r0, .L20+8
 280 002e FFF7FEFF 		bl	chSysHalt
 281              	.L18:
 282              		.loc 4 371 0 is_stmt 1
 283 0032 FFF7FEFF 		bl	port_unlock
 284              		.loc 4 372 0
 285 0036 00BF     		nop
ARM GAS  C:\Users\PCHAUT~1\AppData\Local\Temp\ccLTr2Pw.s 			page 6


 286 0038 044B     		ldr	r3, .L20
 287 003a 019A     		ldr	r2, [sp, #4]
 288 003c 1B68     		ldr	r3, [r3]
 289 003e 9A42     		cmp	r2, r3
 290 0040 01D0     		beq	.L19
 291 0042 FFF7FEFF 		bl	__stack_chk_fail
 292              	.L19:
 293 0046 03B0     		add	sp, sp, #12
 294              		.cfi_def_cfa_offset 4
 295              		@ sp needed
 296 0048 5DF804FB 		ldr	pc, [sp], #4
 297              	.L21:
 298              		.align	2
 299              	.L20:
 300 004c 00000000 		.word	__stack_chk_guard
 301 0050 00000000 		.word	ch
 302 0054 00000000 		.word	__func__.7153
 303              		.cfi_endproc
 304              	.LFE146:
 305              		.size	chSysUnlock, .-chSysUnlock
 306              		.section	.text.chThdQueueObjectInit,"ax",%progbits
 307              		.align	1
 308              		.p2align 4,,15
 309              		.syntax unified
 310              		.thumb
 311              		.thumb_func
 312              		.fpu fpv4-sp-d16
 313              		.type	chThdQueueObjectInit, %function
 314              	chThdQueueObjectInit:
 315              	.LFB173:
 316              		.file 5 "../lib/e-puck2_main-processor/ChibiOS//os/rt/include/chthreads.h"
 317              		.loc 5 278 0
 318              		.cfi_startproc
 319              		@ args = 0, pretend = 0, frame = 16
 320              		@ frame_needed = 0, uses_anonymous_args = 0
 321 0000 00B5     		push	{lr}
 322              		.cfi_def_cfa_offset 4
 323              		.cfi_offset 14, -4
 324 0002 85B0     		sub	sp, sp, #20
 325              		.cfi_def_cfa_offset 24
 326 0004 0190     		str	r0, [sp, #4]
 327              		.loc 5 278 0
 328 0006 084B     		ldr	r3, .L24
 329 0008 1B68     		ldr	r3, [r3]
 330 000a 0393     		str	r3, [sp, #12]
 331              		.loc 5 280 0
 332 000c 0198     		ldr	r0, [sp, #4]
 333 000e FFF7FEFF 		bl	queue_init
 334              		.loc 5 281 0
 335 0012 00BF     		nop
 336 0014 044B     		ldr	r3, .L24
 337 0016 039A     		ldr	r2, [sp, #12]
 338 0018 1B68     		ldr	r3, [r3]
 339 001a 9A42     		cmp	r2, r3
 340 001c 01D0     		beq	.L23
 341 001e FFF7FEFF 		bl	__stack_chk_fail
 342              	.L23:
ARM GAS  C:\Users\PCHAUT~1\AppData\Local\Temp\ccLTr2Pw.s 			page 7


 343 0022 05B0     		add	sp, sp, #20
 344              		.cfi_def_cfa_offset 4
 345              		@ sp needed
 346 0024 5DF804FB 		ldr	pc, [sp], #4
 347              	.L25:
 348              		.align	2
 349              	.L24:
 350 0028 00000000 		.word	__stack_chk_guard
 351              		.cfi_endproc
 352              	.LFE173:
 353              		.size	chThdQueueObjectInit, .-chThdQueueObjectInit
 354              		.section	.text.chIQIsEmptyI,"ax",%progbits
 355              		.align	1
 356              		.p2align 4,,15
 357              		.syntax unified
 358              		.thumb
 359              		.thumb_func
 360              		.fpu fpv4-sp-d16
 361              		.type	chIQIsEmptyI, %function
 362              	chIQIsEmptyI:
 363              	.LFB211:
 364              		.file 6 "../lib/e-puck2_main-processor/ChibiOS//os/rt/include/chqueues.h"
 365              		.loc 6 303 0
 366              		.cfi_startproc
 367              		@ args = 0, pretend = 0, frame = 16
 368              		@ frame_needed = 0, uses_anonymous_args = 0
 369 0000 00B5     		push	{lr}
 370              		.cfi_def_cfa_offset 4
 371              		.cfi_offset 14, -4
 372 0002 85B0     		sub	sp, sp, #20
 373              		.cfi_def_cfa_offset 24
 374 0004 0190     		str	r0, [sp, #4]
 375              		.loc 6 303 0
 376 0006 0B4B     		ldr	r3, .L29
 377 0008 1B68     		ldr	r3, [r3]
 378 000a 0393     		str	r3, [sp, #12]
 379              		.loc 6 305 0
 380 000c FFF7FEFF 		bl	chDbgCheckClassI
 381              		.loc 6 307 0
 382 0010 019B     		ldr	r3, [sp, #4]
 383 0012 9B68     		ldr	r3, [r3, #8]
 384 0014 002B     		cmp	r3, #0
 385 0016 0CBF     		ite	eq
 386 0018 0123     		moveq	r3, #1
 387 001a 0023     		movne	r3, #0
 388 001c DBB2     		uxtb	r3, r3
 389              		.loc 6 308 0
 390 001e 1846     		mov	r0, r3
 391 0020 044B     		ldr	r3, .L29
 392 0022 039A     		ldr	r2, [sp, #12]
 393 0024 1B68     		ldr	r3, [r3]
 394 0026 9A42     		cmp	r2, r3
 395 0028 01D0     		beq	.L28
 396 002a FFF7FEFF 		bl	__stack_chk_fail
 397              	.L28:
 398 002e 05B0     		add	sp, sp, #20
 399              		.cfi_def_cfa_offset 4
ARM GAS  C:\Users\PCHAUT~1\AppData\Local\Temp\ccLTr2Pw.s 			page 8


 400              		@ sp needed
 401 0030 5DF804FB 		ldr	pc, [sp], #4
 402              	.L30:
 403              		.align	2
 404              	.L29:
 405 0034 00000000 		.word	__stack_chk_guard
 406              		.cfi_endproc
 407              	.LFE211:
 408              		.size	chIQIsEmptyI, .-chIQIsEmptyI
 409              		.section	.text.chIQIsFullI,"ax",%progbits
 410              		.align	1
 411              		.p2align 4,,15
 412              		.syntax unified
 413              		.thumb
 414              		.thumb_func
 415              		.fpu fpv4-sp-d16
 416              		.type	chIQIsFullI, %function
 417              	chIQIsFullI:
 418              	.LFB212:
 419              		.loc 6 320 0
 420              		.cfi_startproc
 421              		@ args = 0, pretend = 0, frame = 16
 422              		@ frame_needed = 0, uses_anonymous_args = 0
 423 0000 00B5     		push	{lr}
 424              		.cfi_def_cfa_offset 4
 425              		.cfi_offset 14, -4
 426 0002 85B0     		sub	sp, sp, #20
 427              		.cfi_def_cfa_offset 24
 428 0004 0190     		str	r0, [sp, #4]
 429              		.loc 6 320 0
 430 0006 104B     		ldr	r3, .L36
 431 0008 1B68     		ldr	r3, [r3]
 432 000a 0393     		str	r3, [sp, #12]
 433              		.loc 6 322 0
 434 000c FFF7FEFF 		bl	chDbgCheckClassI
 435              		.loc 6 324 0
 436 0010 019B     		ldr	r3, [sp, #4]
 437 0012 5A69     		ldr	r2, [r3, #20]
 438 0014 019B     		ldr	r3, [sp, #4]
 439 0016 9B69     		ldr	r3, [r3, #24]
 440 0018 9A42     		cmp	r2, r3
 441 001a 05D1     		bne	.L32
 442              		.loc 6 324 0 is_stmt 0 discriminator 1
 443 001c 019B     		ldr	r3, [sp, #4]
 444 001e 9B68     		ldr	r3, [r3, #8]
 445 0020 002B     		cmp	r3, #0
 446 0022 01D0     		beq	.L32
 447              		.loc 6 324 0 discriminator 3
 448 0024 0123     		movs	r3, #1
 449 0026 00E0     		b	.L33
 450              	.L32:
 451              		.loc 6 324 0 discriminator 4
 452 0028 0023     		movs	r3, #0
 453              	.L33:
 454              		.loc 6 324 0 discriminator 6
 455 002a 03F00103 		and	r3, r3, #1
 456 002e DBB2     		uxtb	r3, r3
ARM GAS  C:\Users\PCHAUT~1\AppData\Local\Temp\ccLTr2Pw.s 			page 9


 457              		.loc 6 325 0 is_stmt 1 discriminator 6
 458 0030 1846     		mov	r0, r3
 459 0032 054B     		ldr	r3, .L36
 460 0034 039A     		ldr	r2, [sp, #12]
 461 0036 1B68     		ldr	r3, [r3]
 462 0038 9A42     		cmp	r2, r3
 463 003a 01D0     		beq	.L35
 464              		.loc 6 325 0 is_stmt 0
 465 003c FFF7FEFF 		bl	__stack_chk_fail
 466              	.L35:
 467 0040 05B0     		add	sp, sp, #20
 468              		.cfi_def_cfa_offset 4
 469              		@ sp needed
 470 0042 5DF804FB 		ldr	pc, [sp], #4
 471              	.L37:
 472 0046 00BF     		.align	2
 473              	.L36:
 474 0048 00000000 		.word	__stack_chk_guard
 475              		.cfi_endproc
 476              	.LFE212:
 477              		.size	chIQIsFullI, .-chIQIsFullI
 478              		.section	.text.chOQIsEmptyI,"ax",%progbits
 479              		.align	1
 480              		.p2align 4,,15
 481              		.syntax unified
 482              		.thumb
 483              		.thumb_func
 484              		.fpu fpv4-sp-d16
 485              		.type	chOQIsEmptyI, %function
 486              	chOQIsEmptyI:
 487              	.LFB216:
 488              		.loc 6 386 0 is_stmt 1
 489              		.cfi_startproc
 490              		@ args = 0, pretend = 0, frame = 16
 491              		@ frame_needed = 0, uses_anonymous_args = 0
 492 0000 00B5     		push	{lr}
 493              		.cfi_def_cfa_offset 4
 494              		.cfi_offset 14, -4
 495 0002 85B0     		sub	sp, sp, #20
 496              		.cfi_def_cfa_offset 24
 497 0004 0190     		str	r0, [sp, #4]
 498              		.loc 6 386 0
 499 0006 104B     		ldr	r3, .L43
 500 0008 1B68     		ldr	r3, [r3]
 501 000a 0393     		str	r3, [sp, #12]
 502              		.loc 6 388 0
 503 000c FFF7FEFF 		bl	chDbgCheckClassI
 504              		.loc 6 390 0
 505 0010 019B     		ldr	r3, [sp, #4]
 506 0012 5A69     		ldr	r2, [r3, #20]
 507 0014 019B     		ldr	r3, [sp, #4]
 508 0016 9B69     		ldr	r3, [r3, #24]
 509 0018 9A42     		cmp	r2, r3
 510 001a 05D1     		bne	.L39
 511              		.loc 6 390 0 is_stmt 0 discriminator 1
 512 001c 019B     		ldr	r3, [sp, #4]
 513 001e 9B68     		ldr	r3, [r3, #8]
ARM GAS  C:\Users\PCHAUT~1\AppData\Local\Temp\ccLTr2Pw.s 			page 10


 514 0020 002B     		cmp	r3, #0
 515 0022 01D0     		beq	.L39
 516              		.loc 6 390 0 discriminator 3
 517 0024 0123     		movs	r3, #1
 518 0026 00E0     		b	.L40
 519              	.L39:
 520              		.loc 6 390 0 discriminator 4
 521 0028 0023     		movs	r3, #0
 522              	.L40:
 523              		.loc 6 390 0 discriminator 6
 524 002a 03F00103 		and	r3, r3, #1
 525 002e DBB2     		uxtb	r3, r3
 526              		.loc 6 391 0 is_stmt 1 discriminator 6
 527 0030 1846     		mov	r0, r3
 528 0032 054B     		ldr	r3, .L43
 529 0034 039A     		ldr	r2, [sp, #12]
 530 0036 1B68     		ldr	r3, [r3]
 531 0038 9A42     		cmp	r2, r3
 532 003a 01D0     		beq	.L42
 533              		.loc 6 391 0 is_stmt 0
 534 003c FFF7FEFF 		bl	__stack_chk_fail
 535              	.L42:
 536 0040 05B0     		add	sp, sp, #20
 537              		.cfi_def_cfa_offset 4
 538              		@ sp needed
 539 0042 5DF804FB 		ldr	pc, [sp], #4
 540              	.L44:
 541 0046 00BF     		.align	2
 542              	.L43:
 543 0048 00000000 		.word	__stack_chk_guard
 544              		.cfi_endproc
 545              	.LFE216:
 546              		.size	chOQIsEmptyI, .-chOQIsEmptyI
 547              		.section	.text.chOQIsFullI,"ax",%progbits
 548              		.align	1
 549              		.p2align 4,,15
 550              		.syntax unified
 551              		.thumb
 552              		.thumb_func
 553              		.fpu fpv4-sp-d16
 554              		.type	chOQIsFullI, %function
 555              	chOQIsFullI:
 556              	.LFB217:
 557              		.loc 6 403 0 is_stmt 1
 558              		.cfi_startproc
 559              		@ args = 0, pretend = 0, frame = 16
 560              		@ frame_needed = 0, uses_anonymous_args = 0
 561 0000 00B5     		push	{lr}
 562              		.cfi_def_cfa_offset 4
 563              		.cfi_offset 14, -4
 564 0002 85B0     		sub	sp, sp, #20
 565              		.cfi_def_cfa_offset 24
 566 0004 0190     		str	r0, [sp, #4]
 567              		.loc 6 403 0
 568 0006 0B4B     		ldr	r3, .L48
 569 0008 1B68     		ldr	r3, [r3]
 570 000a 0393     		str	r3, [sp, #12]
ARM GAS  C:\Users\PCHAUT~1\AppData\Local\Temp\ccLTr2Pw.s 			page 11


 571              		.loc 6 405 0
 572 000c FFF7FEFF 		bl	chDbgCheckClassI
 573              		.loc 6 407 0
 574 0010 019B     		ldr	r3, [sp, #4]
 575 0012 9B68     		ldr	r3, [r3, #8]
 576 0014 002B     		cmp	r3, #0
 577 0016 0CBF     		ite	eq
 578 0018 0123     		moveq	r3, #1
 579 001a 0023     		movne	r3, #0
 580 001c DBB2     		uxtb	r3, r3
 581              		.loc 6 408 0
 582 001e 1846     		mov	r0, r3
 583 0020 044B     		ldr	r3, .L48
 584 0022 039A     		ldr	r2, [sp, #12]
 585 0024 1B68     		ldr	r3, [r3]
 586 0026 9A42     		cmp	r2, r3
 587 0028 01D0     		beq	.L47
 588 002a FFF7FEFF 		bl	__stack_chk_fail
 589              	.L47:
 590 002e 05B0     		add	sp, sp, #20
 591              		.cfi_def_cfa_offset 4
 592              		@ sp needed
 593 0030 5DF804FB 		ldr	pc, [sp], #4
 594              	.L49:
 595              		.align	2
 596              	.L48:
 597 0034 00000000 		.word	__stack_chk_guard
 598              		.cfi_endproc
 599              	.LFE217:
 600              		.size	chOQIsFullI, .-chOQIsFullI
 601              		.section	.text.chIQObjectInit,"ax",%progbits
 602              		.align	1
 603              		.p2align 4,,15
 604              		.global	chIQObjectInit
 605              		.syntax unified
 606              		.thumb
 607              		.thumb_func
 608              		.fpu fpv4-sp-d16
 609              		.type	chIQObjectInit, %function
 610              	chIQObjectInit:
 611              	.LFB219:
 612              		.file 7 "../lib/e-puck2_main-processor/ChibiOS//os/rt/src/chqueues.c"
 613              		.loc 7 88 0
 614              		.cfi_startproc
 615              		@ args = 4, pretend = 0, frame = 32
 616              		@ frame_needed = 0, uses_anonymous_args = 0
 617 0000 00B5     		push	{lr}
 618              		.cfi_def_cfa_offset 4
 619              		.cfi_offset 14, -4
 620 0002 89B0     		sub	sp, sp, #36
 621              		.cfi_def_cfa_offset 40
 622 0004 0590     		str	r0, [sp, #20]
 623 0006 0491     		str	r1, [sp, #16]
 624 0008 0392     		str	r2, [sp, #12]
 625 000a 0293     		str	r3, [sp, #8]
 626 000c 0A9B     		ldr	r3, [sp, #40]
 627 000e 0193     		str	r3, [sp, #4]
ARM GAS  C:\Users\PCHAUT~1\AppData\Local\Temp\ccLTr2Pw.s 			page 12


 628              		.loc 7 88 0
 629 0010 144B     		ldr	r3, .L52
 630 0012 1B68     		ldr	r3, [r3]
 631 0014 0793     		str	r3, [sp, #28]
 632              		.loc 7 90 0
 633 0016 059B     		ldr	r3, [sp, #20]
 634 0018 1846     		mov	r0, r3
 635 001a FFF7FEFF 		bl	chThdQueueObjectInit
 636              		.loc 7 91 0
 637 001e 059B     		ldr	r3, [sp, #20]
 638 0020 0022     		movs	r2, #0
 639 0022 9A60     		str	r2, [r3, #8]
 640              		.loc 7 92 0
 641 0024 059B     		ldr	r3, [sp, #20]
 642 0026 049A     		ldr	r2, [sp, #16]
 643 0028 DA60     		str	r2, [r3, #12]
 644              		.loc 7 93 0
 645 002a 059B     		ldr	r3, [sp, #20]
 646 002c 049A     		ldr	r2, [sp, #16]
 647 002e 9A61     		str	r2, [r3, #24]
 648              		.loc 7 94 0
 649 0030 059B     		ldr	r3, [sp, #20]
 650 0032 049A     		ldr	r2, [sp, #16]
 651 0034 5A61     		str	r2, [r3, #20]
 652              		.loc 7 95 0
 653 0036 049A     		ldr	r2, [sp, #16]
 654 0038 039B     		ldr	r3, [sp, #12]
 655 003a 1A44     		add	r2, r2, r3
 656 003c 059B     		ldr	r3, [sp, #20]
 657 003e 1A61     		str	r2, [r3, #16]
 658              		.loc 7 96 0
 659 0040 059B     		ldr	r3, [sp, #20]
 660 0042 029A     		ldr	r2, [sp, #8]
 661 0044 DA61     		str	r2, [r3, #28]
 662              		.loc 7 97 0
 663 0046 059B     		ldr	r3, [sp, #20]
 664 0048 019A     		ldr	r2, [sp, #4]
 665 004a 1A62     		str	r2, [r3, #32]
 666              		.loc 7 98 0
 667 004c 00BF     		nop
 668 004e 054B     		ldr	r3, .L52
 669 0050 079A     		ldr	r2, [sp, #28]
 670 0052 1B68     		ldr	r3, [r3]
 671 0054 9A42     		cmp	r2, r3
 672 0056 01D0     		beq	.L51
 673 0058 FFF7FEFF 		bl	__stack_chk_fail
 674              	.L51:
 675 005c 09B0     		add	sp, sp, #36
 676              		.cfi_def_cfa_offset 4
 677              		@ sp needed
 678 005e 5DF804FB 		ldr	pc, [sp], #4
 679              	.L53:
 680 0062 00BF     		.align	2
 681              	.L52:
 682 0064 00000000 		.word	__stack_chk_guard
 683              		.cfi_endproc
 684              	.LFE219:
ARM GAS  C:\Users\PCHAUT~1\AppData\Local\Temp\ccLTr2Pw.s 			page 13


 685              		.size	chIQObjectInit, .-chIQObjectInit
 686              		.section	.text.chIQResetI,"ax",%progbits
 687              		.align	1
 688              		.p2align 4,,15
 689              		.global	chIQResetI
 690              		.syntax unified
 691              		.thumb
 692              		.thumb_func
 693              		.fpu fpv4-sp-d16
 694              		.type	chIQResetI, %function
 695              	chIQResetI:
 696              	.LFB220:
 697              		.loc 7 111 0
 698              		.cfi_startproc
 699              		@ args = 0, pretend = 0, frame = 16
 700              		@ frame_needed = 0, uses_anonymous_args = 0
 701 0000 00B5     		push	{lr}
 702              		.cfi_def_cfa_offset 4
 703              		.cfi_offset 14, -4
 704 0002 85B0     		sub	sp, sp, #20
 705              		.cfi_def_cfa_offset 24
 706 0004 0190     		str	r0, [sp, #4]
 707              		.loc 7 111 0
 708 0006 104B     		ldr	r3, .L56
 709 0008 1B68     		ldr	r3, [r3]
 710 000a 0393     		str	r3, [sp, #12]
 711              		.loc 7 113 0
 712 000c FFF7FEFF 		bl	chDbgCheckClassI
 713              		.loc 7 115 0
 714 0010 019B     		ldr	r3, [sp, #4]
 715 0012 DA68     		ldr	r2, [r3, #12]
 716 0014 019B     		ldr	r3, [sp, #4]
 717 0016 9A61     		str	r2, [r3, #24]
 718              		.loc 7 116 0
 719 0018 019B     		ldr	r3, [sp, #4]
 720 001a DA68     		ldr	r2, [r3, #12]
 721 001c 019B     		ldr	r3, [sp, #4]
 722 001e 5A61     		str	r2, [r3, #20]
 723              		.loc 7 117 0
 724 0020 019B     		ldr	r3, [sp, #4]
 725 0022 0022     		movs	r2, #0
 726 0024 9A60     		str	r2, [r3, #8]
 727              		.loc 7 118 0
 728 0026 019B     		ldr	r3, [sp, #4]
 729 0028 6FF00101 		mvn	r1, #1
 730 002c 1846     		mov	r0, r3
 731 002e FFF7FEFF 		bl	chThdDequeueAllI
 732              		.loc 7 119 0
 733 0032 00BF     		nop
 734 0034 044B     		ldr	r3, .L56
 735 0036 039A     		ldr	r2, [sp, #12]
 736 0038 1B68     		ldr	r3, [r3]
 737 003a 9A42     		cmp	r2, r3
 738 003c 01D0     		beq	.L55
 739 003e FFF7FEFF 		bl	__stack_chk_fail
 740              	.L55:
 741 0042 05B0     		add	sp, sp, #20
ARM GAS  C:\Users\PCHAUT~1\AppData\Local\Temp\ccLTr2Pw.s 			page 14


 742              		.cfi_def_cfa_offset 4
 743              		@ sp needed
 744 0044 5DF804FB 		ldr	pc, [sp], #4
 745              	.L57:
 746              		.align	2
 747              	.L56:
 748 0048 00000000 		.word	__stack_chk_guard
 749              		.cfi_endproc
 750              	.LFE220:
 751              		.size	chIQResetI, .-chIQResetI
 752              		.section	.text.chIQPutI,"ax",%progbits
 753              		.align	1
 754              		.p2align 4,,15
 755              		.global	chIQPutI
 756              		.syntax unified
 757              		.thumb
 758              		.thumb_func
 759              		.fpu fpv4-sp-d16
 760              		.type	chIQPutI, %function
 761              	chIQPutI:
 762              	.LFB221:
 763              		.loc 7 134 0
 764              		.cfi_startproc
 765              		@ args = 0, pretend = 0, frame = 16
 766              		@ frame_needed = 0, uses_anonymous_args = 0
 767 0000 00B5     		push	{lr}
 768              		.cfi_def_cfa_offset 4
 769              		.cfi_offset 14, -4
 770 0002 85B0     		sub	sp, sp, #20
 771              		.cfi_def_cfa_offset 24
 772 0004 0190     		str	r0, [sp, #4]
 773 0006 0B46     		mov	r3, r1
 774 0008 8DF80330 		strb	r3, [sp, #3]
 775              		.loc 7 134 0
 776 000c 1A4B     		ldr	r3, .L63
 777 000e 1B68     		ldr	r3, [r3]
 778 0010 0393     		str	r3, [sp, #12]
 779              		.loc 7 136 0
 780 0012 FFF7FEFF 		bl	chDbgCheckClassI
 781              		.loc 7 138 0
 782 0016 0198     		ldr	r0, [sp, #4]
 783 0018 FFF7FEFF 		bl	chIQIsFullI
 784 001c 0346     		mov	r3, r0
 785 001e 002B     		cmp	r3, #0
 786 0020 02D0     		beq	.L59
 787              		.loc 7 139 0
 788 0022 6FF00303 		mvn	r3, #3
 789 0026 1CE0     		b	.L60
 790              	.L59:
 791              		.loc 7 142 0
 792 0028 019B     		ldr	r3, [sp, #4]
 793 002a 9B68     		ldr	r3, [r3, #8]
 794 002c 5A1C     		adds	r2, r3, #1
 795 002e 019B     		ldr	r3, [sp, #4]
 796 0030 9A60     		str	r2, [r3, #8]
 797              		.loc 7 143 0
 798 0032 019B     		ldr	r3, [sp, #4]
ARM GAS  C:\Users\PCHAUT~1\AppData\Local\Temp\ccLTr2Pw.s 			page 15


 799 0034 5B69     		ldr	r3, [r3, #20]
 800 0036 591C     		adds	r1, r3, #1
 801 0038 019A     		ldr	r2, [sp, #4]
 802 003a 5161     		str	r1, [r2, #20]
 803 003c 9DF80320 		ldrb	r2, [sp, #3]
 804 0040 1A70     		strb	r2, [r3]
 805              		.loc 7 144 0
 806 0042 019B     		ldr	r3, [sp, #4]
 807 0044 5A69     		ldr	r2, [r3, #20]
 808 0046 019B     		ldr	r3, [sp, #4]
 809 0048 1B69     		ldr	r3, [r3, #16]
 810 004a 9A42     		cmp	r2, r3
 811 004c 03D3     		bcc	.L61
 812              		.loc 7 145 0
 813 004e 019B     		ldr	r3, [sp, #4]
 814 0050 DA68     		ldr	r2, [r3, #12]
 815 0052 019B     		ldr	r3, [sp, #4]
 816 0054 5A61     		str	r2, [r3, #20]
 817              	.L61:
 818              		.loc 7 148 0
 819 0056 019B     		ldr	r3, [sp, #4]
 820 0058 0021     		movs	r1, #0
 821 005a 1846     		mov	r0, r3
 822 005c FFF7FEFF 		bl	chThdDequeueNextI
 823              		.loc 7 150 0
 824 0060 0023     		movs	r3, #0
 825              	.L60:
 826              		.loc 7 151 0
 827 0062 1846     		mov	r0, r3
 828 0064 044B     		ldr	r3, .L63
 829 0066 039A     		ldr	r2, [sp, #12]
 830 0068 1B68     		ldr	r3, [r3]
 831 006a 9A42     		cmp	r2, r3
 832 006c 01D0     		beq	.L62
 833 006e FFF7FEFF 		bl	__stack_chk_fail
 834              	.L62:
 835 0072 05B0     		add	sp, sp, #20
 836              		.cfi_def_cfa_offset 4
 837              		@ sp needed
 838 0074 5DF804FB 		ldr	pc, [sp], #4
 839              	.L64:
 840              		.align	2
 841              	.L63:
 842 0078 00000000 		.word	__stack_chk_guard
 843              		.cfi_endproc
 844              	.LFE221:
 845              		.size	chIQPutI, .-chIQPutI
 846              		.section	.text.chIQGetTimeout,"ax",%progbits
 847              		.align	1
 848              		.p2align 4,,15
 849              		.global	chIQGetTimeout
 850              		.syntax unified
 851              		.thumb
 852              		.thumb_func
 853              		.fpu fpv4-sp-d16
 854              		.type	chIQGetTimeout, %function
 855              	chIQGetTimeout:
ARM GAS  C:\Users\PCHAUT~1\AppData\Local\Temp\ccLTr2Pw.s 			page 16


 856              	.LFB222:
 857              		.loc 7 173 0
 858              		.cfi_startproc
 859              		@ args = 0, pretend = 0, frame = 24
 860              		@ frame_needed = 0, uses_anonymous_args = 0
 861 0000 00B5     		push	{lr}
 862              		.cfi_def_cfa_offset 4
 863              		.cfi_offset 14, -4
 864 0002 87B0     		sub	sp, sp, #28
 865              		.cfi_def_cfa_offset 32
 866 0004 0190     		str	r0, [sp, #4]
 867 0006 0091     		str	r1, [sp]
 868              		.loc 7 173 0
 869 0008 234B     		ldr	r3, .L72
 870 000a 1B68     		ldr	r3, [r3]
 871 000c 0593     		str	r3, [sp, #20]
 872              		.loc 7 176 0
 873 000e FFF7FEFF 		bl	chSysLock
 874              		.loc 7 177 0
 875 0012 019B     		ldr	r3, [sp, #4]
 876 0014 DB69     		ldr	r3, [r3, #28]
 877 0016 002B     		cmp	r3, #0
 878 0018 11D0     		beq	.L67
 879              		.loc 7 178 0
 880 001a 019B     		ldr	r3, [sp, #4]
 881 001c DB69     		ldr	r3, [r3, #28]
 882 001e 0198     		ldr	r0, [sp, #4]
 883 0020 9847     		blx	r3
 884              	.LVL0:
 885              		.loc 7 181 0
 886 0022 0CE0     		b	.L67
 887              	.L69:
 888              	.LBB10:
 889              		.loc 7 182 0
 890 0024 019B     		ldr	r3, [sp, #4]
 891 0026 0099     		ldr	r1, [sp]
 892 0028 1846     		mov	r0, r3
 893 002a FFF7FEFF 		bl	chThdEnqueueTimeoutS
 894 002e 0490     		str	r0, [sp, #16]
 895              		.loc 7 183 0
 896 0030 049B     		ldr	r3, [sp, #16]
 897 0032 002B     		cmp	r3, #0
 898 0034 03DA     		bge	.L67
 899              		.loc 7 184 0
 900 0036 FFF7FEFF 		bl	chSysUnlock
 901              		.loc 7 185 0
 902 003a 049B     		ldr	r3, [sp, #16]
 903 003c 20E0     		b	.L68
 904              	.L67:
 905              	.LBE10:
 906              		.loc 7 181 0
 907 003e 0198     		ldr	r0, [sp, #4]
 908 0040 FFF7FEFF 		bl	chIQIsEmptyI
 909 0044 0346     		mov	r3, r0
 910 0046 002B     		cmp	r3, #0
 911 0048 ECD1     		bne	.L69
 912              		.loc 7 189 0
ARM GAS  C:\Users\PCHAUT~1\AppData\Local\Temp\ccLTr2Pw.s 			page 17


 913 004a 019B     		ldr	r3, [sp, #4]
 914 004c 9B68     		ldr	r3, [r3, #8]
 915 004e 5A1E     		subs	r2, r3, #1
 916 0050 019B     		ldr	r3, [sp, #4]
 917 0052 9A60     		str	r2, [r3, #8]
 918              		.loc 7 190 0
 919 0054 019B     		ldr	r3, [sp, #4]
 920 0056 9B69     		ldr	r3, [r3, #24]
 921 0058 591C     		adds	r1, r3, #1
 922 005a 019A     		ldr	r2, [sp, #4]
 923 005c 9161     		str	r1, [r2, #24]
 924 005e 1B78     		ldrb	r3, [r3]
 925 0060 8DF80F30 		strb	r3, [sp, #15]
 926              		.loc 7 191 0
 927 0064 019B     		ldr	r3, [sp, #4]
 928 0066 9A69     		ldr	r2, [r3, #24]
 929 0068 019B     		ldr	r3, [sp, #4]
 930 006a 1B69     		ldr	r3, [r3, #16]
 931 006c 9A42     		cmp	r2, r3
 932 006e 03D3     		bcc	.L70
 933              		.loc 7 192 0
 934 0070 019B     		ldr	r3, [sp, #4]
 935 0072 DA68     		ldr	r2, [r3, #12]
 936 0074 019B     		ldr	r3, [sp, #4]
 937 0076 9A61     		str	r2, [r3, #24]
 938              	.L70:
 939              		.loc 7 194 0
 940 0078 FFF7FEFF 		bl	chSysUnlock
 941              		.loc 7 196 0
 942 007c 9DF80F30 		ldrb	r3, [sp, #15]	@ zero_extendqisi2
 943              	.L68:
 944              		.loc 7 197 0
 945 0080 1846     		mov	r0, r3
 946 0082 054B     		ldr	r3, .L72
 947 0084 059A     		ldr	r2, [sp, #20]
 948 0086 1B68     		ldr	r3, [r3]
 949 0088 9A42     		cmp	r2, r3
 950 008a 01D0     		beq	.L71
 951 008c FFF7FEFF 		bl	__stack_chk_fail
 952              	.L71:
 953 0090 07B0     		add	sp, sp, #28
 954              		.cfi_def_cfa_offset 4
 955              		@ sp needed
 956 0092 5DF804FB 		ldr	pc, [sp], #4
 957              	.L73:
 958 0096 00BF     		.align	2
 959              	.L72:
 960 0098 00000000 		.word	__stack_chk_guard
 961              		.cfi_endproc
 962              	.LFE222:
 963              		.size	chIQGetTimeout, .-chIQGetTimeout
 964              		.section	.text.chIQReadTimeout,"ax",%progbits
 965              		.align	1
 966              		.p2align 4,,15
 967              		.global	chIQReadTimeout
 968              		.syntax unified
 969              		.thumb
ARM GAS  C:\Users\PCHAUT~1\AppData\Local\Temp\ccLTr2Pw.s 			page 18


 970              		.thumb_func
 971              		.fpu fpv4-sp-d16
 972              		.type	chIQReadTimeout, %function
 973              	chIQReadTimeout:
 974              	.LFB223:
 975              		.loc 7 224 0
 976              		.cfi_startproc
 977              		@ args = 0, pretend = 0, frame = 32
 978              		@ frame_needed = 0, uses_anonymous_args = 0
 979 0000 00B5     		push	{lr}
 980              		.cfi_def_cfa_offset 4
 981              		.cfi_offset 14, -4
 982 0002 89B0     		sub	sp, sp, #36
 983              		.cfi_def_cfa_offset 40
 984 0004 0390     		str	r0, [sp, #12]
 985 0006 0291     		str	r1, [sp, #8]
 986 0008 0192     		str	r2, [sp, #4]
 987 000a 0093     		str	r3, [sp]
 988              		.loc 7 224 0
 989 000c 2E4B     		ldr	r3, .L84
 990 000e 1B68     		ldr	r3, [r3]
 991 0010 0793     		str	r3, [sp, #28]
 992              		.loc 7 225 0
 993 0012 039B     		ldr	r3, [sp, #12]
 994 0014 DB69     		ldr	r3, [r3, #28]
 995 0016 0693     		str	r3, [sp, #24]
 996              		.loc 7 226 0
 997 0018 0023     		movs	r3, #0
 998 001a 0593     		str	r3, [sp, #20]
 999              		.loc 7 228 0
 1000 001c 019B     		ldr	r3, [sp, #4]
 1001 001e 002B     		cmp	r3, #0
 1002 0020 02D1     		bne	.L75
 1003              		.loc 7 228 0 is_stmt 0 discriminator 2
 1004 0022 2A48     		ldr	r0, .L84+4
 1005 0024 FFF7FEFF 		bl	chSysHalt
 1006              	.L75:
 1007              		.loc 7 230 0 is_stmt 1
 1008 0028 FFF7FEFF 		bl	chSysLock
 1009              	.L82:
 1010              		.loc 7 232 0
 1011 002c 069B     		ldr	r3, [sp, #24]
 1012 002e 002B     		cmp	r3, #0
 1013 0030 0FD0     		beq	.L77
 1014              		.loc 7 233 0
 1015 0032 069B     		ldr	r3, [sp, #24]
 1016 0034 0398     		ldr	r0, [sp, #12]
 1017 0036 9847     		blx	r3
 1018              	.LVL1:
 1019              		.loc 7 236 0
 1020 0038 0BE0     		b	.L77
 1021              	.L79:
 1022              		.loc 7 237 0
 1023 003a 039B     		ldr	r3, [sp, #12]
 1024 003c 0099     		ldr	r1, [sp]
 1025 003e 1846     		mov	r0, r3
 1026 0040 FFF7FEFF 		bl	chThdEnqueueTimeoutS
ARM GAS  C:\Users\PCHAUT~1\AppData\Local\Temp\ccLTr2Pw.s 			page 19


 1027 0044 0346     		mov	r3, r0
 1028 0046 002B     		cmp	r3, #0
 1029 0048 03D0     		beq	.L77
 1030              		.loc 7 238 0
 1031 004a FFF7FEFF 		bl	chSysUnlock
 1032              		.loc 7 239 0
 1033 004e 059B     		ldr	r3, [sp, #20]
 1034 0050 2EE0     		b	.L78
 1035              	.L77:
 1036              		.loc 7 236 0
 1037 0052 0398     		ldr	r0, [sp, #12]
 1038 0054 FFF7FEFF 		bl	chIQIsEmptyI
 1039 0058 0346     		mov	r3, r0
 1040 005a 002B     		cmp	r3, #0
 1041 005c EDD1     		bne	.L79
 1042              		.loc 7 243 0
 1043 005e 039B     		ldr	r3, [sp, #12]
 1044 0060 9B68     		ldr	r3, [r3, #8]
 1045 0062 5A1E     		subs	r2, r3, #1
 1046 0064 039B     		ldr	r3, [sp, #12]
 1047 0066 9A60     		str	r2, [r3, #8]
 1048              		.loc 7 244 0
 1049 0068 039B     		ldr	r3, [sp, #12]
 1050 006a 9A69     		ldr	r2, [r3, #24]
 1051 006c 511C     		adds	r1, r2, #1
 1052 006e 039B     		ldr	r3, [sp, #12]
 1053 0070 9961     		str	r1, [r3, #24]
 1054 0072 029B     		ldr	r3, [sp, #8]
 1055 0074 591C     		adds	r1, r3, #1
 1056 0076 0291     		str	r1, [sp, #8]
 1057 0078 1278     		ldrb	r2, [r2]	@ zero_extendqisi2
 1058 007a 1A70     		strb	r2, [r3]
 1059              		.loc 7 245 0
 1060 007c 039B     		ldr	r3, [sp, #12]
 1061 007e 9A69     		ldr	r2, [r3, #24]
 1062 0080 039B     		ldr	r3, [sp, #12]
 1063 0082 1B69     		ldr	r3, [r3, #16]
 1064 0084 9A42     		cmp	r2, r3
 1065 0086 03D3     		bcc	.L80
 1066              		.loc 7 246 0
 1067 0088 039B     		ldr	r3, [sp, #12]
 1068 008a DA68     		ldr	r2, [r3, #12]
 1069 008c 039B     		ldr	r3, [sp, #12]
 1070 008e 9A61     		str	r2, [r3, #24]
 1071              	.L80:
 1072              		.loc 7 248 0
 1073 0090 FFF7FEFF 		bl	chSysUnlock
 1074              		.loc 7 250 0
 1075 0094 059B     		ldr	r3, [sp, #20]
 1076 0096 0133     		adds	r3, r3, #1
 1077 0098 0593     		str	r3, [sp, #20]
 1078              		.loc 7 251 0
 1079 009a 019B     		ldr	r3, [sp, #4]
 1080 009c 013B     		subs	r3, r3, #1
 1081 009e 0193     		str	r3, [sp, #4]
 1082 00a0 019B     		ldr	r3, [sp, #4]
 1083 00a2 002B     		cmp	r3, #0
ARM GAS  C:\Users\PCHAUT~1\AppData\Local\Temp\ccLTr2Pw.s 			page 20


 1084 00a4 01D1     		bne	.L81
 1085              		.loc 7 252 0
 1086 00a6 059B     		ldr	r3, [sp, #20]
 1087 00a8 02E0     		b	.L78
 1088              	.L81:
 1089              		.loc 7 255 0
 1090 00aa FFF7FEFF 		bl	chSysLock
 1091              		.loc 7 232 0
 1092 00ae BDE7     		b	.L82
 1093              	.L78:
 1094              		.loc 7 257 0
 1095 00b0 1846     		mov	r0, r3
 1096 00b2 054B     		ldr	r3, .L84
 1097 00b4 079A     		ldr	r2, [sp, #28]
 1098 00b6 1B68     		ldr	r3, [r3]
 1099 00b8 9A42     		cmp	r2, r3
 1100 00ba 01D0     		beq	.L83
 1101 00bc FFF7FEFF 		bl	__stack_chk_fail
 1102              	.L83:
 1103 00c0 09B0     		add	sp, sp, #36
 1104              		.cfi_def_cfa_offset 4
 1105              		@ sp needed
 1106 00c2 5DF804FB 		ldr	pc, [sp], #4
 1107              	.L85:
 1108 00c6 00BF     		.align	2
 1109              	.L84:
 1110 00c8 00000000 		.word	__stack_chk_guard
 1111 00cc 00000000 		.word	__func__.7877
 1112              		.cfi_endproc
 1113              	.LFE223:
 1114              		.size	chIQReadTimeout, .-chIQReadTimeout
 1115              		.section	.text.chOQObjectInit,"ax",%progbits
 1116              		.align	1
 1117              		.p2align 4,,15
 1118              		.global	chOQObjectInit
 1119              		.syntax unified
 1120              		.thumb
 1121              		.thumb_func
 1122              		.fpu fpv4-sp-d16
 1123              		.type	chOQObjectInit, %function
 1124              	chOQObjectInit:
 1125              	.LFB224:
 1126              		.loc 7 276 0
 1127              		.cfi_startproc
 1128              		@ args = 4, pretend = 0, frame = 32
 1129              		@ frame_needed = 0, uses_anonymous_args = 0
 1130 0000 00B5     		push	{lr}
 1131              		.cfi_def_cfa_offset 4
 1132              		.cfi_offset 14, -4
 1133 0002 89B0     		sub	sp, sp, #36
 1134              		.cfi_def_cfa_offset 40
 1135 0004 0590     		str	r0, [sp, #20]
 1136 0006 0491     		str	r1, [sp, #16]
 1137 0008 0392     		str	r2, [sp, #12]
 1138 000a 0293     		str	r3, [sp, #8]
 1139 000c 0A9B     		ldr	r3, [sp, #40]
 1140 000e 0193     		str	r3, [sp, #4]
ARM GAS  C:\Users\PCHAUT~1\AppData\Local\Temp\ccLTr2Pw.s 			page 21


 1141              		.loc 7 276 0
 1142 0010 144B     		ldr	r3, .L88
 1143 0012 1B68     		ldr	r3, [r3]
 1144 0014 0793     		str	r3, [sp, #28]
 1145              		.loc 7 278 0
 1146 0016 059B     		ldr	r3, [sp, #20]
 1147 0018 1846     		mov	r0, r3
 1148 001a FFF7FEFF 		bl	chThdQueueObjectInit
 1149              		.loc 7 279 0
 1150 001e 059B     		ldr	r3, [sp, #20]
 1151 0020 039A     		ldr	r2, [sp, #12]
 1152 0022 9A60     		str	r2, [r3, #8]
 1153              		.loc 7 280 0
 1154 0024 059B     		ldr	r3, [sp, #20]
 1155 0026 049A     		ldr	r2, [sp, #16]
 1156 0028 DA60     		str	r2, [r3, #12]
 1157              		.loc 7 281 0
 1158 002a 059B     		ldr	r3, [sp, #20]
 1159 002c 049A     		ldr	r2, [sp, #16]
 1160 002e 9A61     		str	r2, [r3, #24]
 1161              		.loc 7 282 0
 1162 0030 059B     		ldr	r3, [sp, #20]
 1163 0032 049A     		ldr	r2, [sp, #16]
 1164 0034 5A61     		str	r2, [r3, #20]
 1165              		.loc 7 283 0
 1166 0036 049A     		ldr	r2, [sp, #16]
 1167 0038 039B     		ldr	r3, [sp, #12]
 1168 003a 1A44     		add	r2, r2, r3
 1169 003c 059B     		ldr	r3, [sp, #20]
 1170 003e 1A61     		str	r2, [r3, #16]
 1171              		.loc 7 284 0
 1172 0040 059B     		ldr	r3, [sp, #20]
 1173 0042 029A     		ldr	r2, [sp, #8]
 1174 0044 DA61     		str	r2, [r3, #28]
 1175              		.loc 7 285 0
 1176 0046 059B     		ldr	r3, [sp, #20]
 1177 0048 019A     		ldr	r2, [sp, #4]
 1178 004a 1A62     		str	r2, [r3, #32]
 1179              		.loc 7 286 0
 1180 004c 00BF     		nop
 1181 004e 054B     		ldr	r3, .L88
 1182 0050 079A     		ldr	r2, [sp, #28]
 1183 0052 1B68     		ldr	r3, [r3]
 1184 0054 9A42     		cmp	r2, r3
 1185 0056 01D0     		beq	.L87
 1186 0058 FFF7FEFF 		bl	__stack_chk_fail
 1187              	.L87:
 1188 005c 09B0     		add	sp, sp, #36
 1189              		.cfi_def_cfa_offset 4
 1190              		@ sp needed
 1191 005e 5DF804FB 		ldr	pc, [sp], #4
 1192              	.L89:
 1193 0062 00BF     		.align	2
 1194              	.L88:
 1195 0064 00000000 		.word	__stack_chk_guard
 1196              		.cfi_endproc
 1197              	.LFE224:
ARM GAS  C:\Users\PCHAUT~1\AppData\Local\Temp\ccLTr2Pw.s 			page 22


 1198              		.size	chOQObjectInit, .-chOQObjectInit
 1199              		.section	.text.chOQResetI,"ax",%progbits
 1200              		.align	1
 1201              		.p2align 4,,15
 1202              		.global	chOQResetI
 1203              		.syntax unified
 1204              		.thumb
 1205              		.thumb_func
 1206              		.fpu fpv4-sp-d16
 1207              		.type	chOQResetI, %function
 1208              	chOQResetI:
 1209              	.LFB225:
 1210              		.loc 7 299 0
 1211              		.cfi_startproc
 1212              		@ args = 0, pretend = 0, frame = 16
 1213              		@ frame_needed = 0, uses_anonymous_args = 0
 1214 0000 00B5     		push	{lr}
 1215              		.cfi_def_cfa_offset 4
 1216              		.cfi_offset 14, -4
 1217 0002 85B0     		sub	sp, sp, #20
 1218              		.cfi_def_cfa_offset 24
 1219 0004 0190     		str	r0, [sp, #4]
 1220              		.loc 7 299 0
 1221 0006 134B     		ldr	r3, .L92
 1222 0008 1B68     		ldr	r3, [r3]
 1223 000a 0393     		str	r3, [sp, #12]
 1224              		.loc 7 301 0
 1225 000c FFF7FEFF 		bl	chDbgCheckClassI
 1226              		.loc 7 303 0
 1227 0010 019B     		ldr	r3, [sp, #4]
 1228 0012 DA68     		ldr	r2, [r3, #12]
 1229 0014 019B     		ldr	r3, [sp, #4]
 1230 0016 9A61     		str	r2, [r3, #24]
 1231              		.loc 7 304 0
 1232 0018 019B     		ldr	r3, [sp, #4]
 1233 001a DA68     		ldr	r2, [r3, #12]
 1234 001c 019B     		ldr	r3, [sp, #4]
 1235 001e 5A61     		str	r2, [r3, #20]
 1236              		.loc 7 305 0
 1237 0020 019B     		ldr	r3, [sp, #4]
 1238 0022 1B69     		ldr	r3, [r3, #16]
 1239 0024 1A46     		mov	r2, r3
 1240 0026 019B     		ldr	r3, [sp, #4]
 1241 0028 DB68     		ldr	r3, [r3, #12]
 1242 002a D31A     		subs	r3, r2, r3
 1243 002c 1A46     		mov	r2, r3
 1244 002e 019B     		ldr	r3, [sp, #4]
 1245 0030 9A60     		str	r2, [r3, #8]
 1246              		.loc 7 306 0
 1247 0032 019B     		ldr	r3, [sp, #4]
 1248 0034 6FF00101 		mvn	r1, #1
 1249 0038 1846     		mov	r0, r3
 1250 003a FFF7FEFF 		bl	chThdDequeueAllI
 1251              		.loc 7 307 0
 1252 003e 00BF     		nop
 1253 0040 044B     		ldr	r3, .L92
 1254 0042 039A     		ldr	r2, [sp, #12]
ARM GAS  C:\Users\PCHAUT~1\AppData\Local\Temp\ccLTr2Pw.s 			page 23


 1255 0044 1B68     		ldr	r3, [r3]
 1256 0046 9A42     		cmp	r2, r3
 1257 0048 01D0     		beq	.L91
 1258 004a FFF7FEFF 		bl	__stack_chk_fail
 1259              	.L91:
 1260 004e 05B0     		add	sp, sp, #20
 1261              		.cfi_def_cfa_offset 4
 1262              		@ sp needed
 1263 0050 5DF804FB 		ldr	pc, [sp], #4
 1264              	.L93:
 1265              		.align	2
 1266              	.L92:
 1267 0054 00000000 		.word	__stack_chk_guard
 1268              		.cfi_endproc
 1269              	.LFE225:
 1270              		.size	chOQResetI, .-chOQResetI
 1271              		.section	.text.chOQPutTimeout,"ax",%progbits
 1272              		.align	1
 1273              		.p2align 4,,15
 1274              		.global	chOQPutTimeout
 1275              		.syntax unified
 1276              		.thumb
 1277              		.thumb_func
 1278              		.fpu fpv4-sp-d16
 1279              		.type	chOQPutTimeout, %function
 1280              	chOQPutTimeout:
 1281              	.LFB226:
 1282              		.loc 7 331 0
 1283              		.cfi_startproc
 1284              		@ args = 0, pretend = 0, frame = 24
 1285              		@ frame_needed = 0, uses_anonymous_args = 0
 1286 0000 00B5     		push	{lr}
 1287              		.cfi_def_cfa_offset 4
 1288              		.cfi_offset 14, -4
 1289 0002 87B0     		sub	sp, sp, #28
 1290              		.cfi_def_cfa_offset 32
 1291 0004 0390     		str	r0, [sp, #12]
 1292 0006 0B46     		mov	r3, r1
 1293 0008 0192     		str	r2, [sp, #4]
 1294 000a 8DF80B30 		strb	r3, [sp, #11]
 1295              		.loc 7 331 0
 1296 000e 234B     		ldr	r3, .L101
 1297 0010 1B68     		ldr	r3, [r3]
 1298 0012 0593     		str	r3, [sp, #20]
 1299              		.loc 7 333 0
 1300 0014 FFF7FEFF 		bl	chSysLock
 1301              		.loc 7 334 0
 1302 0018 0CE0     		b	.L95
 1303              	.L97:
 1304              	.LBB11:
 1305              		.loc 7 335 0
 1306 001a 039B     		ldr	r3, [sp, #12]
 1307 001c 0199     		ldr	r1, [sp, #4]
 1308 001e 1846     		mov	r0, r3
 1309 0020 FFF7FEFF 		bl	chThdEnqueueTimeoutS
 1310 0024 0490     		str	r0, [sp, #16]
 1311              		.loc 7 336 0
ARM GAS  C:\Users\PCHAUT~1\AppData\Local\Temp\ccLTr2Pw.s 			page 24


 1312 0026 049B     		ldr	r3, [sp, #16]
 1313 0028 002B     		cmp	r3, #0
 1314 002a 03DA     		bge	.L95
 1315              		.loc 7 337 0
 1316 002c FFF7FEFF 		bl	chSysUnlock
 1317              		.loc 7 338 0
 1318 0030 049B     		ldr	r3, [sp, #16]
 1319 0032 27E0     		b	.L96
 1320              	.L95:
 1321              	.LBE11:
 1322              		.loc 7 334 0
 1323 0034 0398     		ldr	r0, [sp, #12]
 1324 0036 FFF7FEFF 		bl	chOQIsFullI
 1325 003a 0346     		mov	r3, r0
 1326 003c 002B     		cmp	r3, #0
 1327 003e ECD1     		bne	.L97
 1328              		.loc 7 342 0
 1329 0040 039B     		ldr	r3, [sp, #12]
 1330 0042 9B68     		ldr	r3, [r3, #8]
 1331 0044 5A1E     		subs	r2, r3, #1
 1332 0046 039B     		ldr	r3, [sp, #12]
 1333 0048 9A60     		str	r2, [r3, #8]
 1334              		.loc 7 343 0
 1335 004a 039B     		ldr	r3, [sp, #12]
 1336 004c 5B69     		ldr	r3, [r3, #20]
 1337 004e 591C     		adds	r1, r3, #1
 1338 0050 039A     		ldr	r2, [sp, #12]
 1339 0052 5161     		str	r1, [r2, #20]
 1340 0054 9DF80B20 		ldrb	r2, [sp, #11]
 1341 0058 1A70     		strb	r2, [r3]
 1342              		.loc 7 344 0
 1343 005a 039B     		ldr	r3, [sp, #12]
 1344 005c 5A69     		ldr	r2, [r3, #20]
 1345 005e 039B     		ldr	r3, [sp, #12]
 1346 0060 1B69     		ldr	r3, [r3, #16]
 1347 0062 9A42     		cmp	r2, r3
 1348 0064 03D3     		bcc	.L98
 1349              		.loc 7 345 0
 1350 0066 039B     		ldr	r3, [sp, #12]
 1351 0068 DA68     		ldr	r2, [r3, #12]
 1352 006a 039B     		ldr	r3, [sp, #12]
 1353 006c 5A61     		str	r2, [r3, #20]
 1354              	.L98:
 1355              		.loc 7 348 0
 1356 006e 039B     		ldr	r3, [sp, #12]
 1357 0070 DB69     		ldr	r3, [r3, #28]
 1358 0072 002B     		cmp	r3, #0
 1359 0074 03D0     		beq	.L99
 1360              		.loc 7 349 0
 1361 0076 039B     		ldr	r3, [sp, #12]
 1362 0078 DB69     		ldr	r3, [r3, #28]
 1363 007a 0398     		ldr	r0, [sp, #12]
 1364 007c 9847     		blx	r3
 1365              	.LVL2:
 1366              	.L99:
 1367              		.loc 7 351 0
 1368 007e FFF7FEFF 		bl	chSysUnlock
ARM GAS  C:\Users\PCHAUT~1\AppData\Local\Temp\ccLTr2Pw.s 			page 25


 1369              		.loc 7 353 0
 1370 0082 0023     		movs	r3, #0
 1371              	.L96:
 1372              		.loc 7 354 0
 1373 0084 1846     		mov	r0, r3
 1374 0086 054B     		ldr	r3, .L101
 1375 0088 059A     		ldr	r2, [sp, #20]
 1376 008a 1B68     		ldr	r3, [r3]
 1377 008c 9A42     		cmp	r2, r3
 1378 008e 01D0     		beq	.L100
 1379 0090 FFF7FEFF 		bl	__stack_chk_fail
 1380              	.L100:
 1381 0094 07B0     		add	sp, sp, #28
 1382              		.cfi_def_cfa_offset 4
 1383              		@ sp needed
 1384 0096 5DF804FB 		ldr	pc, [sp], #4
 1385              	.L102:
 1386 009a 00BF     		.align	2
 1387              	.L101:
 1388 009c 00000000 		.word	__stack_chk_guard
 1389              		.cfi_endproc
 1390              	.LFE226:
 1391              		.size	chOQPutTimeout, .-chOQPutTimeout
 1392              		.section	.text.chOQGetI,"ax",%progbits
 1393              		.align	1
 1394              		.p2align 4,,15
 1395              		.global	chOQGetI
 1396              		.syntax unified
 1397              		.thumb
 1398              		.thumb_func
 1399              		.fpu fpv4-sp-d16
 1400              		.type	chOQGetI, %function
 1401              	chOQGetI:
 1402              	.LFB227:
 1403              		.loc 7 366 0
 1404              		.cfi_startproc
 1405              		@ args = 0, pretend = 0, frame = 16
 1406              		@ frame_needed = 0, uses_anonymous_args = 0
 1407 0000 00B5     		push	{lr}
 1408              		.cfi_def_cfa_offset 4
 1409              		.cfi_offset 14, -4
 1410 0002 85B0     		sub	sp, sp, #20
 1411              		.cfi_def_cfa_offset 24
 1412 0004 0190     		str	r0, [sp, #4]
 1413              		.loc 7 366 0
 1414 0006 1B4B     		ldr	r3, .L108
 1415 0008 1B68     		ldr	r3, [r3]
 1416 000a 0393     		str	r3, [sp, #12]
 1417              		.loc 7 369 0
 1418 000c FFF7FEFF 		bl	chDbgCheckClassI
 1419              		.loc 7 371 0
 1420 0010 0198     		ldr	r0, [sp, #4]
 1421 0012 FFF7FEFF 		bl	chOQIsEmptyI
 1422 0016 0346     		mov	r3, r0
 1423 0018 002B     		cmp	r3, #0
 1424 001a 02D0     		beq	.L104
 1425              		.loc 7 372 0
ARM GAS  C:\Users\PCHAUT~1\AppData\Local\Temp\ccLTr2Pw.s 			page 26


 1426 001c 6FF00203 		mvn	r3, #2
 1427 0020 1DE0     		b	.L105
 1428              	.L104:
 1429              		.loc 7 375 0
 1430 0022 019B     		ldr	r3, [sp, #4]
 1431 0024 9B68     		ldr	r3, [r3, #8]
 1432 0026 5A1C     		adds	r2, r3, #1
 1433 0028 019B     		ldr	r3, [sp, #4]
 1434 002a 9A60     		str	r2, [r3, #8]
 1435              		.loc 7 376 0
 1436 002c 019B     		ldr	r3, [sp, #4]
 1437 002e 9B69     		ldr	r3, [r3, #24]
 1438 0030 591C     		adds	r1, r3, #1
 1439 0032 019A     		ldr	r2, [sp, #4]
 1440 0034 9161     		str	r1, [r2, #24]
 1441 0036 1B78     		ldrb	r3, [r3]
 1442 0038 8DF80B30 		strb	r3, [sp, #11]
 1443              		.loc 7 377 0
 1444 003c 019B     		ldr	r3, [sp, #4]
 1445 003e 9A69     		ldr	r2, [r3, #24]
 1446 0040 019B     		ldr	r3, [sp, #4]
 1447 0042 1B69     		ldr	r3, [r3, #16]
 1448 0044 9A42     		cmp	r2, r3
 1449 0046 03D3     		bcc	.L106
 1450              		.loc 7 378 0
 1451 0048 019B     		ldr	r3, [sp, #4]
 1452 004a DA68     		ldr	r2, [r3, #12]
 1453 004c 019B     		ldr	r3, [sp, #4]
 1454 004e 9A61     		str	r2, [r3, #24]
 1455              	.L106:
 1456              		.loc 7 381 0
 1457 0050 019B     		ldr	r3, [sp, #4]
 1458 0052 0021     		movs	r1, #0
 1459 0054 1846     		mov	r0, r3
 1460 0056 FFF7FEFF 		bl	chThdDequeueNextI
 1461              		.loc 7 383 0
 1462 005a 9DF80B30 		ldrb	r3, [sp, #11]	@ zero_extendqisi2
 1463              	.L105:
 1464              		.loc 7 384 0
 1465 005e 1846     		mov	r0, r3
 1466 0060 044B     		ldr	r3, .L108
 1467 0062 039A     		ldr	r2, [sp, #12]
 1468 0064 1B68     		ldr	r3, [r3]
 1469 0066 9A42     		cmp	r2, r3
 1470 0068 01D0     		beq	.L107
 1471 006a FFF7FEFF 		bl	__stack_chk_fail
 1472              	.L107:
 1473 006e 05B0     		add	sp, sp, #20
 1474              		.cfi_def_cfa_offset 4
 1475              		@ sp needed
 1476 0070 5DF804FB 		ldr	pc, [sp], #4
 1477              	.L109:
 1478              		.align	2
 1479              	.L108:
 1480 0074 00000000 		.word	__stack_chk_guard
 1481              		.cfi_endproc
 1482              	.LFE227:
ARM GAS  C:\Users\PCHAUT~1\AppData\Local\Temp\ccLTr2Pw.s 			page 27


 1483              		.size	chOQGetI, .-chOQGetI
 1484              		.section	.text.chOQWriteTimeout,"ax",%progbits
 1485              		.align	1
 1486              		.p2align 4,,15
 1487              		.global	chOQWriteTimeout
 1488              		.syntax unified
 1489              		.thumb
 1490              		.thumb_func
 1491              		.fpu fpv4-sp-d16
 1492              		.type	chOQWriteTimeout, %function
 1493              	chOQWriteTimeout:
 1494              	.LFB228:
 1495              		.loc 7 411 0
 1496              		.cfi_startproc
 1497              		@ args = 0, pretend = 0, frame = 32
 1498              		@ frame_needed = 0, uses_anonymous_args = 0
 1499 0000 00B5     		push	{lr}
 1500              		.cfi_def_cfa_offset 4
 1501              		.cfi_offset 14, -4
 1502 0002 89B0     		sub	sp, sp, #36
 1503              		.cfi_def_cfa_offset 40
 1504 0004 0390     		str	r0, [sp, #12]
 1505 0006 0291     		str	r1, [sp, #8]
 1506 0008 0192     		str	r2, [sp, #4]
 1507 000a 0093     		str	r3, [sp]
 1508              		.loc 7 411 0
 1509 000c 2E4B     		ldr	r3, .L120
 1510 000e 1B68     		ldr	r3, [r3]
 1511 0010 0793     		str	r3, [sp, #28]
 1512              		.loc 7 412 0
 1513 0012 039B     		ldr	r3, [sp, #12]
 1514 0014 DB69     		ldr	r3, [r3, #28]
 1515 0016 0693     		str	r3, [sp, #24]
 1516              		.loc 7 413 0
 1517 0018 0023     		movs	r3, #0
 1518 001a 0593     		str	r3, [sp, #20]
 1519              		.loc 7 415 0
 1520 001c 019B     		ldr	r3, [sp, #4]
 1521 001e 002B     		cmp	r3, #0
 1522 0020 02D1     		bne	.L111
 1523              		.loc 7 415 0 is_stmt 0 discriminator 2
 1524 0022 2A48     		ldr	r0, .L120+4
 1525 0024 FFF7FEFF 		bl	chSysHalt
 1526              	.L111:
 1527              		.loc 7 417 0 is_stmt 1
 1528 0028 FFF7FEFF 		bl	chSysLock
 1529              		.loc 7 419 0
 1530 002c 0BE0     		b	.L112
 1531              	.L114:
 1532              		.loc 7 420 0
 1533 002e 039B     		ldr	r3, [sp, #12]
 1534 0030 0099     		ldr	r1, [sp]
 1535 0032 1846     		mov	r0, r3
 1536 0034 FFF7FEFF 		bl	chThdEnqueueTimeoutS
 1537 0038 0346     		mov	r3, r0
 1538 003a 002B     		cmp	r3, #0
 1539 003c 03D0     		beq	.L112
ARM GAS  C:\Users\PCHAUT~1\AppData\Local\Temp\ccLTr2Pw.s 			page 28


 1540              		.loc 7 421 0
 1541 003e FFF7FEFF 		bl	chSysUnlock
 1542              		.loc 7 422 0
 1543 0042 059B     		ldr	r3, [sp, #20]
 1544 0044 34E0     		b	.L113
 1545              	.L112:
 1546              		.loc 7 419 0
 1547 0046 0398     		ldr	r0, [sp, #12]
 1548 0048 FFF7FEFF 		bl	chOQIsFullI
 1549 004c 0346     		mov	r3, r0
 1550 004e 002B     		cmp	r3, #0
 1551 0050 EDD1     		bne	.L114
 1552              		.loc 7 426 0
 1553 0052 039B     		ldr	r3, [sp, #12]
 1554 0054 9B68     		ldr	r3, [r3, #8]
 1555 0056 5A1E     		subs	r2, r3, #1
 1556 0058 039B     		ldr	r3, [sp, #12]
 1557 005a 9A60     		str	r2, [r3, #8]
 1558              		.loc 7 427 0
 1559 005c 029A     		ldr	r2, [sp, #8]
 1560 005e 531C     		adds	r3, r2, #1
 1561 0060 0293     		str	r3, [sp, #8]
 1562 0062 039B     		ldr	r3, [sp, #12]
 1563 0064 5B69     		ldr	r3, [r3, #20]
 1564 0066 581C     		adds	r0, r3, #1
 1565 0068 0399     		ldr	r1, [sp, #12]
 1566 006a 4861     		str	r0, [r1, #20]
 1567 006c 1278     		ldrb	r2, [r2]	@ zero_extendqisi2
 1568 006e 1A70     		strb	r2, [r3]
 1569              		.loc 7 428 0
 1570 0070 039B     		ldr	r3, [sp, #12]
 1571 0072 5A69     		ldr	r2, [r3, #20]
 1572 0074 039B     		ldr	r3, [sp, #12]
 1573 0076 1B69     		ldr	r3, [r3, #16]
 1574 0078 9A42     		cmp	r2, r3
 1575 007a 03D3     		bcc	.L115
 1576              		.loc 7 429 0
 1577 007c 039B     		ldr	r3, [sp, #12]
 1578 007e DA68     		ldr	r2, [r3, #12]
 1579 0080 039B     		ldr	r3, [sp, #12]
 1580 0082 5A61     		str	r2, [r3, #20]
 1581              	.L115:
 1582              		.loc 7 432 0
 1583 0084 069B     		ldr	r3, [sp, #24]
 1584 0086 002B     		cmp	r3, #0
 1585 0088 02D0     		beq	.L116
 1586              		.loc 7 433 0
 1587 008a 069B     		ldr	r3, [sp, #24]
 1588 008c 0398     		ldr	r0, [sp, #12]
 1589 008e 9847     		blx	r3
 1590              	.LVL3:
 1591              	.L116:
 1592              		.loc 7 435 0
 1593 0090 FFF7FEFF 		bl	chSysUnlock
 1594              		.loc 7 437 0
 1595 0094 059B     		ldr	r3, [sp, #20]
 1596 0096 0133     		adds	r3, r3, #1
ARM GAS  C:\Users\PCHAUT~1\AppData\Local\Temp\ccLTr2Pw.s 			page 29


 1597 0098 0593     		str	r3, [sp, #20]
 1598              		.loc 7 438 0
 1599 009a 019B     		ldr	r3, [sp, #4]
 1600 009c 013B     		subs	r3, r3, #1
 1601 009e 0193     		str	r3, [sp, #4]
 1602 00a0 019B     		ldr	r3, [sp, #4]
 1603 00a2 002B     		cmp	r3, #0
 1604 00a4 01D1     		bne	.L117
 1605              		.loc 7 439 0
 1606 00a6 059B     		ldr	r3, [sp, #20]
 1607 00a8 02E0     		b	.L113
 1608              	.L117:
 1609              		.loc 7 441 0
 1610 00aa FFF7FEFF 		bl	chSysLock
 1611              		.loc 7 419 0
 1612 00ae CAE7     		b	.L112
 1613              	.L113:
 1614              		.loc 7 443 0
 1615 00b0 1846     		mov	r0, r3
 1616 00b2 054B     		ldr	r3, .L120
 1617 00b4 079A     		ldr	r2, [sp, #28]
 1618 00b6 1B68     		ldr	r3, [r3]
 1619 00b8 9A42     		cmp	r2, r3
 1620 00ba 01D0     		beq	.L119
 1621 00bc FFF7FEFF 		bl	__stack_chk_fail
 1622              	.L119:
 1623 00c0 09B0     		add	sp, sp, #36
 1624              		.cfi_def_cfa_offset 4
 1625              		@ sp needed
 1626 00c2 5DF804FB 		ldr	pc, [sp], #4
 1627              	.L121:
 1628 00c6 00BF     		.align	2
 1629              	.L120:
 1630 00c8 00000000 		.word	__stack_chk_guard
 1631 00cc 00000000 		.word	__func__.7913
 1632              		.cfi_endproc
 1633              	.LFE228:
 1634              		.size	chOQWriteTimeout, .-chOQWriteTimeout
 1635              		.section	.rodata.__func__.7153,"a",%progbits
 1636              		.align	2
 1637              		.type	__func__.7153, %object
 1638              		.size	__func__.7153, 12
 1639              	__func__.7153:
 1640 0000 63685379 		.ascii	"chSysUnlock\000"
 1640      73556E6C 
 1640      6F636B00 
 1641              		.section	.rodata.__func__.7877,"a",%progbits
 1642              		.align	2
 1643              		.type	__func__.7877, %object
 1644              		.size	__func__.7877, 16
 1645              	__func__.7877:
 1646 0000 63684951 		.ascii	"chIQReadTimeout\000"
 1646      52656164 
 1646      54696D65 
 1646      6F757400 
 1647              		.section	.rodata.__func__.7913,"a",%progbits
 1648              		.align	2
ARM GAS  C:\Users\PCHAUT~1\AppData\Local\Temp\ccLTr2Pw.s 			page 30


 1649              		.type	__func__.7913, %object
 1650              		.size	__func__.7913, 17
 1651              	__func__.7913:
 1652 0000 63684F51 		.ascii	"chOQWriteTimeout\000"
 1652      57726974 
 1652      6554696D 
 1652      656F7574 
 1652      00
 1653              		.text
 1654              	.Letext0:
 1655              		.file 8 "c:\\users\\pchautems\\documents\\robotiquetp\\eclipse_e-puck2\\tools\\gcc-arm-none-eabi-7
 1656              		.file 9 "c:\\users\\pchautems\\documents\\robotiquetp\\eclipse_e-puck2\\tools\\gcc-arm-none-eabi-7
 1657              		.file 10 "c:\\users\\pchautems\\documents\\robotiquetp\\eclipse_e-puck2\\tools\\gcc-arm-none-eabi-
 1658              		.file 11 "../lib/e-puck2_main-processor/ChibiOS//os/rt/ports/ARMCMx/compilers/GCC/chtypes.h"
 1659              		.file 12 "../lib/e-puck2_main-processor/ChibiOS//os/rt/include/chsystypes.h"
 1660              		.file 13 "../lib/e-puck2_main-processor/ChibiOS//os/ext/CMSIS/include/core_cm4.h"
 1661              		.file 14 "../lib/e-puck2_main-processor/ChibiOS//os/ext/CMSIS/ST/system_stm32f4xx.h"
 1662              		.file 15 "../lib/e-puck2_main-processor/ChibiOS//os/rt/ports/ARMCMx/chcore.h"
 1663              		.file 16 "../lib/e-puck2_main-processor/ChibiOS//os/rt/include/chdebug.h"
 1664              		.file 17 "../lib/e-puck2_main-processor/ChibiOS//os/rt/include/chtm.h"
 1665              		.file 18 "../lib/e-puck2_main-processor/ChibiOS//os/rt/include/chstats.h"
 1666              		.file 19 "../lib/e-puck2_main-processor/ChibiOS//os/rt/include/chsem.h"
 1667              		.file 20 "../lib/e-puck2_main-processor/ChibiOS//os/rt/include/chmtx.h"
 1668              		.file 21 "../lib/e-puck2_main-processor/ChibiOS//os/rt/include/chregistry.h"
 1669              		.section	.debug_info,"",%progbits
 1670              	.Ldebug_info0:
 1671 0000 D00F0000 		.4byte	0xfd0
 1672 0004 0400     		.2byte	0x4
 1673 0006 00000000 		.4byte	.Ldebug_abbrev0
 1674 000a 04       		.byte	0x4
 1675 000b 01       		.uleb128 0x1
 1676 000c 01020000 		.4byte	.LASF196
 1677 0010 0C       		.byte	0xc
 1678 0011 21050000 		.4byte	.LASF197
 1679 0015 52070000 		.4byte	.LASF198
 1680 0019 00000000 		.4byte	.Ldebug_ranges0+0
 1681 001d 00000000 		.4byte	0
 1682 0021 00000000 		.4byte	.Ldebug_line0
 1683 0025 02       		.uleb128 0x2
 1684 0026 04       		.byte	0x4
 1685 0027 05       		.byte	0x5
 1686 0028 696E7400 		.ascii	"int\000"
 1687 002c 03       		.uleb128 0x3
 1688 002d 2E000000 		.4byte	.LASF4
 1689 0031 08       		.byte	0x8
 1690 0032 D8       		.byte	0xd8
 1691 0033 37000000 		.4byte	0x37
 1692 0037 04       		.uleb128 0x4
 1693 0038 04       		.byte	0x4
 1694 0039 07       		.byte	0x7
 1695 003a 0F040000 		.4byte	.LASF0
 1696 003e 04       		.uleb128 0x4
 1697 003f 08       		.byte	0x8
 1698 0040 05       		.byte	0x5
 1699 0041 75010000 		.4byte	.LASF1
 1700 0045 04       		.uleb128 0x4
 1701 0046 08       		.byte	0x8
ARM GAS  C:\Users\PCHAUT~1\AppData\Local\Temp\ccLTr2Pw.s 			page 31


 1702 0047 04       		.byte	0x4
 1703 0048 C8050000 		.4byte	.LASF2
 1704 004c 04       		.uleb128 0x4
 1705 004d 01       		.byte	0x1
 1706 004e 06       		.byte	0x6
 1707 004f 83010000 		.4byte	.LASF3
 1708 0053 03       		.uleb128 0x3
 1709 0054 52000000 		.4byte	.LASF5
 1710 0058 09       		.byte	0x9
 1711 0059 2B       		.byte	0x2b
 1712 005a 5E000000 		.4byte	0x5e
 1713 005e 04       		.uleb128 0x4
 1714 005f 01       		.byte	0x1
 1715 0060 08       		.byte	0x8
 1716 0061 C2060000 		.4byte	.LASF6
 1717 0065 04       		.uleb128 0x4
 1718 0066 02       		.byte	0x2
 1719 0067 05       		.byte	0x5
 1720 0068 F0060000 		.4byte	.LASF7
 1721 006c 03       		.uleb128 0x3
 1722 006d 3A080000 		.4byte	.LASF8
 1723 0071 09       		.byte	0x9
 1724 0072 39       		.byte	0x39
 1725 0073 77000000 		.4byte	0x77
 1726 0077 04       		.uleb128 0x4
 1727 0078 02       		.byte	0x2
 1728 0079 07       		.byte	0x7
 1729 007a 80030000 		.4byte	.LASF9
 1730 007e 03       		.uleb128 0x3
 1731 007f EC040000 		.4byte	.LASF10
 1732 0083 09       		.byte	0x9
 1733 0084 4D       		.byte	0x4d
 1734 0085 89000000 		.4byte	0x89
 1735 0089 04       		.uleb128 0x4
 1736 008a 04       		.byte	0x4
 1737 008b 05       		.byte	0x5
 1738 008c F8010000 		.4byte	.LASF11
 1739 0090 03       		.uleb128 0x3
 1740 0091 78080000 		.4byte	.LASF12
 1741 0095 09       		.byte	0x9
 1742 0096 4F       		.byte	0x4f
 1743 0097 9B000000 		.4byte	0x9b
 1744 009b 04       		.uleb128 0x4
 1745 009c 04       		.byte	0x4
 1746 009d 07       		.byte	0x7
 1747 009e 14080000 		.4byte	.LASF13
 1748 00a2 03       		.uleb128 0x3
 1749 00a3 3B060000 		.4byte	.LASF14
 1750 00a7 09       		.byte	0x9
 1751 00a8 69       		.byte	0x69
 1752 00a9 AD000000 		.4byte	0xad
 1753 00ad 04       		.uleb128 0x4
 1754 00ae 08       		.byte	0x8
 1755 00af 07       		.byte	0x7
 1756 00b0 D5000000 		.4byte	.LASF15
 1757 00b4 03       		.uleb128 0x3
 1758 00b5 16090000 		.4byte	.LASF16
ARM GAS  C:\Users\PCHAUT~1\AppData\Local\Temp\ccLTr2Pw.s 			page 32


 1759 00b9 0A       		.byte	0xa
 1760 00ba 18       		.byte	0x18
 1761 00bb 53000000 		.4byte	0x53
 1762 00bf 05       		.uleb128 0x5
 1763 00c0 B4000000 		.4byte	0xb4
 1764 00c4 03       		.uleb128 0x3
 1765 00c5 24040000 		.4byte	.LASF17
 1766 00c9 0A       		.byte	0xa
 1767 00ca 24       		.byte	0x24
 1768 00cb 6C000000 		.4byte	0x6c
 1769 00cf 03       		.uleb128 0x3
 1770 00d0 BA060000 		.4byte	.LASF18
 1771 00d4 0A       		.byte	0xa
 1772 00d5 2C       		.byte	0x2c
 1773 00d6 7E000000 		.4byte	0x7e
 1774 00da 06       		.uleb128 0x6
 1775 00db CF000000 		.4byte	0xcf
 1776 00df 03       		.uleb128 0x3
 1777 00e0 DF070000 		.4byte	.LASF19
 1778 00e4 0A       		.byte	0xa
 1779 00e5 30       		.byte	0x30
 1780 00e6 90000000 		.4byte	0x90
 1781 00ea 03       		.uleb128 0x3
 1782 00eb 3C000000 		.4byte	.LASF20
 1783 00ef 0A       		.byte	0xa
 1784 00f0 3C       		.byte	0x3c
 1785 00f1 A2000000 		.4byte	0xa2
 1786 00f5 03       		.uleb128 0x3
 1787 00f6 8E050000 		.4byte	.LASF21
 1788 00fa 0B       		.byte	0xb
 1789 00fb 45       		.byte	0x45
 1790 00fc DF000000 		.4byte	0xdf
 1791 0100 03       		.uleb128 0x3
 1792 0101 4E010000 		.4byte	.LASF22
 1793 0105 0B       		.byte	0xb
 1794 0106 46       		.byte	0x46
 1795 0107 EA000000 		.4byte	0xea
 1796 010b 03       		.uleb128 0x3
 1797 010c 5C090000 		.4byte	.LASF23
 1798 0110 0B       		.byte	0xb
 1799 0111 48       		.byte	0x48
 1800 0112 B4000000 		.4byte	0xb4
 1801 0116 03       		.uleb128 0x3
 1802 0117 45030000 		.4byte	.LASF24
 1803 011b 0B       		.byte	0xb
 1804 011c 49       		.byte	0x49
 1805 011d B4000000 		.4byte	0xb4
 1806 0121 03       		.uleb128 0x3
 1807 0122 51060000 		.4byte	.LASF25
 1808 0126 0B       		.byte	0xb
 1809 0127 4A       		.byte	0x4a
 1810 0128 B4000000 		.4byte	0xb4
 1811 012c 03       		.uleb128 0x3
 1812 012d CF010000 		.4byte	.LASF26
 1813 0131 0B       		.byte	0xb
 1814 0132 4B       		.byte	0x4b
 1815 0133 B4000000 		.4byte	0xb4
ARM GAS  C:\Users\PCHAUT~1\AppData\Local\Temp\ccLTr2Pw.s 			page 33


 1816 0137 03       		.uleb128 0x3
 1817 0138 9B060000 		.4byte	.LASF27
 1818 013c 0B       		.byte	0xb
 1819 013d 4C       		.byte	0x4c
 1820 013e DF000000 		.4byte	0xdf
 1821 0142 03       		.uleb128 0x3
 1822 0143 9D040000 		.4byte	.LASF28
 1823 0147 0B       		.byte	0xb
 1824 0148 4D       		.byte	0x4d
 1825 0149 CF000000 		.4byte	0xcf
 1826 014d 03       		.uleb128 0x3
 1827 014e E0040000 		.4byte	.LASF29
 1828 0152 0B       		.byte	0xb
 1829 0153 4F       		.byte	0x4f
 1830 0154 DF000000 		.4byte	0xdf
 1831 0158 03       		.uleb128 0x3
 1832 0159 FE030000 		.4byte	.LASF30
 1833 015d 0B       		.byte	0xb
 1834 015e 51       		.byte	0x51
 1835 015f CF000000 		.4byte	0xcf
 1836 0163 03       		.uleb128 0x3
 1837 0164 A8040000 		.4byte	.LASF31
 1838 0168 0B       		.byte	0xb
 1839 0169 52       		.byte	0x52
 1840 016a DF000000 		.4byte	0xdf
 1841 016e 03       		.uleb128 0x3
 1842 016f 5A080000 		.4byte	.LASF32
 1843 0173 0C       		.byte	0xc
 1844 0174 33       		.byte	0x33
 1845 0175 DF000000 		.4byte	0xdf
 1846 0179 06       		.uleb128 0x6
 1847 017a 6E010000 		.4byte	0x16e
 1848 017e 03       		.uleb128 0x3
 1849 017f 45080000 		.4byte	.LASF33
 1850 0183 0C       		.byte	0xc
 1851 0184 3F       		.byte	0x3f
 1852 0185 89010000 		.4byte	0x189
 1853 0189 07       		.uleb128 0x7
 1854 018a 93040000 		.4byte	.LASF57
 1855 018e 68       		.byte	0x68
 1856 018f 03       		.byte	0x3
 1857 0190 C2       		.byte	0xc2
 1858 0191 A7020000 		.4byte	0x2a7
 1859 0195 08       		.uleb128 0x8
 1860 0196 14070000 		.4byte	.LASF34
 1861 019a 03       		.byte	0x3
 1862 019b C3       		.byte	0xc3
 1863 019c B2020000 		.4byte	0x2b2
 1864 01a0 00       		.byte	0
 1865 01a1 08       		.uleb128 0x8
 1866 01a2 88060000 		.4byte	.LASF35
 1867 01a6 03       		.byte	0x3
 1868 01a7 C5       		.byte	0xc5
 1869 01a8 B2020000 		.4byte	0x2b2
 1870 01ac 04       		.byte	0x4
 1871 01ad 08       		.uleb128 0x8
 1872 01ae 57010000 		.4byte	.LASF36
ARM GAS  C:\Users\PCHAUT~1\AppData\Local\Temp\ccLTr2Pw.s 			page 34


 1873 01b2 03       		.byte	0x3
 1874 01b3 C7       		.byte	0xc7
 1875 01b4 37010000 		.4byte	0x137
 1876 01b8 08       		.byte	0x8
 1877 01b9 08       		.uleb128 0x8
 1878 01ba 10060000 		.4byte	.LASF37
 1879 01be 03       		.byte	0x3
 1880 01bf C8       		.byte	0xc8
 1881 01c0 2B050000 		.4byte	0x52b
 1882 01c4 0C       		.byte	0xc
 1883 01c5 08       		.uleb128 0x8
 1884 01c6 70030000 		.4byte	.LASF38
 1885 01ca 03       		.byte	0x3
 1886 01cb CA       		.byte	0xca
 1887 01cc B2020000 		.4byte	0x2b2
 1888 01d0 10       		.byte	0x10
 1889 01d1 08       		.uleb128 0x8
 1890 01d2 02060000 		.4byte	.LASF39
 1891 01d6 03       		.byte	0x3
 1892 01d7 CB       		.byte	0xcb
 1893 01d8 B2020000 		.4byte	0x2b2
 1894 01dc 14       		.byte	0x14
 1895 01dd 08       		.uleb128 0x8
 1896 01de 38090000 		.4byte	.LASF40
 1897 01e2 03       		.byte	0x3
 1898 01e3 D2       		.byte	0xd2
 1899 01e4 A1080000 		.4byte	0x8a1
 1900 01e8 18       		.byte	0x18
 1901 01e9 08       		.uleb128 0x8
 1902 01ea 04040000 		.4byte	.LASF41
 1903 01ee 03       		.byte	0x3
 1904 01ef D8       		.byte	0xd8
 1905 01f0 B8080000 		.4byte	0x8b8
 1906 01f4 1C       		.byte	0x1c
 1907 01f5 08       		.uleb128 0x8
 1908 01f6 DE060000 		.4byte	.LASF42
 1909 01fa 03       		.byte	0x3
 1910 01fb DD       		.byte	0xdd
 1911 01fc 16010000 		.4byte	0x116
 1912 0200 20       		.byte	0x20
 1913 0201 08       		.uleb128 0x8
 1914 0202 2F070000 		.4byte	.LASF43
 1915 0206 03       		.byte	0x3
 1916 0207 E1       		.byte	0xe1
 1917 0208 0B010000 		.4byte	0x10b
 1918 020c 21       		.byte	0x21
 1919 020d 08       		.uleb128 0x8
 1920 020e F8080000 		.4byte	.LASF44
 1921 0212 03       		.byte	0x3
 1922 0213 E6       		.byte	0xe6
 1923 0214 21010000 		.4byte	0x121
 1924 0218 22       		.byte	0x22
 1925 0219 08       		.uleb128 0x8
 1926 021a FA060000 		.4byte	.LASF45
 1927 021e 03       		.byte	0x3
 1928 021f EC       		.byte	0xec
 1929 0220 2C010000 		.4byte	0x12c
ARM GAS  C:\Users\PCHAUT~1\AppData\Local\Temp\ccLTr2Pw.s 			page 35


 1930 0224 23       		.byte	0x23
 1931 0225 08       		.uleb128 0x8
 1932 0226 3D040000 		.4byte	.LASF46
 1933 022a 03       		.byte	0x3
 1934 022b F3       		.byte	0xf3
 1935 022c 79010000 		.4byte	0x179
 1936 0230 24       		.byte	0x24
 1937 0231 09       		.uleb128 0x9
 1938 0232 705F7500 		.ascii	"p_u\000"
 1939 0236 03       		.byte	0x3
 1940 0237 3101     		.2byte	0x131
 1941 0239 D0070000 		.4byte	0x7d0
 1942 023d 28       		.byte	0x28
 1943 023e 0A       		.uleb128 0xa
 1944 023f D1090000 		.4byte	.LASF47
 1945 0243 03       		.byte	0x3
 1946 0244 3601     		.2byte	0x136
 1947 0246 B8020000 		.4byte	0x2b8
 1948 024a 2C       		.byte	0x2c
 1949 024b 0A       		.uleb128 0xa
 1950 024c 54040000 		.4byte	.LASF48
 1951 0250 03       		.byte	0x3
 1952 0251 3C01     		.2byte	0x13c
 1953 0253 DC020000 		.4byte	0x2dc
 1954 0257 30       		.byte	0x30
 1955 0258 0A       		.uleb128 0xa
 1956 0259 B5080000 		.4byte	.LASF49
 1957 025d 03       		.byte	0x3
 1958 025e 4001     		.2byte	0x140
 1959 0260 42010000 		.4byte	0x142
 1960 0264 38       		.byte	0x38
 1961 0265 0A       		.uleb128 0xa
 1962 0266 C8070000 		.4byte	.LASF50
 1963 026a 03       		.byte	0x3
 1964 026b 4601     		.2byte	0x146
 1965 026d 4D010000 		.4byte	0x14d
 1966 0271 3C       		.byte	0x3c
 1967 0272 0A       		.uleb128 0xa
 1968 0273 E6060000 		.4byte	.LASF51
 1969 0277 03       		.byte	0x3
 1970 0278 4D01     		.2byte	0x14d
 1971 027a 9B080000 		.4byte	0x89b
 1972 027e 40       		.byte	0x40
 1973 027f 0A       		.uleb128 0xa
 1974 0280 64080000 		.4byte	.LASF52
 1975 0284 03       		.byte	0x3
 1976 0285 5101     		.2byte	0x151
 1977 0287 37010000 		.4byte	0x137
 1978 028b 44       		.byte	0x44
 1979 028c 0A       		.uleb128 0xa
 1980 028d AC010000 		.4byte	.LASF53
 1981 0291 03       		.byte	0x3
 1982 0292 5801     		.2byte	0x158
 1983 0294 8F030000 		.4byte	0x38f
 1984 0298 48       		.byte	0x48
 1985 0299 0A       		.uleb128 0xa
 1986 029a 40070000 		.4byte	.LASF54
ARM GAS  C:\Users\PCHAUT~1\AppData\Local\Temp\ccLTr2Pw.s 			page 36


 1987 029e 03       		.byte	0x3
 1988 029f 5E01     		.2byte	0x15e
 1989 02a1 81070000 		.4byte	0x781
 1990 02a5 50       		.byte	0x50
 1991 02a6 00       		.byte	0
 1992 02a7 03       		.uleb128 0x3
 1993 02a8 1E090000 		.4byte	.LASF55
 1994 02ac 0C       		.byte	0xc
 1995 02ad 44       		.byte	0x44
 1996 02ae B2020000 		.4byte	0x2b2
 1997 02b2 0B       		.uleb128 0xb
 1998 02b3 04       		.byte	0x4
 1999 02b4 7E010000 		.4byte	0x17e
 2000 02b8 03       		.uleb128 0x3
 2001 02b9 12050000 		.4byte	.LASF56
 2002 02bd 0C       		.byte	0xc
 2003 02be 49       		.byte	0x49
 2004 02bf C3020000 		.4byte	0x2c3
 2005 02c3 07       		.uleb128 0x7
 2006 02c4 FC070000 		.4byte	.LASF58
 2007 02c8 04       		.byte	0x4
 2008 02c9 03       		.byte	0x3
 2009 02ca B0       		.byte	0xb0
 2010 02cb DC020000 		.4byte	0x2dc
 2011 02cf 08       		.uleb128 0x8
 2012 02d0 14070000 		.4byte	.LASF34
 2013 02d4 03       		.byte	0x3
 2014 02d5 B1       		.byte	0xb1
 2015 02d6 B2020000 		.4byte	0x2b2
 2016 02da 00       		.byte	0
 2017 02db 00       		.byte	0
 2018 02dc 03       		.uleb128 0x3
 2019 02dd 8D070000 		.4byte	.LASF59
 2020 02e1 0C       		.byte	0xc
 2021 02e2 50       		.byte	0x50
 2022 02e3 E7020000 		.4byte	0x2e7
 2023 02e7 07       		.uleb128 0x7
 2024 02e8 68000000 		.4byte	.LASF60
 2025 02ec 08       		.byte	0x8
 2026 02ed 03       		.byte	0x3
 2027 02ee B7       		.byte	0xb7
 2028 02ef 0C030000 		.4byte	0x30c
 2029 02f3 08       		.uleb128 0x8
 2030 02f4 14070000 		.4byte	.LASF34
 2031 02f8 03       		.byte	0x3
 2032 02f9 B8       		.byte	0xb8
 2033 02fa B2020000 		.4byte	0x2b2
 2034 02fe 00       		.byte	0
 2035 02ff 08       		.uleb128 0x8
 2036 0300 88060000 		.4byte	.LASF35
 2037 0304 03       		.byte	0x3
 2038 0305 B9       		.byte	0xb9
 2039 0306 B2020000 		.4byte	0x2b2
 2040 030a 04       		.byte	0x4
 2041 030b 00       		.byte	0
 2042 030c 03       		.uleb128 0x3
 2043 030d 1C000000 		.4byte	.LASF61
ARM GAS  C:\Users\PCHAUT~1\AppData\Local\Temp\ccLTr2Pw.s 			page 37


 2044 0311 0C       		.byte	0xc
 2045 0312 57       		.byte	0x57
 2046 0313 17030000 		.4byte	0x317
 2047 0317 0C       		.uleb128 0xc
 2048 0318 D2040000 		.4byte	.LASF62
 2049 031c 1C       		.byte	0x1c
 2050 031d 03       		.byte	0x3
 2051 031e 9001     		.2byte	0x190
 2052 0320 73030000 		.4byte	0x373
 2053 0324 0A       		.uleb128 0xa
 2054 0325 F4070000 		.4byte	.LASF63
 2055 0329 03       		.byte	0x3
 2056 032a 9101     		.2byte	0x191
 2057 032c DC020000 		.4byte	0x2dc
 2058 0330 00       		.byte	0
 2059 0331 0A       		.uleb128 0xa
 2060 0332 7E050000 		.4byte	.LASF64
 2061 0336 03       		.byte	0x3
 2062 0337 9201     		.2byte	0x192
 2063 0339 37010000 		.4byte	0x137
 2064 033d 08       		.byte	0x8
 2065 033e 0A       		.uleb128 0xa
 2066 033f 0A060000 		.4byte	.LASF65
 2067 0343 03       		.byte	0x3
 2068 0344 9401     		.2byte	0x194
 2069 0346 2B050000 		.4byte	0x52b
 2070 034a 0C       		.byte	0xc
 2071 034b 0A       		.uleb128 0xa
 2072 034c 9B030000 		.4byte	.LASF66
 2073 0350 03       		.byte	0x3
 2074 0351 9701     		.2byte	0x197
 2075 0353 B2020000 		.4byte	0x2b2
 2076 0357 10       		.byte	0x10
 2077 0358 0A       		.uleb128 0xa
 2078 0359 33060000 		.4byte	.LASF67
 2079 035d 03       		.byte	0x3
 2080 035e 9801     		.2byte	0x198
 2081 0360 B2020000 		.4byte	0x2b2
 2082 0364 14       		.byte	0x14
 2083 0365 0A       		.uleb128 0xa
 2084 0366 29060000 		.4byte	.LASF68
 2085 036a 03       		.byte	0x3
 2086 036b 9B01     		.2byte	0x19b
 2087 036d B2020000 		.4byte	0x2b2
 2088 0371 18       		.byte	0x18
 2089 0372 00       		.byte	0
 2090 0373 03       		.uleb128 0x3
 2091 0374 6F080000 		.4byte	.LASF69
 2092 0378 0C       		.byte	0xc
 2093 0379 5C       		.byte	0x5c
 2094 037a 7E030000 		.4byte	0x37e
 2095 037e 0B       		.uleb128 0xb
 2096 037f 04       		.byte	0x4
 2097 0380 84030000 		.4byte	0x384
 2098 0384 0D       		.uleb128 0xd
 2099 0385 8F030000 		.4byte	0x38f
 2100 0389 0E       		.uleb128 0xe
ARM GAS  C:\Users\PCHAUT~1\AppData\Local\Temp\ccLTr2Pw.s 			page 38


 2101 038a 8F030000 		.4byte	0x38f
 2102 038e 00       		.byte	0
 2103 038f 0F       		.uleb128 0xf
 2104 0390 04       		.byte	0x4
 2105 0391 03       		.uleb128 0x3
 2106 0392 78060000 		.4byte	.LASF70
 2107 0396 0C       		.byte	0xc
 2108 0397 61       		.byte	0x61
 2109 0398 9C030000 		.4byte	0x39c
 2110 039c 0C       		.uleb128 0xc
 2111 039d 9D070000 		.4byte	.LASF71
 2112 03a1 14       		.byte	0x14
 2113 03a2 03       		.byte	0x3
 2114 03a3 6B01     		.2byte	0x16b
 2115 03a5 EB030000 		.4byte	0x3eb
 2116 03a9 0A       		.uleb128 0xa
 2117 03aa 1C040000 		.4byte	.LASF72
 2118 03ae 03       		.byte	0x3
 2119 03af 6C01     		.2byte	0x16c
 2120 03b1 BE080000 		.4byte	0x8be
 2121 03b5 00       		.byte	0
 2122 03b6 0A       		.uleb128 0xa
 2123 03b7 AC030000 		.4byte	.LASF73
 2124 03bb 03       		.byte	0x3
 2125 03bc 6D01     		.2byte	0x16d
 2126 03be BE080000 		.4byte	0x8be
 2127 03c2 04       		.byte	0x4
 2128 03c3 0A       		.uleb128 0xa
 2129 03c4 4B040000 		.4byte	.LASF74
 2130 03c8 03       		.byte	0x3
 2131 03c9 6E01     		.2byte	0x16e
 2132 03cb 6E010000 		.4byte	0x16e
 2133 03cf 08       		.byte	0x8
 2134 03d0 0A       		.uleb128 0xa
 2135 03d1 BA090000 		.4byte	.LASF75
 2136 03d5 03       		.byte	0x3
 2137 03d6 6F01     		.2byte	0x16f
 2138 03d8 73030000 		.4byte	0x373
 2139 03dc 0C       		.byte	0xc
 2140 03dd 0A       		.uleb128 0xa
 2141 03de C6080000 		.4byte	.LASF76
 2142 03e2 03       		.byte	0x3
 2143 03e3 7101     		.2byte	0x171
 2144 03e5 8F030000 		.4byte	0x38f
 2145 03e9 10       		.byte	0x10
 2146 03ea 00       		.byte	0
 2147 03eb 03       		.uleb128 0x3
 2148 03ec 20010000 		.4byte	.LASF77
 2149 03f0 0C       		.byte	0xc
 2150 03f1 66       		.byte	0x66
 2151 03f2 F6030000 		.4byte	0x3f6
 2152 03f6 0C       		.uleb128 0xc
 2153 03f7 A7050000 		.4byte	.LASF78
 2154 03fb 10       		.byte	0x10
 2155 03fc 03       		.byte	0x3
 2156 03fd 7B01     		.2byte	0x17b
 2157 03ff 38040000 		.4byte	0x438
ARM GAS  C:\Users\PCHAUT~1\AppData\Local\Temp\ccLTr2Pw.s 			page 39


 2158 0403 0A       		.uleb128 0xa
 2159 0404 1C040000 		.4byte	.LASF72
 2160 0408 03       		.byte	0x3
 2161 0409 7C01     		.2byte	0x17c
 2162 040b BE080000 		.4byte	0x8be
 2163 040f 00       		.byte	0
 2164 0410 0A       		.uleb128 0xa
 2165 0411 AC030000 		.4byte	.LASF73
 2166 0415 03       		.byte	0x3
 2167 0416 7E01     		.2byte	0x17e
 2168 0418 BE080000 		.4byte	0x8be
 2169 041c 04       		.byte	0x4
 2170 041d 0A       		.uleb128 0xa
 2171 041e 4B040000 		.4byte	.LASF74
 2172 0422 03       		.byte	0x3
 2173 0423 8001     		.2byte	0x180
 2174 0425 6E010000 		.4byte	0x16e
 2175 0429 08       		.byte	0x8
 2176 042a 0A       		.uleb128 0xa
 2177 042b 51090000 		.4byte	.LASF79
 2178 042f 03       		.byte	0x3
 2179 0430 8201     		.2byte	0x182
 2180 0432 79010000 		.4byte	0x179
 2181 0436 0C       		.byte	0xc
 2182 0437 00       		.byte	0
 2183 0438 03       		.uleb128 0x3
 2184 0439 79000000 		.4byte	.LASF80
 2185 043d 0C       		.byte	0xc
 2186 043e 6B       		.byte	0x6b
 2187 043f 43040000 		.4byte	0x443
 2188 0443 10       		.uleb128 0x10
 2189 0444 B9030000 		.4byte	.LASF81
 2190 0448 1404     		.2byte	0x414
 2191 044a 03       		.byte	0x3
 2192 044b A201     		.2byte	0x1a2
 2193 044d 86040000 		.4byte	0x486
 2194 0451 0A       		.uleb128 0xa
 2195 0452 91080000 		.4byte	.LASF82
 2196 0456 03       		.byte	0x3
 2197 0457 AA01     		.2byte	0x1aa
 2198 0459 A7080000 		.4byte	0x8a7
 2199 045d 00       		.byte	0
 2200 045e 0A       		.uleb128 0xa
 2201 045f FF080000 		.4byte	.LASF83
 2202 0463 03       		.byte	0x3
 2203 0464 AF01     		.2byte	0x1af
 2204 0466 58010000 		.4byte	0x158
 2205 046a 04       		.byte	0x4
 2206 046b 0A       		.uleb128 0xa
 2207 046c E6030000 		.4byte	.LASF84
 2208 0470 03       		.byte	0x3
 2209 0471 B301     		.2byte	0x1b3
 2210 0473 58010000 		.4byte	0x158
 2211 0477 08       		.byte	0x8
 2212 0478 0A       		.uleb128 0xa
 2213 0479 64090000 		.4byte	.LASF85
 2214 047d 03       		.byte	0x3
ARM GAS  C:\Users\PCHAUT~1\AppData\Local\Temp\ccLTr2Pw.s 			page 40


 2215 047e B901     		.2byte	0x1b9
 2216 0480 13070000 		.4byte	0x713
 2217 0484 0C       		.byte	0xc
 2218 0485 00       		.byte	0
 2219 0486 03       		.uleb128 0x3
 2220 0487 AF040000 		.4byte	.LASF86
 2221 048b 0C       		.byte	0xc
 2222 048c 70       		.byte	0x70
 2223 048d 91040000 		.4byte	0x491
 2224 0491 10       		.uleb128 0x10
 2225 0492 EE010000 		.4byte	.LASF87
 2226 0496 7006     		.2byte	0x670
 2227 0498 03       		.byte	0x3
 2228 0499 C201     		.2byte	0x1c2
 2229 049b FE040000 		.4byte	0x4fe
 2230 049f 0A       		.uleb128 0xa
 2231 04a0 10090000 		.4byte	.LASF88
 2232 04a4 03       		.byte	0x3
 2233 04a5 C601     		.2byte	0x1c6
 2234 04a7 0C030000 		.4byte	0x30c
 2235 04ab 00       		.byte	0
 2236 04ac 0A       		.uleb128 0xa
 2237 04ad BC010000 		.4byte	.LASF89
 2238 04b1 03       		.byte	0x3
 2239 04b2 CA01     		.2byte	0x1ca
 2240 04b4 EB030000 		.4byte	0x3eb
 2241 04b8 1C       		.byte	0x1c
 2242 04b9 09       		.uleb128 0x9
 2243 04ba 64626700 		.ascii	"dbg\000"
 2244 04be 03       		.byte	0x3
 2245 04bf CE01     		.2byte	0x1ce
 2246 04c1 38040000 		.4byte	0x438
 2247 04c5 2C       		.byte	0x2c
 2248 04c6 11       		.uleb128 0x11
 2249 04c7 15010000 		.4byte	.LASF90
 2250 04cb 03       		.byte	0x3
 2251 04cc D201     		.2byte	0x1d2
 2252 04ce 7E010000 		.4byte	0x17e
 2253 04d2 4004     		.2byte	0x440
 2254 04d4 12       		.uleb128 0x12
 2255 04d5 746D00   		.ascii	"tm\000"
 2256 04d8 03       		.byte	0x3
 2257 04d9 D701     		.2byte	0x1d7
 2258 04db 33070000 		.4byte	0x733
 2259 04df A804     		.2byte	0x4a8
 2260 04e1 11       		.uleb128 0x11
 2261 04e2 45000000 		.4byte	.LASF91
 2262 04e6 03       		.byte	0x3
 2263 04e7 DD01     		.2byte	0x1dd
 2264 04e9 C5070000 		.4byte	0x7c5
 2265 04ed B004     		.2byte	0x4b0
 2266 04ef 11       		.uleb128 0x11
 2267 04f0 EF030000 		.4byte	.LASF92
 2268 04f4 03       		.byte	0x3
 2269 04f5 E301     		.2byte	0x1e3
 2270 04f7 C4080000 		.4byte	0x8c4
 2271 04fb E804     		.2byte	0x4e8
ARM GAS  C:\Users\PCHAUT~1\AppData\Local\Temp\ccLTr2Pw.s 			page 41


 2272 04fd 00       		.byte	0
 2273 04fe 13       		.uleb128 0x13
 2274 04ff 36010000 		.4byte	.LASF93
 2275 0503 0D       		.byte	0xd
 2276 0504 A706     		.2byte	0x6a7
 2277 0506 DA000000 		.4byte	0xda
 2278 050a 14       		.uleb128 0x14
 2279 050b 2D040000 		.4byte	.LASF94
 2280 050f 0E       		.byte	0xe
 2281 0510 4C       		.byte	0x4c
 2282 0511 DF000000 		.4byte	0xdf
 2283 0515 03       		.uleb128 0x3
 2284 0516 A3030000 		.4byte	.LASF95
 2285 051a 0F       		.byte	0xf
 2286 051b 65       		.byte	0x65
 2287 051c 8F030000 		.4byte	0x38f
 2288 0520 03       		.uleb128 0x3
 2289 0521 F6040000 		.4byte	.LASF96
 2290 0525 0F       		.byte	0xf
 2291 0526 6D       		.byte	0x6d
 2292 0527 EA000000 		.4byte	0xea
 2293 052b 07       		.uleb128 0x7
 2294 052c AD080000 		.4byte	.LASF97
 2295 0530 04       		.byte	0x4
 2296 0531 0F       		.byte	0xf
 2297 0532 89       		.byte	0x89
 2298 0533 44050000 		.4byte	0x544
 2299 0537 15       		.uleb128 0x15
 2300 0538 72313300 		.ascii	"r13\000"
 2301 053c 0F       		.byte	0xf
 2302 053d 8A       		.byte	0x8a
 2303 053e 85060000 		.4byte	0x685
 2304 0542 00       		.byte	0
 2305 0543 00       		.byte	0
 2306 0544 07       		.uleb128 0x7
 2307 0545 5C000000 		.4byte	.LASF98
 2308 0549 64       		.byte	0x64
 2309 054a 01       		.byte	0x1
 2310 054b F4       		.byte	0xf4
 2311 054c 85060000 		.4byte	0x685
 2312 0550 15       		.uleb128 0x15
 2313 0551 73313600 		.ascii	"s16\000"
 2314 0555 01       		.byte	0x1
 2315 0556 F6       		.byte	0xf6
 2316 0557 15050000 		.4byte	0x515
 2317 055b 00       		.byte	0
 2318 055c 15       		.uleb128 0x15
 2319 055d 73313700 		.ascii	"s17\000"
 2320 0561 01       		.byte	0x1
 2321 0562 F7       		.byte	0xf7
 2322 0563 15050000 		.4byte	0x515
 2323 0567 04       		.byte	0x4
 2324 0568 15       		.uleb128 0x15
 2325 0569 73313800 		.ascii	"s18\000"
 2326 056d 01       		.byte	0x1
 2327 056e F8       		.byte	0xf8
 2328 056f 15050000 		.4byte	0x515
ARM GAS  C:\Users\PCHAUT~1\AppData\Local\Temp\ccLTr2Pw.s 			page 42


 2329 0573 08       		.byte	0x8
 2330 0574 15       		.uleb128 0x15
 2331 0575 73313900 		.ascii	"s19\000"
 2332 0579 01       		.byte	0x1
 2333 057a F9       		.byte	0xf9
 2334 057b 15050000 		.4byte	0x515
 2335 057f 0C       		.byte	0xc
 2336 0580 15       		.uleb128 0x15
 2337 0581 73323000 		.ascii	"s20\000"
 2338 0585 01       		.byte	0x1
 2339 0586 FA       		.byte	0xfa
 2340 0587 15050000 		.4byte	0x515
 2341 058b 10       		.byte	0x10
 2342 058c 15       		.uleb128 0x15
 2343 058d 73323100 		.ascii	"s21\000"
 2344 0591 01       		.byte	0x1
 2345 0592 FB       		.byte	0xfb
 2346 0593 15050000 		.4byte	0x515
 2347 0597 14       		.byte	0x14
 2348 0598 15       		.uleb128 0x15
 2349 0599 73323200 		.ascii	"s22\000"
 2350 059d 01       		.byte	0x1
 2351 059e FC       		.byte	0xfc
 2352 059f 15050000 		.4byte	0x515
 2353 05a3 18       		.byte	0x18
 2354 05a4 15       		.uleb128 0x15
 2355 05a5 73323300 		.ascii	"s23\000"
 2356 05a9 01       		.byte	0x1
 2357 05aa FD       		.byte	0xfd
 2358 05ab 15050000 		.4byte	0x515
 2359 05af 1C       		.byte	0x1c
 2360 05b0 15       		.uleb128 0x15
 2361 05b1 73323400 		.ascii	"s24\000"
 2362 05b5 01       		.byte	0x1
 2363 05b6 FE       		.byte	0xfe
 2364 05b7 15050000 		.4byte	0x515
 2365 05bb 20       		.byte	0x20
 2366 05bc 15       		.uleb128 0x15
 2367 05bd 73323500 		.ascii	"s25\000"
 2368 05c1 01       		.byte	0x1
 2369 05c2 FF       		.byte	0xff
 2370 05c3 15050000 		.4byte	0x515
 2371 05c7 24       		.byte	0x24
 2372 05c8 09       		.uleb128 0x9
 2373 05c9 73323600 		.ascii	"s26\000"
 2374 05cd 01       		.byte	0x1
 2375 05ce 0001     		.2byte	0x100
 2376 05d0 15050000 		.4byte	0x515
 2377 05d4 28       		.byte	0x28
 2378 05d5 09       		.uleb128 0x9
 2379 05d6 73323700 		.ascii	"s27\000"
 2380 05da 01       		.byte	0x1
 2381 05db 0101     		.2byte	0x101
 2382 05dd 15050000 		.4byte	0x515
 2383 05e1 2C       		.byte	0x2c
 2384 05e2 09       		.uleb128 0x9
 2385 05e3 73323800 		.ascii	"s28\000"
ARM GAS  C:\Users\PCHAUT~1\AppData\Local\Temp\ccLTr2Pw.s 			page 43


 2386 05e7 01       		.byte	0x1
 2387 05e8 0201     		.2byte	0x102
 2388 05ea 15050000 		.4byte	0x515
 2389 05ee 30       		.byte	0x30
 2390 05ef 09       		.uleb128 0x9
 2391 05f0 73323900 		.ascii	"s29\000"
 2392 05f4 01       		.byte	0x1
 2393 05f5 0301     		.2byte	0x103
 2394 05f7 15050000 		.4byte	0x515
 2395 05fb 34       		.byte	0x34
 2396 05fc 09       		.uleb128 0x9
 2397 05fd 73333000 		.ascii	"s30\000"
 2398 0601 01       		.byte	0x1
 2399 0602 0401     		.2byte	0x104
 2400 0604 15050000 		.4byte	0x515
 2401 0608 38       		.byte	0x38
 2402 0609 09       		.uleb128 0x9
 2403 060a 73333100 		.ascii	"s31\000"
 2404 060e 01       		.byte	0x1
 2405 060f 0501     		.2byte	0x105
 2406 0611 15050000 		.4byte	0x515
 2407 0615 3C       		.byte	0x3c
 2408 0616 09       		.uleb128 0x9
 2409 0617 723400   		.ascii	"r4\000"
 2410 061a 01       		.byte	0x1
 2411 061b 0701     		.2byte	0x107
 2412 061d 15050000 		.4byte	0x515
 2413 0621 40       		.byte	0x40
 2414 0622 09       		.uleb128 0x9
 2415 0623 723500   		.ascii	"r5\000"
 2416 0626 01       		.byte	0x1
 2417 0627 0801     		.2byte	0x108
 2418 0629 15050000 		.4byte	0x515
 2419 062d 44       		.byte	0x44
 2420 062e 09       		.uleb128 0x9
 2421 062f 723600   		.ascii	"r6\000"
 2422 0632 01       		.byte	0x1
 2423 0633 0901     		.2byte	0x109
 2424 0635 15050000 		.4byte	0x515
 2425 0639 48       		.byte	0x48
 2426 063a 09       		.uleb128 0x9
 2427 063b 723700   		.ascii	"r7\000"
 2428 063e 01       		.byte	0x1
 2429 063f 0A01     		.2byte	0x10a
 2430 0641 15050000 		.4byte	0x515
 2431 0645 4C       		.byte	0x4c
 2432 0646 09       		.uleb128 0x9
 2433 0647 723800   		.ascii	"r8\000"
 2434 064a 01       		.byte	0x1
 2435 064b 0B01     		.2byte	0x10b
 2436 064d 15050000 		.4byte	0x515
 2437 0651 50       		.byte	0x50
 2438 0652 09       		.uleb128 0x9
 2439 0653 723900   		.ascii	"r9\000"
 2440 0656 01       		.byte	0x1
 2441 0657 0C01     		.2byte	0x10c
 2442 0659 15050000 		.4byte	0x515
ARM GAS  C:\Users\PCHAUT~1\AppData\Local\Temp\ccLTr2Pw.s 			page 44


 2443 065d 54       		.byte	0x54
 2444 065e 09       		.uleb128 0x9
 2445 065f 72313000 		.ascii	"r10\000"
 2446 0663 01       		.byte	0x1
 2447 0664 0D01     		.2byte	0x10d
 2448 0666 15050000 		.4byte	0x515
 2449 066a 58       		.byte	0x58
 2450 066b 09       		.uleb128 0x9
 2451 066c 72313100 		.ascii	"r11\000"
 2452 0670 01       		.byte	0x1
 2453 0671 0E01     		.2byte	0x10e
 2454 0673 15050000 		.4byte	0x515
 2455 0677 5C       		.byte	0x5c
 2456 0678 09       		.uleb128 0x9
 2457 0679 6C7200   		.ascii	"lr\000"
 2458 067c 01       		.byte	0x1
 2459 067d 0F01     		.2byte	0x10f
 2460 067f 15050000 		.4byte	0x515
 2461 0683 60       		.byte	0x60
 2462 0684 00       		.byte	0
 2463 0685 0B       		.uleb128 0xb
 2464 0686 04       		.byte	0x4
 2465 0687 44050000 		.4byte	0x544
 2466 068b 16       		.uleb128 0x16
 2467 068c 10       		.byte	0x10
 2468 068d 10       		.byte	0x10
 2469 068e 51       		.byte	0x51
 2470 068f C4060000 		.4byte	0x6c4
 2471 0693 08       		.uleb128 0x8
 2472 0694 DC080000 		.4byte	.LASF99
 2473 0698 10       		.byte	0x10
 2474 0699 55       		.byte	0x55
 2475 069a 6E010000 		.4byte	0x16e
 2476 069e 00       		.byte	0
 2477 069f 08       		.uleb128 0x8
 2478 06a0 57030000 		.4byte	.LASF100
 2479 06a4 10       		.byte	0x10
 2480 06a5 59       		.byte	0x59
 2481 06a6 B2020000 		.4byte	0x2b2
 2482 06aa 04       		.byte	0x4
 2483 06ab 08       		.uleb128 0x8
 2484 06ac A2090000 		.4byte	.LASF101
 2485 06b0 10       		.byte	0x10
 2486 06b1 5D       		.byte	0x5d
 2487 06b2 8F030000 		.4byte	0x38f
 2488 06b6 08       		.byte	0x8
 2489 06b7 08       		.uleb128 0x8
 2490 06b8 04070000 		.4byte	.LASF102
 2491 06bc 10       		.byte	0x10
 2492 06bd 61       		.byte	0x61
 2493 06be B4000000 		.4byte	0xb4
 2494 06c2 0C       		.byte	0xc
 2495 06c3 00       		.byte	0
 2496 06c4 03       		.uleb128 0x3
 2497 06c5 E7050000 		.4byte	.LASF103
 2498 06c9 10       		.byte	0x10
 2499 06ca 62       		.byte	0x62
ARM GAS  C:\Users\PCHAUT~1\AppData\Local\Temp\ccLTr2Pw.s 			page 45


 2500 06cb 8B060000 		.4byte	0x68b
 2501 06cf 17       		.uleb128 0x17
 2502 06d0 0804     		.2byte	0x408
 2503 06d2 10       		.byte	0x10
 2504 06d3 67       		.byte	0x67
 2505 06d4 FD060000 		.4byte	0x6fd
 2506 06d8 08       		.uleb128 0x8
 2507 06d9 93030000 		.4byte	.LASF104
 2508 06dd 10       		.byte	0x10
 2509 06de 6B       		.byte	0x6b
 2510 06df 37000000 		.4byte	0x37
 2511 06e3 00       		.byte	0
 2512 06e4 08       		.uleb128 0x8
 2513 06e5 E0050000 		.4byte	.LASF105
 2514 06e9 10       		.byte	0x10
 2515 06ea 6F       		.byte	0x6f
 2516 06eb FD060000 		.4byte	0x6fd
 2517 06ef 04       		.byte	0x4
 2518 06f0 08       		.uleb128 0x8
 2519 06f1 59060000 		.4byte	.LASF106
 2520 06f5 10       		.byte	0x10
 2521 06f6 73       		.byte	0x73
 2522 06f7 03070000 		.4byte	0x703
 2523 06fb 08       		.byte	0x8
 2524 06fc 00       		.byte	0
 2525 06fd 0B       		.uleb128 0xb
 2526 06fe 04       		.byte	0x4
 2527 06ff C4060000 		.4byte	0x6c4
 2528 0703 18       		.uleb128 0x18
 2529 0704 C4060000 		.4byte	0x6c4
 2530 0708 13070000 		.4byte	0x713
 2531 070c 19       		.uleb128 0x19
 2532 070d 37000000 		.4byte	0x37
 2533 0711 3F       		.byte	0x3f
 2534 0712 00       		.byte	0
 2535 0713 03       		.uleb128 0x3
 2536 0714 EC000000 		.4byte	.LASF107
 2537 0718 10       		.byte	0x10
 2538 0719 74       		.byte	0x74
 2539 071a CF060000 		.4byte	0x6cf
 2540 071e 16       		.uleb128 0x16
 2541 071f 04       		.byte	0x4
 2542 0720 11       		.byte	0x11
 2543 0721 38       		.byte	0x38
 2544 0722 33070000 		.4byte	0x733
 2545 0726 08       		.uleb128 0x8
 2546 0727 9B080000 		.4byte	.LASF108
 2547 072b 11       		.byte	0x11
 2548 072c 3C       		.byte	0x3c
 2549 072d F5000000 		.4byte	0xf5
 2550 0731 00       		.byte	0
 2551 0732 00       		.byte	0
 2552 0733 03       		.uleb128 0x3
 2553 0734 96050000 		.4byte	.LASF109
 2554 0738 11       		.byte	0x11
 2555 0739 3D       		.byte	0x3d
 2556 073a 1E070000 		.4byte	0x71e
ARM GAS  C:\Users\PCHAUT~1\AppData\Local\Temp\ccLTr2Pw.s 			page 46


 2557 073e 16       		.uleb128 0x16
 2558 073f 18       		.byte	0x18
 2559 0740 11       		.byte	0x11
 2560 0741 48       		.byte	0x48
 2561 0742 81070000 		.4byte	0x781
 2562 0746 08       		.uleb128 0x8
 2563 0747 4E080000 		.4byte	.LASF110
 2564 074b 11       		.byte	0x11
 2565 074c 49       		.byte	0x49
 2566 074d F5000000 		.4byte	0xf5
 2567 0751 00       		.byte	0
 2568 0752 08       		.uleb128 0x8
 2569 0753 23060000 		.4byte	.LASF111
 2570 0757 11       		.byte	0x11
 2571 0758 4A       		.byte	0x4a
 2572 0759 F5000000 		.4byte	0xf5
 2573 075d 04       		.byte	0x4
 2574 075e 08       		.uleb128 0x8
 2575 075f A3040000 		.4byte	.LASF112
 2576 0763 11       		.byte	0x11
 2577 0764 4B       		.byte	0x4b
 2578 0765 F5000000 		.4byte	0xf5
 2579 0769 08       		.byte	0x8
 2580 076a 15       		.uleb128 0x15
 2581 076b 6E00     		.ascii	"n\000"
 2582 076d 11       		.byte	0x11
 2583 076e 4C       		.byte	0x4c
 2584 076f 63010000 		.4byte	0x163
 2585 0773 0C       		.byte	0xc
 2586 0774 08       		.uleb128 0x8
 2587 0775 46060000 		.4byte	.LASF113
 2588 0779 11       		.byte	0x11
 2589 077a 4D       		.byte	0x4d
 2590 077b 00010000 		.4byte	0x100
 2591 077f 10       		.byte	0x10
 2592 0780 00       		.byte	0
 2593 0781 03       		.uleb128 0x3
 2594 0782 B3000000 		.4byte	.LASF114
 2595 0786 11       		.byte	0x11
 2596 0787 4E       		.byte	0x4e
 2597 0788 3E070000 		.4byte	0x73e
 2598 078c 16       		.uleb128 0x16
 2599 078d 38       		.byte	0x38
 2600 078e 12       		.byte	0x12
 2601 078f 38       		.byte	0x38
 2602 0790 C5070000 		.4byte	0x7c5
 2603 0794 08       		.uleb128 0x8
 2604 0795 70040000 		.4byte	.LASF115
 2605 0799 12       		.byte	0x12
 2606 079a 39       		.byte	0x39
 2607 079b 63010000 		.4byte	0x163
 2608 079f 00       		.byte	0
 2609 07a0 08       		.uleb128 0x8
 2610 07a1 AB060000 		.4byte	.LASF116
 2611 07a5 12       		.byte	0x12
 2612 07a6 3A       		.byte	0x3a
 2613 07a7 63010000 		.4byte	0x163
ARM GAS  C:\Users\PCHAUT~1\AppData\Local\Temp\ccLTr2Pw.s 			page 47


 2614 07ab 04       		.byte	0x4
 2615 07ac 08       		.uleb128 0x8
 2616 07ad 8F090000 		.4byte	.LASF117
 2617 07b1 12       		.byte	0x12
 2618 07b2 3B       		.byte	0x3b
 2619 07b3 81070000 		.4byte	0x781
 2620 07b7 08       		.byte	0x8
 2621 07b8 08       		.uleb128 0x8
 2622 07b9 C7040000 		.4byte	.LASF118
 2623 07bd 12       		.byte	0x12
 2624 07be 3D       		.byte	0x3d
 2625 07bf 81070000 		.4byte	0x781
 2626 07c3 20       		.byte	0x20
 2627 07c4 00       		.byte	0
 2628 07c5 03       		.uleb128 0x3
 2629 07c6 84040000 		.4byte	.LASF119
 2630 07ca 12       		.byte	0x12
 2631 07cb 3F       		.byte	0x3f
 2632 07cc 8C070000 		.4byte	0x78c
 2633 07d0 1A       		.uleb128 0x1a
 2634 07d1 04       		.byte	0x4
 2635 07d2 03       		.byte	0x3
 2636 07d3 FA       		.byte	0xfa
 2637 07d4 2D080000 		.4byte	0x82d
 2638 07d8 1B       		.uleb128 0x1b
 2639 07d9 35000000 		.4byte	.LASF120
 2640 07dd 03       		.byte	0x3
 2641 07de 0101     		.2byte	0x101
 2642 07e0 42010000 		.4byte	0x142
 2643 07e4 1B       		.uleb128 0x1b
 2644 07e5 0C010000 		.4byte	.LASF121
 2645 07e9 03       		.byte	0x3
 2646 07ea 0801     		.2byte	0x108
 2647 07ec 42010000 		.4byte	0x142
 2648 07f0 1B       		.uleb128 0x1b
 2649 07f1 31090000 		.4byte	.LASF122
 2650 07f5 03       		.byte	0x3
 2651 07f6 0F01     		.2byte	0x10f
 2652 07f8 8F030000 		.4byte	0x38f
 2653 07fc 1B       		.uleb128 0x1b
 2654 07fd E8010000 		.4byte	.LASF123
 2655 0801 03       		.byte	0x3
 2656 0802 1601     		.2byte	0x116
 2657 0804 2D080000 		.4byte	0x82d
 2658 0808 1B       		.uleb128 0x1b
 2659 0809 44040000 		.4byte	.LASF124
 2660 080d 03       		.byte	0x3
 2661 080e 1E01     		.2byte	0x11e
 2662 0810 58080000 		.4byte	0x858
 2663 0814 1B       		.uleb128 0x1b
 2664 0815 33080000 		.4byte	.LASF125
 2665 0819 03       		.byte	0x3
 2666 081a 2701     		.2byte	0x127
 2667 081c 9B080000 		.4byte	0x89b
 2668 0820 1B       		.uleb128 0x1b
 2669 0821 0D070000 		.4byte	.LASF126
 2670 0825 03       		.byte	0x3
ARM GAS  C:\Users\PCHAUT~1\AppData\Local\Temp\ccLTr2Pw.s 			page 48


 2671 0826 2F01     		.2byte	0x12f
 2672 0828 4D010000 		.4byte	0x14d
 2673 082c 00       		.byte	0
 2674 082d 0B       		.uleb128 0xb
 2675 082e 04       		.byte	0x4
 2676 082f A7020000 		.4byte	0x2a7
 2677 0833 07       		.uleb128 0x7
 2678 0834 BB070000 		.4byte	.LASF127
 2679 0838 0C       		.byte	0xc
 2680 0839 13       		.byte	0x13
 2681 083a 34       		.byte	0x34
 2682 083b 58080000 		.4byte	0x858
 2683 083f 08       		.uleb128 0x8
 2684 0840 78030000 		.4byte	.LASF128
 2685 0844 13       		.byte	0x13
 2686 0845 35       		.byte	0x35
 2687 0846 DC020000 		.4byte	0x2dc
 2688 084a 00       		.byte	0
 2689 084b 08       		.uleb128 0x8
 2690 084c 76040000 		.4byte	.LASF129
 2691 0850 13       		.byte	0x13
 2692 0851 37       		.byte	0x37
 2693 0852 58010000 		.4byte	0x158
 2694 0856 08       		.byte	0x8
 2695 0857 00       		.byte	0
 2696 0858 0B       		.uleb128 0xb
 2697 0859 04       		.byte	0x4
 2698 085a 33080000 		.4byte	0x833
 2699 085e 07       		.uleb128 0x7
 2700 085f EF080000 		.4byte	.LASF130
 2701 0863 14       		.byte	0x14
 2702 0864 14       		.byte	0x14
 2703 0865 39       		.byte	0x39
 2704 0866 9B080000 		.4byte	0x89b
 2705 086a 08       		.uleb128 0x8
 2706 086b B4010000 		.4byte	.LASF131
 2707 086f 14       		.byte	0x14
 2708 0870 3A       		.byte	0x3a
 2709 0871 DC020000 		.4byte	0x2dc
 2710 0875 00       		.byte	0
 2711 0876 08       		.uleb128 0x8
 2712 0877 9A090000 		.4byte	.LASF132
 2713 087b 14       		.byte	0x14
 2714 087c 3C       		.byte	0x3c
 2715 087d B2020000 		.4byte	0x2b2
 2716 0881 08       		.byte	0x8
 2717 0882 08       		.uleb128 0x8
 2718 0883 53080000 		.4byte	.LASF133
 2719 0887 14       		.byte	0x14
 2720 0888 3E       		.byte	0x3e
 2721 0889 F6090000 		.4byte	0x9f6
 2722 088d 0C       		.byte	0xc
 2723 088e 08       		.uleb128 0x8
 2724 088f D2030000 		.4byte	.LASF134
 2725 0893 14       		.byte	0x14
 2726 0894 41       		.byte	0x41
 2727 0895 58010000 		.4byte	0x158
ARM GAS  C:\Users\PCHAUT~1\AppData\Local\Temp\ccLTr2Pw.s 			page 49


 2728 0899 10       		.byte	0x10
 2729 089a 00       		.byte	0
 2730 089b 0B       		.uleb128 0xb
 2731 089c 04       		.byte	0x4
 2732 089d 5E080000 		.4byte	0x85e
 2733 08a1 0B       		.uleb128 0xb
 2734 08a2 04       		.byte	0x4
 2735 08a3 B3080000 		.4byte	0x8b3
 2736 08a7 06       		.uleb128 0x6
 2737 08a8 A1080000 		.4byte	0x8a1
 2738 08ac 04       		.uleb128 0x4
 2739 08ad 01       		.byte	0x1
 2740 08ae 08       		.byte	0x8
 2741 08af 2E080000 		.4byte	.LASF135
 2742 08b3 05       		.uleb128 0x5
 2743 08b4 AC080000 		.4byte	0x8ac
 2744 08b8 0B       		.uleb128 0xb
 2745 08b9 04       		.byte	0x4
 2746 08ba 20050000 		.4byte	0x520
 2747 08be 0B       		.uleb128 0xb
 2748 08bf 04       		.byte	0x4
 2749 08c0 91030000 		.4byte	0x391
 2750 08c4 18       		.uleb128 0x18
 2751 08c5 20050000 		.4byte	0x520
 2752 08c9 D4080000 		.4byte	0x8d4
 2753 08cd 19       		.uleb128 0x19
 2754 08ce 37000000 		.4byte	0x37
 2755 08d2 30       		.byte	0x30
 2756 08d3 00       		.byte	0
 2757 08d4 1C       		.uleb128 0x1c
 2758 08d5 636800   		.ascii	"ch\000"
 2759 08d8 03       		.byte	0x3
 2760 08d9 0902     		.2byte	0x209
 2761 08db 86040000 		.4byte	0x486
 2762 08df 16       		.uleb128 0x16
 2763 08e0 16       		.byte	0x16
 2764 08e1 15       		.byte	0x15
 2765 08e2 34       		.byte	0x34
 2766 08e3 C0090000 		.4byte	0x9c0
 2767 08e7 08       		.uleb128 0x8
 2768 08e8 AC090000 		.4byte	.LASF136
 2769 08ec 15       		.byte	0x15
 2770 08ed 35       		.byte	0x35
 2771 08ee C0090000 		.4byte	0x9c0
 2772 08f2 00       		.byte	0
 2773 08f3 08       		.uleb128 0x8
 2774 08f4 26080000 		.4byte	.LASF137
 2775 08f8 15       		.byte	0x15
 2776 08f9 36       		.byte	0x36
 2777 08fa B4000000 		.4byte	0xb4
 2778 08fe 04       		.byte	0x4
 2779 08ff 08       		.uleb128 0x8
 2780 0900 0C080000 		.4byte	.LASF138
 2781 0904 15       		.byte	0x15
 2782 0905 37       		.byte	0x37
 2783 0906 B4000000 		.4byte	0xb4
 2784 090a 05       		.byte	0x5
ARM GAS  C:\Users\PCHAUT~1\AppData\Local\Temp\ccLTr2Pw.s 			page 50


 2785 090b 08       		.uleb128 0x8
 2786 090c 7D090000 		.4byte	.LASF139
 2787 0910 15       		.byte	0x15
 2788 0911 38       		.byte	0x38
 2789 0912 C4000000 		.4byte	0xc4
 2790 0916 06       		.byte	0x6
 2791 0917 08       		.uleb128 0x8
 2792 0918 63060000 		.4byte	.LASF140
 2793 091c 15       		.byte	0x15
 2794 091d 39       		.byte	0x39
 2795 091e B4000000 		.4byte	0xb4
 2796 0922 08       		.byte	0x8
 2797 0923 08       		.uleb128 0x8
 2798 0924 D4050000 		.4byte	.LASF141
 2799 0928 15       		.byte	0x15
 2800 0929 3A       		.byte	0x3a
 2801 092a B4000000 		.4byte	0xb4
 2802 092e 09       		.byte	0x9
 2803 092f 08       		.uleb128 0x8
 2804 0930 FE000000 		.4byte	.LASF142
 2805 0934 15       		.byte	0x15
 2806 0935 3B       		.byte	0x3b
 2807 0936 B4000000 		.4byte	0xb4
 2808 093a 0A       		.byte	0xa
 2809 093b 08       		.uleb128 0x8
 2810 093c E8070000 		.4byte	.LASF143
 2811 0940 15       		.byte	0x15
 2812 0941 3C       		.byte	0x3c
 2813 0942 B4000000 		.4byte	0xb4
 2814 0946 0B       		.byte	0xb
 2815 0947 08       		.uleb128 0x8
 2816 0948 E4080000 		.4byte	.LASF144
 2817 094c 15       		.byte	0x15
 2818 094d 3D       		.byte	0x3d
 2819 094e B4000000 		.4byte	0xb4
 2820 0952 0C       		.byte	0xc
 2821 0953 08       		.uleb128 0x8
 2822 0954 AE070000 		.4byte	.LASF145
 2823 0958 15       		.byte	0x15
 2824 0959 3E       		.byte	0x3e
 2825 095a B4000000 		.4byte	0xb4
 2826 095e 0D       		.byte	0xd
 2827 095f 08       		.uleb128 0x8
 2828 0960 0F000000 		.4byte	.LASF146
 2829 0964 15       		.byte	0x15
 2830 0965 3F       		.byte	0x3f
 2831 0966 B4000000 		.4byte	0xb4
 2832 096a 0E       		.byte	0xe
 2833 096b 08       		.uleb128 0x8
 2834 096c F6050000 		.4byte	.LASF147
 2835 0970 15       		.byte	0x15
 2836 0971 40       		.byte	0x40
 2837 0972 B4000000 		.4byte	0xb4
 2838 0976 0F       		.byte	0xf
 2839 0977 08       		.uleb128 0x8
 2840 0978 8F010000 		.4byte	.LASF148
 2841 097c 15       		.byte	0x15
ARM GAS  C:\Users\PCHAUT~1\AppData\Local\Temp\ccLTr2Pw.s 			page 51


 2842 097d 41       		.byte	0x41
 2843 097e B4000000 		.4byte	0xb4
 2844 0982 10       		.byte	0x10
 2845 0983 08       		.uleb128 0x8
 2846 0984 5E010000 		.4byte	.LASF149
 2847 0988 15       		.byte	0x15
 2848 0989 43       		.byte	0x43
 2849 098a B4000000 		.4byte	0xb4
 2850 098e 11       		.byte	0x11
 2851 098f 08       		.uleb128 0x8
 2852 0990 9F010000 		.4byte	.LASF150
 2853 0994 15       		.byte	0x15
 2854 0995 44       		.byte	0x44
 2855 0996 B4000000 		.4byte	0xb4
 2856 099a 12       		.byte	0x12
 2857 099b 08       		.uleb128 0x8
 2858 099c 5D050000 		.4byte	.LASF151
 2859 09a0 15       		.byte	0x15
 2860 09a1 45       		.byte	0x45
 2861 09a2 B4000000 		.4byte	0xb4
 2862 09a6 13       		.byte	0x13
 2863 09a7 08       		.uleb128 0x8
 2864 09a8 20070000 		.4byte	.LASF152
 2865 09ac 15       		.byte	0x15
 2866 09ad 46       		.byte	0x46
 2867 09ae B4000000 		.4byte	0xb4
 2868 09b2 14       		.byte	0x14
 2869 09b3 08       		.uleb128 0x8
 2870 09b4 BB040000 		.4byte	.LASF153
 2871 09b8 15       		.byte	0x15
 2872 09b9 48       		.byte	0x48
 2873 09ba B4000000 		.4byte	0xb4
 2874 09be 15       		.byte	0x15
 2875 09bf 00       		.byte	0
 2876 09c0 18       		.uleb128 0x18
 2877 09c1 AC080000 		.4byte	0x8ac
 2878 09c5 D0090000 		.4byte	0x9d0
 2879 09c9 19       		.uleb128 0x19
 2880 09ca 37000000 		.4byte	0x37
 2881 09ce 03       		.byte	0x3
 2882 09cf 00       		.byte	0
 2883 09d0 03       		.uleb128 0x3
 2884 09d1 66030000 		.4byte	.LASF154
 2885 09d5 15       		.byte	0x15
 2886 09d6 49       		.byte	0x49
 2887 09d7 DF080000 		.4byte	0x8df
 2888 09db 05       		.uleb128 0x5
 2889 09dc D0090000 		.4byte	0x9d0
 2890 09e0 14       		.uleb128 0x14
 2891 09e1 5F040000 		.4byte	.LASF155
 2892 09e5 15       		.byte	0x15
 2893 09e6 6E       		.byte	0x6e
 2894 09e7 DB090000 		.4byte	0x9db
 2895 09eb 03       		.uleb128 0x3
 2896 09ec D8030000 		.4byte	.LASF156
 2897 09f0 14       		.byte	0x14
 2898 09f1 34       		.byte	0x34
ARM GAS  C:\Users\PCHAUT~1\AppData\Local\Temp\ccLTr2Pw.s 			page 52


 2899 09f2 5E080000 		.4byte	0x85e
 2900 09f6 0B       		.uleb128 0xb
 2901 09f7 04       		.byte	0x4
 2902 09f8 EB090000 		.4byte	0x9eb
 2903 09fc 03       		.uleb128 0x3
 2904 09fd 43010000 		.4byte	.LASF157
 2905 0a01 06       		.byte	0x6
 2906 0a02 3F       		.byte	0x3f
 2907 0a03 070A0000 		.4byte	0xa07
 2908 0a07 07       		.uleb128 0x7
 2909 0a08 85050000 		.4byte	.LASF158
 2910 0a0c 24       		.byte	0x24
 2911 0a0d 06       		.byte	0x6
 2912 0a0e 4D       		.byte	0x4d
 2913 0a0f 740A0000 		.4byte	0xa74
 2914 0a13 08       		.uleb128 0x8
 2915 0a14 6B010000 		.4byte	.LASF159
 2916 0a18 06       		.byte	0x6
 2917 0a19 4E       		.byte	0x4e
 2918 0a1a DC020000 		.4byte	0x2dc
 2919 0a1e 00       		.byte	0
 2920 0a1f 08       		.uleb128 0x8
 2921 0a20 BE050000 		.4byte	.LASF160
 2922 0a24 06       		.byte	0x6
 2923 0a25 4F       		.byte	0x4f
 2924 0a26 2C000000 		.4byte	0x2c
 2925 0a2a 08       		.byte	0x8
 2926 0a2b 08       		.uleb128 0x8
 2927 0a2c 5D030000 		.4byte	.LASF161
 2928 0a30 06       		.byte	0x6
 2929 0a31 50       		.byte	0x50
 2930 0a32 960A0000 		.4byte	0xa96
 2931 0a36 0C       		.byte	0xc
 2932 0a37 08       		.uleb128 0x8
 2933 0a38 AD000000 		.4byte	.LASF162
 2934 0a3c 06       		.byte	0x6
 2935 0a3d 51       		.byte	0x51
 2936 0a3e 960A0000 		.4byte	0xa96
 2937 0a42 10       		.byte	0x10
 2938 0a43 08       		.uleb128 0x8
 2939 0a44 7C040000 		.4byte	.LASF163
 2940 0a48 06       		.byte	0x6
 2941 0a49 53       		.byte	0x53
 2942 0a4a 960A0000 		.4byte	0xa96
 2943 0a4e 14       		.byte	0x14
 2944 0a4f 08       		.uleb128 0x8
 2945 0a50 A3060000 		.4byte	.LASF164
 2946 0a54 06       		.byte	0x6
 2947 0a55 54       		.byte	0x54
 2948 0a56 960A0000 		.4byte	0xa96
 2949 0a5a 18       		.byte	0x18
 2950 0a5b 08       		.uleb128 0x8
 2951 0a5c 07090000 		.4byte	.LASF165
 2952 0a60 06       		.byte	0x6
 2953 0a61 55       		.byte	0x55
 2954 0a62 740A0000 		.4byte	0xa74
 2955 0a66 1C       		.byte	0x1c
ARM GAS  C:\Users\PCHAUT~1\AppData\Local\Temp\ccLTr2Pw.s 			page 53


 2956 0a67 08       		.uleb128 0x8
 2957 0a68 88090000 		.4byte	.LASF166
 2958 0a6c 06       		.byte	0x6
 2959 0a6d 56       		.byte	0x56
 2960 0a6e 8F030000 		.4byte	0x38f
 2961 0a72 20       		.byte	0x20
 2962 0a73 00       		.byte	0
 2963 0a74 03       		.uleb128 0x3
 2964 0a75 6E060000 		.4byte	.LASF167
 2965 0a79 06       		.byte	0x6
 2966 0a7a 42       		.byte	0x42
 2967 0a7b 7F0A0000 		.4byte	0xa7f
 2968 0a7f 0B       		.uleb128 0xb
 2969 0a80 04       		.byte	0x4
 2970 0a81 850A0000 		.4byte	0xa85
 2971 0a85 0D       		.uleb128 0xd
 2972 0a86 900A0000 		.4byte	0xa90
 2973 0a8a 0E       		.uleb128 0xe
 2974 0a8b 900A0000 		.4byte	0xa90
 2975 0a8f 00       		.byte	0
 2976 0a90 0B       		.uleb128 0xb
 2977 0a91 04       		.byte	0x4
 2978 0a92 FC090000 		.4byte	0x9fc
 2979 0a96 0B       		.uleb128 0xb
 2980 0a97 04       		.byte	0x4
 2981 0a98 B4000000 		.4byte	0xb4
 2982 0a9c 03       		.uleb128 0x3
 2983 0a9d D0060000 		.4byte	.LASF168
 2984 0aa1 06       		.byte	0x6
 2985 0aa2 64       		.byte	0x64
 2986 0aa3 FC090000 		.4byte	0x9fc
 2987 0aa7 03       		.uleb128 0x3
 2988 0aa8 D9010000 		.4byte	.LASF169
 2989 0aac 06       		.byte	0x6
 2990 0aad 71       		.byte	0x71
 2991 0aae FC090000 		.4byte	0x9fc
 2992 0ab2 0B       		.uleb128 0xb
 2993 0ab3 04       		.byte	0x4
 2994 0ab4 BF000000 		.4byte	0xbf
 2995 0ab8 1D       		.uleb128 0x1d
 2996 0ab9 01050000 		.4byte	.LASF171
 2997 0abd 07       		.byte	0x7
 2998 0abe 9A01     		.2byte	0x19a
 2999 0ac0 2C000000 		.4byte	0x2c
 3000 0ac4 00000000 		.4byte	.LFB228
 3001 0ac8 D0000000 		.4byte	.LFE228-.LFB228
 3002 0acc 01       		.uleb128 0x1
 3003 0acd 9C       		.byte	0x9c
 3004 0ace 370B0000 		.4byte	0xb37
 3005 0ad2 1E       		.uleb128 0x1e
 3006 0ad3 6F717000 		.ascii	"oqp\000"
 3007 0ad7 07       		.byte	0x7
 3008 0ad8 9A01     		.2byte	0x19a
 3009 0ada 370B0000 		.4byte	0xb37
 3010 0ade 02       		.uleb128 0x2
 3011 0adf 91       		.byte	0x91
 3012 0ae0 64       		.sleb128 -28
ARM GAS  C:\Users\PCHAUT~1\AppData\Local\Temp\ccLTr2Pw.s 			page 54


 3013 0ae1 1E       		.uleb128 0x1e
 3014 0ae2 627000   		.ascii	"bp\000"
 3015 0ae5 07       		.byte	0x7
 3016 0ae6 9A01     		.2byte	0x19a
 3017 0ae8 B20A0000 		.4byte	0xab2
 3018 0aec 02       		.uleb128 0x2
 3019 0aed 91       		.byte	0x91
 3020 0aee 60       		.sleb128 -32
 3021 0aef 1E       		.uleb128 0x1e
 3022 0af0 6E00     		.ascii	"n\000"
 3023 0af2 07       		.byte	0x7
 3024 0af3 9B01     		.2byte	0x19b
 3025 0af5 2C000000 		.4byte	0x2c
 3026 0af9 02       		.uleb128 0x2
 3027 0afa 91       		.byte	0x91
 3028 0afb 5C       		.sleb128 -36
 3029 0afc 1F       		.uleb128 0x1f
 3030 0afd 68040000 		.4byte	.LASF170
 3031 0b01 07       		.byte	0x7
 3032 0b02 9B01     		.2byte	0x19b
 3033 0b04 6E010000 		.4byte	0x16e
 3034 0b08 02       		.uleb128 0x2
 3035 0b09 91       		.byte	0x91
 3036 0b0a 58       		.sleb128 -40
 3037 0b0b 20       		.uleb128 0x20
 3038 0b0c 6E667900 		.ascii	"nfy\000"
 3039 0b10 07       		.byte	0x7
 3040 0b11 9C01     		.2byte	0x19c
 3041 0b13 740A0000 		.4byte	0xa74
 3042 0b17 02       		.uleb128 0x2
 3043 0b18 91       		.byte	0x91
 3044 0b19 70       		.sleb128 -16
 3045 0b1a 20       		.uleb128 0x20
 3046 0b1b 7700     		.ascii	"w\000"
 3047 0b1d 07       		.byte	0x7
 3048 0b1e 9D01     		.2byte	0x19d
 3049 0b20 2C000000 		.4byte	0x2c
 3050 0b24 02       		.uleb128 0x2
 3051 0b25 91       		.byte	0x91
 3052 0b26 6C       		.sleb128 -20
 3053 0b27 21       		.uleb128 0x21
 3054 0b28 37070000 		.4byte	.LASF180
 3055 0b2c 4D0B0000 		.4byte	0xb4d
 3056 0b30 05       		.uleb128 0x5
 3057 0b31 03       		.byte	0x3
 3058 0b32 00000000 		.4byte	__func__.7913
 3059 0b36 00       		.byte	0
 3060 0b37 0B       		.uleb128 0xb
 3061 0b38 04       		.byte	0x4
 3062 0b39 A70A0000 		.4byte	0xaa7
 3063 0b3d 18       		.uleb128 0x18
 3064 0b3e B3080000 		.4byte	0x8b3
 3065 0b42 4D0B0000 		.4byte	0xb4d
 3066 0b46 19       		.uleb128 0x19
 3067 0b47 37000000 		.4byte	0x37
 3068 0b4b 10       		.byte	0x10
 3069 0b4c 00       		.byte	0
ARM GAS  C:\Users\PCHAUT~1\AppData\Local\Temp\ccLTr2Pw.s 			page 55


 3070 0b4d 05       		.uleb128 0x5
 3071 0b4e 3D0B0000 		.4byte	0xb3d
 3072 0b52 1D       		.uleb128 0x1d
 3073 0b53 4E030000 		.4byte	.LASF172
 3074 0b57 07       		.byte	0x7
 3075 0b58 6E01     		.2byte	0x16e
 3076 0b5a 42010000 		.4byte	0x142
 3077 0b5e 00000000 		.4byte	.LFB227
 3078 0b62 78000000 		.4byte	.LFE227-.LFB227
 3079 0b66 01       		.uleb128 0x1
 3080 0b67 9C       		.byte	0x9c
 3081 0b68 890B0000 		.4byte	0xb89
 3082 0b6c 1E       		.uleb128 0x1e
 3083 0b6d 6F717000 		.ascii	"oqp\000"
 3084 0b71 07       		.byte	0x7
 3085 0b72 6E01     		.2byte	0x16e
 3086 0b74 370B0000 		.4byte	0xb37
 3087 0b78 02       		.uleb128 0x2
 3088 0b79 91       		.byte	0x91
 3089 0b7a 6C       		.sleb128 -20
 3090 0b7b 20       		.uleb128 0x20
 3091 0b7c 6200     		.ascii	"b\000"
 3092 0b7e 07       		.byte	0x7
 3093 0b7f 6F01     		.2byte	0x16f
 3094 0b81 B4000000 		.4byte	0xb4
 3095 0b85 02       		.uleb128 0x2
 3096 0b86 91       		.byte	0x91
 3097 0b87 73       		.sleb128 -13
 3098 0b88 00       		.byte	0
 3099 0b89 1D       		.uleb128 0x1d
 3100 0b8a 00000000 		.4byte	.LASF173
 3101 0b8e 07       		.byte	0x7
 3102 0b8f 4B01     		.2byte	0x14b
 3103 0b91 42010000 		.4byte	0x142
 3104 0b95 00000000 		.4byte	.LFB226
 3105 0b99 A0000000 		.4byte	.LFE226-.LFB226
 3106 0b9d 01       		.uleb128 0x1
 3107 0b9e 9C       		.byte	0x9c
 3108 0b9f E80B0000 		.4byte	0xbe8
 3109 0ba3 1E       		.uleb128 0x1e
 3110 0ba4 6F717000 		.ascii	"oqp\000"
 3111 0ba8 07       		.byte	0x7
 3112 0ba9 4B01     		.2byte	0x14b
 3113 0bab 370B0000 		.4byte	0xb37
 3114 0baf 02       		.uleb128 0x2
 3115 0bb0 91       		.byte	0x91
 3116 0bb1 6C       		.sleb128 -20
 3117 0bb2 1E       		.uleb128 0x1e
 3118 0bb3 6200     		.ascii	"b\000"
 3119 0bb5 07       		.byte	0x7
 3120 0bb6 4B01     		.2byte	0x14b
 3121 0bb8 B4000000 		.4byte	0xb4
 3122 0bbc 02       		.uleb128 0x2
 3123 0bbd 91       		.byte	0x91
 3124 0bbe 6B       		.sleb128 -21
 3125 0bbf 1F       		.uleb128 0x1f
 3126 0bc0 68040000 		.4byte	.LASF170
ARM GAS  C:\Users\PCHAUT~1\AppData\Local\Temp\ccLTr2Pw.s 			page 56


 3127 0bc4 07       		.byte	0x7
 3128 0bc5 4B01     		.2byte	0x14b
 3129 0bc7 6E010000 		.4byte	0x16e
 3130 0bcb 02       		.uleb128 0x2
 3131 0bcc 91       		.byte	0x91
 3132 0bcd 64       		.sleb128 -28
 3133 0bce 22       		.uleb128 0x22
 3134 0bcf 1A000000 		.4byte	.LBB11
 3135 0bd3 1A000000 		.4byte	.LBE11-.LBB11
 3136 0bd7 20       		.uleb128 0x20
 3137 0bd8 6D736700 		.ascii	"msg\000"
 3138 0bdc 07       		.byte	0x7
 3139 0bdd 4F01     		.2byte	0x14f
 3140 0bdf 42010000 		.4byte	0x142
 3141 0be3 02       		.uleb128 0x2
 3142 0be4 91       		.byte	0x91
 3143 0be5 70       		.sleb128 -16
 3144 0be6 00       		.byte	0
 3145 0be7 00       		.byte	0
 3146 0be8 23       		.uleb128 0x23
 3147 0be9 A2080000 		.4byte	.LASF174
 3148 0bed 07       		.byte	0x7
 3149 0bee 2B01     		.2byte	0x12b
 3150 0bf0 00000000 		.4byte	.LFB225
 3151 0bf4 58000000 		.4byte	.LFE225-.LFB225
 3152 0bf8 01       		.uleb128 0x1
 3153 0bf9 9C       		.byte	0x9c
 3154 0bfa 0E0C0000 		.4byte	0xc0e
 3155 0bfe 1E       		.uleb128 0x1e
 3156 0bff 6F717000 		.ascii	"oqp\000"
 3157 0c03 07       		.byte	0x7
 3158 0c04 2B01     		.2byte	0x12b
 3159 0c06 370B0000 		.4byte	0xb37
 3160 0c0a 02       		.uleb128 0x2
 3161 0c0b 91       		.byte	0x91
 3162 0c0c 6C       		.sleb128 -20
 3163 0c0d 00       		.byte	0
 3164 0c0e 23       		.uleb128 0x23
 3165 0c0f CD080000 		.4byte	.LASF175
 3166 0c13 07       		.byte	0x7
 3167 0c14 1301     		.2byte	0x113
 3168 0c16 00000000 		.4byte	.LFB224
 3169 0c1a 68000000 		.4byte	.LFE224-.LFB224
 3170 0c1e 01       		.uleb128 0x1
 3171 0c1f 9C       		.byte	0x9c
 3172 0c20 6F0C0000 		.4byte	0xc6f
 3173 0c24 1E       		.uleb128 0x1e
 3174 0c25 6F717000 		.ascii	"oqp\000"
 3175 0c29 07       		.byte	0x7
 3176 0c2a 1301     		.2byte	0x113
 3177 0c2c 370B0000 		.4byte	0xb37
 3178 0c30 02       		.uleb128 0x2
 3179 0c31 91       		.byte	0x91
 3180 0c32 6C       		.sleb128 -20
 3181 0c33 1E       		.uleb128 0x1e
 3182 0c34 627000   		.ascii	"bp\000"
 3183 0c37 07       		.byte	0x7
ARM GAS  C:\Users\PCHAUT~1\AppData\Local\Temp\ccLTr2Pw.s 			page 57


 3184 0c38 1301     		.2byte	0x113
 3185 0c3a 960A0000 		.4byte	0xa96
 3186 0c3e 02       		.uleb128 0x2
 3187 0c3f 91       		.byte	0x91
 3188 0c40 68       		.sleb128 -24
 3189 0c41 1F       		.uleb128 0x1f
 3190 0c42 3F090000 		.4byte	.LASF176
 3191 0c46 07       		.byte	0x7
 3192 0c47 1301     		.2byte	0x113
 3193 0c49 2C000000 		.4byte	0x2c
 3194 0c4d 02       		.uleb128 0x2
 3195 0c4e 91       		.byte	0x91
 3196 0c4f 64       		.sleb128 -28
 3197 0c50 1F       		.uleb128 0x1f
 3198 0c51 29000000 		.4byte	.LASF177
 3199 0c55 07       		.byte	0x7
 3200 0c56 1401     		.2byte	0x114
 3201 0c58 740A0000 		.4byte	0xa74
 3202 0c5c 02       		.uleb128 0x2
 3203 0c5d 91       		.byte	0x91
 3204 0c5e 60       		.sleb128 -32
 3205 0c5f 1F       		.uleb128 0x1f
 3206 0c60 B4030000 		.4byte	.LASF178
 3207 0c64 07       		.byte	0x7
 3208 0c65 1401     		.2byte	0x114
 3209 0c67 8F030000 		.4byte	0x38f
 3210 0c6b 02       		.uleb128 0x2
 3211 0c6c 91       		.byte	0x91
 3212 0c6d 5C       		.sleb128 -36
 3213 0c6e 00       		.byte	0
 3214 0c6f 24       		.uleb128 0x24
 3215 0c70 88000000 		.4byte	.LASF179
 3216 0c74 07       		.byte	0x7
 3217 0c75 DF       		.byte	0xdf
 3218 0c76 2C000000 		.4byte	0x2c
 3219 0c7a 00000000 		.4byte	.LFB223
 3220 0c7e D0000000 		.4byte	.LFE223-.LFB223
 3221 0c82 01       		.uleb128 0x1
 3222 0c83 9C       		.byte	0x9c
 3223 0c84 E70C0000 		.4byte	0xce7
 3224 0c88 25       		.uleb128 0x25
 3225 0c89 69717000 		.ascii	"iqp\000"
 3226 0c8d 07       		.byte	0x7
 3227 0c8e DF       		.byte	0xdf
 3228 0c8f E70C0000 		.4byte	0xce7
 3229 0c93 02       		.uleb128 0x2
 3230 0c94 91       		.byte	0x91
 3231 0c95 64       		.sleb128 -28
 3232 0c96 25       		.uleb128 0x25
 3233 0c97 627000   		.ascii	"bp\000"
 3234 0c9a 07       		.byte	0x7
 3235 0c9b DF       		.byte	0xdf
 3236 0c9c 960A0000 		.4byte	0xa96
 3237 0ca0 02       		.uleb128 0x2
 3238 0ca1 91       		.byte	0x91
 3239 0ca2 60       		.sleb128 -32
 3240 0ca3 25       		.uleb128 0x25
ARM GAS  C:\Users\PCHAUT~1\AppData\Local\Temp\ccLTr2Pw.s 			page 58


 3241 0ca4 6E00     		.ascii	"n\000"
 3242 0ca6 07       		.byte	0x7
 3243 0ca7 E0       		.byte	0xe0
 3244 0ca8 2C000000 		.4byte	0x2c
 3245 0cac 02       		.uleb128 0x2
 3246 0cad 91       		.byte	0x91
 3247 0cae 5C       		.sleb128 -36
 3248 0caf 26       		.uleb128 0x26
 3249 0cb0 68040000 		.4byte	.LASF170
 3250 0cb4 07       		.byte	0x7
 3251 0cb5 E0       		.byte	0xe0
 3252 0cb6 6E010000 		.4byte	0x16e
 3253 0cba 02       		.uleb128 0x2
 3254 0cbb 91       		.byte	0x91
 3255 0cbc 58       		.sleb128 -40
 3256 0cbd 27       		.uleb128 0x27
 3257 0cbe 6E667900 		.ascii	"nfy\000"
 3258 0cc2 07       		.byte	0x7
 3259 0cc3 E1       		.byte	0xe1
 3260 0cc4 740A0000 		.4byte	0xa74
 3261 0cc8 02       		.uleb128 0x2
 3262 0cc9 91       		.byte	0x91
 3263 0cca 70       		.sleb128 -16
 3264 0ccb 27       		.uleb128 0x27
 3265 0ccc 7200     		.ascii	"r\000"
 3266 0cce 07       		.byte	0x7
 3267 0ccf E2       		.byte	0xe2
 3268 0cd0 2C000000 		.4byte	0x2c
 3269 0cd4 02       		.uleb128 0x2
 3270 0cd5 91       		.byte	0x91
 3271 0cd6 6C       		.sleb128 -20
 3272 0cd7 21       		.uleb128 0x21
 3273 0cd8 37070000 		.4byte	.LASF180
 3274 0cdc FD0C0000 		.4byte	0xcfd
 3275 0ce0 05       		.uleb128 0x5
 3276 0ce1 03       		.byte	0x3
 3277 0ce2 00000000 		.4byte	__func__.7877
 3278 0ce6 00       		.byte	0
 3279 0ce7 0B       		.uleb128 0xb
 3280 0ce8 04       		.byte	0x4
 3281 0ce9 9C0A0000 		.4byte	0xa9c
 3282 0ced 18       		.uleb128 0x18
 3283 0cee B3080000 		.4byte	0x8b3
 3284 0cf2 FD0C0000 		.4byte	0xcfd
 3285 0cf6 19       		.uleb128 0x19
 3286 0cf7 37000000 		.4byte	0x37
 3287 0cfb 0F       		.byte	0xf
 3288 0cfc 00       		.byte	0
 3289 0cfd 05       		.uleb128 0x5
 3290 0cfe ED0C0000 		.4byte	0xced
 3291 0d02 24       		.uleb128 0x24
 3292 0d03 C2090000 		.4byte	.LASF181
 3293 0d07 07       		.byte	0x7
 3294 0d08 AD       		.byte	0xad
 3295 0d09 42010000 		.4byte	0x142
 3296 0d0d 00000000 		.4byte	.LFB222
 3297 0d11 9C000000 		.4byte	.LFE222-.LFB222
ARM GAS  C:\Users\PCHAUT~1\AppData\Local\Temp\ccLTr2Pw.s 			page 59


 3298 0d15 01       		.uleb128 0x1
 3299 0d16 9C       		.byte	0x9c
 3300 0d17 5C0D0000 		.4byte	0xd5c
 3301 0d1b 25       		.uleb128 0x25
 3302 0d1c 69717000 		.ascii	"iqp\000"
 3303 0d20 07       		.byte	0x7
 3304 0d21 AD       		.byte	0xad
 3305 0d22 E70C0000 		.4byte	0xce7
 3306 0d26 02       		.uleb128 0x2
 3307 0d27 91       		.byte	0x91
 3308 0d28 64       		.sleb128 -28
 3309 0d29 26       		.uleb128 0x26
 3310 0d2a 68040000 		.4byte	.LASF170
 3311 0d2e 07       		.byte	0x7
 3312 0d2f AD       		.byte	0xad
 3313 0d30 6E010000 		.4byte	0x16e
 3314 0d34 02       		.uleb128 0x2
 3315 0d35 91       		.byte	0x91
 3316 0d36 60       		.sleb128 -32
 3317 0d37 27       		.uleb128 0x27
 3318 0d38 6200     		.ascii	"b\000"
 3319 0d3a 07       		.byte	0x7
 3320 0d3b AE       		.byte	0xae
 3321 0d3c B4000000 		.4byte	0xb4
 3322 0d40 02       		.uleb128 0x2
 3323 0d41 91       		.byte	0x91
 3324 0d42 6F       		.sleb128 -17
 3325 0d43 22       		.uleb128 0x22
 3326 0d44 24000000 		.4byte	.LBB10
 3327 0d48 1A000000 		.4byte	.LBE10-.LBB10
 3328 0d4c 27       		.uleb128 0x27
 3329 0d4d 6D736700 		.ascii	"msg\000"
 3330 0d51 07       		.byte	0x7
 3331 0d52 B6       		.byte	0xb6
 3332 0d53 42010000 		.4byte	0x142
 3333 0d57 02       		.uleb128 0x2
 3334 0d58 91       		.byte	0x91
 3335 0d59 70       		.sleb128 -16
 3336 0d5a 00       		.byte	0
 3337 0d5b 00       		.byte	0
 3338 0d5c 24       		.uleb128 0x24
 3339 0d5d C9030000 		.4byte	.LASF182
 3340 0d61 07       		.byte	0x7
 3341 0d62 86       		.byte	0x86
 3342 0d63 42010000 		.4byte	0x142
 3343 0d67 00000000 		.4byte	.LFB221
 3344 0d6b 7C000000 		.4byte	.LFE221-.LFB221
 3345 0d6f 01       		.uleb128 0x1
 3346 0d70 9C       		.byte	0x9c
 3347 0d71 900D0000 		.4byte	0xd90
 3348 0d75 25       		.uleb128 0x25
 3349 0d76 69717000 		.ascii	"iqp\000"
 3350 0d7a 07       		.byte	0x7
 3351 0d7b 86       		.byte	0x86
 3352 0d7c E70C0000 		.4byte	0xce7
 3353 0d80 02       		.uleb128 0x2
 3354 0d81 91       		.byte	0x91
ARM GAS  C:\Users\PCHAUT~1\AppData\Local\Temp\ccLTr2Pw.s 			page 60


 3355 0d82 6C       		.sleb128 -20
 3356 0d83 25       		.uleb128 0x25
 3357 0d84 6200     		.ascii	"b\000"
 3358 0d86 07       		.byte	0x7
 3359 0d87 86       		.byte	0x86
 3360 0d88 B4000000 		.4byte	0xb4
 3361 0d8c 02       		.uleb128 0x2
 3362 0d8d 91       		.byte	0x91
 3363 0d8e 6B       		.sleb128 -21
 3364 0d8f 00       		.byte	0
 3365 0d90 28       		.uleb128 0x28
 3366 0d91 BB080000 		.4byte	.LASF183
 3367 0d95 07       		.byte	0x7
 3368 0d96 6F       		.byte	0x6f
 3369 0d97 00000000 		.4byte	.LFB220
 3370 0d9b 4C000000 		.4byte	.LFE220-.LFB220
 3371 0d9f 01       		.uleb128 0x1
 3372 0da0 9C       		.byte	0x9c
 3373 0da1 B40D0000 		.4byte	0xdb4
 3374 0da5 25       		.uleb128 0x25
 3375 0da6 69717000 		.ascii	"iqp\000"
 3376 0daa 07       		.byte	0x7
 3377 0dab 6F       		.byte	0x6f
 3378 0dac E70C0000 		.4byte	0xce7
 3379 0db0 02       		.uleb128 0x2
 3380 0db1 91       		.byte	0x91
 3381 0db2 6C       		.sleb128 -20
 3382 0db3 00       		.byte	0
 3383 0db4 28       		.uleb128 0x28
 3384 0db5 C6000000 		.4byte	.LASF184
 3385 0db9 07       		.byte	0x7
 3386 0dba 57       		.byte	0x57
 3387 0dbb 00000000 		.4byte	.LFB219
 3388 0dbf 68000000 		.4byte	.LFE219-.LFB219
 3389 0dc3 01       		.uleb128 0x1
 3390 0dc4 9C       		.byte	0x9c
 3391 0dc5 0F0E0000 		.4byte	0xe0f
 3392 0dc9 25       		.uleb128 0x25
 3393 0dca 69717000 		.ascii	"iqp\000"
 3394 0dce 07       		.byte	0x7
 3395 0dcf 57       		.byte	0x57
 3396 0dd0 E70C0000 		.4byte	0xce7
 3397 0dd4 02       		.uleb128 0x2
 3398 0dd5 91       		.byte	0x91
 3399 0dd6 6C       		.sleb128 -20
 3400 0dd7 25       		.uleb128 0x25
 3401 0dd8 627000   		.ascii	"bp\000"
 3402 0ddb 07       		.byte	0x7
 3403 0ddc 57       		.byte	0x57
 3404 0ddd 960A0000 		.4byte	0xa96
 3405 0de1 02       		.uleb128 0x2
 3406 0de2 91       		.byte	0x91
 3407 0de3 68       		.sleb128 -24
 3408 0de4 26       		.uleb128 0x26
 3409 0de5 3F090000 		.4byte	.LASF176
 3410 0de9 07       		.byte	0x7
 3411 0dea 57       		.byte	0x57
ARM GAS  C:\Users\PCHAUT~1\AppData\Local\Temp\ccLTr2Pw.s 			page 61


 3412 0deb 2C000000 		.4byte	0x2c
 3413 0def 02       		.uleb128 0x2
 3414 0df0 91       		.byte	0x91
 3415 0df1 64       		.sleb128 -28
 3416 0df2 26       		.uleb128 0x26
 3417 0df3 1B070000 		.4byte	.LASF185
 3418 0df7 07       		.byte	0x7
 3419 0df8 58       		.byte	0x58
 3420 0df9 740A0000 		.4byte	0xa74
 3421 0dfd 02       		.uleb128 0x2
 3422 0dfe 91       		.byte	0x91
 3423 0dff 60       		.sleb128 -32
 3424 0e00 26       		.uleb128 0x26
 3425 0e01 B4030000 		.4byte	.LASF178
 3426 0e05 07       		.byte	0x7
 3427 0e06 58       		.byte	0x58
 3428 0e07 8F030000 		.4byte	0x38f
 3429 0e0b 02       		.uleb128 0x2
 3430 0e0c 91       		.byte	0x91
 3431 0e0d 5C       		.sleb128 -36
 3432 0e0e 00       		.byte	0
 3433 0e0f 29       		.uleb128 0x29
 3434 0e10 8F060000 		.4byte	.LASF187
 3435 0e14 06       		.byte	0x6
 3436 0e15 9301     		.2byte	0x193
 3437 0e17 390E0000 		.4byte	0xe39
 3438 0e1b 00000000 		.4byte	.LFB217
 3439 0e1f 38000000 		.4byte	.LFE217-.LFB217
 3440 0e23 01       		.uleb128 0x1
 3441 0e24 9C       		.byte	0x9c
 3442 0e25 390E0000 		.4byte	0xe39
 3443 0e29 1E       		.uleb128 0x1e
 3444 0e2a 6F717000 		.ascii	"oqp\000"
 3445 0e2e 06       		.byte	0x6
 3446 0e2f 9301     		.2byte	0x193
 3447 0e31 370B0000 		.4byte	0xb37
 3448 0e35 02       		.uleb128 0x2
 3449 0e36 91       		.byte	0x91
 3450 0e37 6C       		.sleb128 -20
 3451 0e38 00       		.byte	0
 3452 0e39 04       		.uleb128 0x4
 3453 0e3a 01       		.byte	0x1
 3454 0e3b 02       		.byte	0x2
 3455 0e3c B4060000 		.4byte	.LASF186
 3456 0e40 29       		.uleb128 0x29
 3457 0e41 44090000 		.4byte	.LASF188
 3458 0e45 06       		.byte	0x6
 3459 0e46 8201     		.2byte	0x182
 3460 0e48 390E0000 		.4byte	0xe39
 3461 0e4c 00000000 		.4byte	.LFB216
 3462 0e50 4C000000 		.4byte	.LFE216-.LFB216
 3463 0e54 01       		.uleb128 0x1
 3464 0e55 9C       		.byte	0x9c
 3465 0e56 6A0E0000 		.4byte	0xe6a
 3466 0e5a 1E       		.uleb128 0x1e
 3467 0e5b 6F717000 		.ascii	"oqp\000"
 3468 0e5f 06       		.byte	0x6
ARM GAS  C:\Users\PCHAUT~1\AppData\Local\Temp\ccLTr2Pw.s 			page 62


 3469 0e60 8201     		.2byte	0x182
 3470 0e62 370B0000 		.4byte	0xb37
 3471 0e66 02       		.uleb128 0x2
 3472 0e67 91       		.byte	0x91
 3473 0e68 6C       		.sleb128 -20
 3474 0e69 00       		.byte	0
 3475 0e6a 29       		.uleb128 0x29
 3476 0e6b D3070000 		.4byte	.LASF189
 3477 0e6f 06       		.byte	0x6
 3478 0e70 4001     		.2byte	0x140
 3479 0e72 390E0000 		.4byte	0xe39
 3480 0e76 00000000 		.4byte	.LFB212
 3481 0e7a 4C000000 		.4byte	.LFE212-.LFB212
 3482 0e7e 01       		.uleb128 0x1
 3483 0e7f 9C       		.byte	0x9c
 3484 0e80 940E0000 		.4byte	0xe94
 3485 0e84 1E       		.uleb128 0x1e
 3486 0e85 69717000 		.ascii	"iqp\000"
 3487 0e89 06       		.byte	0x6
 3488 0e8a 4001     		.2byte	0x140
 3489 0e8c E70C0000 		.4byte	0xce7
 3490 0e90 02       		.uleb128 0x2
 3491 0e91 91       		.byte	0x91
 3492 0e92 6C       		.sleb128 -20
 3493 0e93 00       		.byte	0
 3494 0e94 29       		.uleb128 0x29
 3495 0e95 16060000 		.4byte	.LASF190
 3496 0e99 06       		.byte	0x6
 3497 0e9a 2F01     		.2byte	0x12f
 3498 0e9c 390E0000 		.4byte	0xe39
 3499 0ea0 00000000 		.4byte	.LFB211
 3500 0ea4 38000000 		.4byte	.LFE211-.LFB211
 3501 0ea8 01       		.uleb128 0x1
 3502 0ea9 9C       		.byte	0x9c
 3503 0eaa BE0E0000 		.4byte	0xebe
 3504 0eae 1E       		.uleb128 0x1e
 3505 0eaf 69717000 		.ascii	"iqp\000"
 3506 0eb3 06       		.byte	0x6
 3507 0eb4 2F01     		.2byte	0x12f
 3508 0eb6 E70C0000 		.4byte	0xce7
 3509 0eba 02       		.uleb128 0x2
 3510 0ebb 91       		.byte	0x91
 3511 0ebc 6C       		.sleb128 -20
 3512 0ebd 00       		.byte	0
 3513 0ebe 2A       		.uleb128 0x2a
 3514 0ebf 69050000 		.4byte	.LASF191
 3515 0ec3 05       		.byte	0x5
 3516 0ec4 1601     		.2byte	0x116
 3517 0ec6 00000000 		.4byte	.LFB173
 3518 0eca 2C000000 		.4byte	.LFE173-.LFB173
 3519 0ece 01       		.uleb128 0x1
 3520 0ecf 9C       		.byte	0x9c
 3521 0ed0 E40E0000 		.4byte	0xee4
 3522 0ed4 1E       		.uleb128 0x1e
 3523 0ed5 74717000 		.ascii	"tqp\000"
 3524 0ed9 05       		.byte	0x5
 3525 0eda 1601     		.2byte	0x116
ARM GAS  C:\Users\PCHAUT~1\AppData\Local\Temp\ccLTr2Pw.s 			page 63


 3526 0edc E40E0000 		.4byte	0xee4
 3527 0ee0 02       		.uleb128 0x2
 3528 0ee1 91       		.byte	0x91
 3529 0ee2 6C       		.sleb128 -20
 3530 0ee3 00       		.byte	0
 3531 0ee4 0B       		.uleb128 0xb
 3532 0ee5 04       		.byte	0x4
 3533 0ee6 DC020000 		.4byte	0x2dc
 3534 0eea 2A       		.uleb128 0x2a
 3535 0eeb 71090000 		.4byte	.LASF192
 3536 0eef 04       		.byte	0x4
 3537 0ef0 6601     		.2byte	0x166
 3538 0ef2 00000000 		.4byte	.LFB146
 3539 0ef6 58000000 		.4byte	.LFE146-.LFB146
 3540 0efa 01       		.uleb128 0x1
 3541 0efb 9C       		.byte	0x9c
 3542 0efc 100F0000 		.4byte	0xf10
 3543 0f00 21       		.uleb128 0x21
 3544 0f01 37070000 		.4byte	.LASF180
 3545 0f05 200F0000 		.4byte	0xf20
 3546 0f09 05       		.uleb128 0x5
 3547 0f0a 03       		.byte	0x3
 3548 0f0b 00000000 		.4byte	__func__.7153
 3549 0f0f 00       		.byte	0
 3550 0f10 18       		.uleb128 0x18
 3551 0f11 B3080000 		.4byte	0x8b3
 3552 0f15 200F0000 		.4byte	0xf20
 3553 0f19 19       		.uleb128 0x19
 3554 0f1a 37000000 		.4byte	0x37
 3555 0f1e 0B       		.byte	0xb
 3556 0f1f 00       		.byte	0
 3557 0f20 05       		.uleb128 0x5
 3558 0f21 100F0000 		.4byte	0xf10
 3559 0f25 2B       		.uleb128 0x2b
 3560 0f26 48070000 		.4byte	.LASF199
 3561 0f2a 04       		.byte	0x4
 3562 0f2b 5A01     		.2byte	0x15a
 3563 0f2d 00000000 		.4byte	.LFB145
 3564 0f31 30000000 		.4byte	.LFE145-.LFB145
 3565 0f35 01       		.uleb128 0x1
 3566 0f36 9C       		.byte	0x9c
 3567 0f37 2A       		.uleb128 0x2a
 3568 0f38 98000000 		.4byte	.LASF193
 3569 0f3c 03       		.byte	0x3
 3570 0f3d 5A02     		.2byte	0x25a
 3571 0f3f 00000000 		.4byte	.LFB128
 3572 0f43 34000000 		.4byte	.LFE128-.LFB128
 3573 0f47 01       		.uleb128 0x1
 3574 0f48 9C       		.byte	0x9c
 3575 0f49 5D0F0000 		.4byte	0xf5d
 3576 0f4d 1E       		.uleb128 0x1e
 3577 0f4e 74717000 		.ascii	"tqp\000"
 3578 0f52 03       		.byte	0x3
 3579 0f53 5A02     		.2byte	0x25a
 3580 0f55 E40E0000 		.4byte	0xee4
 3581 0f59 02       		.uleb128 0x2
 3582 0f5a 91       		.byte	0x91
ARM GAS  C:\Users\PCHAUT~1\AppData\Local\Temp\ccLTr2Pw.s 			page 64


 3583 0f5b 6C       		.sleb128 -20
 3584 0f5c 00       		.byte	0
 3585 0f5d 2A       		.uleb128 0x2a
 3586 0f5e C3010000 		.4byte	.LASF194
 3587 0f62 01       		.byte	0x1
 3588 0f63 CA01     		.2byte	0x1ca
 3589 0f65 00000000 		.4byte	.LFB117
 3590 0f69 30000000 		.4byte	.LFE117-.LFB117
 3591 0f6d 01       		.uleb128 0x1
 3592 0f6e 9C       		.byte	0x9c
 3593 0f6f 8D0F0000 		.4byte	0xf8d
 3594 0f73 2C       		.uleb128 0x2c
 3595 0f74 BD0F0000 		.4byte	0xfbd
 3596 0f78 0E000000 		.4byte	.LBB8
 3597 0f7c 06000000 		.4byte	.LBE8-.LBB8
 3598 0f80 01       		.byte	0x1
 3599 0f81 CD01     		.2byte	0x1cd
 3600 0f83 2D       		.uleb128 0x2d
 3601 0f84 C60F0000 		.4byte	0xfc6
 3602 0f88 02       		.uleb128 0x2
 3603 0f89 91       		.byte	0x91
 3604 0f8a 70       		.sleb128 -16
 3605 0f8b 00       		.byte	0
 3606 0f8c 00       		.byte	0
 3607 0f8d 2A       		.uleb128 0x2a
 3608 0f8e A3000000 		.4byte	.LASF195
 3609 0f92 01       		.byte	0x1
 3610 0f93 BC01     		.2byte	0x1bc
 3611 0f95 00000000 		.4byte	.LFB116
 3612 0f99 30000000 		.4byte	.LFE116-.LFB116
 3613 0f9d 01       		.uleb128 0x1
 3614 0f9e 9C       		.byte	0x9c
 3615 0f9f BD0F0000 		.4byte	0xfbd
 3616 0fa3 2C       		.uleb128 0x2c
 3617 0fa4 BD0F0000 		.4byte	0xfbd
 3618 0fa8 0E000000 		.4byte	.LBB6
 3619 0fac 06000000 		.4byte	.LBE6-.LBB6
 3620 0fb0 01       		.byte	0x1
 3621 0fb1 BF01     		.2byte	0x1bf
 3622 0fb3 2D       		.uleb128 0x2d
 3623 0fb4 C60F0000 		.4byte	0xfc6
 3624 0fb8 02       		.uleb128 0x2
 3625 0fb9 91       		.byte	0x91
 3626 0fba 70       		.sleb128 -16
 3627 0fbb 00       		.byte	0
 3628 0fbc 00       		.byte	0
 3629 0fbd 2E       		.uleb128 0x2e
 3630 0fbe 83080000 		.4byte	.LASF200
 3631 0fc2 02       		.byte	0x2
 3632 0fc3 2002     		.2byte	0x220
 3633 0fc5 03       		.byte	0x3
 3634 0fc6 2F       		.uleb128 0x2f
 3635 0fc7 E0030000 		.4byte	.LASF201
 3636 0fcb 02       		.byte	0x2
 3637 0fcc 2002     		.2byte	0x220
 3638 0fce DF000000 		.4byte	0xdf
 3639 0fd2 00       		.byte	0
ARM GAS  C:\Users\PCHAUT~1\AppData\Local\Temp\ccLTr2Pw.s 			page 65


 3640 0fd3 00       		.byte	0
 3641              		.section	.debug_abbrev,"",%progbits
 3642              	.Ldebug_abbrev0:
 3643 0000 01       		.uleb128 0x1
 3644 0001 11       		.uleb128 0x11
 3645 0002 01       		.byte	0x1
 3646 0003 25       		.uleb128 0x25
 3647 0004 0E       		.uleb128 0xe
 3648 0005 13       		.uleb128 0x13
 3649 0006 0B       		.uleb128 0xb
 3650 0007 03       		.uleb128 0x3
 3651 0008 0E       		.uleb128 0xe
 3652 0009 1B       		.uleb128 0x1b
 3653 000a 0E       		.uleb128 0xe
 3654 000b 55       		.uleb128 0x55
 3655 000c 17       		.uleb128 0x17
 3656 000d 11       		.uleb128 0x11
 3657 000e 01       		.uleb128 0x1
 3658 000f 10       		.uleb128 0x10
 3659 0010 17       		.uleb128 0x17
 3660 0011 00       		.byte	0
 3661 0012 00       		.byte	0
 3662 0013 02       		.uleb128 0x2
 3663 0014 24       		.uleb128 0x24
 3664 0015 00       		.byte	0
 3665 0016 0B       		.uleb128 0xb
 3666 0017 0B       		.uleb128 0xb
 3667 0018 3E       		.uleb128 0x3e
 3668 0019 0B       		.uleb128 0xb
 3669 001a 03       		.uleb128 0x3
 3670 001b 08       		.uleb128 0x8
 3671 001c 00       		.byte	0
 3672 001d 00       		.byte	0
 3673 001e 03       		.uleb128 0x3
 3674 001f 16       		.uleb128 0x16
 3675 0020 00       		.byte	0
 3676 0021 03       		.uleb128 0x3
 3677 0022 0E       		.uleb128 0xe
 3678 0023 3A       		.uleb128 0x3a
 3679 0024 0B       		.uleb128 0xb
 3680 0025 3B       		.uleb128 0x3b
 3681 0026 0B       		.uleb128 0xb
 3682 0027 49       		.uleb128 0x49
 3683 0028 13       		.uleb128 0x13
 3684 0029 00       		.byte	0
 3685 002a 00       		.byte	0
 3686 002b 04       		.uleb128 0x4
 3687 002c 24       		.uleb128 0x24
 3688 002d 00       		.byte	0
 3689 002e 0B       		.uleb128 0xb
 3690 002f 0B       		.uleb128 0xb
 3691 0030 3E       		.uleb128 0x3e
 3692 0031 0B       		.uleb128 0xb
 3693 0032 03       		.uleb128 0x3
 3694 0033 0E       		.uleb128 0xe
 3695 0034 00       		.byte	0
 3696 0035 00       		.byte	0
ARM GAS  C:\Users\PCHAUT~1\AppData\Local\Temp\ccLTr2Pw.s 			page 66


 3697 0036 05       		.uleb128 0x5
 3698 0037 26       		.uleb128 0x26
 3699 0038 00       		.byte	0
 3700 0039 49       		.uleb128 0x49
 3701 003a 13       		.uleb128 0x13
 3702 003b 00       		.byte	0
 3703 003c 00       		.byte	0
 3704 003d 06       		.uleb128 0x6
 3705 003e 35       		.uleb128 0x35
 3706 003f 00       		.byte	0
 3707 0040 49       		.uleb128 0x49
 3708 0041 13       		.uleb128 0x13
 3709 0042 00       		.byte	0
 3710 0043 00       		.byte	0
 3711 0044 07       		.uleb128 0x7
 3712 0045 13       		.uleb128 0x13
 3713 0046 01       		.byte	0x1
 3714 0047 03       		.uleb128 0x3
 3715 0048 0E       		.uleb128 0xe
 3716 0049 0B       		.uleb128 0xb
 3717 004a 0B       		.uleb128 0xb
 3718 004b 3A       		.uleb128 0x3a
 3719 004c 0B       		.uleb128 0xb
 3720 004d 3B       		.uleb128 0x3b
 3721 004e 0B       		.uleb128 0xb
 3722 004f 01       		.uleb128 0x1
 3723 0050 13       		.uleb128 0x13
 3724 0051 00       		.byte	0
 3725 0052 00       		.byte	0
 3726 0053 08       		.uleb128 0x8
 3727 0054 0D       		.uleb128 0xd
 3728 0055 00       		.byte	0
 3729 0056 03       		.uleb128 0x3
 3730 0057 0E       		.uleb128 0xe
 3731 0058 3A       		.uleb128 0x3a
 3732 0059 0B       		.uleb128 0xb
 3733 005a 3B       		.uleb128 0x3b
 3734 005b 0B       		.uleb128 0xb
 3735 005c 49       		.uleb128 0x49
 3736 005d 13       		.uleb128 0x13
 3737 005e 38       		.uleb128 0x38
 3738 005f 0B       		.uleb128 0xb
 3739 0060 00       		.byte	0
 3740 0061 00       		.byte	0
 3741 0062 09       		.uleb128 0x9
 3742 0063 0D       		.uleb128 0xd
 3743 0064 00       		.byte	0
 3744 0065 03       		.uleb128 0x3
 3745 0066 08       		.uleb128 0x8
 3746 0067 3A       		.uleb128 0x3a
 3747 0068 0B       		.uleb128 0xb
 3748 0069 3B       		.uleb128 0x3b
 3749 006a 05       		.uleb128 0x5
 3750 006b 49       		.uleb128 0x49
 3751 006c 13       		.uleb128 0x13
 3752 006d 38       		.uleb128 0x38
 3753 006e 0B       		.uleb128 0xb
ARM GAS  C:\Users\PCHAUT~1\AppData\Local\Temp\ccLTr2Pw.s 			page 67


 3754 006f 00       		.byte	0
 3755 0070 00       		.byte	0
 3756 0071 0A       		.uleb128 0xa
 3757 0072 0D       		.uleb128 0xd
 3758 0073 00       		.byte	0
 3759 0074 03       		.uleb128 0x3
 3760 0075 0E       		.uleb128 0xe
 3761 0076 3A       		.uleb128 0x3a
 3762 0077 0B       		.uleb128 0xb
 3763 0078 3B       		.uleb128 0x3b
 3764 0079 05       		.uleb128 0x5
 3765 007a 49       		.uleb128 0x49
 3766 007b 13       		.uleb128 0x13
 3767 007c 38       		.uleb128 0x38
 3768 007d 0B       		.uleb128 0xb
 3769 007e 00       		.byte	0
 3770 007f 00       		.byte	0
 3771 0080 0B       		.uleb128 0xb
 3772 0081 0F       		.uleb128 0xf
 3773 0082 00       		.byte	0
 3774 0083 0B       		.uleb128 0xb
 3775 0084 0B       		.uleb128 0xb
 3776 0085 49       		.uleb128 0x49
 3777 0086 13       		.uleb128 0x13
 3778 0087 00       		.byte	0
 3779 0088 00       		.byte	0
 3780 0089 0C       		.uleb128 0xc
 3781 008a 13       		.uleb128 0x13
 3782 008b 01       		.byte	0x1
 3783 008c 03       		.uleb128 0x3
 3784 008d 0E       		.uleb128 0xe
 3785 008e 0B       		.uleb128 0xb
 3786 008f 0B       		.uleb128 0xb
 3787 0090 3A       		.uleb128 0x3a
 3788 0091 0B       		.uleb128 0xb
 3789 0092 3B       		.uleb128 0x3b
 3790 0093 05       		.uleb128 0x5
 3791 0094 01       		.uleb128 0x1
 3792 0095 13       		.uleb128 0x13
 3793 0096 00       		.byte	0
 3794 0097 00       		.byte	0
 3795 0098 0D       		.uleb128 0xd
 3796 0099 15       		.uleb128 0x15
 3797 009a 01       		.byte	0x1
 3798 009b 27       		.uleb128 0x27
 3799 009c 19       		.uleb128 0x19
 3800 009d 01       		.uleb128 0x1
 3801 009e 13       		.uleb128 0x13
 3802 009f 00       		.byte	0
 3803 00a0 00       		.byte	0
 3804 00a1 0E       		.uleb128 0xe
 3805 00a2 05       		.uleb128 0x5
 3806 00a3 00       		.byte	0
 3807 00a4 49       		.uleb128 0x49
 3808 00a5 13       		.uleb128 0x13
 3809 00a6 00       		.byte	0
 3810 00a7 00       		.byte	0
ARM GAS  C:\Users\PCHAUT~1\AppData\Local\Temp\ccLTr2Pw.s 			page 68


 3811 00a8 0F       		.uleb128 0xf
 3812 00a9 0F       		.uleb128 0xf
 3813 00aa 00       		.byte	0
 3814 00ab 0B       		.uleb128 0xb
 3815 00ac 0B       		.uleb128 0xb
 3816 00ad 00       		.byte	0
 3817 00ae 00       		.byte	0
 3818 00af 10       		.uleb128 0x10
 3819 00b0 13       		.uleb128 0x13
 3820 00b1 01       		.byte	0x1
 3821 00b2 03       		.uleb128 0x3
 3822 00b3 0E       		.uleb128 0xe
 3823 00b4 0B       		.uleb128 0xb
 3824 00b5 05       		.uleb128 0x5
 3825 00b6 3A       		.uleb128 0x3a
 3826 00b7 0B       		.uleb128 0xb
 3827 00b8 3B       		.uleb128 0x3b
 3828 00b9 05       		.uleb128 0x5
 3829 00ba 01       		.uleb128 0x1
 3830 00bb 13       		.uleb128 0x13
 3831 00bc 00       		.byte	0
 3832 00bd 00       		.byte	0
 3833 00be 11       		.uleb128 0x11
 3834 00bf 0D       		.uleb128 0xd
 3835 00c0 00       		.byte	0
 3836 00c1 03       		.uleb128 0x3
 3837 00c2 0E       		.uleb128 0xe
 3838 00c3 3A       		.uleb128 0x3a
 3839 00c4 0B       		.uleb128 0xb
 3840 00c5 3B       		.uleb128 0x3b
 3841 00c6 05       		.uleb128 0x5
 3842 00c7 49       		.uleb128 0x49
 3843 00c8 13       		.uleb128 0x13
 3844 00c9 38       		.uleb128 0x38
 3845 00ca 05       		.uleb128 0x5
 3846 00cb 00       		.byte	0
 3847 00cc 00       		.byte	0
 3848 00cd 12       		.uleb128 0x12
 3849 00ce 0D       		.uleb128 0xd
 3850 00cf 00       		.byte	0
 3851 00d0 03       		.uleb128 0x3
 3852 00d1 08       		.uleb128 0x8
 3853 00d2 3A       		.uleb128 0x3a
 3854 00d3 0B       		.uleb128 0xb
 3855 00d4 3B       		.uleb128 0x3b
 3856 00d5 05       		.uleb128 0x5
 3857 00d6 49       		.uleb128 0x49
 3858 00d7 13       		.uleb128 0x13
 3859 00d8 38       		.uleb128 0x38
 3860 00d9 05       		.uleb128 0x5
 3861 00da 00       		.byte	0
 3862 00db 00       		.byte	0
 3863 00dc 13       		.uleb128 0x13
 3864 00dd 34       		.uleb128 0x34
 3865 00de 00       		.byte	0
 3866 00df 03       		.uleb128 0x3
 3867 00e0 0E       		.uleb128 0xe
ARM GAS  C:\Users\PCHAUT~1\AppData\Local\Temp\ccLTr2Pw.s 			page 69


 3868 00e1 3A       		.uleb128 0x3a
 3869 00e2 0B       		.uleb128 0xb
 3870 00e3 3B       		.uleb128 0x3b
 3871 00e4 05       		.uleb128 0x5
 3872 00e5 49       		.uleb128 0x49
 3873 00e6 13       		.uleb128 0x13
 3874 00e7 3F       		.uleb128 0x3f
 3875 00e8 19       		.uleb128 0x19
 3876 00e9 3C       		.uleb128 0x3c
 3877 00ea 19       		.uleb128 0x19
 3878 00eb 00       		.byte	0
 3879 00ec 00       		.byte	0
 3880 00ed 14       		.uleb128 0x14
 3881 00ee 34       		.uleb128 0x34
 3882 00ef 00       		.byte	0
 3883 00f0 03       		.uleb128 0x3
 3884 00f1 0E       		.uleb128 0xe
 3885 00f2 3A       		.uleb128 0x3a
 3886 00f3 0B       		.uleb128 0xb
 3887 00f4 3B       		.uleb128 0x3b
 3888 00f5 0B       		.uleb128 0xb
 3889 00f6 49       		.uleb128 0x49
 3890 00f7 13       		.uleb128 0x13
 3891 00f8 3F       		.uleb128 0x3f
 3892 00f9 19       		.uleb128 0x19
 3893 00fa 3C       		.uleb128 0x3c
 3894 00fb 19       		.uleb128 0x19
 3895 00fc 00       		.byte	0
 3896 00fd 00       		.byte	0
 3897 00fe 15       		.uleb128 0x15
 3898 00ff 0D       		.uleb128 0xd
 3899 0100 00       		.byte	0
 3900 0101 03       		.uleb128 0x3
 3901 0102 08       		.uleb128 0x8
 3902 0103 3A       		.uleb128 0x3a
 3903 0104 0B       		.uleb128 0xb
 3904 0105 3B       		.uleb128 0x3b
 3905 0106 0B       		.uleb128 0xb
 3906 0107 49       		.uleb128 0x49
 3907 0108 13       		.uleb128 0x13
 3908 0109 38       		.uleb128 0x38
 3909 010a 0B       		.uleb128 0xb
 3910 010b 00       		.byte	0
 3911 010c 00       		.byte	0
 3912 010d 16       		.uleb128 0x16
 3913 010e 13       		.uleb128 0x13
 3914 010f 01       		.byte	0x1
 3915 0110 0B       		.uleb128 0xb
 3916 0111 0B       		.uleb128 0xb
 3917 0112 3A       		.uleb128 0x3a
 3918 0113 0B       		.uleb128 0xb
 3919 0114 3B       		.uleb128 0x3b
 3920 0115 0B       		.uleb128 0xb
 3921 0116 01       		.uleb128 0x1
 3922 0117 13       		.uleb128 0x13
 3923 0118 00       		.byte	0
 3924 0119 00       		.byte	0
ARM GAS  C:\Users\PCHAUT~1\AppData\Local\Temp\ccLTr2Pw.s 			page 70


 3925 011a 17       		.uleb128 0x17
 3926 011b 13       		.uleb128 0x13
 3927 011c 01       		.byte	0x1
 3928 011d 0B       		.uleb128 0xb
 3929 011e 05       		.uleb128 0x5
 3930 011f 3A       		.uleb128 0x3a
 3931 0120 0B       		.uleb128 0xb
 3932 0121 3B       		.uleb128 0x3b
 3933 0122 0B       		.uleb128 0xb
 3934 0123 01       		.uleb128 0x1
 3935 0124 13       		.uleb128 0x13
 3936 0125 00       		.byte	0
 3937 0126 00       		.byte	0
 3938 0127 18       		.uleb128 0x18
 3939 0128 01       		.uleb128 0x1
 3940 0129 01       		.byte	0x1
 3941 012a 49       		.uleb128 0x49
 3942 012b 13       		.uleb128 0x13
 3943 012c 01       		.uleb128 0x1
 3944 012d 13       		.uleb128 0x13
 3945 012e 00       		.byte	0
 3946 012f 00       		.byte	0
 3947 0130 19       		.uleb128 0x19
 3948 0131 21       		.uleb128 0x21
 3949 0132 00       		.byte	0
 3950 0133 49       		.uleb128 0x49
 3951 0134 13       		.uleb128 0x13
 3952 0135 2F       		.uleb128 0x2f
 3953 0136 0B       		.uleb128 0xb
 3954 0137 00       		.byte	0
 3955 0138 00       		.byte	0
 3956 0139 1A       		.uleb128 0x1a
 3957 013a 17       		.uleb128 0x17
 3958 013b 01       		.byte	0x1
 3959 013c 0B       		.uleb128 0xb
 3960 013d 0B       		.uleb128 0xb
 3961 013e 3A       		.uleb128 0x3a
 3962 013f 0B       		.uleb128 0xb
 3963 0140 3B       		.uleb128 0x3b
 3964 0141 0B       		.uleb128 0xb
 3965 0142 01       		.uleb128 0x1
 3966 0143 13       		.uleb128 0x13
 3967 0144 00       		.byte	0
 3968 0145 00       		.byte	0
 3969 0146 1B       		.uleb128 0x1b
 3970 0147 0D       		.uleb128 0xd
 3971 0148 00       		.byte	0
 3972 0149 03       		.uleb128 0x3
 3973 014a 0E       		.uleb128 0xe
 3974 014b 3A       		.uleb128 0x3a
 3975 014c 0B       		.uleb128 0xb
 3976 014d 3B       		.uleb128 0x3b
 3977 014e 05       		.uleb128 0x5
 3978 014f 49       		.uleb128 0x49
 3979 0150 13       		.uleb128 0x13
 3980 0151 00       		.byte	0
 3981 0152 00       		.byte	0
ARM GAS  C:\Users\PCHAUT~1\AppData\Local\Temp\ccLTr2Pw.s 			page 71


 3982 0153 1C       		.uleb128 0x1c
 3983 0154 34       		.uleb128 0x34
 3984 0155 00       		.byte	0
 3985 0156 03       		.uleb128 0x3
 3986 0157 08       		.uleb128 0x8
 3987 0158 3A       		.uleb128 0x3a
 3988 0159 0B       		.uleb128 0xb
 3989 015a 3B       		.uleb128 0x3b
 3990 015b 05       		.uleb128 0x5
 3991 015c 49       		.uleb128 0x49
 3992 015d 13       		.uleb128 0x13
 3993 015e 3F       		.uleb128 0x3f
 3994 015f 19       		.uleb128 0x19
 3995 0160 3C       		.uleb128 0x3c
 3996 0161 19       		.uleb128 0x19
 3997 0162 00       		.byte	0
 3998 0163 00       		.byte	0
 3999 0164 1D       		.uleb128 0x1d
 4000 0165 2E       		.uleb128 0x2e
 4001 0166 01       		.byte	0x1
 4002 0167 3F       		.uleb128 0x3f
 4003 0168 19       		.uleb128 0x19
 4004 0169 03       		.uleb128 0x3
 4005 016a 0E       		.uleb128 0xe
 4006 016b 3A       		.uleb128 0x3a
 4007 016c 0B       		.uleb128 0xb
 4008 016d 3B       		.uleb128 0x3b
 4009 016e 05       		.uleb128 0x5
 4010 016f 27       		.uleb128 0x27
 4011 0170 19       		.uleb128 0x19
 4012 0171 49       		.uleb128 0x49
 4013 0172 13       		.uleb128 0x13
 4014 0173 11       		.uleb128 0x11
 4015 0174 01       		.uleb128 0x1
 4016 0175 12       		.uleb128 0x12
 4017 0176 06       		.uleb128 0x6
 4018 0177 40       		.uleb128 0x40
 4019 0178 18       		.uleb128 0x18
 4020 0179 9642     		.uleb128 0x2116
 4021 017b 19       		.uleb128 0x19
 4022 017c 01       		.uleb128 0x1
 4023 017d 13       		.uleb128 0x13
 4024 017e 00       		.byte	0
 4025 017f 00       		.byte	0
 4026 0180 1E       		.uleb128 0x1e
 4027 0181 05       		.uleb128 0x5
 4028 0182 00       		.byte	0
 4029 0183 03       		.uleb128 0x3
 4030 0184 08       		.uleb128 0x8
 4031 0185 3A       		.uleb128 0x3a
 4032 0186 0B       		.uleb128 0xb
 4033 0187 3B       		.uleb128 0x3b
 4034 0188 05       		.uleb128 0x5
 4035 0189 49       		.uleb128 0x49
 4036 018a 13       		.uleb128 0x13
 4037 018b 02       		.uleb128 0x2
 4038 018c 18       		.uleb128 0x18
ARM GAS  C:\Users\PCHAUT~1\AppData\Local\Temp\ccLTr2Pw.s 			page 72


 4039 018d 00       		.byte	0
 4040 018e 00       		.byte	0
 4041 018f 1F       		.uleb128 0x1f
 4042 0190 05       		.uleb128 0x5
 4043 0191 00       		.byte	0
 4044 0192 03       		.uleb128 0x3
 4045 0193 0E       		.uleb128 0xe
 4046 0194 3A       		.uleb128 0x3a
 4047 0195 0B       		.uleb128 0xb
 4048 0196 3B       		.uleb128 0x3b
 4049 0197 05       		.uleb128 0x5
 4050 0198 49       		.uleb128 0x49
 4051 0199 13       		.uleb128 0x13
 4052 019a 02       		.uleb128 0x2
 4053 019b 18       		.uleb128 0x18
 4054 019c 00       		.byte	0
 4055 019d 00       		.byte	0
 4056 019e 20       		.uleb128 0x20
 4057 019f 34       		.uleb128 0x34
 4058 01a0 00       		.byte	0
 4059 01a1 03       		.uleb128 0x3
 4060 01a2 08       		.uleb128 0x8
 4061 01a3 3A       		.uleb128 0x3a
 4062 01a4 0B       		.uleb128 0xb
 4063 01a5 3B       		.uleb128 0x3b
 4064 01a6 05       		.uleb128 0x5
 4065 01a7 49       		.uleb128 0x49
 4066 01a8 13       		.uleb128 0x13
 4067 01a9 02       		.uleb128 0x2
 4068 01aa 18       		.uleb128 0x18
 4069 01ab 00       		.byte	0
 4070 01ac 00       		.byte	0
 4071 01ad 21       		.uleb128 0x21
 4072 01ae 34       		.uleb128 0x34
 4073 01af 00       		.byte	0
 4074 01b0 03       		.uleb128 0x3
 4075 01b1 0E       		.uleb128 0xe
 4076 01b2 49       		.uleb128 0x49
 4077 01b3 13       		.uleb128 0x13
 4078 01b4 34       		.uleb128 0x34
 4079 01b5 19       		.uleb128 0x19
 4080 01b6 02       		.uleb128 0x2
 4081 01b7 18       		.uleb128 0x18
 4082 01b8 00       		.byte	0
 4083 01b9 00       		.byte	0
 4084 01ba 22       		.uleb128 0x22
 4085 01bb 0B       		.uleb128 0xb
 4086 01bc 01       		.byte	0x1
 4087 01bd 11       		.uleb128 0x11
 4088 01be 01       		.uleb128 0x1
 4089 01bf 12       		.uleb128 0x12
 4090 01c0 06       		.uleb128 0x6
 4091 01c1 00       		.byte	0
 4092 01c2 00       		.byte	0
 4093 01c3 23       		.uleb128 0x23
 4094 01c4 2E       		.uleb128 0x2e
 4095 01c5 01       		.byte	0x1
ARM GAS  C:\Users\PCHAUT~1\AppData\Local\Temp\ccLTr2Pw.s 			page 73


 4096 01c6 3F       		.uleb128 0x3f
 4097 01c7 19       		.uleb128 0x19
 4098 01c8 03       		.uleb128 0x3
 4099 01c9 0E       		.uleb128 0xe
 4100 01ca 3A       		.uleb128 0x3a
 4101 01cb 0B       		.uleb128 0xb
 4102 01cc 3B       		.uleb128 0x3b
 4103 01cd 05       		.uleb128 0x5
 4104 01ce 27       		.uleb128 0x27
 4105 01cf 19       		.uleb128 0x19
 4106 01d0 11       		.uleb128 0x11
 4107 01d1 01       		.uleb128 0x1
 4108 01d2 12       		.uleb128 0x12
 4109 01d3 06       		.uleb128 0x6
 4110 01d4 40       		.uleb128 0x40
 4111 01d5 18       		.uleb128 0x18
 4112 01d6 9642     		.uleb128 0x2116
 4113 01d8 19       		.uleb128 0x19
 4114 01d9 01       		.uleb128 0x1
 4115 01da 13       		.uleb128 0x13
 4116 01db 00       		.byte	0
 4117 01dc 00       		.byte	0
 4118 01dd 24       		.uleb128 0x24
 4119 01de 2E       		.uleb128 0x2e
 4120 01df 01       		.byte	0x1
 4121 01e0 3F       		.uleb128 0x3f
 4122 01e1 19       		.uleb128 0x19
 4123 01e2 03       		.uleb128 0x3
 4124 01e3 0E       		.uleb128 0xe
 4125 01e4 3A       		.uleb128 0x3a
 4126 01e5 0B       		.uleb128 0xb
 4127 01e6 3B       		.uleb128 0x3b
 4128 01e7 0B       		.uleb128 0xb
 4129 01e8 27       		.uleb128 0x27
 4130 01e9 19       		.uleb128 0x19
 4131 01ea 49       		.uleb128 0x49
 4132 01eb 13       		.uleb128 0x13
 4133 01ec 11       		.uleb128 0x11
 4134 01ed 01       		.uleb128 0x1
 4135 01ee 12       		.uleb128 0x12
 4136 01ef 06       		.uleb128 0x6
 4137 01f0 40       		.uleb128 0x40
 4138 01f1 18       		.uleb128 0x18
 4139 01f2 9642     		.uleb128 0x2116
 4140 01f4 19       		.uleb128 0x19
 4141 01f5 01       		.uleb128 0x1
 4142 01f6 13       		.uleb128 0x13
 4143 01f7 00       		.byte	0
 4144 01f8 00       		.byte	0
 4145 01f9 25       		.uleb128 0x25
 4146 01fa 05       		.uleb128 0x5
 4147 01fb 00       		.byte	0
 4148 01fc 03       		.uleb128 0x3
 4149 01fd 08       		.uleb128 0x8
 4150 01fe 3A       		.uleb128 0x3a
 4151 01ff 0B       		.uleb128 0xb
 4152 0200 3B       		.uleb128 0x3b
ARM GAS  C:\Users\PCHAUT~1\AppData\Local\Temp\ccLTr2Pw.s 			page 74


 4153 0201 0B       		.uleb128 0xb
 4154 0202 49       		.uleb128 0x49
 4155 0203 13       		.uleb128 0x13
 4156 0204 02       		.uleb128 0x2
 4157 0205 18       		.uleb128 0x18
 4158 0206 00       		.byte	0
 4159 0207 00       		.byte	0
 4160 0208 26       		.uleb128 0x26
 4161 0209 05       		.uleb128 0x5
 4162 020a 00       		.byte	0
 4163 020b 03       		.uleb128 0x3
 4164 020c 0E       		.uleb128 0xe
 4165 020d 3A       		.uleb128 0x3a
 4166 020e 0B       		.uleb128 0xb
 4167 020f 3B       		.uleb128 0x3b
 4168 0210 0B       		.uleb128 0xb
 4169 0211 49       		.uleb128 0x49
 4170 0212 13       		.uleb128 0x13
 4171 0213 02       		.uleb128 0x2
 4172 0214 18       		.uleb128 0x18
 4173 0215 00       		.byte	0
 4174 0216 00       		.byte	0
 4175 0217 27       		.uleb128 0x27
 4176 0218 34       		.uleb128 0x34
 4177 0219 00       		.byte	0
 4178 021a 03       		.uleb128 0x3
 4179 021b 08       		.uleb128 0x8
 4180 021c 3A       		.uleb128 0x3a
 4181 021d 0B       		.uleb128 0xb
 4182 021e 3B       		.uleb128 0x3b
 4183 021f 0B       		.uleb128 0xb
 4184 0220 49       		.uleb128 0x49
 4185 0221 13       		.uleb128 0x13
 4186 0222 02       		.uleb128 0x2
 4187 0223 18       		.uleb128 0x18
 4188 0224 00       		.byte	0
 4189 0225 00       		.byte	0
 4190 0226 28       		.uleb128 0x28
 4191 0227 2E       		.uleb128 0x2e
 4192 0228 01       		.byte	0x1
 4193 0229 3F       		.uleb128 0x3f
 4194 022a 19       		.uleb128 0x19
 4195 022b 03       		.uleb128 0x3
 4196 022c 0E       		.uleb128 0xe
 4197 022d 3A       		.uleb128 0x3a
 4198 022e 0B       		.uleb128 0xb
 4199 022f 3B       		.uleb128 0x3b
 4200 0230 0B       		.uleb128 0xb
 4201 0231 27       		.uleb128 0x27
 4202 0232 19       		.uleb128 0x19
 4203 0233 11       		.uleb128 0x11
 4204 0234 01       		.uleb128 0x1
 4205 0235 12       		.uleb128 0x12
 4206 0236 06       		.uleb128 0x6
 4207 0237 40       		.uleb128 0x40
 4208 0238 18       		.uleb128 0x18
 4209 0239 9642     		.uleb128 0x2116
ARM GAS  C:\Users\PCHAUT~1\AppData\Local\Temp\ccLTr2Pw.s 			page 75


 4210 023b 19       		.uleb128 0x19
 4211 023c 01       		.uleb128 0x1
 4212 023d 13       		.uleb128 0x13
 4213 023e 00       		.byte	0
 4214 023f 00       		.byte	0
 4215 0240 29       		.uleb128 0x29
 4216 0241 2E       		.uleb128 0x2e
 4217 0242 01       		.byte	0x1
 4218 0243 03       		.uleb128 0x3
 4219 0244 0E       		.uleb128 0xe
 4220 0245 3A       		.uleb128 0x3a
 4221 0246 0B       		.uleb128 0xb
 4222 0247 3B       		.uleb128 0x3b
 4223 0248 05       		.uleb128 0x5
 4224 0249 27       		.uleb128 0x27
 4225 024a 19       		.uleb128 0x19
 4226 024b 49       		.uleb128 0x49
 4227 024c 13       		.uleb128 0x13
 4228 024d 11       		.uleb128 0x11
 4229 024e 01       		.uleb128 0x1
 4230 024f 12       		.uleb128 0x12
 4231 0250 06       		.uleb128 0x6
 4232 0251 40       		.uleb128 0x40
 4233 0252 18       		.uleb128 0x18
 4234 0253 9642     		.uleb128 0x2116
 4235 0255 19       		.uleb128 0x19
 4236 0256 01       		.uleb128 0x1
 4237 0257 13       		.uleb128 0x13
 4238 0258 00       		.byte	0
 4239 0259 00       		.byte	0
 4240 025a 2A       		.uleb128 0x2a
 4241 025b 2E       		.uleb128 0x2e
 4242 025c 01       		.byte	0x1
 4243 025d 03       		.uleb128 0x3
 4244 025e 0E       		.uleb128 0xe
 4245 025f 3A       		.uleb128 0x3a
 4246 0260 0B       		.uleb128 0xb
 4247 0261 3B       		.uleb128 0x3b
 4248 0262 05       		.uleb128 0x5
 4249 0263 27       		.uleb128 0x27
 4250 0264 19       		.uleb128 0x19
 4251 0265 11       		.uleb128 0x11
 4252 0266 01       		.uleb128 0x1
 4253 0267 12       		.uleb128 0x12
 4254 0268 06       		.uleb128 0x6
 4255 0269 40       		.uleb128 0x40
 4256 026a 18       		.uleb128 0x18
 4257 026b 9642     		.uleb128 0x2116
 4258 026d 19       		.uleb128 0x19
 4259 026e 01       		.uleb128 0x1
 4260 026f 13       		.uleb128 0x13
 4261 0270 00       		.byte	0
 4262 0271 00       		.byte	0
 4263 0272 2B       		.uleb128 0x2b
 4264 0273 2E       		.uleb128 0x2e
 4265 0274 00       		.byte	0
 4266 0275 03       		.uleb128 0x3
ARM GAS  C:\Users\PCHAUT~1\AppData\Local\Temp\ccLTr2Pw.s 			page 76


 4267 0276 0E       		.uleb128 0xe
 4268 0277 3A       		.uleb128 0x3a
 4269 0278 0B       		.uleb128 0xb
 4270 0279 3B       		.uleb128 0x3b
 4271 027a 05       		.uleb128 0x5
 4272 027b 27       		.uleb128 0x27
 4273 027c 19       		.uleb128 0x19
 4274 027d 11       		.uleb128 0x11
 4275 027e 01       		.uleb128 0x1
 4276 027f 12       		.uleb128 0x12
 4277 0280 06       		.uleb128 0x6
 4278 0281 40       		.uleb128 0x40
 4279 0282 18       		.uleb128 0x18
 4280 0283 9642     		.uleb128 0x2116
 4281 0285 19       		.uleb128 0x19
 4282 0286 00       		.byte	0
 4283 0287 00       		.byte	0
 4284 0288 2C       		.uleb128 0x2c
 4285 0289 1D       		.uleb128 0x1d
 4286 028a 01       		.byte	0x1
 4287 028b 31       		.uleb128 0x31
 4288 028c 13       		.uleb128 0x13
 4289 028d 11       		.uleb128 0x11
 4290 028e 01       		.uleb128 0x1
 4291 028f 12       		.uleb128 0x12
 4292 0290 06       		.uleb128 0x6
 4293 0291 58       		.uleb128 0x58
 4294 0292 0B       		.uleb128 0xb
 4295 0293 59       		.uleb128 0x59
 4296 0294 05       		.uleb128 0x5
 4297 0295 00       		.byte	0
 4298 0296 00       		.byte	0
 4299 0297 2D       		.uleb128 0x2d
 4300 0298 05       		.uleb128 0x5
 4301 0299 00       		.byte	0
 4302 029a 31       		.uleb128 0x31
 4303 029b 13       		.uleb128 0x13
 4304 029c 02       		.uleb128 0x2
 4305 029d 18       		.uleb128 0x18
 4306 029e 00       		.byte	0
 4307 029f 00       		.byte	0
 4308 02a0 2E       		.uleb128 0x2e
 4309 02a1 2E       		.uleb128 0x2e
 4310 02a2 01       		.byte	0x1
 4311 02a3 03       		.uleb128 0x3
 4312 02a4 0E       		.uleb128 0xe
 4313 02a5 3A       		.uleb128 0x3a
 4314 02a6 0B       		.uleb128 0xb
 4315 02a7 3B       		.uleb128 0x3b
 4316 02a8 05       		.uleb128 0x5
 4317 02a9 27       		.uleb128 0x27
 4318 02aa 19       		.uleb128 0x19
 4319 02ab 20       		.uleb128 0x20
 4320 02ac 0B       		.uleb128 0xb
 4321 02ad 00       		.byte	0
 4322 02ae 00       		.byte	0
 4323 02af 2F       		.uleb128 0x2f
ARM GAS  C:\Users\PCHAUT~1\AppData\Local\Temp\ccLTr2Pw.s 			page 77


 4324 02b0 05       		.uleb128 0x5
 4325 02b1 00       		.byte	0
 4326 02b2 03       		.uleb128 0x3
 4327 02b3 0E       		.uleb128 0xe
 4328 02b4 3A       		.uleb128 0x3a
 4329 02b5 0B       		.uleb128 0xb
 4330 02b6 3B       		.uleb128 0x3b
 4331 02b7 05       		.uleb128 0x5
 4332 02b8 49       		.uleb128 0x49
 4333 02b9 13       		.uleb128 0x13
 4334 02ba 00       		.byte	0
 4335 02bb 00       		.byte	0
 4336 02bc 00       		.byte	0
 4337              		.section	.debug_aranges,"",%progbits
 4338 0000 B4000000 		.4byte	0xb4
 4339 0004 0200     		.2byte	0x2
 4340 0006 00000000 		.4byte	.Ldebug_info0
 4341 000a 04       		.byte	0x4
 4342 000b 00       		.byte	0
 4343 000c 0000     		.2byte	0
 4344 000e 0000     		.2byte	0
 4345 0010 00000000 		.4byte	.LFB116
 4346 0014 30000000 		.4byte	.LFE116-.LFB116
 4347 0018 00000000 		.4byte	.LFB117
 4348 001c 30000000 		.4byte	.LFE117-.LFB117
 4349 0020 00000000 		.4byte	.LFB128
 4350 0024 34000000 		.4byte	.LFE128-.LFB128
 4351 0028 00000000 		.4byte	.LFB145
 4352 002c 30000000 		.4byte	.LFE145-.LFB145
 4353 0030 00000000 		.4byte	.LFB146
 4354 0034 58000000 		.4byte	.LFE146-.LFB146
 4355 0038 00000000 		.4byte	.LFB173
 4356 003c 2C000000 		.4byte	.LFE173-.LFB173
 4357 0040 00000000 		.4byte	.LFB211
 4358 0044 38000000 		.4byte	.LFE211-.LFB211
 4359 0048 00000000 		.4byte	.LFB212
 4360 004c 4C000000 		.4byte	.LFE212-.LFB212
 4361 0050 00000000 		.4byte	.LFB216
 4362 0054 4C000000 		.4byte	.LFE216-.LFB216
 4363 0058 00000000 		.4byte	.LFB217
 4364 005c 38000000 		.4byte	.LFE217-.LFB217
 4365 0060 00000000 		.4byte	.LFB219
 4366 0064 68000000 		.4byte	.LFE219-.LFB219
 4367 0068 00000000 		.4byte	.LFB220
 4368 006c 4C000000 		.4byte	.LFE220-.LFB220
 4369 0070 00000000 		.4byte	.LFB221
 4370 0074 7C000000 		.4byte	.LFE221-.LFB221
 4371 0078 00000000 		.4byte	.LFB222
 4372 007c 9C000000 		.4byte	.LFE222-.LFB222
 4373 0080 00000000 		.4byte	.LFB223
 4374 0084 D0000000 		.4byte	.LFE223-.LFB223
 4375 0088 00000000 		.4byte	.LFB224
 4376 008c 68000000 		.4byte	.LFE224-.LFB224
 4377 0090 00000000 		.4byte	.LFB225
 4378 0094 58000000 		.4byte	.LFE225-.LFB225
 4379 0098 00000000 		.4byte	.LFB226
 4380 009c A0000000 		.4byte	.LFE226-.LFB226
ARM GAS  C:\Users\PCHAUT~1\AppData\Local\Temp\ccLTr2Pw.s 			page 78


 4381 00a0 00000000 		.4byte	.LFB227
 4382 00a4 78000000 		.4byte	.LFE227-.LFB227
 4383 00a8 00000000 		.4byte	.LFB228
 4384 00ac D0000000 		.4byte	.LFE228-.LFB228
 4385 00b0 00000000 		.4byte	0
 4386 00b4 00000000 		.4byte	0
 4387              		.section	.debug_ranges,"",%progbits
 4388              	.Ldebug_ranges0:
 4389 0000 00000000 		.4byte	.LFB116
 4390 0004 30000000 		.4byte	.LFE116
 4391 0008 00000000 		.4byte	.LFB117
 4392 000c 30000000 		.4byte	.LFE117
 4393 0010 00000000 		.4byte	.LFB128
 4394 0014 34000000 		.4byte	.LFE128
 4395 0018 00000000 		.4byte	.LFB145
 4396 001c 30000000 		.4byte	.LFE145
 4397 0020 00000000 		.4byte	.LFB146
 4398 0024 58000000 		.4byte	.LFE146
 4399 0028 00000000 		.4byte	.LFB173
 4400 002c 2C000000 		.4byte	.LFE173
 4401 0030 00000000 		.4byte	.LFB211
 4402 0034 38000000 		.4byte	.LFE211
 4403 0038 00000000 		.4byte	.LFB212
 4404 003c 4C000000 		.4byte	.LFE212
 4405 0040 00000000 		.4byte	.LFB216
 4406 0044 4C000000 		.4byte	.LFE216
 4407 0048 00000000 		.4byte	.LFB217
 4408 004c 38000000 		.4byte	.LFE217
 4409 0050 00000000 		.4byte	.LFB219
 4410 0054 68000000 		.4byte	.LFE219
 4411 0058 00000000 		.4byte	.LFB220
 4412 005c 4C000000 		.4byte	.LFE220
 4413 0060 00000000 		.4byte	.LFB221
 4414 0064 7C000000 		.4byte	.LFE221
 4415 0068 00000000 		.4byte	.LFB222
 4416 006c 9C000000 		.4byte	.LFE222
 4417 0070 00000000 		.4byte	.LFB223
 4418 0074 D0000000 		.4byte	.LFE223
 4419 0078 00000000 		.4byte	.LFB224
 4420 007c 68000000 		.4byte	.LFE224
 4421 0080 00000000 		.4byte	.LFB225
 4422 0084 58000000 		.4byte	.LFE225
 4423 0088 00000000 		.4byte	.LFB226
 4424 008c A0000000 		.4byte	.LFE226
 4425 0090 00000000 		.4byte	.LFB227
 4426 0094 78000000 		.4byte	.LFE227
 4427 0098 00000000 		.4byte	.LFB228
 4428 009c D0000000 		.4byte	.LFE228
 4429 00a0 00000000 		.4byte	0
 4430 00a4 00000000 		.4byte	0
 4431              		.section	.debug_line,"",%progbits
 4432              	.Ldebug_line0:
 4433 0000 AD060000 		.section	.debug_str,"MS",%progbits,1
 4433      02002604 
 4433      00000201 
 4433      FB0E0D00 
 4433      01010101 
ARM GAS  C:\Users\PCHAUT~1\AppData\Local\Temp\ccLTr2Pw.s 			page 79


 4434              	.LASF173:
 4435 0000 63684F51 		.ascii	"chOQPutTimeout\000"
 4435      50757454 
 4435      696D656F 
 4435      757400
 4436              	.LASF146:
 4437 000f 63665F6F 		.ascii	"cf_off_older\000"
 4437      66665F6F 
 4437      6C646572 
 4437      00
 4438              	.LASF61:
 4439 001c 72656164 		.ascii	"ready_list_t\000"
 4439      795F6C69 
 4439      73745F74 
 4439      00
 4440              	.LASF177:
 4441 0029 6F6E6679 		.ascii	"onfy\000"
 4441      00
 4442              	.LASF4:
 4443 002e 73697A65 		.ascii	"size_t\000"
 4443      5F7400
 4444              	.LASF120:
 4445 0035 7264796D 		.ascii	"rdymsg\000"
 4445      736700
 4446              	.LASF20:
 4447 003c 75696E74 		.ascii	"uint64_t\000"
 4447      36345F74 
 4447      00
 4448              	.LASF91:
 4449 0045 6B65726E 		.ascii	"kernel_stats\000"
 4449      656C5F73 
 4449      74617473 
 4449      00
 4450              	.LASF5:
 4451 0052 5F5F7569 		.ascii	"__uint8_t\000"
 4451      6E74385F 
 4451      7400
 4452              	.LASF98:
 4453 005c 706F7274 		.ascii	"port_intctx\000"
 4453      5F696E74 
 4453      63747800 
 4454              	.LASF60:
 4455 0068 63685F74 		.ascii	"ch_threads_queue\000"
 4455      68726561 
 4455      64735F71 
 4455      75657565 
 4455      00
 4456              	.LASF80:
 4457 0079 73797374 		.ascii	"system_debug_t\000"
 4457      656D5F64 
 4457      65627567 
 4457      5F7400
 4458              	.LASF179:
 4459 0088 63684951 		.ascii	"chIQReadTimeout\000"
 4459      52656164 
 4459      54696D65 
 4459      6F757400 
ARM GAS  C:\Users\PCHAUT~1\AppData\Local\Temp\ccLTr2Pw.s 			page 80


 4460              	.LASF193:
 4461 0098 71756575 		.ascii	"queue_init\000"
 4461      655F696E 
 4461      697400
 4462              	.LASF195:
 4463 00a3 706F7274 		.ascii	"port_lock\000"
 4463      5F6C6F63 
 4463      6B00
 4464              	.LASF162:
 4465 00ad 715F746F 		.ascii	"q_top\000"
 4465      7000
 4466              	.LASF114:
 4467 00b3 74696D65 		.ascii	"time_measurement_t\000"
 4467      5F6D6561 
 4467      73757265 
 4467      6D656E74 
 4467      5F7400
 4468              	.LASF184:
 4469 00c6 63684951 		.ascii	"chIQObjectInit\000"
 4469      4F626A65 
 4469      6374496E 
 4469      697400
 4470              	.LASF15:
 4471 00d5 6C6F6E67 		.ascii	"long long unsigned int\000"
 4471      206C6F6E 
 4471      6720756E 
 4471      7369676E 
 4471      65642069 
 4472              	.LASF107:
 4473 00ec 63685F74 		.ascii	"ch_trace_buffer_t\000"
 4473      72616365 
 4473      5F627566 
 4473      6665725F 
 4473      7400
 4474              	.LASF142:
 4475 00fe 63685F74 		.ascii	"ch_threadsize\000"
 4475      68726561 
 4475      6473697A 
 4475      6500
 4476              	.LASF121:
 4477 010c 65786974 		.ascii	"exitcode\000"
 4477      636F6465 
 4477      00
 4478              	.LASF90:
 4479 0115 6D61696E 		.ascii	"mainthread\000"
 4479      74687265 
 4479      616400
 4480              	.LASF77:
 4481 0120 76697274 		.ascii	"virtual_timers_list_t\000"
 4481      75616C5F 
 4481      74696D65 
 4481      72735F6C 
 4481      6973745F 
 4482              	.LASF93:
 4483 0136 49544D5F 		.ascii	"ITM_RxBuffer\000"
 4483      52784275 
 4483      66666572 
ARM GAS  C:\Users\PCHAUT~1\AppData\Local\Temp\ccLTr2Pw.s 			page 81


 4483      00
 4484              	.LASF157:
 4485 0143 696F5F71 		.ascii	"io_queue_t\000"
 4485      75657565 
 4485      5F7400
 4486              	.LASF22:
 4487 014e 72747469 		.ascii	"rttime_t\000"
 4487      6D655F74 
 4487      00
 4488              	.LASF36:
 4489 0157 705F7072 		.ascii	"p_prio\000"
 4489      696F00
 4490              	.LASF149:
 4491 015e 63665F6F 		.ascii	"cf_off_state\000"
 4491      66665F73 
 4491      74617465 
 4491      00
 4492              	.LASF159:
 4493 016b 715F7761 		.ascii	"q_waiting\000"
 4493      6974696E 
 4493      6700
 4494              	.LASF1:
 4495 0175 6C6F6E67 		.ascii	"long long int\000"
 4495      206C6F6E 
 4495      6720696E 
 4495      7400
 4496              	.LASF3:
 4497 0183 7369676E 		.ascii	"signed char\000"
 4497      65642063 
 4497      68617200 
 4498              	.LASF148:
 4499 018f 63665F6F 		.ascii	"cf_off_stklimit\000"
 4499      66665F73 
 4499      746B6C69 
 4499      6D697400 
 4500              	.LASF150:
 4501 019f 63665F6F 		.ascii	"cf_off_flags\000"
 4501      66665F66 
 4501      6C616773 
 4501      00
 4502              	.LASF53:
 4503 01ac 705F6D70 		.ascii	"p_mpool\000"
 4503      6F6F6C00 
 4504              	.LASF131:
 4505 01b4 6D5F7175 		.ascii	"m_queue\000"
 4505      65756500 
 4506              	.LASF89:
 4507 01bc 76746C69 		.ascii	"vtlist\000"
 4507      737400
 4508              	.LASF194:
 4509 01c3 706F7274 		.ascii	"port_unlock\000"
 4509      5F756E6C 
 4509      6F636B00 
 4510              	.LASF26:
 4511 01cf 74736C69 		.ascii	"tslices_t\000"
 4511      6365735F 
 4511      7400
ARM GAS  C:\Users\PCHAUT~1\AppData\Local\Temp\ccLTr2Pw.s 			page 82


 4512              	.LASF169:
 4513 01d9 6F757470 		.ascii	"output_queue_t\000"
 4513      75745F71 
 4513      75657565 
 4513      5F7400
 4514              	.LASF123:
 4515 01e8 77747472 		.ascii	"wttrp\000"
 4515      7000
 4516              	.LASF87:
 4517 01ee 63685F73 		.ascii	"ch_system\000"
 4517      79737465 
 4517      6D00
 4518              	.LASF11:
 4519 01f8 6C6F6E67 		.ascii	"long int\000"
 4519      20696E74 
 4519      00
 4520              	.LASF196:
 4521 0201 474E5520 		.ascii	"GNU C11 7.2.1 20170904 (release) [ARM/embedded-7-br"
 4521      43313120 
 4521      372E322E 
 4521      31203230 
 4521      31373039 
 4522 0234 616E6368 		.ascii	"anch revision 255204] -mcpu=cortex-m4 -mfloat-abi=h"
 4522      20726576 
 4522      6973696F 
 4522      6E203235 
 4522      35323034 
 4523 0267 61726420 		.ascii	"ard -mfpu=fpv4-sp-d16 -mno-thumb-interwork -mthumb "
 4523      2D6D6670 
 4523      753D6670 
 4523      76342D73 
 4523      702D6431 
 4524 029a 2D676764 		.ascii	"-ggdb -O0 -fomit-frame-pointer -falign-functions=16"
 4524      62202D4F 
 4524      30202D66 
 4524      6F6D6974 
 4524      2D667261 
 4525 02cd 202D666E 		.ascii	" -fno-strict-aliasing -fstack-protector-all -ffunct"
 4525      6F2D7374 
 4525      72696374 
 4525      2D616C69 
 4525      6173696E 
 4526 0300 696F6E2D 		.ascii	"ion-sections -fdata-sections -fno-common -fsingle-p"
 4526      73656374 
 4526      696F6E73 
 4526      202D6664 
 4526      6174612D 
 4527 0333 72656369 		.ascii	"recision-constant\000"
 4527      73696F6E 
 4527      2D636F6E 
 4527      7374616E 
 4527      7400
 4528              	.LASF24:
 4529 0345 74737461 		.ascii	"tstate_t\000"
 4529      74655F74 
 4529      00
 4530              	.LASF172:
ARM GAS  C:\Users\PCHAUT~1\AppData\Local\Temp\ccLTr2Pw.s 			page 83


 4531 034e 63684F51 		.ascii	"chOQGetI\000"
 4531      47657449 
 4531      00
 4532              	.LASF100:
 4533 0357 73655F74 		.ascii	"se_tp\000"
 4533      7000
 4534              	.LASF161:
 4535 035d 715F6275 		.ascii	"q_buffer\000"
 4535      66666572 
 4535      00
 4536              	.LASF154:
 4537 0366 63686465 		.ascii	"chdebug_t\000"
 4537      6275675F 
 4537      7400
 4538              	.LASF38:
 4539 0370 705F6E65 		.ascii	"p_newer\000"
 4539      77657200 
 4540              	.LASF128:
 4541 0378 735F7175 		.ascii	"s_queue\000"
 4541      65756500 
 4542              	.LASF9:
 4543 0380 73686F72 		.ascii	"short unsigned int\000"
 4543      7420756E 
 4543      7369676E 
 4543      65642069 
 4543      6E7400
 4544              	.LASF104:
 4545 0393 74625F73 		.ascii	"tb_size\000"
 4545      697A6500 
 4546              	.LASF66:
 4547 039b 725F6E65 		.ascii	"r_newer\000"
 4547      77657200 
 4548              	.LASF95:
 4549 03a3 72656761 		.ascii	"regarm_t\000"
 4549      726D5F74 
 4549      00
 4550              	.LASF73:
 4551 03ac 76745F70 		.ascii	"vt_prev\000"
 4551      72657600 
 4552              	.LASF178:
 4553 03b4 6C696E6B 		.ascii	"link\000"
 4553      00
 4554              	.LASF81:
 4555 03b9 63685F73 		.ascii	"ch_system_debug\000"
 4555      79737465 
 4555      6D5F6465 
 4555      62756700 
 4556              	.LASF182:
 4557 03c9 63684951 		.ascii	"chIQPutI\000"
 4557      50757449 
 4557      00
 4558              	.LASF134:
 4559 03d2 6D5F636E 		.ascii	"m_cnt\000"
 4559      7400
 4560              	.LASF156:
 4561 03d8 6D757465 		.ascii	"mutex_t\000"
 4561      785F7400 
ARM GAS  C:\Users\PCHAUT~1\AppData\Local\Temp\ccLTr2Pw.s 			page 84


 4562              	.LASF201:
 4563 03e0 76616C75 		.ascii	"value\000"
 4563      6500
 4564              	.LASF84:
 4565 03e6 6C6F636B 		.ascii	"lock_cnt\000"
 4565      5F636E74 
 4565      00
 4566              	.LASF92:
 4567 03ef 69646C65 		.ascii	"idle_thread_wa\000"
 4567      5F746872 
 4567      6561645F 
 4567      776100
 4568              	.LASF30:
 4569 03fe 636E745F 		.ascii	"cnt_t\000"
 4569      7400
 4570              	.LASF41:
 4571 0404 705F7374 		.ascii	"p_stklimit\000"
 4571      6B6C696D 
 4571      697400
 4572              	.LASF0:
 4573 040f 756E7369 		.ascii	"unsigned int\000"
 4573      676E6564 
 4573      20696E74 
 4573      00
 4574              	.LASF72:
 4575 041c 76745F6E 		.ascii	"vt_next\000"
 4575      65787400 
 4576              	.LASF17:
 4577 0424 75696E74 		.ascii	"uint16_t\000"
 4577      31365F74 
 4577      00
 4578              	.LASF94:
 4579 042d 53797374 		.ascii	"SystemCoreClock\000"
 4579      656D436F 
 4579      7265436C 
 4579      6F636B00 
 4580              	.LASF46:
 4581 043d 705F7469 		.ascii	"p_time\000"
 4581      6D6500
 4582              	.LASF124:
 4583 0444 77747365 		.ascii	"wtsemp\000"
 4583      6D7000
 4584              	.LASF74:
 4585 044b 76745F64 		.ascii	"vt_delta\000"
 4585      656C7461 
 4585      00
 4586              	.LASF48:
 4587 0454 705F6D73 		.ascii	"p_msgqueue\000"
 4587      67717565 
 4587      756500
 4588              	.LASF155:
 4589 045f 63685F64 		.ascii	"ch_debug\000"
 4589      65627567 
 4589      00
 4590              	.LASF170:
 4591 0468 74696D65 		.ascii	"timeout\000"
 4591      6F757400 
ARM GAS  C:\Users\PCHAUT~1\AppData\Local\Temp\ccLTr2Pw.s 			page 85


 4592              	.LASF115:
 4593 0470 6E5F6972 		.ascii	"n_irq\000"
 4593      7100
 4594              	.LASF129:
 4595 0476 735F636E 		.ascii	"s_cnt\000"
 4595      7400
 4596              	.LASF163:
 4597 047c 715F7772 		.ascii	"q_wrptr\000"
 4597      70747200 
 4598              	.LASF119:
 4599 0484 6B65726E 		.ascii	"kernel_stats_t\000"
 4599      656C5F73 
 4599      74617473 
 4599      5F7400
 4600              	.LASF57:
 4601 0493 63685F74 		.ascii	"ch_thread\000"
 4601      68726561 
 4601      6400
 4602              	.LASF28:
 4603 049d 6D73675F 		.ascii	"msg_t\000"
 4603      7400
 4604              	.LASF112:
 4605 04a3 6C617374 		.ascii	"last\000"
 4605      00
 4606              	.LASF31:
 4607 04a8 75636E74 		.ascii	"ucnt_t\000"
 4607      5F7400
 4608              	.LASF86:
 4609 04af 63685F73 		.ascii	"ch_system_t\000"
 4609      79737465 
 4609      6D5F7400 
 4610              	.LASF153:
 4611 04bb 63665F6F 		.ascii	"cf_off_time\000"
 4611      66665F74 
 4611      696D6500 
 4612              	.LASF118:
 4613 04c7 6D5F6372 		.ascii	"m_crit_isr\000"
 4613      69745F69 
 4613      737200
 4614              	.LASF62:
 4615 04d2 63685F72 		.ascii	"ch_ready_list\000"
 4615      65616479 
 4615      5F6C6973 
 4615      7400
 4616              	.LASF29:
 4617 04e0 6576656E 		.ascii	"eventmask_t\000"
 4617      746D6173 
 4617      6B5F7400 
 4618              	.LASF10:
 4619 04ec 5F5F696E 		.ascii	"__int32_t\000"
 4619      7433325F 
 4619      7400
 4620              	.LASF96:
 4621 04f6 73746B61 		.ascii	"stkalign_t\000"
 4621      6C69676E 
 4621      5F7400
 4622              	.LASF171:
ARM GAS  C:\Users\PCHAUT~1\AppData\Local\Temp\ccLTr2Pw.s 			page 86


 4623 0501 63684F51 		.ascii	"chOQWriteTimeout\000"
 4623      57726974 
 4623      6554696D 
 4623      656F7574 
 4623      00
 4624              	.LASF56:
 4625 0512 74687265 		.ascii	"threads_list_t\000"
 4625      6164735F 
 4625      6C697374 
 4625      5F7400
 4626              	.LASF197:
 4627 0521 2E2E2F6C 		.ascii	"../lib/e-puck2_main-processor/ChibiOS//os/rt/src/ch"
 4627      69622F65 
 4627      2D707563 
 4627      6B325F6D 
 4627      61696E2D 
 4628 0554 71756575 		.ascii	"queues.c\000"
 4628      65732E63 
 4628      00
 4629              	.LASF151:
 4630 055d 63665F6F 		.ascii	"cf_off_refs\000"
 4630      66665F72 
 4630      65667300 
 4631              	.LASF191:
 4632 0569 63685468 		.ascii	"chThdQueueObjectInit\000"
 4632      64517565 
 4632      75654F62 
 4632      6A656374 
 4632      496E6974 
 4633              	.LASF64:
 4634 057e 725F7072 		.ascii	"r_prio\000"
 4634      696F00
 4635              	.LASF158:
 4636 0585 696F5F71 		.ascii	"io_queue\000"
 4636      75657565 
 4636      00
 4637              	.LASF21:
 4638 058e 7274636E 		.ascii	"rtcnt_t\000"
 4638      745F7400 
 4639              	.LASF109:
 4640 0596 746D5F63 		.ascii	"tm_calibration_t\000"
 4640      616C6962 
 4640      72617469 
 4640      6F6E5F74 
 4640      00
 4641              	.LASF78:
 4642 05a7 63685F76 		.ascii	"ch_virtual_timers_list\000"
 4642      69727475 
 4642      616C5F74 
 4642      696D6572 
 4642      735F6C69 
 4643              	.LASF160:
 4644 05be 715F636F 		.ascii	"q_counter\000"
 4644      756E7465 
 4644      7200
 4645              	.LASF2:
 4646 05c8 6C6F6E67 		.ascii	"long double\000"
ARM GAS  C:\Users\PCHAUT~1\AppData\Local\Temp\ccLTr2Pw.s 			page 87


 4646      20646F75 
 4646      626C6500 
 4647              	.LASF141:
 4648 05d4 63685F74 		.ascii	"ch_timesize\000"
 4648      696D6573 
 4648      697A6500 
 4649              	.LASF105:
 4650 05e0 74625F70 		.ascii	"tb_ptr\000"
 4650      747200
 4651              	.LASF103:
 4652 05e7 63685F73 		.ascii	"ch_swc_event_t\000"
 4652      77635F65 
 4652      76656E74 
 4652      5F7400
 4653              	.LASF147:
 4654 05f6 63665F6F 		.ascii	"cf_off_name\000"
 4654      66665F6E 
 4654      616D6500 
 4655              	.LASF39:
 4656 0602 705F6F6C 		.ascii	"p_older\000"
 4656      64657200 
 4657              	.LASF65:
 4658 060a 725F6374 		.ascii	"r_ctx\000"
 4658      7800
 4659              	.LASF37:
 4660 0610 705F6374 		.ascii	"p_ctx\000"
 4660      7800
 4661              	.LASF190:
 4662 0616 63684951 		.ascii	"chIQIsEmptyI\000"
 4662      4973456D 
 4662      70747949 
 4662      00
 4663              	.LASF111:
 4664 0623 776F7273 		.ascii	"worst\000"
 4664      7400
 4665              	.LASF68:
 4666 0629 725F6375 		.ascii	"r_current\000"
 4666      7272656E 
 4666      7400
 4667              	.LASF67:
 4668 0633 725F6F6C 		.ascii	"r_older\000"
 4668      64657200 
 4669              	.LASF14:
 4670 063b 5F5F7569 		.ascii	"__uint64_t\000"
 4670      6E743634 
 4670      5F7400
 4671              	.LASF113:
 4672 0646 63756D75 		.ascii	"cumulative\000"
 4672      6C617469 
 4672      766500
 4673              	.LASF25:
 4674 0651 74726566 		.ascii	"trefs_t\000"
 4674      735F7400 
 4675              	.LASF106:
 4676 0659 74625F62 		.ascii	"tb_buffer\000"
 4676      75666665 
 4676      7200
ARM GAS  C:\Users\PCHAUT~1\AppData\Local\Temp\ccLTr2Pw.s 			page 88


 4677              	.LASF140:
 4678 0663 63685F70 		.ascii	"ch_ptrsize\000"
 4678      74727369 
 4678      7A6500
 4679              	.LASF167:
 4680 066e 716E6F74 		.ascii	"qnotify_t\000"
 4680      6966795F 
 4680      7400
 4681              	.LASF70:
 4682 0678 76697274 		.ascii	"virtual_timer_t\000"
 4682      75616C5F 
 4682      74696D65 
 4682      725F7400 
 4683              	.LASF35:
 4684 0688 705F7072 		.ascii	"p_prev\000"
 4684      657600
 4685              	.LASF187:
 4686 068f 63684F51 		.ascii	"chOQIsFullI\000"
 4686      49734675 
 4686      6C6C4900 
 4687              	.LASF27:
 4688 069b 74707269 		.ascii	"tprio_t\000"
 4688      6F5F7400 
 4689              	.LASF164:
 4690 06a3 715F7264 		.ascii	"q_rdptr\000"
 4690      70747200 
 4691              	.LASF116:
 4692 06ab 6E5F6374 		.ascii	"n_ctxswc\000"
 4692      78737763 
 4692      00
 4693              	.LASF186:
 4694 06b4 5F426F6F 		.ascii	"_Bool\000"
 4694      6C00
 4695              	.LASF18:
 4696 06ba 696E7433 		.ascii	"int32_t\000"
 4696      325F7400 
 4697              	.LASF6:
 4698 06c2 756E7369 		.ascii	"unsigned char\000"
 4698      676E6564 
 4698      20636861 
 4698      7200
 4699              	.LASF168:
 4700 06d0 696E7075 		.ascii	"input_queue_t\000"
 4700      745F7175 
 4700      6575655F 
 4700      7400
 4701              	.LASF42:
 4702 06de 705F7374 		.ascii	"p_state\000"
 4702      61746500 
 4703              	.LASF51:
 4704 06e6 705F6D74 		.ascii	"p_mtxlist\000"
 4704      786C6973 
 4704      7400
 4705              	.LASF7:
 4706 06f0 73686F72 		.ascii	"short int\000"
 4706      7420696E 
 4706      7400
ARM GAS  C:\Users\PCHAUT~1\AppData\Local\Temp\ccLTr2Pw.s 			page 89


 4707              	.LASF45:
 4708 06fa 705F7072 		.ascii	"p_preempt\000"
 4708      65656D70 
 4708      7400
 4709              	.LASF102:
 4710 0704 73655F73 		.ascii	"se_state\000"
 4710      74617465 
 4710      00
 4711              	.LASF126:
 4712 070d 65776D61 		.ascii	"ewmask\000"
 4712      736B00
 4713              	.LASF34:
 4714 0714 705F6E65 		.ascii	"p_next\000"
 4714      787400
 4715              	.LASF185:
 4716 071b 696E6679 		.ascii	"infy\000"
 4716      00
 4717              	.LASF152:
 4718 0720 63665F6F 		.ascii	"cf_off_preempt\000"
 4718      66665F70 
 4718      7265656D 
 4718      707400
 4719              	.LASF43:
 4720 072f 705F666C 		.ascii	"p_flags\000"
 4720      61677300 
 4721              	.LASF180:
 4722 0737 5F5F6675 		.ascii	"__func__\000"
 4722      6E635F5F 
 4722      00
 4723              	.LASF54:
 4724 0740 705F7374 		.ascii	"p_stats\000"
 4724      61747300 
 4725              	.LASF199:
 4726 0748 63685379 		.ascii	"chSysLock\000"
 4726      734C6F63 
 4726      6B00
 4727              	.LASF198:
 4728 0752 433A5C55 		.ascii	"C:\\Users\\Pchautems\\Documents\\RobotiqueTP\\Proje"
 4728      73657273 
 4728      5C506368 
 4728      61757465 
 4728      6D735C44 
 4729 0780 745C6D69 		.ascii	"t\\miniprojet\000"
 4729      6E697072 
 4729      6F6A6574 
 4729      00
 4730              	.LASF59:
 4731 078d 74687265 		.ascii	"threads_queue_t\000"
 4731      6164735F 
 4731      71756575 
 4731      655F7400 
 4732              	.LASF71:
 4733 079d 63685F76 		.ascii	"ch_virtual_timer\000"
 4733      69727475 
 4733      616C5F74 
 4733      696D6572 
 4733      00
ARM GAS  C:\Users\PCHAUT~1\AppData\Local\Temp\ccLTr2Pw.s 			page 90


 4734              	.LASF145:
 4735 07ae 63665F6F 		.ascii	"cf_off_newer\000"
 4735      66665F6E 
 4735      65776572 
 4735      00
 4736              	.LASF127:
 4737 07bb 63685F73 		.ascii	"ch_semaphore\000"
 4737      656D6170 
 4737      686F7265 
 4737      00
 4738              	.LASF50:
 4739 07c8 705F6570 		.ascii	"p_epending\000"
 4739      656E6469 
 4739      6E6700
 4740              	.LASF189:
 4741 07d3 63684951 		.ascii	"chIQIsFullI\000"
 4741      49734675 
 4741      6C6C4900 
 4742              	.LASF19:
 4743 07df 75696E74 		.ascii	"uint32_t\000"
 4743      33325F74 
 4743      00
 4744              	.LASF143:
 4745 07e8 63665F6F 		.ascii	"cf_off_prio\000"
 4745      66665F70 
 4745      72696F00 
 4746              	.LASF63:
 4747 07f4 725F7175 		.ascii	"r_queue\000"
 4747      65756500 
 4748              	.LASF58:
 4749 07fc 63685F74 		.ascii	"ch_threads_list\000"
 4749      68726561 
 4749      64735F6C 
 4749      69737400 
 4750              	.LASF138:
 4751 080c 63685F73 		.ascii	"ch_size\000"
 4751      697A6500 
 4752              	.LASF13:
 4753 0814 6C6F6E67 		.ascii	"long unsigned int\000"
 4753      20756E73 
 4753      69676E65 
 4753      6420696E 
 4753      7400
 4754              	.LASF137:
 4755 0826 63685F7A 		.ascii	"ch_zero\000"
 4755      65726F00 
 4756              	.LASF135:
 4757 082e 63686172 		.ascii	"char\000"
 4757      00
 4758              	.LASF125:
 4759 0833 77746D74 		.ascii	"wtmtxp\000"
 4759      787000
 4760              	.LASF8:
 4761 083a 5F5F7569 		.ascii	"__uint16_t\000"
 4761      6E743136 
 4761      5F7400
 4762              	.LASF33:
ARM GAS  C:\Users\PCHAUT~1\AppData\Local\Temp\ccLTr2Pw.s 			page 91


 4763 0845 74687265 		.ascii	"thread_t\000"
 4763      61645F74 
 4763      00
 4764              	.LASF110:
 4765 084e 62657374 		.ascii	"best\000"
 4765      00
 4766              	.LASF133:
 4767 0853 6D5F6E65 		.ascii	"m_next\000"
 4767      787400
 4768              	.LASF32:
 4769 085a 73797374 		.ascii	"systime_t\000"
 4769      696D655F 
 4769      7400
 4770              	.LASF52:
 4771 0864 705F7265 		.ascii	"p_realprio\000"
 4771      616C7072 
 4771      696F00
 4772              	.LASF69:
 4773 086f 76746675 		.ascii	"vtfunc_t\000"
 4773      6E635F74 
 4773      00
 4774              	.LASF12:
 4775 0878 5F5F7569 		.ascii	"__uint32_t\000"
 4775      6E743332 
 4775      5F7400
 4776              	.LASF200:
 4777 0883 5F5F7365 		.ascii	"__set_BASEPRI\000"
 4777      745F4241 
 4777      53455052 
 4777      4900
 4778              	.LASF82:
 4779 0891 70616E69 		.ascii	"panic_msg\000"
 4779      635F6D73 
 4779      6700
 4780              	.LASF108:
 4781 089b 6F666673 		.ascii	"offset\000"
 4781      657400
 4782              	.LASF174:
 4783 08a2 63684F51 		.ascii	"chOQResetI\000"
 4783      52657365 
 4783      744900
 4784              	.LASF97:
 4785 08ad 636F6E74 		.ascii	"context\000"
 4785      65787400 
 4786              	.LASF49:
 4787 08b5 705F6D73 		.ascii	"p_msg\000"
 4787      6700
 4788              	.LASF183:
 4789 08bb 63684951 		.ascii	"chIQResetI\000"
 4789      52657365 
 4789      744900
 4790              	.LASF76:
 4791 08c6 76745F70 		.ascii	"vt_par\000"
 4791      617200
 4792              	.LASF175:
 4793 08cd 63684F51 		.ascii	"chOQObjectInit\000"
 4793      4F626A65 
ARM GAS  C:\Users\PCHAUT~1\AppData\Local\Temp\ccLTr2Pw.s 			page 92


 4793      6374496E 
 4793      697400
 4794              	.LASF99:
 4795 08dc 73655F74 		.ascii	"se_time\000"
 4795      696D6500 
 4796              	.LASF144:
 4797 08e4 63665F6F 		.ascii	"cf_off_ctx\000"
 4797      66665F63 
 4797      747800
 4798              	.LASF130:
 4799 08ef 63685F6D 		.ascii	"ch_mutex\000"
 4799      75746578 
 4799      00
 4800              	.LASF44:
 4801 08f8 705F7265 		.ascii	"p_refs\000"
 4801      667300
 4802              	.LASF83:
 4803 08ff 6973725F 		.ascii	"isr_cnt\000"
 4803      636E7400 
 4804              	.LASF165:
 4805 0907 715F6E6F 		.ascii	"q_notify\000"
 4805      74696679 
 4805      00
 4806              	.LASF88:
 4807 0910 726C6973 		.ascii	"rlist\000"
 4807      7400
 4808              	.LASF16:
 4809 0916 75696E74 		.ascii	"uint8_t\000"
 4809      385F7400 
 4810              	.LASF55:
 4811 091e 74687265 		.ascii	"thread_reference_t\000"
 4811      61645F72 
 4811      65666572 
 4811      656E6365 
 4811      5F7400
 4812              	.LASF122:
 4813 0931 77746F62 		.ascii	"wtobjp\000"
 4813      6A7000
 4814              	.LASF40:
 4815 0938 705F6E61 		.ascii	"p_name\000"
 4815      6D6500
 4816              	.LASF176:
 4817 093f 73697A65 		.ascii	"size\000"
 4817      00
 4818              	.LASF188:
 4819 0944 63684F51 		.ascii	"chOQIsEmptyI\000"
 4819      4973456D 
 4819      70747949 
 4819      00
 4820              	.LASF79:
 4821 0951 76745F73 		.ascii	"vt_systime\000"
 4821      79737469 
 4821      6D6500
 4822              	.LASF23:
 4823 095c 746D6F64 		.ascii	"tmode_t\000"
 4823      655F7400 
 4824              	.LASF85:
ARM GAS  C:\Users\PCHAUT~1\AppData\Local\Temp\ccLTr2Pw.s 			page 93


 4825 0964 74726163 		.ascii	"trace_buffer\000"
 4825      655F6275 
 4825      66666572 
 4825      00
 4826              	.LASF192:
 4827 0971 63685379 		.ascii	"chSysUnlock\000"
 4827      73556E6C 
 4827      6F636B00 
 4828              	.LASF139:
 4829 097d 63685F76 		.ascii	"ch_version\000"
 4829      65727369 
 4829      6F6E00
 4830              	.LASF166:
 4831 0988 715F6C69 		.ascii	"q_link\000"
 4831      6E6B00
 4832              	.LASF117:
 4833 098f 6D5F6372 		.ascii	"m_crit_thd\000"
 4833      69745F74 
 4833      686400
 4834              	.LASF132:
 4835 099a 6D5F6F77 		.ascii	"m_owner\000"
 4835      6E657200 
 4836              	.LASF101:
 4837 09a2 73655F77 		.ascii	"se_wtobjp\000"
 4837      746F626A 
 4837      7000
 4838              	.LASF136:
 4839 09ac 63685F69 		.ascii	"ch_identifier\000"
 4839      64656E74 
 4839      69666965 
 4839      7200
 4840              	.LASF75:
 4841 09ba 76745F66 		.ascii	"vt_func\000"
 4841      756E6300 
 4842              	.LASF181:
 4843 09c2 63684951 		.ascii	"chIQGetTimeout\000"
 4843      47657454 
 4843      696D656F 
 4843      757400
 4844              	.LASF47:
 4845 09d1 705F7761 		.ascii	"p_waiting\000"
 4845      6974696E 
 4845      6700
 4846              		.ident	"GCC: (GNU Tools for Arm Embedded Processors 7-2017-q4-major) 7.2.1 20170904 (release) [ARM
ARM GAS  C:\Users\PCHAUT~1\AppData\Local\Temp\ccLTr2Pw.s 			page 94


DEFINED SYMBOLS
                            *ABS*:00000000 chqueues.c
C:\Users\PCHAUT~1\AppData\Local\Temp\ccLTr2Pw.s:18     .text.port_lock:00000000 $t
C:\Users\PCHAUT~1\AppData\Local\Temp\ccLTr2Pw.s:25     .text.port_lock:00000000 port_lock
C:\Users\PCHAUT~1\AppData\Local\Temp\ccLTr2Pw.s:72     .text.port_lock:0000002c $d
C:\Users\PCHAUT~1\AppData\Local\Temp\ccLTr2Pw.s:77     .text.port_unlock:00000000 $t
C:\Users\PCHAUT~1\AppData\Local\Temp\ccLTr2Pw.s:84     .text.port_unlock:00000000 port_unlock
C:\Users\PCHAUT~1\AppData\Local\Temp\ccLTr2Pw.s:129    .text.port_unlock:0000002c $d
C:\Users\PCHAUT~1\AppData\Local\Temp\ccLTr2Pw.s:134    .text.queue_init:00000000 $t
C:\Users\PCHAUT~1\AppData\Local\Temp\ccLTr2Pw.s:141    .text.queue_init:00000000 queue_init
C:\Users\PCHAUT~1\AppData\Local\Temp\ccLTr2Pw.s:182    .text.queue_init:00000030 $d
C:\Users\PCHAUT~1\AppData\Local\Temp\ccLTr2Pw.s:187    .text.chSysLock:00000000 $t
C:\Users\PCHAUT~1\AppData\Local\Temp\ccLTr2Pw.s:194    .text.chSysLock:00000000 chSysLock
C:\Users\PCHAUT~1\AppData\Local\Temp\ccLTr2Pw.s:232    .text.chSysLock:0000002c $d
C:\Users\PCHAUT~1\AppData\Local\Temp\ccLTr2Pw.s:237    .text.chSysUnlock:00000000 $t
C:\Users\PCHAUT~1\AppData\Local\Temp\ccLTr2Pw.s:244    .text.chSysUnlock:00000000 chSysUnlock
C:\Users\PCHAUT~1\AppData\Local\Temp\ccLTr2Pw.s:300    .text.chSysUnlock:0000004c $d
C:\Users\PCHAUT~1\AppData\Local\Temp\ccLTr2Pw.s:1639   .rodata.__func__.7153:00000000 __func__.7153
C:\Users\PCHAUT~1\AppData\Local\Temp\ccLTr2Pw.s:307    .text.chThdQueueObjectInit:00000000 $t
C:\Users\PCHAUT~1\AppData\Local\Temp\ccLTr2Pw.s:314    .text.chThdQueueObjectInit:00000000 chThdQueueObjectInit
C:\Users\PCHAUT~1\AppData\Local\Temp\ccLTr2Pw.s:350    .text.chThdQueueObjectInit:00000028 $d
C:\Users\PCHAUT~1\AppData\Local\Temp\ccLTr2Pw.s:355    .text.chIQIsEmptyI:00000000 $t
C:\Users\PCHAUT~1\AppData\Local\Temp\ccLTr2Pw.s:362    .text.chIQIsEmptyI:00000000 chIQIsEmptyI
C:\Users\PCHAUT~1\AppData\Local\Temp\ccLTr2Pw.s:405    .text.chIQIsEmptyI:00000034 $d
C:\Users\PCHAUT~1\AppData\Local\Temp\ccLTr2Pw.s:410    .text.chIQIsFullI:00000000 $t
C:\Users\PCHAUT~1\AppData\Local\Temp\ccLTr2Pw.s:417    .text.chIQIsFullI:00000000 chIQIsFullI
C:\Users\PCHAUT~1\AppData\Local\Temp\ccLTr2Pw.s:474    .text.chIQIsFullI:00000048 $d
C:\Users\PCHAUT~1\AppData\Local\Temp\ccLTr2Pw.s:479    .text.chOQIsEmptyI:00000000 $t
C:\Users\PCHAUT~1\AppData\Local\Temp\ccLTr2Pw.s:486    .text.chOQIsEmptyI:00000000 chOQIsEmptyI
C:\Users\PCHAUT~1\AppData\Local\Temp\ccLTr2Pw.s:543    .text.chOQIsEmptyI:00000048 $d
C:\Users\PCHAUT~1\AppData\Local\Temp\ccLTr2Pw.s:548    .text.chOQIsFullI:00000000 $t
C:\Users\PCHAUT~1\AppData\Local\Temp\ccLTr2Pw.s:555    .text.chOQIsFullI:00000000 chOQIsFullI
C:\Users\PCHAUT~1\AppData\Local\Temp\ccLTr2Pw.s:597    .text.chOQIsFullI:00000034 $d
C:\Users\PCHAUT~1\AppData\Local\Temp\ccLTr2Pw.s:602    .text.chIQObjectInit:00000000 $t
C:\Users\PCHAUT~1\AppData\Local\Temp\ccLTr2Pw.s:610    .text.chIQObjectInit:00000000 chIQObjectInit
C:\Users\PCHAUT~1\AppData\Local\Temp\ccLTr2Pw.s:682    .text.chIQObjectInit:00000064 $d
C:\Users\PCHAUT~1\AppData\Local\Temp\ccLTr2Pw.s:687    .text.chIQResetI:00000000 $t
C:\Users\PCHAUT~1\AppData\Local\Temp\ccLTr2Pw.s:695    .text.chIQResetI:00000000 chIQResetI
C:\Users\PCHAUT~1\AppData\Local\Temp\ccLTr2Pw.s:748    .text.chIQResetI:00000048 $d
C:\Users\PCHAUT~1\AppData\Local\Temp\ccLTr2Pw.s:753    .text.chIQPutI:00000000 $t
C:\Users\PCHAUT~1\AppData\Local\Temp\ccLTr2Pw.s:761    .text.chIQPutI:00000000 chIQPutI
C:\Users\PCHAUT~1\AppData\Local\Temp\ccLTr2Pw.s:842    .text.chIQPutI:00000078 $d
C:\Users\PCHAUT~1\AppData\Local\Temp\ccLTr2Pw.s:847    .text.chIQGetTimeout:00000000 $t
C:\Users\PCHAUT~1\AppData\Local\Temp\ccLTr2Pw.s:855    .text.chIQGetTimeout:00000000 chIQGetTimeout
C:\Users\PCHAUT~1\AppData\Local\Temp\ccLTr2Pw.s:960    .text.chIQGetTimeout:00000098 $d
C:\Users\PCHAUT~1\AppData\Local\Temp\ccLTr2Pw.s:965    .text.chIQReadTimeout:00000000 $t
C:\Users\PCHAUT~1\AppData\Local\Temp\ccLTr2Pw.s:973    .text.chIQReadTimeout:00000000 chIQReadTimeout
C:\Users\PCHAUT~1\AppData\Local\Temp\ccLTr2Pw.s:1110   .text.chIQReadTimeout:000000c8 $d
C:\Users\PCHAUT~1\AppData\Local\Temp\ccLTr2Pw.s:1645   .rodata.__func__.7877:00000000 __func__.7877
C:\Users\PCHAUT~1\AppData\Local\Temp\ccLTr2Pw.s:1116   .text.chOQObjectInit:00000000 $t
C:\Users\PCHAUT~1\AppData\Local\Temp\ccLTr2Pw.s:1124   .text.chOQObjectInit:00000000 chOQObjectInit
C:\Users\PCHAUT~1\AppData\Local\Temp\ccLTr2Pw.s:1195   .text.chOQObjectInit:00000064 $d
C:\Users\PCHAUT~1\AppData\Local\Temp\ccLTr2Pw.s:1200   .text.chOQResetI:00000000 $t
C:\Users\PCHAUT~1\AppData\Local\Temp\ccLTr2Pw.s:1208   .text.chOQResetI:00000000 chOQResetI
C:\Users\PCHAUT~1\AppData\Local\Temp\ccLTr2Pw.s:1267   .text.chOQResetI:00000054 $d
C:\Users\PCHAUT~1\AppData\Local\Temp\ccLTr2Pw.s:1272   .text.chOQPutTimeout:00000000 $t
C:\Users\PCHAUT~1\AppData\Local\Temp\ccLTr2Pw.s:1280   .text.chOQPutTimeout:00000000 chOQPutTimeout
ARM GAS  C:\Users\PCHAUT~1\AppData\Local\Temp\ccLTr2Pw.s 			page 95


C:\Users\PCHAUT~1\AppData\Local\Temp\ccLTr2Pw.s:1388   .text.chOQPutTimeout:0000009c $d
C:\Users\PCHAUT~1\AppData\Local\Temp\ccLTr2Pw.s:1393   .text.chOQGetI:00000000 $t
C:\Users\PCHAUT~1\AppData\Local\Temp\ccLTr2Pw.s:1401   .text.chOQGetI:00000000 chOQGetI
C:\Users\PCHAUT~1\AppData\Local\Temp\ccLTr2Pw.s:1480   .text.chOQGetI:00000074 $d
C:\Users\PCHAUT~1\AppData\Local\Temp\ccLTr2Pw.s:1485   .text.chOQWriteTimeout:00000000 $t
C:\Users\PCHAUT~1\AppData\Local\Temp\ccLTr2Pw.s:1493   .text.chOQWriteTimeout:00000000 chOQWriteTimeout
C:\Users\PCHAUT~1\AppData\Local\Temp\ccLTr2Pw.s:1630   .text.chOQWriteTimeout:000000c8 $d
C:\Users\PCHAUT~1\AppData\Local\Temp\ccLTr2Pw.s:1651   .rodata.__func__.7913:00000000 __func__.7913
C:\Users\PCHAUT~1\AppData\Local\Temp\ccLTr2Pw.s:1636   .rodata.__func__.7153:00000000 $d
C:\Users\PCHAUT~1\AppData\Local\Temp\ccLTr2Pw.s:1642   .rodata.__func__.7877:00000000 $d
C:\Users\PCHAUT~1\AppData\Local\Temp\ccLTr2Pw.s:1648   .rodata.__func__.7913:00000000 $d

UNDEFINED SYMBOLS
__stack_chk_fail
__stack_chk_guard
_stats_start_measure_crit_thd
_dbg_check_lock
_dbg_check_unlock
_stats_stop_measure_crit_thd
chSysHalt
ch
chDbgCheckClassI
chThdDequeueAllI
chThdDequeueNextI
chThdEnqueueTimeoutS
