ARM GAS  C:\Users\PCHAUT~1\AppData\Local\Temp\ccLTr2Pw.s 			page 1


   1              		.cpu cortex-m4
   2              		.eabi_attribute 27, 1
   3              		.eabi_attribute 28, 1
   4              		.eabi_attribute 20, 1
   5              		.eabi_attribute 21, 1
   6              		.eabi_attribute 23, 3
   7              		.eabi_attribute 24, 1
   8              		.eabi_attribute 25, 1
   9              		.eabi_attribute 26, 1
  10              		.eabi_attribute 30, 6
  11              		.eabi_attribute 34, 1
  12              		.eabi_attribute 18, 4
  13              		.file	"chqueues.c"
  14              		.text
  15              	.Ltext0:
  16              		.cfi_sections	.debug_frame
  17              		.section	.text.port_lock,"ax",%progbits
  18              		.align	1
  19              		.p2align 4,,15
  20              		.syntax unified
  21              		.thumb
  22              		.thumb_func
  23              		.fpu fpv4-sp-d16
  24              		.type	port_lock, %function
  25              	port_lock:
  26              	.LFB116:
  27              		.file 1 "../lib/e-puck2_main-processor/ChibiOS//os/rt/ports/ARMCMx/chcore_v7m.h"
  28              		.loc 1 444 0
  29              		.cfi_startproc
  30              		@ args = 0, pretend = 0, frame = 8
  31              		@ frame_needed = 0, uses_anonymous_args = 0
  32 0000 00B5     		push	{lr}
  33              		.cfi_def_cfa_offset 4
  34              		.cfi_offset 14, -4
  35 0002 83B0     		sub	sp, sp, #12
  36              		.cfi_def_cfa_offset 16
  37              		.loc 1 444 0
  38 0004 094B     		ldr	r3, .L3
  39 0006 1B68     		ldr	r3, [r3]
  40 0008 0193     		str	r3, [sp, #4]
  41 000a 2023     		movs	r3, #32
  42 000c 0093     		str	r3, [sp]
  43              	.LBB6:
  44              	.LBB7:
  45              		.file 2 "../lib/e-puck2_main-processor/ChibiOS//os/ext/CMSIS/include/core_cmFunc.h"
  46              		.loc 2 546 0
  47 000e 009B     		ldr	r3, [sp]
  48              		.syntax unified
  49              	@ 546 "../lib/e-puck2_main-processor/ChibiOS//os/ext/CMSIS/include/core_cmFunc.h" 1
  50 0010 83F31188 		MSR basepri, r3
  51              	@ 0 "" 2
  52              		.thumb
  53              		.syntax unified
  54              	.LBE7:
  55              	.LBE6:
  56              		.loc 1 451 0
  57 0014 00BF     		nop
ARM GAS  C:\Users\PCHAUT~1\AppData\Local\Temp\ccLTr2Pw.s 			page 2


  58 0016 054B     		ldr	r3, .L3
  59 0018 019A     		ldr	r2, [sp, #4]
  60 001a 1B68     		ldr	r3, [r3]
  61 001c 9A42     		cmp	r2, r3
  62 001e 01D0     		beq	.L2
  63 0020 FFF7FEFF 		bl	__stack_chk_fail
  64              	.L2:
  65 0024 03B0     		add	sp, sp, #12
  66              		.cfi_def_cfa_offset 4
  67              		@ sp needed
  68 0026 5DF804FB 		ldr	pc, [sp], #4
  69              	.L4:
  70 002a 00BF     		.align	2
  71              	.L3:
  72 002c 00000000 		.word	__stack_chk_guard
  73              		.cfi_endproc
  74              	.LFE116:
  75              		.size	port_lock, .-port_lock
  76              		.section	.text.port_unlock,"ax",%progbits
  77              		.align	1
  78              		.p2align 4,,15
  79              		.syntax unified
  80              		.thumb
  81              		.thumb_func
  82              		.fpu fpv4-sp-d16
  83              		.type	port_unlock, %function
  84              	port_unlock:
  85              	.LFB117:
  86              		.loc 1 458 0
  87              		.cfi_startproc
  88              		@ args = 0, pretend = 0, frame = 8
  89              		@ frame_needed = 0, uses_anonymous_args = 0
  90 0000 00B5     		push	{lr}
  91              		.cfi_def_cfa_offset 4
  92              		.cfi_offset 14, -4
  93 0002 83B0     		sub	sp, sp, #12
  94              		.cfi_def_cfa_offset 16
  95              		.loc 1 458 0
  96 0004 094B     		ldr	r3, .L7
  97 0006 1B68     		ldr	r3, [r3]
  98 0008 0193     		str	r3, [sp, #4]
  99 000a 0023     		movs	r3, #0
 100 000c 0093     		str	r3, [sp]
 101              	.LBB8:
 102              	.LBB9:
 103              		.loc 2 546 0
 104 000e 009B     		ldr	r3, [sp]
 105              		.syntax unified
 106              	@ 546 "../lib/e-puck2_main-processor/ChibiOS//os/ext/CMSIS/include/core_cmFunc.h" 1
 107 0010 83F31188 		MSR basepri, r3
 108              	@ 0 "" 2
 109              		.thumb
 110              		.syntax unified
 111              	.LBE9:
 112              	.LBE8:
 113              		.loc 1 465 0
 114 0014 00BF     		nop
ARM GAS  C:\Users\PCHAUT~1\AppData\Local\Temp\ccLTr2Pw.s 			page 3


 115 0016 054B     		ldr	r3, .L7
 116 0018 019A     		ldr	r2, [sp, #4]
 117 001a 1B68     		ldr	r3, [r3]
 118 001c 9A42     		cmp	r2, r3
 119 001e 01D0     		beq	.L6
 120 0020 FFF7FEFF 		bl	__stack_chk_fail
 121              	.L6:
 122 0024 03B0     		add	sp, sp, #12
 123              		.cfi_def_cfa_offset 4
 124              		@ sp needed
 125 0026 5DF804FB 		ldr	pc, [sp], #4
 126              	.L8:
 127 002a 00BF     		.align	2
 128              	.L7:
 129 002c 00000000 		.word	__stack_chk_guard
 130              		.cfi_endproc
 131              	.LFE117:
 132              		.size	port_unlock, .-port_unlock
 133              		.section	.text.queue_init,"ax",%progbits
 134              		.align	1
 135              		.p2align 4,,15
 136              		.syntax unified
 137              		.thumb
 138              		.thumb_func
 139              		.fpu fpv4-sp-d16
 140              		.type	queue_init, %function
 141              	queue_init:
 142              	.LFB128:
 143              		.file 3 "../lib/e-puck2_main-processor/ChibiOS//os/rt/include/chschd.h"
 144              		.loc 3 602 0
 145              		.cfi_startproc
 146              		@ args = 0, pretend = 0, frame = 16
 147              		@ frame_needed = 0, uses_anonymous_args = 0
 148 0000 00B5     		push	{lr}
 149              		.cfi_def_cfa_offset 4
 150              		.cfi_offset 14, -4
 151 0002 85B0     		sub	sp, sp, #20
 152              		.cfi_def_cfa_offset 24
 153 0004 0190     		str	r0, [sp, #4]
 154              		.loc 3 602 0
 155 0006 0A4B     		ldr	r3, .L11
 156 0008 1B68     		ldr	r3, [r3]
 157 000a 0393     		str	r3, [sp, #12]
 158              		.loc 3 604 0
 159 000c 019B     		ldr	r3, [sp, #4]
 160 000e 019A     		ldr	r2, [sp, #4]
 161 0010 1A60     		str	r2, [r3]
 162              		.loc 3 605 0
 163 0012 019B     		ldr	r3, [sp, #4]
 164 0014 019A     		ldr	r2, [sp, #4]
 165 0016 5A60     		str	r2, [r3, #4]
 166              		.loc 3 606 0
 167 0018 00BF     		nop
 168 001a 054B     		ldr	r3, .L11
 169 001c 039A     		ldr	r2, [sp, #12]
 170 001e 1B68     		ldr	r3, [r3]
 171 0020 9A42     		cmp	r2, r3
ARM GAS  C:\Users\PCHAUT~1\AppData\Local\Temp\ccLTr2Pw.s 			page 4


 172 0022 01D0     		beq	.L10
 173 0024 FFF7FEFF 		bl	__stack_chk_fail
 174              	.L10:
 175 0028 05B0     		add	sp, sp, #20
 176              		.cfi_def_cfa_offset 4
 177              		@ sp needed
 178 002a 5DF804FB 		ldr	pc, [sp], #4
 179              	.L12:
 180 002e 00BF     		.align	2
 181              	.L11:
 182 0030 00000000 		.word	__stack_chk_guard
 183              		.cfi_endproc
 184              	.LFE128:
 185              		.size	queue_init, .-queue_init
 186              		.section	.text.chSysLock,"ax",%progbits
 187              		.align	1
 188              		.p2align 4,,15
 189              		.syntax unified
 190              		.thumb
 191              		.thumb_func
 192              		.fpu fpv4-sp-d16
 193              		.type	chSysLock, %function
 194              	chSysLock:
 195              	.LFB145:
 196              		.file 4 "../lib/e-puck2_main-processor/ChibiOS//os/rt/include/chsys.h"
 197              		.loc 4 346 0
 198              		.cfi_startproc
 199              		@ args = 0, pretend = 0, frame = 8
 200              		@ frame_needed = 0, uses_anonymous_args = 0
 201 0000 00B5     		push	{lr}
 202              		.cfi_def_cfa_offset 4
 203              		.cfi_offset 14, -4
 204 0002 83B0     		sub	sp, sp, #12
 205              		.cfi_def_cfa_offset 16
 206              		.loc 4 346 0
 207 0004 094B     		ldr	r3, .L15
 208 0006 1B68     		ldr	r3, [r3]
 209 0008 0193     		str	r3, [sp, #4]
 210              		.loc 4 348 0
 211 000a FFF7FEFF 		bl	port_lock
 212              		.loc 4 349 0
 213 000e FFF7FEFF 		bl	_stats_start_measure_crit_thd
 214              		.loc 4 350 0
 215 0012 FFF7FEFF 		bl	_dbg_check_lock
 216              		.loc 4 351 0
 217 0016 00BF     		nop
 218 0018 044B     		ldr	r3, .L15
 219 001a 019A     		ldr	r2, [sp, #4]
 220 001c 1B68     		ldr	r3, [r3]
 221 001e 9A42     		cmp	r2, r3
 222 0020 01D0     		beq	.L14
 223 0022 FFF7FEFF 		bl	__stack_chk_fail
 224              	.L14:
 225 0026 03B0     		add	sp, sp, #12
 226              		.cfi_def_cfa_offset 4
 227              		@ sp needed
 228 0028 5DF804FB 		ldr	pc, [sp], #4
ARM GAS  C:\Users\PCHAUT~1\AppData\Local\Temp\ccLTr2Pw.s 			page 5


 229              	.L16:
 230              		.align	2
 231              	.L15:
 232 002c 00000000 		.word	__stack_chk_guard
 233              		.cfi_endproc
 234              	.LFE145:
 235              		.size	chSysLock, .-chSysLock
 236              		.section	.text.chSysUnlock,"ax",%progbits
 237              		.align	1
 238              		.p2align 4,,15
 239              		.syntax unified
 240              		.thumb
 241              		.thumb_func
 242              		.fpu fpv4-sp-d16
 243              		.type	chSysUnlock, %function
 244              	chSysUnlock:
 245              	.LFB146:
 246              		.loc 4 358 0
 247              		.cfi_startproc
 248              		@ args = 0, pretend = 0, frame = 8
 249              		@ frame_needed = 0, uses_anonymous_args = 0
 250 0000 00B5     		push	{lr}
 251              		.cfi_def_cfa_offset 4
 252              		.cfi_offset 14, -4
 253 0002 83B0     		sub	sp, sp, #12
 254              		.cfi_def_cfa_offset 16
 255              		.loc 4 358 0
 256 0004 114B     		ldr	r3, .L20
 257 0006 1B68     		ldr	r3, [r3]
 258 0008 0193     		str	r3, [sp, #4]
 259              		.loc 4 360 0
 260 000a FFF7FEFF 		bl	_dbg_check_unlock
 261              		.loc 4 361 0
 262 000e FFF7FEFF 		bl	_stats_stop_measure_crit_thd
 263              		.loc 4 367 0
 264 0012 0F4B     		ldr	r3, .L20+4
 265 0014 1B68     		ldr	r3, [r3]
 266 0016 0E4A     		ldr	r2, .L20+4
 267 0018 9342     		cmp	r3, r2
 268 001a 0AD0     		beq	.L18
 269              		.loc 4 367 0 is_stmt 0 discriminator 2
 270 001c 0C4B     		ldr	r3, .L20+4
 271 001e 9B69     		ldr	r3, [r3, #24]
 272 0020 9A68     		ldr	r2, [r3, #8]
 273 0022 0B4B     		ldr	r3, .L20+4
 274 0024 1B68     		ldr	r3, [r3]
 275 0026 9B68     		ldr	r3, [r3, #8]
 276 0028 9A42     		cmp	r2, r3
 277 002a 02D2     		bcs	.L18
 278              		.loc 4 367 0 discriminator 3
 279 002c 0948     		ldr	r0, .L20+8
 280 002e FFF7FEFF 		bl	chSysHalt
 281              	.L18:
 282              		.loc 4 371 0 is_stmt 1
 283 0032 FFF7FEFF 		bl	port_unlock
 284              		.loc 4 372 0
 285 0036 00BF     		nop
ARM GAS  C:\Users\PCHAUT~1\AppData\Local\Temp\ccLTr2Pw.s 			page 6


 286 0038 044B     		ldr	r3, .L20
 287 003a 019A     		ldr	r2, [sp, #4]
 288 003c 1B68     		ldr	r3, [r3]
 289 003e 9A42     		cmp	r2, r3
 290 0040 01D0     		beq	.L19
 291 0042 FFF7FEFF 		bl	__stack_chk_fail
 292              	.L19:
 293 0046 03B0     		add	sp, sp, #12
 294              		.cfi_def_cfa_offset 4
 295              		@ sp needed
 296 0048 5DF804FB 		ldr	pc, [sp], #4
 297              	.L21:
 298              		.align	2
 299              	.L20:
 300 004c 00000000 		.word	__stack_chk_guard
 301 0050 00000000 		.word	ch
 302 0054 00000000 		.word	__func__.7153
 303              		.cfi_endproc
 304              	.LFE146:
 305              		.size	chSysUnlock, .-chSysUnlock
 306              		.section	.text.chThdQueueObjectInit,"ax",%progbits
 307              		.align	1
 308              		.p2align 4,,15
 309              		.syntax unified
 310              		.thumb
 311              		.thumb_func
 312              		.fpu fpv4-sp-d16
 313              		.type	chThdQueueObjectInit, %function
 314              	chThdQueueObjectInit:
 315              	.LFB173:
 316              		.file 5 "../lib/e-puck2_main-processor/ChibiOS//os/rt/include/chthreads.h"
 317              		.loc 5 278 0
 318              		.cfi_startproc
 319              		@ args = 0, pretend = 0, frame = 16
 320              		@ frame_needed = 0, uses_anonymous_args = 0
 321 0000 00B5     		push	{lr}
 322              		.cfi_def_cfa_offset 4
 323              		.cfi_offset 14, -4
 324 0002 85B0     		sub	sp, sp, #20
 325              		.cfi_def_cfa_offset 24
 326 0004 0190     		str	r0, [sp, #4]
 327              		.loc 5 278 0
 328 0006 084B     		ldr	r3, .L24
 329 0008 1B68     		ldr	r3, [r3]
 330 000a 0393     		str	r3, [sp, #12]
 331              		.loc 5 280 0
 332 000c 0198     		ldr	r0, [sp, #4]
 333 000e FFF7FEFF 		bl	queue_init
 334              		.loc 5 281 0
 335 0012 00BF     		nop
 336 0014 044B     		ldr	r3, .L24
 337 0016 039A     		ldr	r2, [sp, #12]
 338 0018 1B68     		ldr	r3, [r3]
 339 001a 9A42     		cmp	r2, r3
 340 001c 01D0     		beq	.L23
 341 001e FFF7FEFF 		bl	__stack_chk_fail
 342              	.L23:
ARM GAS  C:\Users\PCHAUT~1\AppData\Local\Temp\ccLTr2Pw.s 			page 7


 343 0022 05B0     		add	sp, sp, #20
 344              		.cfi_def_cfa_offset 4
 345              		@ sp needed
 346 0024 5DF804FB 		ldr	pc, [sp], #4
 347              	.L25:
 348              		.align	2
 349              	.L24:
 350 0028 00000000 		.word	__stack_chk_guard
 351              		.cfi_endproc
 352              	.LFE173:
 353              		.size	chThdQueueObjectInit, .-chThdQueueObjectInit
 354              		.section	.text.chIQIsEmptyI,"ax",%progbits
 355              		.align	1
 356              		.p2align 4,,15
 357              		.syntax unified
 358              		.thumb
 359              		.thumb_func
 360              		.fpu fpv4-sp-d16
 361              		.type	chIQIsEmptyI, %function
 362              	chIQIsEmptyI:
 363              	.LFB211:
 364              		.file 6 "../lib/e-puck2_main-processor/ChibiOS//os/rt/include/chqueues.h"
 365              		.loc 6 303 0
 366              		.cfi_startproc
 367              		@ args = 0, pretend = 0, frame = 16
 368              		@ frame_needed = 0, uses_anonymous_args = 0
 369 0000 00B5     		push	{lr}
 370              		.cfi_def_cfa_offset 4
 371              		.cfi_offset 14, -4
 372 0002 85B0     		sub	sp, sp, #20
 373              		.cfi_def_cfa_offset 24
 374 0004 0190     		str	r0, [sp, #4]
 375              		.loc 6 303 0
 376 0006 0B4B     		ldr	r3, .L29
 377 0008 1B68     		ldr	r3, [r3]
 378 000a 0393     		str	r3, [sp, #12]
 379              		.loc 6 305 0
 380 000c FFF7FEFF 		bl	chDbgCheckClassI
 381              		.loc 6 307 0
 382 0010 019B     		ldr	r3, [sp, #4]
 383 0012 9B68     		ldr	r3, [r3, #8]
 384 0014 002B     		cmp	r3, #0
 385 0016 0CBF     		ite	eq
 386 0018 0123     		moveq	r3, #1
 387 001a 0023     		movne	r3, #0
 388 001c DBB2     		uxtb	r3, r3
 389              		.loc 6 308 0
 390 001e 1846     		mov	r0, r3
 391 0020 044B     		ldr	r3, .L29
 392 0022 039A     		ldr	r2, [sp, #12]
 393 0024 1B68     		ldr	r3, [r3]
 394 0026 9A42     		cmp	r2, r3
 395 0028 01D0     		beq	.L28
 396 002a FFF7FEFF 		bl	__stack_chk_fail
 397              	.L28:
 398 002e 05B0     		add	sp, sp, #20
 399              		.cfi_def_cfa_offset 4
ARM GAS  C:\Users\PCHAUT~1\AppData\Local\Temp\ccLTr2Pw.s 			page 8


 400              		@ sp needed
 401 0030 5DF804FB 		ldr	pc, [sp], #4
 402              	.L30:
 403              		.align	2
 404              	.L29:
 405 0034 00000000 		.word	__stack_chk_guard
 406              		.cfi_endproc
 407              	.LFE211:
 408              		.size	chIQIsEmptyI, .-chIQIsEmptyI
 409              		.section	.text.chIQIsFullI,"ax",%progbits
 410              		.align	1
 411              		.p2align 4,,15
 412              		.syntax unified
 413              		.thumb
 414              		.thumb_func
 415              		.fpu fpv4-sp-d16
 416              		.type	chIQIsFullI, %function
 417              	chIQIsFullI:
 418              	.LFB212:
 419              		.loc 6 320 0
 420              		.cfi_startproc
 421              		@ args = 0, pretend = 0, frame = 16
 422              		@ frame_needed = 0, uses_anonymous_args = 0
 423 0000 00B5     		push	{lr}
 424              		.cfi_def_cfa_offset 4
 425              		.cfi_offset 14, -4
 426 0002 85B0     		sub	sp, sp, #20
 427              		.cfi_def_cfa_offset 24
 428 0004 0190     		str	r0, [sp, #4]
 429              		.loc 6 320 0
 430 0006 104B     		ldr	r3, .L36
 431 0008 1B68     		ldr	r3, [r3]
 432 000a 0393     		str	r3, [sp, #12]
 433              		.loc 6 322 0
 434 000c FFF7FEFF 		bl	chDbgCheckClassI
 435              		.loc 6 324 0
 436 0010 019B     		ldr	r3, [sp, #4]
 437 0012 5A69     		ldr	r2, [r3, #20]
 438 0014 019B     		ldr	r3, [sp, #4]
 439 0016 9B69     		ldr	r3, [r3, #24]
 440 0018 9A42     		cmp	r2, r3
 441 001a 05D1     		bne	.L32
 442              		.loc 6 324 0 is_stmt 0 discriminator 1
 443 001c 019B     		ldr	r3, [sp, #4]
 444 001e 9B68     		ldr	r3, [r3, #8]
 445 0020 002B     		cmp	r3, #0
 446 0022 01D0     		beq	.L32
 447              		.loc 6 324 0 discriminator 3
 448 0024 0123     		movs	r3, #1
 449 0026 00E0     		b	.L33
 450              	.L32:
 451              		.loc 6 324 0 discriminator 4
 452 0028 0023     		movs	r3, #0
 453              	.L33:
 454              		.loc 6 324 0 discriminator 6
 455 002a 03F00103 		and	r3, r3, #1
 456 002e DBB2     		uxtb	r3, r3
ARM GAS  C:\Users\PCHAUT~1\AppData\Local\Temp\ccLTr2Pw.s 			page 9


 457              		.loc 6 325 0 is_stmt 1 discriminator 6
 458 0030 1846     		mov	r0, r3
 459 0032 054B     		ldr	r3, .L36
 460 0034 039A     		ldr	r2, [sp, #12]
 461 0036 1B68     		ldr	r3, [r3]
 462 0038 9A42     		cmp	r2, r3
 463 003a 01D0     		beq	.L35
 464              		.loc 6 325 0 is_stmt 0
 465 003c FFF7FEFF 		bl	__stack_chk_fail
 466              	.L35:
 467 0040 05B0     		add	sp, sp, #20
 468              		.cfi_def_cfa_offset 4
 469              		@ sp needed
 470 0042 5DF804FB 		ldr	pc, [sp], #4
 471              	.L37:
 472 0046 00BF     		.align	2
 473              	.L36:
 474 0048 00000000 		.word	__stack_chk_guard
 475              		.cfi_endproc
 476              	.LFE212:
 477              		.size	chIQIsFullI, .-chIQIsFullI
 478              		.section	.text.chOQIsEmptyI,"ax",%progbits
 479              		.align	1
 480              		.p2align 4,,15
 481              		.syntax unified
 482              		.thumb
 483              		.thumb_func
 484              		.fpu fpv4-sp-d16
 485              		.type	chOQIsEmptyI, %function
 486              	chOQIsEmptyI:
 487              	.LFB216:
 488              		.loc 6 386 0 is_stmt 1
 489              		.cfi_startproc
 490              		@ args = 0, pretend = 0, frame = 16
 491              		@ frame_needed = 0, uses_anonymous_args = 0
 492 0000 00B5     		push	{lr}
 493              		.cfi_def_cfa_offset 4
 494              		.cfi_offset 14, -4
 495 0002 85B0     		sub	sp, sp, #20
 496              		.cfi_def_cfa_offset 24
 497 0004 0190     		str	r0, [sp, #4]
 498              		.loc 6 386 0
 499 0006 104B     		ldr	r3, .L43
 500 0008 1B68     		ldr	r3, [r3]
 501 000a 0393     		str	r3, [sp, #12]
 502              		.loc 6 388 0
 503 000c FFF7FEFF 		bl	chDbgCheckClassI
 504              		.loc 6 390 0
 505 0010 019B     		ldr	r3, [sp, #4]
 506 0012 5A69     		ldr	r2, [r3, #20]
 507 0014 019B     		ldr	r3, [sp, #4]
 508 0016 9B69     		ldr	r3, [r3, #24]
 509 0018 9A42     		cmp	r2, r3
 510 001a 05D1     		bne	.L39
 511              		.loc 6 390 0 is_stmt 0 discriminator 1
 512 001c 019B     		ldr	r3, [sp, #4]
 513 001e 9B68     		ldr	r3, [r3, #8]
ARM GAS  C:\Users\PCHAUT~1\AppData\Local\Temp\ccLTr2Pw.s 			page 10


 514 0020 002B     		cmp	r3, #0
 515 0022 01D0     		beq	.L39
 516              		.loc 6 390 0 discriminator 3
 517 0024 0123     		movs	r3, #1
 518 0026 00E0     		b	.L40
 519              	.L39:
 520              		.loc 6 390 0 discriminator 4
 521 0028 0023     		movs	r3, #0
 522              	.L40:
 523              		.loc 6 390 0 discriminator 6
 524 002a 03F00103 		and	r3, r3, #1
 525 002e DBB2     		uxtb	r3, r3
 526              		.loc 6 391 0 is_stmt 1 discriminator 6
 527 0030 1846     		mov	r0, r3
 528 0032 054B     		ldr	r3, .L43
 529 0034 039A     		ldr	r2, [sp, #12]
 530 0036 1B68     		ldr	r3, [r3]
 531 0038 9A42     		cmp	r2, r3
 532 003a 01D0     		beq	.L42
 533              		.loc 6 391 0 is_stmt 0
 534 003c FFF7FEFF 		bl	__stack_chk_fail
 535              	.L42:
 536 0040 05B0     		add	sp, sp, #20
 537              		.cfi_def_cfa_offset 4
 538              		@ sp needed
 539 0042 5DF804FB 		ldr	pc, [sp], #4
 540              	.L44:
 541 0046 00BF     		.align	2
 542              	.L43:
 543 0048 00000000 		.word	__stack_chk_guard
 544              		.cfi_endproc
 545              	.LFE216:
 546              		.size	chOQIsEmptyI, .-chOQIsEmptyI
 547              		.section	.text.chOQIsFullI,"ax",%progbits
 548              		.align	1
 549              		.p2align 4,,15
 550              		.syntax unified
 551              		.thumb
 552              		.thumb_func
 553              		.fpu fpv4-sp-d16
 554              		.type	chOQIsFullI, %function
 555              	chOQIsFullI:
 556              	.LFB217:
 557              		.loc 6 403 0 is_stmt 1
 558              		.cfi_startproc
 559              		@ args = 0, pretend = 0, frame = 16
 560              		@ frame_needed = 0, uses_anonymous_args = 0
 561 0000 00B5     		push	{lr}
 562              		.cfi_def_cfa_offset 4
 563              		.cfi_offset 14, -4
 564 0002 85B0     		sub	sp, sp, #20
 565              		.cfi_def_cfa_offset 24
 566 0004 0190     		str	r0, [sp, #4]
 567              		.loc 6 403 0
 568 0006 0B4B     		ldr	r3, .L48
 569 0008 1B68     		ldr	r3, [r3]
 570 000a 0393     		str	r3, [sp, #12]
ARM GAS  C:\Users\PCHAUT~1\AppData\Local\Temp\ccLTr2Pw.s 			page 11


 571              		.loc 6 405 0
 572 000c FFF7FEFF 		bl	chDbgCheckClassI
 573              		.loc 6 407 0
 574 0010 019B     		ldr	r3, [sp, #4]
 575 0012 9B68     		ldr	r3, [r3, #8]
 576 0014 002B     		cmp	r3, #0
 577 0016 0CBF     		ite	eq
 578 0018 0123     		moveq	r3, #1
 579 001a 0023     		movne	r3, #0
 580 001c DBB2     		uxtb	r3, r3
 581              		.loc 6 408 0
 582 001e 1846     		mov	r0, r3
 583 0020 044B     		ldr	r3, .L48
 584 0022 039A     		ldr	r2, [sp, #12]
 585 0024 1B68     		ldr	r3, [r3]
 586 0026 9A42     		cmp	r2, r3
 587 0028 01D0     		beq	.L47
 588 002a FFF7FEFF 		bl	__stack_chk_fail
 589              	.L47:
 590 002e 05B0     		add	sp, sp, #20
 591              		.cfi_def_cfa_offset 4
 592              		@ sp needed
 593 0030 5DF804FB 		ldr	pc, [sp], #4
 594              	.L49:
 595              		.align	2
 596              	.L48:
 597 0034 00000000 		.word	__stack_chk_guard
 598              		.cfi_endproc
 599              	.LFE217:
 600              		.size	chOQIsFullI, .-chOQIsFullI
 601              		.section	.text.chIQObjectInit,"ax",%progbits
 602              		.align	1
 603              		.p2align 4,,15
 604              		.global	chIQObjectInit
 605              		.syntax unified
 606              		.thumb
 607              		.thumb_func
 608              		.fpu fpv4-sp-d16
 609              		.type	chIQObjectInit, %function
 610              	chIQObjectInit:
 611              	.LFB219:
 612              		.file 7 "../lib/e-puck2_main-processor/ChibiOS//os/rt/src/chqueues.c"
 613              		.loc 7 88 0
 614              		.cfi_startproc
 615              		@ args = 4, pretend = 0, frame = 32
 616              		@ frame_needed = 0, uses_anonymous_args = 0
 617 0000 00B5     		push	{lr}
 618              		.cfi_def_cfa_offset 4
 619              		.cfi_offset 14, -4
 620 0002 89B0     		sub	sp, sp, #36
 621              		.cfi_def_cfa_offset 40
 622 0004 0590     		str	r0, [sp, #20]
 623 0006 0491     		str	r1, [sp, #16]
 624 0008 0392     		str	r2, [sp, #12]
 625 000a 0293     		str	r3, [sp, #8]
 626 000c 0A9B     		ldr	r3, [sp, #40]
 627 000e 0193     		str	r3, [sp, #4]
ARM GAS  C:\Users\PCHAUT~1\AppData\Local\Temp\ccLTr2Pw.s 			page 12


 628              		.loc 7 88 0
 629 0010 144B     		ldr	r3, .L52
 630 0012 1B68     		ldr	r3, [r3]
 631 0014 0793     		str	r3, [sp, #28]
 632              		.loc 7 90 0
 633 0016 059B     		ldr	r3, [sp, #20]
 634 0018 1846     		mov	r0, r3
 635 001a FFF7FEFF 		bl	chThdQueueObjectInit
 636              		.loc 7 91 0
 637 001e 059B     		ldr	r3, [sp, #20]
 638 0020 0022     		movs	r2, #0
 639 0022 9A60     		str	r2, [r3, #8]
 640              		.loc 7 92 0
 641 0024 059B     		ldr	r3, [sp, #20]
 642 0026 049A     		ldr	r2, [sp, #16]
 643 0028 DA60     		str	r2, [r3, #12]
 644              		.loc 7 93 0
 645 002a 059B     		ldr	r3, [sp, #20]
 646 002c 049A     		ldr	r2, [sp, #16]
 647 002e 9A61     		str	r2, [r3, #24]
 648              		.loc 7 94 0
 649 0030 059B     		ldr	r3, [sp, #20]
 650 0032 049A     		ldr	r2, [sp, #16]
 651 0034 5A61     		str	r2, [r3, #20]
 652              		.loc 7 95 0
 653 0036 049A     		ldr	r2, [sp, #16]
 654 0038 039B     		ldr	r3, [sp, #12]
 655 003a 1A44     		add	r2, r2, r3
 656 003c 059B     		ldr	r3, [sp, #20]
 657 003e 1A61     		str	r2, [r3, #16]
 658              		.loc 7 96 0
 659 0040 059B     		ldr	r3, [sp, #20]
 660 0042 029A     		ldr	r2, [sp, #8]
 661 0044 DA61     		str	r2, [r3, #28]
 662              		.loc 7 97 0
 663 0046 059B     		ldr	r3, [sp, #20]
 664 0048 019A     		ldr	r2, [sp, #4]
 665 004a 1A62     		str	r2, [r3, #32]
 666              		.loc 7 98 0
 667 004c 00BF     		nop
 668 004e 054B     		ldr	r3, .L52
 669 0050 079A     		ldr	r2, [sp, #28]
 670 0052 1B68     		ldr	r3, [r3]
 671 0054 9A42     		cmp	r2, r3
 672 0056 01D0     		beq	.L51
 673 0058 FFF7FEFF 		bl	__stack_chk_fail
 674              	.L51:
 675 005c 09B0     		add	sp, sp, #36
 676              		.cfi_def_cfa_offset 4
 677              		@ sp needed
 678 005e 5DF804FB 		ldr	pc, [sp], #4
 679              	.L53:
 680 0062 00BF     		.align	2
 681              	.L52:
 682 0064 00000000 		.word	__stack_chk_guard
 683              		.cfi_endproc
 684              	.LFE219:
ARM GAS  C:\Users\PCHAUT~1\AppData\Local\Temp\ccLTr2Pw.s 			page 13


 685              		.size	chIQObjectInit, .-chIQObjectInit
 686              		.section	.text.chIQResetI,"ax",%progbits
 687              		.align	1
 688              		.p2align 4,,15
 689              		.global	chIQResetI
 690              		.syntax unified
 691              		.thumb
 692              		.thumb_func
 693              		.fpu fpv4-sp-d16
 694              		.type	chIQResetI, %function
 695              	chIQResetI:
 696              	.LFB220:
 697              		.loc 7 111 0
 698              		.cfi_startproc
 699              		@ args = 0, pretend = 0, frame = 16
 700              		@ frame_needed = 0, uses_anonymous_args = 0
 701 0000 00B5     		push	{lr}
 702              		.cfi_def_cfa_offset 4
 703              		.cfi_offset 14, -4
 704 0002 85B0     		sub	sp, sp, #20
 705              		.cfi_def_cfa_offset 24
 706 0004 0190     		str	r0, [sp, #4]
 707              		.loc 7 111 0
 708 0006 104B     		ldr	r3, .L56
 709 0008 1B68     		ldr	r3, [r3]
 710 000a 0393     		str	r3, [sp, #12]
 711              		.loc 7 113 0
 712 000c FFF7FEFF 		bl	chDbgCheckClassI
 713              		.loc 7 115 0
 714 0010 019B     		ldr	r3, [sp, #4]
 715 0012 DA68     		ldr	r2, [r3, #12]
 716 0014 019B     		ldr	r3, [sp, #4]
 717 0016 9A61     		str	r2, [r3, #24]
 718              		.loc 7 116 0
 719 0018 019B     		ldr	r3, [sp, #4]
 720 001a DA68     		ldr	r2, [r3, #12]
 721 001c 019B     		ldr	r3, [sp, #4]
 722 001e 5A61     		str	r2, [r3, #20]
 723              		.loc 7 117 0
 724 0020 019B     		ldr	r3, [sp, #4]
 725 0022 0022     		movs	r2, #0
 726 0024 9A60     		str	r2, [r3, #8]
 727              		.loc 7 118 0
 728 0026 019B     		ldr	r3, [sp, #4]
 729 0028 6FF00101 		mvn	r1, #1
 730 002c 1846     		mov	r0, r3
 731 002e FFF7FEFF 		bl	chThdDequeueAllI
 732              		.loc 7 119 0
 733 0032 00BF     		nop
 734 0034 044B     		ldr	r3, .L56
 735 0036 039A     		ldr	r2, [sp, #12]
 736 0038 1B68     		ldr	r3, [r3]
 737 003a 9A42     		cmp	r2, r3
 738 003c 01D0     		beq	.L55
 739 003e FFF7FEFF 		bl	__stack_chk_fail
 740              	.L55:
 741 0042 05B0     		add	sp, sp, #20
ARM GAS  C:\Users\PCHAUT~1\AppData\Local\Temp\ccLTr2Pw.s 			page 14


 742              		.cfi_def_cfa_offset 4
 743              		@ sp needed
 744 0044 5DF804FB 		ldr	pc, [sp], #4
 745              	.L57:
 746              		.align	2
 747              	.L56:
 748 0048 00000000 		.word	__stack_chk_guard
 749              		.cfi_endproc
 750              	.LFE220:
 751              		.size	chIQResetI, .-chIQResetI
 752              		.section	.text.chIQPutI,"ax",%progbits
 753              		.align	1
 754              		.p2align 4,,15
 755              		.global	chIQPutI
 756              		.syntax unified
 757              		.thumb
 758              		.thumb_func
 759              		.fpu fpv4-sp-d16
 760              		.type	chIQPutI, %function
 761              	chIQPutI:
 762              	.LFB221:
 763              		.loc 7 134 0
 764              		.cfi_startproc
 765              		@ args = 0, pretend = 0, frame = 16
 766              		@ frame_needed = 0, uses_anonymous_args = 0
 767 0000 00B5     		push	{lr}
 768              		.cfi_def_cfa_offset 4
 769              		.cfi_offset 14, -4
 770 0002 85B0     		sub	sp, sp, #20
 771              		.cfi_def_cfa_offset 24
 772 0004 0190     		str	r0, [sp, #4]
 773 0006 0B46     		mov	r3, r1
 774 0008 8DF80330 		strb	r3, [sp, #3]
 775              		.loc 7 134 0
 776 000c 1A4B     		ldr	r3, .L63
 777 000e 1B68     		ldr	r3, [r3]
 778 0010 0393     		str	r3, [sp, #12]
 779              		.loc 7 136 0
 780 0012 FFF7FEFF 		bl	chDbgCheckClassI
 781              		.loc 7 138 0
 782 0016 0198     		ldr	r0, [sp, #4]
 783 0018 FFF7FEFF 		bl	chIQIsFullI
 784 001c 0346     		mov	r3, r0
 785 001e 002B     		cmp	r3, #0
 786 0020 02D0     		beq	.L59
 787              		.loc 7 139 0
 788 0022 6FF00303 		mvn	r3, #3
 789 0026 1CE0     		b	.L60
 790              	.L59:
 791              		.loc 7 142 0
 792 0028 019B     		ldr	r3, [sp, #4]
 793 002a 9B68     		ldr	r3, [r3, #8]
 794 002c 5A1C     		adds	r2, r3, #1
 795 002e 019B     		ldr	r3, [sp, #4]
 796 0030 9A60     		str	r2, [r3, #8]
 797              		.loc 7 143 0
 798 0032 019B     		ldr	r3, [sp, #4]
ARM GAS  C:\Users\PCHAUT~1\AppData\Local\Temp\ccLTr2Pw.s 			page 15


 799 0034 5B69     		ldr	r3, [r3, #20]
 800 0036 591C     		adds	r1, r3, #1
 801 0038 019A     		ldr	r2, [sp, #4]
 802 003a 5161     		str	r1, [r2, #20]
 803 003c 9DF80320 		ldrb	r2, [sp, #3]
 804 0040 1A70     		strb	r2, [r3]
 805              		.loc 7 144 0
 806 0042 019B     		ldr	r3, [sp, #4]
 807 0044 5A69     		ldr	r2, [r3, #20]
 808 0046 019B     		ldr	r3, [sp, #4]
 809 0048 1B69     		ldr	r3, [r3, #16]
 810 004a 9A42     		cmp	r2, r3
 811 004c 03D3     		bcc	.L61
 812              		.loc 7 145 0
 813 004e 019B     		ldr	r3, [sp, #4]
 814 0050 DA68     		ldr	r2, [r3, #12]
 815 0052 019B     		ldr	r3, [sp, #4]
 816 0054 5A61     		str	r2, [r3, #20]
 817              	.L61:
 818              		.loc 7 148 0
 819 0056 019B     		ldr	r3, [sp, #4]
 820 0058 0021     		movs	r1, #0
 821 005a 1846     		mov	r0, r3
 822 005c FFF7FEFF 		bl	chThdDequeueNextI
 823              		.loc 7 150 0
 824 0060 0023     		movs	r3, #0
 825              	.L60:
 826              		.loc 7 151 0
 827 0062 1846     		mov	r0, r3
 828 0064 044B     		ldr	r3, .L63
 829 0066 039A     		ldr	r2, [sp, #12]
 830 0068 1B68     		ldr	r3, [r3]
 831 006a 9A42     		cmp	r2, r3
 832 006c 01D0     		beq	.L62
 833 006e FFF7FEFF 		bl	__stack_chk_fail
 834              	.L62:
 835 0072 05B0     		add	sp, sp, #20
 836              		.cfi_def_cfa_offset 4
 837              		@ sp needed
 838 0074 5DF804FB 		ldr	pc, [sp], #4
 839              	.L64:
 840              		.align	2
 841              	.L63:
 842 0078 00000000 		.word	__stack_chk_guard
 843              		.cfi_endproc
 844              	.LFE221:
 845              		.size	chIQPutI, .-chIQPutI
 846              		.section	.text.chIQGetTimeout,"ax",%progbits
 847              		.align	1
 848              		.p2align 4,,15
 849              		.global	chIQGetTimeout
 850              		.syntax unified
 851              		.thumb
 852              		.thumb_func
 853              		.fpu fpv4-sp-d16
 854              		.type	chIQGetTimeout, %function
 855              	chIQGetTimeout:
ARM GAS  C:\Users\PCHAUT~1\AppData\Local\Temp\ccLTr2Pw.s 			page 16


 856              	.LFB222:
 857              		.loc 7 173 0
 858              		.cfi_startproc
 859              		@ args = 0, pretend = 0, frame = 24
 860              		@ frame_needed = 0, uses_anonymous_args = 0
 861 0000 00B5     		push	{lr}
 862              		.cfi_def_cfa_offset 4
 863              		.cfi_offset 14, -4
 864 0002 87B0     		sub	sp, sp, #28
 865              		.cfi_def_cfa_offset 32
 866 0004 0190     		str	r0, [sp, #4]
 867 0006 0091     		str	r1, [sp]
 868              		.loc 7 173 0
 869 0008 234B     		ldr	r3, .L72
 870 000a 1B68     		ldr	r3, [r3]
 871 000c 0593     		str	r3, [sp, #20]
 872              		.loc 7 176 0
 873 000e FFF7FEFF 		bl	chSysLock
 874              		.loc 7 177 0
 875 0012 019B     		ldr	r3, [sp, #4]
 876 0014 DB69     		ldr	r3, [r3, #28]
 877 0016 002B     		cmp	r3, #0
 878 0018 11D0     		beq	.L67
 879              		.loc 7 178 0
 880 001a 019B     		ldr	r3, [sp, #4]
 881 001c DB69     		ldr	r3, [r3, #28]
 882 001e 0198     		ldr	r0, [sp, #4]
 883 0020 9847     		blx	r3
 884              	.LVL0:
 885              		.loc 7 181 0
 886 0022 0CE0     		b	.L67
 887              	.L69:
 888              	.LBB10:
 889              		.loc 7 182 0
 890 0024 019B     		ldr	r3, [sp, #4]
 891 0026 0099     		ldr	r1, [sp]
 892 0028 1846     		mov	r0, r3
 893 002a FFF7FEFF 		bl	chThdEnqueueTimeoutS
 894 002e 0490     		str	r0, [sp, #16]
 895              		.loc 7 183 0
 896 0030 049B     		ldr	r3, [sp, #16]
 897 0032 002B     		cmp	r3, #0
 898 0034 03DA     		bge	.L67
 899              		.loc 7 184 0
 900 0036 FFF7FEFF 		bl	chSysUnlock
 901              		.loc 7 185 0
 902 003a 049B     		ldr	r3, [sp, #16]
 903 003c 20E0     		b	.L68
 904              	.L67:
 905              	.LBE10:
 906              		.loc 7 181 0
 907 003e 0198     		ldr	r0, [sp, #4]
 908 0040 FFF7FEFF 		bl	chIQIsEmptyI
 909 0044 0346     		mov	r3, r0
 910 0046 002B     		cmp	r3, #0
 911 0048 ECD1     		bne	.L69
 912              		.loc 7 189 0
ARM GAS  C:\Users\PCHAUT~1\AppData\Local\Temp\ccLTr2Pw.s 			page 17


 913 004a 019B     		ldr	r3, [sp, #4]
 914 004c 9B68     		ldr	r3, [r3, #8]
 915 004e 5A1E     		subs	r2, r3, #1
 916 0050 019B     		ldr	r3, [sp, #4]
 917 0052 9A60     		str	r2, [r3, #8]
 918              		.loc 7 190 0
 919 0054 019B     		ldr	r3, [sp, #4]
 920 0056 9B69     		ldr	r3, [r3, #24]
 921 0058 591C     		adds	r1, r3, #1
 922 005a 019A     		ldr	r2, [sp, #4]
 923 005c 9161     		str	r1, [r2, #24]
 924 005e 1B78     		ldrb	r3, [r3]
 925 0060 8DF80F30 		strb	r3, [sp, #15]
 926              		.loc 7 191 0
 927 0064 019B     		ldr	r3, [sp, #4]
 928 0066 9A69     		ldr	r2, [r3, #24]
 929 0068 019B     		ldr	r3, [sp, #4]
 930 006a 1B69     		ldr	r3, [r3, #16]
 931 006c 9A42     		cmp	r2, r3
 932 006e 03D3     		bcc	.L70
 933              		.loc 7 192 0
 934 0070 019B     		ldr	r3, [sp, #4]
 935 0072 DA68     		ldr	r2, [r3, #12]
 936 0074 019B     		ldr	r3, [sp, #4]
 937 0076 9A61     		str	r2, [r3, #24]
 938              	.L70:
 939              		.loc 7 194 0
 940 0078 FFF7FEFF 		bl	chSysUnlock
 941              		.loc 7 196 0
 942 007c 9DF80F30 		ldrb	r3, [sp, #15]	@ zero_extendqisi2
 943              	.L68:
 944              		.loc 7 197 0
 945 0080 1846     		mov	r0, r3
 946 0082 054B     		ldr	r3, .L72
 947 0084 059A     		ldr	r2, [sp, #20]
 948 0086 1B68     		ldr	r3, [r3]
 949 0088 9A42     		cmp	r2, r3
 950 008a 01D0     		beq	.L71
 951 008c FFF7FEFF 		bl	__stack_chk_fail
 952              	.L71:
 953 0090 07B0     		add	sp, sp, #28
 954              		.cfi_def_cfa_offset 4
 955              		@ sp needed
 956 0092 5DF804FB 		ldr	pc, [sp], #4
 957              	.L73:
 958 0096 00BF     		.align	2
 959              	.L72:
 960 0098 00000000 		.word	__stack_chk_guard
 961              		.cfi_endproc
 962              	.LFE222:
 963              		.size	chIQGetTimeout, .-chIQGetTimeout
 964              		.section	.text.chIQReadTimeout,"ax",%progbits
 965              		.align	1
 966              		.p2align 4,,15
 967              		.global	chIQReadTimeout
 968              		.syntax unified
 969              		.thumb
ARM GAS  C:\Users\PCHAUT~1\AppData\Local\Temp\ccLTr2Pw.s 			page 18


 970              		.thumb_func
 971              		.fpu fpv4-sp-d16
 972              		.type	chIQReadTimeout, %function
 973              	chIQReadTimeout:
 974              	.LFB223:
 975              		.loc 7 224 0
 976              		.cfi_startproc
 977              		@ args = 0, pretend = 0, frame = 32
 978              		@ frame_needed = 0, uses_anonymous_args = 0
 979 0000 00B5     		push	{lr}
 980              		.cfi_def_cfa_offset 4
 981              		.cfi_offset 14, -4
 982 0002 89B0     		sub	sp, sp, #36
 983              		.cfi_def_cfa_offset 40
 984 0004 0390     		str	r0, [sp, #12]
 985 0006 0291     		str	r1, [sp, #8]
 986 0008 0192     		str	r2, [sp, #4]
 987 000a 0093     		str	r3, [sp]
 988              		.loc 7 224 0
 989 000c 2E4B     		ldr	r3, .L84
 990 000e 1B68     		ldr	r3, [r3]
 991 0010 0793     		str	r3, [sp, #28]
 992              		.loc 7 225 0
 993 0012 039B     		ldr	r3, [sp, #12]
 994 0014 DB69     		ldr	r3, [r3, #28]
 995 0016 0693     		str	r3, [sp, #24]
 996              		.loc 7 226 0
 997 0018 0023     		movs	r3, #0
 998 001a 0593     		str	r3, [sp, #20]
 999              		.loc 7 228 0
 1000 001c 019B     		ldr	r3, [sp, #4]
 1001 001e 002B     		cmp	r3, #0
 1002 0020 02D1     		bne	.L75
 1003              		.loc 7 228 0 is_stmt 0 discriminator 2
 1004 0022 2A48     		ldr	r0, .L84+4
 1005 0024 FFF7FEFF 		bl	chSysHalt
 1006              	.L75:
 1007              		.loc 7 230 0 is_stmt 1
 1008 0028 FFF7FEFF 		bl	chSysLock
 1009              	.L82:
 1010              		.loc 7 232 0
 1011 002c 069B     		ldr	r3, [sp, #24]
 1012 002e 002B     		cmp	r3, #0
 1013 0030 0FD0     		beq	.L77
 1014              		.loc 7 233 0
 1015 0032 069B     		ldr	r3, [sp, #24]
 1016 0034 0398     		ldr	r0, [sp, #12]
 1017 0036 9847     		blx	r3
 1018              	.LVL1:
 1019              		.loc 7 236 0
 1020 0038 0BE0     		b	.L77
 1021              	.L79:
 1022              		.loc 7 237 0
 1023 003a 039B     		ldr	r3, [sp, #12]
 1024 003c 0099     		ldr	r1, [sp]
 1025 003e 1846     		mov	r0, r3
 1026 0040 FFF7FEFF 		bl	chThdEnqueueTimeoutS
ARM GAS  C:\Users\PCHAUT~1\AppData\Local\Temp\ccLTr2Pw.s 			page 19


 1027 0044 0346     		mov	r3, r0
 1028 0046 002B     		cmp	r3, #0
 1029 0048 03D0     		beq	.L77
 1030              		.loc 7 238 0
 1031 004a FFF7FEFF 		bl	chSysUnlock
 1032              		.loc 7 239 0
 1033 004e 059B     		ldr	r3, [sp, #20]
 1034 0050 2EE0     		b	.L78
 1035              	.L77:
 1036              		.loc 7 236 0
 1037 0052 0398     		ldr	r0, [sp, #12]
 1038 0054 FFF7FEFF 		bl	chIQIsEmptyI
 1039 0058 0346     		mov	r3, r0
 1040 005a 002B     		cmp	r3, #0
 1041 005c EDD1     		bne	.L79
 1042              		.loc 7 243 0
 1043 005e 039B     		ldr	r3, [sp, #12]
 1044 0060 9B68     		ldr	r3, [r3, #8]
 1045 0062 5A1E     		subs	r2, r3, #1
 1046 0064 039B     		ldr	r3, [sp, #12]
 1047 0066 9A60     		str	r2, [r3, #8]
 1048              		.loc 7 244 0
 1049 0068 039B     		ldr	r3, [sp, #12]
 1050 006a 9A69     		ldr	r2, [r3, #24]
 1051 006c 511C     		adds	r1, r2, #1
 1052 006e 039B     		ldr	r3, [sp, #12]
 1053 0070 9961     		str	r1, [r3, #24]
 1054 0072 029B     		ldr	r3, [sp, #8]
 1055 0074 591C     		adds	r1, r3, #1
 1056 0076 0291     		str	r1, [sp, #8]
 1057 0078 1278     		ldrb	r2, [r2]	@ zero_extendqisi2
 1058 007a 1A70     		strb	r2, [r3]
 1059              		.loc 7 245 0
 1060 007c 039B     		ldr	r3, [sp, #12]
 1061 007e 9A69     		ldr	r2, [r3, #24]
 1062 0080 039B     		ldr	r3, [sp, #12]
 1063 0082 1B69     		ldr	r3, [r3, #16]
 1064 0084 9A42     		cmp	r2, r3
 1065 0086 03D3     		bcc	.L80
 1066              		.loc 7 246 0
 1067 0088 039B     		ldr	r3, [sp, #12]
 1068 008a DA68     		ldr	r2, [r3, #12]
 1069 008c 039B     		ldr	r3, [sp, #12]
 1070 008e 9A61     		str	r2, [r3, #24]
 1071              	.L80:
 1072              		.loc 7 248 0
 1073 0090 FFF7FEFF 		bl	chSysUnlock
 1074              		.loc 7 250 0
 1075 0094 059B     		ldr	r3, [sp, #20]
 1076 0096 0133     		adds	r3, r3, #1
 1077 0098 0593     		str	r3, [sp, #20]
 1078              		.loc 7 251 0
 1079 009a 019B     		ldr	r3, [sp, #4]
 1080 009c 013B     		subs	r3, r3, #1
 1081 009e 0193     		str	r3, [sp, #4]
 1082 00a0 019B     		ldr	r3, [sp, #4]
 1083 00a2 002B     		cmp	r3, #0
ARM GAS  C:\Users\PCHAUT~1\AppData\Local\Temp\ccLTr2Pw.s 			page 20


 1084 00a4 01D1     		bne	.L81
 1085              		.loc 7 252 0
 1086 00a6 059B     		ldr	r3, [sp, #20]
 1087 00a8 02E0     		b	.L78
 1088              	.L81:
 1089              		.loc 7 255 0
 1090 00aa FFF7FEFF 		bl	chSysLock
 1091              		.loc 7 232 0
 1092 00ae BDE7     		b	.L82
 1093              	.L78:
 1094              		.loc 7 257 0
 1095 00b0 1846     		mov	r0, r3
 1096 00b2 054B     		ldr	r3, .L84
 1097 00b4 079A     		ldr	r2, [sp, #28]
 1098 00b6 1B68     		ldr	r3, [r3]
 1099 00b8 9A42     		cmp	r2, r3
 1100 00ba 01D0     		beq	.L83
 1101 00bc FFF7FEFF 		bl	__stack_chk_fail
 1102              	.L83:
 1103 00c0 09B0     		add	sp, sp, #36
 1104              		.cfi_def_cfa_offset 4
 1105              		@ sp needed
 1106 00c2 5DF804FB 		ldr	pc, [sp], #4
 1107              	.L85:
 1108 00c6 00BF     		.align	2
 1109              	.L84:
 1110 00c8 00000000 		.word	__stack_chk_guard
 1111 00cc 00000000 		.word	__func__.7877
 1112              		.cfi_endproc
 1113              	.LFE223:
 1114              		.size	chIQReadTimeout, .-chIQReadTimeout
 1115              		.section	.text.chOQObjectInit,"ax",%progbits
 1116              		.align	1
 1117              		.p2align 4,,15
 1118              		.global	chOQObjectInit
 1119              		.syntax unified
 1120              		.thumb
 1121              		.thumb_func
 1122              		.fpu fpv4-sp-d16
 1123              		.type	chOQObjectInit, %function
 1124              	chOQObjectInit:
 1125              	.LFB224:
 1126              		.loc 7 276 0
 1127              		.cfi_startproc
 1128              		@ args = 4, pretend = 0, frame = 32
 1129              		@ frame_needed = 0, uses_anonymous_args = 0
 1130 0000 00B5     		push	{lr}
 1131              		.cfi_def_cfa_offset 4
 1132              		.cfi_offset 14, -4
 1133 0002 89B0     		sub	sp, sp, #36
 1134              		.cfi_def_cfa_offset 40
 1135 0004 0590     		str	r0, [sp, #20]
 1136 0006 0491     		str	r1, [sp, #16]
 1137 0008 0392     		str	r2, [sp, #12]
 1138 000a 0293     		str	r3, [sp, #8]
 1139 000c 0A9B     		ldr	r3, [sp, #40]
 1140 000e 0193     		str	r3, [sp, #4]
ARM GAS  C:\Users\PCHAUT~1\AppData\Local\Temp\ccLTr2Pw.s 			page 21


 1141              		.loc 7 276 0
 1142 0010 144B     		ldr	r3, .L88
 1143 0012 1B68     		ldr	r3, [r3]
 1144 0014 0793     		str	r3, [sp, #28]
 1145              		.loc 7 278 0
 1146 0016 059B     		ldr	r3, [sp, #20]
 1147 0018 1846     		mov	r0, r3
 1148 001a FFF7FEFF 		bl	chThdQueueObjectInit
 1149              		.loc 7 279 0
 1150 001e 059B     		ldr	r3, [sp, #20]
 1151 0020 039A     		ldr	r2, [sp, #12]
 1152 0022 9A60     		str	r2, [r3, #8]
 1153              		.loc 7 280 0
 1154 0024 059B     		ldr	r3, [sp, #20]
 1155 0026 049A     		ldr	r2, [sp, #16]
 1156 0028 DA60     		str	r2, [r3, #12]
 1157              		.loc 7 281 0
 1158 002a 059B     		ldr	r3, [sp, #20]
 1159 002c 049A     		ldr	r2, [sp, #16]
 1160 002e 9A61     		str	r2, [r3, #24]
 1161              		.loc 7 282 0
 1162 0030 059B     		ldr	r3, [sp, #20]
 1163 0032 049A     		ldr	r2, [sp, #16]
 1164 0034 5A61     		str	r2, [r3, #20]
 1165              		.loc 7 283 0
 1166 0036 049A     		ldr	r2, [sp, #16]
 1167 0038 039B     		ldr	r3, [sp, #12]
 1168 003a 1A44     		add	r2, r2, r3
 1169 003c 059B     		ldr	r3, [sp, #20]
 1170 003e 1A61     		str	r2, [r3, #16]
 1171              		.loc 7 284 0
 1172 0040 059B     		ldr	r3, [sp, #20]
 1173 0042 029A     		ldr	r2, [sp, #8]
 1174 0044 DA61     		str	r2, [r3, #28]
 1175              		.loc 7 285 0
 1176 0046 059B     		ldr	r3, [sp, #20]
 1177 0048 019A     		ldr	r2, [sp, #4]
 1178 004a 1A62     		str	r2, [r3, #32]
 1179              		.loc 7 286 0
 1180 004c 00BF     		nop
 1181 004e 054B     		ldr	r3, .L88
 1182 0050 079A     		ldr	r2, [sp, #28]
 1183 0052 1B68     		ldr	r3, [r3]
 1184 0054 9A42     		cmp	r2, r3
 1185 0056 01D0     		beq	.L87
 1186 0058 FFF7FEFF 		bl	__stack_chk_fail
 1187              	.L87:
 1188 005c 09B0     		add	sp, sp, #36
 1189              		.cfi_def_cfa_offset 4
 1190              		@ sp needed
 1191 005e 5DF804FB 		ldr	pc, [sp], #4
 1192              	.L89:
 1193 0062 00BF     		.align	2
 1194              	.L88:
 1195 0064 00000000 		.word	__stack_chk_guard
 1196              		.cfi_endproc
 1197              	.LFE224:
ARM GAS  C:\Users\PCHAUT~1\AppData\Local\Temp\ccLTr2Pw.s 			page 22


 1198              		.size	chOQObjectInit, .-chOQObjectInit
 1199              		.section	.text.chOQResetI,"ax",%progbits
 1200              		.align	1
 1201              		.p2align 4,,15
 1202              		.global	chOQResetI
 1203              		.syntax unified
 1204              		.thumb
 1205              		.thumb_func
 1206              		.fpu fpv4-sp-d16
 1207              		.type	chOQResetI, %function
 1208              	chOQResetI:
 1209              	.LFB225:
 1210              		.loc 7 299 0
 1211              		.cfi_startproc
 1212              		@ args = 0, pretend = 0, frame = 16
 1213              		@ frame_needed = 0, uses_anonymous_args = 0
 1214 0000 00B5     		push	{lr}
 1215              		.cfi_def_cfa_offset 4
 1216              		.cfi_offset 14, -4
 1217 0002 85B0     		sub	sp, sp, #20
 1218              		.cfi_def_cfa_offset 24
 1219 0004 0190     		str	r0, [sp, #4]
 1220              		.loc 7 299 0
 1221 0006 134B     		ldr	r3, .L92
 1222 0008 1B68     		ldr	r3, [r3]
 1223 000a 0393     		str	r3, [sp, #12]
 1224              		.loc 7 301 0
 1225 000c FFF7FEFF 		bl	chDbgCheckClassI
 1226              		.loc 7 303 0
 1227 0010 019B     		ldr	r3, [sp, #4]
 1228 0012 DA68     		ldr	r2, [r3, #12]
 1229 0014 019B     		ldr	r3, [sp, #4]
 1230 0016 9A61     		str	r2, [r3, #24]
 1231              		.loc 7 304 0
 1232 0018 019B     		ldr	r3, [sp, #4]
 1233 001a DA68     		ldr	r2, [r3, #12]
 1234 001c 019B     		ldr	r3, [sp, #4]
 1235 001e 5A61     		str	r2, [r3, #20]
 1236              		.loc 7 305 0
 1237 0020 019B     		ldr	r3, [sp, #4]
 1238 0022 1B69     		ldr	r3, [r3, #16]
 1239 0024 1A46     		mov	r2, r3
 1240 0026 019B     		ldr	r3, [sp, #4]
 1241 0028 DB68     		ldr	r3, [r3, #12]
 1242 002a D31A     		subs	r3, r2, r3
 1243 002c 1A46     		mov	r2, r3
 1244 002e 019B     		ldr	r3, [sp, #4]
 1245 0030 9A60     		str	r2, [r3, #8]
 1246              		.loc 7 306 0
 1247 0032 019B     		ldr	r3, [sp, #4]
 1248 0034 6FF00101 		mvn	r1, #1
 1249 0038 1846     		mov	r0, r3
 1250 003a FFF7FEFF 		bl	chThdDequeueAllI
 1251              		.loc 7 307 0
 1252 003e 00BF     		nop
 1253 0040 044B     		ldr	r3, .L92
 1254 0042 039A     		ldr	r2, [sp, #12]
ARM GAS  C:\Users\PCHAUT~1\AppData\Local\Temp\ccLTr2Pw.s 			page 23


 1255 0044 1B68     		ldr	r3, [r3]
 1256 0046 9A42     		cmp	r2, r3
 1257 0048 01D0     		beq	.L91
 1258 004a FFF7FEFF 		bl	__stack_chk_fail
 1259              	.L91:
 1260 004e 05B0     		add	sp, sp, #20
 1261              		.cfi_def_cfa_offset 4
 1262              		@ sp needed
 1263 0050 5DF804FB 		ldr	pc, [sp], #4
 1264              	.L93:
 1265              		.align	2
 1266              	.L92:
 1267 0054 00000000 		.word	__stack_chk_guard
 1268              		.cfi_endproc
 1269              	.LFE225:
 1270              		.size	chOQResetI, .-chOQResetI
 1271              		.section	.text.chOQPutTimeout,"ax",%progbits
 1272              		.align	1
 1273              		.p2align 4,,15
 1274              		.global	chOQPutTimeout
 1275              		.syntax unified
 1276              		.thumb
 1277              		.thumb_func
 1278              		.fpu fpv4-sp-d16
 1279              		.type	chOQPutTimeout, %function
 1280              	chOQPutTimeout:
 1281              	.LFB226:
 1282              		.loc 7 331 0
 1283              		.cfi_startproc
 1284              		@ args = 0, pretend = 0, frame = 24
 1285              		@ frame_needed = 0, uses_anonymous_args = 0
 1286 0000 00B5     		push	{lr}
 1287              		.cfi_def_cfa_offset 4
 1288              		.cfi_offset 14, -4
 1289 0002 87B0     		sub	sp, sp, #28
 1290              		.cfi_def_cfa_offset 32
 1291 0004 0390     		str	r0, [sp, #12]
 1292 0006 0B46     		mov	r3, r1
 1293 0008 0192     		str	r2, [sp, #4]
 1294 000a 8DF80B30 		strb	r3, [sp, #11]
 1295              		.loc 7 331 0
 1296 000e 234B     		ldr	r3, .L101
 1297 0010 1B68     		ldr	r3, [r3]
 1298 0012 0593     		str	r3, [sp, #20]
 1299              		.loc 7 333 0
 1300 0014 FFF7FEFF 		bl	chSysLock
 1301              		.loc 7 334 0
 1302 0018 0CE0     		b	.L95
 1303              	.L97:
 1304              	.LBB11:
 1305              		.loc 7 335 0
 1306 001a 039B     		ldr	r3, [sp, #12]
 1307 001c 0199     		ldr	r1, [sp, #4]
 1308 001e 1846     		mov	r0, r3
 1309 0020 FFF7FEFF 		bl	chThdEnqueueTimeoutS
 1310 0024 0490     		str	r0, [sp, #16]
 1311              		.loc 7 336 0
ARM GAS  C:\Users\PCHAUT~1\AppData\Local\Temp\ccLTr2Pw.s 			page 24


 1312 0026 049B     		ldr	r3, [sp, #16]
 1313 0028 002B     		cmp	r3, #0
 1314 002a 03DA     		bge	.L95
 1315              		.loc 7 337 0
 1316 002c FFF7FEFF 		bl	chSysUnlock
 1317              		.loc 7 338 0
 1318 0030 049B     		ldr	r3, [sp, #16]
 1319 0032 27E0     		b	.L96
 1320              	.L95:
 1321              	.LBE11:
 1322              		.loc 7 334 0
 1323 0034 0398     		ldr	r0, [sp, #12]
 1324 0036 FFF7FEFF 		bl	chOQIsFullI
 1325 003a 0346     		mov	r3, r0
 1326 003c 002B     		cmp	r3, #0
 1327 003e ECD1     		bne	.L97
 1328              		.loc 7 342 0
 1329 0040 039B     		ldr	r3, [sp, #12]
 1330 0042 9B68     		ldr	r3, [r3, #8]
 1331 0044 5A1E     		subs	r2, r3, #1
 1332 0046 039B     		ldr	r3, [sp, #12]
 1333 0048 9A60     		str	r2, [r3, #8]
 1334              		.loc 7 343 0
 1335 004a 039B     		ldr	r3, [sp, #12]
 1336 004c 5B69     		ldr	r3, [r3, #20]
 1337 004e 591C     		adds	r1, r3, #1
 1338 0050 039A     		ldr	r2, [sp, #12]
 1339 0052 5161     		str	r1, [r2, #20]
 1340 0054 9DF80B20 		ldrb	r2, [sp, #11]
 1341 0058 1A70     		strb	r2, [r3]
 1342              		.loc 7 344 0
 1343 005a 039B     		ldr	r3, [sp, #12]
 1344 005c 5A69     		ldr	r2, [r3, #20]
 1345 005e 039B     		ldr	r3, [sp, #12]
 1346 0060 1B69     		ldr	r3, [r3, #16]
 1347 0062 9A42     		cmp	r2, r3
 1348 0064 03D3     		bcc	.L98
 1349              		.loc 7 345 0
 1350 0066 039B     		ldr	r3, [sp, #12]
 1351 0068 DA68     		ldr	r2, [r3, #12]
 1352 006a 039B     		ldr	r3, [sp, #12]
 1353 006c 5A61     		str	r2, [r3, #20]
 1354              	.L98:
 1355              		.loc 7 348 0
 1356 006e 039B     		ldr	r3, [sp, #12]
 1357 0070 DB69     		ldr	r3, [r3, #28]
 1358 0072 002B     		cmp	r3, #0
 1359 0074 03D0     		beq	.L99
 1360              		.loc 7 349 0
 1361 0076 039B     		ldr	r3, [sp, #12]
 1362 0078 DB69     		ldr	r3, [r3, #28]
 1363 007a 0398     		ldr	r0, [sp, #12]
 1364 007c 9847     		blx	r3
 1365              	.LVL2:
 1366              	.L99:
 1367              		.loc 7 351 0
 1368 007e FFF7FEFF 		bl	chSysUnlock
ARM GAS  C:\Users\PCHAUT~1\AppData\Local\Temp\ccLTr2Pw.s 			page 25


 1369              		.loc 7 353 0
 1370 0082 0023     		movs	r3, #0
 1371              	.L96:
 1372              		.loc 7 354 0
 1373 0084 1846     		mov	r0, r3
 1374 0086 054B     		ldr	r3, .L101
 1375 0088 059A     		ldr	r2, [sp, #20]
 1376 008a 1B68     		ldr	r3, [r3]
 1377 008c 9A42     		cmp	r2, r3
 1378 008e 01D0     		beq	.L100
 1379 0090 FFF7FEFF 		bl	__stack_chk_fail
 1380              	.L100:
 1381 0094 07B0     		add	sp, sp, #28
 1382              		.cfi_def_cfa_offset 4
 1383              		@ sp needed
 1384 0096 5DF804FB 		ldr	pc, [sp], #4
 1385              	.L102:
 1386 009a 00BF     		.align	2
 1387              	.L101:
 1388 009c 00000000 		.word	__stack_chk_guard
 1389              		.cfi_endproc
 1390              	.LFE226:
 1391              		.size	chOQPutTimeout, .-chOQPutTimeout
 1392              		.section	.text.chOQGetI,"ax",%progbits
 1393              		.align	1
 1394              		.p2align 4,,15
 1395              		.global	chOQGetI
 1396              		.syntax unified
 1397              		.thumb
 1398              		.thumb_func
 1399              		.fpu fpv4-sp-d16
 1400              		.type	chOQGetI, %function
 1401              	chOQGetI:
 1402              	.LFB227:
 1403              		.loc 7 366 0
 1404              		.cfi_startproc
 1405              		@ args = 0, pretend = 0, frame = 16
 1406              		@ frame_needed = 0, uses_anonymous_args = 0
 1407 0000 00B5     		push	{lr}
 1408              		.cfi_def_cfa_offset 4
 1409              		.cfi_offset 14, -4
 1410 0002 85B0     		sub	sp, sp, #20
 1411              		.cfi_def_cfa_offset 24
 1412 0004 0190     		str	r0, [sp, #4]
 1413              		.loc 7 366 0
 1414 0006 1B4B     		ldr	r3, .L108
 1415 0008 1B68     		ldr	r3, [r3]
 1416 000a 0393     		str	r3, [sp, #12]
 1417              		.loc 7 369 0
 1418 000c FFF7FEFF 		bl	chDbgCheckClassI
 1419              		.loc 7 371 0
 1420 0010 0198     		ldr	r0, [sp, #4]
 1421 0012 FFF7FEFF 		bl	chOQIsEmptyI
 1422 0016 0346     		mov	r3, r0
 1423 0018 002B     		cmp	r3, #0
 1424 001a 02D0     		beq	.L104
 1425              		.loc 7 372 0
ARM GAS  C:\Users\PCHAUT~1\AppData\Local\Temp\ccLTr2Pw.s 			page 26


 1426 001c 6FF00203 		mvn	r3, #2
 1427 0020 1DE0     		b	.L105
 1428              	.L104:
 1429              		.loc 7 375 0
 1430 0022 019B     		ldr	r3, [sp, #4]
 1431 0024 9B68     		ldr	r3, [r3, #8]
 1432 0026 5A1C     		adds	r2, r3, #1
 1433 0028 019B     		ldr	r3, [sp, #4]
 1434 002a 9A60     		str	r2, [r3, #8]
 1435              		.loc 7 376 0
 1436 002c 019B     		ldr	r3, [sp, #4]
 1437 002e 9B69     		ldr	r3, [r3, #24]
 1438 0030 591C     		adds	r1, r3, #1
 1439 0032 019A     		ldr	r2, [sp, #4]
 1440 0034 9161     		str	r1, [r2, #24]
 1441 0036 1B78     		ldrb	r3, [r3]
 1442 0038 8DF80B30 		strb	r3, [sp, #11]
 1443              		.loc 7 377 0
 1444 003c 019B     		ldr	r3, [sp, #4]
 1445 003e 9A69     		ldr	r2, [r3, #24]
 1446 0040 019B     		ldr	r3, [sp, #4]
 1447 0042 1B69     		ldr	r3, [r3, #16]
 1448 0044 9A42     		cmp	r2, r3
 1449 0046 03D3     		bcc	.L106
 1450              		.loc 7 378 0
 1451 0048 019B     		ldr	r3, [sp, #4]
 1452 004a DA68     		ldr	r2, [r3, #12]
 1453 004c 019B     		ldr	r3, [sp, #4]
 1454 004e 9A61     		str	r2, [r3, #24]
 1455              	.L106:
 1456              		.loc 7 381 0
 1457 0050 019B     		ldr	r3, [sp, #4]
 1458 0052 0021     		movs	r1, #0
 1459 0054 1846     		mov	r0, r3
 1460 0056 FFF7FEFF 		bl	chThdDequeueNextI
 1461              		.loc 7 383 0
 1462 005a 9DF80B30 		ldrb	r3, [sp, #11]	@ zero_extendqisi2
 1463              	.L105:
 1464              		.loc 7 384 0
 1465 005e 1846     		mov	r0, r3
 1466 0060 044B     		ldr	r3, .L108
 1467 0062 039A     		ldr	r2, [sp, #12]
 1468 0064 1B68     		ldr	r3, [r3]
 1469 0066 9A42     		cmp	r2, r3
 1470 0068 01D0     		beq	.L107
 1471 006a FFF7FEFF 		bl	__stack_chk_fail
 1472              	.L107:
 1473 006e 05B0     		add	sp, sp, #20
 1474              		.cfi_def_cfa_offset 4
 1475              		@ sp needed
 1476 0070 5DF804FB 		ldr	pc, [sp], #4
 1477              	.L109:
 1478              		.align	2
 1479              	.L108:
 1480 0074 00000000 		.word	__stack_chk_guard
 1481              		.cfi_endproc
 1482              	.LFE227:
ARM GAS  C:\Users\PCHAUT~1\AppData\Local\Temp\ccLTr2Pw.s 			page 27


 1483              		.size	chOQGetI, .-chOQGetI
 1484              		.section	.text.chOQWriteTimeout,"ax",%progbits
 1485              		.align	1
 1486              		.p2align 4,,15
 1487              		.global	chOQWriteTimeout
 1488              		.syntax unified
 1489              		.thumb
 1490              		.thumb_func
 1491              		.fpu fpv4-sp-d16
 1492              		.type	chOQWriteTimeout, %function
 1493              	chOQWriteTimeout:
 1494              	.LFB228:
 1495              		.loc 7 411 0
 1496              		.cfi_startproc
 1497              		@ args = 0, pretend = 0, frame = 32
 1498              		@ frame_needed = 0, uses_anonymous_args = 0
 1499 0000 00B5     		push	{lr}
 1500              		.cfi_def_cfa_offset 4
 1501              		.cfi_offset 14, -4
 1502 0002 89B0     		sub	sp, sp, #36
 1503              		.cfi_def_cfa_offset 40
 1504 0004 0390     		str	r0, [sp, #12]
 1505 0006 0291     		str	r1, [sp, #8]
 1506 0008 0192     		str	r2, [sp, #4]
 1507 000a 0093     		str	r3, [sp]
 1508              		.loc 7 411 0
 1509 000c 2E4B     		ldr	r3, .L120
 1510 000e 1B68     		ldr	r3, [r3]
 1511 0010 0793     		str	r3, [sp, #28]
 1512              		.loc 7 412 0
 1513 0012 039B     		ldr	r3, [sp, #12]
 1514 0014 DB69     		ldr	r3, [r3, #28]
 1515 0016 0693     		str	r3, [sp, #24]
 1516              		.loc 7 413 0
 1517 0018 0023     		movs	r3, #0
 1518 001a 0593     		str	r3, [sp, #20]
 1519              		.loc 7 415 0
 1520 001c 019B     		ldr	r3, [sp, #4]
 1521 001e 002B     		cmp	r3, #0
 1522 0020 02D1     		bne	.L111
 1523              		.loc 7 415 0 is_stmt 0 discriminator 2
 1524 0022 2A48     		ldr	r0, .L120+4
 1525 0024 FFF7FEFF 		bl	chSysHalt
 1526              	.L111:
 1527              		.loc 7 417 0 is_stmt 1
 1528 0028 FFF7FEFF 		bl	chSysLock
 1529              		.loc 7 419 0
 1530 002c 0BE0     		b	.L112
 1531              	.L114:
 1532              		.loc 7 420 0
 1533 002e 039B     		ldr	r3, [sp, #12]
 1534 0030 0099     		ldr	r1, [sp]
 1535 0032 1846     		mov	r0, r3
 1536 0034 FFF7FEFF 		bl	chThdEnqueueTimeoutS
 1537 0038 0346     		mov	r3, r0
 1538 003a 002B     		cmp	r3, #0
 1539 003c 03D0     		beq	.L112
ARM GAS  C:\Users\PCHAUT~1\AppData\Local\Temp\ccLTr2Pw.s 			page 28


 1540              		.loc 7 421 0
 1541 003e FFF7FEFF 		bl	chSysUnlock
 1542              		.loc 7 422 0
 1543 0042 059B     		ldr	r3, [sp, #20]
 1544 0044 34E0     		b	.L113
 1545              	.L112:
 1546              		.loc 7 419 0
 1547 0046 0398     		ldr	r0, [sp, #12]
 1548 0048 FFF7FEFF 		bl	chOQIsFullI
 1549 004c 0346     		mov	r3, r0
 1550 004e 002B     		cmp	r3, #0
 1551 0050 EDD1     		bne	.L114
 1552              		.loc 7 426 0
 1553 0052 039B     		ldr	r3, [sp, #12]
 1554 0054 9B68     		ldr	r3, [r3, #8]
 1555 0056 5A1E     		subs	r2, r3, #1
 1556 0058 039B     		ldr	r3, [sp, #12]
 1557 005a 9A60     		str	r2, [r3, #8]
 1558              		.loc 7 427 0
 1559 005c 029A     		ldr	r2, [sp, #8]
 1560 005e 531C     		adds	r3, r2, #1
 1561 0060 0293     		str	r3, [sp, #8]
 1562 0062 039B     		ldr	r3, [sp, #12]
 1563 0064 5B69     		ldr	r3, [r3, #20]
 1564 0066 581C     		adds	r0, r3, #1
 1565 0068 0399     		ldr	r1, [sp, #12]
 1566 006a 4861     		str	r0, [r1, #20]
 1567 006c 1278     		ldrb	r2, [r2]	@ zero_extendqisi2
 1568 006e 1A70     		strb	r2, [r3]
 1569              		.loc 7 428 0
 1570 0070 039B     		ldr	r3, [sp, #12]
 1571 0072 5A69     		ldr	r2, [r3, #20]
 1572 0074 039B     		ldr	r3, [sp, #12]
 1573 0076 1B69     		ldr	r3, [r3, #16]
 1574 0078 9A42     		cmp	r2, r3
 1575 007a 03D3     		bcc	.L115
 1576              		.loc 7 429 0
 1577 007c 039B     		ldr	r3, [sp, #12]
 1578 007e DA68     		ldr	r2, [r3, #12]
 1579 0080 039B     		ldr	r3, [sp, #12]
 1580 0082 5A61     		str	r2, [r3, #20]
 1581              	.L115:
 1582              		.loc 7 432 0
 1583 0084 069B     		ldr	r3, [sp, #24]
 1584 0086 002B     		cmp	r3, #0
 1585 0088 02D0     		beq	.L116
 1586              		.loc 7 433 0
 1587 008a 069B     		ldr	r3, [sp, #24]
 1588 008c 0398     		ldr	r0, [sp, #12]
 1589 008e 9847     		blx	r3
 1590              	.LVL3:
 1591              	.L116:
 1592              		.loc 7 435 0
 1593 0090 FFF7FEFF 		bl	chSysUnlock
 1594              		.loc 7 437 0
 1595 0094 059B     		ldr	r3, [sp, #20]
 1596 0096 0133     		adds	r3, r3, #1
ARM GAS  C:\Users\PCHAUT~1\AppData\Local\Temp\ccLTr2Pw.s 			page 29


 1597 0098 0593     		str	r3, [sp, #20]
 1598              		.loc 7 438 0
 1599 009a 019B     		ldr	r3, [sp, #4]
 1600 009c 013B     		subs	r3, r3, #1
 1601 009e 0193     		str	r3, [sp, #4]
 1602 00a0 019B     		ldr	r3, [sp, #4]
 1603 00a2 002B     		cmp	r3, #0
 1604 00a4 01D1     		bne	.L117
 1605              		.loc 7 439 0
 1606 00a6 059B     		ldr	r3, [sp, #20]
 1607 00a8 02E0     		b	.L113
 1608              	.L117:
 1609              		.loc 7 441 0
 1610 00aa FFF7FEFF 		bl	chSysLock
 1611              		.loc 7 419 0
 1612 00ae CAE7     		b	.L112
 1613              	.L113:
 1614              		.loc 7 443 0
 1615 00b0 1846     		mov	r0, r3
 1616 00b2 054B     		ldr	r3, .L120
 1617 00b4 079A     		ldr	r2, [sp, #28]
 1618 00b6 1B68     		ldr	r3, [r3]
 1619 00b8 9A42     		cmp	r2, r3
 1620 00ba 01D0     		beq	.L119
 1621 00bc FFF7FEFF 		bl	__stack_chk_fail
 1622              	.L119:
 1623 00c0 09B0     		add	sp, sp, #36
 1624              		.cfi_def_cfa_offset 4
 1625              		@ sp needed
 1626 00c2 5DF804FB 		ldr	pc, [sp], #4
 1627              	.L121:
 1628 00c6 00BF     		.align	2
 1629              	.L120:
 1630 00c8 00000000 		.word	__stack_chk_guard
 1631 00cc 00000000 		.word	__func__.7913
 1632              		.cfi_endproc
 1633              	.LFE228:
 1634              		.size	chOQWriteTimeout, .-chOQWriteTimeout
 1635              		.section	.rodata.__func__.7153,"a",%progbits
 1636              		.align	2
 1637              		.type	__func__.7153, %object
 1638              		.size	__func__.7153, 12
 1639              	__func__.7153:
 1640 0000 63685379 		.ascii	"chSysUnlock\000"
 1640      73556E6C 
 1640      6F636B00 
 1641              		.section	.rodata.__func__.7877,"a",%progbits
 1642              		.align	2
 1643              		.type	__func__.7877, %object
 1644              		.size	__func__.7877, 16
 1645              	__func__.7877:
 1646 0000 63684951 		.ascii	"chIQReadTimeout\000"
 1646      52656164 
 1646      54696D65 
 1646      6F757400 
 1647              		.section	.rodata.__func__.7913,"a",%progbits
 1648              		.align	2
ARM GAS  C:\Users\PCHAUT~1\AppData\Local\Temp\ccLTr2Pw.s 			page 30


 1649              		.type	__func__.7913, %object
 1650              		.size	__func__.7913, 17
 1651              	__func__.7913:
 1652 0000 63684F51 		.ascii	"chOQWriteTimeout\000"
 1652      57726974 
 1652      6554696D 
 1652      656F7574 
 1652      00
 1653              		.text
 1654              	.Letext0:
 1655              		.file 8 "c:\\users\\pchautems\\documents\\robotiquetp\\eclipse_e-puck2\\tools\\gcc-arm-none-eabi-7
 1656              		.file 9 "c:\\users\\pchautems\\documents\\robotiquetp\\eclipse_e-puck2\\tools\\gcc-arm-none-eabi-7
 1657              		.file 10 "c:\\users\\pchautems\\documents\\robotiquetp\\eclipse_e-puck2\\tools\\gcc-arm-none-eabi-
 1658              		.file 11 "../lib/e-puck2_main-processor/ChibiOS//os/rt/ports/ARMCMx/compilers/GCC/chtypes.h"
 1659              		.file 12 "../lib/e-puck2_main-processor/ChibiOS//os/rt/include/chsystypes.h"
 1660              		.file 13 "../lib/e-puck2_main-processor/ChibiOS//os/ext/CMSIS/include/core_cm4.h"
 1661              		.file 14 "../lib/e-puck2_main-processor/ChibiOS//os/ext/CMSIS/ST/system_stm32f4xx.h"
 1662              		.file 15 "../lib/e-puck2_main-processor/ChibiOS//os/rt/ports/ARMCMx/chcore.h"
 1663              		.file 16 "../lib/e-puck2_main-processor/ChibiOS//os/rt/include/chdebug.h"
 1664              		.file 17 "../lib/e-puck2_main-processor/ChibiOS//os/rt/include/chtm.h"
 1665              		.file 18 "../lib/e-puck2_main-processor/ChibiOS//os/rt/include/chstats.h"
 1666              		.file 19 "../lib/e-puck2_main-processor/ChibiOS//os/rt/include/chsem.h"
 1667              		.file 20 "../lib/e-puck2_main-processor/ChibiOS//os/rt/include/chmtx.h"
 1668              		.file 21 "../lib/e-puck2_main-processor/ChibiOS//os/rt/include/chregistry.h"