ARM GAS  C:\Users\PCHAUT~1\AppData\Local\Temp\cc3d1UsV.s 			page 1


   1              		.cpu cortex-m4
   2              		.eabi_attribute 27, 1
   3              		.eabi_attribute 28, 1
   4              		.eabi_attribute 20, 1
   5              		.eabi_attribute 21, 1
   6              		.eabi_attribute 23, 3
   7              		.eabi_attribute 24, 1
   8              		.eabi_attribute 25, 1
   9              		.eabi_attribute 26, 1
  10              		.eabi_attribute 30, 6
  11              		.eabi_attribute 34, 1
  12              		.eabi_attribute 18, 4
  13              		.file	"chregistry.c"
  14              		.text
  15              	.Ltext0:
  16              		.cfi_sections	.debug_frame
  17              		.section	.text.port_lock,"ax",%progbits
  18              		.align	1
  19              		.p2align 4,,15
  20              		.syntax unified
  21              		.thumb
  22              		.thumb_func
  23              		.fpu fpv4-sp-d16
  24              		.type	port_lock, %function
  25              	port_lock:
  26              	.LFB116:
  27              		.file 1 "../lib/e-puck2_main-processor/ChibiOS//os/rt/ports/ARMCMx/chcore_v7m.h"
  28              		.loc 1 444 0
  29              		.cfi_startproc
  30              		@ args = 0, pretend = 0, frame = 8
  31              		@ frame_needed = 0, uses_anonymous_args = 0
  32 0000 00B5     		push	{lr}
  33              		.cfi_def_cfa_offset 4
  34              		.cfi_offset 14, -4
  35 0002 83B0     		sub	sp, sp, #12
  36              		.cfi_def_cfa_offset 16
  37              		.loc 1 444 0
  38 0004 094B     		ldr	r3, .L3
  39 0006 1B68     		ldr	r3, [r3]
  40 0008 0193     		str	r3, [sp, #4]
  41 000a 2023     		movs	r3, #32
  42 000c 0093     		str	r3, [sp]
  43              	.LBB6:
  44              	.LBB7:
  45              		.file 2 "../lib/e-puck2_main-processor/ChibiOS//os/ext/CMSIS/include/core_cmFunc.h"
  46              		.loc 2 546 0
  47 000e 009B     		ldr	r3, [sp]
  48              		.syntax unified
  49              	@ 546 "../lib/e-puck2_main-processor/ChibiOS//os/ext/CMSIS/include/core_cmFunc.h" 1
  50 0010 83F31188 		MSR basepri, r3
  51              	@ 0 "" 2
  52              		.thumb
  53              		.syntax unified
  54              	.LBE7:
  55              	.LBE6:
  56              		.loc 1 451 0
  57 0014 00BF     		nop
ARM GAS  C:\Users\PCHAUT~1\AppData\Local\Temp\cc3d1UsV.s 			page 2


  58 0016 054B     		ldr	r3, .L3
  59 0018 019A     		ldr	r2, [sp, #4]
  60 001a 1B68     		ldr	r3, [r3]
  61 001c 9A42     		cmp	r2, r3
  62 001e 01D0     		beq	.L2
  63 0020 FFF7FEFF 		bl	__stack_chk_fail
  64              	.L2:
  65 0024 03B0     		add	sp, sp, #12
  66              		.cfi_def_cfa_offset 4
  67              		@ sp needed
  68 0026 5DF804FB 		ldr	pc, [sp], #4
  69              	.L4:
  70 002a 00BF     		.align	2
  71              	.L3:
  72 002c 00000000 		.word	__stack_chk_guard
  73              		.cfi_endproc
  74              	.LFE116:
  75              		.size	port_lock, .-port_lock
  76              		.section	.text.port_unlock,"ax",%progbits
  77              		.align	1
  78              		.p2align 4,,15
  79              		.syntax unified
  80              		.thumb
  81              		.thumb_func
  82              		.fpu fpv4-sp-d16
  83              		.type	port_unlock, %function
  84              	port_unlock:
  85              	.LFB117:
  86              		.loc 1 458 0
  87              		.cfi_startproc
  88              		@ args = 0, pretend = 0, frame = 8
  89              		@ frame_needed = 0, uses_anonymous_args = 0
  90 0000 00B5     		push	{lr}
  91              		.cfi_def_cfa_offset 4
  92              		.cfi_offset 14, -4
  93 0002 83B0     		sub	sp, sp, #12
  94              		.cfi_def_cfa_offset 16
  95              		.loc 1 458 0
  96 0004 094B     		ldr	r3, .L7
  97 0006 1B68     		ldr	r3, [r3]
  98 0008 0193     		str	r3, [sp, #4]
  99 000a 0023     		movs	r3, #0
 100 000c 0093     		str	r3, [sp]
 101              	.LBB8:
 102              	.LBB9:
 103              		.loc 2 546 0
 104 000e 009B     		ldr	r3, [sp]
 105              		.syntax unified
 106              	@ 546 "../lib/e-puck2_main-processor/ChibiOS//os/ext/CMSIS/include/core_cmFunc.h" 1
 107 0010 83F31188 		MSR basepri, r3
 108              	@ 0 "" 2
 109              		.thumb
 110              		.syntax unified
 111              	.LBE9:
 112              	.LBE8:
 113              		.loc 1 465 0
 114 0014 00BF     		nop
ARM GAS  C:\Users\PCHAUT~1\AppData\Local\Temp\cc3d1UsV.s 			page 3


 115 0016 054B     		ldr	r3, .L7
 116 0018 019A     		ldr	r2, [sp, #4]
 117 001a 1B68     		ldr	r3, [r3]
 118 001c 9A42     		cmp	r2, r3
 119 001e 01D0     		beq	.L6
 120 0020 FFF7FEFF 		bl	__stack_chk_fail
 121              	.L6:
 122 0024 03B0     		add	sp, sp, #12
 123              		.cfi_def_cfa_offset 4
 124              		@ sp needed
 125 0026 5DF804FB 		ldr	pc, [sp], #4
 126              	.L8:
 127 002a 00BF     		.align	2
 128              	.L7:
 129 002c 00000000 		.word	__stack_chk_guard
 130              		.cfi_endproc
 131              	.LFE117:
 132              		.size	port_unlock, .-port_unlock
 133              		.section	.text.chSysLock,"ax",%progbits
 134              		.align	1
 135              		.p2align 4,,15
 136              		.syntax unified
 137              		.thumb
 138              		.thumb_func
 139              		.fpu fpv4-sp-d16
 140              		.type	chSysLock, %function
 141              	chSysLock:
 142              	.LFB145:
 143              		.file 3 "../lib/e-puck2_main-processor/ChibiOS//os/rt/include/chsys.h"
 144              		.loc 3 346 0
 145              		.cfi_startproc
 146              		@ args = 0, pretend = 0, frame = 8
 147              		@ frame_needed = 0, uses_anonymous_args = 0
 148 0000 00B5     		push	{lr}
 149              		.cfi_def_cfa_offset 4
 150              		.cfi_offset 14, -4
 151 0002 83B0     		sub	sp, sp, #12
 152              		.cfi_def_cfa_offset 16
 153              		.loc 3 346 0
 154 0004 094B     		ldr	r3, .L11
 155 0006 1B68     		ldr	r3, [r3]
 156 0008 0193     		str	r3, [sp, #4]
 157              		.loc 3 348 0
 158 000a FFF7FEFF 		bl	port_lock
 159              		.loc 3 349 0
 160 000e FFF7FEFF 		bl	_stats_start_measure_crit_thd
 161              		.loc 3 350 0
 162 0012 FFF7FEFF 		bl	_dbg_check_lock
 163              		.loc 3 351 0
 164 0016 00BF     		nop
 165 0018 044B     		ldr	r3, .L11
 166 001a 019A     		ldr	r2, [sp, #4]
 167 001c 1B68     		ldr	r3, [r3]
 168 001e 9A42     		cmp	r2, r3
 169 0020 01D0     		beq	.L10
 170 0022 FFF7FEFF 		bl	__stack_chk_fail
 171              	.L10:
ARM GAS  C:\Users\PCHAUT~1\AppData\Local\Temp\cc3d1UsV.s 			page 4


 172 0026 03B0     		add	sp, sp, #12
 173              		.cfi_def_cfa_offset 4
 174              		@ sp needed
 175 0028 5DF804FB 		ldr	pc, [sp], #4
 176              	.L12:
 177              		.align	2
 178              	.L11:
 179 002c 00000000 		.word	__stack_chk_guard
 180              		.cfi_endproc
 181              	.LFE145:
 182              		.size	chSysLock, .-chSysLock
 183              		.section	.text.chSysUnlock,"ax",%progbits
 184              		.align	1
 185              		.p2align 4,,15
 186              		.syntax unified
 187              		.thumb
 188              		.thumb_func
 189              		.fpu fpv4-sp-d16
 190              		.type	chSysUnlock, %function
 191              	chSysUnlock:
 192              	.LFB146:
 193              		.loc 3 358 0
 194              		.cfi_startproc
 195              		@ args = 0, pretend = 0, frame = 8
 196              		@ frame_needed = 0, uses_anonymous_args = 0
 197 0000 00B5     		push	{lr}
 198              		.cfi_def_cfa_offset 4
 199              		.cfi_offset 14, -4
 200 0002 83B0     		sub	sp, sp, #12
 201              		.cfi_def_cfa_offset 16
 202              		.loc 3 358 0
 203 0004 114B     		ldr	r3, .L16
 204 0006 1B68     		ldr	r3, [r3]
 205 0008 0193     		str	r3, [sp, #4]
 206              		.loc 3 360 0
 207 000a FFF7FEFF 		bl	_dbg_check_unlock
 208              		.loc 3 361 0
 209 000e FFF7FEFF 		bl	_stats_stop_measure_crit_thd
 210              		.loc 3 367 0
 211 0012 0F4B     		ldr	r3, .L16+4
 212 0014 1B68     		ldr	r3, [r3]
 213 0016 0E4A     		ldr	r2, .L16+4
 214 0018 9342     		cmp	r3, r2
 215 001a 0AD0     		beq	.L14
 216              		.loc 3 367 0 is_stmt 0 discriminator 2
 217 001c 0C4B     		ldr	r3, .L16+4
 218 001e 9B69     		ldr	r3, [r3, #24]
 219 0020 9A68     		ldr	r2, [r3, #8]
 220 0022 0B4B     		ldr	r3, .L16+4
 221 0024 1B68     		ldr	r3, [r3]
 222 0026 9B68     		ldr	r3, [r3, #8]
 223 0028 9A42     		cmp	r2, r3
 224 002a 02D2     		bcs	.L14
 225              		.loc 3 367 0 discriminator 3
 226 002c 0948     		ldr	r0, .L16+8
 227 002e FFF7FEFF 		bl	chSysHalt
 228              	.L14:
ARM GAS  C:\Users\PCHAUT~1\AppData\Local\Temp\cc3d1UsV.s 			page 5


 229              		.loc 3 371 0 is_stmt 1
 230 0032 FFF7FEFF 		bl	port_unlock
 231              		.loc 3 372 0
 232 0036 00BF     		nop
 233 0038 044B     		ldr	r3, .L16
 234 003a 019A     		ldr	r2, [sp, #4]
 235 003c 1B68     		ldr	r3, [r3]
 236 003e 9A42     		cmp	r2, r3
 237 0040 01D0     		beq	.L15
 238 0042 FFF7FEFF 		bl	__stack_chk_fail
 239              	.L15:
 240 0046 03B0     		add	sp, sp, #12
 241              		.cfi_def_cfa_offset 4
 242              		@ sp needed
 243 0048 5DF804FB 		ldr	pc, [sp], #4
 244              	.L17:
 245              		.align	2
 246              	.L16:
 247 004c 00000000 		.word	__stack_chk_guard
 248 0050 00000000 		.word	ch
 249 0054 00000000 		.word	__func__.7153
 250              		.cfi_endproc
 251              	.LFE146:
 252              		.size	chSysUnlock, .-chSysUnlock
 253              		.global	ch_debug
 254              		.section	.rodata.ch_debug,"a",%progbits
 255              		.align	2
 256              		.type	ch_debug, %object
 257              		.size	ch_debug, 22
 258              	ch_debug:
 259 0000 6D       		.byte	109
 260 0001 61       		.byte	97
 261 0002 69       		.byte	105
 262 0003 6E       		.byte	110
 263 0004 00       		.byte	0
 264 0005 16       		.byte	22
 265 0006 0118     		.short	6145
 266 0008 04       		.byte	4
 267 0009 04       		.byte	4
 268 000a 68       		.byte	104
 269 000b 08       		.byte	8
 270 000c 0C       		.byte	12
 271 000d 10       		.byte	16
 272 000e 14       		.byte	20
 273 000f 18       		.byte	24
 274 0010 1C       		.byte	28
 275 0011 20       		.byte	32
 276 0012 21       		.byte	33
 277 0013 22       		.byte	34
 278 0014 23       		.byte	35
 279 0015 24       		.byte	36
 280              		.section	.text.chRegFirstThread,"ax",%progbits
 281              		.align	1
 282              		.p2align 4,,15
 283              		.global	chRegFirstThread
 284              		.syntax unified
 285              		.thumb
ARM GAS  C:\Users\PCHAUT~1\AppData\Local\Temp\cc3d1UsV.s 			page 6


 286              		.thumb_func
 287              		.fpu fpv4-sp-d16
 288              		.type	chRegFirstThread, %function
 289              	chRegFirstThread:
 290              	.LFB219:
 291              		.file 4 "../lib/e-puck2_main-processor/ChibiOS//os/rt/src/chregistry.c"
 292              		.loc 4 131 0
 293              		.cfi_startproc
 294              		@ args = 0, pretend = 0, frame = 8
 295              		@ frame_needed = 0, uses_anonymous_args = 0
 296 0000 00B5     		push	{lr}
 297              		.cfi_def_cfa_offset 4
 298              		.cfi_offset 14, -4
 299 0002 83B0     		sub	sp, sp, #12
 300              		.cfi_def_cfa_offset 16
 301              		.loc 4 131 0
 302 0004 0E4B     		ldr	r3, .L21
 303 0006 1B68     		ldr	r3, [r3]
 304 0008 0193     		str	r3, [sp, #4]
 305              		.loc 4 134 0
 306 000a FFF7FEFF 		bl	chSysLock
 307              		.loc 4 135 0
 308 000e 0D4B     		ldr	r3, .L21+4
 309 0010 1B69     		ldr	r3, [r3, #16]
 310 0012 0093     		str	r3, [sp]
 311              		.loc 4 137 0
 312 0014 009B     		ldr	r3, [sp]
 313 0016 93F82230 		ldrb	r3, [r3, #34]	@ zero_extendqisi2
 314 001a 0133     		adds	r3, r3, #1
 315 001c DAB2     		uxtb	r2, r3
 316 001e 009B     		ldr	r3, [sp]
 317 0020 83F82220 		strb	r2, [r3, #34]
 318              		.loc 4 139 0
 319 0024 FFF7FEFF 		bl	chSysUnlock
 320              		.loc 4 141 0
 321 0028 009B     		ldr	r3, [sp]
 322              		.loc 4 142 0
 323 002a 1846     		mov	r0, r3
 324 002c 044B     		ldr	r3, .L21
 325 002e 019A     		ldr	r2, [sp, #4]
 326 0030 1B68     		ldr	r3, [r3]
 327 0032 9A42     		cmp	r2, r3
 328 0034 01D0     		beq	.L20
 329 0036 FFF7FEFF 		bl	__stack_chk_fail
 330              	.L20:
 331 003a 03B0     		add	sp, sp, #12
 332              		.cfi_def_cfa_offset 4
 333              		@ sp needed
 334 003c 5DF804FB 		ldr	pc, [sp], #4
 335              	.L22:
 336              		.align	2
 337              	.L21:
 338 0040 00000000 		.word	__stack_chk_guard
 339 0044 00000000 		.word	ch
 340              		.cfi_endproc
 341              	.LFE219:
 342              		.size	chRegFirstThread, .-chRegFirstThread
ARM GAS  C:\Users\PCHAUT~1\AppData\Local\Temp\cc3d1UsV.s 			page 7


 343              		.section	.text.chRegNextThread,"ax",%progbits
 344              		.align	1
 345              		.p2align 4,,15
 346              		.global	chRegNextThread
 347              		.syntax unified
 348              		.thumb
 349              		.thumb_func
 350              		.fpu fpv4-sp-d16
 351              		.type	chRegNextThread, %function
 352              	chRegNextThread:
 353              	.LFB220:
 354              		.loc 4 155 0
 355              		.cfi_startproc
 356              		@ args = 0, pretend = 0, frame = 16
 357              		@ frame_needed = 0, uses_anonymous_args = 0
 358 0000 00B5     		push	{lr}
 359              		.cfi_def_cfa_offset 4
 360              		.cfi_offset 14, -4
 361 0002 85B0     		sub	sp, sp, #20
 362              		.cfi_def_cfa_offset 24
 363 0004 0190     		str	r0, [sp, #4]
 364              		.loc 4 155 0
 365 0006 184B     		ldr	r3, .L29
 366 0008 1B68     		ldr	r3, [r3]
 367 000a 0393     		str	r3, [sp, #12]
 368              		.loc 4 158 0
 369 000c FFF7FEFF 		bl	chSysLock
 370              		.loc 4 159 0
 371 0010 019B     		ldr	r3, [sp, #4]
 372 0012 1B69     		ldr	r3, [r3, #16]
 373 0014 0293     		str	r3, [sp, #8]
 374              		.loc 4 161 0
 375 0016 029B     		ldr	r3, [sp, #8]
 376 0018 144A     		ldr	r2, .L29+4
 377 001a 9342     		cmp	r3, r2
 378 001c 02D1     		bne	.L24
 379              		.loc 4 163 0
 380 001e 0023     		movs	r3, #0
 381 0020 0293     		str	r3, [sp, #8]
 382 0022 0FE0     		b	.L25
 383              	.L24:
 384              		.loc 4 167 0 discriminator 1
 385 0024 029B     		ldr	r3, [sp, #8]
 386 0026 93F82230 		ldrb	r3, [r3, #34]	@ zero_extendqisi2
 387 002a FF2B     		cmp	r3, #255
 388 002c 02D1     		bne	.L26
 389              		.loc 4 167 0 is_stmt 0 discriminator 2
 390 002e 1048     		ldr	r0, .L29+8
 391 0030 FFF7FEFF 		bl	chSysHalt
 392              	.L26:
 393              		.loc 4 168 0 is_stmt 1
 394 0034 029B     		ldr	r3, [sp, #8]
 395 0036 93F82230 		ldrb	r3, [r3, #34]	@ zero_extendqisi2
 396 003a 0133     		adds	r3, r3, #1
 397 003c DAB2     		uxtb	r2, r3
 398 003e 029B     		ldr	r3, [sp, #8]
 399 0040 83F82220 		strb	r2, [r3, #34]
ARM GAS  C:\Users\PCHAUT~1\AppData\Local\Temp\cc3d1UsV.s 			page 8


 400              	.L25:
 401              		.loc 4 171 0
 402 0044 FFF7FEFF 		bl	chSysUnlock
 403              		.loc 4 173 0
 404 0048 0198     		ldr	r0, [sp, #4]
 405 004a FFF7FEFF 		bl	chThdRelease
 406              		.loc 4 176 0
 407 004e 029B     		ldr	r3, [sp, #8]
 408              		.loc 4 177 0
 409 0050 1846     		mov	r0, r3
 410 0052 054B     		ldr	r3, .L29
 411 0054 039A     		ldr	r2, [sp, #12]
 412 0056 1B68     		ldr	r3, [r3]
 413 0058 9A42     		cmp	r2, r3
 414 005a 01D0     		beq	.L28
 415 005c FFF7FEFF 		bl	__stack_chk_fail
 416              	.L28:
 417 0060 05B0     		add	sp, sp, #20
 418              		.cfi_def_cfa_offset 4
 419              		@ sp needed
 420 0062 5DF804FB 		ldr	pc, [sp], #4
 421              	.L30:
 422 0066 00BF     		.align	2
 423              	.L29:
 424 0068 00000000 		.word	__stack_chk_guard
 425 006c 00000000 		.word	ch
 426 0070 00000000 		.word	__func__.7855
 427              		.cfi_endproc
 428              	.LFE220:
 429              		.size	chRegNextThread, .-chRegNextThread
 430              		.section	.rodata.__func__.7153,"a",%progbits
 431              		.align	2
 432              		.type	__func__.7153, %object
 433              		.size	__func__.7153, 12
 434              	__func__.7153:
 435 0000 63685379 		.ascii	"chSysUnlock\000"
 435      73556E6C 
 435      6F636B00 
 436              		.section	.rodata.__func__.7855,"a",%progbits
 437              		.align	2
 438              		.type	__func__.7855, %object
 439              		.size	__func__.7855, 16
 440              	__func__.7855:
 441 0000 63685265 		.ascii	"chRegNextThread\000"
 441      674E6578 
 441      74546872 
 441      65616400 
 442              		.text
 443              	.Letext0:
 444              		.file 5 "c:\\users\\pchautems\\documents\\robotiquetp\\eclipse_e-puck2\\tools\\gcc-arm-none-eabi-7
 445              		.file 6 "c:\\users\\pchautems\\documents\\robotiquetp\\eclipse_e-puck2\\tools\\gcc-arm-none-eabi-7
 446              		.file 7 "c:\\users\\pchautems\\documents\\robotiquetp\\eclipse_e-puck2\\tools\\gcc-arm-none-eabi-7
 447              		.file 8 "../lib/e-puck2_main-processor/ChibiOS//os/rt/ports/ARMCMx/compilers/GCC/chtypes.h"
 448              		.file 9 "../lib/e-puck2_main-processor/ChibiOS//os/rt/include/chsystypes.h"
 449              		.file 10 "../lib/e-puck2_main-processor/ChibiOS//os/rt/include/chschd.h"
 450              		.file 11 "../lib/e-puck2_main-processor/ChibiOS//os/ext/CMSIS/include/core_cm4.h"
 451              		.file 12 "../lib/e-puck2_main-processor/ChibiOS//os/ext/CMSIS/ST/system_stm32f4xx.h"
ARM GAS  C:\Users\PCHAUT~1\AppData\Local\Temp\cc3d1UsV.s 			page 9


 452              		.file 13 "../lib/e-puck2_main-processor/ChibiOS//os/rt/ports/ARMCMx/chcore.h"
 453              		.file 14 "../lib/e-puck2_main-processor/ChibiOS//os/rt/include/chdebug.h"
 454              		.file 15 "../lib/e-puck2_main-processor/ChibiOS//os/rt/include/chtm.h"
 455              		.file 16 "../lib/e-puck2_main-processor/ChibiOS//os/rt/include/chstats.h"
 456              		.file 17 "../lib/e-puck2_main-processor/ChibiOS//os/rt/include/chsem.h"
 457              		.file 18 "../lib/e-puck2_main-processor/ChibiOS//os/rt/include/chmtx.h"
 458              		.file 19 "../lib/e-puck2_main-processor/ChibiOS//os/rt/include/chregistry.h"