ARM GAS  C:\Users\PCHAUT~1\AppData\Local\Temp\ccwn6d1C.s 			page 1


   1              		.cpu cortex-m4
   2              		.eabi_attribute 27, 1
   3              		.eabi_attribute 28, 1
   4              		.eabi_attribute 20, 1
   5              		.eabi_attribute 21, 1
   6              		.eabi_attribute 23, 3
   7              		.eabi_attribute 24, 1
   8              		.eabi_attribute 25, 1
   9              		.eabi_attribute 26, 1
  10              		.eabi_attribute 30, 6
  11              		.eabi_attribute 34, 1
  12              		.eabi_attribute 18, 4
  13              		.file	"chschd.c"
  14              		.text
  15              	.Ltext0:
  16              		.cfi_sections	.debug_frame
  17              		.section	.text.port_lock,"ax",%progbits
  18              		.align	1
  19              		.p2align 4,,15
  20              		.syntax unified
  21              		.thumb
  22              		.thumb_func
  23              		.fpu fpv4-sp-d16
  24              		.type	port_lock, %function
  25              	port_lock:
  26              	.LFB116:
  27              		.file 1 "../lib/e-puck2_main-processor/ChibiOS//os/rt/ports/ARMCMx/chcore_v7m.h"
  28              		.loc 1 444 0
  29              		.cfi_startproc
  30              		@ args = 0, pretend = 0, frame = 8
  31              		@ frame_needed = 0, uses_anonymous_args = 0
  32 0000 00B5     		push	{lr}
  33              		.cfi_def_cfa_offset 4
  34              		.cfi_offset 14, -4
  35 0002 83B0     		sub	sp, sp, #12
  36              		.cfi_def_cfa_offset 16
  37              		.loc 1 444 0
  38 0004 094B     		ldr	r3, .L3
  39 0006 1B68     		ldr	r3, [r3]
  40 0008 0193     		str	r3, [sp, #4]
  41 000a 2023     		movs	r3, #32
  42 000c 0093     		str	r3, [sp]
  43              	.LBB19:
  44              	.LBB20:
  45              		.file 2 "../lib/e-puck2_main-processor/ChibiOS//os/ext/CMSIS/include/core_cmFunc.h"
  46              		.loc 2 546 0
  47 000e 009B     		ldr	r3, [sp]
  48              		.syntax unified
  49              	@ 546 "../lib/e-puck2_main-processor/ChibiOS//os/ext/CMSIS/include/core_cmFunc.h" 1
  50 0010 83F31188 		MSR basepri, r3
  51              	@ 0 "" 2
  52              		.thumb
  53              		.syntax unified
  54              	.LBE20:
  55              	.LBE19:
  56              		.loc 1 451 0
  57 0014 00BF     		nop
ARM GAS  C:\Users\PCHAUT~1\AppData\Local\Temp\ccwn6d1C.s 			page 2


  58 0016 054B     		ldr	r3, .L3
  59 0018 019A     		ldr	r2, [sp, #4]
  60 001a 1B68     		ldr	r3, [r3]
  61 001c 9A42     		cmp	r2, r3
  62 001e 01D0     		beq	.L2
  63 0020 FFF7FEFF 		bl	__stack_chk_fail
  64              	.L2:
  65 0024 03B0     		add	sp, sp, #12
  66              		.cfi_def_cfa_offset 4
  67              		@ sp needed
  68 0026 5DF804FB 		ldr	pc, [sp], #4
  69              	.L4:
  70 002a 00BF     		.align	2
  71              	.L3:
  72 002c 00000000 		.word	__stack_chk_guard
  73              		.cfi_endproc
  74              	.LFE116:
  75              		.size	port_lock, .-port_lock
  76              		.section	.text.port_unlock,"ax",%progbits
  77              		.align	1
  78              		.p2align 4,,15
  79              		.syntax unified
  80              		.thumb
  81              		.thumb_func
  82              		.fpu fpv4-sp-d16
  83              		.type	port_unlock, %function
  84              	port_unlock:
  85              	.LFB117:
  86              		.loc 1 458 0
  87              		.cfi_startproc
  88              		@ args = 0, pretend = 0, frame = 8
  89              		@ frame_needed = 0, uses_anonymous_args = 0
  90 0000 00B5     		push	{lr}
  91              		.cfi_def_cfa_offset 4
  92              		.cfi_offset 14, -4
  93 0002 83B0     		sub	sp, sp, #12
  94              		.cfi_def_cfa_offset 16
  95              		.loc 1 458 0
  96 0004 094B     		ldr	r3, .L7
  97 0006 1B68     		ldr	r3, [r3]
  98 0008 0193     		str	r3, [sp, #4]
  99 000a 0023     		movs	r3, #0
 100 000c 0093     		str	r3, [sp]
 101              	.LBB21:
 102              	.LBB22:
 103              		.loc 2 546 0
 104 000e 009B     		ldr	r3, [sp]
 105              		.syntax unified
 106              	@ 546 "../lib/e-puck2_main-processor/ChibiOS//os/ext/CMSIS/include/core_cmFunc.h" 1
 107 0010 83F31188 		MSR basepri, r3
 108              	@ 0 "" 2
 109              		.thumb
 110              		.syntax unified
 111              	.LBE22:
 112              	.LBE21:
 113              		.loc 1 465 0
 114 0014 00BF     		nop
ARM GAS  C:\Users\PCHAUT~1\AppData\Local\Temp\ccwn6d1C.s 			page 3


 115 0016 054B     		ldr	r3, .L7
 116 0018 019A     		ldr	r2, [sp, #4]
 117 001a 1B68     		ldr	r3, [r3]
 118 001c 9A42     		cmp	r2, r3
 119 001e 01D0     		beq	.L6
 120 0020 FFF7FEFF 		bl	__stack_chk_fail
 121              	.L6:
 122 0024 03B0     		add	sp, sp, #12
 123              		.cfi_def_cfa_offset 4
 124              		@ sp needed
 125 0026 5DF804FB 		ldr	pc, [sp], #4
 126              	.L8:
 127 002a 00BF     		.align	2
 128              	.L7:
 129 002c 00000000 		.word	__stack_chk_guard
 130              		.cfi_endproc
 131              	.LFE117:
 132              		.size	port_unlock, .-port_unlock
 133              		.section	.text.port_lock_from_isr,"ax",%progbits
 134              		.align	1
 135              		.p2align 4,,15
 136              		.syntax unified
 137              		.thumb
 138              		.thumb_func
 139              		.fpu fpv4-sp-d16
 140              		.type	port_lock_from_isr, %function
 141              	port_lock_from_isr:
 142              	.LFB118:
 143              		.loc 1 473 0
 144              		.cfi_startproc
 145              		@ args = 0, pretend = 0, frame = 8
 146              		@ frame_needed = 0, uses_anonymous_args = 0
 147 0000 00B5     		push	{lr}
 148              		.cfi_def_cfa_offset 4
 149              		.cfi_offset 14, -4
 150 0002 83B0     		sub	sp, sp, #12
 151              		.cfi_def_cfa_offset 16
 152              		.loc 1 473 0
 153 0004 074B     		ldr	r3, .L11
 154 0006 1B68     		ldr	r3, [r3]
 155 0008 0193     		str	r3, [sp, #4]
 156              		.loc 1 475 0
 157 000a FFF7FEFF 		bl	port_lock
 158              		.loc 1 476 0
 159 000e 00BF     		nop
 160 0010 044B     		ldr	r3, .L11
 161 0012 019A     		ldr	r2, [sp, #4]
 162 0014 1B68     		ldr	r3, [r3]
 163 0016 9A42     		cmp	r2, r3
 164 0018 01D0     		beq	.L10
 165 001a FFF7FEFF 		bl	__stack_chk_fail
 166              	.L10:
 167 001e 03B0     		add	sp, sp, #12
 168              		.cfi_def_cfa_offset 4
 169              		@ sp needed
 170 0020 5DF804FB 		ldr	pc, [sp], #4
 171              	.L12:
ARM GAS  C:\Users\PCHAUT~1\AppData\Local\Temp\ccwn6d1C.s 			page 4


 172              		.align	2
 173              	.L11:
 174 0024 00000000 		.word	__stack_chk_guard
 175              		.cfi_endproc
 176              	.LFE118:
 177              		.size	port_lock_from_isr, .-port_lock_from_isr
 178              		.section	.text.port_unlock_from_isr,"ax",%progbits
 179              		.align	1
 180              		.p2align 4,,15
 181              		.syntax unified
 182              		.thumb
 183              		.thumb_func
 184              		.fpu fpv4-sp-d16
 185              		.type	port_unlock_from_isr, %function
 186              	port_unlock_from_isr:
 187              	.LFB119:
 188              		.loc 1 484 0
 189              		.cfi_startproc
 190              		@ args = 0, pretend = 0, frame = 8
 191              		@ frame_needed = 0, uses_anonymous_args = 0
 192 0000 00B5     		push	{lr}
 193              		.cfi_def_cfa_offset 4
 194              		.cfi_offset 14, -4
 195 0002 83B0     		sub	sp, sp, #12
 196              		.cfi_def_cfa_offset 16
 197              		.loc 1 484 0
 198 0004 074B     		ldr	r3, .L15
 199 0006 1B68     		ldr	r3, [r3]
 200 0008 0193     		str	r3, [sp, #4]
 201              		.loc 1 486 0
 202 000a FFF7FEFF 		bl	port_unlock
 203              		.loc 1 487 0
 204 000e 00BF     		nop
 205 0010 044B     		ldr	r3, .L15
 206 0012 019A     		ldr	r2, [sp, #4]
 207 0014 1B68     		ldr	r3, [r3]
 208 0016 9A42     		cmp	r2, r3
 209 0018 01D0     		beq	.L14
 210 001a FFF7FEFF 		bl	__stack_chk_fail
 211              	.L14:
 212 001e 03B0     		add	sp, sp, #12
 213              		.cfi_def_cfa_offset 4
 214              		@ sp needed
 215 0020 5DF804FB 		ldr	pc, [sp], #4
 216              	.L16:
 217              		.align	2
 218              	.L15:
 219 0024 00000000 		.word	__stack_chk_guard
 220              		.cfi_endproc
 221              	.LFE119:
 222              		.size	port_unlock_from_isr, .-port_unlock_from_isr
 223              		.section	.text.queue_init,"ax",%progbits
 224              		.align	1
 225              		.p2align 4,,15
 226              		.syntax unified
 227              		.thumb
 228              		.thumb_func
ARM GAS  C:\Users\PCHAUT~1\AppData\Local\Temp\ccwn6d1C.s 			page 5


 229              		.fpu fpv4-sp-d16
 230              		.type	queue_init, %function
 231              	queue_init:
 232              	.LFB128:
 233              		.file 3 "../lib/e-puck2_main-processor/ChibiOS//os/rt/include/chschd.h"
 234              		.loc 3 602 0
 235              		.cfi_startproc
 236              		@ args = 0, pretend = 0, frame = 16
 237              		@ frame_needed = 0, uses_anonymous_args = 0
 238 0000 00B5     		push	{lr}
 239              		.cfi_def_cfa_offset 4
 240              		.cfi_offset 14, -4
 241 0002 85B0     		sub	sp, sp, #20
 242              		.cfi_def_cfa_offset 24
 243 0004 0190     		str	r0, [sp, #4]
 244              		.loc 3 602 0
 245 0006 0A4B     		ldr	r3, .L19
 246 0008 1B68     		ldr	r3, [r3]
 247 000a 0393     		str	r3, [sp, #12]
 248              		.loc 3 604 0
 249 000c 019B     		ldr	r3, [sp, #4]
 250 000e 019A     		ldr	r2, [sp, #4]
 251 0010 1A60     		str	r2, [r3]
 252              		.loc 3 605 0
 253 0012 019B     		ldr	r3, [sp, #4]
 254 0014 019A     		ldr	r2, [sp, #4]
 255 0016 5A60     		str	r2, [r3, #4]
 256              		.loc 3 606 0
 257 0018 00BF     		nop
 258 001a 054B     		ldr	r3, .L19
 259 001c 039A     		ldr	r2, [sp, #12]
 260 001e 1B68     		ldr	r3, [r3]
 261 0020 9A42     		cmp	r2, r3
 262 0022 01D0     		beq	.L18
 263 0024 FFF7FEFF 		bl	__stack_chk_fail
 264              	.L18:
 265 0028 05B0     		add	sp, sp, #20
 266              		.cfi_def_cfa_offset 4
 267              		@ sp needed
 268 002a 5DF804FB 		ldr	pc, [sp], #4
 269              	.L20:
 270 002e 00BF     		.align	2
 271              	.L19:
 272 0030 00000000 		.word	__stack_chk_guard
 273              		.cfi_endproc
 274              	.LFE128:
 275              		.size	queue_init, .-queue_init
 276              		.section	.text.queue_fifo_remove,"ax",%progbits
 277              		.align	1
 278              		.p2align 4,,15
 279              		.syntax unified
 280              		.thumb
 281              		.thumb_func
 282              		.fpu fpv4-sp-d16
 283              		.type	queue_fifo_remove, %function
 284              	queue_fifo_remove:
 285              	.LFB135:
ARM GAS  C:\Users\PCHAUT~1\AppData\Local\Temp\ccwn6d1C.s 			page 6


 286              		.loc 3 671 0
 287              		.cfi_startproc
 288              		@ args = 0, pretend = 0, frame = 16
 289              		@ frame_needed = 0, uses_anonymous_args = 0
 290 0000 00B5     		push	{lr}
 291              		.cfi_def_cfa_offset 4
 292              		.cfi_offset 14, -4
 293 0002 85B0     		sub	sp, sp, #20
 294              		.cfi_def_cfa_offset 24
 295 0004 0190     		str	r0, [sp, #4]
 296              		.loc 3 671 0
 297 0006 0D4B     		ldr	r3, .L24
 298 0008 1B68     		ldr	r3, [r3]
 299 000a 0393     		str	r3, [sp, #12]
 300              		.loc 3 672 0
 301 000c 019B     		ldr	r3, [sp, #4]
 302 000e 1B68     		ldr	r3, [r3]
 303 0010 0293     		str	r3, [sp, #8]
 304              		.loc 3 674 0
 305 0012 029B     		ldr	r3, [sp, #8]
 306 0014 1A68     		ldr	r2, [r3]
 307 0016 019B     		ldr	r3, [sp, #4]
 308 0018 1A60     		str	r2, [r3]
 309              		.loc 3 675 0
 310 001a 019B     		ldr	r3, [sp, #4]
 311 001c 1B68     		ldr	r3, [r3]
 312 001e 019A     		ldr	r2, [sp, #4]
 313 0020 5A60     		str	r2, [r3, #4]
 314              		.loc 3 677 0
 315 0022 029B     		ldr	r3, [sp, #8]
 316              		.loc 3 678 0
 317 0024 1846     		mov	r0, r3
 318 0026 054B     		ldr	r3, .L24
 319 0028 039A     		ldr	r2, [sp, #12]
 320 002a 1B68     		ldr	r3, [r3]
 321 002c 9A42     		cmp	r2, r3
 322 002e 01D0     		beq	.L23
 323 0030 FFF7FEFF 		bl	__stack_chk_fail
 324              	.L23:
 325 0034 05B0     		add	sp, sp, #20
 326              		.cfi_def_cfa_offset 4
 327              		@ sp needed
 328 0036 5DF804FB 		ldr	pc, [sp], #4
 329              	.L25:
 330 003a 00BF     		.align	2
 331              	.L24:
 332 003c 00000000 		.word	__stack_chk_guard
 333              		.cfi_endproc
 334              	.LFE135:
 335              		.size	queue_fifo_remove, .-queue_fifo_remove
 336              		.section	.text.queue_dequeue,"ax",%progbits
 337              		.align	1
 338              		.p2align 4,,15
 339              		.syntax unified
 340              		.thumb
 341              		.thumb_func
 342              		.fpu fpv4-sp-d16
ARM GAS  C:\Users\PCHAUT~1\AppData\Local\Temp\ccwn6d1C.s 			page 7


 343              		.type	queue_dequeue, %function
 344              	queue_dequeue:
 345              	.LFB137:
 346              		.loc 3 689 0
 347              		.cfi_startproc
 348              		@ args = 0, pretend = 0, frame = 16
 349              		@ frame_needed = 0, uses_anonymous_args = 0
 350 0000 00B5     		push	{lr}
 351              		.cfi_def_cfa_offset 4
 352              		.cfi_offset 14, -4
 353 0002 85B0     		sub	sp, sp, #20
 354              		.cfi_def_cfa_offset 24
 355 0004 0190     		str	r0, [sp, #4]
 356              		.loc 3 689 0
 357 0006 0C4B     		ldr	r3, .L29
 358 0008 1B68     		ldr	r3, [r3]
 359 000a 0393     		str	r3, [sp, #12]
 360              		.loc 3 691 0
 361 000c 019B     		ldr	r3, [sp, #4]
 362 000e 5B68     		ldr	r3, [r3, #4]
 363 0010 019A     		ldr	r2, [sp, #4]
 364 0012 1268     		ldr	r2, [r2]
 365 0014 1A60     		str	r2, [r3]
 366              		.loc 3 692 0
 367 0016 019B     		ldr	r3, [sp, #4]
 368 0018 1B68     		ldr	r3, [r3]
 369 001a 019A     		ldr	r2, [sp, #4]
 370 001c 5268     		ldr	r2, [r2, #4]
 371 001e 5A60     		str	r2, [r3, #4]
 372              		.loc 3 694 0
 373 0020 019B     		ldr	r3, [sp, #4]
 374              		.loc 3 695 0
 375 0022 1846     		mov	r0, r3
 376 0024 044B     		ldr	r3, .L29
 377 0026 039A     		ldr	r2, [sp, #12]
 378 0028 1B68     		ldr	r3, [r3]
 379 002a 9A42     		cmp	r2, r3
 380 002c 01D0     		beq	.L28
 381 002e FFF7FEFF 		bl	__stack_chk_fail
 382              	.L28:
 383 0032 05B0     		add	sp, sp, #20
 384              		.cfi_def_cfa_offset 4
 385              		@ sp needed
 386 0034 5DF804FB 		ldr	pc, [sp], #4
 387              	.L30:
 388              		.align	2
 389              	.L29:
 390 0038 00000000 		.word	__stack_chk_guard
 391              		.cfi_endproc
 392              	.LFE137:
 393              		.size	queue_dequeue, .-queue_dequeue
 394              		.section	.text.chSchIsRescRequiredI,"ax",%progbits
 395              		.align	1
 396              		.p2align 4,,15
 397              		.syntax unified
 398              		.thumb
 399              		.thumb_func
ARM GAS  C:\Users\PCHAUT~1\AppData\Local\Temp\ccwn6d1C.s 			page 8


 400              		.fpu fpv4-sp-d16
 401              		.type	chSchIsRescRequiredI, %function
 402              	chSchIsRescRequiredI:
 403              	.LFB138:
 404              		.loc 3 709 0
 405              		.cfi_startproc
 406              		@ args = 0, pretend = 0, frame = 8
 407              		@ frame_needed = 0, uses_anonymous_args = 0
 408 0000 00B5     		push	{lr}
 409              		.cfi_def_cfa_offset 4
 410              		.cfi_offset 14, -4
 411 0002 83B0     		sub	sp, sp, #12
 412              		.cfi_def_cfa_offset 16
 413              		.loc 3 709 0
 414 0004 0D4B     		ldr	r3, .L34
 415 0006 1B68     		ldr	r3, [r3]
 416 0008 0193     		str	r3, [sp, #4]
 417              		.loc 3 711 0
 418 000a FFF7FEFF 		bl	chDbgCheckClassI
 419              		.loc 3 713 0
 420 000e 0C4B     		ldr	r3, .L34+4
 421 0010 1B68     		ldr	r3, [r3]
 422 0012 9A68     		ldr	r2, [r3, #8]
 423 0014 0A4B     		ldr	r3, .L34+4
 424 0016 9B69     		ldr	r3, [r3, #24]
 425 0018 9B68     		ldr	r3, [r3, #8]
 426 001a 9A42     		cmp	r2, r3
 427 001c 8CBF     		ite	hi
 428 001e 0123     		movhi	r3, #1
 429 0020 0023     		movls	r3, #0
 430 0022 DBB2     		uxtb	r3, r3
 431              		.loc 3 714 0
 432 0024 1846     		mov	r0, r3
 433 0026 054B     		ldr	r3, .L34
 434 0028 019A     		ldr	r2, [sp, #4]
 435 002a 1B68     		ldr	r3, [r3]
 436 002c 9A42     		cmp	r2, r3
 437 002e 01D0     		beq	.L33
 438 0030 FFF7FEFF 		bl	__stack_chk_fail
 439              	.L33:
 440 0034 03B0     		add	sp, sp, #12
 441              		.cfi_def_cfa_offset 4
 442              		@ sp needed
 443 0036 5DF804FB 		ldr	pc, [sp], #4
 444              	.L35:
 445 003a 00BF     		.align	2
 446              	.L34:
 447 003c 00000000 		.word	__stack_chk_guard
 448 0040 00000000 		.word	ch
 449              		.cfi_endproc
 450              	.LFE138:
 451              		.size	chSchIsRescRequiredI, .-chSchIsRescRequiredI
 452              		.section	.text.chSysLockFromISR,"ax",%progbits
 453              		.align	1
 454              		.p2align 4,,15
 455              		.syntax unified
 456              		.thumb
ARM GAS  C:\Users\PCHAUT~1\AppData\Local\Temp\ccwn6d1C.s 			page 9


 457              		.thumb_func
 458              		.fpu fpv4-sp-d16
 459              		.type	chSysLockFromISR, %function
 460              	chSysLockFromISR:
 461              	.LFB147:
 462              		.file 4 "../lib/e-puck2_main-processor/ChibiOS//os/rt/include/chsys.h"
 463              		.loc 4 386 0
 464              		.cfi_startproc
 465              		@ args = 0, pretend = 0, frame = 8
 466              		@ frame_needed = 0, uses_anonymous_args = 0
 467 0000 00B5     		push	{lr}
 468              		.cfi_def_cfa_offset 4
 469              		.cfi_offset 14, -4
 470 0002 83B0     		sub	sp, sp, #12
 471              		.cfi_def_cfa_offset 16
 472              		.loc 4 386 0
 473 0004 094B     		ldr	r3, .L38
 474 0006 1B68     		ldr	r3, [r3]
 475 0008 0193     		str	r3, [sp, #4]
 476              		.loc 4 388 0
 477 000a FFF7FEFF 		bl	port_lock_from_isr
 478              		.loc 4 389 0
 479 000e FFF7FEFF 		bl	_stats_start_measure_crit_isr
 480              		.loc 4 390 0
 481 0012 FFF7FEFF 		bl	_dbg_check_lock_from_isr
 482              		.loc 4 391 0
 483 0016 00BF     		nop
 484 0018 044B     		ldr	r3, .L38
 485 001a 019A     		ldr	r2, [sp, #4]
 486 001c 1B68     		ldr	r3, [r3]
 487 001e 9A42     		cmp	r2, r3
 488 0020 01D0     		beq	.L37
 489 0022 FFF7FEFF 		bl	__stack_chk_fail
 490              	.L37:
 491 0026 03B0     		add	sp, sp, #12
 492              		.cfi_def_cfa_offset 4
 493              		@ sp needed
 494 0028 5DF804FB 		ldr	pc, [sp], #4
 495              	.L39:
 496              		.align	2
 497              	.L38:
 498 002c 00000000 		.word	__stack_chk_guard
 499              		.cfi_endproc
 500              	.LFE147:
 501              		.size	chSysLockFromISR, .-chSysLockFromISR
 502              		.section	.text.chSysUnlockFromISR,"ax",%progbits
 503              		.align	1
 504              		.p2align 4,,15
 505              		.syntax unified
 506              		.thumb
 507              		.thumb_func
 508              		.fpu fpv4-sp-d16
 509              		.type	chSysUnlockFromISR, %function
 510              	chSysUnlockFromISR:
 511              	.LFB148:
 512              		.loc 4 406 0
 513              		.cfi_startproc
ARM GAS  C:\Users\PCHAUT~1\AppData\Local\Temp\ccwn6d1C.s 			page 10


 514              		@ args = 0, pretend = 0, frame = 8
 515              		@ frame_needed = 0, uses_anonymous_args = 0
 516 0000 00B5     		push	{lr}
 517              		.cfi_def_cfa_offset 4
 518              		.cfi_offset 14, -4
 519 0002 83B0     		sub	sp, sp, #12
 520              		.cfi_def_cfa_offset 16
 521              		.loc 4 406 0
 522 0004 094B     		ldr	r3, .L42
 523 0006 1B68     		ldr	r3, [r3]
 524 0008 0193     		str	r3, [sp, #4]
 525              		.loc 4 408 0
 526 000a FFF7FEFF 		bl	_dbg_check_unlock_from_isr
 527              		.loc 4 409 0
 528 000e FFF7FEFF 		bl	_stats_stop_measure_crit_isr
 529              		.loc 4 410 0
 530 0012 FFF7FEFF 		bl	port_unlock_from_isr
 531              		.loc 4 411 0
 532 0016 00BF     		nop
 533 0018 044B     		ldr	r3, .L42
 534 001a 019A     		ldr	r2, [sp, #4]
 535 001c 1B68     		ldr	r3, [r3]
 536 001e 9A42     		cmp	r2, r3
 537 0020 01D0     		beq	.L41
 538 0022 FFF7FEFF 		bl	__stack_chk_fail
 539              	.L41:
 540 0026 03B0     		add	sp, sp, #12
 541              		.cfi_def_cfa_offset 4
 542              		@ sp needed
 543 0028 5DF804FB 		ldr	pc, [sp], #4
 544              	.L43:
 545              		.align	2
 546              	.L42:
 547 002c 00000000 		.word	__stack_chk_guard
 548              		.cfi_endproc
 549              	.LFE148:
 550              		.size	chSysUnlockFromISR, .-chSysUnlockFromISR
 551              		.section	.text.chVTIsArmedI,"ax",%progbits
 552              		.align	1
 553              		.p2align 4,,15
 554              		.syntax unified
 555              		.thumb
 556              		.thumb_func
 557              		.fpu fpv4-sp-d16
 558              		.type	chVTIsArmedI, %function
 559              	chVTIsArmedI:
 560              	.LFB159:
 561              		.file 5 "../lib/e-puck2_main-processor/ChibiOS//os/rt/include/chvt.h"
 562              		.loc 5 337 0
 563              		.cfi_startproc
 564              		@ args = 0, pretend = 0, frame = 16
 565              		@ frame_needed = 0, uses_anonymous_args = 0
 566 0000 00B5     		push	{lr}
 567              		.cfi_def_cfa_offset 4
 568              		.cfi_offset 14, -4
 569 0002 85B0     		sub	sp, sp, #20
 570              		.cfi_def_cfa_offset 24
ARM GAS  C:\Users\PCHAUT~1\AppData\Local\Temp\ccwn6d1C.s 			page 11


 571 0004 0190     		str	r0, [sp, #4]
 572              		.loc 5 337 0
 573 0006 0B4B     		ldr	r3, .L47
 574 0008 1B68     		ldr	r3, [r3]
 575 000a 0393     		str	r3, [sp, #12]
 576              		.loc 5 339 0
 577 000c FFF7FEFF 		bl	chDbgCheckClassI
 578              		.loc 5 341 0
 579 0010 019B     		ldr	r3, [sp, #4]
 580 0012 DB68     		ldr	r3, [r3, #12]
 581 0014 002B     		cmp	r3, #0
 582 0016 14BF     		ite	ne
 583 0018 0123     		movne	r3, #1
 584 001a 0023     		moveq	r3, #0
 585 001c DBB2     		uxtb	r3, r3
 586              		.loc 5 342 0
 587 001e 1846     		mov	r0, r3
 588 0020 044B     		ldr	r3, .L47
 589 0022 039A     		ldr	r2, [sp, #12]
 590 0024 1B68     		ldr	r3, [r3]
 591 0026 9A42     		cmp	r2, r3
 592 0028 01D0     		beq	.L46
 593 002a FFF7FEFF 		bl	__stack_chk_fail
 594              	.L46:
 595 002e 05B0     		add	sp, sp, #20
 596              		.cfi_def_cfa_offset 4
 597              		@ sp needed
 598 0030 5DF804FB 		ldr	pc, [sp], #4
 599              	.L48:
 600              		.align	2
 601              	.L47:
 602 0034 00000000 		.word	__stack_chk_guard
 603              		.cfi_endproc
 604              	.LFE159:
 605              		.size	chVTIsArmedI, .-chVTIsArmedI
 606              		.section	.text.chSemFastSignalI,"ax",%progbits
 607              		.align	1
 608              		.p2align 4,,15
 609              		.syntax unified
 610              		.thumb
 611              		.thumb_func
 612              		.fpu fpv4-sp-d16
 613              		.type	chSemFastSignalI, %function
 614              	chSemFastSignalI:
 615              	.LFB180:
 616              		.file 6 "../lib/e-puck2_main-processor/ChibiOS//os/rt/include/chsem.h"
 617              		.loc 6 134 0
 618              		.cfi_startproc
 619              		@ args = 0, pretend = 0, frame = 16
 620              		@ frame_needed = 0, uses_anonymous_args = 0
 621 0000 00B5     		push	{lr}
 622              		.cfi_def_cfa_offset 4
 623              		.cfi_offset 14, -4
 624 0002 85B0     		sub	sp, sp, #20
 625              		.cfi_def_cfa_offset 24
 626 0004 0190     		str	r0, [sp, #4]
 627              		.loc 6 134 0
ARM GAS  C:\Users\PCHAUT~1\AppData\Local\Temp\ccwn6d1C.s 			page 12


 628 0006 0A4B     		ldr	r3, .L51
 629 0008 1B68     		ldr	r3, [r3]
 630 000a 0393     		str	r3, [sp, #12]
 631              		.loc 6 136 0
 632 000c FFF7FEFF 		bl	chDbgCheckClassI
 633              		.loc 6 138 0
 634 0010 019B     		ldr	r3, [sp, #4]
 635 0012 9B68     		ldr	r3, [r3, #8]
 636 0014 5A1C     		adds	r2, r3, #1
 637 0016 019B     		ldr	r3, [sp, #4]
 638 0018 9A60     		str	r2, [r3, #8]
 639              		.loc 6 139 0
 640 001a 00BF     		nop
 641 001c 044B     		ldr	r3, .L51
 642 001e 039A     		ldr	r2, [sp, #12]
 643 0020 1B68     		ldr	r3, [r3]
 644 0022 9A42     		cmp	r2, r3
 645 0024 01D0     		beq	.L50
 646 0026 FFF7FEFF 		bl	__stack_chk_fail
 647              	.L50:
 648 002a 05B0     		add	sp, sp, #20
 649              		.cfi_def_cfa_offset 4
 650              		@ sp needed
 651 002c 5DF804FB 		ldr	pc, [sp], #4
 652              	.L52:
 653              		.align	2
 654              	.L51:
 655 0030 00000000 		.word	__stack_chk_guard
 656              		.cfi_endproc
 657              	.LFE180:
 658              		.size	chSemFastSignalI, .-chSemFastSignalI
 659              		.global	ch
 660              		.section	.bss.ch,"aw",%nobits
 661              		.align	3
 662              		.type	ch, %object
 663              		.size	ch, 1648
 664              	ch:
 665 0000 00000000 		.space	1648
 665      00000000 
 665      00000000 
 665      00000000 
 665      00000000 
 666              		.section	.text._scheduler_init,"ax",%progbits
 667              		.align	1
 668              		.p2align 4,,15
 669              		.global	_scheduler_init
 670              		.syntax unified
 671              		.thumb
 672              		.thumb_func
 673              		.fpu fpv4-sp-d16
 674              		.type	_scheduler_init, %function
 675              	_scheduler_init:
 676              	.LFB219:
 677              		.file 7 "../lib/e-puck2_main-processor/ChibiOS//os/rt/src/chschd.c"
 678              		.loc 7 65 0
 679              		.cfi_startproc
 680              		@ args = 0, pretend = 0, frame = 8
ARM GAS  C:\Users\PCHAUT~1\AppData\Local\Temp\ccwn6d1C.s 			page 13


 681              		@ frame_needed = 0, uses_anonymous_args = 0
 682 0000 00B5     		push	{lr}
 683              		.cfi_def_cfa_offset 4
 684              		.cfi_offset 14, -4
 685 0002 83B0     		sub	sp, sp, #12
 686              		.cfi_def_cfa_offset 16
 687              		.loc 7 65 0
 688 0004 0C4B     		ldr	r3, .L55
 689 0006 1B68     		ldr	r3, [r3]
 690 0008 0193     		str	r3, [sp, #4]
 691              		.loc 7 67 0
 692 000a 0C48     		ldr	r0, .L55+4
 693 000c FFF7FEFF 		bl	queue_init
 694              		.loc 7 68 0
 695 0010 0A4B     		ldr	r3, .L55+4
 696 0012 0022     		movs	r2, #0
 697 0014 9A60     		str	r2, [r3, #8]
 698              		.loc 7 70 0
 699 0016 094B     		ldr	r3, .L55+4
 700 0018 084A     		ldr	r2, .L55+4
 701 001a 1A61     		str	r2, [r3, #16]
 702              		.loc 7 71 0
 703 001c 074B     		ldr	r3, .L55+4
 704 001e 074A     		ldr	r2, .L55+4
 705 0020 5A61     		str	r2, [r3, #20]
 706              		.loc 7 73 0
 707 0022 00BF     		nop
 708 0024 044B     		ldr	r3, .L55
 709 0026 019A     		ldr	r2, [sp, #4]
 710 0028 1B68     		ldr	r3, [r3]
 711 002a 9A42     		cmp	r2, r3
 712 002c 01D0     		beq	.L54
 713 002e FFF7FEFF 		bl	__stack_chk_fail
 714              	.L54:
 715 0032 03B0     		add	sp, sp, #12
 716              		.cfi_def_cfa_offset 4
 717              		@ sp needed
 718 0034 5DF804FB 		ldr	pc, [sp], #4
 719              	.L56:
 720              		.align	2
 721              	.L55:
 722 0038 00000000 		.word	__stack_chk_guard
 723 003c 00000000 		.word	ch
 724              		.cfi_endproc
 725              	.LFE219:
 726              		.size	_scheduler_init, .-_scheduler_init
 727              		.section	.text.chSchReadyI,"ax",%progbits
 728              		.align	1
 729              		.p2align 4,,15
 730              		.global	chSchReadyI
 731              		.syntax unified
 732              		.thumb
 733              		.thumb_func
 734              		.fpu fpv4-sp-d16
 735              		.type	chSchReadyI, %function
 736              	chSchReadyI:
 737              	.LFB220:
ARM GAS  C:\Users\PCHAUT~1\AppData\Local\Temp\ccwn6d1C.s 			page 14


 738              		.loc 7 218 0
 739              		.cfi_startproc
 740              		@ args = 0, pretend = 0, frame = 16
 741              		@ frame_needed = 0, uses_anonymous_args = 0
 742 0000 00B5     		push	{lr}
 743              		.cfi_def_cfa_offset 4
 744              		.cfi_offset 14, -4
 745 0002 85B0     		sub	sp, sp, #20
 746              		.cfi_def_cfa_offset 24
 747 0004 0190     		str	r0, [sp, #4]
 748              		.loc 7 218 0
 749 0006 204B     		ldr	r3, .L65
 750 0008 1B68     		ldr	r3, [r3]
 751 000a 0393     		str	r3, [sp, #12]
 752              		.loc 7 221 0
 753 000c FFF7FEFF 		bl	chDbgCheckClassI
 754              		.loc 7 222 0
 755 0010 019B     		ldr	r3, [sp, #4]
 756 0012 002B     		cmp	r3, #0
 757 0014 02D1     		bne	.L64
 758              		.loc 7 222 0 is_stmt 0 discriminator 2
 759 0016 1D48     		ldr	r0, .L65+4
 760 0018 FFF7FEFF 		bl	chSysHalt
 761              	.L64:
 762              		.loc 7 223 0 is_stmt 1 discriminator 1
 763 001c 019B     		ldr	r3, [sp, #4]
 764 001e 93F82030 		ldrb	r3, [r3, #32]	@ zero_extendqisi2
 765 0022 002B     		cmp	r3, #0
 766 0024 04D0     		beq	.L59
 767              		.loc 7 223 0 is_stmt 0 discriminator 3
 768 0026 019B     		ldr	r3, [sp, #4]
 769 0028 93F82030 		ldrb	r3, [r3, #32]	@ zero_extendqisi2
 770 002c 0F2B     		cmp	r3, #15
 771 002e 02D1     		bne	.L60
 772              	.L59:
 773              		.loc 7 223 0 discriminator 4
 774 0030 1648     		ldr	r0, .L65+4
 775 0032 FFF7FEFF 		bl	chSysHalt
 776              	.L60:
 777              		.loc 7 227 0 is_stmt 1
 778 0036 019B     		ldr	r3, [sp, #4]
 779 0038 0022     		movs	r2, #0
 780 003a 83F82020 		strb	r2, [r3, #32]
 781              		.loc 7 228 0
 782 003e 144B     		ldr	r3, .L65+8
 783 0040 0293     		str	r3, [sp, #8]
 784              	.L61:
 785              		.loc 7 230 0 discriminator 1
 786 0042 029B     		ldr	r3, [sp, #8]
 787 0044 1B68     		ldr	r3, [r3]
 788 0046 0293     		str	r3, [sp, #8]
 789              		.loc 7 231 0 discriminator 1
 790 0048 029B     		ldr	r3, [sp, #8]
 791 004a 9A68     		ldr	r2, [r3, #8]
 792 004c 019B     		ldr	r3, [sp, #4]
 793 004e 9B68     		ldr	r3, [r3, #8]
 794 0050 9A42     		cmp	r2, r3
ARM GAS  C:\Users\PCHAUT~1\AppData\Local\Temp\ccwn6d1C.s 			page 15


 795 0052 F6D2     		bcs	.L61
 796              		.loc 7 233 0
 797 0054 019B     		ldr	r3, [sp, #4]
 798 0056 029A     		ldr	r2, [sp, #8]
 799 0058 1A60     		str	r2, [r3]
 800              		.loc 7 234 0
 801 005a 029B     		ldr	r3, [sp, #8]
 802 005c 5A68     		ldr	r2, [r3, #4]
 803 005e 019B     		ldr	r3, [sp, #4]
 804 0060 5A60     		str	r2, [r3, #4]
 805              		.loc 7 235 0
 806 0062 019B     		ldr	r3, [sp, #4]
 807 0064 5B68     		ldr	r3, [r3, #4]
 808 0066 019A     		ldr	r2, [sp, #4]
 809 0068 1A60     		str	r2, [r3]
 810              		.loc 7 236 0
 811 006a 029B     		ldr	r3, [sp, #8]
 812 006c 019A     		ldr	r2, [sp, #4]
 813 006e 5A60     		str	r2, [r3, #4]
 814              		.loc 7 238 0
 815 0070 019B     		ldr	r3, [sp, #4]
 816              		.loc 7 239 0
 817 0072 1846     		mov	r0, r3
 818 0074 044B     		ldr	r3, .L65
 819 0076 039A     		ldr	r2, [sp, #12]
 820 0078 1B68     		ldr	r3, [r3]
 821 007a 9A42     		cmp	r2, r3
 822 007c 01D0     		beq	.L63
 823 007e FFF7FEFF 		bl	__stack_chk_fail
 824              	.L63:
 825 0082 05B0     		add	sp, sp, #20
 826              		.cfi_def_cfa_offset 4
 827              		@ sp needed
 828 0084 5DF804FB 		ldr	pc, [sp], #4
 829              	.L66:
 830              		.align	2
 831              	.L65:
 832 0088 00000000 		.word	__stack_chk_guard
 833 008c 00000000 		.word	__func__.7854
 834 0090 00000000 		.word	ch
 835              		.cfi_endproc
 836              	.LFE220:
 837              		.size	chSchReadyI, .-chSchReadyI
 838              		.section	.rodata
 839              		.align	2
 840              	.LC0:
 841 0000 73746163 		.ascii	"stack overflow\000"
 841      6B206F76 
 841      6572666C 
 841      6F7700
 842              		.section	.text.chSchGoSleepS,"ax",%progbits
 843              		.align	1
 844              		.p2align 4,,15
 845              		.global	chSchGoSleepS
 846              		.syntax unified
 847              		.thumb
 848              		.thumb_func
ARM GAS  C:\Users\PCHAUT~1\AppData\Local\Temp\ccwn6d1C.s 			page 16


 849              		.fpu fpv4-sp-d16
 850              		.type	chSchGoSleepS, %function
 851              	chSchGoSleepS:
 852              	.LFB221:
 853              		.loc 7 250 0
 854              		.cfi_startproc
 855              		@ args = 0, pretend = 0, frame = 24
 856              		@ frame_needed = 0, uses_anonymous_args = 0
 857 0000 10B5     		push	{r4, lr}
 858              		.cfi_def_cfa_offset 8
 859              		.cfi_offset 4, -8
 860              		.cfi_offset 14, -4
 861 0002 86B0     		sub	sp, sp, #24
 862              		.cfi_def_cfa_offset 32
 863 0004 0346     		mov	r3, r0
 864 0006 8DF80730 		strb	r3, [sp, #7]
 865              		.loc 7 250 0
 866 000a 224B     		ldr	r3, .L71
 867 000c 1B68     		ldr	r3, [r3]
 868 000e 0593     		str	r3, [sp, #20]
 869              		.loc 7 253 0
 870 0010 FFF7FEFF 		bl	chDbgCheckClassS
 871              		.loc 7 255 0
 872 0014 204B     		ldr	r3, .L71+4
 873 0016 9B69     		ldr	r3, [r3, #24]
 874 0018 0393     		str	r3, [sp, #12]
 875              		.loc 7 256 0
 876 001a 039B     		ldr	r3, [sp, #12]
 877 001c 9DF80720 		ldrb	r2, [sp, #7]
 878 0020 83F82020 		strb	r2, [r3, #32]
 879              		.loc 7 260 0
 880 0024 039B     		ldr	r3, [sp, #12]
 881 0026 1422     		movs	r2, #20
 882 0028 83F82320 		strb	r2, [r3, #35]
 883              		.loc 7 262 0
 884 002c 1A48     		ldr	r0, .L71+4
 885 002e FFF7FEFF 		bl	queue_fifo_remove
 886 0032 0246     		mov	r2, r0
 887 0034 184B     		ldr	r3, .L71+4
 888 0036 9A61     		str	r2, [r3, #24]
 889              		.loc 7 268 0
 890 0038 174B     		ldr	r3, .L71+4
 891 003a 9B69     		ldr	r3, [r3, #24]
 892 003c 0122     		movs	r2, #1
 893 003e 83F82020 		strb	r2, [r3, #32]
 894              		.loc 7 269 0
 895 0042 0398     		ldr	r0, [sp, #12]
 896 0044 FFF7FEFF 		bl	_dbg_trace
 897 0048 134B     		ldr	r3, .L71+4
 898 004a 9B69     		ldr	r3, [r3, #24]
 899 004c 0399     		ldr	r1, [sp, #12]
 900 004e 1846     		mov	r0, r3
 901 0050 FFF7FEFF 		bl	_stats_ctxswc
 902              	.LBB23:
 903              	.LBB24:
 904              	.LBB25:
 905              		.loc 2 428 0
ARM GAS  C:\Users\PCHAUT~1\AppData\Local\Temp\ccwn6d1C.s 			page 17


 906              		.syntax unified
 907              	@ 428 "../lib/e-puck2_main-processor/ChibiOS//os/ext/CMSIS/include/core_cmFunc.h" 1
 908 0054 EFF30983 		MRS r3, psp
 909              	
 910              	@ 0 "" 2
 911              		.thumb
 912              		.syntax unified
 913 0058 1C46     		mov	r4, r3
 914              		.loc 2 429 0
 915 005a 2346     		mov	r3, r4
 916              	.LBE25:
 917              	.LBE24:
 918              		.loc 7 269 0
 919 005c 0493     		str	r3, [sp, #16]
 920 005e 049B     		ldr	r3, [sp, #16]
 921 0060 A3F16402 		sub	r2, r3, #100
 922 0064 039B     		ldr	r3, [sp, #12]
 923 0066 DB69     		ldr	r3, [r3, #28]
 924 0068 9A42     		cmp	r2, r3
 925 006a 02D2     		bcs	.L69
 926              		.loc 7 269 0 is_stmt 0 discriminator 1
 927 006c 0B48     		ldr	r0, .L71+8
 928 006e FFF7FEFF 		bl	chSysHalt
 929              	.L69:
 930              		.loc 7 269 0 discriminator 3
 931 0072 094B     		ldr	r3, .L71+4
 932 0074 9B69     		ldr	r3, [r3, #24]
 933 0076 0399     		ldr	r1, [sp, #12]
 934 0078 1846     		mov	r0, r3
 935 007a FFF7FEFF 		bl	_port_switch
 936              	.LBE23:
 937              		.loc 7 270 0 is_stmt 1 discriminator 3
 938 007e 00BF     		nop
 939 0080 044B     		ldr	r3, .L71
 940 0082 059A     		ldr	r2, [sp, #20]
 941 0084 1B68     		ldr	r3, [r3]
 942 0086 9A42     		cmp	r2, r3
 943 0088 01D0     		beq	.L70
 944              		.loc 7 270 0 is_stmt 0
 945 008a FFF7FEFF 		bl	__stack_chk_fail
 946              	.L70:
 947 008e 06B0     		add	sp, sp, #24
 948              		.cfi_def_cfa_offset 8
 949              		@ sp needed
 950 0090 10BD     		pop	{r4, pc}
 951              	.L72:
 952 0092 00BF     		.align	2
 953              	.L71:
 954 0094 00000000 		.word	__stack_chk_guard
 955 0098 00000000 		.word	ch
 956 009c 00000000 		.word	.LC0
 957              		.cfi_endproc
 958              	.LFE221:
 959              		.size	chSchGoSleepS, .-chSchGoSleepS
 960              		.section	.text.wakeup,"ax",%progbits
 961              		.align	1
 962              		.p2align 4,,15
ARM GAS  C:\Users\PCHAUT~1\AppData\Local\Temp\ccwn6d1C.s 			page 18


 963              		.syntax unified
 964              		.thumb
 965              		.thumb_func
 966              		.fpu fpv4-sp-d16
 967              		.type	wakeup, %function
 968              	wakeup:
 969              	.LFB222:
 970              		.loc 7 275 0 is_stmt 1
 971              		.cfi_startproc
 972              		@ args = 0, pretend = 0, frame = 16
 973              		@ frame_needed = 0, uses_anonymous_args = 0
 974 0000 00B5     		push	{lr}
 975              		.cfi_def_cfa_offset 4
 976              		.cfi_offset 14, -4
 977 0002 85B0     		sub	sp, sp, #20
 978              		.cfi_def_cfa_offset 24
 979 0004 0190     		str	r0, [sp, #4]
 980              		.loc 7 275 0
 981 0006 224B     		ldr	r3, .L84
 982 0008 1B68     		ldr	r3, [r3]
 983 000a 0393     		str	r3, [sp, #12]
 984              		.loc 7 276 0
 985 000c 019B     		ldr	r3, [sp, #4]
 986 000e 0293     		str	r3, [sp, #8]
 987              		.loc 7 278 0
 988 0010 FFF7FEFF 		bl	chSysLockFromISR
 989              		.loc 7 279 0
 990 0014 029B     		ldr	r3, [sp, #8]
 991 0016 93F82030 		ldrb	r3, [r3, #32]	@ zero_extendqisi2
 992 001a 072B     		cmp	r3, #7
 993 001c 23D8     		bhi	.L83
 994 001e 01A2     		adr	r2, .L76
 995 0020 52F823F0 		ldr	pc, [r2, r3, lsl #2]
 996              		.p2align 2
 997              	.L76:
 998 0024 45000000 		.word	.L75+1
 999 0028 67000000 		.word	.L83+1
 1000 002c 67000000 		.word	.L83+1
 1001 0030 4B000000 		.word	.L77+1
 1002 0034 5F000000 		.word	.L78+1
 1003 0038 55000000 		.word	.L79+1
 1004 003c 67000000 		.word	.L83+1
 1005 0040 5F000000 		.word	.L78+1
 1006              		.p2align 1
 1007              	.L75:
 1008              		.loc 7 283 0
 1009 0044 FFF7FEFF 		bl	chSysUnlockFromISR
 1010              		.loc 7 284 0
 1011 0048 17E0     		b	.L73
 1012              	.L77:
 1013              		.loc 7 286 0
 1014 004a 029B     		ldr	r3, [sp, #8]
 1015 004c 9B6A     		ldr	r3, [r3, #40]
 1016 004e 0022     		movs	r2, #0
 1017 0050 1A60     		str	r2, [r3]
 1018              		.loc 7 287 0
 1019 0052 09E0     		b	.L81
ARM GAS  C:\Users\PCHAUT~1\AppData\Local\Temp\ccwn6d1C.s 			page 19


 1020              	.L79:
 1021              		.loc 7 290 0
 1022 0054 029B     		ldr	r3, [sp, #8]
 1023 0056 9B6A     		ldr	r3, [r3, #40]
 1024 0058 1846     		mov	r0, r3
 1025 005a FFF7FEFF 		bl	chSemFastSignalI
 1026              	.L78:
 1027              		.loc 7 298 0
 1028 005e 0298     		ldr	r0, [sp, #8]
 1029 0060 FFF7FEFF 		bl	queue_dequeue
 1030              		.loc 7 299 0
 1031 0064 00E0     		b	.L81
 1032              	.L83:
 1033              		.loc 7 302 0
 1034 0066 00BF     		nop
 1035              	.L81:
 1036              		.loc 7 304 0
 1037 0068 029B     		ldr	r3, [sp, #8]
 1038 006a 4FF0FF32 		mov	r2, #-1
 1039 006e 9A62     		str	r2, [r3, #40]
 1040              		.loc 7 305 0
 1041 0070 0298     		ldr	r0, [sp, #8]
 1042 0072 FFF7FEFF 		bl	chSchReadyI
 1043              		.loc 7 306 0
 1044 0076 FFF7FEFF 		bl	chSysUnlockFromISR
 1045              	.L73:
 1046              		.loc 7 307 0
 1047 007a 054B     		ldr	r3, .L84
 1048 007c 039A     		ldr	r2, [sp, #12]
 1049 007e 1B68     		ldr	r3, [r3]
 1050 0080 9A42     		cmp	r2, r3
 1051 0082 01D0     		beq	.L82
 1052 0084 FFF7FEFF 		bl	__stack_chk_fail
 1053              	.L82:
 1054 0088 05B0     		add	sp, sp, #20
 1055              		.cfi_def_cfa_offset 4
 1056              		@ sp needed
 1057 008a 5DF804FB 		ldr	pc, [sp], #4
 1058              	.L85:
 1059 008e 00BF     		.align	2
 1060              	.L84:
 1061 0090 00000000 		.word	__stack_chk_guard
 1062              		.cfi_endproc
 1063              	.LFE222:
 1064              		.size	wakeup, .-wakeup
 1065              		.section	.text.chSchGoSleepTimeoutS,"ax",%progbits
 1066              		.align	1
 1067              		.p2align 4,,15
 1068              		.global	chSchGoSleepTimeoutS
 1069              		.syntax unified
 1070              		.thumb
 1071              		.thumb_func
 1072              		.fpu fpv4-sp-d16
 1073              		.type	chSchGoSleepTimeoutS, %function
 1074              	chSchGoSleepTimeoutS:
 1075              	.LFB223:
 1076              		.loc 7 330 0
ARM GAS  C:\Users\PCHAUT~1\AppData\Local\Temp\ccwn6d1C.s 			page 20


 1077              		.cfi_startproc
 1078              		@ args = 0, pretend = 0, frame = 32
 1079              		@ frame_needed = 0, uses_anonymous_args = 0
 1080 0000 00B5     		push	{lr}
 1081              		.cfi_def_cfa_offset 4
 1082              		.cfi_offset 14, -4
 1083 0002 89B0     		sub	sp, sp, #36
 1084              		.cfi_def_cfa_offset 40
 1085 0004 0346     		mov	r3, r0
 1086 0006 0091     		str	r1, [sp]
 1087 0008 8DF80730 		strb	r3, [sp, #7]
 1088              		.loc 7 330 0
 1089 000c 194B     		ldr	r3, .L92
 1090 000e 1B68     		ldr	r3, [r3]
 1091 0010 0793     		str	r3, [sp, #28]
 1092              		.loc 7 332 0
 1093 0012 FFF7FEFF 		bl	chDbgCheckClassS
 1094              		.loc 7 334 0
 1095 0016 009B     		ldr	r3, [sp]
 1096 0018 B3F1FF3F 		cmp	r3, #-1
 1097 001c 17D0     		beq	.L87
 1098              	.LBB26:
 1099              		.loc 7 337 0
 1100 001e 164B     		ldr	r3, .L92+4
 1101 0020 9B69     		ldr	r3, [r3, #24]
 1102 0022 02A8     		add	r0, sp, #8
 1103 0024 154A     		ldr	r2, .L92+8
 1104 0026 0099     		ldr	r1, [sp]
 1105 0028 FFF7FEFF 		bl	chVTDoSetI
 1106              		.loc 7 338 0
 1107 002c 9DF80730 		ldrb	r3, [sp, #7]	@ zero_extendqisi2
 1108 0030 1846     		mov	r0, r3
 1109 0032 FFF7FEFF 		bl	chSchGoSleepS
 1110              		.loc 7 339 0
 1111 0036 02AB     		add	r3, sp, #8
 1112 0038 1846     		mov	r0, r3
 1113 003a FFF7FEFF 		bl	chVTIsArmedI
 1114 003e 0346     		mov	r3, r0
 1115 0040 002B     		cmp	r3, #0
 1116 0042 09D0     		beq	.L89
 1117              		.loc 7 340 0
 1118 0044 02AB     		add	r3, sp, #8
 1119 0046 1846     		mov	r0, r3
 1120 0048 FFF7FEFF 		bl	chVTDoResetI
 1121 004c 04E0     		b	.L89
 1122              	.L87:
 1123              	.LBE26:
 1124              		.loc 7 344 0
 1125 004e 9DF80730 		ldrb	r3, [sp, #7]	@ zero_extendqisi2
 1126 0052 1846     		mov	r0, r3
 1127 0054 FFF7FEFF 		bl	chSchGoSleepS
 1128              	.L89:
 1129              		.loc 7 347 0
 1130 0058 074B     		ldr	r3, .L92+4
 1131 005a 9B69     		ldr	r3, [r3, #24]
 1132 005c 9B6A     		ldr	r3, [r3, #40]
 1133              		.loc 7 348 0
ARM GAS  C:\Users\PCHAUT~1\AppData\Local\Temp\ccwn6d1C.s 			page 21


 1134 005e 1846     		mov	r0, r3
 1135 0060 044B     		ldr	r3, .L92
 1136 0062 079A     		ldr	r2, [sp, #28]
 1137 0064 1B68     		ldr	r3, [r3]
 1138 0066 9A42     		cmp	r2, r3
 1139 0068 01D0     		beq	.L91
 1140 006a FFF7FEFF 		bl	__stack_chk_fail
 1141              	.L91:
 1142 006e 09B0     		add	sp, sp, #36
 1143              		.cfi_def_cfa_offset 4
 1144              		@ sp needed
 1145 0070 5DF804FB 		ldr	pc, [sp], #4
 1146              	.L93:
 1147              		.align	2
 1148              	.L92:
 1149 0074 00000000 		.word	__stack_chk_guard
 1150 0078 00000000 		.word	ch
 1151 007c 00000000 		.word	wakeup
 1152              		.cfi_endproc
 1153              	.LFE223:
 1154              		.size	chSchGoSleepTimeoutS, .-chSchGoSleepTimeoutS
 1155              		.section	.text.chSchWakeupS,"ax",%progbits
 1156              		.align	1
 1157              		.p2align 4,,15
 1158              		.global	chSchWakeupS
 1159              		.syntax unified
 1160              		.thumb
 1161              		.thumb_func
 1162              		.fpu fpv4-sp-d16
 1163              		.type	chSchWakeupS, %function
 1164              	chSchWakeupS:
 1165              	.LFB224:
 1166              		.loc 7 367 0
 1167              		.cfi_startproc
 1168              		@ args = 0, pretend = 0, frame = 24
 1169              		@ frame_needed = 0, uses_anonymous_args = 0
 1170 0000 10B5     		push	{r4, lr}
 1171              		.cfi_def_cfa_offset 8
 1172              		.cfi_offset 4, -8
 1173              		.cfi_offset 14, -4
 1174 0002 86B0     		sub	sp, sp, #24
 1175              		.cfi_def_cfa_offset 32
 1176 0004 0190     		str	r0, [sp, #4]
 1177 0006 0091     		str	r1, [sp]
 1178              		.loc 7 367 0
 1179 0008 214B     		ldr	r3, .L101
 1180 000a 1B68     		ldr	r3, [r3]
 1181 000c 0593     		str	r3, [sp, #20]
 1182              		.loc 7 369 0
 1183 000e FFF7FEFF 		bl	chDbgCheckClassS
 1184              		.loc 7 373 0
 1185 0012 019B     		ldr	r3, [sp, #4]
 1186 0014 009A     		ldr	r2, [sp]
 1187 0016 9A62     		str	r2, [r3, #40]
 1188              		.loc 7 379 0
 1189 0018 019B     		ldr	r3, [sp, #4]
 1190 001a 9A68     		ldr	r2, [r3, #8]
ARM GAS  C:\Users\PCHAUT~1\AppData\Local\Temp\ccwn6d1C.s 			page 22


 1191 001c 1D4B     		ldr	r3, .L101+4
 1192 001e 9B69     		ldr	r3, [r3, #24]
 1193 0020 9B68     		ldr	r3, [r3, #8]
 1194 0022 9A42     		cmp	r2, r3
 1195 0024 03D8     		bhi	.L95
 1196              		.loc 7 380 0
 1197 0026 0198     		ldr	r0, [sp, #4]
 1198 0028 FFF7FEFF 		bl	chSchReadyI
 1199              		.loc 7 393 0
 1200 002c 26E0     		b	.L100
 1201              	.L95:
 1202              	.LBB27:
 1203              		.loc 7 383 0
 1204 002e 194B     		ldr	r3, .L101+4
 1205 0030 9B69     		ldr	r3, [r3, #24]
 1206 0032 1846     		mov	r0, r3
 1207 0034 FFF7FEFF 		bl	chSchReadyI
 1208 0038 0390     		str	r0, [sp, #12]
 1209              		.loc 7 384 0
 1210 003a 164A     		ldr	r2, .L101+4
 1211 003c 019B     		ldr	r3, [sp, #4]
 1212 003e 9361     		str	r3, [r2, #24]
 1213              		.loc 7 390 0
 1214 0040 019B     		ldr	r3, [sp, #4]
 1215 0042 0122     		movs	r2, #1
 1216 0044 83F82020 		strb	r2, [r3, #32]
 1217              		.loc 7 391 0
 1218 0048 0398     		ldr	r0, [sp, #12]
 1219 004a FFF7FEFF 		bl	_dbg_trace
 1220 004e 0399     		ldr	r1, [sp, #12]
 1221 0050 0198     		ldr	r0, [sp, #4]
 1222 0052 FFF7FEFF 		bl	_stats_ctxswc
 1223              	.LBB28:
 1224              	.LBB29:
 1225              	.LBB30:
 1226              		.loc 2 428 0
 1227              		.syntax unified
 1228              	@ 428 "../lib/e-puck2_main-processor/ChibiOS//os/ext/CMSIS/include/core_cmFunc.h" 1
 1229 0056 EFF30983 		MRS r3, psp
 1230              	
 1231              	@ 0 "" 2
 1232              		.thumb
 1233              		.syntax unified
 1234 005a 1C46     		mov	r4, r3
 1235              		.loc 2 429 0
 1236 005c 2346     		mov	r3, r4
 1237              	.LBE30:
 1238              	.LBE29:
 1239              		.loc 7 391 0
 1240 005e 0493     		str	r3, [sp, #16]
 1241 0060 049B     		ldr	r3, [sp, #16]
 1242 0062 A3F16402 		sub	r2, r3, #100
 1243 0066 039B     		ldr	r3, [sp, #12]
 1244 0068 DB69     		ldr	r3, [r3, #28]
 1245 006a 9A42     		cmp	r2, r3
 1246 006c 02D2     		bcs	.L98
 1247              		.loc 7 391 0 is_stmt 0 discriminator 1
ARM GAS  C:\Users\PCHAUT~1\AppData\Local\Temp\ccwn6d1C.s 			page 23


 1248 006e 0A48     		ldr	r0, .L101+8
 1249 0070 FFF7FEFF 		bl	chSysHalt
 1250              	.L98:
 1251              		.loc 7 391 0 discriminator 3
 1252 0074 0399     		ldr	r1, [sp, #12]
 1253 0076 0198     		ldr	r0, [sp, #4]
 1254 0078 FFF7FEFF 		bl	_port_switch
 1255              	.L100:
 1256              	.LBE28:
 1257              	.LBE27:
 1258              		.loc 7 393 0 is_stmt 1
 1259 007c 00BF     		nop
 1260 007e 044B     		ldr	r3, .L101
 1261 0080 059A     		ldr	r2, [sp, #20]
 1262 0082 1B68     		ldr	r3, [r3]
 1263 0084 9A42     		cmp	r2, r3
 1264 0086 01D0     		beq	.L99
 1265 0088 FFF7FEFF 		bl	__stack_chk_fail
 1266              	.L99:
 1267 008c 06B0     		add	sp, sp, #24
 1268              		.cfi_def_cfa_offset 8
 1269              		@ sp needed
 1270 008e 10BD     		pop	{r4, pc}
 1271              	.L102:
 1272              		.align	2
 1273              	.L101:
 1274 0090 00000000 		.word	__stack_chk_guard
 1275 0094 00000000 		.word	ch
 1276 0098 00000000 		.word	.LC0
 1277              		.cfi_endproc
 1278              	.LFE224:
 1279              		.size	chSchWakeupS, .-chSchWakeupS
 1280              		.section	.text.chSchRescheduleS,"ax",%progbits
 1281              		.align	1
 1282              		.p2align 4,,15
 1283              		.global	chSchRescheduleS
 1284              		.syntax unified
 1285              		.thumb
 1286              		.thumb_func
 1287              		.fpu fpv4-sp-d16
 1288              		.type	chSchRescheduleS, %function
 1289              	chSchRescheduleS:
 1290              	.LFB225:
 1291              		.loc 7 402 0
 1292              		.cfi_startproc
 1293              		@ args = 0, pretend = 0, frame = 8
 1294              		@ frame_needed = 0, uses_anonymous_args = 0
 1295 0000 00B5     		push	{lr}
 1296              		.cfi_def_cfa_offset 4
 1297              		.cfi_offset 14, -4
 1298 0002 83B0     		sub	sp, sp, #12
 1299              		.cfi_def_cfa_offset 16
 1300              		.loc 7 402 0
 1301 0004 0B4B     		ldr	r3, .L107
 1302 0006 1B68     		ldr	r3, [r3]
 1303 0008 0193     		str	r3, [sp, #4]
 1304              		.loc 7 404 0
ARM GAS  C:\Users\PCHAUT~1\AppData\Local\Temp\ccwn6d1C.s 			page 24


 1305 000a FFF7FEFF 		bl	chDbgCheckClassS
 1306              		.loc 7 406 0
 1307 000e FFF7FEFF 		bl	chSchIsRescRequiredI
 1308 0012 0346     		mov	r3, r0
 1309 0014 002B     		cmp	r3, #0
 1310 0016 01D0     		beq	.L106
 1311              		.loc 7 407 0
 1312 0018 FFF7FEFF 		bl	chSchDoRescheduleAhead
 1313              	.L106:
 1314              		.loc 7 409 0
 1315 001c 00BF     		nop
 1316 001e 054B     		ldr	r3, .L107
 1317 0020 019A     		ldr	r2, [sp, #4]
 1318 0022 1B68     		ldr	r3, [r3]
 1319 0024 9A42     		cmp	r2, r3
 1320 0026 01D0     		beq	.L105
 1321 0028 FFF7FEFF 		bl	__stack_chk_fail
 1322              	.L105:
 1323 002c 03B0     		add	sp, sp, #12
 1324              		.cfi_def_cfa_offset 4
 1325              		@ sp needed
 1326 002e 5DF804FB 		ldr	pc, [sp], #4
 1327              	.L108:
 1328 0032 00BF     		.align	2
 1329              	.L107:
 1330 0034 00000000 		.word	__stack_chk_guard
 1331              		.cfi_endproc
 1332              	.LFE225:
 1333              		.size	chSchRescheduleS, .-chSchRescheduleS
 1334              		.section	.text.chSchIsPreemptionRequired,"ax",%progbits
 1335              		.align	1
 1336              		.p2align 4,,15
 1337              		.global	chSchIsPreemptionRequired
 1338              		.syntax unified
 1339              		.thumb
 1340              		.thumb_func
 1341              		.fpu fpv4-sp-d16
 1342              		.type	chSchIsPreemptionRequired, %function
 1343              	chSchIsPreemptionRequired:
 1344              	.LFB226:
 1345              		.loc 7 424 0
 1346              		.cfi_startproc
 1347              		@ args = 0, pretend = 0, frame = 16
 1348              		@ frame_needed = 0, uses_anonymous_args = 0
 1349 0000 00B5     		push	{lr}
 1350              		.cfi_def_cfa_offset 4
 1351              		.cfi_offset 14, -4
 1352 0002 85B0     		sub	sp, sp, #20
 1353              		.cfi_def_cfa_offset 24
 1354              		.loc 7 424 0
 1355 0004 154B     		ldr	r3, .L114
 1356 0006 1B68     		ldr	r3, [r3]
 1357 0008 0393     		str	r3, [sp, #12]
 1358              		.loc 7 425 0
 1359 000a 154B     		ldr	r3, .L114+4
 1360 000c 1B68     		ldr	r3, [r3]
 1361 000e 9B68     		ldr	r3, [r3, #8]
ARM GAS  C:\Users\PCHAUT~1\AppData\Local\Temp\ccwn6d1C.s 			page 25


 1362 0010 0193     		str	r3, [sp, #4]
 1363              		.loc 7 426 0
 1364 0012 134B     		ldr	r3, .L114+4
 1365 0014 9B69     		ldr	r3, [r3, #24]
 1366 0016 9B68     		ldr	r3, [r3, #8]
 1367 0018 0293     		str	r3, [sp, #8]
 1368              		.loc 7 433 0
 1369 001a 114B     		ldr	r3, .L114+4
 1370 001c 9B69     		ldr	r3, [r3, #24]
 1371 001e 93F82330 		ldrb	r3, [r3, #35]	@ zero_extendqisi2
 1372 0022 002B     		cmp	r3, #0
 1373 0024 07D0     		beq	.L110
 1374              		.loc 7 433 0 is_stmt 0 discriminator 1
 1375 0026 019A     		ldr	r2, [sp, #4]
 1376 0028 029B     		ldr	r3, [sp, #8]
 1377 002a 9A42     		cmp	r2, r3
 1378 002c 8CBF     		ite	hi
 1379 002e 0123     		movhi	r3, #1
 1380 0030 0023     		movls	r3, #0
 1381 0032 DBB2     		uxtb	r3, r3
 1382 0034 06E0     		b	.L111
 1383              	.L110:
 1384              		.loc 7 433 0 discriminator 2
 1385 0036 019A     		ldr	r2, [sp, #4]
 1386 0038 029B     		ldr	r3, [sp, #8]
 1387 003a 9A42     		cmp	r2, r3
 1388 003c 2CBF     		ite	cs
 1389 003e 0123     		movcs	r3, #1
 1390 0040 0023     		movcc	r3, #0
 1391 0042 DBB2     		uxtb	r3, r3
 1392              	.L111:
 1393              		.loc 7 439 0 is_stmt 1 discriminator 4
 1394 0044 1846     		mov	r0, r3
 1395 0046 054B     		ldr	r3, .L114
 1396 0048 039A     		ldr	r2, [sp, #12]
 1397 004a 1B68     		ldr	r3, [r3]
 1398 004c 9A42     		cmp	r2, r3
 1399 004e 01D0     		beq	.L113
 1400              		.loc 7 439 0 is_stmt 0
 1401 0050 FFF7FEFF 		bl	__stack_chk_fail
 1402              	.L113:
 1403 0054 05B0     		add	sp, sp, #20
 1404              		.cfi_def_cfa_offset 4
 1405              		@ sp needed
 1406 0056 5DF804FB 		ldr	pc, [sp], #4
 1407              	.L115:
 1408 005a 00BF     		.align	2
 1409              	.L114:
 1410 005c 00000000 		.word	__stack_chk_guard
 1411 0060 00000000 		.word	ch
 1412              		.cfi_endproc
 1413              	.LFE226:
 1414              		.size	chSchIsPreemptionRequired, .-chSchIsPreemptionRequired
 1415              		.section	.text.chSchDoRescheduleBehind,"ax",%progbits
 1416              		.align	1
 1417              		.p2align 4,,15
 1418              		.global	chSchDoRescheduleBehind
ARM GAS  C:\Users\PCHAUT~1\AppData\Local\Temp\ccwn6d1C.s 			page 26


 1419              		.syntax unified
 1420              		.thumb
 1421              		.thumb_func
 1422              		.fpu fpv4-sp-d16
 1423              		.type	chSchDoRescheduleBehind, %function
 1424              	chSchDoRescheduleBehind:
 1425              	.LFB227:
 1426              		.loc 7 451 0 is_stmt 1
 1427              		.cfi_startproc
 1428              		@ args = 0, pretend = 0, frame = 16
 1429              		@ frame_needed = 0, uses_anonymous_args = 0
 1430 0000 10B5     		push	{r4, lr}
 1431              		.cfi_def_cfa_offset 8
 1432              		.cfi_offset 4, -8
 1433              		.cfi_offset 14, -4
 1434 0002 84B0     		sub	sp, sp, #16
 1435              		.cfi_def_cfa_offset 24
 1436              		.loc 7 451 0
 1437 0004 1F4B     		ldr	r3, .L120
 1438 0006 1B68     		ldr	r3, [r3]
 1439 0008 0393     		str	r3, [sp, #12]
 1440              		.loc 7 454 0
 1441 000a 1F4B     		ldr	r3, .L120+4
 1442 000c 9B69     		ldr	r3, [r3, #24]
 1443 000e 0193     		str	r3, [sp, #4]
 1444              		.loc 7 456 0
 1445 0010 1D48     		ldr	r0, .L120+4
 1446 0012 FFF7FEFF 		bl	queue_fifo_remove
 1447 0016 0246     		mov	r2, r0
 1448 0018 1B4B     		ldr	r3, .L120+4
 1449 001a 9A61     		str	r2, [r3, #24]
 1450              		.loc 7 462 0
 1451 001c 1A4B     		ldr	r3, .L120+4
 1452 001e 9B69     		ldr	r3, [r3, #24]
 1453 0020 0122     		movs	r2, #1
 1454 0022 83F82020 		strb	r2, [r3, #32]
 1455              		.loc 7 464 0
 1456 0026 019B     		ldr	r3, [sp, #4]
 1457 0028 1422     		movs	r2, #20
 1458 002a 83F82320 		strb	r2, [r3, #35]
 1459              		.loc 7 466 0
 1460 002e 0198     		ldr	r0, [sp, #4]
 1461 0030 FFF7FEFF 		bl	chSchReadyI
 1462              		.loc 7 467 0
 1463 0034 0198     		ldr	r0, [sp, #4]
 1464 0036 FFF7FEFF 		bl	_dbg_trace
 1465 003a 134B     		ldr	r3, .L120+4
 1466 003c 9B69     		ldr	r3, [r3, #24]
 1467 003e 0199     		ldr	r1, [sp, #4]
 1468 0040 1846     		mov	r0, r3
 1469 0042 FFF7FEFF 		bl	_stats_ctxswc
 1470              	.LBB31:
 1471              	.LBB32:
 1472              	.LBB33:
 1473              		.loc 2 428 0
 1474              		.syntax unified
 1475              	@ 428 "../lib/e-puck2_main-processor/ChibiOS//os/ext/CMSIS/include/core_cmFunc.h" 1
ARM GAS  C:\Users\PCHAUT~1\AppData\Local\Temp\ccwn6d1C.s 			page 27


 1476 0046 EFF30983 		MRS r3, psp
 1477              	
 1478              	@ 0 "" 2
 1479              		.thumb
 1480              		.syntax unified
 1481 004a 1C46     		mov	r4, r3
 1482              		.loc 2 429 0
 1483 004c 2346     		mov	r3, r4
 1484              	.LBE33:
 1485              	.LBE32:
 1486              		.loc 7 467 0
 1487 004e 0293     		str	r3, [sp, #8]
 1488 0050 029B     		ldr	r3, [sp, #8]
 1489 0052 A3F16402 		sub	r2, r3, #100
 1490 0056 019B     		ldr	r3, [sp, #4]
 1491 0058 DB69     		ldr	r3, [r3, #28]
 1492 005a 9A42     		cmp	r2, r3
 1493 005c 02D2     		bcs	.L118
 1494              		.loc 7 467 0 is_stmt 0 discriminator 1
 1495 005e 0B48     		ldr	r0, .L120+8
 1496 0060 FFF7FEFF 		bl	chSysHalt
 1497              	.L118:
 1498              		.loc 7 467 0 discriminator 3
 1499 0064 084B     		ldr	r3, .L120+4
 1500 0066 9B69     		ldr	r3, [r3, #24]
 1501 0068 0199     		ldr	r1, [sp, #4]
 1502 006a 1846     		mov	r0, r3
 1503 006c FFF7FEFF 		bl	_port_switch
 1504              	.LBE31:
 1505              		.loc 7 468 0 is_stmt 1 discriminator 3
 1506 0070 00BF     		nop
 1507 0072 044B     		ldr	r3, .L120
 1508 0074 039A     		ldr	r2, [sp, #12]
 1509 0076 1B68     		ldr	r3, [r3]
 1510 0078 9A42     		cmp	r2, r3
 1511 007a 01D0     		beq	.L119
 1512              		.loc 7 468 0 is_stmt 0
 1513 007c FFF7FEFF 		bl	__stack_chk_fail
 1514              	.L119:
 1515 0080 04B0     		add	sp, sp, #16
 1516              		.cfi_def_cfa_offset 8
 1517              		@ sp needed
 1518 0082 10BD     		pop	{r4, pc}
 1519              	.L121:
 1520              		.align	2
 1521              	.L120:
 1522 0084 00000000 		.word	__stack_chk_guard
 1523 0088 00000000 		.word	ch
 1524 008c 00000000 		.word	.LC0
 1525              		.cfi_endproc
 1526              	.LFE227:
 1527              		.size	chSchDoRescheduleBehind, .-chSchDoRescheduleBehind
 1528              		.section	.text.chSchDoRescheduleAhead,"ax",%progbits
 1529              		.align	1
 1530              		.p2align 4,,15
 1531              		.global	chSchDoRescheduleAhead
 1532              		.syntax unified
ARM GAS  C:\Users\PCHAUT~1\AppData\Local\Temp\ccwn6d1C.s 			page 28


 1533              		.thumb
 1534              		.thumb_func
 1535              		.fpu fpv4-sp-d16
 1536              		.type	chSchDoRescheduleAhead, %function
 1537              	chSchDoRescheduleAhead:
 1538              	.LFB228:
 1539              		.loc 7 479 0 is_stmt 1
 1540              		.cfi_startproc
 1541              		@ args = 0, pretend = 0, frame = 16
 1542              		@ frame_needed = 0, uses_anonymous_args = 0
 1543 0000 10B5     		push	{r4, lr}
 1544              		.cfi_def_cfa_offset 8
 1545              		.cfi_offset 4, -8
 1546              		.cfi_offset 14, -4
 1547 0002 84B0     		sub	sp, sp, #16
 1548              		.cfi_def_cfa_offset 24
 1549              		.loc 7 479 0
 1550 0004 2A4B     		ldr	r3, .L127
 1551 0006 1B68     		ldr	r3, [r3]
 1552 0008 0393     		str	r3, [sp, #12]
 1553              		.loc 7 482 0
 1554 000a 2A4B     		ldr	r3, .L127+4
 1555 000c 9B69     		ldr	r3, [r3, #24]
 1556 000e 0193     		str	r3, [sp, #4]
 1557              		.loc 7 484 0
 1558 0010 2848     		ldr	r0, .L127+4
 1559 0012 FFF7FEFF 		bl	queue_fifo_remove
 1560 0016 0246     		mov	r2, r0
 1561 0018 264B     		ldr	r3, .L127+4
 1562 001a 9A61     		str	r2, [r3, #24]
 1563              		.loc 7 490 0
 1564 001c 254B     		ldr	r3, .L127+4
 1565 001e 9B69     		ldr	r3, [r3, #24]
 1566 0020 0122     		movs	r2, #1
 1567 0022 83F82020 		strb	r2, [r3, #32]
 1568              		.loc 7 492 0
 1569 0026 019B     		ldr	r3, [sp, #4]
 1570 0028 0022     		movs	r2, #0
 1571 002a 83F82020 		strb	r2, [r3, #32]
 1572              		.loc 7 493 0
 1573 002e 214B     		ldr	r3, .L127+4
 1574 0030 0093     		str	r3, [sp]
 1575              	.L123:
 1576              		.loc 7 495 0 discriminator 1
 1577 0032 009B     		ldr	r3, [sp]
 1578 0034 1B68     		ldr	r3, [r3]
 1579 0036 0093     		str	r3, [sp]
 1580              		.loc 7 496 0 discriminator 1
 1581 0038 009B     		ldr	r3, [sp]
 1582 003a 9A68     		ldr	r2, [r3, #8]
 1583 003c 019B     		ldr	r3, [sp, #4]
 1584 003e 9B68     		ldr	r3, [r3, #8]
 1585 0040 9A42     		cmp	r2, r3
 1586 0042 F6D8     		bhi	.L123
 1587              		.loc 7 498 0
 1588 0044 019B     		ldr	r3, [sp, #4]
 1589 0046 009A     		ldr	r2, [sp]
ARM GAS  C:\Users\PCHAUT~1\AppData\Local\Temp\ccwn6d1C.s 			page 29


 1590 0048 1A60     		str	r2, [r3]
 1591              		.loc 7 499 0
 1592 004a 009B     		ldr	r3, [sp]
 1593 004c 5A68     		ldr	r2, [r3, #4]
 1594 004e 019B     		ldr	r3, [sp, #4]
 1595 0050 5A60     		str	r2, [r3, #4]
 1596              		.loc 7 500 0
 1597 0052 019B     		ldr	r3, [sp, #4]
 1598 0054 5B68     		ldr	r3, [r3, #4]
 1599 0056 019A     		ldr	r2, [sp, #4]
 1600 0058 1A60     		str	r2, [r3]
 1601              		.loc 7 501 0
 1602 005a 009B     		ldr	r3, [sp]
 1603 005c 019A     		ldr	r2, [sp, #4]
 1604 005e 5A60     		str	r2, [r3, #4]
 1605              		.loc 7 503 0
 1606 0060 0198     		ldr	r0, [sp, #4]
 1607 0062 FFF7FEFF 		bl	_dbg_trace
 1608 0066 134B     		ldr	r3, .L127+4
 1609 0068 9B69     		ldr	r3, [r3, #24]
 1610 006a 0199     		ldr	r1, [sp, #4]
 1611 006c 1846     		mov	r0, r3
 1612 006e FFF7FEFF 		bl	_stats_ctxswc
 1613              	.LBB34:
 1614              	.LBB35:
 1615              	.LBB36:
 1616              		.loc 2 428 0
 1617              		.syntax unified
 1618              	@ 428 "../lib/e-puck2_main-processor/ChibiOS//os/ext/CMSIS/include/core_cmFunc.h" 1
 1619 0072 EFF30983 		MRS r3, psp
 1620              	
 1621              	@ 0 "" 2
 1622              		.thumb
 1623              		.syntax unified
 1624 0076 1C46     		mov	r4, r3
 1625              		.loc 2 429 0
 1626 0078 2346     		mov	r3, r4
 1627              	.LBE36:
 1628              	.LBE35:
 1629              		.loc 7 503 0
 1630 007a 0293     		str	r3, [sp, #8]
 1631 007c 029B     		ldr	r3, [sp, #8]
 1632 007e A3F16402 		sub	r2, r3, #100
 1633 0082 019B     		ldr	r3, [sp, #4]
 1634 0084 DB69     		ldr	r3, [r3, #28]
 1635 0086 9A42     		cmp	r2, r3
 1636 0088 02D2     		bcs	.L125
 1637              		.loc 7 503 0 is_stmt 0 discriminator 1
 1638 008a 0B48     		ldr	r0, .L127+8
 1639 008c FFF7FEFF 		bl	chSysHalt
 1640              	.L125:
 1641              		.loc 7 503 0 discriminator 3
 1642 0090 084B     		ldr	r3, .L127+4
 1643 0092 9B69     		ldr	r3, [r3, #24]
 1644 0094 0199     		ldr	r1, [sp, #4]
 1645 0096 1846     		mov	r0, r3
 1646 0098 FFF7FEFF 		bl	_port_switch
ARM GAS  C:\Users\PCHAUT~1\AppData\Local\Temp\ccwn6d1C.s 			page 30


 1647              	.LBE34:
 1648              		.loc 7 504 0 is_stmt 1 discriminator 3
 1649 009c 00BF     		nop
 1650 009e 044B     		ldr	r3, .L127
 1651 00a0 039A     		ldr	r2, [sp, #12]
 1652 00a2 1B68     		ldr	r3, [r3]
 1653 00a4 9A42     		cmp	r2, r3
 1654 00a6 01D0     		beq	.L126
 1655              		.loc 7 504 0 is_stmt 0
 1656 00a8 FFF7FEFF 		bl	__stack_chk_fail
 1657              	.L126:
 1658 00ac 04B0     		add	sp, sp, #16
 1659              		.cfi_def_cfa_offset 8
 1660              		@ sp needed
 1661 00ae 10BD     		pop	{r4, pc}
 1662              	.L128:
 1663              		.align	2
 1664              	.L127:
 1665 00b0 00000000 		.word	__stack_chk_guard
 1666 00b4 00000000 		.word	ch
 1667 00b8 00000000 		.word	.LC0
 1668              		.cfi_endproc
 1669              	.LFE228:
 1670              		.size	chSchDoRescheduleAhead, .-chSchDoRescheduleAhead
 1671              		.section	.text.chSchDoReschedule,"ax",%progbits
 1672              		.align	1
 1673              		.p2align 4,,15
 1674              		.global	chSchDoReschedule
 1675              		.syntax unified
 1676              		.thumb
 1677              		.thumb_func
 1678              		.fpu fpv4-sp-d16
 1679              		.type	chSchDoReschedule, %function
 1680              	chSchDoReschedule:
 1681              	.LFB229:
 1682              		.loc 7 516 0 is_stmt 1
 1683              		.cfi_startproc
 1684              		@ args = 0, pretend = 0, frame = 8
 1685              		@ frame_needed = 0, uses_anonymous_args = 0
 1686 0000 00B5     		push	{lr}
 1687              		.cfi_def_cfa_offset 4
 1688              		.cfi_offset 14, -4
 1689 0002 83B0     		sub	sp, sp, #12
 1690              		.cfi_def_cfa_offset 16
 1691              		.loc 7 516 0
 1692 0004 0C4B     		ldr	r3, .L134
 1693 0006 1B68     		ldr	r3, [r3]
 1694 0008 0193     		str	r3, [sp, #4]
 1695              		.loc 7 521 0
 1696 000a 0C4B     		ldr	r3, .L134+4
 1697 000c 9B69     		ldr	r3, [r3, #24]
 1698 000e 93F82330 		ldrb	r3, [r3, #35]	@ zero_extendqisi2
 1699 0012 002B     		cmp	r3, #0
 1700 0014 02D1     		bne	.L130
 1701              		.loc 7 524 0
 1702 0016 FFF7FEFF 		bl	chSchDoRescheduleBehind
 1703              		.loc 7 536 0
ARM GAS  C:\Users\PCHAUT~1\AppData\Local\Temp\ccwn6d1C.s 			page 31


 1704 001a 01E0     		b	.L133
 1705              	.L130:
 1706              		.loc 7 529 0
 1707 001c FFF7FEFF 		bl	chSchDoRescheduleAhead
 1708              	.L133:
 1709              		.loc 7 536 0
 1710 0020 00BF     		nop
 1711 0022 054B     		ldr	r3, .L134
 1712 0024 019A     		ldr	r2, [sp, #4]
 1713 0026 1B68     		ldr	r3, [r3]
 1714 0028 9A42     		cmp	r2, r3
 1715 002a 01D0     		beq	.L132
 1716 002c FFF7FEFF 		bl	__stack_chk_fail
 1717              	.L132:
 1718 0030 03B0     		add	sp, sp, #12
 1719              		.cfi_def_cfa_offset 4
 1720              		@ sp needed
 1721 0032 5DF804FB 		ldr	pc, [sp], #4
 1722              	.L135:
 1723 0036 00BF     		.align	2
 1724              	.L134:
 1725 0038 00000000 		.word	__stack_chk_guard
 1726 003c 00000000 		.word	ch
 1727              		.cfi_endproc
 1728              	.LFE229:
 1729              		.size	chSchDoReschedule, .-chSchDoReschedule
 1730              		.section	.rodata.__func__.7854,"a",%progbits
 1731              		.align	2
 1732              		.type	__func__.7854, %object
 1733              		.size	__func__.7854, 12
 1734              	__func__.7854:
 1735 0000 63685363 		.ascii	"chSchReadyI\000"
 1735      68526561 
 1735      64794900 
 1736              		.text
 1737              	.Letext0:
 1738              		.file 8 "c:\\users\\pchautems\\documents\\robotiquetp\\eclipse_e-puck2\\tools\\gcc-arm-none-eabi-7
 1739              		.file 9 "c:\\users\\pchautems\\documents\\robotiquetp\\eclipse_e-puck2\\tools\\gcc-arm-none-eabi-7
 1740              		.file 10 "c:\\users\\pchautems\\documents\\robotiquetp\\eclipse_e-puck2\\tools\\gcc-arm-none-eabi-
 1741              		.file 11 "../lib/e-puck2_main-processor/ChibiOS//os/rt/ports/ARMCMx/compilers/GCC/chtypes.h"
 1742              		.file 12 "../lib/e-puck2_main-processor/ChibiOS//os/rt/include/chsystypes.h"
 1743              		.file 13 "../lib/e-puck2_main-processor/ChibiOS//os/ext/CMSIS/include/core_cm4.h"
 1744              		.file 14 "../lib/e-puck2_main-processor/ChibiOS//os/ext/CMSIS/ST/system_stm32f4xx.h"
 1745              		.file 15 "../lib/e-puck2_main-processor/ChibiOS//os/rt/ports/ARMCMx/chcore.h"
 1746              		.file 16 "../lib/e-puck2_main-processor/ChibiOS//os/rt/include/chdebug.h"
 1747              		.file 17 "../lib/e-puck2_main-processor/ChibiOS//os/rt/include/chtm.h"
 1748              		.file 18 "../lib/e-puck2_main-processor/ChibiOS//os/rt/include/chstats.h"
 1749              		.file 19 "../lib/e-puck2_main-processor/ChibiOS//os/rt/include/chmtx.h"
 1750              		.file 20 "../lib/e-puck2_main-processor/ChibiOS//os/rt/include/chregistry.h"