ARM GAS  C:\Users\PCHAUT~1\AppData\Local\Temp\ccwn6d1C.s 			page 1


   1              		.cpu cortex-m4
   2              		.eabi_attribute 27, 1
   3              		.eabi_attribute 28, 1
   4              		.eabi_attribute 20, 1
   5              		.eabi_attribute 21, 1
   6              		.eabi_attribute 23, 3
   7              		.eabi_attribute 24, 1
   8              		.eabi_attribute 25, 1
   9              		.eabi_attribute 26, 1
  10              		.eabi_attribute 30, 6
  11              		.eabi_attribute 34, 1
  12              		.eabi_attribute 18, 4
  13              		.file	"chschd.c"
  14              		.text
  15              	.Ltext0:
  16              		.cfi_sections	.debug_frame
  17              		.section	.text.port_lock,"ax",%progbits
  18              		.align	1
  19              		.p2align 4,,15
  20              		.syntax unified
  21              		.thumb
  22              		.thumb_func
  23              		.fpu fpv4-sp-d16
  24              		.type	port_lock, %function
  25              	port_lock:
  26              	.LFB116:
  27              		.file 1 "../lib/e-puck2_main-processor/ChibiOS//os/rt/ports/ARMCMx/chcore_v7m.h"
  28              		.loc 1 444 0
  29              		.cfi_startproc
  30              		@ args = 0, pretend = 0, frame = 8
  31              		@ frame_needed = 0, uses_anonymous_args = 0
  32 0000 00B5     		push	{lr}
  33              		.cfi_def_cfa_offset 4
  34              		.cfi_offset 14, -4
  35 0002 83B0     		sub	sp, sp, #12
  36              		.cfi_def_cfa_offset 16
  37              		.loc 1 444 0
  38 0004 094B     		ldr	r3, .L3
  39 0006 1B68     		ldr	r3, [r3]
  40 0008 0193     		str	r3, [sp, #4]
  41 000a 2023     		movs	r3, #32
  42 000c 0093     		str	r3, [sp]
  43              	.LBB19:
  44              	.LBB20:
  45              		.file 2 "../lib/e-puck2_main-processor/ChibiOS//os/ext/CMSIS/include/core_cmFunc.h"
  46              		.loc 2 546 0
  47 000e 009B     		ldr	r3, [sp]
  48              		.syntax unified
  49              	@ 546 "../lib/e-puck2_main-processor/ChibiOS//os/ext/CMSIS/include/core_cmFunc.h" 1
  50 0010 83F31188 		MSR basepri, r3
  51              	@ 0 "" 2
  52              		.thumb
  53              		.syntax unified
  54              	.LBE20:
  55              	.LBE19:
  56              		.loc 1 451 0
  57 0014 00BF     		nop
ARM GAS  C:\Users\PCHAUT~1\AppData\Local\Temp\ccwn6d1C.s 			page 2


  58 0016 054B     		ldr	r3, .L3
  59 0018 019A     		ldr	r2, [sp, #4]
  60 001a 1B68     		ldr	r3, [r3]
  61 001c 9A42     		cmp	r2, r3
  62 001e 01D0     		beq	.L2
  63 0020 FFF7FEFF 		bl	__stack_chk_fail
  64              	.L2:
  65 0024 03B0     		add	sp, sp, #12
  66              		.cfi_def_cfa_offset 4
  67              		@ sp needed
  68 0026 5DF804FB 		ldr	pc, [sp], #4
  69              	.L4:
  70 002a 00BF     		.align	2
  71              	.L3:
  72 002c 00000000 		.word	__stack_chk_guard
  73              		.cfi_endproc
  74              	.LFE116:
  75              		.size	port_lock, .-port_lock
  76              		.section	.text.port_unlock,"ax",%progbits
  77              		.align	1
  78              		.p2align 4,,15
  79              		.syntax unified
  80              		.thumb
  81              		.thumb_func
  82              		.fpu fpv4-sp-d16
  83              		.type	port_unlock, %function
  84              	port_unlock:
  85              	.LFB117:
  86              		.loc 1 458 0
  87              		.cfi_startproc
  88              		@ args = 0, pretend = 0, frame = 8
  89              		@ frame_needed = 0, uses_anonymous_args = 0
  90 0000 00B5     		push	{lr}
  91              		.cfi_def_cfa_offset 4
  92              		.cfi_offset 14, -4
  93 0002 83B0     		sub	sp, sp, #12
  94              		.cfi_def_cfa_offset 16
  95              		.loc 1 458 0
  96 0004 094B     		ldr	r3, .L7
  97 0006 1B68     		ldr	r3, [r3]
  98 0008 0193     		str	r3, [sp, #4]
  99 000a 0023     		movs	r3, #0
 100 000c 0093     		str	r3, [sp]
 101              	.LBB21:
 102              	.LBB22:
 103              		.loc 2 546 0
 104 000e 009B     		ldr	r3, [sp]
 105              		.syntax unified
 106              	@ 546 "../lib/e-puck2_main-processor/ChibiOS//os/ext/CMSIS/include/core_cmFunc.h" 1
 107 0010 83F31188 		MSR basepri, r3
 108              	@ 0 "" 2
 109              		.thumb
 110              		.syntax unified
 111              	.LBE22:
 112              	.LBE21:
 113              		.loc 1 465 0
 114 0014 00BF     		nop
ARM GAS  C:\Users\PCHAUT~1\AppData\Local\Temp\ccwn6d1C.s 			page 3


 115 0016 054B     		ldr	r3, .L7
 116 0018 019A     		ldr	r2, [sp, #4]
 117 001a 1B68     		ldr	r3, [r3]
 118 001c 9A42     		cmp	r2, r3
 119 001e 01D0     		beq	.L6
 120 0020 FFF7FEFF 		bl	__stack_chk_fail
 121              	.L6:
 122 0024 03B0     		add	sp, sp, #12
 123              		.cfi_def_cfa_offset 4
 124              		@ sp needed
 125 0026 5DF804FB 		ldr	pc, [sp], #4
 126              	.L8:
 127 002a 00BF     		.align	2
 128              	.L7:
 129 002c 00000000 		.word	__stack_chk_guard
 130              		.cfi_endproc
 131              	.LFE117:
 132              		.size	port_unlock, .-port_unlock
 133              		.section	.text.port_lock_from_isr,"ax",%progbits
 134              		.align	1
 135              		.p2align 4,,15
 136              		.syntax unified
 137              		.thumb
 138              		.thumb_func
 139              		.fpu fpv4-sp-d16
 140              		.type	port_lock_from_isr, %function
 141              	port_lock_from_isr:
 142              	.LFB118:
 143              		.loc 1 473 0
 144              		.cfi_startproc
 145              		@ args = 0, pretend = 0, frame = 8
 146              		@ frame_needed = 0, uses_anonymous_args = 0
 147 0000 00B5     		push	{lr}
 148              		.cfi_def_cfa_offset 4
 149              		.cfi_offset 14, -4
 150 0002 83B0     		sub	sp, sp, #12
 151              		.cfi_def_cfa_offset 16
 152              		.loc 1 473 0
 153 0004 074B     		ldr	r3, .L11
 154 0006 1B68     		ldr	r3, [r3]
 155 0008 0193     		str	r3, [sp, #4]
 156              		.loc 1 475 0
 157 000a FFF7FEFF 		bl	port_lock
 158              		.loc 1 476 0
 159 000e 00BF     		nop
 160 0010 044B     		ldr	r3, .L11
 161 0012 019A     		ldr	r2, [sp, #4]
 162 0014 1B68     		ldr	r3, [r3]
 163 0016 9A42     		cmp	r2, r3
 164 0018 01D0     		beq	.L10
 165 001a FFF7FEFF 		bl	__stack_chk_fail
 166              	.L10:
 167 001e 03B0     		add	sp, sp, #12
 168              		.cfi_def_cfa_offset 4
 169              		@ sp needed
 170 0020 5DF804FB 		ldr	pc, [sp], #4
 171              	.L12:
ARM GAS  C:\Users\PCHAUT~1\AppData\Local\Temp\ccwn6d1C.s 			page 4


 172              		.align	2
 173              	.L11:
 174 0024 00000000 		.word	__stack_chk_guard
 175              		.cfi_endproc
 176              	.LFE118:
 177              		.size	port_lock_from_isr, .-port_lock_from_isr
 178              		.section	.text.port_unlock_from_isr,"ax",%progbits
 179              		.align	1
 180              		.p2align 4,,15
 181              		.syntax unified
 182              		.thumb
 183              		.thumb_func
 184              		.fpu fpv4-sp-d16
 185              		.type	port_unlock_from_isr, %function
 186              	port_unlock_from_isr:
 187              	.LFB119:
 188              		.loc 1 484 0
 189              		.cfi_startproc
 190              		@ args = 0, pretend = 0, frame = 8
 191              		@ frame_needed = 0, uses_anonymous_args = 0
 192 0000 00B5     		push	{lr}
 193              		.cfi_def_cfa_offset 4
 194              		.cfi_offset 14, -4
 195 0002 83B0     		sub	sp, sp, #12
 196              		.cfi_def_cfa_offset 16
 197              		.loc 1 484 0
 198 0004 074B     		ldr	r3, .L15
 199 0006 1B68     		ldr	r3, [r3]
 200 0008 0193     		str	r3, [sp, #4]
 201              		.loc 1 486 0
 202 000a FFF7FEFF 		bl	port_unlock
 203              		.loc 1 487 0
 204 000e 00BF     		nop
 205 0010 044B     		ldr	r3, .L15
 206 0012 019A     		ldr	r2, [sp, #4]
 207 0014 1B68     		ldr	r3, [r3]
 208 0016 9A42     		cmp	r2, r3
 209 0018 01D0     		beq	.L14
 210 001a FFF7FEFF 		bl	__stack_chk_fail
 211              	.L14:
 212 001e 03B0     		add	sp, sp, #12
 213              		.cfi_def_cfa_offset 4
 214              		@ sp needed
 215 0020 5DF804FB 		ldr	pc, [sp], #4
 216              	.L16:
 217              		.align	2
 218              	.L15:
 219 0024 00000000 		.word	__stack_chk_guard
 220              		.cfi_endproc
 221              	.LFE119:
 222              		.size	port_unlock_from_isr, .-port_unlock_from_isr
 223              		.section	.text.queue_init,"ax",%progbits
 224              		.align	1
 225              		.p2align 4,,15
 226              		.syntax unified
 227              		.thumb
 228              		.thumb_func
ARM GAS  C:\Users\PCHAUT~1\AppData\Local\Temp\ccwn6d1C.s 			page 5


 229              		.fpu fpv4-sp-d16
 230              		.type	queue_init, %function
 231              	queue_init:
 232              	.LFB128:
 233              		.file 3 "../lib/e-puck2_main-processor/ChibiOS//os/rt/include/chschd.h"
 234              		.loc 3 602 0
 235              		.cfi_startproc
 236              		@ args = 0, pretend = 0, frame = 16
 237              		@ frame_needed = 0, uses_anonymous_args = 0
 238 0000 00B5     		push	{lr}
 239              		.cfi_def_cfa_offset 4
 240              		.cfi_offset 14, -4
 241 0002 85B0     		sub	sp, sp, #20
 242              		.cfi_def_cfa_offset 24
 243 0004 0190     		str	r0, [sp, #4]
 244              		.loc 3 602 0
 245 0006 0A4B     		ldr	r3, .L19
 246 0008 1B68     		ldr	r3, [r3]
 247 000a 0393     		str	r3, [sp, #12]
 248              		.loc 3 604 0
 249 000c 019B     		ldr	r3, [sp, #4]
 250 000e 019A     		ldr	r2, [sp, #4]
 251 0010 1A60     		str	r2, [r3]
 252              		.loc 3 605 0
 253 0012 019B     		ldr	r3, [sp, #4]
 254 0014 019A     		ldr	r2, [sp, #4]
 255 0016 5A60     		str	r2, [r3, #4]
 256              		.loc 3 606 0
 257 0018 00BF     		nop
 258 001a 054B     		ldr	r3, .L19
 259 001c 039A     		ldr	r2, [sp, #12]
 260 001e 1B68     		ldr	r3, [r3]
 261 0020 9A42     		cmp	r2, r3
 262 0022 01D0     		beq	.L18
 263 0024 FFF7FEFF 		bl	__stack_chk_fail
 264              	.L18:
 265 0028 05B0     		add	sp, sp, #20
 266              		.cfi_def_cfa_offset 4
 267              		@ sp needed
 268 002a 5DF804FB 		ldr	pc, [sp], #4
 269              	.L20:
 270 002e 00BF     		.align	2
 271              	.L19:
 272 0030 00000000 		.word	__stack_chk_guard
 273              		.cfi_endproc
 274              	.LFE128:
 275              		.size	queue_init, .-queue_init
 276              		.section	.text.queue_fifo_remove,"ax",%progbits
 277              		.align	1
 278              		.p2align 4,,15
 279              		.syntax unified
 280              		.thumb
 281              		.thumb_func
 282              		.fpu fpv4-sp-d16
 283              		.type	queue_fifo_remove, %function
 284              	queue_fifo_remove:
 285              	.LFB135:
ARM GAS  C:\Users\PCHAUT~1\AppData\Local\Temp\ccwn6d1C.s 			page 6


 286              		.loc 3 671 0
 287              		.cfi_startproc
 288              		@ args = 0, pretend = 0, frame = 16
 289              		@ frame_needed = 0, uses_anonymous_args = 0
 290 0000 00B5     		push	{lr}
 291              		.cfi_def_cfa_offset 4
 292              		.cfi_offset 14, -4
 293 0002 85B0     		sub	sp, sp, #20
 294              		.cfi_def_cfa_offset 24
 295 0004 0190     		str	r0, [sp, #4]
 296              		.loc 3 671 0
 297 0006 0D4B     		ldr	r3, .L24
 298 0008 1B68     		ldr	r3, [r3]
 299 000a 0393     		str	r3, [sp, #12]
 300              		.loc 3 672 0
 301 000c 019B     		ldr	r3, [sp, #4]
 302 000e 1B68     		ldr	r3, [r3]
 303 0010 0293     		str	r3, [sp, #8]
 304              		.loc 3 674 0
 305 0012 029B     		ldr	r3, [sp, #8]
 306 0014 1A68     		ldr	r2, [r3]
 307 0016 019B     		ldr	r3, [sp, #4]
 308 0018 1A60     		str	r2, [r3]
 309              		.loc 3 675 0
 310 001a 019B     		ldr	r3, [sp, #4]
 311 001c 1B68     		ldr	r3, [r3]
 312 001e 019A     		ldr	r2, [sp, #4]
 313 0020 5A60     		str	r2, [r3, #4]
 314              		.loc 3 677 0
 315 0022 029B     		ldr	r3, [sp, #8]
 316              		.loc 3 678 0
 317 0024 1846     		mov	r0, r3
 318 0026 054B     		ldr	r3, .L24
 319 0028 039A     		ldr	r2, [sp, #12]
 320 002a 1B68     		ldr	r3, [r3]
 321 002c 9A42     		cmp	r2, r3
 322 002e 01D0     		beq	.L23
 323 0030 FFF7FEFF 		bl	__stack_chk_fail
 324              	.L23:
 325 0034 05B0     		add	sp, sp, #20
 326              		.cfi_def_cfa_offset 4
 327              		@ sp needed
 328 0036 5DF804FB 		ldr	pc, [sp], #4
 329              	.L25:
 330 003a 00BF     		.align	2
 331              	.L24:
 332 003c 00000000 		.word	__stack_chk_guard
 333              		.cfi_endproc
 334              	.LFE135:
 335              		.size	queue_fifo_remove, .-queue_fifo_remove
 336              		.section	.text.queue_dequeue,"ax",%progbits
 337              		.align	1
 338              		.p2align 4,,15
 339              		.syntax unified
 340              		.thumb
 341              		.thumb_func
 342              		.fpu fpv4-sp-d16
ARM GAS  C:\Users\PCHAUT~1\AppData\Local\Temp\ccwn6d1C.s 			page 7


 343              		.type	queue_dequeue, %function
 344              	queue_dequeue:
 345              	.LFB137:
 346              		.loc 3 689 0
 347              		.cfi_startproc
 348              		@ args = 0, pretend = 0, frame = 16
 349              		@ frame_needed = 0, uses_anonymous_args = 0
 350 0000 00B5     		push	{lr}
 351              		.cfi_def_cfa_offset 4
 352              		.cfi_offset 14, -4
 353 0002 85B0     		sub	sp, sp, #20
 354              		.cfi_def_cfa_offset 24
 355 0004 0190     		str	r0, [sp, #4]
 356              		.loc 3 689 0
 357 0006 0C4B     		ldr	r3, .L29
 358 0008 1B68     		ldr	r3, [r3]
 359 000a 0393     		str	r3, [sp, #12]
 360              		.loc 3 691 0
 361 000c 019B     		ldr	r3, [sp, #4]
 362 000e 5B68     		ldr	r3, [r3, #4]
 363 0010 019A     		ldr	r2, [sp, #4]
 364 0012 1268     		ldr	r2, [r2]
 365 0014 1A60     		str	r2, [r3]
 366              		.loc 3 692 0
 367 0016 019B     		ldr	r3, [sp, #4]
 368 0018 1B68     		ldr	r3, [r3]
 369 001a 019A     		ldr	r2, [sp, #4]
 370 001c 5268     		ldr	r2, [r2, #4]
 371 001e 5A60     		str	r2, [r3, #4]
 372              		.loc 3 694 0
 373 0020 019B     		ldr	r3, [sp, #4]
 374              		.loc 3 695 0
 375 0022 1846     		mov	r0, r3
 376 0024 044B     		ldr	r3, .L29
 377 0026 039A     		ldr	r2, [sp, #12]
 378 0028 1B68     		ldr	r3, [r3]
 379 002a 9A42     		cmp	r2, r3
 380 002c 01D0     		beq	.L28
 381 002e FFF7FEFF 		bl	__stack_chk_fail
 382              	.L28:
 383 0032 05B0     		add	sp, sp, #20
 384              		.cfi_def_cfa_offset 4
 385              		@ sp needed
 386 0034 5DF804FB 		ldr	pc, [sp], #4
 387              	.L30:
 388              		.align	2
 389              	.L29:
 390 0038 00000000 		.word	__stack_chk_guard
 391              		.cfi_endproc
 392              	.LFE137:
 393              		.size	queue_dequeue, .-queue_dequeue
 394              		.section	.text.chSchIsRescRequiredI,"ax",%progbits
 395              		.align	1
 396              		.p2align 4,,15
 397              		.syntax unified
 398              		.thumb
 399              		.thumb_func
ARM GAS  C:\Users\PCHAUT~1\AppData\Local\Temp\ccwn6d1C.s 			page 8


 400              		.fpu fpv4-sp-d16
 401              		.type	chSchIsRescRequiredI, %function
 402              	chSchIsRescRequiredI:
 403              	.LFB138:
 404              		.loc 3 709 0
 405              		.cfi_startproc
 406              		@ args = 0, pretend = 0, frame = 8
 407              		@ frame_needed = 0, uses_anonymous_args = 0
 408 0000 00B5     		push	{lr}
 409              		.cfi_def_cfa_offset 4
 410              		.cfi_offset 14, -4
 411 0002 83B0     		sub	sp, sp, #12
 412              		.cfi_def_cfa_offset 16
 413              		.loc 3 709 0
 414 0004 0D4B     		ldr	r3, .L34
 415 0006 1B68     		ldr	r3, [r3]
 416 0008 0193     		str	r3, [sp, #4]
 417              		.loc 3 711 0
 418 000a FFF7FEFF 		bl	chDbgCheckClassI
 419              		.loc 3 713 0
 420 000e 0C4B     		ldr	r3, .L34+4
 421 0010 1B68     		ldr	r3, [r3]
 422 0012 9A68     		ldr	r2, [r3, #8]
 423 0014 0A4B     		ldr	r3, .L34+4
 424 0016 9B69     		ldr	r3, [r3, #24]
 425 0018 9B68     		ldr	r3, [r3, #8]
 426 001a 9A42     		cmp	r2, r3
 427 001c 8CBF     		ite	hi
 428 001e 0123     		movhi	r3, #1
 429 0020 0023     		movls	r3, #0
 430 0022 DBB2     		uxtb	r3, r3
 431              		.loc 3 714 0
 432 0024 1846     		mov	r0, r3
 433 0026 054B     		ldr	r3, .L34
 434 0028 019A     		ldr	r2, [sp, #4]
 435 002a 1B68     		ldr	r3, [r3]
 436 002c 9A42     		cmp	r2, r3
 437 002e 01D0     		beq	.L33
 438 0030 FFF7FEFF 		bl	__stack_chk_fail
 439              	.L33:
 440 0034 03B0     		add	sp, sp, #12
 441              		.cfi_def_cfa_offset 4
 442              		@ sp needed
 443 0036 5DF804FB 		ldr	pc, [sp], #4
 444              	.L35:
 445 003a 00BF     		.align	2
 446              	.L34:
 447 003c 00000000 		.word	__stack_chk_guard
 448 0040 00000000 		.word	ch
 449              		.cfi_endproc
 450              	.LFE138:
 451              		.size	chSchIsRescRequiredI, .-chSchIsRescRequiredI
 452              		.section	.text.chSysLockFromISR,"ax",%progbits
 453              		.align	1
 454              		.p2align 4,,15
 455              		.syntax unified
 456              		.thumb
ARM GAS  C:\Users\PCHAUT~1\AppData\Local\Temp\ccwn6d1C.s 			page 9


 457              		.thumb_func
 458              		.fpu fpv4-sp-d16
 459              		.type	chSysLockFromISR, %function
 460              	chSysLockFromISR:
 461              	.LFB147:
 462              		.file 4 "../lib/e-puck2_main-processor/ChibiOS//os/rt/include/chsys.h"
 463              		.loc 4 386 0
 464              		.cfi_startproc
 465              		@ args = 0, pretend = 0, frame = 8
 466              		@ frame_needed = 0, uses_anonymous_args = 0
 467 0000 00B5     		push	{lr}
 468              		.cfi_def_cfa_offset 4
 469              		.cfi_offset 14, -4
 470 0002 83B0     		sub	sp, sp, #12
 471              		.cfi_def_cfa_offset 16
 472              		.loc 4 386 0
 473 0004 094B     		ldr	r3, .L38
 474 0006 1B68     		ldr	r3, [r3]
 475 0008 0193     		str	r3, [sp, #4]
 476              		.loc 4 388 0
 477 000a FFF7FEFF 		bl	port_lock_from_isr
 478              		.loc 4 389 0
 479 000e FFF7FEFF 		bl	_stats_start_measure_crit_isr
 480              		.loc 4 390 0
 481 0012 FFF7FEFF 		bl	_dbg_check_lock_from_isr
 482              		.loc 4 391 0
 483 0016 00BF     		nop
 484 0018 044B     		ldr	r3, .L38
 485 001a 019A     		ldr	r2, [sp, #4]
 486 001c 1B68     		ldr	r3, [r3]
 487 001e 9A42     		cmp	r2, r3
 488 0020 01D0     		beq	.L37
 489 0022 FFF7FEFF 		bl	__stack_chk_fail
 490              	.L37:
 491 0026 03B0     		add	sp, sp, #12
 492              		.cfi_def_cfa_offset 4
 493              		@ sp needed
 494 0028 5DF804FB 		ldr	pc, [sp], #4
 495              	.L39:
 496              		.align	2
 497              	.L38:
 498 002c 00000000 		.word	__stack_chk_guard
 499              		.cfi_endproc
 500              	.LFE147:
 501              		.size	chSysLockFromISR, .-chSysLockFromISR
 502              		.section	.text.chSysUnlockFromISR,"ax",%progbits
 503              		.align	1
 504              		.p2align 4,,15
 505              		.syntax unified
 506              		.thumb
 507              		.thumb_func
 508              		.fpu fpv4-sp-d16
 509              		.type	chSysUnlockFromISR, %function
 510              	chSysUnlockFromISR:
 511              	.LFB148:
 512              		.loc 4 406 0
 513              		.cfi_startproc
ARM GAS  C:\Users\PCHAUT~1\AppData\Local\Temp\ccwn6d1C.s 			page 10


 514              		@ args = 0, pretend = 0, frame = 8
 515              		@ frame_needed = 0, uses_anonymous_args = 0
 516 0000 00B5     		push	{lr}
 517              		.cfi_def_cfa_offset 4
 518              		.cfi_offset 14, -4
 519 0002 83B0     		sub	sp, sp, #12
 520              		.cfi_def_cfa_offset 16
 521              		.loc 4 406 0
 522 0004 094B     		ldr	r3, .L42
 523 0006 1B68     		ldr	r3, [r3]
 524 0008 0193     		str	r3, [sp, #4]
 525              		.loc 4 408 0
 526 000a FFF7FEFF 		bl	_dbg_check_unlock_from_isr
 527              		.loc 4 409 0
 528 000e FFF7FEFF 		bl	_stats_stop_measure_crit_isr
 529              		.loc 4 410 0
 530 0012 FFF7FEFF 		bl	port_unlock_from_isr
 531              		.loc 4 411 0
 532 0016 00BF     		nop
 533 0018 044B     		ldr	r3, .L42
 534 001a 019A     		ldr	r2, [sp, #4]
 535 001c 1B68     		ldr	r3, [r3]
 536 001e 9A42     		cmp	r2, r3
 537 0020 01D0     		beq	.L41
 538 0022 FFF7FEFF 		bl	__stack_chk_fail
 539              	.L41:
 540 0026 03B0     		add	sp, sp, #12
 541              		.cfi_def_cfa_offset 4
 542              		@ sp needed
 543 0028 5DF804FB 		ldr	pc, [sp], #4
 544              	.L43:
 545              		.align	2
 546              	.L42:
 547 002c 00000000 		.word	__stack_chk_guard
 548              		.cfi_endproc
 549              	.LFE148:
 550              		.size	chSysUnlockFromISR, .-chSysUnlockFromISR
 551              		.section	.text.chVTIsArmedI,"ax",%progbits
 552              		.align	1
 553              		.p2align 4,,15
 554              		.syntax unified
 555              		.thumb
 556              		.thumb_func
 557              		.fpu fpv4-sp-d16
 558              		.type	chVTIsArmedI, %function
 559              	chVTIsArmedI:
 560              	.LFB159:
 561              		.file 5 "../lib/e-puck2_main-processor/ChibiOS//os/rt/include/chvt.h"
 562              		.loc 5 337 0
 563              		.cfi_startproc
 564              		@ args = 0, pretend = 0, frame = 16
 565              		@ frame_needed = 0, uses_anonymous_args = 0
 566 0000 00B5     		push	{lr}
 567              		.cfi_def_cfa_offset 4
 568              		.cfi_offset 14, -4
 569 0002 85B0     		sub	sp, sp, #20
 570              		.cfi_def_cfa_offset 24
ARM GAS  C:\Users\PCHAUT~1\AppData\Local\Temp\ccwn6d1C.s 			page 11


 571 0004 0190     		str	r0, [sp, #4]
 572              		.loc 5 337 0
 573 0006 0B4B     		ldr	r3, .L47
 574 0008 1B68     		ldr	r3, [r3]
 575 000a 0393     		str	r3, [sp, #12]
 576              		.loc 5 339 0
 577 000c FFF7FEFF 		bl	chDbgCheckClassI
 578              		.loc 5 341 0
 579 0010 019B     		ldr	r3, [sp, #4]
 580 0012 DB68     		ldr	r3, [r3, #12]
 581 0014 002B     		cmp	r3, #0
 582 0016 14BF     		ite	ne
 583 0018 0123     		movne	r3, #1
 584 001a 0023     		moveq	r3, #0
 585 001c DBB2     		uxtb	r3, r3
 586              		.loc 5 342 0
 587 001e 1846     		mov	r0, r3
 588 0020 044B     		ldr	r3, .L47
 589 0022 039A     		ldr	r2, [sp, #12]
 590 0024 1B68     		ldr	r3, [r3]
 591 0026 9A42     		cmp	r2, r3
 592 0028 01D0     		beq	.L46
 593 002a FFF7FEFF 		bl	__stack_chk_fail
 594              	.L46:
 595 002e 05B0     		add	sp, sp, #20
 596              		.cfi_def_cfa_offset 4
 597              		@ sp needed
 598 0030 5DF804FB 		ldr	pc, [sp], #4
 599              	.L48:
 600              		.align	2
 601              	.L47:
 602 0034 00000000 		.word	__stack_chk_guard
 603              		.cfi_endproc
 604              	.LFE159:
 605              		.size	chVTIsArmedI, .-chVTIsArmedI
 606              		.section	.text.chSemFastSignalI,"ax",%progbits
 607              		.align	1
 608              		.p2align 4,,15
 609              		.syntax unified
 610              		.thumb
 611              		.thumb_func
 612              		.fpu fpv4-sp-d16
 613              		.type	chSemFastSignalI, %function
 614              	chSemFastSignalI:
 615              	.LFB180:
 616              		.file 6 "../lib/e-puck2_main-processor/ChibiOS//os/rt/include/chsem.h"
 617              		.loc 6 134 0
 618              		.cfi_startproc
 619              		@ args = 0, pretend = 0, frame = 16
 620              		@ frame_needed = 0, uses_anonymous_args = 0
 621 0000 00B5     		push	{lr}
 622              		.cfi_def_cfa_offset 4
 623              		.cfi_offset 14, -4
 624 0002 85B0     		sub	sp, sp, #20
 625              		.cfi_def_cfa_offset 24
 626 0004 0190     		str	r0, [sp, #4]
 627              		.loc 6 134 0
ARM GAS  C:\Users\PCHAUT~1\AppData\Local\Temp\ccwn6d1C.s 			page 12


 628 0006 0A4B     		ldr	r3, .L51
 629 0008 1B68     		ldr	r3, [r3]
 630 000a 0393     		str	r3, [sp, #12]
 631              		.loc 6 136 0
 632 000c FFF7FEFF 		bl	chDbgCheckClassI
 633              		.loc 6 138 0
 634 0010 019B     		ldr	r3, [sp, #4]
 635 0012 9B68     		ldr	r3, [r3, #8]
 636 0014 5A1C     		adds	r2, r3, #1
 637 0016 019B     		ldr	r3, [sp, #4]
 638 0018 9A60     		str	r2, [r3, #8]
 639              		.loc 6 139 0
 640 001a 00BF     		nop
 641 001c 044B     		ldr	r3, .L51
 642 001e 039A     		ldr	r2, [sp, #12]
 643 0020 1B68     		ldr	r3, [r3]
 644 0022 9A42     		cmp	r2, r3
 645 0024 01D0     		beq	.L50
 646 0026 FFF7FEFF 		bl	__stack_chk_fail
 647              	.L50:
 648 002a 05B0     		add	sp, sp, #20
 649              		.cfi_def_cfa_offset 4
 650              		@ sp needed
 651 002c 5DF804FB 		ldr	pc, [sp], #4
 652              	.L52:
 653              		.align	2
 654              	.L51:
 655 0030 00000000 		.word	__stack_chk_guard
 656              		.cfi_endproc
 657              	.LFE180:
 658              		.size	chSemFastSignalI, .-chSemFastSignalI
 659              		.global	ch
 660              		.section	.bss.ch,"aw",%nobits
 661              		.align	3
 662              		.type	ch, %object
 663              		.size	ch, 1648
 664              	ch:
 665 0000 00000000 		.space	1648
 665      00000000 
 665      00000000 
 665      00000000 
 665      00000000 
 666              		.section	.text._scheduler_init,"ax",%progbits
 667              		.align	1
 668              		.p2align 4,,15
 669              		.global	_scheduler_init
 670              		.syntax unified
 671              		.thumb
 672              		.thumb_func
 673              		.fpu fpv4-sp-d16
 674              		.type	_scheduler_init, %function
 675              	_scheduler_init:
 676              	.LFB219:
 677              		.file 7 "../lib/e-puck2_main-processor/ChibiOS//os/rt/src/chschd.c"
 678              		.loc 7 65 0
 679              		.cfi_startproc
 680              		@ args = 0, pretend = 0, frame = 8
ARM GAS  C:\Users\PCHAUT~1\AppData\Local\Temp\ccwn6d1C.s 			page 13


 681              		@ frame_needed = 0, uses_anonymous_args = 0
 682 0000 00B5     		push	{lr}
 683              		.cfi_def_cfa_offset 4
 684              		.cfi_offset 14, -4
 685 0002 83B0     		sub	sp, sp, #12
 686              		.cfi_def_cfa_offset 16
 687              		.loc 7 65 0
 688 0004 0C4B     		ldr	r3, .L55
 689 0006 1B68     		ldr	r3, [r3]
 690 0008 0193     		str	r3, [sp, #4]
 691              		.loc 7 67 0
 692 000a 0C48     		ldr	r0, .L55+4
 693 000c FFF7FEFF 		bl	queue_init
 694              		.loc 7 68 0
 695 0010 0A4B     		ldr	r3, .L55+4
 696 0012 0022     		movs	r2, #0
 697 0014 9A60     		str	r2, [r3, #8]
 698              		.loc 7 70 0
 699 0016 094B     		ldr	r3, .L55+4
 700 0018 084A     		ldr	r2, .L55+4
 701 001a 1A61     		str	r2, [r3, #16]
 702              		.loc 7 71 0
 703 001c 074B     		ldr	r3, .L55+4
 704 001e 074A     		ldr	r2, .L55+4
 705 0020 5A61     		str	r2, [r3, #20]
 706              		.loc 7 73 0
 707 0022 00BF     		nop
 708 0024 044B     		ldr	r3, .L55
 709 0026 019A     		ldr	r2, [sp, #4]
 710 0028 1B68     		ldr	r3, [r3]
 711 002a 9A42     		cmp	r2, r3
 712 002c 01D0     		beq	.L54
 713 002e FFF7FEFF 		bl	__stack_chk_fail
 714              	.L54:
 715 0032 03B0     		add	sp, sp, #12
 716              		.cfi_def_cfa_offset 4
 717              		@ sp needed
 718 0034 5DF804FB 		ldr	pc, [sp], #4
 719              	.L56:
 720              		.align	2
 721              	.L55:
 722 0038 00000000 		.word	__stack_chk_guard
 723 003c 00000000 		.word	ch
 724              		.cfi_endproc
 725              	.LFE219:
 726              		.size	_scheduler_init, .-_scheduler_init
 727              		.section	.text.chSchReadyI,"ax",%progbits
 728              		.align	1
 729              		.p2align 4,,15
 730              		.global	chSchReadyI
 731              		.syntax unified
 732              		.thumb
 733              		.thumb_func
 734              		.fpu fpv4-sp-d16
 735              		.type	chSchReadyI, %function
 736              	chSchReadyI:
 737              	.LFB220:
ARM GAS  C:\Users\PCHAUT~1\AppData\Local\Temp\ccwn6d1C.s 			page 14


 738              		.loc 7 218 0
 739              		.cfi_startproc
 740              		@ args = 0, pretend = 0, frame = 16
 741              		@ frame_needed = 0, uses_anonymous_args = 0
 742 0000 00B5     		push	{lr}
 743              		.cfi_def_cfa_offset 4
 744              		.cfi_offset 14, -4
 745 0002 85B0     		sub	sp, sp, #20
 746              		.cfi_def_cfa_offset 24
 747 0004 0190     		str	r0, [sp, #4]
 748              		.loc 7 218 0
 749 0006 204B     		ldr	r3, .L65
 750 0008 1B68     		ldr	r3, [r3]
 751 000a 0393     		str	r3, [sp, #12]
 752              		.loc 7 221 0
 753 000c FFF7FEFF 		bl	chDbgCheckClassI
 754              		.loc 7 222 0
 755 0010 019B     		ldr	r3, [sp, #4]
 756 0012 002B     		cmp	r3, #0
 757 0014 02D1     		bne	.L64
 758              		.loc 7 222 0 is_stmt 0 discriminator 2
 759 0016 1D48     		ldr	r0, .L65+4
 760 0018 FFF7FEFF 		bl	chSysHalt
 761              	.L64:
 762              		.loc 7 223 0 is_stmt 1 discriminator 1
 763 001c 019B     		ldr	r3, [sp, #4]
 764 001e 93F82030 		ldrb	r3, [r3, #32]	@ zero_extendqisi2
 765 0022 002B     		cmp	r3, #0
 766 0024 04D0     		beq	.L59
 767              		.loc 7 223 0 is_stmt 0 discriminator 3
 768 0026 019B     		ldr	r3, [sp, #4]
 769 0028 93F82030 		ldrb	r3, [r3, #32]	@ zero_extendqisi2
 770 002c 0F2B     		cmp	r3, #15
 771 002e 02D1     		bne	.L60
 772              	.L59:
 773              		.loc 7 223 0 discriminator 4
 774 0030 1648     		ldr	r0, .L65+4
 775 0032 FFF7FEFF 		bl	chSysHalt
 776              	.L60:
 777              		.loc 7 227 0 is_stmt 1
 778 0036 019B     		ldr	r3, [sp, #4]
 779 0038 0022     		movs	r2, #0
 780 003a 83F82020 		strb	r2, [r3, #32]
 781              		.loc 7 228 0
 782 003e 144B     		ldr	r3, .L65+8
 783 0040 0293     		str	r3, [sp, #8]
 784              	.L61:
 785              		.loc 7 230 0 discriminator 1
 786 0042 029B     		ldr	r3, [sp, #8]
 787 0044 1B68     		ldr	r3, [r3]
 788 0046 0293     		str	r3, [sp, #8]
 789              		.loc 7 231 0 discriminator 1
 790 0048 029B     		ldr	r3, [sp, #8]
 791 004a 9A68     		ldr	r2, [r3, #8]
 792 004c 019B     		ldr	r3, [sp, #4]
 793 004e 9B68     		ldr	r3, [r3, #8]
 794 0050 9A42     		cmp	r2, r3
ARM GAS  C:\Users\PCHAUT~1\AppData\Local\Temp\ccwn6d1C.s 			page 15


 795 0052 F6D2     		bcs	.L61
 796              		.loc 7 233 0
 797 0054 019B     		ldr	r3, [sp, #4]
 798 0056 029A     		ldr	r2, [sp, #8]
 799 0058 1A60     		str	r2, [r3]
 800              		.loc 7 234 0
 801 005a 029B     		ldr	r3, [sp, #8]
 802 005c 5A68     		ldr	r2, [r3, #4]
 803 005e 019B     		ldr	r3, [sp, #4]
 804 0060 5A60     		str	r2, [r3, #4]
 805              		.loc 7 235 0
 806 0062 019B     		ldr	r3, [sp, #4]
 807 0064 5B68     		ldr	r3, [r3, #4]
 808 0066 019A     		ldr	r2, [sp, #4]
 809 0068 1A60     		str	r2, [r3]
 810              		.loc 7 236 0
 811 006a 029B     		ldr	r3, [sp, #8]
 812 006c 019A     		ldr	r2, [sp, #4]
 813 006e 5A60     		str	r2, [r3, #4]
 814              		.loc 7 238 0
 815 0070 019B     		ldr	r3, [sp, #4]
 816              		.loc 7 239 0
 817 0072 1846     		mov	r0, r3
 818 0074 044B     		ldr	r3, .L65
 819 0076 039A     		ldr	r2, [sp, #12]
 820 0078 1B68     		ldr	r3, [r3]
 821 007a 9A42     		cmp	r2, r3
 822 007c 01D0     		beq	.L63
 823 007e FFF7FEFF 		bl	__stack_chk_fail
 824              	.L63:
 825 0082 05B0     		add	sp, sp, #20
 826              		.cfi_def_cfa_offset 4
 827              		@ sp needed
 828 0084 5DF804FB 		ldr	pc, [sp], #4
 829              	.L66:
 830              		.align	2
 831              	.L65:
 832 0088 00000000 		.word	__stack_chk_guard
 833 008c 00000000 		.word	__func__.7854
 834 0090 00000000 		.word	ch
 835              		.cfi_endproc
 836              	.LFE220:
 837              		.size	chSchReadyI, .-chSchReadyI
 838              		.section	.rodata
 839              		.align	2
 840              	.LC0:
 841 0000 73746163 		.ascii	"stack overflow\000"
 841      6B206F76 
 841      6572666C 
 841      6F7700
 842              		.section	.text.chSchGoSleepS,"ax",%progbits
 843              		.align	1
 844              		.p2align 4,,15
 845              		.global	chSchGoSleepS
 846              		.syntax unified
 847              		.thumb
 848              		.thumb_func
ARM GAS  C:\Users\PCHAUT~1\AppData\Local\Temp\ccwn6d1C.s 			page 16


 849              		.fpu fpv4-sp-d16
 850              		.type	chSchGoSleepS, %function
 851              	chSchGoSleepS:
 852              	.LFB221:
 853              		.loc 7 250 0
 854              		.cfi_startproc
 855              		@ args = 0, pretend = 0, frame = 24
 856              		@ frame_needed = 0, uses_anonymous_args = 0
 857 0000 10B5     		push	{r4, lr}
 858              		.cfi_def_cfa_offset 8
 859              		.cfi_offset 4, -8
 860              		.cfi_offset 14, -4
 861 0002 86B0     		sub	sp, sp, #24
 862              		.cfi_def_cfa_offset 32
 863 0004 0346     		mov	r3, r0
 864 0006 8DF80730 		strb	r3, [sp, #7]
 865              		.loc 7 250 0
 866 000a 224B     		ldr	r3, .L71
 867 000c 1B68     		ldr	r3, [r3]
 868 000e 0593     		str	r3, [sp, #20]
 869              		.loc 7 253 0
 870 0010 FFF7FEFF 		bl	chDbgCheckClassS
 871              		.loc 7 255 0
 872 0014 204B     		ldr	r3, .L71+4
 873 0016 9B69     		ldr	r3, [r3, #24]
 874 0018 0393     		str	r3, [sp, #12]
 875              		.loc 7 256 0
 876 001a 039B     		ldr	r3, [sp, #12]
 877 001c 9DF80720 		ldrb	r2, [sp, #7]
 878 0020 83F82020 		strb	r2, [r3, #32]
 879              		.loc 7 260 0
 880 0024 039B     		ldr	r3, [sp, #12]
 881 0026 1422     		movs	r2, #20
 882 0028 83F82320 		strb	r2, [r3, #35]
 883              		.loc 7 262 0
 884 002c 1A48     		ldr	r0, .L71+4
 885 002e FFF7FEFF 		bl	queue_fifo_remove
 886 0032 0246     		mov	r2, r0
 887 0034 184B     		ldr	r3, .L71+4
 888 0036 9A61     		str	r2, [r3, #24]
 889              		.loc 7 268 0
 890 0038 174B     		ldr	r3, .L71+4
 891 003a 9B69     		ldr	r3, [r3, #24]
 892 003c 0122     		movs	r2, #1
 893 003e 83F82020 		strb	r2, [r3, #32]
 894              		.loc 7 269 0
 895 0042 0398     		ldr	r0, [sp, #12]
 896 0044 FFF7FEFF 		bl	_dbg_trace
 897 0048 134B     		ldr	r3, .L71+4
 898 004a 9B69     		ldr	r3, [r3, #24]
 899 004c 0399     		ldr	r1, [sp, #12]
 900 004e 1846     		mov	r0, r3
 901 0050 FFF7FEFF 		bl	_stats_ctxswc
 902              	.LBB23:
 903              	.LBB24:
 904              	.LBB25:
 905              		.loc 2 428 0
ARM GAS  C:\Users\PCHAUT~1\AppData\Local\Temp\ccwn6d1C.s 			page 17


 906              		.syntax unified
 907              	@ 428 "../lib/e-puck2_main-processor/ChibiOS//os/ext/CMSIS/include/core_cmFunc.h" 1
 908 0054 EFF30983 		MRS r3, psp
 909              	
 910              	@ 0 "" 2
 911              		.thumb
 912              		.syntax unified
 913 0058 1C46     		mov	r4, r3
 914              		.loc 2 429 0
 915 005a 2346     		mov	r3, r4
 916              	.LBE25:
 917              	.LBE24:
 918              		.loc 7 269 0
 919 005c 0493     		str	r3, [sp, #16]
 920 005e 049B     		ldr	r3, [sp, #16]
 921 0060 A3F16402 		sub	r2, r3, #100
 922 0064 039B     		ldr	r3, [sp, #12]
 923 0066 DB69     		ldr	r3, [r3, #28]
 924 0068 9A42     		cmp	r2, r3
 925 006a 02D2     		bcs	.L69
 926              		.loc 7 269 0 is_stmt 0 discriminator 1
 927 006c 0B48     		ldr	r0, .L71+8
 928 006e FFF7FEFF 		bl	chSysHalt
 929              	.L69:
 930              		.loc 7 269 0 discriminator 3
 931 0072 094B     		ldr	r3, .L71+4
 932 0074 9B69     		ldr	r3, [r3, #24]
 933 0076 0399     		ldr	r1, [sp, #12]
 934 0078 1846     		mov	r0, r3
 935 007a FFF7FEFF 		bl	_port_switch
 936              	.LBE23:
 937              		.loc 7 270 0 is_stmt 1 discriminator 3
 938 007e 00BF     		nop
 939 0080 044B     		ldr	r3, .L71
 940 0082 059A     		ldr	r2, [sp, #20]
 941 0084 1B68     		ldr	r3, [r3]
 942 0086 9A42     		cmp	r2, r3
 943 0088 01D0     		beq	.L70
 944              		.loc 7 270 0 is_stmt 0
 945 008a FFF7FEFF 		bl	__stack_chk_fail
 946              	.L70:
 947 008e 06B0     		add	sp, sp, #24
 948              		.cfi_def_cfa_offset 8
 949              		@ sp needed
 950 0090 10BD     		pop	{r4, pc}
 951              	.L72:
 952 0092 00BF     		.align	2
 953              	.L71:
 954 0094 00000000 		.word	__stack_chk_guard
 955 0098 00000000 		.word	ch
 956 009c 00000000 		.word	.LC0
 957              		.cfi_endproc
 958              	.LFE221:
 959              		.size	chSchGoSleepS, .-chSchGoSleepS
 960              		.section	.text.wakeup,"ax",%progbits
 961              		.align	1
 962              		.p2align 4,,15
ARM GAS  C:\Users\PCHAUT~1\AppData\Local\Temp\ccwn6d1C.s 			page 18


 963              		.syntax unified
 964              		.thumb
 965              		.thumb_func
 966              		.fpu fpv4-sp-d16
 967              		.type	wakeup, %function
 968              	wakeup:
 969              	.LFB222:
 970              		.loc 7 275 0 is_stmt 1
 971              		.cfi_startproc
 972              		@ args = 0, pretend = 0, frame = 16
 973              		@ frame_needed = 0, uses_anonymous_args = 0
 974 0000 00B5     		push	{lr}
 975              		.cfi_def_cfa_offset 4
 976              		.cfi_offset 14, -4
 977 0002 85B0     		sub	sp, sp, #20
 978              		.cfi_def_cfa_offset 24
 979 0004 0190     		str	r0, [sp, #4]
 980              		.loc 7 275 0
 981 0006 224B     		ldr	r3, .L84
 982 0008 1B68     		ldr	r3, [r3]
 983 000a 0393     		str	r3, [sp, #12]
 984              		.loc 7 276 0
 985 000c 019B     		ldr	r3, [sp, #4]
 986 000e 0293     		str	r3, [sp, #8]
 987              		.loc 7 278 0
 988 0010 FFF7FEFF 		bl	chSysLockFromISR
 989              		.loc 7 279 0
 990 0014 029B     		ldr	r3, [sp, #8]
 991 0016 93F82030 		ldrb	r3, [r3, #32]	@ zero_extendqisi2
 992 001a 072B     		cmp	r3, #7
 993 001c 23D8     		bhi	.L83
 994 001e 01A2     		adr	r2, .L76
 995 0020 52F823F0 		ldr	pc, [r2, r3, lsl #2]
 996              		.p2align 2
 997              	.L76:
 998 0024 45000000 		.word	.L75+1
 999 0028 67000000 		.word	.L83+1
 1000 002c 67000000 		.word	.L83+1
 1001 0030 4B000000 		.word	.L77+1
 1002 0034 5F000000 		.word	.L78+1
 1003 0038 55000000 		.word	.L79+1
 1004 003c 67000000 		.word	.L83+1
 1005 0040 5F000000 		.word	.L78+1
 1006              		.p2align 1
 1007              	.L75:
 1008              		.loc 7 283 0
 1009 0044 FFF7FEFF 		bl	chSysUnlockFromISR
 1010              		.loc 7 284 0
 1011 0048 17E0     		b	.L73
 1012              	.L77:
 1013              		.loc 7 286 0
 1014 004a 029B     		ldr	r3, [sp, #8]
 1015 004c 9B6A     		ldr	r3, [r3, #40]
 1016 004e 0022     		movs	r2, #0
 1017 0050 1A60     		str	r2, [r3]
 1018              		.loc 7 287 0
 1019 0052 09E0     		b	.L81
ARM GAS  C:\Users\PCHAUT~1\AppData\Local\Temp\ccwn6d1C.s 			page 19


 1020              	.L79:
 1021              		.loc 7 290 0
 1022 0054 029B     		ldr	r3, [sp, #8]
 1023 0056 9B6A     		ldr	r3, [r3, #40]
 1024 0058 1846     		mov	r0, r3
 1025 005a FFF7FEFF 		bl	chSemFastSignalI
 1026              	.L78:
 1027              		.loc 7 298 0
 1028 005e 0298     		ldr	r0, [sp, #8]
 1029 0060 FFF7FEFF 		bl	queue_dequeue
 1030              		.loc 7 299 0
 1031 0064 00E0     		b	.L81
 1032              	.L83:
 1033              		.loc 7 302 0
 1034 0066 00BF     		nop
 1035              	.L81:
 1036              		.loc 7 304 0
 1037 0068 029B     		ldr	r3, [sp, #8]
 1038 006a 4FF0FF32 		mov	r2, #-1
 1039 006e 9A62     		str	r2, [r3, #40]
 1040              		.loc 7 305 0
 1041 0070 0298     		ldr	r0, [sp, #8]
 1042 0072 FFF7FEFF 		bl	chSchReadyI
 1043              		.loc 7 306 0
 1044 0076 FFF7FEFF 		bl	chSysUnlockFromISR
 1045              	.L73:
 1046              		.loc 7 307 0
 1047 007a 054B     		ldr	r3, .L84
 1048 007c 039A     		ldr	r2, [sp, #12]
 1049 007e 1B68     		ldr	r3, [r3]
 1050 0080 9A42     		cmp	r2, r3
 1051 0082 01D0     		beq	.L82
 1052 0084 FFF7FEFF 		bl	__stack_chk_fail
 1053              	.L82:
 1054 0088 05B0     		add	sp, sp, #20
 1055              		.cfi_def_cfa_offset 4
 1056              		@ sp needed
 1057 008a 5DF804FB 		ldr	pc, [sp], #4
 1058              	.L85:
 1059 008e 00BF     		.align	2
 1060              	.L84:
 1061 0090 00000000 		.word	__stack_chk_guard
 1062              		.cfi_endproc
 1063              	.LFE222:
 1064              		.size	wakeup, .-wakeup
 1065              		.section	.text.chSchGoSleepTimeoutS,"ax",%progbits
 1066              		.align	1
 1067              		.p2align 4,,15
 1068              		.global	chSchGoSleepTimeoutS
 1069              		.syntax unified
 1070              		.thumb
 1071              		.thumb_func
 1072              		.fpu fpv4-sp-d16
 1073              		.type	chSchGoSleepTimeoutS, %function
 1074              	chSchGoSleepTimeoutS:
 1075              	.LFB223:
 1076              		.loc 7 330 0
ARM GAS  C:\Users\PCHAUT~1\AppData\Local\Temp\ccwn6d1C.s 			page 20


 1077              		.cfi_startproc
 1078              		@ args = 0, pretend = 0, frame = 32
 1079              		@ frame_needed = 0, uses_anonymous_args = 0
 1080 0000 00B5     		push	{lr}
 1081              		.cfi_def_cfa_offset 4
 1082              		.cfi_offset 14, -4
 1083 0002 89B0     		sub	sp, sp, #36
 1084              		.cfi_def_cfa_offset 40
 1085 0004 0346     		mov	r3, r0
 1086 0006 0091     		str	r1, [sp]
 1087 0008 8DF80730 		strb	r3, [sp, #7]
 1088              		.loc 7 330 0
 1089 000c 194B     		ldr	r3, .L92
 1090 000e 1B68     		ldr	r3, [r3]
 1091 0010 0793     		str	r3, [sp, #28]
 1092              		.loc 7 332 0
 1093 0012 FFF7FEFF 		bl	chDbgCheckClassS
 1094              		.loc 7 334 0
 1095 0016 009B     		ldr	r3, [sp]
 1096 0018 B3F1FF3F 		cmp	r3, #-1
 1097 001c 17D0     		beq	.L87
 1098              	.LBB26:
 1099              		.loc 7 337 0
 1100 001e 164B     		ldr	r3, .L92+4
 1101 0020 9B69     		ldr	r3, [r3, #24]
 1102 0022 02A8     		add	r0, sp, #8
 1103 0024 154A     		ldr	r2, .L92+8
 1104 0026 0099     		ldr	r1, [sp]
 1105 0028 FFF7FEFF 		bl	chVTDoSetI
 1106              		.loc 7 338 0
 1107 002c 9DF80730 		ldrb	r3, [sp, #7]	@ zero_extendqisi2
 1108 0030 1846     		mov	r0, r3
 1109 0032 FFF7FEFF 		bl	chSchGoSleepS
 1110              		.loc 7 339 0
 1111 0036 02AB     		add	r3, sp, #8
 1112 0038 1846     		mov	r0, r3
 1113 003a FFF7FEFF 		bl	chVTIsArmedI
 1114 003e 0346     		mov	r3, r0
 1115 0040 002B     		cmp	r3, #0
 1116 0042 09D0     		beq	.L89
 1117              		.loc 7 340 0
 1118 0044 02AB     		add	r3, sp, #8
 1119 0046 1846     		mov	r0, r3
 1120 0048 FFF7FEFF 		bl	chVTDoResetI
 1121 004c 04E0     		b	.L89
 1122              	.L87:
 1123              	.LBE26:
 1124              		.loc 7 344 0
 1125 004e 9DF80730 		ldrb	r3, [sp, #7]	@ zero_extendqisi2
 1126 0052 1846     		mov	r0, r3
 1127 0054 FFF7FEFF 		bl	chSchGoSleepS
 1128              	.L89:
 1129              		.loc 7 347 0
 1130 0058 074B     		ldr	r3, .L92+4
 1131 005a 9B69     		ldr	r3, [r3, #24]
 1132 005c 9B6A     		ldr	r3, [r3, #40]
 1133              		.loc 7 348 0
ARM GAS  C:\Users\PCHAUT~1\AppData\Local\Temp\ccwn6d1C.s 			page 21


 1134 005e 1846     		mov	r0, r3
 1135 0060 044B     		ldr	r3, .L92
 1136 0062 079A     		ldr	r2, [sp, #28]
 1137 0064 1B68     		ldr	r3, [r3]
 1138 0066 9A42     		cmp	r2, r3
 1139 0068 01D0     		beq	.L91
 1140 006a FFF7FEFF 		bl	__stack_chk_fail
 1141              	.L91:
 1142 006e 09B0     		add	sp, sp, #36
 1143              		.cfi_def_cfa_offset 4
 1144              		@ sp needed
 1145 0070 5DF804FB 		ldr	pc, [sp], #4
 1146              	.L93:
 1147              		.align	2
 1148              	.L92:
 1149 0074 00000000 		.word	__stack_chk_guard
 1150 0078 00000000 		.word	ch
 1151 007c 00000000 		.word	wakeup
 1152              		.cfi_endproc
 1153              	.LFE223:
 1154              		.size	chSchGoSleepTimeoutS, .-chSchGoSleepTimeoutS
 1155              		.section	.text.chSchWakeupS,"ax",%progbits
 1156              		.align	1
 1157              		.p2align 4,,15
 1158              		.global	chSchWakeupS
 1159              		.syntax unified
 1160              		.thumb
 1161              		.thumb_func
 1162              		.fpu fpv4-sp-d16
 1163              		.type	chSchWakeupS, %function
 1164              	chSchWakeupS:
 1165              	.LFB224:
 1166              		.loc 7 367 0
 1167              		.cfi_startproc
 1168              		@ args = 0, pretend = 0, frame = 24
 1169              		@ frame_needed = 0, uses_anonymous_args = 0
 1170 0000 10B5     		push	{r4, lr}
 1171              		.cfi_def_cfa_offset 8
 1172              		.cfi_offset 4, -8
 1173              		.cfi_offset 14, -4
 1174 0002 86B0     		sub	sp, sp, #24
 1175              		.cfi_def_cfa_offset 32
 1176 0004 0190     		str	r0, [sp, #4]
 1177 0006 0091     		str	r1, [sp]
 1178              		.loc 7 367 0
 1179 0008 214B     		ldr	r3, .L101
 1180 000a 1B68     		ldr	r3, [r3]
 1181 000c 0593     		str	r3, [sp, #20]
 1182              		.loc 7 369 0
 1183 000e FFF7FEFF 		bl	chDbgCheckClassS
 1184              		.loc 7 373 0
 1185 0012 019B     		ldr	r3, [sp, #4]
 1186 0014 009A     		ldr	r2, [sp]
 1187 0016 9A62     		str	r2, [r3, #40]
 1188              		.loc 7 379 0
 1189 0018 019B     		ldr	r3, [sp, #4]
 1190 001a 9A68     		ldr	r2, [r3, #8]
ARM GAS  C:\Users\PCHAUT~1\AppData\Local\Temp\ccwn6d1C.s 			page 22


 1191 001c 1D4B     		ldr	r3, .L101+4
 1192 001e 9B69     		ldr	r3, [r3, #24]
 1193 0020 9B68     		ldr	r3, [r3, #8]
 1194 0022 9A42     		cmp	r2, r3
 1195 0024 03D8     		bhi	.L95
 1196              		.loc 7 380 0
 1197 0026 0198     		ldr	r0, [sp, #4]
 1198 0028 FFF7FEFF 		bl	chSchReadyI
 1199              		.loc 7 393 0
 1200 002c 26E0     		b	.L100
 1201              	.L95:
 1202              	.LBB27:
 1203              		.loc 7 383 0
 1204 002e 194B     		ldr	r3, .L101+4
 1205 0030 9B69     		ldr	r3, [r3, #24]
 1206 0032 1846     		mov	r0, r3
 1207 0034 FFF7FEFF 		bl	chSchReadyI
 1208 0038 0390     		str	r0, [sp, #12]
 1209              		.loc 7 384 0
 1210 003a 164A     		ldr	r2, .L101+4
 1211 003c 019B     		ldr	r3, [sp, #4]
 1212 003e 9361     		str	r3, [r2, #24]
 1213              		.loc 7 390 0
 1214 0040 019B     		ldr	r3, [sp, #4]
 1215 0042 0122     		movs	r2, #1
 1216 0044 83F82020 		strb	r2, [r3, #32]
 1217              		.loc 7 391 0
 1218 0048 0398     		ldr	r0, [sp, #12]
 1219 004a FFF7FEFF 		bl	_dbg_trace
 1220 004e 0399     		ldr	r1, [sp, #12]
 1221 0050 0198     		ldr	r0, [sp, #4]
 1222 0052 FFF7FEFF 		bl	_stats_ctxswc
 1223              	.LBB28:
 1224              	.LBB29:
 1225              	.LBB30:
 1226              		.loc 2 428 0
 1227              		.syntax unified
 1228              	@ 428 "../lib/e-puck2_main-processor/ChibiOS//os/ext/CMSIS/include/core_cmFunc.h" 1
 1229 0056 EFF30983 		MRS r3, psp
 1230              	
 1231              	@ 0 "" 2
 1232              		.thumb
 1233              		.syntax unified
 1234 005a 1C46     		mov	r4, r3
 1235              		.loc 2 429 0
 1236 005c 2346     		mov	r3, r4
 1237              	.LBE30:
 1238              	.LBE29:
 1239              		.loc 7 391 0
 1240 005e 0493     		str	r3, [sp, #16]
 1241 0060 049B     		ldr	r3, [sp, #16]
 1242 0062 A3F16402 		sub	r2, r3, #100
 1243 0066 039B     		ldr	r3, [sp, #12]
 1244 0068 DB69     		ldr	r3, [r3, #28]
 1245 006a 9A42     		cmp	r2, r3
 1246 006c 02D2     		bcs	.L98
 1247              		.loc 7 391 0 is_stmt 0 discriminator 1
ARM GAS  C:\Users\PCHAUT~1\AppData\Local\Temp\ccwn6d1C.s 			page 23


 1248 006e 0A48     		ldr	r0, .L101+8
 1249 0070 FFF7FEFF 		bl	chSysHalt
 1250              	.L98:
 1251              		.loc 7 391 0 discriminator 3
 1252 0074 0399     		ldr	r1, [sp, #12]
 1253 0076 0198     		ldr	r0, [sp, #4]
 1254 0078 FFF7FEFF 		bl	_port_switch
 1255              	.L100:
 1256              	.LBE28:
 1257              	.LBE27:
 1258              		.loc 7 393 0 is_stmt 1
 1259 007c 00BF     		nop
 1260 007e 044B     		ldr	r3, .L101
 1261 0080 059A     		ldr	r2, [sp, #20]
 1262 0082 1B68     		ldr	r3, [r3]
 1263 0084 9A42     		cmp	r2, r3
 1264 0086 01D0     		beq	.L99
 1265 0088 FFF7FEFF 		bl	__stack_chk_fail
 1266              	.L99:
 1267 008c 06B0     		add	sp, sp, #24
 1268              		.cfi_def_cfa_offset 8
 1269              		@ sp needed
 1270 008e 10BD     		pop	{r4, pc}
 1271              	.L102:
 1272              		.align	2
 1273              	.L101:
 1274 0090 00000000 		.word	__stack_chk_guard
 1275 0094 00000000 		.word	ch
 1276 0098 00000000 		.word	.LC0
 1277              		.cfi_endproc
 1278              	.LFE224:
 1279              		.size	chSchWakeupS, .-chSchWakeupS
 1280              		.section	.text.chSchRescheduleS,"ax",%progbits
 1281              		.align	1
 1282              		.p2align 4,,15
 1283              		.global	chSchRescheduleS
 1284              		.syntax unified
 1285              		.thumb
 1286              		.thumb_func
 1287              		.fpu fpv4-sp-d16
 1288              		.type	chSchRescheduleS, %function
 1289              	chSchRescheduleS:
 1290              	.LFB225:
 1291              		.loc 7 402 0
 1292              		.cfi_startproc
 1293              		@ args = 0, pretend = 0, frame = 8
 1294              		@ frame_needed = 0, uses_anonymous_args = 0
 1295 0000 00B5     		push	{lr}
 1296              		.cfi_def_cfa_offset 4
 1297              		.cfi_offset 14, -4
 1298 0002 83B0     		sub	sp, sp, #12
 1299              		.cfi_def_cfa_offset 16
 1300              		.loc 7 402 0
 1301 0004 0B4B     		ldr	r3, .L107
 1302 0006 1B68     		ldr	r3, [r3]
 1303 0008 0193     		str	r3, [sp, #4]
 1304              		.loc 7 404 0
ARM GAS  C:\Users\PCHAUT~1\AppData\Local\Temp\ccwn6d1C.s 			page 24


 1305 000a FFF7FEFF 		bl	chDbgCheckClassS
 1306              		.loc 7 406 0
 1307 000e FFF7FEFF 		bl	chSchIsRescRequiredI
 1308 0012 0346     		mov	r3, r0
 1309 0014 002B     		cmp	r3, #0
 1310 0016 01D0     		beq	.L106
 1311              		.loc 7 407 0
 1312 0018 FFF7FEFF 		bl	chSchDoRescheduleAhead
 1313              	.L106:
 1314              		.loc 7 409 0
 1315 001c 00BF     		nop
 1316 001e 054B     		ldr	r3, .L107
 1317 0020 019A     		ldr	r2, [sp, #4]
 1318 0022 1B68     		ldr	r3, [r3]
 1319 0024 9A42     		cmp	r2, r3
 1320 0026 01D0     		beq	.L105
 1321 0028 FFF7FEFF 		bl	__stack_chk_fail
 1322              	.L105:
 1323 002c 03B0     		add	sp, sp, #12
 1324              		.cfi_def_cfa_offset 4
 1325              		@ sp needed
 1326 002e 5DF804FB 		ldr	pc, [sp], #4
 1327              	.L108:
 1328 0032 00BF     		.align	2
 1329              	.L107:
 1330 0034 00000000 		.word	__stack_chk_guard
 1331              		.cfi_endproc
 1332              	.LFE225:
 1333              		.size	chSchRescheduleS, .-chSchRescheduleS
 1334              		.section	.text.chSchIsPreemptionRequired,"ax",%progbits
 1335              		.align	1
 1336              		.p2align 4,,15
 1337              		.global	chSchIsPreemptionRequired
 1338              		.syntax unified
 1339              		.thumb
 1340              		.thumb_func
 1341              		.fpu fpv4-sp-d16
 1342              		.type	chSchIsPreemptionRequired, %function
 1343              	chSchIsPreemptionRequired:
 1344              	.LFB226:
 1345              		.loc 7 424 0
 1346              		.cfi_startproc
 1347              		@ args = 0, pretend = 0, frame = 16
 1348              		@ frame_needed = 0, uses_anonymous_args = 0
 1349 0000 00B5     		push	{lr}
 1350              		.cfi_def_cfa_offset 4
 1351              		.cfi_offset 14, -4
 1352 0002 85B0     		sub	sp, sp, #20
 1353              		.cfi_def_cfa_offset 24
 1354              		.loc 7 424 0
 1355 0004 154B     		ldr	r3, .L114
 1356 0006 1B68     		ldr	r3, [r3]
 1357 0008 0393     		str	r3, [sp, #12]
 1358              		.loc 7 425 0
 1359 000a 154B     		ldr	r3, .L114+4
 1360 000c 1B68     		ldr	r3, [r3]
 1361 000e 9B68     		ldr	r3, [r3, #8]
ARM GAS  C:\Users\PCHAUT~1\AppData\Local\Temp\ccwn6d1C.s 			page 25


 1362 0010 0193     		str	r3, [sp, #4]
 1363              		.loc 7 426 0
 1364 0012 134B     		ldr	r3, .L114+4
 1365 0014 9B69     		ldr	r3, [r3, #24]
 1366 0016 9B68     		ldr	r3, [r3, #8]
 1367 0018 0293     		str	r3, [sp, #8]
 1368              		.loc 7 433 0
 1369 001a 114B     		ldr	r3, .L114+4
 1370 001c 9B69     		ldr	r3, [r3, #24]
 1371 001e 93F82330 		ldrb	r3, [r3, #35]	@ zero_extendqisi2
 1372 0022 002B     		cmp	r3, #0
 1373 0024 07D0     		beq	.L110
 1374              		.loc 7 433 0 is_stmt 0 discriminator 1
 1375 0026 019A     		ldr	r2, [sp, #4]
 1376 0028 029B     		ldr	r3, [sp, #8]
 1377 002a 9A42     		cmp	r2, r3
 1378 002c 8CBF     		ite	hi
 1379 002e 0123     		movhi	r3, #1
 1380 0030 0023     		movls	r3, #0
 1381 0032 DBB2     		uxtb	r3, r3
 1382 0034 06E0     		b	.L111
 1383              	.L110:
 1384              		.loc 7 433 0 discriminator 2
 1385 0036 019A     		ldr	r2, [sp, #4]
 1386 0038 029B     		ldr	r3, [sp, #8]
 1387 003a 9A42     		cmp	r2, r3
 1388 003c 2CBF     		ite	cs
 1389 003e 0123     		movcs	r3, #1
 1390 0040 0023     		movcc	r3, #0
 1391 0042 DBB2     		uxtb	r3, r3
 1392              	.L111:
 1393              		.loc 7 439 0 is_stmt 1 discriminator 4
 1394 0044 1846     		mov	r0, r3
 1395 0046 054B     		ldr	r3, .L114
 1396 0048 039A     		ldr	r2, [sp, #12]
 1397 004a 1B68     		ldr	r3, [r3]
 1398 004c 9A42     		cmp	r2, r3
 1399 004e 01D0     		beq	.L113
 1400              		.loc 7 439 0 is_stmt 0
 1401 0050 FFF7FEFF 		bl	__stack_chk_fail
 1402              	.L113:
 1403 0054 05B0     		add	sp, sp, #20
 1404              		.cfi_def_cfa_offset 4
 1405              		@ sp needed
 1406 0056 5DF804FB 		ldr	pc, [sp], #4
 1407              	.L115:
 1408 005a 00BF     		.align	2
 1409              	.L114:
 1410 005c 00000000 		.word	__stack_chk_guard
 1411 0060 00000000 		.word	ch
 1412              		.cfi_endproc
 1413              	.LFE226:
 1414              		.size	chSchIsPreemptionRequired, .-chSchIsPreemptionRequired
 1415              		.section	.text.chSchDoRescheduleBehind,"ax",%progbits
 1416              		.align	1
 1417              		.p2align 4,,15
 1418              		.global	chSchDoRescheduleBehind
ARM GAS  C:\Users\PCHAUT~1\AppData\Local\Temp\ccwn6d1C.s 			page 26


 1419              		.syntax unified
 1420              		.thumb
 1421              		.thumb_func
 1422              		.fpu fpv4-sp-d16
 1423              		.type	chSchDoRescheduleBehind, %function
 1424              	chSchDoRescheduleBehind:
 1425              	.LFB227:
 1426              		.loc 7 451 0 is_stmt 1
 1427              		.cfi_startproc
 1428              		@ args = 0, pretend = 0, frame = 16
 1429              		@ frame_needed = 0, uses_anonymous_args = 0
 1430 0000 10B5     		push	{r4, lr}
 1431              		.cfi_def_cfa_offset 8
 1432              		.cfi_offset 4, -8
 1433              		.cfi_offset 14, -4
 1434 0002 84B0     		sub	sp, sp, #16
 1435              		.cfi_def_cfa_offset 24
 1436              		.loc 7 451 0
 1437 0004 1F4B     		ldr	r3, .L120
 1438 0006 1B68     		ldr	r3, [r3]
 1439 0008 0393     		str	r3, [sp, #12]
 1440              		.loc 7 454 0
 1441 000a 1F4B     		ldr	r3, .L120+4
 1442 000c 9B69     		ldr	r3, [r3, #24]
 1443 000e 0193     		str	r3, [sp, #4]
 1444              		.loc 7 456 0
 1445 0010 1D48     		ldr	r0, .L120+4
 1446 0012 FFF7FEFF 		bl	queue_fifo_remove
 1447 0016 0246     		mov	r2, r0
 1448 0018 1B4B     		ldr	r3, .L120+4
 1449 001a 9A61     		str	r2, [r3, #24]
 1450              		.loc 7 462 0
 1451 001c 1A4B     		ldr	r3, .L120+4
 1452 001e 9B69     		ldr	r3, [r3, #24]
 1453 0020 0122     		movs	r2, #1
 1454 0022 83F82020 		strb	r2, [r3, #32]
 1455              		.loc 7 464 0
 1456 0026 019B     		ldr	r3, [sp, #4]
 1457 0028 1422     		movs	r2, #20
 1458 002a 83F82320 		strb	r2, [r3, #35]
 1459              		.loc 7 466 0
 1460 002e 0198     		ldr	r0, [sp, #4]
 1461 0030 FFF7FEFF 		bl	chSchReadyI
 1462              		.loc 7 467 0
 1463 0034 0198     		ldr	r0, [sp, #4]
 1464 0036 FFF7FEFF 		bl	_dbg_trace
 1465 003a 134B     		ldr	r3, .L120+4
 1466 003c 9B69     		ldr	r3, [r3, #24]
 1467 003e 0199     		ldr	r1, [sp, #4]
 1468 0040 1846     		mov	r0, r3
 1469 0042 FFF7FEFF 		bl	_stats_ctxswc
 1470              	.LBB31:
 1471              	.LBB32:
 1472              	.LBB33:
 1473              		.loc 2 428 0
 1474              		.syntax unified
 1475              	@ 428 "../lib/e-puck2_main-processor/ChibiOS//os/ext/CMSIS/include/core_cmFunc.h" 1
ARM GAS  C:\Users\PCHAUT~1\AppData\Local\Temp\ccwn6d1C.s 			page 27


 1476 0046 EFF30983 		MRS r3, psp
 1477              	
 1478              	@ 0 "" 2
 1479              		.thumb
 1480              		.syntax unified
 1481 004a 1C46     		mov	r4, r3
 1482              		.loc 2 429 0
 1483 004c 2346     		mov	r3, r4
 1484              	.LBE33:
 1485              	.LBE32:
 1486              		.loc 7 467 0
 1487 004e 0293     		str	r3, [sp, #8]
 1488 0050 029B     		ldr	r3, [sp, #8]
 1489 0052 A3F16402 		sub	r2, r3, #100
 1490 0056 019B     		ldr	r3, [sp, #4]
 1491 0058 DB69     		ldr	r3, [r3, #28]
 1492 005a 9A42     		cmp	r2, r3
 1493 005c 02D2     		bcs	.L118
 1494              		.loc 7 467 0 is_stmt 0 discriminator 1
 1495 005e 0B48     		ldr	r0, .L120+8
 1496 0060 FFF7FEFF 		bl	chSysHalt
 1497              	.L118:
 1498              		.loc 7 467 0 discriminator 3
 1499 0064 084B     		ldr	r3, .L120+4
 1500 0066 9B69     		ldr	r3, [r3, #24]
 1501 0068 0199     		ldr	r1, [sp, #4]
 1502 006a 1846     		mov	r0, r3
 1503 006c FFF7FEFF 		bl	_port_switch
 1504              	.LBE31:
 1505              		.loc 7 468 0 is_stmt 1 discriminator 3
 1506 0070 00BF     		nop
 1507 0072 044B     		ldr	r3, .L120
 1508 0074 039A     		ldr	r2, [sp, #12]
 1509 0076 1B68     		ldr	r3, [r3]
 1510 0078 9A42     		cmp	r2, r3
 1511 007a 01D0     		beq	.L119
 1512              		.loc 7 468 0 is_stmt 0
 1513 007c FFF7FEFF 		bl	__stack_chk_fail
 1514              	.L119:
 1515 0080 04B0     		add	sp, sp, #16
 1516              		.cfi_def_cfa_offset 8
 1517              		@ sp needed
 1518 0082 10BD     		pop	{r4, pc}
 1519              	.L121:
 1520              		.align	2
 1521              	.L120:
 1522 0084 00000000 		.word	__stack_chk_guard
 1523 0088 00000000 		.word	ch
 1524 008c 00000000 		.word	.LC0
 1525              		.cfi_endproc
 1526              	.LFE227:
 1527              		.size	chSchDoRescheduleBehind, .-chSchDoRescheduleBehind
 1528              		.section	.text.chSchDoRescheduleAhead,"ax",%progbits
 1529              		.align	1
 1530              		.p2align 4,,15
 1531              		.global	chSchDoRescheduleAhead
 1532              		.syntax unified
ARM GAS  C:\Users\PCHAUT~1\AppData\Local\Temp\ccwn6d1C.s 			page 28


 1533              		.thumb
 1534              		.thumb_func
 1535              		.fpu fpv4-sp-d16
 1536              		.type	chSchDoRescheduleAhead, %function
 1537              	chSchDoRescheduleAhead:
 1538              	.LFB228:
 1539              		.loc 7 479 0 is_stmt 1
 1540              		.cfi_startproc
 1541              		@ args = 0, pretend = 0, frame = 16
 1542              		@ frame_needed = 0, uses_anonymous_args = 0
 1543 0000 10B5     		push	{r4, lr}
 1544              		.cfi_def_cfa_offset 8
 1545              		.cfi_offset 4, -8
 1546              		.cfi_offset 14, -4
 1547 0002 84B0     		sub	sp, sp, #16
 1548              		.cfi_def_cfa_offset 24
 1549              		.loc 7 479 0
 1550 0004 2A4B     		ldr	r3, .L127
 1551 0006 1B68     		ldr	r3, [r3]
 1552 0008 0393     		str	r3, [sp, #12]
 1553              		.loc 7 482 0
 1554 000a 2A4B     		ldr	r3, .L127+4
 1555 000c 9B69     		ldr	r3, [r3, #24]
 1556 000e 0193     		str	r3, [sp, #4]
 1557              		.loc 7 484 0
 1558 0010 2848     		ldr	r0, .L127+4
 1559 0012 FFF7FEFF 		bl	queue_fifo_remove
 1560 0016 0246     		mov	r2, r0
 1561 0018 264B     		ldr	r3, .L127+4
 1562 001a 9A61     		str	r2, [r3, #24]
 1563              		.loc 7 490 0
 1564 001c 254B     		ldr	r3, .L127+4
 1565 001e 9B69     		ldr	r3, [r3, #24]
 1566 0020 0122     		movs	r2, #1
 1567 0022 83F82020 		strb	r2, [r3, #32]
 1568              		.loc 7 492 0
 1569 0026 019B     		ldr	r3, [sp, #4]
 1570 0028 0022     		movs	r2, #0
 1571 002a 83F82020 		strb	r2, [r3, #32]
 1572              		.loc 7 493 0
 1573 002e 214B     		ldr	r3, .L127+4
 1574 0030 0093     		str	r3, [sp]
 1575              	.L123:
 1576              		.loc 7 495 0 discriminator 1
 1577 0032 009B     		ldr	r3, [sp]
 1578 0034 1B68     		ldr	r3, [r3]
 1579 0036 0093     		str	r3, [sp]
 1580              		.loc 7 496 0 discriminator 1
 1581 0038 009B     		ldr	r3, [sp]
 1582 003a 9A68     		ldr	r2, [r3, #8]
 1583 003c 019B     		ldr	r3, [sp, #4]
 1584 003e 9B68     		ldr	r3, [r3, #8]
 1585 0040 9A42     		cmp	r2, r3
 1586 0042 F6D8     		bhi	.L123
 1587              		.loc 7 498 0
 1588 0044 019B     		ldr	r3, [sp, #4]
 1589 0046 009A     		ldr	r2, [sp]
ARM GAS  C:\Users\PCHAUT~1\AppData\Local\Temp\ccwn6d1C.s 			page 29


 1590 0048 1A60     		str	r2, [r3]
 1591              		.loc 7 499 0
 1592 004a 009B     		ldr	r3, [sp]
 1593 004c 5A68     		ldr	r2, [r3, #4]
 1594 004e 019B     		ldr	r3, [sp, #4]
 1595 0050 5A60     		str	r2, [r3, #4]
 1596              		.loc 7 500 0
 1597 0052 019B     		ldr	r3, [sp, #4]
 1598 0054 5B68     		ldr	r3, [r3, #4]
 1599 0056 019A     		ldr	r2, [sp, #4]
 1600 0058 1A60     		str	r2, [r3]
 1601              		.loc 7 501 0
 1602 005a 009B     		ldr	r3, [sp]
 1603 005c 019A     		ldr	r2, [sp, #4]
 1604 005e 5A60     		str	r2, [r3, #4]
 1605              		.loc 7 503 0
 1606 0060 0198     		ldr	r0, [sp, #4]
 1607 0062 FFF7FEFF 		bl	_dbg_trace
 1608 0066 134B     		ldr	r3, .L127+4
 1609 0068 9B69     		ldr	r3, [r3, #24]
 1610 006a 0199     		ldr	r1, [sp, #4]
 1611 006c 1846     		mov	r0, r3
 1612 006e FFF7FEFF 		bl	_stats_ctxswc
 1613              	.LBB34:
 1614              	.LBB35:
 1615              	.LBB36:
 1616              		.loc 2 428 0
 1617              		.syntax unified
 1618              	@ 428 "../lib/e-puck2_main-processor/ChibiOS//os/ext/CMSIS/include/core_cmFunc.h" 1
 1619 0072 EFF30983 		MRS r3, psp
 1620              	
 1621              	@ 0 "" 2
 1622              		.thumb
 1623              		.syntax unified
 1624 0076 1C46     		mov	r4, r3
 1625              		.loc 2 429 0
 1626 0078 2346     		mov	r3, r4
 1627              	.LBE36:
 1628              	.LBE35:
 1629              		.loc 7 503 0
 1630 007a 0293     		str	r3, [sp, #8]
 1631 007c 029B     		ldr	r3, [sp, #8]
 1632 007e A3F16402 		sub	r2, r3, #100
 1633 0082 019B     		ldr	r3, [sp, #4]
 1634 0084 DB69     		ldr	r3, [r3, #28]
 1635 0086 9A42     		cmp	r2, r3
 1636 0088 02D2     		bcs	.L125
 1637              		.loc 7 503 0 is_stmt 0 discriminator 1
 1638 008a 0B48     		ldr	r0, .L127+8
 1639 008c FFF7FEFF 		bl	chSysHalt
 1640              	.L125:
 1641              		.loc 7 503 0 discriminator 3
 1642 0090 084B     		ldr	r3, .L127+4
 1643 0092 9B69     		ldr	r3, [r3, #24]
 1644 0094 0199     		ldr	r1, [sp, #4]
 1645 0096 1846     		mov	r0, r3
 1646 0098 FFF7FEFF 		bl	_port_switch
ARM GAS  C:\Users\PCHAUT~1\AppData\Local\Temp\ccwn6d1C.s 			page 30


 1647              	.LBE34:
 1648              		.loc 7 504 0 is_stmt 1 discriminator 3
 1649 009c 00BF     		nop
 1650 009e 044B     		ldr	r3, .L127
 1651 00a0 039A     		ldr	r2, [sp, #12]
 1652 00a2 1B68     		ldr	r3, [r3]
 1653 00a4 9A42     		cmp	r2, r3
 1654 00a6 01D0     		beq	.L126
 1655              		.loc 7 504 0 is_stmt 0
 1656 00a8 FFF7FEFF 		bl	__stack_chk_fail
 1657              	.L126:
 1658 00ac 04B0     		add	sp, sp, #16
 1659              		.cfi_def_cfa_offset 8
 1660              		@ sp needed
 1661 00ae 10BD     		pop	{r4, pc}
 1662              	.L128:
 1663              		.align	2
 1664              	.L127:
 1665 00b0 00000000 		.word	__stack_chk_guard
 1666 00b4 00000000 		.word	ch
 1667 00b8 00000000 		.word	.LC0
 1668              		.cfi_endproc
 1669              	.LFE228:
 1670              		.size	chSchDoRescheduleAhead, .-chSchDoRescheduleAhead
 1671              		.section	.text.chSchDoReschedule,"ax",%progbits
 1672              		.align	1
 1673              		.p2align 4,,15
 1674              		.global	chSchDoReschedule
 1675              		.syntax unified
 1676              		.thumb
 1677              		.thumb_func
 1678              		.fpu fpv4-sp-d16
 1679              		.type	chSchDoReschedule, %function
 1680              	chSchDoReschedule:
 1681              	.LFB229:
 1682              		.loc 7 516 0 is_stmt 1
 1683              		.cfi_startproc
 1684              		@ args = 0, pretend = 0, frame = 8
 1685              		@ frame_needed = 0, uses_anonymous_args = 0
 1686 0000 00B5     		push	{lr}
 1687              		.cfi_def_cfa_offset 4
 1688              		.cfi_offset 14, -4
 1689 0002 83B0     		sub	sp, sp, #12
 1690              		.cfi_def_cfa_offset 16
 1691              		.loc 7 516 0
 1692 0004 0C4B     		ldr	r3, .L134
 1693 0006 1B68     		ldr	r3, [r3]
 1694 0008 0193     		str	r3, [sp, #4]
 1695              		.loc 7 521 0
 1696 000a 0C4B     		ldr	r3, .L134+4
 1697 000c 9B69     		ldr	r3, [r3, #24]
 1698 000e 93F82330 		ldrb	r3, [r3, #35]	@ zero_extendqisi2
 1699 0012 002B     		cmp	r3, #0
 1700 0014 02D1     		bne	.L130
 1701              		.loc 7 524 0
 1702 0016 FFF7FEFF 		bl	chSchDoRescheduleBehind
 1703              		.loc 7 536 0
ARM GAS  C:\Users\PCHAUT~1\AppData\Local\Temp\ccwn6d1C.s 			page 31


 1704 001a 01E0     		b	.L133
 1705              	.L130:
 1706              		.loc 7 529 0
 1707 001c FFF7FEFF 		bl	chSchDoRescheduleAhead
 1708              	.L133:
 1709              		.loc 7 536 0
 1710 0020 00BF     		nop
 1711 0022 054B     		ldr	r3, .L134
 1712 0024 019A     		ldr	r2, [sp, #4]
 1713 0026 1B68     		ldr	r3, [r3]
 1714 0028 9A42     		cmp	r2, r3
 1715 002a 01D0     		beq	.L132
 1716 002c FFF7FEFF 		bl	__stack_chk_fail
 1717              	.L132:
 1718 0030 03B0     		add	sp, sp, #12
 1719              		.cfi_def_cfa_offset 4
 1720              		@ sp needed
 1721 0032 5DF804FB 		ldr	pc, [sp], #4
 1722              	.L135:
 1723 0036 00BF     		.align	2
 1724              	.L134:
 1725 0038 00000000 		.word	__stack_chk_guard
 1726 003c 00000000 		.word	ch
 1727              		.cfi_endproc
 1728              	.LFE229:
 1729              		.size	chSchDoReschedule, .-chSchDoReschedule
 1730              		.section	.rodata.__func__.7854,"a",%progbits
 1731              		.align	2
 1732              		.type	__func__.7854, %object
 1733              		.size	__func__.7854, 12
 1734              	__func__.7854:
 1735 0000 63685363 		.ascii	"chSchReadyI\000"
 1735      68526561 
 1735      64794900 
 1736              		.text
 1737              	.Letext0:
 1738              		.file 8 "c:\\users\\pchautems\\documents\\robotiquetp\\eclipse_e-puck2\\tools\\gcc-arm-none-eabi-7
 1739              		.file 9 "c:\\users\\pchautems\\documents\\robotiquetp\\eclipse_e-puck2\\tools\\gcc-arm-none-eabi-7
 1740              		.file 10 "c:\\users\\pchautems\\documents\\robotiquetp\\eclipse_e-puck2\\tools\\gcc-arm-none-eabi-
 1741              		.file 11 "../lib/e-puck2_main-processor/ChibiOS//os/rt/ports/ARMCMx/compilers/GCC/chtypes.h"
 1742              		.file 12 "../lib/e-puck2_main-processor/ChibiOS//os/rt/include/chsystypes.h"
 1743              		.file 13 "../lib/e-puck2_main-processor/ChibiOS//os/ext/CMSIS/include/core_cm4.h"
 1744              		.file 14 "../lib/e-puck2_main-processor/ChibiOS//os/ext/CMSIS/ST/system_stm32f4xx.h"
 1745              		.file 15 "../lib/e-puck2_main-processor/ChibiOS//os/rt/ports/ARMCMx/chcore.h"
 1746              		.file 16 "../lib/e-puck2_main-processor/ChibiOS//os/rt/include/chdebug.h"
 1747              		.file 17 "../lib/e-puck2_main-processor/ChibiOS//os/rt/include/chtm.h"
 1748              		.file 18 "../lib/e-puck2_main-processor/ChibiOS//os/rt/include/chstats.h"
 1749              		.file 19 "../lib/e-puck2_main-processor/ChibiOS//os/rt/include/chmtx.h"
 1750              		.file 20 "../lib/e-puck2_main-processor/ChibiOS//os/rt/include/chregistry.h"
 1751              		.section	.debug_info,"",%progbits
 1752              	.Ldebug_info0:
 1753 0000 F20E0000 		.4byte	0xef2
 1754 0004 0400     		.2byte	0x4
 1755 0006 00000000 		.4byte	.Ldebug_abbrev0
 1756 000a 04       		.byte	0x4
 1757 000b 01       		.uleb128 0x1
 1758 000c D6010000 		.4byte	.LASF187
ARM GAS  C:\Users\PCHAUT~1\AppData\Local\Temp\ccwn6d1C.s 			page 32


 1759 0010 0C       		.byte	0xc
 1760 0011 35050000 		.4byte	.LASF188
 1761 0015 4B070000 		.4byte	.LASF189
 1762 0019 00000000 		.4byte	.Ldebug_ranges0+0
 1763 001d 00000000 		.4byte	0
 1764 0021 00000000 		.4byte	.Ldebug_line0
 1765 0025 02       		.uleb128 0x2
 1766 0026 04       		.byte	0x4
 1767 0027 05       		.byte	0x5
 1768 0028 696E7400 		.ascii	"int\000"
 1769 002c 03       		.uleb128 0x3
 1770 002d 22000000 		.4byte	.LASF4
 1771 0031 08       		.byte	0x8
 1772 0032 D8       		.byte	0xd8
 1773 0033 37000000 		.4byte	0x37
 1774 0037 04       		.uleb128 0x4
 1775 0038 04       		.byte	0x4
 1776 0039 07       		.byte	0x7
 1777 003a F1030000 		.4byte	.LASF0
 1778 003e 04       		.uleb128 0x4
 1779 003f 08       		.byte	0x8
 1780 0040 05       		.byte	0x5
 1781 0041 59010000 		.4byte	.LASF1
 1782 0045 04       		.uleb128 0x4
 1783 0046 08       		.byte	0x8
 1784 0047 04       		.byte	0x4
 1785 0048 8E050000 		.4byte	.LASF2
 1786 004c 04       		.uleb128 0x4
 1787 004d 01       		.byte	0x1
 1788 004e 06       		.byte	0x6
 1789 004f 67010000 		.4byte	.LASF3
 1790 0053 03       		.uleb128 0x3
 1791 0054 50000000 		.4byte	.LASF5
 1792 0058 09       		.byte	0x9
 1793 0059 2B       		.byte	0x2b
 1794 005a 5E000000 		.4byte	0x5e
 1795 005e 04       		.uleb128 0x4
 1796 005f 01       		.byte	0x1
 1797 0060 08       		.byte	0x8
 1798 0061 B0060000 		.4byte	.LASF6
 1799 0065 04       		.uleb128 0x4
 1800 0066 02       		.byte	0x2
 1801 0067 05       		.byte	0x5
 1802 0068 C7060000 		.4byte	.LASF7
 1803 006c 03       		.uleb128 0x3
 1804 006d 39080000 		.4byte	.LASF8
 1805 0071 09       		.byte	0x9
 1806 0072 39       		.byte	0x39
 1807 0073 77000000 		.4byte	0x77
 1808 0077 04       		.uleb128 0x4
 1809 0078 02       		.byte	0x2
 1810 0079 07       		.byte	0x7
 1811 007a 6B040000 		.4byte	.LASF9
 1812 007e 03       		.uleb128 0x3
 1813 007f FF000000 		.4byte	.LASF10
 1814 0083 09       		.byte	0x9
 1815 0084 4D       		.byte	0x4d
ARM GAS  C:\Users\PCHAUT~1\AppData\Local\Temp\ccwn6d1C.s 			page 33


 1816 0085 89000000 		.4byte	0x89
 1817 0089 04       		.uleb128 0x4
 1818 008a 04       		.byte	0x4
 1819 008b 05       		.byte	0x5
 1820 008c CD010000 		.4byte	.LASF11
 1821 0090 03       		.uleb128 0x3
 1822 0091 97080000 		.4byte	.LASF12
 1823 0095 09       		.byte	0x9
 1824 0096 4F       		.byte	0x4f
 1825 0097 9B000000 		.4byte	0x9b
 1826 009b 04       		.uleb128 0x4
 1827 009c 04       		.byte	0x4
 1828 009d 07       		.byte	0x7
 1829 009e 1B080000 		.4byte	.LASF13
 1830 00a2 03       		.uleb128 0x3
 1831 00a3 27060000 		.4byte	.LASF14
 1832 00a7 09       		.byte	0x9
 1833 00a8 69       		.byte	0x69
 1834 00a9 AD000000 		.4byte	0xad
 1835 00ad 04       		.uleb128 0x4
 1836 00ae 08       		.byte	0x8
 1837 00af 07       		.byte	0x7
 1838 00b0 B4000000 		.4byte	.LASF15
 1839 00b4 03       		.uleb128 0x3
 1840 00b5 2C090000 		.4byte	.LASF16
 1841 00b9 0A       		.byte	0xa
 1842 00ba 18       		.byte	0x18
 1843 00bb 53000000 		.4byte	0x53
 1844 00bf 03       		.uleb128 0x3
 1845 00c0 0D040000 		.4byte	.LASF17
 1846 00c4 0A       		.byte	0xa
 1847 00c5 24       		.byte	0x24
 1848 00c6 6C000000 		.4byte	0x6c
 1849 00ca 03       		.uleb128 0x3
 1850 00cb A8060000 		.4byte	.LASF18
 1851 00cf 0A       		.byte	0xa
 1852 00d0 2C       		.byte	0x2c
 1853 00d1 7E000000 		.4byte	0x7e
 1854 00d5 05       		.uleb128 0x5
 1855 00d6 CA000000 		.4byte	0xca
 1856 00da 03       		.uleb128 0x3
 1857 00db DA070000 		.4byte	.LASF19
 1858 00df 0A       		.byte	0xa
 1859 00e0 30       		.byte	0x30
 1860 00e1 90000000 		.4byte	0x90
 1861 00e5 03       		.uleb128 0x3
 1862 00e6 30000000 		.4byte	.LASF20
 1863 00ea 0A       		.byte	0xa
 1864 00eb 3C       		.byte	0x3c
 1865 00ec A2000000 		.4byte	0xa2
 1866 00f0 03       		.uleb128 0x3
 1867 00f1 6F050000 		.4byte	.LASF21
 1868 00f5 0B       		.byte	0xb
 1869 00f6 45       		.byte	0x45
 1870 00f7 DA000000 		.4byte	0xda
 1871 00fb 03       		.uleb128 0x3
 1872 00fc 2C010000 		.4byte	.LASF22
ARM GAS  C:\Users\PCHAUT~1\AppData\Local\Temp\ccwn6d1C.s 			page 34


 1873 0100 0B       		.byte	0xb
 1874 0101 46       		.byte	0x46
 1875 0102 E5000000 		.4byte	0xe5
 1876 0106 03       		.uleb128 0x3
 1877 0107 0E070000 		.4byte	.LASF23
 1878 010b 0B       		.byte	0xb
 1879 010c 48       		.byte	0x48
 1880 010d B4000000 		.4byte	0xb4
 1881 0111 03       		.uleb128 0x3
 1882 0112 28030000 		.4byte	.LASF24
 1883 0116 0B       		.byte	0xb
 1884 0117 49       		.byte	0x49
 1885 0118 B4000000 		.4byte	0xb4
 1886 011c 03       		.uleb128 0x3
 1887 011d 4A060000 		.4byte	.LASF25
 1888 0121 0B       		.byte	0xb
 1889 0122 4A       		.byte	0x4a
 1890 0123 B4000000 		.4byte	0xb4
 1891 0127 03       		.uleb128 0x3
 1892 0128 B3010000 		.4byte	.LASF26
 1893 012c 0B       		.byte	0xb
 1894 012d 4B       		.byte	0x4b
 1895 012e B4000000 		.4byte	0xb4
 1896 0132 03       		.uleb128 0x3
 1897 0133 7E060000 		.4byte	.LASF27
 1898 0137 0B       		.byte	0xb
 1899 0138 4C       		.byte	0x4c
 1900 0139 DA000000 		.4byte	0xda
 1901 013d 03       		.uleb128 0x3
 1902 013e A4040000 		.4byte	.LASF28
 1903 0142 0B       		.byte	0xb
 1904 0143 4D       		.byte	0x4d
 1905 0144 CA000000 		.4byte	0xca
 1906 0148 03       		.uleb128 0x3
 1907 0149 DE040000 		.4byte	.LASF29
 1908 014d 0B       		.byte	0xb
 1909 014e 4F       		.byte	0x4f
 1910 014f DA000000 		.4byte	0xda
 1911 0153 03       		.uleb128 0x3
 1912 0154 E3030000 		.4byte	.LASF30
 1913 0158 0B       		.byte	0xb
 1914 0159 51       		.byte	0x51
 1915 015a CA000000 		.4byte	0xca
 1916 015e 03       		.uleb128 0x3
 1917 015f AF040000 		.4byte	.LASF31
 1918 0163 0B       		.byte	0xb
 1919 0164 52       		.byte	0x52
 1920 0165 DA000000 		.4byte	0xda
 1921 0169 03       		.uleb128 0x3
 1922 016a 79080000 		.4byte	.LASF32
 1923 016e 0C       		.byte	0xc
 1924 016f 33       		.byte	0x33
 1925 0170 DA000000 		.4byte	0xda
 1926 0174 05       		.uleb128 0x5
 1927 0175 69010000 		.4byte	0x169
 1928 0179 03       		.uleb128 0x3
 1929 017a 59080000 		.4byte	.LASF33
ARM GAS  C:\Users\PCHAUT~1\AppData\Local\Temp\ccwn6d1C.s 			page 35


 1930 017e 0C       		.byte	0xc
 1931 017f 3F       		.byte	0x3f
 1932 0180 84010000 		.4byte	0x184
 1933 0184 06       		.uleb128 0x6
 1934 0185 8D040000 		.4byte	.LASF57
 1935 0189 68       		.byte	0x68
 1936 018a 03       		.byte	0x3
 1937 018b C2       		.byte	0xc2
 1938 018c A2020000 		.4byte	0x2a2
 1939 0190 07       		.uleb128 0x7
 1940 0191 07070000 		.4byte	.LASF34
 1941 0195 03       		.byte	0x3
 1942 0196 C3       		.byte	0xc3
 1943 0197 AD020000 		.4byte	0x2ad
 1944 019b 00       		.byte	0
 1945 019c 07       		.uleb128 0x7
 1946 019d 77060000 		.4byte	.LASF35
 1947 01a1 03       		.byte	0x3
 1948 01a2 C5       		.byte	0xc5
 1949 01a3 AD020000 		.4byte	0x2ad
 1950 01a7 04       		.byte	0x4
 1951 01a8 07       		.uleb128 0x7
 1952 01a9 35010000 		.4byte	.LASF36
 1953 01ad 03       		.byte	0x3
 1954 01ae C7       		.byte	0xc7
 1955 01af 32010000 		.4byte	0x132
 1956 01b3 08       		.byte	0x8
 1957 01b4 07       		.uleb128 0x7
 1958 01b5 EE050000 		.4byte	.LASF37
 1959 01b9 03       		.byte	0x3
 1960 01ba C8       		.byte	0xc8
 1961 01bb 26050000 		.4byte	0x526
 1962 01bf 0C       		.byte	0xc
 1963 01c0 07       		.uleb128 0x7
 1964 01c1 5B030000 		.4byte	.LASF38
 1965 01c5 03       		.byte	0x3
 1966 01c6 CA       		.byte	0xca
 1967 01c7 AD020000 		.4byte	0x2ad
 1968 01cb 10       		.byte	0x10
 1969 01cc 07       		.uleb128 0x7
 1970 01cd E0050000 		.4byte	.LASF39
 1971 01d1 03       		.byte	0x3
 1972 01d2 CB       		.byte	0xcb
 1973 01d3 AD020000 		.4byte	0x2ad
 1974 01d7 14       		.byte	0x14
 1975 01d8 07       		.uleb128 0x7
 1976 01d9 6D090000 		.4byte	.LASF40
 1977 01dd 03       		.byte	0x3
 1978 01de D2       		.byte	0xd2
 1979 01df 9C080000 		.4byte	0x89c
 1980 01e3 18       		.byte	0x18
 1981 01e4 07       		.uleb128 0x7
 1982 01e5 05060000 		.4byte	.LASF41
 1983 01e9 03       		.byte	0x3
 1984 01ea D8       		.byte	0xd8
 1985 01eb B3080000 		.4byte	0x8b3
 1986 01ef 1C       		.byte	0x1c
ARM GAS  C:\Users\PCHAUT~1\AppData\Local\Temp\ccwn6d1C.s 			page 36


 1987 01f0 07       		.uleb128 0x7
 1988 01f1 D1060000 		.4byte	.LASF42
 1989 01f5 03       		.byte	0x3
 1990 01f6 DD       		.byte	0xdd
 1991 01f7 11010000 		.4byte	0x111
 1992 01fb 20       		.byte	0x20
 1993 01fc 07       		.uleb128 0x7
 1994 01fd 25070000 		.4byte	.LASF43
 1995 0201 03       		.byte	0x3
 1996 0202 E1       		.byte	0xe1
 1997 0203 06010000 		.4byte	0x106
 1998 0207 21       		.byte	0x21
 1999 0208 07       		.uleb128 0x7
 2000 0209 07090000 		.4byte	.LASF44
 2001 020d 03       		.byte	0x3
 2002 020e E6       		.byte	0xe6
 2003 020f 1C010000 		.4byte	0x11c
 2004 0213 22       		.byte	0x22
 2005 0214 07       		.uleb128 0x7
 2006 0215 D9060000 		.4byte	.LASF45
 2007 0219 03       		.byte	0x3
 2008 021a EC       		.byte	0xec
 2009 021b 27010000 		.4byte	0x127
 2010 021f 23       		.byte	0x23
 2011 0220 07       		.uleb128 0x7
 2012 0221 26040000 		.4byte	.LASF46
 2013 0225 03       		.byte	0x3
 2014 0226 F3       		.byte	0xf3
 2015 0227 74010000 		.4byte	0x174
 2016 022b 24       		.byte	0x24
 2017 022c 08       		.uleb128 0x8
 2018 022d 705F7500 		.ascii	"p_u\000"
 2019 0231 03       		.byte	0x3
 2020 0232 3101     		.2byte	0x131
 2021 0234 CB070000 		.4byte	0x7cb
 2022 0238 28       		.byte	0x28
 2023 0239 09       		.uleb128 0x9
 2024 023a 2B050000 		.4byte	.LASF47
 2025 023e 03       		.byte	0x3
 2026 023f 3601     		.2byte	0x136
 2027 0241 B3020000 		.4byte	0x2b3
 2028 0245 2C       		.byte	0x2c
 2029 0246 09       		.uleb128 0x9
 2030 0247 3D040000 		.4byte	.LASF48
 2031 024b 03       		.byte	0x3
 2032 024c 3C01     		.2byte	0x13c
 2033 024e D7020000 		.4byte	0x2d7
 2034 0252 30       		.byte	0x30
 2035 0253 09       		.uleb128 0x9
 2036 0254 C9080000 		.4byte	.LASF49
 2037 0258 03       		.byte	0x3
 2038 0259 4001     		.2byte	0x140
 2039 025b 3D010000 		.4byte	0x13d
 2040 025f 38       		.byte	0x38
 2041 0260 09       		.uleb128 0x9
 2042 0261 CF070000 		.4byte	.LASF50
 2043 0265 03       		.byte	0x3
ARM GAS  C:\Users\PCHAUT~1\AppData\Local\Temp\ccwn6d1C.s 			page 37


 2044 0266 4601     		.2byte	0x146
 2045 0268 48010000 		.4byte	0x148
 2046 026c 3C       		.byte	0x3c
 2047 026d 09       		.uleb128 0x9
 2048 026e D4040000 		.4byte	.LASF51
 2049 0272 03       		.byte	0x3
 2050 0273 4D01     		.2byte	0x14d
 2051 0275 96080000 		.4byte	0x896
 2052 0279 40       		.byte	0x40
 2053 027a 09       		.uleb128 0x9
 2054 027b 83080000 		.4byte	.LASF52
 2055 027f 03       		.byte	0x3
 2056 0280 5101     		.2byte	0x151
 2057 0282 32010000 		.4byte	0x132
 2058 0286 44       		.byte	0x44
 2059 0287 09       		.uleb128 0x9
 2060 0288 90010000 		.4byte	.LASF53
 2061 028c 03       		.byte	0x3
 2062 028d 5801     		.2byte	0x158
 2063 028f 8A030000 		.4byte	0x38a
 2064 0293 48       		.byte	0x48
 2065 0294 09       		.uleb128 0x9
 2066 0295 36070000 		.4byte	.LASF54
 2067 0299 03       		.byte	0x3
 2068 029a 5E01     		.2byte	0x15e
 2069 029c 7C070000 		.4byte	0x77c
 2070 02a0 50       		.byte	0x50
 2071 02a1 00       		.byte	0
 2072 02a2 03       		.uleb128 0x3
 2073 02a3 49090000 		.4byte	.LASF55
 2074 02a7 0C       		.byte	0xc
 2075 02a8 44       		.byte	0x44
 2076 02a9 AD020000 		.4byte	0x2ad
 2077 02ad 0A       		.uleb128 0xa
 2078 02ae 04       		.byte	0x4
 2079 02af 79010000 		.4byte	0x179
 2080 02b3 03       		.uleb128 0x3
 2081 02b4 F5040000 		.4byte	.LASF56
 2082 02b8 0C       		.byte	0xc
 2083 02b9 49       		.byte	0x49
 2084 02ba BE020000 		.4byte	0x2be
 2085 02be 06       		.uleb128 0x6
 2086 02bf 03080000 		.4byte	.LASF58
 2087 02c3 04       		.byte	0x4
 2088 02c4 03       		.byte	0x3
 2089 02c5 B0       		.byte	0xb0
 2090 02c6 D7020000 		.4byte	0x2d7
 2091 02ca 07       		.uleb128 0x7
 2092 02cb 07070000 		.4byte	.LASF34
 2093 02cf 03       		.byte	0x3
 2094 02d0 B1       		.byte	0xb1
 2095 02d1 AD020000 		.4byte	0x2ad
 2096 02d5 00       		.byte	0
 2097 02d6 00       		.byte	0
 2098 02d7 03       		.uleb128 0x3
 2099 02d8 86070000 		.4byte	.LASF59
 2100 02dc 0C       		.byte	0xc
ARM GAS  C:\Users\PCHAUT~1\AppData\Local\Temp\ccwn6d1C.s 			page 38


 2101 02dd 50       		.byte	0x50
 2102 02de E2020000 		.4byte	0x2e2
 2103 02e2 06       		.uleb128 0x6
 2104 02e3 66000000 		.4byte	.LASF60
 2105 02e7 08       		.byte	0x8
 2106 02e8 03       		.byte	0x3
 2107 02e9 B7       		.byte	0xb7
 2108 02ea 07030000 		.4byte	0x307
 2109 02ee 07       		.uleb128 0x7
 2110 02ef 07070000 		.4byte	.LASF34
 2111 02f3 03       		.byte	0x3
 2112 02f4 B8       		.byte	0xb8
 2113 02f5 AD020000 		.4byte	0x2ad
 2114 02f9 00       		.byte	0
 2115 02fa 07       		.uleb128 0x7
 2116 02fb 77060000 		.4byte	.LASF35
 2117 02ff 03       		.byte	0x3
 2118 0300 B9       		.byte	0xb9
 2119 0301 AD020000 		.4byte	0x2ad
 2120 0305 04       		.byte	0x4
 2121 0306 00       		.byte	0
 2122 0307 03       		.uleb128 0x3
 2123 0308 0D000000 		.4byte	.LASF61
 2124 030c 0C       		.byte	0xc
 2125 030d 57       		.byte	0x57
 2126 030e 12030000 		.4byte	0x312
 2127 0312 0B       		.uleb128 0xb
 2128 0313 51040000 		.4byte	.LASF62
 2129 0317 1C       		.byte	0x1c
 2130 0318 03       		.byte	0x3
 2131 0319 9001     		.2byte	0x190
 2132 031b 6E030000 		.4byte	0x36e
 2133 031f 09       		.uleb128 0x9
 2134 0320 EF070000 		.4byte	.LASF63
 2135 0324 03       		.byte	0x3
 2136 0325 9101     		.2byte	0x191
 2137 0327 D7020000 		.4byte	0x2d7
 2138 032b 00       		.byte	0
 2139 032c 09       		.uleb128 0x9
 2140 032d 18050000 		.4byte	.LASF64
 2141 0331 03       		.byte	0x3
 2142 0332 9201     		.2byte	0x192
 2143 0334 32010000 		.4byte	0x132
 2144 0338 08       		.byte	0x8
 2145 0339 09       		.uleb128 0x9
 2146 033a E8050000 		.4byte	.LASF65
 2147 033e 03       		.byte	0x3
 2148 033f 9401     		.2byte	0x194
 2149 0341 26050000 		.4byte	0x526
 2150 0345 0C       		.byte	0xc
 2151 0346 09       		.uleb128 0x9
 2152 0347 84030000 		.4byte	.LASF66
 2153 034b 03       		.byte	0x3
 2154 034c 9701     		.2byte	0x197
 2155 034e AD020000 		.4byte	0x2ad
 2156 0352 10       		.byte	0x10
 2157 0353 09       		.uleb128 0x9
ARM GAS  C:\Users\PCHAUT~1\AppData\Local\Temp\ccwn6d1C.s 			page 39


 2158 0354 1F060000 		.4byte	.LASF67
 2159 0358 03       		.byte	0x3
 2160 0359 9801     		.2byte	0x198
 2161 035b AD020000 		.4byte	0x2ad
 2162 035f 14       		.byte	0x14
 2163 0360 09       		.uleb128 0x9
 2164 0361 15060000 		.4byte	.LASF68
 2165 0365 03       		.byte	0x3
 2166 0366 9B01     		.2byte	0x19b
 2167 0368 AD020000 		.4byte	0x2ad
 2168 036c 18       		.byte	0x18
 2169 036d 00       		.byte	0
 2170 036e 03       		.uleb128 0x3
 2171 036f 8E080000 		.4byte	.LASF69
 2172 0373 0C       		.byte	0xc
 2173 0374 5C       		.byte	0x5c
 2174 0375 79030000 		.4byte	0x379
 2175 0379 0A       		.uleb128 0xa
 2176 037a 04       		.byte	0x4
 2177 037b 7F030000 		.4byte	0x37f
 2178 037f 0C       		.uleb128 0xc
 2179 0380 8A030000 		.4byte	0x38a
 2180 0384 0D       		.uleb128 0xd
 2181 0385 8A030000 		.4byte	0x38a
 2182 0389 00       		.byte	0
 2183 038a 0E       		.uleb128 0xe
 2184 038b 04       		.byte	0x4
 2185 038c 03       		.uleb128 0x3
 2186 038d 67060000 		.4byte	.LASF70
 2187 0391 0C       		.byte	0xc
 2188 0392 61       		.byte	0x61
 2189 0393 97030000 		.4byte	0x397
 2190 0397 0B       		.uleb128 0xb
 2191 0398 96070000 		.4byte	.LASF71
 2192 039c 14       		.byte	0x14
 2193 039d 03       		.byte	0x3
 2194 039e 6B01     		.2byte	0x16b
 2195 03a0 E6030000 		.4byte	0x3e6
 2196 03a4 09       		.uleb128 0x9
 2197 03a5 05040000 		.4byte	.LASF72
 2198 03a9 03       		.byte	0x3
 2199 03aa 6C01     		.2byte	0x16c
 2200 03ac B9080000 		.4byte	0x8b9
 2201 03b0 00       		.byte	0
 2202 03b1 09       		.uleb128 0x9
 2203 03b2 E9030000 		.4byte	.LASF73
 2204 03b6 03       		.byte	0x3
 2205 03b7 6D01     		.2byte	0x16d
 2206 03b9 B9080000 		.4byte	0x8b9
 2207 03bd 04       		.byte	0x4
 2208 03be 09       		.uleb128 0x9
 2209 03bf 34040000 		.4byte	.LASF74
 2210 03c3 03       		.byte	0x3
 2211 03c4 6E01     		.2byte	0x16e
 2212 03c6 69010000 		.4byte	0x169
 2213 03ca 08       		.byte	0x8
 2214 03cb 09       		.uleb128 0x9
ARM GAS  C:\Users\PCHAUT~1\AppData\Local\Temp\ccwn6d1C.s 			page 40


 2215 03cc DE090000 		.4byte	.LASF75
 2216 03d0 03       		.byte	0x3
 2217 03d1 6F01     		.2byte	0x16f
 2218 03d3 6E030000 		.4byte	0x36e
 2219 03d7 0C       		.byte	0xc
 2220 03d8 09       		.uleb128 0x9
 2221 03d9 EC080000 		.4byte	.LASF76
 2222 03dd 03       		.byte	0x3
 2223 03de 7101     		.2byte	0x171
 2224 03e0 8A030000 		.4byte	0x38a
 2225 03e4 10       		.byte	0x10
 2226 03e5 00       		.byte	0
 2227 03e6 03       		.uleb128 0x3
 2228 03e7 09010000 		.4byte	.LASF77
 2229 03eb 0C       		.byte	0xc
 2230 03ec 66       		.byte	0x66
 2231 03ed F1030000 		.4byte	0x3f1
 2232 03f1 0B       		.uleb128 0xb
 2233 03f2 77050000 		.4byte	.LASF78
 2234 03f6 10       		.byte	0x10
 2235 03f7 03       		.byte	0x3
 2236 03f8 7B01     		.2byte	0x17b
 2237 03fa 33040000 		.4byte	0x433
 2238 03fe 09       		.uleb128 0x9
 2239 03ff 05040000 		.4byte	.LASF72
 2240 0403 03       		.byte	0x3
 2241 0404 7C01     		.2byte	0x17c
 2242 0406 B9080000 		.4byte	0x8b9
 2243 040a 00       		.byte	0
 2244 040b 09       		.uleb128 0x9
 2245 040c E9030000 		.4byte	.LASF73
 2246 0410 03       		.byte	0x3
 2247 0411 7E01     		.2byte	0x17e
 2248 0413 B9080000 		.4byte	0x8b9
 2249 0417 04       		.byte	0x4
 2250 0418 09       		.uleb128 0x9
 2251 0419 34040000 		.4byte	.LASF74
 2252 041d 03       		.byte	0x3
 2253 041e 8001     		.2byte	0x180
 2254 0420 69010000 		.4byte	0x169
 2255 0424 08       		.byte	0x8
 2256 0425 09       		.uleb128 0x9
 2257 0426 74090000 		.4byte	.LASF79
 2258 042a 03       		.byte	0x3
 2259 042b 8201     		.2byte	0x182
 2260 042d 74010000 		.4byte	0x174
 2261 0431 0C       		.byte	0xc
 2262 0432 00       		.byte	0
 2263 0433 03       		.uleb128 0x3
 2264 0434 77000000 		.4byte	.LASF80
 2265 0438 0C       		.byte	0xc
 2266 0439 6B       		.byte	0x6b
 2267 043a 3E040000 		.4byte	0x43e
 2268 043e 0F       		.uleb128 0xf
 2269 043f A7030000 		.4byte	.LASF81
 2270 0443 1404     		.2byte	0x414
 2271 0445 03       		.byte	0x3
ARM GAS  C:\Users\PCHAUT~1\AppData\Local\Temp\ccwn6d1C.s 			page 41


 2272 0446 A201     		.2byte	0x1a2
 2273 0448 81040000 		.4byte	0x481
 2274 044c 09       		.uleb128 0x9
 2275 044d B0080000 		.4byte	.LASF82
 2276 0451 03       		.byte	0x3
 2277 0452 AA01     		.2byte	0x1aa
 2278 0454 A2080000 		.4byte	0x8a2
 2279 0458 00       		.byte	0
 2280 0459 09       		.uleb128 0x9
 2281 045a 0E090000 		.4byte	.LASF83
 2282 045e 03       		.byte	0x3
 2283 045f AF01     		.2byte	0x1af
 2284 0461 53010000 		.4byte	0x153
 2285 0465 04       		.byte	0x4
 2286 0466 09       		.uleb128 0x9
 2287 0467 CB030000 		.4byte	.LASF84
 2288 046b 03       		.byte	0x3
 2289 046c B301     		.2byte	0x1b3
 2290 046e 53010000 		.4byte	0x153
 2291 0472 08       		.byte	0x8
 2292 0473 09       		.uleb128 0x9
 2293 0474 7F090000 		.4byte	.LASF85
 2294 0478 03       		.byte	0x3
 2295 0479 B901     		.2byte	0x1b9
 2296 047b 0E070000 		.4byte	0x70e
 2297 047f 0C       		.byte	0xc
 2298 0480 00       		.byte	0
 2299 0481 03       		.uleb128 0x3
 2300 0482 B6040000 		.4byte	.LASF86
 2301 0486 0C       		.byte	0xc
 2302 0487 70       		.byte	0x70
 2303 0488 8C040000 		.4byte	0x48c
 2304 048c 0F       		.uleb128 0xf
 2305 048d C3010000 		.4byte	.LASF87
 2306 0491 7006     		.2byte	0x670
 2307 0493 03       		.byte	0x3
 2308 0494 C201     		.2byte	0x1c2
 2309 0496 F9040000 		.4byte	0x4f9
 2310 049a 09       		.uleb128 0x9
 2311 049b 26090000 		.4byte	.LASF88
 2312 049f 03       		.byte	0x3
 2313 04a0 C601     		.2byte	0x1c6
 2314 04a2 07030000 		.4byte	0x307
 2315 04a6 00       		.byte	0
 2316 04a7 09       		.uleb128 0x9
 2317 04a8 A0010000 		.4byte	.LASF89
 2318 04ac 03       		.byte	0x3
 2319 04ad CA01     		.2byte	0x1ca
 2320 04af E6030000 		.4byte	0x3e6
 2321 04b3 1C       		.byte	0x1c
 2322 04b4 08       		.uleb128 0x8
 2323 04b5 64626700 		.ascii	"dbg\000"
 2324 04b9 03       		.byte	0x3
 2325 04ba CE01     		.2byte	0x1ce
 2326 04bc 33040000 		.4byte	0x433
 2327 04c0 2C       		.byte	0x2c
 2328 04c1 10       		.uleb128 0x10
ARM GAS  C:\Users\PCHAUT~1\AppData\Local\Temp\ccwn6d1C.s 			page 42


 2329 04c2 F4000000 		.4byte	.LASF90
 2330 04c6 03       		.byte	0x3
 2331 04c7 D201     		.2byte	0x1d2
 2332 04c9 79010000 		.4byte	0x179
 2333 04cd 4004     		.2byte	0x440
 2334 04cf 11       		.uleb128 0x11
 2335 04d0 746D00   		.ascii	"tm\000"
 2336 04d3 03       		.byte	0x3
 2337 04d4 D701     		.2byte	0x1d7
 2338 04d6 2E070000 		.4byte	0x72e
 2339 04da A804     		.2byte	0x4a8
 2340 04dc 10       		.uleb128 0x10
 2341 04dd 3D060000 		.4byte	.LASF91
 2342 04e1 03       		.byte	0x3
 2343 04e2 DD01     		.2byte	0x1dd
 2344 04e4 C0070000 		.4byte	0x7c0
 2345 04e8 B004     		.2byte	0x4b0
 2346 04ea 10       		.uleb128 0x10
 2347 04eb D4030000 		.4byte	.LASF92
 2348 04ef 03       		.byte	0x3
 2349 04f0 E301     		.2byte	0x1e3
 2350 04f2 BF080000 		.4byte	0x8bf
 2351 04f6 E804     		.2byte	0x4e8
 2352 04f8 00       		.byte	0
 2353 04f9 12       		.uleb128 0x12
 2354 04fa 1F010000 		.4byte	.LASF93
 2355 04fe 0D       		.byte	0xd
 2356 04ff A706     		.2byte	0x6a7
 2357 0501 D5000000 		.4byte	0xd5
 2358 0505 13       		.uleb128 0x13
 2359 0506 16040000 		.4byte	.LASF94
 2360 050a 0E       		.byte	0xe
 2361 050b 4C       		.byte	0x4c
 2362 050c DA000000 		.4byte	0xda
 2363 0510 03       		.uleb128 0x3
 2364 0511 8C030000 		.4byte	.LASF95
 2365 0515 0F       		.byte	0xf
 2366 0516 65       		.byte	0x65
 2367 0517 8A030000 		.4byte	0x38a
 2368 051b 03       		.uleb128 0x3
 2369 051c EA040000 		.4byte	.LASF96
 2370 0520 0F       		.byte	0xf
 2371 0521 6D       		.byte	0x6d
 2372 0522 E5000000 		.4byte	0xe5
 2373 0526 06       		.uleb128 0x6
 2374 0527 C1080000 		.4byte	.LASF97
 2375 052b 04       		.byte	0x4
 2376 052c 0F       		.byte	0xf
 2377 052d 89       		.byte	0x89
 2378 052e 3F050000 		.4byte	0x53f
 2379 0532 14       		.uleb128 0x14
 2380 0533 72313300 		.ascii	"r13\000"
 2381 0537 0F       		.byte	0xf
 2382 0538 8A       		.byte	0x8a
 2383 0539 80060000 		.4byte	0x680
 2384 053d 00       		.byte	0
 2385 053e 00       		.byte	0
ARM GAS  C:\Users\PCHAUT~1\AppData\Local\Temp\ccwn6d1C.s 			page 43


 2386 053f 06       		.uleb128 0x6
 2387 0540 5A000000 		.4byte	.LASF98
 2388 0544 64       		.byte	0x64
 2389 0545 01       		.byte	0x1
 2390 0546 F4       		.byte	0xf4
 2391 0547 80060000 		.4byte	0x680
 2392 054b 14       		.uleb128 0x14
 2393 054c 73313600 		.ascii	"s16\000"
 2394 0550 01       		.byte	0x1
 2395 0551 F6       		.byte	0xf6
 2396 0552 10050000 		.4byte	0x510
 2397 0556 00       		.byte	0
 2398 0557 14       		.uleb128 0x14
 2399 0558 73313700 		.ascii	"s17\000"
 2400 055c 01       		.byte	0x1
 2401 055d F7       		.byte	0xf7
 2402 055e 10050000 		.4byte	0x510
 2403 0562 04       		.byte	0x4
 2404 0563 14       		.uleb128 0x14
 2405 0564 73313800 		.ascii	"s18\000"
 2406 0568 01       		.byte	0x1
 2407 0569 F8       		.byte	0xf8
 2408 056a 10050000 		.4byte	0x510
 2409 056e 08       		.byte	0x8
 2410 056f 14       		.uleb128 0x14
 2411 0570 73313900 		.ascii	"s19\000"
 2412 0574 01       		.byte	0x1
 2413 0575 F9       		.byte	0xf9
 2414 0576 10050000 		.4byte	0x510
 2415 057a 0C       		.byte	0xc
 2416 057b 14       		.uleb128 0x14
 2417 057c 73323000 		.ascii	"s20\000"
 2418 0580 01       		.byte	0x1
 2419 0581 FA       		.byte	0xfa
 2420 0582 10050000 		.4byte	0x510
 2421 0586 10       		.byte	0x10
 2422 0587 14       		.uleb128 0x14
 2423 0588 73323100 		.ascii	"s21\000"
 2424 058c 01       		.byte	0x1
 2425 058d FB       		.byte	0xfb
 2426 058e 10050000 		.4byte	0x510
 2427 0592 14       		.byte	0x14
 2428 0593 14       		.uleb128 0x14
 2429 0594 73323200 		.ascii	"s22\000"
 2430 0598 01       		.byte	0x1
 2431 0599 FC       		.byte	0xfc
 2432 059a 10050000 		.4byte	0x510
 2433 059e 18       		.byte	0x18
 2434 059f 14       		.uleb128 0x14
 2435 05a0 73323300 		.ascii	"s23\000"
 2436 05a4 01       		.byte	0x1
 2437 05a5 FD       		.byte	0xfd
 2438 05a6 10050000 		.4byte	0x510
 2439 05aa 1C       		.byte	0x1c
 2440 05ab 14       		.uleb128 0x14
 2441 05ac 73323400 		.ascii	"s24\000"
 2442 05b0 01       		.byte	0x1
ARM GAS  C:\Users\PCHAUT~1\AppData\Local\Temp\ccwn6d1C.s 			page 44


 2443 05b1 FE       		.byte	0xfe
 2444 05b2 10050000 		.4byte	0x510
 2445 05b6 20       		.byte	0x20
 2446 05b7 14       		.uleb128 0x14
 2447 05b8 73323500 		.ascii	"s25\000"
 2448 05bc 01       		.byte	0x1
 2449 05bd FF       		.byte	0xff
 2450 05be 10050000 		.4byte	0x510
 2451 05c2 24       		.byte	0x24
 2452 05c3 08       		.uleb128 0x8
 2453 05c4 73323600 		.ascii	"s26\000"
 2454 05c8 01       		.byte	0x1
 2455 05c9 0001     		.2byte	0x100
 2456 05cb 10050000 		.4byte	0x510
 2457 05cf 28       		.byte	0x28
 2458 05d0 08       		.uleb128 0x8
 2459 05d1 73323700 		.ascii	"s27\000"
 2460 05d5 01       		.byte	0x1
 2461 05d6 0101     		.2byte	0x101
 2462 05d8 10050000 		.4byte	0x510
 2463 05dc 2C       		.byte	0x2c
 2464 05dd 08       		.uleb128 0x8
 2465 05de 73323800 		.ascii	"s28\000"
 2466 05e2 01       		.byte	0x1
 2467 05e3 0201     		.2byte	0x102
 2468 05e5 10050000 		.4byte	0x510
 2469 05e9 30       		.byte	0x30
 2470 05ea 08       		.uleb128 0x8
 2471 05eb 73323900 		.ascii	"s29\000"
 2472 05ef 01       		.byte	0x1
 2473 05f0 0301     		.2byte	0x103
 2474 05f2 10050000 		.4byte	0x510
 2475 05f6 34       		.byte	0x34
 2476 05f7 08       		.uleb128 0x8
 2477 05f8 73333000 		.ascii	"s30\000"
 2478 05fc 01       		.byte	0x1
 2479 05fd 0401     		.2byte	0x104
 2480 05ff 10050000 		.4byte	0x510
 2481 0603 38       		.byte	0x38
 2482 0604 08       		.uleb128 0x8
 2483 0605 73333100 		.ascii	"s31\000"
 2484 0609 01       		.byte	0x1
 2485 060a 0501     		.2byte	0x105
 2486 060c 10050000 		.4byte	0x510
 2487 0610 3C       		.byte	0x3c
 2488 0611 08       		.uleb128 0x8
 2489 0612 723400   		.ascii	"r4\000"
 2490 0615 01       		.byte	0x1
 2491 0616 0701     		.2byte	0x107
 2492 0618 10050000 		.4byte	0x510
 2493 061c 40       		.byte	0x40
 2494 061d 08       		.uleb128 0x8
 2495 061e 723500   		.ascii	"r5\000"
 2496 0621 01       		.byte	0x1
 2497 0622 0801     		.2byte	0x108
 2498 0624 10050000 		.4byte	0x510
 2499 0628 44       		.byte	0x44
ARM GAS  C:\Users\PCHAUT~1\AppData\Local\Temp\ccwn6d1C.s 			page 45


 2500 0629 08       		.uleb128 0x8
 2501 062a 723600   		.ascii	"r6\000"
 2502 062d 01       		.byte	0x1
 2503 062e 0901     		.2byte	0x109
 2504 0630 10050000 		.4byte	0x510
 2505 0634 48       		.byte	0x48
 2506 0635 08       		.uleb128 0x8
 2507 0636 723700   		.ascii	"r7\000"
 2508 0639 01       		.byte	0x1
 2509 063a 0A01     		.2byte	0x10a
 2510 063c 10050000 		.4byte	0x510
 2511 0640 4C       		.byte	0x4c
 2512 0641 08       		.uleb128 0x8
 2513 0642 723800   		.ascii	"r8\000"
 2514 0645 01       		.byte	0x1
 2515 0646 0B01     		.2byte	0x10b
 2516 0648 10050000 		.4byte	0x510
 2517 064c 50       		.byte	0x50
 2518 064d 08       		.uleb128 0x8
 2519 064e 723900   		.ascii	"r9\000"
 2520 0651 01       		.byte	0x1
 2521 0652 0C01     		.2byte	0x10c
 2522 0654 10050000 		.4byte	0x510
 2523 0658 54       		.byte	0x54
 2524 0659 08       		.uleb128 0x8
 2525 065a 72313000 		.ascii	"r10\000"
 2526 065e 01       		.byte	0x1
 2527 065f 0D01     		.2byte	0x10d
 2528 0661 10050000 		.4byte	0x510
 2529 0665 58       		.byte	0x58
 2530 0666 08       		.uleb128 0x8
 2531 0667 72313100 		.ascii	"r11\000"
 2532 066b 01       		.byte	0x1
 2533 066c 0E01     		.2byte	0x10e
 2534 066e 10050000 		.4byte	0x510
 2535 0672 5C       		.byte	0x5c
 2536 0673 08       		.uleb128 0x8
 2537 0674 6C7200   		.ascii	"lr\000"
 2538 0677 01       		.byte	0x1
 2539 0678 0F01     		.2byte	0x10f
 2540 067a 10050000 		.4byte	0x510
 2541 067e 60       		.byte	0x60
 2542 067f 00       		.byte	0
 2543 0680 0A       		.uleb128 0xa
 2544 0681 04       		.byte	0x4
 2545 0682 3F050000 		.4byte	0x53f
 2546 0686 15       		.uleb128 0x15
 2547 0687 10       		.byte	0x10
 2548 0688 10       		.byte	0x10
 2549 0689 51       		.byte	0x51
 2550 068a BF060000 		.4byte	0x6bf
 2551 068e 07       		.uleb128 0x7
 2552 068f 1A000000 		.4byte	.LASF99
 2553 0693 10       		.byte	0x10
 2554 0694 55       		.byte	0x55
 2555 0695 69010000 		.4byte	0x169
 2556 0699 00       		.byte	0
ARM GAS  C:\Users\PCHAUT~1\AppData\Local\Temp\ccwn6d1C.s 			page 46


 2557 069a 07       		.uleb128 0x7
 2558 069b 31030000 		.4byte	.LASF100
 2559 069f 10       		.byte	0x10
 2560 06a0 59       		.byte	0x59
 2561 06a1 AD020000 		.4byte	0x2ad
 2562 06a5 04       		.byte	0x4
 2563 06a6 07       		.uleb128 0x7
 2564 06a7 C6090000 		.4byte	.LASF101
 2565 06ab 10       		.byte	0x10
 2566 06ac 5D       		.byte	0x5d
 2567 06ad 8A030000 		.4byte	0x38a
 2568 06b1 08       		.byte	0x8
 2569 06b2 07       		.uleb128 0x7
 2570 06b3 1D090000 		.4byte	.LASF102
 2571 06b7 10       		.byte	0x10
 2572 06b8 61       		.byte	0x61
 2573 06b9 B4000000 		.4byte	0xb4
 2574 06bd 0C       		.byte	0xc
 2575 06be 00       		.byte	0
 2576 06bf 03       		.uleb128 0x3
 2577 06c0 C5050000 		.4byte	.LASF103
 2578 06c4 10       		.byte	0x10
 2579 06c5 62       		.byte	0x62
 2580 06c6 86060000 		.4byte	0x686
 2581 06ca 16       		.uleb128 0x16
 2582 06cb 0804     		.2byte	0x408
 2583 06cd 10       		.byte	0x10
 2584 06ce 67       		.byte	0x67
 2585 06cf F8060000 		.4byte	0x6f8
 2586 06d3 07       		.uleb128 0x7
 2587 06d4 7C030000 		.4byte	.LASF104
 2588 06d8 10       		.byte	0x10
 2589 06d9 6B       		.byte	0x6b
 2590 06da 37000000 		.4byte	0x37
 2591 06de 00       		.byte	0
 2592 06df 07       		.uleb128 0x7
 2593 06e0 A6050000 		.4byte	.LASF105
 2594 06e4 10       		.byte	0x10
 2595 06e5 6F       		.byte	0x6f
 2596 06e6 F8060000 		.4byte	0x6f8
 2597 06ea 04       		.byte	0x4
 2598 06eb 07       		.uleb128 0x7
 2599 06ec 52060000 		.4byte	.LASF106
 2600 06f0 10       		.byte	0x10
 2601 06f1 73       		.byte	0x73
 2602 06f2 FE060000 		.4byte	0x6fe
 2603 06f6 08       		.byte	0x8
 2604 06f7 00       		.byte	0
 2605 06f8 0A       		.uleb128 0xa
 2606 06f9 04       		.byte	0x4
 2607 06fa BF060000 		.4byte	0x6bf
 2608 06fe 17       		.uleb128 0x17
 2609 06ff BF060000 		.4byte	0x6bf
 2610 0703 0E070000 		.4byte	0x70e
 2611 0707 18       		.uleb128 0x18
 2612 0708 37000000 		.4byte	0x37
 2613 070c 3F       		.byte	0x3f
ARM GAS  C:\Users\PCHAUT~1\AppData\Local\Temp\ccwn6d1C.s 			page 47


 2614 070d 00       		.byte	0
 2615 070e 03       		.uleb128 0x3
 2616 070f CB000000 		.4byte	.LASF107
 2617 0713 10       		.byte	0x10
 2618 0714 74       		.byte	0x74
 2619 0715 CA060000 		.4byte	0x6ca
 2620 0719 15       		.uleb128 0x15
 2621 071a 04       		.byte	0x4
 2622 071b 11       		.byte	0x11
 2623 071c 38       		.byte	0x38
 2624 071d 2E070000 		.4byte	0x72e
 2625 0721 07       		.uleb128 0x7
 2626 0722 BA080000 		.4byte	.LASF108
 2627 0726 11       		.byte	0x11
 2628 0727 3C       		.byte	0x3c
 2629 0728 F0000000 		.4byte	0xf0
 2630 072c 00       		.byte	0
 2631 072d 00       		.byte	0
 2632 072e 03       		.uleb128 0x3
 2633 072f F4050000 		.4byte	.LASF109
 2634 0733 11       		.byte	0x11
 2635 0734 3D       		.byte	0x3d
 2636 0735 19070000 		.4byte	0x719
 2637 0739 15       		.uleb128 0x15
 2638 073a 18       		.byte	0x18
 2639 073b 11       		.byte	0x11
 2640 073c 48       		.byte	0x48
 2641 073d 7C070000 		.4byte	0x77c
 2642 0741 07       		.uleb128 0x7
 2643 0742 62080000 		.4byte	.LASF110
 2644 0746 11       		.byte	0x11
 2645 0747 49       		.byte	0x49
 2646 0748 F0000000 		.4byte	0xf0
 2647 074c 00       		.byte	0
 2648 074d 07       		.uleb128 0x7
 2649 074e 9B000000 		.4byte	.LASF111
 2650 0752 11       		.byte	0x11
 2651 0753 4A       		.byte	0x4a
 2652 0754 F0000000 		.4byte	0xf0
 2653 0758 04       		.byte	0x4
 2654 0759 07       		.uleb128 0x7
 2655 075a AA040000 		.4byte	.LASF112
 2656 075e 11       		.byte	0x11
 2657 075f 4B       		.byte	0x4b
 2658 0760 F0000000 		.4byte	0xf0
 2659 0764 08       		.byte	0x8
 2660 0765 14       		.uleb128 0x14
 2661 0766 6E00     		.ascii	"n\000"
 2662 0768 11       		.byte	0x11
 2663 0769 4C       		.byte	0x4c
 2664 076a 5E010000 		.4byte	0x15e
 2665 076e 0C       		.byte	0xc
 2666 076f 07       		.uleb128 0x7
 2667 0770 32060000 		.4byte	.LASF113
 2668 0774 11       		.byte	0x11
 2669 0775 4D       		.byte	0x4d
 2670 0776 FB000000 		.4byte	0xfb
ARM GAS  C:\Users\PCHAUT~1\AppData\Local\Temp\ccwn6d1C.s 			page 48


 2671 077a 10       		.byte	0x10
 2672 077b 00       		.byte	0
 2673 077c 03       		.uleb128 0x3
 2674 077d A1000000 		.4byte	.LASF114
 2675 0781 11       		.byte	0x11
 2676 0782 4E       		.byte	0x4e
 2677 0783 39070000 		.4byte	0x739
 2678 0787 15       		.uleb128 0x15
 2679 0788 38       		.byte	0x38
 2680 0789 12       		.byte	0x12
 2681 078a 38       		.byte	0x38
 2682 078b C0070000 		.4byte	0x7c0
 2683 078f 07       		.uleb128 0x7
 2684 0790 5F040000 		.4byte	.LASF115
 2685 0794 12       		.byte	0x12
 2686 0795 39       		.byte	0x39
 2687 0796 5E010000 		.4byte	0x15e
 2688 079a 00       		.byte	0
 2689 079b 07       		.uleb128 0x7
 2690 079c 99060000 		.4byte	.LASF116
 2691 07a0 12       		.byte	0x12
 2692 07a1 3A       		.byte	0x3a
 2693 07a2 5E010000 		.4byte	0x15e
 2694 07a6 04       		.byte	0x4
 2695 07a7 07       		.uleb128 0x7
 2696 07a8 AC090000 		.4byte	.LASF117
 2697 07ac 12       		.byte	0x12
 2698 07ad 3B       		.byte	0x3b
 2699 07ae 7C070000 		.4byte	0x77c
 2700 07b2 08       		.byte	0x8
 2701 07b3 07       		.uleb128 0x7
 2702 07b4 C9040000 		.4byte	.LASF118
 2703 07b8 12       		.byte	0x12
 2704 07b9 3D       		.byte	0x3d
 2705 07ba 7C070000 		.4byte	0x77c
 2706 07be 20       		.byte	0x20
 2707 07bf 00       		.byte	0
 2708 07c0 03       		.uleb128 0x3
 2709 07c1 7E040000 		.4byte	.LASF119
 2710 07c5 12       		.byte	0x12
 2711 07c6 3F       		.byte	0x3f
 2712 07c7 87070000 		.4byte	0x787
 2713 07cb 19       		.uleb128 0x19
 2714 07cc 04       		.byte	0x4
 2715 07cd 03       		.byte	0x3
 2716 07ce FA       		.byte	0xfa
 2717 07cf 28080000 		.4byte	0x828
 2718 07d3 1A       		.uleb128 0x1a
 2719 07d4 29000000 		.4byte	.LASF120
 2720 07d8 03       		.byte	0x3
 2721 07d9 0101     		.2byte	0x101
 2722 07db 3D010000 		.4byte	0x13d
 2723 07df 1A       		.uleb128 0x1a
 2724 07e0 EB000000 		.4byte	.LASF121
 2725 07e4 03       		.byte	0x3
 2726 07e5 0801     		.2byte	0x108
 2727 07e7 3D010000 		.4byte	0x13d
ARM GAS  C:\Users\PCHAUT~1\AppData\Local\Temp\ccwn6d1C.s 			page 49


 2728 07eb 1A       		.uleb128 0x1a
 2729 07ec C2040000 		.4byte	.LASF122
 2730 07f0 03       		.byte	0x3
 2731 07f1 0F01     		.2byte	0x10f
 2732 07f3 8A030000 		.4byte	0x38a
 2733 07f7 1A       		.uleb128 0x1a
 2734 07f8 BD010000 		.4byte	.LASF123
 2735 07fc 03       		.byte	0x3
 2736 07fd 1601     		.2byte	0x116
 2737 07ff 28080000 		.4byte	0x828
 2738 0803 1A       		.uleb128 0x1a
 2739 0804 2D040000 		.4byte	.LASF124
 2740 0808 03       		.byte	0x3
 2741 0809 1E01     		.2byte	0x11e
 2742 080b 53080000 		.4byte	0x853
 2743 080f 1A       		.uleb128 0x1a
 2744 0810 32080000 		.4byte	.LASF125
 2745 0814 03       		.byte	0x3
 2746 0815 2701     		.2byte	0x127
 2747 0817 96080000 		.4byte	0x896
 2748 081b 1A       		.uleb128 0x1a
 2749 081c 00070000 		.4byte	.LASF126
 2750 0820 03       		.byte	0x3
 2751 0821 2F01     		.2byte	0x12f
 2752 0823 48010000 		.4byte	0x148
 2753 0827 00       		.byte	0
 2754 0828 0A       		.uleb128 0xa
 2755 0829 04       		.byte	0x4
 2756 082a A2020000 		.4byte	0x2a2
 2757 082e 06       		.uleb128 0x6
 2758 082f B4070000 		.4byte	.LASF127
 2759 0833 0C       		.byte	0xc
 2760 0834 06       		.byte	0x6
 2761 0835 34       		.byte	0x34
 2762 0836 53080000 		.4byte	0x853
 2763 083a 07       		.uleb128 0x7
 2764 083b 63030000 		.4byte	.LASF128
 2765 083f 06       		.byte	0x6
 2766 0840 35       		.byte	0x35
 2767 0841 D7020000 		.4byte	0x2d7
 2768 0845 00       		.byte	0
 2769 0846 07       		.uleb128 0x7
 2770 0847 65040000 		.4byte	.LASF129
 2771 084b 06       		.byte	0x6
 2772 084c 37       		.byte	0x37
 2773 084d 53010000 		.4byte	0x153
 2774 0851 08       		.byte	0x8
 2775 0852 00       		.byte	0
 2776 0853 0A       		.uleb128 0xa
 2777 0854 04       		.byte	0x4
 2778 0855 2E080000 		.4byte	0x82e
 2779 0859 06       		.uleb128 0x6
 2780 085a FE080000 		.4byte	.LASF130
 2781 085e 14       		.byte	0x14
 2782 085f 13       		.byte	0x13
 2783 0860 39       		.byte	0x39
 2784 0861 96080000 		.4byte	0x896
ARM GAS  C:\Users\PCHAUT~1\AppData\Local\Temp\ccwn6d1C.s 			page 50


 2785 0865 07       		.uleb128 0x7
 2786 0866 98010000 		.4byte	.LASF131
 2787 086a 13       		.byte	0x13
 2788 086b 3A       		.byte	0x3a
 2789 086c D7020000 		.4byte	0x2d7
 2790 0870 00       		.byte	0
 2791 0871 07       		.uleb128 0x7
 2792 0872 B7090000 		.4byte	.LASF132
 2793 0876 13       		.byte	0x13
 2794 0877 3C       		.byte	0x3c
 2795 0878 AD020000 		.4byte	0x2ad
 2796 087c 08       		.byte	0x8
 2797 087d 07       		.uleb128 0x7
 2798 087e 16090000 		.4byte	.LASF133
 2799 0882 13       		.byte	0x13
 2800 0883 3E       		.byte	0x3e
 2801 0884 FC090000 		.4byte	0x9fc
 2802 0888 0C       		.byte	0xc
 2803 0889 07       		.uleb128 0x7
 2804 088a B7030000 		.4byte	.LASF134
 2805 088e 13       		.byte	0x13
 2806 088f 41       		.byte	0x41
 2807 0890 53010000 		.4byte	0x153
 2808 0894 10       		.byte	0x10
 2809 0895 00       		.byte	0
 2810 0896 0A       		.uleb128 0xa
 2811 0897 04       		.byte	0x4
 2812 0898 59080000 		.4byte	0x859
 2813 089c 0A       		.uleb128 0xa
 2814 089d 04       		.byte	0x4
 2815 089e AE080000 		.4byte	0x8ae
 2816 08a2 05       		.uleb128 0x5
 2817 08a3 9C080000 		.4byte	0x89c
 2818 08a7 04       		.uleb128 0x4
 2819 08a8 01       		.byte	0x1
 2820 08a9 08       		.byte	0x8
 2821 08aa 2D080000 		.4byte	.LASF135
 2822 08ae 1B       		.uleb128 0x1b
 2823 08af A7080000 		.4byte	0x8a7
 2824 08b3 0A       		.uleb128 0xa
 2825 08b4 04       		.byte	0x4
 2826 08b5 1B050000 		.4byte	0x51b
 2827 08b9 0A       		.uleb128 0xa
 2828 08ba 04       		.byte	0x4
 2829 08bb 8C030000 		.4byte	0x38c
 2830 08bf 17       		.uleb128 0x17
 2831 08c0 1B050000 		.4byte	0x51b
 2832 08c4 CF080000 		.4byte	0x8cf
 2833 08c8 18       		.uleb128 0x18
 2834 08c9 37000000 		.4byte	0x37
 2835 08cd 30       		.byte	0x30
 2836 08ce 00       		.byte	0
 2837 08cf 1C       		.uleb128 0x1c
 2838 08d0 636800   		.ascii	"ch\000"
 2839 08d3 03       		.byte	0x3
 2840 08d4 0902     		.2byte	0x209
 2841 08d6 81040000 		.4byte	0x481
ARM GAS  C:\Users\PCHAUT~1\AppData\Local\Temp\ccwn6d1C.s 			page 51


 2842 08da 15       		.uleb128 0x15
 2843 08db 16       		.byte	0x16
 2844 08dc 14       		.byte	0x14
 2845 08dd 34       		.byte	0x34
 2846 08de BB090000 		.4byte	0x9bb
 2847 08e2 07       		.uleb128 0x7
 2848 08e3 D0090000 		.4byte	.LASF136
 2849 08e7 14       		.byte	0x14
 2850 08e8 35       		.byte	0x35
 2851 08e9 BB090000 		.4byte	0x9bb
 2852 08ed 00       		.byte	0
 2853 08ee 07       		.uleb128 0x7
 2854 08ef 04050000 		.4byte	.LASF137
 2855 08f3 14       		.byte	0x14
 2856 08f4 36       		.byte	0x36
 2857 08f5 B4000000 		.4byte	0xb4
 2858 08f9 04       		.byte	0x4
 2859 08fa 07       		.uleb128 0x7
 2860 08fb 13080000 		.4byte	.LASF138
 2861 08ff 14       		.byte	0x14
 2862 0900 37       		.byte	0x37
 2863 0901 B4000000 		.4byte	0xb4
 2864 0905 05       		.byte	0x5
 2865 0906 07       		.uleb128 0x7
 2866 0907 A1090000 		.4byte	.LASF139
 2867 090b 14       		.byte	0x14
 2868 090c 38       		.byte	0x38
 2869 090d BF000000 		.4byte	0xbf
 2870 0911 06       		.byte	0x6
 2871 0912 07       		.uleb128 0x7
 2872 0913 5C060000 		.4byte	.LASF140
 2873 0917 14       		.byte	0x14
 2874 0918 39       		.byte	0x39
 2875 0919 B4000000 		.4byte	0xb4
 2876 091d 08       		.byte	0x8
 2877 091e 07       		.uleb128 0x7
 2878 091f 9A050000 		.4byte	.LASF141
 2879 0923 14       		.byte	0x14
 2880 0924 3A       		.byte	0x3a
 2881 0925 B4000000 		.4byte	0xb4
 2882 0929 09       		.byte	0x9
 2883 092a 07       		.uleb128 0x7
 2884 092b DD000000 		.4byte	.LASF142
 2885 092f 14       		.byte	0x14
 2886 0930 3B       		.byte	0x3b
 2887 0931 B4000000 		.4byte	0xb4
 2888 0935 0A       		.byte	0xa
 2889 0936 07       		.uleb128 0x7
 2890 0937 E3070000 		.4byte	.LASF143
 2891 093b 14       		.byte	0x14
 2892 093c 3C       		.byte	0x3c
 2893 093d B4000000 		.4byte	0xb4
 2894 0941 0B       		.byte	0xb
 2895 0942 07       		.uleb128 0x7
 2896 0943 F3080000 		.4byte	.LASF144
 2897 0947 14       		.byte	0x14
 2898 0948 3D       		.byte	0x3d
ARM GAS  C:\Users\PCHAUT~1\AppData\Local\Temp\ccwn6d1C.s 			page 52


 2899 0949 B4000000 		.4byte	0xb4
 2900 094d 0C       		.byte	0xc
 2901 094e 07       		.uleb128 0x7
 2902 094f A7070000 		.4byte	.LASF145
 2903 0953 14       		.byte	0x14
 2904 0954 3E       		.byte	0x3e
 2905 0955 B4000000 		.4byte	0xb4
 2906 0959 0D       		.byte	0xd
 2907 095a 07       		.uleb128 0x7
 2908 095b 00000000 		.4byte	.LASF146
 2909 095f 14       		.byte	0x14
 2910 0960 3F       		.byte	0x3f
 2911 0961 B4000000 		.4byte	0xb4
 2912 0965 0E       		.byte	0xe
 2913 0966 07       		.uleb128 0x7
 2914 0967 D4050000 		.4byte	.LASF147
 2915 096b 14       		.byte	0x14
 2916 096c 40       		.byte	0x40
 2917 096d B4000000 		.4byte	0xb4
 2918 0971 0F       		.byte	0xf
 2919 0972 07       		.uleb128 0x7
 2920 0973 73010000 		.4byte	.LASF148
 2921 0977 14       		.byte	0x14
 2922 0978 41       		.byte	0x41
 2923 0979 B4000000 		.4byte	0xb4
 2924 097d 10       		.byte	0x10
 2925 097e 07       		.uleb128 0x7
 2926 097f 3C010000 		.4byte	.LASF149
 2927 0983 14       		.byte	0x14
 2928 0984 43       		.byte	0x43
 2929 0985 B4000000 		.4byte	0xb4
 2930 0989 11       		.byte	0x11
 2931 098a 07       		.uleb128 0x7
 2932 098b 83010000 		.4byte	.LASF150
 2933 098f 14       		.byte	0x14
 2934 0990 44       		.byte	0x44
 2935 0991 B4000000 		.4byte	0xb4
 2936 0995 12       		.byte	0x12
 2937 0996 07       		.uleb128 0x7
 2938 0997 0C050000 		.4byte	.LASF151
 2939 099b 14       		.byte	0x14
 2940 099c 45       		.byte	0x45
 2941 099d B4000000 		.4byte	0xb4
 2942 09a1 13       		.byte	0x13
 2943 09a2 07       		.uleb128 0x7
 2944 09a3 16070000 		.4byte	.LASF152
 2945 09a7 14       		.byte	0x14
 2946 09a8 46       		.byte	0x46
 2947 09a9 B4000000 		.4byte	0xb4
 2948 09ad 14       		.byte	0x14
 2949 09ae 07       		.uleb128 0x7
 2950 09af E3060000 		.4byte	.LASF153
 2951 09b3 14       		.byte	0x14
 2952 09b4 48       		.byte	0x48
 2953 09b5 B4000000 		.4byte	0xb4
 2954 09b9 15       		.byte	0x15
 2955 09ba 00       		.byte	0
ARM GAS  C:\Users\PCHAUT~1\AppData\Local\Temp\ccwn6d1C.s 			page 53


 2956 09bb 17       		.uleb128 0x17
 2957 09bc A7080000 		.4byte	0x8a7
 2958 09c0 CB090000 		.4byte	0x9cb
 2959 09c4 18       		.uleb128 0x18
 2960 09c5 37000000 		.4byte	0x37
 2961 09c9 03       		.byte	0x3
 2962 09ca 00       		.byte	0
 2963 09cb 03       		.uleb128 0x3
 2964 09cc 37030000 		.4byte	.LASF154
 2965 09d0 14       		.byte	0x14
 2966 09d1 49       		.byte	0x49
 2967 09d2 DA080000 		.4byte	0x8da
 2968 09d6 1B       		.uleb128 0x1b
 2969 09d7 CB090000 		.4byte	0x9cb
 2970 09db 13       		.uleb128 0x13
 2971 09dc 48040000 		.4byte	.LASF155
 2972 09e0 14       		.byte	0x14
 2973 09e1 6E       		.byte	0x6e
 2974 09e2 D6090000 		.4byte	0x9d6
 2975 09e6 03       		.uleb128 0x3
 2976 09e7 1F050000 		.4byte	.LASF156
 2977 09eb 06       		.byte	0x6
 2978 09ec 38       		.byte	0x38
 2979 09ed 2E080000 		.4byte	0x82e
 2980 09f1 03       		.uleb128 0x3
 2981 09f2 BD030000 		.4byte	.LASF157
 2982 09f6 13       		.byte	0x13
 2983 09f7 34       		.byte	0x34
 2984 09f8 59080000 		.4byte	0x859
 2985 09fc 0A       		.uleb128 0xa
 2986 09fd 04       		.byte	0x4
 2987 09fe F1090000 		.4byte	0x9f1
 2988 0a02 1D       		.uleb128 0x1d
 2989 0a03 CF080000 		.4byte	0x8cf
 2990 0a07 07       		.byte	0x7
 2991 0a08 2A       		.byte	0x2a
 2992 0a09 05       		.uleb128 0x5
 2993 0a0a 03       		.byte	0x3
 2994 0a0b 00000000 		.4byte	ch
 2995 0a0f 1E       		.uleb128 0x1e
 2996 0a10 95030000 		.4byte	.LASF161
 2997 0a14 07       		.byte	0x7
 2998 0a15 0402     		.2byte	0x204
 2999 0a17 00000000 		.4byte	.LFB229
 3000 0a1b 40000000 		.4byte	.LFE229-.LFB229
 3001 0a1f 01       		.uleb128 0x1
 3002 0a20 9C       		.byte	0x9c
 3003 0a21 1F       		.uleb128 0x1f
 3004 0a22 39000000 		.4byte	.LASF158
 3005 0a26 07       		.byte	0x7
 3006 0a27 DF01     		.2byte	0x1df
 3007 0a29 00000000 		.4byte	.LFB228
 3008 0a2d BC000000 		.4byte	.LFE228-.LFB228
 3009 0a31 01       		.uleb128 0x1
 3010 0a32 9C       		.byte	0x9c
 3011 0a33 900A0000 		.4byte	0xa90
 3012 0a37 20       		.uleb128 0x20
ARM GAS  C:\Users\PCHAUT~1\AppData\Local\Temp\ccwn6d1C.s 			page 54


 3013 0a38 6F747000 		.ascii	"otp\000"
 3014 0a3c 07       		.byte	0x7
 3015 0a3d E001     		.2byte	0x1e0
 3016 0a3f AD020000 		.4byte	0x2ad
 3017 0a43 02       		.uleb128 0x2
 3018 0a44 91       		.byte	0x91
 3019 0a45 6C       		.sleb128 -20
 3020 0a46 20       		.uleb128 0x20
 3021 0a47 637000   		.ascii	"cp\000"
 3022 0a4a 07       		.byte	0x7
 3023 0a4b E001     		.2byte	0x1e0
 3024 0a4d AD020000 		.4byte	0x2ad
 3025 0a51 02       		.uleb128 0x2
 3026 0a52 91       		.byte	0x91
 3027 0a53 68       		.sleb128 -24
 3028 0a54 21       		.uleb128 0x21
 3029 0a55 72000000 		.4byte	.LBB34
 3030 0a59 2A000000 		.4byte	.LBE34-.LBB34
 3031 0a5d 20       		.uleb128 0x20
 3032 0a5e 72313300 		.ascii	"r13\000"
 3033 0a62 07       		.byte	0x7
 3034 0a63 F701     		.2byte	0x1f7
 3035 0a65 80060000 		.4byte	0x680
 3036 0a69 02       		.uleb128 0x2
 3037 0a6a 91       		.byte	0x91
 3038 0a6b 70       		.sleb128 -16
 3039 0a6c 22       		.uleb128 0x22
 3040 0a6d DB0E0000 		.4byte	0xedb
 3041 0a71 72000000 		.4byte	.LBB35
 3042 0a75 08000000 		.4byte	.LBE35-.LBB35
 3043 0a79 07       		.byte	0x7
 3044 0a7a F701     		.2byte	0x1f7
 3045 0a7c 21       		.uleb128 0x21
 3046 0a7d 72000000 		.4byte	.LBB36
 3047 0a81 08000000 		.4byte	.LBE36-.LBB36
 3048 0a85 23       		.uleb128 0x23
 3049 0a86 E80E0000 		.4byte	0xee8
 3050 0a8a 01       		.uleb128 0x1
 3051 0a8b 54       		.byte	0x54
 3052 0a8c 00       		.byte	0
 3053 0a8d 00       		.byte	0
 3054 0a8e 00       		.byte	0
 3055 0a8f 00       		.byte	0
 3056 0a90 1F       		.uleb128 0x1f
 3057 0a91 AD050000 		.4byte	.LASF159
 3058 0a95 07       		.byte	0x7
 3059 0a96 C301     		.2byte	0x1c3
 3060 0a98 00000000 		.4byte	.LFB227
 3061 0a9c 90000000 		.4byte	.LFE227-.LFB227
 3062 0aa0 01       		.uleb128 0x1
 3063 0aa1 9C       		.byte	0x9c
 3064 0aa2 F10A0000 		.4byte	0xaf1
 3065 0aa6 20       		.uleb128 0x20
 3066 0aa7 6F747000 		.ascii	"otp\000"
 3067 0aab 07       		.byte	0x7
 3068 0aac C401     		.2byte	0x1c4
 3069 0aae AD020000 		.4byte	0x2ad
ARM GAS  C:\Users\PCHAUT~1\AppData\Local\Temp\ccwn6d1C.s 			page 55


 3070 0ab2 02       		.uleb128 0x2
 3071 0ab3 91       		.byte	0x91
 3072 0ab4 6C       		.sleb128 -20
 3073 0ab5 21       		.uleb128 0x21
 3074 0ab6 46000000 		.4byte	.LBB31
 3075 0aba 2A000000 		.4byte	.LBE31-.LBB31
 3076 0abe 20       		.uleb128 0x20
 3077 0abf 72313300 		.ascii	"r13\000"
 3078 0ac3 07       		.byte	0x7
 3079 0ac4 D301     		.2byte	0x1d3
 3080 0ac6 80060000 		.4byte	0x680
 3081 0aca 02       		.uleb128 0x2
 3082 0acb 91       		.byte	0x91
 3083 0acc 70       		.sleb128 -16
 3084 0acd 22       		.uleb128 0x22
 3085 0ace DB0E0000 		.4byte	0xedb
 3086 0ad2 46000000 		.4byte	.LBB32
 3087 0ad6 08000000 		.4byte	.LBE32-.LBB32
 3088 0ada 07       		.byte	0x7
 3089 0adb D301     		.2byte	0x1d3
 3090 0add 21       		.uleb128 0x21
 3091 0ade 46000000 		.4byte	.LBB33
 3092 0ae2 08000000 		.4byte	.LBE33-.LBB33
 3093 0ae6 23       		.uleb128 0x23
 3094 0ae7 E80E0000 		.4byte	0xee8
 3095 0aeb 01       		.uleb128 0x1
 3096 0aec 54       		.byte	0x54
 3097 0aed 00       		.byte	0
 3098 0aee 00       		.byte	0
 3099 0aef 00       		.byte	0
 3100 0af0 00       		.byte	0
 3101 0af1 24       		.uleb128 0x24
 3102 0af2 41030000 		.4byte	.LASF164
 3103 0af6 07       		.byte	0x7
 3104 0af7 A801     		.2byte	0x1a8
 3105 0af9 280B0000 		.4byte	0xb28
 3106 0afd 00000000 		.4byte	.LFB226
 3107 0b01 64000000 		.4byte	.LFE226-.LFB226
 3108 0b05 01       		.uleb128 0x1
 3109 0b06 9C       		.byte	0x9c
 3110 0b07 280B0000 		.4byte	0xb28
 3111 0b0b 20       		.uleb128 0x20
 3112 0b0c 703100   		.ascii	"p1\000"
 3113 0b0f 07       		.byte	0x7
 3114 0b10 A901     		.2byte	0x1a9
 3115 0b12 32010000 		.4byte	0x132
 3116 0b16 02       		.uleb128 0x2
 3117 0b17 91       		.byte	0x91
 3118 0b18 6C       		.sleb128 -20
 3119 0b19 20       		.uleb128 0x20
 3120 0b1a 703200   		.ascii	"p2\000"
 3121 0b1d 07       		.byte	0x7
 3122 0b1e AA01     		.2byte	0x1aa
 3123 0b20 32010000 		.4byte	0x132
 3124 0b24 02       		.uleb128 0x2
 3125 0b25 91       		.byte	0x91
 3126 0b26 70       		.sleb128 -16
ARM GAS  C:\Users\PCHAUT~1\AppData\Local\Temp\ccwn6d1C.s 			page 56


 3127 0b27 00       		.byte	0
 3128 0b28 04       		.uleb128 0x4
 3129 0b29 01       		.byte	0x1
 3130 0b2a 02       		.byte	0x2
 3131 0b2b A2060000 		.4byte	.LASF160
 3132 0b2f 1E       		.uleb128 0x1e
 3133 0b30 6B030000 		.4byte	.LASF162
 3134 0b34 07       		.byte	0x7
 3135 0b35 9201     		.2byte	0x192
 3136 0b37 00000000 		.4byte	.LFB225
 3137 0b3b 38000000 		.4byte	.LFE225-.LFB225
 3138 0b3f 01       		.uleb128 0x1
 3139 0b40 9C       		.byte	0x9c
 3140 0b41 1F       		.uleb128 0x1f
 3141 0b42 97040000 		.4byte	.LASF163
 3142 0b46 07       		.byte	0x7
 3143 0b47 6F01     		.2byte	0x16f
 3144 0b49 00000000 		.4byte	.LFB224
 3145 0b4d 9C000000 		.4byte	.LFE224-.LFB224
 3146 0b51 01       		.uleb128 0x1
 3147 0b52 9C       		.byte	0x9c
 3148 0b53 CA0B0000 		.4byte	0xbca
 3149 0b57 25       		.uleb128 0x25
 3150 0b58 6E747000 		.ascii	"ntp\000"
 3151 0b5c 07       		.byte	0x7
 3152 0b5d 6F01     		.2byte	0x16f
 3153 0b5f AD020000 		.4byte	0x2ad
 3154 0b63 02       		.uleb128 0x2
 3155 0b64 91       		.byte	0x91
 3156 0b65 64       		.sleb128 -28
 3157 0b66 25       		.uleb128 0x25
 3158 0b67 6D736700 		.ascii	"msg\000"
 3159 0b6b 07       		.byte	0x7
 3160 0b6c 6F01     		.2byte	0x16f
 3161 0b6e 3D010000 		.4byte	0x13d
 3162 0b72 02       		.uleb128 0x2
 3163 0b73 91       		.byte	0x91
 3164 0b74 60       		.sleb128 -32
 3165 0b75 21       		.uleb128 0x21
 3166 0b76 2E000000 		.4byte	.LBB27
 3167 0b7a 4E000000 		.4byte	.LBE27-.LBB27
 3168 0b7e 20       		.uleb128 0x20
 3169 0b7f 6F747000 		.ascii	"otp\000"
 3170 0b83 07       		.byte	0x7
 3171 0b84 7F01     		.2byte	0x17f
 3172 0b86 AD020000 		.4byte	0x2ad
 3173 0b8a 02       		.uleb128 0x2
 3174 0b8b 91       		.byte	0x91
 3175 0b8c 6C       		.sleb128 -20
 3176 0b8d 21       		.uleb128 0x21
 3177 0b8e 56000000 		.4byte	.LBB28
 3178 0b92 26000000 		.4byte	.LBE28-.LBB28
 3179 0b96 20       		.uleb128 0x20
 3180 0b97 72313300 		.ascii	"r13\000"
 3181 0b9b 07       		.byte	0x7
 3182 0b9c 8701     		.2byte	0x187
 3183 0b9e 80060000 		.4byte	0x680
ARM GAS  C:\Users\PCHAUT~1\AppData\Local\Temp\ccwn6d1C.s 			page 57


 3184 0ba2 02       		.uleb128 0x2
 3185 0ba3 91       		.byte	0x91
 3186 0ba4 70       		.sleb128 -16
 3187 0ba5 22       		.uleb128 0x22
 3188 0ba6 DB0E0000 		.4byte	0xedb
 3189 0baa 56000000 		.4byte	.LBB29
 3190 0bae 08000000 		.4byte	.LBE29-.LBB29
 3191 0bb2 07       		.byte	0x7
 3192 0bb3 8701     		.2byte	0x187
 3193 0bb5 21       		.uleb128 0x21
 3194 0bb6 56000000 		.4byte	.LBB30
 3195 0bba 08000000 		.4byte	.LBE30-.LBB30
 3196 0bbe 23       		.uleb128 0x23
 3197 0bbf E80E0000 		.4byte	0xee8
 3198 0bc3 01       		.uleb128 0x1
 3199 0bc4 54       		.byte	0x54
 3200 0bc5 00       		.byte	0
 3201 0bc6 00       		.byte	0
 3202 0bc7 00       		.byte	0
 3203 0bc8 00       		.byte	0
 3204 0bc9 00       		.byte	0
 3205 0bca 24       		.uleb128 0x24
 3206 0bcb 34090000 		.4byte	.LASF165
 3207 0bcf 07       		.byte	0x7
 3208 0bd0 4A01     		.2byte	0x14a
 3209 0bd2 3D010000 		.4byte	0x13d
 3210 0bd6 00000000 		.4byte	.LFB223
 3211 0bda 80000000 		.4byte	.LFE223-.LFB223
 3212 0bde 01       		.uleb128 0x1
 3213 0bdf 9C       		.byte	0x9c
 3214 0be0 1B0C0000 		.4byte	0xc1b
 3215 0be4 26       		.uleb128 0x26
 3216 0be5 BE060000 		.4byte	.LASF166
 3217 0be9 07       		.byte	0x7
 3218 0bea 4A01     		.2byte	0x14a
 3219 0bec 11010000 		.4byte	0x111
 3220 0bf0 02       		.uleb128 0x2
 3221 0bf1 91       		.byte	0x91
 3222 0bf2 5F       		.sleb128 -33
 3223 0bf3 26       		.uleb128 0x26
 3224 0bf4 10060000 		.4byte	.LASF167
 3225 0bf8 07       		.byte	0x7
 3226 0bf9 4A01     		.2byte	0x14a
 3227 0bfb 69010000 		.4byte	0x169
 3228 0bff 02       		.uleb128 0x2
 3229 0c00 91       		.byte	0x91
 3230 0c01 58       		.sleb128 -40
 3231 0c02 21       		.uleb128 0x21
 3232 0c03 1E000000 		.4byte	.LBB26
 3233 0c07 30000000 		.4byte	.LBE26-.LBB26
 3234 0c0b 20       		.uleb128 0x20
 3235 0c0c 767400   		.ascii	"vt\000"
 3236 0c0f 07       		.byte	0x7
 3237 0c10 4F01     		.2byte	0x14f
 3238 0c12 8C030000 		.4byte	0x38c
 3239 0c16 02       		.uleb128 0x2
 3240 0c17 91       		.byte	0x91
ARM GAS  C:\Users\PCHAUT~1\AppData\Local\Temp\ccwn6d1C.s 			page 58


 3241 0c18 60       		.sleb128 -32
 3242 0c19 00       		.byte	0
 3243 0c1a 00       		.byte	0
 3244 0c1b 27       		.uleb128 0x27
 3245 0c1c FE030000 		.4byte	.LASF171
 3246 0c20 07       		.byte	0x7
 3247 0c21 1301     		.2byte	0x113
 3248 0c23 00000000 		.4byte	.LFB222
 3249 0c27 94000000 		.4byte	.LFE222-.LFB222
 3250 0c2b 01       		.uleb128 0x1
 3251 0c2c 9C       		.byte	0x9c
 3252 0c2d 4D0C0000 		.4byte	0xc4d
 3253 0c31 25       		.uleb128 0x25
 3254 0c32 7000     		.ascii	"p\000"
 3255 0c34 07       		.byte	0x7
 3256 0c35 1301     		.2byte	0x113
 3257 0c37 8A030000 		.4byte	0x38a
 3258 0c3b 02       		.uleb128 0x2
 3259 0c3c 91       		.byte	0x91
 3260 0c3d 6C       		.sleb128 -20
 3261 0c3e 20       		.uleb128 0x20
 3262 0c3f 747000   		.ascii	"tp\000"
 3263 0c42 07       		.byte	0x7
 3264 0c43 1401     		.2byte	0x114
 3265 0c45 AD020000 		.4byte	0x2ad
 3266 0c49 02       		.uleb128 0x2
 3267 0c4a 91       		.byte	0x91
 3268 0c4b 70       		.sleb128 -16
 3269 0c4c 00       		.byte	0
 3270 0c4d 28       		.uleb128 0x28
 3271 0c4e C1070000 		.4byte	.LASF168
 3272 0c52 07       		.byte	0x7
 3273 0c53 FA       		.byte	0xfa
 3274 0c54 00000000 		.4byte	.LFB221
 3275 0c58 A0000000 		.4byte	.LFE221-.LFB221
 3276 0c5c 01       		.uleb128 0x1
 3277 0c5d 9C       		.byte	0x9c
 3278 0c5e BA0C0000 		.4byte	0xcba
 3279 0c62 29       		.uleb128 0x29
 3280 0c63 BE060000 		.4byte	.LASF166
 3281 0c67 07       		.byte	0x7
 3282 0c68 FA       		.byte	0xfa
 3283 0c69 11010000 		.4byte	0x111
 3284 0c6d 02       		.uleb128 0x2
 3285 0c6e 91       		.byte	0x91
 3286 0c6f 67       		.sleb128 -25
 3287 0c70 2A       		.uleb128 0x2a
 3288 0c71 6F747000 		.ascii	"otp\000"
 3289 0c75 07       		.byte	0x7
 3290 0c76 FB       		.byte	0xfb
 3291 0c77 AD020000 		.4byte	0x2ad
 3292 0c7b 02       		.uleb128 0x2
 3293 0c7c 91       		.byte	0x91
 3294 0c7d 6C       		.sleb128 -20
 3295 0c7e 21       		.uleb128 0x21
 3296 0c7f 54000000 		.4byte	.LBB23
 3297 0c83 2A000000 		.4byte	.LBE23-.LBB23
ARM GAS  C:\Users\PCHAUT~1\AppData\Local\Temp\ccwn6d1C.s 			page 59


 3298 0c87 20       		.uleb128 0x20
 3299 0c88 72313300 		.ascii	"r13\000"
 3300 0c8c 07       		.byte	0x7
 3301 0c8d 0D01     		.2byte	0x10d
 3302 0c8f 80060000 		.4byte	0x680
 3303 0c93 02       		.uleb128 0x2
 3304 0c94 91       		.byte	0x91
 3305 0c95 70       		.sleb128 -16
 3306 0c96 22       		.uleb128 0x22
 3307 0c97 DB0E0000 		.4byte	0xedb
 3308 0c9b 54000000 		.4byte	.LBB24
 3309 0c9f 08000000 		.4byte	.LBE24-.LBB24
 3310 0ca3 07       		.byte	0x7
 3311 0ca4 0D01     		.2byte	0x10d
 3312 0ca6 21       		.uleb128 0x21
 3313 0ca7 54000000 		.4byte	.LBB25
 3314 0cab 08000000 		.4byte	.LBE25-.LBB25
 3315 0caf 23       		.uleb128 0x23
 3316 0cb0 E80E0000 		.4byte	0xee8
 3317 0cb4 01       		.uleb128 0x1
 3318 0cb5 54       		.byte	0x54
 3319 0cb6 00       		.byte	0
 3320 0cb7 00       		.byte	0
 3321 0cb8 00       		.byte	0
 3322 0cb9 00       		.byte	0
 3323 0cba 2B       		.uleb128 0x2b
 3324 0cbb F7070000 		.4byte	.LASF169
 3325 0cbf 07       		.byte	0x7
 3326 0cc0 DA       		.byte	0xda
 3327 0cc1 AD020000 		.4byte	0x2ad
 3328 0cc5 00000000 		.4byte	.LFB220
 3329 0cc9 94000000 		.4byte	.LFE220-.LFB220
 3330 0ccd 01       		.uleb128 0x1
 3331 0cce 9C       		.byte	0x9c
 3332 0ccf FD0C0000 		.4byte	0xcfd
 3333 0cd3 2C       		.uleb128 0x2c
 3334 0cd4 747000   		.ascii	"tp\000"
 3335 0cd7 07       		.byte	0x7
 3336 0cd8 DA       		.byte	0xda
 3337 0cd9 AD020000 		.4byte	0x2ad
 3338 0cdd 02       		.uleb128 0x2
 3339 0cde 91       		.byte	0x91
 3340 0cdf 6C       		.sleb128 -20
 3341 0ce0 2A       		.uleb128 0x2a
 3342 0ce1 637000   		.ascii	"cp\000"
 3343 0ce4 07       		.byte	0x7
 3344 0ce5 DB       		.byte	0xdb
 3345 0ce6 AD020000 		.4byte	0x2ad
 3346 0cea 02       		.uleb128 0x2
 3347 0ceb 91       		.byte	0x91
 3348 0cec 70       		.sleb128 -16
 3349 0ced 2D       		.uleb128 0x2d
 3350 0cee 2D070000 		.4byte	.LASF185
 3351 0cf2 0D0D0000 		.4byte	0xd0d
 3352 0cf6 05       		.uleb128 0x5
 3353 0cf7 03       		.byte	0x3
 3354 0cf8 00000000 		.4byte	__func__.7854
ARM GAS  C:\Users\PCHAUT~1\AppData\Local\Temp\ccwn6d1C.s 			page 60


 3355 0cfc 00       		.byte	0
 3356 0cfd 17       		.uleb128 0x17
 3357 0cfe AE080000 		.4byte	0x8ae
 3358 0d02 0D0D0000 		.4byte	0xd0d
 3359 0d06 18       		.uleb128 0x18
 3360 0d07 37000000 		.4byte	0x37
 3361 0d0b 0B       		.byte	0xb
 3362 0d0c 00       		.byte	0
 3363 0d0d 1B       		.uleb128 0x1b
 3364 0d0e FD0C0000 		.4byte	0xcfd
 3365 0d12 2E       		.uleb128 0x2e
 3366 0d13 49010000 		.4byte	.LASF170
 3367 0d17 07       		.byte	0x7
 3368 0d18 41       		.byte	0x41
 3369 0d19 00000000 		.4byte	.LFB219
 3370 0d1d 40000000 		.4byte	.LFE219-.LFB219
 3371 0d21 01       		.uleb128 0x1
 3372 0d22 9C       		.byte	0x9c
 3373 0d23 2F       		.uleb128 0x2f
 3374 0d24 EF060000 		.4byte	.LASF172
 3375 0d28 06       		.byte	0x6
 3376 0d29 86       		.byte	0x86
 3377 0d2a 00000000 		.4byte	.LFB180
 3378 0d2e 34000000 		.4byte	.LFE180-.LFB180
 3379 0d32 01       		.uleb128 0x1
 3380 0d33 9C       		.byte	0x9c
 3381 0d34 460D0000 		.4byte	0xd46
 3382 0d38 2C       		.uleb128 0x2c
 3383 0d39 737000   		.ascii	"sp\000"
 3384 0d3c 06       		.byte	0x6
 3385 0d3d 86       		.byte	0x86
 3386 0d3e 460D0000 		.4byte	0xd46
 3387 0d42 02       		.uleb128 0x2
 3388 0d43 91       		.byte	0x91
 3389 0d44 6C       		.sleb128 -20
 3390 0d45 00       		.byte	0
 3391 0d46 0A       		.uleb128 0xa
 3392 0d47 04       		.byte	0x4
 3393 0d48 E6090000 		.4byte	0x9e6
 3394 0d4c 30       		.uleb128 0x30
 3395 0d4d 3E070000 		.4byte	.LASF175
 3396 0d51 05       		.byte	0x5
 3397 0d52 5101     		.2byte	0x151
 3398 0d54 280B0000 		.4byte	0xb28
 3399 0d58 00000000 		.4byte	.LFB159
 3400 0d5c 38000000 		.4byte	.LFE159-.LFB159
 3401 0d60 01       		.uleb128 0x1
 3402 0d61 9C       		.byte	0x9c
 3403 0d62 760D0000 		.4byte	0xd76
 3404 0d66 25       		.uleb128 0x25
 3405 0d67 76747000 		.ascii	"vtp\000"
 3406 0d6b 05       		.byte	0x5
 3407 0d6c 5101     		.2byte	0x151
 3408 0d6e B9080000 		.4byte	0x8b9
 3409 0d72 02       		.uleb128 0x2
 3410 0d73 91       		.byte	0x91
 3411 0d74 6C       		.sleb128 -20
ARM GAS  C:\Users\PCHAUT~1\AppData\Local\Temp\ccwn6d1C.s 			page 61


 3412 0d75 00       		.byte	0
 3413 0d76 31       		.uleb128 0x31
 3414 0d77 86060000 		.4byte	.LASF173
 3415 0d7b 04       		.byte	0x4
 3416 0d7c 9601     		.2byte	0x196
 3417 0d7e 00000000 		.4byte	.LFB148
 3418 0d82 30000000 		.4byte	.LFE148-.LFB148
 3419 0d86 01       		.uleb128 0x1
 3420 0d87 9C       		.byte	0x9c
 3421 0d88 31       		.uleb128 0x31
 3422 0d89 5C090000 		.4byte	.LASF174
 3423 0d8d 04       		.byte	0x4
 3424 0d8e 8201     		.2byte	0x182
 3425 0d90 00000000 		.4byte	.LFB147
 3426 0d94 30000000 		.4byte	.LFE147-.LFB147
 3427 0d98 01       		.uleb128 0x1
 3428 0d99 9C       		.byte	0x9c
 3429 0d9a 32       		.uleb128 0x32
 3430 0d9b 8C090000 		.4byte	.LASF190
 3431 0d9f 03       		.byte	0x3
 3432 0da0 C502     		.2byte	0x2c5
 3433 0da2 280B0000 		.4byte	0xb28
 3434 0da6 00000000 		.4byte	.LFB138
 3435 0daa 44000000 		.4byte	.LFE138-.LFB138
 3436 0dae 01       		.uleb128 0x1
 3437 0daf 9C       		.byte	0x9c
 3438 0db0 30       		.uleb128 0x30
 3439 0db1 1A030000 		.4byte	.LASF176
 3440 0db5 03       		.byte	0x3
 3441 0db6 B102     		.2byte	0x2b1
 3442 0db8 AD020000 		.4byte	0x2ad
 3443 0dbc 00000000 		.4byte	.LFB137
 3444 0dc0 3C000000 		.4byte	.LFE137-.LFB137
 3445 0dc4 01       		.uleb128 0x1
 3446 0dc5 9C       		.byte	0x9c
 3447 0dc6 D90D0000 		.4byte	0xdd9
 3448 0dca 25       		.uleb128 0x25
 3449 0dcb 747000   		.ascii	"tp\000"
 3450 0dce 03       		.byte	0x3
 3451 0dcf B102     		.2byte	0x2b1
 3452 0dd1 AD020000 		.4byte	0x2ad
 3453 0dd5 02       		.uleb128 0x2
 3454 0dd6 91       		.byte	0x91
 3455 0dd7 6C       		.sleb128 -20
 3456 0dd8 00       		.byte	0
 3457 0dd9 30       		.uleb128 0x30
 3458 0dda 67080000 		.4byte	.LASF177
 3459 0dde 03       		.byte	0x3
 3460 0ddf 9F02     		.2byte	0x29f
 3461 0de1 AD020000 		.4byte	0x2ad
 3462 0de5 00000000 		.4byte	.LFB135
 3463 0de9 40000000 		.4byte	.LFE135-.LFB135
 3464 0ded 01       		.uleb128 0x1
 3465 0dee 9C       		.byte	0x9c
 3466 0def 110E0000 		.4byte	0xe11
 3467 0df3 25       		.uleb128 0x25
 3468 0df4 74717000 		.ascii	"tqp\000"
ARM GAS  C:\Users\PCHAUT~1\AppData\Local\Temp\ccwn6d1C.s 			page 62


 3469 0df8 03       		.byte	0x3
 3470 0df9 9F02     		.2byte	0x29f
 3471 0dfb 110E0000 		.4byte	0xe11
 3472 0dff 02       		.uleb128 0x2
 3473 0e00 91       		.byte	0x91
 3474 0e01 6C       		.sleb128 -20
 3475 0e02 20       		.uleb128 0x20
 3476 0e03 747000   		.ascii	"tp\000"
 3477 0e06 03       		.byte	0x3
 3478 0e07 A002     		.2byte	0x2a0
 3479 0e09 AD020000 		.4byte	0x2ad
 3480 0e0d 02       		.uleb128 0x2
 3481 0e0e 91       		.byte	0x91
 3482 0e0f 70       		.sleb128 -16
 3483 0e10 00       		.byte	0
 3484 0e11 0A       		.uleb128 0xa
 3485 0e12 04       		.byte	0x4
 3486 0e13 D7020000 		.4byte	0x2d7
 3487 0e17 27       		.uleb128 0x27
 3488 0e18 86000000 		.4byte	.LASF178
 3489 0e1c 03       		.byte	0x3
 3490 0e1d 5A02     		.2byte	0x25a
 3491 0e1f 00000000 		.4byte	.LFB128
 3492 0e23 34000000 		.4byte	.LFE128-.LFB128
 3493 0e27 01       		.uleb128 0x1
 3494 0e28 9C       		.byte	0x9c
 3495 0e29 3D0E0000 		.4byte	0xe3d
 3496 0e2d 25       		.uleb128 0x25
 3497 0e2e 74717000 		.ascii	"tqp\000"
 3498 0e32 03       		.byte	0x3
 3499 0e33 5A02     		.2byte	0x25a
 3500 0e35 110E0000 		.4byte	0xe11
 3501 0e39 02       		.uleb128 0x2
 3502 0e3a 91       		.byte	0x91
 3503 0e3b 6C       		.sleb128 -20
 3504 0e3c 00       		.byte	0
 3505 0e3d 31       		.uleb128 0x31
 3506 0e3e 44080000 		.4byte	.LASF179
 3507 0e42 01       		.byte	0x1
 3508 0e43 E401     		.2byte	0x1e4
 3509 0e45 00000000 		.4byte	.LFB119
 3510 0e49 28000000 		.4byte	.LFE119-.LFB119
 3511 0e4d 01       		.uleb128 0x1
 3512 0e4e 9C       		.byte	0x9c
 3513 0e4f 31       		.uleb128 0x31
 3514 0e50 CF080000 		.4byte	.LASF180
 3515 0e54 01       		.byte	0x1
 3516 0e55 D901     		.2byte	0x1d9
 3517 0e57 00000000 		.4byte	.LFB118
 3518 0e5b 28000000 		.4byte	.LFE118-.LFB118
 3519 0e5f 01       		.uleb128 0x1
 3520 0e60 9C       		.byte	0x9c
 3521 0e61 27       		.uleb128 0x27
 3522 0e62 A7010000 		.4byte	.LASF181
 3523 0e66 01       		.byte	0x1
 3524 0e67 CA01     		.2byte	0x1ca
 3525 0e69 00000000 		.4byte	.LFB117
ARM GAS  C:\Users\PCHAUT~1\AppData\Local\Temp\ccwn6d1C.s 			page 63


 3526 0e6d 30000000 		.4byte	.LFE117-.LFB117
 3527 0e71 01       		.uleb128 0x1
 3528 0e72 9C       		.byte	0x9c
 3529 0e73 910E0000 		.4byte	0xe91
 3530 0e77 22       		.uleb128 0x22
 3531 0e78 C10E0000 		.4byte	0xec1
 3532 0e7c 0E000000 		.4byte	.LBB21
 3533 0e80 06000000 		.4byte	.LBE21-.LBB21
 3534 0e84 01       		.byte	0x1
 3535 0e85 CD01     		.2byte	0x1cd
 3536 0e87 33       		.uleb128 0x33
 3537 0e88 CE0E0000 		.4byte	0xece
 3538 0e8c 02       		.uleb128 0x2
 3539 0e8d 91       		.byte	0x91
 3540 0e8e 70       		.sleb128 -16
 3541 0e8f 00       		.byte	0
 3542 0e90 00       		.byte	0
 3543 0e91 27       		.uleb128 0x27
 3544 0e92 91000000 		.4byte	.LASF182
 3545 0e96 01       		.byte	0x1
 3546 0e97 BC01     		.2byte	0x1bc
 3547 0e99 00000000 		.4byte	.LFB116
 3548 0e9d 30000000 		.4byte	.LFE116-.LFB116
 3549 0ea1 01       		.uleb128 0x1
 3550 0ea2 9C       		.byte	0x9c
 3551 0ea3 C10E0000 		.4byte	0xec1
 3552 0ea7 22       		.uleb128 0x22
 3553 0ea8 C10E0000 		.4byte	0xec1
 3554 0eac 0E000000 		.4byte	.LBB19
 3555 0eb0 06000000 		.4byte	.LBE19-.LBB19
 3556 0eb4 01       		.byte	0x1
 3557 0eb5 BF01     		.2byte	0x1bf
 3558 0eb7 33       		.uleb128 0x33
 3559 0eb8 CE0E0000 		.4byte	0xece
 3560 0ebc 02       		.uleb128 0x2
 3561 0ebd 91       		.byte	0x91
 3562 0ebe 70       		.sleb128 -16
 3563 0ebf 00       		.byte	0
 3564 0ec0 00       		.byte	0
 3565 0ec1 34       		.uleb128 0x34
 3566 0ec2 A2080000 		.4byte	.LASF183
 3567 0ec6 02       		.byte	0x2
 3568 0ec7 2002     		.2byte	0x220
 3569 0ec9 03       		.byte	0x3
 3570 0eca DB0E0000 		.4byte	0xedb
 3571 0ece 35       		.uleb128 0x35
 3572 0ecf C5030000 		.4byte	.LASF191
 3573 0ed3 02       		.byte	0x2
 3574 0ed4 2002     		.2byte	0x220
 3575 0ed6 DA000000 		.4byte	0xda
 3576 0eda 00       		.byte	0
 3577 0edb 36       		.uleb128 0x36
 3578 0edc E2080000 		.4byte	.LASF184
 3579 0ee0 02       		.byte	0x2
 3580 0ee1 A801     		.2byte	0x1a8
 3581 0ee3 DA000000 		.4byte	0xda
 3582 0ee7 03       		.byte	0x3
ARM GAS  C:\Users\PCHAUT~1\AppData\Local\Temp\ccwn6d1C.s 			page 64


 3583 0ee8 37       		.uleb128 0x37
 3584 0ee9 BF090000 		.4byte	.LASF186
 3585 0eed 02       		.byte	0x2
 3586 0eee AA01     		.2byte	0x1aa
 3587 0ef0 DA000000 		.4byte	0xda
 3588 0ef4 00       		.byte	0
 3589 0ef5 00       		.byte	0
 3590              		.section	.debug_abbrev,"",%progbits
 3591              	.Ldebug_abbrev0:
 3592 0000 01       		.uleb128 0x1
 3593 0001 11       		.uleb128 0x11
 3594 0002 01       		.byte	0x1
 3595 0003 25       		.uleb128 0x25
 3596 0004 0E       		.uleb128 0xe
 3597 0005 13       		.uleb128 0x13
 3598 0006 0B       		.uleb128 0xb
 3599 0007 03       		.uleb128 0x3
 3600 0008 0E       		.uleb128 0xe
 3601 0009 1B       		.uleb128 0x1b
 3602 000a 0E       		.uleb128 0xe
 3603 000b 55       		.uleb128 0x55
 3604 000c 17       		.uleb128 0x17
 3605 000d 11       		.uleb128 0x11
 3606 000e 01       		.uleb128 0x1
 3607 000f 10       		.uleb128 0x10
 3608 0010 17       		.uleb128 0x17
 3609 0011 00       		.byte	0
 3610 0012 00       		.byte	0
 3611 0013 02       		.uleb128 0x2
 3612 0014 24       		.uleb128 0x24
 3613 0015 00       		.byte	0
 3614 0016 0B       		.uleb128 0xb
 3615 0017 0B       		.uleb128 0xb
 3616 0018 3E       		.uleb128 0x3e
 3617 0019 0B       		.uleb128 0xb
 3618 001a 03       		.uleb128 0x3
 3619 001b 08       		.uleb128 0x8
 3620 001c 00       		.byte	0
 3621 001d 00       		.byte	0
 3622 001e 03       		.uleb128 0x3
 3623 001f 16       		.uleb128 0x16
 3624 0020 00       		.byte	0
 3625 0021 03       		.uleb128 0x3
 3626 0022 0E       		.uleb128 0xe
 3627 0023 3A       		.uleb128 0x3a
 3628 0024 0B       		.uleb128 0xb
 3629 0025 3B       		.uleb128 0x3b
 3630 0026 0B       		.uleb128 0xb
 3631 0027 49       		.uleb128 0x49
 3632 0028 13       		.uleb128 0x13
 3633 0029 00       		.byte	0
 3634 002a 00       		.byte	0
 3635 002b 04       		.uleb128 0x4
 3636 002c 24       		.uleb128 0x24
 3637 002d 00       		.byte	0
 3638 002e 0B       		.uleb128 0xb
 3639 002f 0B       		.uleb128 0xb
ARM GAS  C:\Users\PCHAUT~1\AppData\Local\Temp\ccwn6d1C.s 			page 65


 3640 0030 3E       		.uleb128 0x3e
 3641 0031 0B       		.uleb128 0xb
 3642 0032 03       		.uleb128 0x3
 3643 0033 0E       		.uleb128 0xe
 3644 0034 00       		.byte	0
 3645 0035 00       		.byte	0
 3646 0036 05       		.uleb128 0x5
 3647 0037 35       		.uleb128 0x35
 3648 0038 00       		.byte	0
 3649 0039 49       		.uleb128 0x49
 3650 003a 13       		.uleb128 0x13
 3651 003b 00       		.byte	0
 3652 003c 00       		.byte	0
 3653 003d 06       		.uleb128 0x6
 3654 003e 13       		.uleb128 0x13
 3655 003f 01       		.byte	0x1
 3656 0040 03       		.uleb128 0x3
 3657 0041 0E       		.uleb128 0xe
 3658 0042 0B       		.uleb128 0xb
 3659 0043 0B       		.uleb128 0xb
 3660 0044 3A       		.uleb128 0x3a
 3661 0045 0B       		.uleb128 0xb
 3662 0046 3B       		.uleb128 0x3b
 3663 0047 0B       		.uleb128 0xb
 3664 0048 01       		.uleb128 0x1
 3665 0049 13       		.uleb128 0x13
 3666 004a 00       		.byte	0
 3667 004b 00       		.byte	0
 3668 004c 07       		.uleb128 0x7
 3669 004d 0D       		.uleb128 0xd
 3670 004e 00       		.byte	0
 3671 004f 03       		.uleb128 0x3
 3672 0050 0E       		.uleb128 0xe
 3673 0051 3A       		.uleb128 0x3a
 3674 0052 0B       		.uleb128 0xb
 3675 0053 3B       		.uleb128 0x3b
 3676 0054 0B       		.uleb128 0xb
 3677 0055 49       		.uleb128 0x49
 3678 0056 13       		.uleb128 0x13
 3679 0057 38       		.uleb128 0x38
 3680 0058 0B       		.uleb128 0xb
 3681 0059 00       		.byte	0
 3682 005a 00       		.byte	0
 3683 005b 08       		.uleb128 0x8
 3684 005c 0D       		.uleb128 0xd
 3685 005d 00       		.byte	0
 3686 005e 03       		.uleb128 0x3
 3687 005f 08       		.uleb128 0x8
 3688 0060 3A       		.uleb128 0x3a
 3689 0061 0B       		.uleb128 0xb
 3690 0062 3B       		.uleb128 0x3b
 3691 0063 05       		.uleb128 0x5
 3692 0064 49       		.uleb128 0x49
 3693 0065 13       		.uleb128 0x13
 3694 0066 38       		.uleb128 0x38
 3695 0067 0B       		.uleb128 0xb
 3696 0068 00       		.byte	0
ARM GAS  C:\Users\PCHAUT~1\AppData\Local\Temp\ccwn6d1C.s 			page 66


 3697 0069 00       		.byte	0
 3698 006a 09       		.uleb128 0x9
 3699 006b 0D       		.uleb128 0xd
 3700 006c 00       		.byte	0
 3701 006d 03       		.uleb128 0x3
 3702 006e 0E       		.uleb128 0xe
 3703 006f 3A       		.uleb128 0x3a
 3704 0070 0B       		.uleb128 0xb
 3705 0071 3B       		.uleb128 0x3b
 3706 0072 05       		.uleb128 0x5
 3707 0073 49       		.uleb128 0x49
 3708 0074 13       		.uleb128 0x13
 3709 0075 38       		.uleb128 0x38
 3710 0076 0B       		.uleb128 0xb
 3711 0077 00       		.byte	0
 3712 0078 00       		.byte	0
 3713 0079 0A       		.uleb128 0xa
 3714 007a 0F       		.uleb128 0xf
 3715 007b 00       		.byte	0
 3716 007c 0B       		.uleb128 0xb
 3717 007d 0B       		.uleb128 0xb
 3718 007e 49       		.uleb128 0x49
 3719 007f 13       		.uleb128 0x13
 3720 0080 00       		.byte	0
 3721 0081 00       		.byte	0
 3722 0082 0B       		.uleb128 0xb
 3723 0083 13       		.uleb128 0x13
 3724 0084 01       		.byte	0x1
 3725 0085 03       		.uleb128 0x3
 3726 0086 0E       		.uleb128 0xe
 3727 0087 0B       		.uleb128 0xb
 3728 0088 0B       		.uleb128 0xb
 3729 0089 3A       		.uleb128 0x3a
 3730 008a 0B       		.uleb128 0xb
 3731 008b 3B       		.uleb128 0x3b
 3732 008c 05       		.uleb128 0x5
 3733 008d 01       		.uleb128 0x1
 3734 008e 13       		.uleb128 0x13
 3735 008f 00       		.byte	0
 3736 0090 00       		.byte	0
 3737 0091 0C       		.uleb128 0xc
 3738 0092 15       		.uleb128 0x15
 3739 0093 01       		.byte	0x1
 3740 0094 27       		.uleb128 0x27
 3741 0095 19       		.uleb128 0x19
 3742 0096 01       		.uleb128 0x1
 3743 0097 13       		.uleb128 0x13
 3744 0098 00       		.byte	0
 3745 0099 00       		.byte	0
 3746 009a 0D       		.uleb128 0xd
 3747 009b 05       		.uleb128 0x5
 3748 009c 00       		.byte	0
 3749 009d 49       		.uleb128 0x49
 3750 009e 13       		.uleb128 0x13
 3751 009f 00       		.byte	0
 3752 00a0 00       		.byte	0
 3753 00a1 0E       		.uleb128 0xe
ARM GAS  C:\Users\PCHAUT~1\AppData\Local\Temp\ccwn6d1C.s 			page 67


 3754 00a2 0F       		.uleb128 0xf
 3755 00a3 00       		.byte	0
 3756 00a4 0B       		.uleb128 0xb
 3757 00a5 0B       		.uleb128 0xb
 3758 00a6 00       		.byte	0
 3759 00a7 00       		.byte	0
 3760 00a8 0F       		.uleb128 0xf
 3761 00a9 13       		.uleb128 0x13
 3762 00aa 01       		.byte	0x1
 3763 00ab 03       		.uleb128 0x3
 3764 00ac 0E       		.uleb128 0xe
 3765 00ad 0B       		.uleb128 0xb
 3766 00ae 05       		.uleb128 0x5
 3767 00af 3A       		.uleb128 0x3a
 3768 00b0 0B       		.uleb128 0xb
 3769 00b1 3B       		.uleb128 0x3b
 3770 00b2 05       		.uleb128 0x5
 3771 00b3 01       		.uleb128 0x1
 3772 00b4 13       		.uleb128 0x13
 3773 00b5 00       		.byte	0
 3774 00b6 00       		.byte	0
 3775 00b7 10       		.uleb128 0x10
 3776 00b8 0D       		.uleb128 0xd
 3777 00b9 00       		.byte	0
 3778 00ba 03       		.uleb128 0x3
 3779 00bb 0E       		.uleb128 0xe
 3780 00bc 3A       		.uleb128 0x3a
 3781 00bd 0B       		.uleb128 0xb
 3782 00be 3B       		.uleb128 0x3b
 3783 00bf 05       		.uleb128 0x5
 3784 00c0 49       		.uleb128 0x49
 3785 00c1 13       		.uleb128 0x13
 3786 00c2 38       		.uleb128 0x38
 3787 00c3 05       		.uleb128 0x5
 3788 00c4 00       		.byte	0
 3789 00c5 00       		.byte	0
 3790 00c6 11       		.uleb128 0x11
 3791 00c7 0D       		.uleb128 0xd
 3792 00c8 00       		.byte	0
 3793 00c9 03       		.uleb128 0x3
 3794 00ca 08       		.uleb128 0x8
 3795 00cb 3A       		.uleb128 0x3a
 3796 00cc 0B       		.uleb128 0xb
 3797 00cd 3B       		.uleb128 0x3b
 3798 00ce 05       		.uleb128 0x5
 3799 00cf 49       		.uleb128 0x49
 3800 00d0 13       		.uleb128 0x13
 3801 00d1 38       		.uleb128 0x38
 3802 00d2 05       		.uleb128 0x5
 3803 00d3 00       		.byte	0
 3804 00d4 00       		.byte	0
 3805 00d5 12       		.uleb128 0x12
 3806 00d6 34       		.uleb128 0x34
 3807 00d7 00       		.byte	0
 3808 00d8 03       		.uleb128 0x3
 3809 00d9 0E       		.uleb128 0xe
 3810 00da 3A       		.uleb128 0x3a
ARM GAS  C:\Users\PCHAUT~1\AppData\Local\Temp\ccwn6d1C.s 			page 68


 3811 00db 0B       		.uleb128 0xb
 3812 00dc 3B       		.uleb128 0x3b
 3813 00dd 05       		.uleb128 0x5
 3814 00de 49       		.uleb128 0x49
 3815 00df 13       		.uleb128 0x13
 3816 00e0 3F       		.uleb128 0x3f
 3817 00e1 19       		.uleb128 0x19
 3818 00e2 3C       		.uleb128 0x3c
 3819 00e3 19       		.uleb128 0x19
 3820 00e4 00       		.byte	0
 3821 00e5 00       		.byte	0
 3822 00e6 13       		.uleb128 0x13
 3823 00e7 34       		.uleb128 0x34
 3824 00e8 00       		.byte	0
 3825 00e9 03       		.uleb128 0x3
 3826 00ea 0E       		.uleb128 0xe
 3827 00eb 3A       		.uleb128 0x3a
 3828 00ec 0B       		.uleb128 0xb
 3829 00ed 3B       		.uleb128 0x3b
 3830 00ee 0B       		.uleb128 0xb
 3831 00ef 49       		.uleb128 0x49
 3832 00f0 13       		.uleb128 0x13
 3833 00f1 3F       		.uleb128 0x3f
 3834 00f2 19       		.uleb128 0x19
 3835 00f3 3C       		.uleb128 0x3c
 3836 00f4 19       		.uleb128 0x19
 3837 00f5 00       		.byte	0
 3838 00f6 00       		.byte	0
 3839 00f7 14       		.uleb128 0x14
 3840 00f8 0D       		.uleb128 0xd
 3841 00f9 00       		.byte	0
 3842 00fa 03       		.uleb128 0x3
 3843 00fb 08       		.uleb128 0x8
 3844 00fc 3A       		.uleb128 0x3a
 3845 00fd 0B       		.uleb128 0xb
 3846 00fe 3B       		.uleb128 0x3b
 3847 00ff 0B       		.uleb128 0xb
 3848 0100 49       		.uleb128 0x49
 3849 0101 13       		.uleb128 0x13
 3850 0102 38       		.uleb128 0x38
 3851 0103 0B       		.uleb128 0xb
 3852 0104 00       		.byte	0
 3853 0105 00       		.byte	0
 3854 0106 15       		.uleb128 0x15
 3855 0107 13       		.uleb128 0x13
 3856 0108 01       		.byte	0x1
 3857 0109 0B       		.uleb128 0xb
 3858 010a 0B       		.uleb128 0xb
 3859 010b 3A       		.uleb128 0x3a
 3860 010c 0B       		.uleb128 0xb
 3861 010d 3B       		.uleb128 0x3b
 3862 010e 0B       		.uleb128 0xb
 3863 010f 01       		.uleb128 0x1
 3864 0110 13       		.uleb128 0x13
 3865 0111 00       		.byte	0
 3866 0112 00       		.byte	0
 3867 0113 16       		.uleb128 0x16
ARM GAS  C:\Users\PCHAUT~1\AppData\Local\Temp\ccwn6d1C.s 			page 69


 3868 0114 13       		.uleb128 0x13
 3869 0115 01       		.byte	0x1
 3870 0116 0B       		.uleb128 0xb
 3871 0117 05       		.uleb128 0x5
 3872 0118 3A       		.uleb128 0x3a
 3873 0119 0B       		.uleb128 0xb
 3874 011a 3B       		.uleb128 0x3b
 3875 011b 0B       		.uleb128 0xb
 3876 011c 01       		.uleb128 0x1
 3877 011d 13       		.uleb128 0x13
 3878 011e 00       		.byte	0
 3879 011f 00       		.byte	0
 3880 0120 17       		.uleb128 0x17
 3881 0121 01       		.uleb128 0x1
 3882 0122 01       		.byte	0x1
 3883 0123 49       		.uleb128 0x49
 3884 0124 13       		.uleb128 0x13
 3885 0125 01       		.uleb128 0x1
 3886 0126 13       		.uleb128 0x13
 3887 0127 00       		.byte	0
 3888 0128 00       		.byte	0
 3889 0129 18       		.uleb128 0x18
 3890 012a 21       		.uleb128 0x21
 3891 012b 00       		.byte	0
 3892 012c 49       		.uleb128 0x49
 3893 012d 13       		.uleb128 0x13
 3894 012e 2F       		.uleb128 0x2f
 3895 012f 0B       		.uleb128 0xb
 3896 0130 00       		.byte	0
 3897 0131 00       		.byte	0
 3898 0132 19       		.uleb128 0x19
 3899 0133 17       		.uleb128 0x17
 3900 0134 01       		.byte	0x1
 3901 0135 0B       		.uleb128 0xb
 3902 0136 0B       		.uleb128 0xb
 3903 0137 3A       		.uleb128 0x3a
 3904 0138 0B       		.uleb128 0xb
 3905 0139 3B       		.uleb128 0x3b
 3906 013a 0B       		.uleb128 0xb
 3907 013b 01       		.uleb128 0x1
 3908 013c 13       		.uleb128 0x13
 3909 013d 00       		.byte	0
 3910 013e 00       		.byte	0
 3911 013f 1A       		.uleb128 0x1a
 3912 0140 0D       		.uleb128 0xd
 3913 0141 00       		.byte	0
 3914 0142 03       		.uleb128 0x3
 3915 0143 0E       		.uleb128 0xe
 3916 0144 3A       		.uleb128 0x3a
 3917 0145 0B       		.uleb128 0xb
 3918 0146 3B       		.uleb128 0x3b
 3919 0147 05       		.uleb128 0x5
 3920 0148 49       		.uleb128 0x49
 3921 0149 13       		.uleb128 0x13
 3922 014a 00       		.byte	0
 3923 014b 00       		.byte	0
 3924 014c 1B       		.uleb128 0x1b
ARM GAS  C:\Users\PCHAUT~1\AppData\Local\Temp\ccwn6d1C.s 			page 70


 3925 014d 26       		.uleb128 0x26
 3926 014e 00       		.byte	0
 3927 014f 49       		.uleb128 0x49
 3928 0150 13       		.uleb128 0x13
 3929 0151 00       		.byte	0
 3930 0152 00       		.byte	0
 3931 0153 1C       		.uleb128 0x1c
 3932 0154 34       		.uleb128 0x34
 3933 0155 00       		.byte	0
 3934 0156 03       		.uleb128 0x3
 3935 0157 08       		.uleb128 0x8
 3936 0158 3A       		.uleb128 0x3a
 3937 0159 0B       		.uleb128 0xb
 3938 015a 3B       		.uleb128 0x3b
 3939 015b 05       		.uleb128 0x5
 3940 015c 49       		.uleb128 0x49
 3941 015d 13       		.uleb128 0x13
 3942 015e 3F       		.uleb128 0x3f
 3943 015f 19       		.uleb128 0x19
 3944 0160 3C       		.uleb128 0x3c
 3945 0161 19       		.uleb128 0x19
 3946 0162 00       		.byte	0
 3947 0163 00       		.byte	0
 3948 0164 1D       		.uleb128 0x1d
 3949 0165 34       		.uleb128 0x34
 3950 0166 00       		.byte	0
 3951 0167 47       		.uleb128 0x47
 3952 0168 13       		.uleb128 0x13
 3953 0169 3A       		.uleb128 0x3a
 3954 016a 0B       		.uleb128 0xb
 3955 016b 3B       		.uleb128 0x3b
 3956 016c 0B       		.uleb128 0xb
 3957 016d 02       		.uleb128 0x2
 3958 016e 18       		.uleb128 0x18
 3959 016f 00       		.byte	0
 3960 0170 00       		.byte	0
 3961 0171 1E       		.uleb128 0x1e
 3962 0172 2E       		.uleb128 0x2e
 3963 0173 00       		.byte	0
 3964 0174 3F       		.uleb128 0x3f
 3965 0175 19       		.uleb128 0x19
 3966 0176 03       		.uleb128 0x3
 3967 0177 0E       		.uleb128 0xe
 3968 0178 3A       		.uleb128 0x3a
 3969 0179 0B       		.uleb128 0xb
 3970 017a 3B       		.uleb128 0x3b
 3971 017b 05       		.uleb128 0x5
 3972 017c 27       		.uleb128 0x27
 3973 017d 19       		.uleb128 0x19
 3974 017e 11       		.uleb128 0x11
 3975 017f 01       		.uleb128 0x1
 3976 0180 12       		.uleb128 0x12
 3977 0181 06       		.uleb128 0x6
 3978 0182 40       		.uleb128 0x40
 3979 0183 18       		.uleb128 0x18
 3980 0184 9642     		.uleb128 0x2116
 3981 0186 19       		.uleb128 0x19
ARM GAS  C:\Users\PCHAUT~1\AppData\Local\Temp\ccwn6d1C.s 			page 71


 3982 0187 00       		.byte	0
 3983 0188 00       		.byte	0
 3984 0189 1F       		.uleb128 0x1f
 3985 018a 2E       		.uleb128 0x2e
 3986 018b 01       		.byte	0x1
 3987 018c 3F       		.uleb128 0x3f
 3988 018d 19       		.uleb128 0x19
 3989 018e 03       		.uleb128 0x3
 3990 018f 0E       		.uleb128 0xe
 3991 0190 3A       		.uleb128 0x3a
 3992 0191 0B       		.uleb128 0xb
 3993 0192 3B       		.uleb128 0x3b
 3994 0193 05       		.uleb128 0x5
 3995 0194 27       		.uleb128 0x27
 3996 0195 19       		.uleb128 0x19
 3997 0196 11       		.uleb128 0x11
 3998 0197 01       		.uleb128 0x1
 3999 0198 12       		.uleb128 0x12
 4000 0199 06       		.uleb128 0x6
 4001 019a 40       		.uleb128 0x40
 4002 019b 18       		.uleb128 0x18
 4003 019c 9642     		.uleb128 0x2116
 4004 019e 19       		.uleb128 0x19
 4005 019f 01       		.uleb128 0x1
 4006 01a0 13       		.uleb128 0x13
 4007 01a1 00       		.byte	0
 4008 01a2 00       		.byte	0
 4009 01a3 20       		.uleb128 0x20
 4010 01a4 34       		.uleb128 0x34
 4011 01a5 00       		.byte	0
 4012 01a6 03       		.uleb128 0x3
 4013 01a7 08       		.uleb128 0x8
 4014 01a8 3A       		.uleb128 0x3a
 4015 01a9 0B       		.uleb128 0xb
 4016 01aa 3B       		.uleb128 0x3b
 4017 01ab 05       		.uleb128 0x5
 4018 01ac 49       		.uleb128 0x49
 4019 01ad 13       		.uleb128 0x13
 4020 01ae 02       		.uleb128 0x2
 4021 01af 18       		.uleb128 0x18
 4022 01b0 00       		.byte	0
 4023 01b1 00       		.byte	0
 4024 01b2 21       		.uleb128 0x21
 4025 01b3 0B       		.uleb128 0xb
 4026 01b4 01       		.byte	0x1
 4027 01b5 11       		.uleb128 0x11
 4028 01b6 01       		.uleb128 0x1
 4029 01b7 12       		.uleb128 0x12
 4030 01b8 06       		.uleb128 0x6
 4031 01b9 00       		.byte	0
 4032 01ba 00       		.byte	0
 4033 01bb 22       		.uleb128 0x22
 4034 01bc 1D       		.uleb128 0x1d
 4035 01bd 01       		.byte	0x1
 4036 01be 31       		.uleb128 0x31
 4037 01bf 13       		.uleb128 0x13
 4038 01c0 11       		.uleb128 0x11
ARM GAS  C:\Users\PCHAUT~1\AppData\Local\Temp\ccwn6d1C.s 			page 72


 4039 01c1 01       		.uleb128 0x1
 4040 01c2 12       		.uleb128 0x12
 4041 01c3 06       		.uleb128 0x6
 4042 01c4 58       		.uleb128 0x58
 4043 01c5 0B       		.uleb128 0xb
 4044 01c6 59       		.uleb128 0x59
 4045 01c7 05       		.uleb128 0x5
 4046 01c8 00       		.byte	0
 4047 01c9 00       		.byte	0
 4048 01ca 23       		.uleb128 0x23
 4049 01cb 34       		.uleb128 0x34
 4050 01cc 00       		.byte	0
 4051 01cd 31       		.uleb128 0x31
 4052 01ce 13       		.uleb128 0x13
 4053 01cf 02       		.uleb128 0x2
 4054 01d0 18       		.uleb128 0x18
 4055 01d1 00       		.byte	0
 4056 01d2 00       		.byte	0
 4057 01d3 24       		.uleb128 0x24
 4058 01d4 2E       		.uleb128 0x2e
 4059 01d5 01       		.byte	0x1
 4060 01d6 3F       		.uleb128 0x3f
 4061 01d7 19       		.uleb128 0x19
 4062 01d8 03       		.uleb128 0x3
 4063 01d9 0E       		.uleb128 0xe
 4064 01da 3A       		.uleb128 0x3a
 4065 01db 0B       		.uleb128 0xb
 4066 01dc 3B       		.uleb128 0x3b
 4067 01dd 05       		.uleb128 0x5
 4068 01de 27       		.uleb128 0x27
 4069 01df 19       		.uleb128 0x19
 4070 01e0 49       		.uleb128 0x49
 4071 01e1 13       		.uleb128 0x13
 4072 01e2 11       		.uleb128 0x11
 4073 01e3 01       		.uleb128 0x1
 4074 01e4 12       		.uleb128 0x12
 4075 01e5 06       		.uleb128 0x6
 4076 01e6 40       		.uleb128 0x40
 4077 01e7 18       		.uleb128 0x18
 4078 01e8 9642     		.uleb128 0x2116
 4079 01ea 19       		.uleb128 0x19
 4080 01eb 01       		.uleb128 0x1
 4081 01ec 13       		.uleb128 0x13
 4082 01ed 00       		.byte	0
 4083 01ee 00       		.byte	0
 4084 01ef 25       		.uleb128 0x25
 4085 01f0 05       		.uleb128 0x5
 4086 01f1 00       		.byte	0
 4087 01f2 03       		.uleb128 0x3
 4088 01f3 08       		.uleb128 0x8
 4089 01f4 3A       		.uleb128 0x3a
 4090 01f5 0B       		.uleb128 0xb
 4091 01f6 3B       		.uleb128 0x3b
 4092 01f7 05       		.uleb128 0x5
 4093 01f8 49       		.uleb128 0x49
 4094 01f9 13       		.uleb128 0x13
 4095 01fa 02       		.uleb128 0x2
ARM GAS  C:\Users\PCHAUT~1\AppData\Local\Temp\ccwn6d1C.s 			page 73


 4096 01fb 18       		.uleb128 0x18
 4097 01fc 00       		.byte	0
 4098 01fd 00       		.byte	0
 4099 01fe 26       		.uleb128 0x26
 4100 01ff 05       		.uleb128 0x5
 4101 0200 00       		.byte	0
 4102 0201 03       		.uleb128 0x3
 4103 0202 0E       		.uleb128 0xe
 4104 0203 3A       		.uleb128 0x3a
 4105 0204 0B       		.uleb128 0xb
 4106 0205 3B       		.uleb128 0x3b
 4107 0206 05       		.uleb128 0x5
 4108 0207 49       		.uleb128 0x49
 4109 0208 13       		.uleb128 0x13
 4110 0209 02       		.uleb128 0x2
 4111 020a 18       		.uleb128 0x18
 4112 020b 00       		.byte	0
 4113 020c 00       		.byte	0
 4114 020d 27       		.uleb128 0x27
 4115 020e 2E       		.uleb128 0x2e
 4116 020f 01       		.byte	0x1
 4117 0210 03       		.uleb128 0x3
 4118 0211 0E       		.uleb128 0xe
 4119 0212 3A       		.uleb128 0x3a
 4120 0213 0B       		.uleb128 0xb
 4121 0214 3B       		.uleb128 0x3b
 4122 0215 05       		.uleb128 0x5
 4123 0216 27       		.uleb128 0x27
 4124 0217 19       		.uleb128 0x19
 4125 0218 11       		.uleb128 0x11
 4126 0219 01       		.uleb128 0x1
 4127 021a 12       		.uleb128 0x12
 4128 021b 06       		.uleb128 0x6
 4129 021c 40       		.uleb128 0x40
 4130 021d 18       		.uleb128 0x18
 4131 021e 9642     		.uleb128 0x2116
 4132 0220 19       		.uleb128 0x19
 4133 0221 01       		.uleb128 0x1
 4134 0222 13       		.uleb128 0x13
 4135 0223 00       		.byte	0
 4136 0224 00       		.byte	0
 4137 0225 28       		.uleb128 0x28
 4138 0226 2E       		.uleb128 0x2e
 4139 0227 01       		.byte	0x1
 4140 0228 3F       		.uleb128 0x3f
 4141 0229 19       		.uleb128 0x19
 4142 022a 03       		.uleb128 0x3
 4143 022b 0E       		.uleb128 0xe
 4144 022c 3A       		.uleb128 0x3a
 4145 022d 0B       		.uleb128 0xb
 4146 022e 3B       		.uleb128 0x3b
 4147 022f 0B       		.uleb128 0xb
 4148 0230 27       		.uleb128 0x27
 4149 0231 19       		.uleb128 0x19
 4150 0232 11       		.uleb128 0x11
 4151 0233 01       		.uleb128 0x1
 4152 0234 12       		.uleb128 0x12
ARM GAS  C:\Users\PCHAUT~1\AppData\Local\Temp\ccwn6d1C.s 			page 74


 4153 0235 06       		.uleb128 0x6
 4154 0236 40       		.uleb128 0x40
 4155 0237 18       		.uleb128 0x18
 4156 0238 9642     		.uleb128 0x2116
 4157 023a 19       		.uleb128 0x19
 4158 023b 01       		.uleb128 0x1
 4159 023c 13       		.uleb128 0x13
 4160 023d 00       		.byte	0
 4161 023e 00       		.byte	0
 4162 023f 29       		.uleb128 0x29
 4163 0240 05       		.uleb128 0x5
 4164 0241 00       		.byte	0
 4165 0242 03       		.uleb128 0x3
 4166 0243 0E       		.uleb128 0xe
 4167 0244 3A       		.uleb128 0x3a
 4168 0245 0B       		.uleb128 0xb
 4169 0246 3B       		.uleb128 0x3b
 4170 0247 0B       		.uleb128 0xb
 4171 0248 49       		.uleb128 0x49
 4172 0249 13       		.uleb128 0x13
 4173 024a 02       		.uleb128 0x2
 4174 024b 18       		.uleb128 0x18
 4175 024c 00       		.byte	0
 4176 024d 00       		.byte	0
 4177 024e 2A       		.uleb128 0x2a
 4178 024f 34       		.uleb128 0x34
 4179 0250 00       		.byte	0
 4180 0251 03       		.uleb128 0x3
 4181 0252 08       		.uleb128 0x8
 4182 0253 3A       		.uleb128 0x3a
 4183 0254 0B       		.uleb128 0xb
 4184 0255 3B       		.uleb128 0x3b
 4185 0256 0B       		.uleb128 0xb
 4186 0257 49       		.uleb128 0x49
 4187 0258 13       		.uleb128 0x13
 4188 0259 02       		.uleb128 0x2
 4189 025a 18       		.uleb128 0x18
 4190 025b 00       		.byte	0
 4191 025c 00       		.byte	0
 4192 025d 2B       		.uleb128 0x2b
 4193 025e 2E       		.uleb128 0x2e
 4194 025f 01       		.byte	0x1
 4195 0260 3F       		.uleb128 0x3f
 4196 0261 19       		.uleb128 0x19
 4197 0262 03       		.uleb128 0x3
 4198 0263 0E       		.uleb128 0xe
 4199 0264 3A       		.uleb128 0x3a
 4200 0265 0B       		.uleb128 0xb
 4201 0266 3B       		.uleb128 0x3b
 4202 0267 0B       		.uleb128 0xb
 4203 0268 27       		.uleb128 0x27
 4204 0269 19       		.uleb128 0x19
 4205 026a 49       		.uleb128 0x49
 4206 026b 13       		.uleb128 0x13
 4207 026c 11       		.uleb128 0x11
 4208 026d 01       		.uleb128 0x1
 4209 026e 12       		.uleb128 0x12
ARM GAS  C:\Users\PCHAUT~1\AppData\Local\Temp\ccwn6d1C.s 			page 75


 4210 026f 06       		.uleb128 0x6
 4211 0270 40       		.uleb128 0x40
 4212 0271 18       		.uleb128 0x18
 4213 0272 9642     		.uleb128 0x2116
 4214 0274 19       		.uleb128 0x19
 4215 0275 01       		.uleb128 0x1
 4216 0276 13       		.uleb128 0x13
 4217 0277 00       		.byte	0
 4218 0278 00       		.byte	0
 4219 0279 2C       		.uleb128 0x2c
 4220 027a 05       		.uleb128 0x5
 4221 027b 00       		.byte	0
 4222 027c 03       		.uleb128 0x3
 4223 027d 08       		.uleb128 0x8
 4224 027e 3A       		.uleb128 0x3a
 4225 027f 0B       		.uleb128 0xb
 4226 0280 3B       		.uleb128 0x3b
 4227 0281 0B       		.uleb128 0xb
 4228 0282 49       		.uleb128 0x49
 4229 0283 13       		.uleb128 0x13
 4230 0284 02       		.uleb128 0x2
 4231 0285 18       		.uleb128 0x18
 4232 0286 00       		.byte	0
 4233 0287 00       		.byte	0
 4234 0288 2D       		.uleb128 0x2d
 4235 0289 34       		.uleb128 0x34
 4236 028a 00       		.byte	0
 4237 028b 03       		.uleb128 0x3
 4238 028c 0E       		.uleb128 0xe
 4239 028d 49       		.uleb128 0x49
 4240 028e 13       		.uleb128 0x13
 4241 028f 34       		.uleb128 0x34
 4242 0290 19       		.uleb128 0x19
 4243 0291 02       		.uleb128 0x2
 4244 0292 18       		.uleb128 0x18
 4245 0293 00       		.byte	0
 4246 0294 00       		.byte	0
 4247 0295 2E       		.uleb128 0x2e
 4248 0296 2E       		.uleb128 0x2e
 4249 0297 00       		.byte	0
 4250 0298 3F       		.uleb128 0x3f
 4251 0299 19       		.uleb128 0x19
 4252 029a 03       		.uleb128 0x3
 4253 029b 0E       		.uleb128 0xe
 4254 029c 3A       		.uleb128 0x3a
 4255 029d 0B       		.uleb128 0xb
 4256 029e 3B       		.uleb128 0x3b
 4257 029f 0B       		.uleb128 0xb
 4258 02a0 27       		.uleb128 0x27
 4259 02a1 19       		.uleb128 0x19
 4260 02a2 11       		.uleb128 0x11
 4261 02a3 01       		.uleb128 0x1
 4262 02a4 12       		.uleb128 0x12
 4263 02a5 06       		.uleb128 0x6
 4264 02a6 40       		.uleb128 0x40
 4265 02a7 18       		.uleb128 0x18
 4266 02a8 9642     		.uleb128 0x2116
ARM GAS  C:\Users\PCHAUT~1\AppData\Local\Temp\ccwn6d1C.s 			page 76


 4267 02aa 19       		.uleb128 0x19
 4268 02ab 00       		.byte	0
 4269 02ac 00       		.byte	0
 4270 02ad 2F       		.uleb128 0x2f
 4271 02ae 2E       		.uleb128 0x2e
 4272 02af 01       		.byte	0x1
 4273 02b0 03       		.uleb128 0x3
 4274 02b1 0E       		.uleb128 0xe
 4275 02b2 3A       		.uleb128 0x3a
 4276 02b3 0B       		.uleb128 0xb
 4277 02b4 3B       		.uleb128 0x3b
 4278 02b5 0B       		.uleb128 0xb
 4279 02b6 27       		.uleb128 0x27
 4280 02b7 19       		.uleb128 0x19
 4281 02b8 11       		.uleb128 0x11
 4282 02b9 01       		.uleb128 0x1
 4283 02ba 12       		.uleb128 0x12
 4284 02bb 06       		.uleb128 0x6
 4285 02bc 40       		.uleb128 0x40
 4286 02bd 18       		.uleb128 0x18
 4287 02be 9642     		.uleb128 0x2116
 4288 02c0 19       		.uleb128 0x19
 4289 02c1 01       		.uleb128 0x1
 4290 02c2 13       		.uleb128 0x13
 4291 02c3 00       		.byte	0
 4292 02c4 00       		.byte	0
 4293 02c5 30       		.uleb128 0x30
 4294 02c6 2E       		.uleb128 0x2e
 4295 02c7 01       		.byte	0x1
 4296 02c8 03       		.uleb128 0x3
 4297 02c9 0E       		.uleb128 0xe
 4298 02ca 3A       		.uleb128 0x3a
 4299 02cb 0B       		.uleb128 0xb
 4300 02cc 3B       		.uleb128 0x3b
 4301 02cd 05       		.uleb128 0x5
 4302 02ce 27       		.uleb128 0x27
 4303 02cf 19       		.uleb128 0x19
 4304 02d0 49       		.uleb128 0x49
 4305 02d1 13       		.uleb128 0x13
 4306 02d2 11       		.uleb128 0x11
 4307 02d3 01       		.uleb128 0x1
 4308 02d4 12       		.uleb128 0x12
 4309 02d5 06       		.uleb128 0x6
 4310 02d6 40       		.uleb128 0x40
 4311 02d7 18       		.uleb128 0x18
 4312 02d8 9642     		.uleb128 0x2116
 4313 02da 19       		.uleb128 0x19
 4314 02db 01       		.uleb128 0x1
 4315 02dc 13       		.uleb128 0x13
 4316 02dd 00       		.byte	0
 4317 02de 00       		.byte	0
 4318 02df 31       		.uleb128 0x31
 4319 02e0 2E       		.uleb128 0x2e
 4320 02e1 00       		.byte	0
 4321 02e2 03       		.uleb128 0x3
 4322 02e3 0E       		.uleb128 0xe
 4323 02e4 3A       		.uleb128 0x3a
ARM GAS  C:\Users\PCHAUT~1\AppData\Local\Temp\ccwn6d1C.s 			page 77


 4324 02e5 0B       		.uleb128 0xb
 4325 02e6 3B       		.uleb128 0x3b
 4326 02e7 05       		.uleb128 0x5
 4327 02e8 27       		.uleb128 0x27
 4328 02e9 19       		.uleb128 0x19
 4329 02ea 11       		.uleb128 0x11
 4330 02eb 01       		.uleb128 0x1
 4331 02ec 12       		.uleb128 0x12
 4332 02ed 06       		.uleb128 0x6
 4333 02ee 40       		.uleb128 0x40
 4334 02ef 18       		.uleb128 0x18
 4335 02f0 9642     		.uleb128 0x2116
 4336 02f2 19       		.uleb128 0x19
 4337 02f3 00       		.byte	0
 4338 02f4 00       		.byte	0
 4339 02f5 32       		.uleb128 0x32
 4340 02f6 2E       		.uleb128 0x2e
 4341 02f7 00       		.byte	0
 4342 02f8 03       		.uleb128 0x3
 4343 02f9 0E       		.uleb128 0xe
 4344 02fa 3A       		.uleb128 0x3a
 4345 02fb 0B       		.uleb128 0xb
 4346 02fc 3B       		.uleb128 0x3b
 4347 02fd 05       		.uleb128 0x5
 4348 02fe 27       		.uleb128 0x27
 4349 02ff 19       		.uleb128 0x19
 4350 0300 49       		.uleb128 0x49
 4351 0301 13       		.uleb128 0x13
 4352 0302 11       		.uleb128 0x11
 4353 0303 01       		.uleb128 0x1
 4354 0304 12       		.uleb128 0x12
 4355 0305 06       		.uleb128 0x6
 4356 0306 40       		.uleb128 0x40
 4357 0307 18       		.uleb128 0x18
 4358 0308 9642     		.uleb128 0x2116
 4359 030a 19       		.uleb128 0x19
 4360 030b 00       		.byte	0
 4361 030c 00       		.byte	0
 4362 030d 33       		.uleb128 0x33
 4363 030e 05       		.uleb128 0x5
 4364 030f 00       		.byte	0
 4365 0310 31       		.uleb128 0x31
 4366 0311 13       		.uleb128 0x13
 4367 0312 02       		.uleb128 0x2
 4368 0313 18       		.uleb128 0x18
 4369 0314 00       		.byte	0
 4370 0315 00       		.byte	0
 4371 0316 34       		.uleb128 0x34
 4372 0317 2E       		.uleb128 0x2e
 4373 0318 01       		.byte	0x1
 4374 0319 03       		.uleb128 0x3
 4375 031a 0E       		.uleb128 0xe
 4376 031b 3A       		.uleb128 0x3a
 4377 031c 0B       		.uleb128 0xb
 4378 031d 3B       		.uleb128 0x3b
 4379 031e 05       		.uleb128 0x5
 4380 031f 27       		.uleb128 0x27
ARM GAS  C:\Users\PCHAUT~1\AppData\Local\Temp\ccwn6d1C.s 			page 78


 4381 0320 19       		.uleb128 0x19
 4382 0321 20       		.uleb128 0x20
 4383 0322 0B       		.uleb128 0xb
 4384 0323 01       		.uleb128 0x1
 4385 0324 13       		.uleb128 0x13
 4386 0325 00       		.byte	0
 4387 0326 00       		.byte	0
 4388 0327 35       		.uleb128 0x35
 4389 0328 05       		.uleb128 0x5
 4390 0329 00       		.byte	0
 4391 032a 03       		.uleb128 0x3
 4392 032b 0E       		.uleb128 0xe
 4393 032c 3A       		.uleb128 0x3a
 4394 032d 0B       		.uleb128 0xb
 4395 032e 3B       		.uleb128 0x3b
 4396 032f 05       		.uleb128 0x5
 4397 0330 49       		.uleb128 0x49
 4398 0331 13       		.uleb128 0x13
 4399 0332 00       		.byte	0
 4400 0333 00       		.byte	0
 4401 0334 36       		.uleb128 0x36
 4402 0335 2E       		.uleb128 0x2e
 4403 0336 01       		.byte	0x1
 4404 0337 03       		.uleb128 0x3
 4405 0338 0E       		.uleb128 0xe
 4406 0339 3A       		.uleb128 0x3a
 4407 033a 0B       		.uleb128 0xb
 4408 033b 3B       		.uleb128 0x3b
 4409 033c 05       		.uleb128 0x5
 4410 033d 27       		.uleb128 0x27
 4411 033e 19       		.uleb128 0x19
 4412 033f 49       		.uleb128 0x49
 4413 0340 13       		.uleb128 0x13
 4414 0341 20       		.uleb128 0x20
 4415 0342 0B       		.uleb128 0xb
 4416 0343 00       		.byte	0
 4417 0344 00       		.byte	0
 4418 0345 37       		.uleb128 0x37
 4419 0346 34       		.uleb128 0x34
 4420 0347 00       		.byte	0
 4421 0348 03       		.uleb128 0x3
 4422 0349 0E       		.uleb128 0xe
 4423 034a 3A       		.uleb128 0x3a
 4424 034b 0B       		.uleb128 0xb
 4425 034c 3B       		.uleb128 0x3b
 4426 034d 05       		.uleb128 0x5
 4427 034e 49       		.uleb128 0x49
 4428 034f 13       		.uleb128 0x13
 4429 0350 00       		.byte	0
 4430 0351 00       		.byte	0
 4431 0352 00       		.byte	0
 4432              		.section	.debug_aranges,"",%progbits
 4433 0000 CC000000 		.4byte	0xcc
 4434 0004 0200     		.2byte	0x2
 4435 0006 00000000 		.4byte	.Ldebug_info0
 4436 000a 04       		.byte	0x4
 4437 000b 00       		.byte	0
ARM GAS  C:\Users\PCHAUT~1\AppData\Local\Temp\ccwn6d1C.s 			page 79


 4438 000c 0000     		.2byte	0
 4439 000e 0000     		.2byte	0
 4440 0010 00000000 		.4byte	.LFB116
 4441 0014 30000000 		.4byte	.LFE116-.LFB116
 4442 0018 00000000 		.4byte	.LFB117
 4443 001c 30000000 		.4byte	.LFE117-.LFB117
 4444 0020 00000000 		.4byte	.LFB118
 4445 0024 28000000 		.4byte	.LFE118-.LFB118
 4446 0028 00000000 		.4byte	.LFB119
 4447 002c 28000000 		.4byte	.LFE119-.LFB119
 4448 0030 00000000 		.4byte	.LFB128
 4449 0034 34000000 		.4byte	.LFE128-.LFB128
 4450 0038 00000000 		.4byte	.LFB135
 4451 003c 40000000 		.4byte	.LFE135-.LFB135
 4452 0040 00000000 		.4byte	.LFB137
 4453 0044 3C000000 		.4byte	.LFE137-.LFB137
 4454 0048 00000000 		.4byte	.LFB138
 4455 004c 44000000 		.4byte	.LFE138-.LFB138
 4456 0050 00000000 		.4byte	.LFB147
 4457 0054 30000000 		.4byte	.LFE147-.LFB147
 4458 0058 00000000 		.4byte	.LFB148
 4459 005c 30000000 		.4byte	.LFE148-.LFB148
 4460 0060 00000000 		.4byte	.LFB159
 4461 0064 38000000 		.4byte	.LFE159-.LFB159
 4462 0068 00000000 		.4byte	.LFB180
 4463 006c 34000000 		.4byte	.LFE180-.LFB180
 4464 0070 00000000 		.4byte	.LFB219
 4465 0074 40000000 		.4byte	.LFE219-.LFB219
 4466 0078 00000000 		.4byte	.LFB220
 4467 007c 94000000 		.4byte	.LFE220-.LFB220
 4468 0080 00000000 		.4byte	.LFB221
 4469 0084 A0000000 		.4byte	.LFE221-.LFB221
 4470 0088 00000000 		.4byte	.LFB222
 4471 008c 94000000 		.4byte	.LFE222-.LFB222
 4472 0090 00000000 		.4byte	.LFB223
 4473 0094 80000000 		.4byte	.LFE223-.LFB223
 4474 0098 00000000 		.4byte	.LFB224
 4475 009c 9C000000 		.4byte	.LFE224-.LFB224
 4476 00a0 00000000 		.4byte	.LFB225
 4477 00a4 38000000 		.4byte	.LFE225-.LFB225
 4478 00a8 00000000 		.4byte	.LFB226
 4479 00ac 64000000 		.4byte	.LFE226-.LFB226
 4480 00b0 00000000 		.4byte	.LFB227
 4481 00b4 90000000 		.4byte	.LFE227-.LFB227
 4482 00b8 00000000 		.4byte	.LFB228
 4483 00bc BC000000 		.4byte	.LFE228-.LFB228
 4484 00c0 00000000 		.4byte	.LFB229
 4485 00c4 40000000 		.4byte	.LFE229-.LFB229
 4486 00c8 00000000 		.4byte	0
 4487 00cc 00000000 		.4byte	0
 4488              		.section	.debug_ranges,"",%progbits
 4489              	.Ldebug_ranges0:
 4490 0000 00000000 		.4byte	.LFB116
 4491 0004 30000000 		.4byte	.LFE116
 4492 0008 00000000 		.4byte	.LFB117
 4493 000c 30000000 		.4byte	.LFE117
 4494 0010 00000000 		.4byte	.LFB118
ARM GAS  C:\Users\PCHAUT~1\AppData\Local\Temp\ccwn6d1C.s 			page 80


 4495 0014 28000000 		.4byte	.LFE118
 4496 0018 00000000 		.4byte	.LFB119
 4497 001c 28000000 		.4byte	.LFE119
 4498 0020 00000000 		.4byte	.LFB128
 4499 0024 34000000 		.4byte	.LFE128
 4500 0028 00000000 		.4byte	.LFB135
 4501 002c 40000000 		.4byte	.LFE135
 4502 0030 00000000 		.4byte	.LFB137
 4503 0034 3C000000 		.4byte	.LFE137
 4504 0038 00000000 		.4byte	.LFB138
 4505 003c 44000000 		.4byte	.LFE138
 4506 0040 00000000 		.4byte	.LFB147
 4507 0044 30000000 		.4byte	.LFE147
 4508 0048 00000000 		.4byte	.LFB148
 4509 004c 30000000 		.4byte	.LFE148
 4510 0050 00000000 		.4byte	.LFB159
 4511 0054 38000000 		.4byte	.LFE159
 4512 0058 00000000 		.4byte	.LFB180
 4513 005c 34000000 		.4byte	.LFE180
 4514 0060 00000000 		.4byte	.LFB219
 4515 0064 40000000 		.4byte	.LFE219
 4516 0068 00000000 		.4byte	.LFB220
 4517 006c 94000000 		.4byte	.LFE220
 4518 0070 00000000 		.4byte	.LFB221
 4519 0074 A0000000 		.4byte	.LFE221
 4520 0078 00000000 		.4byte	.LFB222
 4521 007c 94000000 		.4byte	.LFE222
 4522 0080 00000000 		.4byte	.LFB223
 4523 0084 80000000 		.4byte	.LFE223
 4524 0088 00000000 		.4byte	.LFB224
 4525 008c 9C000000 		.4byte	.LFE224
 4526 0090 00000000 		.4byte	.LFB225
 4527 0094 38000000 		.4byte	.LFE225
 4528 0098 00000000 		.4byte	.LFB226
 4529 009c 64000000 		.4byte	.LFE226
 4530 00a0 00000000 		.4byte	.LFB227
 4531 00a4 90000000 		.4byte	.LFE227
 4532 00a8 00000000 		.4byte	.LFB228
 4533 00ac BC000000 		.4byte	.LFE228
 4534 00b0 00000000 		.4byte	.LFB229
 4535 00b4 40000000 		.4byte	.LFE229
 4536 00b8 00000000 		.4byte	0
 4537 00bc 00000000 		.4byte	0
 4538              		.section	.debug_line,"",%progbits
 4539              	.Ldebug_line0:
 4540 0000 0C070000 		.section	.debug_str,"MS",%progbits,1
 4540      02001104 
 4540      00000201 
 4540      FB0E0D00 
 4540      01010101 
 4541              	.LASF146:
 4542 0000 63665F6F 		.ascii	"cf_off_older\000"
 4542      66665F6F 
 4542      6C646572 
 4542      00
 4543              	.LASF61:
 4544 000d 72656164 		.ascii	"ready_list_t\000"
ARM GAS  C:\Users\PCHAUT~1\AppData\Local\Temp\ccwn6d1C.s 			page 81


 4544      795F6C69 
 4544      73745F74 
 4544      00
 4545              	.LASF99:
 4546 001a 73655F74 		.ascii	"se_time\000"
 4546      696D6500 
 4547              	.LASF4:
 4548 0022 73697A65 		.ascii	"size_t\000"
 4548      5F7400
 4549              	.LASF120:
 4550 0029 7264796D 		.ascii	"rdymsg\000"
 4550      736700
 4551              	.LASF20:
 4552 0030 75696E74 		.ascii	"uint64_t\000"
 4552      36345F74 
 4552      00
 4553              	.LASF158:
 4554 0039 63685363 		.ascii	"chSchDoRescheduleAhead\000"
 4554      68446F52 
 4554      65736368 
 4554      6564756C 
 4554      65416865 
 4555              	.LASF5:
 4556 0050 5F5F7569 		.ascii	"__uint8_t\000"
 4556      6E74385F 
 4556      7400
 4557              	.LASF98:
 4558 005a 706F7274 		.ascii	"port_intctx\000"
 4558      5F696E74 
 4558      63747800 
 4559              	.LASF60:
 4560 0066 63685F74 		.ascii	"ch_threads_queue\000"
 4560      68726561 
 4560      64735F71 
 4560      75657565 
 4560      00
 4561              	.LASF80:
 4562 0077 73797374 		.ascii	"system_debug_t\000"
 4562      656D5F64 
 4562      65627567 
 4562      5F7400
 4563              	.LASF178:
 4564 0086 71756575 		.ascii	"queue_init\000"
 4564      655F696E 
 4564      697400
 4565              	.LASF182:
 4566 0091 706F7274 		.ascii	"port_lock\000"
 4566      5F6C6F63 
 4566      6B00
 4567              	.LASF111:
 4568 009b 776F7273 		.ascii	"worst\000"
 4568      7400
 4569              	.LASF114:
 4570 00a1 74696D65 		.ascii	"time_measurement_t\000"
 4570      5F6D6561 
 4570      73757265 
 4570      6D656E74 
ARM GAS  C:\Users\PCHAUT~1\AppData\Local\Temp\ccwn6d1C.s 			page 82


 4570      5F7400
 4571              	.LASF15:
 4572 00b4 6C6F6E67 		.ascii	"long long unsigned int\000"
 4572      206C6F6E 
 4572      6720756E 
 4572      7369676E 
 4572      65642069 
 4573              	.LASF107:
 4574 00cb 63685F74 		.ascii	"ch_trace_buffer_t\000"
 4574      72616365 
 4574      5F627566 
 4574      6665725F 
 4574      7400
 4575              	.LASF142:
 4576 00dd 63685F74 		.ascii	"ch_threadsize\000"
 4576      68726561 
 4576      6473697A 
 4576      6500
 4577              	.LASF121:
 4578 00eb 65786974 		.ascii	"exitcode\000"
 4578      636F6465 
 4578      00
 4579              	.LASF90:
 4580 00f4 6D61696E 		.ascii	"mainthread\000"
 4580      74687265 
 4580      616400
 4581              	.LASF10:
 4582 00ff 5F5F696E 		.ascii	"__int32_t\000"
 4582      7433325F 
 4582      7400
 4583              	.LASF77:
 4584 0109 76697274 		.ascii	"virtual_timers_list_t\000"
 4584      75616C5F 
 4584      74696D65 
 4584      72735F6C 
 4584      6973745F 
 4585              	.LASF93:
 4586 011f 49544D5F 		.ascii	"ITM_RxBuffer\000"
 4586      52784275 
 4586      66666572 
 4586      00
 4587              	.LASF22:
 4588 012c 72747469 		.ascii	"rttime_t\000"
 4588      6D655F74 
 4588      00
 4589              	.LASF36:
 4590 0135 705F7072 		.ascii	"p_prio\000"
 4590      696F00
 4591              	.LASF149:
 4592 013c 63665F6F 		.ascii	"cf_off_state\000"
 4592      66665F73 
 4592      74617465 
 4592      00
 4593              	.LASF170:
 4594 0149 5F736368 		.ascii	"_scheduler_init\000"
 4594      6564756C 
 4594      65725F69 
ARM GAS  C:\Users\PCHAUT~1\AppData\Local\Temp\ccwn6d1C.s 			page 83


 4594      6E697400 
 4595              	.LASF1:
 4596 0159 6C6F6E67 		.ascii	"long long int\000"
 4596      206C6F6E 
 4596      6720696E 
 4596      7400
 4597              	.LASF3:
 4598 0167 7369676E 		.ascii	"signed char\000"
 4598      65642063 
 4598      68617200 
 4599              	.LASF148:
 4600 0173 63665F6F 		.ascii	"cf_off_stklimit\000"
 4600      66665F73 
 4600      746B6C69 
 4600      6D697400 
 4601              	.LASF150:
 4602 0183 63665F6F 		.ascii	"cf_off_flags\000"
 4602      66665F66 
 4602      6C616773 
 4602      00
 4603              	.LASF53:
 4604 0190 705F6D70 		.ascii	"p_mpool\000"
 4604      6F6F6C00 
 4605              	.LASF131:
 4606 0198 6D5F7175 		.ascii	"m_queue\000"
 4606      65756500 
 4607              	.LASF89:
 4608 01a0 76746C69 		.ascii	"vtlist\000"
 4608      737400
 4609              	.LASF181:
 4610 01a7 706F7274 		.ascii	"port_unlock\000"
 4610      5F756E6C 
 4610      6F636B00 
 4611              	.LASF26:
 4612 01b3 74736C69 		.ascii	"tslices_t\000"
 4612      6365735F 
 4612      7400
 4613              	.LASF123:
 4614 01bd 77747472 		.ascii	"wttrp\000"
 4614      7000
 4615              	.LASF87:
 4616 01c3 63685F73 		.ascii	"ch_system\000"
 4616      79737465 
 4616      6D00
 4617              	.LASF11:
 4618 01cd 6C6F6E67 		.ascii	"long int\000"
 4618      20696E74 
 4618      00
 4619              	.LASF187:
 4620 01d6 474E5520 		.ascii	"GNU C11 7.2.1 20170904 (release) [ARM/embedded-7-br"
 4620      43313120 
 4620      372E322E 
 4620      31203230 
 4620      31373039 
 4621 0209 616E6368 		.ascii	"anch revision 255204] -mcpu=cortex-m4 -mfloat-abi=h"
 4621      20726576 
 4621      6973696F 
ARM GAS  C:\Users\PCHAUT~1\AppData\Local\Temp\ccwn6d1C.s 			page 84


 4621      6E203235 
 4621      35323034 
 4622 023c 61726420 		.ascii	"ard -mfpu=fpv4-sp-d16 -mno-thumb-interwork -mthumb "
 4622      2D6D6670 
 4622      753D6670 
 4622      76342D73 
 4622      702D6431 
 4623 026f 2D676764 		.ascii	"-ggdb -O0 -fomit-frame-pointer -falign-functions=16"
 4623      62202D4F 
 4623      30202D66 
 4623      6F6D6974 
 4623      2D667261 
 4624 02a2 202D666E 		.ascii	" -fno-strict-aliasing -fstack-protector-all -ffunct"
 4624      6F2D7374 
 4624      72696374 
 4624      2D616C69 
 4624      6173696E 
 4625 02d5 696F6E2D 		.ascii	"ion-sections -fdata-sections -fno-common -fsingle-p"
 4625      73656374 
 4625      696F6E73 
 4625      202D6664 
 4625      6174612D 
 4626 0308 72656369 		.ascii	"recision-constant\000"
 4626      73696F6E 
 4626      2D636F6E 
 4626      7374616E 
 4626      7400
 4627              	.LASF176:
 4628 031a 71756575 		.ascii	"queue_dequeue\000"
 4628      655F6465 
 4628      71756575 
 4628      6500
 4629              	.LASF24:
 4630 0328 74737461 		.ascii	"tstate_t\000"
 4630      74655F74 
 4630      00
 4631              	.LASF100:
 4632 0331 73655F74 		.ascii	"se_tp\000"
 4632      7000
 4633              	.LASF154:
 4634 0337 63686465 		.ascii	"chdebug_t\000"
 4634      6275675F 
 4634      7400
 4635              	.LASF164:
 4636 0341 63685363 		.ascii	"chSchIsPreemptionRequired\000"
 4636      68497350 
 4636      7265656D 
 4636      7074696F 
 4636      6E526571 
 4637              	.LASF38:
 4638 035b 705F6E65 		.ascii	"p_newer\000"
 4638      77657200 
 4639              	.LASF128:
 4640 0363 735F7175 		.ascii	"s_queue\000"
 4640      65756500 
 4641              	.LASF162:
 4642 036b 63685363 		.ascii	"chSchRescheduleS\000"
ARM GAS  C:\Users\PCHAUT~1\AppData\Local\Temp\ccwn6d1C.s 			page 85


 4642      68526573 
 4642      63686564 
 4642      756C6553 
 4642      00
 4643              	.LASF104:
 4644 037c 74625F73 		.ascii	"tb_size\000"
 4644      697A6500 
 4645              	.LASF66:
 4646 0384 725F6E65 		.ascii	"r_newer\000"
 4646      77657200 
 4647              	.LASF95:
 4648 038c 72656761 		.ascii	"regarm_t\000"
 4648      726D5F74 
 4648      00
 4649              	.LASF161:
 4650 0395 63685363 		.ascii	"chSchDoReschedule\000"
 4650      68446F52 
 4650      65736368 
 4650      6564756C 
 4650      6500
 4651              	.LASF81:
 4652 03a7 63685F73 		.ascii	"ch_system_debug\000"
 4652      79737465 
 4652      6D5F6465 
 4652      62756700 
 4653              	.LASF134:
 4654 03b7 6D5F636E 		.ascii	"m_cnt\000"
 4654      7400
 4655              	.LASF157:
 4656 03bd 6D757465 		.ascii	"mutex_t\000"
 4656      785F7400 
 4657              	.LASF191:
 4658 03c5 76616C75 		.ascii	"value\000"
 4658      6500
 4659              	.LASF84:
 4660 03cb 6C6F636B 		.ascii	"lock_cnt\000"
 4660      5F636E74 
 4660      00
 4661              	.LASF92:
 4662 03d4 69646C65 		.ascii	"idle_thread_wa\000"
 4662      5F746872 
 4662      6561645F 
 4662      776100
 4663              	.LASF30:
 4664 03e3 636E745F 		.ascii	"cnt_t\000"
 4664      7400
 4665              	.LASF73:
 4666 03e9 76745F70 		.ascii	"vt_prev\000"
 4666      72657600 
 4667              	.LASF0:
 4668 03f1 756E7369 		.ascii	"unsigned int\000"
 4668      676E6564 
 4668      20696E74 
 4668      00
 4669              	.LASF171:
 4670 03fe 77616B65 		.ascii	"wakeup\000"
 4670      757000
ARM GAS  C:\Users\PCHAUT~1\AppData\Local\Temp\ccwn6d1C.s 			page 86


 4671              	.LASF72:
 4672 0405 76745F6E 		.ascii	"vt_next\000"
 4672      65787400 
 4673              	.LASF17:
 4674 040d 75696E74 		.ascii	"uint16_t\000"
 4674      31365F74 
 4674      00
 4675              	.LASF94:
 4676 0416 53797374 		.ascii	"SystemCoreClock\000"
 4676      656D436F 
 4676      7265436C 
 4676      6F636B00 
 4677              	.LASF46:
 4678 0426 705F7469 		.ascii	"p_time\000"
 4678      6D6500
 4679              	.LASF124:
 4680 042d 77747365 		.ascii	"wtsemp\000"
 4680      6D7000
 4681              	.LASF74:
 4682 0434 76745F64 		.ascii	"vt_delta\000"
 4682      656C7461 
 4682      00
 4683              	.LASF48:
 4684 043d 705F6D73 		.ascii	"p_msgqueue\000"
 4684      67717565 
 4684      756500
 4685              	.LASF155:
 4686 0448 63685F64 		.ascii	"ch_debug\000"
 4686      65627567 
 4686      00
 4687              	.LASF62:
 4688 0451 63685F72 		.ascii	"ch_ready_list\000"
 4688      65616479 
 4688      5F6C6973 
 4688      7400
 4689              	.LASF115:
 4690 045f 6E5F6972 		.ascii	"n_irq\000"
 4690      7100
 4691              	.LASF129:
 4692 0465 735F636E 		.ascii	"s_cnt\000"
 4692      7400
 4693              	.LASF9:
 4694 046b 73686F72 		.ascii	"short unsigned int\000"
 4694      7420756E 
 4694      7369676E 
 4694      65642069 
 4694      6E7400
 4695              	.LASF119:
 4696 047e 6B65726E 		.ascii	"kernel_stats_t\000"
 4696      656C5F73 
 4696      74617473 
 4696      5F7400
 4697              	.LASF57:
 4698 048d 63685F74 		.ascii	"ch_thread\000"
 4698      68726561 
 4698      6400
 4699              	.LASF163:
ARM GAS  C:\Users\PCHAUT~1\AppData\Local\Temp\ccwn6d1C.s 			page 87


 4700 0497 63685363 		.ascii	"chSchWakeupS\000"
 4700      6857616B 
 4700      65757053 
 4700      00
 4701              	.LASF28:
 4702 04a4 6D73675F 		.ascii	"msg_t\000"
 4702      7400
 4703              	.LASF112:
 4704 04aa 6C617374 		.ascii	"last\000"
 4704      00
 4705              	.LASF31:
 4706 04af 75636E74 		.ascii	"ucnt_t\000"
 4706      5F7400
 4707              	.LASF86:
 4708 04b6 63685F73 		.ascii	"ch_system_t\000"
 4708      79737465 
 4708      6D5F7400 
 4709              	.LASF122:
 4710 04c2 77746F62 		.ascii	"wtobjp\000"
 4710      6A7000
 4711              	.LASF118:
 4712 04c9 6D5F6372 		.ascii	"m_crit_isr\000"
 4712      69745F69 
 4712      737200
 4713              	.LASF51:
 4714 04d4 705F6D74 		.ascii	"p_mtxlist\000"
 4714      786C6973 
 4714      7400
 4715              	.LASF29:
 4716 04de 6576656E 		.ascii	"eventmask_t\000"
 4716      746D6173 
 4716      6B5F7400 
 4717              	.LASF96:
 4718 04ea 73746B61 		.ascii	"stkalign_t\000"
 4718      6C69676E 
 4718      5F7400
 4719              	.LASF56:
 4720 04f5 74687265 		.ascii	"threads_list_t\000"
 4720      6164735F 
 4720      6C697374 
 4720      5F7400
 4721              	.LASF137:
 4722 0504 63685F7A 		.ascii	"ch_zero\000"
 4722      65726F00 
 4723              	.LASF151:
 4724 050c 63665F6F 		.ascii	"cf_off_refs\000"
 4724      66665F72 
 4724      65667300 
 4725              	.LASF64:
 4726 0518 725F7072 		.ascii	"r_prio\000"
 4726      696F00
 4727              	.LASF156:
 4728 051f 73656D61 		.ascii	"semaphore_t\000"
 4728      70686F72 
 4728      655F7400 
 4729              	.LASF47:
 4730 052b 705F7761 		.ascii	"p_waiting\000"
ARM GAS  C:\Users\PCHAUT~1\AppData\Local\Temp\ccwn6d1C.s 			page 88


 4730      6974696E 
 4730      6700
 4731              	.LASF188:
 4732 0535 2E2E2F6C 		.ascii	"../lib/e-puck2_main-processor/ChibiOS//os/rt/src/ch"
 4732      69622F65 
 4732      2D707563 
 4732      6B325F6D 
 4732      61696E2D 
 4733 0568 73636864 		.ascii	"schd.c\000"
 4733      2E6300
 4734              	.LASF21:
 4735 056f 7274636E 		.ascii	"rtcnt_t\000"
 4735      745F7400 
 4736              	.LASF78:
 4737 0577 63685F76 		.ascii	"ch_virtual_timers_list\000"
 4737      69727475 
 4737      616C5F74 
 4737      696D6572 
 4737      735F6C69 
 4738              	.LASF2:
 4739 058e 6C6F6E67 		.ascii	"long double\000"
 4739      20646F75 
 4739      626C6500 
 4740              	.LASF141:
 4741 059a 63685F74 		.ascii	"ch_timesize\000"
 4741      696D6573 
 4741      697A6500 
 4742              	.LASF105:
 4743 05a6 74625F70 		.ascii	"tb_ptr\000"
 4743      747200
 4744              	.LASF159:
 4745 05ad 63685363 		.ascii	"chSchDoRescheduleBehind\000"
 4745      68446F52 
 4745      65736368 
 4745      6564756C 
 4745      65426568 
 4746              	.LASF103:
 4747 05c5 63685F73 		.ascii	"ch_swc_event_t\000"
 4747      77635F65 
 4747      76656E74 
 4747      5F7400
 4748              	.LASF147:
 4749 05d4 63665F6F 		.ascii	"cf_off_name\000"
 4749      66665F6E 
 4749      616D6500 
 4750              	.LASF39:
 4751 05e0 705F6F6C 		.ascii	"p_older\000"
 4751      64657200 
 4752              	.LASF65:
 4753 05e8 725F6374 		.ascii	"r_ctx\000"
 4753      7800
 4754              	.LASF37:
 4755 05ee 705F6374 		.ascii	"p_ctx\000"
 4755      7800
 4756              	.LASF109:
 4757 05f4 746D5F63 		.ascii	"tm_calibration_t\000"
 4757      616C6962 
ARM GAS  C:\Users\PCHAUT~1\AppData\Local\Temp\ccwn6d1C.s 			page 89


 4757      72617469 
 4757      6F6E5F74 
 4757      00
 4758              	.LASF41:
 4759 0605 705F7374 		.ascii	"p_stklimit\000"
 4759      6B6C696D 
 4759      697400
 4760              	.LASF167:
 4761 0610 74696D65 		.ascii	"time\000"
 4761      00
 4762              	.LASF68:
 4763 0615 725F6375 		.ascii	"r_current\000"
 4763      7272656E 
 4763      7400
 4764              	.LASF67:
 4765 061f 725F6F6C 		.ascii	"r_older\000"
 4765      64657200 
 4766              	.LASF14:
 4767 0627 5F5F7569 		.ascii	"__uint64_t\000"
 4767      6E743634 
 4767      5F7400
 4768              	.LASF113:
 4769 0632 63756D75 		.ascii	"cumulative\000"
 4769      6C617469 
 4769      766500
 4770              	.LASF91:
 4771 063d 6B65726E 		.ascii	"kernel_stats\000"
 4771      656C5F73 
 4771      74617473 
 4771      00
 4772              	.LASF25:
 4773 064a 74726566 		.ascii	"trefs_t\000"
 4773      735F7400 
 4774              	.LASF106:
 4775 0652 74625F62 		.ascii	"tb_buffer\000"
 4775      75666665 
 4775      7200
 4776              	.LASF140:
 4777 065c 63685F70 		.ascii	"ch_ptrsize\000"
 4777      74727369 
 4777      7A6500
 4778              	.LASF70:
 4779 0667 76697274 		.ascii	"virtual_timer_t\000"
 4779      75616C5F 
 4779      74696D65 
 4779      725F7400 
 4780              	.LASF35:
 4781 0677 705F7072 		.ascii	"p_prev\000"
 4781      657600
 4782              	.LASF27:
 4783 067e 74707269 		.ascii	"tprio_t\000"
 4783      6F5F7400 
 4784              	.LASF173:
 4785 0686 63685379 		.ascii	"chSysUnlockFromISR\000"
 4785      73556E6C 
 4785      6F636B46 
 4785      726F6D49 
ARM GAS  C:\Users\PCHAUT~1\AppData\Local\Temp\ccwn6d1C.s 			page 90


 4785      535200
 4786              	.LASF116:
 4787 0699 6E5F6374 		.ascii	"n_ctxswc\000"
 4787      78737763 
 4787      00
 4788              	.LASF160:
 4789 06a2 5F426F6F 		.ascii	"_Bool\000"
 4789      6C00
 4790              	.LASF18:
 4791 06a8 696E7433 		.ascii	"int32_t\000"
 4791      325F7400 
 4792              	.LASF6:
 4793 06b0 756E7369 		.ascii	"unsigned char\000"
 4793      676E6564 
 4793      20636861 
 4793      7200
 4794              	.LASF166:
 4795 06be 6E657773 		.ascii	"newstate\000"
 4795      74617465 
 4795      00
 4796              	.LASF7:
 4797 06c7 73686F72 		.ascii	"short int\000"
 4797      7420696E 
 4797      7400
 4798              	.LASF42:
 4799 06d1 705F7374 		.ascii	"p_state\000"
 4799      61746500 
 4800              	.LASF45:
 4801 06d9 705F7072 		.ascii	"p_preempt\000"
 4801      65656D70 
 4801      7400
 4802              	.LASF153:
 4803 06e3 63665F6F 		.ascii	"cf_off_time\000"
 4803      66665F74 
 4803      696D6500 
 4804              	.LASF172:
 4805 06ef 63685365 		.ascii	"chSemFastSignalI\000"
 4805      6D466173 
 4805      74536967 
 4805      6E616C49 
 4805      00
 4806              	.LASF126:
 4807 0700 65776D61 		.ascii	"ewmask\000"
 4807      736B00
 4808              	.LASF34:
 4809 0707 705F6E65 		.ascii	"p_next\000"
 4809      787400
 4810              	.LASF23:
 4811 070e 746D6F64 		.ascii	"tmode_t\000"
 4811      655F7400 
 4812              	.LASF152:
 4813 0716 63665F6F 		.ascii	"cf_off_preempt\000"
 4813      66665F70 
 4813      7265656D 
 4813      707400
 4814              	.LASF43:
 4815 0725 705F666C 		.ascii	"p_flags\000"
ARM GAS  C:\Users\PCHAUT~1\AppData\Local\Temp\ccwn6d1C.s 			page 91


 4815      61677300 
 4816              	.LASF185:
 4817 072d 5F5F6675 		.ascii	"__func__\000"
 4817      6E635F5F 
 4817      00
 4818              	.LASF54:
 4819 0736 705F7374 		.ascii	"p_stats\000"
 4819      61747300 
 4820              	.LASF175:
 4821 073e 63685654 		.ascii	"chVTIsArmedI\000"
 4821      49734172 
 4821      6D656449 
 4821      00
 4822              	.LASF189:
 4823 074b 433A5C55 		.ascii	"C:\\Users\\Pchautems\\Documents\\RobotiqueTP\\Proje"
 4823      73657273 
 4823      5C506368 
 4823      61757465 
 4823      6D735C44 
 4824 0779 745C6D69 		.ascii	"t\\miniprojet\000"
 4824      6E697072 
 4824      6F6A6574 
 4824      00
 4825              	.LASF59:
 4826 0786 74687265 		.ascii	"threads_queue_t\000"
 4826      6164735F 
 4826      71756575 
 4826      655F7400 
 4827              	.LASF71:
 4828 0796 63685F76 		.ascii	"ch_virtual_timer\000"
 4828      69727475 
 4828      616C5F74 
 4828      696D6572 
 4828      00
 4829              	.LASF145:
 4830 07a7 63665F6F 		.ascii	"cf_off_newer\000"
 4830      66665F6E 
 4830      65776572 
 4830      00
 4831              	.LASF127:
 4832 07b4 63685F73 		.ascii	"ch_semaphore\000"
 4832      656D6170 
 4832      686F7265 
 4832      00
 4833              	.LASF168:
 4834 07c1 63685363 		.ascii	"chSchGoSleepS\000"
 4834      68476F53 
 4834      6C656570 
 4834      5300
 4835              	.LASF50:
 4836 07cf 705F6570 		.ascii	"p_epending\000"
 4836      656E6469 
 4836      6E6700
 4837              	.LASF19:
 4838 07da 75696E74 		.ascii	"uint32_t\000"
 4838      33325F74 
 4838      00
ARM GAS  C:\Users\PCHAUT~1\AppData\Local\Temp\ccwn6d1C.s 			page 92


 4839              	.LASF143:
 4840 07e3 63665F6F 		.ascii	"cf_off_prio\000"
 4840      66665F70 
 4840      72696F00 
 4841              	.LASF63:
 4842 07ef 725F7175 		.ascii	"r_queue\000"
 4842      65756500 
 4843              	.LASF169:
 4844 07f7 63685363 		.ascii	"chSchReadyI\000"
 4844      68526561 
 4844      64794900 
 4845              	.LASF58:
 4846 0803 63685F74 		.ascii	"ch_threads_list\000"
 4846      68726561 
 4846      64735F6C 
 4846      69737400 
 4847              	.LASF138:
 4848 0813 63685F73 		.ascii	"ch_size\000"
 4848      697A6500 
 4849              	.LASF13:
 4850 081b 6C6F6E67 		.ascii	"long unsigned int\000"
 4850      20756E73 
 4850      69676E65 
 4850      6420696E 
 4850      7400
 4851              	.LASF135:
 4852 082d 63686172 		.ascii	"char\000"
 4852      00
 4853              	.LASF125:
 4854 0832 77746D74 		.ascii	"wtmtxp\000"
 4854      787000
 4855              	.LASF8:
 4856 0839 5F5F7569 		.ascii	"__uint16_t\000"
 4856      6E743136 
 4856      5F7400
 4857              	.LASF179:
 4858 0844 706F7274 		.ascii	"port_unlock_from_isr\000"
 4858      5F756E6C 
 4858      6F636B5F 
 4858      66726F6D 
 4858      5F697372 
 4859              	.LASF33:
 4860 0859 74687265 		.ascii	"thread_t\000"
 4860      61645F74 
 4860      00
 4861              	.LASF110:
 4862 0862 62657374 		.ascii	"best\000"
 4862      00
 4863              	.LASF177:
 4864 0867 71756575 		.ascii	"queue_fifo_remove\000"
 4864      655F6669 
 4864      666F5F72 
 4864      656D6F76 
 4864      6500
 4865              	.LASF32:
 4866 0879 73797374 		.ascii	"systime_t\000"
 4866      696D655F 
ARM GAS  C:\Users\PCHAUT~1\AppData\Local\Temp\ccwn6d1C.s 			page 93


 4866      7400
 4867              	.LASF52:
 4868 0883 705F7265 		.ascii	"p_realprio\000"
 4868      616C7072 
 4868      696F00
 4869              	.LASF69:
 4870 088e 76746675 		.ascii	"vtfunc_t\000"
 4870      6E635F74 
 4870      00
 4871              	.LASF12:
 4872 0897 5F5F7569 		.ascii	"__uint32_t\000"
 4872      6E743332 
 4872      5F7400
 4873              	.LASF183:
 4874 08a2 5F5F7365 		.ascii	"__set_BASEPRI\000"
 4874      745F4241 
 4874      53455052 
 4874      4900
 4875              	.LASF82:
 4876 08b0 70616E69 		.ascii	"panic_msg\000"
 4876      635F6D73 
 4876      6700
 4877              	.LASF108:
 4878 08ba 6F666673 		.ascii	"offset\000"
 4878      657400
 4879              	.LASF97:
 4880 08c1 636F6E74 		.ascii	"context\000"
 4880      65787400 
 4881              	.LASF49:
 4882 08c9 705F6D73 		.ascii	"p_msg\000"
 4882      6700
 4883              	.LASF180:
 4884 08cf 706F7274 		.ascii	"port_lock_from_isr\000"
 4884      5F6C6F63 
 4884      6B5F6672 
 4884      6F6D5F69 
 4884      737200
 4885              	.LASF184:
 4886 08e2 5F5F6765 		.ascii	"__get_PSP\000"
 4886      745F5053 
 4886      5000
 4887              	.LASF76:
 4888 08ec 76745F70 		.ascii	"vt_par\000"
 4888      617200
 4889              	.LASF144:
 4890 08f3 63665F6F 		.ascii	"cf_off_ctx\000"
 4890      66665F63 
 4890      747800
 4891              	.LASF130:
 4892 08fe 63685F6D 		.ascii	"ch_mutex\000"
 4892      75746578 
 4892      00
 4893              	.LASF44:
 4894 0907 705F7265 		.ascii	"p_refs\000"
 4894      667300
 4895              	.LASF83:
 4896 090e 6973725F 		.ascii	"isr_cnt\000"
ARM GAS  C:\Users\PCHAUT~1\AppData\Local\Temp\ccwn6d1C.s 			page 94


 4896      636E7400 
 4897              	.LASF133:
 4898 0916 6D5F6E65 		.ascii	"m_next\000"
 4898      787400
 4899              	.LASF102:
 4900 091d 73655F73 		.ascii	"se_state\000"
 4900      74617465 
 4900      00
 4901              	.LASF88:
 4902 0926 726C6973 		.ascii	"rlist\000"
 4902      7400
 4903              	.LASF16:
 4904 092c 75696E74 		.ascii	"uint8_t\000"
 4904      385F7400 
 4905              	.LASF165:
 4906 0934 63685363 		.ascii	"chSchGoSleepTimeoutS\000"
 4906      68476F53 
 4906      6C656570 
 4906      54696D65 
 4906      6F757453 
 4907              	.LASF55:
 4908 0949 74687265 		.ascii	"thread_reference_t\000"
 4908      61645F72 
 4908      65666572 
 4908      656E6365 
 4908      5F7400
 4909              	.LASF174:
 4910 095c 63685379 		.ascii	"chSysLockFromISR\000"
 4910      734C6F63 
 4910      6B46726F 
 4910      6D495352 
 4910      00
 4911              	.LASF40:
 4912 096d 705F6E61 		.ascii	"p_name\000"
 4912      6D6500
 4913              	.LASF79:
 4914 0974 76745F73 		.ascii	"vt_systime\000"
 4914      79737469 
 4914      6D6500
 4915              	.LASF85:
 4916 097f 74726163 		.ascii	"trace_buffer\000"
 4916      655F6275 
 4916      66666572 
 4916      00
 4917              	.LASF190:
 4918 098c 63685363 		.ascii	"chSchIsRescRequiredI\000"
 4918      68497352 
 4918      65736352 
 4918      65717569 
 4918      72656449 
 4919              	.LASF139:
 4920 09a1 63685F76 		.ascii	"ch_version\000"
 4920      65727369 
 4920      6F6E00
 4921              	.LASF117:
 4922 09ac 6D5F6372 		.ascii	"m_crit_thd\000"
 4922      69745F74 
ARM GAS  C:\Users\PCHAUT~1\AppData\Local\Temp\ccwn6d1C.s 			page 95


 4922      686400
 4923              	.LASF132:
 4924 09b7 6D5F6F77 		.ascii	"m_owner\000"
 4924      6E657200 
 4925              	.LASF186:
 4926 09bf 72657375 		.ascii	"result\000"
 4926      6C7400
 4927              	.LASF101:
 4928 09c6 73655F77 		.ascii	"se_wtobjp\000"
 4928      746F626A 
 4928      7000
 4929              	.LASF136:
 4930 09d0 63685F69 		.ascii	"ch_identifier\000"
 4930      64656E74 
 4930      69666965 
 4930      7200
 4931              	.LASF75:
 4932 09de 76745F66 		.ascii	"vt_func\000"
 4932      756E6300 
 4933              		.ident	"GCC: (GNU Tools for Arm Embedded Processors 7-2017-q4-major) 7.2.1 20170904 (release) [ARM
ARM GAS  C:\Users\PCHAUT~1\AppData\Local\Temp\ccwn6d1C.s 			page 96


DEFINED SYMBOLS
                            *ABS*:00000000 chschd.c
C:\Users\PCHAUT~1\AppData\Local\Temp\ccwn6d1C.s:18     .text.port_lock:00000000 $t
C:\Users\PCHAUT~1\AppData\Local\Temp\ccwn6d1C.s:25     .text.port_lock:00000000 port_lock
C:\Users\PCHAUT~1\AppData\Local\Temp\ccwn6d1C.s:72     .text.port_lock:0000002c $d
C:\Users\PCHAUT~1\AppData\Local\Temp\ccwn6d1C.s:77     .text.port_unlock:00000000 $t
C:\Users\PCHAUT~1\AppData\Local\Temp\ccwn6d1C.s:84     .text.port_unlock:00000000 port_unlock
C:\Users\PCHAUT~1\AppData\Local\Temp\ccwn6d1C.s:129    .text.port_unlock:0000002c $d
C:\Users\PCHAUT~1\AppData\Local\Temp\ccwn6d1C.s:134    .text.port_lock_from_isr:00000000 $t
C:\Users\PCHAUT~1\AppData\Local\Temp\ccwn6d1C.s:141    .text.port_lock_from_isr:00000000 port_lock_from_isr
C:\Users\PCHAUT~1\AppData\Local\Temp\ccwn6d1C.s:174    .text.port_lock_from_isr:00000024 $d
C:\Users\PCHAUT~1\AppData\Local\Temp\ccwn6d1C.s:179    .text.port_unlock_from_isr:00000000 $t
C:\Users\PCHAUT~1\AppData\Local\Temp\ccwn6d1C.s:186    .text.port_unlock_from_isr:00000000 port_unlock_from_isr
C:\Users\PCHAUT~1\AppData\Local\Temp\ccwn6d1C.s:219    .text.port_unlock_from_isr:00000024 $d
C:\Users\PCHAUT~1\AppData\Local\Temp\ccwn6d1C.s:224    .text.queue_init:00000000 $t
C:\Users\PCHAUT~1\AppData\Local\Temp\ccwn6d1C.s:231    .text.queue_init:00000000 queue_init
C:\Users\PCHAUT~1\AppData\Local\Temp\ccwn6d1C.s:272    .text.queue_init:00000030 $d
C:\Users\PCHAUT~1\AppData\Local\Temp\ccwn6d1C.s:277    .text.queue_fifo_remove:00000000 $t
C:\Users\PCHAUT~1\AppData\Local\Temp\ccwn6d1C.s:284    .text.queue_fifo_remove:00000000 queue_fifo_remove
C:\Users\PCHAUT~1\AppData\Local\Temp\ccwn6d1C.s:332    .text.queue_fifo_remove:0000003c $d
C:\Users\PCHAUT~1\AppData\Local\Temp\ccwn6d1C.s:337    .text.queue_dequeue:00000000 $t
C:\Users\PCHAUT~1\AppData\Local\Temp\ccwn6d1C.s:344    .text.queue_dequeue:00000000 queue_dequeue
C:\Users\PCHAUT~1\AppData\Local\Temp\ccwn6d1C.s:390    .text.queue_dequeue:00000038 $d
C:\Users\PCHAUT~1\AppData\Local\Temp\ccwn6d1C.s:395    .text.chSchIsRescRequiredI:00000000 $t
C:\Users\PCHAUT~1\AppData\Local\Temp\ccwn6d1C.s:402    .text.chSchIsRescRequiredI:00000000 chSchIsRescRequiredI
C:\Users\PCHAUT~1\AppData\Local\Temp\ccwn6d1C.s:447    .text.chSchIsRescRequiredI:0000003c $d
C:\Users\PCHAUT~1\AppData\Local\Temp\ccwn6d1C.s:664    .bss.ch:00000000 ch
C:\Users\PCHAUT~1\AppData\Local\Temp\ccwn6d1C.s:453    .text.chSysLockFromISR:00000000 $t
C:\Users\PCHAUT~1\AppData\Local\Temp\ccwn6d1C.s:460    .text.chSysLockFromISR:00000000 chSysLockFromISR
C:\Users\PCHAUT~1\AppData\Local\Temp\ccwn6d1C.s:498    .text.chSysLockFromISR:0000002c $d
C:\Users\PCHAUT~1\AppData\Local\Temp\ccwn6d1C.s:503    .text.chSysUnlockFromISR:00000000 $t
C:\Users\PCHAUT~1\AppData\Local\Temp\ccwn6d1C.s:510    .text.chSysUnlockFromISR:00000000 chSysUnlockFromISR
C:\Users\PCHAUT~1\AppData\Local\Temp\ccwn6d1C.s:547    .text.chSysUnlockFromISR:0000002c $d
C:\Users\PCHAUT~1\AppData\Local\Temp\ccwn6d1C.s:552    .text.chVTIsArmedI:00000000 $t
C:\Users\PCHAUT~1\AppData\Local\Temp\ccwn6d1C.s:559    .text.chVTIsArmedI:00000000 chVTIsArmedI
C:\Users\PCHAUT~1\AppData\Local\Temp\ccwn6d1C.s:602    .text.chVTIsArmedI:00000034 $d
C:\Users\PCHAUT~1\AppData\Local\Temp\ccwn6d1C.s:607    .text.chSemFastSignalI:00000000 $t
C:\Users\PCHAUT~1\AppData\Local\Temp\ccwn6d1C.s:614    .text.chSemFastSignalI:00000000 chSemFastSignalI
C:\Users\PCHAUT~1\AppData\Local\Temp\ccwn6d1C.s:655    .text.chSemFastSignalI:00000030 $d
C:\Users\PCHAUT~1\AppData\Local\Temp\ccwn6d1C.s:661    .bss.ch:00000000 $d
C:\Users\PCHAUT~1\AppData\Local\Temp\ccwn6d1C.s:667    .text._scheduler_init:00000000 $t
C:\Users\PCHAUT~1\AppData\Local\Temp\ccwn6d1C.s:675    .text._scheduler_init:00000000 _scheduler_init
C:\Users\PCHAUT~1\AppData\Local\Temp\ccwn6d1C.s:722    .text._scheduler_init:00000038 $d
C:\Users\PCHAUT~1\AppData\Local\Temp\ccwn6d1C.s:728    .text.chSchReadyI:00000000 $t
C:\Users\PCHAUT~1\AppData\Local\Temp\ccwn6d1C.s:736    .text.chSchReadyI:00000000 chSchReadyI
C:\Users\PCHAUT~1\AppData\Local\Temp\ccwn6d1C.s:832    .text.chSchReadyI:00000088 $d
C:\Users\PCHAUT~1\AppData\Local\Temp\ccwn6d1C.s:1734   .rodata.__func__.7854:00000000 __func__.7854
C:\Users\PCHAUT~1\AppData\Local\Temp\ccwn6d1C.s:839    .rodata:00000000 $d
C:\Users\PCHAUT~1\AppData\Local\Temp\ccwn6d1C.s:843    .text.chSchGoSleepS:00000000 $t
C:\Users\PCHAUT~1\AppData\Local\Temp\ccwn6d1C.s:851    .text.chSchGoSleepS:00000000 chSchGoSleepS
C:\Users\PCHAUT~1\AppData\Local\Temp\ccwn6d1C.s:954    .text.chSchGoSleepS:00000094 $d
C:\Users\PCHAUT~1\AppData\Local\Temp\ccwn6d1C.s:961    .text.wakeup:00000000 $t
C:\Users\PCHAUT~1\AppData\Local\Temp\ccwn6d1C.s:968    .text.wakeup:00000000 wakeup
C:\Users\PCHAUT~1\AppData\Local\Temp\ccwn6d1C.s:998    .text.wakeup:00000024 $d
C:\Users\PCHAUT~1\AppData\Local\Temp\ccwn6d1C.s:1006   .text.wakeup:00000044 $t
C:\Users\PCHAUT~1\AppData\Local\Temp\ccwn6d1C.s:1061   .text.wakeup:00000090 $d
C:\Users\PCHAUT~1\AppData\Local\Temp\ccwn6d1C.s:1066   .text.chSchGoSleepTimeoutS:00000000 $t
ARM GAS  C:\Users\PCHAUT~1\AppData\Local\Temp\ccwn6d1C.s 			page 97


C:\Users\PCHAUT~1\AppData\Local\Temp\ccwn6d1C.s:1074   .text.chSchGoSleepTimeoutS:00000000 chSchGoSleepTimeoutS
C:\Users\PCHAUT~1\AppData\Local\Temp\ccwn6d1C.s:1149   .text.chSchGoSleepTimeoutS:00000074 $d
C:\Users\PCHAUT~1\AppData\Local\Temp\ccwn6d1C.s:1156   .text.chSchWakeupS:00000000 $t
C:\Users\PCHAUT~1\AppData\Local\Temp\ccwn6d1C.s:1164   .text.chSchWakeupS:00000000 chSchWakeupS
C:\Users\PCHAUT~1\AppData\Local\Temp\ccwn6d1C.s:1274   .text.chSchWakeupS:00000090 $d
C:\Users\PCHAUT~1\AppData\Local\Temp\ccwn6d1C.s:1281   .text.chSchRescheduleS:00000000 $t
C:\Users\PCHAUT~1\AppData\Local\Temp\ccwn6d1C.s:1289   .text.chSchRescheduleS:00000000 chSchRescheduleS
C:\Users\PCHAUT~1\AppData\Local\Temp\ccwn6d1C.s:1537   .text.chSchDoRescheduleAhead:00000000 chSchDoRescheduleAhead
C:\Users\PCHAUT~1\AppData\Local\Temp\ccwn6d1C.s:1330   .text.chSchRescheduleS:00000034 $d
C:\Users\PCHAUT~1\AppData\Local\Temp\ccwn6d1C.s:1335   .text.chSchIsPreemptionRequired:00000000 $t
C:\Users\PCHAUT~1\AppData\Local\Temp\ccwn6d1C.s:1343   .text.chSchIsPreemptionRequired:00000000 chSchIsPreemptionRequired
C:\Users\PCHAUT~1\AppData\Local\Temp\ccwn6d1C.s:1410   .text.chSchIsPreemptionRequired:0000005c $d
C:\Users\PCHAUT~1\AppData\Local\Temp\ccwn6d1C.s:1416   .text.chSchDoRescheduleBehind:00000000 $t
C:\Users\PCHAUT~1\AppData\Local\Temp\ccwn6d1C.s:1424   .text.chSchDoRescheduleBehind:00000000 chSchDoRescheduleBehind
C:\Users\PCHAUT~1\AppData\Local\Temp\ccwn6d1C.s:1522   .text.chSchDoRescheduleBehind:00000084 $d
C:\Users\PCHAUT~1\AppData\Local\Temp\ccwn6d1C.s:1529   .text.chSchDoRescheduleAhead:00000000 $t
C:\Users\PCHAUT~1\AppData\Local\Temp\ccwn6d1C.s:1665   .text.chSchDoRescheduleAhead:000000b0 $d
C:\Users\PCHAUT~1\AppData\Local\Temp\ccwn6d1C.s:1672   .text.chSchDoReschedule:00000000 $t
C:\Users\PCHAUT~1\AppData\Local\Temp\ccwn6d1C.s:1680   .text.chSchDoReschedule:00000000 chSchDoReschedule
C:\Users\PCHAUT~1\AppData\Local\Temp\ccwn6d1C.s:1725   .text.chSchDoReschedule:00000038 $d
C:\Users\PCHAUT~1\AppData\Local\Temp\ccwn6d1C.s:1731   .rodata.__func__.7854:00000000 $d

UNDEFINED SYMBOLS
__stack_chk_fail
__stack_chk_guard
chDbgCheckClassI
_stats_start_measure_crit_isr
_dbg_check_lock_from_isr
_dbg_check_unlock_from_isr
_stats_stop_measure_crit_isr
chSysHalt
chDbgCheckClassS
_dbg_trace
_stats_ctxswc
_port_switch
chVTDoSetI
chVTDoResetI
