ARM GAS  C:\Users\PCHAUT~1\AppData\Local\Temp\cctXY9od.s 			page 1


   1              		.cpu cortex-m4
   2              		.eabi_attribute 27, 1
   3              		.eabi_attribute 28, 1
   4              		.eabi_attribute 20, 1
   5              		.eabi_attribute 21, 1
   6              		.eabi_attribute 23, 3
   7              		.eabi_attribute 24, 1
   8              		.eabi_attribute 25, 1
   9              		.eabi_attribute 26, 1
  10              		.eabi_attribute 30, 6
  11              		.eabi_attribute 34, 1
  12              		.eabi_attribute 18, 4
  13              		.file	"chsem.c"
  14              		.text
  15              	.Ltext0:
  16              		.cfi_sections	.debug_frame
  17              		.section	.text.port_lock,"ax",%progbits
  18              		.align	1
  19              		.p2align 4,,15
  20              		.syntax unified
  21              		.thumb
  22              		.thumb_func
  23              		.fpu fpv4-sp-d16
  24              		.type	port_lock, %function
  25              	port_lock:
  26              	.LFB116:
  27              		.file 1 "../lib/e-puck2_main-processor/ChibiOS//os/rt/ports/ARMCMx/chcore_v7m.h"
  28              		.loc 1 444 0
  29              		.cfi_startproc
  30              		@ args = 0, pretend = 0, frame = 8
  31              		@ frame_needed = 0, uses_anonymous_args = 0
  32 0000 00B5     		push	{lr}
  33              		.cfi_def_cfa_offset 4
  34              		.cfi_offset 14, -4
  35 0002 83B0     		sub	sp, sp, #12
  36              		.cfi_def_cfa_offset 16
  37              		.loc 1 444 0
  38 0004 094B     		ldr	r3, .L3
  39 0006 1B68     		ldr	r3, [r3]
  40 0008 0193     		str	r3, [sp, #4]
  41 000a 2023     		movs	r3, #32
  42 000c 0093     		str	r3, [sp]
  43              	.LBB6:
  44              	.LBB7:
  45              		.file 2 "../lib/e-puck2_main-processor/ChibiOS//os/ext/CMSIS/include/core_cmFunc.h"
  46              		.loc 2 546 0
  47 000e 009B     		ldr	r3, [sp]
  48              		.syntax unified
  49              	@ 546 "../lib/e-puck2_main-processor/ChibiOS//os/ext/CMSIS/include/core_cmFunc.h" 1
  50 0010 83F31188 		MSR basepri, r3
  51              	@ 0 "" 2
  52              		.thumb
  53              		.syntax unified
  54              	.LBE7:
  55              	.LBE6:
  56              		.loc 1 451 0
  57 0014 00BF     		nop
ARM GAS  C:\Users\PCHAUT~1\AppData\Local\Temp\cctXY9od.s 			page 2


  58 0016 054B     		ldr	r3, .L3
  59 0018 019A     		ldr	r2, [sp, #4]
  60 001a 1B68     		ldr	r3, [r3]
  61 001c 9A42     		cmp	r2, r3
  62 001e 01D0     		beq	.L2
  63 0020 FFF7FEFF 		bl	__stack_chk_fail
  64              	.L2:
  65 0024 03B0     		add	sp, sp, #12
  66              		.cfi_def_cfa_offset 4
  67              		@ sp needed
  68 0026 5DF804FB 		ldr	pc, [sp], #4
  69              	.L4:
  70 002a 00BF     		.align	2
  71              	.L3:
  72 002c 00000000 		.word	__stack_chk_guard
  73              		.cfi_endproc
  74              	.LFE116:
  75              		.size	port_lock, .-port_lock
  76              		.section	.text.port_unlock,"ax",%progbits
  77              		.align	1
  78              		.p2align 4,,15
  79              		.syntax unified
  80              		.thumb
  81              		.thumb_func
  82              		.fpu fpv4-sp-d16
  83              		.type	port_unlock, %function
  84              	port_unlock:
  85              	.LFB117:
  86              		.loc 1 458 0
  87              		.cfi_startproc
  88              		@ args = 0, pretend = 0, frame = 8
  89              		@ frame_needed = 0, uses_anonymous_args = 0
  90 0000 00B5     		push	{lr}
  91              		.cfi_def_cfa_offset 4
  92              		.cfi_offset 14, -4
  93 0002 83B0     		sub	sp, sp, #12
  94              		.cfi_def_cfa_offset 16
  95              		.loc 1 458 0
  96 0004 094B     		ldr	r3, .L7
  97 0006 1B68     		ldr	r3, [r3]
  98 0008 0193     		str	r3, [sp, #4]
  99 000a 0023     		movs	r3, #0
 100 000c 0093     		str	r3, [sp]
 101              	.LBB8:
 102              	.LBB9:
 103              		.loc 2 546 0
 104 000e 009B     		ldr	r3, [sp]
 105              		.syntax unified
 106              	@ 546 "../lib/e-puck2_main-processor/ChibiOS//os/ext/CMSIS/include/core_cmFunc.h" 1
 107 0010 83F31188 		MSR basepri, r3
 108              	@ 0 "" 2
 109              		.thumb
 110              		.syntax unified
 111              	.LBE9:
 112              	.LBE8:
 113              		.loc 1 465 0
 114 0014 00BF     		nop
ARM GAS  C:\Users\PCHAUT~1\AppData\Local\Temp\cctXY9od.s 			page 3


 115 0016 054B     		ldr	r3, .L7
 116 0018 019A     		ldr	r2, [sp, #4]
 117 001a 1B68     		ldr	r3, [r3]
 118 001c 9A42     		cmp	r2, r3
 119 001e 01D0     		beq	.L6
 120 0020 FFF7FEFF 		bl	__stack_chk_fail
 121              	.L6:
 122 0024 03B0     		add	sp, sp, #12
 123              		.cfi_def_cfa_offset 4
 124              		@ sp needed
 125 0026 5DF804FB 		ldr	pc, [sp], #4
 126              	.L8:
 127 002a 00BF     		.align	2
 128              	.L7:
 129 002c 00000000 		.word	__stack_chk_guard
 130              		.cfi_endproc
 131              	.LFE117:
 132              		.size	port_unlock, .-port_unlock
 133              		.section	.text.queue_init,"ax",%progbits
 134              		.align	1
 135              		.p2align 4,,15
 136              		.syntax unified
 137              		.thumb
 138              		.thumb_func
 139              		.fpu fpv4-sp-d16
 140              		.type	queue_init, %function
 141              	queue_init:
 142              	.LFB128:
 143              		.file 3 "../lib/e-puck2_main-processor/ChibiOS//os/rt/include/chschd.h"
 144              		.loc 3 602 0
 145              		.cfi_startproc
 146              		@ args = 0, pretend = 0, frame = 16
 147              		@ frame_needed = 0, uses_anonymous_args = 0
 148 0000 00B5     		push	{lr}
 149              		.cfi_def_cfa_offset 4
 150              		.cfi_offset 14, -4
 151 0002 85B0     		sub	sp, sp, #20
 152              		.cfi_def_cfa_offset 24
 153 0004 0190     		str	r0, [sp, #4]
 154              		.loc 3 602 0
 155 0006 0A4B     		ldr	r3, .L11
 156 0008 1B68     		ldr	r3, [r3]
 157 000a 0393     		str	r3, [sp, #12]
 158              		.loc 3 604 0
 159 000c 019B     		ldr	r3, [sp, #4]
 160 000e 019A     		ldr	r2, [sp, #4]
 161 0010 1A60     		str	r2, [r3]
 162              		.loc 3 605 0
 163 0012 019B     		ldr	r3, [sp, #4]
 164 0014 019A     		ldr	r2, [sp, #4]
 165 0016 5A60     		str	r2, [r3, #4]
 166              		.loc 3 606 0
 167 0018 00BF     		nop
 168 001a 054B     		ldr	r3, .L11
 169 001c 039A     		ldr	r2, [sp, #12]
 170 001e 1B68     		ldr	r3, [r3]
 171 0020 9A42     		cmp	r2, r3
ARM GAS  C:\Users\PCHAUT~1\AppData\Local\Temp\cctXY9od.s 			page 4


 172 0022 01D0     		beq	.L10
 173 0024 FFF7FEFF 		bl	__stack_chk_fail
 174              	.L10:
 175 0028 05B0     		add	sp, sp, #20
 176              		.cfi_def_cfa_offset 4
 177              		@ sp needed
 178 002a 5DF804FB 		ldr	pc, [sp], #4
 179              	.L12:
 180 002e 00BF     		.align	2
 181              	.L11:
 182 0030 00000000 		.word	__stack_chk_guard
 183              		.cfi_endproc
 184              	.LFE128:
 185              		.size	queue_init, .-queue_init
 186              		.section	.text.queue_isempty,"ax",%progbits
 187              		.align	1
 188              		.p2align 4,,15
 189              		.syntax unified
 190              		.thumb
 191              		.thumb_func
 192              		.fpu fpv4-sp-d16
 193              		.type	queue_isempty, %function
 194              	queue_isempty:
 195              	.LFB129:
 196              		.loc 3 616 0
 197              		.cfi_startproc
 198              		@ args = 0, pretend = 0, frame = 16
 199              		@ frame_needed = 0, uses_anonymous_args = 0
 200 0000 00B5     		push	{lr}
 201              		.cfi_def_cfa_offset 4
 202              		.cfi_offset 14, -4
 203 0002 85B0     		sub	sp, sp, #20
 204              		.cfi_def_cfa_offset 24
 205 0004 0190     		str	r0, [sp, #4]
 206              		.loc 3 616 0
 207 0006 0B4B     		ldr	r3, .L16
 208 0008 1B68     		ldr	r3, [r3]
 209 000a 0393     		str	r3, [sp, #12]
 210              		.loc 3 618 0
 211 000c 019B     		ldr	r3, [sp, #4]
 212 000e 1B68     		ldr	r3, [r3]
 213 0010 019A     		ldr	r2, [sp, #4]
 214 0012 9A42     		cmp	r2, r3
 215 0014 0CBF     		ite	eq
 216 0016 0123     		moveq	r3, #1
 217 0018 0023     		movne	r3, #0
 218 001a DBB2     		uxtb	r3, r3
 219              		.loc 3 619 0
 220 001c 1846     		mov	r0, r3
 221 001e 054B     		ldr	r3, .L16
 222 0020 039A     		ldr	r2, [sp, #12]
 223 0022 1B68     		ldr	r3, [r3]
 224 0024 9A42     		cmp	r2, r3
 225 0026 01D0     		beq	.L15
 226 0028 FFF7FEFF 		bl	__stack_chk_fail
 227              	.L15:
 228 002c 05B0     		add	sp, sp, #20
ARM GAS  C:\Users\PCHAUT~1\AppData\Local\Temp\cctXY9od.s 			page 5


 229              		.cfi_def_cfa_offset 4
 230              		@ sp needed
 231 002e 5DF804FB 		ldr	pc, [sp], #4
 232              	.L17:
 233 0032 00BF     		.align	2
 234              	.L16:
 235 0034 00000000 		.word	__stack_chk_guard
 236              		.cfi_endproc
 237              	.LFE129:
 238              		.size	queue_isempty, .-queue_isempty
 239              		.section	.text.queue_notempty,"ax",%progbits
 240              		.align	1
 241              		.p2align 4,,15
 242              		.syntax unified
 243              		.thumb
 244              		.thumb_func
 245              		.fpu fpv4-sp-d16
 246              		.type	queue_notempty, %function
 247              	queue_notempty:
 248              	.LFB130:
 249              		.loc 3 629 0
 250              		.cfi_startproc
 251              		@ args = 0, pretend = 0, frame = 16
 252              		@ frame_needed = 0, uses_anonymous_args = 0
 253 0000 00B5     		push	{lr}
 254              		.cfi_def_cfa_offset 4
 255              		.cfi_offset 14, -4
 256 0002 85B0     		sub	sp, sp, #20
 257              		.cfi_def_cfa_offset 24
 258 0004 0190     		str	r0, [sp, #4]
 259              		.loc 3 629 0
 260 0006 0B4B     		ldr	r3, .L21
 261 0008 1B68     		ldr	r3, [r3]
 262 000a 0393     		str	r3, [sp, #12]
 263              		.loc 3 631 0
 264 000c 019B     		ldr	r3, [sp, #4]
 265 000e 1B68     		ldr	r3, [r3]
 266 0010 019A     		ldr	r2, [sp, #4]
 267 0012 9A42     		cmp	r2, r3
 268 0014 14BF     		ite	ne
 269 0016 0123     		movne	r3, #1
 270 0018 0023     		moveq	r3, #0
 271 001a DBB2     		uxtb	r3, r3
 272              		.loc 3 632 0
 273 001c 1846     		mov	r0, r3
 274 001e 054B     		ldr	r3, .L21
 275 0020 039A     		ldr	r2, [sp, #12]
 276 0022 1B68     		ldr	r3, [r3]
 277 0024 9A42     		cmp	r2, r3
 278 0026 01D0     		beq	.L20
 279 0028 FFF7FEFF 		bl	__stack_chk_fail
 280              	.L20:
 281 002c 05B0     		add	sp, sp, #20
 282              		.cfi_def_cfa_offset 4
 283              		@ sp needed
 284 002e 5DF804FB 		ldr	pc, [sp], #4
 285              	.L22:
ARM GAS  C:\Users\PCHAUT~1\AppData\Local\Temp\cctXY9od.s 			page 6


 286 0032 00BF     		.align	2
 287              	.L21:
 288 0034 00000000 		.word	__stack_chk_guard
 289              		.cfi_endproc
 290              	.LFE130:
 291              		.size	queue_notempty, .-queue_notempty
 292              		.section	.text.queue_insert,"ax",%progbits
 293              		.align	1
 294              		.p2align 4,,15
 295              		.syntax unified
 296              		.thumb
 297              		.thumb_func
 298              		.fpu fpv4-sp-d16
 299              		.type	queue_insert, %function
 300              	queue_insert:
 301              	.LFB134:
 302              		.loc 3 663 0
 303              		.cfi_startproc
 304              		@ args = 0, pretend = 0, frame = 16
 305              		@ frame_needed = 0, uses_anonymous_args = 0
 306 0000 00B5     		push	{lr}
 307              		.cfi_def_cfa_offset 4
 308              		.cfi_offset 14, -4
 309 0002 85B0     		sub	sp, sp, #20
 310              		.cfi_def_cfa_offset 24
 311 0004 0190     		str	r0, [sp, #4]
 312 0006 0091     		str	r1, [sp]
 313              		.loc 3 663 0
 314 0008 0D4B     		ldr	r3, .L25
 315 000a 1B68     		ldr	r3, [r3]
 316 000c 0393     		str	r3, [sp, #12]
 317              		.loc 3 665 0
 318 000e 019B     		ldr	r3, [sp, #4]
 319 0010 009A     		ldr	r2, [sp]
 320 0012 1A60     		str	r2, [r3]
 321              		.loc 3 666 0
 322 0014 009B     		ldr	r3, [sp]
 323 0016 5A68     		ldr	r2, [r3, #4]
 324 0018 019B     		ldr	r3, [sp, #4]
 325 001a 5A60     		str	r2, [r3, #4]
 326              		.loc 3 667 0
 327 001c 019B     		ldr	r3, [sp, #4]
 328 001e 5B68     		ldr	r3, [r3, #4]
 329 0020 019A     		ldr	r2, [sp, #4]
 330 0022 1A60     		str	r2, [r3]
 331              		.loc 3 668 0
 332 0024 009B     		ldr	r3, [sp]
 333 0026 019A     		ldr	r2, [sp, #4]
 334 0028 5A60     		str	r2, [r3, #4]
 335              		.loc 3 669 0
 336 002a 00BF     		nop
 337 002c 044B     		ldr	r3, .L25
 338 002e 039A     		ldr	r2, [sp, #12]
 339 0030 1B68     		ldr	r3, [r3]
 340 0032 9A42     		cmp	r2, r3
 341 0034 01D0     		beq	.L24
 342 0036 FFF7FEFF 		bl	__stack_chk_fail
ARM GAS  C:\Users\PCHAUT~1\AppData\Local\Temp\cctXY9od.s 			page 7


 343              	.L24:
 344 003a 05B0     		add	sp, sp, #20
 345              		.cfi_def_cfa_offset 4
 346              		@ sp needed
 347 003c 5DF804FB 		ldr	pc, [sp], #4
 348              	.L26:
 349              		.align	2
 350              	.L25:
 351 0040 00000000 		.word	__stack_chk_guard
 352              		.cfi_endproc
 353              	.LFE134:
 354              		.size	queue_insert, .-queue_insert
 355              		.section	.text.queue_fifo_remove,"ax",%progbits
 356              		.align	1
 357              		.p2align 4,,15
 358              		.syntax unified
 359              		.thumb
 360              		.thumb_func
 361              		.fpu fpv4-sp-d16
 362              		.type	queue_fifo_remove, %function
 363              	queue_fifo_remove:
 364              	.LFB135:
 365              		.loc 3 671 0
 366              		.cfi_startproc
 367              		@ args = 0, pretend = 0, frame = 16
 368              		@ frame_needed = 0, uses_anonymous_args = 0
 369 0000 00B5     		push	{lr}
 370              		.cfi_def_cfa_offset 4
 371              		.cfi_offset 14, -4
 372 0002 85B0     		sub	sp, sp, #20
 373              		.cfi_def_cfa_offset 24
 374 0004 0190     		str	r0, [sp, #4]
 375              		.loc 3 671 0
 376 0006 0D4B     		ldr	r3, .L30
 377 0008 1B68     		ldr	r3, [r3]
 378 000a 0393     		str	r3, [sp, #12]
 379              		.loc 3 672 0
 380 000c 019B     		ldr	r3, [sp, #4]
 381 000e 1B68     		ldr	r3, [r3]
 382 0010 0293     		str	r3, [sp, #8]
 383              		.loc 3 674 0
 384 0012 029B     		ldr	r3, [sp, #8]
 385 0014 1A68     		ldr	r2, [r3]
 386 0016 019B     		ldr	r3, [sp, #4]
 387 0018 1A60     		str	r2, [r3]
 388              		.loc 3 675 0
 389 001a 019B     		ldr	r3, [sp, #4]
 390 001c 1B68     		ldr	r3, [r3]
 391 001e 019A     		ldr	r2, [sp, #4]
 392 0020 5A60     		str	r2, [r3, #4]
 393              		.loc 3 677 0
 394 0022 029B     		ldr	r3, [sp, #8]
 395              		.loc 3 678 0
 396 0024 1846     		mov	r0, r3
 397 0026 054B     		ldr	r3, .L30
 398 0028 039A     		ldr	r2, [sp, #12]
 399 002a 1B68     		ldr	r3, [r3]
ARM GAS  C:\Users\PCHAUT~1\AppData\Local\Temp\cctXY9od.s 			page 8


 400 002c 9A42     		cmp	r2, r3
 401 002e 01D0     		beq	.L29
 402 0030 FFF7FEFF 		bl	__stack_chk_fail
 403              	.L29:
 404 0034 05B0     		add	sp, sp, #20
 405              		.cfi_def_cfa_offset 4
 406              		@ sp needed
 407 0036 5DF804FB 		ldr	pc, [sp], #4
 408              	.L31:
 409 003a 00BF     		.align	2
 410              	.L30:
 411 003c 00000000 		.word	__stack_chk_guard
 412              		.cfi_endproc
 413              	.LFE135:
 414              		.size	queue_fifo_remove, .-queue_fifo_remove
 415              		.section	.text.queue_lifo_remove,"ax",%progbits
 416              		.align	1
 417              		.p2align 4,,15
 418              		.syntax unified
 419              		.thumb
 420              		.thumb_func
 421              		.fpu fpv4-sp-d16
 422              		.type	queue_lifo_remove, %function
 423              	queue_lifo_remove:
 424              	.LFB136:
 425              		.loc 3 680 0
 426              		.cfi_startproc
 427              		@ args = 0, pretend = 0, frame = 16
 428              		@ frame_needed = 0, uses_anonymous_args = 0
 429 0000 00B5     		push	{lr}
 430              		.cfi_def_cfa_offset 4
 431              		.cfi_offset 14, -4
 432 0002 85B0     		sub	sp, sp, #20
 433              		.cfi_def_cfa_offset 24
 434 0004 0190     		str	r0, [sp, #4]
 435              		.loc 3 680 0
 436 0006 0D4B     		ldr	r3, .L35
 437 0008 1B68     		ldr	r3, [r3]
 438 000a 0393     		str	r3, [sp, #12]
 439              		.loc 3 681 0
 440 000c 019B     		ldr	r3, [sp, #4]
 441 000e 5B68     		ldr	r3, [r3, #4]
 442 0010 0293     		str	r3, [sp, #8]
 443              		.loc 3 683 0
 444 0012 029B     		ldr	r3, [sp, #8]
 445 0014 5A68     		ldr	r2, [r3, #4]
 446 0016 019B     		ldr	r3, [sp, #4]
 447 0018 5A60     		str	r2, [r3, #4]
 448              		.loc 3 684 0
 449 001a 019B     		ldr	r3, [sp, #4]
 450 001c 5B68     		ldr	r3, [r3, #4]
 451 001e 019A     		ldr	r2, [sp, #4]
 452 0020 1A60     		str	r2, [r3]
 453              		.loc 3 686 0
 454 0022 029B     		ldr	r3, [sp, #8]
 455              		.loc 3 687 0
 456 0024 1846     		mov	r0, r3
ARM GAS  C:\Users\PCHAUT~1\AppData\Local\Temp\cctXY9od.s 			page 9


 457 0026 054B     		ldr	r3, .L35
 458 0028 039A     		ldr	r2, [sp, #12]
 459 002a 1B68     		ldr	r3, [r3]
 460 002c 9A42     		cmp	r2, r3
 461 002e 01D0     		beq	.L34
 462 0030 FFF7FEFF 		bl	__stack_chk_fail
 463              	.L34:
 464 0034 05B0     		add	sp, sp, #20
 465              		.cfi_def_cfa_offset 4
 466              		@ sp needed
 467 0036 5DF804FB 		ldr	pc, [sp], #4
 468              	.L36:
 469 003a 00BF     		.align	2
 470              	.L35:
 471 003c 00000000 		.word	__stack_chk_guard
 472              		.cfi_endproc
 473              	.LFE136:
 474              		.size	queue_lifo_remove, .-queue_lifo_remove
 475              		.section	.text.chSysLock,"ax",%progbits
 476              		.align	1
 477              		.p2align 4,,15
 478              		.syntax unified
 479              		.thumb
 480              		.thumb_func
 481              		.fpu fpv4-sp-d16
 482              		.type	chSysLock, %function
 483              	chSysLock:
 484              	.LFB145:
 485              		.file 4 "../lib/e-puck2_main-processor/ChibiOS//os/rt/include/chsys.h"
 486              		.loc 4 346 0
 487              		.cfi_startproc
 488              		@ args = 0, pretend = 0, frame = 8
 489              		@ frame_needed = 0, uses_anonymous_args = 0
 490 0000 00B5     		push	{lr}
 491              		.cfi_def_cfa_offset 4
 492              		.cfi_offset 14, -4
 493 0002 83B0     		sub	sp, sp, #12
 494              		.cfi_def_cfa_offset 16
 495              		.loc 4 346 0
 496 0004 094B     		ldr	r3, .L39
 497 0006 1B68     		ldr	r3, [r3]
 498 0008 0193     		str	r3, [sp, #4]
 499              		.loc 4 348 0
 500 000a FFF7FEFF 		bl	port_lock
 501              		.loc 4 349 0
 502 000e FFF7FEFF 		bl	_stats_start_measure_crit_thd
 503              		.loc 4 350 0
 504 0012 FFF7FEFF 		bl	_dbg_check_lock
 505              		.loc 4 351 0
 506 0016 00BF     		nop
 507 0018 044B     		ldr	r3, .L39
 508 001a 019A     		ldr	r2, [sp, #4]
 509 001c 1B68     		ldr	r3, [r3]
 510 001e 9A42     		cmp	r2, r3
 511 0020 01D0     		beq	.L38
 512 0022 FFF7FEFF 		bl	__stack_chk_fail
 513              	.L38:
ARM GAS  C:\Users\PCHAUT~1\AppData\Local\Temp\cctXY9od.s 			page 10


 514 0026 03B0     		add	sp, sp, #12
 515              		.cfi_def_cfa_offset 4
 516              		@ sp needed
 517 0028 5DF804FB 		ldr	pc, [sp], #4
 518              	.L40:
 519              		.align	2
 520              	.L39:
 521 002c 00000000 		.word	__stack_chk_guard
 522              		.cfi_endproc
 523              	.LFE145:
 524              		.size	chSysLock, .-chSysLock
 525              		.section	.text.chSysUnlock,"ax",%progbits
 526              		.align	1
 527              		.p2align 4,,15
 528              		.syntax unified
 529              		.thumb
 530              		.thumb_func
 531              		.fpu fpv4-sp-d16
 532              		.type	chSysUnlock, %function
 533              	chSysUnlock:
 534              	.LFB146:
 535              		.loc 4 358 0
 536              		.cfi_startproc
 537              		@ args = 0, pretend = 0, frame = 8
 538              		@ frame_needed = 0, uses_anonymous_args = 0
 539 0000 00B5     		push	{lr}
 540              		.cfi_def_cfa_offset 4
 541              		.cfi_offset 14, -4
 542 0002 83B0     		sub	sp, sp, #12
 543              		.cfi_def_cfa_offset 16
 544              		.loc 4 358 0
 545 0004 114B     		ldr	r3, .L44
 546 0006 1B68     		ldr	r3, [r3]
 547 0008 0193     		str	r3, [sp, #4]
 548              		.loc 4 360 0
 549 000a FFF7FEFF 		bl	_dbg_check_unlock
 550              		.loc 4 361 0
 551 000e FFF7FEFF 		bl	_stats_stop_measure_crit_thd
 552              		.loc 4 367 0
 553 0012 0F4B     		ldr	r3, .L44+4
 554 0014 1B68     		ldr	r3, [r3]
 555 0016 0E4A     		ldr	r2, .L44+4
 556 0018 9342     		cmp	r3, r2
 557 001a 0AD0     		beq	.L42
 558              		.loc 4 367 0 is_stmt 0 discriminator 2
 559 001c 0C4B     		ldr	r3, .L44+4
 560 001e 9B69     		ldr	r3, [r3, #24]
 561 0020 9A68     		ldr	r2, [r3, #8]
 562 0022 0B4B     		ldr	r3, .L44+4
 563 0024 1B68     		ldr	r3, [r3]
 564 0026 9B68     		ldr	r3, [r3, #8]
 565 0028 9A42     		cmp	r2, r3
 566 002a 02D2     		bcs	.L42
 567              		.loc 4 367 0 discriminator 3
 568 002c 0948     		ldr	r0, .L44+8
 569 002e FFF7FEFF 		bl	chSysHalt
 570              	.L42:
ARM GAS  C:\Users\PCHAUT~1\AppData\Local\Temp\cctXY9od.s 			page 11


 571              		.loc 4 371 0 is_stmt 1
 572 0032 FFF7FEFF 		bl	port_unlock
 573              		.loc 4 372 0
 574 0036 00BF     		nop
 575 0038 044B     		ldr	r3, .L44
 576 003a 019A     		ldr	r2, [sp, #4]
 577 003c 1B68     		ldr	r3, [r3]
 578 003e 9A42     		cmp	r2, r3
 579 0040 01D0     		beq	.L43
 580 0042 FFF7FEFF 		bl	__stack_chk_fail
 581              	.L43:
 582 0046 03B0     		add	sp, sp, #12
 583              		.cfi_def_cfa_offset 4
 584              		@ sp needed
 585 0048 5DF804FB 		ldr	pc, [sp], #4
 586              	.L45:
 587              		.align	2
 588              	.L44:
 589 004c 00000000 		.word	__stack_chk_guard
 590 0050 00000000 		.word	ch
 591 0054 00000000 		.word	__func__.7153
 592              		.cfi_endproc
 593              	.LFE146:
 594              		.size	chSysUnlock, .-chSysUnlock
 595              		.section	.text.chSemObjectInit,"ax",%progbits
 596              		.align	1
 597              		.p2align 4,,15
 598              		.global	chSemObjectInit
 599              		.syntax unified
 600              		.thumb
 601              		.thumb_func
 602              		.fpu fpv4-sp-d16
 603              		.type	chSemObjectInit, %function
 604              	chSemObjectInit:
 605              	.LFB219:
 606              		.file 5 "../lib/e-puck2_main-processor/ChibiOS//os/rt/src/chsem.c"
 607              		.loc 5 97 0
 608              		.cfi_startproc
 609              		@ args = 0, pretend = 0, frame = 16
 610              		@ frame_needed = 0, uses_anonymous_args = 0
 611 0000 00B5     		push	{lr}
 612              		.cfi_def_cfa_offset 4
 613              		.cfi_offset 14, -4
 614 0002 85B0     		sub	sp, sp, #20
 615              		.cfi_def_cfa_offset 24
 616 0004 0190     		str	r0, [sp, #4]
 617 0006 0091     		str	r1, [sp]
 618              		.loc 5 97 0
 619 0008 0E4B     		ldr	r3, .L50
 620 000a 1B68     		ldr	r3, [r3]
 621 000c 0393     		str	r3, [sp, #12]
 622              		.loc 5 99 0
 623 000e 019B     		ldr	r3, [sp, #4]
 624 0010 002B     		cmp	r3, #0
 625 0012 02D0     		beq	.L47
 626              		.loc 5 99 0 is_stmt 0 discriminator 3
 627 0014 009B     		ldr	r3, [sp]
ARM GAS  C:\Users\PCHAUT~1\AppData\Local\Temp\cctXY9od.s 			page 12


 628 0016 002B     		cmp	r3, #0
 629 0018 02DA     		bge	.L48
 630              	.L47:
 631              		.loc 5 99 0 discriminator 4
 632 001a 0B48     		ldr	r0, .L50+4
 633 001c FFF7FEFF 		bl	chSysHalt
 634              	.L48:
 635              		.loc 5 101 0 is_stmt 1
 636 0020 019B     		ldr	r3, [sp, #4]
 637 0022 1846     		mov	r0, r3
 638 0024 FFF7FEFF 		bl	queue_init
 639              		.loc 5 102 0
 640 0028 019B     		ldr	r3, [sp, #4]
 641 002a 009A     		ldr	r2, [sp]
 642 002c 9A60     		str	r2, [r3, #8]
 643              		.loc 5 103 0
 644 002e 00BF     		nop
 645 0030 044B     		ldr	r3, .L50
 646 0032 039A     		ldr	r2, [sp, #12]
 647 0034 1B68     		ldr	r3, [r3]
 648 0036 9A42     		cmp	r2, r3
 649 0038 01D0     		beq	.L49
 650 003a FFF7FEFF 		bl	__stack_chk_fail
 651              	.L49:
 652 003e 05B0     		add	sp, sp, #20
 653              		.cfi_def_cfa_offset 4
 654              		@ sp needed
 655 0040 5DF804FB 		ldr	pc, [sp], #4
 656              	.L51:
 657              		.align	2
 658              	.L50:
 659 0044 00000000 		.word	__stack_chk_guard
 660 0048 00000000 		.word	__func__.7850
 661              		.cfi_endproc
 662              	.LFE219:
 663              		.size	chSemObjectInit, .-chSemObjectInit
 664              		.section	.text.chSemReset,"ax",%progbits
 665              		.align	1
 666              		.p2align 4,,15
 667              		.global	chSemReset
 668              		.syntax unified
 669              		.thumb
 670              		.thumb_func
 671              		.fpu fpv4-sp-d16
 672              		.type	chSemReset, %function
 673              	chSemReset:
 674              	.LFB220:
 675              		.loc 5 120 0
 676              		.cfi_startproc
 677              		@ args = 0, pretend = 0, frame = 16
 678              		@ frame_needed = 0, uses_anonymous_args = 0
 679 0000 00B5     		push	{lr}
 680              		.cfi_def_cfa_offset 4
 681              		.cfi_offset 14, -4
 682 0002 85B0     		sub	sp, sp, #20
 683              		.cfi_def_cfa_offset 24
 684 0004 0190     		str	r0, [sp, #4]
ARM GAS  C:\Users\PCHAUT~1\AppData\Local\Temp\cctXY9od.s 			page 13


 685 0006 0091     		str	r1, [sp]
 686              		.loc 5 120 0
 687 0008 0B4B     		ldr	r3, .L54
 688 000a 1B68     		ldr	r3, [r3]
 689 000c 0393     		str	r3, [sp, #12]
 690              		.loc 5 122 0
 691 000e FFF7FEFF 		bl	chSysLock
 692              		.loc 5 123 0
 693 0012 0099     		ldr	r1, [sp]
 694 0014 0198     		ldr	r0, [sp, #4]
 695 0016 FFF7FEFF 		bl	chSemResetI
 696              		.loc 5 124 0
 697 001a FFF7FEFF 		bl	chSchRescheduleS
 698              		.loc 5 125 0
 699 001e FFF7FEFF 		bl	chSysUnlock
 700              		.loc 5 126 0
 701 0022 00BF     		nop
 702 0024 044B     		ldr	r3, .L54
 703 0026 039A     		ldr	r2, [sp, #12]
 704 0028 1B68     		ldr	r3, [r3]
 705 002a 9A42     		cmp	r2, r3
 706 002c 01D0     		beq	.L53
 707 002e FFF7FEFF 		bl	__stack_chk_fail
 708              	.L53:
 709 0032 05B0     		add	sp, sp, #20
 710              		.cfi_def_cfa_offset 4
 711              		@ sp needed
 712 0034 5DF804FB 		ldr	pc, [sp], #4
 713              	.L55:
 714              		.align	2
 715              	.L54:
 716 0038 00000000 		.word	__stack_chk_guard
 717              		.cfi_endproc
 718              	.LFE220:
 719              		.size	chSemReset, .-chSemReset
 720              		.section	.text.chSemResetI,"ax",%progbits
 721              		.align	1
 722              		.p2align 4,,15
 723              		.global	chSemResetI
 724              		.syntax unified
 725              		.thumb
 726              		.thumb_func
 727              		.fpu fpv4-sp-d16
 728              		.type	chSemResetI, %function
 729              	chSemResetI:
 730              	.LFB221:
 731              		.loc 5 147 0
 732              		.cfi_startproc
 733              		@ args = 0, pretend = 0, frame = 16
 734              		@ frame_needed = 0, uses_anonymous_args = 0
 735 0000 00B5     		push	{lr}
 736              		.cfi_def_cfa_offset 4
 737              		.cfi_offset 14, -4
 738 0002 85B0     		sub	sp, sp, #20
 739              		.cfi_def_cfa_offset 24
 740 0004 0190     		str	r0, [sp, #4]
 741 0006 0091     		str	r1, [sp]
ARM GAS  C:\Users\PCHAUT~1\AppData\Local\Temp\cctXY9od.s 			page 14


 742              		.loc 5 147 0
 743 0008 284B     		ldr	r3, .L66
 744 000a 1B68     		ldr	r3, [r3]
 745 000c 0393     		str	r3, [sp, #12]
 746              		.loc 5 150 0
 747 000e FFF7FEFF 		bl	chDbgCheckClassI
 748              		.loc 5 151 0
 749 0012 019B     		ldr	r3, [sp, #4]
 750 0014 002B     		cmp	r3, #0
 751 0016 02D0     		beq	.L57
 752              		.loc 5 151 0 is_stmt 0 discriminator 3
 753 0018 009B     		ldr	r3, [sp]
 754 001a 002B     		cmp	r3, #0
 755 001c 02DA     		bge	.L65
 756              	.L57:
 757              		.loc 5 151 0 discriminator 4
 758 001e 2448     		ldr	r0, .L66+4
 759 0020 FFF7FEFF 		bl	chSysHalt
 760              	.L65:
 761              		.loc 5 152 0 is_stmt 1 discriminator 1
 762 0024 019B     		ldr	r3, [sp, #4]
 763 0026 9B68     		ldr	r3, [r3, #8]
 764 0028 002B     		cmp	r3, #0
 765 002a 09DB     		blt	.L59
 766              		.loc 5 152 0 is_stmt 0 discriminator 3
 767 002c 019B     		ldr	r3, [sp, #4]
 768 002e 1846     		mov	r0, r3
 769 0030 FFF7FEFF 		bl	queue_isempty
 770 0034 0346     		mov	r3, r0
 771 0036 83F00103 		eor	r3, r3, #1
 772 003a DBB2     		uxtb	r3, r3
 773 003c 002B     		cmp	r3, #0
 774 003e 10D0     		beq	.L60
 775              	.L59:
 776              		.loc 5 152 0 discriminator 4
 777 0040 019B     		ldr	r3, [sp, #4]
 778 0042 9B68     		ldr	r3, [r3, #8]
 779 0044 002B     		cmp	r3, #0
 780 0046 09DA     		bge	.L61
 781              		.loc 5 152 0 discriminator 6
 782 0048 019B     		ldr	r3, [sp, #4]
 783 004a 1846     		mov	r0, r3
 784 004c FFF7FEFF 		bl	queue_notempty
 785 0050 0346     		mov	r3, r0
 786 0052 83F00103 		eor	r3, r3, #1
 787 0056 DBB2     		uxtb	r3, r3
 788 0058 002B     		cmp	r3, #0
 789 005a 02D0     		beq	.L60
 790              	.L61:
 791              		.loc 5 152 0 discriminator 7
 792 005c 1448     		ldr	r0, .L66+4
 793 005e FFF7FEFF 		bl	chSysHalt
 794              	.L60:
 795              		.loc 5 156 0 is_stmt 1
 796 0062 019B     		ldr	r3, [sp, #4]
 797 0064 9B68     		ldr	r3, [r3, #8]
 798 0066 0293     		str	r3, [sp, #8]
ARM GAS  C:\Users\PCHAUT~1\AppData\Local\Temp\cctXY9od.s 			page 15


 799              		.loc 5 157 0
 800 0068 019B     		ldr	r3, [sp, #4]
 801 006a 009A     		ldr	r2, [sp]
 802 006c 9A60     		str	r2, [r3, #8]
 803              		.loc 5 158 0
 804 006e 0BE0     		b	.L62
 805              	.L63:
 806              		.loc 5 159 0
 807 0070 019B     		ldr	r3, [sp, #4]
 808 0072 1846     		mov	r0, r3
 809 0074 FFF7FEFF 		bl	queue_lifo_remove
 810 0078 0346     		mov	r3, r0
 811 007a 1846     		mov	r0, r3
 812 007c FFF7FEFF 		bl	chSchReadyI
 813 0080 0246     		mov	r2, r0
 814 0082 6FF00103 		mvn	r3, #1
 815 0086 9362     		str	r3, [r2, #40]
 816              	.L62:
 817              		.loc 5 158 0
 818 0088 029B     		ldr	r3, [sp, #8]
 819 008a 0133     		adds	r3, r3, #1
 820 008c 0293     		str	r3, [sp, #8]
 821 008e 029B     		ldr	r3, [sp, #8]
 822 0090 002B     		cmp	r3, #0
 823 0092 EDDD     		ble	.L63
 824              		.loc 5 161 0
 825 0094 00BF     		nop
 826 0096 054B     		ldr	r3, .L66
 827 0098 039A     		ldr	r2, [sp, #12]
 828 009a 1B68     		ldr	r3, [r3]
 829 009c 9A42     		cmp	r2, r3
 830 009e 01D0     		beq	.L64
 831 00a0 FFF7FEFF 		bl	__stack_chk_fail
 832              	.L64:
 833 00a4 05B0     		add	sp, sp, #20
 834              		.cfi_def_cfa_offset 4
 835              		@ sp needed
 836 00a6 5DF804FB 		ldr	pc, [sp], #4
 837              	.L67:
 838 00aa 00BF     		.align	2
 839              	.L66:
 840 00ac 00000000 		.word	__stack_chk_guard
 841 00b0 00000000 		.word	__func__.7860
 842              		.cfi_endproc
 843              	.LFE221:
 844              		.size	chSemResetI, .-chSemResetI
 845              		.section	.text.chSemWait,"ax",%progbits
 846              		.align	1
 847              		.p2align 4,,15
 848              		.global	chSemWait
 849              		.syntax unified
 850              		.thumb
 851              		.thumb_func
 852              		.fpu fpv4-sp-d16
 853              		.type	chSemWait, %function
 854              	chSemWait:
 855              	.LFB222:
ARM GAS  C:\Users\PCHAUT~1\AppData\Local\Temp\cctXY9od.s 			page 16


 856              		.loc 5 175 0
 857              		.cfi_startproc
 858              		@ args = 0, pretend = 0, frame = 16
 859              		@ frame_needed = 0, uses_anonymous_args = 0
 860 0000 00B5     		push	{lr}
 861              		.cfi_def_cfa_offset 4
 862              		.cfi_offset 14, -4
 863 0002 85B0     		sub	sp, sp, #20
 864              		.cfi_def_cfa_offset 24
 865 0004 0190     		str	r0, [sp, #4]
 866              		.loc 5 175 0
 867 0006 0B4B     		ldr	r3, .L71
 868 0008 1B68     		ldr	r3, [r3]
 869 000a 0393     		str	r3, [sp, #12]
 870              		.loc 5 178 0
 871 000c FFF7FEFF 		bl	chSysLock
 872              		.loc 5 179 0
 873 0010 0198     		ldr	r0, [sp, #4]
 874 0012 FFF7FEFF 		bl	chSemWaitS
 875 0016 0290     		str	r0, [sp, #8]
 876              		.loc 5 180 0
 877 0018 FFF7FEFF 		bl	chSysUnlock
 878              		.loc 5 182 0
 879 001c 029B     		ldr	r3, [sp, #8]
 880              		.loc 5 183 0
 881 001e 1846     		mov	r0, r3
 882 0020 044B     		ldr	r3, .L71
 883 0022 039A     		ldr	r2, [sp, #12]
 884 0024 1B68     		ldr	r3, [r3]
 885 0026 9A42     		cmp	r2, r3
 886 0028 01D0     		beq	.L70
 887 002a FFF7FEFF 		bl	__stack_chk_fail
 888              	.L70:
 889 002e 05B0     		add	sp, sp, #20
 890              		.cfi_def_cfa_offset 4
 891              		@ sp needed
 892 0030 5DF804FB 		ldr	pc, [sp], #4
 893              	.L72:
 894              		.align	2
 895              	.L71:
 896 0034 00000000 		.word	__stack_chk_guard
 897              		.cfi_endproc
 898              	.LFE222:
 899              		.size	chSemWait, .-chSemWait
 900              		.section	.text.chSemWaitS,"ax",%progbits
 901              		.align	1
 902              		.p2align 4,,15
 903              		.global	chSemWaitS
 904              		.syntax unified
 905              		.thumb
 906              		.thumb_func
 907              		.fpu fpv4-sp-d16
 908              		.type	chSemWaitS, %function
 909              	chSemWaitS:
 910              	.LFB223:
 911              		.loc 5 197 0
 912              		.cfi_startproc
ARM GAS  C:\Users\PCHAUT~1\AppData\Local\Temp\cctXY9od.s 			page 17


 913              		@ args = 0, pretend = 0, frame = 16
 914              		@ frame_needed = 0, uses_anonymous_args = 0
 915 0000 00B5     		push	{lr}
 916              		.cfi_def_cfa_offset 4
 917              		.cfi_offset 14, -4
 918 0002 85B0     		sub	sp, sp, #20
 919              		.cfi_def_cfa_offset 24
 920 0004 0190     		str	r0, [sp, #4]
 921              		.loc 5 197 0
 922 0006 284B     		ldr	r3, .L82
 923 0008 1B68     		ldr	r3, [r3]
 924 000a 0393     		str	r3, [sp, #12]
 925              		.loc 5 199 0
 926 000c FFF7FEFF 		bl	chDbgCheckClassS
 927              		.loc 5 200 0
 928 0010 019B     		ldr	r3, [sp, #4]
 929 0012 002B     		cmp	r3, #0
 930 0014 02D1     		bne	.L81
 931              		.loc 5 200 0 is_stmt 0 discriminator 2
 932 0016 2548     		ldr	r0, .L82+4
 933 0018 FFF7FEFF 		bl	chSysHalt
 934              	.L81:
 935              		.loc 5 201 0 is_stmt 1 discriminator 1
 936 001c 019B     		ldr	r3, [sp, #4]
 937 001e 9B68     		ldr	r3, [r3, #8]
 938 0020 002B     		cmp	r3, #0
 939 0022 09DB     		blt	.L75
 940              		.loc 5 201 0 is_stmt 0 discriminator 3
 941 0024 019B     		ldr	r3, [sp, #4]
 942 0026 1846     		mov	r0, r3
 943 0028 FFF7FEFF 		bl	queue_isempty
 944 002c 0346     		mov	r3, r0
 945 002e 83F00103 		eor	r3, r3, #1
 946 0032 DBB2     		uxtb	r3, r3
 947 0034 002B     		cmp	r3, #0
 948 0036 10D0     		beq	.L76
 949              	.L75:
 950              		.loc 5 201 0 discriminator 4
 951 0038 019B     		ldr	r3, [sp, #4]
 952 003a 9B68     		ldr	r3, [r3, #8]
 953 003c 002B     		cmp	r3, #0
 954 003e 09DA     		bge	.L77
 955              		.loc 5 201 0 discriminator 6
 956 0040 019B     		ldr	r3, [sp, #4]
 957 0042 1846     		mov	r0, r3
 958 0044 FFF7FEFF 		bl	queue_notempty
 959 0048 0346     		mov	r3, r0
 960 004a 83F00103 		eor	r3, r3, #1
 961 004e DBB2     		uxtb	r3, r3
 962 0050 002B     		cmp	r3, #0
 963 0052 02D0     		beq	.L76
 964              	.L77:
 965              		.loc 5 201 0 discriminator 7
 966 0054 1548     		ldr	r0, .L82+4
 967 0056 FFF7FEFF 		bl	chSysHalt
 968              	.L76:
 969              		.loc 5 205 0 is_stmt 1
ARM GAS  C:\Users\PCHAUT~1\AppData\Local\Temp\cctXY9od.s 			page 18


 970 005a 019B     		ldr	r3, [sp, #4]
 971 005c 9B68     		ldr	r3, [r3, #8]
 972 005e 5A1E     		subs	r2, r3, #1
 973 0060 019B     		ldr	r3, [sp, #4]
 974 0062 9A60     		str	r2, [r3, #8]
 975 0064 019B     		ldr	r3, [sp, #4]
 976 0066 9B68     		ldr	r3, [r3, #8]
 977 0068 002B     		cmp	r3, #0
 978 006a 11DA     		bge	.L78
 979              		.loc 5 206 0
 980 006c 104B     		ldr	r3, .L82+8
 981 006e 9B69     		ldr	r3, [r3, #24]
 982 0070 019A     		ldr	r2, [sp, #4]
 983 0072 9A62     		str	r2, [r3, #40]
 984              		.loc 5 207 0
 985 0074 0E4B     		ldr	r3, .L82+8
 986 0076 9B69     		ldr	r3, [r3, #24]
 987 0078 019A     		ldr	r2, [sp, #4]
 988 007a 1146     		mov	r1, r2
 989 007c 1846     		mov	r0, r3
 990 007e FFF7FEFF 		bl	queue_insert
 991              		.loc 5 208 0
 992 0082 0520     		movs	r0, #5
 993 0084 FFF7FEFF 		bl	chSchGoSleepS
 994              		.loc 5 210 0
 995 0088 094B     		ldr	r3, .L82+8
 996 008a 9B69     		ldr	r3, [r3, #24]
 997 008c 9B6A     		ldr	r3, [r3, #40]
 998 008e 00E0     		b	.L79
 999              	.L78:
 1000              		.loc 5 213 0
 1001 0090 0023     		movs	r3, #0
 1002              	.L79:
 1003              		.loc 5 214 0
 1004 0092 1846     		mov	r0, r3
 1005 0094 044B     		ldr	r3, .L82
 1006 0096 039A     		ldr	r2, [sp, #12]
 1007 0098 1B68     		ldr	r3, [r3]
 1008 009a 9A42     		cmp	r2, r3
 1009 009c 01D0     		beq	.L80
 1010 009e FFF7FEFF 		bl	__stack_chk_fail
 1011              	.L80:
 1012 00a2 05B0     		add	sp, sp, #20
 1013              		.cfi_def_cfa_offset 4
 1014              		@ sp needed
 1015 00a4 5DF804FB 		ldr	pc, [sp], #4
 1016              	.L83:
 1017              		.align	2
 1018              	.L82:
 1019 00a8 00000000 		.word	__stack_chk_guard
 1020 00ac 00000000 		.word	__func__.7871
 1021 00b0 00000000 		.word	ch
 1022              		.cfi_endproc
 1023              	.LFE223:
 1024              		.size	chSemWaitS, .-chSemWaitS
 1025              		.section	.text.chSemWaitTimeout,"ax",%progbits
 1026              		.align	1
ARM GAS  C:\Users\PCHAUT~1\AppData\Local\Temp\cctXY9od.s 			page 19


 1027              		.p2align 4,,15
 1028              		.global	chSemWaitTimeout
 1029              		.syntax unified
 1030              		.thumb
 1031              		.thumb_func
 1032              		.fpu fpv4-sp-d16
 1033              		.type	chSemWaitTimeout, %function
 1034              	chSemWaitTimeout:
 1035              	.LFB224:
 1036              		.loc 5 235 0
 1037              		.cfi_startproc
 1038              		@ args = 0, pretend = 0, frame = 16
 1039              		@ frame_needed = 0, uses_anonymous_args = 0
 1040 0000 00B5     		push	{lr}
 1041              		.cfi_def_cfa_offset 4
 1042              		.cfi_offset 14, -4
 1043 0002 85B0     		sub	sp, sp, #20
 1044              		.cfi_def_cfa_offset 24
 1045 0004 0190     		str	r0, [sp, #4]
 1046 0006 0091     		str	r1, [sp]
 1047              		.loc 5 235 0
 1048 0008 0B4B     		ldr	r3, .L87
 1049 000a 1B68     		ldr	r3, [r3]
 1050 000c 0393     		str	r3, [sp, #12]
 1051              		.loc 5 238 0
 1052 000e FFF7FEFF 		bl	chSysLock
 1053              		.loc 5 239 0
 1054 0012 0099     		ldr	r1, [sp]
 1055 0014 0198     		ldr	r0, [sp, #4]
 1056 0016 FFF7FEFF 		bl	chSemWaitTimeoutS
 1057 001a 0290     		str	r0, [sp, #8]
 1058              		.loc 5 240 0
 1059 001c FFF7FEFF 		bl	chSysUnlock
 1060              		.loc 5 242 0
 1061 0020 029B     		ldr	r3, [sp, #8]
 1062              		.loc 5 243 0
 1063 0022 1846     		mov	r0, r3
 1064 0024 044B     		ldr	r3, .L87
 1065 0026 039A     		ldr	r2, [sp, #12]
 1066 0028 1B68     		ldr	r3, [r3]
 1067 002a 9A42     		cmp	r2, r3
 1068 002c 01D0     		beq	.L86
 1069 002e FFF7FEFF 		bl	__stack_chk_fail
 1070              	.L86:
 1071 0032 05B0     		add	sp, sp, #20
 1072              		.cfi_def_cfa_offset 4
 1073              		@ sp needed
 1074 0034 5DF804FB 		ldr	pc, [sp], #4
 1075              	.L88:
 1076              		.align	2
 1077              	.L87:
 1078 0038 00000000 		.word	__stack_chk_guard
 1079              		.cfi_endproc
 1080              	.LFE224:
 1081              		.size	chSemWaitTimeout, .-chSemWaitTimeout
 1082              		.section	.text.chSemWaitTimeoutS,"ax",%progbits
 1083              		.align	1
ARM GAS  C:\Users\PCHAUT~1\AppData\Local\Temp\cctXY9od.s 			page 20


 1084              		.p2align 4,,15
 1085              		.global	chSemWaitTimeoutS
 1086              		.syntax unified
 1087              		.thumb
 1088              		.thumb_func
 1089              		.fpu fpv4-sp-d16
 1090              		.type	chSemWaitTimeoutS, %function
 1091              	chSemWaitTimeoutS:
 1092              	.LFB225:
 1093              		.loc 5 264 0
 1094              		.cfi_startproc
 1095              		@ args = 0, pretend = 0, frame = 16
 1096              		@ frame_needed = 0, uses_anonymous_args = 0
 1097 0000 00B5     		push	{lr}
 1098              		.cfi_def_cfa_offset 4
 1099              		.cfi_offset 14, -4
 1100 0002 85B0     		sub	sp, sp, #20
 1101              		.cfi_def_cfa_offset 24
 1102 0004 0190     		str	r0, [sp, #4]
 1103 0006 0091     		str	r1, [sp]
 1104              		.loc 5 264 0
 1105 0008 2D4B     		ldr	r3, .L99
 1106 000a 1B68     		ldr	r3, [r3]
 1107 000c 0393     		str	r3, [sp, #12]
 1108              		.loc 5 266 0
 1109 000e FFF7FEFF 		bl	chDbgCheckClassS
 1110              		.loc 5 267 0
 1111 0012 019B     		ldr	r3, [sp, #4]
 1112 0014 002B     		cmp	r3, #0
 1113 0016 02D1     		bne	.L98
 1114              		.loc 5 267 0 is_stmt 0 discriminator 2
 1115 0018 2A48     		ldr	r0, .L99+4
 1116 001a FFF7FEFF 		bl	chSysHalt
 1117              	.L98:
 1118              		.loc 5 268 0 is_stmt 1 discriminator 1
 1119 001e 019B     		ldr	r3, [sp, #4]
 1120 0020 9B68     		ldr	r3, [r3, #8]
 1121 0022 002B     		cmp	r3, #0
 1122 0024 09DB     		blt	.L91
 1123              		.loc 5 268 0 is_stmt 0 discriminator 3
 1124 0026 019B     		ldr	r3, [sp, #4]
 1125 0028 1846     		mov	r0, r3
 1126 002a FFF7FEFF 		bl	queue_isempty
 1127 002e 0346     		mov	r3, r0
 1128 0030 83F00103 		eor	r3, r3, #1
 1129 0034 DBB2     		uxtb	r3, r3
 1130 0036 002B     		cmp	r3, #0
 1131 0038 10D0     		beq	.L92
 1132              	.L91:
 1133              		.loc 5 268 0 discriminator 4
 1134 003a 019B     		ldr	r3, [sp, #4]
 1135 003c 9B68     		ldr	r3, [r3, #8]
 1136 003e 002B     		cmp	r3, #0
 1137 0040 09DA     		bge	.L93
 1138              		.loc 5 268 0 discriminator 6
 1139 0042 019B     		ldr	r3, [sp, #4]
 1140 0044 1846     		mov	r0, r3
ARM GAS  C:\Users\PCHAUT~1\AppData\Local\Temp\cctXY9od.s 			page 21


 1141 0046 FFF7FEFF 		bl	queue_notempty
 1142 004a 0346     		mov	r3, r0
 1143 004c 83F00103 		eor	r3, r3, #1
 1144 0050 DBB2     		uxtb	r3, r3
 1145 0052 002B     		cmp	r3, #0
 1146 0054 02D0     		beq	.L92
 1147              	.L93:
 1148              		.loc 5 268 0 discriminator 7
 1149 0056 1B48     		ldr	r0, .L99+4
 1150 0058 FFF7FEFF 		bl	chSysHalt
 1151              	.L92:
 1152              		.loc 5 272 0 is_stmt 1
 1153 005c 019B     		ldr	r3, [sp, #4]
 1154 005e 9B68     		ldr	r3, [r3, #8]
 1155 0060 5A1E     		subs	r2, r3, #1
 1156 0062 019B     		ldr	r3, [sp, #4]
 1157 0064 9A60     		str	r2, [r3, #8]
 1158 0066 019B     		ldr	r3, [sp, #4]
 1159 0068 9B68     		ldr	r3, [r3, #8]
 1160 006a 002B     		cmp	r3, #0
 1161 006c 1BDA     		bge	.L94
 1162              		.loc 5 273 0
 1163 006e 009B     		ldr	r3, [sp]
 1164 0070 002B     		cmp	r3, #0
 1165 0072 07D1     		bne	.L95
 1166              		.loc 5 274 0
 1167 0074 019B     		ldr	r3, [sp, #4]
 1168 0076 9B68     		ldr	r3, [r3, #8]
 1169 0078 5A1C     		adds	r2, r3, #1
 1170 007a 019B     		ldr	r3, [sp, #4]
 1171 007c 9A60     		str	r2, [r3, #8]
 1172              		.loc 5 276 0
 1173 007e 4FF0FF33 		mov	r3, #-1
 1174 0082 11E0     		b	.L96
 1175              	.L95:
 1176              		.loc 5 278 0
 1177 0084 104B     		ldr	r3, .L99+8
 1178 0086 9B69     		ldr	r3, [r3, #24]
 1179 0088 019A     		ldr	r2, [sp, #4]
 1180 008a 9A62     		str	r2, [r3, #40]
 1181              		.loc 5 279 0
 1182 008c 0E4B     		ldr	r3, .L99+8
 1183 008e 9B69     		ldr	r3, [r3, #24]
 1184 0090 019A     		ldr	r2, [sp, #4]
 1185 0092 1146     		mov	r1, r2
 1186 0094 1846     		mov	r0, r3
 1187 0096 FFF7FEFF 		bl	queue_insert
 1188              		.loc 5 281 0
 1189 009a 0099     		ldr	r1, [sp]
 1190 009c 0520     		movs	r0, #5
 1191 009e FFF7FEFF 		bl	chSchGoSleepTimeoutS
 1192 00a2 0346     		mov	r3, r0
 1193 00a4 00E0     		b	.L96
 1194              	.L94:
 1195              		.loc 5 284 0
 1196 00a6 0023     		movs	r3, #0
 1197              	.L96:
ARM GAS  C:\Users\PCHAUT~1\AppData\Local\Temp\cctXY9od.s 			page 22


 1198              		.loc 5 285 0
 1199 00a8 1846     		mov	r0, r3
 1200 00aa 054B     		ldr	r3, .L99
 1201 00ac 039A     		ldr	r2, [sp, #12]
 1202 00ae 1B68     		ldr	r3, [r3]
 1203 00b0 9A42     		cmp	r2, r3
 1204 00b2 01D0     		beq	.L97
 1205 00b4 FFF7FEFF 		bl	__stack_chk_fail
 1206              	.L97:
 1207 00b8 05B0     		add	sp, sp, #20
 1208              		.cfi_def_cfa_offset 4
 1209              		@ sp needed
 1210 00ba 5DF804FB 		ldr	pc, [sp], #4
 1211              	.L100:
 1212 00be 00BF     		.align	2
 1213              	.L99:
 1214 00c0 00000000 		.word	__stack_chk_guard
 1215 00c4 00000000 		.word	__func__.7881
 1216 00c8 00000000 		.word	ch
 1217              		.cfi_endproc
 1218              	.LFE225:
 1219              		.size	chSemWaitTimeoutS, .-chSemWaitTimeoutS
 1220              		.section	.text.chSemSignal,"ax",%progbits
 1221              		.align	1
 1222              		.p2align 4,,15
 1223              		.global	chSemSignal
 1224              		.syntax unified
 1225              		.thumb
 1226              		.thumb_func
 1227              		.fpu fpv4-sp-d16
 1228              		.type	chSemSignal, %function
 1229              	chSemSignal:
 1230              	.LFB226:
 1231              		.loc 5 294 0
 1232              		.cfi_startproc
 1233              		@ args = 0, pretend = 0, frame = 16
 1234              		@ frame_needed = 0, uses_anonymous_args = 0
 1235 0000 00B5     		push	{lr}
 1236              		.cfi_def_cfa_offset 4
 1237              		.cfi_offset 14, -4
 1238 0002 85B0     		sub	sp, sp, #20
 1239              		.cfi_def_cfa_offset 24
 1240 0004 0190     		str	r0, [sp, #4]
 1241              		.loc 5 294 0
 1242 0006 244B     		ldr	r3, .L109
 1243 0008 1B68     		ldr	r3, [r3]
 1244 000a 0393     		str	r3, [sp, #12]
 1245              		.loc 5 296 0
 1246 000c 019B     		ldr	r3, [sp, #4]
 1247 000e 002B     		cmp	r3, #0
 1248 0010 02D1     		bne	.L108
 1249              		.loc 5 296 0 is_stmt 0 discriminator 2
 1250 0012 2248     		ldr	r0, .L109+4
 1251 0014 FFF7FEFF 		bl	chSysHalt
 1252              	.L108:
 1253              		.loc 5 297 0 is_stmt 1 discriminator 1
 1254 0018 019B     		ldr	r3, [sp, #4]
ARM GAS  C:\Users\PCHAUT~1\AppData\Local\Temp\cctXY9od.s 			page 23


 1255 001a 9B68     		ldr	r3, [r3, #8]
 1256 001c 002B     		cmp	r3, #0
 1257 001e 09DB     		blt	.L103
 1258              		.loc 5 297 0 is_stmt 0 discriminator 3
 1259 0020 019B     		ldr	r3, [sp, #4]
 1260 0022 1846     		mov	r0, r3
 1261 0024 FFF7FEFF 		bl	queue_isempty
 1262 0028 0346     		mov	r3, r0
 1263 002a 83F00103 		eor	r3, r3, #1
 1264 002e DBB2     		uxtb	r3, r3
 1265 0030 002B     		cmp	r3, #0
 1266 0032 10D0     		beq	.L104
 1267              	.L103:
 1268              		.loc 5 297 0 discriminator 4
 1269 0034 019B     		ldr	r3, [sp, #4]
 1270 0036 9B68     		ldr	r3, [r3, #8]
 1271 0038 002B     		cmp	r3, #0
 1272 003a 09DA     		bge	.L105
 1273              		.loc 5 297 0 discriminator 6
 1274 003c 019B     		ldr	r3, [sp, #4]
 1275 003e 1846     		mov	r0, r3
 1276 0040 FFF7FEFF 		bl	queue_notempty
 1277 0044 0346     		mov	r3, r0
 1278 0046 83F00103 		eor	r3, r3, #1
 1279 004a DBB2     		uxtb	r3, r3
 1280 004c 002B     		cmp	r3, #0
 1281 004e 02D0     		beq	.L104
 1282              	.L105:
 1283              		.loc 5 297 0 discriminator 7
 1284 0050 1248     		ldr	r0, .L109+4
 1285 0052 FFF7FEFF 		bl	chSysHalt
 1286              	.L104:
 1287              		.loc 5 301 0 is_stmt 1
 1288 0056 FFF7FEFF 		bl	chSysLock
 1289              		.loc 5 302 0
 1290 005a 019B     		ldr	r3, [sp, #4]
 1291 005c 9B68     		ldr	r3, [r3, #8]
 1292 005e 5A1C     		adds	r2, r3, #1
 1293 0060 019B     		ldr	r3, [sp, #4]
 1294 0062 9A60     		str	r2, [r3, #8]
 1295 0064 019B     		ldr	r3, [sp, #4]
 1296 0066 9B68     		ldr	r3, [r3, #8]
 1297 0068 002B     		cmp	r3, #0
 1298 006a 08DC     		bgt	.L106
 1299              		.loc 5 303 0
 1300 006c 019B     		ldr	r3, [sp, #4]
 1301 006e 1846     		mov	r0, r3
 1302 0070 FFF7FEFF 		bl	queue_fifo_remove
 1303 0074 0346     		mov	r3, r0
 1304 0076 0021     		movs	r1, #0
 1305 0078 1846     		mov	r0, r3
 1306 007a FFF7FEFF 		bl	chSchWakeupS
 1307              	.L106:
 1308              		.loc 5 305 0
 1309 007e FFF7FEFF 		bl	chSysUnlock
 1310              		.loc 5 306 0
 1311 0082 00BF     		nop
ARM GAS  C:\Users\PCHAUT~1\AppData\Local\Temp\cctXY9od.s 			page 24


 1312 0084 044B     		ldr	r3, .L109
 1313 0086 039A     		ldr	r2, [sp, #12]
 1314 0088 1B68     		ldr	r3, [r3]
 1315 008a 9A42     		cmp	r2, r3
 1316 008c 01D0     		beq	.L107
 1317 008e FFF7FEFF 		bl	__stack_chk_fail
 1318              	.L107:
 1319 0092 05B0     		add	sp, sp, #20
 1320              		.cfi_def_cfa_offset 4
 1321              		@ sp needed
 1322 0094 5DF804FB 		ldr	pc, [sp], #4
 1323              	.L110:
 1324              		.align	2
 1325              	.L109:
 1326 0098 00000000 		.word	__stack_chk_guard
 1327 009c 00000000 		.word	__func__.7885
 1328              		.cfi_endproc
 1329              	.LFE226:
 1330              		.size	chSemSignal, .-chSemSignal
 1331              		.section	.text.chSemSignalI,"ax",%progbits
 1332              		.align	1
 1333              		.p2align 4,,15
 1334              		.global	chSemSignalI
 1335              		.syntax unified
 1336              		.thumb
 1337              		.thumb_func
 1338              		.fpu fpv4-sp-d16
 1339              		.type	chSemSignalI, %function
 1340              	chSemSignalI:
 1341              	.LFB227:
 1342              		.loc 5 319 0
 1343              		.cfi_startproc
 1344              		@ args = 0, pretend = 0, frame = 16
 1345              		@ frame_needed = 0, uses_anonymous_args = 0
 1346 0000 00B5     		push	{lr}
 1347              		.cfi_def_cfa_offset 4
 1348              		.cfi_offset 14, -4
 1349 0002 85B0     		sub	sp, sp, #20
 1350              		.cfi_def_cfa_offset 24
 1351 0004 0190     		str	r0, [sp, #4]
 1352              		.loc 5 319 0
 1353 0006 244B     		ldr	r3, .L120
 1354 0008 1B68     		ldr	r3, [r3]
 1355 000a 0393     		str	r3, [sp, #12]
 1356              		.loc 5 321 0
 1357 000c FFF7FEFF 		bl	chDbgCheckClassI
 1358              		.loc 5 322 0
 1359 0010 019B     		ldr	r3, [sp, #4]
 1360 0012 002B     		cmp	r3, #0
 1361 0014 02D1     		bne	.L118
 1362              		.loc 5 322 0 is_stmt 0 discriminator 2
 1363 0016 2148     		ldr	r0, .L120+4
 1364 0018 FFF7FEFF 		bl	chSysHalt
 1365              	.L118:
 1366              		.loc 5 323 0 is_stmt 1 discriminator 1
 1367 001c 019B     		ldr	r3, [sp, #4]
 1368 001e 9B68     		ldr	r3, [r3, #8]
ARM GAS  C:\Users\PCHAUT~1\AppData\Local\Temp\cctXY9od.s 			page 25


 1369 0020 002B     		cmp	r3, #0
 1370 0022 09DB     		blt	.L113
 1371              		.loc 5 323 0 is_stmt 0 discriminator 3
 1372 0024 019B     		ldr	r3, [sp, #4]
 1373 0026 1846     		mov	r0, r3
 1374 0028 FFF7FEFF 		bl	queue_isempty
 1375 002c 0346     		mov	r3, r0
 1376 002e 83F00103 		eor	r3, r3, #1
 1377 0032 DBB2     		uxtb	r3, r3
 1378 0034 002B     		cmp	r3, #0
 1379 0036 10D0     		beq	.L114
 1380              	.L113:
 1381              		.loc 5 323 0 discriminator 4
 1382 0038 019B     		ldr	r3, [sp, #4]
 1383 003a 9B68     		ldr	r3, [r3, #8]
 1384 003c 002B     		cmp	r3, #0
 1385 003e 09DA     		bge	.L115
 1386              		.loc 5 323 0 discriminator 6
 1387 0040 019B     		ldr	r3, [sp, #4]
 1388 0042 1846     		mov	r0, r3
 1389 0044 FFF7FEFF 		bl	queue_notempty
 1390 0048 0346     		mov	r3, r0
 1391 004a 83F00103 		eor	r3, r3, #1
 1392 004e DBB2     		uxtb	r3, r3
 1393 0050 002B     		cmp	r3, #0
 1394 0052 02D0     		beq	.L114
 1395              	.L115:
 1396              		.loc 5 323 0 discriminator 7
 1397 0054 1148     		ldr	r0, .L120+4
 1398 0056 FFF7FEFF 		bl	chSysHalt
 1399              	.L114:
 1400              		.loc 5 327 0 is_stmt 1
 1401 005a 019B     		ldr	r3, [sp, #4]
 1402 005c 9B68     		ldr	r3, [r3, #8]
 1403 005e 5A1C     		adds	r2, r3, #1
 1404 0060 019B     		ldr	r3, [sp, #4]
 1405 0062 9A60     		str	r2, [r3, #8]
 1406 0064 019B     		ldr	r3, [sp, #4]
 1407 0066 9B68     		ldr	r3, [r3, #8]
 1408 0068 002B     		cmp	r3, #0
 1409 006a 0ADC     		bgt	.L119
 1410              	.LBB10:
 1411              		.loc 5 330 0
 1412 006c 019B     		ldr	r3, [sp, #4]
 1413 006e 1846     		mov	r0, r3
 1414 0070 FFF7FEFF 		bl	queue_fifo_remove
 1415 0074 0290     		str	r0, [sp, #8]
 1416              		.loc 5 331 0
 1417 0076 029B     		ldr	r3, [sp, #8]
 1418 0078 0022     		movs	r2, #0
 1419 007a 9A62     		str	r2, [r3, #40]
 1420              		.loc 5 332 0
 1421 007c 0298     		ldr	r0, [sp, #8]
 1422 007e FFF7FEFF 		bl	chSchReadyI
 1423              	.L119:
 1424              	.LBE10:
 1425              		.loc 5 334 0
ARM GAS  C:\Users\PCHAUT~1\AppData\Local\Temp\cctXY9od.s 			page 26


 1426 0082 00BF     		nop
 1427 0084 044B     		ldr	r3, .L120
 1428 0086 039A     		ldr	r2, [sp, #12]
 1429 0088 1B68     		ldr	r3, [r3]
 1430 008a 9A42     		cmp	r2, r3
 1431 008c 01D0     		beq	.L117
 1432 008e FFF7FEFF 		bl	__stack_chk_fail
 1433              	.L117:
 1434 0092 05B0     		add	sp, sp, #20
 1435              		.cfi_def_cfa_offset 4
 1436              		@ sp needed
 1437 0094 5DF804FB 		ldr	pc, [sp], #4
 1438              	.L121:
 1439              		.align	2
 1440              	.L120:
 1441 0098 00000000 		.word	__stack_chk_guard
 1442 009c 00000000 		.word	__func__.7889
 1443              		.cfi_endproc
 1444              	.LFE227:
 1445              		.size	chSemSignalI, .-chSemSignalI
 1446              		.section	.text.chSemAddCounterI,"ax",%progbits
 1447              		.align	1
 1448              		.p2align 4,,15
 1449              		.global	chSemAddCounterI
 1450              		.syntax unified
 1451              		.thumb
 1452              		.thumb_func
 1453              		.fpu fpv4-sp-d16
 1454              		.type	chSemAddCounterI, %function
 1455              	chSemAddCounterI:
 1456              	.LFB228:
 1457              		.loc 5 349 0
 1458              		.cfi_startproc
 1459              		@ args = 0, pretend = 0, frame = 16
 1460              		@ frame_needed = 0, uses_anonymous_args = 0
 1461 0000 00B5     		push	{lr}
 1462              		.cfi_def_cfa_offset 4
 1463              		.cfi_offset 14, -4
 1464 0002 85B0     		sub	sp, sp, #20
 1465              		.cfi_def_cfa_offset 24
 1466 0004 0190     		str	r0, [sp, #4]
 1467 0006 0091     		str	r1, [sp]
 1468              		.loc 5 349 0
 1469 0008 294B     		ldr	r3, .L133
 1470 000a 1B68     		ldr	r3, [r3]
 1471 000c 0393     		str	r3, [sp, #12]
 1472              		.loc 5 351 0
 1473 000e FFF7FEFF 		bl	chDbgCheckClassI
 1474              		.loc 5 352 0
 1475 0012 019B     		ldr	r3, [sp, #4]
 1476 0014 002B     		cmp	r3, #0
 1477 0016 02D0     		beq	.L123
 1478              		.loc 5 352 0 is_stmt 0 discriminator 3
 1479 0018 009B     		ldr	r3, [sp]
 1480 001a 002B     		cmp	r3, #0
 1481 001c 02DC     		bgt	.L132
 1482              	.L123:
ARM GAS  C:\Users\PCHAUT~1\AppData\Local\Temp\cctXY9od.s 			page 27


 1483              		.loc 5 352 0 discriminator 4
 1484 001e 2548     		ldr	r0, .L133+4
 1485 0020 FFF7FEFF 		bl	chSysHalt
 1486              	.L132:
 1487              		.loc 5 353 0 is_stmt 1 discriminator 1
 1488 0024 019B     		ldr	r3, [sp, #4]
 1489 0026 9B68     		ldr	r3, [r3, #8]
 1490 0028 002B     		cmp	r3, #0
 1491 002a 09DB     		blt	.L125
 1492              		.loc 5 353 0 is_stmt 0 discriminator 3
 1493 002c 019B     		ldr	r3, [sp, #4]
 1494 002e 1846     		mov	r0, r3
 1495 0030 FFF7FEFF 		bl	queue_isempty
 1496 0034 0346     		mov	r3, r0
 1497 0036 83F00103 		eor	r3, r3, #1
 1498 003a DBB2     		uxtb	r3, r3
 1499 003c 002B     		cmp	r3, #0
 1500 003e 28D0     		beq	.L128
 1501              	.L125:
 1502              		.loc 5 353 0 discriminator 4
 1503 0040 019B     		ldr	r3, [sp, #4]
 1504 0042 9B68     		ldr	r3, [r3, #8]
 1505 0044 002B     		cmp	r3, #0
 1506 0046 09DA     		bge	.L127
 1507              		.loc 5 353 0 discriminator 6
 1508 0048 019B     		ldr	r3, [sp, #4]
 1509 004a 1846     		mov	r0, r3
 1510 004c FFF7FEFF 		bl	queue_notempty
 1511 0050 0346     		mov	r3, r0
 1512 0052 83F00103 		eor	r3, r3, #1
 1513 0056 DBB2     		uxtb	r3, r3
 1514 0058 002B     		cmp	r3, #0
 1515 005a 1AD0     		beq	.L128
 1516              	.L127:
 1517              		.loc 5 353 0 discriminator 7
 1518 005c 1548     		ldr	r0, .L133+4
 1519 005e FFF7FEFF 		bl	chSysHalt
 1520              		.loc 5 357 0 is_stmt 1 discriminator 7
 1521 0062 16E0     		b	.L128
 1522              	.L130:
 1523              		.loc 5 358 0
 1524 0064 019B     		ldr	r3, [sp, #4]
 1525 0066 9B68     		ldr	r3, [r3, #8]
 1526 0068 5A1C     		adds	r2, r3, #1
 1527 006a 019B     		ldr	r3, [sp, #4]
 1528 006c 9A60     		str	r2, [r3, #8]
 1529 006e 019B     		ldr	r3, [sp, #4]
 1530 0070 9B68     		ldr	r3, [r3, #8]
 1531 0072 002B     		cmp	r3, #0
 1532 0074 0ADC     		bgt	.L129
 1533              		.loc 5 359 0
 1534 0076 019B     		ldr	r3, [sp, #4]
 1535 0078 1846     		mov	r0, r3
 1536 007a FFF7FEFF 		bl	queue_fifo_remove
 1537 007e 0346     		mov	r3, r0
 1538 0080 1846     		mov	r0, r3
 1539 0082 FFF7FEFF 		bl	chSchReadyI
ARM GAS  C:\Users\PCHAUT~1\AppData\Local\Temp\cctXY9od.s 			page 28


 1540 0086 0246     		mov	r2, r0
 1541 0088 0023     		movs	r3, #0
 1542 008a 9362     		str	r3, [r2, #40]
 1543              	.L129:
 1544              		.loc 5 361 0
 1545 008c 009B     		ldr	r3, [sp]
 1546 008e 013B     		subs	r3, r3, #1
 1547 0090 0093     		str	r3, [sp]
 1548              	.L128:
 1549              		.loc 5 357 0
 1550 0092 009B     		ldr	r3, [sp]
 1551 0094 002B     		cmp	r3, #0
 1552 0096 E5DC     		bgt	.L130
 1553              		.loc 5 363 0
 1554 0098 00BF     		nop
 1555 009a 054B     		ldr	r3, .L133
 1556 009c 039A     		ldr	r2, [sp, #12]
 1557 009e 1B68     		ldr	r3, [r3]
 1558 00a0 9A42     		cmp	r2, r3
 1559 00a2 01D0     		beq	.L131
 1560 00a4 FFF7FEFF 		bl	__stack_chk_fail
 1561              	.L131:
 1562 00a8 05B0     		add	sp, sp, #20
 1563              		.cfi_def_cfa_offset 4
 1564              		@ sp needed
 1565 00aa 5DF804FB 		ldr	pc, [sp], #4
 1566              	.L134:
 1567 00ae 00BF     		.align	2
 1568              	.L133:
 1569 00b0 00000000 		.word	__stack_chk_guard
 1570 00b4 00000000 		.word	__func__.7895
 1571              		.cfi_endproc
 1572              	.LFE228:
 1573              		.size	chSemAddCounterI, .-chSemAddCounterI
 1574              		.section	.text.chSemSignalWait,"ax",%progbits
 1575              		.align	1
 1576              		.p2align 4,,15
 1577              		.global	chSemSignalWait
 1578              		.syntax unified
 1579              		.thumb
 1580              		.thumb_func
 1581              		.fpu fpv4-sp-d16
 1582              		.type	chSemSignalWait, %function
 1583              	chSemSignalWait:
 1584              	.LFB229:
 1585              		.loc 5 378 0
 1586              		.cfi_startproc
 1587              		@ args = 0, pretend = 0, frame = 24
 1588              		@ frame_needed = 0, uses_anonymous_args = 0
 1589 0000 00B5     		push	{lr}
 1590              		.cfi_def_cfa_offset 4
 1591              		.cfi_offset 14, -4
 1592 0002 87B0     		sub	sp, sp, #28
 1593              		.cfi_def_cfa_offset 32
 1594 0004 0190     		str	r0, [sp, #4]
 1595 0006 0091     		str	r1, [sp]
 1596              		.loc 5 378 0
ARM GAS  C:\Users\PCHAUT~1\AppData\Local\Temp\cctXY9od.s 			page 29


 1597 0008 464B     		ldr	r3, .L151
 1598 000a 1B68     		ldr	r3, [r3]
 1599 000c 0593     		str	r3, [sp, #20]
 1600              		.loc 5 381 0
 1601 000e 019B     		ldr	r3, [sp, #4]
 1602 0010 002B     		cmp	r3, #0
 1603 0012 02D0     		beq	.L136
 1604              		.loc 5 381 0 is_stmt 0 discriminator 3
 1605 0014 009B     		ldr	r3, [sp]
 1606 0016 002B     		cmp	r3, #0
 1607 0018 02D1     		bne	.L149
 1608              	.L136:
 1609              		.loc 5 381 0 discriminator 4
 1610 001a 4348     		ldr	r0, .L151+4
 1611 001c FFF7FEFF 		bl	chSysHalt
 1612              	.L149:
 1613              		.loc 5 382 0 is_stmt 1 discriminator 1
 1614 0020 019B     		ldr	r3, [sp, #4]
 1615 0022 9B68     		ldr	r3, [r3, #8]
 1616 0024 002B     		cmp	r3, #0
 1617 0026 09DB     		blt	.L138
 1618              		.loc 5 382 0 is_stmt 0 discriminator 3
 1619 0028 019B     		ldr	r3, [sp, #4]
 1620 002a 1846     		mov	r0, r3
 1621 002c FFF7FEFF 		bl	queue_isempty
 1622 0030 0346     		mov	r3, r0
 1623 0032 83F00103 		eor	r3, r3, #1
 1624 0036 DBB2     		uxtb	r3, r3
 1625 0038 002B     		cmp	r3, #0
 1626 003a 10D0     		beq	.L150
 1627              	.L138:
 1628              		.loc 5 382 0 discriminator 4
 1629 003c 019B     		ldr	r3, [sp, #4]
 1630 003e 9B68     		ldr	r3, [r3, #8]
 1631 0040 002B     		cmp	r3, #0
 1632 0042 09DA     		bge	.L140
 1633              		.loc 5 382 0 discriminator 6
 1634 0044 019B     		ldr	r3, [sp, #4]
 1635 0046 1846     		mov	r0, r3
 1636 0048 FFF7FEFF 		bl	queue_notempty
 1637 004c 0346     		mov	r3, r0
 1638 004e 83F00103 		eor	r3, r3, #1
 1639 0052 DBB2     		uxtb	r3, r3
 1640 0054 002B     		cmp	r3, #0
 1641 0056 02D0     		beq	.L150
 1642              	.L140:
 1643              		.loc 5 382 0 discriminator 7
 1644 0058 3348     		ldr	r0, .L151+4
 1645 005a FFF7FEFF 		bl	chSysHalt
 1646              	.L150:
 1647              		.loc 5 385 0 is_stmt 1 discriminator 1
 1648 005e 009B     		ldr	r3, [sp]
 1649 0060 9B68     		ldr	r3, [r3, #8]
 1650 0062 002B     		cmp	r3, #0
 1651 0064 09DB     		blt	.L141
 1652              		.loc 5 385 0 is_stmt 0 discriminator 3
 1653 0066 009B     		ldr	r3, [sp]
ARM GAS  C:\Users\PCHAUT~1\AppData\Local\Temp\cctXY9od.s 			page 30


 1654 0068 1846     		mov	r0, r3
 1655 006a FFF7FEFF 		bl	queue_isempty
 1656 006e 0346     		mov	r3, r0
 1657 0070 83F00103 		eor	r3, r3, #1
 1658 0074 DBB2     		uxtb	r3, r3
 1659 0076 002B     		cmp	r3, #0
 1660 0078 10D0     		beq	.L142
 1661              	.L141:
 1662              		.loc 5 385 0 discriminator 4
 1663 007a 009B     		ldr	r3, [sp]
 1664 007c 9B68     		ldr	r3, [r3, #8]
 1665 007e 002B     		cmp	r3, #0
 1666 0080 09DA     		bge	.L143
 1667              		.loc 5 385 0 discriminator 6
 1668 0082 009B     		ldr	r3, [sp]
 1669 0084 1846     		mov	r0, r3
 1670 0086 FFF7FEFF 		bl	queue_notempty
 1671 008a 0346     		mov	r3, r0
 1672 008c 83F00103 		eor	r3, r3, #1
 1673 0090 DBB2     		uxtb	r3, r3
 1674 0092 002B     		cmp	r3, #0
 1675 0094 02D0     		beq	.L142
 1676              	.L143:
 1677              		.loc 5 385 0 discriminator 7
 1678 0096 2448     		ldr	r0, .L151+4
 1679 0098 FFF7FEFF 		bl	chSysHalt
 1680              	.L142:
 1681              		.loc 5 389 0 is_stmt 1
 1682 009c FFF7FEFF 		bl	chSysLock
 1683              		.loc 5 390 0
 1684 00a0 019B     		ldr	r3, [sp, #4]
 1685 00a2 9B68     		ldr	r3, [r3, #8]
 1686 00a4 5A1C     		adds	r2, r3, #1
 1687 00a6 019B     		ldr	r3, [sp, #4]
 1688 00a8 9A60     		str	r2, [r3, #8]
 1689 00aa 019B     		ldr	r3, [sp, #4]
 1690 00ac 9B68     		ldr	r3, [r3, #8]
 1691 00ae 002B     		cmp	r3, #0
 1692 00b0 0ADC     		bgt	.L144
 1693              		.loc 5 391 0
 1694 00b2 019B     		ldr	r3, [sp, #4]
 1695 00b4 1846     		mov	r0, r3
 1696 00b6 FFF7FEFF 		bl	queue_fifo_remove
 1697 00ba 0346     		mov	r3, r0
 1698 00bc 1846     		mov	r0, r3
 1699 00be FFF7FEFF 		bl	chSchReadyI
 1700 00c2 0246     		mov	r2, r0
 1701 00c4 0023     		movs	r3, #0
 1702 00c6 9362     		str	r3, [r2, #40]
 1703              	.L144:
 1704              		.loc 5 393 0
 1705 00c8 009B     		ldr	r3, [sp]
 1706 00ca 9B68     		ldr	r3, [r3, #8]
 1707 00cc 5A1E     		subs	r2, r3, #1
 1708 00ce 009B     		ldr	r3, [sp]
 1709 00d0 9A60     		str	r2, [r3, #8]
 1710 00d2 009B     		ldr	r3, [sp]
ARM GAS  C:\Users\PCHAUT~1\AppData\Local\Temp\cctXY9od.s 			page 31


 1711 00d4 9B68     		ldr	r3, [r3, #8]
 1712 00d6 002B     		cmp	r3, #0
 1713 00d8 11DA     		bge	.L145
 1714              	.LBB11:
 1715              		.loc 5 394 0
 1716 00da 144B     		ldr	r3, .L151+8
 1717 00dc 9B69     		ldr	r3, [r3, #24]
 1718 00de 0493     		str	r3, [sp, #16]
 1719              		.loc 5 395 0
 1720 00e0 009B     		ldr	r3, [sp]
 1721 00e2 1946     		mov	r1, r3
 1722 00e4 0498     		ldr	r0, [sp, #16]
 1723 00e6 FFF7FEFF 		bl	queue_insert
 1724              		.loc 5 396 0
 1725 00ea 049B     		ldr	r3, [sp, #16]
 1726 00ec 009A     		ldr	r2, [sp]
 1727 00ee 9A62     		str	r2, [r3, #40]
 1728              		.loc 5 397 0
 1729 00f0 0520     		movs	r0, #5
 1730 00f2 FFF7FEFF 		bl	chSchGoSleepS
 1731              		.loc 5 398 0
 1732 00f6 049B     		ldr	r3, [sp, #16]
 1733 00f8 9B6A     		ldr	r3, [r3, #40]
 1734 00fa 0393     		str	r3, [sp, #12]
 1735              	.LBE11:
 1736 00fc 03E0     		b	.L146
 1737              	.L145:
 1738              		.loc 5 401 0
 1739 00fe FFF7FEFF 		bl	chSchRescheduleS
 1740              		.loc 5 402 0
 1741 0102 0023     		movs	r3, #0
 1742 0104 0393     		str	r3, [sp, #12]
 1743              	.L146:
 1744              		.loc 5 404 0
 1745 0106 FFF7FEFF 		bl	chSysUnlock
 1746              		.loc 5 406 0
 1747 010a 039B     		ldr	r3, [sp, #12]
 1748              		.loc 5 407 0
 1749 010c 1846     		mov	r0, r3
 1750 010e 054B     		ldr	r3, .L151
 1751 0110 059A     		ldr	r2, [sp, #20]
 1752 0112 1B68     		ldr	r3, [r3]
 1753 0114 9A42     		cmp	r2, r3
 1754 0116 01D0     		beq	.L148
 1755 0118 FFF7FEFF 		bl	__stack_chk_fail
 1756              	.L148:
 1757 011c 07B0     		add	sp, sp, #28
 1758              		.cfi_def_cfa_offset 4
 1759              		@ sp needed
 1760 011e 5DF804FB 		ldr	pc, [sp], #4
 1761              	.L152:
 1762 0122 00BF     		.align	2
 1763              	.L151:
 1764 0124 00000000 		.word	__stack_chk_guard
 1765 0128 00000000 		.word	__func__.7904
 1766 012c 00000000 		.word	ch
 1767              		.cfi_endproc
ARM GAS  C:\Users\PCHAUT~1\AppData\Local\Temp\cctXY9od.s 			page 32


 1768              	.LFE229:
 1769              		.size	chSemSignalWait, .-chSemSignalWait
 1770              		.section	.rodata.__func__.7850,"a",%progbits
 1771              		.align	2
 1772              		.type	__func__.7850, %object
 1773              		.size	__func__.7850, 16
 1774              	__func__.7850:
 1775 0000 63685365 		.ascii	"chSemObjectInit\000"
 1775      6D4F626A 
 1775      65637449 
 1775      6E697400 
 1776              		.section	.rodata.__func__.7153,"a",%progbits
 1777              		.align	2
 1778              		.type	__func__.7153, %object
 1779              		.size	__func__.7153, 12
 1780              	__func__.7153:
 1781 0000 63685379 		.ascii	"chSysUnlock\000"
 1781      73556E6C 
 1781      6F636B00 
 1782              		.section	.rodata.__func__.7860,"a",%progbits
 1783              		.align	2
 1784              		.type	__func__.7860, %object
 1785              		.size	__func__.7860, 12
 1786              	__func__.7860:
 1787 0000 63685365 		.ascii	"chSemResetI\000"
 1787      6D526573 
 1787      65744900 
 1788              		.section	.rodata.__func__.7871,"a",%progbits
 1789              		.align	2
 1790              		.type	__func__.7871, %object
 1791              		.size	__func__.7871, 11
 1792              	__func__.7871:
 1793 0000 63685365 		.ascii	"chSemWaitS\000"
 1793      6D576169 
 1793      745300
 1794              		.section	.rodata.__func__.7881,"a",%progbits
 1795              		.align	2
 1796              		.type	__func__.7881, %object
 1797              		.size	__func__.7881, 18
 1798              	__func__.7881:
 1799 0000 63685365 		.ascii	"chSemWaitTimeoutS\000"
 1799      6D576169 
 1799      7454696D 
 1799      656F7574 
 1799      5300
 1800              		.section	.rodata.__func__.7885,"a",%progbits
 1801              		.align	2
 1802              		.type	__func__.7885, %object
 1803              		.size	__func__.7885, 12
 1804              	__func__.7885:
 1805 0000 63685365 		.ascii	"chSemSignal\000"
 1805      6D536967 
 1805      6E616C00 
 1806              		.section	.rodata.__func__.7889,"a",%progbits
 1807              		.align	2
 1808              		.type	__func__.7889, %object
 1809              		.size	__func__.7889, 13
ARM GAS  C:\Users\PCHAUT~1\AppData\Local\Temp\cctXY9od.s 			page 33


 1810              	__func__.7889:
 1811 0000 63685365 		.ascii	"chSemSignalI\000"
 1811      6D536967 
 1811      6E616C49 
 1811      00
 1812              		.section	.rodata.__func__.7895,"a",%progbits
 1813              		.align	2
 1814              		.type	__func__.7895, %object
 1815              		.size	__func__.7895, 17
 1816              	__func__.7895:
 1817 0000 63685365 		.ascii	"chSemAddCounterI\000"
 1817      6D416464 
 1817      436F756E 
 1817      74657249 
 1817      00
 1818              		.section	.rodata.__func__.7904,"a",%progbits
 1819              		.align	2
 1820              		.type	__func__.7904, %object
 1821              		.size	__func__.7904, 16
 1822              	__func__.7904:
 1823 0000 63685365 		.ascii	"chSemSignalWait\000"
 1823      6D536967 
 1823      6E616C57 
 1823      61697400 
 1824              		.text
 1825              	.Letext0:
 1826              		.file 6 "c:\\users\\pchautems\\documents\\robotiquetp\\eclipse_e-puck2\\tools\\gcc-arm-none-eabi-7
 1827              		.file 7 "c:\\users\\pchautems\\documents\\robotiquetp\\eclipse_e-puck2\\tools\\gcc-arm-none-eabi-7
 1828              		.file 8 "../lib/e-puck2_main-processor/ChibiOS//os/rt/ports/ARMCMx/compilers/GCC/chtypes.h"
 1829              		.file 9 "../lib/e-puck2_main-processor/ChibiOS//os/rt/include/chsystypes.h"
 1830              		.file 10 "../lib/e-puck2_main-processor/ChibiOS//os/ext/CMSIS/include/core_cm4.h"
 1831              		.file 11 "../lib/e-puck2_main-processor/ChibiOS//os/ext/CMSIS/ST/system_stm32f4xx.h"
 1832              		.file 12 "../lib/e-puck2_main-processor/ChibiOS//os/rt/ports/ARMCMx/chcore.h"
 1833              		.file 13 "../lib/e-puck2_main-processor/ChibiOS//os/rt/include/chdebug.h"
 1834              		.file 14 "../lib/e-puck2_main-processor/ChibiOS//os/rt/include/chtm.h"
 1835              		.file 15 "../lib/e-puck2_main-processor/ChibiOS//os/rt/include/chstats.h"
 1836              		.file 16 "../lib/e-puck2_main-processor/ChibiOS//os/rt/include/chsem.h"
 1837              		.file 17 "../lib/e-puck2_main-processor/ChibiOS//os/rt/include/chmtx.h"
 1838              		.file 18 "../lib/e-puck2_main-processor/ChibiOS//os/rt/include/chregistry.h"