ARM GAS  C:\Users\PCHAUT~1\AppData\Local\Temp\cctXY9od.s 			page 1


   1              		.cpu cortex-m4
   2              		.eabi_attribute 27, 1
   3              		.eabi_attribute 28, 1
   4              		.eabi_attribute 20, 1
   5              		.eabi_attribute 21, 1
   6              		.eabi_attribute 23, 3
   7              		.eabi_attribute 24, 1
   8              		.eabi_attribute 25, 1
   9              		.eabi_attribute 26, 1
  10              		.eabi_attribute 30, 6
  11              		.eabi_attribute 34, 1
  12              		.eabi_attribute 18, 4
  13              		.file	"chsem.c"
  14              		.text
  15              	.Ltext0:
  16              		.cfi_sections	.debug_frame
  17              		.section	.text.port_lock,"ax",%progbits
  18              		.align	1
  19              		.p2align 4,,15
  20              		.syntax unified
  21              		.thumb
  22              		.thumb_func
  23              		.fpu fpv4-sp-d16
  24              		.type	port_lock, %function
  25              	port_lock:
  26              	.LFB116:
  27              		.file 1 "../lib/e-puck2_main-processor/ChibiOS//os/rt/ports/ARMCMx/chcore_v7m.h"
  28              		.loc 1 444 0
  29              		.cfi_startproc
  30              		@ args = 0, pretend = 0, frame = 8
  31              		@ frame_needed = 0, uses_anonymous_args = 0
  32 0000 00B5     		push	{lr}
  33              		.cfi_def_cfa_offset 4
  34              		.cfi_offset 14, -4
  35 0002 83B0     		sub	sp, sp, #12
  36              		.cfi_def_cfa_offset 16
  37              		.loc 1 444 0
  38 0004 094B     		ldr	r3, .L3
  39 0006 1B68     		ldr	r3, [r3]
  40 0008 0193     		str	r3, [sp, #4]
  41 000a 2023     		movs	r3, #32
  42 000c 0093     		str	r3, [sp]
  43              	.LBB6:
  44              	.LBB7:
  45              		.file 2 "../lib/e-puck2_main-processor/ChibiOS//os/ext/CMSIS/include/core_cmFunc.h"
  46              		.loc 2 546 0
  47 000e 009B     		ldr	r3, [sp]
  48              		.syntax unified
  49              	@ 546 "../lib/e-puck2_main-processor/ChibiOS//os/ext/CMSIS/include/core_cmFunc.h" 1
  50 0010 83F31188 		MSR basepri, r3
  51              	@ 0 "" 2
  52              		.thumb
  53              		.syntax unified
  54              	.LBE7:
  55              	.LBE6:
  56              		.loc 1 451 0
  57 0014 00BF     		nop
ARM GAS  C:\Users\PCHAUT~1\AppData\Local\Temp\cctXY9od.s 			page 2


  58 0016 054B     		ldr	r3, .L3
  59 0018 019A     		ldr	r2, [sp, #4]
  60 001a 1B68     		ldr	r3, [r3]
  61 001c 9A42     		cmp	r2, r3
  62 001e 01D0     		beq	.L2
  63 0020 FFF7FEFF 		bl	__stack_chk_fail
  64              	.L2:
  65 0024 03B0     		add	sp, sp, #12
  66              		.cfi_def_cfa_offset 4
  67              		@ sp needed
  68 0026 5DF804FB 		ldr	pc, [sp], #4
  69              	.L4:
  70 002a 00BF     		.align	2
  71              	.L3:
  72 002c 00000000 		.word	__stack_chk_guard
  73              		.cfi_endproc
  74              	.LFE116:
  75              		.size	port_lock, .-port_lock
  76              		.section	.text.port_unlock,"ax",%progbits
  77              		.align	1
  78              		.p2align 4,,15
  79              		.syntax unified
  80              		.thumb
  81              		.thumb_func
  82              		.fpu fpv4-sp-d16
  83              		.type	port_unlock, %function
  84              	port_unlock:
  85              	.LFB117:
  86              		.loc 1 458 0
  87              		.cfi_startproc
  88              		@ args = 0, pretend = 0, frame = 8
  89              		@ frame_needed = 0, uses_anonymous_args = 0
  90 0000 00B5     		push	{lr}
  91              		.cfi_def_cfa_offset 4
  92              		.cfi_offset 14, -4
  93 0002 83B0     		sub	sp, sp, #12
  94              		.cfi_def_cfa_offset 16
  95              		.loc 1 458 0
  96 0004 094B     		ldr	r3, .L7
  97 0006 1B68     		ldr	r3, [r3]
  98 0008 0193     		str	r3, [sp, #4]
  99 000a 0023     		movs	r3, #0
 100 000c 0093     		str	r3, [sp]
 101              	.LBB8:
 102              	.LBB9:
 103              		.loc 2 546 0
 104 000e 009B     		ldr	r3, [sp]
 105              		.syntax unified
 106              	@ 546 "../lib/e-puck2_main-processor/ChibiOS//os/ext/CMSIS/include/core_cmFunc.h" 1
 107 0010 83F31188 		MSR basepri, r3
 108              	@ 0 "" 2
 109              		.thumb
 110              		.syntax unified
 111              	.LBE9:
 112              	.LBE8:
 113              		.loc 1 465 0
 114 0014 00BF     		nop
ARM GAS  C:\Users\PCHAUT~1\AppData\Local\Temp\cctXY9od.s 			page 3


 115 0016 054B     		ldr	r3, .L7
 116 0018 019A     		ldr	r2, [sp, #4]
 117 001a 1B68     		ldr	r3, [r3]
 118 001c 9A42     		cmp	r2, r3
 119 001e 01D0     		beq	.L6
 120 0020 FFF7FEFF 		bl	__stack_chk_fail
 121              	.L6:
 122 0024 03B0     		add	sp, sp, #12
 123              		.cfi_def_cfa_offset 4
 124              		@ sp needed
 125 0026 5DF804FB 		ldr	pc, [sp], #4
 126              	.L8:
 127 002a 00BF     		.align	2
 128              	.L7:
 129 002c 00000000 		.word	__stack_chk_guard
 130              		.cfi_endproc
 131              	.LFE117:
 132              		.size	port_unlock, .-port_unlock
 133              		.section	.text.queue_init,"ax",%progbits
 134              		.align	1
 135              		.p2align 4,,15
 136              		.syntax unified
 137              		.thumb
 138              		.thumb_func
 139              		.fpu fpv4-sp-d16
 140              		.type	queue_init, %function
 141              	queue_init:
 142              	.LFB128:
 143              		.file 3 "../lib/e-puck2_main-processor/ChibiOS//os/rt/include/chschd.h"
 144              		.loc 3 602 0
 145              		.cfi_startproc
 146              		@ args = 0, pretend = 0, frame = 16
 147              		@ frame_needed = 0, uses_anonymous_args = 0
 148 0000 00B5     		push	{lr}
 149              		.cfi_def_cfa_offset 4
 150              		.cfi_offset 14, -4
 151 0002 85B0     		sub	sp, sp, #20
 152              		.cfi_def_cfa_offset 24
 153 0004 0190     		str	r0, [sp, #4]
 154              		.loc 3 602 0
 155 0006 0A4B     		ldr	r3, .L11
 156 0008 1B68     		ldr	r3, [r3]
 157 000a 0393     		str	r3, [sp, #12]
 158              		.loc 3 604 0
 159 000c 019B     		ldr	r3, [sp, #4]
 160 000e 019A     		ldr	r2, [sp, #4]
 161 0010 1A60     		str	r2, [r3]
 162              		.loc 3 605 0
 163 0012 019B     		ldr	r3, [sp, #4]
 164 0014 019A     		ldr	r2, [sp, #4]
 165 0016 5A60     		str	r2, [r3, #4]
 166              		.loc 3 606 0
 167 0018 00BF     		nop
 168 001a 054B     		ldr	r3, .L11
 169 001c 039A     		ldr	r2, [sp, #12]
 170 001e 1B68     		ldr	r3, [r3]
 171 0020 9A42     		cmp	r2, r3
ARM GAS  C:\Users\PCHAUT~1\AppData\Local\Temp\cctXY9od.s 			page 4


 172 0022 01D0     		beq	.L10
 173 0024 FFF7FEFF 		bl	__stack_chk_fail
 174              	.L10:
 175 0028 05B0     		add	sp, sp, #20
 176              		.cfi_def_cfa_offset 4
 177              		@ sp needed
 178 002a 5DF804FB 		ldr	pc, [sp], #4
 179              	.L12:
 180 002e 00BF     		.align	2
 181              	.L11:
 182 0030 00000000 		.word	__stack_chk_guard
 183              		.cfi_endproc
 184              	.LFE128:
 185              		.size	queue_init, .-queue_init
 186              		.section	.text.queue_isempty,"ax",%progbits
 187              		.align	1
 188              		.p2align 4,,15
 189              		.syntax unified
 190              		.thumb
 191              		.thumb_func
 192              		.fpu fpv4-sp-d16
 193              		.type	queue_isempty, %function
 194              	queue_isempty:
 195              	.LFB129:
 196              		.loc 3 616 0
 197              		.cfi_startproc
 198              		@ args = 0, pretend = 0, frame = 16
 199              		@ frame_needed = 0, uses_anonymous_args = 0
 200 0000 00B5     		push	{lr}
 201              		.cfi_def_cfa_offset 4
 202              		.cfi_offset 14, -4
 203 0002 85B0     		sub	sp, sp, #20
 204              		.cfi_def_cfa_offset 24
 205 0004 0190     		str	r0, [sp, #4]
 206              		.loc 3 616 0
 207 0006 0B4B     		ldr	r3, .L16
 208 0008 1B68     		ldr	r3, [r3]
 209 000a 0393     		str	r3, [sp, #12]
 210              		.loc 3 618 0
 211 000c 019B     		ldr	r3, [sp, #4]
 212 000e 1B68     		ldr	r3, [r3]
 213 0010 019A     		ldr	r2, [sp, #4]
 214 0012 9A42     		cmp	r2, r3
 215 0014 0CBF     		ite	eq
 216 0016 0123     		moveq	r3, #1
 217 0018 0023     		movne	r3, #0
 218 001a DBB2     		uxtb	r3, r3
 219              		.loc 3 619 0
 220 001c 1846     		mov	r0, r3
 221 001e 054B     		ldr	r3, .L16
 222 0020 039A     		ldr	r2, [sp, #12]
 223 0022 1B68     		ldr	r3, [r3]
 224 0024 9A42     		cmp	r2, r3
 225 0026 01D0     		beq	.L15
 226 0028 FFF7FEFF 		bl	__stack_chk_fail
 227              	.L15:
 228 002c 05B0     		add	sp, sp, #20
ARM GAS  C:\Users\PCHAUT~1\AppData\Local\Temp\cctXY9od.s 			page 5


 229              		.cfi_def_cfa_offset 4
 230              		@ sp needed
 231 002e 5DF804FB 		ldr	pc, [sp], #4
 232              	.L17:
 233 0032 00BF     		.align	2
 234              	.L16:
 235 0034 00000000 		.word	__stack_chk_guard
 236              		.cfi_endproc
 237              	.LFE129:
 238              		.size	queue_isempty, .-queue_isempty
 239              		.section	.text.queue_notempty,"ax",%progbits
 240              		.align	1
 241              		.p2align 4,,15
 242              		.syntax unified
 243              		.thumb
 244              		.thumb_func
 245              		.fpu fpv4-sp-d16
 246              		.type	queue_notempty, %function
 247              	queue_notempty:
 248              	.LFB130:
 249              		.loc 3 629 0
 250              		.cfi_startproc
 251              		@ args = 0, pretend = 0, frame = 16
 252              		@ frame_needed = 0, uses_anonymous_args = 0
 253 0000 00B5     		push	{lr}
 254              		.cfi_def_cfa_offset 4
 255              		.cfi_offset 14, -4
 256 0002 85B0     		sub	sp, sp, #20
 257              		.cfi_def_cfa_offset 24
 258 0004 0190     		str	r0, [sp, #4]
 259              		.loc 3 629 0
 260 0006 0B4B     		ldr	r3, .L21
 261 0008 1B68     		ldr	r3, [r3]
 262 000a 0393     		str	r3, [sp, #12]
 263              		.loc 3 631 0
 264 000c 019B     		ldr	r3, [sp, #4]
 265 000e 1B68     		ldr	r3, [r3]
 266 0010 019A     		ldr	r2, [sp, #4]
 267 0012 9A42     		cmp	r2, r3
 268 0014 14BF     		ite	ne
 269 0016 0123     		movne	r3, #1
 270 0018 0023     		moveq	r3, #0
 271 001a DBB2     		uxtb	r3, r3
 272              		.loc 3 632 0
 273 001c 1846     		mov	r0, r3
 274 001e 054B     		ldr	r3, .L21
 275 0020 039A     		ldr	r2, [sp, #12]
 276 0022 1B68     		ldr	r3, [r3]
 277 0024 9A42     		cmp	r2, r3
 278 0026 01D0     		beq	.L20
 279 0028 FFF7FEFF 		bl	__stack_chk_fail
 280              	.L20:
 281 002c 05B0     		add	sp, sp, #20
 282              		.cfi_def_cfa_offset 4
 283              		@ sp needed
 284 002e 5DF804FB 		ldr	pc, [sp], #4
 285              	.L22:
ARM GAS  C:\Users\PCHAUT~1\AppData\Local\Temp\cctXY9od.s 			page 6


 286 0032 00BF     		.align	2
 287              	.L21:
 288 0034 00000000 		.word	__stack_chk_guard
 289              		.cfi_endproc
 290              	.LFE130:
 291              		.size	queue_notempty, .-queue_notempty
 292              		.section	.text.queue_insert,"ax",%progbits
 293              		.align	1
 294              		.p2align 4,,15
 295              		.syntax unified
 296              		.thumb
 297              		.thumb_func
 298              		.fpu fpv4-sp-d16
 299              		.type	queue_insert, %function
 300              	queue_insert:
 301              	.LFB134:
 302              		.loc 3 663 0
 303              		.cfi_startproc
 304              		@ args = 0, pretend = 0, frame = 16
 305              		@ frame_needed = 0, uses_anonymous_args = 0
 306 0000 00B5     		push	{lr}
 307              		.cfi_def_cfa_offset 4
 308              		.cfi_offset 14, -4
 309 0002 85B0     		sub	sp, sp, #20
 310              		.cfi_def_cfa_offset 24
 311 0004 0190     		str	r0, [sp, #4]
 312 0006 0091     		str	r1, [sp]
 313              		.loc 3 663 0
 314 0008 0D4B     		ldr	r3, .L25
 315 000a 1B68     		ldr	r3, [r3]
 316 000c 0393     		str	r3, [sp, #12]
 317              		.loc 3 665 0
 318 000e 019B     		ldr	r3, [sp, #4]
 319 0010 009A     		ldr	r2, [sp]
 320 0012 1A60     		str	r2, [r3]
 321              		.loc 3 666 0
 322 0014 009B     		ldr	r3, [sp]
 323 0016 5A68     		ldr	r2, [r3, #4]
 324 0018 019B     		ldr	r3, [sp, #4]
 325 001a 5A60     		str	r2, [r3, #4]
 326              		.loc 3 667 0
 327 001c 019B     		ldr	r3, [sp, #4]
 328 001e 5B68     		ldr	r3, [r3, #4]
 329 0020 019A     		ldr	r2, [sp, #4]
 330 0022 1A60     		str	r2, [r3]
 331              		.loc 3 668 0
 332 0024 009B     		ldr	r3, [sp]
 333 0026 019A     		ldr	r2, [sp, #4]
 334 0028 5A60     		str	r2, [r3, #4]
 335              		.loc 3 669 0
 336 002a 00BF     		nop
 337 002c 044B     		ldr	r3, .L25
 338 002e 039A     		ldr	r2, [sp, #12]
 339 0030 1B68     		ldr	r3, [r3]
 340 0032 9A42     		cmp	r2, r3
 341 0034 01D0     		beq	.L24
 342 0036 FFF7FEFF 		bl	__stack_chk_fail
ARM GAS  C:\Users\PCHAUT~1\AppData\Local\Temp\cctXY9od.s 			page 7


 343              	.L24:
 344 003a 05B0     		add	sp, sp, #20
 345              		.cfi_def_cfa_offset 4
 346              		@ sp needed
 347 003c 5DF804FB 		ldr	pc, [sp], #4
 348              	.L26:
 349              		.align	2
 350              	.L25:
 351 0040 00000000 		.word	__stack_chk_guard
 352              		.cfi_endproc
 353              	.LFE134:
 354              		.size	queue_insert, .-queue_insert
 355              		.section	.text.queue_fifo_remove,"ax",%progbits
 356              		.align	1
 357              		.p2align 4,,15
 358              		.syntax unified
 359              		.thumb
 360              		.thumb_func
 361              		.fpu fpv4-sp-d16
 362              		.type	queue_fifo_remove, %function
 363              	queue_fifo_remove:
 364              	.LFB135:
 365              		.loc 3 671 0
 366              		.cfi_startproc
 367              		@ args = 0, pretend = 0, frame = 16
 368              		@ frame_needed = 0, uses_anonymous_args = 0
 369 0000 00B5     		push	{lr}
 370              		.cfi_def_cfa_offset 4
 371              		.cfi_offset 14, -4
 372 0002 85B0     		sub	sp, sp, #20
 373              		.cfi_def_cfa_offset 24
 374 0004 0190     		str	r0, [sp, #4]
 375              		.loc 3 671 0
 376 0006 0D4B     		ldr	r3, .L30
 377 0008 1B68     		ldr	r3, [r3]
 378 000a 0393     		str	r3, [sp, #12]
 379              		.loc 3 672 0
 380 000c 019B     		ldr	r3, [sp, #4]
 381 000e 1B68     		ldr	r3, [r3]
 382 0010 0293     		str	r3, [sp, #8]
 383              		.loc 3 674 0
 384 0012 029B     		ldr	r3, [sp, #8]
 385 0014 1A68     		ldr	r2, [r3]
 386 0016 019B     		ldr	r3, [sp, #4]
 387 0018 1A60     		str	r2, [r3]
 388              		.loc 3 675 0
 389 001a 019B     		ldr	r3, [sp, #4]
 390 001c 1B68     		ldr	r3, [r3]
 391 001e 019A     		ldr	r2, [sp, #4]
 392 0020 5A60     		str	r2, [r3, #4]
 393              		.loc 3 677 0
 394 0022 029B     		ldr	r3, [sp, #8]
 395              		.loc 3 678 0
 396 0024 1846     		mov	r0, r3
 397 0026 054B     		ldr	r3, .L30
 398 0028 039A     		ldr	r2, [sp, #12]
 399 002a 1B68     		ldr	r3, [r3]
ARM GAS  C:\Users\PCHAUT~1\AppData\Local\Temp\cctXY9od.s 			page 8


 400 002c 9A42     		cmp	r2, r3
 401 002e 01D0     		beq	.L29
 402 0030 FFF7FEFF 		bl	__stack_chk_fail
 403              	.L29:
 404 0034 05B0     		add	sp, sp, #20
 405              		.cfi_def_cfa_offset 4
 406              		@ sp needed
 407 0036 5DF804FB 		ldr	pc, [sp], #4
 408              	.L31:
 409 003a 00BF     		.align	2
 410              	.L30:
 411 003c 00000000 		.word	__stack_chk_guard
 412              		.cfi_endproc
 413              	.LFE135:
 414              		.size	queue_fifo_remove, .-queue_fifo_remove
 415              		.section	.text.queue_lifo_remove,"ax",%progbits
 416              		.align	1
 417              		.p2align 4,,15
 418              		.syntax unified
 419              		.thumb
 420              		.thumb_func
 421              		.fpu fpv4-sp-d16
 422              		.type	queue_lifo_remove, %function
 423              	queue_lifo_remove:
 424              	.LFB136:
 425              		.loc 3 680 0
 426              		.cfi_startproc
 427              		@ args = 0, pretend = 0, frame = 16
 428              		@ frame_needed = 0, uses_anonymous_args = 0
 429 0000 00B5     		push	{lr}
 430              		.cfi_def_cfa_offset 4
 431              		.cfi_offset 14, -4
 432 0002 85B0     		sub	sp, sp, #20
 433              		.cfi_def_cfa_offset 24
 434 0004 0190     		str	r0, [sp, #4]
 435              		.loc 3 680 0
 436 0006 0D4B     		ldr	r3, .L35
 437 0008 1B68     		ldr	r3, [r3]
 438 000a 0393     		str	r3, [sp, #12]
 439              		.loc 3 681 0
 440 000c 019B     		ldr	r3, [sp, #4]
 441 000e 5B68     		ldr	r3, [r3, #4]
 442 0010 0293     		str	r3, [sp, #8]
 443              		.loc 3 683 0
 444 0012 029B     		ldr	r3, [sp, #8]
 445 0014 5A68     		ldr	r2, [r3, #4]
 446 0016 019B     		ldr	r3, [sp, #4]
 447 0018 5A60     		str	r2, [r3, #4]
 448              		.loc 3 684 0
 449 001a 019B     		ldr	r3, [sp, #4]
 450 001c 5B68     		ldr	r3, [r3, #4]
 451 001e 019A     		ldr	r2, [sp, #4]
 452 0020 1A60     		str	r2, [r3]
 453              		.loc 3 686 0
 454 0022 029B     		ldr	r3, [sp, #8]
 455              		.loc 3 687 0
 456 0024 1846     		mov	r0, r3
ARM GAS  C:\Users\PCHAUT~1\AppData\Local\Temp\cctXY9od.s 			page 9


 457 0026 054B     		ldr	r3, .L35
 458 0028 039A     		ldr	r2, [sp, #12]
 459 002a 1B68     		ldr	r3, [r3]
 460 002c 9A42     		cmp	r2, r3
 461 002e 01D0     		beq	.L34
 462 0030 FFF7FEFF 		bl	__stack_chk_fail
 463              	.L34:
 464 0034 05B0     		add	sp, sp, #20
 465              		.cfi_def_cfa_offset 4
 466              		@ sp needed
 467 0036 5DF804FB 		ldr	pc, [sp], #4
 468              	.L36:
 469 003a 00BF     		.align	2
 470              	.L35:
 471 003c 00000000 		.word	__stack_chk_guard
 472              		.cfi_endproc
 473              	.LFE136:
 474              		.size	queue_lifo_remove, .-queue_lifo_remove
 475              		.section	.text.chSysLock,"ax",%progbits
 476              		.align	1
 477              		.p2align 4,,15
 478              		.syntax unified
 479              		.thumb
 480              		.thumb_func
 481              		.fpu fpv4-sp-d16
 482              		.type	chSysLock, %function
 483              	chSysLock:
 484              	.LFB145:
 485              		.file 4 "../lib/e-puck2_main-processor/ChibiOS//os/rt/include/chsys.h"
 486              		.loc 4 346 0
 487              		.cfi_startproc
 488              		@ args = 0, pretend = 0, frame = 8
 489              		@ frame_needed = 0, uses_anonymous_args = 0
 490 0000 00B5     		push	{lr}
 491              		.cfi_def_cfa_offset 4
 492              		.cfi_offset 14, -4
 493 0002 83B0     		sub	sp, sp, #12
 494              		.cfi_def_cfa_offset 16
 495              		.loc 4 346 0
 496 0004 094B     		ldr	r3, .L39
 497 0006 1B68     		ldr	r3, [r3]
 498 0008 0193     		str	r3, [sp, #4]
 499              		.loc 4 348 0
 500 000a FFF7FEFF 		bl	port_lock
 501              		.loc 4 349 0
 502 000e FFF7FEFF 		bl	_stats_start_measure_crit_thd
 503              		.loc 4 350 0
 504 0012 FFF7FEFF 		bl	_dbg_check_lock
 505              		.loc 4 351 0
 506 0016 00BF     		nop
 507 0018 044B     		ldr	r3, .L39
 508 001a 019A     		ldr	r2, [sp, #4]
 509 001c 1B68     		ldr	r3, [r3]
 510 001e 9A42     		cmp	r2, r3
 511 0020 01D0     		beq	.L38
 512 0022 FFF7FEFF 		bl	__stack_chk_fail
 513              	.L38:
ARM GAS  C:\Users\PCHAUT~1\AppData\Local\Temp\cctXY9od.s 			page 10


 514 0026 03B0     		add	sp, sp, #12
 515              		.cfi_def_cfa_offset 4
 516              		@ sp needed
 517 0028 5DF804FB 		ldr	pc, [sp], #4
 518              	.L40:
 519              		.align	2
 520              	.L39:
 521 002c 00000000 		.word	__stack_chk_guard
 522              		.cfi_endproc
 523              	.LFE145:
 524              		.size	chSysLock, .-chSysLock
 525              		.section	.text.chSysUnlock,"ax",%progbits
 526              		.align	1
 527              		.p2align 4,,15
 528              		.syntax unified
 529              		.thumb
 530              		.thumb_func
 531              		.fpu fpv4-sp-d16
 532              		.type	chSysUnlock, %function
 533              	chSysUnlock:
 534              	.LFB146:
 535              		.loc 4 358 0
 536              		.cfi_startproc
 537              		@ args = 0, pretend = 0, frame = 8
 538              		@ frame_needed = 0, uses_anonymous_args = 0
 539 0000 00B5     		push	{lr}
 540              		.cfi_def_cfa_offset 4
 541              		.cfi_offset 14, -4
 542 0002 83B0     		sub	sp, sp, #12
 543              		.cfi_def_cfa_offset 16
 544              		.loc 4 358 0
 545 0004 114B     		ldr	r3, .L44
 546 0006 1B68     		ldr	r3, [r3]
 547 0008 0193     		str	r3, [sp, #4]
 548              		.loc 4 360 0
 549 000a FFF7FEFF 		bl	_dbg_check_unlock
 550              		.loc 4 361 0
 551 000e FFF7FEFF 		bl	_stats_stop_measure_crit_thd
 552              		.loc 4 367 0
 553 0012 0F4B     		ldr	r3, .L44+4
 554 0014 1B68     		ldr	r3, [r3]
 555 0016 0E4A     		ldr	r2, .L44+4
 556 0018 9342     		cmp	r3, r2
 557 001a 0AD0     		beq	.L42
 558              		.loc 4 367 0 is_stmt 0 discriminator 2
 559 001c 0C4B     		ldr	r3, .L44+4
 560 001e 9B69     		ldr	r3, [r3, #24]
 561 0020 9A68     		ldr	r2, [r3, #8]
 562 0022 0B4B     		ldr	r3, .L44+4
 563 0024 1B68     		ldr	r3, [r3]
 564 0026 9B68     		ldr	r3, [r3, #8]
 565 0028 9A42     		cmp	r2, r3
 566 002a 02D2     		bcs	.L42
 567              		.loc 4 367 0 discriminator 3
 568 002c 0948     		ldr	r0, .L44+8
 569 002e FFF7FEFF 		bl	chSysHalt
 570              	.L42:
ARM GAS  C:\Users\PCHAUT~1\AppData\Local\Temp\cctXY9od.s 			page 11


 571              		.loc 4 371 0 is_stmt 1
 572 0032 FFF7FEFF 		bl	port_unlock
 573              		.loc 4 372 0
 574 0036 00BF     		nop
 575 0038 044B     		ldr	r3, .L44
 576 003a 019A     		ldr	r2, [sp, #4]
 577 003c 1B68     		ldr	r3, [r3]
 578 003e 9A42     		cmp	r2, r3
 579 0040 01D0     		beq	.L43
 580 0042 FFF7FEFF 		bl	__stack_chk_fail
 581              	.L43:
 582 0046 03B0     		add	sp, sp, #12
 583              		.cfi_def_cfa_offset 4
 584              		@ sp needed
 585 0048 5DF804FB 		ldr	pc, [sp], #4
 586              	.L45:
 587              		.align	2
 588              	.L44:
 589 004c 00000000 		.word	__stack_chk_guard
 590 0050 00000000 		.word	ch
 591 0054 00000000 		.word	__func__.7153
 592              		.cfi_endproc
 593              	.LFE146:
 594              		.size	chSysUnlock, .-chSysUnlock
 595              		.section	.text.chSemObjectInit,"ax",%progbits
 596              		.align	1
 597              		.p2align 4,,15
 598              		.global	chSemObjectInit
 599              		.syntax unified
 600              		.thumb
 601              		.thumb_func
 602              		.fpu fpv4-sp-d16
 603              		.type	chSemObjectInit, %function
 604              	chSemObjectInit:
 605              	.LFB219:
 606              		.file 5 "../lib/e-puck2_main-processor/ChibiOS//os/rt/src/chsem.c"
 607              		.loc 5 97 0
 608              		.cfi_startproc
 609              		@ args = 0, pretend = 0, frame = 16
 610              		@ frame_needed = 0, uses_anonymous_args = 0
 611 0000 00B5     		push	{lr}
 612              		.cfi_def_cfa_offset 4
 613              		.cfi_offset 14, -4
 614 0002 85B0     		sub	sp, sp, #20
 615              		.cfi_def_cfa_offset 24
 616 0004 0190     		str	r0, [sp, #4]
 617 0006 0091     		str	r1, [sp]
 618              		.loc 5 97 0
 619 0008 0E4B     		ldr	r3, .L50
 620 000a 1B68     		ldr	r3, [r3]
 621 000c 0393     		str	r3, [sp, #12]
 622              		.loc 5 99 0
 623 000e 019B     		ldr	r3, [sp, #4]
 624 0010 002B     		cmp	r3, #0
 625 0012 02D0     		beq	.L47
 626              		.loc 5 99 0 is_stmt 0 discriminator 3
 627 0014 009B     		ldr	r3, [sp]
ARM GAS  C:\Users\PCHAUT~1\AppData\Local\Temp\cctXY9od.s 			page 12


 628 0016 002B     		cmp	r3, #0
 629 0018 02DA     		bge	.L48
 630              	.L47:
 631              		.loc 5 99 0 discriminator 4
 632 001a 0B48     		ldr	r0, .L50+4
 633 001c FFF7FEFF 		bl	chSysHalt
 634              	.L48:
 635              		.loc 5 101 0 is_stmt 1
 636 0020 019B     		ldr	r3, [sp, #4]
 637 0022 1846     		mov	r0, r3
 638 0024 FFF7FEFF 		bl	queue_init
 639              		.loc 5 102 0
 640 0028 019B     		ldr	r3, [sp, #4]
 641 002a 009A     		ldr	r2, [sp]
 642 002c 9A60     		str	r2, [r3, #8]
 643              		.loc 5 103 0
 644 002e 00BF     		nop
 645 0030 044B     		ldr	r3, .L50
 646 0032 039A     		ldr	r2, [sp, #12]
 647 0034 1B68     		ldr	r3, [r3]
 648 0036 9A42     		cmp	r2, r3
 649 0038 01D0     		beq	.L49
 650 003a FFF7FEFF 		bl	__stack_chk_fail
 651              	.L49:
 652 003e 05B0     		add	sp, sp, #20
 653              		.cfi_def_cfa_offset 4
 654              		@ sp needed
 655 0040 5DF804FB 		ldr	pc, [sp], #4
 656              	.L51:
 657              		.align	2
 658              	.L50:
 659 0044 00000000 		.word	__stack_chk_guard
 660 0048 00000000 		.word	__func__.7850
 661              		.cfi_endproc
 662              	.LFE219:
 663              		.size	chSemObjectInit, .-chSemObjectInit
 664              		.section	.text.chSemReset,"ax",%progbits
 665              		.align	1
 666              		.p2align 4,,15
 667              		.global	chSemReset
 668              		.syntax unified
 669              		.thumb
 670              		.thumb_func
 671              		.fpu fpv4-sp-d16
 672              		.type	chSemReset, %function
 673              	chSemReset:
 674              	.LFB220:
 675              		.loc 5 120 0
 676              		.cfi_startproc
 677              		@ args = 0, pretend = 0, frame = 16
 678              		@ frame_needed = 0, uses_anonymous_args = 0
 679 0000 00B5     		push	{lr}
 680              		.cfi_def_cfa_offset 4
 681              		.cfi_offset 14, -4
 682 0002 85B0     		sub	sp, sp, #20
 683              		.cfi_def_cfa_offset 24
 684 0004 0190     		str	r0, [sp, #4]
ARM GAS  C:\Users\PCHAUT~1\AppData\Local\Temp\cctXY9od.s 			page 13


 685 0006 0091     		str	r1, [sp]
 686              		.loc 5 120 0
 687 0008 0B4B     		ldr	r3, .L54
 688 000a 1B68     		ldr	r3, [r3]
 689 000c 0393     		str	r3, [sp, #12]
 690              		.loc 5 122 0
 691 000e FFF7FEFF 		bl	chSysLock
 692              		.loc 5 123 0
 693 0012 0099     		ldr	r1, [sp]
 694 0014 0198     		ldr	r0, [sp, #4]
 695 0016 FFF7FEFF 		bl	chSemResetI
 696              		.loc 5 124 0
 697 001a FFF7FEFF 		bl	chSchRescheduleS
 698              		.loc 5 125 0
 699 001e FFF7FEFF 		bl	chSysUnlock
 700              		.loc 5 126 0
 701 0022 00BF     		nop
 702 0024 044B     		ldr	r3, .L54
 703 0026 039A     		ldr	r2, [sp, #12]
 704 0028 1B68     		ldr	r3, [r3]
 705 002a 9A42     		cmp	r2, r3
 706 002c 01D0     		beq	.L53
 707 002e FFF7FEFF 		bl	__stack_chk_fail
 708              	.L53:
 709 0032 05B0     		add	sp, sp, #20
 710              		.cfi_def_cfa_offset 4
 711              		@ sp needed
 712 0034 5DF804FB 		ldr	pc, [sp], #4
 713              	.L55:
 714              		.align	2
 715              	.L54:
 716 0038 00000000 		.word	__stack_chk_guard
 717              		.cfi_endproc
 718              	.LFE220:
 719              		.size	chSemReset, .-chSemReset
 720              		.section	.text.chSemResetI,"ax",%progbits
 721              		.align	1
 722              		.p2align 4,,15
 723              		.global	chSemResetI
 724              		.syntax unified
 725              		.thumb
 726              		.thumb_func
 727              		.fpu fpv4-sp-d16
 728              		.type	chSemResetI, %function
 729              	chSemResetI:
 730              	.LFB221:
 731              		.loc 5 147 0
 732              		.cfi_startproc
 733              		@ args = 0, pretend = 0, frame = 16
 734              		@ frame_needed = 0, uses_anonymous_args = 0
 735 0000 00B5     		push	{lr}
 736              		.cfi_def_cfa_offset 4
 737              		.cfi_offset 14, -4
 738 0002 85B0     		sub	sp, sp, #20
 739              		.cfi_def_cfa_offset 24
 740 0004 0190     		str	r0, [sp, #4]
 741 0006 0091     		str	r1, [sp]
ARM GAS  C:\Users\PCHAUT~1\AppData\Local\Temp\cctXY9od.s 			page 14


 742              		.loc 5 147 0
 743 0008 284B     		ldr	r3, .L66
 744 000a 1B68     		ldr	r3, [r3]
 745 000c 0393     		str	r3, [sp, #12]
 746              		.loc 5 150 0
 747 000e FFF7FEFF 		bl	chDbgCheckClassI
 748              		.loc 5 151 0
 749 0012 019B     		ldr	r3, [sp, #4]
 750 0014 002B     		cmp	r3, #0
 751 0016 02D0     		beq	.L57
 752              		.loc 5 151 0 is_stmt 0 discriminator 3
 753 0018 009B     		ldr	r3, [sp]
 754 001a 002B     		cmp	r3, #0
 755 001c 02DA     		bge	.L65
 756              	.L57:
 757              		.loc 5 151 0 discriminator 4
 758 001e 2448     		ldr	r0, .L66+4
 759 0020 FFF7FEFF 		bl	chSysHalt
 760              	.L65:
 761              		.loc 5 152 0 is_stmt 1 discriminator 1
 762 0024 019B     		ldr	r3, [sp, #4]
 763 0026 9B68     		ldr	r3, [r3, #8]
 764 0028 002B     		cmp	r3, #0
 765 002a 09DB     		blt	.L59
 766              		.loc 5 152 0 is_stmt 0 discriminator 3
 767 002c 019B     		ldr	r3, [sp, #4]
 768 002e 1846     		mov	r0, r3
 769 0030 FFF7FEFF 		bl	queue_isempty
 770 0034 0346     		mov	r3, r0
 771 0036 83F00103 		eor	r3, r3, #1
 772 003a DBB2     		uxtb	r3, r3
 773 003c 002B     		cmp	r3, #0
 774 003e 10D0     		beq	.L60
 775              	.L59:
 776              		.loc 5 152 0 discriminator 4
 777 0040 019B     		ldr	r3, [sp, #4]
 778 0042 9B68     		ldr	r3, [r3, #8]
 779 0044 002B     		cmp	r3, #0
 780 0046 09DA     		bge	.L61
 781              		.loc 5 152 0 discriminator 6
 782 0048 019B     		ldr	r3, [sp, #4]
 783 004a 1846     		mov	r0, r3
 784 004c FFF7FEFF 		bl	queue_notempty
 785 0050 0346     		mov	r3, r0
 786 0052 83F00103 		eor	r3, r3, #1
 787 0056 DBB2     		uxtb	r3, r3
 788 0058 002B     		cmp	r3, #0
 789 005a 02D0     		beq	.L60
 790              	.L61:
 791              		.loc 5 152 0 discriminator 7
 792 005c 1448     		ldr	r0, .L66+4
 793 005e FFF7FEFF 		bl	chSysHalt
 794              	.L60:
 795              		.loc 5 156 0 is_stmt 1
 796 0062 019B     		ldr	r3, [sp, #4]
 797 0064 9B68     		ldr	r3, [r3, #8]
 798 0066 0293     		str	r3, [sp, #8]
ARM GAS  C:\Users\PCHAUT~1\AppData\Local\Temp\cctXY9od.s 			page 15


 799              		.loc 5 157 0
 800 0068 019B     		ldr	r3, [sp, #4]
 801 006a 009A     		ldr	r2, [sp]
 802 006c 9A60     		str	r2, [r3, #8]
 803              		.loc 5 158 0
 804 006e 0BE0     		b	.L62
 805              	.L63:
 806              		.loc 5 159 0
 807 0070 019B     		ldr	r3, [sp, #4]
 808 0072 1846     		mov	r0, r3
 809 0074 FFF7FEFF 		bl	queue_lifo_remove
 810 0078 0346     		mov	r3, r0
 811 007a 1846     		mov	r0, r3
 812 007c FFF7FEFF 		bl	chSchReadyI
 813 0080 0246     		mov	r2, r0
 814 0082 6FF00103 		mvn	r3, #1
 815 0086 9362     		str	r3, [r2, #40]
 816              	.L62:
 817              		.loc 5 158 0
 818 0088 029B     		ldr	r3, [sp, #8]
 819 008a 0133     		adds	r3, r3, #1
 820 008c 0293     		str	r3, [sp, #8]
 821 008e 029B     		ldr	r3, [sp, #8]
 822 0090 002B     		cmp	r3, #0
 823 0092 EDDD     		ble	.L63
 824              		.loc 5 161 0
 825 0094 00BF     		nop
 826 0096 054B     		ldr	r3, .L66
 827 0098 039A     		ldr	r2, [sp, #12]
 828 009a 1B68     		ldr	r3, [r3]
 829 009c 9A42     		cmp	r2, r3
 830 009e 01D0     		beq	.L64
 831 00a0 FFF7FEFF 		bl	__stack_chk_fail
 832              	.L64:
 833 00a4 05B0     		add	sp, sp, #20
 834              		.cfi_def_cfa_offset 4
 835              		@ sp needed
 836 00a6 5DF804FB 		ldr	pc, [sp], #4
 837              	.L67:
 838 00aa 00BF     		.align	2
 839              	.L66:
 840 00ac 00000000 		.word	__stack_chk_guard
 841 00b0 00000000 		.word	__func__.7860
 842              		.cfi_endproc
 843              	.LFE221:
 844              		.size	chSemResetI, .-chSemResetI
 845              		.section	.text.chSemWait,"ax",%progbits
 846              		.align	1
 847              		.p2align 4,,15
 848              		.global	chSemWait
 849              		.syntax unified
 850              		.thumb
 851              		.thumb_func
 852              		.fpu fpv4-sp-d16
 853              		.type	chSemWait, %function
 854              	chSemWait:
 855              	.LFB222:
ARM GAS  C:\Users\PCHAUT~1\AppData\Local\Temp\cctXY9od.s 			page 16


 856              		.loc 5 175 0
 857              		.cfi_startproc
 858              		@ args = 0, pretend = 0, frame = 16
 859              		@ frame_needed = 0, uses_anonymous_args = 0
 860 0000 00B5     		push	{lr}
 861              		.cfi_def_cfa_offset 4
 862              		.cfi_offset 14, -4
 863 0002 85B0     		sub	sp, sp, #20
 864              		.cfi_def_cfa_offset 24
 865 0004 0190     		str	r0, [sp, #4]
 866              		.loc 5 175 0
 867 0006 0B4B     		ldr	r3, .L71
 868 0008 1B68     		ldr	r3, [r3]
 869 000a 0393     		str	r3, [sp, #12]
 870              		.loc 5 178 0
 871 000c FFF7FEFF 		bl	chSysLock
 872              		.loc 5 179 0
 873 0010 0198     		ldr	r0, [sp, #4]
 874 0012 FFF7FEFF 		bl	chSemWaitS
 875 0016 0290     		str	r0, [sp, #8]
 876              		.loc 5 180 0
 877 0018 FFF7FEFF 		bl	chSysUnlock
 878              		.loc 5 182 0
 879 001c 029B     		ldr	r3, [sp, #8]
 880              		.loc 5 183 0
 881 001e 1846     		mov	r0, r3
 882 0020 044B     		ldr	r3, .L71
 883 0022 039A     		ldr	r2, [sp, #12]
 884 0024 1B68     		ldr	r3, [r3]
 885 0026 9A42     		cmp	r2, r3
 886 0028 01D0     		beq	.L70
 887 002a FFF7FEFF 		bl	__stack_chk_fail
 888              	.L70:
 889 002e 05B0     		add	sp, sp, #20
 890              		.cfi_def_cfa_offset 4
 891              		@ sp needed
 892 0030 5DF804FB 		ldr	pc, [sp], #4
 893              	.L72:
 894              		.align	2
 895              	.L71:
 896 0034 00000000 		.word	__stack_chk_guard
 897              		.cfi_endproc
 898              	.LFE222:
 899              		.size	chSemWait, .-chSemWait
 900              		.section	.text.chSemWaitS,"ax",%progbits
 901              		.align	1
 902              		.p2align 4,,15
 903              		.global	chSemWaitS
 904              		.syntax unified
 905              		.thumb
 906              		.thumb_func
 907              		.fpu fpv4-sp-d16
 908              		.type	chSemWaitS, %function
 909              	chSemWaitS:
 910              	.LFB223:
 911              		.loc 5 197 0
 912              		.cfi_startproc
ARM GAS  C:\Users\PCHAUT~1\AppData\Local\Temp\cctXY9od.s 			page 17


 913              		@ args = 0, pretend = 0, frame = 16
 914              		@ frame_needed = 0, uses_anonymous_args = 0
 915 0000 00B5     		push	{lr}
 916              		.cfi_def_cfa_offset 4
 917              		.cfi_offset 14, -4
 918 0002 85B0     		sub	sp, sp, #20
 919              		.cfi_def_cfa_offset 24
 920 0004 0190     		str	r0, [sp, #4]
 921              		.loc 5 197 0
 922 0006 284B     		ldr	r3, .L82
 923 0008 1B68     		ldr	r3, [r3]
 924 000a 0393     		str	r3, [sp, #12]
 925              		.loc 5 199 0
 926 000c FFF7FEFF 		bl	chDbgCheckClassS
 927              		.loc 5 200 0
 928 0010 019B     		ldr	r3, [sp, #4]
 929 0012 002B     		cmp	r3, #0
 930 0014 02D1     		bne	.L81
 931              		.loc 5 200 0 is_stmt 0 discriminator 2
 932 0016 2548     		ldr	r0, .L82+4
 933 0018 FFF7FEFF 		bl	chSysHalt
 934              	.L81:
 935              		.loc 5 201 0 is_stmt 1 discriminator 1
 936 001c 019B     		ldr	r3, [sp, #4]
 937 001e 9B68     		ldr	r3, [r3, #8]
 938 0020 002B     		cmp	r3, #0
 939 0022 09DB     		blt	.L75
 940              		.loc 5 201 0 is_stmt 0 discriminator 3
 941 0024 019B     		ldr	r3, [sp, #4]
 942 0026 1846     		mov	r0, r3
 943 0028 FFF7FEFF 		bl	queue_isempty
 944 002c 0346     		mov	r3, r0
 945 002e 83F00103 		eor	r3, r3, #1
 946 0032 DBB2     		uxtb	r3, r3
 947 0034 002B     		cmp	r3, #0
 948 0036 10D0     		beq	.L76
 949              	.L75:
 950              		.loc 5 201 0 discriminator 4
 951 0038 019B     		ldr	r3, [sp, #4]
 952 003a 9B68     		ldr	r3, [r3, #8]
 953 003c 002B     		cmp	r3, #0
 954 003e 09DA     		bge	.L77
 955              		.loc 5 201 0 discriminator 6
 956 0040 019B     		ldr	r3, [sp, #4]
 957 0042 1846     		mov	r0, r3
 958 0044 FFF7FEFF 		bl	queue_notempty
 959 0048 0346     		mov	r3, r0
 960 004a 83F00103 		eor	r3, r3, #1
 961 004e DBB2     		uxtb	r3, r3
 962 0050 002B     		cmp	r3, #0
 963 0052 02D0     		beq	.L76
 964              	.L77:
 965              		.loc 5 201 0 discriminator 7
 966 0054 1548     		ldr	r0, .L82+4
 967 0056 FFF7FEFF 		bl	chSysHalt
 968              	.L76:
 969              		.loc 5 205 0 is_stmt 1
ARM GAS  C:\Users\PCHAUT~1\AppData\Local\Temp\cctXY9od.s 			page 18


 970 005a 019B     		ldr	r3, [sp, #4]
 971 005c 9B68     		ldr	r3, [r3, #8]
 972 005e 5A1E     		subs	r2, r3, #1
 973 0060 019B     		ldr	r3, [sp, #4]
 974 0062 9A60     		str	r2, [r3, #8]
 975 0064 019B     		ldr	r3, [sp, #4]
 976 0066 9B68     		ldr	r3, [r3, #8]
 977 0068 002B     		cmp	r3, #0
 978 006a 11DA     		bge	.L78
 979              		.loc 5 206 0
 980 006c 104B     		ldr	r3, .L82+8
 981 006e 9B69     		ldr	r3, [r3, #24]
 982 0070 019A     		ldr	r2, [sp, #4]
 983 0072 9A62     		str	r2, [r3, #40]
 984              		.loc 5 207 0
 985 0074 0E4B     		ldr	r3, .L82+8
 986 0076 9B69     		ldr	r3, [r3, #24]
 987 0078 019A     		ldr	r2, [sp, #4]
 988 007a 1146     		mov	r1, r2
 989 007c 1846     		mov	r0, r3
 990 007e FFF7FEFF 		bl	queue_insert
 991              		.loc 5 208 0
 992 0082 0520     		movs	r0, #5
 993 0084 FFF7FEFF 		bl	chSchGoSleepS
 994              		.loc 5 210 0
 995 0088 094B     		ldr	r3, .L82+8
 996 008a 9B69     		ldr	r3, [r3, #24]
 997 008c 9B6A     		ldr	r3, [r3, #40]
 998 008e 00E0     		b	.L79
 999              	.L78:
 1000              		.loc 5 213 0
 1001 0090 0023     		movs	r3, #0
 1002              	.L79:
 1003              		.loc 5 214 0
 1004 0092 1846     		mov	r0, r3
 1005 0094 044B     		ldr	r3, .L82
 1006 0096 039A     		ldr	r2, [sp, #12]
 1007 0098 1B68     		ldr	r3, [r3]
 1008 009a 9A42     		cmp	r2, r3
 1009 009c 01D0     		beq	.L80
 1010 009e FFF7FEFF 		bl	__stack_chk_fail
 1011              	.L80:
 1012 00a2 05B0     		add	sp, sp, #20
 1013              		.cfi_def_cfa_offset 4
 1014              		@ sp needed
 1015 00a4 5DF804FB 		ldr	pc, [sp], #4
 1016              	.L83:
 1017              		.align	2
 1018              	.L82:
 1019 00a8 00000000 		.word	__stack_chk_guard
 1020 00ac 00000000 		.word	__func__.7871
 1021 00b0 00000000 		.word	ch
 1022              		.cfi_endproc
 1023              	.LFE223:
 1024              		.size	chSemWaitS, .-chSemWaitS
 1025              		.section	.text.chSemWaitTimeout,"ax",%progbits
 1026              		.align	1
ARM GAS  C:\Users\PCHAUT~1\AppData\Local\Temp\cctXY9od.s 			page 19


 1027              		.p2align 4,,15
 1028              		.global	chSemWaitTimeout
 1029              		.syntax unified
 1030              		.thumb
 1031              		.thumb_func
 1032              		.fpu fpv4-sp-d16
 1033              		.type	chSemWaitTimeout, %function
 1034              	chSemWaitTimeout:
 1035              	.LFB224:
 1036              		.loc 5 235 0
 1037              		.cfi_startproc
 1038              		@ args = 0, pretend = 0, frame = 16
 1039              		@ frame_needed = 0, uses_anonymous_args = 0
 1040 0000 00B5     		push	{lr}
 1041              		.cfi_def_cfa_offset 4
 1042              		.cfi_offset 14, -4
 1043 0002 85B0     		sub	sp, sp, #20
 1044              		.cfi_def_cfa_offset 24
 1045 0004 0190     		str	r0, [sp, #4]
 1046 0006 0091     		str	r1, [sp]
 1047              		.loc 5 235 0
 1048 0008 0B4B     		ldr	r3, .L87
 1049 000a 1B68     		ldr	r3, [r3]
 1050 000c 0393     		str	r3, [sp, #12]
 1051              		.loc 5 238 0
 1052 000e FFF7FEFF 		bl	chSysLock
 1053              		.loc 5 239 0
 1054 0012 0099     		ldr	r1, [sp]
 1055 0014 0198     		ldr	r0, [sp, #4]
 1056 0016 FFF7FEFF 		bl	chSemWaitTimeoutS
 1057 001a 0290     		str	r0, [sp, #8]
 1058              		.loc 5 240 0
 1059 001c FFF7FEFF 		bl	chSysUnlock
 1060              		.loc 5 242 0
 1061 0020 029B     		ldr	r3, [sp, #8]
 1062              		.loc 5 243 0
 1063 0022 1846     		mov	r0, r3
 1064 0024 044B     		ldr	r3, .L87
 1065 0026 039A     		ldr	r2, [sp, #12]
 1066 0028 1B68     		ldr	r3, [r3]
 1067 002a 9A42     		cmp	r2, r3
 1068 002c 01D0     		beq	.L86
 1069 002e FFF7FEFF 		bl	__stack_chk_fail
 1070              	.L86:
 1071 0032 05B0     		add	sp, sp, #20
 1072              		.cfi_def_cfa_offset 4
 1073              		@ sp needed
 1074 0034 5DF804FB 		ldr	pc, [sp], #4
 1075              	.L88:
 1076              		.align	2
 1077              	.L87:
 1078 0038 00000000 		.word	__stack_chk_guard
 1079              		.cfi_endproc
 1080              	.LFE224:
 1081              		.size	chSemWaitTimeout, .-chSemWaitTimeout
 1082              		.section	.text.chSemWaitTimeoutS,"ax",%progbits
 1083              		.align	1
ARM GAS  C:\Users\PCHAUT~1\AppData\Local\Temp\cctXY9od.s 			page 20


 1084              		.p2align 4,,15
 1085              		.global	chSemWaitTimeoutS
 1086              		.syntax unified
 1087              		.thumb
 1088              		.thumb_func
 1089              		.fpu fpv4-sp-d16
 1090              		.type	chSemWaitTimeoutS, %function
 1091              	chSemWaitTimeoutS:
 1092              	.LFB225:
 1093              		.loc 5 264 0
 1094              		.cfi_startproc
 1095              		@ args = 0, pretend = 0, frame = 16
 1096              		@ frame_needed = 0, uses_anonymous_args = 0
 1097 0000 00B5     		push	{lr}
 1098              		.cfi_def_cfa_offset 4
 1099              		.cfi_offset 14, -4
 1100 0002 85B0     		sub	sp, sp, #20
 1101              		.cfi_def_cfa_offset 24
 1102 0004 0190     		str	r0, [sp, #4]
 1103 0006 0091     		str	r1, [sp]
 1104              		.loc 5 264 0
 1105 0008 2D4B     		ldr	r3, .L99
 1106 000a 1B68     		ldr	r3, [r3]
 1107 000c 0393     		str	r3, [sp, #12]
 1108              		.loc 5 266 0
 1109 000e FFF7FEFF 		bl	chDbgCheckClassS
 1110              		.loc 5 267 0
 1111 0012 019B     		ldr	r3, [sp, #4]
 1112 0014 002B     		cmp	r3, #0
 1113 0016 02D1     		bne	.L98
 1114              		.loc 5 267 0 is_stmt 0 discriminator 2
 1115 0018 2A48     		ldr	r0, .L99+4
 1116 001a FFF7FEFF 		bl	chSysHalt
 1117              	.L98:
 1118              		.loc 5 268 0 is_stmt 1 discriminator 1
 1119 001e 019B     		ldr	r3, [sp, #4]
 1120 0020 9B68     		ldr	r3, [r3, #8]
 1121 0022 002B     		cmp	r3, #0
 1122 0024 09DB     		blt	.L91
 1123              		.loc 5 268 0 is_stmt 0 discriminator 3
 1124 0026 019B     		ldr	r3, [sp, #4]
 1125 0028 1846     		mov	r0, r3
 1126 002a FFF7FEFF 		bl	queue_isempty
 1127 002e 0346     		mov	r3, r0
 1128 0030 83F00103 		eor	r3, r3, #1
 1129 0034 DBB2     		uxtb	r3, r3
 1130 0036 002B     		cmp	r3, #0
 1131 0038 10D0     		beq	.L92
 1132              	.L91:
 1133              		.loc 5 268 0 discriminator 4
 1134 003a 019B     		ldr	r3, [sp, #4]
 1135 003c 9B68     		ldr	r3, [r3, #8]
 1136 003e 002B     		cmp	r3, #0
 1137 0040 09DA     		bge	.L93
 1138              		.loc 5 268 0 discriminator 6
 1139 0042 019B     		ldr	r3, [sp, #4]
 1140 0044 1846     		mov	r0, r3
ARM GAS  C:\Users\PCHAUT~1\AppData\Local\Temp\cctXY9od.s 			page 21


 1141 0046 FFF7FEFF 		bl	queue_notempty
 1142 004a 0346     		mov	r3, r0
 1143 004c 83F00103 		eor	r3, r3, #1
 1144 0050 DBB2     		uxtb	r3, r3
 1145 0052 002B     		cmp	r3, #0
 1146 0054 02D0     		beq	.L92
 1147              	.L93:
 1148              		.loc 5 268 0 discriminator 7
 1149 0056 1B48     		ldr	r0, .L99+4
 1150 0058 FFF7FEFF 		bl	chSysHalt
 1151              	.L92:
 1152              		.loc 5 272 0 is_stmt 1
 1153 005c 019B     		ldr	r3, [sp, #4]
 1154 005e 9B68     		ldr	r3, [r3, #8]
 1155 0060 5A1E     		subs	r2, r3, #1
 1156 0062 019B     		ldr	r3, [sp, #4]
 1157 0064 9A60     		str	r2, [r3, #8]
 1158 0066 019B     		ldr	r3, [sp, #4]
 1159 0068 9B68     		ldr	r3, [r3, #8]
 1160 006a 002B     		cmp	r3, #0
 1161 006c 1BDA     		bge	.L94
 1162              		.loc 5 273 0
 1163 006e 009B     		ldr	r3, [sp]
 1164 0070 002B     		cmp	r3, #0
 1165 0072 07D1     		bne	.L95
 1166              		.loc 5 274 0
 1167 0074 019B     		ldr	r3, [sp, #4]
 1168 0076 9B68     		ldr	r3, [r3, #8]
 1169 0078 5A1C     		adds	r2, r3, #1
 1170 007a 019B     		ldr	r3, [sp, #4]
 1171 007c 9A60     		str	r2, [r3, #8]
 1172              		.loc 5 276 0
 1173 007e 4FF0FF33 		mov	r3, #-1
 1174 0082 11E0     		b	.L96
 1175              	.L95:
 1176              		.loc 5 278 0
 1177 0084 104B     		ldr	r3, .L99+8
 1178 0086 9B69     		ldr	r3, [r3, #24]
 1179 0088 019A     		ldr	r2, [sp, #4]
 1180 008a 9A62     		str	r2, [r3, #40]
 1181              		.loc 5 279 0
 1182 008c 0E4B     		ldr	r3, .L99+8
 1183 008e 9B69     		ldr	r3, [r3, #24]
 1184 0090 019A     		ldr	r2, [sp, #4]
 1185 0092 1146     		mov	r1, r2
 1186 0094 1846     		mov	r0, r3
 1187 0096 FFF7FEFF 		bl	queue_insert
 1188              		.loc 5 281 0
 1189 009a 0099     		ldr	r1, [sp]
 1190 009c 0520     		movs	r0, #5
 1191 009e FFF7FEFF 		bl	chSchGoSleepTimeoutS
 1192 00a2 0346     		mov	r3, r0
 1193 00a4 00E0     		b	.L96
 1194              	.L94:
 1195              		.loc 5 284 0
 1196 00a6 0023     		movs	r3, #0
 1197              	.L96:
ARM GAS  C:\Users\PCHAUT~1\AppData\Local\Temp\cctXY9od.s 			page 22


 1198              		.loc 5 285 0
 1199 00a8 1846     		mov	r0, r3
 1200 00aa 054B     		ldr	r3, .L99
 1201 00ac 039A     		ldr	r2, [sp, #12]
 1202 00ae 1B68     		ldr	r3, [r3]
 1203 00b0 9A42     		cmp	r2, r3
 1204 00b2 01D0     		beq	.L97
 1205 00b4 FFF7FEFF 		bl	__stack_chk_fail
 1206              	.L97:
 1207 00b8 05B0     		add	sp, sp, #20
 1208              		.cfi_def_cfa_offset 4
 1209              		@ sp needed
 1210 00ba 5DF804FB 		ldr	pc, [sp], #4
 1211              	.L100:
 1212 00be 00BF     		.align	2
 1213              	.L99:
 1214 00c0 00000000 		.word	__stack_chk_guard
 1215 00c4 00000000 		.word	__func__.7881
 1216 00c8 00000000 		.word	ch
 1217              		.cfi_endproc
 1218              	.LFE225:
 1219              		.size	chSemWaitTimeoutS, .-chSemWaitTimeoutS
 1220              		.section	.text.chSemSignal,"ax",%progbits
 1221              		.align	1
 1222              		.p2align 4,,15
 1223              		.global	chSemSignal
 1224              		.syntax unified
 1225              		.thumb
 1226              		.thumb_func
 1227              		.fpu fpv4-sp-d16
 1228              		.type	chSemSignal, %function
 1229              	chSemSignal:
 1230              	.LFB226:
 1231              		.loc 5 294 0
 1232              		.cfi_startproc
 1233              		@ args = 0, pretend = 0, frame = 16
 1234              		@ frame_needed = 0, uses_anonymous_args = 0
 1235 0000 00B5     		push	{lr}
 1236              		.cfi_def_cfa_offset 4
 1237              		.cfi_offset 14, -4
 1238 0002 85B0     		sub	sp, sp, #20
 1239              		.cfi_def_cfa_offset 24
 1240 0004 0190     		str	r0, [sp, #4]
 1241              		.loc 5 294 0
 1242 0006 244B     		ldr	r3, .L109
 1243 0008 1B68     		ldr	r3, [r3]
 1244 000a 0393     		str	r3, [sp, #12]
 1245              		.loc 5 296 0
 1246 000c 019B     		ldr	r3, [sp, #4]
 1247 000e 002B     		cmp	r3, #0
 1248 0010 02D1     		bne	.L108
 1249              		.loc 5 296 0 is_stmt 0 discriminator 2
 1250 0012 2248     		ldr	r0, .L109+4
 1251 0014 FFF7FEFF 		bl	chSysHalt
 1252              	.L108:
 1253              		.loc 5 297 0 is_stmt 1 discriminator 1
 1254 0018 019B     		ldr	r3, [sp, #4]
ARM GAS  C:\Users\PCHAUT~1\AppData\Local\Temp\cctXY9od.s 			page 23


 1255 001a 9B68     		ldr	r3, [r3, #8]
 1256 001c 002B     		cmp	r3, #0
 1257 001e 09DB     		blt	.L103
 1258              		.loc 5 297 0 is_stmt 0 discriminator 3
 1259 0020 019B     		ldr	r3, [sp, #4]
 1260 0022 1846     		mov	r0, r3
 1261 0024 FFF7FEFF 		bl	queue_isempty
 1262 0028 0346     		mov	r3, r0
 1263 002a 83F00103 		eor	r3, r3, #1
 1264 002e DBB2     		uxtb	r3, r3
 1265 0030 002B     		cmp	r3, #0
 1266 0032 10D0     		beq	.L104
 1267              	.L103:
 1268              		.loc 5 297 0 discriminator 4
 1269 0034 019B     		ldr	r3, [sp, #4]
 1270 0036 9B68     		ldr	r3, [r3, #8]
 1271 0038 002B     		cmp	r3, #0
 1272 003a 09DA     		bge	.L105
 1273              		.loc 5 297 0 discriminator 6
 1274 003c 019B     		ldr	r3, [sp, #4]
 1275 003e 1846     		mov	r0, r3
 1276 0040 FFF7FEFF 		bl	queue_notempty
 1277 0044 0346     		mov	r3, r0
 1278 0046 83F00103 		eor	r3, r3, #1
 1279 004a DBB2     		uxtb	r3, r3
 1280 004c 002B     		cmp	r3, #0
 1281 004e 02D0     		beq	.L104
 1282              	.L105:
 1283              		.loc 5 297 0 discriminator 7
 1284 0050 1248     		ldr	r0, .L109+4
 1285 0052 FFF7FEFF 		bl	chSysHalt
 1286              	.L104:
 1287              		.loc 5 301 0 is_stmt 1
 1288 0056 FFF7FEFF 		bl	chSysLock
 1289              		.loc 5 302 0
 1290 005a 019B     		ldr	r3, [sp, #4]
 1291 005c 9B68     		ldr	r3, [r3, #8]
 1292 005e 5A1C     		adds	r2, r3, #1
 1293 0060 019B     		ldr	r3, [sp, #4]
 1294 0062 9A60     		str	r2, [r3, #8]
 1295 0064 019B     		ldr	r3, [sp, #4]
 1296 0066 9B68     		ldr	r3, [r3, #8]
 1297 0068 002B     		cmp	r3, #0
 1298 006a 08DC     		bgt	.L106
 1299              		.loc 5 303 0
 1300 006c 019B     		ldr	r3, [sp, #4]
 1301 006e 1846     		mov	r0, r3
 1302 0070 FFF7FEFF 		bl	queue_fifo_remove
 1303 0074 0346     		mov	r3, r0
 1304 0076 0021     		movs	r1, #0
 1305 0078 1846     		mov	r0, r3
 1306 007a FFF7FEFF 		bl	chSchWakeupS
 1307              	.L106:
 1308              		.loc 5 305 0
 1309 007e FFF7FEFF 		bl	chSysUnlock
 1310              		.loc 5 306 0
 1311 0082 00BF     		nop
ARM GAS  C:\Users\PCHAUT~1\AppData\Local\Temp\cctXY9od.s 			page 24


 1312 0084 044B     		ldr	r3, .L109
 1313 0086 039A     		ldr	r2, [sp, #12]
 1314 0088 1B68     		ldr	r3, [r3]
 1315 008a 9A42     		cmp	r2, r3
 1316 008c 01D0     		beq	.L107
 1317 008e FFF7FEFF 		bl	__stack_chk_fail
 1318              	.L107:
 1319 0092 05B0     		add	sp, sp, #20
 1320              		.cfi_def_cfa_offset 4
 1321              		@ sp needed
 1322 0094 5DF804FB 		ldr	pc, [sp], #4
 1323              	.L110:
 1324              		.align	2
 1325              	.L109:
 1326 0098 00000000 		.word	__stack_chk_guard
 1327 009c 00000000 		.word	__func__.7885
 1328              		.cfi_endproc
 1329              	.LFE226:
 1330              		.size	chSemSignal, .-chSemSignal
 1331              		.section	.text.chSemSignalI,"ax",%progbits
 1332              		.align	1
 1333              		.p2align 4,,15
 1334              		.global	chSemSignalI
 1335              		.syntax unified
 1336              		.thumb
 1337              		.thumb_func
 1338              		.fpu fpv4-sp-d16
 1339              		.type	chSemSignalI, %function
 1340              	chSemSignalI:
 1341              	.LFB227:
 1342              		.loc 5 319 0
 1343              		.cfi_startproc
 1344              		@ args = 0, pretend = 0, frame = 16
 1345              		@ frame_needed = 0, uses_anonymous_args = 0
 1346 0000 00B5     		push	{lr}
 1347              		.cfi_def_cfa_offset 4
 1348              		.cfi_offset 14, -4
 1349 0002 85B0     		sub	sp, sp, #20
 1350              		.cfi_def_cfa_offset 24
 1351 0004 0190     		str	r0, [sp, #4]
 1352              		.loc 5 319 0
 1353 0006 244B     		ldr	r3, .L120
 1354 0008 1B68     		ldr	r3, [r3]
 1355 000a 0393     		str	r3, [sp, #12]
 1356              		.loc 5 321 0
 1357 000c FFF7FEFF 		bl	chDbgCheckClassI
 1358              		.loc 5 322 0
 1359 0010 019B     		ldr	r3, [sp, #4]
 1360 0012 002B     		cmp	r3, #0
 1361 0014 02D1     		bne	.L118
 1362              		.loc 5 322 0 is_stmt 0 discriminator 2
 1363 0016 2148     		ldr	r0, .L120+4
 1364 0018 FFF7FEFF 		bl	chSysHalt
 1365              	.L118:
 1366              		.loc 5 323 0 is_stmt 1 discriminator 1
 1367 001c 019B     		ldr	r3, [sp, #4]
 1368 001e 9B68     		ldr	r3, [r3, #8]
ARM GAS  C:\Users\PCHAUT~1\AppData\Local\Temp\cctXY9od.s 			page 25


 1369 0020 002B     		cmp	r3, #0
 1370 0022 09DB     		blt	.L113
 1371              		.loc 5 323 0 is_stmt 0 discriminator 3
 1372 0024 019B     		ldr	r3, [sp, #4]
 1373 0026 1846     		mov	r0, r3
 1374 0028 FFF7FEFF 		bl	queue_isempty
 1375 002c 0346     		mov	r3, r0
 1376 002e 83F00103 		eor	r3, r3, #1
 1377 0032 DBB2     		uxtb	r3, r3
 1378 0034 002B     		cmp	r3, #0
 1379 0036 10D0     		beq	.L114
 1380              	.L113:
 1381              		.loc 5 323 0 discriminator 4
 1382 0038 019B     		ldr	r3, [sp, #4]
 1383 003a 9B68     		ldr	r3, [r3, #8]
 1384 003c 002B     		cmp	r3, #0
 1385 003e 09DA     		bge	.L115
 1386              		.loc 5 323 0 discriminator 6
 1387 0040 019B     		ldr	r3, [sp, #4]
 1388 0042 1846     		mov	r0, r3
 1389 0044 FFF7FEFF 		bl	queue_notempty
 1390 0048 0346     		mov	r3, r0
 1391 004a 83F00103 		eor	r3, r3, #1
 1392 004e DBB2     		uxtb	r3, r3
 1393 0050 002B     		cmp	r3, #0
 1394 0052 02D0     		beq	.L114
 1395              	.L115:
 1396              		.loc 5 323 0 discriminator 7
 1397 0054 1148     		ldr	r0, .L120+4
 1398 0056 FFF7FEFF 		bl	chSysHalt
 1399              	.L114:
 1400              		.loc 5 327 0 is_stmt 1
 1401 005a 019B     		ldr	r3, [sp, #4]
 1402 005c 9B68     		ldr	r3, [r3, #8]
 1403 005e 5A1C     		adds	r2, r3, #1
 1404 0060 019B     		ldr	r3, [sp, #4]
 1405 0062 9A60     		str	r2, [r3, #8]
 1406 0064 019B     		ldr	r3, [sp, #4]
 1407 0066 9B68     		ldr	r3, [r3, #8]
 1408 0068 002B     		cmp	r3, #0
 1409 006a 0ADC     		bgt	.L119
 1410              	.LBB10:
 1411              		.loc 5 330 0
 1412 006c 019B     		ldr	r3, [sp, #4]
 1413 006e 1846     		mov	r0, r3
 1414 0070 FFF7FEFF 		bl	queue_fifo_remove
 1415 0074 0290     		str	r0, [sp, #8]
 1416              		.loc 5 331 0
 1417 0076 029B     		ldr	r3, [sp, #8]
 1418 0078 0022     		movs	r2, #0
 1419 007a 9A62     		str	r2, [r3, #40]
 1420              		.loc 5 332 0
 1421 007c 0298     		ldr	r0, [sp, #8]
 1422 007e FFF7FEFF 		bl	chSchReadyI
 1423              	.L119:
 1424              	.LBE10:
 1425              		.loc 5 334 0
ARM GAS  C:\Users\PCHAUT~1\AppData\Local\Temp\cctXY9od.s 			page 26


 1426 0082 00BF     		nop
 1427 0084 044B     		ldr	r3, .L120
 1428 0086 039A     		ldr	r2, [sp, #12]
 1429 0088 1B68     		ldr	r3, [r3]
 1430 008a 9A42     		cmp	r2, r3
 1431 008c 01D0     		beq	.L117
 1432 008e FFF7FEFF 		bl	__stack_chk_fail
 1433              	.L117:
 1434 0092 05B0     		add	sp, sp, #20
 1435              		.cfi_def_cfa_offset 4
 1436              		@ sp needed
 1437 0094 5DF804FB 		ldr	pc, [sp], #4
 1438              	.L121:
 1439              		.align	2
 1440              	.L120:
 1441 0098 00000000 		.word	__stack_chk_guard
 1442 009c 00000000 		.word	__func__.7889
 1443              		.cfi_endproc
 1444              	.LFE227:
 1445              		.size	chSemSignalI, .-chSemSignalI
 1446              		.section	.text.chSemAddCounterI,"ax",%progbits
 1447              		.align	1
 1448              		.p2align 4,,15
 1449              		.global	chSemAddCounterI
 1450              		.syntax unified
 1451              		.thumb
 1452              		.thumb_func
 1453              		.fpu fpv4-sp-d16
 1454              		.type	chSemAddCounterI, %function
 1455              	chSemAddCounterI:
 1456              	.LFB228:
 1457              		.loc 5 349 0
 1458              		.cfi_startproc
 1459              		@ args = 0, pretend = 0, frame = 16
 1460              		@ frame_needed = 0, uses_anonymous_args = 0
 1461 0000 00B5     		push	{lr}
 1462              		.cfi_def_cfa_offset 4
 1463              		.cfi_offset 14, -4
 1464 0002 85B0     		sub	sp, sp, #20
 1465              		.cfi_def_cfa_offset 24
 1466 0004 0190     		str	r0, [sp, #4]
 1467 0006 0091     		str	r1, [sp]
 1468              		.loc 5 349 0
 1469 0008 294B     		ldr	r3, .L133
 1470 000a 1B68     		ldr	r3, [r3]
 1471 000c 0393     		str	r3, [sp, #12]
 1472              		.loc 5 351 0
 1473 000e FFF7FEFF 		bl	chDbgCheckClassI
 1474              		.loc 5 352 0
 1475 0012 019B     		ldr	r3, [sp, #4]
 1476 0014 002B     		cmp	r3, #0
 1477 0016 02D0     		beq	.L123
 1478              		.loc 5 352 0 is_stmt 0 discriminator 3
 1479 0018 009B     		ldr	r3, [sp]
 1480 001a 002B     		cmp	r3, #0
 1481 001c 02DC     		bgt	.L132
 1482              	.L123:
ARM GAS  C:\Users\PCHAUT~1\AppData\Local\Temp\cctXY9od.s 			page 27


 1483              		.loc 5 352 0 discriminator 4
 1484 001e 2548     		ldr	r0, .L133+4
 1485 0020 FFF7FEFF 		bl	chSysHalt
 1486              	.L132:
 1487              		.loc 5 353 0 is_stmt 1 discriminator 1
 1488 0024 019B     		ldr	r3, [sp, #4]
 1489 0026 9B68     		ldr	r3, [r3, #8]
 1490 0028 002B     		cmp	r3, #0
 1491 002a 09DB     		blt	.L125
 1492              		.loc 5 353 0 is_stmt 0 discriminator 3
 1493 002c 019B     		ldr	r3, [sp, #4]
 1494 002e 1846     		mov	r0, r3
 1495 0030 FFF7FEFF 		bl	queue_isempty
 1496 0034 0346     		mov	r3, r0
 1497 0036 83F00103 		eor	r3, r3, #1
 1498 003a DBB2     		uxtb	r3, r3
 1499 003c 002B     		cmp	r3, #0
 1500 003e 28D0     		beq	.L128
 1501              	.L125:
 1502              		.loc 5 353 0 discriminator 4
 1503 0040 019B     		ldr	r3, [sp, #4]
 1504 0042 9B68     		ldr	r3, [r3, #8]
 1505 0044 002B     		cmp	r3, #0
 1506 0046 09DA     		bge	.L127
 1507              		.loc 5 353 0 discriminator 6
 1508 0048 019B     		ldr	r3, [sp, #4]
 1509 004a 1846     		mov	r0, r3
 1510 004c FFF7FEFF 		bl	queue_notempty
 1511 0050 0346     		mov	r3, r0
 1512 0052 83F00103 		eor	r3, r3, #1
 1513 0056 DBB2     		uxtb	r3, r3
 1514 0058 002B     		cmp	r3, #0
 1515 005a 1AD0     		beq	.L128
 1516              	.L127:
 1517              		.loc 5 353 0 discriminator 7
 1518 005c 1548     		ldr	r0, .L133+4
 1519 005e FFF7FEFF 		bl	chSysHalt
 1520              		.loc 5 357 0 is_stmt 1 discriminator 7
 1521 0062 16E0     		b	.L128
 1522              	.L130:
 1523              		.loc 5 358 0
 1524 0064 019B     		ldr	r3, [sp, #4]
 1525 0066 9B68     		ldr	r3, [r3, #8]
 1526 0068 5A1C     		adds	r2, r3, #1
 1527 006a 019B     		ldr	r3, [sp, #4]
 1528 006c 9A60     		str	r2, [r3, #8]
 1529 006e 019B     		ldr	r3, [sp, #4]
 1530 0070 9B68     		ldr	r3, [r3, #8]
 1531 0072 002B     		cmp	r3, #0
 1532 0074 0ADC     		bgt	.L129
 1533              		.loc 5 359 0
 1534 0076 019B     		ldr	r3, [sp, #4]
 1535 0078 1846     		mov	r0, r3
 1536 007a FFF7FEFF 		bl	queue_fifo_remove
 1537 007e 0346     		mov	r3, r0
 1538 0080 1846     		mov	r0, r3
 1539 0082 FFF7FEFF 		bl	chSchReadyI
ARM GAS  C:\Users\PCHAUT~1\AppData\Local\Temp\cctXY9od.s 			page 28


 1540 0086 0246     		mov	r2, r0
 1541 0088 0023     		movs	r3, #0
 1542 008a 9362     		str	r3, [r2, #40]
 1543              	.L129:
 1544              		.loc 5 361 0
 1545 008c 009B     		ldr	r3, [sp]
 1546 008e 013B     		subs	r3, r3, #1
 1547 0090 0093     		str	r3, [sp]
 1548              	.L128:
 1549              		.loc 5 357 0
 1550 0092 009B     		ldr	r3, [sp]
 1551 0094 002B     		cmp	r3, #0
 1552 0096 E5DC     		bgt	.L130
 1553              		.loc 5 363 0
 1554 0098 00BF     		nop
 1555 009a 054B     		ldr	r3, .L133
 1556 009c 039A     		ldr	r2, [sp, #12]
 1557 009e 1B68     		ldr	r3, [r3]
 1558 00a0 9A42     		cmp	r2, r3
 1559 00a2 01D0     		beq	.L131
 1560 00a4 FFF7FEFF 		bl	__stack_chk_fail
 1561              	.L131:
 1562 00a8 05B0     		add	sp, sp, #20
 1563              		.cfi_def_cfa_offset 4
 1564              		@ sp needed
 1565 00aa 5DF804FB 		ldr	pc, [sp], #4
 1566              	.L134:
 1567 00ae 00BF     		.align	2
 1568              	.L133:
 1569 00b0 00000000 		.word	__stack_chk_guard
 1570 00b4 00000000 		.word	__func__.7895
 1571              		.cfi_endproc
 1572              	.LFE228:
 1573              		.size	chSemAddCounterI, .-chSemAddCounterI
 1574              		.section	.text.chSemSignalWait,"ax",%progbits
 1575              		.align	1
 1576              		.p2align 4,,15
 1577              		.global	chSemSignalWait
 1578              		.syntax unified
 1579              		.thumb
 1580              		.thumb_func
 1581              		.fpu fpv4-sp-d16
 1582              		.type	chSemSignalWait, %function
 1583              	chSemSignalWait:
 1584              	.LFB229:
 1585              		.loc 5 378 0
 1586              		.cfi_startproc
 1587              		@ args = 0, pretend = 0, frame = 24
 1588              		@ frame_needed = 0, uses_anonymous_args = 0
 1589 0000 00B5     		push	{lr}
 1590              		.cfi_def_cfa_offset 4
 1591              		.cfi_offset 14, -4
 1592 0002 87B0     		sub	sp, sp, #28
 1593              		.cfi_def_cfa_offset 32
 1594 0004 0190     		str	r0, [sp, #4]
 1595 0006 0091     		str	r1, [sp]
 1596              		.loc 5 378 0
ARM GAS  C:\Users\PCHAUT~1\AppData\Local\Temp\cctXY9od.s 			page 29


 1597 0008 464B     		ldr	r3, .L151
 1598 000a 1B68     		ldr	r3, [r3]
 1599 000c 0593     		str	r3, [sp, #20]
 1600              		.loc 5 381 0
 1601 000e 019B     		ldr	r3, [sp, #4]
 1602 0010 002B     		cmp	r3, #0
 1603 0012 02D0     		beq	.L136
 1604              		.loc 5 381 0 is_stmt 0 discriminator 3
 1605 0014 009B     		ldr	r3, [sp]
 1606 0016 002B     		cmp	r3, #0
 1607 0018 02D1     		bne	.L149
 1608              	.L136:
 1609              		.loc 5 381 0 discriminator 4
 1610 001a 4348     		ldr	r0, .L151+4
 1611 001c FFF7FEFF 		bl	chSysHalt
 1612              	.L149:
 1613              		.loc 5 382 0 is_stmt 1 discriminator 1
 1614 0020 019B     		ldr	r3, [sp, #4]
 1615 0022 9B68     		ldr	r3, [r3, #8]
 1616 0024 002B     		cmp	r3, #0
 1617 0026 09DB     		blt	.L138
 1618              		.loc 5 382 0 is_stmt 0 discriminator 3
 1619 0028 019B     		ldr	r3, [sp, #4]
 1620 002a 1846     		mov	r0, r3
 1621 002c FFF7FEFF 		bl	queue_isempty
 1622 0030 0346     		mov	r3, r0
 1623 0032 83F00103 		eor	r3, r3, #1
 1624 0036 DBB2     		uxtb	r3, r3
 1625 0038 002B     		cmp	r3, #0
 1626 003a 10D0     		beq	.L150
 1627              	.L138:
 1628              		.loc 5 382 0 discriminator 4
 1629 003c 019B     		ldr	r3, [sp, #4]
 1630 003e 9B68     		ldr	r3, [r3, #8]
 1631 0040 002B     		cmp	r3, #0
 1632 0042 09DA     		bge	.L140
 1633              		.loc 5 382 0 discriminator 6
 1634 0044 019B     		ldr	r3, [sp, #4]
 1635 0046 1846     		mov	r0, r3
 1636 0048 FFF7FEFF 		bl	queue_notempty
 1637 004c 0346     		mov	r3, r0
 1638 004e 83F00103 		eor	r3, r3, #1
 1639 0052 DBB2     		uxtb	r3, r3
 1640 0054 002B     		cmp	r3, #0
 1641 0056 02D0     		beq	.L150
 1642              	.L140:
 1643              		.loc 5 382 0 discriminator 7
 1644 0058 3348     		ldr	r0, .L151+4
 1645 005a FFF7FEFF 		bl	chSysHalt
 1646              	.L150:
 1647              		.loc 5 385 0 is_stmt 1 discriminator 1
 1648 005e 009B     		ldr	r3, [sp]
 1649 0060 9B68     		ldr	r3, [r3, #8]
 1650 0062 002B     		cmp	r3, #0
 1651 0064 09DB     		blt	.L141
 1652              		.loc 5 385 0 is_stmt 0 discriminator 3
 1653 0066 009B     		ldr	r3, [sp]
ARM GAS  C:\Users\PCHAUT~1\AppData\Local\Temp\cctXY9od.s 			page 30


 1654 0068 1846     		mov	r0, r3
 1655 006a FFF7FEFF 		bl	queue_isempty
 1656 006e 0346     		mov	r3, r0
 1657 0070 83F00103 		eor	r3, r3, #1
 1658 0074 DBB2     		uxtb	r3, r3
 1659 0076 002B     		cmp	r3, #0
 1660 0078 10D0     		beq	.L142
 1661              	.L141:
 1662              		.loc 5 385 0 discriminator 4
 1663 007a 009B     		ldr	r3, [sp]
 1664 007c 9B68     		ldr	r3, [r3, #8]
 1665 007e 002B     		cmp	r3, #0
 1666 0080 09DA     		bge	.L143
 1667              		.loc 5 385 0 discriminator 6
 1668 0082 009B     		ldr	r3, [sp]
 1669 0084 1846     		mov	r0, r3
 1670 0086 FFF7FEFF 		bl	queue_notempty
 1671 008a 0346     		mov	r3, r0
 1672 008c 83F00103 		eor	r3, r3, #1
 1673 0090 DBB2     		uxtb	r3, r3
 1674 0092 002B     		cmp	r3, #0
 1675 0094 02D0     		beq	.L142
 1676              	.L143:
 1677              		.loc 5 385 0 discriminator 7
 1678 0096 2448     		ldr	r0, .L151+4
 1679 0098 FFF7FEFF 		bl	chSysHalt
 1680              	.L142:
 1681              		.loc 5 389 0 is_stmt 1
 1682 009c FFF7FEFF 		bl	chSysLock
 1683              		.loc 5 390 0
 1684 00a0 019B     		ldr	r3, [sp, #4]
 1685 00a2 9B68     		ldr	r3, [r3, #8]
 1686 00a4 5A1C     		adds	r2, r3, #1
 1687 00a6 019B     		ldr	r3, [sp, #4]
 1688 00a8 9A60     		str	r2, [r3, #8]
 1689 00aa 019B     		ldr	r3, [sp, #4]
 1690 00ac 9B68     		ldr	r3, [r3, #8]
 1691 00ae 002B     		cmp	r3, #0
 1692 00b0 0ADC     		bgt	.L144
 1693              		.loc 5 391 0
 1694 00b2 019B     		ldr	r3, [sp, #4]
 1695 00b4 1846     		mov	r0, r3
 1696 00b6 FFF7FEFF 		bl	queue_fifo_remove
 1697 00ba 0346     		mov	r3, r0
 1698 00bc 1846     		mov	r0, r3
 1699 00be FFF7FEFF 		bl	chSchReadyI
 1700 00c2 0246     		mov	r2, r0
 1701 00c4 0023     		movs	r3, #0
 1702 00c6 9362     		str	r3, [r2, #40]
 1703              	.L144:
 1704              		.loc 5 393 0
 1705 00c8 009B     		ldr	r3, [sp]
 1706 00ca 9B68     		ldr	r3, [r3, #8]
 1707 00cc 5A1E     		subs	r2, r3, #1
 1708 00ce 009B     		ldr	r3, [sp]
 1709 00d0 9A60     		str	r2, [r3, #8]
 1710 00d2 009B     		ldr	r3, [sp]
ARM GAS  C:\Users\PCHAUT~1\AppData\Local\Temp\cctXY9od.s 			page 31


 1711 00d4 9B68     		ldr	r3, [r3, #8]
 1712 00d6 002B     		cmp	r3, #0
 1713 00d8 11DA     		bge	.L145
 1714              	.LBB11:
 1715              		.loc 5 394 0
 1716 00da 144B     		ldr	r3, .L151+8
 1717 00dc 9B69     		ldr	r3, [r3, #24]
 1718 00de 0493     		str	r3, [sp, #16]
 1719              		.loc 5 395 0
 1720 00e0 009B     		ldr	r3, [sp]
 1721 00e2 1946     		mov	r1, r3
 1722 00e4 0498     		ldr	r0, [sp, #16]
 1723 00e6 FFF7FEFF 		bl	queue_insert
 1724              		.loc 5 396 0
 1725 00ea 049B     		ldr	r3, [sp, #16]
 1726 00ec 009A     		ldr	r2, [sp]
 1727 00ee 9A62     		str	r2, [r3, #40]
 1728              		.loc 5 397 0
 1729 00f0 0520     		movs	r0, #5
 1730 00f2 FFF7FEFF 		bl	chSchGoSleepS
 1731              		.loc 5 398 0
 1732 00f6 049B     		ldr	r3, [sp, #16]
 1733 00f8 9B6A     		ldr	r3, [r3, #40]
 1734 00fa 0393     		str	r3, [sp, #12]
 1735              	.LBE11:
 1736 00fc 03E0     		b	.L146
 1737              	.L145:
 1738              		.loc 5 401 0
 1739 00fe FFF7FEFF 		bl	chSchRescheduleS
 1740              		.loc 5 402 0
 1741 0102 0023     		movs	r3, #0
 1742 0104 0393     		str	r3, [sp, #12]
 1743              	.L146:
 1744              		.loc 5 404 0
 1745 0106 FFF7FEFF 		bl	chSysUnlock
 1746              		.loc 5 406 0
 1747 010a 039B     		ldr	r3, [sp, #12]
 1748              		.loc 5 407 0
 1749 010c 1846     		mov	r0, r3
 1750 010e 054B     		ldr	r3, .L151
 1751 0110 059A     		ldr	r2, [sp, #20]
 1752 0112 1B68     		ldr	r3, [r3]
 1753 0114 9A42     		cmp	r2, r3
 1754 0116 01D0     		beq	.L148
 1755 0118 FFF7FEFF 		bl	__stack_chk_fail
 1756              	.L148:
 1757 011c 07B0     		add	sp, sp, #28
 1758              		.cfi_def_cfa_offset 4
 1759              		@ sp needed
 1760 011e 5DF804FB 		ldr	pc, [sp], #4
 1761              	.L152:
 1762 0122 00BF     		.align	2
 1763              	.L151:
 1764 0124 00000000 		.word	__stack_chk_guard
 1765 0128 00000000 		.word	__func__.7904
 1766 012c 00000000 		.word	ch
 1767              		.cfi_endproc
ARM GAS  C:\Users\PCHAUT~1\AppData\Local\Temp\cctXY9od.s 			page 32


 1768              	.LFE229:
 1769              		.size	chSemSignalWait, .-chSemSignalWait
 1770              		.section	.rodata.__func__.7850,"a",%progbits
 1771              		.align	2
 1772              		.type	__func__.7850, %object
 1773              		.size	__func__.7850, 16
 1774              	__func__.7850:
 1775 0000 63685365 		.ascii	"chSemObjectInit\000"
 1775      6D4F626A 
 1775      65637449 
 1775      6E697400 
 1776              		.section	.rodata.__func__.7153,"a",%progbits
 1777              		.align	2
 1778              		.type	__func__.7153, %object
 1779              		.size	__func__.7153, 12
 1780              	__func__.7153:
 1781 0000 63685379 		.ascii	"chSysUnlock\000"
 1781      73556E6C 
 1781      6F636B00 
 1782              		.section	.rodata.__func__.7860,"a",%progbits
 1783              		.align	2
 1784              		.type	__func__.7860, %object
 1785              		.size	__func__.7860, 12
 1786              	__func__.7860:
 1787 0000 63685365 		.ascii	"chSemResetI\000"
 1787      6D526573 
 1787      65744900 
 1788              		.section	.rodata.__func__.7871,"a",%progbits
 1789              		.align	2
 1790              		.type	__func__.7871, %object
 1791              		.size	__func__.7871, 11
 1792              	__func__.7871:
 1793 0000 63685365 		.ascii	"chSemWaitS\000"
 1793      6D576169 
 1793      745300
 1794              		.section	.rodata.__func__.7881,"a",%progbits
 1795              		.align	2
 1796              		.type	__func__.7881, %object
 1797              		.size	__func__.7881, 18
 1798              	__func__.7881:
 1799 0000 63685365 		.ascii	"chSemWaitTimeoutS\000"
 1799      6D576169 
 1799      7454696D 
 1799      656F7574 
 1799      5300
 1800              		.section	.rodata.__func__.7885,"a",%progbits
 1801              		.align	2
 1802              		.type	__func__.7885, %object
 1803              		.size	__func__.7885, 12
 1804              	__func__.7885:
 1805 0000 63685365 		.ascii	"chSemSignal\000"
 1805      6D536967 
 1805      6E616C00 
 1806              		.section	.rodata.__func__.7889,"a",%progbits
 1807              		.align	2
 1808              		.type	__func__.7889, %object
 1809              		.size	__func__.7889, 13
ARM GAS  C:\Users\PCHAUT~1\AppData\Local\Temp\cctXY9od.s 			page 33


 1810              	__func__.7889:
 1811 0000 63685365 		.ascii	"chSemSignalI\000"
 1811      6D536967 
 1811      6E616C49 
 1811      00
 1812              		.section	.rodata.__func__.7895,"a",%progbits
 1813              		.align	2
 1814              		.type	__func__.7895, %object
 1815              		.size	__func__.7895, 17
 1816              	__func__.7895:
 1817 0000 63685365 		.ascii	"chSemAddCounterI\000"
 1817      6D416464 
 1817      436F756E 
 1817      74657249 
 1817      00
 1818              		.section	.rodata.__func__.7904,"a",%progbits
 1819              		.align	2
 1820              		.type	__func__.7904, %object
 1821              		.size	__func__.7904, 16
 1822              	__func__.7904:
 1823 0000 63685365 		.ascii	"chSemSignalWait\000"
 1823      6D536967 
 1823      6E616C57 
 1823      61697400 
 1824              		.text
 1825              	.Letext0:
 1826              		.file 6 "c:\\users\\pchautems\\documents\\robotiquetp\\eclipse_e-puck2\\tools\\gcc-arm-none-eabi-7
 1827              		.file 7 "c:\\users\\pchautems\\documents\\robotiquetp\\eclipse_e-puck2\\tools\\gcc-arm-none-eabi-7
 1828              		.file 8 "../lib/e-puck2_main-processor/ChibiOS//os/rt/ports/ARMCMx/compilers/GCC/chtypes.h"
 1829              		.file 9 "../lib/e-puck2_main-processor/ChibiOS//os/rt/include/chsystypes.h"
 1830              		.file 10 "../lib/e-puck2_main-processor/ChibiOS//os/ext/CMSIS/include/core_cm4.h"
 1831              		.file 11 "../lib/e-puck2_main-processor/ChibiOS//os/ext/CMSIS/ST/system_stm32f4xx.h"
 1832              		.file 12 "../lib/e-puck2_main-processor/ChibiOS//os/rt/ports/ARMCMx/chcore.h"
 1833              		.file 13 "../lib/e-puck2_main-processor/ChibiOS//os/rt/include/chdebug.h"
 1834              		.file 14 "../lib/e-puck2_main-processor/ChibiOS//os/rt/include/chtm.h"
 1835              		.file 15 "../lib/e-puck2_main-processor/ChibiOS//os/rt/include/chstats.h"
 1836              		.file 16 "../lib/e-puck2_main-processor/ChibiOS//os/rt/include/chsem.h"
 1837              		.file 17 "../lib/e-puck2_main-processor/ChibiOS//os/rt/include/chmtx.h"
 1838              		.file 18 "../lib/e-puck2_main-processor/ChibiOS//os/rt/include/chregistry.h"
 1839              		.section	.debug_info,"",%progbits
 1840              	.Ldebug_info0:
 1841 0000 3B0F0000 		.4byte	0xf3b
 1842 0004 0400     		.2byte	0x4
 1843 0006 00000000 		.4byte	.Ldebug_abbrev0
 1844 000a 04       		.byte	0x4
 1845 000b 01       		.uleb128 0x1
 1846 000c E6010000 		.4byte	.LASF180
 1847 0010 0C       		.byte	0xc
 1848 0011 BE030000 		.4byte	.LASF181
 1849 0015 1A070000 		.4byte	.LASF182
 1850 0019 00000000 		.4byte	.Ldebug_ranges0+0
 1851 001d 00000000 		.4byte	0
 1852 0021 00000000 		.4byte	.Ldebug_line0
 1853 0025 02       		.uleb128 0x2
 1854 0026 04       		.byte	0x4
 1855 0027 05       		.byte	0x5
 1856 0028 696E7400 		.ascii	"int\000"
ARM GAS  C:\Users\PCHAUT~1\AppData\Local\Temp\cctXY9od.s 			page 34


 1857 002c 03       		.uleb128 0x3
 1858 002d 04       		.byte	0x4
 1859 002e 07       		.byte	0x7
 1860 002f 27040000 		.4byte	.LASF0
 1861 0033 03       		.uleb128 0x3
 1862 0034 08       		.byte	0x8
 1863 0035 05       		.byte	0x5
 1864 0036 58010000 		.4byte	.LASF1
 1865 003a 03       		.uleb128 0x3
 1866 003b 08       		.byte	0x8
 1867 003c 04       		.byte	0x4
 1868 003d A6050000 		.4byte	.LASF2
 1869 0041 03       		.uleb128 0x3
 1870 0042 01       		.byte	0x1
 1871 0043 06       		.byte	0x6
 1872 0044 66010000 		.4byte	.LASF3
 1873 0048 04       		.uleb128 0x4
 1874 0049 67000000 		.4byte	.LASF6
 1875 004d 06       		.byte	0x6
 1876 004e 2B       		.byte	0x2b
 1877 004f 53000000 		.4byte	0x53
 1878 0053 03       		.uleb128 0x3
 1879 0054 01       		.byte	0x1
 1880 0055 08       		.byte	0x8
 1881 0056 96060000 		.4byte	.LASF4
 1882 005a 03       		.uleb128 0x3
 1883 005b 02       		.byte	0x2
 1884 005c 05       		.byte	0x5
 1885 005d AE060000 		.4byte	.LASF5
 1886 0061 04       		.uleb128 0x4
 1887 0062 00080000 		.4byte	.LASF7
 1888 0066 06       		.byte	0x6
 1889 0067 39       		.byte	0x39
 1890 0068 6C000000 		.4byte	0x6c
 1891 006c 03       		.uleb128 0x3
 1892 006d 02       		.byte	0x2
 1893 006e 07       		.byte	0x7
 1894 006f A8040000 		.4byte	.LASF8
 1895 0073 04       		.uleb128 0x4
 1896 0074 23050000 		.4byte	.LASF9
 1897 0078 06       		.byte	0x6
 1898 0079 4D       		.byte	0x4d
 1899 007a 7E000000 		.4byte	0x7e
 1900 007e 03       		.uleb128 0x3
 1901 007f 04       		.byte	0x4
 1902 0080 05       		.byte	0x5
 1903 0081 DD010000 		.4byte	.LASF10
 1904 0085 04       		.uleb128 0x4
 1905 0086 49080000 		.4byte	.LASF11
 1906 008a 06       		.byte	0x6
 1907 008b 4F       		.byte	0x4f
 1908 008c 90000000 		.4byte	0x90
 1909 0090 03       		.uleb128 0x3
 1910 0091 04       		.byte	0x4
 1911 0092 07       		.byte	0x7
 1912 0093 D0070000 		.4byte	.LASF12
 1913 0097 04       		.uleb128 0x4
ARM GAS  C:\Users\PCHAUT~1\AppData\Local\Temp\cctXY9od.s 			page 35


 1914 0098 2D060000 		.4byte	.LASF13
 1915 009c 06       		.byte	0x6
 1916 009d 69       		.byte	0x69
 1917 009e A2000000 		.4byte	0xa2
 1918 00a2 03       		.uleb128 0x3
 1919 00a3 08       		.byte	0x8
 1920 00a4 07       		.byte	0x7
 1921 00a5 97010000 		.4byte	.LASF14
 1922 00a9 04       		.uleb128 0x4
 1923 00aa D8080000 		.4byte	.LASF15
 1924 00ae 07       		.byte	0x7
 1925 00af 18       		.byte	0x18
 1926 00b0 48000000 		.4byte	0x48
 1927 00b4 04       		.uleb128 0x4
 1928 00b5 4D040000 		.4byte	.LASF16
 1929 00b9 07       		.byte	0x7
 1930 00ba 24       		.byte	0x24
 1931 00bb 61000000 		.4byte	0x61
 1932 00bf 04       		.uleb128 0x4
 1933 00c0 8E060000 		.4byte	.LASF17
 1934 00c4 07       		.byte	0x7
 1935 00c5 2C       		.byte	0x2c
 1936 00c6 73000000 		.4byte	0x73
 1937 00ca 05       		.uleb128 0x5
 1938 00cb BF000000 		.4byte	0xbf
 1939 00cf 04       		.uleb128 0x4
 1940 00d0 9B070000 		.4byte	.LASF18
 1941 00d4 07       		.byte	0x7
 1942 00d5 30       		.byte	0x30
 1943 00d6 85000000 		.4byte	0x85
 1944 00da 04       		.uleb128 0x4
 1945 00db 51000000 		.4byte	.LASF19
 1946 00df 07       		.byte	0x7
 1947 00e0 3C       		.byte	0x3c
 1948 00e1 97000000 		.4byte	0x97
 1949 00e5 04       		.uleb128 0x4
 1950 00e6 87050000 		.4byte	.LASF20
 1951 00ea 08       		.byte	0x8
 1952 00eb 45       		.byte	0x45
 1953 00ec CF000000 		.4byte	0xcf
 1954 00f0 04       		.uleb128 0x4
 1955 00f1 3B010000 		.4byte	.LASF21
 1956 00f5 08       		.byte	0x8
 1957 00f6 46       		.byte	0x46
 1958 00f7 DA000000 		.4byte	0xda
 1959 00fb 04       		.uleb128 0x4
 1960 00fc DF060000 		.4byte	.LASF22
 1961 0100 08       		.byte	0x8
 1962 0101 48       		.byte	0x48
 1963 0102 A9000000 		.4byte	0xa9
 1964 0106 04       		.uleb128 0x4
 1965 0107 2A030000 		.4byte	.LASF23
 1966 010b 08       		.byte	0x8
 1967 010c 49       		.byte	0x49
 1968 010d A9000000 		.4byte	0xa9
 1969 0111 04       		.uleb128 0x4
 1970 0112 43060000 		.4byte	.LASF24
ARM GAS  C:\Users\PCHAUT~1\AppData\Local\Temp\cctXY9od.s 			page 36


 1971 0116 08       		.byte	0x8
 1972 0117 4A       		.byte	0x4a
 1973 0118 A9000000 		.4byte	0xa9
 1974 011c 04       		.uleb128 0x4
 1975 011d C9010000 		.4byte	.LASF25
 1976 0121 08       		.byte	0x8
 1977 0122 4B       		.byte	0x4b
 1978 0123 A9000000 		.4byte	0xa9
 1979 0127 04       		.uleb128 0x4
 1980 0128 77060000 		.4byte	.LASF26
 1981 012c 08       		.byte	0x8
 1982 012d 4C       		.byte	0x4c
 1983 012e CF000000 		.4byte	0xcf
 1984 0132 04       		.uleb128 0x4
 1985 0133 D4040000 		.4byte	.LASF27
 1986 0137 08       		.byte	0x8
 1987 0138 4D       		.byte	0x4d
 1988 0139 BF000000 		.4byte	0xbf
 1989 013d 04       		.uleb128 0x4
 1990 013e 17050000 		.4byte	.LASF28
 1991 0142 08       		.byte	0x8
 1992 0143 4F       		.byte	0x4f
 1993 0144 CF000000 		.4byte	0xcf
 1994 0148 04       		.uleb128 0x4
 1995 0149 16040000 		.4byte	.LASF29
 1996 014d 08       		.byte	0x8
 1997 014e 51       		.byte	0x51
 1998 014f BF000000 		.4byte	0xbf
 1999 0153 04       		.uleb128 0x4
 2000 0154 DF040000 		.4byte	.LASF30
 2001 0158 08       		.byte	0x8
 2002 0159 52       		.byte	0x52
 2003 015a CF000000 		.4byte	0xcf
 2004 015e 04       		.uleb128 0x4
 2005 015f 2B080000 		.4byte	.LASF31
 2006 0163 09       		.byte	0x9
 2007 0164 33       		.byte	0x33
 2008 0165 CF000000 		.4byte	0xcf
 2009 0169 05       		.uleb128 0x5
 2010 016a 5E010000 		.4byte	0x15e
 2011 016e 04       		.uleb128 0x4
 2012 016f 0B080000 		.4byte	.LASF32
 2013 0173 09       		.byte	0x9
 2014 0174 3F       		.byte	0x3f
 2015 0175 79010000 		.4byte	0x179
 2016 0179 06       		.uleb128 0x6
 2017 017a CA040000 		.4byte	.LASF56
 2018 017e 68       		.byte	0x68
 2019 017f 03       		.byte	0x3
 2020 0180 C2       		.byte	0xc2
 2021 0181 97020000 		.4byte	0x297
 2022 0185 07       		.uleb128 0x7
 2023 0186 D8060000 		.4byte	.LASF33
 2024 018a 03       		.byte	0x3
 2025 018b C3       		.byte	0xc3
 2026 018c A2020000 		.4byte	0x2a2
 2027 0190 00       		.byte	0
ARM GAS  C:\Users\PCHAUT~1\AppData\Local\Temp\cctXY9od.s 			page 37


 2028 0191 07       		.uleb128 0x7
 2029 0192 70060000 		.4byte	.LASF34
 2030 0196 03       		.byte	0x3
 2031 0197 C5       		.byte	0xc5
 2032 0198 A2020000 		.4byte	0x2a2
 2033 019c 04       		.byte	0x4
 2034 019d 07       		.uleb128 0x7
 2035 019e 44010000 		.4byte	.LASF35
 2036 01a2 03       		.byte	0x3
 2037 01a3 C7       		.byte	0xc7
 2038 01a4 27010000 		.4byte	0x127
 2039 01a8 08       		.byte	0x8
 2040 01a9 07       		.uleb128 0x7
 2041 01aa F8050000 		.4byte	.LASF36
 2042 01ae 03       		.byte	0x3
 2043 01af C8       		.byte	0xc8
 2044 01b0 20050000 		.4byte	0x520
 2045 01b4 0C       		.byte	0xc
 2046 01b5 07       		.uleb128 0x7
 2047 01b6 52030000 		.4byte	.LASF37
 2048 01ba 03       		.byte	0x3
 2049 01bb CA       		.byte	0xca
 2050 01bc A2020000 		.4byte	0x2a2
 2051 01c0 10       		.byte	0x10
 2052 01c1 07       		.uleb128 0x7
 2053 01c2 EA050000 		.4byte	.LASF38
 2054 01c6 03       		.byte	0x3
 2055 01c7 CB       		.byte	0xcb
 2056 01c8 A2020000 		.4byte	0x2a2
 2057 01cc 14       		.byte	0x14
 2058 01cd 07       		.uleb128 0x7
 2059 01ce FA080000 		.4byte	.LASF39
 2060 01d2 03       		.byte	0x3
 2061 01d3 D2       		.byte	0xd2
 2062 01d4 96080000 		.4byte	0x896
 2063 01d8 18       		.byte	0x18
 2064 01d9 07       		.uleb128 0x7
 2065 01da 1C040000 		.4byte	.LASF40
 2066 01de 03       		.byte	0x3
 2067 01df D8       		.byte	0xd8
 2068 01e0 AD080000 		.4byte	0x8ad
 2069 01e4 1C       		.byte	0x1c
 2070 01e5 07       		.uleb128 0x7
 2071 01e6 B8060000 		.4byte	.LASF41
 2072 01ea 03       		.byte	0x3
 2073 01eb DD       		.byte	0xdd
 2074 01ec 06010000 		.4byte	0x106
 2075 01f0 20       		.byte	0x20
 2076 01f1 07       		.uleb128 0x7
 2077 01f2 F6060000 		.4byte	.LASF42
 2078 01f6 03       		.byte	0x3
 2079 01f7 E1       		.byte	0xe1
 2080 01f8 FB000000 		.4byte	0xfb
 2081 01fc 21       		.byte	0x21
 2082 01fd 07       		.uleb128 0x7
 2083 01fe AE080000 		.4byte	.LASF43
 2084 0202 03       		.byte	0x3
ARM GAS  C:\Users\PCHAUT~1\AppData\Local\Temp\cctXY9od.s 			page 38


 2085 0203 E6       		.byte	0xe6
 2086 0204 11010000 		.4byte	0x111
 2087 0208 22       		.byte	0x22
 2088 0209 07       		.uleb128 0x7
 2089 020a C0060000 		.4byte	.LASF44
 2090 020e 03       		.byte	0x3
 2091 020f EC       		.byte	0xec
 2092 0210 1C010000 		.4byte	0x11c
 2093 0214 23       		.byte	0x23
 2094 0215 07       		.uleb128 0x7
 2095 0216 66040000 		.4byte	.LASF45
 2096 021a 03       		.byte	0x3
 2097 021b F3       		.byte	0xf3
 2098 021c 69010000 		.4byte	0x169
 2099 0220 24       		.byte	0x24
 2100 0221 08       		.uleb128 0x8
 2101 0222 705F7500 		.ascii	"p_u\000"
 2102 0226 03       		.byte	0x3
 2103 0227 3101     		.2byte	0x131
 2104 0229 C5070000 		.4byte	0x7c5
 2105 022d 28       		.byte	0x28
 2106 022e 09       		.uleb128 0x9
 2107 022f 7D050000 		.4byte	.LASF46
 2108 0233 03       		.byte	0x3
 2109 0234 3601     		.2byte	0x136
 2110 0236 A8020000 		.4byte	0x2a8
 2111 023a 2C       		.byte	0x2c
 2112 023b 09       		.uleb128 0x9
 2113 023c 7D040000 		.4byte	.LASF47
 2114 0240 03       		.byte	0x3
 2115 0241 3C01     		.2byte	0x13c
 2116 0243 CC020000 		.4byte	0x2cc
 2117 0247 30       		.byte	0x30
 2118 0248 09       		.uleb128 0x9
 2119 0249 85080000 		.4byte	.LASF48
 2120 024d 03       		.byte	0x3
 2121 024e 4001     		.2byte	0x140
 2122 0250 32010000 		.4byte	0x132
 2123 0254 38       		.byte	0x38
 2124 0255 09       		.uleb128 0x9
 2125 0256 90070000 		.4byte	.LASF49
 2126 025a 03       		.byte	0x3
 2127 025b 4601     		.2byte	0x146
 2128 025d 3D010000 		.4byte	0x13d
 2129 0261 3C       		.byte	0x3c
 2130 0262 09       		.uleb128 0x9
 2131 0263 A4060000 		.4byte	.LASF50
 2132 0267 03       		.byte	0x3
 2133 0268 4D01     		.2byte	0x14d
 2134 026a 90080000 		.4byte	0x890
 2135 026e 40       		.byte	0x40
 2136 026f 09       		.uleb128 0x9
 2137 0270 35080000 		.4byte	.LASF51
 2138 0274 03       		.byte	0x3
 2139 0275 5101     		.2byte	0x151
 2140 0277 27010000 		.4byte	0x127
 2141 027b 44       		.byte	0x44
ARM GAS  C:\Users\PCHAUT~1\AppData\Local\Temp\cctXY9od.s 			page 39


 2142 027c 09       		.uleb128 0x9
 2143 027d 8F010000 		.4byte	.LASF52
 2144 0281 03       		.byte	0x3
 2145 0282 5801     		.2byte	0x158
 2146 0284 84030000 		.4byte	0x384
 2147 0288 48       		.byte	0x48
 2148 0289 09       		.uleb128 0x9
 2149 028a 07070000 		.4byte	.LASF53
 2150 028e 03       		.byte	0x3
 2151 028f 5E01     		.2byte	0x15e
 2152 0291 76070000 		.4byte	0x776
 2153 0295 50       		.byte	0x50
 2154 0296 00       		.byte	0
 2155 0297 04       		.uleb128 0x4
 2156 0298 E0080000 		.4byte	.LASF54
 2157 029c 09       		.byte	0x9
 2158 029d 44       		.byte	0x44
 2159 029e A2020000 		.4byte	0x2a2
 2160 02a2 0A       		.uleb128 0xa
 2161 02a3 04       		.byte	0x4
 2162 02a4 6E010000 		.4byte	0x16e
 2163 02a8 04       		.uleb128 0x4
 2164 02a9 4E050000 		.4byte	.LASF55
 2165 02ad 09       		.byte	0x9
 2166 02ae 49       		.byte	0x49
 2167 02af B3020000 		.4byte	0x2b3
 2168 02b3 06       		.uleb128 0x6
 2169 02b4 B8070000 		.4byte	.LASF57
 2170 02b8 04       		.byte	0x4
 2171 02b9 03       		.byte	0x3
 2172 02ba B0       		.byte	0xb0
 2173 02bb CC020000 		.4byte	0x2cc
 2174 02bf 07       		.uleb128 0x7
 2175 02c0 D8060000 		.4byte	.LASF33
 2176 02c4 03       		.byte	0x3
 2177 02c5 B1       		.byte	0xb1
 2178 02c6 A2020000 		.4byte	0x2a2
 2179 02ca 00       		.byte	0
 2180 02cb 00       		.byte	0
 2181 02cc 04       		.uleb128 0x4
 2182 02cd 55070000 		.4byte	.LASF58
 2183 02d1 09       		.byte	0x9
 2184 02d2 50       		.byte	0x50
 2185 02d3 DC020000 		.4byte	0x2dc
 2186 02d7 0B       		.uleb128 0xb
 2187 02d8 CC020000 		.4byte	0x2cc
 2188 02dc 06       		.uleb128 0x6
 2189 02dd 7D000000 		.4byte	.LASF59
 2190 02e1 08       		.byte	0x8
 2191 02e2 03       		.byte	0x3
 2192 02e3 B7       		.byte	0xb7
 2193 02e4 01030000 		.4byte	0x301
 2194 02e8 07       		.uleb128 0x7
 2195 02e9 D8060000 		.4byte	.LASF33
 2196 02ed 03       		.byte	0x3
 2197 02ee B8       		.byte	0xb8
 2198 02ef A2020000 		.4byte	0x2a2
ARM GAS  C:\Users\PCHAUT~1\AppData\Local\Temp\cctXY9od.s 			page 40


 2199 02f3 00       		.byte	0
 2200 02f4 07       		.uleb128 0x7
 2201 02f5 70060000 		.4byte	.LASF34
 2202 02f9 03       		.byte	0x3
 2203 02fa B9       		.byte	0xb9
 2204 02fb A2020000 		.4byte	0x2a2
 2205 02ff 04       		.byte	0x4
 2206 0300 00       		.byte	0
 2207 0301 04       		.uleb128 0x4
 2208 0302 0D000000 		.4byte	.LASF60
 2209 0306 09       		.byte	0x9
 2210 0307 57       		.byte	0x57
 2211 0308 0C030000 		.4byte	0x30c
 2212 030c 0C       		.uleb128 0xc
 2213 030d 09050000 		.4byte	.LASF61
 2214 0311 1C       		.byte	0x1c
 2215 0312 03       		.byte	0x3
 2216 0313 9001     		.2byte	0x190
 2217 0315 68030000 		.4byte	0x368
 2218 0319 09       		.uleb128 0x9
 2219 031a B0070000 		.4byte	.LASF62
 2220 031e 03       		.byte	0x3
 2221 031f 9101     		.2byte	0x191
 2222 0321 CC020000 		.4byte	0x2cc
 2223 0325 00       		.byte	0
 2224 0326 09       		.uleb128 0x9
 2225 0327 CA060000 		.4byte	.LASF63
 2226 032b 03       		.byte	0x3
 2227 032c 9201     		.2byte	0x192
 2228 032e 27010000 		.4byte	0x127
 2229 0332 08       		.byte	0x8
 2230 0333 09       		.uleb128 0x9
 2231 0334 F2050000 		.4byte	.LASF64
 2232 0338 03       		.byte	0x3
 2233 0339 9401     		.2byte	0x194
 2234 033b 20050000 		.4byte	0x520
 2235 033f 0C       		.byte	0xc
 2236 0340 09       		.uleb128 0x9
 2237 0341 78030000 		.4byte	.LASF65
 2238 0345 03       		.byte	0x3
 2239 0346 9701     		.2byte	0x197
 2240 0348 A2020000 		.4byte	0x2a2
 2241 034c 10       		.byte	0x10
 2242 034d 09       		.uleb128 0x9
 2243 034e 25060000 		.4byte	.LASF66
 2244 0352 03       		.byte	0x3
 2245 0353 9801     		.2byte	0x198
 2246 0355 A2020000 		.4byte	0x2a2
 2247 0359 14       		.byte	0x14
 2248 035a 09       		.uleb128 0x9
 2249 035b 1B060000 		.4byte	.LASF67
 2250 035f 03       		.byte	0x3
 2251 0360 9B01     		.2byte	0x19b
 2252 0362 A2020000 		.4byte	0x2a2
 2253 0366 18       		.byte	0x18
 2254 0367 00       		.byte	0
 2255 0368 04       		.uleb128 0x4
ARM GAS  C:\Users\PCHAUT~1\AppData\Local\Temp\cctXY9od.s 			page 41


 2256 0369 40080000 		.4byte	.LASF68
 2257 036d 09       		.byte	0x9
 2258 036e 5C       		.byte	0x5c
 2259 036f 73030000 		.4byte	0x373
 2260 0373 0A       		.uleb128 0xa
 2261 0374 04       		.byte	0x4
 2262 0375 79030000 		.4byte	0x379
 2263 0379 0D       		.uleb128 0xd
 2264 037a 84030000 		.4byte	0x384
 2265 037e 0E       		.uleb128 0xe
 2266 037f 84030000 		.4byte	0x384
 2267 0383 00       		.byte	0
 2268 0384 0F       		.uleb128 0xf
 2269 0385 04       		.byte	0x4
 2270 0386 04       		.uleb128 0x4
 2271 0387 60060000 		.4byte	.LASF69
 2272 038b 09       		.byte	0x9
 2273 038c 61       		.byte	0x61
 2274 038d 91030000 		.4byte	0x391
 2275 0391 0C       		.uleb128 0xc
 2276 0392 65070000 		.4byte	.LASF70
 2277 0396 14       		.byte	0x14
 2278 0397 03       		.byte	0x3
 2279 0398 6B01     		.2byte	0x16b
 2280 039a E0030000 		.4byte	0x3e0
 2281 039e 09       		.uleb128 0x9
 2282 039f 45040000 		.4byte	.LASF71
 2283 03a3 03       		.byte	0x3
 2284 03a4 6C01     		.2byte	0x16c
 2285 03a6 B3080000 		.4byte	0x8b3
 2286 03aa 00       		.byte	0
 2287 03ab 09       		.uleb128 0x9
 2288 03ac 89030000 		.4byte	.LASF72
 2289 03b0 03       		.byte	0x3
 2290 03b1 6D01     		.2byte	0x16d
 2291 03b3 B3080000 		.4byte	0x8b3
 2292 03b7 04       		.byte	0x4
 2293 03b8 09       		.uleb128 0x9
 2294 03b9 74040000 		.4byte	.LASF73
 2295 03bd 03       		.byte	0x3
 2296 03be 6E01     		.2byte	0x16e
 2297 03c0 5E010000 		.4byte	0x15e
 2298 03c4 08       		.byte	0x8
 2299 03c5 09       		.uleb128 0x9
 2300 03c6 5B090000 		.4byte	.LASF74
 2301 03ca 03       		.byte	0x3
 2302 03cb 6F01     		.2byte	0x16f
 2303 03cd 68030000 		.4byte	0x368
 2304 03d1 0C       		.byte	0xc
 2305 03d2 09       		.uleb128 0x9
 2306 03d3 8B080000 		.4byte	.LASF75
 2307 03d7 03       		.byte	0x3
 2308 03d8 7101     		.2byte	0x171
 2309 03da 84030000 		.4byte	0x384
 2310 03de 10       		.byte	0x10
 2311 03df 00       		.byte	0
 2312 03e0 04       		.uleb128 0x4
ARM GAS  C:\Users\PCHAUT~1\AppData\Local\Temp\cctXY9od.s 			page 42


 2313 03e1 2D050000 		.4byte	.LASF76
 2314 03e5 09       		.byte	0x9
 2315 03e6 66       		.byte	0x66
 2316 03e7 EB030000 		.4byte	0x3eb
 2317 03eb 0C       		.uleb128 0xc
 2318 03ec 8F050000 		.4byte	.LASF77
 2319 03f0 10       		.byte	0x10
 2320 03f1 03       		.byte	0x3
 2321 03f2 7B01     		.2byte	0x17b
 2322 03f4 2D040000 		.4byte	0x42d
 2323 03f8 09       		.uleb128 0x9
 2324 03f9 45040000 		.4byte	.LASF71
 2325 03fd 03       		.byte	0x3
 2326 03fe 7C01     		.2byte	0x17c
 2327 0400 B3080000 		.4byte	0x8b3
 2328 0404 00       		.byte	0
 2329 0405 09       		.uleb128 0x9
 2330 0406 89030000 		.4byte	.LASF72
 2331 040a 03       		.byte	0x3
 2332 040b 7E01     		.2byte	0x17e
 2333 040d B3080000 		.4byte	0x8b3
 2334 0411 04       		.byte	0x4
 2335 0412 09       		.uleb128 0x9
 2336 0413 74040000 		.4byte	.LASF73
 2337 0417 03       		.byte	0x3
 2338 0418 8001     		.2byte	0x180
 2339 041a 5E010000 		.4byte	0x15e
 2340 041e 08       		.byte	0x8
 2341 041f 09       		.uleb128 0x9
 2342 0420 01090000 		.4byte	.LASF78
 2343 0424 03       		.byte	0x3
 2344 0425 8201     		.2byte	0x182
 2345 0427 69010000 		.4byte	0x169
 2346 042b 0C       		.byte	0xc
 2347 042c 00       		.byte	0
 2348 042d 04       		.uleb128 0x4
 2349 042e 8E000000 		.4byte	.LASF79
 2350 0432 09       		.byte	0x9
 2351 0433 6B       		.byte	0x6b
 2352 0434 38040000 		.4byte	0x438
 2353 0438 10       		.uleb128 0x10
 2354 0439 91030000 		.4byte	.LASF80
 2355 043d 1404     		.2byte	0x414
 2356 043f 03       		.byte	0x3
 2357 0440 A201     		.2byte	0x1a2
 2358 0442 7B040000 		.4byte	0x47b
 2359 0446 09       		.uleb128 0x9
 2360 0447 6C080000 		.4byte	.LASF81
 2361 044b 03       		.byte	0x3
 2362 044c AA01     		.2byte	0x1aa
 2363 044e 9C080000 		.4byte	0x89c
 2364 0452 00       		.byte	0
 2365 0453 09       		.uleb128 0x9
 2366 0454 B5080000 		.4byte	.LASF82
 2367 0458 03       		.byte	0x3
 2368 0459 AF01     		.2byte	0x1af
 2369 045b 48010000 		.4byte	0x148
ARM GAS  C:\Users\PCHAUT~1\AppData\Local\Temp\cctXY9od.s 			page 43


 2370 045f 04       		.byte	0x4
 2371 0460 09       		.uleb128 0x9
 2372 0461 B5030000 		.4byte	.LASF83
 2373 0465 03       		.byte	0x3
 2374 0466 B301     		.2byte	0x1b3
 2375 0468 48010000 		.4byte	0x148
 2376 046c 08       		.byte	0x8
 2377 046d 09       		.uleb128 0x9
 2378 046e 0C090000 		.4byte	.LASF84
 2379 0472 03       		.byte	0x3
 2380 0473 B901     		.2byte	0x1b9
 2381 0475 08070000 		.4byte	0x708
 2382 0479 0C       		.byte	0xc
 2383 047a 00       		.byte	0
 2384 047b 04       		.uleb128 0x4
 2385 047c E6040000 		.4byte	.LASF85
 2386 0480 09       		.byte	0x9
 2387 0481 70       		.byte	0x70
 2388 0482 86040000 		.4byte	0x486
 2389 0486 10       		.uleb128 0x10
 2390 0487 D3010000 		.4byte	.LASF86
 2391 048b 7006     		.2byte	0x670
 2392 048d 03       		.byte	0x3
 2393 048e C201     		.2byte	0x1c2
 2394 0490 F3040000 		.4byte	0x4f3
 2395 0494 09       		.uleb128 0x9
 2396 0495 D2080000 		.4byte	.LASF87
 2397 0499 03       		.byte	0x3
 2398 049a C601     		.2byte	0x1c6
 2399 049c 01030000 		.4byte	0x301
 2400 04a0 00       		.byte	0
 2401 04a1 09       		.uleb128 0x9
 2402 04a2 B6010000 		.4byte	.LASF88
 2403 04a6 03       		.byte	0x3
 2404 04a7 CA01     		.2byte	0x1ca
 2405 04a9 E0030000 		.4byte	0x3e0
 2406 04ad 1C       		.byte	0x1c
 2407 04ae 08       		.uleb128 0x8
 2408 04af 64626700 		.ascii	"dbg\000"
 2409 04b3 03       		.byte	0x3
 2410 04b4 CE01     		.2byte	0x1ce
 2411 04b6 2D040000 		.4byte	0x42d
 2412 04ba 2C       		.byte	0x2c
 2413 04bb 11       		.uleb128 0x11
 2414 04bc 12010000 		.4byte	.LASF89
 2415 04c0 03       		.byte	0x3
 2416 04c1 D201     		.2byte	0x1d2
 2417 04c3 6E010000 		.4byte	0x16e
 2418 04c7 4004     		.2byte	0x440
 2419 04c9 12       		.uleb128 0x12
 2420 04ca 746D00   		.ascii	"tm\000"
 2421 04cd 03       		.byte	0x3
 2422 04ce D701     		.2byte	0x1d7
 2423 04d0 28070000 		.4byte	0x728
 2424 04d4 A804     		.2byte	0x4a8
 2425 04d6 11       		.uleb128 0x11
 2426 04d7 5A000000 		.4byte	.LASF90
ARM GAS  C:\Users\PCHAUT~1\AppData\Local\Temp\cctXY9od.s 			page 44


 2427 04db 03       		.byte	0x3
 2428 04dc DD01     		.2byte	0x1dd
 2429 04de BA070000 		.4byte	0x7ba
 2430 04e2 B004     		.2byte	0x4b0
 2431 04e4 11       		.uleb128 0x11
 2432 04e5 F7030000 		.4byte	.LASF91
 2433 04e9 03       		.byte	0x3
 2434 04ea E301     		.2byte	0x1e3
 2435 04ec B9080000 		.4byte	0x8b9
 2436 04f0 E804     		.2byte	0x4e8
 2437 04f2 00       		.byte	0
 2438 04f3 13       		.uleb128 0x13
 2439 04f4 2E010000 		.4byte	.LASF92
 2440 04f8 0A       		.byte	0xa
 2441 04f9 A706     		.2byte	0x6a7
 2442 04fb CA000000 		.4byte	0xca
 2443 04ff 14       		.uleb128 0x14
 2444 0500 56040000 		.4byte	.LASF93
 2445 0504 0B       		.byte	0xb
 2446 0505 4C       		.byte	0x4c
 2447 0506 CF000000 		.4byte	0xcf
 2448 050a 04       		.uleb128 0x4
 2449 050b 80030000 		.4byte	.LASF94
 2450 050f 0C       		.byte	0xc
 2451 0510 65       		.byte	0x65
 2452 0511 84030000 		.4byte	0x384
 2453 0515 04       		.uleb128 0x4
 2454 0516 43050000 		.4byte	.LASF95
 2455 051a 0C       		.byte	0xc
 2456 051b 6D       		.byte	0x6d
 2457 051c DA000000 		.4byte	0xda
 2458 0520 06       		.uleb128 0x6
 2459 0521 7D080000 		.4byte	.LASF96
 2460 0525 04       		.byte	0x4
 2461 0526 0C       		.byte	0xc
 2462 0527 89       		.byte	0x89
 2463 0528 39050000 		.4byte	0x539
 2464 052c 15       		.uleb128 0x15
 2465 052d 72313300 		.ascii	"r13\000"
 2466 0531 0C       		.byte	0xc
 2467 0532 8A       		.byte	0x8a
 2468 0533 7A060000 		.4byte	0x67a
 2469 0537 00       		.byte	0
 2470 0538 00       		.byte	0
 2471 0539 06       		.uleb128 0x6
 2472 053a 71000000 		.4byte	.LASF97
 2473 053e 64       		.byte	0x64
 2474 053f 01       		.byte	0x1
 2475 0540 F4       		.byte	0xf4
 2476 0541 7A060000 		.4byte	0x67a
 2477 0545 15       		.uleb128 0x15
 2478 0546 73313600 		.ascii	"s16\000"
 2479 054a 01       		.byte	0x1
 2480 054b F6       		.byte	0xf6
 2481 054c 0A050000 		.4byte	0x50a
 2482 0550 00       		.byte	0
 2483 0551 15       		.uleb128 0x15
ARM GAS  C:\Users\PCHAUT~1\AppData\Local\Temp\cctXY9od.s 			page 45


 2484 0552 73313700 		.ascii	"s17\000"
 2485 0556 01       		.byte	0x1
 2486 0557 F7       		.byte	0xf7
 2487 0558 0A050000 		.4byte	0x50a
 2488 055c 04       		.byte	0x4
 2489 055d 15       		.uleb128 0x15
 2490 055e 73313800 		.ascii	"s18\000"
 2491 0562 01       		.byte	0x1
 2492 0563 F8       		.byte	0xf8
 2493 0564 0A050000 		.4byte	0x50a
 2494 0568 08       		.byte	0x8
 2495 0569 15       		.uleb128 0x15
 2496 056a 73313900 		.ascii	"s19\000"
 2497 056e 01       		.byte	0x1
 2498 056f F9       		.byte	0xf9
 2499 0570 0A050000 		.4byte	0x50a
 2500 0574 0C       		.byte	0xc
 2501 0575 15       		.uleb128 0x15
 2502 0576 73323000 		.ascii	"s20\000"
 2503 057a 01       		.byte	0x1
 2504 057b FA       		.byte	0xfa
 2505 057c 0A050000 		.4byte	0x50a
 2506 0580 10       		.byte	0x10
 2507 0581 15       		.uleb128 0x15
 2508 0582 73323100 		.ascii	"s21\000"
 2509 0586 01       		.byte	0x1
 2510 0587 FB       		.byte	0xfb
 2511 0588 0A050000 		.4byte	0x50a
 2512 058c 14       		.byte	0x14
 2513 058d 15       		.uleb128 0x15
 2514 058e 73323200 		.ascii	"s22\000"
 2515 0592 01       		.byte	0x1
 2516 0593 FC       		.byte	0xfc
 2517 0594 0A050000 		.4byte	0x50a
 2518 0598 18       		.byte	0x18
 2519 0599 15       		.uleb128 0x15
 2520 059a 73323300 		.ascii	"s23\000"
 2521 059e 01       		.byte	0x1
 2522 059f FD       		.byte	0xfd
 2523 05a0 0A050000 		.4byte	0x50a
 2524 05a4 1C       		.byte	0x1c
 2525 05a5 15       		.uleb128 0x15
 2526 05a6 73323400 		.ascii	"s24\000"
 2527 05aa 01       		.byte	0x1
 2528 05ab FE       		.byte	0xfe
 2529 05ac 0A050000 		.4byte	0x50a
 2530 05b0 20       		.byte	0x20
 2531 05b1 15       		.uleb128 0x15
 2532 05b2 73323500 		.ascii	"s25\000"
 2533 05b6 01       		.byte	0x1
 2534 05b7 FF       		.byte	0xff
 2535 05b8 0A050000 		.4byte	0x50a
 2536 05bc 24       		.byte	0x24
 2537 05bd 08       		.uleb128 0x8
 2538 05be 73323600 		.ascii	"s26\000"
 2539 05c2 01       		.byte	0x1
 2540 05c3 0001     		.2byte	0x100
ARM GAS  C:\Users\PCHAUT~1\AppData\Local\Temp\cctXY9od.s 			page 46


 2541 05c5 0A050000 		.4byte	0x50a
 2542 05c9 28       		.byte	0x28
 2543 05ca 08       		.uleb128 0x8
 2544 05cb 73323700 		.ascii	"s27\000"
 2545 05cf 01       		.byte	0x1
 2546 05d0 0101     		.2byte	0x101
 2547 05d2 0A050000 		.4byte	0x50a
 2548 05d6 2C       		.byte	0x2c
 2549 05d7 08       		.uleb128 0x8
 2550 05d8 73323800 		.ascii	"s28\000"
 2551 05dc 01       		.byte	0x1
 2552 05dd 0201     		.2byte	0x102
 2553 05df 0A050000 		.4byte	0x50a
 2554 05e3 30       		.byte	0x30
 2555 05e4 08       		.uleb128 0x8
 2556 05e5 73323900 		.ascii	"s29\000"
 2557 05e9 01       		.byte	0x1
 2558 05ea 0301     		.2byte	0x103
 2559 05ec 0A050000 		.4byte	0x50a
 2560 05f0 34       		.byte	0x34
 2561 05f1 08       		.uleb128 0x8
 2562 05f2 73333000 		.ascii	"s30\000"
 2563 05f6 01       		.byte	0x1
 2564 05f7 0401     		.2byte	0x104
 2565 05f9 0A050000 		.4byte	0x50a
 2566 05fd 38       		.byte	0x38
 2567 05fe 08       		.uleb128 0x8
 2568 05ff 73333100 		.ascii	"s31\000"
 2569 0603 01       		.byte	0x1
 2570 0604 0501     		.2byte	0x105
 2571 0606 0A050000 		.4byte	0x50a
 2572 060a 3C       		.byte	0x3c
 2573 060b 08       		.uleb128 0x8
 2574 060c 723400   		.ascii	"r4\000"
 2575 060f 01       		.byte	0x1
 2576 0610 0701     		.2byte	0x107
 2577 0612 0A050000 		.4byte	0x50a
 2578 0616 40       		.byte	0x40
 2579 0617 08       		.uleb128 0x8
 2580 0618 723500   		.ascii	"r5\000"
 2581 061b 01       		.byte	0x1
 2582 061c 0801     		.2byte	0x108
 2583 061e 0A050000 		.4byte	0x50a
 2584 0622 44       		.byte	0x44
 2585 0623 08       		.uleb128 0x8
 2586 0624 723600   		.ascii	"r6\000"
 2587 0627 01       		.byte	0x1
 2588 0628 0901     		.2byte	0x109
 2589 062a 0A050000 		.4byte	0x50a
 2590 062e 48       		.byte	0x48
 2591 062f 08       		.uleb128 0x8
 2592 0630 723700   		.ascii	"r7\000"
 2593 0633 01       		.byte	0x1
 2594 0634 0A01     		.2byte	0x10a
 2595 0636 0A050000 		.4byte	0x50a
 2596 063a 4C       		.byte	0x4c
 2597 063b 08       		.uleb128 0x8
ARM GAS  C:\Users\PCHAUT~1\AppData\Local\Temp\cctXY9od.s 			page 47


 2598 063c 723800   		.ascii	"r8\000"
 2599 063f 01       		.byte	0x1
 2600 0640 0B01     		.2byte	0x10b
 2601 0642 0A050000 		.4byte	0x50a
 2602 0646 50       		.byte	0x50
 2603 0647 08       		.uleb128 0x8
 2604 0648 723900   		.ascii	"r9\000"
 2605 064b 01       		.byte	0x1
 2606 064c 0C01     		.2byte	0x10c
 2607 064e 0A050000 		.4byte	0x50a
 2608 0652 54       		.byte	0x54
 2609 0653 08       		.uleb128 0x8
 2610 0654 72313000 		.ascii	"r10\000"
 2611 0658 01       		.byte	0x1
 2612 0659 0D01     		.2byte	0x10d
 2613 065b 0A050000 		.4byte	0x50a
 2614 065f 58       		.byte	0x58
 2615 0660 08       		.uleb128 0x8
 2616 0661 72313100 		.ascii	"r11\000"
 2617 0665 01       		.byte	0x1
 2618 0666 0E01     		.2byte	0x10e
 2619 0668 0A050000 		.4byte	0x50a
 2620 066c 5C       		.byte	0x5c
 2621 066d 08       		.uleb128 0x8
 2622 066e 6C7200   		.ascii	"lr\000"
 2623 0671 01       		.byte	0x1
 2624 0672 0F01     		.2byte	0x10f
 2625 0674 0A050000 		.4byte	0x50a
 2626 0678 60       		.byte	0x60
 2627 0679 00       		.byte	0
 2628 067a 0A       		.uleb128 0xa
 2629 067b 04       		.byte	0x4
 2630 067c 39050000 		.4byte	0x539
 2631 0680 16       		.uleb128 0x16
 2632 0681 10       		.byte	0x10
 2633 0682 0D       		.byte	0xd
 2634 0683 51       		.byte	0x51
 2635 0684 B9060000 		.4byte	0x6b9
 2636 0688 07       		.uleb128 0x7
 2637 0689 92080000 		.4byte	.LASF98
 2638 068d 0D       		.byte	0xd
 2639 068e 55       		.byte	0x55
 2640 068f 5E010000 		.4byte	0x15e
 2641 0693 00       		.byte	0
 2642 0694 07       		.uleb128 0x7
 2643 0695 42030000 		.4byte	.LASF99
 2644 0699 0D       		.byte	0xd
 2645 069a 59       		.byte	0x59
 2646 069b A2020000 		.4byte	0x2a2
 2647 069f 04       		.byte	0x4
 2648 06a0 07       		.uleb128 0x7
 2649 06a1 43090000 		.4byte	.LASF100
 2650 06a5 0D       		.byte	0xd
 2651 06a6 5D       		.byte	0x5d
 2652 06a7 84030000 		.4byte	0x384
 2653 06ab 08       		.byte	0x8
 2654 06ac 07       		.uleb128 0x7
ARM GAS  C:\Users\PCHAUT~1\AppData\Local\Temp\cctXY9od.s 			page 48


 2655 06ad BD080000 		.4byte	.LASF101
 2656 06b1 0D       		.byte	0xd
 2657 06b2 61       		.byte	0x61
 2658 06b3 A9000000 		.4byte	0xa9
 2659 06b7 0C       		.byte	0xc
 2660 06b8 00       		.byte	0
 2661 06b9 04       		.uleb128 0x4
 2662 06ba C5050000 		.4byte	.LASF102
 2663 06be 0D       		.byte	0xd
 2664 06bf 62       		.byte	0x62
 2665 06c0 80060000 		.4byte	0x680
 2666 06c4 17       		.uleb128 0x17
 2667 06c5 0804     		.2byte	0x408
 2668 06c7 0D       		.byte	0xd
 2669 06c8 67       		.byte	0x67
 2670 06c9 F2060000 		.4byte	0x6f2
 2671 06cd 07       		.uleb128 0x7
 2672 06ce 70030000 		.4byte	.LASF103
 2673 06d2 0D       		.byte	0xd
 2674 06d3 6B       		.byte	0x6b
 2675 06d4 2C000000 		.4byte	0x2c
 2676 06d8 00       		.byte	0
 2677 06d9 07       		.uleb128 0x7
 2678 06da BE050000 		.4byte	.LASF104
 2679 06de 0D       		.byte	0xd
 2680 06df 6F       		.byte	0x6f
 2681 06e0 F2060000 		.4byte	0x6f2
 2682 06e4 04       		.byte	0x4
 2683 06e5 07       		.uleb128 0x7
 2684 06e6 4B060000 		.4byte	.LASF105
 2685 06ea 0D       		.byte	0xd
 2686 06eb 73       		.byte	0x73
 2687 06ec F8060000 		.4byte	0x6f8
 2688 06f0 08       		.byte	0x8
 2689 06f1 00       		.byte	0
 2690 06f2 0A       		.uleb128 0xa
 2691 06f3 04       		.byte	0x4
 2692 06f4 B9060000 		.4byte	0x6b9
 2693 06f8 18       		.uleb128 0x18
 2694 06f9 B9060000 		.4byte	0x6b9
 2695 06fd 08070000 		.4byte	0x708
 2696 0701 19       		.uleb128 0x19
 2697 0702 2C000000 		.4byte	0x2c
 2698 0706 3F       		.byte	0x3f
 2699 0707 00       		.byte	0
 2700 0708 04       		.uleb128 0x4
 2701 0709 E9000000 		.4byte	.LASF106
 2702 070d 0D       		.byte	0xd
 2703 070e 74       		.byte	0x74
 2704 070f C4060000 		.4byte	0x6c4
 2705 0713 16       		.uleb128 0x16
 2706 0714 04       		.byte	0x4
 2707 0715 0E       		.byte	0xe
 2708 0716 38       		.byte	0x38
 2709 0717 28070000 		.4byte	0x728
 2710 071b 07       		.uleb128 0x7
 2711 071c 76080000 		.4byte	.LASF107
ARM GAS  C:\Users\PCHAUT~1\AppData\Local\Temp\cctXY9od.s 			page 49


 2712 0720 0E       		.byte	0xe
 2713 0721 3C       		.byte	0x3c
 2714 0722 E5000000 		.4byte	0xe5
 2715 0726 00       		.byte	0
 2716 0727 00       		.byte	0
 2717 0728 04       		.uleb128 0x4
 2718 0729 FE050000 		.4byte	.LASF108
 2719 072d 0E       		.byte	0xe
 2720 072e 3D       		.byte	0x3d
 2721 072f 13070000 		.4byte	0x713
 2722 0733 16       		.uleb128 0x16
 2723 0734 18       		.byte	0x18
 2724 0735 0E       		.byte	0xe
 2725 0736 48       		.byte	0x48
 2726 0737 76070000 		.4byte	0x776
 2727 073b 07       		.uleb128 0x7
 2728 073c 14080000 		.4byte	.LASF109
 2729 0740 0E       		.byte	0xe
 2730 0741 49       		.byte	0x49
 2731 0742 E5000000 		.4byte	0xe5
 2732 0746 00       		.byte	0
 2733 0747 07       		.uleb128 0x7
 2734 0748 B2000000 		.4byte	.LASF110
 2735 074c 0E       		.byte	0xe
 2736 074d 4A       		.byte	0x4a
 2737 074e E5000000 		.4byte	0xe5
 2738 0752 04       		.byte	0x4
 2739 0753 07       		.uleb128 0x7
 2740 0754 DA040000 		.4byte	.LASF111
 2741 0758 0E       		.byte	0xe
 2742 0759 4B       		.byte	0x4b
 2743 075a E5000000 		.4byte	0xe5
 2744 075e 08       		.byte	0x8
 2745 075f 15       		.uleb128 0x15
 2746 0760 6E00     		.ascii	"n\000"
 2747 0762 0E       		.byte	0xe
 2748 0763 4C       		.byte	0x4c
 2749 0764 53010000 		.4byte	0x153
 2750 0768 0C       		.byte	0xc
 2751 0769 07       		.uleb128 0x7
 2752 076a 38060000 		.4byte	.LASF112
 2753 076e 0E       		.byte	0xe
 2754 076f 4D       		.byte	0x4d
 2755 0770 F0000000 		.4byte	0xf0
 2756 0774 10       		.byte	0x10
 2757 0775 00       		.byte	0
 2758 0776 04       		.uleb128 0x4
 2759 0777 CA000000 		.4byte	.LASF113
 2760 077b 0E       		.byte	0xe
 2761 077c 4E       		.byte	0x4e
 2762 077d 33070000 		.4byte	0x733
 2763 0781 16       		.uleb128 0x16
 2764 0782 38       		.byte	0x38
 2765 0783 0F       		.byte	0xf
 2766 0784 38       		.byte	0x38
 2767 0785 BA070000 		.4byte	0x7ba
 2768 0789 07       		.uleb128 0x7
ARM GAS  C:\Users\PCHAUT~1\AppData\Local\Temp\cctXY9od.s 			page 50


 2769 078a 9C040000 		.4byte	.LASF114
 2770 078e 0F       		.byte	0xf
 2771 078f 39       		.byte	0x39
 2772 0790 53010000 		.4byte	0x153
 2773 0794 00       		.byte	0
 2774 0795 07       		.uleb128 0x7
 2775 0796 7F060000 		.4byte	.LASF115
 2776 079a 0F       		.byte	0xf
 2777 079b 3A       		.byte	0x3a
 2778 079c 53010000 		.4byte	0x153
 2779 07a0 04       		.byte	0x4
 2780 07a1 07       		.uleb128 0x7
 2781 07a2 30090000 		.4byte	.LASF116
 2782 07a6 0F       		.byte	0xf
 2783 07a7 3B       		.byte	0x3b
 2784 07a8 76070000 		.4byte	0x776
 2785 07ac 08       		.byte	0x8
 2786 07ad 07       		.uleb128 0x7
 2787 07ae FE040000 		.4byte	.LASF117
 2788 07b2 0F       		.byte	0xf
 2789 07b3 3D       		.byte	0x3d
 2790 07b4 76070000 		.4byte	0x776
 2791 07b8 20       		.byte	0x20
 2792 07b9 00       		.byte	0
 2793 07ba 04       		.uleb128 0x4
 2794 07bb BB040000 		.4byte	.LASF118
 2795 07bf 0F       		.byte	0xf
 2796 07c0 3F       		.byte	0x3f
 2797 07c1 81070000 		.4byte	0x781
 2798 07c5 1A       		.uleb128 0x1a
 2799 07c6 04       		.byte	0x4
 2800 07c7 03       		.byte	0x3
 2801 07c8 FA       		.byte	0xfa
 2802 07c9 22080000 		.4byte	0x822
 2803 07cd 1B       		.uleb128 0x1b
 2804 07ce 3A000000 		.4byte	.LASF119
 2805 07d2 03       		.byte	0x3
 2806 07d3 0101     		.2byte	0x101
 2807 07d5 32010000 		.4byte	0x132
 2808 07d9 1B       		.uleb128 0x1b
 2809 07da 09010000 		.4byte	.LASF120
 2810 07de 03       		.byte	0x3
 2811 07df 0801     		.2byte	0x108
 2812 07e1 32010000 		.4byte	0x132
 2813 07e5 1B       		.uleb128 0x1b
 2814 07e6 F3080000 		.4byte	.LASF121
 2815 07ea 03       		.byte	0x3
 2816 07eb 0F01     		.2byte	0x10f
 2817 07ed 84030000 		.4byte	0x384
 2818 07f1 1B       		.uleb128 0x1b
 2819 07f2 34000000 		.4byte	.LASF122
 2820 07f6 03       		.byte	0x3
 2821 07f7 1601     		.2byte	0x116
 2822 07f9 22080000 		.4byte	0x822
 2823 07fd 1B       		.uleb128 0x1b
 2824 07fe 6D040000 		.4byte	.LASF123
 2825 0802 03       		.byte	0x3
ARM GAS  C:\Users\PCHAUT~1\AppData\Local\Temp\cctXY9od.s 			page 51


 2826 0803 1E01     		.2byte	0x11e
 2827 0805 4D080000 		.4byte	0x84d
 2828 0809 1B       		.uleb128 0x1b
 2829 080a E7070000 		.4byte	.LASF124
 2830 080e 03       		.byte	0x3
 2831 080f 2701     		.2byte	0x127
 2832 0811 90080000 		.4byte	0x890
 2833 0815 1B       		.uleb128 0x1b
 2834 0816 D1060000 		.4byte	.LASF125
 2835 081a 03       		.byte	0x3
 2836 081b 2F01     		.2byte	0x12f
 2837 081d 3D010000 		.4byte	0x13d
 2838 0821 00       		.byte	0
 2839 0822 0A       		.uleb128 0xa
 2840 0823 04       		.byte	0x4
 2841 0824 97020000 		.4byte	0x297
 2842 0828 06       		.uleb128 0x6
 2843 0829 83070000 		.4byte	.LASF126
 2844 082d 0C       		.byte	0xc
 2845 082e 10       		.byte	0x10
 2846 082f 34       		.byte	0x34
 2847 0830 4D080000 		.4byte	0x84d
 2848 0834 07       		.uleb128 0x7
 2849 0835 68030000 		.4byte	.LASF127
 2850 0839 10       		.byte	0x10
 2851 083a 35       		.byte	0x35
 2852 083b CC020000 		.4byte	0x2cc
 2853 083f 00       		.byte	0
 2854 0840 07       		.uleb128 0x7
 2855 0841 A2040000 		.4byte	.LASF128
 2856 0845 10       		.byte	0x10
 2857 0846 37       		.byte	0x37
 2858 0847 48010000 		.4byte	0x148
 2859 084b 08       		.byte	0x8
 2860 084c 00       		.byte	0
 2861 084d 0A       		.uleb128 0xa
 2862 084e 04       		.byte	0x4
 2863 084f 28080000 		.4byte	0x828
 2864 0853 06       		.uleb128 0x6
 2865 0854 A5080000 		.4byte	.LASF129
 2866 0858 14       		.byte	0x14
 2867 0859 11       		.byte	0x11
 2868 085a 39       		.byte	0x39
 2869 085b 90080000 		.4byte	0x890
 2870 085f 07       		.uleb128 0x7
 2871 0860 AE010000 		.4byte	.LASF130
 2872 0864 11       		.byte	0x11
 2873 0865 3A       		.byte	0x3a
 2874 0866 CC020000 		.4byte	0x2cc
 2875 086a 00       		.byte	0
 2876 086b 07       		.uleb128 0x7
 2877 086c 3B090000 		.4byte	.LASF131
 2878 0870 11       		.byte	0x11
 2879 0871 3C       		.byte	0x3c
 2880 0872 A2020000 		.4byte	0x2a2
 2881 0876 08       		.byte	0x8
 2882 0877 07       		.uleb128 0x7
ARM GAS  C:\Users\PCHAUT~1\AppData\Local\Temp\cctXY9od.s 			page 52


 2883 0878 0F060000 		.4byte	.LASF132
 2884 087c 11       		.byte	0x11
 2885 087d 3E       		.byte	0x3e
 2886 087e F6090000 		.4byte	0x9f6
 2887 0882 0C       		.byte	0xc
 2888 0883 07       		.uleb128 0x7
 2889 0884 A1030000 		.4byte	.LASF133
 2890 0888 11       		.byte	0x11
 2891 0889 41       		.byte	0x41
 2892 088a 48010000 		.4byte	0x148
 2893 088e 10       		.byte	0x10
 2894 088f 00       		.byte	0
 2895 0890 0A       		.uleb128 0xa
 2896 0891 04       		.byte	0x4
 2897 0892 53080000 		.4byte	0x853
 2898 0896 0A       		.uleb128 0xa
 2899 0897 04       		.byte	0x4
 2900 0898 A8080000 		.4byte	0x8a8
 2901 089c 05       		.uleb128 0x5
 2902 089d 96080000 		.4byte	0x896
 2903 08a1 03       		.uleb128 0x3
 2904 08a2 01       		.byte	0x1
 2905 08a3 08       		.byte	0x8
 2906 08a4 E2070000 		.4byte	.LASF134
 2907 08a8 0B       		.uleb128 0xb
 2908 08a9 A1080000 		.4byte	0x8a1
 2909 08ad 0A       		.uleb128 0xa
 2910 08ae 04       		.byte	0x4
 2911 08af 15050000 		.4byte	0x515
 2912 08b3 0A       		.uleb128 0xa
 2913 08b4 04       		.byte	0x4
 2914 08b5 86030000 		.4byte	0x386
 2915 08b9 18       		.uleb128 0x18
 2916 08ba 15050000 		.4byte	0x515
 2917 08be C9080000 		.4byte	0x8c9
 2918 08c2 19       		.uleb128 0x19
 2919 08c3 2C000000 		.4byte	0x2c
 2920 08c7 30       		.byte	0x30
 2921 08c8 00       		.byte	0
 2922 08c9 1C       		.uleb128 0x1c
 2923 08ca 636800   		.ascii	"ch\000"
 2924 08cd 03       		.byte	0x3
 2925 08ce 0902     		.2byte	0x209
 2926 08d0 7B040000 		.4byte	0x47b
 2927 08d4 16       		.uleb128 0x16
 2928 08d5 16       		.byte	0x16
 2929 08d6 12       		.byte	0x12
 2930 08d7 34       		.byte	0x34
 2931 08d8 B5090000 		.4byte	0x9b5
 2932 08dc 07       		.uleb128 0x7
 2933 08dd 4D090000 		.4byte	.LASF135
 2934 08e1 12       		.byte	0x12
 2935 08e2 35       		.byte	0x35
 2936 08e3 B5090000 		.4byte	0x9b5
 2937 08e7 00       		.byte	0
 2938 08e8 07       		.uleb128 0x7
 2939 08e9 5D050000 		.4byte	.LASF136
ARM GAS  C:\Users\PCHAUT~1\AppData\Local\Temp\cctXY9od.s 			page 53


 2940 08ed 12       		.byte	0x12
 2941 08ee 36       		.byte	0x36
 2942 08ef A9000000 		.4byte	0xa9
 2943 08f3 04       		.byte	0x4
 2944 08f4 07       		.uleb128 0x7
 2945 08f5 C8070000 		.4byte	.LASF137
 2946 08f9 12       		.byte	0x12
 2947 08fa 37       		.byte	0x37
 2948 08fb A9000000 		.4byte	0xa9
 2949 08ff 05       		.byte	0x5
 2950 0900 07       		.uleb128 0x7
 2951 0901 25090000 		.4byte	.LASF138
 2952 0905 12       		.byte	0x12
 2953 0906 38       		.byte	0x38
 2954 0907 B4000000 		.4byte	0xb4
 2955 090b 06       		.byte	0x6
 2956 090c 07       		.uleb128 0x7
 2957 090d 55060000 		.4byte	.LASF139
 2958 0911 12       		.byte	0x12
 2959 0912 39       		.byte	0x39
 2960 0913 A9000000 		.4byte	0xa9
 2961 0917 08       		.byte	0x8
 2962 0918 07       		.uleb128 0x7
 2963 0919 B2050000 		.4byte	.LASF140
 2964 091d 12       		.byte	0x12
 2965 091e 3A       		.byte	0x3a
 2966 091f A9000000 		.4byte	0xa9
 2967 0923 09       		.byte	0x9
 2968 0924 07       		.uleb128 0x7
 2969 0925 FB000000 		.4byte	.LASF141
 2970 0929 12       		.byte	0x12
 2971 092a 3B       		.byte	0x3b
 2972 092b A9000000 		.4byte	0xa9
 2973 092f 0A       		.byte	0xa
 2974 0930 07       		.uleb128 0x7
 2975 0931 A4070000 		.4byte	.LASF142
 2976 0935 12       		.byte	0x12
 2977 0936 3C       		.byte	0x3c
 2978 0937 A9000000 		.4byte	0xa9
 2979 093b 0B       		.byte	0xb
 2980 093c 07       		.uleb128 0x7
 2981 093d 9A080000 		.4byte	.LASF143
 2982 0941 12       		.byte	0x12
 2983 0942 3D       		.byte	0x3d
 2984 0943 A9000000 		.4byte	0xa9
 2985 0947 0C       		.byte	0xc
 2986 0948 07       		.uleb128 0x7
 2987 0949 76070000 		.4byte	.LASF144
 2988 094d 12       		.byte	0x12
 2989 094e 3E       		.byte	0x3e
 2990 094f A9000000 		.4byte	0xa9
 2991 0953 0D       		.byte	0xd
 2992 0954 07       		.uleb128 0x7
 2993 0955 00000000 		.4byte	.LASF145
 2994 0959 12       		.byte	0x12
 2995 095a 3F       		.byte	0x3f
 2996 095b A9000000 		.4byte	0xa9
ARM GAS  C:\Users\PCHAUT~1\AppData\Local\Temp\cctXY9od.s 			page 54


 2997 095f 0E       		.byte	0xe
 2998 0960 07       		.uleb128 0x7
 2999 0961 D4050000 		.4byte	.LASF146
 3000 0965 12       		.byte	0x12
 3001 0966 40       		.byte	0x40
 3002 0967 A9000000 		.4byte	0xa9
 3003 096b 0F       		.byte	0xf
 3004 096c 07       		.uleb128 0x7
 3005 096d 41000000 		.4byte	.LASF147
 3006 0971 12       		.byte	0x12
 3007 0972 41       		.byte	0x41
 3008 0973 A9000000 		.4byte	0xa9
 3009 0977 10       		.byte	0x10
 3010 0978 07       		.uleb128 0x7
 3011 0979 4B010000 		.4byte	.LASF148
 3012 097d 12       		.byte	0x12
 3013 097e 43       		.byte	0x43
 3014 097f A9000000 		.4byte	0xa9
 3015 0983 11       		.byte	0x11
 3016 0984 07       		.uleb128 0x7
 3017 0985 82010000 		.4byte	.LASF149
 3018 0989 12       		.byte	0x12
 3019 098a 44       		.byte	0x44
 3020 098b A9000000 		.4byte	0xa9
 3021 098f 12       		.byte	0x12
 3022 0990 07       		.uleb128 0x7
 3023 0991 65050000 		.4byte	.LASF150
 3024 0995 12       		.byte	0x12
 3025 0996 45       		.byte	0x45
 3026 0997 A9000000 		.4byte	0xa9
 3027 099b 13       		.byte	0x13
 3028 099c 07       		.uleb128 0x7
 3029 099d E7060000 		.4byte	.LASF151
 3030 09a1 12       		.byte	0x12
 3031 09a2 46       		.byte	0x46
 3032 09a3 A9000000 		.4byte	0xa9
 3033 09a7 14       		.byte	0x14
 3034 09a8 07       		.uleb128 0x7
 3035 09a9 F2040000 		.4byte	.LASF152
 3036 09ad 12       		.byte	0x12
 3037 09ae 48       		.byte	0x48
 3038 09af A9000000 		.4byte	0xa9
 3039 09b3 15       		.byte	0x15
 3040 09b4 00       		.byte	0
 3041 09b5 18       		.uleb128 0x18
 3042 09b6 A1080000 		.4byte	0x8a1
 3043 09ba C5090000 		.4byte	0x9c5
 3044 09be 19       		.uleb128 0x19
 3045 09bf 2C000000 		.4byte	0x2c
 3046 09c3 03       		.byte	0x3
 3047 09c4 00       		.byte	0
 3048 09c5 04       		.uleb128 0x4
 3049 09c6 48030000 		.4byte	.LASF153
 3050 09ca 12       		.byte	0x12
 3051 09cb 49       		.byte	0x49
 3052 09cc D4080000 		.4byte	0x8d4
 3053 09d0 0B       		.uleb128 0xb
ARM GAS  C:\Users\PCHAUT~1\AppData\Local\Temp\cctXY9od.s 			page 55


 3054 09d1 C5090000 		.4byte	0x9c5
 3055 09d5 14       		.uleb128 0x14
 3056 09d6 93040000 		.4byte	.LASF154
 3057 09da 12       		.byte	0x12
 3058 09db 6E       		.byte	0x6e
 3059 09dc D0090000 		.4byte	0x9d0
 3060 09e0 04       		.uleb128 0x4
 3061 09e1 71050000 		.4byte	.LASF155
 3062 09e5 10       		.byte	0x10
 3063 09e6 38       		.byte	0x38
 3064 09e7 28080000 		.4byte	0x828
 3065 09eb 04       		.uleb128 0x4
 3066 09ec A7030000 		.4byte	.LASF156
 3067 09f0 11       		.byte	0x11
 3068 09f1 34       		.byte	0x34
 3069 09f2 53080000 		.4byte	0x853
 3070 09f6 0A       		.uleb128 0xa
 3071 09f7 04       		.byte	0x4
 3072 09f8 EB090000 		.4byte	0x9eb
 3073 09fc 1D       		.uleb128 0x1d
 3074 09fd 72010000 		.4byte	.LASF161
 3075 0a01 05       		.byte	0x5
 3076 0a02 7A01     		.2byte	0x17a
 3077 0a04 32010000 		.4byte	0x132
 3078 0a08 00000000 		.4byte	.LFB229
 3079 0a0c 30010000 		.4byte	.LFE229-.LFB229
 3080 0a10 01       		.uleb128 0x1
 3081 0a11 9C       		.byte	0x9c
 3082 0a12 6C0A0000 		.4byte	0xa6c
 3083 0a16 1E       		.uleb128 0x1e
 3084 0a17 73707300 		.ascii	"sps\000"
 3085 0a1b 05       		.byte	0x5
 3086 0a1c 7A01     		.2byte	0x17a
 3087 0a1e 6C0A0000 		.4byte	0xa6c
 3088 0a22 02       		.uleb128 0x2
 3089 0a23 91       		.byte	0x91
 3090 0a24 64       		.sleb128 -28
 3091 0a25 1E       		.uleb128 0x1e
 3092 0a26 73707700 		.ascii	"spw\000"
 3093 0a2a 05       		.byte	0x5
 3094 0a2b 7A01     		.2byte	0x17a
 3095 0a2d 6C0A0000 		.4byte	0xa6c
 3096 0a31 02       		.uleb128 0x2
 3097 0a32 91       		.byte	0x91
 3098 0a33 60       		.sleb128 -32
 3099 0a34 1F       		.uleb128 0x1f
 3100 0a35 6D736700 		.ascii	"msg\000"
 3101 0a39 05       		.byte	0x5
 3102 0a3a 7B01     		.2byte	0x17b
 3103 0a3c 32010000 		.4byte	0x132
 3104 0a40 02       		.uleb128 0x2
 3105 0a41 91       		.byte	0x91
 3106 0a42 6C       		.sleb128 -20
 3107 0a43 20       		.uleb128 0x20
 3108 0a44 FE060000 		.4byte	.LASF157
 3109 0a48 820A0000 		.4byte	0xa82
 3110 0a4c 05       		.uleb128 0x5
ARM GAS  C:\Users\PCHAUT~1\AppData\Local\Temp\cctXY9od.s 			page 56


 3111 0a4d 03       		.byte	0x3
 3112 0a4e 00000000 		.4byte	__func__.7904
 3113 0a52 21       		.uleb128 0x21
 3114 0a53 DA000000 		.4byte	.LBB11
 3115 0a57 22000000 		.4byte	.LBE11-.LBB11
 3116 0a5b 1F       		.uleb128 0x1f
 3117 0a5c 63747000 		.ascii	"ctp\000"
 3118 0a60 05       		.byte	0x5
 3119 0a61 8A01     		.2byte	0x18a
 3120 0a63 A2020000 		.4byte	0x2a2
 3121 0a67 02       		.uleb128 0x2
 3122 0a68 91       		.byte	0x91
 3123 0a69 70       		.sleb128 -16
 3124 0a6a 00       		.byte	0
 3125 0a6b 00       		.byte	0
 3126 0a6c 0A       		.uleb128 0xa
 3127 0a6d 04       		.byte	0x4
 3128 0a6e E0090000 		.4byte	0x9e0
 3129 0a72 18       		.uleb128 0x18
 3130 0a73 A8080000 		.4byte	0x8a8
 3131 0a77 820A0000 		.4byte	0xa82
 3132 0a7b 19       		.uleb128 0x19
 3133 0a7c 2C000000 		.4byte	0x2c
 3134 0a80 0F       		.byte	0xf
 3135 0a81 00       		.byte	0
 3136 0a82 0B       		.uleb128 0xb
 3137 0a83 720A0000 		.4byte	0xa72
 3138 0a87 22       		.uleb128 0x22
 3139 0a88 1D010000 		.4byte	.LASF158
 3140 0a8c 05       		.byte	0x5
 3141 0a8d 5D01     		.2byte	0x15d
 3142 0a8f 00000000 		.4byte	.LFB228
 3143 0a93 B8000000 		.4byte	.LFE228-.LFB228
 3144 0a97 01       		.uleb128 0x1
 3145 0a98 9C       		.byte	0x9c
 3146 0a99 C80A0000 		.4byte	0xac8
 3147 0a9d 1E       		.uleb128 0x1e
 3148 0a9e 737000   		.ascii	"sp\000"
 3149 0aa1 05       		.byte	0x5
 3150 0aa2 5D01     		.2byte	0x15d
 3151 0aa4 6C0A0000 		.4byte	0xa6c
 3152 0aa8 02       		.uleb128 0x2
 3153 0aa9 91       		.byte	0x91
 3154 0aaa 6C       		.sleb128 -20
 3155 0aab 1E       		.uleb128 0x1e
 3156 0aac 6E00     		.ascii	"n\000"
 3157 0aae 05       		.byte	0x5
 3158 0aaf 5D01     		.2byte	0x15d
 3159 0ab1 48010000 		.4byte	0x148
 3160 0ab5 02       		.uleb128 0x2
 3161 0ab6 91       		.byte	0x91
 3162 0ab7 68       		.sleb128 -24
 3163 0ab8 20       		.uleb128 0x20
 3164 0ab9 FE060000 		.4byte	.LASF157
 3165 0abd D80A0000 		.4byte	0xad8
 3166 0ac1 05       		.uleb128 0x5
 3167 0ac2 03       		.byte	0x3
ARM GAS  C:\Users\PCHAUT~1\AppData\Local\Temp\cctXY9od.s 			page 57


 3168 0ac3 00000000 		.4byte	__func__.7895
 3169 0ac7 00       		.byte	0
 3170 0ac8 18       		.uleb128 0x18
 3171 0ac9 A8080000 		.4byte	0x8a8
 3172 0acd D80A0000 		.4byte	0xad8
 3173 0ad1 19       		.uleb128 0x19
 3174 0ad2 2C000000 		.4byte	0x2c
 3175 0ad6 10       		.byte	0x10
 3176 0ad7 00       		.byte	0
 3177 0ad8 0B       		.uleb128 0xb
 3178 0ad9 C80A0000 		.4byte	0xac8
 3179 0add 22       		.uleb128 0x22
 3180 0ade 27000000 		.4byte	.LASF159
 3181 0ae2 05       		.byte	0x5
 3182 0ae3 3F01     		.2byte	0x13f
 3183 0ae5 00000000 		.4byte	.LFB227
 3184 0ae9 A0000000 		.4byte	.LFE227-.LFB227
 3185 0aed 01       		.uleb128 0x1
 3186 0aee 9C       		.byte	0x9c
 3187 0aef 290B0000 		.4byte	0xb29
 3188 0af3 1E       		.uleb128 0x1e
 3189 0af4 737000   		.ascii	"sp\000"
 3190 0af7 05       		.byte	0x5
 3191 0af8 3F01     		.2byte	0x13f
 3192 0afa 6C0A0000 		.4byte	0xa6c
 3193 0afe 02       		.uleb128 0x2
 3194 0aff 91       		.byte	0x91
 3195 0b00 6C       		.sleb128 -20
 3196 0b01 20       		.uleb128 0x20
 3197 0b02 FE060000 		.4byte	.LASF157
 3198 0b06 390B0000 		.4byte	0xb39
 3199 0b0a 05       		.uleb128 0x5
 3200 0b0b 03       		.byte	0x3
 3201 0b0c 00000000 		.4byte	__func__.7889
 3202 0b10 21       		.uleb128 0x21
 3203 0b11 6C000000 		.4byte	.LBB10
 3204 0b15 16000000 		.4byte	.LBE10-.LBB10
 3205 0b19 1F       		.uleb128 0x1f
 3206 0b1a 747000   		.ascii	"tp\000"
 3207 0b1d 05       		.byte	0x5
 3208 0b1e 4A01     		.2byte	0x14a
 3209 0b20 A2020000 		.4byte	0x2a2
 3210 0b24 02       		.uleb128 0x2
 3211 0b25 91       		.byte	0x91
 3212 0b26 70       		.sleb128 -16
 3213 0b27 00       		.byte	0
 3214 0b28 00       		.byte	0
 3215 0b29 18       		.uleb128 0x18
 3216 0b2a A8080000 		.4byte	0x8a8
 3217 0b2e 390B0000 		.4byte	0xb39
 3218 0b32 19       		.uleb128 0x19
 3219 0b33 2C000000 		.4byte	0x2c
 3220 0b37 0C       		.byte	0xc
 3221 0b38 00       		.byte	0
 3222 0b39 0B       		.uleb128 0xb
 3223 0b3a 290B0000 		.4byte	0xb29
 3224 0b3e 22       		.uleb128 0x22
ARM GAS  C:\Users\PCHAUT~1\AppData\Local\Temp\cctXY9od.s 			page 58


 3225 0b3f DD000000 		.4byte	.LASF160
 3226 0b43 05       		.byte	0x5
 3227 0b44 2601     		.2byte	0x126
 3228 0b46 00000000 		.4byte	.LFB226
 3229 0b4a A0000000 		.4byte	.LFE226-.LFB226
 3230 0b4e 01       		.uleb128 0x1
 3231 0b4f 9C       		.byte	0x9c
 3232 0b50 720B0000 		.4byte	0xb72
 3233 0b54 1E       		.uleb128 0x1e
 3234 0b55 737000   		.ascii	"sp\000"
 3235 0b58 05       		.byte	0x5
 3236 0b59 2601     		.2byte	0x126
 3237 0b5b 6C0A0000 		.4byte	0xa6c
 3238 0b5f 02       		.uleb128 0x2
 3239 0b60 91       		.byte	0x91
 3240 0b61 6C       		.sleb128 -20
 3241 0b62 20       		.uleb128 0x20
 3242 0b63 FE060000 		.4byte	.LASF157
 3243 0b67 820B0000 		.4byte	0xb82
 3244 0b6b 05       		.uleb128 0x5
 3245 0b6c 03       		.byte	0x3
 3246 0b6d 00000000 		.4byte	__func__.7885
 3247 0b71 00       		.byte	0
 3248 0b72 18       		.uleb128 0x18
 3249 0b73 A8080000 		.4byte	0x8a8
 3250 0b77 820B0000 		.4byte	0xb82
 3251 0b7b 19       		.uleb128 0x19
 3252 0b7c 2C000000 		.4byte	0x2c
 3253 0b80 0B       		.byte	0xb
 3254 0b81 00       		.byte	0
 3255 0b82 0B       		.uleb128 0xb
 3256 0b83 720B0000 		.4byte	0xb72
 3257 0b87 1D       		.uleb128 0x1d
 3258 0b88 EE070000 		.4byte	.LASF162
 3259 0b8c 05       		.byte	0x5
 3260 0b8d 0801     		.2byte	0x108
 3261 0b8f 32010000 		.4byte	0x132
 3262 0b93 00000000 		.4byte	.LFB225
 3263 0b97 CC000000 		.4byte	.LFE225-.LFB225
 3264 0b9b 01       		.uleb128 0x1
 3265 0b9c 9C       		.byte	0x9c
 3266 0b9d CE0B0000 		.4byte	0xbce
 3267 0ba1 1E       		.uleb128 0x1e
 3268 0ba2 737000   		.ascii	"sp\000"
 3269 0ba5 05       		.byte	0x5
 3270 0ba6 0801     		.2byte	0x108
 3271 0ba8 6C0A0000 		.4byte	0xa6c
 3272 0bac 02       		.uleb128 0x2
 3273 0bad 91       		.byte	0x91
 3274 0bae 6C       		.sleb128 -20
 3275 0baf 23       		.uleb128 0x23
 3276 0bb0 16060000 		.4byte	.LASF163
 3277 0bb4 05       		.byte	0x5
 3278 0bb5 0801     		.2byte	0x108
 3279 0bb7 5E010000 		.4byte	0x15e
 3280 0bbb 02       		.uleb128 0x2
 3281 0bbc 91       		.byte	0x91
ARM GAS  C:\Users\PCHAUT~1\AppData\Local\Temp\cctXY9od.s 			page 59


 3282 0bbd 68       		.sleb128 -24
 3283 0bbe 20       		.uleb128 0x20
 3284 0bbf FE060000 		.4byte	.LASF157
 3285 0bc3 DE0B0000 		.4byte	0xbde
 3286 0bc7 05       		.uleb128 0x5
 3287 0bc8 03       		.byte	0x3
 3288 0bc9 00000000 		.4byte	__func__.7881
 3289 0bcd 00       		.byte	0
 3290 0bce 18       		.uleb128 0x18
 3291 0bcf A8080000 		.4byte	0x8a8
 3292 0bd3 DE0B0000 		.4byte	0xbde
 3293 0bd7 19       		.uleb128 0x19
 3294 0bd8 2C000000 		.4byte	0x2c
 3295 0bdc 11       		.byte	0x11
 3296 0bdd 00       		.byte	0
 3297 0bde 0B       		.uleb128 0xb
 3298 0bdf CE0B0000 		.4byte	0xbce
 3299 0be3 24       		.uleb128 0x24
 3300 0be4 34040000 		.4byte	.LASF164
 3301 0be8 05       		.byte	0x5
 3302 0be9 EB       		.byte	0xeb
 3303 0bea 32010000 		.4byte	0x132
 3304 0bee 00000000 		.4byte	.LFB224
 3305 0bf2 3C000000 		.4byte	.LFE224-.LFB224
 3306 0bf6 01       		.uleb128 0x1
 3307 0bf7 9C       		.byte	0x9c
 3308 0bf8 260C0000 		.4byte	0xc26
 3309 0bfc 25       		.uleb128 0x25
 3310 0bfd 737000   		.ascii	"sp\000"
 3311 0c00 05       		.byte	0x5
 3312 0c01 EB       		.byte	0xeb
 3313 0c02 6C0A0000 		.4byte	0xa6c
 3314 0c06 02       		.uleb128 0x2
 3315 0c07 91       		.byte	0x91
 3316 0c08 6C       		.sleb128 -20
 3317 0c09 26       		.uleb128 0x26
 3318 0c0a 16060000 		.4byte	.LASF163
 3319 0c0e 05       		.byte	0x5
 3320 0c0f EB       		.byte	0xeb
 3321 0c10 5E010000 		.4byte	0x15e
 3322 0c14 02       		.uleb128 0x2
 3323 0c15 91       		.byte	0x91
 3324 0c16 68       		.sleb128 -24
 3325 0c17 27       		.uleb128 0x27
 3326 0c18 6D736700 		.ascii	"msg\000"
 3327 0c1c 05       		.byte	0x5
 3328 0c1d EC       		.byte	0xec
 3329 0c1e 32010000 		.4byte	0x132
 3330 0c22 02       		.uleb128 0x2
 3331 0c23 91       		.byte	0x91
 3332 0c24 70       		.sleb128 -16
 3333 0c25 00       		.byte	0
 3334 0c26 24       		.uleb128 0x24
 3335 0c27 0F070000 		.4byte	.LASF165
 3336 0c2b 05       		.byte	0x5
 3337 0c2c C5       		.byte	0xc5
 3338 0c2d 32010000 		.4byte	0x132
ARM GAS  C:\Users\PCHAUT~1\AppData\Local\Temp\cctXY9od.s 			page 60


 3339 0c31 00000000 		.4byte	.LFB223
 3340 0c35 B4000000 		.4byte	.LFE223-.LFB223
 3341 0c39 01       		.uleb128 0x1
 3342 0c3a 9C       		.byte	0x9c
 3343 0c3b 5C0C0000 		.4byte	0xc5c
 3344 0c3f 25       		.uleb128 0x25
 3345 0c40 737000   		.ascii	"sp\000"
 3346 0c43 05       		.byte	0x5
 3347 0c44 C5       		.byte	0xc5
 3348 0c45 6C0A0000 		.4byte	0xa6c
 3349 0c49 02       		.uleb128 0x2
 3350 0c4a 91       		.byte	0x91
 3351 0c4b 6C       		.sleb128 -20
 3352 0c4c 20       		.uleb128 0x20
 3353 0c4d FE060000 		.4byte	.LASF157
 3354 0c51 6C0C0000 		.4byte	0xc6c
 3355 0c55 05       		.uleb128 0x5
 3356 0c56 03       		.byte	0x3
 3357 0c57 00000000 		.4byte	__func__.7871
 3358 0c5b 00       		.byte	0
 3359 0c5c 18       		.uleb128 0x18
 3360 0c5d A8080000 		.4byte	0x8a8
 3361 0c61 6C0C0000 		.4byte	0xc6c
 3362 0c65 19       		.uleb128 0x19
 3363 0c66 2C000000 		.4byte	0x2c
 3364 0c6a 0A       		.byte	0xa
 3365 0c6b 00       		.byte	0
 3366 0c6c 0B       		.uleb128 0xb
 3367 0c6d 5C0C0000 		.4byte	0xc5c
 3368 0c71 24       		.uleb128 0x24
 3369 0c72 62080000 		.4byte	.LASF166
 3370 0c76 05       		.byte	0x5
 3371 0c77 AF       		.byte	0xaf
 3372 0c78 32010000 		.4byte	0x132
 3373 0c7c 00000000 		.4byte	.LFB222
 3374 0c80 38000000 		.4byte	.LFE222-.LFB222
 3375 0c84 01       		.uleb128 0x1
 3376 0c85 9C       		.byte	0x9c
 3377 0c86 A60C0000 		.4byte	0xca6
 3378 0c8a 25       		.uleb128 0x25
 3379 0c8b 737000   		.ascii	"sp\000"
 3380 0c8e 05       		.byte	0x5
 3381 0c8f AF       		.byte	0xaf
 3382 0c90 6C0A0000 		.4byte	0xa6c
 3383 0c94 02       		.uleb128 0x2
 3384 0c95 91       		.byte	0x91
 3385 0c96 6C       		.sleb128 -20
 3386 0c97 27       		.uleb128 0x27
 3387 0c98 6D736700 		.ascii	"msg\000"
 3388 0c9c 05       		.byte	0x5
 3389 0c9d B0       		.byte	0xb0
 3390 0c9e 32010000 		.4byte	0x132
 3391 0ca2 02       		.uleb128 0x2
 3392 0ca3 91       		.byte	0x91
 3393 0ca4 70       		.sleb128 -16
 3394 0ca5 00       		.byte	0
 3395 0ca6 28       		.uleb128 0x28
ARM GAS  C:\Users\PCHAUT~1\AppData\Local\Temp\cctXY9od.s 			page 61


 3396 0ca7 C6080000 		.4byte	.LASF167
 3397 0cab 05       		.byte	0x5
 3398 0cac 93       		.byte	0x93
 3399 0cad 00000000 		.4byte	.LFB221
 3400 0cb1 B4000000 		.4byte	.LFE221-.LFB221
 3401 0cb5 01       		.uleb128 0x1
 3402 0cb6 9C       		.byte	0x9c
 3403 0cb7 F20C0000 		.4byte	0xcf2
 3404 0cbb 25       		.uleb128 0x25
 3405 0cbc 737000   		.ascii	"sp\000"
 3406 0cbf 05       		.byte	0x5
 3407 0cc0 93       		.byte	0x93
 3408 0cc1 6C0A0000 		.4byte	0xa6c
 3409 0cc5 02       		.uleb128 0x2
 3410 0cc6 91       		.byte	0x91
 3411 0cc7 6C       		.sleb128 -20
 3412 0cc8 25       		.uleb128 0x25
 3413 0cc9 6E00     		.ascii	"n\000"
 3414 0ccb 05       		.byte	0x5
 3415 0ccc 93       		.byte	0x93
 3416 0ccd 48010000 		.4byte	0x148
 3417 0cd1 02       		.uleb128 0x2
 3418 0cd2 91       		.byte	0x91
 3419 0cd3 68       		.sleb128 -24
 3420 0cd4 27       		.uleb128 0x27
 3421 0cd5 636E7400 		.ascii	"cnt\000"
 3422 0cd9 05       		.byte	0x5
 3423 0cda 94       		.byte	0x94
 3424 0cdb 48010000 		.4byte	0x148
 3425 0cdf 02       		.uleb128 0x2
 3426 0ce0 91       		.byte	0x91
 3427 0ce1 70       		.sleb128 -16
 3428 0ce2 20       		.uleb128 0x20
 3429 0ce3 FE060000 		.4byte	.LASF157
 3430 0ce7 820B0000 		.4byte	0xb82
 3431 0ceb 05       		.uleb128 0x5
 3432 0cec 03       		.byte	0x3
 3433 0ced 00000000 		.4byte	__func__.7860
 3434 0cf1 00       		.byte	0
 3435 0cf2 28       		.uleb128 0x28
 3436 0cf3 88040000 		.4byte	.LASF168
 3437 0cf7 05       		.byte	0x5
 3438 0cf8 78       		.byte	0x78
 3439 0cf9 00000000 		.4byte	.LFB220
 3440 0cfd 3C000000 		.4byte	.LFE220-.LFB220
 3441 0d01 01       		.uleb128 0x1
 3442 0d02 9C       		.byte	0x9c
 3443 0d03 210D0000 		.4byte	0xd21
 3444 0d07 25       		.uleb128 0x25
 3445 0d08 737000   		.ascii	"sp\000"
 3446 0d0b 05       		.byte	0x5
 3447 0d0c 78       		.byte	0x78
 3448 0d0d 6C0A0000 		.4byte	0xa6c
 3449 0d11 02       		.uleb128 0x2
 3450 0d12 91       		.byte	0x91
 3451 0d13 6C       		.sleb128 -20
 3452 0d14 25       		.uleb128 0x25
ARM GAS  C:\Users\PCHAUT~1\AppData\Local\Temp\cctXY9od.s 			page 62


 3453 0d15 6E00     		.ascii	"n\000"
 3454 0d17 05       		.byte	0x5
 3455 0d18 78       		.byte	0x78
 3456 0d19 48010000 		.4byte	0x148
 3457 0d1d 02       		.uleb128 0x2
 3458 0d1e 91       		.byte	0x91
 3459 0d1f 68       		.sleb128 -24
 3460 0d20 00       		.byte	0
 3461 0d21 28       		.uleb128 0x28
 3462 0d22 06040000 		.4byte	.LASF169
 3463 0d26 05       		.byte	0x5
 3464 0d27 61       		.byte	0x61
 3465 0d28 00000000 		.4byte	.LFB219
 3466 0d2c 4C000000 		.4byte	.LFE219-.LFB219
 3467 0d30 01       		.uleb128 0x1
 3468 0d31 9C       		.byte	0x9c
 3469 0d32 5F0D0000 		.4byte	0xd5f
 3470 0d36 25       		.uleb128 0x25
 3471 0d37 737000   		.ascii	"sp\000"
 3472 0d3a 05       		.byte	0x5
 3473 0d3b 61       		.byte	0x61
 3474 0d3c 6C0A0000 		.4byte	0xa6c
 3475 0d40 02       		.uleb128 0x2
 3476 0d41 91       		.byte	0x91
 3477 0d42 6C       		.sleb128 -20
 3478 0d43 25       		.uleb128 0x25
 3479 0d44 6E00     		.ascii	"n\000"
 3480 0d46 05       		.byte	0x5
 3481 0d47 61       		.byte	0x61
 3482 0d48 48010000 		.4byte	0x148
 3483 0d4c 02       		.uleb128 0x2
 3484 0d4d 91       		.byte	0x91
 3485 0d4e 68       		.sleb128 -24
 3486 0d4f 20       		.uleb128 0x20
 3487 0d50 FE060000 		.4byte	.LASF157
 3488 0d54 820A0000 		.4byte	0xa82
 3489 0d58 05       		.uleb128 0x5
 3490 0d59 03       		.byte	0x3
 3491 0d5a 00000000 		.4byte	__func__.7850
 3492 0d5e 00       		.byte	0
 3493 0d5f 29       		.uleb128 0x29
 3494 0d60 19090000 		.4byte	.LASF172
 3495 0d64 04       		.byte	0x4
 3496 0d65 6601     		.2byte	0x166
 3497 0d67 00000000 		.4byte	.LFB146
 3498 0d6b 58000000 		.4byte	.LFE146-.LFB146
 3499 0d6f 01       		.uleb128 0x1
 3500 0d70 9C       		.byte	0x9c
 3501 0d71 850D0000 		.4byte	0xd85
 3502 0d75 20       		.uleb128 0x20
 3503 0d76 FE060000 		.4byte	.LASF157
 3504 0d7a 820B0000 		.4byte	0xb82
 3505 0d7e 05       		.uleb128 0x5
 3506 0d7f 03       		.byte	0x3
 3507 0d80 00000000 		.4byte	__func__.7153
 3508 0d84 00       		.byte	0
 3509 0d85 2A       		.uleb128 0x2a
ARM GAS  C:\Users\PCHAUT~1\AppData\Local\Temp\cctXY9od.s 			page 63


 3510 0d86 E0050000 		.4byte	.LASF183
 3511 0d8a 04       		.byte	0x4
 3512 0d8b 5A01     		.2byte	0x15a
 3513 0d8d 00000000 		.4byte	.LFB145
 3514 0d91 30000000 		.4byte	.LFE145-.LFB145
 3515 0d95 01       		.uleb128 0x1
 3516 0d96 9C       		.byte	0x9c
 3517 0d97 2B       		.uleb128 0x2b
 3518 0d98 B8000000 		.4byte	.LASF170
 3519 0d9c 03       		.byte	0x3
 3520 0d9d A802     		.2byte	0x2a8
 3521 0d9f A2020000 		.4byte	0x2a2
 3522 0da3 00000000 		.4byte	.LFB136
 3523 0da7 40000000 		.4byte	.LFE136-.LFB136
 3524 0dab 01       		.uleb128 0x1
 3525 0dac 9C       		.byte	0x9c
 3526 0dad CF0D0000 		.4byte	0xdcf
 3527 0db1 1E       		.uleb128 0x1e
 3528 0db2 74717000 		.ascii	"tqp\000"
 3529 0db6 03       		.byte	0x3
 3530 0db7 A802     		.2byte	0x2a8
 3531 0db9 CF0D0000 		.4byte	0xdcf
 3532 0dbd 02       		.uleb128 0x2
 3533 0dbe 91       		.byte	0x91
 3534 0dbf 6C       		.sleb128 -20
 3535 0dc0 1F       		.uleb128 0x1f
 3536 0dc1 747000   		.ascii	"tp\000"
 3537 0dc4 03       		.byte	0x3
 3538 0dc5 A902     		.2byte	0x2a9
 3539 0dc7 A2020000 		.4byte	0x2a2
 3540 0dcb 02       		.uleb128 0x2
 3541 0dcc 91       		.byte	0x91
 3542 0dcd 70       		.sleb128 -16
 3543 0dce 00       		.byte	0
 3544 0dcf 0A       		.uleb128 0xa
 3545 0dd0 04       		.byte	0x4
 3546 0dd1 CC020000 		.4byte	0x2cc
 3547 0dd5 2B       		.uleb128 0x2b
 3548 0dd6 19080000 		.4byte	.LASF171
 3549 0dda 03       		.byte	0x3
 3550 0ddb 9F02     		.2byte	0x29f
 3551 0ddd A2020000 		.4byte	0x2a2
 3552 0de1 00000000 		.4byte	.LFB135
 3553 0de5 40000000 		.4byte	.LFE135-.LFB135
 3554 0de9 01       		.uleb128 0x1
 3555 0dea 9C       		.byte	0x9c
 3556 0deb 0D0E0000 		.4byte	0xe0d
 3557 0def 1E       		.uleb128 0x1e
 3558 0df0 74717000 		.ascii	"tqp\000"
 3559 0df4 03       		.byte	0x3
 3560 0df5 9F02     		.2byte	0x29f
 3561 0df7 CF0D0000 		.4byte	0xdcf
 3562 0dfb 02       		.uleb128 0x2
 3563 0dfc 91       		.byte	0x91
 3564 0dfd 6C       		.sleb128 -20
 3565 0dfe 1F       		.uleb128 0x1f
 3566 0dff 747000   		.ascii	"tp\000"
ARM GAS  C:\Users\PCHAUT~1\AppData\Local\Temp\cctXY9od.s 			page 64


 3567 0e02 03       		.byte	0x3
 3568 0e03 A002     		.2byte	0x2a0
 3569 0e05 A2020000 		.4byte	0x2a2
 3570 0e09 02       		.uleb128 0x2
 3571 0e0a 91       		.byte	0x91
 3572 0e0b 70       		.sleb128 -16
 3573 0e0c 00       		.byte	0
 3574 0e0d 29       		.uleb128 0x29
 3575 0e0e 1A000000 		.4byte	.LASF173
 3576 0e12 03       		.byte	0x3
 3577 0e13 9702     		.2byte	0x297
 3578 0e15 00000000 		.4byte	.LFB134
 3579 0e19 44000000 		.4byte	.LFE134-.LFB134
 3580 0e1d 01       		.uleb128 0x1
 3581 0e1e 9C       		.byte	0x9c
 3582 0e1f 410E0000 		.4byte	0xe41
 3583 0e23 1E       		.uleb128 0x1e
 3584 0e24 747000   		.ascii	"tp\000"
 3585 0e27 03       		.byte	0x3
 3586 0e28 9702     		.2byte	0x297
 3587 0e2a A2020000 		.4byte	0x2a2
 3588 0e2e 02       		.uleb128 0x2
 3589 0e2f 91       		.byte	0x91
 3590 0e30 6C       		.sleb128 -20
 3591 0e31 1E       		.uleb128 0x1e
 3592 0e32 74717000 		.ascii	"tqp\000"
 3593 0e36 03       		.byte	0x3
 3594 0e37 9702     		.2byte	0x297
 3595 0e39 CF0D0000 		.4byte	0xdcf
 3596 0e3d 02       		.uleb128 0x2
 3597 0e3e 91       		.byte	0x91
 3598 0e3f 68       		.sleb128 -24
 3599 0e40 00       		.byte	0
 3600 0e41 2B       		.uleb128 0x2b
 3601 0e42 33030000 		.4byte	.LASF174
 3602 0e46 03       		.byte	0x3
 3603 0e47 7502     		.2byte	0x275
 3604 0e49 6B0E0000 		.4byte	0xe6b
 3605 0e4d 00000000 		.4byte	.LFB130
 3606 0e51 38000000 		.4byte	.LFE130-.LFB130
 3607 0e55 01       		.uleb128 0x1
 3608 0e56 9C       		.byte	0x9c
 3609 0e57 6B0E0000 		.4byte	0xe6b
 3610 0e5b 1E       		.uleb128 0x1e
 3611 0e5c 74717000 		.ascii	"tqp\000"
 3612 0e60 03       		.byte	0x3
 3613 0e61 7502     		.2byte	0x275
 3614 0e63 720E0000 		.4byte	0xe72
 3615 0e67 02       		.uleb128 0x2
 3616 0e68 91       		.byte	0x91
 3617 0e69 6C       		.sleb128 -20
 3618 0e6a 00       		.byte	0
 3619 0e6b 03       		.uleb128 0x3
 3620 0e6c 01       		.byte	0x1
 3621 0e6d 02       		.byte	0x2
 3622 0e6e 88060000 		.4byte	.LASF175
 3623 0e72 0A       		.uleb128 0xa
ARM GAS  C:\Users\PCHAUT~1\AppData\Local\Temp\cctXY9od.s 			page 65


 3624 0e73 04       		.byte	0x4
 3625 0e74 D7020000 		.4byte	0x2d7
 3626 0e78 2B       		.uleb128 0x2b
 3627 0e79 5A030000 		.4byte	.LASF176
 3628 0e7d 03       		.byte	0x3
 3629 0e7e 6802     		.2byte	0x268
 3630 0e80 6B0E0000 		.4byte	0xe6b
 3631 0e84 00000000 		.4byte	.LFB129
 3632 0e88 38000000 		.4byte	.LFE129-.LFB129
 3633 0e8c 01       		.uleb128 0x1
 3634 0e8d 9C       		.byte	0x9c
 3635 0e8e A20E0000 		.4byte	0xea2
 3636 0e92 1E       		.uleb128 0x1e
 3637 0e93 74717000 		.ascii	"tqp\000"
 3638 0e97 03       		.byte	0x3
 3639 0e98 6802     		.2byte	0x268
 3640 0e9a 720E0000 		.4byte	0xe72
 3641 0e9e 02       		.uleb128 0x2
 3642 0e9f 91       		.byte	0x91
 3643 0ea0 6C       		.sleb128 -20
 3644 0ea1 00       		.byte	0
 3645 0ea2 29       		.uleb128 0x29
 3646 0ea3 9D000000 		.4byte	.LASF177
 3647 0ea7 03       		.byte	0x3
 3648 0ea8 5A02     		.2byte	0x25a
 3649 0eaa 00000000 		.4byte	.LFB128
 3650 0eae 34000000 		.4byte	.LFE128-.LFB128
 3651 0eb2 01       		.uleb128 0x1
 3652 0eb3 9C       		.byte	0x9c
 3653 0eb4 C80E0000 		.4byte	0xec8
 3654 0eb8 1E       		.uleb128 0x1e
 3655 0eb9 74717000 		.ascii	"tqp\000"
 3656 0ebd 03       		.byte	0x3
 3657 0ebe 5A02     		.2byte	0x25a
 3658 0ec0 CF0D0000 		.4byte	0xdcf
 3659 0ec4 02       		.uleb128 0x2
 3660 0ec5 91       		.byte	0x91
 3661 0ec6 6C       		.sleb128 -20
 3662 0ec7 00       		.byte	0
 3663 0ec8 29       		.uleb128 0x29
 3664 0ec9 BD010000 		.4byte	.LASF178
 3665 0ecd 01       		.byte	0x1
 3666 0ece CA01     		.2byte	0x1ca
 3667 0ed0 00000000 		.4byte	.LFB117
 3668 0ed4 30000000 		.4byte	.LFE117-.LFB117
 3669 0ed8 01       		.uleb128 0x1
 3670 0ed9 9C       		.byte	0x9c
 3671 0eda F80E0000 		.4byte	0xef8
 3672 0ede 2C       		.uleb128 0x2c
 3673 0edf 280F0000 		.4byte	0xf28
 3674 0ee3 0E000000 		.4byte	.LBB8
 3675 0ee7 06000000 		.4byte	.LBE8-.LBB8
 3676 0eeb 01       		.byte	0x1
 3677 0eec CD01     		.2byte	0x1cd
 3678 0eee 2D       		.uleb128 0x2d
 3679 0eef 310F0000 		.4byte	0xf31
 3680 0ef3 02       		.uleb128 0x2
ARM GAS  C:\Users\PCHAUT~1\AppData\Local\Temp\cctXY9od.s 			page 66


 3681 0ef4 91       		.byte	0x91
 3682 0ef5 70       		.sleb128 -16
 3683 0ef6 00       		.byte	0
 3684 0ef7 00       		.byte	0
 3685 0ef8 29       		.uleb128 0x29
 3686 0ef9 A8000000 		.4byte	.LASF179
 3687 0efd 01       		.byte	0x1
 3688 0efe BC01     		.2byte	0x1bc
 3689 0f00 00000000 		.4byte	.LFB116
 3690 0f04 30000000 		.4byte	.LFE116-.LFB116
 3691 0f08 01       		.uleb128 0x1
 3692 0f09 9C       		.byte	0x9c
 3693 0f0a 280F0000 		.4byte	0xf28
 3694 0f0e 2C       		.uleb128 0x2c
 3695 0f0f 280F0000 		.4byte	0xf28
 3696 0f13 0E000000 		.4byte	.LBB6
 3697 0f17 06000000 		.4byte	.LBE6-.LBB6
 3698 0f1b 01       		.byte	0x1
 3699 0f1c BF01     		.2byte	0x1bf
 3700 0f1e 2D       		.uleb128 0x2d
 3701 0f1f 310F0000 		.4byte	0xf31
 3702 0f23 02       		.uleb128 0x2
 3703 0f24 91       		.byte	0x91
 3704 0f25 70       		.sleb128 -16
 3705 0f26 00       		.byte	0
 3706 0f27 00       		.byte	0
 3707 0f28 2E       		.uleb128 0x2e
 3708 0f29 54080000 		.4byte	.LASF184
 3709 0f2d 02       		.byte	0x2
 3710 0f2e 2002     		.2byte	0x220
 3711 0f30 03       		.byte	0x3
 3712 0f31 2F       		.uleb128 0x2f
 3713 0f32 AF030000 		.4byte	.LASF185
 3714 0f36 02       		.byte	0x2
 3715 0f37 2002     		.2byte	0x220
 3716 0f39 CF000000 		.4byte	0xcf
 3717 0f3d 00       		.byte	0
 3718 0f3e 00       		.byte	0
 3719              		.section	.debug_abbrev,"",%progbits
 3720              	.Ldebug_abbrev0:
 3721 0000 01       		.uleb128 0x1
 3722 0001 11       		.uleb128 0x11
 3723 0002 01       		.byte	0x1
 3724 0003 25       		.uleb128 0x25
 3725 0004 0E       		.uleb128 0xe
 3726 0005 13       		.uleb128 0x13
 3727 0006 0B       		.uleb128 0xb
 3728 0007 03       		.uleb128 0x3
 3729 0008 0E       		.uleb128 0xe
 3730 0009 1B       		.uleb128 0x1b
 3731 000a 0E       		.uleb128 0xe
 3732 000b 55       		.uleb128 0x55
 3733 000c 17       		.uleb128 0x17
 3734 000d 11       		.uleb128 0x11
 3735 000e 01       		.uleb128 0x1
 3736 000f 10       		.uleb128 0x10
 3737 0010 17       		.uleb128 0x17
ARM GAS  C:\Users\PCHAUT~1\AppData\Local\Temp\cctXY9od.s 			page 67


 3738 0011 00       		.byte	0
 3739 0012 00       		.byte	0
 3740 0013 02       		.uleb128 0x2
 3741 0014 24       		.uleb128 0x24
 3742 0015 00       		.byte	0
 3743 0016 0B       		.uleb128 0xb
 3744 0017 0B       		.uleb128 0xb
 3745 0018 3E       		.uleb128 0x3e
 3746 0019 0B       		.uleb128 0xb
 3747 001a 03       		.uleb128 0x3
 3748 001b 08       		.uleb128 0x8
 3749 001c 00       		.byte	0
 3750 001d 00       		.byte	0
 3751 001e 03       		.uleb128 0x3
 3752 001f 24       		.uleb128 0x24
 3753 0020 00       		.byte	0
 3754 0021 0B       		.uleb128 0xb
 3755 0022 0B       		.uleb128 0xb
 3756 0023 3E       		.uleb128 0x3e
 3757 0024 0B       		.uleb128 0xb
 3758 0025 03       		.uleb128 0x3
 3759 0026 0E       		.uleb128 0xe
 3760 0027 00       		.byte	0
 3761 0028 00       		.byte	0
 3762 0029 04       		.uleb128 0x4
 3763 002a 16       		.uleb128 0x16
 3764 002b 00       		.byte	0
 3765 002c 03       		.uleb128 0x3
 3766 002d 0E       		.uleb128 0xe
 3767 002e 3A       		.uleb128 0x3a
 3768 002f 0B       		.uleb128 0xb
 3769 0030 3B       		.uleb128 0x3b
 3770 0031 0B       		.uleb128 0xb
 3771 0032 49       		.uleb128 0x49
 3772 0033 13       		.uleb128 0x13
 3773 0034 00       		.byte	0
 3774 0035 00       		.byte	0
 3775 0036 05       		.uleb128 0x5
 3776 0037 35       		.uleb128 0x35
 3777 0038 00       		.byte	0
 3778 0039 49       		.uleb128 0x49
 3779 003a 13       		.uleb128 0x13
 3780 003b 00       		.byte	0
 3781 003c 00       		.byte	0
 3782 003d 06       		.uleb128 0x6
 3783 003e 13       		.uleb128 0x13
 3784 003f 01       		.byte	0x1
 3785 0040 03       		.uleb128 0x3
 3786 0041 0E       		.uleb128 0xe
 3787 0042 0B       		.uleb128 0xb
 3788 0043 0B       		.uleb128 0xb
 3789 0044 3A       		.uleb128 0x3a
 3790 0045 0B       		.uleb128 0xb
 3791 0046 3B       		.uleb128 0x3b
 3792 0047 0B       		.uleb128 0xb
 3793 0048 01       		.uleb128 0x1
 3794 0049 13       		.uleb128 0x13
ARM GAS  C:\Users\PCHAUT~1\AppData\Local\Temp\cctXY9od.s 			page 68


 3795 004a 00       		.byte	0
 3796 004b 00       		.byte	0
 3797 004c 07       		.uleb128 0x7
 3798 004d 0D       		.uleb128 0xd
 3799 004e 00       		.byte	0
 3800 004f 03       		.uleb128 0x3
 3801 0050 0E       		.uleb128 0xe
 3802 0051 3A       		.uleb128 0x3a
 3803 0052 0B       		.uleb128 0xb
 3804 0053 3B       		.uleb128 0x3b
 3805 0054 0B       		.uleb128 0xb
 3806 0055 49       		.uleb128 0x49
 3807 0056 13       		.uleb128 0x13
 3808 0057 38       		.uleb128 0x38
 3809 0058 0B       		.uleb128 0xb
 3810 0059 00       		.byte	0
 3811 005a 00       		.byte	0
 3812 005b 08       		.uleb128 0x8
 3813 005c 0D       		.uleb128 0xd
 3814 005d 00       		.byte	0
 3815 005e 03       		.uleb128 0x3
 3816 005f 08       		.uleb128 0x8
 3817 0060 3A       		.uleb128 0x3a
 3818 0061 0B       		.uleb128 0xb
 3819 0062 3B       		.uleb128 0x3b
 3820 0063 05       		.uleb128 0x5
 3821 0064 49       		.uleb128 0x49
 3822 0065 13       		.uleb128 0x13
 3823 0066 38       		.uleb128 0x38
 3824 0067 0B       		.uleb128 0xb
 3825 0068 00       		.byte	0
 3826 0069 00       		.byte	0
 3827 006a 09       		.uleb128 0x9
 3828 006b 0D       		.uleb128 0xd
 3829 006c 00       		.byte	0
 3830 006d 03       		.uleb128 0x3
 3831 006e 0E       		.uleb128 0xe
 3832 006f 3A       		.uleb128 0x3a
 3833 0070 0B       		.uleb128 0xb
 3834 0071 3B       		.uleb128 0x3b
 3835 0072 05       		.uleb128 0x5
 3836 0073 49       		.uleb128 0x49
 3837 0074 13       		.uleb128 0x13
 3838 0075 38       		.uleb128 0x38
 3839 0076 0B       		.uleb128 0xb
 3840 0077 00       		.byte	0
 3841 0078 00       		.byte	0
 3842 0079 0A       		.uleb128 0xa
 3843 007a 0F       		.uleb128 0xf
 3844 007b 00       		.byte	0
 3845 007c 0B       		.uleb128 0xb
 3846 007d 0B       		.uleb128 0xb
 3847 007e 49       		.uleb128 0x49
 3848 007f 13       		.uleb128 0x13
 3849 0080 00       		.byte	0
 3850 0081 00       		.byte	0
 3851 0082 0B       		.uleb128 0xb
ARM GAS  C:\Users\PCHAUT~1\AppData\Local\Temp\cctXY9od.s 			page 69


 3852 0083 26       		.uleb128 0x26
 3853 0084 00       		.byte	0
 3854 0085 49       		.uleb128 0x49
 3855 0086 13       		.uleb128 0x13
 3856 0087 00       		.byte	0
 3857 0088 00       		.byte	0
 3858 0089 0C       		.uleb128 0xc
 3859 008a 13       		.uleb128 0x13
 3860 008b 01       		.byte	0x1
 3861 008c 03       		.uleb128 0x3
 3862 008d 0E       		.uleb128 0xe
 3863 008e 0B       		.uleb128 0xb
 3864 008f 0B       		.uleb128 0xb
 3865 0090 3A       		.uleb128 0x3a
 3866 0091 0B       		.uleb128 0xb
 3867 0092 3B       		.uleb128 0x3b
 3868 0093 05       		.uleb128 0x5
 3869 0094 01       		.uleb128 0x1
 3870 0095 13       		.uleb128 0x13
 3871 0096 00       		.byte	0
 3872 0097 00       		.byte	0
 3873 0098 0D       		.uleb128 0xd
 3874 0099 15       		.uleb128 0x15
 3875 009a 01       		.byte	0x1
 3876 009b 27       		.uleb128 0x27
 3877 009c 19       		.uleb128 0x19
 3878 009d 01       		.uleb128 0x1
 3879 009e 13       		.uleb128 0x13
 3880 009f 00       		.byte	0
 3881 00a0 00       		.byte	0
 3882 00a1 0E       		.uleb128 0xe
 3883 00a2 05       		.uleb128 0x5
 3884 00a3 00       		.byte	0
 3885 00a4 49       		.uleb128 0x49
 3886 00a5 13       		.uleb128 0x13
 3887 00a6 00       		.byte	0
 3888 00a7 00       		.byte	0
 3889 00a8 0F       		.uleb128 0xf
 3890 00a9 0F       		.uleb128 0xf
 3891 00aa 00       		.byte	0
 3892 00ab 0B       		.uleb128 0xb
 3893 00ac 0B       		.uleb128 0xb
 3894 00ad 00       		.byte	0
 3895 00ae 00       		.byte	0
 3896 00af 10       		.uleb128 0x10
 3897 00b0 13       		.uleb128 0x13
 3898 00b1 01       		.byte	0x1
 3899 00b2 03       		.uleb128 0x3
 3900 00b3 0E       		.uleb128 0xe
 3901 00b4 0B       		.uleb128 0xb
 3902 00b5 05       		.uleb128 0x5
 3903 00b6 3A       		.uleb128 0x3a
 3904 00b7 0B       		.uleb128 0xb
 3905 00b8 3B       		.uleb128 0x3b
 3906 00b9 05       		.uleb128 0x5
 3907 00ba 01       		.uleb128 0x1
 3908 00bb 13       		.uleb128 0x13
ARM GAS  C:\Users\PCHAUT~1\AppData\Local\Temp\cctXY9od.s 			page 70


 3909 00bc 00       		.byte	0
 3910 00bd 00       		.byte	0
 3911 00be 11       		.uleb128 0x11
 3912 00bf 0D       		.uleb128 0xd
 3913 00c0 00       		.byte	0
 3914 00c1 03       		.uleb128 0x3
 3915 00c2 0E       		.uleb128 0xe
 3916 00c3 3A       		.uleb128 0x3a
 3917 00c4 0B       		.uleb128 0xb
 3918 00c5 3B       		.uleb128 0x3b
 3919 00c6 05       		.uleb128 0x5
 3920 00c7 49       		.uleb128 0x49
 3921 00c8 13       		.uleb128 0x13
 3922 00c9 38       		.uleb128 0x38
 3923 00ca 05       		.uleb128 0x5
 3924 00cb 00       		.byte	0
 3925 00cc 00       		.byte	0
 3926 00cd 12       		.uleb128 0x12
 3927 00ce 0D       		.uleb128 0xd
 3928 00cf 00       		.byte	0
 3929 00d0 03       		.uleb128 0x3
 3930 00d1 08       		.uleb128 0x8
 3931 00d2 3A       		.uleb128 0x3a
 3932 00d3 0B       		.uleb128 0xb
 3933 00d4 3B       		.uleb128 0x3b
 3934 00d5 05       		.uleb128 0x5
 3935 00d6 49       		.uleb128 0x49
 3936 00d7 13       		.uleb128 0x13
 3937 00d8 38       		.uleb128 0x38
 3938 00d9 05       		.uleb128 0x5
 3939 00da 00       		.byte	0
 3940 00db 00       		.byte	0
 3941 00dc 13       		.uleb128 0x13
 3942 00dd 34       		.uleb128 0x34
 3943 00de 00       		.byte	0
 3944 00df 03       		.uleb128 0x3
 3945 00e0 0E       		.uleb128 0xe
 3946 00e1 3A       		.uleb128 0x3a
 3947 00e2 0B       		.uleb128 0xb
 3948 00e3 3B       		.uleb128 0x3b
 3949 00e4 05       		.uleb128 0x5
 3950 00e5 49       		.uleb128 0x49
 3951 00e6 13       		.uleb128 0x13
 3952 00e7 3F       		.uleb128 0x3f
 3953 00e8 19       		.uleb128 0x19
 3954 00e9 3C       		.uleb128 0x3c
 3955 00ea 19       		.uleb128 0x19
 3956 00eb 00       		.byte	0
 3957 00ec 00       		.byte	0
 3958 00ed 14       		.uleb128 0x14
 3959 00ee 34       		.uleb128 0x34
 3960 00ef 00       		.byte	0
 3961 00f0 03       		.uleb128 0x3
 3962 00f1 0E       		.uleb128 0xe
 3963 00f2 3A       		.uleb128 0x3a
 3964 00f3 0B       		.uleb128 0xb
 3965 00f4 3B       		.uleb128 0x3b
ARM GAS  C:\Users\PCHAUT~1\AppData\Local\Temp\cctXY9od.s 			page 71


 3966 00f5 0B       		.uleb128 0xb
 3967 00f6 49       		.uleb128 0x49
 3968 00f7 13       		.uleb128 0x13
 3969 00f8 3F       		.uleb128 0x3f
 3970 00f9 19       		.uleb128 0x19
 3971 00fa 3C       		.uleb128 0x3c
 3972 00fb 19       		.uleb128 0x19
 3973 00fc 00       		.byte	0
 3974 00fd 00       		.byte	0
 3975 00fe 15       		.uleb128 0x15
 3976 00ff 0D       		.uleb128 0xd
 3977 0100 00       		.byte	0
 3978 0101 03       		.uleb128 0x3
 3979 0102 08       		.uleb128 0x8
 3980 0103 3A       		.uleb128 0x3a
 3981 0104 0B       		.uleb128 0xb
 3982 0105 3B       		.uleb128 0x3b
 3983 0106 0B       		.uleb128 0xb
 3984 0107 49       		.uleb128 0x49
 3985 0108 13       		.uleb128 0x13
 3986 0109 38       		.uleb128 0x38
 3987 010a 0B       		.uleb128 0xb
 3988 010b 00       		.byte	0
 3989 010c 00       		.byte	0
 3990 010d 16       		.uleb128 0x16
 3991 010e 13       		.uleb128 0x13
 3992 010f 01       		.byte	0x1
 3993 0110 0B       		.uleb128 0xb
 3994 0111 0B       		.uleb128 0xb
 3995 0112 3A       		.uleb128 0x3a
 3996 0113 0B       		.uleb128 0xb
 3997 0114 3B       		.uleb128 0x3b
 3998 0115 0B       		.uleb128 0xb
 3999 0116 01       		.uleb128 0x1
 4000 0117 13       		.uleb128 0x13
 4001 0118 00       		.byte	0
 4002 0119 00       		.byte	0
 4003 011a 17       		.uleb128 0x17
 4004 011b 13       		.uleb128 0x13
 4005 011c 01       		.byte	0x1
 4006 011d 0B       		.uleb128 0xb
 4007 011e 05       		.uleb128 0x5
 4008 011f 3A       		.uleb128 0x3a
 4009 0120 0B       		.uleb128 0xb
 4010 0121 3B       		.uleb128 0x3b
 4011 0122 0B       		.uleb128 0xb
 4012 0123 01       		.uleb128 0x1
 4013 0124 13       		.uleb128 0x13
 4014 0125 00       		.byte	0
 4015 0126 00       		.byte	0
 4016 0127 18       		.uleb128 0x18
 4017 0128 01       		.uleb128 0x1
 4018 0129 01       		.byte	0x1
 4019 012a 49       		.uleb128 0x49
 4020 012b 13       		.uleb128 0x13
 4021 012c 01       		.uleb128 0x1
 4022 012d 13       		.uleb128 0x13
ARM GAS  C:\Users\PCHAUT~1\AppData\Local\Temp\cctXY9od.s 			page 72


 4023 012e 00       		.byte	0
 4024 012f 00       		.byte	0
 4025 0130 19       		.uleb128 0x19
 4026 0131 21       		.uleb128 0x21
 4027 0132 00       		.byte	0
 4028 0133 49       		.uleb128 0x49
 4029 0134 13       		.uleb128 0x13
 4030 0135 2F       		.uleb128 0x2f
 4031 0136 0B       		.uleb128 0xb
 4032 0137 00       		.byte	0
 4033 0138 00       		.byte	0
 4034 0139 1A       		.uleb128 0x1a
 4035 013a 17       		.uleb128 0x17
 4036 013b 01       		.byte	0x1
 4037 013c 0B       		.uleb128 0xb
 4038 013d 0B       		.uleb128 0xb
 4039 013e 3A       		.uleb128 0x3a
 4040 013f 0B       		.uleb128 0xb
 4041 0140 3B       		.uleb128 0x3b
 4042 0141 0B       		.uleb128 0xb
 4043 0142 01       		.uleb128 0x1
 4044 0143 13       		.uleb128 0x13
 4045 0144 00       		.byte	0
 4046 0145 00       		.byte	0
 4047 0146 1B       		.uleb128 0x1b
 4048 0147 0D       		.uleb128 0xd
 4049 0148 00       		.byte	0
 4050 0149 03       		.uleb128 0x3
 4051 014a 0E       		.uleb128 0xe
 4052 014b 3A       		.uleb128 0x3a
 4053 014c 0B       		.uleb128 0xb
 4054 014d 3B       		.uleb128 0x3b
 4055 014e 05       		.uleb128 0x5
 4056 014f 49       		.uleb128 0x49
 4057 0150 13       		.uleb128 0x13
 4058 0151 00       		.byte	0
 4059 0152 00       		.byte	0
 4060 0153 1C       		.uleb128 0x1c
 4061 0154 34       		.uleb128 0x34
 4062 0155 00       		.byte	0
 4063 0156 03       		.uleb128 0x3
 4064 0157 08       		.uleb128 0x8
 4065 0158 3A       		.uleb128 0x3a
 4066 0159 0B       		.uleb128 0xb
 4067 015a 3B       		.uleb128 0x3b
 4068 015b 05       		.uleb128 0x5
 4069 015c 49       		.uleb128 0x49
 4070 015d 13       		.uleb128 0x13
 4071 015e 3F       		.uleb128 0x3f
 4072 015f 19       		.uleb128 0x19
 4073 0160 3C       		.uleb128 0x3c
 4074 0161 19       		.uleb128 0x19
 4075 0162 00       		.byte	0
 4076 0163 00       		.byte	0
 4077 0164 1D       		.uleb128 0x1d
 4078 0165 2E       		.uleb128 0x2e
 4079 0166 01       		.byte	0x1
ARM GAS  C:\Users\PCHAUT~1\AppData\Local\Temp\cctXY9od.s 			page 73


 4080 0167 3F       		.uleb128 0x3f
 4081 0168 19       		.uleb128 0x19
 4082 0169 03       		.uleb128 0x3
 4083 016a 0E       		.uleb128 0xe
 4084 016b 3A       		.uleb128 0x3a
 4085 016c 0B       		.uleb128 0xb
 4086 016d 3B       		.uleb128 0x3b
 4087 016e 05       		.uleb128 0x5
 4088 016f 27       		.uleb128 0x27
 4089 0170 19       		.uleb128 0x19
 4090 0171 49       		.uleb128 0x49
 4091 0172 13       		.uleb128 0x13
 4092 0173 11       		.uleb128 0x11
 4093 0174 01       		.uleb128 0x1
 4094 0175 12       		.uleb128 0x12
 4095 0176 06       		.uleb128 0x6
 4096 0177 40       		.uleb128 0x40
 4097 0178 18       		.uleb128 0x18
 4098 0179 9642     		.uleb128 0x2116
 4099 017b 19       		.uleb128 0x19
 4100 017c 01       		.uleb128 0x1
 4101 017d 13       		.uleb128 0x13
 4102 017e 00       		.byte	0
 4103 017f 00       		.byte	0
 4104 0180 1E       		.uleb128 0x1e
 4105 0181 05       		.uleb128 0x5
 4106 0182 00       		.byte	0
 4107 0183 03       		.uleb128 0x3
 4108 0184 08       		.uleb128 0x8
 4109 0185 3A       		.uleb128 0x3a
 4110 0186 0B       		.uleb128 0xb
 4111 0187 3B       		.uleb128 0x3b
 4112 0188 05       		.uleb128 0x5
 4113 0189 49       		.uleb128 0x49
 4114 018a 13       		.uleb128 0x13
 4115 018b 02       		.uleb128 0x2
 4116 018c 18       		.uleb128 0x18
 4117 018d 00       		.byte	0
 4118 018e 00       		.byte	0
 4119 018f 1F       		.uleb128 0x1f
 4120 0190 34       		.uleb128 0x34
 4121 0191 00       		.byte	0
 4122 0192 03       		.uleb128 0x3
 4123 0193 08       		.uleb128 0x8
 4124 0194 3A       		.uleb128 0x3a
 4125 0195 0B       		.uleb128 0xb
 4126 0196 3B       		.uleb128 0x3b
 4127 0197 05       		.uleb128 0x5
 4128 0198 49       		.uleb128 0x49
 4129 0199 13       		.uleb128 0x13
 4130 019a 02       		.uleb128 0x2
 4131 019b 18       		.uleb128 0x18
 4132 019c 00       		.byte	0
 4133 019d 00       		.byte	0
 4134 019e 20       		.uleb128 0x20
 4135 019f 34       		.uleb128 0x34
 4136 01a0 00       		.byte	0
ARM GAS  C:\Users\PCHAUT~1\AppData\Local\Temp\cctXY9od.s 			page 74


 4137 01a1 03       		.uleb128 0x3
 4138 01a2 0E       		.uleb128 0xe
 4139 01a3 49       		.uleb128 0x49
 4140 01a4 13       		.uleb128 0x13
 4141 01a5 34       		.uleb128 0x34
 4142 01a6 19       		.uleb128 0x19
 4143 01a7 02       		.uleb128 0x2
 4144 01a8 18       		.uleb128 0x18
 4145 01a9 00       		.byte	0
 4146 01aa 00       		.byte	0
 4147 01ab 21       		.uleb128 0x21
 4148 01ac 0B       		.uleb128 0xb
 4149 01ad 01       		.byte	0x1
 4150 01ae 11       		.uleb128 0x11
 4151 01af 01       		.uleb128 0x1
 4152 01b0 12       		.uleb128 0x12
 4153 01b1 06       		.uleb128 0x6
 4154 01b2 00       		.byte	0
 4155 01b3 00       		.byte	0
 4156 01b4 22       		.uleb128 0x22
 4157 01b5 2E       		.uleb128 0x2e
 4158 01b6 01       		.byte	0x1
 4159 01b7 3F       		.uleb128 0x3f
 4160 01b8 19       		.uleb128 0x19
 4161 01b9 03       		.uleb128 0x3
 4162 01ba 0E       		.uleb128 0xe
 4163 01bb 3A       		.uleb128 0x3a
 4164 01bc 0B       		.uleb128 0xb
 4165 01bd 3B       		.uleb128 0x3b
 4166 01be 05       		.uleb128 0x5
 4167 01bf 27       		.uleb128 0x27
 4168 01c0 19       		.uleb128 0x19
 4169 01c1 11       		.uleb128 0x11
 4170 01c2 01       		.uleb128 0x1
 4171 01c3 12       		.uleb128 0x12
 4172 01c4 06       		.uleb128 0x6
 4173 01c5 40       		.uleb128 0x40
 4174 01c6 18       		.uleb128 0x18
 4175 01c7 9642     		.uleb128 0x2116
 4176 01c9 19       		.uleb128 0x19
 4177 01ca 01       		.uleb128 0x1
 4178 01cb 13       		.uleb128 0x13
 4179 01cc 00       		.byte	0
 4180 01cd 00       		.byte	0
 4181 01ce 23       		.uleb128 0x23
 4182 01cf 05       		.uleb128 0x5
 4183 01d0 00       		.byte	0
 4184 01d1 03       		.uleb128 0x3
 4185 01d2 0E       		.uleb128 0xe
 4186 01d3 3A       		.uleb128 0x3a
 4187 01d4 0B       		.uleb128 0xb
 4188 01d5 3B       		.uleb128 0x3b
 4189 01d6 05       		.uleb128 0x5
 4190 01d7 49       		.uleb128 0x49
 4191 01d8 13       		.uleb128 0x13
 4192 01d9 02       		.uleb128 0x2
 4193 01da 18       		.uleb128 0x18
ARM GAS  C:\Users\PCHAUT~1\AppData\Local\Temp\cctXY9od.s 			page 75


 4194 01db 00       		.byte	0
 4195 01dc 00       		.byte	0
 4196 01dd 24       		.uleb128 0x24
 4197 01de 2E       		.uleb128 0x2e
 4198 01df 01       		.byte	0x1
 4199 01e0 3F       		.uleb128 0x3f
 4200 01e1 19       		.uleb128 0x19
 4201 01e2 03       		.uleb128 0x3
 4202 01e3 0E       		.uleb128 0xe
 4203 01e4 3A       		.uleb128 0x3a
 4204 01e5 0B       		.uleb128 0xb
 4205 01e6 3B       		.uleb128 0x3b
 4206 01e7 0B       		.uleb128 0xb
 4207 01e8 27       		.uleb128 0x27
 4208 01e9 19       		.uleb128 0x19
 4209 01ea 49       		.uleb128 0x49
 4210 01eb 13       		.uleb128 0x13
 4211 01ec 11       		.uleb128 0x11
 4212 01ed 01       		.uleb128 0x1
 4213 01ee 12       		.uleb128 0x12
 4214 01ef 06       		.uleb128 0x6
 4215 01f0 40       		.uleb128 0x40
 4216 01f1 18       		.uleb128 0x18
 4217 01f2 9642     		.uleb128 0x2116
 4218 01f4 19       		.uleb128 0x19
 4219 01f5 01       		.uleb128 0x1
 4220 01f6 13       		.uleb128 0x13
 4221 01f7 00       		.byte	0
 4222 01f8 00       		.byte	0
 4223 01f9 25       		.uleb128 0x25
 4224 01fa 05       		.uleb128 0x5
 4225 01fb 00       		.byte	0
 4226 01fc 03       		.uleb128 0x3
 4227 01fd 08       		.uleb128 0x8
 4228 01fe 3A       		.uleb128 0x3a
 4229 01ff 0B       		.uleb128 0xb
 4230 0200 3B       		.uleb128 0x3b
 4231 0201 0B       		.uleb128 0xb
 4232 0202 49       		.uleb128 0x49
 4233 0203 13       		.uleb128 0x13
 4234 0204 02       		.uleb128 0x2
 4235 0205 18       		.uleb128 0x18
 4236 0206 00       		.byte	0
 4237 0207 00       		.byte	0
 4238 0208 26       		.uleb128 0x26
 4239 0209 05       		.uleb128 0x5
 4240 020a 00       		.byte	0
 4241 020b 03       		.uleb128 0x3
 4242 020c 0E       		.uleb128 0xe
 4243 020d 3A       		.uleb128 0x3a
 4244 020e 0B       		.uleb128 0xb
 4245 020f 3B       		.uleb128 0x3b
 4246 0210 0B       		.uleb128 0xb
 4247 0211 49       		.uleb128 0x49
 4248 0212 13       		.uleb128 0x13
 4249 0213 02       		.uleb128 0x2
 4250 0214 18       		.uleb128 0x18
ARM GAS  C:\Users\PCHAUT~1\AppData\Local\Temp\cctXY9od.s 			page 76


 4251 0215 00       		.byte	0
 4252 0216 00       		.byte	0
 4253 0217 27       		.uleb128 0x27
 4254 0218 34       		.uleb128 0x34
 4255 0219 00       		.byte	0
 4256 021a 03       		.uleb128 0x3
 4257 021b 08       		.uleb128 0x8
 4258 021c 3A       		.uleb128 0x3a
 4259 021d 0B       		.uleb128 0xb
 4260 021e 3B       		.uleb128 0x3b
 4261 021f 0B       		.uleb128 0xb
 4262 0220 49       		.uleb128 0x49
 4263 0221 13       		.uleb128 0x13
 4264 0222 02       		.uleb128 0x2
 4265 0223 18       		.uleb128 0x18
 4266 0224 00       		.byte	0
 4267 0225 00       		.byte	0
 4268 0226 28       		.uleb128 0x28
 4269 0227 2E       		.uleb128 0x2e
 4270 0228 01       		.byte	0x1
 4271 0229 3F       		.uleb128 0x3f
 4272 022a 19       		.uleb128 0x19
 4273 022b 03       		.uleb128 0x3
 4274 022c 0E       		.uleb128 0xe
 4275 022d 3A       		.uleb128 0x3a
 4276 022e 0B       		.uleb128 0xb
 4277 022f 3B       		.uleb128 0x3b
 4278 0230 0B       		.uleb128 0xb
 4279 0231 27       		.uleb128 0x27
 4280 0232 19       		.uleb128 0x19
 4281 0233 11       		.uleb128 0x11
 4282 0234 01       		.uleb128 0x1
 4283 0235 12       		.uleb128 0x12
 4284 0236 06       		.uleb128 0x6
 4285 0237 40       		.uleb128 0x40
 4286 0238 18       		.uleb128 0x18
 4287 0239 9642     		.uleb128 0x2116
 4288 023b 19       		.uleb128 0x19
 4289 023c 01       		.uleb128 0x1
 4290 023d 13       		.uleb128 0x13
 4291 023e 00       		.byte	0
 4292 023f 00       		.byte	0
 4293 0240 29       		.uleb128 0x29
 4294 0241 2E       		.uleb128 0x2e
 4295 0242 01       		.byte	0x1
 4296 0243 03       		.uleb128 0x3
 4297 0244 0E       		.uleb128 0xe
 4298 0245 3A       		.uleb128 0x3a
 4299 0246 0B       		.uleb128 0xb
 4300 0247 3B       		.uleb128 0x3b
 4301 0248 05       		.uleb128 0x5
 4302 0249 27       		.uleb128 0x27
 4303 024a 19       		.uleb128 0x19
 4304 024b 11       		.uleb128 0x11
 4305 024c 01       		.uleb128 0x1
 4306 024d 12       		.uleb128 0x12
 4307 024e 06       		.uleb128 0x6
ARM GAS  C:\Users\PCHAUT~1\AppData\Local\Temp\cctXY9od.s 			page 77


 4308 024f 40       		.uleb128 0x40
 4309 0250 18       		.uleb128 0x18
 4310 0251 9642     		.uleb128 0x2116
 4311 0253 19       		.uleb128 0x19
 4312 0254 01       		.uleb128 0x1
 4313 0255 13       		.uleb128 0x13
 4314 0256 00       		.byte	0
 4315 0257 00       		.byte	0
 4316 0258 2A       		.uleb128 0x2a
 4317 0259 2E       		.uleb128 0x2e
 4318 025a 00       		.byte	0
 4319 025b 03       		.uleb128 0x3
 4320 025c 0E       		.uleb128 0xe
 4321 025d 3A       		.uleb128 0x3a
 4322 025e 0B       		.uleb128 0xb
 4323 025f 3B       		.uleb128 0x3b
 4324 0260 05       		.uleb128 0x5
 4325 0261 27       		.uleb128 0x27
 4326 0262 19       		.uleb128 0x19
 4327 0263 11       		.uleb128 0x11
 4328 0264 01       		.uleb128 0x1
 4329 0265 12       		.uleb128 0x12
 4330 0266 06       		.uleb128 0x6
 4331 0267 40       		.uleb128 0x40
 4332 0268 18       		.uleb128 0x18
 4333 0269 9642     		.uleb128 0x2116
 4334 026b 19       		.uleb128 0x19
 4335 026c 00       		.byte	0
 4336 026d 00       		.byte	0
 4337 026e 2B       		.uleb128 0x2b
 4338 026f 2E       		.uleb128 0x2e
 4339 0270 01       		.byte	0x1
 4340 0271 03       		.uleb128 0x3
 4341 0272 0E       		.uleb128 0xe
 4342 0273 3A       		.uleb128 0x3a
 4343 0274 0B       		.uleb128 0xb
 4344 0275 3B       		.uleb128 0x3b
 4345 0276 05       		.uleb128 0x5
 4346 0277 27       		.uleb128 0x27
 4347 0278 19       		.uleb128 0x19
 4348 0279 49       		.uleb128 0x49
 4349 027a 13       		.uleb128 0x13
 4350 027b 11       		.uleb128 0x11
 4351 027c 01       		.uleb128 0x1
 4352 027d 12       		.uleb128 0x12
 4353 027e 06       		.uleb128 0x6
 4354 027f 40       		.uleb128 0x40
 4355 0280 18       		.uleb128 0x18
 4356 0281 9642     		.uleb128 0x2116
 4357 0283 19       		.uleb128 0x19
 4358 0284 01       		.uleb128 0x1
 4359 0285 13       		.uleb128 0x13
 4360 0286 00       		.byte	0
 4361 0287 00       		.byte	0
 4362 0288 2C       		.uleb128 0x2c
 4363 0289 1D       		.uleb128 0x1d
 4364 028a 01       		.byte	0x1
ARM GAS  C:\Users\PCHAUT~1\AppData\Local\Temp\cctXY9od.s 			page 78


 4365 028b 31       		.uleb128 0x31
 4366 028c 13       		.uleb128 0x13
 4367 028d 11       		.uleb128 0x11
 4368 028e 01       		.uleb128 0x1
 4369 028f 12       		.uleb128 0x12
 4370 0290 06       		.uleb128 0x6
 4371 0291 58       		.uleb128 0x58
 4372 0292 0B       		.uleb128 0xb
 4373 0293 59       		.uleb128 0x59
 4374 0294 05       		.uleb128 0x5
 4375 0295 00       		.byte	0
 4376 0296 00       		.byte	0
 4377 0297 2D       		.uleb128 0x2d
 4378 0298 05       		.uleb128 0x5
 4379 0299 00       		.byte	0
 4380 029a 31       		.uleb128 0x31
 4381 029b 13       		.uleb128 0x13
 4382 029c 02       		.uleb128 0x2
 4383 029d 18       		.uleb128 0x18
 4384 029e 00       		.byte	0
 4385 029f 00       		.byte	0
 4386 02a0 2E       		.uleb128 0x2e
 4387 02a1 2E       		.uleb128 0x2e
 4388 02a2 01       		.byte	0x1
 4389 02a3 03       		.uleb128 0x3
 4390 02a4 0E       		.uleb128 0xe
 4391 02a5 3A       		.uleb128 0x3a
 4392 02a6 0B       		.uleb128 0xb
 4393 02a7 3B       		.uleb128 0x3b
 4394 02a8 05       		.uleb128 0x5
 4395 02a9 27       		.uleb128 0x27
 4396 02aa 19       		.uleb128 0x19
 4397 02ab 20       		.uleb128 0x20
 4398 02ac 0B       		.uleb128 0xb
 4399 02ad 00       		.byte	0
 4400 02ae 00       		.byte	0
 4401 02af 2F       		.uleb128 0x2f
 4402 02b0 05       		.uleb128 0x5
 4403 02b1 00       		.byte	0
 4404 02b2 03       		.uleb128 0x3
 4405 02b3 0E       		.uleb128 0xe
 4406 02b4 3A       		.uleb128 0x3a
 4407 02b5 0B       		.uleb128 0xb
 4408 02b6 3B       		.uleb128 0x3b
 4409 02b7 05       		.uleb128 0x5
 4410 02b8 49       		.uleb128 0x49
 4411 02b9 13       		.uleb128 0x13
 4412 02ba 00       		.byte	0
 4413 02bb 00       		.byte	0
 4414 02bc 00       		.byte	0
 4415              		.section	.debug_aranges,"",%progbits
 4416 0000 BC000000 		.4byte	0xbc
 4417 0004 0200     		.2byte	0x2
 4418 0006 00000000 		.4byte	.Ldebug_info0
 4419 000a 04       		.byte	0x4
 4420 000b 00       		.byte	0
 4421 000c 0000     		.2byte	0
ARM GAS  C:\Users\PCHAUT~1\AppData\Local\Temp\cctXY9od.s 			page 79


 4422 000e 0000     		.2byte	0
 4423 0010 00000000 		.4byte	.LFB116
 4424 0014 30000000 		.4byte	.LFE116-.LFB116
 4425 0018 00000000 		.4byte	.LFB117
 4426 001c 30000000 		.4byte	.LFE117-.LFB117
 4427 0020 00000000 		.4byte	.LFB128
 4428 0024 34000000 		.4byte	.LFE128-.LFB128
 4429 0028 00000000 		.4byte	.LFB129
 4430 002c 38000000 		.4byte	.LFE129-.LFB129
 4431 0030 00000000 		.4byte	.LFB130
 4432 0034 38000000 		.4byte	.LFE130-.LFB130
 4433 0038 00000000 		.4byte	.LFB134
 4434 003c 44000000 		.4byte	.LFE134-.LFB134
 4435 0040 00000000 		.4byte	.LFB135
 4436 0044 40000000 		.4byte	.LFE135-.LFB135
 4437 0048 00000000 		.4byte	.LFB136
 4438 004c 40000000 		.4byte	.LFE136-.LFB136
 4439 0050 00000000 		.4byte	.LFB145
 4440 0054 30000000 		.4byte	.LFE145-.LFB145
 4441 0058 00000000 		.4byte	.LFB146
 4442 005c 58000000 		.4byte	.LFE146-.LFB146
 4443 0060 00000000 		.4byte	.LFB219
 4444 0064 4C000000 		.4byte	.LFE219-.LFB219
 4445 0068 00000000 		.4byte	.LFB220
 4446 006c 3C000000 		.4byte	.LFE220-.LFB220
 4447 0070 00000000 		.4byte	.LFB221
 4448 0074 B4000000 		.4byte	.LFE221-.LFB221
 4449 0078 00000000 		.4byte	.LFB222
 4450 007c 38000000 		.4byte	.LFE222-.LFB222
 4451 0080 00000000 		.4byte	.LFB223
 4452 0084 B4000000 		.4byte	.LFE223-.LFB223
 4453 0088 00000000 		.4byte	.LFB224
 4454 008c 3C000000 		.4byte	.LFE224-.LFB224
 4455 0090 00000000 		.4byte	.LFB225
 4456 0094 CC000000 		.4byte	.LFE225-.LFB225
 4457 0098 00000000 		.4byte	.LFB226
 4458 009c A0000000 		.4byte	.LFE226-.LFB226
 4459 00a0 00000000 		.4byte	.LFB227
 4460 00a4 A0000000 		.4byte	.LFE227-.LFB227
 4461 00a8 00000000 		.4byte	.LFB228
 4462 00ac B8000000 		.4byte	.LFE228-.LFB228
 4463 00b0 00000000 		.4byte	.LFB229
 4464 00b4 30010000 		.4byte	.LFE229-.LFB229
 4465 00b8 00000000 		.4byte	0
 4466 00bc 00000000 		.4byte	0
 4467              		.section	.debug_ranges,"",%progbits
 4468              	.Ldebug_ranges0:
 4469 0000 00000000 		.4byte	.LFB116
 4470 0004 30000000 		.4byte	.LFE116
 4471 0008 00000000 		.4byte	.LFB117
 4472 000c 30000000 		.4byte	.LFE117
 4473 0010 00000000 		.4byte	.LFB128
 4474 0014 34000000 		.4byte	.LFE128
 4475 0018 00000000 		.4byte	.LFB129
 4476 001c 38000000 		.4byte	.LFE129
 4477 0020 00000000 		.4byte	.LFB130
 4478 0024 38000000 		.4byte	.LFE130
ARM GAS  C:\Users\PCHAUT~1\AppData\Local\Temp\cctXY9od.s 			page 80


 4479 0028 00000000 		.4byte	.LFB134
 4480 002c 44000000 		.4byte	.LFE134
 4481 0030 00000000 		.4byte	.LFB135
 4482 0034 40000000 		.4byte	.LFE135
 4483 0038 00000000 		.4byte	.LFB136
 4484 003c 40000000 		.4byte	.LFE136
 4485 0040 00000000 		.4byte	.LFB145
 4486 0044 30000000 		.4byte	.LFE145
 4487 0048 00000000 		.4byte	.LFB146
 4488 004c 58000000 		.4byte	.LFE146
 4489 0050 00000000 		.4byte	.LFB219
 4490 0054 4C000000 		.4byte	.LFE219
 4491 0058 00000000 		.4byte	.LFB220
 4492 005c 3C000000 		.4byte	.LFE220
 4493 0060 00000000 		.4byte	.LFB221
 4494 0064 B4000000 		.4byte	.LFE221
 4495 0068 00000000 		.4byte	.LFB222
 4496 006c 38000000 		.4byte	.LFE222
 4497 0070 00000000 		.4byte	.LFB223
 4498 0074 B4000000 		.4byte	.LFE223
 4499 0078 00000000 		.4byte	.LFB224
 4500 007c 3C000000 		.4byte	.LFE224
 4501 0080 00000000 		.4byte	.LFB225
 4502 0084 CC000000 		.4byte	.LFE225
 4503 0088 00000000 		.4byte	.LFB226
 4504 008c A0000000 		.4byte	.LFE226
 4505 0090 00000000 		.4byte	.LFB227
 4506 0094 A0000000 		.4byte	.LFE227
 4507 0098 00000000 		.4byte	.LFB228
 4508 009c B8000000 		.4byte	.LFE228
 4509 00a0 00000000 		.4byte	.LFB229
 4510 00a4 30010000 		.4byte	.LFE229
 4511 00a8 00000000 		.4byte	0
 4512 00ac 00000000 		.4byte	0
 4513              		.section	.debug_line,"",%progbits
 4514              	.Ldebug_line0:
 4515 0000 BC060000 		.section	.debug_str,"MS",%progbits,1
 4515      02006F03 
 4515      00000201 
 4515      FB0E0D00 
 4515      01010101 
 4516              	.LASF145:
 4517 0000 63665F6F 		.ascii	"cf_off_older\000"
 4517      66665F6F 
 4517      6C646572 
 4517      00
 4518              	.LASF60:
 4519 000d 72656164 		.ascii	"ready_list_t\000"
 4519      795F6C69 
 4519      73745F74 
 4519      00
 4520              	.LASF173:
 4521 001a 71756575 		.ascii	"queue_insert\000"
 4521      655F696E 
 4521      73657274 
 4521      00
 4522              	.LASF159:
ARM GAS  C:\Users\PCHAUT~1\AppData\Local\Temp\cctXY9od.s 			page 81


 4523 0027 63685365 		.ascii	"chSemSignalI\000"
 4523      6D536967 
 4523      6E616C49 
 4523      00
 4524              	.LASF122:
 4525 0034 77747472 		.ascii	"wttrp\000"
 4525      7000
 4526              	.LASF119:
 4527 003a 7264796D 		.ascii	"rdymsg\000"
 4527      736700
 4528              	.LASF147:
 4529 0041 63665F6F 		.ascii	"cf_off_stklimit\000"
 4529      66665F73 
 4529      746B6C69 
 4529      6D697400 
 4530              	.LASF19:
 4531 0051 75696E74 		.ascii	"uint64_t\000"
 4531      36345F74 
 4531      00
 4532              	.LASF90:
 4533 005a 6B65726E 		.ascii	"kernel_stats\000"
 4533      656C5F73 
 4533      74617473 
 4533      00
 4534              	.LASF6:
 4535 0067 5F5F7569 		.ascii	"__uint8_t\000"
 4535      6E74385F 
 4535      7400
 4536              	.LASF97:
 4537 0071 706F7274 		.ascii	"port_intctx\000"
 4537      5F696E74 
 4537      63747800 
 4538              	.LASF59:
 4539 007d 63685F74 		.ascii	"ch_threads_queue\000"
 4539      68726561 
 4539      64735F71 
 4539      75657565 
 4539      00
 4540              	.LASF79:
 4541 008e 73797374 		.ascii	"system_debug_t\000"
 4541      656D5F64 
 4541      65627567 
 4541      5F7400
 4542              	.LASF177:
 4543 009d 71756575 		.ascii	"queue_init\000"
 4543      655F696E 
 4543      697400
 4544              	.LASF179:
 4545 00a8 706F7274 		.ascii	"port_lock\000"
 4545      5F6C6F63 
 4545      6B00
 4546              	.LASF110:
 4547 00b2 776F7273 		.ascii	"worst\000"
 4547      7400
 4548              	.LASF170:
 4549 00b8 71756575 		.ascii	"queue_lifo_remove\000"
 4549      655F6C69 
ARM GAS  C:\Users\PCHAUT~1\AppData\Local\Temp\cctXY9od.s 			page 82


 4549      666F5F72 
 4549      656D6F76 
 4549      6500
 4550              	.LASF113:
 4551 00ca 74696D65 		.ascii	"time_measurement_t\000"
 4551      5F6D6561 
 4551      73757265 
 4551      6D656E74 
 4551      5F7400
 4552              	.LASF160:
 4553 00dd 63685365 		.ascii	"chSemSignal\000"
 4553      6D536967 
 4553      6E616C00 
 4554              	.LASF106:
 4555 00e9 63685F74 		.ascii	"ch_trace_buffer_t\000"
 4555      72616365 
 4555      5F627566 
 4555      6665725F 
 4555      7400
 4556              	.LASF141:
 4557 00fb 63685F74 		.ascii	"ch_threadsize\000"
 4557      68726561 
 4557      6473697A 
 4557      6500
 4558              	.LASF120:
 4559 0109 65786974 		.ascii	"exitcode\000"
 4559      636F6465 
 4559      00
 4560              	.LASF89:
 4561 0112 6D61696E 		.ascii	"mainthread\000"
 4561      74687265 
 4561      616400
 4562              	.LASF158:
 4563 011d 63685365 		.ascii	"chSemAddCounterI\000"
 4563      6D416464 
 4563      436F756E 
 4563      74657249 
 4563      00
 4564              	.LASF92:
 4565 012e 49544D5F 		.ascii	"ITM_RxBuffer\000"
 4565      52784275 
 4565      66666572 
 4565      00
 4566              	.LASF21:
 4567 013b 72747469 		.ascii	"rttime_t\000"
 4567      6D655F74 
 4567      00
 4568              	.LASF35:
 4569 0144 705F7072 		.ascii	"p_prio\000"
 4569      696F00
 4570              	.LASF148:
 4571 014b 63665F6F 		.ascii	"cf_off_state\000"
 4571      66665F73 
 4571      74617465 
 4571      00
 4572              	.LASF1:
 4573 0158 6C6F6E67 		.ascii	"long long int\000"
ARM GAS  C:\Users\PCHAUT~1\AppData\Local\Temp\cctXY9od.s 			page 83


 4573      206C6F6E 
 4573      6720696E 
 4573      7400
 4574              	.LASF3:
 4575 0166 7369676E 		.ascii	"signed char\000"
 4575      65642063 
 4575      68617200 
 4576              	.LASF161:
 4577 0172 63685365 		.ascii	"chSemSignalWait\000"
 4577      6D536967 
 4577      6E616C57 
 4577      61697400 
 4578              	.LASF149:
 4579 0182 63665F6F 		.ascii	"cf_off_flags\000"
 4579      66665F66 
 4579      6C616773 
 4579      00
 4580              	.LASF52:
 4581 018f 705F6D70 		.ascii	"p_mpool\000"
 4581      6F6F6C00 
 4582              	.LASF14:
 4583 0197 6C6F6E67 		.ascii	"long long unsigned int\000"
 4583      206C6F6E 
 4583      6720756E 
 4583      7369676E 
 4583      65642069 
 4584              	.LASF130:
 4585 01ae 6D5F7175 		.ascii	"m_queue\000"
 4585      65756500 
 4586              	.LASF88:
 4587 01b6 76746C69 		.ascii	"vtlist\000"
 4587      737400
 4588              	.LASF178:
 4589 01bd 706F7274 		.ascii	"port_unlock\000"
 4589      5F756E6C 
 4589      6F636B00 
 4590              	.LASF25:
 4591 01c9 74736C69 		.ascii	"tslices_t\000"
 4591      6365735F 
 4591      7400
 4592              	.LASF86:
 4593 01d3 63685F73 		.ascii	"ch_system\000"
 4593      79737465 
 4593      6D00
 4594              	.LASF10:
 4595 01dd 6C6F6E67 		.ascii	"long int\000"
 4595      20696E74 
 4595      00
 4596              	.LASF180:
 4597 01e6 474E5520 		.ascii	"GNU C11 7.2.1 20170904 (release) [ARM/embedded-7-br"
 4597      43313120 
 4597      372E322E 
 4597      31203230 
 4597      31373039 
 4598 0219 616E6368 		.ascii	"anch revision 255204] -mcpu=cortex-m4 -mfloat-abi=h"
 4598      20726576 
 4598      6973696F 
ARM GAS  C:\Users\PCHAUT~1\AppData\Local\Temp\cctXY9od.s 			page 84


 4598      6E203235 
 4598      35323034 
 4599 024c 61726420 		.ascii	"ard -mfpu=fpv4-sp-d16 -mno-thumb-interwork -mthumb "
 4599      2D6D6670 
 4599      753D6670 
 4599      76342D73 
 4599      702D6431 
 4600 027f 2D676764 		.ascii	"-ggdb -O0 -fomit-frame-pointer -falign-functions=16"
 4600      62202D4F 
 4600      30202D66 
 4600      6F6D6974 
 4600      2D667261 
 4601 02b2 202D666E 		.ascii	" -fno-strict-aliasing -fstack-protector-all -ffunct"
 4601      6F2D7374 
 4601      72696374 
 4601      2D616C69 
 4601      6173696E 
 4602 02e5 696F6E2D 		.ascii	"ion-sections -fdata-sections -fno-common -fsingle-p"
 4602      73656374 
 4602      696F6E73 
 4602      202D6664 
 4602      6174612D 
 4603 0318 72656369 		.ascii	"recision-constant\000"
 4603      73696F6E 
 4603      2D636F6E 
 4603      7374616E 
 4603      7400
 4604              	.LASF23:
 4605 032a 74737461 		.ascii	"tstate_t\000"
 4605      74655F74 
 4605      00
 4606              	.LASF174:
 4607 0333 71756575 		.ascii	"queue_notempty\000"
 4607      655F6E6F 
 4607      74656D70 
 4607      747900
 4608              	.LASF99:
 4609 0342 73655F74 		.ascii	"se_tp\000"
 4609      7000
 4610              	.LASF153:
 4611 0348 63686465 		.ascii	"chdebug_t\000"
 4611      6275675F 
 4611      7400
 4612              	.LASF37:
 4613 0352 705F6E65 		.ascii	"p_newer\000"
 4613      77657200 
 4614              	.LASF176:
 4615 035a 71756575 		.ascii	"queue_isempty\000"
 4615      655F6973 
 4615      656D7074 
 4615      7900
 4616              	.LASF127:
 4617 0368 735F7175 		.ascii	"s_queue\000"
 4617      65756500 
 4618              	.LASF103:
 4619 0370 74625F73 		.ascii	"tb_size\000"
 4619      697A6500 
ARM GAS  C:\Users\PCHAUT~1\AppData\Local\Temp\cctXY9od.s 			page 85


 4620              	.LASF65:
 4621 0378 725F6E65 		.ascii	"r_newer\000"
 4621      77657200 
 4622              	.LASF94:
 4623 0380 72656761 		.ascii	"regarm_t\000"
 4623      726D5F74 
 4623      00
 4624              	.LASF72:
 4625 0389 76745F70 		.ascii	"vt_prev\000"
 4625      72657600 
 4626              	.LASF80:
 4627 0391 63685F73 		.ascii	"ch_system_debug\000"
 4627      79737465 
 4627      6D5F6465 
 4627      62756700 
 4628              	.LASF133:
 4629 03a1 6D5F636E 		.ascii	"m_cnt\000"
 4629      7400
 4630              	.LASF156:
 4631 03a7 6D757465 		.ascii	"mutex_t\000"
 4631      785F7400 
 4632              	.LASF185:
 4633 03af 76616C75 		.ascii	"value\000"
 4633      6500
 4634              	.LASF83:
 4635 03b5 6C6F636B 		.ascii	"lock_cnt\000"
 4635      5F636E74 
 4635      00
 4636              	.LASF181:
 4637 03be 2E2E2F6C 		.ascii	"../lib/e-puck2_main-processor/ChibiOS//os/rt/src/ch"
 4637      69622F65 
 4637      2D707563 
 4637      6B325F6D 
 4637      61696E2D 
 4638 03f1 73656D2E 		.ascii	"sem.c\000"
 4638      6300
 4639              	.LASF91:
 4640 03f7 69646C65 		.ascii	"idle_thread_wa\000"
 4640      5F746872 
 4640      6561645F 
 4640      776100
 4641              	.LASF169:
 4642 0406 63685365 		.ascii	"chSemObjectInit\000"
 4642      6D4F626A 
 4642      65637449 
 4642      6E697400 
 4643              	.LASF29:
 4644 0416 636E745F 		.ascii	"cnt_t\000"
 4644      7400
 4645              	.LASF40:
 4646 041c 705F7374 		.ascii	"p_stklimit\000"
 4646      6B6C696D 
 4646      697400
 4647              	.LASF0:
 4648 0427 756E7369 		.ascii	"unsigned int\000"
 4648      676E6564 
 4648      20696E74 
ARM GAS  C:\Users\PCHAUT~1\AppData\Local\Temp\cctXY9od.s 			page 86


 4648      00
 4649              	.LASF164:
 4650 0434 63685365 		.ascii	"chSemWaitTimeout\000"
 4650      6D576169 
 4650      7454696D 
 4650      656F7574 
 4650      00
 4651              	.LASF71:
 4652 0445 76745F6E 		.ascii	"vt_next\000"
 4652      65787400 
 4653              	.LASF16:
 4654 044d 75696E74 		.ascii	"uint16_t\000"
 4654      31365F74 
 4654      00
 4655              	.LASF93:
 4656 0456 53797374 		.ascii	"SystemCoreClock\000"
 4656      656D436F 
 4656      7265436C 
 4656      6F636B00 
 4657              	.LASF45:
 4658 0466 705F7469 		.ascii	"p_time\000"
 4658      6D6500
 4659              	.LASF123:
 4660 046d 77747365 		.ascii	"wtsemp\000"
 4660      6D7000
 4661              	.LASF73:
 4662 0474 76745F64 		.ascii	"vt_delta\000"
 4662      656C7461 
 4662      00
 4663              	.LASF47:
 4664 047d 705F6D73 		.ascii	"p_msgqueue\000"
 4664      67717565 
 4664      756500
 4665              	.LASF168:
 4666 0488 63685365 		.ascii	"chSemReset\000"
 4666      6D526573 
 4666      657400
 4667              	.LASF154:
 4668 0493 63685F64 		.ascii	"ch_debug\000"
 4668      65627567 
 4668      00
 4669              	.LASF114:
 4670 049c 6E5F6972 		.ascii	"n_irq\000"
 4670      7100
 4671              	.LASF128:
 4672 04a2 735F636E 		.ascii	"s_cnt\000"
 4672      7400
 4673              	.LASF8:
 4674 04a8 73686F72 		.ascii	"short unsigned int\000"
 4674      7420756E 
 4674      7369676E 
 4674      65642069 
 4674      6E7400
 4675              	.LASF118:
 4676 04bb 6B65726E 		.ascii	"kernel_stats_t\000"
 4676      656C5F73 
 4676      74617473 
ARM GAS  C:\Users\PCHAUT~1\AppData\Local\Temp\cctXY9od.s 			page 87


 4676      5F7400
 4677              	.LASF56:
 4678 04ca 63685F74 		.ascii	"ch_thread\000"
 4678      68726561 
 4678      6400
 4679              	.LASF27:
 4680 04d4 6D73675F 		.ascii	"msg_t\000"
 4680      7400
 4681              	.LASF111:
 4682 04da 6C617374 		.ascii	"last\000"
 4682      00
 4683              	.LASF30:
 4684 04df 75636E74 		.ascii	"ucnt_t\000"
 4684      5F7400
 4685              	.LASF85:
 4686 04e6 63685F73 		.ascii	"ch_system_t\000"
 4686      79737465 
 4686      6D5F7400 
 4687              	.LASF152:
 4688 04f2 63665F6F 		.ascii	"cf_off_time\000"
 4688      66665F74 
 4688      696D6500 
 4689              	.LASF117:
 4690 04fe 6D5F6372 		.ascii	"m_crit_isr\000"
 4690      69745F69 
 4690      737200
 4691              	.LASF61:
 4692 0509 63685F72 		.ascii	"ch_ready_list\000"
 4692      65616479 
 4692      5F6C6973 
 4692      7400
 4693              	.LASF28:
 4694 0517 6576656E 		.ascii	"eventmask_t\000"
 4694      746D6173 
 4694      6B5F7400 
 4695              	.LASF9:
 4696 0523 5F5F696E 		.ascii	"__int32_t\000"
 4696      7433325F 
 4696      7400
 4697              	.LASF76:
 4698 052d 76697274 		.ascii	"virtual_timers_list_t\000"
 4698      75616C5F 
 4698      74696D65 
 4698      72735F6C 
 4698      6973745F 
 4699              	.LASF95:
 4700 0543 73746B61 		.ascii	"stkalign_t\000"
 4700      6C69676E 
 4700      5F7400
 4701              	.LASF55:
 4702 054e 74687265 		.ascii	"threads_list_t\000"
 4702      6164735F 
 4702      6C697374 
 4702      5F7400
 4703              	.LASF136:
 4704 055d 63685F7A 		.ascii	"ch_zero\000"
 4704      65726F00 
ARM GAS  C:\Users\PCHAUT~1\AppData\Local\Temp\cctXY9od.s 			page 88


 4705              	.LASF150:
 4706 0565 63665F6F 		.ascii	"cf_off_refs\000"
 4706      66665F72 
 4706      65667300 
 4707              	.LASF155:
 4708 0571 73656D61 		.ascii	"semaphore_t\000"
 4708      70686F72 
 4708      655F7400 
 4709              	.LASF46:
 4710 057d 705F7761 		.ascii	"p_waiting\000"
 4710      6974696E 
 4710      6700
 4711              	.LASF20:
 4712 0587 7274636E 		.ascii	"rtcnt_t\000"
 4712      745F7400 
 4713              	.LASF77:
 4714 058f 63685F76 		.ascii	"ch_virtual_timers_list\000"
 4714      69727475 
 4714      616C5F74 
 4714      696D6572 
 4714      735F6C69 
 4715              	.LASF2:
 4716 05a6 6C6F6E67 		.ascii	"long double\000"
 4716      20646F75 
 4716      626C6500 
 4717              	.LASF140:
 4718 05b2 63685F74 		.ascii	"ch_timesize\000"
 4718      696D6573 
 4718      697A6500 
 4719              	.LASF104:
 4720 05be 74625F70 		.ascii	"tb_ptr\000"
 4720      747200
 4721              	.LASF102:
 4722 05c5 63685F73 		.ascii	"ch_swc_event_t\000"
 4722      77635F65 
 4722      76656E74 
 4722      5F7400
 4723              	.LASF146:
 4724 05d4 63665F6F 		.ascii	"cf_off_name\000"
 4724      66665F6E 
 4724      616D6500 
 4725              	.LASF183:
 4726 05e0 63685379 		.ascii	"chSysLock\000"
 4726      734C6F63 
 4726      6B00
 4727              	.LASF38:
 4728 05ea 705F6F6C 		.ascii	"p_older\000"
 4728      64657200 
 4729              	.LASF64:
 4730 05f2 725F6374 		.ascii	"r_ctx\000"
 4730      7800
 4731              	.LASF36:
 4732 05f8 705F6374 		.ascii	"p_ctx\000"
 4732      7800
 4733              	.LASF108:
 4734 05fe 746D5F63 		.ascii	"tm_calibration_t\000"
 4734      616C6962 
ARM GAS  C:\Users\PCHAUT~1\AppData\Local\Temp\cctXY9od.s 			page 89


 4734      72617469 
 4734      6F6E5F74 
 4734      00
 4735              	.LASF132:
 4736 060f 6D5F6E65 		.ascii	"m_next\000"
 4736      787400
 4737              	.LASF163:
 4738 0616 74696D65 		.ascii	"time\000"
 4738      00
 4739              	.LASF67:
 4740 061b 725F6375 		.ascii	"r_current\000"
 4740      7272656E 
 4740      7400
 4741              	.LASF66:
 4742 0625 725F6F6C 		.ascii	"r_older\000"
 4742      64657200 
 4743              	.LASF13:
 4744 062d 5F5F7569 		.ascii	"__uint64_t\000"
 4744      6E743634 
 4744      5F7400
 4745              	.LASF112:
 4746 0638 63756D75 		.ascii	"cumulative\000"
 4746      6C617469 
 4746      766500
 4747              	.LASF24:
 4748 0643 74726566 		.ascii	"trefs_t\000"
 4748      735F7400 
 4749              	.LASF105:
 4750 064b 74625F62 		.ascii	"tb_buffer\000"
 4750      75666665 
 4750      7200
 4751              	.LASF139:
 4752 0655 63685F70 		.ascii	"ch_ptrsize\000"
 4752      74727369 
 4752      7A6500
 4753              	.LASF69:
 4754 0660 76697274 		.ascii	"virtual_timer_t\000"
 4754      75616C5F 
 4754      74696D65 
 4754      725F7400 
 4755              	.LASF34:
 4756 0670 705F7072 		.ascii	"p_prev\000"
 4756      657600
 4757              	.LASF26:
 4758 0677 74707269 		.ascii	"tprio_t\000"
 4758      6F5F7400 
 4759              	.LASF115:
 4760 067f 6E5F6374 		.ascii	"n_ctxswc\000"
 4760      78737763 
 4760      00
 4761              	.LASF175:
 4762 0688 5F426F6F 		.ascii	"_Bool\000"
 4762      6C00
 4763              	.LASF17:
 4764 068e 696E7433 		.ascii	"int32_t\000"
 4764      325F7400 
 4765              	.LASF4:
ARM GAS  C:\Users\PCHAUT~1\AppData\Local\Temp\cctXY9od.s 			page 90


 4766 0696 756E7369 		.ascii	"unsigned char\000"
 4766      676E6564 
 4766      20636861 
 4766      7200
 4767              	.LASF50:
 4768 06a4 705F6D74 		.ascii	"p_mtxlist\000"
 4768      786C6973 
 4768      7400
 4769              	.LASF5:
 4770 06ae 73686F72 		.ascii	"short int\000"
 4770      7420696E 
 4770      7400
 4771              	.LASF41:
 4772 06b8 705F7374 		.ascii	"p_state\000"
 4772      61746500 
 4773              	.LASF44:
 4774 06c0 705F7072 		.ascii	"p_preempt\000"
 4774      65656D70 
 4774      7400
 4775              	.LASF63:
 4776 06ca 725F7072 		.ascii	"r_prio\000"
 4776      696F00
 4777              	.LASF125:
 4778 06d1 65776D61 		.ascii	"ewmask\000"
 4778      736B00
 4779              	.LASF33:
 4780 06d8 705F6E65 		.ascii	"p_next\000"
 4780      787400
 4781              	.LASF22:
 4782 06df 746D6F64 		.ascii	"tmode_t\000"
 4782      655F7400 
 4783              	.LASF151:
 4784 06e7 63665F6F 		.ascii	"cf_off_preempt\000"
 4784      66665F70 
 4784      7265656D 
 4784      707400
 4785              	.LASF42:
 4786 06f6 705F666C 		.ascii	"p_flags\000"
 4786      61677300 
 4787              	.LASF157:
 4788 06fe 5F5F6675 		.ascii	"__func__\000"
 4788      6E635F5F 
 4788      00
 4789              	.LASF53:
 4790 0707 705F7374 		.ascii	"p_stats\000"
 4790      61747300 
 4791              	.LASF165:
 4792 070f 63685365 		.ascii	"chSemWaitS\000"
 4792      6D576169 
 4792      745300
 4793              	.LASF182:
 4794 071a 433A5C55 		.ascii	"C:\\Users\\Pchautems\\Documents\\RobotiqueTP\\Proje"
 4794      73657273 
 4794      5C506368 
 4794      61757465 
 4794      6D735C44 
 4795 0748 745C6D69 		.ascii	"t\\miniprojet\000"
ARM GAS  C:\Users\PCHAUT~1\AppData\Local\Temp\cctXY9od.s 			page 91


 4795      6E697072 
 4795      6F6A6574 
 4795      00
 4796              	.LASF58:
 4797 0755 74687265 		.ascii	"threads_queue_t\000"
 4797      6164735F 
 4797      71756575 
 4797      655F7400 
 4798              	.LASF70:
 4799 0765 63685F76 		.ascii	"ch_virtual_timer\000"
 4799      69727475 
 4799      616C5F74 
 4799      696D6572 
 4799      00
 4800              	.LASF144:
 4801 0776 63665F6F 		.ascii	"cf_off_newer\000"
 4801      66665F6E 
 4801      65776572 
 4801      00
 4802              	.LASF126:
 4803 0783 63685F73 		.ascii	"ch_semaphore\000"
 4803      656D6170 
 4803      686F7265 
 4803      00
 4804              	.LASF49:
 4805 0790 705F6570 		.ascii	"p_epending\000"
 4805      656E6469 
 4805      6E6700
 4806              	.LASF18:
 4807 079b 75696E74 		.ascii	"uint32_t\000"
 4807      33325F74 
 4807      00
 4808              	.LASF142:
 4809 07a4 63665F6F 		.ascii	"cf_off_prio\000"
 4809      66665F70 
 4809      72696F00 
 4810              	.LASF62:
 4811 07b0 725F7175 		.ascii	"r_queue\000"
 4811      65756500 
 4812              	.LASF57:
 4813 07b8 63685F74 		.ascii	"ch_threads_list\000"
 4813      68726561 
 4813      64735F6C 
 4813      69737400 
 4814              	.LASF137:
 4815 07c8 63685F73 		.ascii	"ch_size\000"
 4815      697A6500 
 4816              	.LASF12:
 4817 07d0 6C6F6E67 		.ascii	"long unsigned int\000"
 4817      20756E73 
 4817      69676E65 
 4817      6420696E 
 4817      7400
 4818              	.LASF134:
 4819 07e2 63686172 		.ascii	"char\000"
 4819      00
 4820              	.LASF124:
ARM GAS  C:\Users\PCHAUT~1\AppData\Local\Temp\cctXY9od.s 			page 92


 4821 07e7 77746D74 		.ascii	"wtmtxp\000"
 4821      787000
 4822              	.LASF162:
 4823 07ee 63685365 		.ascii	"chSemWaitTimeoutS\000"
 4823      6D576169 
 4823      7454696D 
 4823      656F7574 
 4823      5300
 4824              	.LASF7:
 4825 0800 5F5F7569 		.ascii	"__uint16_t\000"
 4825      6E743136 
 4825      5F7400
 4826              	.LASF32:
 4827 080b 74687265 		.ascii	"thread_t\000"
 4827      61645F74 
 4827      00
 4828              	.LASF109:
 4829 0814 62657374 		.ascii	"best\000"
 4829      00
 4830              	.LASF171:
 4831 0819 71756575 		.ascii	"queue_fifo_remove\000"
 4831      655F6669 
 4831      666F5F72 
 4831      656D6F76 
 4831      6500
 4832              	.LASF31:
 4833 082b 73797374 		.ascii	"systime_t\000"
 4833      696D655F 
 4833      7400
 4834              	.LASF51:
 4835 0835 705F7265 		.ascii	"p_realprio\000"
 4835      616C7072 
 4835      696F00
 4836              	.LASF68:
 4837 0840 76746675 		.ascii	"vtfunc_t\000"
 4837      6E635F74 
 4837      00
 4838              	.LASF11:
 4839 0849 5F5F7569 		.ascii	"__uint32_t\000"
 4839      6E743332 
 4839      5F7400
 4840              	.LASF184:
 4841 0854 5F5F7365 		.ascii	"__set_BASEPRI\000"
 4841      745F4241 
 4841      53455052 
 4841      4900
 4842              	.LASF166:
 4843 0862 63685365 		.ascii	"chSemWait\000"
 4843      6D576169 
 4843      7400
 4844              	.LASF81:
 4845 086c 70616E69 		.ascii	"panic_msg\000"
 4845      635F6D73 
 4845      6700
 4846              	.LASF107:
 4847 0876 6F666673 		.ascii	"offset\000"
 4847      657400
ARM GAS  C:\Users\PCHAUT~1\AppData\Local\Temp\cctXY9od.s 			page 93


 4848              	.LASF96:
 4849 087d 636F6E74 		.ascii	"context\000"
 4849      65787400 
 4850              	.LASF48:
 4851 0885 705F6D73 		.ascii	"p_msg\000"
 4851      6700
 4852              	.LASF75:
 4853 088b 76745F70 		.ascii	"vt_par\000"
 4853      617200
 4854              	.LASF98:
 4855 0892 73655F74 		.ascii	"se_time\000"
 4855      696D6500 
 4856              	.LASF143:
 4857 089a 63665F6F 		.ascii	"cf_off_ctx\000"
 4857      66665F63 
 4857      747800
 4858              	.LASF129:
 4859 08a5 63685F6D 		.ascii	"ch_mutex\000"
 4859      75746578 
 4859      00
 4860              	.LASF43:
 4861 08ae 705F7265 		.ascii	"p_refs\000"
 4861      667300
 4862              	.LASF82:
 4863 08b5 6973725F 		.ascii	"isr_cnt\000"
 4863      636E7400 
 4864              	.LASF101:
 4865 08bd 73655F73 		.ascii	"se_state\000"
 4865      74617465 
 4865      00
 4866              	.LASF167:
 4867 08c6 63685365 		.ascii	"chSemResetI\000"
 4867      6D526573 
 4867      65744900 
 4868              	.LASF87:
 4869 08d2 726C6973 		.ascii	"rlist\000"
 4869      7400
 4870              	.LASF15:
 4871 08d8 75696E74 		.ascii	"uint8_t\000"
 4871      385F7400 
 4872              	.LASF54:
 4873 08e0 74687265 		.ascii	"thread_reference_t\000"
 4873      61645F72 
 4873      65666572 
 4873      656E6365 
 4873      5F7400
 4874              	.LASF121:
 4875 08f3 77746F62 		.ascii	"wtobjp\000"
 4875      6A7000
 4876              	.LASF39:
 4877 08fa 705F6E61 		.ascii	"p_name\000"
 4877      6D6500
 4878              	.LASF78:
 4879 0901 76745F73 		.ascii	"vt_systime\000"
 4879      79737469 
 4879      6D6500
 4880              	.LASF84:
ARM GAS  C:\Users\PCHAUT~1\AppData\Local\Temp\cctXY9od.s 			page 94


 4881 090c 74726163 		.ascii	"trace_buffer\000"
 4881      655F6275 
 4881      66666572 
 4881      00
 4882              	.LASF172:
 4883 0919 63685379 		.ascii	"chSysUnlock\000"
 4883      73556E6C 
 4883      6F636B00 
 4884              	.LASF138:
 4885 0925 63685F76 		.ascii	"ch_version\000"
 4885      65727369 
 4885      6F6E00
 4886              	.LASF116:
 4887 0930 6D5F6372 		.ascii	"m_crit_thd\000"
 4887      69745F74 
 4887      686400
 4888              	.LASF131:
 4889 093b 6D5F6F77 		.ascii	"m_owner\000"
 4889      6E657200 
 4890              	.LASF100:
 4891 0943 73655F77 		.ascii	"se_wtobjp\000"
 4891      746F626A 
 4891      7000
 4892              	.LASF135:
 4893 094d 63685F69 		.ascii	"ch_identifier\000"
 4893      64656E74 
 4893      69666965 
 4893      7200
 4894              	.LASF74:
 4895 095b 76745F66 		.ascii	"vt_func\000"
 4895      756E6300 
 4896              		.ident	"GCC: (GNU Tools for Arm Embedded Processors 7-2017-q4-major) 7.2.1 20170904 (release) [ARM
ARM GAS  C:\Users\PCHAUT~1\AppData\Local\Temp\cctXY9od.s 			page 95


DEFINED SYMBOLS
                            *ABS*:00000000 chsem.c
C:\Users\PCHAUT~1\AppData\Local\Temp\cctXY9od.s:18     .text.port_lock:00000000 $t
C:\Users\PCHAUT~1\AppData\Local\Temp\cctXY9od.s:25     .text.port_lock:00000000 port_lock
C:\Users\PCHAUT~1\AppData\Local\Temp\cctXY9od.s:72     .text.port_lock:0000002c $d
C:\Users\PCHAUT~1\AppData\Local\Temp\cctXY9od.s:77     .text.port_unlock:00000000 $t
C:\Users\PCHAUT~1\AppData\Local\Temp\cctXY9od.s:84     .text.port_unlock:00000000 port_unlock
C:\Users\PCHAUT~1\AppData\Local\Temp\cctXY9od.s:129    .text.port_unlock:0000002c $d
C:\Users\PCHAUT~1\AppData\Local\Temp\cctXY9od.s:134    .text.queue_init:00000000 $t
C:\Users\PCHAUT~1\AppData\Local\Temp\cctXY9od.s:141    .text.queue_init:00000000 queue_init
C:\Users\PCHAUT~1\AppData\Local\Temp\cctXY9od.s:182    .text.queue_init:00000030 $d
C:\Users\PCHAUT~1\AppData\Local\Temp\cctXY9od.s:187    .text.queue_isempty:00000000 $t
C:\Users\PCHAUT~1\AppData\Local\Temp\cctXY9od.s:194    .text.queue_isempty:00000000 queue_isempty
C:\Users\PCHAUT~1\AppData\Local\Temp\cctXY9od.s:235    .text.queue_isempty:00000034 $d
C:\Users\PCHAUT~1\AppData\Local\Temp\cctXY9od.s:240    .text.queue_notempty:00000000 $t
C:\Users\PCHAUT~1\AppData\Local\Temp\cctXY9od.s:247    .text.queue_notempty:00000000 queue_notempty
C:\Users\PCHAUT~1\AppData\Local\Temp\cctXY9od.s:288    .text.queue_notempty:00000034 $d
C:\Users\PCHAUT~1\AppData\Local\Temp\cctXY9od.s:293    .text.queue_insert:00000000 $t
C:\Users\PCHAUT~1\AppData\Local\Temp\cctXY9od.s:300    .text.queue_insert:00000000 queue_insert
C:\Users\PCHAUT~1\AppData\Local\Temp\cctXY9od.s:351    .text.queue_insert:00000040 $d
C:\Users\PCHAUT~1\AppData\Local\Temp\cctXY9od.s:356    .text.queue_fifo_remove:00000000 $t
C:\Users\PCHAUT~1\AppData\Local\Temp\cctXY9od.s:363    .text.queue_fifo_remove:00000000 queue_fifo_remove
C:\Users\PCHAUT~1\AppData\Local\Temp\cctXY9od.s:411    .text.queue_fifo_remove:0000003c $d
C:\Users\PCHAUT~1\AppData\Local\Temp\cctXY9od.s:416    .text.queue_lifo_remove:00000000 $t
C:\Users\PCHAUT~1\AppData\Local\Temp\cctXY9od.s:423    .text.queue_lifo_remove:00000000 queue_lifo_remove
C:\Users\PCHAUT~1\AppData\Local\Temp\cctXY9od.s:471    .text.queue_lifo_remove:0000003c $d
C:\Users\PCHAUT~1\AppData\Local\Temp\cctXY9od.s:476    .text.chSysLock:00000000 $t
C:\Users\PCHAUT~1\AppData\Local\Temp\cctXY9od.s:483    .text.chSysLock:00000000 chSysLock
C:\Users\PCHAUT~1\AppData\Local\Temp\cctXY9od.s:521    .text.chSysLock:0000002c $d
C:\Users\PCHAUT~1\AppData\Local\Temp\cctXY9od.s:526    .text.chSysUnlock:00000000 $t
C:\Users\PCHAUT~1\AppData\Local\Temp\cctXY9od.s:533    .text.chSysUnlock:00000000 chSysUnlock
C:\Users\PCHAUT~1\AppData\Local\Temp\cctXY9od.s:589    .text.chSysUnlock:0000004c $d
C:\Users\PCHAUT~1\AppData\Local\Temp\cctXY9od.s:1780   .rodata.__func__.7153:00000000 __func__.7153
C:\Users\PCHAUT~1\AppData\Local\Temp\cctXY9od.s:596    .text.chSemObjectInit:00000000 $t
C:\Users\PCHAUT~1\AppData\Local\Temp\cctXY9od.s:604    .text.chSemObjectInit:00000000 chSemObjectInit
C:\Users\PCHAUT~1\AppData\Local\Temp\cctXY9od.s:659    .text.chSemObjectInit:00000044 $d
C:\Users\PCHAUT~1\AppData\Local\Temp\cctXY9od.s:1774   .rodata.__func__.7850:00000000 __func__.7850
C:\Users\PCHAUT~1\AppData\Local\Temp\cctXY9od.s:665    .text.chSemReset:00000000 $t
C:\Users\PCHAUT~1\AppData\Local\Temp\cctXY9od.s:673    .text.chSemReset:00000000 chSemReset
C:\Users\PCHAUT~1\AppData\Local\Temp\cctXY9od.s:729    .text.chSemResetI:00000000 chSemResetI
C:\Users\PCHAUT~1\AppData\Local\Temp\cctXY9od.s:716    .text.chSemReset:00000038 $d
C:\Users\PCHAUT~1\AppData\Local\Temp\cctXY9od.s:721    .text.chSemResetI:00000000 $t
C:\Users\PCHAUT~1\AppData\Local\Temp\cctXY9od.s:840    .text.chSemResetI:000000ac $d
C:\Users\PCHAUT~1\AppData\Local\Temp\cctXY9od.s:1786   .rodata.__func__.7860:00000000 __func__.7860
C:\Users\PCHAUT~1\AppData\Local\Temp\cctXY9od.s:846    .text.chSemWait:00000000 $t
C:\Users\PCHAUT~1\AppData\Local\Temp\cctXY9od.s:854    .text.chSemWait:00000000 chSemWait
C:\Users\PCHAUT~1\AppData\Local\Temp\cctXY9od.s:909    .text.chSemWaitS:00000000 chSemWaitS
C:\Users\PCHAUT~1\AppData\Local\Temp\cctXY9od.s:896    .text.chSemWait:00000034 $d
C:\Users\PCHAUT~1\AppData\Local\Temp\cctXY9od.s:901    .text.chSemWaitS:00000000 $t
C:\Users\PCHAUT~1\AppData\Local\Temp\cctXY9od.s:1019   .text.chSemWaitS:000000a8 $d
C:\Users\PCHAUT~1\AppData\Local\Temp\cctXY9od.s:1792   .rodata.__func__.7871:00000000 __func__.7871
C:\Users\PCHAUT~1\AppData\Local\Temp\cctXY9od.s:1026   .text.chSemWaitTimeout:00000000 $t
C:\Users\PCHAUT~1\AppData\Local\Temp\cctXY9od.s:1034   .text.chSemWaitTimeout:00000000 chSemWaitTimeout
C:\Users\PCHAUT~1\AppData\Local\Temp\cctXY9od.s:1091   .text.chSemWaitTimeoutS:00000000 chSemWaitTimeoutS
C:\Users\PCHAUT~1\AppData\Local\Temp\cctXY9od.s:1078   .text.chSemWaitTimeout:00000038 $d
C:\Users\PCHAUT~1\AppData\Local\Temp\cctXY9od.s:1083   .text.chSemWaitTimeoutS:00000000 $t
C:\Users\PCHAUT~1\AppData\Local\Temp\cctXY9od.s:1214   .text.chSemWaitTimeoutS:000000c0 $d
ARM GAS  C:\Users\PCHAUT~1\AppData\Local\Temp\cctXY9od.s 			page 96


C:\Users\PCHAUT~1\AppData\Local\Temp\cctXY9od.s:1798   .rodata.__func__.7881:00000000 __func__.7881
C:\Users\PCHAUT~1\AppData\Local\Temp\cctXY9od.s:1221   .text.chSemSignal:00000000 $t
C:\Users\PCHAUT~1\AppData\Local\Temp\cctXY9od.s:1229   .text.chSemSignal:00000000 chSemSignal
C:\Users\PCHAUT~1\AppData\Local\Temp\cctXY9od.s:1326   .text.chSemSignal:00000098 $d
C:\Users\PCHAUT~1\AppData\Local\Temp\cctXY9od.s:1804   .rodata.__func__.7885:00000000 __func__.7885
C:\Users\PCHAUT~1\AppData\Local\Temp\cctXY9od.s:1332   .text.chSemSignalI:00000000 $t
C:\Users\PCHAUT~1\AppData\Local\Temp\cctXY9od.s:1340   .text.chSemSignalI:00000000 chSemSignalI
C:\Users\PCHAUT~1\AppData\Local\Temp\cctXY9od.s:1441   .text.chSemSignalI:00000098 $d
C:\Users\PCHAUT~1\AppData\Local\Temp\cctXY9od.s:1810   .rodata.__func__.7889:00000000 __func__.7889
C:\Users\PCHAUT~1\AppData\Local\Temp\cctXY9od.s:1447   .text.chSemAddCounterI:00000000 $t
C:\Users\PCHAUT~1\AppData\Local\Temp\cctXY9od.s:1455   .text.chSemAddCounterI:00000000 chSemAddCounterI
C:\Users\PCHAUT~1\AppData\Local\Temp\cctXY9od.s:1569   .text.chSemAddCounterI:000000b0 $d
C:\Users\PCHAUT~1\AppData\Local\Temp\cctXY9od.s:1816   .rodata.__func__.7895:00000000 __func__.7895
C:\Users\PCHAUT~1\AppData\Local\Temp\cctXY9od.s:1575   .text.chSemSignalWait:00000000 $t
C:\Users\PCHAUT~1\AppData\Local\Temp\cctXY9od.s:1583   .text.chSemSignalWait:00000000 chSemSignalWait
C:\Users\PCHAUT~1\AppData\Local\Temp\cctXY9od.s:1764   .text.chSemSignalWait:00000124 $d
C:\Users\PCHAUT~1\AppData\Local\Temp\cctXY9od.s:1822   .rodata.__func__.7904:00000000 __func__.7904
C:\Users\PCHAUT~1\AppData\Local\Temp\cctXY9od.s:1771   .rodata.__func__.7850:00000000 $d
C:\Users\PCHAUT~1\AppData\Local\Temp\cctXY9od.s:1777   .rodata.__func__.7153:00000000 $d
C:\Users\PCHAUT~1\AppData\Local\Temp\cctXY9od.s:1783   .rodata.__func__.7860:00000000 $d
C:\Users\PCHAUT~1\AppData\Local\Temp\cctXY9od.s:1789   .rodata.__func__.7871:00000000 $d
C:\Users\PCHAUT~1\AppData\Local\Temp\cctXY9od.s:1795   .rodata.__func__.7881:00000000 $d
C:\Users\PCHAUT~1\AppData\Local\Temp\cctXY9od.s:1801   .rodata.__func__.7885:00000000 $d
C:\Users\PCHAUT~1\AppData\Local\Temp\cctXY9od.s:1807   .rodata.__func__.7889:00000000 $d
C:\Users\PCHAUT~1\AppData\Local\Temp\cctXY9od.s:1813   .rodata.__func__.7895:00000000 $d
C:\Users\PCHAUT~1\AppData\Local\Temp\cctXY9od.s:1819   .rodata.__func__.7904:00000000 $d

UNDEFINED SYMBOLS
__stack_chk_fail
__stack_chk_guard
_stats_start_measure_crit_thd
_dbg_check_lock
_dbg_check_unlock
_stats_stop_measure_crit_thd
chSysHalt
ch
chSchRescheduleS
chDbgCheckClassI
chSchReadyI
chDbgCheckClassS
chSchGoSleepS
chSchGoSleepTimeoutS
chSchWakeupS
