ARM GAS  C:\Users\PCHAUT~1\AppData\Local\Temp\cctRi1rp.s 			page 1


   1              		.cpu cortex-m4
   2              		.eabi_attribute 27, 1
   3              		.eabi_attribute 28, 1
   4              		.eabi_attribute 20, 1
   5              		.eabi_attribute 21, 1
   6              		.eabi_attribute 23, 3
   7              		.eabi_attribute 24, 1
   8              		.eabi_attribute 25, 1
   9              		.eabi_attribute 26, 1
  10              		.eabi_attribute 30, 6
  11              		.eabi_attribute 34, 1
  12              		.eabi_attribute 18, 4
  13              		.file	"chstats.c"
  14              		.text
  15              	.Ltext0:
  16              		.cfi_sections	.debug_frame
  17              		.section	.text._stats_init,"ax",%progbits
  18              		.align	1
  19              		.p2align 4,,15
  20              		.global	_stats_init
  21              		.syntax unified
  22              		.thumb
  23              		.thumb_func
  24              		.fpu fpv4-sp-d16
  25              		.type	_stats_init, %function
  26              	_stats_init:
  27              	.LFB219:
  28              		.file 1 "../lib/e-puck2_main-processor/ChibiOS//os/rt/src/chstats.c"
  29              		.loc 1 62 0
  30              		.cfi_startproc
  31              		@ args = 0, pretend = 0, frame = 8
  32              		@ frame_needed = 0, uses_anonymous_args = 0
  33 0000 00B5     		push	{lr}
  34              		.cfi_def_cfa_offset 4
  35              		.cfi_offset 14, -4
  36 0002 83B0     		sub	sp, sp, #12
  37              		.cfi_def_cfa_offset 16
  38              		.loc 1 62 0
  39 0004 0D4B     		ldr	r3, .L3
  40 0006 1B68     		ldr	r3, [r3]
  41 0008 0193     		str	r3, [sp, #4]
  42              		.loc 1 64 0
  43 000a 0D4B     		ldr	r3, .L3+4
  44 000c 0022     		movs	r2, #0
  45 000e C3F8B024 		str	r2, [r3, #1200]
  46              		.loc 1 65 0
  47 0012 0B4B     		ldr	r3, .L3+4
  48 0014 0022     		movs	r2, #0
  49 0016 C3F8B424 		str	r2, [r3, #1204]
  50              		.loc 1 66 0
  51 001a 0A48     		ldr	r0, .L3+8
  52 001c FFF7FEFF 		bl	chTMObjectInit
  53              		.loc 1 67 0
  54 0020 0948     		ldr	r0, .L3+12
  55 0022 FFF7FEFF 		bl	chTMObjectInit
  56              		.loc 1 68 0
  57 0026 00BF     		nop
ARM GAS  C:\Users\PCHAUT~1\AppData\Local\Temp\cctRi1rp.s 			page 2


  58 0028 044B     		ldr	r3, .L3
  59 002a 019A     		ldr	r2, [sp, #4]
  60 002c 1B68     		ldr	r3, [r3]
  61 002e 9A42     		cmp	r2, r3
  62 0030 01D0     		beq	.L2
  63 0032 FFF7FEFF 		bl	__stack_chk_fail
  64              	.L2:
  65 0036 03B0     		add	sp, sp, #12
  66              		.cfi_def_cfa_offset 4
  67              		@ sp needed
  68 0038 5DF804FB 		ldr	pc, [sp], #4
  69              	.L4:
  70              		.align	2
  71              	.L3:
  72 003c 00000000 		.word	__stack_chk_guard
  73 0040 00000000 		.word	ch
  74 0044 B8040000 		.word	ch+1208
  75 0048 D0040000 		.word	ch+1232
  76              		.cfi_endproc
  77              	.LFE219:
  78              		.size	_stats_init, .-_stats_init
  79              		.section	.text._stats_increase_irq,"ax",%progbits
  80              		.align	1
  81              		.p2align 4,,15
  82              		.global	_stats_increase_irq
  83              		.syntax unified
  84              		.thumb
  85              		.thumb_func
  86              		.fpu fpv4-sp-d16
  87              		.type	_stats_increase_irq, %function
  88              	_stats_increase_irq:
  89              	.LFB220:
  90              		.loc 1 73 0
  91              		.cfi_startproc
  92              		@ args = 0, pretend = 0, frame = 8
  93              		@ frame_needed = 0, uses_anonymous_args = 0
  94 0000 00B5     		push	{lr}
  95              		.cfi_def_cfa_offset 4
  96              		.cfi_offset 14, -4
  97 0002 83B0     		sub	sp, sp, #12
  98              		.cfi_def_cfa_offset 16
  99              		.loc 1 73 0
 100 0004 0A4B     		ldr	r3, .L7
 101 0006 1B68     		ldr	r3, [r3]
 102 0008 0193     		str	r3, [sp, #4]
 103              		.loc 1 75 0
 104 000a 0A4B     		ldr	r3, .L7+4
 105 000c D3F8B034 		ldr	r3, [r3, #1200]
 106 0010 0133     		adds	r3, r3, #1
 107 0012 084A     		ldr	r2, .L7+4
 108 0014 C2F8B034 		str	r3, [r2, #1200]
 109              		.loc 1 76 0
 110 0018 00BF     		nop
 111 001a 054B     		ldr	r3, .L7
 112 001c 019A     		ldr	r2, [sp, #4]
 113 001e 1B68     		ldr	r3, [r3]
 114 0020 9A42     		cmp	r2, r3
ARM GAS  C:\Users\PCHAUT~1\AppData\Local\Temp\cctRi1rp.s 			page 3


 115 0022 01D0     		beq	.L6
 116 0024 FFF7FEFF 		bl	__stack_chk_fail
 117              	.L6:
 118 0028 03B0     		add	sp, sp, #12
 119              		.cfi_def_cfa_offset 4
 120              		@ sp needed
 121 002a 5DF804FB 		ldr	pc, [sp], #4
 122              	.L8:
 123 002e 00BF     		.align	2
 124              	.L7:
 125 0030 00000000 		.word	__stack_chk_guard
 126 0034 00000000 		.word	ch
 127              		.cfi_endproc
 128              	.LFE220:
 129              		.size	_stats_increase_irq, .-_stats_increase_irq
 130              		.section	.text._stats_ctxswc,"ax",%progbits
 131              		.align	1
 132              		.p2align 4,,15
 133              		.global	_stats_ctxswc
 134              		.syntax unified
 135              		.thumb
 136              		.thumb_func
 137              		.fpu fpv4-sp-d16
 138              		.type	_stats_ctxswc, %function
 139              	_stats_ctxswc:
 140              	.LFB221:
 141              		.loc 1 84 0
 142              		.cfi_startproc
 143              		@ args = 0, pretend = 0, frame = 16
 144              		@ frame_needed = 0, uses_anonymous_args = 0
 145 0000 00B5     		push	{lr}
 146              		.cfi_def_cfa_offset 4
 147              		.cfi_offset 14, -4
 148 0002 85B0     		sub	sp, sp, #20
 149              		.cfi_def_cfa_offset 24
 150 0004 0190     		str	r0, [sp, #4]
 151 0006 0091     		str	r1, [sp]
 152              		.loc 1 84 0
 153 0008 0E4B     		ldr	r3, .L11
 154 000a 1B68     		ldr	r3, [r3]
 155 000c 0393     		str	r3, [sp, #12]
 156              		.loc 1 86 0
 157 000e 0E4B     		ldr	r3, .L11+4
 158 0010 D3F8B434 		ldr	r3, [r3, #1204]
 159 0014 0133     		adds	r3, r3, #1
 160 0016 0C4A     		ldr	r2, .L11+4
 161 0018 C2F8B434 		str	r3, [r2, #1204]
 162              		.loc 1 87 0
 163 001c 009B     		ldr	r3, [sp]
 164 001e 03F15002 		add	r2, r3, #80
 165 0022 019B     		ldr	r3, [sp, #4]
 166 0024 5033     		adds	r3, r3, #80
 167 0026 1946     		mov	r1, r3
 168 0028 1046     		mov	r0, r2
 169 002a FFF7FEFF 		bl	chTMChainMeasurementToX
 170              		.loc 1 88 0
 171 002e 00BF     		nop
ARM GAS  C:\Users\PCHAUT~1\AppData\Local\Temp\cctRi1rp.s 			page 4


 172 0030 044B     		ldr	r3, .L11
 173 0032 039A     		ldr	r2, [sp, #12]
 174 0034 1B68     		ldr	r3, [r3]
 175 0036 9A42     		cmp	r2, r3
 176 0038 01D0     		beq	.L10
 177 003a FFF7FEFF 		bl	__stack_chk_fail
 178              	.L10:
 179 003e 05B0     		add	sp, sp, #20
 180              		.cfi_def_cfa_offset 4
 181              		@ sp needed
 182 0040 5DF804FB 		ldr	pc, [sp], #4
 183              	.L12:
 184              		.align	2
 185              	.L11:
 186 0044 00000000 		.word	__stack_chk_guard
 187 0048 00000000 		.word	ch
 188              		.cfi_endproc
 189              	.LFE221:
 190              		.size	_stats_ctxswc, .-_stats_ctxswc
 191              		.section	.text._stats_start_measure_crit_thd,"ax",%progbits
 192              		.align	1
 193              		.p2align 4,,15
 194              		.global	_stats_start_measure_crit_thd
 195              		.syntax unified
 196              		.thumb
 197              		.thumb_func
 198              		.fpu fpv4-sp-d16
 199              		.type	_stats_start_measure_crit_thd, %function
 200              	_stats_start_measure_crit_thd:
 201              	.LFB222:
 202              		.loc 1 93 0
 203              		.cfi_startproc
 204              		@ args = 0, pretend = 0, frame = 8
 205              		@ frame_needed = 0, uses_anonymous_args = 0
 206 0000 00B5     		push	{lr}
 207              		.cfi_def_cfa_offset 4
 208              		.cfi_offset 14, -4
 209 0002 83B0     		sub	sp, sp, #12
 210              		.cfi_def_cfa_offset 16
 211              		.loc 1 93 0
 212 0004 084B     		ldr	r3, .L15
 213 0006 1B68     		ldr	r3, [r3]
 214 0008 0193     		str	r3, [sp, #4]
 215              		.loc 1 95 0
 216 000a 0848     		ldr	r0, .L15+4
 217 000c FFF7FEFF 		bl	chTMStartMeasurementX
 218              		.loc 1 96 0
 219 0010 00BF     		nop
 220 0012 054B     		ldr	r3, .L15
 221 0014 019A     		ldr	r2, [sp, #4]
 222 0016 1B68     		ldr	r3, [r3]
 223 0018 9A42     		cmp	r2, r3
 224 001a 01D0     		beq	.L14
 225 001c FFF7FEFF 		bl	__stack_chk_fail
 226              	.L14:
 227 0020 03B0     		add	sp, sp, #12
 228              		.cfi_def_cfa_offset 4
ARM GAS  C:\Users\PCHAUT~1\AppData\Local\Temp\cctRi1rp.s 			page 5


 229              		@ sp needed
 230 0022 5DF804FB 		ldr	pc, [sp], #4
 231              	.L16:
 232 0026 00BF     		.align	2
 233              	.L15:
 234 0028 00000000 		.word	__stack_chk_guard
 235 002c B8040000 		.word	ch+1208
 236              		.cfi_endproc
 237              	.LFE222:
 238              		.size	_stats_start_measure_crit_thd, .-_stats_start_measure_crit_thd
 239              		.section	.text._stats_stop_measure_crit_thd,"ax",%progbits
 240              		.align	1
 241              		.p2align 4,,15
 242              		.global	_stats_stop_measure_crit_thd
 243              		.syntax unified
 244              		.thumb
 245              		.thumb_func
 246              		.fpu fpv4-sp-d16
 247              		.type	_stats_stop_measure_crit_thd, %function
 248              	_stats_stop_measure_crit_thd:
 249              	.LFB223:
 250              		.loc 1 101 0
 251              		.cfi_startproc
 252              		@ args = 0, pretend = 0, frame = 8
 253              		@ frame_needed = 0, uses_anonymous_args = 0
 254 0000 00B5     		push	{lr}
 255              		.cfi_def_cfa_offset 4
 256              		.cfi_offset 14, -4
 257 0002 83B0     		sub	sp, sp, #12
 258              		.cfi_def_cfa_offset 16
 259              		.loc 1 101 0
 260 0004 084B     		ldr	r3, .L19
 261 0006 1B68     		ldr	r3, [r3]
 262 0008 0193     		str	r3, [sp, #4]
 263              		.loc 1 103 0
 264 000a 0848     		ldr	r0, .L19+4
 265 000c FFF7FEFF 		bl	chTMStopMeasurementX
 266              		.loc 1 104 0
 267 0010 00BF     		nop
 268 0012 054B     		ldr	r3, .L19
 269 0014 019A     		ldr	r2, [sp, #4]
 270 0016 1B68     		ldr	r3, [r3]
 271 0018 9A42     		cmp	r2, r3
 272 001a 01D0     		beq	.L18
 273 001c FFF7FEFF 		bl	__stack_chk_fail
 274              	.L18:
 275 0020 03B0     		add	sp, sp, #12
 276              		.cfi_def_cfa_offset 4
 277              		@ sp needed
 278 0022 5DF804FB 		ldr	pc, [sp], #4
 279              	.L20:
 280 0026 00BF     		.align	2
 281              	.L19:
 282 0028 00000000 		.word	__stack_chk_guard
 283 002c B8040000 		.word	ch+1208
 284              		.cfi_endproc
 285              	.LFE223:
ARM GAS  C:\Users\PCHAUT~1\AppData\Local\Temp\cctRi1rp.s 			page 6


 286              		.size	_stats_stop_measure_crit_thd, .-_stats_stop_measure_crit_thd
 287              		.section	.text._stats_start_measure_crit_isr,"ax",%progbits
 288              		.align	1
 289              		.p2align 4,,15
 290              		.global	_stats_start_measure_crit_isr
 291              		.syntax unified
 292              		.thumb
 293              		.thumb_func
 294              		.fpu fpv4-sp-d16
 295              		.type	_stats_start_measure_crit_isr, %function
 296              	_stats_start_measure_crit_isr:
 297              	.LFB224:
 298              		.loc 1 109 0
 299              		.cfi_startproc
 300              		@ args = 0, pretend = 0, frame = 8
 301              		@ frame_needed = 0, uses_anonymous_args = 0
 302 0000 00B5     		push	{lr}
 303              		.cfi_def_cfa_offset 4
 304              		.cfi_offset 14, -4
 305 0002 83B0     		sub	sp, sp, #12
 306              		.cfi_def_cfa_offset 16
 307              		.loc 1 109 0
 308 0004 084B     		ldr	r3, .L23
 309 0006 1B68     		ldr	r3, [r3]
 310 0008 0193     		str	r3, [sp, #4]
 311              		.loc 1 111 0
 312 000a 0848     		ldr	r0, .L23+4
 313 000c FFF7FEFF 		bl	chTMStartMeasurementX
 314              		.loc 1 112 0
 315 0010 00BF     		nop
 316 0012 054B     		ldr	r3, .L23
 317 0014 019A     		ldr	r2, [sp, #4]
 318 0016 1B68     		ldr	r3, [r3]
 319 0018 9A42     		cmp	r2, r3
 320 001a 01D0     		beq	.L22
 321 001c FFF7FEFF 		bl	__stack_chk_fail
 322              	.L22:
 323 0020 03B0     		add	sp, sp, #12
 324              		.cfi_def_cfa_offset 4
 325              		@ sp needed
 326 0022 5DF804FB 		ldr	pc, [sp], #4
 327              	.L24:
 328 0026 00BF     		.align	2
 329              	.L23:
 330 0028 00000000 		.word	__stack_chk_guard
 331 002c D0040000 		.word	ch+1232
 332              		.cfi_endproc
 333              	.LFE224:
 334              		.size	_stats_start_measure_crit_isr, .-_stats_start_measure_crit_isr
 335              		.section	.text._stats_stop_measure_crit_isr,"ax",%progbits
 336              		.align	1
 337              		.p2align 4,,15
 338              		.global	_stats_stop_measure_crit_isr
 339              		.syntax unified
 340              		.thumb
 341              		.thumb_func
 342              		.fpu fpv4-sp-d16
ARM GAS  C:\Users\PCHAUT~1\AppData\Local\Temp\cctRi1rp.s 			page 7


 343              		.type	_stats_stop_measure_crit_isr, %function
 344              	_stats_stop_measure_crit_isr:
 345              	.LFB225:
 346              		.loc 1 117 0
 347              		.cfi_startproc
 348              		@ args = 0, pretend = 0, frame = 8
 349              		@ frame_needed = 0, uses_anonymous_args = 0
 350 0000 00B5     		push	{lr}
 351              		.cfi_def_cfa_offset 4
 352              		.cfi_offset 14, -4
 353 0002 83B0     		sub	sp, sp, #12
 354              		.cfi_def_cfa_offset 16
 355              		.loc 1 117 0
 356 0004 084B     		ldr	r3, .L27
 357 0006 1B68     		ldr	r3, [r3]
 358 0008 0193     		str	r3, [sp, #4]
 359              		.loc 1 119 0
 360 000a 0848     		ldr	r0, .L27+4
 361 000c FFF7FEFF 		bl	chTMStopMeasurementX
 362              		.loc 1 120 0
 363 0010 00BF     		nop
 364 0012 054B     		ldr	r3, .L27
 365 0014 019A     		ldr	r2, [sp, #4]
 366 0016 1B68     		ldr	r3, [r3]
 367 0018 9A42     		cmp	r2, r3
 368 001a 01D0     		beq	.L26
 369 001c FFF7FEFF 		bl	__stack_chk_fail
 370              	.L26:
 371 0020 03B0     		add	sp, sp, #12
 372              		.cfi_def_cfa_offset 4
 373              		@ sp needed
 374 0022 5DF804FB 		ldr	pc, [sp], #4
 375              	.L28:
 376 0026 00BF     		.align	2
 377              	.L27:
 378 0028 00000000 		.word	__stack_chk_guard
 379 002c D0040000 		.word	ch+1232
 380              		.cfi_endproc
 381              	.LFE225:
 382              		.size	_stats_stop_measure_crit_isr, .-_stats_stop_measure_crit_isr
 383              		.text
 384              	.Letext0:
 385              		.file 2 "c:\\users\\pchautems\\documents\\robotiquetp\\eclipse_e-puck2\\tools\\gcc-arm-none-eabi-7
 386              		.file 3 "c:\\users\\pchautems\\documents\\robotiquetp\\eclipse_e-puck2\\tools\\gcc-arm-none-eabi-7
 387              		.file 4 "../lib/e-puck2_main-processor/ChibiOS//os/rt/ports/ARMCMx/compilers/GCC/chtypes.h"
 388              		.file 5 "../lib/e-puck2_main-processor/ChibiOS//os/rt/include/chsystypes.h"
 389              		.file 6 "../lib/e-puck2_main-processor/ChibiOS//os/rt/include/chschd.h"
 390              		.file 7 "../lib/e-puck2_main-processor/ChibiOS//os/ext/CMSIS/include/core_cm4.h"
 391              		.file 8 "../lib/e-puck2_main-processor/ChibiOS//os/ext/CMSIS/ST/system_stm32f4xx.h"
 392              		.file 9 "../lib/e-puck2_main-processor/ChibiOS//os/rt/ports/ARMCMx/chcore.h"
 393              		.file 10 "../lib/e-puck2_main-processor/ChibiOS//os/rt/ports/ARMCMx/chcore_v7m.h"
 394              		.file 11 "../lib/e-puck2_main-processor/ChibiOS//os/rt/include/chdebug.h"
 395              		.file 12 "../lib/e-puck2_main-processor/ChibiOS//os/rt/include/chtm.h"
 396              		.file 13 "../lib/e-puck2_main-processor/ChibiOS//os/rt/include/chstats.h"
 397              		.file 14 "../lib/e-puck2_main-processor/ChibiOS//os/rt/include/chsem.h"
 398              		.file 15 "../lib/e-puck2_main-processor/ChibiOS//os/rt/include/chmtx.h"
 399              		.file 16 "../lib/e-puck2_main-processor/ChibiOS//os/rt/include/chregistry.h"
ARM GAS  C:\Users\PCHAUT~1\AppData\Local\Temp\cctRi1rp.s 			page 8

