ARM GAS  C:\Users\PCHAUT~1\AppData\Local\Temp\cc4SCmsi.s 			page 1


   1              		.cpu cortex-m4
   2              		.eabi_attribute 27, 1
   3              		.eabi_attribute 28, 1
   4              		.eabi_attribute 20, 1
   5              		.eabi_attribute 21, 1
   6              		.eabi_attribute 23, 3
   7              		.eabi_attribute 24, 1
   8              		.eabi_attribute 25, 1
   9              		.eabi_attribute 26, 1
  10              		.eabi_attribute 30, 6
  11              		.eabi_attribute 34, 1
  12              		.eabi_attribute 18, 4
  13              		.file	"chvt.c"
  14              		.text
  15              	.Ltext0:
  16              		.cfi_sections	.debug_frame
  17              		.section	.text._vt_init,"ax",%progbits
  18              		.align	1
  19              		.p2align 4,,15
  20              		.global	_vt_init
  21              		.syntax unified
  22              		.thumb
  23              		.thumb_func
  24              		.fpu fpv4-sp-d16
  25              		.type	_vt_init, %function
  26              	_vt_init:
  27              	.LFB219:
  28              		.file 1 "../lib/e-puck2_main-processor/ChibiOS//os/rt/src/chvt.c"
  29              		.loc 1 61 0
  30              		.cfi_startproc
  31              		@ args = 0, pretend = 0, frame = 8
  32              		@ frame_needed = 0, uses_anonymous_args = 0
  33 0000 00B5     		push	{lr}
  34              		.cfi_def_cfa_offset 4
  35              		.cfi_offset 14, -4
  36 0002 83B0     		sub	sp, sp, #12
  37              		.cfi_def_cfa_offset 16
  38              		.loc 1 61 0
  39 0004 0D4B     		ldr	r3, .L3
  40 0006 1B68     		ldr	r3, [r3]
  41 0008 0193     		str	r3, [sp, #4]
  42              		.loc 1 63 0
  43 000a 0D4B     		ldr	r3, .L3+4
  44 000c 0D4A     		ldr	r2, .L3+8
  45 000e DA61     		str	r2, [r3, #28]
  46              		.loc 1 64 0
  47 0010 0B4B     		ldr	r3, .L3+4
  48 0012 0C4A     		ldr	r2, .L3+8
  49 0014 1A62     		str	r2, [r3, #32]
  50              		.loc 1 65 0
  51 0016 0A4B     		ldr	r3, .L3+4
  52 0018 4FF0FF32 		mov	r2, #-1
  53 001c 5A62     		str	r2, [r3, #36]
  54              		.loc 1 67 0
  55 001e 084B     		ldr	r3, .L3+4
  56 0020 0022     		movs	r2, #0
  57 0022 9A62     		str	r2, [r3, #40]
ARM GAS  C:\Users\PCHAUT~1\AppData\Local\Temp\cc4SCmsi.s 			page 2


  58              		.loc 1 71 0
  59 0024 00BF     		nop
  60 0026 054B     		ldr	r3, .L3
  61 0028 019A     		ldr	r2, [sp, #4]
  62 002a 1B68     		ldr	r3, [r3]
  63 002c 9A42     		cmp	r2, r3
  64 002e 01D0     		beq	.L2
  65 0030 FFF7FEFF 		bl	__stack_chk_fail
  66              	.L2:
  67 0034 03B0     		add	sp, sp, #12
  68              		.cfi_def_cfa_offset 4
  69              		@ sp needed
  70 0036 5DF804FB 		ldr	pc, [sp], #4
  71              	.L4:
  72 003a 00BF     		.align	2
  73              	.L3:
  74 003c 00000000 		.word	__stack_chk_guard
  75 0040 00000000 		.word	ch
  76 0044 1C000000 		.word	ch+28
  77              		.cfi_endproc
  78              	.LFE219:
  79              		.size	_vt_init, .-_vt_init
  80              		.section	.text.chVTDoSetI,"ax",%progbits
  81              		.align	1
  82              		.p2align 4,,15
  83              		.global	chVTDoSetI
  84              		.syntax unified
  85              		.thumb
  86              		.thumb_func
  87              		.fpu fpv4-sp-d16
  88              		.type	chVTDoSetI, %function
  89              	chVTDoSetI:
  90              	.LFB220:
  91              		.loc 1 96 0
  92              		.cfi_startproc
  93              		@ args = 0, pretend = 0, frame = 32
  94              		@ frame_needed = 0, uses_anonymous_args = 0
  95 0000 00B5     		push	{lr}
  96              		.cfi_def_cfa_offset 4
  97              		.cfi_offset 14, -4
  98 0002 89B0     		sub	sp, sp, #36
  99              		.cfi_def_cfa_offset 40
 100 0004 0390     		str	r0, [sp, #12]
 101 0006 0291     		str	r1, [sp, #8]
 102 0008 0192     		str	r2, [sp, #4]
 103 000a 0093     		str	r3, [sp]
 104              		.loc 1 96 0
 105 000c 284B     		ldr	r3, .L11
 106 000e 1B68     		ldr	r3, [r3]
 107 0010 0793     		str	r3, [sp, #28]
 108              		.loc 1 100 0
 109 0012 FFF7FEFF 		bl	chDbgCheckClassI
 110              		.loc 1 101 0
 111 0016 039B     		ldr	r3, [sp, #12]
 112 0018 002B     		cmp	r3, #0
 113 001a 05D0     		beq	.L6
 114              		.loc 1 101 0 is_stmt 0 discriminator 3
ARM GAS  C:\Users\PCHAUT~1\AppData\Local\Temp\cc4SCmsi.s 			page 3


 115 001c 019B     		ldr	r3, [sp, #4]
 116 001e 002B     		cmp	r3, #0
 117 0020 02D0     		beq	.L6
 118              		.loc 1 101 0 discriminator 5
 119 0022 029B     		ldr	r3, [sp, #8]
 120 0024 002B     		cmp	r3, #0
 121 0026 02D1     		bne	.L7
 122              	.L6:
 123              		.loc 1 101 0 discriminator 6
 124 0028 2248     		ldr	r0, .L11+4
 125 002a FFF7FEFF 		bl	chSysHalt
 126              	.L7:
 127              		.loc 1 103 0 is_stmt 1
 128 002e 039B     		ldr	r3, [sp, #12]
 129 0030 009A     		ldr	r2, [sp]
 130 0032 1A61     		str	r2, [r3, #16]
 131              		.loc 1 104 0
 132 0034 039B     		ldr	r3, [sp, #12]
 133 0036 019A     		ldr	r2, [sp, #4]
 134 0038 DA60     		str	r2, [r3, #12]
 135              		.loc 1 145 0
 136 003a 029B     		ldr	r3, [sp, #8]
 137 003c 0693     		str	r3, [sp, #24]
 138              		.loc 1 150 0
 139 003e 1E4B     		ldr	r3, .L11+8
 140 0040 DB69     		ldr	r3, [r3, #28]
 141 0042 0593     		str	r3, [sp, #20]
 142              		.loc 1 151 0
 143 0044 07E0     		b	.L8
 144              	.L9:
 145              		.loc 1 152 0
 146 0046 059B     		ldr	r3, [sp, #20]
 147 0048 9B68     		ldr	r3, [r3, #8]
 148 004a 069A     		ldr	r2, [sp, #24]
 149 004c D31A     		subs	r3, r2, r3
 150 004e 0693     		str	r3, [sp, #24]
 151              		.loc 1 153 0
 152 0050 059B     		ldr	r3, [sp, #20]
 153 0052 1B68     		ldr	r3, [r3]
 154 0054 0593     		str	r3, [sp, #20]
 155              	.L8:
 156              		.loc 1 151 0
 157 0056 059B     		ldr	r3, [sp, #20]
 158 0058 9B68     		ldr	r3, [r3, #8]
 159 005a 069A     		ldr	r2, [sp, #24]
 160 005c 9A42     		cmp	r2, r3
 161 005e F2D8     		bhi	.L9
 162              		.loc 1 157 0
 163 0060 039B     		ldr	r3, [sp, #12]
 164 0062 059A     		ldr	r2, [sp, #20]
 165 0064 1A60     		str	r2, [r3]
 166              		.loc 1 158 0
 167 0066 039B     		ldr	r3, [sp, #12]
 168 0068 1B68     		ldr	r3, [r3]
 169 006a 5A68     		ldr	r2, [r3, #4]
 170 006c 039B     		ldr	r3, [sp, #12]
 171 006e 5A60     		str	r2, [r3, #4]
ARM GAS  C:\Users\PCHAUT~1\AppData\Local\Temp\cc4SCmsi.s 			page 4


 172              		.loc 1 159 0
 173 0070 039B     		ldr	r3, [sp, #12]
 174 0072 5B68     		ldr	r3, [r3, #4]
 175 0074 039A     		ldr	r2, [sp, #12]
 176 0076 1A60     		str	r2, [r3]
 177              		.loc 1 160 0
 178 0078 059B     		ldr	r3, [sp, #20]
 179 007a 039A     		ldr	r2, [sp, #12]
 180 007c 5A60     		str	r2, [r3, #4]
 181              		.loc 1 161 0
 182 007e 039B     		ldr	r3, [sp, #12]
 183 0080 069A     		ldr	r2, [sp, #24]
 184 0082 9A60     		str	r2, [r3, #8]
 185              		.loc 1 165 0
 186 0084 059B     		ldr	r3, [sp, #20]
 187 0086 9A68     		ldr	r2, [r3, #8]
 188 0088 069B     		ldr	r3, [sp, #24]
 189 008a D21A     		subs	r2, r2, r3
 190 008c 059B     		ldr	r3, [sp, #20]
 191 008e 9A60     		str	r2, [r3, #8]
 192              		.loc 1 166 0
 193 0090 094B     		ldr	r3, .L11+8
 194 0092 4FF0FF32 		mov	r2, #-1
 195 0096 5A62     		str	r2, [r3, #36]
 196              		.loc 1 167 0
 197 0098 00BF     		nop
 198 009a 054B     		ldr	r3, .L11
 199 009c 079A     		ldr	r2, [sp, #28]
 200 009e 1B68     		ldr	r3, [r3]
 201 00a0 9A42     		cmp	r2, r3
 202 00a2 01D0     		beq	.L10
 203 00a4 FFF7FEFF 		bl	__stack_chk_fail
 204              	.L10:
 205 00a8 09B0     		add	sp, sp, #36
 206              		.cfi_def_cfa_offset 4
 207              		@ sp needed
 208 00aa 5DF804FB 		ldr	pc, [sp], #4
 209              	.L12:
 210 00ae 00BF     		.align	2
 211              	.L11:
 212 00b0 00000000 		.word	__stack_chk_guard
 213 00b4 00000000 		.word	__func__.7857
 214 00b8 00000000 		.word	ch
 215              		.cfi_endproc
 216              	.LFE220:
 217              		.size	chVTDoSetI, .-chVTDoSetI
 218              		.section	.text.chVTDoResetI,"ax",%progbits
 219              		.align	1
 220              		.p2align 4,,15
 221              		.global	chVTDoResetI
 222              		.syntax unified
 223              		.thumb
 224              		.thumb_func
 225              		.fpu fpv4-sp-d16
 226              		.type	chVTDoResetI, %function
 227              	chVTDoResetI:
 228              	.LFB221:
ARM GAS  C:\Users\PCHAUT~1\AppData\Local\Temp\cc4SCmsi.s 			page 5


 229              		.loc 1 177 0
 230              		.cfi_startproc
 231              		@ args = 0, pretend = 0, frame = 16
 232              		@ frame_needed = 0, uses_anonymous_args = 0
 233 0000 00B5     		push	{lr}
 234              		.cfi_def_cfa_offset 4
 235              		.cfi_offset 14, -4
 236 0002 85B0     		sub	sp, sp, #20
 237              		.cfi_def_cfa_offset 24
 238 0004 0190     		str	r0, [sp, #4]
 239              		.loc 1 177 0
 240 0006 1B4B     		ldr	r3, .L18
 241 0008 1B68     		ldr	r3, [r3]
 242 000a 0393     		str	r3, [sp, #12]
 243              		.loc 1 179 0
 244 000c FFF7FEFF 		bl	chDbgCheckClassI
 245              		.loc 1 180 0
 246 0010 019B     		ldr	r3, [sp, #4]
 247 0012 002B     		cmp	r3, #0
 248 0014 02D1     		bne	.L17
 249              		.loc 1 180 0 is_stmt 0 discriminator 2
 250 0016 1848     		ldr	r0, .L18+4
 251 0018 FFF7FEFF 		bl	chSysHalt
 252              	.L17:
 253              		.loc 1 181 0 is_stmt 1 discriminator 1
 254 001c 019B     		ldr	r3, [sp, #4]
 255 001e DB68     		ldr	r3, [r3, #12]
 256 0020 002B     		cmp	r3, #0
 257 0022 02D1     		bne	.L15
 258              		.loc 1 181 0 is_stmt 0 discriminator 2
 259 0024 1448     		ldr	r0, .L18+4
 260 0026 FFF7FEFF 		bl	chSysHalt
 261              	.L15:
 262              		.loc 1 186 0 is_stmt 1
 263 002a 019B     		ldr	r3, [sp, #4]
 264 002c 1B68     		ldr	r3, [r3]
 265 002e 9968     		ldr	r1, [r3, #8]
 266 0030 019B     		ldr	r3, [sp, #4]
 267 0032 9A68     		ldr	r2, [r3, #8]
 268 0034 019B     		ldr	r3, [sp, #4]
 269 0036 1B68     		ldr	r3, [r3]
 270 0038 0A44     		add	r2, r2, r1
 271 003a 9A60     		str	r2, [r3, #8]
 272              		.loc 1 189 0
 273 003c 019B     		ldr	r3, [sp, #4]
 274 003e 5B68     		ldr	r3, [r3, #4]
 275 0040 019A     		ldr	r2, [sp, #4]
 276 0042 1268     		ldr	r2, [r2]
 277 0044 1A60     		str	r2, [r3]
 278              		.loc 1 190 0
 279 0046 019B     		ldr	r3, [sp, #4]
 280 0048 1B68     		ldr	r3, [r3]
 281 004a 019A     		ldr	r2, [sp, #4]
 282 004c 5268     		ldr	r2, [r2, #4]
 283 004e 5A60     		str	r2, [r3, #4]
 284              		.loc 1 191 0
 285 0050 019B     		ldr	r3, [sp, #4]
ARM GAS  C:\Users\PCHAUT~1\AppData\Local\Temp\cc4SCmsi.s 			page 6


 286 0052 0022     		movs	r2, #0
 287 0054 DA60     		str	r2, [r3, #12]
 288              		.loc 1 195 0
 289 0056 094B     		ldr	r3, .L18+8
 290 0058 4FF0FF32 		mov	r2, #-1
 291 005c 5A62     		str	r2, [r3, #36]
 292              		.loc 1 255 0
 293 005e 00BF     		nop
 294 0060 044B     		ldr	r3, .L18
 295 0062 039A     		ldr	r2, [sp, #12]
 296 0064 1B68     		ldr	r3, [r3]
 297 0066 9A42     		cmp	r2, r3
 298 0068 01D0     		beq	.L16
 299 006a FFF7FEFF 		bl	__stack_chk_fail
 300              	.L16:
 301 006e 05B0     		add	sp, sp, #20
 302              		.cfi_def_cfa_offset 4
 303              		@ sp needed
 304 0070 5DF804FB 		ldr	pc, [sp], #4
 305              	.L19:
 306              		.align	2
 307              	.L18:
 308 0074 00000000 		.word	__stack_chk_guard
 309 0078 00000000 		.word	__func__.7864
 310 007c 00000000 		.word	ch
 311              		.cfi_endproc
 312              	.LFE221:
 313              		.size	chVTDoResetI, .-chVTDoResetI
 314              		.section	.rodata.__func__.7857,"a",%progbits
 315              		.align	2
 316              		.type	__func__.7857, %object
 317              		.size	__func__.7857, 11
 318              	__func__.7857:
 319 0000 63685654 		.ascii	"chVTDoSetI\000"
 319      446F5365 
 319      744900
 320              		.section	.rodata.__func__.7864,"a",%progbits
 321              		.align	2
 322              		.type	__func__.7864, %object
 323              		.size	__func__.7864, 13
 324              	__func__.7864:
 325 0000 63685654 		.ascii	"chVTDoResetI\000"
 325      446F5265 
 325      73657449 
 325      00
 326              		.text
 327              	.Letext0:
 328              		.file 2 "c:\\users\\pchautems\\documents\\robotiquetp\\eclipse_e-puck2\\tools\\gcc-arm-none-eabi-7
 329              		.file 3 "c:\\users\\pchautems\\documents\\robotiquetp\\eclipse_e-puck2\\tools\\gcc-arm-none-eabi-7
 330              		.file 4 "../lib/e-puck2_main-processor/ChibiOS//os/rt/ports/ARMCMx/compilers/GCC/chtypes.h"
 331              		.file 5 "../lib/e-puck2_main-processor/ChibiOS//os/rt/include/chsystypes.h"
 332              		.file 6 "../lib/e-puck2_main-processor/ChibiOS//os/rt/include/chschd.h"
 333              		.file 7 "../lib/e-puck2_main-processor/ChibiOS//os/ext/CMSIS/include/core_cm4.h"
 334              		.file 8 "../lib/e-puck2_main-processor/ChibiOS//os/ext/CMSIS/ST/system_stm32f4xx.h"
 335              		.file 9 "../lib/e-puck2_main-processor/ChibiOS//os/rt/ports/ARMCMx/chcore.h"
 336              		.file 10 "../lib/e-puck2_main-processor/ChibiOS//os/rt/ports/ARMCMx/chcore_v7m.h"
 337              		.file 11 "../lib/e-puck2_main-processor/ChibiOS//os/rt/include/chdebug.h"
ARM GAS  C:\Users\PCHAUT~1\AppData\Local\Temp\cc4SCmsi.s 			page 7


 338              		.file 12 "../lib/e-puck2_main-processor/ChibiOS//os/rt/include/chtm.h"
 339              		.file 13 "../lib/e-puck2_main-processor/ChibiOS//os/rt/include/chstats.h"
 340              		.file 14 "../lib/e-puck2_main-processor/ChibiOS//os/rt/include/chsem.h"
 341              		.file 15 "../lib/e-puck2_main-processor/ChibiOS//os/rt/include/chmtx.h"
 342              		.file 16 "../lib/e-puck2_main-processor/ChibiOS//os/rt/include/chregistry.h"