ARM GAS  C:\Users\PCHAUT~1\AppData\Local\Temp\ccLw8kky.s 			page 1


   1              		.cpu cortex-m4
   2              		.eabi_attribute 27, 1
   3              		.eabi_attribute 28, 1
   4              		.eabi_attribute 20, 1
   5              		.eabi_attribute 21, 1
   6              		.eabi_attribute 23, 3
   7              		.eabi_attribute 24, 1
   8              		.eabi_attribute 25, 1
   9              		.eabi_attribute 26, 1
  10              		.eabi_attribute 30, 6
  11              		.eabi_attribute 34, 1
  12              		.eabi_attribute 18, 4
  13              		.file	"cmd.c"
  14              		.text
  15              	.Ltext0:
  16              		.cfi_sections	.debug_frame
  17              		.section	.text.port_lock,"ax",%progbits
  18              		.align	1
  19              		.p2align 4,,15
  20              		.syntax unified
  21              		.thumb
  22              		.thumb_func
  23              		.fpu fpv4-sp-d16
  24              		.type	port_lock, %function
  25              	port_lock:
  26              	.LFB119:
  27              		.file 1 "../lib/e-puck2_main-processor/ChibiOS//os/rt/ports/ARMCMx/chcore_v7m.h"
  28              		.loc 1 444 0
  29              		.cfi_startproc
  30              		@ args = 0, pretend = 0, frame = 8
  31              		@ frame_needed = 0, uses_anonymous_args = 0
  32 0000 00B5     		push	{lr}
  33              		.cfi_def_cfa_offset 4
  34              		.cfi_offset 14, -4
  35 0002 83B0     		sub	sp, sp, #12
  36              		.cfi_def_cfa_offset 16
  37              		.loc 1 444 0
  38 0004 094B     		ldr	r3, .L3
  39 0006 1B68     		ldr	r3, [r3]
  40 0008 0193     		str	r3, [sp, #4]
  41 000a 2023     		movs	r3, #32
  42 000c 0093     		str	r3, [sp]
  43              	.LBB6:
  44              	.LBB7:
  45              		.file 2 "../lib/e-puck2_main-processor/ChibiOS//os/ext/CMSIS/include/core_cmFunc.h"
  46              		.loc 2 546 0
  47 000e 009B     		ldr	r3, [sp]
  48              		.syntax unified
  49              	@ 546 "../lib/e-puck2_main-processor/ChibiOS//os/ext/CMSIS/include/core_cmFunc.h" 1
  50 0010 83F31188 		MSR basepri, r3
  51              	@ 0 "" 2
  52              		.thumb
  53              		.syntax unified
  54              	.LBE7:
  55              	.LBE6:
  56              		.loc 1 451 0
  57 0014 00BF     		nop
ARM GAS  C:\Users\PCHAUT~1\AppData\Local\Temp\ccLw8kky.s 			page 2


  58 0016 054B     		ldr	r3, .L3
  59 0018 019A     		ldr	r2, [sp, #4]
  60 001a 1B68     		ldr	r3, [r3]
  61 001c 9A42     		cmp	r2, r3
  62 001e 01D0     		beq	.L2
  63 0020 FFF7FEFF 		bl	__stack_chk_fail
  64              	.L2:
  65 0024 03B0     		add	sp, sp, #12
  66              		.cfi_def_cfa_offset 4
  67              		@ sp needed
  68 0026 5DF804FB 		ldr	pc, [sp], #4
  69              	.L4:
  70 002a 00BF     		.align	2
  71              	.L3:
  72 002c 00000000 		.word	__stack_chk_guard
  73              		.cfi_endproc
  74              	.LFE119:
  75              		.size	port_lock, .-port_lock
  76              		.section	.text.port_unlock,"ax",%progbits
  77              		.align	1
  78              		.p2align 4,,15
  79              		.syntax unified
  80              		.thumb
  81              		.thumb_func
  82              		.fpu fpv4-sp-d16
  83              		.type	port_unlock, %function
  84              	port_unlock:
  85              	.LFB120:
  86              		.loc 1 458 0
  87              		.cfi_startproc
  88              		@ args = 0, pretend = 0, frame = 8
  89              		@ frame_needed = 0, uses_anonymous_args = 0
  90 0000 00B5     		push	{lr}
  91              		.cfi_def_cfa_offset 4
  92              		.cfi_offset 14, -4
  93 0002 83B0     		sub	sp, sp, #12
  94              		.cfi_def_cfa_offset 16
  95              		.loc 1 458 0
  96 0004 094B     		ldr	r3, .L7
  97 0006 1B68     		ldr	r3, [r3]
  98 0008 0193     		str	r3, [sp, #4]
  99 000a 0023     		movs	r3, #0
 100 000c 0093     		str	r3, [sp]
 101              	.LBB8:
 102              	.LBB9:
 103              		.loc 2 546 0
 104 000e 009B     		ldr	r3, [sp]
 105              		.syntax unified
 106              	@ 546 "../lib/e-puck2_main-processor/ChibiOS//os/ext/CMSIS/include/core_cmFunc.h" 1
 107 0010 83F31188 		MSR basepri, r3
 108              	@ 0 "" 2
 109              		.thumb
 110              		.syntax unified
 111              	.LBE9:
 112              	.LBE8:
 113              		.loc 1 465 0
 114 0014 00BF     		nop
ARM GAS  C:\Users\PCHAUT~1\AppData\Local\Temp\ccLw8kky.s 			page 3


 115 0016 054B     		ldr	r3, .L7
 116 0018 019A     		ldr	r2, [sp, #4]
 117 001a 1B68     		ldr	r3, [r3]
 118 001c 9A42     		cmp	r2, r3
 119 001e 01D0     		beq	.L6
 120 0020 FFF7FEFF 		bl	__stack_chk_fail
 121              	.L6:
 122 0024 03B0     		add	sp, sp, #12
 123              		.cfi_def_cfa_offset 4
 124              		@ sp needed
 125 0026 5DF804FB 		ldr	pc, [sp], #4
 126              	.L8:
 127 002a 00BF     		.align	2
 128              	.L7:
 129 002c 00000000 		.word	__stack_chk_guard
 130              		.cfi_endproc
 131              	.LFE120:
 132              		.size	port_unlock, .-port_unlock
 133              		.section	.text.chSysLock,"ax",%progbits
 134              		.align	1
 135              		.p2align 4,,15
 136              		.syntax unified
 137              		.thumb
 138              		.thumb_func
 139              		.fpu fpv4-sp-d16
 140              		.type	chSysLock, %function
 141              	chSysLock:
 142              	.LFB148:
 143              		.file 3 "../lib/e-puck2_main-processor/ChibiOS//os/rt/include/chsys.h"
 144              		.loc 3 346 0
 145              		.cfi_startproc
 146              		@ args = 0, pretend = 0, frame = 8
 147              		@ frame_needed = 0, uses_anonymous_args = 0
 148 0000 00B5     		push	{lr}
 149              		.cfi_def_cfa_offset 4
 150              		.cfi_offset 14, -4
 151 0002 83B0     		sub	sp, sp, #12
 152              		.cfi_def_cfa_offset 16
 153              		.loc 3 346 0
 154 0004 094B     		ldr	r3, .L11
 155 0006 1B68     		ldr	r3, [r3]
 156 0008 0193     		str	r3, [sp, #4]
 157              		.loc 3 348 0
 158 000a FFF7FEFF 		bl	port_lock
 159              		.loc 3 349 0
 160 000e FFF7FEFF 		bl	_stats_start_measure_crit_thd
 161              		.loc 3 350 0
 162 0012 FFF7FEFF 		bl	_dbg_check_lock
 163              		.loc 3 351 0
 164 0016 00BF     		nop
 165 0018 044B     		ldr	r3, .L11
 166 001a 019A     		ldr	r2, [sp, #4]
 167 001c 1B68     		ldr	r3, [r3]
 168 001e 9A42     		cmp	r2, r3
 169 0020 01D0     		beq	.L10
 170 0022 FFF7FEFF 		bl	__stack_chk_fail
 171              	.L10:
ARM GAS  C:\Users\PCHAUT~1\AppData\Local\Temp\ccLw8kky.s 			page 4


 172 0026 03B0     		add	sp, sp, #12
 173              		.cfi_def_cfa_offset 4
 174              		@ sp needed
 175 0028 5DF804FB 		ldr	pc, [sp], #4
 176              	.L12:
 177              		.align	2
 178              	.L11:
 179 002c 00000000 		.word	__stack_chk_guard
 180              		.cfi_endproc
 181              	.LFE148:
 182              		.size	chSysLock, .-chSysLock
 183              		.section	.text.chSysUnlock,"ax",%progbits
 184              		.align	1
 185              		.p2align 4,,15
 186              		.syntax unified
 187              		.thumb
 188              		.thumb_func
 189              		.fpu fpv4-sp-d16
 190              		.type	chSysUnlock, %function
 191              	chSysUnlock:
 192              	.LFB149:
 193              		.loc 3 358 0
 194              		.cfi_startproc
 195              		@ args = 0, pretend = 0, frame = 8
 196              		@ frame_needed = 0, uses_anonymous_args = 0
 197 0000 00B5     		push	{lr}
 198              		.cfi_def_cfa_offset 4
 199              		.cfi_offset 14, -4
 200 0002 83B0     		sub	sp, sp, #12
 201              		.cfi_def_cfa_offset 16
 202              		.loc 3 358 0
 203 0004 114B     		ldr	r3, .L16
 204 0006 1B68     		ldr	r3, [r3]
 205 0008 0193     		str	r3, [sp, #4]
 206              		.loc 3 360 0
 207 000a FFF7FEFF 		bl	_dbg_check_unlock
 208              		.loc 3 361 0
 209 000e FFF7FEFF 		bl	_stats_stop_measure_crit_thd
 210              		.loc 3 367 0
 211 0012 0F4B     		ldr	r3, .L16+4
 212 0014 1B68     		ldr	r3, [r3]
 213 0016 0E4A     		ldr	r2, .L16+4
 214 0018 9342     		cmp	r3, r2
 215 001a 0AD0     		beq	.L14
 216              		.loc 3 367 0 is_stmt 0 discriminator 2
 217 001c 0C4B     		ldr	r3, .L16+4
 218 001e 9B69     		ldr	r3, [r3, #24]
 219 0020 9A68     		ldr	r2, [r3, #8]
 220 0022 0B4B     		ldr	r3, .L16+4
 221 0024 1B68     		ldr	r3, [r3]
 222 0026 9B68     		ldr	r3, [r3, #8]
 223 0028 9A42     		cmp	r2, r3
 224 002a 02D2     		bcs	.L14
 225              		.loc 3 367 0 discriminator 3
 226 002c 0948     		ldr	r0, .L16+8
 227 002e FFF7FEFF 		bl	chSysHalt
 228              	.L14:
ARM GAS  C:\Users\PCHAUT~1\AppData\Local\Temp\ccLw8kky.s 			page 5


 229              		.loc 3 371 0 is_stmt 1
 230 0032 FFF7FEFF 		bl	port_unlock
 231              		.loc 3 372 0
 232 0036 00BF     		nop
 233 0038 044B     		ldr	r3, .L16
 234 003a 019A     		ldr	r2, [sp, #4]
 235 003c 1B68     		ldr	r3, [r3]
 236 003e 9A42     		cmp	r2, r3
 237 0040 01D0     		beq	.L15
 238 0042 FFF7FEFF 		bl	__stack_chk_fail
 239              	.L15:
 240 0046 03B0     		add	sp, sp, #12
 241              		.cfi_def_cfa_offset 4
 242              		@ sp needed
 243 0048 5DF804FB 		ldr	pc, [sp], #4
 244              	.L17:
 245              		.align	2
 246              	.L16:
 247 004c 00000000 		.word	__stack_chk_guard
 248 0050 00000000 		.word	ch
 249 0054 00000000 		.word	__func__.8875
 250              		.cfi_endproc
 251              	.LFE149:
 252              		.size	chSysUnlock, .-chSysUnlock
 253              		.section	.text.chVTGetSystemTimeX,"ax",%progbits
 254              		.align	1
 255              		.p2align 4,,15
 256              		.syntax unified
 257              		.thumb
 258              		.thumb_func
 259              		.fpu fpv4-sp-d16
 260              		.type	chVTGetSystemTimeX, %function
 261              	chVTGetSystemTimeX:
 262              	.LFB156:
 263              		.file 4 "../lib/e-puck2_main-processor/ChibiOS//os/rt/include/chvt.h"
 264              		.loc 4 228 0
 265              		.cfi_startproc
 266              		@ args = 0, pretend = 0, frame = 8
 267              		@ frame_needed = 0, uses_anonymous_args = 0
 268 0000 00B5     		push	{lr}
 269              		.cfi_def_cfa_offset 4
 270              		.cfi_offset 14, -4
 271 0002 83B0     		sub	sp, sp, #12
 272              		.cfi_def_cfa_offset 16
 273              		.loc 4 228 0
 274 0004 074B     		ldr	r3, .L21
 275 0006 1B68     		ldr	r3, [r3]
 276 0008 0193     		str	r3, [sp, #4]
 277              		.loc 4 231 0
 278 000a 074B     		ldr	r3, .L21+4
 279 000c 9B6A     		ldr	r3, [r3, #40]
 280              		.loc 4 235 0
 281 000e 1846     		mov	r0, r3
 282 0010 044B     		ldr	r3, .L21
 283 0012 019A     		ldr	r2, [sp, #4]
 284 0014 1B68     		ldr	r3, [r3]
 285 0016 9A42     		cmp	r2, r3
ARM GAS  C:\Users\PCHAUT~1\AppData\Local\Temp\ccLw8kky.s 			page 6


 286 0018 01D0     		beq	.L20
 287 001a FFF7FEFF 		bl	__stack_chk_fail
 288              	.L20:
 289 001e 03B0     		add	sp, sp, #12
 290              		.cfi_def_cfa_offset 4
 291              		@ sp needed
 292 0020 5DF804FB 		ldr	pc, [sp], #4
 293              	.L22:
 294              		.align	2
 295              	.L21:
 296 0024 00000000 		.word	__stack_chk_guard
 297 0028 00000000 		.word	ch
 298              		.cfi_endproc
 299              	.LFE156:
 300              		.size	chVTGetSystemTimeX, .-chVTGetSystemTimeX
 301              		.section	.text.chVTGetSystemTime,"ax",%progbits
 302              		.align	1
 303              		.p2align 4,,15
 304              		.syntax unified
 305              		.thumb
 306              		.thumb_func
 307              		.fpu fpv4-sp-d16
 308              		.type	chVTGetSystemTime, %function
 309              	chVTGetSystemTime:
 310              	.LFB157:
 311              		.loc 4 247 0
 312              		.cfi_startproc
 313              		@ args = 0, pretend = 0, frame = 8
 314              		@ frame_needed = 0, uses_anonymous_args = 0
 315 0000 00B5     		push	{lr}
 316              		.cfi_def_cfa_offset 4
 317              		.cfi_offset 14, -4
 318 0002 83B0     		sub	sp, sp, #12
 319              		.cfi_def_cfa_offset 16
 320              		.loc 4 247 0
 321 0004 0A4B     		ldr	r3, .L26
 322 0006 1B68     		ldr	r3, [r3]
 323 0008 0193     		str	r3, [sp, #4]
 324              		.loc 4 250 0
 325 000a FFF7FEFF 		bl	chSysLock
 326              		.loc 4 251 0
 327 000e FFF7FEFF 		bl	chVTGetSystemTimeX
 328 0012 0090     		str	r0, [sp]
 329              		.loc 4 252 0
 330 0014 FFF7FEFF 		bl	chSysUnlock
 331              		.loc 4 254 0
 332 0018 009B     		ldr	r3, [sp]
 333              		.loc 4 255 0
 334 001a 1846     		mov	r0, r3
 335 001c 044B     		ldr	r3, .L26
 336 001e 019A     		ldr	r2, [sp, #4]
 337 0020 1B68     		ldr	r3, [r3]
 338 0022 9A42     		cmp	r2, r3
 339 0024 01D0     		beq	.L25
 340 0026 FFF7FEFF 		bl	__stack_chk_fail
 341              	.L25:
 342 002a 03B0     		add	sp, sp, #12
ARM GAS  C:\Users\PCHAUT~1\AppData\Local\Temp\ccLw8kky.s 			page 7


 343              		.cfi_def_cfa_offset 4
 344              		@ sp needed
 345 002c 5DF804FB 		ldr	pc, [sp], #4
 346              	.L27:
 347              		.align	2
 348              	.L26:
 349 0030 00000000 		.word	__stack_chk_guard
 350              		.cfi_endproc
 351              	.LFE157:
 352              		.size	chVTGetSystemTime, .-chVTGetSystemTime
 353              		.section	.text.chVTIsTimeWithinX,"ax",%progbits
 354              		.align	1
 355              		.p2align 4,,15
 356              		.syntax unified
 357              		.thumb
 358              		.thumb_func
 359              		.fpu fpv4-sp-d16
 360              		.type	chVTIsTimeWithinX, %function
 361              	chVTIsTimeWithinX:
 362              	.LFB159:
 363              		.loc 4 286 0
 364              		.cfi_startproc
 365              		@ args = 0, pretend = 0, frame = 24
 366              		@ frame_needed = 0, uses_anonymous_args = 0
 367 0000 00B5     		push	{lr}
 368              		.cfi_def_cfa_offset 4
 369              		.cfi_offset 14, -4
 370 0002 87B0     		sub	sp, sp, #28
 371              		.cfi_def_cfa_offset 32
 372 0004 0390     		str	r0, [sp, #12]
 373 0006 0291     		str	r1, [sp, #8]
 374 0008 0192     		str	r2, [sp, #4]
 375              		.loc 4 286 0
 376 000a 0C4B     		ldr	r3, .L31
 377 000c 1B68     		ldr	r3, [r3]
 378 000e 0593     		str	r3, [sp, #20]
 379              		.loc 4 288 0
 380 0010 039A     		ldr	r2, [sp, #12]
 381 0012 029B     		ldr	r3, [sp, #8]
 382 0014 D21A     		subs	r2, r2, r3
 383 0016 0199     		ldr	r1, [sp, #4]
 384 0018 029B     		ldr	r3, [sp, #8]
 385 001a CB1A     		subs	r3, r1, r3
 386 001c 9A42     		cmp	r2, r3
 387 001e 34BF     		ite	cc
 388 0020 0123     		movcc	r3, #1
 389 0022 0023     		movcs	r3, #0
 390 0024 DBB2     		uxtb	r3, r3
 391              		.loc 4 289 0
 392 0026 1846     		mov	r0, r3
 393 0028 044B     		ldr	r3, .L31
 394 002a 059A     		ldr	r2, [sp, #20]
 395 002c 1B68     		ldr	r3, [r3]
 396 002e 9A42     		cmp	r2, r3
 397 0030 01D0     		beq	.L30
 398 0032 FFF7FEFF 		bl	__stack_chk_fail
 399              	.L30:
ARM GAS  C:\Users\PCHAUT~1\AppData\Local\Temp\ccLw8kky.s 			page 8


 400 0036 07B0     		add	sp, sp, #28
 401              		.cfi_def_cfa_offset 4
 402              		@ sp needed
 403 0038 5DF804FB 		ldr	pc, [sp], #4
 404              	.L32:
 405              		.align	2
 406              	.L31:
 407 003c 00000000 		.word	__stack_chk_guard
 408              		.cfi_endproc
 409              	.LFE159:
 410              		.size	chVTIsTimeWithinX, .-chVTIsTimeWithinX
 411              		.section	.text.chVTIsSystemTimeWithin,"ax",%progbits
 412              		.align	1
 413              		.p2align 4,,15
 414              		.syntax unified
 415              		.thumb
 416              		.thumb_func
 417              		.fpu fpv4-sp-d16
 418              		.type	chVTIsSystemTimeWithin, %function
 419              	chVTIsSystemTimeWithin:
 420              	.LFB161:
 421              		.loc 4 322 0
 422              		.cfi_startproc
 423              		@ args = 0, pretend = 0, frame = 16
 424              		@ frame_needed = 0, uses_anonymous_args = 0
 425 0000 00B5     		push	{lr}
 426              		.cfi_def_cfa_offset 4
 427              		.cfi_offset 14, -4
 428 0002 85B0     		sub	sp, sp, #20
 429              		.cfi_def_cfa_offset 24
 430 0004 0190     		str	r0, [sp, #4]
 431 0006 0091     		str	r1, [sp]
 432              		.loc 4 322 0
 433 0008 0B4B     		ldr	r3, .L36
 434 000a 1B68     		ldr	r3, [r3]
 435 000c 0393     		str	r3, [sp, #12]
 436              		.loc 4 324 0
 437 000e FFF7FEFF 		bl	chVTGetSystemTime
 438 0012 0346     		mov	r3, r0
 439 0014 009A     		ldr	r2, [sp]
 440 0016 0199     		ldr	r1, [sp, #4]
 441 0018 1846     		mov	r0, r3
 442 001a FFF7FEFF 		bl	chVTIsTimeWithinX
 443 001e 0346     		mov	r3, r0
 444              		.loc 4 325 0
 445 0020 1846     		mov	r0, r3
 446 0022 054B     		ldr	r3, .L36
 447 0024 039A     		ldr	r2, [sp, #12]
 448 0026 1B68     		ldr	r3, [r3]
 449 0028 9A42     		cmp	r2, r3
 450 002a 01D0     		beq	.L35
 451 002c FFF7FEFF 		bl	__stack_chk_fail
 452              	.L35:
 453 0030 05B0     		add	sp, sp, #20
 454              		.cfi_def_cfa_offset 4
 455              		@ sp needed
 456 0032 5DF804FB 		ldr	pc, [sp], #4
ARM GAS  C:\Users\PCHAUT~1\AppData\Local\Temp\ccLw8kky.s 			page 9


 457              	.L37:
 458 0036 00BF     		.align	2
 459              	.L36:
 460 0038 00000000 		.word	__stack_chk_guard
 461              		.cfi_endproc
 462              	.LFE161:
 463              		.size	chVTIsSystemTimeWithin, .-chVTIsSystemTimeWithin
 464              		.section	.text.chThdGetSelfX,"ax",%progbits
 465              		.align	1
 466              		.p2align 4,,15
 467              		.syntax unified
 468              		.thumb
 469              		.thumb_func
 470              		.fpu fpv4-sp-d16
 471              		.type	chThdGetSelfX, %function
 472              	chThdGetSelfX:
 473              	.LFB169:
 474              		.file 5 "../lib/e-puck2_main-processor/ChibiOS//os/rt/include/chthreads.h"
 475              		.loc 5 174 0
 476              		.cfi_startproc
 477              		@ args = 0, pretend = 0, frame = 8
 478              		@ frame_needed = 0, uses_anonymous_args = 0
 479 0000 00B5     		push	{lr}
 480              		.cfi_def_cfa_offset 4
 481              		.cfi_offset 14, -4
 482 0002 83B0     		sub	sp, sp, #12
 483              		.cfi_def_cfa_offset 16
 484              		.loc 5 174 0
 485 0004 074B     		ldr	r3, .L41
 486 0006 1B68     		ldr	r3, [r3]
 487 0008 0193     		str	r3, [sp, #4]
 488              		.loc 5 176 0
 489 000a 074B     		ldr	r3, .L41+4
 490 000c 9B69     		ldr	r3, [r3, #24]
 491              		.loc 5 177 0
 492 000e 1846     		mov	r0, r3
 493 0010 044B     		ldr	r3, .L41
 494 0012 019A     		ldr	r2, [sp, #4]
 495 0014 1B68     		ldr	r3, [r3]
 496 0016 9A42     		cmp	r2, r3
 497 0018 01D0     		beq	.L40
 498 001a FFF7FEFF 		bl	__stack_chk_fail
 499              	.L40:
 500 001e 03B0     		add	sp, sp, #12
 501              		.cfi_def_cfa_offset 4
 502              		@ sp needed
 503 0020 5DF804FB 		ldr	pc, [sp], #4
 504              	.L42:
 505              		.align	2
 506              	.L41:
 507 0024 00000000 		.word	__stack_chk_guard
 508 0028 00000000 		.word	ch
 509              		.cfi_endproc
 510              	.LFE169:
 511              		.size	chThdGetSelfX, .-chThdGetSelfX
 512              		.section	.text.chThdGetPriorityX,"ax",%progbits
 513              		.align	1
ARM GAS  C:\Users\PCHAUT~1\AppData\Local\Temp\ccLw8kky.s 			page 10


 514              		.p2align 4,,15
 515              		.syntax unified
 516              		.thumb
 517              		.thumb_func
 518              		.fpu fpv4-sp-d16
 519              		.type	chThdGetPriorityX, %function
 520              	chThdGetPriorityX:
 521              	.LFB170:
 522              		.loc 5 187 0
 523              		.cfi_startproc
 524              		@ args = 0, pretend = 0, frame = 8
 525              		@ frame_needed = 0, uses_anonymous_args = 0
 526 0000 00B5     		push	{lr}
 527              		.cfi_def_cfa_offset 4
 528              		.cfi_offset 14, -4
 529 0002 83B0     		sub	sp, sp, #12
 530              		.cfi_def_cfa_offset 16
 531              		.loc 5 187 0
 532 0004 084B     		ldr	r3, .L46
 533 0006 1B68     		ldr	r3, [r3]
 534 0008 0193     		str	r3, [sp, #4]
 535              		.loc 5 189 0
 536 000a FFF7FEFF 		bl	chThdGetSelfX
 537 000e 0346     		mov	r3, r0
 538 0010 9B68     		ldr	r3, [r3, #8]
 539              		.loc 5 190 0
 540 0012 1846     		mov	r0, r3
 541 0014 044B     		ldr	r3, .L46
 542 0016 019A     		ldr	r2, [sp, #4]
 543 0018 1B68     		ldr	r3, [r3]
 544 001a 9A42     		cmp	r2, r3
 545 001c 01D0     		beq	.L45
 546 001e FFF7FEFF 		bl	__stack_chk_fail
 547              	.L45:
 548 0022 03B0     		add	sp, sp, #12
 549              		.cfi_def_cfa_offset 4
 550              		@ sp needed
 551 0024 5DF804FB 		ldr	pc, [sp], #4
 552              	.L47:
 553              		.align	2
 554              	.L46:
 555 0028 00000000 		.word	__stack_chk_guard
 556              		.cfi_endproc
 557              	.LFE170:
 558              		.size	chThdGetPriorityX, .-chThdGetPriorityX
 559              		.section	.text.chThdTerminatedX,"ax",%progbits
 560              		.align	1
 561              		.p2align 4,,15
 562              		.syntax unified
 563              		.thumb
 564              		.thumb_func
 565              		.fpu fpv4-sp-d16
 566              		.type	chThdTerminatedX, %function
 567              	chThdTerminatedX:
 568              	.LFB172:
 569              		.loc 5 218 0
 570              		.cfi_startproc
ARM GAS  C:\Users\PCHAUT~1\AppData\Local\Temp\ccLw8kky.s 			page 11


 571              		@ args = 0, pretend = 0, frame = 16
 572              		@ frame_needed = 0, uses_anonymous_args = 0
 573 0000 00B5     		push	{lr}
 574              		.cfi_def_cfa_offset 4
 575              		.cfi_offset 14, -4
 576 0002 85B0     		sub	sp, sp, #20
 577              		.cfi_def_cfa_offset 24
 578 0004 0190     		str	r0, [sp, #4]
 579              		.loc 5 218 0
 580 0006 0B4B     		ldr	r3, .L51
 581 0008 1B68     		ldr	r3, [r3]
 582 000a 0393     		str	r3, [sp, #12]
 583              		.loc 5 220 0
 584 000c 019B     		ldr	r3, [sp, #4]
 585 000e 93F82030 		ldrb	r3, [r3, #32]	@ zero_extendqisi2
 586 0012 0F2B     		cmp	r3, #15
 587 0014 0CBF     		ite	eq
 588 0016 0123     		moveq	r3, #1
 589 0018 0023     		movne	r3, #0
 590 001a DBB2     		uxtb	r3, r3
 591              		.loc 5 221 0
 592 001c 1846     		mov	r0, r3
 593 001e 054B     		ldr	r3, .L51
 594 0020 039A     		ldr	r2, [sp, #12]
 595 0022 1B68     		ldr	r3, [r3]
 596 0024 9A42     		cmp	r2, r3
 597 0026 01D0     		beq	.L50
 598 0028 FFF7FEFF 		bl	__stack_chk_fail
 599              	.L50:
 600 002c 05B0     		add	sp, sp, #20
 601              		.cfi_def_cfa_offset 4
 602              		@ sp needed
 603 002e 5DF804FB 		ldr	pc, [sp], #4
 604              	.L52:
 605 0032 00BF     		.align	2
 606              	.L51:
 607 0034 00000000 		.word	__stack_chk_guard
 608              		.cfi_endproc
 609              	.LFE172:
 610              		.size	chThdTerminatedX, .-chThdTerminatedX
 611              		.section	.text.chprintf,"ax",%progbits
 612              		.align	1
 613              		.p2align 4,,15
 614              		.syntax unified
 615              		.thumb
 616              		.thumb_func
 617              		.fpu fpv4-sp-d16
 618              		.type	chprintf, %function
 619              	chprintf:
 620              	.LFB259:
 621              		.file 6 "../lib/e-puck2_main-processor/ChibiOS//os/hal/lib/streams/chprintf.h"
 622              		.loc 6 69 0
 623              		.cfi_startproc
 624              		@ args = 4, pretend = 12, frame = 24
 625              		@ frame_needed = 0, uses_anonymous_args = 1
 626 0000 0EB4     		push	{r1, r2, r3}
 627              		.cfi_def_cfa_offset 12
ARM GAS  C:\Users\PCHAUT~1\AppData\Local\Temp\ccLw8kky.s 			page 12


 628              		.cfi_offset 1, -12
 629              		.cfi_offset 2, -8
 630              		.cfi_offset 3, -4
 631 0002 00B5     		push	{lr}
 632              		.cfi_def_cfa_offset 16
 633              		.cfi_offset 14, -16
 634 0004 86B0     		sub	sp, sp, #24
 635              		.cfi_def_cfa_offset 40
 636 0006 0190     		str	r0, [sp, #4]
 637 0008 079B     		ldr	r3, [sp, #28]
 638 000a 0093     		str	r3, [sp]
 639              		.loc 6 69 0
 640 000c 0C4B     		ldr	r3, .L56
 641 000e 1B68     		ldr	r3, [r3]
 642 0010 0593     		str	r3, [sp, #20]
 643              		.loc 6 73 0
 644 0012 08AB     		add	r3, sp, #32
 645 0014 0393     		str	r3, [sp, #12]
 646              		.loc 6 74 0
 647 0016 039A     		ldr	r2, [sp, #12]
 648 0018 0099     		ldr	r1, [sp]
 649 001a 0198     		ldr	r0, [sp, #4]
 650 001c FFF7FEFF 		bl	chvprintf
 651 0020 0490     		str	r0, [sp, #16]
 652              		.loc 6 77 0
 653 0022 049B     		ldr	r3, [sp, #16]
 654              		.loc 6 78 0
 655 0024 1846     		mov	r0, r3
 656 0026 064B     		ldr	r3, .L56
 657 0028 059A     		ldr	r2, [sp, #20]
 658 002a 1B68     		ldr	r3, [r3]
 659 002c 9A42     		cmp	r2, r3
 660 002e 01D0     		beq	.L55
 661 0030 FFF7FEFF 		bl	__stack_chk_fail
 662              	.L55:
 663 0034 06B0     		add	sp, sp, #24
 664              		.cfi_def_cfa_offset 16
 665              		@ sp needed
 666 0036 5DF804EB 		ldr	lr, [sp], #4
 667              		.cfi_restore 14
 668              		.cfi_def_cfa_offset 12
 669 003a 03B0     		add	sp, sp, #12
 670              		.cfi_restore 3
 671              		.cfi_restore 2
 672              		.cfi_restore 1
 673              		.cfi_def_cfa_offset 0
 674 003c 7047     		bx	lr
 675              	.L57:
 676 003e 00BF     		.align	2
 677              	.L56:
 678 0040 00000000 		.word	__stack_chk_guard
 679              		.cfi_endproc
 680              	.LFE259:
 681              		.size	chprintf, .-chprintf
 682              		.section	.bss.buf,"aw",%nobits
 683              		.align	2
 684              		.type	buf, %object
ARM GAS  C:\Users\PCHAUT~1\AppData\Local\Temp\ccLw8kky.s 			page 13


 685              		.size	buf, 8196
 686              	buf:
 687 0000 00000000 		.space	8196
 687      00000000 
 687      00000000 
 687      00000000 
 687      00000000 
 688              		.section	.bss.buf2,"aw",%nobits
 689              		.align	2
 690              		.type	buf2, %object
 691              		.size	buf2, 8192
 692              	buf2:
 693 0000 00000000 		.space	8192
 693      00000000 
 693      00000000 
 693      00000000 
 693      00000000 
 694              		.section	.bss.cmd_fmt,"aw",%nobits
 695              		.type	cmd_fmt, %object
 696              		.size	cmd_fmt, 1
 697              	cmd_fmt:
 698 0000 00       		.space	1
 699              		.section	.bss.cmd_subx,"aw",%nobits
 700              		.type	cmd_subx, %object
 701              		.size	cmd_subx, 1
 702              	cmd_subx:
 703 0000 00       		.space	1
 704              		.section	.bss.cmd_suby,"aw",%nobits
 705              		.type	cmd_suby, %object
 706              		.size	cmd_suby, 1
 707              	cmd_suby:
 708 0000 00       		.space	1
 709              		.section	.bss.cmd_x1,"aw",%nobits
 710              		.align	1
 711              		.type	cmd_x1, %object
 712              		.size	cmd_x1, 2
 713              	cmd_x1:
 714 0000 0000     		.space	2
 715              		.section	.bss.cmd_y1,"aw",%nobits
 716              		.align	1
 717              		.type	cmd_y1, %object
 718              		.size	cmd_y1, 2
 719              	cmd_y1:
 720 0000 0000     		.space	2
 721              		.section	.bss.cmd_width,"aw",%nobits
 722              		.align	1
 723              		.type	cmd_width, %object
 724              		.size	cmd_width, 2
 725              	cmd_width:
 726 0000 0000     		.space	2
 727              		.section	.bss.cmd_height,"aw",%nobits
 728              		.align	1
 729              		.type	cmd_height, %object
 730              		.size	cmd_height, 2
 731              	cmd_height:
 732 0000 0000     		.space	2
 733              		.section	.bss.fbuff,"aw",%nobits
ARM GAS  C:\Users\PCHAUT~1\AppData\Local\Temp\ccLw8kky.s 			page 14


 734              		.align	2
 735              		.type	fbuff, %object
 736              		.size	fbuff, 256
 737              	fbuff:
 738 0000 00000000 		.space	256
 738      00000000 
 738      00000000 
 738      00000000 
 738      00000000 
 739              		.section	.rodata
 740              		.align	2
 741              	.LC0:
 742 0000 46533A20 		.ascii	"FS: f_mount() failed. Is the SD card inserted?\015\012"
 742      665F6D6F 
 742      756E7428 
 742      29206661 
 742      696C6564 
 743 0030 00       		.ascii	"\000"
 744 0031 000000   		.align	2
 745              	.LC1:
 746 0034 46533A20 		.ascii	"FS: f_mount() succeeded\015\012\000"
 746      665F6D6F 
 746      756E7428 
 746      29207375 
 746      63636565 
 747              		.section	.text.cmd_mount,"ax",%progbits
 748              		.align	1
 749              		.p2align 4,,15
 750              		.global	cmd_mount
 751              		.syntax unified
 752              		.thumb
 753              		.thumb_func
 754              		.fpu fpv4-sp-d16
 755              		.type	cmd_mount, %function
 756              	cmd_mount:
 757              	.LFB261:
 758              		.file 7 "../lib/e-puck2_main-processor/src/cmd.c"
 759              		.loc 7 53 0
 760              		.cfi_startproc
 761              		@ args = 0, pretend = 0, frame = 24
 762              		@ frame_needed = 0, uses_anonymous_args = 0
 763 0000 00B5     		push	{lr}
 764              		.cfi_def_cfa_offset 4
 765              		.cfi_offset 14, -4
 766 0002 87B0     		sub	sp, sp, #28
 767              		.cfi_def_cfa_offset 32
 768 0004 0390     		str	r0, [sp, #12]
 769 0006 0291     		str	r1, [sp, #8]
 770 0008 0192     		str	r2, [sp, #4]
 771              		.loc 7 53 0
 772 000a 0F4B     		ldr	r3, .L62
 773 000c 1B68     		ldr	r3, [r3]
 774 000e 0593     		str	r3, [sp, #20]
 775              		.loc 7 60 0
 776 0010 FFF7FEFF 		bl	mountSDCard
 777 0014 0346     		mov	r3, r0
 778 0016 83F00103 		eor	r3, r3, #1
ARM GAS  C:\Users\PCHAUT~1\AppData\Local\Temp\ccLw8kky.s 			page 15


 779 001a DBB2     		uxtb	r3, r3
 780 001c 002B     		cmp	r3, #0
 781 001e 04D0     		beq	.L59
 782              		.loc 7 61 0
 783 0020 0A49     		ldr	r1, .L62+4
 784 0022 0398     		ldr	r0, [sp, #12]
 785 0024 FFF7FEFF 		bl	chprintf
 786              		.loc 7 62 0
 787 0028 03E0     		b	.L58
 788              	.L59:
 789              		.loc 7 64 0
 790 002a 0949     		ldr	r1, .L62+8
 791 002c 0398     		ldr	r0, [sp, #12]
 792 002e FFF7FEFF 		bl	chprintf
 793              	.L58:
 794              		.loc 7 65 0
 795 0032 054B     		ldr	r3, .L62
 796 0034 059A     		ldr	r2, [sp, #20]
 797 0036 1B68     		ldr	r3, [r3]
 798 0038 9A42     		cmp	r2, r3
 799 003a 01D0     		beq	.L61
 800 003c FFF7FEFF 		bl	__stack_chk_fail
 801              	.L61:
 802 0040 07B0     		add	sp, sp, #28
 803              		.cfi_def_cfa_offset 4
 804              		@ sp needed
 805 0042 5DF804FB 		ldr	pc, [sp], #4
 806              	.L63:
 807 0046 00BF     		.align	2
 808              	.L62:
 809 0048 00000000 		.word	__stack_chk_guard
 810 004c 00000000 		.word	.LC0
 811 0050 34000000 		.word	.LC1
 812              		.cfi_endproc
 813              	.LFE261:
 814              		.size	cmd_mount, .-cmd_mount
 815              		.section	.rodata
 816 004e 0000     		.align	2
 817              	.LC2:
 818 0050 46533A20 		.ascii	"FS: f_mount() unmount failed\015\012\000"
 818      665F6D6F 
 818      756E7428 
 818      2920756E 
 818      6D6F756E 
 819              		.section	.text.cmd_unmount,"ax",%progbits
 820              		.align	1
 821              		.p2align 4,,15
 822              		.global	cmd_unmount
 823              		.syntax unified
 824              		.thumb
 825              		.thumb_func
 826              		.fpu fpv4-sp-d16
 827              		.type	cmd_unmount, %function
 828              	cmd_unmount:
 829              	.LFB262:
 830              		.loc 7 67 0
 831              		.cfi_startproc
ARM GAS  C:\Users\PCHAUT~1\AppData\Local\Temp\ccLw8kky.s 			page 16


 832              		@ args = 0, pretend = 0, frame = 24
 833              		@ frame_needed = 0, uses_anonymous_args = 0
 834 0000 00B5     		push	{lr}
 835              		.cfi_def_cfa_offset 4
 836              		.cfi_offset 14, -4
 837 0002 87B0     		sub	sp, sp, #28
 838              		.cfi_def_cfa_offset 32
 839 0004 0390     		str	r0, [sp, #12]
 840 0006 0291     		str	r1, [sp, #8]
 841 0008 0192     		str	r2, [sp, #4]
 842              		.loc 7 67 0
 843 000a 0D4B     		ldr	r3, .L67
 844 000c 1B68     		ldr	r3, [r3]
 845 000e 0593     		str	r3, [sp, #20]
 846              		.loc 7 71 0
 847 0010 FFF7FEFF 		bl	unmountSDCard
 848 0014 0346     		mov	r3, r0
 849 0016 83F00103 		eor	r3, r3, #1
 850 001a DBB2     		uxtb	r3, r3
 851 001c 002B     		cmp	r3, #0
 852 001e 04D0     		beq	.L64
 853              		.loc 7 72 0
 854 0020 0849     		ldr	r1, .L67+4
 855 0022 0398     		ldr	r0, [sp, #12]
 856 0024 FFF7FEFF 		bl	chprintf
 857              		.loc 7 73 0
 858 0028 00BF     		nop
 859              	.L64:
 860              		.loc 7 75 0
 861 002a 054B     		ldr	r3, .L67
 862 002c 059A     		ldr	r2, [sp, #20]
 863 002e 1B68     		ldr	r3, [r3]
 864 0030 9A42     		cmp	r2, r3
 865 0032 01D0     		beq	.L66
 866 0034 FFF7FEFF 		bl	__stack_chk_fail
 867              	.L66:
 868 0038 07B0     		add	sp, sp, #28
 869              		.cfi_def_cfa_offset 4
 870              		@ sp needed
 871 003a 5DF804FB 		ldr	pc, [sp], #4
 872              	.L68:
 873 003e 00BF     		.align	2
 874              	.L67:
 875 0040 00000000 		.word	__stack_chk_guard
 876 0044 50000000 		.word	.LC2
 877              		.cfi_endproc
 878              	.LFE262:
 879              		.size	cmd_unmount, .-cmd_unmount
 880              		.section	.rodata
 881 006f 00       		.align	2
 882              	.LC3:
 883 0070 2F00     		.ascii	"/\000"
 884 0072 0000     		.align	2
 885              	.LC4:
 886 0074 46533A20 		.ascii	"FS: f_getfree() failed\015\012\000"
 886      665F6765 
 886      74667265 
ARM GAS  C:\Users\PCHAUT~1\AppData\Local\Temp\ccLw8kky.s 			page 17


 886      65282920 
 886      6661696C 
 887 008d 000000   		.align	2
 888              	.LC5:
 889 0090 46533A20 		.ascii	"FS: %lu free clusters\015\012    %lu sectors per cl"
 889      256C7520 
 889      66726565 
 889      20636C75 
 889      73746572 
 890 00bd 75737465 		.ascii	"uster\015\012\000"
 890      720D0A00 
 891 00c5 000000   		.align	2
 892              	.LC6:
 893 00c8 256C7520 		.ascii	"%lu B free\015\012\000"
 893      42206672 
 893      65650D0A 
 893      00
 894 00d5 000000   		.align	2
 895              	.LC7:
 896 00d8 256C7520 		.ascii	"%lu KB free\015\012\000"
 896      4B422066 
 896      7265650D 
 896      0A00
 897 00e6 0000     		.align	2
 898              	.LC8:
 899 00e8 256C7520 		.ascii	"%lu MB free\015\012\000"
 899      4D422066 
 899      7265650D 
 899      0A00
 900              		.section	.text.cmd_free,"ax",%progbits
 901              		.align	1
 902              		.p2align 4,,15
 903              		.global	cmd_free
 904              		.syntax unified
 905              		.thumb
 906              		.thumb_func
 907              		.fpu fpv4-sp-d16
 908              		.type	cmd_free, %function
 909              	cmd_free:
 910              	.LFB263:
 911              		.loc 7 77 0
 912              		.cfi_startproc
 913              		@ args = 0, pretend = 0, frame = 32
 914              		@ frame_needed = 0, uses_anonymous_args = 0
 915 0000 00B5     		push	{lr}
 916              		.cfi_def_cfa_offset 4
 917              		.cfi_offset 14, -4
 918 0002 89B0     		sub	sp, sp, #36
 919              		.cfi_def_cfa_offset 40
 920 0004 0390     		str	r0, [sp, #12]
 921 0006 0291     		str	r1, [sp, #8]
 922 0008 0192     		str	r2, [sp, #4]
 923              		.loc 7 77 0
 924 000a 274B     		ldr	r3, .L73
 925 000c 1B68     		ldr	r3, [r3]
 926 000e 0793     		str	r3, [sp, #28]
 927              		.loc 7 85 0
ARM GAS  C:\Users\PCHAUT~1\AppData\Local\Temp\ccLw8kky.s 			page 18


 928 0010 06AA     		add	r2, sp, #24
 929 0012 05AB     		add	r3, sp, #20
 930 0014 1946     		mov	r1, r3
 931 0016 2548     		ldr	r0, .L73+4
 932 0018 FFF7FEFF 		bl	f_getfree
 933 001c 0346     		mov	r3, r0
 934 001e 8DF81230 		strb	r3, [sp, #18]
 935              		.loc 7 86 0
 936 0022 9DF81230 		ldrb	r3, [sp, #18]	@ zero_extendqisi2
 937 0026 002B     		cmp	r3, #0
 938 0028 04D0     		beq	.L70
 939              		.loc 7 87 0
 940 002a 2149     		ldr	r1, .L73+8
 941 002c 0398     		ldr	r0, [sp, #12]
 942 002e FFF7FEFF 		bl	chprintf
 943 0032 2EE0     		b	.L69
 944              	.L70:
 945              		.loc 7 91 0
 946 0034 FFF7FEFF 		bl	getSDCardClusterSize
 947 0038 0346     		mov	r3, r0
 948 003a 8DF81330 		strb	r3, [sp, #19]
 949              		.loc 7 95 0
 950 003e 059A     		ldr	r2, [sp, #20]
 951 0040 9DF81330 		ldrb	r3, [sp, #19]	@ zero_extendqisi2
 952 0044 1B49     		ldr	r1, .L73+12
 953 0046 0398     		ldr	r0, [sp, #12]
 954 0048 FFF7FEFF 		bl	chprintf
 955              		.loc 7 98 0
 956 004c 9DF81330 		ldrb	r3, [sp, #19]	@ zero_extendqisi2
 957 0050 059A     		ldr	r2, [sp, #20]
 958 0052 02FB03F3 		mul	r3, r2, r3
 959              		.loc 7 97 0
 960 0056 5B02     		lsls	r3, r3, #9
 961 0058 1A46     		mov	r2, r3
 962 005a 1749     		ldr	r1, .L73+16
 963 005c 0398     		ldr	r0, [sp, #12]
 964 005e FFF7FEFF 		bl	chprintf
 965              		.loc 7 100 0
 966 0062 9DF81330 		ldrb	r3, [sp, #19]	@ zero_extendqisi2
 967 0066 059A     		ldr	r2, [sp, #20]
 968 0068 02FB03F3 		mul	r3, r2, r3
 969 006c 5B02     		lsls	r3, r3, #9
 970              		.loc 7 99 0
 971 006e 9B0A     		lsrs	r3, r3, #10
 972 0070 1A46     		mov	r2, r3
 973 0072 1249     		ldr	r1, .L73+20
 974 0074 0398     		ldr	r0, [sp, #12]
 975 0076 FFF7FEFF 		bl	chprintf
 976              		.loc 7 102 0
 977 007a 9DF81330 		ldrb	r3, [sp, #19]	@ zero_extendqisi2
 978 007e 059A     		ldr	r2, [sp, #20]
 979 0080 02FB03F3 		mul	r3, r2, r3
 980 0084 5B02     		lsls	r3, r3, #9
 981              		.loc 7 101 0
 982 0086 1B0D     		lsrs	r3, r3, #20
 983 0088 1A46     		mov	r2, r3
 984 008a 0D49     		ldr	r1, .L73+24
ARM GAS  C:\Users\PCHAUT~1\AppData\Local\Temp\ccLw8kky.s 			page 19


 985 008c 0398     		ldr	r0, [sp, #12]
 986 008e FFF7FEFF 		bl	chprintf
 987              	.L69:
 988              		.loc 7 103 0
 989 0092 054B     		ldr	r3, .L73
 990 0094 079A     		ldr	r2, [sp, #28]
 991 0096 1B68     		ldr	r3, [r3]
 992 0098 9A42     		cmp	r2, r3
 993 009a 01D0     		beq	.L72
 994 009c FFF7FEFF 		bl	__stack_chk_fail
 995              	.L72:
 996 00a0 09B0     		add	sp, sp, #36
 997              		.cfi_def_cfa_offset 4
 998              		@ sp needed
 999 00a2 5DF804FB 		ldr	pc, [sp], #4
 1000              	.L74:
 1001 00a6 00BF     		.align	2
 1002              	.L73:
 1003 00a8 00000000 		.word	__stack_chk_guard
 1004 00ac 70000000 		.word	.LC3
 1005 00b0 74000000 		.word	.LC4
 1006 00b4 90000000 		.word	.LC5
 1007 00b8 C8000000 		.word	.LC6
 1008 00bc D8000000 		.word	.LC7
 1009 00c0 E8000000 		.word	.LC8
 1010              		.cfi_endproc
 1011              	.LFE263:
 1012              		.size	cmd_free, .-cmd_free
 1013              		.section	.text.cmd_tree,"ax",%progbits
 1014              		.align	1
 1015              		.p2align 4,,15
 1016              		.global	cmd_tree
 1017              		.syntax unified
 1018              		.thumb
 1019              		.thumb_func
 1020              		.fpu fpv4-sp-d16
 1021              		.type	cmd_tree, %function
 1022              	cmd_tree:
 1023              	.LFB264:
 1024              		.loc 7 105 0
 1025              		.cfi_startproc
 1026              		@ args = 0, pretend = 0, frame = 24
 1027              		@ frame_needed = 0, uses_anonymous_args = 0
 1028 0000 00B5     		push	{lr}
 1029              		.cfi_def_cfa_offset 4
 1030              		.cfi_offset 14, -4
 1031 0002 87B0     		sub	sp, sp, #28
 1032              		.cfi_def_cfa_offset 32
 1033 0004 0390     		str	r0, [sp, #12]
 1034 0006 0291     		str	r1, [sp, #8]
 1035 0008 0192     		str	r2, [sp, #4]
 1036              		.loc 7 105 0
 1037 000a 0C4B     		ldr	r3, .L77
 1038 000c 1B68     		ldr	r3, [r3]
 1039 000e 0593     		str	r3, [sp, #20]
 1040              		.loc 7 112 0
 1041 0010 4FF48072 		mov	r2, #256
ARM GAS  C:\Users\PCHAUT~1\AppData\Local\Temp\ccLw8kky.s 			page 20


 1042 0014 0021     		movs	r1, #0
 1043 0016 0A48     		ldr	r0, .L77+4
 1044 0018 FFF7FEFF 		bl	memset
 1045              		.loc 7 114 0
 1046 001c 0849     		ldr	r1, .L77+4
 1047 001e 0398     		ldr	r0, [sp, #12]
 1048 0020 FFF7FEFF 		bl	scan_files
 1049              		.loc 7 115 0
 1050 0024 00BF     		nop
 1051 0026 054B     		ldr	r3, .L77
 1052 0028 059A     		ldr	r2, [sp, #20]
 1053 002a 1B68     		ldr	r3, [r3]
 1054 002c 9A42     		cmp	r2, r3
 1055 002e 01D0     		beq	.L76
 1056 0030 FFF7FEFF 		bl	__stack_chk_fail
 1057              	.L76:
 1058 0034 07B0     		add	sp, sp, #28
 1059              		.cfi_def_cfa_offset 4
 1060              		@ sp needed
 1061 0036 5DF804FB 		ldr	pc, [sp], #4
 1062              	.L78:
 1063 003a 00BF     		.align	2
 1064              	.L77:
 1065 003c 00000000 		.word	__stack_chk_guard
 1066 0040 00000000 		.word	fbuff
 1067              		.cfi_endproc
 1068              	.LFE264:
 1069              		.size	cmd_tree, .-cmd_tree
 1070              		.section	.rodata
 1071 00f6 0000     		.align	2
 1072              	.LC9:
 1073 00f8 55736167 		.ascii	"Usage: hello\015\012\000"
 1073      653A2068 
 1073      656C6C6F 
 1073      0D0A00
 1074 0107 00       		.align	2
 1075              	.LC10:
 1076 0108 20202020 		.ascii	"       Creates hello.txt with 'Hello World'\015\012"
 1076      20202043 
 1076      72656174 
 1076      65732068 
 1076      656C6C6F 
 1077 0135 00       		.ascii	"\000"
 1078 0136 0000     		.align	2
 1079              	.LC11:
 1080 0138 68656C6C 		.ascii	"hello.txt\000"
 1080      6F2E7478 
 1080      7400
 1081 0142 0000     		.align	2
 1082              	.LC12:
 1083 0144 46533A20 		.ascii	"FS: f_open(\"hello.txt\") failed.\015\012\000"
 1083      665F6F70 
 1083      656E2822 
 1083      68656C6C 
 1083      6F2E7478 
 1084 0166 0000     		.align	2
 1085              	.LC13:
ARM GAS  C:\Users\PCHAUT~1\AppData\Local\Temp\ccLw8kky.s 			page 21


 1086 0168 46533A20 		.ascii	"FS: f_open(\"hello.txt\") succeeded\015\012\000"
 1086      665F6F70 
 1086      656E2822 
 1086      68656C6C 
 1086      6F2E7478 
 1087              		.align	2
 1088              	.LC14:
 1089 018c 48656C6C 		.ascii	"Hello World\000"
 1089      6F20576F 
 1089      726C6400 
 1090              		.align	2
 1091              	.LC15:
 1092 0198 46533A20 		.ascii	"FS: f_puts(\"Hello World\",\"hello.txt\") failed\015"
 1092      665F7075 
 1092      74732822 
 1092      48656C6C 
 1092      6F20576F 
 1093 01c5 0A00     		.ascii	"\012\000"
 1094 01c7 00       		.align	2
 1095              	.LC16:
 1096 01c8 46533A20 		.ascii	"FS: f_puts(\"Hello World\",\"hello.txt\") succeeded"
 1096      665F7075 
 1096      74732822 
 1096      48656C6C 
 1096      6F20576F 
 1097 01f7 0D0A00   		.ascii	"\015\012\000"
 1098              		.section	.text.cmd_hello,"ax",%progbits
 1099              		.align	1
 1100              		.p2align 4,,15
 1101              		.global	cmd_hello
 1102              		.syntax unified
 1103              		.thumb
 1104              		.thumb_func
 1105              		.fpu fpv4-sp-d16
 1106              		.type	cmd_hello, %function
 1107              	cmd_hello:
 1108              	.LFB265:
 1109              		.loc 7 118 0
 1110              		.cfi_startproc
 1111              		@ args = 0, pretend = 0, frame = 584
 1112              		@ frame_needed = 0, uses_anonymous_args = 0
 1113 0000 10B5     		push	{r4, lr}
 1114              		.cfi_def_cfa_offset 8
 1115              		.cfi_offset 4, -8
 1116              		.cfi_offset 14, -4
 1117 0002 ADF5127D 		sub	sp, sp, #584
 1118              		.cfi_def_cfa_offset 592
 1119 0006 03AB     		add	r3, sp, #12
 1120 0008 1860     		str	r0, [r3]
 1121 000a 02AB     		add	r3, sp, #8
 1122 000c 1960     		str	r1, [r3]
 1123 000e 01AB     		add	r3, sp, #4
 1124 0010 1A60     		str	r2, [r3]
 1125              		.loc 7 118 0
 1126 0012 2C4B     		ldr	r3, .L87
 1127 0014 1B68     		ldr	r3, [r3]
 1128 0016 9193     		str	r3, [sp, #580]
ARM GAS  C:\Users\PCHAUT~1\AppData\Local\Temp\ccLw8kky.s 			page 22


 1129              		.loc 7 126 0
 1130 0018 02AB     		add	r3, sp, #8
 1131 001a 1B68     		ldr	r3, [r3]
 1132 001c 002B     		cmp	r3, #0
 1133 001e 0ADD     		ble	.L80
 1134              		.loc 7 127 0
 1135 0020 03AB     		add	r3, sp, #12
 1136 0022 2949     		ldr	r1, .L87+4
 1137 0024 1868     		ldr	r0, [r3]
 1138 0026 FFF7FEFF 		bl	chprintf
 1139              		.loc 7 128 0
 1140 002a 03AB     		add	r3, sp, #12
 1141 002c 2749     		ldr	r1, .L87+8
 1142 002e 1868     		ldr	r0, [r3]
 1143 0030 FFF7FEFF 		bl	chprintf
 1144              		.loc 7 129 0
 1145 0034 3CE0     		b	.L79
 1146              	.L80:
 1147              		.loc 7 134 0
 1148 0036 0DF11704 		add	r4, sp, #23
 1149 003a 07AB     		add	r3, sp, #28
 1150 003c 0B22     		movs	r2, #11
 1151 003e 2449     		ldr	r1, .L87+12
 1152 0040 1846     		mov	r0, r3
 1153 0042 FFF7FEFF 		bl	f_open
 1154 0046 0346     		mov	r3, r0
 1155 0048 2370     		strb	r3, [r4]
 1156              		.loc 7 135 0
 1157 004a 0DF11703 		add	r3, sp, #23
 1158 004e 1B78     		ldrb	r3, [r3]	@ zero_extendqisi2
 1159 0050 002B     		cmp	r3, #0
 1160 0052 0DD0     		beq	.L82
 1161              		.loc 7 136 0
 1162 0054 03AB     		add	r3, sp, #12
 1163 0056 1F49     		ldr	r1, .L87+16
 1164 0058 1868     		ldr	r0, [r3]
 1165 005a FFF7FEFF 		bl	chprintf
 1166              		.loc 7 137 0
 1167 005e 0DF11703 		add	r3, sp, #23
 1168 0062 1A78     		ldrb	r2, [r3]	@ zero_extendqisi2
 1169 0064 03AB     		add	r3, sp, #12
 1170 0066 1146     		mov	r1, r2
 1171 0068 1868     		ldr	r0, [r3]
 1172 006a FFF7FEFF 		bl	fverbose_error
 1173              		.loc 7 138 0
 1174 006e 1FE0     		b	.L79
 1175              	.L82:
 1176              		.loc 7 140 0
 1177 0070 03AB     		add	r3, sp, #12
 1178 0072 1949     		ldr	r1, .L87+20
 1179 0074 1868     		ldr	r0, [r3]
 1180 0076 FFF7FEFF 		bl	chprintf
 1181              		.loc 7 145 0
 1182 007a 06AC     		add	r4, sp, #24
 1183 007c 07AB     		add	r3, sp, #28
 1184 007e 1946     		mov	r1, r3
 1185 0080 1648     		ldr	r0, .L87+24
ARM GAS  C:\Users\PCHAUT~1\AppData\Local\Temp\ccLw8kky.s 			page 23


 1186 0082 FFF7FEFF 		bl	f_puts
 1187 0086 2060     		str	r0, [r4]
 1188              		.loc 7 146 0
 1189 0088 06AB     		add	r3, sp, #24
 1190 008a 1B68     		ldr	r3, [r3]
 1191 008c B3F1FF3F 		cmp	r3, #-1
 1192 0090 05D1     		bne	.L83
 1193              		.loc 7 147 0
 1194 0092 03AB     		add	r3, sp, #12
 1195 0094 1249     		ldr	r1, .L87+28
 1196 0096 1868     		ldr	r0, [r3]
 1197 0098 FFF7FEFF 		bl	chprintf
 1198 009c 04E0     		b	.L84
 1199              	.L83:
 1200              		.loc 7 149 0
 1201 009e 03AB     		add	r3, sp, #12
 1202 00a0 1049     		ldr	r1, .L87+32
 1203 00a2 1868     		ldr	r0, [r3]
 1204 00a4 FFF7FEFF 		bl	chprintf
 1205              	.L84:
 1206              		.loc 7 154 0
 1207 00a8 07AB     		add	r3, sp, #28
 1208 00aa 1846     		mov	r0, r3
 1209 00ac FFF7FEFF 		bl	f_close
 1210              	.L79:
 1211              		.loc 7 155 0
 1212 00b0 044B     		ldr	r3, .L87
 1213 00b2 919A     		ldr	r2, [sp, #580]
 1214 00b4 1B68     		ldr	r3, [r3]
 1215 00b6 9A42     		cmp	r2, r3
 1216 00b8 01D0     		beq	.L86
 1217 00ba FFF7FEFF 		bl	__stack_chk_fail
 1218              	.L86:
 1219 00be 0DF5127D 		add	sp, sp, #584
 1220              		.cfi_def_cfa_offset 8
 1221              		@ sp needed
 1222 00c2 10BD     		pop	{r4, pc}
 1223              	.L88:
 1224              		.align	2
 1225              	.L87:
 1226 00c4 00000000 		.word	__stack_chk_guard
 1227 00c8 F8000000 		.word	.LC9
 1228 00cc 08010000 		.word	.LC10
 1229 00d0 38010000 		.word	.LC11
 1230 00d4 44010000 		.word	.LC12
 1231 00d8 68010000 		.word	.LC13
 1232 00dc 8C010000 		.word	.LC14
 1233 00e0 98010000 		.word	.LC15
 1234 00e4 C8010000 		.word	.LC16
 1235              		.cfi_endproc
 1236              	.LFE265:
 1237              		.size	cmd_hello, .-cmd_hello
 1238              		.section	.rodata
 1239 01fa 0000     		.align	2
 1240              	.LC17:
 1241 01fc 55736167 		.ascii	"Usage: mkdir dirName\015\012\000"
 1241      653A206D 
ARM GAS  C:\Users\PCHAUT~1\AppData\Local\Temp\ccLw8kky.s 			page 24


 1241      6B646972 
 1241      20646972 
 1241      4E616D65 
 1242 0213 00       		.align	2
 1243              	.LC18:
 1244 0214 20202020 		.ascii	"       Creates directory with dirName (no spaces)\015"
 1244      20202043 
 1244      72656174 
 1244      65732064 
 1244      69726563 
 1245 0246 0A00     		.ascii	"\012\000"
 1246              		.align	2
 1247              	.LC19:
 1248 0248 46533A20 		.ascii	"FS: f_mkdir(%s) failed\015\012\000"
 1248      665F6D6B 
 1248      64697228 
 1248      25732920 
 1248      6661696C 
 1249 0261 000000   		.align	2
 1250              	.LC20:
 1251 0264 46533A20 		.ascii	"FS: f_mkdir(%s) succeeded\015\012\000"
 1251      665F6D6B 
 1251      64697228 
 1251      25732920 
 1251      73756363 
 1252              		.section	.text.cmd_mkdir,"ax",%progbits
 1253              		.align	1
 1254              		.p2align 4,,15
 1255              		.global	cmd_mkdir
 1256              		.syntax unified
 1257              		.thumb
 1258              		.thumb_func
 1259              		.fpu fpv4-sp-d16
 1260              		.type	cmd_mkdir, %function
 1261              	cmd_mkdir:
 1262              	.LFB266:
 1263              		.loc 7 157 0
 1264              		.cfi_startproc
 1265              		@ args = 0, pretend = 0, frame = 24
 1266              		@ frame_needed = 0, uses_anonymous_args = 0
 1267 0000 00B5     		push	{lr}
 1268              		.cfi_def_cfa_offset 4
 1269              		.cfi_offset 14, -4
 1270 0002 87B0     		sub	sp, sp, #28
 1271              		.cfi_def_cfa_offset 32
 1272 0004 0390     		str	r0, [sp, #12]
 1273 0006 0291     		str	r1, [sp, #8]
 1274 0008 0192     		str	r2, [sp, #4]
 1275              		.loc 7 157 0
 1276 000a 1D4B     		ldr	r3, .L94
 1277 000c 1B68     		ldr	r3, [r3]
 1278 000e 0593     		str	r3, [sp, #20]
 1279              		.loc 7 159 0
 1280 0010 029B     		ldr	r3, [sp, #8]
 1281 0012 012B     		cmp	r3, #1
 1282 0014 08D0     		beq	.L90
 1283              		.loc 7 160 0
ARM GAS  C:\Users\PCHAUT~1\AppData\Local\Temp\ccLw8kky.s 			page 25


 1284 0016 1B49     		ldr	r1, .L94+4
 1285 0018 0398     		ldr	r0, [sp, #12]
 1286 001a FFF7FEFF 		bl	chprintf
 1287              		.loc 7 161 0
 1288 001e 1A49     		ldr	r1, .L94+8
 1289 0020 0398     		ldr	r0, [sp, #12]
 1290 0022 FFF7FEFF 		bl	chprintf
 1291              		.loc 7 162 0
 1292 0026 21E0     		b	.L89
 1293              	.L90:
 1294              		.loc 7 167 0
 1295 0028 019B     		ldr	r3, [sp, #4]
 1296 002a 1B68     		ldr	r3, [r3]
 1297 002c 1846     		mov	r0, r3
 1298 002e FFF7FEFF 		bl	f_mkdir
 1299 0032 0346     		mov	r3, r0
 1300 0034 8DF81330 		strb	r3, [sp, #19]
 1301              		.loc 7 168 0
 1302 0038 9DF81330 		ldrb	r3, [sp, #19]	@ zero_extendqisi2
 1303 003c 002B     		cmp	r3, #0
 1304 003e 0DD0     		beq	.L92
 1305              		.loc 7 172 0
 1306 0040 019B     		ldr	r3, [sp, #4]
 1307 0042 1B68     		ldr	r3, [r3]
 1308 0044 1A46     		mov	r2, r3
 1309 0046 1149     		ldr	r1, .L94+12
 1310 0048 0398     		ldr	r0, [sp, #12]
 1311 004a FFF7FEFF 		bl	chprintf
 1312              		.loc 7 173 0
 1313 004e 9DF81330 		ldrb	r3, [sp, #19]	@ zero_extendqisi2
 1314 0052 1946     		mov	r1, r3
 1315 0054 0398     		ldr	r0, [sp, #12]
 1316 0056 FFF7FEFF 		bl	fverbose_error
 1317              		.loc 7 174 0
 1318 005a 07E0     		b	.L89
 1319              	.L92:
 1320              		.loc 7 176 0
 1321 005c 019B     		ldr	r3, [sp, #4]
 1322 005e 1B68     		ldr	r3, [r3]
 1323 0060 1A46     		mov	r2, r3
 1324 0062 0B49     		ldr	r1, .L94+16
 1325 0064 0398     		ldr	r0, [sp, #12]
 1326 0066 FFF7FEFF 		bl	chprintf
 1327              		.loc 7 178 0
 1328 006a 00BF     		nop
 1329              	.L89:
 1330              		.loc 7 179 0
 1331 006c 044B     		ldr	r3, .L94
 1332 006e 059A     		ldr	r2, [sp, #20]
 1333 0070 1B68     		ldr	r3, [r3]
 1334 0072 9A42     		cmp	r2, r3
 1335 0074 01D0     		beq	.L93
 1336 0076 FFF7FEFF 		bl	__stack_chk_fail
 1337              	.L93:
 1338 007a 07B0     		add	sp, sp, #28
 1339              		.cfi_def_cfa_offset 4
 1340              		@ sp needed
ARM GAS  C:\Users\PCHAUT~1\AppData\Local\Temp\ccLw8kky.s 			page 26


 1341 007c 5DF804FB 		ldr	pc, [sp], #4
 1342              	.L95:
 1343              		.align	2
 1344              	.L94:
 1345 0080 00000000 		.word	__stack_chk_guard
 1346 0084 FC010000 		.word	.LC17
 1347 0088 14020000 		.word	.LC18
 1348 008c 48020000 		.word	.LC19
 1349 0090 64020000 		.word	.LC20
 1350              		.cfi_endproc
 1351              	.LFE266:
 1352              		.size	cmd_mkdir, .-cmd_mkdir
 1353              		.section	.rodata
 1354              		.align	2
 1355              	.LC21:
 1356 0280 55736167 		.ascii	"Usage: setlabel label\015\012\000"
 1356      653A2073 
 1356      65746C61 
 1356      62656C20 
 1356      6C616265 
 1357              		.align	2
 1358              	.LC22:
 1359 0298 20202020 		.ascii	"       Sets FAT label (no spaces)\015\012\000"
 1359      20202053 
 1359      65747320 
 1359      46415420 
 1359      6C616265 
 1360              		.align	2
 1361              	.LC23:
 1362 02bc 46533A20 		.ascii	"FS: f_setlabel(%s) failed.\015\012\000"
 1362      665F7365 
 1362      746C6162 
 1362      656C2825 
 1362      73292066 
 1363 02d9 000000   		.align	2
 1364              	.LC24:
 1365 02dc 46533A20 		.ascii	"FS: f_setlabel(%s) succeeded.\015\012\000"
 1365      665F7365 
 1365      746C6162 
 1365      656C2825 
 1365      73292073 
 1366              		.section	.text.cmd_setlabel,"ax",%progbits
 1367              		.align	1
 1368              		.p2align 4,,15
 1369              		.global	cmd_setlabel
 1370              		.syntax unified
 1371              		.thumb
 1372              		.thumb_func
 1373              		.fpu fpv4-sp-d16
 1374              		.type	cmd_setlabel, %function
 1375              	cmd_setlabel:
 1376              	.LFB267:
 1377              		.loc 7 181 0
 1378              		.cfi_startproc
 1379              		@ args = 0, pretend = 0, frame = 24
 1380              		@ frame_needed = 0, uses_anonymous_args = 0
 1381 0000 00B5     		push	{lr}
ARM GAS  C:\Users\PCHAUT~1\AppData\Local\Temp\ccLw8kky.s 			page 27


 1382              		.cfi_def_cfa_offset 4
 1383              		.cfi_offset 14, -4
 1384 0002 87B0     		sub	sp, sp, #28
 1385              		.cfi_def_cfa_offset 32
 1386 0004 0390     		str	r0, [sp, #12]
 1387 0006 0291     		str	r1, [sp, #8]
 1388 0008 0192     		str	r2, [sp, #4]
 1389              		.loc 7 181 0
 1390 000a 1A4B     		ldr	r3, .L101
 1391 000c 1B68     		ldr	r3, [r3]
 1392 000e 0593     		str	r3, [sp, #20]
 1393              		.loc 7 183 0
 1394 0010 029B     		ldr	r3, [sp, #8]
 1395 0012 012B     		cmp	r3, #1
 1396 0014 08D0     		beq	.L97
 1397              		.loc 7 184 0
 1398 0016 1849     		ldr	r1, .L101+4
 1399 0018 0398     		ldr	r0, [sp, #12]
 1400 001a FFF7FEFF 		bl	chprintf
 1401              		.loc 7 185 0
 1402 001e 1749     		ldr	r1, .L101+8
 1403 0020 0398     		ldr	r0, [sp, #12]
 1404 0022 FFF7FEFF 		bl	chprintf
 1405              		.loc 7 186 0
 1406 0026 1BE0     		b	.L96
 1407              	.L97:
 1408              		.loc 7 191 0
 1409 0028 019B     		ldr	r3, [sp, #4]
 1410 002a 1B68     		ldr	r3, [r3]
 1411 002c 1846     		mov	r0, r3
 1412 002e FFF7FEFF 		bl	f_setlabel
 1413 0032 0346     		mov	r3, r0
 1414 0034 8DF81330 		strb	r3, [sp, #19]
 1415              		.loc 7 192 0
 1416 0038 9DF81330 		ldrb	r3, [sp, #19]	@ zero_extendqisi2
 1417 003c 002B     		cmp	r3, #0
 1418 003e 0AD0     		beq	.L99
 1419              		.loc 7 193 0
 1420 0040 0F49     		ldr	r1, .L101+12
 1421 0042 0398     		ldr	r0, [sp, #12]
 1422 0044 FFF7FEFF 		bl	chprintf
 1423              		.loc 7 194 0
 1424 0048 9DF81330 		ldrb	r3, [sp, #19]	@ zero_extendqisi2
 1425 004c 1946     		mov	r1, r3
 1426 004e 0398     		ldr	r0, [sp, #12]
 1427 0050 FFF7FEFF 		bl	fverbose_error
 1428              		.loc 7 195 0
 1429 0054 04E0     		b	.L96
 1430              	.L99:
 1431              		.loc 7 197 0
 1432 0056 0B49     		ldr	r1, .L101+16
 1433 0058 0398     		ldr	r0, [sp, #12]
 1434 005a FFF7FEFF 		bl	chprintf
 1435              		.loc 7 199 0
 1436 005e 00BF     		nop
 1437              	.L96:
 1438              		.loc 7 200 0
ARM GAS  C:\Users\PCHAUT~1\AppData\Local\Temp\ccLw8kky.s 			page 28


 1439 0060 044B     		ldr	r3, .L101
 1440 0062 059A     		ldr	r2, [sp, #20]
 1441 0064 1B68     		ldr	r3, [r3]
 1442 0066 9A42     		cmp	r2, r3
 1443 0068 01D0     		beq	.L100
 1444 006a FFF7FEFF 		bl	__stack_chk_fail
 1445              	.L100:
 1446 006e 07B0     		add	sp, sp, #28
 1447              		.cfi_def_cfa_offset 4
 1448              		@ sp needed
 1449 0070 5DF804FB 		ldr	pc, [sp], #4
 1450              	.L102:
 1451              		.align	2
 1452              	.L101:
 1453 0074 00000000 		.word	__stack_chk_guard
 1454 0078 80020000 		.word	.LC21
 1455 007c 98020000 		.word	.LC22
 1456 0080 BC020000 		.word	.LC23
 1457 0084 DC020000 		.word	.LC24
 1458              		.cfi_endproc
 1459              	.LFE267:
 1460              		.size	cmd_setlabel, .-cmd_setlabel
 1461              		.section	.rodata
 1462              		.align	2
 1463              	.LC25:
 1464 02fc 55736167 		.ascii	"Usage: getlabel\015\012\000"
 1464      653A2067 
 1464      65746C61 
 1464      62656C0D 
 1464      0A00
 1465 030e 0000     		.align	2
 1466              	.LC26:
 1467 0310 20202020 		.ascii	"       Gets and prints FAT label\015\012\000"
 1467      20202047 
 1467      65747320 
 1467      616E6420 
 1467      7072696E 
 1468 0333 00       		.align	2
 1469              	.LC27:
 1470 0334 00       		.ascii	"\000"
 1471 0335 000000   		.align	2
 1472              	.LC28:
 1473 0338 46533A20 		.ascii	"FS: f_getlabel failed.\015\012\000"
 1473      665F6765 
 1473      746C6162 
 1473      656C2066 
 1473      61696C65 
 1474 0351 000000   		.align	2
 1475              	.LC29:
 1476 0354 4C414245 		.ascii	"LABEL: %s\015\012\000"
 1476      4C3A2025 
 1476      730D0A00 
 1477              		.align	2
 1478              	.LC30:
 1479 0360 2020532F 		.ascii	"  S/N: 0x%X\015\012\000"
 1479      4E3A2030 
 1479      7825580D 
ARM GAS  C:\Users\PCHAUT~1\AppData\Local\Temp\ccLw8kky.s 			page 29


 1479      0A00
 1480              		.section	.text.cmd_getlabel,"ax",%progbits
 1481              		.align	1
 1482              		.p2align 4,,15
 1483              		.global	cmd_getlabel
 1484              		.syntax unified
 1485              		.thumb
 1486              		.thumb_func
 1487              		.fpu fpv4-sp-d16
 1488              		.type	cmd_getlabel, %function
 1489              	cmd_getlabel:
 1490              	.LFB268:
 1491              		.loc 7 202 0
 1492              		.cfi_startproc
 1493              		@ args = 0, pretend = 0, frame = 40
 1494              		@ frame_needed = 0, uses_anonymous_args = 0
 1495 0000 00B5     		push	{lr}
 1496              		.cfi_def_cfa_offset 4
 1497              		.cfi_offset 14, -4
 1498 0002 8BB0     		sub	sp, sp, #44
 1499              		.cfi_def_cfa_offset 48
 1500 0004 0390     		str	r0, [sp, #12]
 1501 0006 0291     		str	r1, [sp, #8]
 1502 0008 0192     		str	r2, [sp, #4]
 1503              		.loc 7 202 0
 1504 000a 224B     		ldr	r3, .L109
 1505 000c 1B68     		ldr	r3, [r3]
 1506 000e 0993     		str	r3, [sp, #36]
 1507              		.loc 7 207 0
 1508 0010 029B     		ldr	r3, [sp, #8]
 1509 0012 002B     		cmp	r3, #0
 1510 0014 08DD     		ble	.L104
 1511              		.loc 7 208 0
 1512 0016 2049     		ldr	r1, .L109+4
 1513 0018 0398     		ldr	r0, [sp, #12]
 1514 001a FFF7FEFF 		bl	chprintf
 1515              		.loc 7 209 0
 1516 001e 1F49     		ldr	r1, .L109+8
 1517 0020 0398     		ldr	r0, [sp, #12]
 1518 0022 FFF7FEFF 		bl	chprintf
 1519              		.loc 7 210 0
 1520 0026 2AE0     		b	.L103
 1521              	.L104:
 1522              		.loc 7 212 0
 1523 0028 06AB     		add	r3, sp, #24
 1524 002a 0C22     		movs	r2, #12
 1525 002c 0021     		movs	r1, #0
 1526 002e 1846     		mov	r0, r3
 1527 0030 FFF7FEFF 		bl	memset
 1528              		.loc 7 216 0
 1529 0034 05AA     		add	r2, sp, #20
 1530 0036 06AB     		add	r3, sp, #24
 1531 0038 1946     		mov	r1, r3
 1532 003a 1948     		ldr	r0, .L109+12
 1533 003c FFF7FEFF 		bl	f_getlabel
 1534 0040 0346     		mov	r3, r0
 1535 0042 8DF81330 		strb	r3, [sp, #19]
ARM GAS  C:\Users\PCHAUT~1\AppData\Local\Temp\ccLw8kky.s 			page 30


 1536              		.loc 7 217 0
 1537 0046 9DF81330 		ldrb	r3, [sp, #19]	@ zero_extendqisi2
 1538 004a 002B     		cmp	r3, #0
 1539 004c 0AD0     		beq	.L106
 1540              		.loc 7 218 0
 1541 004e 1549     		ldr	r1, .L109+16
 1542 0050 0398     		ldr	r0, [sp, #12]
 1543 0052 FFF7FEFF 		bl	chprintf
 1544              		.loc 7 219 0
 1545 0056 9DF81330 		ldrb	r3, [sp, #19]	@ zero_extendqisi2
 1546 005a 1946     		mov	r1, r3
 1547 005c 0398     		ldr	r0, [sp, #12]
 1548 005e FFF7FEFF 		bl	fverbose_error
 1549              		.loc 7 220 0
 1550 0062 0CE0     		b	.L103
 1551              	.L106:
 1552              		.loc 7 225 0
 1553 0064 06AB     		add	r3, sp, #24
 1554 0066 1A46     		mov	r2, r3
 1555 0068 0F49     		ldr	r1, .L109+20
 1556 006a 0398     		ldr	r0, [sp, #12]
 1557 006c FFF7FEFF 		bl	chprintf
 1558              		.loc 7 226 0
 1559 0070 059B     		ldr	r3, [sp, #20]
 1560 0072 1A46     		mov	r2, r3
 1561 0074 0D49     		ldr	r1, .L109+24
 1562 0076 0398     		ldr	r0, [sp, #12]
 1563 0078 FFF7FEFF 		bl	chprintf
 1564              		.loc 7 227 0
 1565 007c 00BF     		nop
 1566              	.L103:
 1567              		.loc 7 228 0
 1568 007e 054B     		ldr	r3, .L109
 1569 0080 099A     		ldr	r2, [sp, #36]
 1570 0082 1B68     		ldr	r3, [r3]
 1571 0084 9A42     		cmp	r2, r3
 1572 0086 01D0     		beq	.L108
 1573 0088 FFF7FEFF 		bl	__stack_chk_fail
 1574              	.L108:
 1575 008c 0BB0     		add	sp, sp, #44
 1576              		.cfi_def_cfa_offset 4
 1577              		@ sp needed
 1578 008e 5DF804FB 		ldr	pc, [sp], #4
 1579              	.L110:
 1580 0092 00BF     		.align	2
 1581              	.L109:
 1582 0094 00000000 		.word	__stack_chk_guard
 1583 0098 FC020000 		.word	.LC25
 1584 009c 10030000 		.word	.LC26
 1585 00a0 34030000 		.word	.LC27
 1586 00a4 38030000 		.word	.LC28
 1587 00a8 54030000 		.word	.LC29
 1588 00ac 60030000 		.word	.LC30
 1589              		.cfi_endproc
 1590              	.LFE268:
 1591              		.size	cmd_getlabel, .-cmd_getlabel
 1592              		.section	.rodata
ARM GAS  C:\Users\PCHAUT~1\AppData\Local\Temp\ccLw8kky.s 			page 31


 1593 036e 0000     		.align	2
 1594              	.LC31:
 1595 0370 55736167 		.ascii	"Usage: cat filename\015\012\000"
 1595      653A2063 
 1595      61742066 
 1595      696C656E 
 1595      616D650D 
 1596 0386 0000     		.align	2
 1597              	.LC32:
 1598 0388 20202020 		.ascii	"       Echos filename (no spaces)\015\012\000"
 1598      20202045 
 1598      63686F73 
 1598      2066696C 
 1598      656E616D 
 1599              		.align	2
 1600              	.LC33:
 1601 03ac 46533A20 		.ascii	"FS: f_open(%s) failed.\015\012\000"
 1601      665F6F70 
 1601      656E2825 
 1601      73292066 
 1601      61696C65 
 1602 03c5 000000   		.align	2
 1603              	.LC34:
 1604 03c8 46533A20 		.ascii	"FS: f_read() failed\015\012\000"
 1604      665F7265 
 1604      61642829 
 1604      20666169 
 1604      6C65640D 
 1605 03de 0000     		.align	2
 1606              	.LC35:
 1607 03e0 257300   		.ascii	"%s\000"
 1608 03e3 00       		.align	2
 1609              	.LC36:
 1610 03e4 0D0A00   		.ascii	"\015\012\000"
 1611              		.section	.text.cmd_cat,"ax",%progbits
 1612              		.align	1
 1613              		.p2align 4,,15
 1614              		.global	cmd_cat
 1615              		.syntax unified
 1616              		.thumb
 1617              		.thumb_func
 1618              		.fpu fpv4-sp-d16
 1619              		.type	cmd_cat, %function
 1620              	cmd_cat:
 1621              	.LFB269:
 1622              		.loc 7 233 0
 1623              		.cfi_startproc
 1624              		@ args = 0, pretend = 0, frame = 840
 1625              		@ frame_needed = 0, uses_anonymous_args = 0
 1626 0000 10B5     		push	{r4, lr}
 1627              		.cfi_def_cfa_offset 8
 1628              		.cfi_offset 4, -8
 1629              		.cfi_offset 14, -4
 1630 0002 ADF5527D 		sub	sp, sp, #840
 1631              		.cfi_def_cfa_offset 848
 1632 0006 03AB     		add	r3, sp, #12
 1633 0008 1860     		str	r0, [r3]
ARM GAS  C:\Users\PCHAUT~1\AppData\Local\Temp\ccLw8kky.s 			page 32


 1634 000a 02AB     		add	r3, sp, #8
 1635 000c 1960     		str	r1, [r3]
 1636 000e 01AB     		add	r3, sp, #4
 1637 0010 1A60     		str	r2, [r3]
 1638              		.loc 7 233 0
 1639 0012 3F4B     		ldr	r3, .L118
 1640 0014 1B68     		ldr	r3, [r3]
 1641 0016 D193     		str	r3, [sp, #836]
 1642              		.loc 7 237 0
 1643 0018 06AB     		add	r3, sp, #24
 1644 001a FF22     		movs	r2, #255
 1645 001c 1A60     		str	r2, [r3]
 1646              		.loc 7 242 0
 1647 001e 02AB     		add	r3, sp, #8
 1648 0020 1B68     		ldr	r3, [r3]
 1649 0022 012B     		cmp	r3, #1
 1650 0024 0AD0     		beq	.L112
 1651              		.loc 7 243 0
 1652 0026 03AB     		add	r3, sp, #12
 1653 0028 3A49     		ldr	r1, .L118+4
 1654 002a 1868     		ldr	r0, [r3]
 1655 002c FFF7FEFF 		bl	chprintf
 1656              		.loc 7 244 0
 1657 0030 03AB     		add	r3, sp, #12
 1658 0032 3949     		ldr	r1, .L118+8
 1659 0034 1868     		ldr	r0, [r3]
 1660 0036 FFF7FEFF 		bl	chprintf
 1661              		.loc 7 245 0
 1662 003a 5FE0     		b	.L111
 1663              	.L112:
 1664              		.loc 7 250 0
 1665 003c 01AB     		add	r3, sp, #4
 1666 003e 1B68     		ldr	r3, [r3]
 1667 0040 1968     		ldr	r1, [r3]
 1668 0042 0DF11304 		add	r4, sp, #19
 1669 0046 07AB     		add	r3, sp, #28
 1670 0048 0122     		movs	r2, #1
 1671 004a 1846     		mov	r0, r3
 1672 004c FFF7FEFF 		bl	f_open
 1673 0050 0346     		mov	r3, r0
 1674 0052 2370     		strb	r3, [r4]
 1675              		.loc 7 251 0
 1676 0054 0DF11303 		add	r3, sp, #19
 1677 0058 1B78     		ldrb	r3, [r3]	@ zero_extendqisi2
 1678 005a 002B     		cmp	r3, #0
 1679 005c 10D0     		beq	.L114
 1680              		.loc 7 252 0
 1681 005e 01AB     		add	r3, sp, #4
 1682 0060 1B68     		ldr	r3, [r3]
 1683 0062 1A68     		ldr	r2, [r3]
 1684 0064 03AB     		add	r3, sp, #12
 1685 0066 2D49     		ldr	r1, .L118+12
 1686 0068 1868     		ldr	r0, [r3]
 1687 006a FFF7FEFF 		bl	chprintf
 1688              		.loc 7 253 0
 1689 006e 0DF11303 		add	r3, sp, #19
 1690 0072 1A78     		ldrb	r2, [r3]	@ zero_extendqisi2
ARM GAS  C:\Users\PCHAUT~1\AppData\Local\Temp\ccLw8kky.s 			page 33


 1691 0074 03AB     		add	r3, sp, #12
 1692 0076 1146     		mov	r1, r2
 1693 0078 1868     		ldr	r0, [r3]
 1694 007a FFF7FEFF 		bl	fverbose_error
 1695              		.loc 7 254 0
 1696 007e 3DE0     		b	.L111
 1697              	.L114:
 1698              		.loc 7 264 0
 1699 0080 91AB     		add	r3, sp, #580
 1700 0082 FF22     		movs	r2, #255
 1701 0084 0021     		movs	r1, #0
 1702 0086 1846     		mov	r0, r3
 1703 0088 FFF7FEFF 		bl	memset
 1704              		.loc 7 268 0
 1705 008c 0DF11304 		add	r4, sp, #19
 1706 0090 05AB     		add	r3, sp, #20
 1707 0092 06AA     		add	r2, sp, #24
 1708 0094 91A9     		add	r1, sp, #580
 1709 0096 07A8     		add	r0, sp, #28
 1710 0098 1268     		ldr	r2, [r2]
 1711 009a FFF7FEFF 		bl	f_read
 1712 009e 0346     		mov	r3, r0
 1713 00a0 2370     		strb	r3, [r4]
 1714              		.loc 7 269 0
 1715 00a2 0DF11303 		add	r3, sp, #19
 1716 00a6 1B78     		ldrb	r3, [r3]	@ zero_extendqisi2
 1717 00a8 002B     		cmp	r3, #0
 1718 00aa 11D0     		beq	.L115
 1719              		.loc 7 270 0
 1720 00ac 03AB     		add	r3, sp, #12
 1721 00ae 1C49     		ldr	r1, .L118+16
 1722 00b0 1868     		ldr	r0, [r3]
 1723 00b2 FFF7FEFF 		bl	chprintf
 1724              		.loc 7 271 0
 1725 00b6 0DF11303 		add	r3, sp, #19
 1726 00ba 1A78     		ldrb	r2, [r3]	@ zero_extendqisi2
 1727 00bc 03AB     		add	r3, sp, #12
 1728 00be 1146     		mov	r1, r2
 1729 00c0 1868     		ldr	r0, [r3]
 1730 00c2 FFF7FEFF 		bl	fverbose_error
 1731              		.loc 7 272 0
 1732 00c6 07AB     		add	r3, sp, #28
 1733 00c8 1846     		mov	r0, r3
 1734 00ca FFF7FEFF 		bl	f_close
 1735              		.loc 7 273 0
 1736 00ce 15E0     		b	.L111
 1737              	.L115:
 1738              		.loc 7 275 0
 1739 00d0 91AA     		add	r2, sp, #580
 1740 00d2 03AB     		add	r3, sp, #12
 1741 00d4 1349     		ldr	r1, .L118+20
 1742 00d6 1868     		ldr	r0, [r3]
 1743 00d8 FFF7FEFF 		bl	chprintf
 1744              		.loc 7 276 0
 1745 00dc 05AB     		add	r3, sp, #20
 1746 00de 1B68     		ldr	r3, [r3]
 1747 00e0 06AA     		add	r2, sp, #24
ARM GAS  C:\Users\PCHAUT~1\AppData\Local\Temp\ccLw8kky.s 			page 34


 1748 00e2 1268     		ldr	r2, [r2]
 1749 00e4 9A42     		cmp	r2, r3
 1750 00e6 CBD9     		bls	.L114
 1751              		.loc 7 277 0
 1752 00e8 03AB     		add	r3, sp, #12
 1753 00ea 0F49     		ldr	r1, .L118+24
 1754 00ec 1868     		ldr	r0, [r3]
 1755 00ee FFF7FEFF 		bl	chprintf
 1756              		.loc 7 281 0
 1757 00f2 07AB     		add	r3, sp, #28
 1758 00f4 1846     		mov	r0, r3
 1759 00f6 FFF7FEFF 		bl	f_close
 1760              		.loc 7 282 0
 1761 00fa 00BF     		nop
 1762              	.L111:
 1763              		.loc 7 283 0
 1764 00fc 044B     		ldr	r3, .L118
 1765 00fe D19A     		ldr	r2, [sp, #836]
 1766 0100 1B68     		ldr	r3, [r3]
 1767 0102 9A42     		cmp	r2, r3
 1768 0104 01D0     		beq	.L117
 1769 0106 FFF7FEFF 		bl	__stack_chk_fail
 1770              	.L117:
 1771 010a 0DF5527D 		add	sp, sp, #840
 1772              		.cfi_def_cfa_offset 8
 1773              		@ sp needed
 1774 010e 10BD     		pop	{r4, pc}
 1775              	.L119:
 1776              		.align	2
 1777              	.L118:
 1778 0110 00000000 		.word	__stack_chk_guard
 1779 0114 70030000 		.word	.LC31
 1780 0118 88030000 		.word	.LC32
 1781 011c AC030000 		.word	.LC33
 1782 0120 C8030000 		.word	.LC34
 1783 0124 E0030000 		.word	.LC35
 1784 0128 E4030000 		.word	.LC36
 1785              		.cfi_endproc
 1786              	.LFE269:
 1787              		.size	cmd_cat, .-cmd_cat
 1788              		.section	.rodata
 1789 03e7 00       		.align	2
 1790              	.LC37:
 1791 03e8 55736167 		.ascii	"Usage: sf_play pathToTheMusic\015\012\000"
 1791      653A2073 
 1791      665F706C 
 1791      61792070 
 1791      61746854 
 1792              		.section	.text.cmd_sound_file_play,"ax",%progbits
 1793              		.align	1
 1794              		.p2align 4,,15
 1795              		.syntax unified
 1796              		.thumb
 1797              		.thumb_func
 1798              		.fpu fpv4-sp-d16
 1799              		.type	cmd_sound_file_play, %function
 1800              	cmd_sound_file_play:
ARM GAS  C:\Users\PCHAUT~1\AppData\Local\Temp\ccLw8kky.s 			page 35


 1801              	.LFB270:
 1802              		.loc 7 286 0
 1803              		.cfi_startproc
 1804              		@ args = 0, pretend = 0, frame = 24
 1805              		@ frame_needed = 0, uses_anonymous_args = 0
 1806 0000 00B5     		push	{lr}
 1807              		.cfi_def_cfa_offset 4
 1808              		.cfi_offset 14, -4
 1809 0002 87B0     		sub	sp, sp, #28
 1810              		.cfi_def_cfa_offset 32
 1811 0004 0390     		str	r0, [sp, #12]
 1812 0006 0291     		str	r1, [sp, #8]
 1813 0008 0192     		str	r2, [sp, #4]
 1814              		.loc 7 286 0
 1815 000a 0D4B     		ldr	r3, .L124
 1816 000c 1B68     		ldr	r3, [r3]
 1817 000e 0593     		str	r3, [sp, #20]
 1818              		.loc 7 288 0
 1819 0010 029B     		ldr	r3, [sp, #8]
 1820 0012 012B     		cmp	r3, #1
 1821 0014 04D0     		beq	.L121
 1822              		.loc 7 289 0
 1823 0016 0B49     		ldr	r1, .L124+4
 1824 0018 0398     		ldr	r0, [sp, #12]
 1825 001a FFF7FEFF 		bl	chprintf
 1826              		.loc 7 290 0
 1827 001e 05E0     		b	.L120
 1828              	.L121:
 1829              		.loc 7 293 0
 1830 0020 019B     		ldr	r3, [sp, #4]
 1831 0022 1B68     		ldr	r3, [r3]
 1832 0024 0221     		movs	r1, #2
 1833 0026 1846     		mov	r0, r3
 1834 0028 FFF7FEFF 		bl	playSoundFile
 1835              	.L120:
 1836              		.loc 7 295 0
 1837 002c 044B     		ldr	r3, .L124
 1838 002e 059A     		ldr	r2, [sp, #20]
 1839 0030 1B68     		ldr	r3, [r3]
 1840 0032 9A42     		cmp	r2, r3
 1841 0034 01D0     		beq	.L123
 1842 0036 FFF7FEFF 		bl	__stack_chk_fail
 1843              	.L123:
 1844 003a 07B0     		add	sp, sp, #28
 1845              		.cfi_def_cfa_offset 4
 1846              		@ sp needed
 1847 003c 5DF804FB 		ldr	pc, [sp], #4
 1848              	.L125:
 1849              		.align	2
 1850              	.L124:
 1851 0040 00000000 		.word	__stack_chk_guard
 1852 0044 E8030000 		.word	.LC37
 1853              		.cfi_endproc
 1854              	.LFE270:
 1855              		.size	cmd_sound_file_play, .-cmd_sound_file_play
 1856              		.section	.text.cmd_sound_file_stop,"ax",%progbits
 1857              		.align	1
ARM GAS  C:\Users\PCHAUT~1\AppData\Local\Temp\ccLw8kky.s 			page 36


 1858              		.p2align 4,,15
 1859              		.syntax unified
 1860              		.thumb
 1861              		.thumb_func
 1862              		.fpu fpv4-sp-d16
 1863              		.type	cmd_sound_file_stop, %function
 1864              	cmd_sound_file_stop:
 1865              	.LFB271:
 1866              		.loc 7 298 0
 1867              		.cfi_startproc
 1868              		@ args = 0, pretend = 0, frame = 24
 1869              		@ frame_needed = 0, uses_anonymous_args = 0
 1870 0000 00B5     		push	{lr}
 1871              		.cfi_def_cfa_offset 4
 1872              		.cfi_offset 14, -4
 1873 0002 87B0     		sub	sp, sp, #28
 1874              		.cfi_def_cfa_offset 32
 1875 0004 0390     		str	r0, [sp, #12]
 1876 0006 0291     		str	r1, [sp, #8]
 1877 0008 0192     		str	r2, [sp, #4]
 1878              		.loc 7 298 0
 1879 000a 084B     		ldr	r3, .L128
 1880 000c 1B68     		ldr	r3, [r3]
 1881 000e 0593     		str	r3, [sp, #20]
 1882              		.loc 7 303 0
 1883 0010 FFF7FEFF 		bl	stopCurrentSoundFile
 1884              		.loc 7 304 0
 1885 0014 00BF     		nop
 1886 0016 054B     		ldr	r3, .L128
 1887 0018 059A     		ldr	r2, [sp, #20]
 1888 001a 1B68     		ldr	r3, [r3]
 1889 001c 9A42     		cmp	r2, r3
 1890 001e 01D0     		beq	.L127
 1891 0020 FFF7FEFF 		bl	__stack_chk_fail
 1892              	.L127:
 1893 0024 07B0     		add	sp, sp, #28
 1894              		.cfi_def_cfa_offset 4
 1895              		@ sp needed
 1896 0026 5DF804FB 		ldr	pc, [sp], #4
 1897              	.L129:
 1898 002a 00BF     		.align	2
 1899              	.L128:
 1900 002c 00000000 		.word	__stack_chk_guard
 1901              		.cfi_endproc
 1902              	.LFE271:
 1903              		.size	cmd_sound_file_stop, .-cmd_sound_file_stop
 1904              		.section	.rodata
 1905              		.align	2
 1906              	.LC38:
 1907 0408 55736167 		.ascii	"Usage: sf_volume value\015\012\000"
 1907      653A2073 
 1907      665F766F 
 1907      6C756D65 
 1907      2076616C 
 1908              		.section	.text.cmd_sound_file_volume,"ax",%progbits
 1909              		.align	1
 1910              		.p2align 4,,15
ARM GAS  C:\Users\PCHAUT~1\AppData\Local\Temp\ccLw8kky.s 			page 37


 1911              		.syntax unified
 1912              		.thumb
 1913              		.thumb_func
 1914              		.fpu fpv4-sp-d16
 1915              		.type	cmd_sound_file_volume, %function
 1916              	cmd_sound_file_volume:
 1917              	.LFB272:
 1918              		.loc 7 307 0
 1919              		.cfi_startproc
 1920              		@ args = 0, pretend = 0, frame = 24
 1921              		@ frame_needed = 0, uses_anonymous_args = 0
 1922 0000 00B5     		push	{lr}
 1923              		.cfi_def_cfa_offset 4
 1924              		.cfi_offset 14, -4
 1925 0002 87B0     		sub	sp, sp, #28
 1926              		.cfi_def_cfa_offset 32
 1927 0004 0390     		str	r0, [sp, #12]
 1928 0006 0291     		str	r1, [sp, #8]
 1929 0008 0192     		str	r2, [sp, #4]
 1930              		.loc 7 307 0
 1931 000a 0F4B     		ldr	r3, .L134
 1932 000c 1B68     		ldr	r3, [r3]
 1933 000e 0593     		str	r3, [sp, #20]
 1934              		.loc 7 309 0
 1935 0010 029B     		ldr	r3, [sp, #8]
 1936 0012 012B     		cmp	r3, #1
 1937 0014 04D0     		beq	.L131
 1938              		.loc 7 310 0
 1939 0016 0D49     		ldr	r1, .L134+4
 1940 0018 0398     		ldr	r0, [sp, #12]
 1941 001a FFF7FEFF 		bl	chprintf
 1942              		.loc 7 311 0
 1943 001e 09E0     		b	.L130
 1944              	.L131:
 1945              		.loc 7 314 0
 1946 0020 019B     		ldr	r3, [sp, #4]
 1947 0022 1B68     		ldr	r3, [r3]
 1948 0024 1846     		mov	r0, r3
 1949 0026 FFF7FEFF 		bl	atoi
 1950 002a 0346     		mov	r3, r0
 1951 002c DBB2     		uxtb	r3, r3
 1952 002e 1846     		mov	r0, r3
 1953 0030 FFF7FEFF 		bl	setSoundFileVolume
 1954              	.L130:
 1955              		.loc 7 315 0
 1956 0034 044B     		ldr	r3, .L134
 1957 0036 059A     		ldr	r2, [sp, #20]
 1958 0038 1B68     		ldr	r3, [r3]
 1959 003a 9A42     		cmp	r2, r3
 1960 003c 01D0     		beq	.L133
 1961 003e FFF7FEFF 		bl	__stack_chk_fail
 1962              	.L133:
 1963 0042 07B0     		add	sp, sp, #28
 1964              		.cfi_def_cfa_offset 4
 1965              		@ sp needed
 1966 0044 5DF804FB 		ldr	pc, [sp], #4
 1967              	.L135:
ARM GAS  C:\Users\PCHAUT~1\AppData\Local\Temp\ccLw8kky.s 			page 38


 1968              		.align	2
 1969              	.L134:
 1970 0048 00000000 		.word	__stack_chk_guard
 1971 004c 08040000 		.word	.LC38
 1972              		.cfi_endproc
 1973              	.LFE272:
 1974              		.size	cmd_sound_file_volume, .-cmd_sound_file_volume
 1975              		.section	.rodata
 1976 0421 000000   		.align	2
 1977              	.LC39:
 1978 0424 55736167 		.ascii	"Usage: ml_play numberOfTheMelody\015\012\000"
 1978      653A206D 
 1978      6C5F706C 
 1978      6179206E 
 1978      756D6265 
 1979 0447 00       		.align	2
 1980              	.LC40:
 1981 0448 6D656C6F 		.ascii	"melodies availables :\015\012\000"
 1981      64696573 
 1981      20617661 
 1981      696C6162 
 1981      6C657320 
 1982              		.align	2
 1983              	.LC41:
 1984 0460 31292049 		.ascii	"1) IMPOSSIBLE_MISSION,\015\012\000"
 1984      4D504F53 
 1984      5349424C 
 1984      455F4D49 
 1984      5353494F 
 1985 0479 000000   		.align	2
 1986              	.LC42:
 1987 047c 32292057 		.ascii	"2) WE_ARE_THE_CHAMPIONS,\015\012\000"
 1987      455F4152 
 1987      455F5448 
 1987      455F4348 
 1987      414D5049 
 1988 0497 00       		.align	2
 1989              	.LC43:
 1990 0498 33292052 		.ascii	"3) RUSSIA,\015\012\000"
 1990      55535349 
 1990      412C0D0A 
 1990      00
 1991 04a5 000000   		.align	2
 1992              	.LC44:
 1993 04a8 3429204D 		.ascii	"4) MARIO,\015\012\000"
 1993      4152494F 
 1993      2C0D0A00 
 1994              		.align	2
 1995              	.LC45:
 1996 04b4 35292055 		.ascii	"5) UNDERWORLD,\015\012\000"
 1996      4E444552 
 1996      574F524C 
 1996      442C0D0A 
 1996      00
 1997 04c5 000000   		.align	2
 1998              	.LC46:
 1999 04c8 3629204D 		.ascii	"6) MARIO_START,\015\012\000"
ARM GAS  C:\Users\PCHAUT~1\AppData\Local\Temp\ccLw8kky.s 			page 39


 1999      4152494F 
 1999      5F535441 
 1999      52542C0D 
 1999      0A00
 2000 04da 0000     		.align	2
 2001              	.LC47:
 2002 04dc 3729204D 		.ascii	"7) MARIO_DEATH,\015\012\000"
 2002      4152494F 
 2002      5F444541 
 2002      54482C0D 
 2002      0A00
 2003 04ee 0000     		.align	2
 2004              	.LC48:
 2005 04f0 3829204D 		.ascii	"8) MARIO_FLAG,\015\012\000"
 2005      4152494F 
 2005      5F464C41 
 2005      472C0D0A 
 2005      00
 2006 0501 000000   		.align	2
 2007              	.LC49:
 2008 0504 39292057 		.ascii	"9) WALKING,\015\012\000"
 2008      414C4B49 
 2008      4E472C0D 
 2008      0A00
 2009 0512 0000     		.align	2
 2010              	.LC50:
 2011 0514 31302920 		.ascii	"10) PIRATES_OF_THE_CARIBBEAN,\015\012\000"
 2011      50495241 
 2011      5445535F 
 2011      4F465F54 
 2011      48455F43 
 2012              		.align	2
 2013              	.LC51:
 2014 0534 31312920 		.ascii	"11) SIMPSON,\015\012\000"
 2014      53494D50 
 2014      534F4E2C 
 2014      0D0A00
 2015 0543 00       		.align	2
 2016              	.LC52:
 2017 0544 31322920 		.ascii	"12) STARWARS,\015\012\000"
 2017      53544152 
 2017      57415253 
 2017      2C0D0A00 
 2018              		.align	2
 2019              	.LC53:
 2020 0554 31332920 		.ascii	"13) SANDSTORMS,\015\012\000"
 2020      53414E44 
 2020      53544F52 
 2020      4D532C0D 
 2020      0A00
 2021 0566 0000     		.align	2
 2022              	.LC54:
 2023 0568 31342920 		.ascii	"14) SEVEN_NATION_ARMY\015\012\000"
 2023      53455645 
 2023      4E5F4E41 
 2023      54494F4E 
 2023      5F41524D 
ARM GAS  C:\Users\PCHAUT~1\AppData\Local\Temp\ccLw8kky.s 			page 40


 2024              		.section	.text.cmd_melody_play,"ax",%progbits
 2025              		.align	1
 2026              		.p2align 4,,15
 2027              		.syntax unified
 2028              		.thumb
 2029              		.thumb_func
 2030              		.fpu fpv4-sp-d16
 2031              		.type	cmd_melody_play, %function
 2032              	cmd_melody_play:
 2033              	.LFB273:
 2034              		.loc 7 318 0
 2035              		.cfi_startproc
 2036              		@ args = 0, pretend = 0, frame = 24
 2037              		@ frame_needed = 0, uses_anonymous_args = 0
 2038 0000 00B5     		push	{lr}
 2039              		.cfi_def_cfa_offset 4
 2040              		.cfi_offset 14, -4
 2041 0002 87B0     		sub	sp, sp, #28
 2042              		.cfi_def_cfa_offset 32
 2043 0004 0390     		str	r0, [sp, #12]
 2044 0006 0291     		str	r1, [sp, #8]
 2045 0008 0192     		str	r2, [sp, #4]
 2046              		.loc 7 318 0
 2047 000a 2F4B     		ldr	r3, .L140
 2048 000c 1B68     		ldr	r3, [r3]
 2049 000e 0593     		str	r3, [sp, #20]
 2050              		.loc 7 320 0
 2051 0010 029B     		ldr	r3, [sp, #8]
 2052 0012 012B     		cmp	r3, #1
 2053 0014 40D0     		beq	.L137
 2054              		.loc 7 321 0
 2055 0016 2D49     		ldr	r1, .L140+4
 2056 0018 0398     		ldr	r0, [sp, #12]
 2057 001a FFF7FEFF 		bl	chprintf
 2058              		.loc 7 322 0
 2059 001e 2C49     		ldr	r1, .L140+8
 2060 0020 0398     		ldr	r0, [sp, #12]
 2061 0022 FFF7FEFF 		bl	chprintf
 2062              		.loc 7 323 0
 2063 0026 2B49     		ldr	r1, .L140+12
 2064 0028 0398     		ldr	r0, [sp, #12]
 2065 002a FFF7FEFF 		bl	chprintf
 2066              		.loc 7 324 0
 2067 002e 2A49     		ldr	r1, .L140+16
 2068 0030 0398     		ldr	r0, [sp, #12]
 2069 0032 FFF7FEFF 		bl	chprintf
 2070              		.loc 7 325 0
 2071 0036 2949     		ldr	r1, .L140+20
 2072 0038 0398     		ldr	r0, [sp, #12]
 2073 003a FFF7FEFF 		bl	chprintf
 2074              		.loc 7 326 0
 2075 003e 2849     		ldr	r1, .L140+24
 2076 0040 0398     		ldr	r0, [sp, #12]
 2077 0042 FFF7FEFF 		bl	chprintf
 2078              		.loc 7 327 0
 2079 0046 2749     		ldr	r1, .L140+28
 2080 0048 0398     		ldr	r0, [sp, #12]
ARM GAS  C:\Users\PCHAUT~1\AppData\Local\Temp\ccLw8kky.s 			page 41


 2081 004a FFF7FEFF 		bl	chprintf
 2082              		.loc 7 328 0
 2083 004e 2649     		ldr	r1, .L140+32
 2084 0050 0398     		ldr	r0, [sp, #12]
 2085 0052 FFF7FEFF 		bl	chprintf
 2086              		.loc 7 329 0
 2087 0056 2549     		ldr	r1, .L140+36
 2088 0058 0398     		ldr	r0, [sp, #12]
 2089 005a FFF7FEFF 		bl	chprintf
 2090              		.loc 7 330 0
 2091 005e 2449     		ldr	r1, .L140+40
 2092 0060 0398     		ldr	r0, [sp, #12]
 2093 0062 FFF7FEFF 		bl	chprintf
 2094              		.loc 7 331 0
 2095 0066 2349     		ldr	r1, .L140+44
 2096 0068 0398     		ldr	r0, [sp, #12]
 2097 006a FFF7FEFF 		bl	chprintf
 2098              		.loc 7 332 0
 2099 006e 2249     		ldr	r1, .L140+48
 2100 0070 0398     		ldr	r0, [sp, #12]
 2101 0072 FFF7FEFF 		bl	chprintf
 2102              		.loc 7 333 0
 2103 0076 2149     		ldr	r1, .L140+52
 2104 0078 0398     		ldr	r0, [sp, #12]
 2105 007a FFF7FEFF 		bl	chprintf
 2106              		.loc 7 334 0
 2107 007e 2049     		ldr	r1, .L140+56
 2108 0080 0398     		ldr	r0, [sp, #12]
 2109 0082 FFF7FEFF 		bl	chprintf
 2110              		.loc 7 335 0
 2111 0086 1F49     		ldr	r1, .L140+60
 2112 0088 0398     		ldr	r0, [sp, #12]
 2113 008a FFF7FEFF 		bl	chprintf
 2114              		.loc 7 336 0
 2115 008e 1E49     		ldr	r1, .L140+64
 2116 0090 0398     		ldr	r0, [sp, #12]
 2117 0092 FFF7FEFF 		bl	chprintf
 2118              		.loc 7 337 0
 2119 0096 0DE0     		b	.L136
 2120              	.L137:
 2121              		.loc 7 339 0
 2122 0098 019B     		ldr	r3, [sp, #4]
 2123 009a 1B68     		ldr	r3, [r3]
 2124 009c 1846     		mov	r0, r3
 2125 009e FFF7FEFF 		bl	atoi
 2126 00a2 0346     		mov	r3, r0
 2127 00a4 DBB2     		uxtb	r3, r3
 2128 00a6 013B     		subs	r3, r3, #1
 2129 00a8 DBB2     		uxtb	r3, r3
 2130 00aa 0022     		movs	r2, #0
 2131 00ac 0221     		movs	r1, #2
 2132 00ae 1846     		mov	r0, r3
 2133 00b0 FFF7FEFF 		bl	playMelody
 2134              	.L136:
 2135              		.loc 7 340 0
 2136 00b4 044B     		ldr	r3, .L140
 2137 00b6 059A     		ldr	r2, [sp, #20]
ARM GAS  C:\Users\PCHAUT~1\AppData\Local\Temp\ccLw8kky.s 			page 42


 2138 00b8 1B68     		ldr	r3, [r3]
 2139 00ba 9A42     		cmp	r2, r3
 2140 00bc 01D0     		beq	.L139
 2141 00be FFF7FEFF 		bl	__stack_chk_fail
 2142              	.L139:
 2143 00c2 07B0     		add	sp, sp, #28
 2144              		.cfi_def_cfa_offset 4
 2145              		@ sp needed
 2146 00c4 5DF804FB 		ldr	pc, [sp], #4
 2147              	.L141:
 2148              		.align	2
 2149              	.L140:
 2150 00c8 00000000 		.word	__stack_chk_guard
 2151 00cc 24040000 		.word	.LC39
 2152 00d0 48040000 		.word	.LC40
 2153 00d4 60040000 		.word	.LC41
 2154 00d8 7C040000 		.word	.LC42
 2155 00dc 98040000 		.word	.LC43
 2156 00e0 A8040000 		.word	.LC44
 2157 00e4 B4040000 		.word	.LC45
 2158 00e8 C8040000 		.word	.LC46
 2159 00ec DC040000 		.word	.LC47
 2160 00f0 F0040000 		.word	.LC48
 2161 00f4 04050000 		.word	.LC49
 2162 00f8 14050000 		.word	.LC50
 2163 00fc 34050000 		.word	.LC51
 2164 0100 44050000 		.word	.LC52
 2165 0104 54050000 		.word	.LC53
 2166 0108 68050000 		.word	.LC54
 2167              		.cfi_endproc
 2168              	.LFE273:
 2169              		.size	cmd_melody_play, .-cmd_melody_play
 2170              		.section	.text.cmd_melody_stop,"ax",%progbits
 2171              		.align	1
 2172              		.p2align 4,,15
 2173              		.syntax unified
 2174              		.thumb
 2175              		.thumb_func
 2176              		.fpu fpv4-sp-d16
 2177              		.type	cmd_melody_stop, %function
 2178              	cmd_melody_stop:
 2179              	.LFB274:
 2180              		.loc 7 343 0
 2181              		.cfi_startproc
 2182              		@ args = 0, pretend = 0, frame = 24
 2183              		@ frame_needed = 0, uses_anonymous_args = 0
 2184 0000 00B5     		push	{lr}
 2185              		.cfi_def_cfa_offset 4
 2186              		.cfi_offset 14, -4
 2187 0002 87B0     		sub	sp, sp, #28
 2188              		.cfi_def_cfa_offset 32
 2189 0004 0390     		str	r0, [sp, #12]
 2190 0006 0291     		str	r1, [sp, #8]
 2191 0008 0192     		str	r2, [sp, #4]
 2192              		.loc 7 343 0
 2193 000a 084B     		ldr	r3, .L144
 2194 000c 1B68     		ldr	r3, [r3]
ARM GAS  C:\Users\PCHAUT~1\AppData\Local\Temp\ccLw8kky.s 			page 43


 2195 000e 0593     		str	r3, [sp, #20]
 2196              		.loc 7 348 0
 2197 0010 FFF7FEFF 		bl	stopCurrentMelody
 2198              		.loc 7 349 0
 2199 0014 00BF     		nop
 2200 0016 054B     		ldr	r3, .L144
 2201 0018 059A     		ldr	r2, [sp, #20]
 2202 001a 1B68     		ldr	r3, [r3]
 2203 001c 9A42     		cmp	r2, r3
 2204 001e 01D0     		beq	.L143
 2205 0020 FFF7FEFF 		bl	__stack_chk_fail
 2206              	.L143:
 2207 0024 07B0     		add	sp, sp, #28
 2208              		.cfi_def_cfa_offset 4
 2209              		@ sp needed
 2210 0026 5DF804FB 		ldr	pc, [sp], #4
 2211              	.L145:
 2212 002a 00BF     		.align	2
 2213              	.L144:
 2214 002c 00000000 		.word	__stack_chk_guard
 2215              		.cfi_endproc
 2216              	.LFE274:
 2217              		.size	cmd_melody_stop, .-cmd_melody_stop
 2218              		.section	.rodata
 2219              		.align	2
 2220              	.LC55:
 2221 0580 55736167 		.ascii	"Usage: mem\015\012\000"
 2221      653A206D 
 2221      656D0D0A 
 2221      00
 2222 058d 000000   		.align	2
 2223              	.LC56:
 2224 0590 636F7265 		.ascii	"core free memory : %u bytes\015\012\000"
 2224      20667265 
 2224      65206D65 
 2224      6D6F7279 
 2224      203A2025 
 2225 05ae 0000     		.align	2
 2226              	.LC57:
 2227 05b0 68656170 		.ascii	"heap fragments     : %u\015\012\000"
 2227      20667261 
 2227      676D656E 
 2227      74732020 
 2227      2020203A 
 2228 05ca 0000     		.align	2
 2229              	.LC58:
 2230 05cc 68656170 		.ascii	"heap free total    : %u bytes\015\012\000"
 2230      20667265 
 2230      6520746F 
 2230      74616C20 
 2230      2020203A 
 2231              		.section	.text.cmd_mem,"ax",%progbits
 2232              		.align	1
 2233              		.p2align 4,,15
 2234              		.syntax unified
 2235              		.thumb
 2236              		.thumb_func
ARM GAS  C:\Users\PCHAUT~1\AppData\Local\Temp\ccLw8kky.s 			page 44


 2237              		.fpu fpv4-sp-d16
 2238              		.type	cmd_mem, %function
 2239              	cmd_mem:
 2240              	.LFB275:
 2241              		.loc 7 352 0
 2242              		.cfi_startproc
 2243              		@ args = 0, pretend = 0, frame = 32
 2244              		@ frame_needed = 0, uses_anonymous_args = 0
 2245 0000 00B5     		push	{lr}
 2246              		.cfi_def_cfa_offset 4
 2247              		.cfi_offset 14, -4
 2248 0002 89B0     		sub	sp, sp, #36
 2249              		.cfi_def_cfa_offset 40
 2250 0004 0390     		str	r0, [sp, #12]
 2251 0006 0291     		str	r1, [sp, #8]
 2252 0008 0192     		str	r2, [sp, #4]
 2253              		.loc 7 352 0
 2254 000a 174B     		ldr	r3, .L150
 2255 000c 1B68     		ldr	r3, [r3]
 2256 000e 0793     		str	r3, [sp, #28]
 2257              		.loc 7 356 0
 2258 0010 029B     		ldr	r3, [sp, #8]
 2259 0012 002B     		cmp	r3, #0
 2260 0014 04DD     		ble	.L147
 2261              		.loc 7 357 0
 2262 0016 1549     		ldr	r1, .L150+4
 2263 0018 0398     		ldr	r0, [sp, #12]
 2264 001a FFF7FEFF 		bl	chprintf
 2265 001e 18E0     		b	.L146
 2266              	.L147:
 2267              		.loc 7 360 0
 2268 0020 05AB     		add	r3, sp, #20
 2269 0022 1946     		mov	r1, r3
 2270 0024 0020     		movs	r0, #0
 2271 0026 FFF7FEFF 		bl	chHeapStatus
 2272 002a 0690     		str	r0, [sp, #24]
 2273              		.loc 7 361 0
 2274 002c FFF7FEFF 		bl	chCoreGetStatusX
 2275 0030 0346     		mov	r3, r0
 2276 0032 1A46     		mov	r2, r3
 2277 0034 0E49     		ldr	r1, .L150+8
 2278 0036 0398     		ldr	r0, [sp, #12]
 2279 0038 FFF7FEFF 		bl	chprintf
 2280              		.loc 7 362 0
 2281 003c 069A     		ldr	r2, [sp, #24]
 2282 003e 0D49     		ldr	r1, .L150+12
 2283 0040 0398     		ldr	r0, [sp, #12]
 2284 0042 FFF7FEFF 		bl	chprintf
 2285              		.loc 7 363 0
 2286 0046 059B     		ldr	r3, [sp, #20]
 2287 0048 1A46     		mov	r2, r3
 2288 004a 0B49     		ldr	r1, .L150+16
 2289 004c 0398     		ldr	r0, [sp, #12]
 2290 004e FFF7FEFF 		bl	chprintf
 2291              	.L146:
 2292              		.loc 7 364 0
 2293 0052 054B     		ldr	r3, .L150
ARM GAS  C:\Users\PCHAUT~1\AppData\Local\Temp\ccLw8kky.s 			page 45


 2294 0054 079A     		ldr	r2, [sp, #28]
 2295 0056 1B68     		ldr	r3, [r3]
 2296 0058 9A42     		cmp	r2, r3
 2297 005a 01D0     		beq	.L149
 2298 005c FFF7FEFF 		bl	__stack_chk_fail
 2299              	.L149:
 2300 0060 09B0     		add	sp, sp, #36
 2301              		.cfi_def_cfa_offset 4
 2302              		@ sp needed
 2303 0062 5DF804FB 		ldr	pc, [sp], #4
 2304              	.L151:
 2305 0066 00BF     		.align	2
 2306              	.L150:
 2307 0068 00000000 		.word	__stack_chk_guard
 2308 006c 80050000 		.word	.LC55
 2309 0070 90050000 		.word	.LC56
 2310 0074 B0050000 		.word	.LC57
 2311 0078 CC050000 		.word	.LC58
 2312              		.cfi_endproc
 2313              	.LFE275:
 2314              		.size	cmd_mem, .-cmd_mem
 2315              		.section	.rodata
 2316              		.align	2
 2317              	.LC59:
 2318 05ec 55736167 		.ascii	"Usage: threads\015\012\000"
 2318      653A2074 
 2318      68726561 
 2318      64730D0A 
 2318      00
 2319 05fd 000000   		.align	2
 2320              	.LC60:
 2321 0600 20202020 		.ascii	"        addr        stack prio refs         state\015"
 2321      20202020 
 2321      61646472 
 2321      20202020 
 2321      20202020 
 2322 0632 0A00     		.ascii	"\012\000"
 2323              		.align	2
 2324              	.LC61:
 2325 0634 2530386C 		.ascii	"%08lx %08lx %4lu %4lu %9s\015\012\000"
 2325      78202530 
 2325      386C7820 
 2325      25346C75 
 2325      2025346C 
 2326              		.section	.text.cmd_threads,"ax",%progbits
 2327              		.align	1
 2328              		.p2align 4,,15
 2329              		.syntax unified
 2330              		.thumb
 2331              		.thumb_func
 2332              		.fpu fpv4-sp-d16
 2333              		.type	cmd_threads, %function
 2334              	cmd_threads:
 2335              	.LFB276:
 2336              		.loc 7 367 0
 2337              		.cfi_startproc
 2338              		@ args = 0, pretend = 0, frame = 24
ARM GAS  C:\Users\PCHAUT~1\AppData\Local\Temp\ccLw8kky.s 			page 46


 2339              		@ frame_needed = 0, uses_anonymous_args = 0
 2340 0000 30B5     		push	{r4, r5, lr}
 2341              		.cfi_def_cfa_offset 12
 2342              		.cfi_offset 4, -12
 2343              		.cfi_offset 5, -8
 2344              		.cfi_offset 14, -4
 2345 0002 8BB0     		sub	sp, sp, #44
 2346              		.cfi_def_cfa_offset 56
 2347 0004 0790     		str	r0, [sp, #28]
 2348 0006 0691     		str	r1, [sp, #24]
 2349 0008 0592     		str	r2, [sp, #20]
 2350              		.loc 7 367 0
 2351 000a 1E4B     		ldr	r3, .L157
 2352 000c 1B68     		ldr	r3, [r3]
 2353 000e 0993     		str	r3, [sp, #36]
 2354              		.loc 7 372 0
 2355 0010 069B     		ldr	r3, [sp, #24]
 2356 0012 002B     		cmp	r3, #0
 2357 0014 04DD     		ble	.L153
 2358              		.loc 7 373 0
 2359 0016 1C49     		ldr	r1, .L157+4
 2360 0018 0798     		ldr	r0, [sp, #28]
 2361 001a FFF7FEFF 		bl	chprintf
 2362              		.loc 7 374 0
 2363 001e 28E0     		b	.L152
 2364              	.L153:
 2365              		.loc 7 376 0
 2366 0020 1A49     		ldr	r1, .L157+8
 2367 0022 0798     		ldr	r0, [sp, #28]
 2368 0024 FFF7FEFF 		bl	chprintf
 2369              		.loc 7 377 0
 2370 0028 FFF7FEFF 		bl	chRegFirstThread
 2371 002c 0890     		str	r0, [sp, #32]
 2372              	.L155:
 2373              		.loc 7 379 0 discriminator 1
 2374 002e 0899     		ldr	r1, [sp, #32]
 2375              		.loc 7 380 0 discriminator 1
 2376 0030 089B     		ldr	r3, [sp, #32]
 2377 0032 DB68     		ldr	r3, [r3, #12]
 2378              		.loc 7 379 0 discriminator 1
 2379 0034 1D46     		mov	r5, r3
 2380              		.loc 7 381 0 discriminator 1
 2381 0036 089B     		ldr	r3, [sp, #32]
 2382 0038 9B68     		ldr	r3, [r3, #8]
 2383 003a 089A     		ldr	r2, [sp, #32]
 2384 003c 92F82220 		ldrb	r2, [r2, #34]	@ zero_extendqisi2
 2385 0040 013A     		subs	r2, r2, #1
 2386              		.loc 7 379 0 discriminator 1
 2387 0042 1046     		mov	r0, r2
 2388              		.loc 7 382 0 discriminator 1
 2389 0044 089A     		ldr	r2, [sp, #32]
 2390 0046 92F82020 		ldrb	r2, [r2, #32]	@ zero_extendqisi2
 2391 004a 1446     		mov	r4, r2
 2392              		.loc 7 379 0 discriminator 1
 2393 004c 104A     		ldr	r2, .L157+12
 2394 004e 52F82420 		ldr	r2, [r2, r4, lsl #2]
 2395 0052 0292     		str	r2, [sp, #8]
ARM GAS  C:\Users\PCHAUT~1\AppData\Local\Temp\ccLw8kky.s 			page 47


 2396 0054 0190     		str	r0, [sp, #4]
 2397 0056 0093     		str	r3, [sp]
 2398 0058 2B46     		mov	r3, r5
 2399 005a 0A46     		mov	r2, r1
 2400 005c 0D49     		ldr	r1, .L157+16
 2401 005e 0798     		ldr	r0, [sp, #28]
 2402 0060 FFF7FEFF 		bl	chprintf
 2403              		.loc 7 383 0 discriminator 1
 2404 0064 0898     		ldr	r0, [sp, #32]
 2405 0066 FFF7FEFF 		bl	chRegNextThread
 2406 006a 0890     		str	r0, [sp, #32]
 2407              		.loc 7 384 0 discriminator 1
 2408 006c 089B     		ldr	r3, [sp, #32]
 2409 006e 002B     		cmp	r3, #0
 2410 0070 DDD1     		bne	.L155
 2411              	.L152:
 2412              		.loc 7 385 0
 2413 0072 044B     		ldr	r3, .L157
 2414 0074 099A     		ldr	r2, [sp, #36]
 2415 0076 1B68     		ldr	r3, [r3]
 2416 0078 9A42     		cmp	r2, r3
 2417 007a 01D0     		beq	.L156
 2418 007c FFF7FEFF 		bl	__stack_chk_fail
 2419              	.L156:
 2420 0080 0BB0     		add	sp, sp, #44
 2421              		.cfi_def_cfa_offset 12
 2422              		@ sp needed
 2423 0082 30BD     		pop	{r4, r5, pc}
 2424              	.L158:
 2425              		.align	2
 2426              	.L157:
 2427 0084 00000000 		.word	__stack_chk_guard
 2428 0088 EC050000 		.word	.LC59
 2429 008c 00060000 		.word	.LC60
 2430 0090 00000000 		.word	states.13494
 2431 0094 34060000 		.word	.LC61
 2432              		.cfi_endproc
 2433              	.LFE276:
 2434              		.size	cmd_threads, .-cmd_threads
 2435              		.section	.rodata
 2436              		.align	2
 2437              	.LC62:
 2438 0650 55736167 		.ascii	"Usage: test\015\012\000"
 2438      653A2074 
 2438      6573740D 
 2438      0A00
 2439 065e 0000     		.align	2
 2440              	.LC63:
 2441 0660 6F757420 		.ascii	"out of memory\015\012\000"
 2441      6F66206D 
 2441      656D6F72 
 2441      790D0A00 
 2442              		.section	.text.cmd_test,"ax",%progbits
 2443              		.align	1
 2444              		.p2align 4,,15
 2445              		.syntax unified
 2446              		.thumb
ARM GAS  C:\Users\PCHAUT~1\AppData\Local\Temp\ccLw8kky.s 			page 48


 2447              		.thumb_func
 2448              		.fpu fpv4-sp-d16
 2449              		.type	cmd_test, %function
 2450              	cmd_test:
 2451              	.LFB277:
 2452              		.loc 7 388 0
 2453              		.cfi_startproc
 2454              		@ args = 0, pretend = 0, frame = 24
 2455              		@ frame_needed = 0, uses_anonymous_args = 0
 2456 0000 00B5     		push	{lr}
 2457              		.cfi_def_cfa_offset 4
 2458              		.cfi_offset 14, -4
 2459 0002 89B0     		sub	sp, sp, #36
 2460              		.cfi_def_cfa_offset 40
 2461 0004 0590     		str	r0, [sp, #20]
 2462 0006 0491     		str	r1, [sp, #16]
 2463 0008 0392     		str	r2, [sp, #12]
 2464              		.loc 7 388 0
 2465 000a 164B     		ldr	r3, .L164
 2466 000c 1B68     		ldr	r3, [r3]
 2467 000e 0793     		str	r3, [sp, #28]
 2468              		.loc 7 392 0
 2469 0010 049B     		ldr	r3, [sp, #16]
 2470 0012 002B     		cmp	r3, #0
 2471 0014 04DD     		ble	.L160
 2472              		.loc 7 393 0
 2473 0016 1449     		ldr	r1, .L164+4
 2474 0018 0598     		ldr	r0, [sp, #20]
 2475 001a FFF7FEFF 		bl	chprintf
 2476              		.loc 7 394 0
 2477 001e 16E0     		b	.L159
 2478              	.L160:
 2479              		.loc 7 396 0
 2480 0020 FFF7FEFF 		bl	chThdGetPriorityX
 2481 0024 0246     		mov	r2, r0
 2482 0026 059B     		ldr	r3, [sp, #20]
 2483 0028 0093     		str	r3, [sp]
 2484 002a 104B     		ldr	r3, .L164+8
 2485 002c 4FF41E71 		mov	r1, #632
 2486 0030 0020     		movs	r0, #0
 2487 0032 FFF7FEFF 		bl	chThdCreateFromHeap
 2488 0036 0690     		str	r0, [sp, #24]
 2489              		.loc 7 398 0
 2490 0038 069B     		ldr	r3, [sp, #24]
 2491 003a 002B     		cmp	r3, #0
 2492 003c 04D1     		bne	.L162
 2493              		.loc 7 399 0
 2494 003e 0C49     		ldr	r1, .L164+12
 2495 0040 0598     		ldr	r0, [sp, #20]
 2496 0042 FFF7FEFF 		bl	chprintf
 2497              		.loc 7 400 0
 2498 0046 02E0     		b	.L159
 2499              	.L162:
 2500              		.loc 7 402 0
 2501 0048 0698     		ldr	r0, [sp, #24]
 2502 004a FFF7FEFF 		bl	chThdWait
 2503              	.L159:
ARM GAS  C:\Users\PCHAUT~1\AppData\Local\Temp\ccLw8kky.s 			page 49


 2504              		.loc 7 403 0
 2505 004e 054B     		ldr	r3, .L164
 2506 0050 079A     		ldr	r2, [sp, #28]
 2507 0052 1B68     		ldr	r3, [r3]
 2508 0054 9A42     		cmp	r2, r3
 2509 0056 01D0     		beq	.L163
 2510 0058 FFF7FEFF 		bl	__stack_chk_fail
 2511              	.L163:
 2512 005c 09B0     		add	sp, sp, #36
 2513              		.cfi_def_cfa_offset 4
 2514              		@ sp needed
 2515 005e 5DF804FB 		ldr	pc, [sp], #4
 2516              	.L165:
 2517 0062 00BF     		.align	2
 2518              	.L164:
 2519 0064 00000000 		.word	__stack_chk_guard
 2520 0068 50060000 		.word	.LC62
 2521 006c 00000000 		.word	TestThread
 2522 0070 60060000 		.word	.LC63
 2523              		.cfi_endproc
 2524              	.LFE277:
 2525              		.size	cmd_test, .-cmd_test
 2526              		.section	.rodata
 2527              		.align	2
 2528              	.LC64:
 2529 0670 53595343 		.ascii	"SYSCLK: %i \012 HCLK: %i \012 PCLK1  %i \012 PCLK2 "
 2529      4C4B3A20 
 2529      2569200A 
 2529      2048434C 
 2529      4B3A2025 
 2530 069a 2569200A 		.ascii	"%i \012\000"
 2530      00
 2531              		.section	.text.cmd_readclock,"ax",%progbits
 2532              		.align	1
 2533              		.p2align 4,,15
 2534              		.syntax unified
 2535              		.thumb
 2536              		.thumb_func
 2537              		.fpu fpv4-sp-d16
 2538              		.type	cmd_readclock, %function
 2539              	cmd_readclock:
 2540              	.LFB278:
 2541              		.loc 7 406 0
 2542              		.cfi_startproc
 2543              		@ args = 0, pretend = 0, frame = 24
 2544              		@ frame_needed = 0, uses_anonymous_args = 0
 2545 0000 00B5     		push	{lr}
 2546              		.cfi_def_cfa_offset 4
 2547              		.cfi_offset 14, -4
 2548 0002 89B0     		sub	sp, sp, #36
 2549              		.cfi_def_cfa_offset 40
 2550 0004 0590     		str	r0, [sp, #20]
 2551 0006 0491     		str	r1, [sp, #16]
 2552 0008 0392     		str	r2, [sp, #12]
 2553              		.loc 7 406 0
 2554 000a 0C4B     		ldr	r3, .L168
 2555 000c 1B68     		ldr	r3, [r3]
ARM GAS  C:\Users\PCHAUT~1\AppData\Local\Temp\ccLw8kky.s 			page 50


 2556 000e 0793     		str	r3, [sp, #28]
 2557              		.loc 7 409 0
 2558 0010 0B4B     		ldr	r3, .L168+4
 2559 0012 0193     		str	r3, [sp, #4]
 2560 0014 0B4B     		ldr	r3, .L168+8
 2561 0016 0093     		str	r3, [sp]
 2562 0018 0B4B     		ldr	r3, .L168+12
 2563 001a 0B4A     		ldr	r2, .L168+12
 2564 001c 0B49     		ldr	r1, .L168+16
 2565 001e 0598     		ldr	r0, [sp, #20]
 2566 0020 FFF7FEFF 		bl	chprintf
 2567              		.loc 7 411 0
 2568 0024 00BF     		nop
 2569 0026 054B     		ldr	r3, .L168
 2570 0028 079A     		ldr	r2, [sp, #28]
 2571 002a 1B68     		ldr	r3, [r3]
 2572 002c 9A42     		cmp	r2, r3
 2573 002e 01D0     		beq	.L167
 2574 0030 FFF7FEFF 		bl	__stack_chk_fail
 2575              	.L167:
 2576 0034 09B0     		add	sp, sp, #36
 2577              		.cfi_def_cfa_offset 4
 2578              		@ sp needed
 2579 0036 5DF804FB 		ldr	pc, [sp], #4
 2580              	.L169:
 2581 003a 00BF     		.align	2
 2582              	.L168:
 2583 003c 00000000 		.word	__stack_chk_guard
 2584 0040 00BD0105 		.word	84000000
 2585 0044 80DE8002 		.word	42000000
 2586 0048 007A030A 		.word	168000000
 2587 004c 70060000 		.word	.LC64
 2588              		.cfi_endproc
 2589              	.LFE278:
 2590              		.size	cmd_readclock, .-cmd_readclock
 2591              		.section	.rodata
 2592 069f 00       		.align	2
 2593              	.LC65:
 2594 06a0 55736167 		.ascii	"Usage: sqrt mode int\015\012Modes: a (aseba), b (ma"
 2594      653A2073 
 2594      71727420 
 2594      6D6F6465 
 2594      20696E74 
 2595 06cd 7468292C 		.ascii	"th), c (assembler) is default mode\015\012\000"
 2595      20632028 
 2595      61737365 
 2595      6D626C65 
 2595      72292069 
 2596 06f2 0000     		.align	2
 2597              	.LC66:
 2598 06f4 6100     		.ascii	"a\000"
 2599 06f6 0000     		.align	2
 2600              	.LC67:
 2601 06f8 6200     		.ascii	"b\000"
 2602 06fa 0000     		.align	2
 2603              	.LC68:
 2604 06fc 73717274 		.ascii	"sqrt(%u) = %u \015\012\000"
ARM GAS  C:\Users\PCHAUT~1\AppData\Local\Temp\ccLw8kky.s 			page 51


 2604      28257529 
 2604      203D2025 
 2604      75200D0A 
 2604      00
 2605 070d 000000   		.align	2
 2606              	.LC69:
 2607 0710 74696D65 		.ascii	"time: %u \015\012\000"
 2607      3A202575 
 2607      200D0A00 
 2608              		.section	.text.cmd_sqrt,"ax",%progbits
 2609              		.align	1
 2610              		.p2align 4,,15
 2611              		.syntax unified
 2612              		.thumb
 2613              		.thumb_func
 2614              		.fpu fpv4-sp-d16
 2615              		.type	cmd_sqrt, %function
 2616              	cmd_sqrt:
 2617              	.LFB279:
 2618              		.loc 7 417 0
 2619              		.cfi_startproc
 2620              		@ args = 0, pretend = 0, frame = 56
 2621              		@ frame_needed = 0, uses_anonymous_args = 0
 2622 0000 00B5     		push	{lr}
 2623              		.cfi_def_cfa_offset 4
 2624              		.cfi_offset 14, -4
 2625 0002 8FB0     		sub	sp, sp, #60
 2626              		.cfi_def_cfa_offset 64
 2627 0004 0390     		str	r0, [sp, #12]
 2628 0006 0291     		str	r1, [sp, #8]
 2629 0008 0192     		str	r2, [sp, #4]
 2630              		.loc 7 417 0
 2631 000a 4D4B     		ldr	r3, .L178
 2632 000c 1B68     		ldr	r3, [r3]
 2633 000e 0D93     		str	r3, [sp, #52]
 2634              		.loc 7 421 0
 2635 0010 06AB     		add	r3, sp, #24
 2636 0012 1846     		mov	r0, r3
 2637 0014 FFF7FEFF 		bl	chTMObjectInit
 2638              		.loc 7 423 0
 2639 0018 029B     		ldr	r3, [sp, #8]
 2640 001a 022B     		cmp	r3, #2
 2641 001c 04D0     		beq	.L171
 2642              		.loc 7 424 0
 2643 001e 4949     		ldr	r1, .L178+4
 2644 0020 0398     		ldr	r0, [sp, #12]
 2645 0022 FFF7FEFF 		bl	chprintf
 2646              		.loc 7 457 0
 2647 0026 7FE0     		b	.L177
 2648              	.L171:
 2649              		.loc 7 427 0
 2650 0028 019B     		ldr	r3, [sp, #4]
 2651 002a 0433     		adds	r3, r3, #4
 2652 002c 1B68     		ldr	r3, [r3]
 2653 002e 1846     		mov	r0, r3
 2654 0030 FFF7FEFF 		bl	atoi
 2655 0034 0346     		mov	r3, r0
ARM GAS  C:\Users\PCHAUT~1\AppData\Local\Temp\ccLw8kky.s 			page 52


 2656 0036 ADF81230 		strh	r3, [sp, #18]	@ movhi
 2657              		.loc 7 429 0
 2658 003a 019B     		ldr	r3, [sp, #4]
 2659 003c 1B68     		ldr	r3, [r3]
 2660 003e 4249     		ldr	r1, .L178+8
 2661 0040 1846     		mov	r0, r3
 2662 0042 FFF7FEFF 		bl	strcmp
 2663 0046 0346     		mov	r3, r0
 2664 0048 002B     		cmp	r3, #0
 2665 004a 14D1     		bne	.L173
 2666              		.loc 7 430 0
 2667 004c FFF7FEFF 		bl	chSysLock
 2668              		.loc 7 431 0
 2669 0050 06AB     		add	r3, sp, #24
 2670 0052 1846     		mov	r0, r3
 2671 0054 FFF7FEFF 		bl	chTMStartMeasurementX
 2672              		.loc 7 432 0
 2673 0058 BDF91230 		ldrsh	r3, [sp, #18]
 2674 005c 1846     		mov	r0, r3
 2675 005e FFF7FEFF 		bl	aseba_sqrt
 2676 0062 0346     		mov	r3, r0
 2677 0064 ADF81030 		strh	r3, [sp, #16]	@ movhi
 2678              		.loc 7 433 0
 2679 0068 06AB     		add	r3, sp, #24
 2680 006a 1846     		mov	r0, r3
 2681 006c FFF7FEFF 		bl	chTMStopMeasurementX
 2682              		.loc 7 434 0
 2683 0070 FFF7FEFF 		bl	chSysUnlock
 2684 0074 4AE0     		b	.L174
 2685              	.L173:
 2686              		.loc 7 435 0
 2687 0076 019B     		ldr	r3, [sp, #4]
 2688 0078 1B68     		ldr	r3, [r3]
 2689 007a 3449     		ldr	r1, .L178+12
 2690 007c 1846     		mov	r0, r3
 2691 007e FFF7FEFF 		bl	strcmp
 2692 0082 0346     		mov	r3, r0
 2693 0084 002B     		cmp	r3, #0
 2694 0086 1ED1     		bne	.L175
 2695              		.loc 7 436 0
 2696 0088 FFF7FEFF 		bl	chSysLock
 2697              		.loc 7 437 0
 2698 008c 06AB     		add	r3, sp, #24
 2699 008e 1846     		mov	r0, r3
 2700 0090 FFF7FEFF 		bl	chTMStartMeasurementX
 2701              		.loc 7 438 0
 2702 0094 BDF81230 		ldrh	r3, [sp, #18]
 2703 0098 07EE903A 		vmov	s15, r3	@ int
 2704 009c F8EE677A 		vcvt.f32.u32	s15, s15
 2705 00a0 B0EE670A 		vmov.f32	s0, s15
 2706 00a4 FFF7FEFF 		bl	sqrtf
 2707 00a8 F0EE407A 		vmov.f32	s15, s0
 2708 00ac FCEEE77A 		vcvt.u32.f32	s15, s15
 2709 00b0 17EE903A 		vmov	r3, s15	@ int
 2710 00b4 ADF81030 		strh	r3, [sp, #16]	@ movhi
 2711              		.loc 7 439 0
 2712 00b8 06AB     		add	r3, sp, #24
ARM GAS  C:\Users\PCHAUT~1\AppData\Local\Temp\ccLw8kky.s 			page 53


 2713 00ba 1846     		mov	r0, r3
 2714 00bc FFF7FEFF 		bl	chTMStopMeasurementX
 2715              		.loc 7 440 0
 2716 00c0 FFF7FEFF 		bl	chSysUnlock
 2717 00c4 22E0     		b	.L174
 2718              	.L175:
 2719              		.loc 7 442 0
 2720 00c6 FFF7FEFF 		bl	chSysLock
 2721              		.loc 7 443 0
 2722 00ca 06AB     		add	r3, sp, #24
 2723 00cc 1846     		mov	r0, r3
 2724 00ce FFF7FEFF 		bl	chTMStartMeasurementX
 2725              		.loc 7 444 0
 2726 00d2 BDF81230 		ldrh	r3, [sp, #18]
 2727 00d6 07EE903A 		vmov	s15, r3	@ int
 2728 00da F8EE677A 		vcvt.f32.u32	s15, s15
 2729 00de CDED057A 		vstr.32	s15, [sp, #20]
 2730              		.loc 7 445 0
 2731 00e2 059B     		ldr	r3, [sp, #20]	@ float
 2732 00e4 07EE903A 		vmov	s15, r3
 2733              		.syntax unified
 2734              	@ 445 "../lib/e-puck2_main-processor/src/cmd.c" 1
 2735 00e8 F1EEE77A 		vsqrt.f32 s15, s15
 2736              	@ 0 "" 2
 2737              		.thumb
 2738              		.syntax unified
 2739 00ec CDED057A 		vstr.32	s15, [sp, #20]
 2740              		.loc 7 449 0
 2741 00f0 DDED057A 		vldr.32	s15, [sp, #20]
 2742 00f4 FCEEE77A 		vcvt.u32.f32	s15, s15
 2743 00f8 17EE903A 		vmov	r3, s15	@ int
 2744 00fc ADF81030 		strh	r3, [sp, #16]	@ movhi
 2745              		.loc 7 450 0
 2746 0100 06AB     		add	r3, sp, #24
 2747 0102 1846     		mov	r0, r3
 2748 0104 FFF7FEFF 		bl	chTMStopMeasurementX
 2749              		.loc 7 451 0
 2750 0108 FFF7FEFF 		bl	chSysUnlock
 2751              	.L174:
 2752              		.loc 7 454 0
 2753 010c BDF81220 		ldrh	r2, [sp, #18]
 2754 0110 BDF81030 		ldrh	r3, [sp, #16]
 2755 0114 0E49     		ldr	r1, .L178+16
 2756 0116 0398     		ldr	r0, [sp, #12]
 2757 0118 FFF7FEFF 		bl	chprintf
 2758              		.loc 7 455 0
 2759 011c 089B     		ldr	r3, [sp, #32]
 2760 011e 1A46     		mov	r2, r3
 2761 0120 0C49     		ldr	r1, .L178+20
 2762 0122 0398     		ldr	r0, [sp, #12]
 2763 0124 FFF7FEFF 		bl	chprintf
 2764              	.L177:
 2765              		.loc 7 457 0
 2766 0128 00BF     		nop
 2767 012a 054B     		ldr	r3, .L178
 2768 012c 0D9A     		ldr	r2, [sp, #52]
 2769 012e 1B68     		ldr	r3, [r3]
ARM GAS  C:\Users\PCHAUT~1\AppData\Local\Temp\ccLw8kky.s 			page 54


 2770 0130 9A42     		cmp	r2, r3
 2771 0132 01D0     		beq	.L176
 2772 0134 FFF7FEFF 		bl	__stack_chk_fail
 2773              	.L176:
 2774 0138 0FB0     		add	sp, sp, #60
 2775              		.cfi_def_cfa_offset 4
 2776              		@ sp needed
 2777 013a 5DF804FB 		ldr	pc, [sp], #4
 2778              	.L179:
 2779 013e 00BF     		.align	2
 2780              	.L178:
 2781 0140 00000000 		.word	__stack_chk_guard
 2782 0144 A0060000 		.word	.LC65
 2783 0148 F4060000 		.word	.LC66
 2784 014c F8060000 		.word	.LC67
 2785 0150 FC060000 		.word	.LC68
 2786 0154 10070000 		.word	.LC69
 2787              		.cfi_endproc
 2788              	.LFE279:
 2789              		.size	cmd_sqrt, .-cmd_sqrt
 2790              		.section	.rodata
 2791              		.align	2
 2792              	.LC70:
 2793 071c 55736167 		.ascii	"Usage: atan2 mode a b\015\012Modes: a (aseba), b (m"
 2793      653A2061 
 2793      74616E32 
 2793      206D6F64 
 2793      65206120 
 2794 0749 61746829 		.ascii	"ath) is default mode\015\012\000"
 2794      20697320 
 2794      64656661 
 2794      756C7420 
 2794      6D6F6465 
 2795              		.align	2
 2796              	.LC71:
 2797 0760 6174616E 		.ascii	"atan2(%d, %d) = %d \015\012\000"
 2797      32282564 
 2797      2C202564 
 2797      29203D20 
 2797      2564200D 
 2798              		.section	.text.cmd_atan2,"ax",%progbits
 2799              		.align	1
 2800              		.p2align 4,,15
 2801              		.syntax unified
 2802              		.thumb
 2803              		.thumb_func
 2804              		.fpu fpv4-sp-d16
 2805              		.type	cmd_atan2, %function
 2806              	cmd_atan2:
 2807              	.LFB280:
 2808              		.loc 7 462 0
 2809              		.cfi_startproc
 2810              		@ args = 0, pretend = 0, frame = 56
 2811              		@ frame_needed = 0, uses_anonymous_args = 0
 2812 0000 00B5     		push	{lr}
 2813              		.cfi_def_cfa_offset 4
 2814              		.cfi_offset 14, -4
ARM GAS  C:\Users\PCHAUT~1\AppData\Local\Temp\ccLw8kky.s 			page 55


 2815 0002 91B0     		sub	sp, sp, #68
 2816              		.cfi_def_cfa_offset 72
 2817 0004 0590     		str	r0, [sp, #20]
 2818 0006 0491     		str	r1, [sp, #16]
 2819 0008 0392     		str	r2, [sp, #12]
 2820              		.loc 7 462 0
 2821 000a 464B     		ldr	r3, .L187
 2822 000c 1B68     		ldr	r3, [r3]
 2823 000e 0F93     		str	r3, [sp, #60]
 2824              		.loc 7 465 0
 2825 0010 08AB     		add	r3, sp, #32
 2826 0012 1846     		mov	r0, r3
 2827 0014 FFF7FEFF 		bl	chTMObjectInit
 2828              		.loc 7 467 0
 2829 0018 049B     		ldr	r3, [sp, #16]
 2830 001a 032B     		cmp	r3, #3
 2831 001c 04D0     		beq	.L181
 2832              		.loc 7 468 0
 2833 001e 4249     		ldr	r1, .L187+4
 2834 0020 0598     		ldr	r0, [sp, #20]
 2835 0022 FFF7FEFF 		bl	chprintf
 2836              		.loc 7 491 0
 2837 0026 72E0     		b	.L186
 2838              	.L181:
 2839              		.loc 7 470 0
 2840 0028 039B     		ldr	r3, [sp, #12]
 2841 002a 0433     		adds	r3, r3, #4
 2842 002c 1B68     		ldr	r3, [r3]
 2843 002e 1846     		mov	r0, r3
 2844 0030 FFF7FEFF 		bl	atoi
 2845 0034 0346     		mov	r3, r0
 2846 0036 ADF81C30 		strh	r3, [sp, #28]	@ movhi
 2847              		.loc 7 471 0
 2848 003a 039B     		ldr	r3, [sp, #12]
 2849 003c 0833     		adds	r3, r3, #8
 2850 003e 1B68     		ldr	r3, [r3]
 2851 0040 1846     		mov	r0, r3
 2852 0042 FFF7FEFF 		bl	atoi
 2853 0046 0346     		mov	r3, r0
 2854 0048 ADF81E30 		strh	r3, [sp, #30]	@ movhi
 2855              		.loc 7 473 0
 2856 004c 039B     		ldr	r3, [sp, #12]
 2857 004e 1B68     		ldr	r3, [r3]
 2858 0050 3649     		ldr	r1, .L187+8
 2859 0052 1846     		mov	r0, r3
 2860 0054 FFF7FEFF 		bl	strcmp
 2861 0058 0346     		mov	r3, r0
 2862 005a 002B     		cmp	r3, #0
 2863 005c 17D1     		bne	.L183
 2864              		.loc 7 474 0
 2865 005e FFF7FEFF 		bl	chSysLock
 2866              		.loc 7 475 0
 2867 0062 08AB     		add	r3, sp, #32
 2868 0064 1846     		mov	r0, r3
 2869 0066 FFF7FEFF 		bl	chTMStartMeasurementX
 2870              		.loc 7 476 0
 2871 006a BDF91E20 		ldrsh	r2, [sp, #30]
ARM GAS  C:\Users\PCHAUT~1\AppData\Local\Temp\ccLw8kky.s 			page 56


 2872 006e BDF91C30 		ldrsh	r3, [sp, #28]
 2873 0072 1146     		mov	r1, r2
 2874 0074 1846     		mov	r0, r3
 2875 0076 FFF7FEFF 		bl	aseba_atan2
 2876 007a 0346     		mov	r3, r0
 2877 007c ADF81A30 		strh	r3, [sp, #26]	@ movhi
 2878              		.loc 7 477 0
 2879 0080 08AB     		add	r3, sp, #32
 2880 0082 1846     		mov	r0, r3
 2881 0084 FFF7FEFF 		bl	chTMStopMeasurementX
 2882              		.loc 7 478 0
 2883 0088 FFF7FEFF 		bl	chSysUnlock
 2884 008c 2DE0     		b	.L184
 2885              	.L183:
 2886              		.loc 7 480 0
 2887 008e FFF7FEFF 		bl	chSysLock
 2888              		.loc 7 481 0
 2889 0092 08AB     		add	r3, sp, #32
 2890 0094 1846     		mov	r0, r3
 2891 0096 FFF7FEFF 		bl	chTMStartMeasurementX
 2892              		.loc 7 482 0
 2893 009a BDF91C30 		ldrsh	r3, [sp, #28]
 2894 009e 07EE903A 		vmov	s15, r3	@ int
 2895 00a2 F8EEE77A 		vcvt.f32.s32	s15, s15
 2896 00a6 BDF91E30 		ldrsh	r3, [sp, #30]
 2897 00aa 07EE103A 		vmov	s14, r3	@ int
 2898 00ae B8EEC77A 		vcvt.f32.s32	s14, s14
 2899 00b2 F0EE470A 		vmov.f32	s1, s14
 2900 00b6 B0EE670A 		vmov.f32	s0, s15
 2901 00ba FFF7FEFF 		bl	atan2f
 2902 00be B0EE407A 		vmov.f32	s14, s0
 2903 00c2 DFED1B7A 		vldr.32	s15, .L187+12
 2904 00c6 27EE277A 		vmul.f32	s14, s14, s15
 2905 00ca DFED1A6A 		vldr.32	s13, .L187+16
 2906 00ce C7EE267A 		vdiv.f32	s15, s14, s13
 2907 00d2 FDEEE77A 		vcvt.s32.f32	s15, s15
 2908 00d6 17EE903A 		vmov	r3, s15	@ int
 2909 00da ADF81A30 		strh	r3, [sp, #26]	@ movhi
 2910              		.loc 7 483 0
 2911 00de 08AB     		add	r3, sp, #32
 2912 00e0 1846     		mov	r0, r3
 2913 00e2 FFF7FEFF 		bl	chTMStopMeasurementX
 2914              		.loc 7 484 0
 2915 00e6 FFF7FEFF 		bl	chSysUnlock
 2916              	.L184:
 2917              		.loc 7 488 0
 2918 00ea BDF91C20 		ldrsh	r2, [sp, #28]
 2919 00ee BDF91E10 		ldrsh	r1, [sp, #30]
 2920 00f2 BDF91A30 		ldrsh	r3, [sp, #26]
 2921 00f6 0093     		str	r3, [sp]
 2922 00f8 0B46     		mov	r3, r1
 2923 00fa 0F49     		ldr	r1, .L187+20
 2924 00fc 0598     		ldr	r0, [sp, #20]
 2925 00fe FFF7FEFF 		bl	chprintf
 2926              		.loc 7 489 0
 2927 0102 0A9B     		ldr	r3, [sp, #40]
 2928 0104 1A46     		mov	r2, r3
ARM GAS  C:\Users\PCHAUT~1\AppData\Local\Temp\ccLw8kky.s 			page 57


 2929 0106 0D49     		ldr	r1, .L187+24
 2930 0108 0598     		ldr	r0, [sp, #20]
 2931 010a FFF7FEFF 		bl	chprintf
 2932              	.L186:
 2933              		.loc 7 491 0
 2934 010e 00BF     		nop
 2935 0110 044B     		ldr	r3, .L187
 2936 0112 0F9A     		ldr	r2, [sp, #60]
 2937 0114 1B68     		ldr	r3, [r3]
 2938 0116 9A42     		cmp	r2, r3
 2939 0118 01D0     		beq	.L185
 2940 011a FFF7FEFF 		bl	__stack_chk_fail
 2941              	.L185:
 2942 011e 11B0     		add	sp, sp, #68
 2943              		.cfi_def_cfa_offset 4
 2944              		@ sp needed
 2945 0120 5DF804FB 		ldr	pc, [sp], #4
 2946              	.L188:
 2947              		.align	2
 2948              	.L187:
 2949 0124 00000000 		.word	__stack_chk_guard
 2950 0128 1C070000 		.word	.LC70
 2951 012c F4060000 		.word	.LC66
 2952 0130 00000047 		.word	1191182336
 2953 0134 DB0F4940 		.word	1078530011
 2954 0138 60070000 		.word	.LC71
 2955 013c 10070000 		.word	.LC69
 2956              		.cfi_endproc
 2957              	.LFE280:
 2958              		.size	cmd_atan2, .-cmd_atan2
 2959              		.section	.rodata
 2960 0776 0000     		.align	2
 2961              	.LC72:
 2962 0778 202000   		.ascii	"  \000"
 2963              		.section	.text.tree_indent,"ax",%progbits
 2964              		.align	1
 2965              		.p2align 4,,15
 2966              		.syntax unified
 2967              		.thumb
 2968              		.thumb_func
 2969              		.fpu fpv4-sp-d16
 2970              		.type	tree_indent, %function
 2971              	tree_indent:
 2972              	.LFB281:
 2973              		.loc 7 494 0
 2974              		.cfi_startproc
 2975              		@ args = 0, pretend = 0, frame = 16
 2976              		@ frame_needed = 0, uses_anonymous_args = 0
 2977 0000 00B5     		push	{lr}
 2978              		.cfi_def_cfa_offset 4
 2979              		.cfi_offset 14, -4
 2980 0002 85B0     		sub	sp, sp, #20
 2981              		.cfi_def_cfa_offset 24
 2982 0004 0190     		str	r0, [sp, #4]
 2983 0006 0091     		str	r1, [sp]
 2984              		.loc 7 494 0
 2985 0008 0D4B     		ldr	r3, .L193
ARM GAS  C:\Users\PCHAUT~1\AppData\Local\Temp\ccLw8kky.s 			page 58


 2986 000a 1B68     		ldr	r3, [r3]
 2987 000c 0393     		str	r3, [sp, #12]
 2988              		.loc 7 496 0
 2989 000e 0023     		movs	r3, #0
 2990 0010 0293     		str	r3, [sp, #8]
 2991 0012 06E0     		b	.L190
 2992              	.L191:
 2993              		.loc 7 497 0 discriminator 3
 2994 0014 0B49     		ldr	r1, .L193+4
 2995 0016 0198     		ldr	r0, [sp, #4]
 2996 0018 FFF7FEFF 		bl	chprintf
 2997              		.loc 7 496 0 discriminator 3
 2998 001c 029B     		ldr	r3, [sp, #8]
 2999 001e 0133     		adds	r3, r3, #1
 3000 0020 0293     		str	r3, [sp, #8]
 3001              	.L190:
 3002              		.loc 7 496 0 is_stmt 0 discriminator 1
 3003 0022 029A     		ldr	r2, [sp, #8]
 3004 0024 009B     		ldr	r3, [sp]
 3005 0026 9A42     		cmp	r2, r3
 3006 0028 F4DB     		blt	.L191
 3007              		.loc 7 499 0 is_stmt 1
 3008 002a 00BF     		nop
 3009 002c 044B     		ldr	r3, .L193
 3010 002e 039A     		ldr	r2, [sp, #12]
 3011 0030 1B68     		ldr	r3, [r3]
 3012 0032 9A42     		cmp	r2, r3
 3013 0034 01D0     		beq	.L192
 3014 0036 FFF7FEFF 		bl	__stack_chk_fail
 3015              	.L192:
 3016 003a 05B0     		add	sp, sp, #20
 3017              		.cfi_def_cfa_offset 4
 3018              		@ sp needed
 3019 003c 5DF804FB 		ldr	pc, [sp], #4
 3020              	.L194:
 3021              		.align	2
 3022              	.L193:
 3023 0040 00000000 		.word	__stack_chk_guard
 3024 0044 78070000 		.word	.LC72
 3025              		.cfi_endproc
 3026              	.LFE281:
 3027              		.size	tree_indent, .-tree_indent
 3028              		.section	.rodata
 3029 077b 00       		.align	2
 3030              	.LC73:
 3031 077c 25733A0D 		.ascii	"%s:\015\012\000"
 3031      0A00
 3032              		.global	__aeabi_f2d
 3033 0782 0000     		.align	2
 3034              	.LC74:
 3035 0784 25733A20 		.ascii	"%s: %f\015\012\000"
 3035      25660D0A 
 3035      00
 3036 078d 000000   		.align	2
 3037              	.LC75:
 3038 0790 25733A20 		.ascii	"%s: %d\015\012\000"
 3038      25640D0A 
ARM GAS  C:\Users\PCHAUT~1\AppData\Local\Temp\ccLw8kky.s 			page 59


 3038      00
 3039 0799 000000   		.align	2
 3040              	.LC76:
 3041 079c 74727565 		.ascii	"true\000"
 3041      00
 3042 07a1 000000   		.align	2
 3043              	.LC77:
 3044 07a4 66616C73 		.ascii	"false\000"
 3044      6500
 3045 07aa 0000     		.align	2
 3046              	.LC78:
 3047 07ac 25733A20 		.ascii	"%s: %s\015\012\000"
 3047      25730D0A 
 3047      00
 3048 07b5 000000   		.align	2
 3049              	.LC79:
 3050 07b8 25733A20 		.ascii	"%s: unknown type %d\015\012\000"
 3050      756E6B6E 
 3050      6F776E20 
 3050      74797065 
 3050      2025640D 
 3051 07ce 0000     		.align	2
 3052              	.LC80:
 3053 07d0 25733A20 		.ascii	"%s: [not set]\015\012\000"
 3053      5B6E6F74 
 3053      20736574 
 3053      5D0D0A00 
 3054              		.section	.text.show_config_tree,"ax",%progbits
 3055              		.align	1
 3056              		.p2align 4,,15
 3057              		.syntax unified
 3058              		.thumb
 3059              		.thumb_func
 3060              		.fpu fpv4-sp-d16
 3061              		.type	show_config_tree, %function
 3062              	show_config_tree:
 3063              	.LFB282:
 3064              		.loc 7 502 0
 3065              		.cfi_startproc
 3066              		@ args = 0, pretend = 0, frame = 88
 3067              		@ frame_needed = 0, uses_anonymous_args = 0
 3068 0000 30B5     		push	{r4, r5, lr}
 3069              		.cfi_def_cfa_offset 12
 3070              		.cfi_offset 4, -12
 3071              		.cfi_offset 5, -8
 3072              		.cfi_offset 14, -4
 3073 0002 99B0     		sub	sp, sp, #100
 3074              		.cfi_def_cfa_offset 112
 3075 0004 0590     		str	r0, [sp, #20]
 3076 0006 0491     		str	r1, [sp, #16]
 3077 0008 0392     		str	r2, [sp, #12]
 3078              		.loc 7 502 0
 3079 000a 534B     		ldr	r3, .L213
 3080 000c 1B68     		ldr	r3, [r3]
 3081 000e 1793     		str	r3, [sp, #92]
 3082              		.loc 7 506 0
 3083 0010 0399     		ldr	r1, [sp, #12]
ARM GAS  C:\Users\PCHAUT~1\AppData\Local\Temp\ccLw8kky.s 			page 60


 3084 0012 0598     		ldr	r0, [sp, #20]
 3085 0014 FFF7FEFF 		bl	tree_indent
 3086              		.loc 7 507 0
 3087 0018 049B     		ldr	r3, [sp, #16]
 3088 001a 1B68     		ldr	r3, [r3]
 3089 001c 1A46     		mov	r2, r3
 3090 001e 4F49     		ldr	r1, .L213+4
 3091 0020 0598     		ldr	r0, [sp, #20]
 3092 0022 FFF7FEFF 		bl	chprintf
 3093              		.loc 7 509 0
 3094 0026 049B     		ldr	r3, [sp, #16]
 3095 0028 5B69     		ldr	r3, [r3, #20]
 3096 002a 0693     		str	r3, [sp, #24]
 3097 002c 6FE0     		b	.L196
 3098              	.L208:
 3099              		.loc 7 510 0
 3100 002e 039B     		ldr	r3, [sp, #12]
 3101 0030 0133     		adds	r3, r3, #1
 3102 0032 1946     		mov	r1, r3
 3103 0034 0598     		ldr	r0, [sp, #20]
 3104 0036 FFF7FEFF 		bl	tree_indent
 3105              		.loc 7 511 0
 3106 003a 0698     		ldr	r0, [sp, #24]
 3107 003c FFF7FEFF 		bl	parameter_defined
 3108 0040 0346     		mov	r3, r0
 3109 0042 002B     		cmp	r3, #0
 3110 0044 59D0     		beq	.L197
 3111              		.loc 7 512 0
 3112 0046 069B     		ldr	r3, [sp, #24]
 3113 0048 9B7B     		ldrb	r3, [r3, #14]	@ zero_extendqisi2
 3114 004a 013B     		subs	r3, r3, #1
 3115 004c 032B     		cmp	r3, #3
 3116 004e 4AD8     		bhi	.L198
 3117 0050 01A2     		adr	r2, .L200
 3118 0052 52F823F0 		ldr	pc, [r2, r3, lsl #2]
 3119 0056 00BF     		.p2align 2
 3120              	.L200:
 3121 0058 69000000 		.word	.L199+1
 3122 005c A9000000 		.word	.L201+1
 3123 0060 91000000 		.word	.L202+1
 3124 0064 CB000000 		.word	.L203+1
 3125              		.p2align 1
 3126              	.L199:
 3127              		.loc 7 514 0
 3128 0068 069B     		ldr	r3, [sp, #24]
 3129 006a 1D68     		ldr	r5, [r3]
 3130 006c 0698     		ldr	r0, [sp, #24]
 3131 006e FFF7FEFF 		bl	parameter_scalar_get
 3132 0072 10EE103A 		vmov	r3, s0
 3133 0076 1846     		mov	r0, r3	@ float
 3134 0078 FFF7FEFF 		bl	__aeabi_f2d
 3135              	.LVL0:
 3136 007c 0346     		mov	r3, r0
 3137 007e 0C46     		mov	r4, r1
 3138 0080 CDE90034 		strd	r3, [sp]
 3139 0084 2A46     		mov	r2, r5
 3140 0086 3649     		ldr	r1, .L213+8
ARM GAS  C:\Users\PCHAUT~1\AppData\Local\Temp\ccLw8kky.s 			page 61


 3141 0088 0598     		ldr	r0, [sp, #20]
 3142 008a FFF7FEFF 		bl	chprintf
 3143              		.loc 7 515 0
 3144 008e 3BE0     		b	.L207
 3145              	.L202:
 3146              		.loc 7 518 0
 3147 0090 069B     		ldr	r3, [sp, #24]
 3148 0092 1C68     		ldr	r4, [r3]
 3149 0094 0698     		ldr	r0, [sp, #24]
 3150 0096 FFF7FEFF 		bl	parameter_integer_get
 3151 009a 0346     		mov	r3, r0
 3152 009c 2246     		mov	r2, r4
 3153 009e 3149     		ldr	r1, .L213+12
 3154 00a0 0598     		ldr	r0, [sp, #20]
 3155 00a2 FFF7FEFF 		bl	chprintf
 3156              		.loc 7 519 0
 3157 00a6 2FE0     		b	.L207
 3158              	.L201:
 3159              		.loc 7 522 0
 3160 00a8 069B     		ldr	r3, [sp, #24]
 3161 00aa 1C68     		ldr	r4, [r3]
 3162 00ac 0698     		ldr	r0, [sp, #24]
 3163 00ae FFF7FEFF 		bl	parameter_boolean_get
 3164 00b2 0346     		mov	r3, r0
 3165 00b4 002B     		cmp	r3, #0
 3166 00b6 01D0     		beq	.L205
 3167              		.loc 7 522 0 is_stmt 0 discriminator 1
 3168 00b8 2B4B     		ldr	r3, .L213+16
 3169 00ba 00E0     		b	.L206
 3170              	.L205:
 3171              		.loc 7 522 0 discriminator 2
 3172 00bc 2B4B     		ldr	r3, .L213+20
 3173              	.L206:
 3174              		.loc 7 522 0 discriminator 4
 3175 00be 2246     		mov	r2, r4
 3176 00c0 2B49     		ldr	r1, .L213+24
 3177 00c2 0598     		ldr	r0, [sp, #20]
 3178 00c4 FFF7FEFF 		bl	chprintf
 3179              		.loc 7 523 0 is_stmt 1 discriminator 4
 3180 00c8 1EE0     		b	.L207
 3181              	.L203:
 3182              		.loc 7 526 0
 3183 00ca 07AB     		add	r3, sp, #28
 3184 00cc 4022     		movs	r2, #64
 3185 00ce 1946     		mov	r1, r3
 3186 00d0 0698     		ldr	r0, [sp, #24]
 3187 00d2 FFF7FEFF 		bl	parameter_string_get
 3188              		.loc 7 527 0
 3189 00d6 069B     		ldr	r3, [sp, #24]
 3190 00d8 1A68     		ldr	r2, [r3]
 3191 00da 07AB     		add	r3, sp, #28
 3192 00dc 2449     		ldr	r1, .L213+24
 3193 00de 0598     		ldr	r0, [sp, #20]
 3194 00e0 FFF7FEFF 		bl	chprintf
 3195              		.loc 7 528 0
 3196 00e4 10E0     		b	.L207
 3197              	.L198:
ARM GAS  C:\Users\PCHAUT~1\AppData\Local\Temp\ccLw8kky.s 			page 62


 3198              		.loc 7 531 0
 3199 00e6 069B     		ldr	r3, [sp, #24]
 3200 00e8 1A68     		ldr	r2, [r3]
 3201 00ea 069B     		ldr	r3, [sp, #24]
 3202 00ec 9B7B     		ldrb	r3, [r3, #14]	@ zero_extendqisi2
 3203 00ee 2149     		ldr	r1, .L213+28
 3204 00f0 0598     		ldr	r0, [sp, #20]
 3205 00f2 FFF7FEFF 		bl	chprintf
 3206              		.loc 7 532 0
 3207 00f6 00BF     		nop
 3208 00f8 06E0     		b	.L207
 3209              	.L197:
 3210              		.loc 7 535 0
 3211 00fa 069B     		ldr	r3, [sp, #24]
 3212 00fc 1B68     		ldr	r3, [r3]
 3213 00fe 1A46     		mov	r2, r3
 3214 0100 1D49     		ldr	r1, .L213+32
 3215 0102 0598     		ldr	r0, [sp, #20]
 3216 0104 FFF7FEFF 		bl	chprintf
 3217              	.L207:
 3218              		.loc 7 509 0 discriminator 2
 3219 0108 069B     		ldr	r3, [sp, #24]
 3220 010a 9B68     		ldr	r3, [r3, #8]
 3221 010c 0693     		str	r3, [sp, #24]
 3222              	.L196:
 3223              		.loc 7 509 0 is_stmt 0 discriminator 1
 3224 010e 069B     		ldr	r3, [sp, #24]
 3225 0110 002B     		cmp	r3, #0
 3226 0112 8CD1     		bne	.L208
 3227              		.loc 7 539 0 is_stmt 1
 3228 0114 049B     		ldr	r3, [sp, #16]
 3229 0116 DB68     		ldr	r3, [r3, #12]
 3230 0118 002B     		cmp	r3, #0
 3231 011a 07D0     		beq	.L209
 3232              		.loc 7 540 0
 3233 011c 049B     		ldr	r3, [sp, #16]
 3234 011e D968     		ldr	r1, [r3, #12]
 3235 0120 039B     		ldr	r3, [sp, #12]
 3236 0122 0133     		adds	r3, r3, #1
 3237 0124 1A46     		mov	r2, r3
 3238 0126 0598     		ldr	r0, [sp, #20]
 3239 0128 FFF76AFF 		bl	show_config_tree
 3240              	.L209:
 3241              		.loc 7 543 0
 3242 012c 049B     		ldr	r3, [sp, #16]
 3243 012e 1B69     		ldr	r3, [r3, #16]
 3244 0130 002B     		cmp	r3, #0
 3245 0132 06D0     		beq	.L212
 3246              		.loc 7 544 0
 3247 0134 049B     		ldr	r3, [sp, #16]
 3248 0136 1B69     		ldr	r3, [r3, #16]
 3249 0138 039A     		ldr	r2, [sp, #12]
 3250 013a 1946     		mov	r1, r3
 3251 013c 0598     		ldr	r0, [sp, #20]
 3252 013e FFF75FFF 		bl	show_config_tree
 3253              	.L212:
 3254              		.loc 7 546 0
ARM GAS  C:\Users\PCHAUT~1\AppData\Local\Temp\ccLw8kky.s 			page 63


 3255 0142 00BF     		nop
 3256 0144 044B     		ldr	r3, .L213
 3257 0146 179A     		ldr	r2, [sp, #92]
 3258 0148 1B68     		ldr	r3, [r3]
 3259 014a 9A42     		cmp	r2, r3
 3260 014c 01D0     		beq	.L211
 3261 014e FFF7FEFF 		bl	__stack_chk_fail
 3262              	.L211:
 3263 0152 19B0     		add	sp, sp, #100
 3264              		.cfi_def_cfa_offset 12
 3265              		@ sp needed
 3266 0154 30BD     		pop	{r4, r5, pc}
 3267              	.L214:
 3268 0156 00BF     		.align	2
 3269              	.L213:
 3270 0158 00000000 		.word	__stack_chk_guard
 3271 015c 7C070000 		.word	.LC73
 3272 0160 84070000 		.word	.LC74
 3273 0164 90070000 		.word	.LC75
 3274 0168 9C070000 		.word	.LC76
 3275 016c A4070000 		.word	.LC77
 3276 0170 AC070000 		.word	.LC78
 3277 0174 B8070000 		.word	.LC79
 3278 0178 D0070000 		.word	.LC80
 3279              		.cfi_endproc
 3280              	.LFE282:
 3281              		.size	show_config_tree, .-show_config_tree
 3282              		.section	.rodata
 3283              		.align	2
 3284              	.LC81:
 3285 07e0 43616E6E 		.ascii	"Cannot find subtree.\015\012\000"
 3285      6F742066 
 3285      696E6420 
 3285      73756274 
 3285      7265652E 
 3286              		.section	.text.cmd_config_tree,"ax",%progbits
 3287              		.align	1
 3288              		.p2align 4,,15
 3289              		.syntax unified
 3290              		.thumb
 3291              		.thumb_func
 3292              		.fpu fpv4-sp-d16
 3293              		.type	cmd_config_tree, %function
 3294              	cmd_config_tree:
 3295              	.LFB283:
 3296              		.loc 7 549 0
 3297              		.cfi_startproc
 3298              		@ args = 0, pretend = 0, frame = 24
 3299              		@ frame_needed = 0, uses_anonymous_args = 0
 3300 0000 00B5     		push	{lr}
 3301              		.cfi_def_cfa_offset 4
 3302              		.cfi_offset 14, -4
 3303 0002 87B0     		sub	sp, sp, #28
 3304              		.cfi_def_cfa_offset 32
 3305 0004 0390     		str	r0, [sp, #12]
 3306 0006 0291     		str	r1, [sp, #8]
 3307 0008 0192     		str	r2, [sp, #4]
ARM GAS  C:\Users\PCHAUT~1\AppData\Local\Temp\ccLw8kky.s 			page 64


 3308              		.loc 7 549 0
 3309 000a 134B     		ldr	r3, .L220
 3310 000c 1B68     		ldr	r3, [r3]
 3311 000e 0593     		str	r3, [sp, #20]
 3312              		.loc 7 551 0
 3313 0010 029B     		ldr	r3, [sp, #8]
 3314 0012 012B     		cmp	r3, #1
 3315 0014 02D0     		beq	.L216
 3316              		.loc 7 552 0
 3317 0016 114B     		ldr	r3, .L220+4
 3318 0018 0493     		str	r3, [sp, #16]
 3319 001a 0EE0     		b	.L217
 3320              	.L216:
 3321              		.loc 7 554 0
 3322 001c 019B     		ldr	r3, [sp, #4]
 3323 001e 1B68     		ldr	r3, [r3]
 3324 0020 1946     		mov	r1, r3
 3325 0022 0E48     		ldr	r0, .L220+4
 3326 0024 FFF7FEFF 		bl	parameter_namespace_find
 3327 0028 0490     		str	r0, [sp, #16]
 3328              		.loc 7 555 0
 3329 002a 049B     		ldr	r3, [sp, #16]
 3330 002c 002B     		cmp	r3, #0
 3331 002e 04D1     		bne	.L217
 3332              		.loc 7 556 0
 3333 0030 0B49     		ldr	r1, .L220+8
 3334 0032 0398     		ldr	r0, [sp, #12]
 3335 0034 FFF7FEFF 		bl	chprintf
 3336              		.loc 7 557 0
 3337 0038 04E0     		b	.L215
 3338              	.L217:
 3339              		.loc 7 561 0
 3340 003a 0022     		movs	r2, #0
 3341 003c 0499     		ldr	r1, [sp, #16]
 3342 003e 0398     		ldr	r0, [sp, #12]
 3343 0040 FFF7FEFF 		bl	show_config_tree
 3344              	.L215:
 3345              		.loc 7 562 0
 3346 0044 044B     		ldr	r3, .L220
 3347 0046 059A     		ldr	r2, [sp, #20]
 3348 0048 1B68     		ldr	r3, [r3]
 3349 004a 9A42     		cmp	r2, r3
 3350 004c 01D0     		beq	.L219
 3351 004e FFF7FEFF 		bl	__stack_chk_fail
 3352              	.L219:
 3353 0052 07B0     		add	sp, sp, #28
 3354              		.cfi_def_cfa_offset 4
 3355              		@ sp needed
 3356 0054 5DF804FB 		ldr	pc, [sp], #4
 3357              	.L221:
 3358              		.align	2
 3359              	.L220:
 3360 0058 00000000 		.word	__stack_chk_guard
 3361 005c 00000000 		.word	parameter_root
 3362 0060 E0070000 		.word	.LC81
 3363              		.cfi_endproc
 3364              	.LFE283:
ARM GAS  C:\Users\PCHAUT~1\AppData\Local\Temp\ccLw8kky.s 			page 65


 3365              		.size	cmd_config_tree, .-cmd_config_tree
 3366              		.section	.rodata
 3367 07f7 00       		.align	2
 3368              	.LC82:
 3369 07f8 55736167 		.ascii	"Usage: config_set /parameter/url value.\015\012\000"
 3369      653A2063 
 3369      6F6E6669 
 3369      675F7365 
 3369      74202F70 
 3370 0822 0000     		.align	2
 3371              	.LC83:
 3372 0824 436F756C 		.ascii	"Could not find parameter \"%s\"\015\012\000"
 3372      64206E6F 
 3372      74206669 
 3372      6E642070 
 3372      6172616D 
 3373              		.align	2
 3374              	.LC84:
 3375 0844 256400   		.ascii	"%d\000"
 3376 0847 00       		.align	2
 3377              	.LC85:
 3378 0848 496E7661 		.ascii	"Invalid value for integer parameter.\015\012\000"
 3378      6C696420 
 3378      76616C75 
 3378      6520666F 
 3378      7220696E 
 3379 086f 00       		.align	2
 3380              	.LC86:
 3381 0870 496E7661 		.ascii	"Invalid value for boolean parameter, must be true o"
 3381      6C696420 
 3381      76616C75 
 3381      6520666F 
 3381      7220626F 
 3382 08a3 72206661 		.ascii	"r false.\015\012\000"
 3382      6C73652E 
 3382      0D0A00
 3383 08ae 0000     		.align	2
 3384              	.LC87:
 3385 08b0 496E7661 		.ascii	"Invalid value for string parameter, must not use sp"
 3385      6C696420 
 3385      76616C75 
 3385      6520666F 
 3385      72207374 
 3386 08e3 61636573 		.ascii	"aces.\015\012\000"
 3386      2E0D0A00 
 3387              		.section	.text.cmd_config_set,"ax",%progbits
 3388              		.align	1
 3389              		.p2align 4,,15
 3390              		.syntax unified
 3391              		.thumb
 3392              		.thumb_func
 3393              		.fpu fpv4-sp-d16
 3394              		.type	cmd_config_set, %function
 3395              	cmd_config_set:
 3396              	.LFB284:
 3397              		.loc 7 565 0
 3398              		.cfi_startproc
ARM GAS  C:\Users\PCHAUT~1\AppData\Local\Temp\ccLw8kky.s 			page 66


 3399              		@ args = 0, pretend = 0, frame = 32
 3400              		@ frame_needed = 0, uses_anonymous_args = 0
 3401 0000 00B5     		push	{lr}
 3402              		.cfi_def_cfa_offset 4
 3403              		.cfi_offset 14, -4
 3404 0002 89B0     		sub	sp, sp, #36
 3405              		.cfi_def_cfa_offset 40
 3406 0004 0390     		str	r0, [sp, #12]
 3407 0006 0291     		str	r1, [sp, #8]
 3408 0008 0192     		str	r2, [sp, #4]
 3409              		.loc 7 565 0
 3410 000a 414B     		ldr	r3, .L241
 3411 000c 1B68     		ldr	r3, [r3]
 3412 000e 0793     		str	r3, [sp, #28]
 3413              		.loc 7 569 0
 3414 0010 029B     		ldr	r3, [sp, #8]
 3415 0012 022B     		cmp	r3, #2
 3416 0014 04D0     		beq	.L223
 3417              		.loc 7 570 0
 3418 0016 3F49     		ldr	r1, .L241+4
 3419 0018 0398     		ldr	r0, [sp, #12]
 3420 001a FFF7FEFF 		bl	chprintf
 3421              		.loc 7 571 0
 3422 001e 6CE0     		b	.L222
 3423              	.L223:
 3424              		.loc 7 574 0
 3425 0020 019B     		ldr	r3, [sp, #4]
 3426 0022 1B68     		ldr	r3, [r3]
 3427 0024 1946     		mov	r1, r3
 3428 0026 3C48     		ldr	r0, .L241+8
 3429 0028 FFF7FEFF 		bl	parameter_find
 3430 002c 0690     		str	r0, [sp, #24]
 3431              		.loc 7 576 0
 3432 002e 069B     		ldr	r3, [sp, #24]
 3433 0030 002B     		cmp	r3, #0
 3434 0032 07D1     		bne	.L225
 3435              		.loc 7 577 0
 3436 0034 019B     		ldr	r3, [sp, #4]
 3437 0036 1B68     		ldr	r3, [r3]
 3438 0038 1A46     		mov	r2, r3
 3439 003a 3849     		ldr	r1, .L241+12
 3440 003c 0398     		ldr	r0, [sp, #12]
 3441 003e FFF7FEFF 		bl	chprintf
 3442              		.loc 7 578 0
 3443 0042 5AE0     		b	.L222
 3444              	.L225:
 3445              		.loc 7 581 0
 3446 0044 069B     		ldr	r3, [sp, #24]
 3447 0046 9B7B     		ldrb	r3, [r3, #14]	@ zero_extendqisi2
 3448 0048 032B     		cmp	r3, #3
 3449 004a 04D0     		beq	.L227
 3450 004c 042B     		cmp	r3, #4
 3451 004e 3BD0     		beq	.L228
 3452 0050 022B     		cmp	r3, #2
 3453 0052 16D0     		beq	.L229
 3454 0054 48E0     		b	.L240
 3455              	.L227:
ARM GAS  C:\Users\PCHAUT~1\AppData\Local\Temp\ccLw8kky.s 			page 67


 3456              		.loc 7 583 0
 3457 0056 019B     		ldr	r3, [sp, #4]
 3458 0058 0433     		adds	r3, r3, #4
 3459 005a 1B68     		ldr	r3, [r3]
 3460 005c 05AA     		add	r2, sp, #20
 3461 005e 3049     		ldr	r1, .L241+16
 3462 0060 1846     		mov	r0, r3
 3463 0062 FFF7FEFF 		bl	sscanf
 3464 0066 0346     		mov	r3, r0
 3465 0068 012B     		cmp	r3, #1
 3466 006a 05D1     		bne	.L230
 3467              		.loc 7 584 0
 3468 006c 059B     		ldr	r3, [sp, #20]
 3469 006e 1946     		mov	r1, r3
 3470 0070 0698     		ldr	r0, [sp, #24]
 3471 0072 FFF7FEFF 		bl	parameter_integer_set
 3472              		.loc 7 588 0
 3473 0076 40E0     		b	.L222
 3474              	.L230:
 3475              		.loc 7 586 0
 3476 0078 2A49     		ldr	r1, .L241+20
 3477 007a 0398     		ldr	r0, [sp, #12]
 3478 007c FFF7FEFF 		bl	chprintf
 3479              		.loc 7 588 0
 3480 0080 3BE0     		b	.L222
 3481              	.L229:
 3482              		.loc 7 591 0
 3483 0082 019B     		ldr	r3, [sp, #4]
 3484 0084 0433     		adds	r3, r3, #4
 3485 0086 1B68     		ldr	r3, [r3]
 3486 0088 2749     		ldr	r1, .L241+24
 3487 008a 1846     		mov	r0, r3
 3488 008c FFF7FEFF 		bl	strcmp
 3489 0090 0346     		mov	r3, r0
 3490 0092 002B     		cmp	r3, #0
 3491 0094 04D1     		bne	.L233
 3492              		.loc 7 592 0
 3493 0096 0121     		movs	r1, #1
 3494 0098 0698     		ldr	r0, [sp, #24]
 3495 009a FFF7FEFF 		bl	parameter_boolean_set
 3496              		.loc 7 598 0
 3497 009e 2CE0     		b	.L222
 3498              	.L233:
 3499              		.loc 7 593 0
 3500 00a0 019B     		ldr	r3, [sp, #4]
 3501 00a2 0433     		adds	r3, r3, #4
 3502 00a4 1B68     		ldr	r3, [r3]
 3503 00a6 2149     		ldr	r1, .L241+28
 3504 00a8 1846     		mov	r0, r3
 3505 00aa FFF7FEFF 		bl	strcmp
 3506 00ae 0346     		mov	r3, r0
 3507 00b0 002B     		cmp	r3, #0
 3508 00b2 04D1     		bne	.L235
 3509              		.loc 7 594 0
 3510 00b4 0021     		movs	r1, #0
 3511 00b6 0698     		ldr	r0, [sp, #24]
 3512 00b8 FFF7FEFF 		bl	parameter_boolean_set
ARM GAS  C:\Users\PCHAUT~1\AppData\Local\Temp\ccLw8kky.s 			page 68


 3513              		.loc 7 598 0
 3514 00bc 1DE0     		b	.L222
 3515              	.L235:
 3516              		.loc 7 596 0
 3517 00be 1C49     		ldr	r1, .L241+32
 3518 00c0 0398     		ldr	r0, [sp, #12]
 3519 00c2 FFF7FEFF 		bl	chprintf
 3520              		.loc 7 598 0
 3521 00c6 18E0     		b	.L222
 3522              	.L228:
 3523              		.loc 7 601 0
 3524 00c8 029B     		ldr	r3, [sp, #8]
 3525 00ca 022B     		cmp	r3, #2
 3526 00cc 07D1     		bne	.L236
 3527              		.loc 7 602 0
 3528 00ce 019B     		ldr	r3, [sp, #4]
 3529 00d0 0433     		adds	r3, r3, #4
 3530 00d2 1B68     		ldr	r3, [r3]
 3531 00d4 1946     		mov	r1, r3
 3532 00d6 0698     		ldr	r0, [sp, #24]
 3533 00d8 FFF7FEFF 		bl	parameter_string_set
 3534              		.loc 7 606 0
 3535 00dc 0DE0     		b	.L222
 3536              	.L236:
 3537              		.loc 7 604 0
 3538 00de 1549     		ldr	r1, .L241+36
 3539 00e0 0398     		ldr	r0, [sp, #12]
 3540 00e2 FFF7FEFF 		bl	chprintf
 3541              		.loc 7 606 0
 3542 00e6 08E0     		b	.L222
 3543              	.L240:
 3544              		.loc 7 609 0
 3545 00e8 069B     		ldr	r3, [sp, #24]
 3546 00ea 1A68     		ldr	r2, [r3]
 3547 00ec 069B     		ldr	r3, [sp, #24]
 3548 00ee 9B7B     		ldrb	r3, [r3, #14]	@ zero_extendqisi2
 3549 00f0 1149     		ldr	r1, .L241+40
 3550 00f2 0398     		ldr	r0, [sp, #12]
 3551 00f4 FFF7FEFF 		bl	chprintf
 3552              		.loc 7 610 0
 3553 00f8 00BF     		nop
 3554              	.L222:
 3555              		.loc 7 612 0
 3556 00fa 054B     		ldr	r3, .L241
 3557 00fc 079A     		ldr	r2, [sp, #28]
 3558 00fe 1B68     		ldr	r3, [r3]
 3559 0100 9A42     		cmp	r2, r3
 3560 0102 01D0     		beq	.L239
 3561 0104 FFF7FEFF 		bl	__stack_chk_fail
 3562              	.L239:
 3563 0108 09B0     		add	sp, sp, #36
 3564              		.cfi_def_cfa_offset 4
 3565              		@ sp needed
 3566 010a 5DF804FB 		ldr	pc, [sp], #4
 3567              	.L242:
 3568 010e 00BF     		.align	2
 3569              	.L241:
ARM GAS  C:\Users\PCHAUT~1\AppData\Local\Temp\ccLw8kky.s 			page 69


 3570 0110 00000000 		.word	__stack_chk_guard
 3571 0114 F8070000 		.word	.LC82
 3572 0118 00000000 		.word	parameter_root
 3573 011c 24080000 		.word	.LC83
 3574 0120 44080000 		.word	.LC84
 3575 0124 48080000 		.word	.LC85
 3576 0128 9C070000 		.word	.LC76
 3577 012c A4070000 		.word	.LC77
 3578 0130 70080000 		.word	.LC86
 3579 0134 B0080000 		.word	.LC87
 3580 0138 B8070000 		.word	.LC79
 3581              		.cfi_endproc
 3582              	.LFE284:
 3583              		.size	cmd_config_set, .-cmd_config_set
 3584              		.section	.text.cmd_config_erase,"ax",%progbits
 3585              		.align	1
 3586              		.p2align 4,,15
 3587              		.syntax unified
 3588              		.thumb
 3589              		.thumb_func
 3590              		.fpu fpv4-sp-d16
 3591              		.type	cmd_config_erase, %function
 3592              	cmd_config_erase:
 3593              	.LFB285:
 3594              		.loc 7 615 0
 3595              		.cfi_startproc
 3596              		@ args = 0, pretend = 0, frame = 24
 3597              		@ frame_needed = 0, uses_anonymous_args = 0
 3598 0000 00B5     		push	{lr}
 3599              		.cfi_def_cfa_offset 4
 3600              		.cfi_offset 14, -4
 3601 0002 87B0     		sub	sp, sp, #28
 3602              		.cfi_def_cfa_offset 32
 3603 0004 0390     		str	r0, [sp, #12]
 3604 0006 0291     		str	r1, [sp, #8]
 3605 0008 0192     		str	r2, [sp, #4]
 3606              		.loc 7 615 0
 3607 000a 084B     		ldr	r3, .L245
 3608 000c 1B68     		ldr	r3, [r3]
 3609 000e 0593     		str	r3, [sp, #20]
 3610              		.loc 7 621 0
 3611 0010 0748     		ldr	r0, .L245+4
 3612 0012 FFF7FEFF 		bl	config_erase
 3613              		.loc 7 622 0
 3614 0016 00BF     		nop
 3615 0018 044B     		ldr	r3, .L245
 3616 001a 059A     		ldr	r2, [sp, #20]
 3617 001c 1B68     		ldr	r3, [r3]
 3618 001e 9A42     		cmp	r2, r3
 3619 0020 01D0     		beq	.L244
 3620 0022 FFF7FEFF 		bl	__stack_chk_fail
 3621              	.L244:
 3622 0026 07B0     		add	sp, sp, #28
 3623              		.cfi_def_cfa_offset 4
 3624              		@ sp needed
 3625 0028 5DF804FB 		ldr	pc, [sp], #4
 3626              	.L246:
ARM GAS  C:\Users\PCHAUT~1\AppData\Local\Temp\ccLw8kky.s 			page 70


 3627              		.align	2
 3628              	.L245:
 3629 002c 00000000 		.word	__stack_chk_guard
 3630 0030 00000000 		.word	_config_start
 3631              		.cfi_endproc
 3632              	.LFE285:
 3633              		.size	cmd_config_erase, .-cmd_config_erase
 3634              		.section	.rodata
 3635 08eb 00       		.align	2
 3636              	.LC88:
 3637 08ec 4F4B2E0D 		.ascii	"OK.\015\012\000"
 3637      0A00
 3638 08f2 0000     		.align	2
 3639              	.LC89:
 3640 08f4 53617665 		.ascii	"Save failed.\015\012\000"
 3640      20666169 
 3640      6C65642E 
 3640      0D0A00
 3641              		.section	.text.cmd_config_save,"ax",%progbits
 3642              		.align	1
 3643              		.p2align 4,,15
 3644              		.syntax unified
 3645              		.thumb
 3646              		.thumb_func
 3647              		.fpu fpv4-sp-d16
 3648              		.type	cmd_config_save, %function
 3649              	cmd_config_save:
 3650              	.LFB286:
 3651              		.loc 7 625 0
 3652              		.cfi_startproc
 3653              		@ args = 0, pretend = 0, frame = 32
 3654              		@ frame_needed = 0, uses_anonymous_args = 0
 3655 0000 00B5     		push	{lr}
 3656              		.cfi_def_cfa_offset 4
 3657              		.cfi_offset 14, -4
 3658 0002 89B0     		sub	sp, sp, #36
 3659              		.cfi_def_cfa_offset 40
 3660 0004 0390     		str	r0, [sp, #12]
 3661 0006 0291     		str	r1, [sp, #8]
 3662 0008 0192     		str	r2, [sp, #4]
 3663              		.loc 7 625 0
 3664 000a 154B     		ldr	r3, .L252
 3665 000c 1B68     		ldr	r3, [r3]
 3666 000e 0793     		str	r3, [sp, #28]
 3667              		.loc 7 629 0
 3668 0010 144A     		ldr	r2, .L252+4
 3669 0012 154B     		ldr	r3, .L252+8
 3670 0014 D31A     		subs	r3, r2, r3
 3671 0016 0693     		str	r3, [sp, #24]
 3672              		.loc 7 633 0
 3673 0018 144A     		ldr	r2, .L252+12
 3674 001a 0699     		ldr	r1, [sp, #24]
 3675 001c 1248     		ldr	r0, .L252+8
 3676 001e FFF7FEFF 		bl	config_save
 3677              		.loc 7 636 0
 3678 0022 1149     		ldr	r1, .L252+8
 3679 0024 1148     		ldr	r0, .L252+12
ARM GAS  C:\Users\PCHAUT~1\AppData\Local\Temp\ccLw8kky.s 			page 71


 3680 0026 FFF7FEFF 		bl	config_load
 3681 002a 0346     		mov	r3, r0
 3682 002c 8DF81730 		strb	r3, [sp, #23]
 3683              		.loc 7 638 0
 3684 0030 9DF81730 		ldrb	r3, [sp, #23]	@ zero_extendqisi2
 3685 0034 002B     		cmp	r3, #0
 3686 0036 04D0     		beq	.L248
 3687              		.loc 7 639 0
 3688 0038 0D49     		ldr	r1, .L252+16
 3689 003a 0398     		ldr	r0, [sp, #12]
 3690 003c FFF7FEFF 		bl	chprintf
 3691              		.loc 7 643 0
 3692 0040 03E0     		b	.L251
 3693              	.L248:
 3694              		.loc 7 641 0
 3695 0042 0C49     		ldr	r1, .L252+20
 3696 0044 0398     		ldr	r0, [sp, #12]
 3697 0046 FFF7FEFF 		bl	chprintf
 3698              	.L251:
 3699              		.loc 7 643 0
 3700 004a 00BF     		nop
 3701 004c 044B     		ldr	r3, .L252
 3702 004e 079A     		ldr	r2, [sp, #28]
 3703 0050 1B68     		ldr	r3, [r3]
 3704 0052 9A42     		cmp	r2, r3
 3705 0054 01D0     		beq	.L250
 3706 0056 FFF7FEFF 		bl	__stack_chk_fail
 3707              	.L250:
 3708 005a 09B0     		add	sp, sp, #36
 3709              		.cfi_def_cfa_offset 4
 3710              		@ sp needed
 3711 005c 5DF804FB 		ldr	pc, [sp], #4
 3712              	.L253:
 3713              		.align	2
 3714              	.L252:
 3715 0060 00000000 		.word	__stack_chk_guard
 3716 0064 00000000 		.word	_config_end
 3717 0068 00000000 		.word	_config_start
 3718 006c 00000000 		.word	parameter_root
 3719 0070 EC080000 		.word	.LC88
 3720 0074 F4080000 		.word	.LC89
 3721              		.cfi_endproc
 3722              	.LFE286:
 3723              		.size	cmd_config_save, .-cmd_config_save
 3724              		.section	.rodata
 3725 0903 00       		.align	2
 3726              	.LC90:
 3727 0904 4C6F6164 		.ascii	"Load failed.\015\012\000"
 3727      20666169 
 3727      6C65642E 
 3727      0D0A00
 3728              		.section	.text.cmd_config_load,"ax",%progbits
 3729              		.align	1
 3730              		.p2align 4,,15
 3731              		.syntax unified
 3732              		.thumb
 3733              		.thumb_func
ARM GAS  C:\Users\PCHAUT~1\AppData\Local\Temp\ccLw8kky.s 			page 72


 3734              		.fpu fpv4-sp-d16
 3735              		.type	cmd_config_load, %function
 3736              	cmd_config_load:
 3737              	.LFB287:
 3738              		.loc 7 646 0
 3739              		.cfi_startproc
 3740              		@ args = 0, pretend = 0, frame = 24
 3741              		@ frame_needed = 0, uses_anonymous_args = 0
 3742 0000 00B5     		push	{lr}
 3743              		.cfi_def_cfa_offset 4
 3744              		.cfi_offset 14, -4
 3745 0002 87B0     		sub	sp, sp, #28
 3746              		.cfi_def_cfa_offset 32
 3747 0004 0390     		str	r0, [sp, #12]
 3748 0006 0291     		str	r1, [sp, #8]
 3749 0008 0192     		str	r2, [sp, #4]
 3750              		.loc 7 646 0
 3751 000a 114B     		ldr	r3, .L259
 3752 000c 1B68     		ldr	r3, [r3]
 3753 000e 0593     		str	r3, [sp, #20]
 3754              		.loc 7 652 0
 3755 0010 1049     		ldr	r1, .L259+4
 3756 0012 1148     		ldr	r0, .L259+8
 3757 0014 FFF7FEFF 		bl	config_load
 3758 0018 0346     		mov	r3, r0
 3759 001a 8DF81330 		strb	r3, [sp, #19]
 3760              		.loc 7 654 0
 3761 001e 9DF81330 		ldrb	r3, [sp, #19]	@ zero_extendqisi2
 3762 0022 002B     		cmp	r3, #0
 3763 0024 04D0     		beq	.L255
 3764              		.loc 7 655 0
 3765 0026 0D49     		ldr	r1, .L259+12
 3766 0028 0398     		ldr	r0, [sp, #12]
 3767 002a FFF7FEFF 		bl	chprintf
 3768              		.loc 7 659 0
 3769 002e 03E0     		b	.L258
 3770              	.L255:
 3771              		.loc 7 657 0
 3772 0030 0B49     		ldr	r1, .L259+16
 3773 0032 0398     		ldr	r0, [sp, #12]
 3774 0034 FFF7FEFF 		bl	chprintf
 3775              	.L258:
 3776              		.loc 7 659 0
 3777 0038 00BF     		nop
 3778 003a 054B     		ldr	r3, .L259
 3779 003c 059A     		ldr	r2, [sp, #20]
 3780 003e 1B68     		ldr	r3, [r3]
 3781 0040 9A42     		cmp	r2, r3
 3782 0042 01D0     		beq	.L257
 3783 0044 FFF7FEFF 		bl	__stack_chk_fail
 3784              	.L257:
 3785 0048 07B0     		add	sp, sp, #28
 3786              		.cfi_def_cfa_offset 4
 3787              		@ sp needed
 3788 004a 5DF804FB 		ldr	pc, [sp], #4
 3789              	.L260:
 3790 004e 00BF     		.align	2
ARM GAS  C:\Users\PCHAUT~1\AppData\Local\Temp\ccLw8kky.s 			page 73


 3791              	.L259:
 3792 0050 00000000 		.word	__stack_chk_guard
 3793 0054 00000000 		.word	_config_start
 3794 0058 00000000 		.word	parameter_root
 3795 005c EC080000 		.word	.LC88
 3796 0060 04090000 		.word	.LC90
 3797              		.cfi_endproc
 3798              	.LFE287:
 3799              		.size	cmd_config_load, .-cmd_config_load
 3800              		.section	.rodata
 3801 0913 00       		.align	2
 3802              	.LC91:
 3803 0914 55736167 		.ascii	"Usage: cam_brightness value.\015\012Default=0, max="
 3803      653A2063 
 3803      616D5F62 
 3803      72696768 
 3803      746E6573 
 3804 0941 3132372C 		.ascii	"127, min=-128.\015\012\000"
 3804      206D696E 
 3804      3D2D3132 
 3804      382E0D0A 
 3804      00
 3805 0952 0000     		.align	2
 3806              	.LC92:
 3807 0954 43616E6E 		.ascii	"Cannot write register (%d)\015\012\000"
 3807      6F742077 
 3807      72697465 
 3807      20726567 
 3807      69737465 
 3808 0971 000000   		.align	2
 3809              	.LC93:
 3810 0974 52656769 		.ascii	"Register written correctly\015\012\000"
 3810      73746572 
 3810      20777269 
 3810      7474656E 
 3810      20636F72 
 3811              		.section	.text.cmd_cam_set_brightness,"ax",%progbits
 3812              		.align	1
 3813              		.p2align 4,,15
 3814              		.syntax unified
 3815              		.thumb
 3816              		.thumb_func
 3817              		.fpu fpv4-sp-d16
 3818              		.type	cmd_cam_set_brightness, %function
 3819              	cmd_cam_set_brightness:
 3820              	.LFB288:
 3821              		.loc 7 662 0
 3822              		.cfi_startproc
 3823              		@ args = 0, pretend = 0, frame = 24
 3824              		@ frame_needed = 0, uses_anonymous_args = 0
 3825 0000 00B5     		push	{lr}
 3826              		.cfi_def_cfa_offset 4
 3827              		.cfi_offset 14, -4
 3828 0002 87B0     		sub	sp, sp, #28
 3829              		.cfi_def_cfa_offset 32
 3830 0004 0390     		str	r0, [sp, #12]
 3831 0006 0291     		str	r1, [sp, #8]
ARM GAS  C:\Users\PCHAUT~1\AppData\Local\Temp\ccLw8kky.s 			page 74


 3832 0008 0192     		str	r2, [sp, #4]
 3833              		.loc 7 662 0
 3834 000a 1B4B     		ldr	r3, .L267
 3835 000c 1B68     		ldr	r3, [r3]
 3836 000e 0593     		str	r3, [sp, #20]
 3837              		.loc 7 665 0
 3838 0010 029B     		ldr	r3, [sp, #8]
 3839 0012 012B     		cmp	r3, #1
 3840 0014 04D0     		beq	.L262
 3841              		.loc 7 666 0
 3842 0016 1949     		ldr	r1, .L267+4
 3843 0018 0398     		ldr	r0, [sp, #12]
 3844 001a FFF7FEFF 		bl	chprintf
 3845              		.loc 7 677 0
 3846 001e 1FE0     		b	.L266
 3847              	.L262:
 3848              		.loc 7 669 0
 3849 0020 019B     		ldr	r3, [sp, #4]
 3850 0022 1B68     		ldr	r3, [r3]
 3851 0024 1846     		mov	r0, r3
 3852 0026 FFF7FEFF 		bl	atoi
 3853 002a 0346     		mov	r3, r0
 3854 002c 8DF81230 		strb	r3, [sp, #18]
 3855              		.loc 7 670 0
 3856 0030 9DF81230 		ldrb	r3, [sp, #18]	@ zero_extendqisi2
 3857 0034 1846     		mov	r0, r3
 3858 0036 FFF7FEFF 		bl	po8030_set_brightness
 3859 003a 0346     		mov	r3, r0
 3860 003c 8DF81330 		strb	r3, [sp, #19]
 3861              		.loc 7 671 0
 3862 0040 9DF91330 		ldrsb	r3, [sp, #19]
 3863 0044 002B     		cmp	r3, #0
 3864 0046 07D0     		beq	.L264
 3865              		.loc 7 672 0
 3866 0048 9DF91330 		ldrsb	r3, [sp, #19]
 3867 004c 1A46     		mov	r2, r3
 3868 004e 0C49     		ldr	r1, .L267+8
 3869 0050 0398     		ldr	r0, [sp, #12]
 3870 0052 FFF7FEFF 		bl	chprintf
 3871              		.loc 7 677 0
 3872 0056 03E0     		b	.L266
 3873              	.L264:
 3874              		.loc 7 674 0
 3875 0058 0A49     		ldr	r1, .L267+12
 3876 005a 0398     		ldr	r0, [sp, #12]
 3877 005c FFF7FEFF 		bl	chprintf
 3878              	.L266:
 3879              		.loc 7 677 0
 3880 0060 00BF     		nop
 3881 0062 054B     		ldr	r3, .L267
 3882 0064 059A     		ldr	r2, [sp, #20]
 3883 0066 1B68     		ldr	r3, [r3]
 3884 0068 9A42     		cmp	r2, r3
 3885 006a 01D0     		beq	.L265
 3886 006c FFF7FEFF 		bl	__stack_chk_fail
 3887              	.L265:
 3888 0070 07B0     		add	sp, sp, #28
ARM GAS  C:\Users\PCHAUT~1\AppData\Local\Temp\ccLw8kky.s 			page 75


 3889              		.cfi_def_cfa_offset 4
 3890              		@ sp needed
 3891 0072 5DF804FB 		ldr	pc, [sp], #4
 3892              	.L268:
 3893 0076 00BF     		.align	2
 3894              	.L267:
 3895 0078 00000000 		.word	__stack_chk_guard
 3896 007c 14090000 		.word	.LC91
 3897 0080 54090000 		.word	.LC92
 3898 0084 74090000 		.word	.LC93
 3899              		.cfi_endproc
 3900              	.LFE288:
 3901              		.size	cmd_cam_set_brightness, .-cmd_cam_set_brightness
 3902              		.section	.rodata
 3903 0991 000000   		.align	2
 3904              	.LC94:
 3905 0994 55736167 		.ascii	"Usage: cam_contrast value.\015\012Default=64, max=2"
 3905      653A2063 
 3905      616D5F63 
 3905      6F6E7472 
 3905      61737420 
 3906 09c1 35352C20 		.ascii	"55, min=0.\015\012\000"
 3906      6D696E3D 
 3906      302E0D0A 
 3906      00
 3907              		.section	.text.cmd_cam_set_contrast,"ax",%progbits
 3908              		.align	1
 3909              		.p2align 4,,15
 3910              		.syntax unified
 3911              		.thumb
 3912              		.thumb_func
 3913              		.fpu fpv4-sp-d16
 3914              		.type	cmd_cam_set_contrast, %function
 3915              	cmd_cam_set_contrast:
 3916              	.LFB289:
 3917              		.loc 7 680 0
 3918              		.cfi_startproc
 3919              		@ args = 0, pretend = 0, frame = 24
 3920              		@ frame_needed = 0, uses_anonymous_args = 0
 3921 0000 00B5     		push	{lr}
 3922              		.cfi_def_cfa_offset 4
 3923              		.cfi_offset 14, -4
 3924 0002 87B0     		sub	sp, sp, #28
 3925              		.cfi_def_cfa_offset 32
 3926 0004 0390     		str	r0, [sp, #12]
 3927 0006 0291     		str	r1, [sp, #8]
 3928 0008 0192     		str	r2, [sp, #4]
 3929              		.loc 7 680 0
 3930 000a 1B4B     		ldr	r3, .L275
 3931 000c 1B68     		ldr	r3, [r3]
 3932 000e 0593     		str	r3, [sp, #20]
 3933              		.loc 7 683 0
 3934 0010 029B     		ldr	r3, [sp, #8]
 3935 0012 012B     		cmp	r3, #1
 3936 0014 04D0     		beq	.L270
 3937              		.loc 7 684 0
 3938 0016 1949     		ldr	r1, .L275+4
ARM GAS  C:\Users\PCHAUT~1\AppData\Local\Temp\ccLw8kky.s 			page 76


 3939 0018 0398     		ldr	r0, [sp, #12]
 3940 001a FFF7FEFF 		bl	chprintf
 3941              		.loc 7 695 0
 3942 001e 1FE0     		b	.L274
 3943              	.L270:
 3944              		.loc 7 687 0
 3945 0020 019B     		ldr	r3, [sp, #4]
 3946 0022 1B68     		ldr	r3, [r3]
 3947 0024 1846     		mov	r0, r3
 3948 0026 FFF7FEFF 		bl	atoi
 3949 002a 0346     		mov	r3, r0
 3950 002c 8DF81230 		strb	r3, [sp, #18]
 3951              		.loc 7 688 0
 3952 0030 9DF81230 		ldrb	r3, [sp, #18]	@ zero_extendqisi2
 3953 0034 1846     		mov	r0, r3
 3954 0036 FFF7FEFF 		bl	po8030_set_contrast
 3955 003a 0346     		mov	r3, r0
 3956 003c 8DF81330 		strb	r3, [sp, #19]
 3957              		.loc 7 689 0
 3958 0040 9DF91330 		ldrsb	r3, [sp, #19]
 3959 0044 002B     		cmp	r3, #0
 3960 0046 07D0     		beq	.L272
 3961              		.loc 7 690 0
 3962 0048 9DF91330 		ldrsb	r3, [sp, #19]
 3963 004c 1A46     		mov	r2, r3
 3964 004e 0C49     		ldr	r1, .L275+8
 3965 0050 0398     		ldr	r0, [sp, #12]
 3966 0052 FFF7FEFF 		bl	chprintf
 3967              		.loc 7 695 0
 3968 0056 03E0     		b	.L274
 3969              	.L272:
 3970              		.loc 7 692 0
 3971 0058 0A49     		ldr	r1, .L275+12
 3972 005a 0398     		ldr	r0, [sp, #12]
 3973 005c FFF7FEFF 		bl	chprintf
 3974              	.L274:
 3975              		.loc 7 695 0
 3976 0060 00BF     		nop
 3977 0062 054B     		ldr	r3, .L275
 3978 0064 059A     		ldr	r2, [sp, #20]
 3979 0066 1B68     		ldr	r3, [r3]
 3980 0068 9A42     		cmp	r2, r3
 3981 006a 01D0     		beq	.L273
 3982 006c FFF7FEFF 		bl	__stack_chk_fail
 3983              	.L273:
 3984 0070 07B0     		add	sp, sp, #28
 3985              		.cfi_def_cfa_offset 4
 3986              		@ sp needed
 3987 0072 5DF804FB 		ldr	pc, [sp], #4
 3988              	.L276:
 3989 0076 00BF     		.align	2
 3990              	.L275:
 3991 0078 00000000 		.word	__stack_chk_guard
 3992 007c 94090000 		.word	.LC94
 3993 0080 54090000 		.word	.LC92
 3994 0084 74090000 		.word	.LC93
 3995              		.cfi_endproc
ARM GAS  C:\Users\PCHAUT~1\AppData\Local\Temp\ccLw8kky.s 			page 77


 3996              	.LFE289:
 3997              		.size	cmd_cam_set_contrast, .-cmd_cam_set_contrast
 3998              		.section	.rodata
 3999 09ce 0000     		.align	2
 4000              	.LC95:
 4001 09d0 55736167 		.ascii	"Usage: cam_conf1 format subsampling_x subsampling_y"
 4001      653A2063 
 4001      616D5F63 
 4001      6F6E6631 
 4001      20666F72 
 4002 0a03 0D0A666F 		.ascii	"\015\012format: 0=color, 1=grey\015\012subsampling:"
 4002      726D6174 
 4002      3A20303D 
 4002      636F6C6F 
 4002      722C2031 
 4003 0a2a 20312C20 		.ascii	" 1, 2, 4\015\012\000"
 4003      322C2034 
 4003      0D0A00
 4004 0a35 000000   		.align	2
 4005              	.LC96:
 4006 0a38 52656769 		.ascii	"Registered color format\015\012\000"
 4006      73746572 
 4006      65642063 
 4006      6F6C6F72 
 4006      20666F72 
 4007 0a52 0000     		.align	2
 4008              	.LC97:
 4009 0a54 52656769 		.ascii	"Registered greyscale format\015\012\000"
 4009      73746572 
 4009      65642067 
 4009      72657973 
 4009      63616C65 
 4010 0a72 0000     		.align	2
 4011              	.LC98:
 4012 0a74 52656769 		.ascii	"Registered x subsampling x1\015\012\000"
 4012      73746572 
 4012      65642078 
 4012      20737562 
 4012      73616D70 
 4013 0a92 0000     		.align	2
 4014              	.LC99:
 4015 0a94 52656769 		.ascii	"Registered x subsampling x2\015\012\000"
 4015      73746572 
 4015      65642078 
 4015      20737562 
 4015      73616D70 
 4016 0ab2 0000     		.align	2
 4017              	.LC100:
 4018 0ab4 52656769 		.ascii	"Registered x subsampling x4\015\012\000"
 4018      73746572 
 4018      65642078 
 4018      20737562 
 4018      73616D70 
 4019 0ad2 0000     		.align	2
 4020              	.LC101:
 4021 0ad4 52656769 		.ascii	"Registered y subsampling x1\015\012\000"
 4021      73746572 
ARM GAS  C:\Users\PCHAUT~1\AppData\Local\Temp\ccLw8kky.s 			page 78


 4021      65642079 
 4021      20737562 
 4021      73616D70 
 4022 0af2 0000     		.align	2
 4023              	.LC102:
 4024 0af4 52656769 		.ascii	"Registered y subsampling x2\015\012\000"
 4024      73746572 
 4024      65642079 
 4024      20737562 
 4024      73616D70 
 4025 0b12 0000     		.align	2
 4026              	.LC103:
 4027 0b14 52656769 		.ascii	"Registered y subsampling x4\015\012\000"
 4027      73746572 
 4027      65642079 
 4027      20737562 
 4027      73616D70 
 4028              		.section	.text.cmd_cam_set_conf1,"ax",%progbits
 4029              		.align	1
 4030              		.p2align 4,,15
 4031              		.syntax unified
 4032              		.thumb
 4033              		.thumb_func
 4034              		.fpu fpv4-sp-d16
 4035              		.type	cmd_cam_set_conf1, %function
 4036              	cmd_cam_set_conf1:
 4037              	.LFB290:
 4038              		.loc 7 698 0
 4039              		.cfi_startproc
 4040              		@ args = 0, pretend = 0, frame = 24
 4041              		@ frame_needed = 0, uses_anonymous_args = 0
 4042 0000 00B5     		push	{lr}
 4043              		.cfi_def_cfa_offset 4
 4044              		.cfi_offset 14, -4
 4045 0002 87B0     		sub	sp, sp, #28
 4046              		.cfi_def_cfa_offset 32
 4047 0004 0390     		str	r0, [sp, #12]
 4048 0006 0291     		str	r1, [sp, #8]
 4049 0008 0192     		str	r2, [sp, #4]
 4050              		.loc 7 698 0
 4051 000a 414B     		ldr	r3, .L289
 4052 000c 1B68     		ldr	r3, [r3]
 4053 000e 0593     		str	r3, [sp, #20]
 4054              		.loc 7 702 0
 4055 0010 029B     		ldr	r3, [sp, #8]
 4056 0012 032B     		cmp	r3, #3
 4057 0014 04D0     		beq	.L278
 4058              		.loc 7 703 0
 4059 0016 3F49     		ldr	r1, .L289+4
 4060 0018 0398     		ldr	r0, [sp, #12]
 4061 001a FFF7FEFF 		bl	chprintf
 4062              		.loc 7 739 0
 4063 001e 6BE0     		b	.L288
 4064              	.L278:
 4065              		.loc 7 706 0
 4066 0020 019B     		ldr	r3, [sp, #4]
 4067 0022 1B68     		ldr	r3, [r3]
ARM GAS  C:\Users\PCHAUT~1\AppData\Local\Temp\ccLw8kky.s 			page 79


 4068 0024 1846     		mov	r0, r3
 4069 0026 FFF7FEFF 		bl	atoi
 4070 002a 0346     		mov	r3, r0
 4071 002c DBB2     		uxtb	r3, r3
 4072 002e ADF81230 		strh	r3, [sp, #18]	@ movhi
 4073              		.loc 7 707 0
 4074 0032 019B     		ldr	r3, [sp, #4]
 4075 0034 0433     		adds	r3, r3, #4
 4076 0036 1B68     		ldr	r3, [r3]
 4077 0038 1846     		mov	r0, r3
 4078 003a FFF7FEFF 		bl	atoi
 4079 003e 0346     		mov	r3, r0
 4080 0040 8DF81030 		strb	r3, [sp, #16]
 4081              		.loc 7 708 0
 4082 0044 019B     		ldr	r3, [sp, #4]
 4083 0046 0833     		adds	r3, r3, #8
 4084 0048 1B68     		ldr	r3, [r3]
 4085 004a 1846     		mov	r0, r3
 4086 004c FFF7FEFF 		bl	atoi
 4087 0050 0346     		mov	r3, r0
 4088 0052 8DF81130 		strb	r3, [sp, #17]
 4089              		.loc 7 710 0
 4090 0056 BDF81230 		ldrh	r3, [sp, #18]
 4091 005a 002B     		cmp	r3, #0
 4092 005c 07D1     		bne	.L280
 4093              		.loc 7 711 0
 4094 005e 2E4B     		ldr	r3, .L289+8
 4095 0060 0222     		movs	r2, #2
 4096 0062 1A70     		strb	r2, [r3]
 4097              		.loc 7 712 0
 4098 0064 2D49     		ldr	r1, .L289+12
 4099 0066 0398     		ldr	r0, [sp, #12]
 4100 0068 FFF7FEFF 		bl	chprintf
 4101 006c 06E0     		b	.L281
 4102              	.L280:
 4103              		.loc 7 714 0
 4104 006e 2A4B     		ldr	r3, .L289+8
 4105 0070 4422     		movs	r2, #68
 4106 0072 1A70     		strb	r2, [r3]
 4107              		.loc 7 715 0
 4108 0074 2A49     		ldr	r1, .L289+16
 4109 0076 0398     		ldr	r0, [sp, #12]
 4110 0078 FFF7FEFF 		bl	chprintf
 4111              	.L281:
 4112              		.loc 7 718 0
 4113 007c 9DF81030 		ldrb	r3, [sp, #16]	@ zero_extendqisi2
 4114 0080 012B     		cmp	r3, #1
 4115 0082 07D1     		bne	.L282
 4116              		.loc 7 719 0
 4117 0084 274B     		ldr	r3, .L289+20
 4118 0086 2022     		movs	r2, #32
 4119 0088 1A70     		strb	r2, [r3]
 4120              		.loc 7 720 0
 4121 008a 2749     		ldr	r1, .L289+24
 4122 008c 0398     		ldr	r0, [sp, #12]
 4123 008e FFF7FEFF 		bl	chprintf
 4124 0092 12E0     		b	.L283
ARM GAS  C:\Users\PCHAUT~1\AppData\Local\Temp\ccLw8kky.s 			page 80


 4125              	.L282:
 4126              		.loc 7 721 0
 4127 0094 9DF81030 		ldrb	r3, [sp, #16]	@ zero_extendqisi2
 4128 0098 022B     		cmp	r3, #2
 4129 009a 07D1     		bne	.L284
 4130              		.loc 7 722 0
 4131 009c 214B     		ldr	r3, .L289+20
 4132 009e 4022     		movs	r2, #64
 4133 00a0 1A70     		strb	r2, [r3]
 4134              		.loc 7 723 0
 4135 00a2 2249     		ldr	r1, .L289+28
 4136 00a4 0398     		ldr	r0, [sp, #12]
 4137 00a6 FFF7FEFF 		bl	chprintf
 4138 00aa 06E0     		b	.L283
 4139              	.L284:
 4140              		.loc 7 725 0
 4141 00ac 1D4B     		ldr	r3, .L289+20
 4142 00ae 8022     		movs	r2, #128
 4143 00b0 1A70     		strb	r2, [r3]
 4144              		.loc 7 726 0
 4145 00b2 1F49     		ldr	r1, .L289+32
 4146 00b4 0398     		ldr	r0, [sp, #12]
 4147 00b6 FFF7FEFF 		bl	chprintf
 4148              	.L283:
 4149              		.loc 7 728 0
 4150 00ba 9DF81130 		ldrb	r3, [sp, #17]	@ zero_extendqisi2
 4151 00be 012B     		cmp	r3, #1
 4152 00c0 07D1     		bne	.L285
 4153              		.loc 7 729 0
 4154 00c2 1C4B     		ldr	r3, .L289+36
 4155 00c4 2022     		movs	r2, #32
 4156 00c6 1A70     		strb	r2, [r3]
 4157              		.loc 7 730 0
 4158 00c8 1B49     		ldr	r1, .L289+40
 4159 00ca 0398     		ldr	r0, [sp, #12]
 4160 00cc FFF7FEFF 		bl	chprintf
 4161              		.loc 7 739 0
 4162 00d0 12E0     		b	.L288
 4163              	.L285:
 4164              		.loc 7 731 0
 4165 00d2 9DF81130 		ldrb	r3, [sp, #17]	@ zero_extendqisi2
 4166 00d6 022B     		cmp	r3, #2
 4167 00d8 07D1     		bne	.L286
 4168              		.loc 7 732 0
 4169 00da 164B     		ldr	r3, .L289+36
 4170 00dc 4022     		movs	r2, #64
 4171 00de 1A70     		strb	r2, [r3]
 4172              		.loc 7 733 0
 4173 00e0 1649     		ldr	r1, .L289+44
 4174 00e2 0398     		ldr	r0, [sp, #12]
 4175 00e4 FFF7FEFF 		bl	chprintf
 4176              		.loc 7 739 0
 4177 00e8 06E0     		b	.L288
 4178              	.L286:
 4179              		.loc 7 735 0
 4180 00ea 124B     		ldr	r3, .L289+36
 4181 00ec 8022     		movs	r2, #128
ARM GAS  C:\Users\PCHAUT~1\AppData\Local\Temp\ccLw8kky.s 			page 81


 4182 00ee 1A70     		strb	r2, [r3]
 4183              		.loc 7 736 0
 4184 00f0 1349     		ldr	r1, .L289+48
 4185 00f2 0398     		ldr	r0, [sp, #12]
 4186 00f4 FFF7FEFF 		bl	chprintf
 4187              	.L288:
 4188              		.loc 7 739 0
 4189 00f8 00BF     		nop
 4190 00fa 054B     		ldr	r3, .L289
 4191 00fc 059A     		ldr	r2, [sp, #20]
 4192 00fe 1B68     		ldr	r3, [r3]
 4193 0100 9A42     		cmp	r2, r3
 4194 0102 01D0     		beq	.L287
 4195 0104 FFF7FEFF 		bl	__stack_chk_fail
 4196              	.L287:
 4197 0108 07B0     		add	sp, sp, #28
 4198              		.cfi_def_cfa_offset 4
 4199              		@ sp needed
 4200 010a 5DF804FB 		ldr	pc, [sp], #4
 4201              	.L290:
 4202 010e 00BF     		.align	2
 4203              	.L289:
 4204 0110 00000000 		.word	__stack_chk_guard
 4205 0114 D0090000 		.word	.LC95
 4206 0118 00000000 		.word	cmd_fmt
 4207 011c 380A0000 		.word	.LC96
 4208 0120 540A0000 		.word	.LC97
 4209 0124 00000000 		.word	cmd_subx
 4210 0128 740A0000 		.word	.LC98
 4211 012c 940A0000 		.word	.LC99
 4212 0130 B40A0000 		.word	.LC100
 4213 0134 00000000 		.word	cmd_suby
 4214 0138 D40A0000 		.word	.LC101
 4215 013c F40A0000 		.word	.LC102
 4216 0140 140B0000 		.word	.LC103
 4217              		.cfi_endproc
 4218              	.LFE290:
 4219              		.size	cmd_cam_set_conf1, .-cmd_cam_set_conf1
 4220              		.section	.rodata
 4221 0b32 0000     		.align	2
 4222              	.LC104:
 4223 0b34 55736167 		.ascii	"Usage: cam_conf2 x1 y1 width height\015\012\000"
 4223      653A2063 
 4223      616D5F63 
 4223      6F6E6632 
 4223      20783120 
 4224 0b5a 0000     		.align	2
 4225              	.LC105:
 4226 0b5c 43616E6E 		.ascii	"Cannot set configuration (%d)\015\012\000"
 4226      6F742073 
 4226      65742063 
 4226      6F6E6669 
 4226      67757261 
 4227              		.align	2
 4228              	.LC106:
 4229 0b7c 436F6E66 		.ascii	"Configuration set correctly\015\012\000"
 4229      69677572 
ARM GAS  C:\Users\PCHAUT~1\AppData\Local\Temp\ccLw8kky.s 			page 82


 4229      6174696F 
 4229      6E207365 
 4229      7420636F 
 4230              		.section	.text.cmd_cam_set_conf2,"ax",%progbits
 4231              		.align	1
 4232              		.p2align 4,,15
 4233              		.syntax unified
 4234              		.thumb
 4235              		.thumb_func
 4236              		.fpu fpv4-sp-d16
 4237              		.type	cmd_cam_set_conf2, %function
 4238              	cmd_cam_set_conf2:
 4239              	.LFB291:
 4240              		.loc 7 742 0
 4241              		.cfi_startproc
 4242              		@ args = 0, pretend = 0, frame = 24
 4243              		@ frame_needed = 0, uses_anonymous_args = 0
 4244 0000 70B5     		push	{r4, r5, r6, lr}
 4245              		.cfi_def_cfa_offset 16
 4246              		.cfi_offset 4, -16
 4247              		.cfi_offset 5, -12
 4248              		.cfi_offset 6, -8
 4249              		.cfi_offset 14, -4
 4250 0002 8AB0     		sub	sp, sp, #40
 4251              		.cfi_def_cfa_offset 56
 4252 0004 0790     		str	r0, [sp, #28]
 4253 0006 0691     		str	r1, [sp, #24]
 4254 0008 0592     		str	r2, [sp, #20]
 4255              		.loc 7 742 0
 4256 000a 344B     		ldr	r3, .L297
 4257 000c 1B68     		ldr	r3, [r3]
 4258 000e 0993     		str	r3, [sp, #36]
 4259              		.loc 7 745 0
 4260 0010 069B     		ldr	r3, [sp, #24]
 4261 0012 042B     		cmp	r3, #4
 4262 0014 04D0     		beq	.L292
 4263              		.loc 7 746 0
 4264 0016 3249     		ldr	r1, .L297+4
 4265 0018 0798     		ldr	r0, [sp, #28]
 4266 001a FFF7FEFF 		bl	chprintf
 4267              		.loc 7 760 0
 4268 001e 53E0     		b	.L296
 4269              	.L292:
 4270              		.loc 7 748 0
 4271 0020 059B     		ldr	r3, [sp, #20]
 4272 0022 1B68     		ldr	r3, [r3]
 4273 0024 1846     		mov	r0, r3
 4274 0026 FFF7FEFF 		bl	atoi
 4275 002a 0346     		mov	r3, r0
 4276 002c 9AB2     		uxth	r2, r3
 4277 002e 2D4B     		ldr	r3, .L297+8
 4278 0030 1A80     		strh	r2, [r3]	@ movhi
 4279              		.loc 7 749 0
 4280 0032 059B     		ldr	r3, [sp, #20]
 4281 0034 0433     		adds	r3, r3, #4
 4282 0036 1B68     		ldr	r3, [r3]
 4283 0038 1846     		mov	r0, r3
ARM GAS  C:\Users\PCHAUT~1\AppData\Local\Temp\ccLw8kky.s 			page 83


 4284 003a FFF7FEFF 		bl	atoi
 4285 003e 0346     		mov	r3, r0
 4286 0040 9AB2     		uxth	r2, r3
 4287 0042 294B     		ldr	r3, .L297+12
 4288 0044 1A80     		strh	r2, [r3]	@ movhi
 4289              		.loc 7 750 0
 4290 0046 059B     		ldr	r3, [sp, #20]
 4291 0048 0833     		adds	r3, r3, #8
 4292 004a 1B68     		ldr	r3, [r3]
 4293 004c 1846     		mov	r0, r3
 4294 004e FFF7FEFF 		bl	atoi
 4295 0052 0346     		mov	r3, r0
 4296 0054 9AB2     		uxth	r2, r3
 4297 0056 254B     		ldr	r3, .L297+16
 4298 0058 1A80     		strh	r2, [r3]	@ movhi
 4299              		.loc 7 751 0
 4300 005a 059B     		ldr	r3, [sp, #20]
 4301 005c 0C33     		adds	r3, r3, #12
 4302 005e 1B68     		ldr	r3, [r3]
 4303 0060 1846     		mov	r0, r3
 4304 0062 FFF7FEFF 		bl	atoi
 4305 0066 0346     		mov	r3, r0
 4306 0068 9AB2     		uxth	r2, r3
 4307 006a 214B     		ldr	r3, .L297+20
 4308 006c 1A80     		strh	r2, [r3]	@ movhi
 4309              		.loc 7 753 0
 4310 006e 214B     		ldr	r3, .L297+24
 4311 0070 1878     		ldrb	r0, [r3]	@ zero_extendqisi2
 4312 0072 1C4B     		ldr	r3, .L297+8
 4313 0074 1B88     		ldrh	r3, [r3]
 4314 0076 1C46     		mov	r4, r3
 4315 0078 1B4B     		ldr	r3, .L297+12
 4316 007a 1B88     		ldrh	r3, [r3]
 4317 007c 1D46     		mov	r5, r3
 4318 007e 1B4B     		ldr	r3, .L297+16
 4319 0080 1B88     		ldrh	r3, [r3]
 4320 0082 1E46     		mov	r6, r3
 4321 0084 1A4B     		ldr	r3, .L297+20
 4322 0086 1B88     		ldrh	r3, [r3]
 4323 0088 1946     		mov	r1, r3
 4324 008a 1B4B     		ldr	r3, .L297+28
 4325 008c 1B78     		ldrb	r3, [r3]	@ zero_extendqisi2
 4326 008e 1B4A     		ldr	r2, .L297+32
 4327 0090 1278     		ldrb	r2, [r2]	@ zero_extendqisi2
 4328 0092 0292     		str	r2, [sp, #8]
 4329 0094 0193     		str	r3, [sp, #4]
 4330 0096 0091     		str	r1, [sp]
 4331 0098 3346     		mov	r3, r6
 4332 009a 2A46     		mov	r2, r5
 4333 009c 2146     		mov	r1, r4
 4334 009e FFF7FEFF 		bl	po8030_advanced_config
 4335 00a2 0346     		mov	r3, r0
 4336 00a4 8DF82330 		strb	r3, [sp, #35]
 4337              		.loc 7 754 0
 4338 00a8 9DF92330 		ldrsb	r3, [sp, #35]
 4339 00ac 002B     		cmp	r3, #0
 4340 00ae 07D0     		beq	.L294
ARM GAS  C:\Users\PCHAUT~1\AppData\Local\Temp\ccLw8kky.s 			page 84


 4341              		.loc 7 755 0
 4342 00b0 9DF92330 		ldrsb	r3, [sp, #35]
 4343 00b4 1A46     		mov	r2, r3
 4344 00b6 1249     		ldr	r1, .L297+36
 4345 00b8 0798     		ldr	r0, [sp, #28]
 4346 00ba FFF7FEFF 		bl	chprintf
 4347              		.loc 7 760 0
 4348 00be 03E0     		b	.L296
 4349              	.L294:
 4350              		.loc 7 757 0
 4351 00c0 1049     		ldr	r1, .L297+40
 4352 00c2 0798     		ldr	r0, [sp, #28]
 4353 00c4 FFF7FEFF 		bl	chprintf
 4354              	.L296:
 4355              		.loc 7 760 0
 4356 00c8 00BF     		nop
 4357 00ca 044B     		ldr	r3, .L297
 4358 00cc 099A     		ldr	r2, [sp, #36]
 4359 00ce 1B68     		ldr	r3, [r3]
 4360 00d0 9A42     		cmp	r2, r3
 4361 00d2 01D0     		beq	.L295
 4362 00d4 FFF7FEFF 		bl	__stack_chk_fail
 4363              	.L295:
 4364 00d8 0AB0     		add	sp, sp, #40
 4365              		.cfi_def_cfa_offset 16
 4366              		@ sp needed
 4367 00da 70BD     		pop	{r4, r5, r6, pc}
 4368              	.L298:
 4369              		.align	2
 4370              	.L297:
 4371 00dc 00000000 		.word	__stack_chk_guard
 4372 00e0 340B0000 		.word	.LC104
 4373 00e4 00000000 		.word	cmd_x1
 4374 00e8 00000000 		.word	cmd_y1
 4375 00ec 00000000 		.word	cmd_width
 4376 00f0 00000000 		.word	cmd_height
 4377 00f4 00000000 		.word	cmd_fmt
 4378 00f8 00000000 		.word	cmd_subx
 4379 00fc 00000000 		.word	cmd_suby
 4380 0100 5C0B0000 		.word	.LC105
 4381 0104 7C0B0000 		.word	.LC106
 4382              		.cfi_endproc
 4383              	.LFE291:
 4384              		.size	cmd_cam_set_conf2, .-cmd_cam_set_conf2
 4385              		.section	.rodata
 4386 0b9a 0000     		.align	2
 4387              	.LC107:
 4388 0b9c 55736167 		.ascii	"Usage: cam_mirror vertical_en horizontal_en\015\012"
 4388      653A2063 
 4388      616D5F6D 
 4388      6972726F 
 4388      72207665 
 4389 0bc9 313D656E 		.ascii	"1=enabled, 0=disabled\015\012\000"
 4389      61626C65 
 4389      642C2030 
 4389      3D646973 
 4389      61626C65 
ARM GAS  C:\Users\PCHAUT~1\AppData\Local\Temp\ccLw8kky.s 			page 85


 4390 0be1 000000   		.align	2
 4391              	.LC108:
 4392 0be4 43616E6E 		.ascii	"Cannot set mirroring (%d)\015\012\000"
 4392      6F742073 
 4392      6574206D 
 4392      6972726F 
 4392      72696E67 
 4393              		.align	2
 4394              	.LC109:
 4395 0c00 4D697272 		.ascii	"Mirroring set correctly\015\012\000"
 4395      6F72696E 
 4395      67207365 
 4395      7420636F 
 4395      72726563 
 4396              		.section	.text.cmd_cam_set_mirror,"ax",%progbits
 4397              		.align	1
 4398              		.p2align 4,,15
 4399              		.syntax unified
 4400              		.thumb
 4401              		.thumb_func
 4402              		.fpu fpv4-sp-d16
 4403              		.type	cmd_cam_set_mirror, %function
 4404              	cmd_cam_set_mirror:
 4405              	.LFB292:
 4406              		.loc 7 763 0
 4407              		.cfi_startproc
 4408              		@ args = 0, pretend = 0, frame = 24
 4409              		@ frame_needed = 0, uses_anonymous_args = 0
 4410 0000 00B5     		push	{lr}
 4411              		.cfi_def_cfa_offset 4
 4412              		.cfi_offset 14, -4
 4413 0002 87B0     		sub	sp, sp, #28
 4414              		.cfi_def_cfa_offset 32
 4415 0004 0390     		str	r0, [sp, #12]
 4416 0006 0291     		str	r1, [sp, #8]
 4417 0008 0192     		str	r2, [sp, #4]
 4418              		.loc 7 763 0
 4419 000a 214B     		ldr	r3, .L305
 4420 000c 1B68     		ldr	r3, [r3]
 4421 000e 0593     		str	r3, [sp, #20]
 4422              		.loc 7 767 0
 4423 0010 029B     		ldr	r3, [sp, #8]
 4424 0012 022B     		cmp	r3, #2
 4425 0014 04D0     		beq	.L300
 4426              		.loc 7 768 0
 4427 0016 1F49     		ldr	r1, .L305+4
 4428 0018 0398     		ldr	r0, [sp, #12]
 4429 001a FFF7FEFF 		bl	chprintf
 4430              		.loc 7 781 0
 4431 001e 2BE0     		b	.L304
 4432              	.L300:
 4433              		.loc 7 771 0
 4434 0020 019B     		ldr	r3, [sp, #4]
 4435 0022 1B68     		ldr	r3, [r3]
 4436 0024 1846     		mov	r0, r3
 4437 0026 FFF7FEFF 		bl	atoi
 4438 002a 0346     		mov	r3, r0
ARM GAS  C:\Users\PCHAUT~1\AppData\Local\Temp\ccLw8kky.s 			page 86


 4439 002c 8DF81130 		strb	r3, [sp, #17]
 4440              		.loc 7 772 0
 4441 0030 019B     		ldr	r3, [sp, #4]
 4442 0032 0433     		adds	r3, r3, #4
 4443 0034 1B68     		ldr	r3, [r3]
 4444 0036 1846     		mov	r0, r3
 4445 0038 FFF7FEFF 		bl	atoi
 4446 003c 0346     		mov	r3, r0
 4447 003e 8DF81230 		strb	r3, [sp, #18]
 4448              		.loc 7 774 0
 4449 0042 9DF81220 		ldrb	r2, [sp, #18]	@ zero_extendqisi2
 4450 0046 9DF81130 		ldrb	r3, [sp, #17]	@ zero_extendqisi2
 4451 004a 1146     		mov	r1, r2
 4452 004c 1846     		mov	r0, r3
 4453 004e FFF7FEFF 		bl	po8030_set_mirror
 4454 0052 0346     		mov	r3, r0
 4455 0054 8DF81330 		strb	r3, [sp, #19]
 4456              		.loc 7 775 0
 4457 0058 9DF91330 		ldrsb	r3, [sp, #19]
 4458 005c 002B     		cmp	r3, #0
 4459 005e 07D0     		beq	.L302
 4460              		.loc 7 776 0
 4461 0060 9DF91330 		ldrsb	r3, [sp, #19]
 4462 0064 1A46     		mov	r2, r3
 4463 0066 0C49     		ldr	r1, .L305+8
 4464 0068 0398     		ldr	r0, [sp, #12]
 4465 006a FFF7FEFF 		bl	chprintf
 4466              		.loc 7 781 0
 4467 006e 03E0     		b	.L304
 4468              	.L302:
 4469              		.loc 7 778 0
 4470 0070 0A49     		ldr	r1, .L305+12
 4471 0072 0398     		ldr	r0, [sp, #12]
 4472 0074 FFF7FEFF 		bl	chprintf
 4473              	.L304:
 4474              		.loc 7 781 0
 4475 0078 00BF     		nop
 4476 007a 054B     		ldr	r3, .L305
 4477 007c 059A     		ldr	r2, [sp, #20]
 4478 007e 1B68     		ldr	r3, [r3]
 4479 0080 9A42     		cmp	r2, r3
 4480 0082 01D0     		beq	.L303
 4481 0084 FFF7FEFF 		bl	__stack_chk_fail
 4482              	.L303:
 4483 0088 07B0     		add	sp, sp, #28
 4484              		.cfi_def_cfa_offset 4
 4485              		@ sp needed
 4486 008a 5DF804FB 		ldr	pc, [sp], #4
 4487              	.L306:
 4488 008e 00BF     		.align	2
 4489              	.L305:
 4490 0090 00000000 		.word	__stack_chk_guard
 4491 0094 9C0B0000 		.word	.LC107
 4492 0098 E40B0000 		.word	.LC108
 4493 009c 000C0000 		.word	.LC109
 4494              		.cfi_endproc
 4495              	.LFE292:
ARM GAS  C:\Users\PCHAUT~1\AppData\Local\Temp\ccLw8kky.s 			page 87


 4496              		.size	cmd_cam_set_mirror, .-cmd_cam_set_mirror
 4497              		.section	.rodata
 4498 0c1a 0000     		.align	2
 4499              	.LC110:
 4500 0c1c 55736167 		.ascii	"Usage: cam_gain red_gain green_gain blue_gain\015\012"
 4500      653A2063 
 4500      616D5F67 
 4500      61696E20 
 4500      7265645F 
 4501 0c4b 54686973 		.ascii	"This command disable auto white balance.\015\012Def"
 4501      20636F6D 
 4501      6D616E64 
 4501      20646973 
 4501      61626C65 
 4502 0c78 61756C74 		.ascii	"ault: r=94, g=64, b=93\015\012\000"
 4502      3A20723D 
 4502      39342C20 
 4502      673D3634 
 4502      2C20623D 
 4503 0c91 000000   		.align	2
 4504              	.LC111:
 4505 0c94 43616E6E 		.ascii	"Cannot set gain (%d)\015\012\000"
 4505      6F742073 
 4505      65742067 
 4505      61696E20 
 4505      28256429 
 4506 0cab 00       		.align	2
 4507              	.LC112:
 4508 0cac 4761696E 		.ascii	"Gain set correctly\015\012\000"
 4508      20736574 
 4508      20636F72 
 4508      72656374 
 4508      6C790D0A 
 4509              		.section	.text.cmd_cam_set_gain,"ax",%progbits
 4510              		.align	1
 4511              		.p2align 4,,15
 4512              		.syntax unified
 4513              		.thumb
 4514              		.thumb_func
 4515              		.fpu fpv4-sp-d16
 4516              		.type	cmd_cam_set_gain, %function
 4517              	cmd_cam_set_gain:
 4518              	.LFB293:
 4519              		.loc 7 784 0
 4520              		.cfi_startproc
 4521              		@ args = 0, pretend = 0, frame = 24
 4522              		@ frame_needed = 0, uses_anonymous_args = 0
 4523 0000 00B5     		push	{lr}
 4524              		.cfi_def_cfa_offset 4
 4525              		.cfi_offset 14, -4
 4526 0002 87B0     		sub	sp, sp, #28
 4527              		.cfi_def_cfa_offset 32
 4528 0004 0390     		str	r0, [sp, #12]
 4529 0006 0291     		str	r1, [sp, #8]
 4530 0008 0192     		str	r2, [sp, #4]
 4531              		.loc 7 784 0
 4532 000a 264B     		ldr	r3, .L313
ARM GAS  C:\Users\PCHAUT~1\AppData\Local\Temp\ccLw8kky.s 			page 88


 4533 000c 1B68     		ldr	r3, [r3]
 4534 000e 0593     		str	r3, [sp, #20]
 4535              		.loc 7 788 0
 4536 0010 029B     		ldr	r3, [sp, #8]
 4537 0012 032B     		cmp	r3, #3
 4538 0014 04D0     		beq	.L308
 4539              		.loc 7 789 0
 4540 0016 2449     		ldr	r1, .L313+4
 4541 0018 0398     		ldr	r0, [sp, #12]
 4542 001a FFF7FEFF 		bl	chprintf
 4543              		.loc 7 803 0
 4544 001e 35E0     		b	.L312
 4545              	.L308:
 4546              		.loc 7 792 0
 4547 0020 019B     		ldr	r3, [sp, #4]
 4548 0022 1B68     		ldr	r3, [r3]
 4549 0024 1846     		mov	r0, r3
 4550 0026 FFF7FEFF 		bl	atoi
 4551 002a 0346     		mov	r3, r0
 4552 002c 8DF81030 		strb	r3, [sp, #16]
 4553              		.loc 7 793 0
 4554 0030 019B     		ldr	r3, [sp, #4]
 4555 0032 0433     		adds	r3, r3, #4
 4556 0034 1B68     		ldr	r3, [r3]
 4557 0036 1846     		mov	r0, r3
 4558 0038 FFF7FEFF 		bl	atoi
 4559 003c 0346     		mov	r3, r0
 4560 003e 8DF81130 		strb	r3, [sp, #17]
 4561              		.loc 7 794 0
 4562 0042 019B     		ldr	r3, [sp, #4]
 4563 0044 0833     		adds	r3, r3, #8
 4564 0046 1B68     		ldr	r3, [r3]
 4565 0048 1846     		mov	r0, r3
 4566 004a FFF7FEFF 		bl	atoi
 4567 004e 0346     		mov	r3, r0
 4568 0050 8DF81230 		strb	r3, [sp, #18]
 4569              		.loc 7 796 0
 4570 0054 9DF81220 		ldrb	r2, [sp, #18]	@ zero_extendqisi2
 4571 0058 9DF81110 		ldrb	r1, [sp, #17]	@ zero_extendqisi2
 4572 005c 9DF81030 		ldrb	r3, [sp, #16]	@ zero_extendqisi2
 4573 0060 1846     		mov	r0, r3
 4574 0062 FFF7FEFF 		bl	po8030_set_rgb_gain
 4575 0066 0346     		mov	r3, r0
 4576 0068 8DF81330 		strb	r3, [sp, #19]
 4577              		.loc 7 797 0
 4578 006c 9DF91330 		ldrsb	r3, [sp, #19]
 4579 0070 002B     		cmp	r3, #0
 4580 0072 07D0     		beq	.L310
 4581              		.loc 7 798 0
 4582 0074 9DF91330 		ldrsb	r3, [sp, #19]
 4583 0078 1A46     		mov	r2, r3
 4584 007a 0C49     		ldr	r1, .L313+8
 4585 007c 0398     		ldr	r0, [sp, #12]
 4586 007e FFF7FEFF 		bl	chprintf
 4587              		.loc 7 803 0
 4588 0082 03E0     		b	.L312
 4589              	.L310:
ARM GAS  C:\Users\PCHAUT~1\AppData\Local\Temp\ccLw8kky.s 			page 89


 4590              		.loc 7 800 0
 4591 0084 0A49     		ldr	r1, .L313+12
 4592 0086 0398     		ldr	r0, [sp, #12]
 4593 0088 FFF7FEFF 		bl	chprintf
 4594              	.L312:
 4595              		.loc 7 803 0
 4596 008c 00BF     		nop
 4597 008e 054B     		ldr	r3, .L313
 4598 0090 059A     		ldr	r2, [sp, #20]
 4599 0092 1B68     		ldr	r3, [r3]
 4600 0094 9A42     		cmp	r2, r3
 4601 0096 01D0     		beq	.L311
 4602 0098 FFF7FEFF 		bl	__stack_chk_fail
 4603              	.L311:
 4604 009c 07B0     		add	sp, sp, #28
 4605              		.cfi_def_cfa_offset 4
 4606              		@ sp needed
 4607 009e 5DF804FB 		ldr	pc, [sp], #4
 4608              	.L314:
 4609 00a2 00BF     		.align	2
 4610              	.L313:
 4611 00a4 00000000 		.word	__stack_chk_guard
 4612 00a8 1C0C0000 		.word	.LC110
 4613 00ac 940C0000 		.word	.LC111
 4614 00b0 AC0C0000 		.word	.LC112
 4615              		.cfi_endproc
 4616              	.LFE293:
 4617              		.size	cmd_cam_set_gain, .-cmd_cam_set_gain
 4618              		.section	.rodata
 4619 0cc1 000000   		.align	2
 4620              	.LC113:
 4621 0cc4 55736167 		.ascii	"Usage: cam_awb awb_en.\015\0121=enabled, 0=disabled"
 4621      653A2063 
 4621      616D5F61 
 4621      77622061 
 4621      77625F65 
 4622 0cf1 0D0A00   		.ascii	"\015\012\000"
 4623              		.align	2
 4624              	.LC114:
 4625 0cf4 43616E6E 		.ascii	"Cannot set white balance (%d)\015\012\000"
 4625      6F742073 
 4625      65742077 
 4625      68697465 
 4625      2062616C 
 4626              		.align	2
 4627              	.LC115:
 4628 0d14 57686974 		.ascii	"White balance set correctly\015\012\000"
 4628      65206261 
 4628      6C616E63 
 4628      65207365 
 4628      7420636F 
 4629              		.section	.text.cmd_cam_set_awb,"ax",%progbits
 4630              		.align	1
 4631              		.p2align 4,,15
 4632              		.syntax unified
 4633              		.thumb
 4634              		.thumb_func
ARM GAS  C:\Users\PCHAUT~1\AppData\Local\Temp\ccLw8kky.s 			page 90


 4635              		.fpu fpv4-sp-d16
 4636              		.type	cmd_cam_set_awb, %function
 4637              	cmd_cam_set_awb:
 4638              	.LFB294:
 4639              		.loc 7 806 0
 4640              		.cfi_startproc
 4641              		@ args = 0, pretend = 0, frame = 24
 4642              		@ frame_needed = 0, uses_anonymous_args = 0
 4643 0000 00B5     		push	{lr}
 4644              		.cfi_def_cfa_offset 4
 4645              		.cfi_offset 14, -4
 4646 0002 87B0     		sub	sp, sp, #28
 4647              		.cfi_def_cfa_offset 32
 4648 0004 0390     		str	r0, [sp, #12]
 4649 0006 0291     		str	r1, [sp, #8]
 4650 0008 0192     		str	r2, [sp, #4]
 4651              		.loc 7 806 0
 4652 000a 1B4B     		ldr	r3, .L321
 4653 000c 1B68     		ldr	r3, [r3]
 4654 000e 0593     		str	r3, [sp, #20]
 4655              		.loc 7 810 0
 4656 0010 029B     		ldr	r3, [sp, #8]
 4657 0012 012B     		cmp	r3, #1
 4658 0014 04D0     		beq	.L316
 4659              		.loc 7 811 0
 4660 0016 1949     		ldr	r1, .L321+4
 4661 0018 0398     		ldr	r0, [sp, #12]
 4662 001a FFF7FEFF 		bl	chprintf
 4663              		.loc 7 823 0
 4664 001e 1FE0     		b	.L320
 4665              	.L316:
 4666              		.loc 7 814 0
 4667 0020 019B     		ldr	r3, [sp, #4]
 4668 0022 1B68     		ldr	r3, [r3]
 4669 0024 1846     		mov	r0, r3
 4670 0026 FFF7FEFF 		bl	atoi
 4671 002a 0346     		mov	r3, r0
 4672 002c 8DF81230 		strb	r3, [sp, #18]
 4673              		.loc 7 816 0
 4674 0030 9DF81230 		ldrb	r3, [sp, #18]	@ zero_extendqisi2
 4675 0034 1846     		mov	r0, r3
 4676 0036 FFF7FEFF 		bl	po8030_set_awb
 4677 003a 0346     		mov	r3, r0
 4678 003c 8DF81330 		strb	r3, [sp, #19]
 4679              		.loc 7 817 0
 4680 0040 9DF91330 		ldrsb	r3, [sp, #19]
 4681 0044 002B     		cmp	r3, #0
 4682 0046 07D0     		beq	.L318
 4683              		.loc 7 818 0
 4684 0048 9DF91330 		ldrsb	r3, [sp, #19]
 4685 004c 1A46     		mov	r2, r3
 4686 004e 0C49     		ldr	r1, .L321+8
 4687 0050 0398     		ldr	r0, [sp, #12]
 4688 0052 FFF7FEFF 		bl	chprintf
 4689              		.loc 7 823 0
 4690 0056 03E0     		b	.L320
 4691              	.L318:
ARM GAS  C:\Users\PCHAUT~1\AppData\Local\Temp\ccLw8kky.s 			page 91


 4692              		.loc 7 820 0
 4693 0058 0A49     		ldr	r1, .L321+12
 4694 005a 0398     		ldr	r0, [sp, #12]
 4695 005c FFF7FEFF 		bl	chprintf
 4696              	.L320:
 4697              		.loc 7 823 0
 4698 0060 00BF     		nop
 4699 0062 054B     		ldr	r3, .L321
 4700 0064 059A     		ldr	r2, [sp, #20]
 4701 0066 1B68     		ldr	r3, [r3]
 4702 0068 9A42     		cmp	r2, r3
 4703 006a 01D0     		beq	.L319
 4704 006c FFF7FEFF 		bl	__stack_chk_fail
 4705              	.L319:
 4706 0070 07B0     		add	sp, sp, #28
 4707              		.cfi_def_cfa_offset 4
 4708              		@ sp needed
 4709 0072 5DF804FB 		ldr	pc, [sp], #4
 4710              	.L322:
 4711 0076 00BF     		.align	2
 4712              	.L321:
 4713 0078 00000000 		.word	__stack_chk_guard
 4714 007c C40C0000 		.word	.LC113
 4715 0080 F40C0000 		.word	.LC114
 4716 0084 140D0000 		.word	.LC115
 4717              		.cfi_endproc
 4718              	.LFE294:
 4719              		.size	cmd_cam_set_awb, .-cmd_cam_set_awb
 4720              		.section	.rodata
 4721 0d32 0000     		.align	2
 4722              	.LC116:
 4723 0d34 55736167 		.ascii	"Usage: cam_ae ae_en.\015\0121=enabled, 0=disabled\015"
 4723      653A2063 
 4723      616D5F61 
 4723      65206165 
 4723      5F656E2E 
 4724 0d60 0A00     		.ascii	"\012\000"
 4725 0d62 0000     		.align	2
 4726              	.LC117:
 4727 0d64 43616E6E 		.ascii	"Cannot set auto exposure (%d)\015\012\000"
 4727      6F742073 
 4727      65742061 
 4727      75746F20 
 4727      6578706F 
 4728              		.align	2
 4729              	.LC118:
 4730 0d84 4175746F 		.ascii	"Auto exposure set correctly\015\012\000"
 4730      20657870 
 4730      6F737572 
 4730      65207365 
 4730      7420636F 
 4731              		.section	.text.cmd_cam_set_ae,"ax",%progbits
 4732              		.align	1
 4733              		.p2align 4,,15
 4734              		.syntax unified
 4735              		.thumb
 4736              		.thumb_func
ARM GAS  C:\Users\PCHAUT~1\AppData\Local\Temp\ccLw8kky.s 			page 92


 4737              		.fpu fpv4-sp-d16
 4738              		.type	cmd_cam_set_ae, %function
 4739              	cmd_cam_set_ae:
 4740              	.LFB295:
 4741              		.loc 7 826 0
 4742              		.cfi_startproc
 4743              		@ args = 0, pretend = 0, frame = 24
 4744              		@ frame_needed = 0, uses_anonymous_args = 0
 4745 0000 00B5     		push	{lr}
 4746              		.cfi_def_cfa_offset 4
 4747              		.cfi_offset 14, -4
 4748 0002 87B0     		sub	sp, sp, #28
 4749              		.cfi_def_cfa_offset 32
 4750 0004 0390     		str	r0, [sp, #12]
 4751 0006 0291     		str	r1, [sp, #8]
 4752 0008 0192     		str	r2, [sp, #4]
 4753              		.loc 7 826 0
 4754 000a 1B4B     		ldr	r3, .L329
 4755 000c 1B68     		ldr	r3, [r3]
 4756 000e 0593     		str	r3, [sp, #20]
 4757              		.loc 7 830 0
 4758 0010 029B     		ldr	r3, [sp, #8]
 4759 0012 012B     		cmp	r3, #1
 4760 0014 04D0     		beq	.L324
 4761              		.loc 7 831 0
 4762 0016 1949     		ldr	r1, .L329+4
 4763 0018 0398     		ldr	r0, [sp, #12]
 4764 001a FFF7FEFF 		bl	chprintf
 4765              		.loc 7 843 0
 4766 001e 1FE0     		b	.L328
 4767              	.L324:
 4768              		.loc 7 834 0
 4769 0020 019B     		ldr	r3, [sp, #4]
 4770 0022 1B68     		ldr	r3, [r3]
 4771 0024 1846     		mov	r0, r3
 4772 0026 FFF7FEFF 		bl	atoi
 4773 002a 0346     		mov	r3, r0
 4774 002c 8DF81230 		strb	r3, [sp, #18]
 4775              		.loc 7 836 0
 4776 0030 9DF81230 		ldrb	r3, [sp, #18]	@ zero_extendqisi2
 4777 0034 1846     		mov	r0, r3
 4778 0036 FFF7FEFF 		bl	po8030_set_ae
 4779 003a 0346     		mov	r3, r0
 4780 003c 8DF81330 		strb	r3, [sp, #19]
 4781              		.loc 7 837 0
 4782 0040 9DF91330 		ldrsb	r3, [sp, #19]
 4783 0044 002B     		cmp	r3, #0
 4784 0046 07D0     		beq	.L326
 4785              		.loc 7 838 0
 4786 0048 9DF91330 		ldrsb	r3, [sp, #19]
 4787 004c 1A46     		mov	r2, r3
 4788 004e 0C49     		ldr	r1, .L329+8
 4789 0050 0398     		ldr	r0, [sp, #12]
 4790 0052 FFF7FEFF 		bl	chprintf
 4791              		.loc 7 843 0
 4792 0056 03E0     		b	.L328
 4793              	.L326:
ARM GAS  C:\Users\PCHAUT~1\AppData\Local\Temp\ccLw8kky.s 			page 93


 4794              		.loc 7 840 0
 4795 0058 0A49     		ldr	r1, .L329+12
 4796 005a 0398     		ldr	r0, [sp, #12]
 4797 005c FFF7FEFF 		bl	chprintf
 4798              	.L328:
 4799              		.loc 7 843 0
 4800 0060 00BF     		nop
 4801 0062 054B     		ldr	r3, .L329
 4802 0064 059A     		ldr	r2, [sp, #20]
 4803 0066 1B68     		ldr	r3, [r3]
 4804 0068 9A42     		cmp	r2, r3
 4805 006a 01D0     		beq	.L327
 4806 006c FFF7FEFF 		bl	__stack_chk_fail
 4807              	.L327:
 4808 0070 07B0     		add	sp, sp, #28
 4809              		.cfi_def_cfa_offset 4
 4810              		@ sp needed
 4811 0072 5DF804FB 		ldr	pc, [sp], #4
 4812              	.L330:
 4813 0076 00BF     		.align	2
 4814              	.L329:
 4815 0078 00000000 		.word	__stack_chk_guard
 4816 007c 340D0000 		.word	.LC116
 4817 0080 640D0000 		.word	.LC117
 4818 0084 840D0000 		.word	.LC118
 4819              		.cfi_endproc
 4820              	.LFE295:
 4821              		.size	cmd_cam_set_ae, .-cmd_cam_set_ae
 4822              		.section	.rodata
 4823 0da2 0000     		.align	2
 4824              	.LC119:
 4825 0da4 55736167 		.ascii	"Usage: cam_exposure integral fractional\015\012Unit"
 4825      653A2063 
 4825      616D5F65 
 4825      78706F73 
 4825      75726520 
 4826 0dd1 20697320 		.ascii	" is line time; total integration time = (integral +"
 4826      6C696E65 
 4826      2074696D 
 4826      653B2074 
 4826      6F74616C 
 4827 0e04 20667261 		.ascii	" fractional/256) line time.\015\012Default: integra"
 4827      6374696F 
 4827      6E616C2F 
 4827      32353629 
 4827      206C696E 
 4828 0e31 6C3D3132 		.ascii	"l=128, fractional=0\015\012\000"
 4828      382C2066 
 4828      72616374 
 4828      696F6E61 
 4828      6C3D300D 
 4829 0e47 00       		.align	2
 4830              	.LC120:
 4831 0e48 43616E6E 		.ascii	"Cannot set exposure time (%d)\015\012\000"
 4831      6F742073 
 4831      65742065 
 4831      78706F73 
ARM GAS  C:\Users\PCHAUT~1\AppData\Local\Temp\ccLw8kky.s 			page 94


 4831      75726520 
 4832              		.align	2
 4833              	.LC121:
 4834 0e68 4578706F 		.ascii	"Exposure time set correctly\015\012\000"
 4834      73757265 
 4834      2074696D 
 4834      65207365 
 4834      7420636F 
 4835              		.section	.text.cmd_cam_set_exposure,"ax",%progbits
 4836              		.align	1
 4837              		.p2align 4,,15
 4838              		.syntax unified
 4839              		.thumb
 4840              		.thumb_func
 4841              		.fpu fpv4-sp-d16
 4842              		.type	cmd_cam_set_exposure, %function
 4843              	cmd_cam_set_exposure:
 4844              	.LFB296:
 4845              		.loc 7 846 0
 4846              		.cfi_startproc
 4847              		@ args = 0, pretend = 0, frame = 24
 4848              		@ frame_needed = 0, uses_anonymous_args = 0
 4849 0000 00B5     		push	{lr}
 4850              		.cfi_def_cfa_offset 4
 4851              		.cfi_offset 14, -4
 4852 0002 87B0     		sub	sp, sp, #28
 4853              		.cfi_def_cfa_offset 32
 4854 0004 0390     		str	r0, [sp, #12]
 4855 0006 0291     		str	r1, [sp, #8]
 4856 0008 0192     		str	r2, [sp, #4]
 4857              		.loc 7 846 0
 4858 000a 214B     		ldr	r3, .L337
 4859 000c 1B68     		ldr	r3, [r3]
 4860 000e 0593     		str	r3, [sp, #20]
 4861              		.loc 7 851 0
 4862 0010 029B     		ldr	r3, [sp, #8]
 4863 0012 022B     		cmp	r3, #2
 4864 0014 04D0     		beq	.L332
 4865              		.loc 7 852 0
 4866 0016 1F49     		ldr	r1, .L337+4
 4867 0018 0398     		ldr	r0, [sp, #12]
 4868 001a FFF7FEFF 		bl	chprintf
 4869              		.loc 7 865 0
 4870 001e 2BE0     		b	.L336
 4871              	.L332:
 4872              		.loc 7 855 0
 4873 0020 019B     		ldr	r3, [sp, #4]
 4874 0022 1B68     		ldr	r3, [r3]
 4875 0024 1846     		mov	r0, r3
 4876 0026 FFF7FEFF 		bl	atoi
 4877 002a 0346     		mov	r3, r0
 4878 002c ADF81230 		strh	r3, [sp, #18]	@ movhi
 4879              		.loc 7 856 0
 4880 0030 019B     		ldr	r3, [sp, #4]
 4881 0032 0433     		adds	r3, r3, #4
 4882 0034 1B68     		ldr	r3, [r3]
 4883 0036 1846     		mov	r0, r3
ARM GAS  C:\Users\PCHAUT~1\AppData\Local\Temp\ccLw8kky.s 			page 95


 4884 0038 FFF7FEFF 		bl	atoi
 4885 003c 0346     		mov	r3, r0
 4886 003e 8DF81030 		strb	r3, [sp, #16]
 4887              		.loc 7 858 0
 4888 0042 9DF81020 		ldrb	r2, [sp, #16]	@ zero_extendqisi2
 4889 0046 BDF81230 		ldrh	r3, [sp, #18]
 4890 004a 1146     		mov	r1, r2
 4891 004c 1846     		mov	r0, r3
 4892 004e FFF7FEFF 		bl	po8030_set_exposure
 4893 0052 0346     		mov	r3, r0
 4894 0054 8DF81130 		strb	r3, [sp, #17]
 4895              		.loc 7 859 0
 4896 0058 9DF91130 		ldrsb	r3, [sp, #17]
 4897 005c 002B     		cmp	r3, #0
 4898 005e 07D0     		beq	.L334
 4899              		.loc 7 860 0
 4900 0060 9DF91130 		ldrsb	r3, [sp, #17]
 4901 0064 1A46     		mov	r2, r3
 4902 0066 0C49     		ldr	r1, .L337+8
 4903 0068 0398     		ldr	r0, [sp, #12]
 4904 006a FFF7FEFF 		bl	chprintf
 4905              		.loc 7 865 0
 4906 006e 03E0     		b	.L336
 4907              	.L334:
 4908              		.loc 7 862 0
 4909 0070 0A49     		ldr	r1, .L337+12
 4910 0072 0398     		ldr	r0, [sp, #12]
 4911 0074 FFF7FEFF 		bl	chprintf
 4912              	.L336:
 4913              		.loc 7 865 0
 4914 0078 00BF     		nop
 4915 007a 054B     		ldr	r3, .L337
 4916 007c 059A     		ldr	r2, [sp, #20]
 4917 007e 1B68     		ldr	r3, [r3]
 4918 0080 9A42     		cmp	r2, r3
 4919 0082 01D0     		beq	.L335
 4920 0084 FFF7FEFF 		bl	__stack_chk_fail
 4921              	.L335:
 4922 0088 07B0     		add	sp, sp, #28
 4923              		.cfi_def_cfa_offset 4
 4924              		@ sp needed
 4925 008a 5DF804FB 		ldr	pc, [sp], #4
 4926              	.L338:
 4927 008e 00BF     		.align	2
 4928              	.L337:
 4929 0090 00000000 		.word	__stack_chk_guard
 4930 0094 A40D0000 		.word	.LC119
 4931 0098 480E0000 		.word	.LC120
 4932 009c 680E0000 		.word	.LC121
 4933              		.cfi_endproc
 4934              	.LFE296:
 4935              		.size	cmd_cam_set_exposure, .-cmd_cam_set_exposure
 4936              		.section	.rodata
 4937 0e86 0000     		.align	2
 4938              	.LC122:
 4939 0e88 55736167 		.ascii	"Usage: cam_dcmi_prepare capture_mode\015\012capture"
 4939      653A2063 
ARM GAS  C:\Users\PCHAUT~1\AppData\Local\Temp\ccLw8kky.s 			page 96


 4939      616D5F64 
 4939      636D695F 
 4939      70726570 
 4940 0eb5 5F6D6F64 		.ascii	"_mode: 0=oneshot, 1=continuous\015\012\000"
 4940      653A2030 
 4940      3D6F6E65 
 4940      73686F74 
 4940      2C20313D 
 4941 0ed6 0000     		.align	2
 4942              	.LC123:
 4943 0ed8 44434D49 		.ascii	"DCMI prepared.\015\012\000"
 4943      20707265 
 4943      70617265 
 4943      642E0D0A 
 4943      00
 4944 0ee9 000000   		.align	2
 4945              	.LC124:
 4946 0eec 43616E6E 		.ascii	"Cannot prepare dcmi, image size too big.\015\012\000"
 4946      6F742070 
 4946      72657061 
 4946      72652064 
 4946      636D692C 
 4947              		.section	.text.cmd_cam_dcmi_prepare,"ax",%progbits
 4948              		.align	1
 4949              		.p2align 4,,15
 4950              		.syntax unified
 4951              		.thumb
 4952              		.thumb_func
 4953              		.fpu fpv4-sp-d16
 4954              		.type	cmd_cam_dcmi_prepare, %function
 4955              	cmd_cam_dcmi_prepare:
 4956              	.LFB297:
 4957              		.loc 7 868 0
 4958              		.cfi_startproc
 4959              		@ args = 0, pretend = 0, frame = 24
 4960              		@ frame_needed = 0, uses_anonymous_args = 0
 4961 0000 00B5     		push	{lr}
 4962              		.cfi_def_cfa_offset 4
 4963              		.cfi_offset 14, -4
 4964 0002 87B0     		sub	sp, sp, #28
 4965              		.cfi_def_cfa_offset 32
 4966 0004 0390     		str	r0, [sp, #12]
 4967 0006 0291     		str	r1, [sp, #8]
 4968 0008 0192     		str	r2, [sp, #4]
 4969              		.loc 7 868 0
 4970 000a 1E4B     		ldr	r3, .L346
 4971 000c 1B68     		ldr	r3, [r3]
 4972 000e 0593     		str	r3, [sp, #20]
 4973              		.loc 7 869 0
 4974 0010 0023     		movs	r3, #0
 4975 0012 8DF81330 		strb	r3, [sp, #19]
 4976              		.loc 7 871 0
 4977 0016 029B     		ldr	r3, [sp, #8]
 4978 0018 012B     		cmp	r3, #1
 4979 001a 04D0     		beq	.L340
 4980              		.loc 7 872 0
 4981 001c 1A49     		ldr	r1, .L346+4
ARM GAS  C:\Users\PCHAUT~1\AppData\Local\Temp\ccLw8kky.s 			page 97


 4982 001e 0398     		ldr	r0, [sp, #12]
 4983 0020 FFF7FEFF 		bl	chprintf
 4984 0024 24E0     		b	.L339
 4985              	.L340:
 4986              		.loc 7 874 0
 4987 0026 019B     		ldr	r3, [sp, #4]
 4988 0028 1B68     		ldr	r3, [r3]
 4989 002a 1846     		mov	r0, r3
 4990 002c FFF7FEFF 		bl	atoi
 4991 0030 0346     		mov	r3, r0
 4992 0032 8DF81330 		strb	r3, [sp, #19]
 4993              		.loc 7 876 0
 4994 0036 9DF81330 		ldrb	r3, [sp, #19]	@ zero_extendqisi2
 4995 003a 1846     		mov	r0, r3
 4996 003c FFF7FEFF 		bl	dcmi_set_capture_mode
 4997              		.loc 7 878 0
 4998 0040 9DF81330 		ldrb	r3, [sp, #19]	@ zero_extendqisi2
 4999 0044 002B     		cmp	r3, #0
 5000 0046 02D1     		bne	.L342
 5001              		.loc 7 879 0
 5002 0048 FFF7FEFF 		bl	dcmi_disable_double_buffering
 5003 004c 01E0     		b	.L343
 5004              	.L342:
 5005              		.loc 7 881 0
 5006 004e FFF7FEFF 		bl	dcmi_enable_double_buffering
 5007              	.L343:
 5008              		.loc 7 884 0
 5009 0052 FFF7FEFF 		bl	dcmi_prepare
 5010 0056 0346     		mov	r3, r0
 5011 0058 002B     		cmp	r3, #0
 5012 005a 04D1     		bne	.L344
 5013              		.loc 7 885 0
 5014 005c 0B49     		ldr	r1, .L346+8
 5015 005e 0398     		ldr	r0, [sp, #12]
 5016 0060 FFF7FEFF 		bl	chprintf
 5017 0064 04E0     		b	.L339
 5018              	.L344:
 5019              		.loc 7 887 0
 5020 0066 0A49     		ldr	r1, .L346+12
 5021 0068 0398     		ldr	r0, [sp, #12]
 5022 006a FFF7FEFF 		bl	chprintf
 5023              		.loc 7 888 0
 5024 006e 00BF     		nop
 5025              	.L339:
 5026              		.loc 7 892 0
 5027 0070 044B     		ldr	r3, .L346
 5028 0072 059A     		ldr	r2, [sp, #20]
 5029 0074 1B68     		ldr	r3, [r3]
 5030 0076 9A42     		cmp	r2, r3
 5031 0078 01D0     		beq	.L345
 5032 007a FFF7FEFF 		bl	__stack_chk_fail
 5033              	.L345:
 5034 007e 07B0     		add	sp, sp, #28
 5035              		.cfi_def_cfa_offset 4
 5036              		@ sp needed
 5037 0080 5DF804FB 		ldr	pc, [sp], #4
 5038              	.L347:
ARM GAS  C:\Users\PCHAUT~1\AppData\Local\Temp\ccLw8kky.s 			page 98


 5039              		.align	2
 5040              	.L346:
 5041 0084 00000000 		.word	__stack_chk_guard
 5042 0088 880E0000 		.word	.LC122
 5043 008c D80E0000 		.word	.LC123
 5044 0090 EC0E0000 		.word	.LC124
 5045              		.cfi_endproc
 5046              	.LFE297:
 5047              		.size	cmd_cam_dcmi_prepare, .-cmd_cam_dcmi_prepare
 5048              		.section	.rodata
 5049 0f17 00       		.align	2
 5050              	.LC125:
 5051 0f18 44434D49 		.ascii	"DCMI released correctly\015\012\000"
 5051      2072656C 
 5051      65617365 
 5051      6420636F 
 5051      72726563 
 5052              		.section	.text.cmd_cam_dcmi_unprepare,"ax",%progbits
 5053              		.align	1
 5054              		.p2align 4,,15
 5055              		.syntax unified
 5056              		.thumb
 5057              		.thumb_func
 5058              		.fpu fpv4-sp-d16
 5059              		.type	cmd_cam_dcmi_unprepare, %function
 5060              	cmd_cam_dcmi_unprepare:
 5061              	.LFB298:
 5062              		.loc 7 895 0
 5063              		.cfi_startproc
 5064              		@ args = 0, pretend = 0, frame = 24
 5065              		@ frame_needed = 0, uses_anonymous_args = 0
 5066 0000 00B5     		push	{lr}
 5067              		.cfi_def_cfa_offset 4
 5068              		.cfi_offset 14, -4
 5069 0002 87B0     		sub	sp, sp, #28
 5070              		.cfi_def_cfa_offset 32
 5071 0004 0390     		str	r0, [sp, #12]
 5072 0006 0291     		str	r1, [sp, #8]
 5073 0008 0192     		str	r2, [sp, #4]
 5074              		.loc 7 895 0
 5075 000a 0A4B     		ldr	r3, .L350
 5076 000c 1B68     		ldr	r3, [r3]
 5077 000e 0593     		str	r3, [sp, #20]
 5078              		.loc 7 899 0
 5079 0010 FFF7FEFF 		bl	dcmi_unprepare
 5080              		.loc 7 901 0
 5081 0014 0849     		ldr	r1, .L350+4
 5082 0016 0398     		ldr	r0, [sp, #12]
 5083 0018 FFF7FEFF 		bl	chprintf
 5084              		.loc 7 903 0
 5085 001c 00BF     		nop
 5086 001e 054B     		ldr	r3, .L350
 5087 0020 059A     		ldr	r2, [sp, #20]
 5088 0022 1B68     		ldr	r3, [r3]
 5089 0024 9A42     		cmp	r2, r3
 5090 0026 01D0     		beq	.L349
 5091 0028 FFF7FEFF 		bl	__stack_chk_fail
ARM GAS  C:\Users\PCHAUT~1\AppData\Local\Temp\ccLw8kky.s 			page 99


 5092              	.L349:
 5093 002c 07B0     		add	sp, sp, #28
 5094              		.cfi_def_cfa_offset 4
 5095              		@ sp needed
 5096 002e 5DF804FB 		ldr	pc, [sp], #4
 5097              	.L351:
 5098 0032 00BF     		.align	2
 5099              	.L350:
 5100 0034 00000000 		.word	__stack_chk_guard
 5101 0038 180F0000 		.word	.LC125
 5102              		.cfi_endproc
 5103              	.LFE298:
 5104              		.size	cmd_cam_dcmi_unprepare, .-cmd_cam_dcmi_unprepare
 5105              		.section	.text.cmd_cam_capture,"ax",%progbits
 5106              		.align	1
 5107              		.p2align 4,,15
 5108              		.syntax unified
 5109              		.thumb
 5110              		.thumb_func
 5111              		.fpu fpv4-sp-d16
 5112              		.type	cmd_cam_capture, %function
 5113              	cmd_cam_capture:
 5114              	.LFB299:
 5115              		.loc 7 906 0
 5116              		.cfi_startproc
 5117              		@ args = 0, pretend = 0, frame = 24
 5118              		@ frame_needed = 0, uses_anonymous_args = 0
 5119 0000 00B5     		push	{lr}
 5120              		.cfi_def_cfa_offset 4
 5121              		.cfi_offset 14, -4
 5122 0002 87B0     		sub	sp, sp, #28
 5123              		.cfi_def_cfa_offset 32
 5124 0004 0390     		str	r0, [sp, #12]
 5125 0006 0291     		str	r1, [sp, #8]
 5126 0008 0192     		str	r2, [sp, #4]
 5127              		.loc 7 906 0
 5128 000a 084B     		ldr	r3, .L354
 5129 000c 1B68     		ldr	r3, [r3]
 5130 000e 0593     		str	r3, [sp, #20]
 5131              		.loc 7 910 0
 5132 0010 FFF7FEFF 		bl	dcmi_capture_start
 5133              		.loc 7 911 0
 5134 0014 00BF     		nop
 5135 0016 054B     		ldr	r3, .L354
 5136 0018 059A     		ldr	r2, [sp, #20]
 5137 001a 1B68     		ldr	r3, [r3]
 5138 001c 9A42     		cmp	r2, r3
 5139 001e 01D0     		beq	.L353
 5140 0020 FFF7FEFF 		bl	__stack_chk_fail
 5141              	.L353:
 5142 0024 07B0     		add	sp, sp, #28
 5143              		.cfi_def_cfa_offset 4
 5144              		@ sp needed
 5145 0026 5DF804FB 		ldr	pc, [sp], #4
 5146              	.L355:
 5147 002a 00BF     		.align	2
 5148              	.L354:
ARM GAS  C:\Users\PCHAUT~1\AppData\Local\Temp\ccLw8kky.s 			page 100


 5149 002c 00000000 		.word	__stack_chk_guard
 5150              		.cfi_endproc
 5151              	.LFE299:
 5152              		.size	cmd_cam_capture, .-cmd_cam_capture
 5153              		.section	.rodata
 5154 0f32 0000     		.align	2
 5155              	.LC126:
 5156 0f34 44434D49 		.ascii	"DCMI stop stream error\015\012\000"
 5156      2073746F 
 5156      70207374 
 5156      7265616D 
 5156      20657272 
 5157 0f4d 000000   		.align	2
 5158              	.LC127:
 5159 0f50 54686520 		.ascii	"The 2 images will be sent within 5 seconds\015\012\000"
 5159      3220696D 
 5159      61676573 
 5159      2077696C 
 5159      6C206265 
 5160 0f7d 000000   		.align	2
 5161              	.LC128:
 5162 0f80 54686520 		.ascii	"The image will be sent within 5 seconds\015\012\000"
 5162      696D6167 
 5162      65207769 
 5162      6C6C2062 
 5162      65207365 
 5163              		.section	.text.cmd_cam_send,"ax",%progbits
 5164              		.align	1
 5165              		.p2align 4,,15
 5166              		.syntax unified
 5167              		.thumb
 5168              		.thumb_func
 5169              		.fpu fpv4-sp-d16
 5170              		.type	cmd_cam_send, %function
 5171              	cmd_cam_send:
 5172              	.LFB300:
 5173              		.loc 7 914 0
 5174              		.cfi_startproc
 5175              		@ args = 0, pretend = 0, frame = 24
 5176              		@ frame_needed = 0, uses_anonymous_args = 0
 5177 0000 10B5     		push	{r4, lr}
 5178              		.cfi_def_cfa_offset 8
 5179              		.cfi_offset 4, -8
 5180              		.cfi_offset 14, -4
 5181 0002 86B0     		sub	sp, sp, #24
 5182              		.cfi_def_cfa_offset 32
 5183 0004 0390     		str	r0, [sp, #12]
 5184 0006 0291     		str	r1, [sp, #8]
 5185 0008 0192     		str	r2, [sp, #4]
 5186              		.loc 7 914 0
 5187 000a 2C4B     		ldr	r3, .L362
 5188 000c 1B68     		ldr	r3, [r3]
 5189 000e 0593     		str	r3, [sp, #20]
 5190              		.loc 7 919 0
 5191 0010 FFF7FEFF 		bl	dcmi_capture_stop
 5192 0014 0346     		mov	r3, r0
 5193 0016 002B     		cmp	r3, #0
ARM GAS  C:\Users\PCHAUT~1\AppData\Local\Temp\ccLw8kky.s 			page 101


 5194 0018 04D0     		beq	.L357
 5195              		.loc 7 920 0
 5196 001a 2949     		ldr	r1, .L362+4
 5197 001c 0398     		ldr	r0, [sp, #12]
 5198 001e FFF7FEFF 		bl	chprintf
 5199              		.loc 7 937 0
 5200 0022 40E0     		b	.L361
 5201              	.L357:
 5202              		.loc 7 922 0
 5203 0024 FFF7FEFF 		bl	dcmi_double_buffering_enabled
 5204 0028 0346     		mov	r3, r0
 5205 002a 002B     		cmp	r3, #0
 5206 002c 26D0     		beq	.L359
 5207              		.loc 7 923 0
 5208 002e 2549     		ldr	r1, .L362+8
 5209 0030 0398     		ldr	r0, [sp, #12]
 5210 0032 FFF7FEFF 		bl	chprintf
 5211              		.loc 7 924 0
 5212 0036 41F28830 		movw	r0, #5000
 5213 003a FFF7FEFF 		bl	chThdSleep
 5214              		.loc 7 925 0
 5215 003e FFF7FEFF 		bl	dcmi_get_first_buffer_ptr
 5216 0042 0490     		str	r0, [sp, #16]
 5217              		.loc 7 926 0
 5218 0044 204B     		ldr	r3, .L362+12
 5219 0046 1B68     		ldr	r3, [r3]
 5220 0048 1C68     		ldr	r4, [r3]
 5221 004a FFF7FEFF 		bl	po8030_get_image_size
 5222 004e 0346     		mov	r3, r0
 5223 0050 1A46     		mov	r2, r3
 5224 0052 0499     		ldr	r1, [sp, #16]
 5225 0054 1C48     		ldr	r0, .L362+12
 5226 0056 A047     		blx	r4
 5227              	.LVL1:
 5228              		.loc 7 927 0
 5229 0058 40F6B830 		movw	r0, #3000
 5230 005c FFF7FEFF 		bl	chThdSleep
 5231              		.loc 7 928 0
 5232 0060 FFF7FEFF 		bl	dcmi_get_second_buffer_ptr
 5233 0064 0490     		str	r0, [sp, #16]
 5234              		.loc 7 929 0
 5235 0066 184B     		ldr	r3, .L362+12
 5236 0068 1B68     		ldr	r3, [r3]
 5237 006a 1C68     		ldr	r4, [r3]
 5238 006c FFF7FEFF 		bl	po8030_get_image_size
 5239 0070 0346     		mov	r3, r0
 5240 0072 1A46     		mov	r2, r3
 5241 0074 0499     		ldr	r1, [sp, #16]
 5242 0076 1448     		ldr	r0, .L362+12
 5243 0078 A047     		blx	r4
 5244              	.LVL2:
 5245              		.loc 7 937 0
 5246 007a 14E0     		b	.L361
 5247              	.L359:
 5248              		.loc 7 931 0
 5249 007c 1349     		ldr	r1, .L362+16
 5250 007e 0398     		ldr	r0, [sp, #12]
ARM GAS  C:\Users\PCHAUT~1\AppData\Local\Temp\ccLw8kky.s 			page 102


 5251 0080 FFF7FEFF 		bl	chprintf
 5252              		.loc 7 932 0
 5253 0084 41F28830 		movw	r0, #5000
 5254 0088 FFF7FEFF 		bl	chThdSleep
 5255              		.loc 7 933 0
 5256 008c FFF7FEFF 		bl	dcmi_get_first_buffer_ptr
 5257 0090 0490     		str	r0, [sp, #16]
 5258              		.loc 7 934 0
 5259 0092 0D4B     		ldr	r3, .L362+12
 5260 0094 1B68     		ldr	r3, [r3]
 5261 0096 1C68     		ldr	r4, [r3]
 5262 0098 FFF7FEFF 		bl	po8030_get_image_size
 5263 009c 0346     		mov	r3, r0
 5264 009e 1A46     		mov	r2, r3
 5265 00a0 0499     		ldr	r1, [sp, #16]
 5266 00a2 0948     		ldr	r0, .L362+12
 5267 00a4 A047     		blx	r4
 5268              	.LVL3:
 5269              	.L361:
 5270              		.loc 7 937 0
 5271 00a6 00BF     		nop
 5272 00a8 044B     		ldr	r3, .L362
 5273 00aa 059A     		ldr	r2, [sp, #20]
 5274 00ac 1B68     		ldr	r3, [r3]
 5275 00ae 9A42     		cmp	r2, r3
 5276 00b0 01D0     		beq	.L360
 5277 00b2 FFF7FEFF 		bl	__stack_chk_fail
 5278              	.L360:
 5279 00b6 06B0     		add	sp, sp, #24
 5280              		.cfi_def_cfa_offset 8
 5281              		@ sp needed
 5282 00b8 10BD     		pop	{r4, pc}
 5283              	.L363:
 5284 00ba 00BF     		.align	2
 5285              	.L362:
 5286 00bc 00000000 		.word	__stack_chk_guard
 5287 00c0 340F0000 		.word	.LC126
 5288 00c4 500F0000 		.word	.LC127
 5289 00c8 00000000 		.word	SDU1
 5290 00cc 800F0000 		.word	.LC128
 5291              		.cfi_endproc
 5292              	.LFE300:
 5293              		.size	cmd_cam_send, .-cmd_cam_send
 5294              		.section	.rodata
 5295 0faa 0000     		.align	2
 5296              	.LC129:
 5297 0fac 55736167 		.ascii	"Usage: set_led led_num led_value\015\012led_num: 0-"
 5297      653A2073 
 5297      65745F6C 
 5297      6564206C 
 5297      65645F6E 
 5298 0fd9 333D736D 		.ascii	"3=small leds, 4=body led, 5=front led\015\012value:"
 5298      616C6C20 
 5298      6C656473 
 5298      2C20343D 
 5298      626F6479 
 5299 1006 20303D6F 		.ascii	" 0=off, 1=on, 2=toggle\015\012\000"
ARM GAS  C:\Users\PCHAUT~1\AppData\Local\Temp\ccLw8kky.s 			page 103


 5299      66662C20 
 5299      313D6F6E 
 5299      2C20323D 
 5299      746F6767 
 5300              		.section	.text.cmd_set_led,"ax",%progbits
 5301              		.align	1
 5302              		.p2align 4,,15
 5303              		.syntax unified
 5304              		.thumb
 5305              		.thumb_func
 5306              		.fpu fpv4-sp-d16
 5307              		.type	cmd_set_led, %function
 5308              	cmd_set_led:
 5309              	.LFB301:
 5310              		.loc 7 940 0
 5311              		.cfi_startproc
 5312              		@ args = 0, pretend = 0, frame = 24
 5313              		@ frame_needed = 0, uses_anonymous_args = 0
 5314 0000 00B5     		push	{lr}
 5315              		.cfi_def_cfa_offset 4
 5316              		.cfi_offset 14, -4
 5317 0002 87B0     		sub	sp, sp, #28
 5318              		.cfi_def_cfa_offset 32
 5319 0004 0390     		str	r0, [sp, #12]
 5320 0006 0291     		str	r1, [sp, #8]
 5321 0008 0192     		str	r2, [sp, #4]
 5322              		.loc 7 940 0
 5323 000a 264B     		ldr	r3, .L371
 5324 000c 1B68     		ldr	r3, [r3]
 5325 000e 0593     		str	r3, [sp, #20]
 5326              		.loc 7 941 0
 5327 0010 0023     		movs	r3, #0
 5328 0012 8DF81230 		strb	r3, [sp, #18]
 5329              		.loc 7 942 0
 5330 0016 0023     		movs	r3, #0
 5331 0018 8DF81330 		strb	r3, [sp, #19]
 5332              		.loc 7 944 0
 5333 001c 029B     		ldr	r3, [sp, #8]
 5334 001e 022B     		cmp	r3, #2
 5335 0020 04D0     		beq	.L365
 5336              		.loc 7 945 0
 5337 0022 2149     		ldr	r1, .L371+4
 5338 0024 0398     		ldr	r0, [sp, #12]
 5339 0026 FFF7FEFF 		bl	chprintf
 5340              		.loc 7 958 0
 5341 002a 30E0     		b	.L370
 5342              	.L365:
 5343              		.loc 7 947 0
 5344 002c 019B     		ldr	r3, [sp, #4]
 5345 002e 1B68     		ldr	r3, [r3]
 5346 0030 1846     		mov	r0, r3
 5347 0032 FFF7FEFF 		bl	atoi
 5348 0036 0346     		mov	r3, r0
 5349 0038 8DF81230 		strb	r3, [sp, #18]
 5350              		.loc 7 948 0
 5351 003c 019B     		ldr	r3, [sp, #4]
 5352 003e 0433     		adds	r3, r3, #4
ARM GAS  C:\Users\PCHAUT~1\AppData\Local\Temp\ccLw8kky.s 			page 104


 5353 0040 1B68     		ldr	r3, [r3]
 5354 0042 1846     		mov	r0, r3
 5355 0044 FFF7FEFF 		bl	atoi
 5356 0048 0346     		mov	r3, r0
 5357 004a 8DF81330 		strb	r3, [sp, #19]
 5358              		.loc 7 950 0
 5359 004e 9DF81230 		ldrb	r3, [sp, #18]	@ zero_extendqisi2
 5360 0052 032B     		cmp	r3, #3
 5361 0054 08D8     		bhi	.L367
 5362              		.loc 7 951 0
 5363 0056 9DF81320 		ldrb	r2, [sp, #19]	@ zero_extendqisi2
 5364 005a 9DF81230 		ldrb	r3, [sp, #18]	@ zero_extendqisi2
 5365 005e 1146     		mov	r1, r2
 5366 0060 1846     		mov	r0, r3
 5367 0062 FFF7FEFF 		bl	set_led
 5368              		.loc 7 958 0
 5369 0066 12E0     		b	.L370
 5370              	.L367:
 5371              		.loc 7 952 0
 5372 0068 9DF81230 		ldrb	r3, [sp, #18]	@ zero_extendqisi2
 5373 006c 042B     		cmp	r3, #4
 5374 006e 05D1     		bne	.L368
 5375              		.loc 7 953 0
 5376 0070 9DF81330 		ldrb	r3, [sp, #19]	@ zero_extendqisi2
 5377 0074 1846     		mov	r0, r3
 5378 0076 FFF7FEFF 		bl	set_body_led
 5379              		.loc 7 958 0
 5380 007a 08E0     		b	.L370
 5381              	.L368:
 5382              		.loc 7 954 0
 5383 007c 9DF81230 		ldrb	r3, [sp, #18]	@ zero_extendqisi2
 5384 0080 052B     		cmp	r3, #5
 5385 0082 04D1     		bne	.L370
 5386              		.loc 7 955 0
 5387 0084 9DF81330 		ldrb	r3, [sp, #19]	@ zero_extendqisi2
 5388 0088 1846     		mov	r0, r3
 5389 008a FFF7FEFF 		bl	set_front_led
 5390              	.L370:
 5391              		.loc 7 958 0
 5392 008e 00BF     		nop
 5393 0090 044B     		ldr	r3, .L371
 5394 0092 059A     		ldr	r2, [sp, #20]
 5395 0094 1B68     		ldr	r3, [r3]
 5396 0096 9A42     		cmp	r2, r3
 5397 0098 01D0     		beq	.L369
 5398 009a FFF7FEFF 		bl	__stack_chk_fail
 5399              	.L369:
 5400 009e 07B0     		add	sp, sp, #28
 5401              		.cfi_def_cfa_offset 4
 5402              		@ sp needed
 5403 00a0 5DF804FB 		ldr	pc, [sp], #4
 5404              	.L372:
 5405              		.align	2
 5406              	.L371:
 5407 00a4 00000000 		.word	__stack_chk_guard
 5408 00a8 AC0F0000 		.word	.LC129
 5409              		.cfi_endproc
ARM GAS  C:\Users\PCHAUT~1\AppData\Local\Temp\ccLw8kky.s 			page 105


 5410              	.LFE301:
 5411              		.size	cmd_set_led, .-cmd_set_led
 5412              		.section	.rodata
 5413 101f 00       		.align	2
 5414              	.LC130:
 5415 1020 55736167 		.ascii	"Usage: set_speed left right\015\012speed: %d..%d\015"
 5415      653A2073 
 5415      65745F73 
 5415      70656564 
 5415      206C6566 
 5416 104b 0A00     		.ascii	"\012\000"
 5417 104d 000000   		.align	2
 5418              	.LC131:
 5419 1050 6C737065 		.ascii	"lspeed=%d, rspeed=%d\015\012\000"
 5419      65643D25 
 5419      642C2072 
 5419      73706565 
 5419      643D2564 
 5420              		.section	.text.cmd_set_speed,"ax",%progbits
 5421              		.align	1
 5422              		.p2align 4,,15
 5423              		.syntax unified
 5424              		.thumb
 5425              		.thumb_func
 5426              		.fpu fpv4-sp-d16
 5427              		.type	cmd_set_speed, %function
 5428              	cmd_set_speed:
 5429              	.LFB302:
 5430              		.loc 7 961 0
 5431              		.cfi_startproc
 5432              		@ args = 0, pretend = 0, frame = 24
 5433              		@ frame_needed = 0, uses_anonymous_args = 0
 5434 0000 00B5     		push	{lr}
 5435              		.cfi_def_cfa_offset 4
 5436              		.cfi_offset 14, -4
 5437 0002 87B0     		sub	sp, sp, #28
 5438              		.cfi_def_cfa_offset 32
 5439 0004 0390     		str	r0, [sp, #12]
 5440 0006 0291     		str	r1, [sp, #8]
 5441 0008 0192     		str	r2, [sp, #4]
 5442              		.loc 7 961 0
 5443 000a 214B     		ldr	r3, .L378
 5444 000c 1B68     		ldr	r3, [r3]
 5445 000e 0593     		str	r3, [sp, #20]
 5446              		.loc 7 962 0
 5447 0010 0023     		movs	r3, #0
 5448 0012 ADF81030 		strh	r3, [sp, #16]	@ movhi
 5449              		.loc 7 963 0
 5450 0016 0023     		movs	r3, #0
 5451 0018 ADF81230 		strh	r3, [sp, #18]	@ movhi
 5452              		.loc 7 965 0
 5453 001c 029B     		ldr	r3, [sp, #8]
 5454 001e 022B     		cmp	r3, #2
 5455 0020 07D0     		beq	.L374
 5456              		.loc 7 966 0
 5457 0022 40F24C43 		movw	r3, #1100
 5458 0026 1B4A     		ldr	r2, .L378+4
ARM GAS  C:\Users\PCHAUT~1\AppData\Local\Temp\ccLw8kky.s 			page 106


 5459 0028 1B49     		ldr	r1, .L378+8
 5460 002a 0398     		ldr	r0, [sp, #12]
 5461 002c FFF7FEFF 		bl	chprintf
 5462              		.loc 7 974 0
 5463 0030 22E0     		b	.L377
 5464              	.L374:
 5465              		.loc 7 968 0
 5466 0032 019B     		ldr	r3, [sp, #4]
 5467 0034 1B68     		ldr	r3, [r3]
 5468 0036 1846     		mov	r0, r3
 5469 0038 FFF7FEFF 		bl	atoi
 5470 003c 0346     		mov	r3, r0
 5471 003e ADF81030 		strh	r3, [sp, #16]	@ movhi
 5472              		.loc 7 969 0
 5473 0042 019B     		ldr	r3, [sp, #4]
 5474 0044 0433     		adds	r3, r3, #4
 5475 0046 1B68     		ldr	r3, [r3]
 5476 0048 1846     		mov	r0, r3
 5477 004a FFF7FEFF 		bl	atoi
 5478 004e 0346     		mov	r3, r0
 5479 0050 ADF81230 		strh	r3, [sp, #18]	@ movhi
 5480              		.loc 7 970 0
 5481 0054 BDF91020 		ldrsh	r2, [sp, #16]
 5482 0058 BDF91230 		ldrsh	r3, [sp, #18]
 5483 005c 0F49     		ldr	r1, .L378+12
 5484 005e 0398     		ldr	r0, [sp, #12]
 5485 0060 FFF7FEFF 		bl	chprintf
 5486              		.loc 7 971 0
 5487 0064 BDF91230 		ldrsh	r3, [sp, #18]
 5488 0068 1846     		mov	r0, r3
 5489 006a FFF7FEFF 		bl	right_motor_set_speed
 5490              		.loc 7 972 0
 5491 006e BDF91030 		ldrsh	r3, [sp, #16]
 5492 0072 1846     		mov	r0, r3
 5493 0074 FFF7FEFF 		bl	left_motor_set_speed
 5494              	.L377:
 5495              		.loc 7 974 0
 5496 0078 00BF     		nop
 5497 007a 054B     		ldr	r3, .L378
 5498 007c 059A     		ldr	r2, [sp, #20]
 5499 007e 1B68     		ldr	r3, [r3]
 5500 0080 9A42     		cmp	r2, r3
 5501 0082 01D0     		beq	.L376
 5502 0084 FFF7FEFF 		bl	__stack_chk_fail
 5503              	.L376:
 5504 0088 07B0     		add	sp, sp, #28
 5505              		.cfi_def_cfa_offset 4
 5506              		@ sp needed
 5507 008a 5DF804FB 		ldr	pc, [sp], #4
 5508              	.L379:
 5509 008e 00BF     		.align	2
 5510              	.L378:
 5511 0090 00000000 		.word	__stack_chk_guard
 5512 0094 B4FBFFFF 		.word	-1100
 5513 0098 20100000 		.word	.LC130
 5514 009c 50100000 		.word	.LC131
 5515              		.cfi_endproc
ARM GAS  C:\Users\PCHAUT~1\AppData\Local\Temp\ccLw8kky.s 			page 107


 5516              	.LFE302:
 5517              		.size	cmd_set_speed, .-cmd_set_speed
 5518              		.section	.rodata
 5519 1067 00       		.align	2
 5520              	.LC132:
 5521 1068 42617474 		.ascii	"Battery raw value = %d\015\012\000"
 5521      65727920 
 5521      72617720 
 5521      76616C75 
 5521      65203D20 
 5522              		.section	.text.cmd_get_battery,"ax",%progbits
 5523              		.align	1
 5524              		.p2align 4,,15
 5525              		.syntax unified
 5526              		.thumb
 5527              		.thumb_func
 5528              		.fpu fpv4-sp-d16
 5529              		.type	cmd_get_battery, %function
 5530              	cmd_get_battery:
 5531              	.LFB303:
 5532              		.loc 7 977 0
 5533              		.cfi_startproc
 5534              		@ args = 0, pretend = 0, frame = 24
 5535              		@ frame_needed = 0, uses_anonymous_args = 0
 5536 0000 00B5     		push	{lr}
 5537              		.cfi_def_cfa_offset 4
 5538              		.cfi_offset 14, -4
 5539 0002 87B0     		sub	sp, sp, #28
 5540              		.cfi_def_cfa_offset 32
 5541 0004 0390     		str	r0, [sp, #12]
 5542 0006 0291     		str	r1, [sp, #8]
 5543 0008 0192     		str	r2, [sp, #4]
 5544              		.loc 7 977 0
 5545 000a 0B4B     		ldr	r3, .L382
 5546 000c 1B68     		ldr	r3, [r3]
 5547 000e 0593     		str	r3, [sp, #20]
 5548              		.loc 7 981 0
 5549 0010 FFF7FEFF 		bl	get_battery_raw
 5550 0014 0346     		mov	r3, r0
 5551 0016 1A46     		mov	r2, r3
 5552 0018 0849     		ldr	r1, .L382+4
 5553 001a 0398     		ldr	r0, [sp, #12]
 5554 001c FFF7FEFF 		bl	chprintf
 5555              		.loc 7 982 0
 5556 0020 00BF     		nop
 5557 0022 054B     		ldr	r3, .L382
 5558 0024 059A     		ldr	r2, [sp, #20]
 5559 0026 1B68     		ldr	r3, [r3]
 5560 0028 9A42     		cmp	r2, r3
 5561 002a 01D0     		beq	.L381
 5562 002c FFF7FEFF 		bl	__stack_chk_fail
 5563              	.L381:
 5564 0030 07B0     		add	sp, sp, #28
 5565              		.cfi_def_cfa_offset 4
 5566              		@ sp needed
 5567 0032 5DF804FB 		ldr	pc, [sp], #4
 5568              	.L383:
ARM GAS  C:\Users\PCHAUT~1\AppData\Local\Temp\ccLw8kky.s 			page 108


 5569 0036 00BF     		.align	2
 5570              	.L382:
 5571 0038 00000000 		.word	__stack_chk_guard
 5572 003c 68100000 		.word	.LC132
 5573              		.cfi_endproc
 5574              	.LFE303:
 5575              		.size	cmd_get_battery, .-cmd_get_battery
 5576              		.section	.rodata
 5577 1081 000000   		.align	2
 5578              	.LC133:
 5579 1084 55736167 		.ascii	"Usage: audio_play freq\015\012freq=100..20000 Hz\015"
 5579      653A2061 
 5579      7564696F 
 5579      5F706C61 
 5579      79206672 
 5580 10af 0A00     		.ascii	"\012\000"
 5581              		.section	.text.cmd_audio_play,"ax",%progbits
 5582              		.align	1
 5583              		.p2align 4,,15
 5584              		.syntax unified
 5585              		.thumb
 5586              		.thumb_func
 5587              		.fpu fpv4-sp-d16
 5588              		.type	cmd_audio_play, %function
 5589              	cmd_audio_play:
 5590              	.LFB304:
 5591              		.loc 7 985 0
 5592              		.cfi_startproc
 5593              		@ args = 0, pretend = 0, frame = 24
 5594              		@ frame_needed = 0, uses_anonymous_args = 0
 5595 0000 00B5     		push	{lr}
 5596              		.cfi_def_cfa_offset 4
 5597              		.cfi_offset 14, -4
 5598 0002 87B0     		sub	sp, sp, #28
 5599              		.cfi_def_cfa_offset 32
 5600 0004 0390     		str	r0, [sp, #12]
 5601 0006 0291     		str	r1, [sp, #8]
 5602 0008 0192     		str	r2, [sp, #4]
 5603              		.loc 7 985 0
 5604 000a 114B     		ldr	r3, .L389
 5605 000c 1B68     		ldr	r3, [r3]
 5606 000e 0593     		str	r3, [sp, #20]
 5607              		.loc 7 987 0
 5608 0010 029B     		ldr	r3, [sp, #8]
 5609 0012 012B     		cmp	r3, #1
 5610 0014 04D0     		beq	.L385
 5611              		.loc 7 988 0
 5612 0016 0F49     		ldr	r1, .L389+4
 5613 0018 0398     		ldr	r0, [sp, #12]
 5614 001a FFF7FEFF 		bl	chprintf
 5615              		.loc 7 994 0
 5616 001e 0CE0     		b	.L388
 5617              	.L385:
 5618              		.loc 7 991 0
 5619 0020 019B     		ldr	r3, [sp, #4]
 5620 0022 1B68     		ldr	r3, [r3]
 5621 0024 1846     		mov	r0, r3
ARM GAS  C:\Users\PCHAUT~1\AppData\Local\Temp\ccLw8kky.s 			page 109


 5622 0026 FFF7FEFF 		bl	atoi
 5623 002a 0346     		mov	r3, r0
 5624 002c ADF81230 		strh	r3, [sp, #18]	@ movhi
 5625              		.loc 7 992 0
 5626 0030 BDF81230 		ldrh	r3, [sp, #18]
 5627 0034 1846     		mov	r0, r3
 5628 0036 FFF7FEFF 		bl	dac_play
 5629              	.L388:
 5630              		.loc 7 994 0
 5631 003a 00BF     		nop
 5632 003c 044B     		ldr	r3, .L389
 5633 003e 059A     		ldr	r2, [sp, #20]
 5634 0040 1B68     		ldr	r3, [r3]
 5635 0042 9A42     		cmp	r2, r3
 5636 0044 01D0     		beq	.L387
 5637 0046 FFF7FEFF 		bl	__stack_chk_fail
 5638              	.L387:
 5639 004a 07B0     		add	sp, sp, #28
 5640              		.cfi_def_cfa_offset 4
 5641              		@ sp needed
 5642 004c 5DF804FB 		ldr	pc, [sp], #4
 5643              	.L390:
 5644              		.align	2
 5645              	.L389:
 5646 0050 00000000 		.word	__stack_chk_guard
 5647 0054 84100000 		.word	.LC133
 5648              		.cfi_endproc
 5649              	.LFE304:
 5650              		.size	cmd_audio_play, .-cmd_audio_play
 5651              		.section	.text.cmd_audio_stop,"ax",%progbits
 5652              		.align	1
 5653              		.p2align 4,,15
 5654              		.syntax unified
 5655              		.thumb
 5656              		.thumb_func
 5657              		.fpu fpv4-sp-d16
 5658              		.type	cmd_audio_stop, %function
 5659              	cmd_audio_stop:
 5660              	.LFB305:
 5661              		.loc 7 997 0
 5662              		.cfi_startproc
 5663              		@ args = 0, pretend = 0, frame = 24
 5664              		@ frame_needed = 0, uses_anonymous_args = 0
 5665 0000 00B5     		push	{lr}
 5666              		.cfi_def_cfa_offset 4
 5667              		.cfi_offset 14, -4
 5668 0002 87B0     		sub	sp, sp, #28
 5669              		.cfi_def_cfa_offset 32
 5670 0004 0390     		str	r0, [sp, #12]
 5671 0006 0291     		str	r1, [sp, #8]
 5672 0008 0192     		str	r2, [sp, #4]
 5673              		.loc 7 997 0
 5674 000a 084B     		ldr	r3, .L393
 5675 000c 1B68     		ldr	r3, [r3]
 5676 000e 0593     		str	r3, [sp, #20]
 5677              		.loc 7 1001 0
 5678 0010 FFF7FEFF 		bl	dac_stop
ARM GAS  C:\Users\PCHAUT~1\AppData\Local\Temp\ccLw8kky.s 			page 110


 5679              		.loc 7 1002 0
 5680 0014 00BF     		nop
 5681 0016 054B     		ldr	r3, .L393
 5682 0018 059A     		ldr	r2, [sp, #20]
 5683 001a 1B68     		ldr	r3, [r3]
 5684 001c 9A42     		cmp	r2, r3
 5685 001e 01D0     		beq	.L392
 5686 0020 FFF7FEFF 		bl	__stack_chk_fail
 5687              	.L392:
 5688 0024 07B0     		add	sp, sp, #28
 5689              		.cfi_def_cfa_offset 4
 5690              		@ sp needed
 5691 0026 5DF804FB 		ldr	pc, [sp], #4
 5692              	.L394:
 5693 002a 00BF     		.align	2
 5694              	.L393:
 5695 002c 00000000 		.word	__stack_chk_guard
 5696              		.cfi_endproc
 5697              	.LFE305:
 5698              		.size	cmd_audio_stop, .-cmd_audio_stop
 5699              		.section	.rodata
 5700 10b1 000000   		.align	2
 5701              	.LC134:
 5702 10b4 55736167 		.ascii	"Usage: volume mic_num.\015\012mic_num=0..3\015\012\000"
 5702      653A2076 
 5702      6F6C756D 
 5702      65206D69 
 5702      635F6E75 
 5703 10db 00       		.align	2
 5704              	.LC135:
 5705 10dc 25640D0A 		.ascii	"%d\015\012\000"
 5705      00
 5706              		.section	.text.cmd_volume,"ax",%progbits
 5707              		.align	1
 5708              		.p2align 4,,15
 5709              		.syntax unified
 5710              		.thumb
 5711              		.thumb_func
 5712              		.fpu fpv4-sp-d16
 5713              		.type	cmd_volume, %function
 5714              	cmd_volume:
 5715              	.LFB306:
 5716              		.loc 7 1005 0
 5717              		.cfi_startproc
 5718              		@ args = 0, pretend = 0, frame = 24
 5719              		@ frame_needed = 0, uses_anonymous_args = 0
 5720 0000 00B5     		push	{lr}
 5721              		.cfi_def_cfa_offset 4
 5722              		.cfi_offset 14, -4
 5723 0002 87B0     		sub	sp, sp, #28
 5724              		.cfi_def_cfa_offset 32
 5725 0004 0390     		str	r0, [sp, #12]
 5726 0006 0291     		str	r1, [sp, #8]
 5727 0008 0192     		str	r2, [sp, #4]
 5728              		.loc 7 1005 0
 5729 000a 144B     		ldr	r3, .L400
 5730 000c 1B68     		ldr	r3, [r3]
ARM GAS  C:\Users\PCHAUT~1\AppData\Local\Temp\ccLw8kky.s 			page 111


 5731 000e 0593     		str	r3, [sp, #20]
 5732              		.loc 7 1007 0
 5733 0010 029B     		ldr	r3, [sp, #8]
 5734 0012 012B     		cmp	r3, #1
 5735 0014 04D0     		beq	.L396
 5736              		.loc 7 1008 0
 5737 0016 1249     		ldr	r1, .L400+4
 5738 0018 0398     		ldr	r0, [sp, #12]
 5739 001a FFF7FEFF 		bl	chprintf
 5740              		.loc 7 1013 0
 5741 001e 12E0     		b	.L399
 5742              	.L396:
 5743              		.loc 7 1010 0
 5744 0020 019B     		ldr	r3, [sp, #4]
 5745 0022 1B68     		ldr	r3, [r3]
 5746 0024 1846     		mov	r0, r3
 5747 0026 FFF7FEFF 		bl	atoi
 5748 002a 0346     		mov	r3, r0
 5749 002c 8DF81330 		strb	r3, [sp, #19]
 5750              		.loc 7 1011 0
 5751 0030 9DF81330 		ldrb	r3, [sp, #19]	@ zero_extendqisi2
 5752 0034 1846     		mov	r0, r3
 5753 0036 FFF7FEFF 		bl	mic_get_volume
 5754 003a 0346     		mov	r3, r0
 5755 003c 1A46     		mov	r2, r3
 5756 003e 0949     		ldr	r1, .L400+8
 5757 0040 0398     		ldr	r0, [sp, #12]
 5758 0042 FFF7FEFF 		bl	chprintf
 5759              	.L399:
 5760              		.loc 7 1013 0
 5761 0046 00BF     		nop
 5762 0048 044B     		ldr	r3, .L400
 5763 004a 059A     		ldr	r2, [sp, #20]
 5764 004c 1B68     		ldr	r3, [r3]
 5765 004e 9A42     		cmp	r2, r3
 5766 0050 01D0     		beq	.L398
 5767 0052 FFF7FEFF 		bl	__stack_chk_fail
 5768              	.L398:
 5769 0056 07B0     		add	sp, sp, #28
 5770              		.cfi_def_cfa_offset 4
 5771              		@ sp needed
 5772 0058 5DF804FB 		ldr	pc, [sp], #4
 5773              	.L401:
 5774              		.align	2
 5775              	.L400:
 5776 005c 00000000 		.word	__stack_chk_guard
 5777 0060 B4100000 		.word	.LC134
 5778 0064 DC100000 		.word	.LC135
 5779              		.cfi_endproc
 5780              	.LFE306:
 5781              		.size	cmd_volume, .-cmd_volume
 5782              		.section	.text.cmd_mic_data,"ax",%progbits
 5783              		.align	1
 5784              		.p2align 4,,15
 5785              		.syntax unified
 5786              		.thumb
 5787              		.thumb_func
ARM GAS  C:\Users\PCHAUT~1\AppData\Local\Temp\ccLw8kky.s 			page 112


 5788              		.fpu fpv4-sp-d16
 5789              		.type	cmd_mic_data, %function
 5790              	cmd_mic_data:
 5791              	.LFB307:
 5792              		.loc 7 1016 0
 5793              		.cfi_startproc
 5794              		@ args = 0, pretend = 0, frame = 32
 5795              		@ frame_needed = 0, uses_anonymous_args = 0
 5796 0000 00B5     		push	{lr}
 5797              		.cfi_def_cfa_offset 4
 5798              		.cfi_offset 14, -4
 5799 0002 89B0     		sub	sp, sp, #36
 5800              		.cfi_def_cfa_offset 40
 5801 0004 0390     		str	r0, [sp, #12]
 5802 0006 0291     		str	r1, [sp, #8]
 5803 0008 0192     		str	r2, [sp, #4]
 5804              		.loc 7 1016 0
 5805 000a 214B     		ldr	r3, .L405
 5806 000c 1B68     		ldr	r3, [r3]
 5807 000e 0793     		str	r3, [sp, #28]
 5808              		.loc 7 1021 0
 5809 0010 FFF7FEFF 		bl	mic_buffer_get_size
 5810 0014 0346     		mov	r3, r0
 5811 0016 ADF81230 		strh	r3, [sp, #18]	@ movhi
 5812              		.loc 7 1022 0
 5813 001a AA23     		movs	r3, #170
 5814 001c 8DF81830 		strb	r3, [sp, #24]
 5815 0020 5523     		movs	r3, #85
 5816 0022 8DF81930 		strb	r3, [sp, #25]
 5817 0026 BDF81230 		ldrh	r3, [sp, #18]
 5818 002a 1B0A     		lsrs	r3, r3, #8
 5819 002c 9BB2     		uxth	r3, r3
 5820 002e DBB2     		uxtb	r3, r3
 5821 0030 8DF81A30 		strb	r3, [sp, #26]
 5822 0034 BDF81230 		ldrh	r3, [sp, #18]	@ movhi
 5823 0038 DBB2     		uxtb	r3, r3
 5824 003a 8DF81B30 		strb	r3, [sp, #27]
 5825              		.loc 7 1024 0
 5826 003e 154B     		ldr	r3, .L405+4
 5827 0040 1B68     		ldr	r3, [r3]
 5828 0042 1B68     		ldr	r3, [r3]
 5829 0044 06A9     		add	r1, sp, #24
 5830 0046 0422     		movs	r2, #4
 5831 0048 1248     		ldr	r0, .L405+4
 5832 004a 9847     		blx	r3
 5833              	.LVL4:
 5834              		.loc 7 1025 0
 5835 004c FFF7FEFF 		bl	mic_buffer_ready_reset
 5836              		.loc 7 1026 0
 5837 0050 00BF     		nop
 5838              	.L403:
 5839              		.loc 7 1026 0 is_stmt 0 discriminator 1
 5840 0052 FFF7FEFF 		bl	mic_buffer_is_ready
 5841 0056 0346     		mov	r3, r0
 5842 0058 83F00103 		eor	r3, r3, #1
 5843 005c DBB2     		uxtb	r3, r3
 5844 005e 002B     		cmp	r3, #0
ARM GAS  C:\Users\PCHAUT~1\AppData\Local\Temp\ccLw8kky.s 			page 113


 5845 0060 F7D1     		bne	.L403
 5846              		.loc 7 1027 0 is_stmt 1
 5847 0062 FFF7FEFF 		bl	mic_get_buffer_ptr
 5848 0066 0590     		str	r0, [sp, #20]
 5849              		.loc 7 1028 0
 5850 0068 0A4B     		ldr	r3, .L405+4
 5851 006a 1B68     		ldr	r3, [r3]
 5852 006c 1B68     		ldr	r3, [r3]
 5853 006e BDF81220 		ldrh	r2, [sp, #18]
 5854 0072 0599     		ldr	r1, [sp, #20]
 5855 0074 0748     		ldr	r0, .L405+4
 5856 0076 9847     		blx	r3
 5857              	.LVL5:
 5858              		.loc 7 1029 0
 5859 0078 00BF     		nop
 5860 007a 054B     		ldr	r3, .L405
 5861 007c 079A     		ldr	r2, [sp, #28]
 5862 007e 1B68     		ldr	r3, [r3]
 5863 0080 9A42     		cmp	r2, r3
 5864 0082 01D0     		beq	.L404
 5865 0084 FFF7FEFF 		bl	__stack_chk_fail
 5866              	.L404:
 5867 0088 09B0     		add	sp, sp, #36
 5868              		.cfi_def_cfa_offset 4
 5869              		@ sp needed
 5870 008a 5DF804FB 		ldr	pc, [sp], #4
 5871              	.L406:
 5872 008e 00BF     		.align	2
 5873              	.L405:
 5874 0090 00000000 		.word	__stack_chk_guard
 5875 0094 00000000 		.word	SDU1
 5876              		.cfi_endproc
 5877              	.LFE307:
 5878              		.size	cmd_mic_data, .-cmd_mic_data
 5879              		.section	.rodata
 5880 10e1 000000   		.align	2
 5881              	.LC136:
 5882 10e4 55736167 		.ascii	"Usage: sdc read|write|erase|all\015\012\000"
 5882      653A2073 
 5882      64632072 
 5882      6561647C 
 5882      77726974 
 5883 1106 0000     		.align	2
 5884              	.LC137:
 5885 1108 43617264 		.ascii	"Card not inserted, aborting.\015\012\000"
 5885      206E6F74 
 5885      20696E73 
 5885      65727465 
 5885      642C2061 
 5886 1127 00       		.align	2
 5887              	.LC138:
 5888 1128 436F6E6E 		.ascii	"Connecting... \000"
 5888      65637469 
 5888      6E672E2E 
 5888      2E2000
 5889 1137 00       		.align	2
 5890              	.LC139:
ARM GAS  C:\Users\PCHAUT~1\AppData\Local\Temp\ccLw8kky.s 			page 114


 5891 1138 6661696C 		.ascii	"failed\015\012\000"
 5891      65640D0A 
 5891      00
 5892 1141 000000   		.align	2
 5893              	.LC140:
 5894 1144 4F4B0D0A 		.ascii	"OK\015\012\015\012Card Info\015\012\000"
 5894      0D0A4361 
 5894      72642049 
 5894      6E666F0D 
 5894      0A00
 5895 1156 0000     		.align	2
 5896              	.LC141:
 5897 1158 43534420 		.ascii	"CSD      : %08X %8X %08X %08X \015\012\000"
 5897      20202020 
 5897      203A2025 
 5897      30385820 
 5897      25385820 
 5898 1179 000000   		.align	2
 5899              	.LC142:
 5900 117c 43494420 		.ascii	"CID      : %08X %8X %08X %08X \015\012\000"
 5900      20202020 
 5900      203A2025 
 5900      30385820 
 5900      25385820 
 5901 119d 000000   		.align	2
 5902              	.LC143:
 5903 11a0 4D6F6465 		.ascii	"Mode     : %s\015\012\000"
 5903      20202020 
 5903      203A2025 
 5903      730D0A00 
 5904              		.align	2
 5905              	.LC144:
 5906 11b0 43617061 		.ascii	"Capacity : %DMB\015\012\000"
 5906      63697479 
 5906      203A2025 
 5906      444D420D 
 5906      0A00
 5907 11c2 0000     		.align	2
 5908              	.LC145:
 5909 11c4 72656164 		.ascii	"read\000"
 5909      00
 5910 11c9 000000   		.align	2
 5911              	.LC146:
 5912 11cc 616C6C00 		.ascii	"all\000"
 5913              		.align	2
 5914              	.LC147:
 5915 11d0 53696E67 		.ascii	"Single block aligned read performance:           \000"
 5915      6C652062 
 5915      6C6F636B 
 5915      20616C69 
 5915      676E6564 
 5916 1202 0000     		.align	2
 5917              	.LC148:
 5918 1204 25442062 		.ascii	"%D blocks/S, %D bytes/S\015\012\000"
 5918      6C6F636B 
 5918      732F532C 
 5918      20254420 
ARM GAS  C:\Users\PCHAUT~1\AppData\Local\Temp\ccLw8kky.s 			page 115


 5918      62797465 
 5919 121e 0000     		.align	2
 5920              	.LC149:
 5921 1220 31362073 		.ascii	"16 sequential blocks aligned read performance:   \000"
 5921      65717565 
 5921      6E746961 
 5921      6C20626C 
 5921      6F636B73 
 5922 1252 0000     		.align	2
 5923              	.LC150:
 5924 1254 53696E67 		.ascii	"Single block unaligned read performance:         \000"
 5924      6C652062 
 5924      6C6F636B 
 5924      20756E61 
 5924      6C69676E 
 5925 1286 0000     		.align	2
 5926              	.LC151:
 5927 1288 31362073 		.ascii	"16 sequential blocks unaligned read performance: \000"
 5927      65717565 
 5927      6E746961 
 5927      6C20626C 
 5927      6F636B73 
 5928 12ba 0000     		.align	2
 5929              	.LC152:
 5930 12bc 77726974 		.ascii	"write\000"
 5930      6500
 5931 12c2 0000     		.align	2
 5932              	.LC153:
 5933 12c4 57726974 		.ascii	"Writing...\000"
 5933      696E672E 
 5933      2E2E00
 5934 12cf 00       		.align	2
 5935              	.LC154:
 5936 12d0 4F4B0D0A 		.ascii	"OK\015\012\000"
 5936      00
 5937 12d5 000000   		.align	2
 5938              	.LC155:
 5939 12d8 52656164 		.ascii	"Reading...\000"
 5939      696E672E 
 5939      2E2E00
 5940 12e3 00       		.align	2
 5941              	.LC156:
 5942 12e4 65726173 		.ascii	"erase\000"
 5942      6500
 5943 12ea 0000     		.align	2
 5944              	.LC157:
 5945 12ec 73646345 		.ascii	"sdcErase() test write failed\015\012\000"
 5945      72617365 
 5945      28292074 
 5945      65737420 
 5945      77726974 
 5946 130b 00       		.align	2
 5947              	.LC158:
 5948 130c 73646345 		.ascii	"sdcErase() failed\015\012\000"
 5948      72617365 
 5948      28292066 
 5948      61696C65 
ARM GAS  C:\Users\PCHAUT~1\AppData\Local\Temp\ccLw8kky.s 			page 116


 5948      640D0A00 
 5949              		.align	2
 5950              	.LC159:
 5951 1320 73646345 		.ascii	"sdcErase() yielded error flags: %d\015\012\000"
 5951      72617365 
 5951      28292079 
 5951      69656C64 
 5951      65642065 
 5952 1345 000000   		.align	2
 5953              	.LC160:
 5954 1348 73696E67 		.ascii	"single-block sdcErase() failed\015\012\000"
 5954      6C652D62 
 5954      6C6F636B 
 5954      20736463 
 5954      45726173 
 5955 1369 000000   		.align	2
 5956              	.LC161:
 5957 136c 73646345 		.ascii	"sdcErase() non-erased block compare failed\015\012\000"
 5957      72617365 
 5957      2829206E 
 5957      6F6E2D65 
 5957      72617365 
 5958 1399 000000   		.align	2
 5959              	.LC162:
 5960 139c 73646345 		.ascii	"sdcErase() erased block compare failed\015\012\000"
 5960      72617365 
 5960      28292065 
 5960      72617365 
 5960      6420626C 
 5961 13c5 000000   		.align	2
 5962              	.LC163:
 5963 13c8 6D756C74 		.ascii	"multi-block sdcErase() failed\015\012\000"
 5963      692D626C 
 5963      6F636B20 
 5963      73646345 
 5963      72617365 
 5964              		.align	2
 5965              	.LC164:
 5966 13e8 6D756C74 		.ascii	"multi-block sdcErase() erased block compare failed\015"
 5966      692D626C 
 5966      6F636B20 
 5966      73646345 
 5966      72617365 
 5967 141b 0A00     		.ascii	"\012\000"
 5968              		.section	.text.cmd_sdc,"ax",%progbits
 5969              		.align	1
 5970              		.p2align 4,,15
 5971              		.global	cmd_sdc
 5972              		.syntax unified
 5973              		.thumb
 5974              		.thumb_func
 5975              		.fpu fpv4-sp-d16
 5976              		.type	cmd_sdc, %function
 5977              	cmd_sdc:
 5978              	.LFB308:
 5979              		.loc 7 1031 0
 5980              		.cfi_startproc
ARM GAS  C:\Users\PCHAUT~1\AppData\Local\Temp\ccLw8kky.s 			page 117


 5981              		@ args = 0, pretend = 0, frame = 48
 5982              		@ frame_needed = 0, uses_anonymous_args = 0
 5983 0000 10B5     		push	{r4, lr}
 5984              		.cfi_def_cfa_offset 8
 5985              		.cfi_offset 4, -8
 5986              		.cfi_offset 14, -4
 5987 0002 8EB0     		sub	sp, sp, #56
 5988              		.cfi_def_cfa_offset 64
 5989 0004 0590     		str	r0, [sp, #20]
 5990 0006 0491     		str	r1, [sp, #16]
 5991 0008 0392     		str	r2, [sp, #12]
 5992              		.loc 7 1031 0
 5993 000a 904B     		ldr	r3, .L445
 5994 000c 1B68     		ldr	r3, [r3]
 5995 000e 0D93     		str	r3, [sp, #52]
 5996              		.loc 7 1036 0
 5997 0010 049B     		ldr	r3, [sp, #16]
 5998 0012 012B     		cmp	r3, #1
 5999 0014 04D0     		beq	.L408
 6000              		.loc 7 1037 0
 6001 0016 8E49     		ldr	r1, .L445+4
 6002 0018 0598     		ldr	r0, [sp, #20]
 6003 001a FFF7FEFF 		bl	chprintf
 6004              		.loc 7 1038 0
 6005 001e DEE2     		b	.L407
 6006              	.L408:
 6007              		.loc 7 1042 0
 6008 0020 8C4B     		ldr	r3, .L445+8
 6009 0022 1B68     		ldr	r3, [r3]
 6010 0024 1B68     		ldr	r3, [r3]
 6011 0026 8B48     		ldr	r0, .L445+8
 6012 0028 9847     		blx	r3
 6013              	.LVL6:
 6014 002a 0346     		mov	r3, r0
 6015 002c 83F00103 		eor	r3, r3, #1
 6016 0030 DBB2     		uxtb	r3, r3
 6017 0032 002B     		cmp	r3, #0
 6018 0034 04D0     		beq	.L410
 6019              		.loc 7 1043 0
 6020 0036 8849     		ldr	r1, .L445+12
 6021 0038 0598     		ldr	r0, [sp, #20]
 6022 003a FFF7FEFF 		bl	chprintf
 6023              		.loc 7 1044 0
 6024 003e CEE2     		b	.L407
 6025              	.L410:
 6026              		.loc 7 1048 0
 6027 0040 8649     		ldr	r1, .L445+16
 6028 0042 0598     		ldr	r0, [sp, #20]
 6029 0044 FFF7FEFF 		bl	chprintf
 6030              		.loc 7 1049 0
 6031 0048 8248     		ldr	r0, .L445+8
 6032 004a FFF7FEFF 		bl	sdcConnect
 6033 004e 0346     		mov	r3, r0
 6034 0050 002B     		cmp	r3, #0
 6035 0052 04D0     		beq	.L411
 6036              		.loc 7 1050 0
 6037 0054 8249     		ldr	r1, .L445+20
ARM GAS  C:\Users\PCHAUT~1\AppData\Local\Temp\ccLw8kky.s 			page 118


 6038 0056 0598     		ldr	r0, [sp, #20]
 6039 0058 FFF7FEFF 		bl	chprintf
 6040              		.loc 7 1051 0
 6041 005c BFE2     		b	.L407
 6042              	.L411:
 6043              		.loc 7 1054 0
 6044 005e 8149     		ldr	r1, .L445+24
 6045 0060 0598     		ldr	r0, [sp, #20]
 6046 0062 FFF7FEFF 		bl	chprintf
 6047              		.loc 7 1055 0
 6048 0066 7B4B     		ldr	r3, .L445+8
 6049 0068 596A     		ldr	r1, [r3, #36]
 6050 006a 7A4B     		ldr	r3, .L445+8
 6051 006c 186A     		ldr	r0, [r3, #32]
 6052 006e 794B     		ldr	r3, .L445+8
 6053 0070 DB69     		ldr	r3, [r3, #28]
 6054 0072 784A     		ldr	r2, .L445+8
 6055 0074 9269     		ldr	r2, [r2, #24]
 6056 0076 0192     		str	r2, [sp, #4]
 6057 0078 0093     		str	r3, [sp]
 6058 007a 0346     		mov	r3, r0
 6059 007c 0A46     		mov	r2, r1
 6060 007e 7A49     		ldr	r1, .L445+28
 6061 0080 0598     		ldr	r0, [sp, #20]
 6062 0082 FFF7FEFF 		bl	chprintf
 6063              		.loc 7 1057 0
 6064 0086 734B     		ldr	r3, .L445+8
 6065 0088 5969     		ldr	r1, [r3, #20]
 6066 008a 724B     		ldr	r3, .L445+8
 6067 008c 1869     		ldr	r0, [r3, #16]
 6068 008e 714B     		ldr	r3, .L445+8
 6069 0090 DB68     		ldr	r3, [r3, #12]
 6070 0092 704A     		ldr	r2, .L445+8
 6071 0094 9268     		ldr	r2, [r2, #8]
 6072 0096 0192     		str	r2, [sp, #4]
 6073 0098 0093     		str	r3, [sp]
 6074 009a 0346     		mov	r3, r0
 6075 009c 0A46     		mov	r2, r1
 6076 009e 7349     		ldr	r1, .L445+32
 6077 00a0 0598     		ldr	r0, [sp, #20]
 6078 00a2 FFF7FEFF 		bl	chprintf
 6079              		.loc 7 1059 0
 6080 00a6 6B4B     		ldr	r3, .L445+8
 6081 00a8 1B6B     		ldr	r3, [r3, #48]
 6082 00aa 03F00303 		and	r3, r3, #3
 6083 00ae 704A     		ldr	r2, .L445+36
 6084 00b0 52F82330 		ldr	r3, [r2, r3, lsl #2]
 6085 00b4 1A46     		mov	r2, r3
 6086 00b6 6F49     		ldr	r1, .L445+40
 6087 00b8 0598     		ldr	r0, [sp, #20]
 6088 00ba FFF7FEFF 		bl	chprintf
 6089              		.loc 7 1060 0
 6090 00be 654B     		ldr	r3, .L445+8
 6091 00c0 9B6A     		ldr	r3, [r3, #40]
 6092 00c2 DB0A     		lsrs	r3, r3, #11
 6093 00c4 1A46     		mov	r2, r3
 6094 00c6 6C49     		ldr	r1, .L445+44
ARM GAS  C:\Users\PCHAUT~1\AppData\Local\Temp\ccLw8kky.s 			page 119


 6095 00c8 0598     		ldr	r0, [sp, #20]
 6096 00ca FFF7FEFF 		bl	chprintf
 6097              		.loc 7 1063 0
 6098 00ce 614B     		ldr	r3, .L445+8
 6099 00d0 9B6A     		ldr	r3, [r3, #40]
 6100 00d2 9B0A     		lsrs	r3, r3, #10
 6101 00d4 0993     		str	r3, [sp, #36]
 6102              		.loc 7 1065 0
 6103 00d6 039B     		ldr	r3, [sp, #12]
 6104 00d8 1B68     		ldr	r3, [r3]
 6105 00da 6849     		ldr	r1, .L445+48
 6106 00dc 1846     		mov	r0, r3
 6107 00de FFF7FEFF 		bl	strcmp
 6108 00e2 0346     		mov	r3, r0
 6109 00e4 002B     		cmp	r3, #0
 6110 00e6 09D0     		beq	.L412
 6111              		.loc 7 1066 0 discriminator 1
 6112 00e8 039B     		ldr	r3, [sp, #12]
 6113 00ea 1B68     		ldr	r3, [r3]
 6114 00ec 6449     		ldr	r1, .L445+52
 6115 00ee 1846     		mov	r0, r3
 6116 00f0 FFF7FEFF 		bl	strcmp
 6117 00f4 0346     		mov	r3, r0
 6118              		.loc 7 1065 0 discriminator 1
 6119 00f6 002B     		cmp	r3, #0
 6120 00f8 40F0E380 		bne	.L413
 6121              	.L412:
 6122              		.loc 7 1069 0
 6123 00fc 6149     		ldr	r1, .L445+56
 6124 00fe 0598     		ldr	r0, [sp, #20]
 6125 0100 FFF7FEFF 		bl	chprintf
 6126              		.loc 7 1070 0
 6127 0104 FFF7FEFF 		bl	chVTGetSystemTime
 6128 0108 0A90     		str	r0, [sp, #40]
 6129              		.loc 7 1071 0
 6130 010a 0A9B     		ldr	r3, [sp, #40]
 6131 010c 03F57A73 		add	r3, r3, #1000
 6132 0110 0B93     		str	r3, [sp, #44]
 6133              		.loc 7 1072 0
 6134 0112 0023     		movs	r3, #0
 6135 0114 0693     		str	r3, [sp, #24]
 6136              	.L416:
 6137              		.loc 7 1074 0
 6138 0116 4F4B     		ldr	r3, .L445+8
 6139 0118 1B68     		ldr	r3, [r3]
 6140 011a 1C69     		ldr	r4, [r3, #16]
 6141 011c 0123     		movs	r3, #1
 6142 011e 5A4A     		ldr	r2, .L445+60
 6143 0120 0999     		ldr	r1, [sp, #36]
 6144 0122 4C48     		ldr	r0, .L445+8
 6145 0124 A047     		blx	r4
 6146              	.LVL7:
 6147 0126 0346     		mov	r3, r0
 6148 0128 002B     		cmp	r3, #0
 6149 012a 04D0     		beq	.L414
 6150              		.loc 7 1075 0
 6151 012c 4C49     		ldr	r1, .L445+20
ARM GAS  C:\Users\PCHAUT~1\AppData\Local\Temp\ccLw8kky.s 			page 120


 6152 012e 0598     		ldr	r0, [sp, #20]
 6153 0130 FFF7FEFF 		bl	chprintf
 6154              		.loc 7 1076 0
 6155 0134 50E2     		b	.L415
 6156              	.L414:
 6157              		.loc 7 1078 0
 6158 0136 069B     		ldr	r3, [sp, #24]
 6159 0138 0133     		adds	r3, r3, #1
 6160 013a 0693     		str	r3, [sp, #24]
 6161              		.loc 7 1079 0
 6162 013c 0B99     		ldr	r1, [sp, #44]
 6163 013e 0A98     		ldr	r0, [sp, #40]
 6164 0140 FFF7FEFF 		bl	chVTIsSystemTimeWithin
 6165 0144 0346     		mov	r3, r0
 6166 0146 002B     		cmp	r3, #0
 6167 0148 E5D1     		bne	.L416
 6168              		.loc 7 1080 0
 6169 014a 069B     		ldr	r3, [sp, #24]
 6170 014c 5B02     		lsls	r3, r3, #9
 6171 014e 069A     		ldr	r2, [sp, #24]
 6172 0150 4E49     		ldr	r1, .L445+64
 6173 0152 0598     		ldr	r0, [sp, #20]
 6174 0154 FFF7FEFF 		bl	chprintf
 6175              		.loc 7 1083 0
 6176 0158 4D49     		ldr	r1, .L445+68
 6177 015a 0598     		ldr	r0, [sp, #20]
 6178 015c FFF7FEFF 		bl	chprintf
 6179              		.loc 7 1084 0
 6180 0160 FFF7FEFF 		bl	chVTGetSystemTime
 6181 0164 0A90     		str	r0, [sp, #40]
 6182              		.loc 7 1085 0
 6183 0166 0A9B     		ldr	r3, [sp, #40]
 6184 0168 03F57A73 		add	r3, r3, #1000
 6185 016c 0B93     		str	r3, [sp, #44]
 6186              		.loc 7 1086 0
 6187 016e 0023     		movs	r3, #0
 6188 0170 0693     		str	r3, [sp, #24]
 6189              	.L418:
 6190              		.loc 7 1088 0
 6191 0172 384B     		ldr	r3, .L445+8
 6192 0174 1B68     		ldr	r3, [r3]
 6193 0176 1C69     		ldr	r4, [r3, #16]
 6194 0178 1023     		movs	r3, #16
 6195 017a 434A     		ldr	r2, .L445+60
 6196 017c 0999     		ldr	r1, [sp, #36]
 6197 017e 3548     		ldr	r0, .L445+8
 6198 0180 A047     		blx	r4
 6199              	.LVL8:
 6200 0182 0346     		mov	r3, r0
 6201 0184 002B     		cmp	r3, #0
 6202 0186 04D0     		beq	.L417
 6203              		.loc 7 1089 0
 6204 0188 3549     		ldr	r1, .L445+20
 6205 018a 0598     		ldr	r0, [sp, #20]
 6206 018c FFF7FEFF 		bl	chprintf
 6207              		.loc 7 1090 0
 6208 0190 22E2     		b	.L415
ARM GAS  C:\Users\PCHAUT~1\AppData\Local\Temp\ccLw8kky.s 			page 121


 6209              	.L417:
 6210              		.loc 7 1092 0
 6211 0192 069B     		ldr	r3, [sp, #24]
 6212 0194 1033     		adds	r3, r3, #16
 6213 0196 0693     		str	r3, [sp, #24]
 6214              		.loc 7 1093 0
 6215 0198 0B99     		ldr	r1, [sp, #44]
 6216 019a 0A98     		ldr	r0, [sp, #40]
 6217 019c FFF7FEFF 		bl	chVTIsSystemTimeWithin
 6218 01a0 0346     		mov	r3, r0
 6219 01a2 002B     		cmp	r3, #0
 6220 01a4 E5D1     		bne	.L418
 6221              		.loc 7 1094 0
 6222 01a6 069B     		ldr	r3, [sp, #24]
 6223 01a8 5B02     		lsls	r3, r3, #9
 6224 01aa 069A     		ldr	r2, [sp, #24]
 6225 01ac 3749     		ldr	r1, .L445+64
 6226 01ae 0598     		ldr	r0, [sp, #20]
 6227 01b0 FFF7FEFF 		bl	chprintf
 6228              		.loc 7 1098 0
 6229 01b4 3749     		ldr	r1, .L445+72
 6230 01b6 0598     		ldr	r0, [sp, #20]
 6231 01b8 FFF7FEFF 		bl	chprintf
 6232              		.loc 7 1099 0
 6233 01bc FFF7FEFF 		bl	chVTGetSystemTime
 6234 01c0 0A90     		str	r0, [sp, #40]
 6235              		.loc 7 1100 0
 6236 01c2 0A9B     		ldr	r3, [sp, #40]
 6237 01c4 03F57A73 		add	r3, r3, #1000
 6238 01c8 0B93     		str	r3, [sp, #44]
 6239              		.loc 7 1101 0
 6240 01ca 0023     		movs	r3, #0
 6241 01cc 0693     		str	r3, [sp, #24]
 6242              	.L420:
 6243              		.loc 7 1103 0
 6244 01ce 214B     		ldr	r3, .L445+8
 6245 01d0 1B68     		ldr	r3, [r3]
 6246 01d2 1C69     		ldr	r4, [r3, #16]
 6247 01d4 304A     		ldr	r2, .L445+76
 6248 01d6 0123     		movs	r3, #1
 6249 01d8 0999     		ldr	r1, [sp, #36]
 6250 01da 1E48     		ldr	r0, .L445+8
 6251 01dc A047     		blx	r4
 6252              	.LVL9:
 6253 01de 0346     		mov	r3, r0
 6254 01e0 002B     		cmp	r3, #0
 6255 01e2 04D0     		beq	.L419
 6256              		.loc 7 1104 0
 6257 01e4 1E49     		ldr	r1, .L445+20
 6258 01e6 0598     		ldr	r0, [sp, #20]
 6259 01e8 FFF7FEFF 		bl	chprintf
 6260              		.loc 7 1105 0
 6261 01ec F4E1     		b	.L415
 6262              	.L419:
 6263              		.loc 7 1107 0
 6264 01ee 069B     		ldr	r3, [sp, #24]
 6265 01f0 0133     		adds	r3, r3, #1
ARM GAS  C:\Users\PCHAUT~1\AppData\Local\Temp\ccLw8kky.s 			page 122


 6266 01f2 0693     		str	r3, [sp, #24]
 6267              		.loc 7 1108 0
 6268 01f4 0B99     		ldr	r1, [sp, #44]
 6269 01f6 0A98     		ldr	r0, [sp, #40]
 6270 01f8 FFF7FEFF 		bl	chVTIsSystemTimeWithin
 6271 01fc 0346     		mov	r3, r0
 6272 01fe 002B     		cmp	r3, #0
 6273 0200 E5D1     		bne	.L420
 6274              		.loc 7 1109 0
 6275 0202 069B     		ldr	r3, [sp, #24]
 6276 0204 5B02     		lsls	r3, r3, #9
 6277 0206 069A     		ldr	r2, [sp, #24]
 6278 0208 2049     		ldr	r1, .L445+64
 6279 020a 0598     		ldr	r0, [sp, #20]
 6280 020c FFF7FEFF 		bl	chprintf
 6281              		.loc 7 1112 0
 6282 0210 2249     		ldr	r1, .L445+80
 6283 0212 0598     		ldr	r0, [sp, #20]
 6284 0214 FFF7FEFF 		bl	chprintf
 6285              		.loc 7 1113 0
 6286 0218 FFF7FEFF 		bl	chVTGetSystemTime
 6287 021c 0A90     		str	r0, [sp, #40]
 6288              		.loc 7 1114 0
 6289 021e 0A9B     		ldr	r3, [sp, #40]
 6290 0220 03F57A73 		add	r3, r3, #1000
 6291 0224 0B93     		str	r3, [sp, #44]
 6292              		.loc 7 1115 0
 6293 0226 0023     		movs	r3, #0
 6294 0228 0693     		str	r3, [sp, #24]
 6295              	.L422:
 6296              		.loc 7 1117 0
 6297 022a 0A4B     		ldr	r3, .L445+8
 6298 022c 1B68     		ldr	r3, [r3]
 6299 022e 1C69     		ldr	r4, [r3, #16]
 6300 0230 194A     		ldr	r2, .L445+76
 6301 0232 1023     		movs	r3, #16
 6302 0234 0999     		ldr	r1, [sp, #36]
 6303 0236 0748     		ldr	r0, .L445+8
 6304 0238 A047     		blx	r4
 6305              	.LVL10:
 6306 023a 0346     		mov	r3, r0
 6307 023c 002B     		cmp	r3, #0
 6308 023e 2FD0     		beq	.L421
 6309              		.loc 7 1118 0
 6310 0240 0749     		ldr	r1, .L445+20
 6311 0242 0598     		ldr	r0, [sp, #20]
 6312 0244 FFF7FEFF 		bl	chprintf
 6313              		.loc 7 1119 0
 6314 0248 C6E1     		b	.L415
 6315              	.L446:
 6316 024a 00BF     		.align	2
 6317              	.L445:
 6318 024c 00000000 		.word	__stack_chk_guard
 6319 0250 E4100000 		.word	.LC136
 6320 0254 00000000 		.word	SDCD1
 6321 0258 08110000 		.word	.LC137
 6322 025c 28110000 		.word	.LC138
ARM GAS  C:\Users\PCHAUT~1\AppData\Local\Temp\ccLw8kky.s 			page 123


 6323 0260 38110000 		.word	.LC139
 6324 0264 44110000 		.word	.LC140
 6325 0268 58110000 		.word	.LC141
 6326 026c 7C110000 		.word	.LC142
 6327 0270 00000000 		.word	mode.13741
 6328 0274 A0110000 		.word	.LC143
 6329 0278 B0110000 		.word	.LC144
 6330 027c C4110000 		.word	.LC145
 6331 0280 CC110000 		.word	.LC146
 6332 0284 D0110000 		.word	.LC147
 6333 0288 00000000 		.word	buf
 6334 028c 04120000 		.word	.LC148
 6335 0290 20120000 		.word	.LC149
 6336 0294 54120000 		.word	.LC150
 6337 0298 01000000 		.word	buf+1
 6338 029c 88120000 		.word	.LC151
 6339              	.L421:
 6340              		.loc 7 1121 0
 6341 02a0 069B     		ldr	r3, [sp, #24]
 6342 02a2 1033     		adds	r3, r3, #16
 6343 02a4 0693     		str	r3, [sp, #24]
 6344              		.loc 7 1122 0
 6345 02a6 0B99     		ldr	r1, [sp, #44]
 6346 02a8 0A98     		ldr	r0, [sp, #40]
 6347 02aa FFF7FEFF 		bl	chVTIsSystemTimeWithin
 6348 02ae 0346     		mov	r3, r0
 6349 02b0 002B     		cmp	r3, #0
 6350 02b2 BAD1     		bne	.L422
 6351              		.loc 7 1123 0
 6352 02b4 069B     		ldr	r3, [sp, #24]
 6353 02b6 5B02     		lsls	r3, r3, #9
 6354 02b8 069A     		ldr	r2, [sp, #24]
 6355 02ba A949     		ldr	r1, .L447
 6356 02bc 0598     		ldr	r0, [sp, #20]
 6357 02be FFF7FEFF 		bl	chprintf
 6358              	.L413:
 6359              		.loc 7 1127 0
 6360 02c2 039B     		ldr	r3, [sp, #12]
 6361 02c4 1B68     		ldr	r3, [r3]
 6362 02c6 A749     		ldr	r1, .L447+4
 6363 02c8 1846     		mov	r0, r3
 6364 02ca FFF7FEFF 		bl	strcmp
 6365 02ce 0346     		mov	r3, r0
 6366 02d0 002B     		cmp	r3, #0
 6367 02d2 09D0     		beq	.L423
 6368              		.loc 7 1128 0 discriminator 1
 6369 02d4 039B     		ldr	r3, [sp, #12]
 6370 02d6 1B68     		ldr	r3, [r3]
 6371 02d8 A349     		ldr	r1, .L447+8
 6372 02da 1846     		mov	r0, r3
 6373 02dc FFF7FEFF 		bl	strcmp
 6374 02e0 0346     		mov	r3, r0
 6375              		.loc 7 1127 0 discriminator 1
 6376 02e2 002B     		cmp	r3, #0
 6377 02e4 40F08180 		bne	.L424
 6378              	.L423:
 6379              	.LBB10:
ARM GAS  C:\Users\PCHAUT~1\AppData\Local\Temp\ccLw8kky.s 			page 124


 6380              		.loc 7 1131 0
 6381 02e8 4FF48062 		mov	r2, #1024
 6382 02ec AA21     		movs	r1, #170
 6383 02ee 9F48     		ldr	r0, .L447+12
 6384 02f0 FFF7FEFF 		bl	memset
 6385              		.loc 7 1132 0
 6386 02f4 9E49     		ldr	r1, .L447+16
 6387 02f6 0598     		ldr	r0, [sp, #20]
 6388 02f8 FFF7FEFF 		bl	chprintf
 6389              		.loc 7 1133 0
 6390 02fc 0223     		movs	r3, #2
 6391 02fe 9B4A     		ldr	r2, .L447+12
 6392 0300 0999     		ldr	r1, [sp, #36]
 6393 0302 9C48     		ldr	r0, .L447+20
 6394 0304 FFF7FEFF 		bl	sdcWrite
 6395 0308 0346     		mov	r3, r0
 6396 030a 002B     		cmp	r3, #0
 6397 030c 04D0     		beq	.L425
 6398              		.loc 7 1134 0
 6399 030e 9A49     		ldr	r1, .L447+24
 6400 0310 0598     		ldr	r0, [sp, #20]
 6401 0312 FFF7FEFF 		bl	chprintf
 6402              		.loc 7 1135 0
 6403 0316 5FE1     		b	.L415
 6404              	.L425:
 6405              		.loc 7 1137 0
 6406 0318 9849     		ldr	r1, .L447+28
 6407 031a 0598     		ldr	r0, [sp, #20]
 6408 031c FFF7FEFF 		bl	chprintf
 6409              		.loc 7 1139 0
 6410 0320 4FF48062 		mov	r2, #1024
 6411 0324 5521     		movs	r1, #85
 6412 0326 9148     		ldr	r0, .L447+12
 6413 0328 FFF7FEFF 		bl	memset
 6414              		.loc 7 1140 0
 6415 032c 9449     		ldr	r1, .L447+32
 6416 032e 0598     		ldr	r0, [sp, #20]
 6417 0330 FFF7FEFF 		bl	chprintf
 6418              		.loc 7 1141 0
 6419 0334 8F4B     		ldr	r3, .L447+20
 6420 0336 1B68     		ldr	r3, [r3]
 6421 0338 1C69     		ldr	r4, [r3, #16]
 6422 033a 0123     		movs	r3, #1
 6423 033c 8B4A     		ldr	r2, .L447+12
 6424 033e 0999     		ldr	r1, [sp, #36]
 6425 0340 8C48     		ldr	r0, .L447+20
 6426 0342 A047     		blx	r4
 6427              	.LVL11:
 6428 0344 0346     		mov	r3, r0
 6429 0346 002B     		cmp	r3, #0
 6430 0348 04D0     		beq	.L426
 6431              		.loc 7 1142 0
 6432 034a 8B49     		ldr	r1, .L447+24
 6433 034c 0598     		ldr	r0, [sp, #20]
 6434 034e FFF7FEFF 		bl	chprintf
 6435              		.loc 7 1143 0
 6436 0352 41E1     		b	.L415
ARM GAS  C:\Users\PCHAUT~1\AppData\Local\Temp\ccLw8kky.s 			page 125


 6437              	.L426:
 6438              		.loc 7 1145 0
 6439 0354 8949     		ldr	r1, .L447+28
 6440 0356 0598     		ldr	r0, [sp, #20]
 6441 0358 FFF7FEFF 		bl	chprintf
 6442              		.loc 7 1147 0
 6443 035c 0023     		movs	r3, #0
 6444 035e 0793     		str	r3, [sp, #28]
 6445 0360 0BE0     		b	.L427
 6446              	.L428:
 6447              		.loc 7 1148 0 discriminator 3
 6448 0362 079B     		ldr	r3, [sp, #28]
 6449 0364 DBB2     		uxtb	r3, r3
 6450 0366 0833     		adds	r3, r3, #8
 6451 0368 D9B2     		uxtb	r1, r3
 6452 036a 804A     		ldr	r2, .L447+12
 6453 036c 079B     		ldr	r3, [sp, #28]
 6454 036e 1344     		add	r3, r3, r2
 6455 0370 0A46     		mov	r2, r1
 6456 0372 1A70     		strb	r2, [r3]
 6457              		.loc 7 1147 0 discriminator 3
 6458 0374 079B     		ldr	r3, [sp, #28]
 6459 0376 0133     		adds	r3, r3, #1
 6460 0378 0793     		str	r3, [sp, #28]
 6461              	.L427:
 6462              		.loc 7 1147 0 is_stmt 0 discriminator 1
 6463 037a 079B     		ldr	r3, [sp, #28]
 6464 037c B3F5007F 		cmp	r3, #512
 6465 0380 EFD3     		bcc	.L428
 6466              		.loc 7 1149 0 is_stmt 1
 6467 0382 7B49     		ldr	r1, .L447+16
 6468 0384 0598     		ldr	r0, [sp, #20]
 6469 0386 FFF7FEFF 		bl	chprintf
 6470              		.loc 7 1150 0
 6471 038a 0223     		movs	r3, #2
 6472 038c 774A     		ldr	r2, .L447+12
 6473 038e 0999     		ldr	r1, [sp, #36]
 6474 0390 7848     		ldr	r0, .L447+20
 6475 0392 FFF7FEFF 		bl	sdcWrite
 6476 0396 0346     		mov	r3, r0
 6477 0398 002B     		cmp	r3, #0
 6478 039a 04D0     		beq	.L429
 6479              		.loc 7 1151 0
 6480 039c 7649     		ldr	r1, .L447+24
 6481 039e 0598     		ldr	r0, [sp, #20]
 6482 03a0 FFF7FEFF 		bl	chprintf
 6483              		.loc 7 1152 0
 6484 03a4 18E1     		b	.L415
 6485              	.L429:
 6486              		.loc 7 1154 0
 6487 03a6 7549     		ldr	r1, .L447+28
 6488 03a8 0598     		ldr	r0, [sp, #20]
 6489 03aa FFF7FEFF 		bl	chprintf
 6490              		.loc 7 1156 0
 6491 03ae 4FF48062 		mov	r2, #1024
 6492 03b2 0021     		movs	r1, #0
 6493 03b4 6D48     		ldr	r0, .L447+12
ARM GAS  C:\Users\PCHAUT~1\AppData\Local\Temp\ccLw8kky.s 			page 126


 6494 03b6 FFF7FEFF 		bl	memset
 6495              		.loc 7 1157 0
 6496 03ba 7149     		ldr	r1, .L447+32
 6497 03bc 0598     		ldr	r0, [sp, #20]
 6498 03be FFF7FEFF 		bl	chprintf
 6499              		.loc 7 1158 0
 6500 03c2 6C4B     		ldr	r3, .L447+20
 6501 03c4 1B68     		ldr	r3, [r3]
 6502 03c6 1C69     		ldr	r4, [r3, #16]
 6503 03c8 0123     		movs	r3, #1
 6504 03ca 684A     		ldr	r2, .L447+12
 6505 03cc 0999     		ldr	r1, [sp, #36]
 6506 03ce 6948     		ldr	r0, .L447+20
 6507 03d0 A047     		blx	r4
 6508              	.LVL12:
 6509 03d2 0346     		mov	r3, r0
 6510 03d4 002B     		cmp	r3, #0
 6511 03d6 04D0     		beq	.L430
 6512              		.loc 7 1159 0
 6513 03d8 6749     		ldr	r1, .L447+24
 6514 03da 0598     		ldr	r0, [sp, #20]
 6515 03dc FFF7FEFF 		bl	chprintf
 6516              		.loc 7 1160 0
 6517 03e0 FAE0     		b	.L415
 6518              	.L430:
 6519              		.loc 7 1162 0
 6520 03e2 6649     		ldr	r1, .L447+28
 6521 03e4 0598     		ldr	r0, [sp, #20]
 6522 03e6 FFF7FEFF 		bl	chprintf
 6523              	.L424:
 6524              	.LBE10:
 6525              		.loc 7 1165 0
 6526 03ea 039B     		ldr	r3, [sp, #12]
 6527 03ec 1B68     		ldr	r3, [r3]
 6528 03ee 6549     		ldr	r1, .L447+36
 6529 03f0 1846     		mov	r0, r3
 6530 03f2 FFF7FEFF 		bl	strcmp
 6531 03f6 0346     		mov	r3, r0
 6532 03f8 002B     		cmp	r3, #0
 6533 03fa 09D0     		beq	.L431
 6534              		.loc 7 1166 0 discriminator 1
 6535 03fc 039B     		ldr	r3, [sp, #12]
 6536 03fe 1B68     		ldr	r3, [r3]
 6537 0400 5949     		ldr	r1, .L447+8
 6538 0402 1846     		mov	r0, r3
 6539 0404 FFF7FEFF 		bl	strcmp
 6540 0408 0346     		mov	r3, r0
 6541              		.loc 7 1165 0 discriminator 1
 6542 040a 002B     		cmp	r3, #0
 6543 040c 40F0E380 		bne	.L444
 6544              	.L431:
 6545              	.LBB11:
 6546              		.loc 7 1179 0
 6547 0410 4FF48062 		mov	r2, #1024
 6548 0414 0021     		movs	r1, #0
 6549 0416 5548     		ldr	r0, .L447+12
 6550 0418 FFF7FEFF 		bl	memset
ARM GAS  C:\Users\PCHAUT~1\AppData\Local\Temp\ccLw8kky.s 			page 127


 6551              		.loc 7 1180 0
 6552 041c 4FF48062 		mov	r2, #1024
 6553 0420 0021     		movs	r1, #0
 6554 0422 5948     		ldr	r0, .L447+40
 6555 0424 FFF7FEFF 		bl	memset
 6556              		.loc 7 1182 0
 6557 0428 0023     		movs	r3, #0
 6558 042a 0893     		str	r3, [sp, #32]
 6559              		.loc 7 1183 0
 6560 042c 13E0     		b	.L432
 6561              	.L433:
 6562              		.loc 7 1184 0 discriminator 2
 6563 042e 089B     		ldr	r3, [sp, #32]
 6564 0430 DA1D     		adds	r2, r3, #7
 6565 0432 9308     		lsrs	r3, r2, #2
 6566 0434 5549     		ldr	r1, .L447+44
 6567 0436 A1FB0313 		umull	r1, r3, r1, r3
 6568 043a 9B08     		lsrs	r3, r3, #2
 6569 043c 5421     		movs	r1, #84
 6570 043e 01FB03F3 		mul	r3, r1, r3
 6571 0442 D31A     		subs	r3, r2, r3
 6572 0444 D9B2     		uxtb	r1, r3
 6573 0446 494A     		ldr	r2, .L447+12
 6574 0448 089B     		ldr	r3, [sp, #32]
 6575 044a 1344     		add	r3, r3, r2
 6576 044c 0A46     		mov	r2, r1
 6577 044e 1A70     		strb	r2, [r3]
 6578              		.loc 7 1183 0 discriminator 2
 6579 0450 089B     		ldr	r3, [sp, #32]
 6580 0452 0133     		adds	r3, r3, #1
 6581 0454 0893     		str	r3, [sp, #32]
 6582              	.L432:
 6583              		.loc 7 1183 0 is_stmt 0 discriminator 1
 6584 0456 089B     		ldr	r3, [sp, #32]
 6585 0458 B3F5806F 		cmp	r3, #1024
 6586 045c E7D3     		bcc	.L433
 6587              		.loc 7 1187 0 is_stmt 1
 6588 045e 0223     		movs	r3, #2
 6589 0460 424A     		ldr	r2, .L447+12
 6590 0462 0999     		ldr	r1, [sp, #36]
 6591 0464 4348     		ldr	r0, .L447+20
 6592 0466 FFF7FEFF 		bl	sdcWrite
 6593 046a 0346     		mov	r3, r0
 6594 046c 002B     		cmp	r3, #0
 6595 046e 04D0     		beq	.L434
 6596              		.loc 7 1188 0
 6597 0470 4749     		ldr	r1, .L447+48
 6598 0472 0598     		ldr	r0, [sp, #20]
 6599 0474 FFF7FEFF 		bl	chprintf
 6600              		.loc 7 1189 0
 6601 0478 AEE0     		b	.L415
 6602              	.L434:
 6603              		.loc 7 1192 0
 6604 047a 099B     		ldr	r3, [sp, #36]
 6605 047c 591C     		adds	r1, r3, #1
 6606 047e 099B     		ldr	r3, [sp, #36]
 6607 0480 0233     		adds	r3, r3, #2
ARM GAS  C:\Users\PCHAUT~1\AppData\Local\Temp\ccLw8kky.s 			page 128


 6608 0482 1A46     		mov	r2, r3
 6609 0484 3B48     		ldr	r0, .L447+20
 6610 0486 FFF7FEFF 		bl	sdcErase
 6611 048a 0346     		mov	r3, r0
 6612 048c 002B     		cmp	r3, #0
 6613 048e 04D0     		beq	.L435
 6614              		.loc 7 1193 0
 6615 0490 4049     		ldr	r1, .L447+52
 6616 0492 0598     		ldr	r0, [sp, #20]
 6617 0494 FFF7FEFF 		bl	chprintf
 6618              		.loc 7 1194 0
 6619 0498 9EE0     		b	.L415
 6620              	.L435:
 6621              		.loc 7 1196 0
 6622 049a 3648     		ldr	r0, .L447+20
 6623 049c FFF7FEFF 		bl	sdcGetAndClearErrors
 6624 04a0 0C90     		str	r0, [sp, #48]
 6625              		.loc 7 1197 0
 6626 04a2 0C9B     		ldr	r3, [sp, #48]
 6627 04a4 002B     		cmp	r3, #0
 6628 04a6 05D0     		beq	.L436
 6629              		.loc 7 1198 0
 6630 04a8 0C9A     		ldr	r2, [sp, #48]
 6631 04aa 3B49     		ldr	r1, .L447+56
 6632 04ac 0598     		ldr	r0, [sp, #20]
 6633 04ae FFF7FEFF 		bl	chprintf
 6634              		.loc 7 1199 0
 6635 04b2 91E0     		b	.L415
 6636              	.L436:
 6637              		.loc 7 1201 0
 6638 04b4 0223     		movs	r3, #2
 6639 04b6 344A     		ldr	r2, .L447+40
 6640 04b8 0999     		ldr	r1, [sp, #36]
 6641 04ba 2E48     		ldr	r0, .L447+20
 6642 04bc FFF7FEFF 		bl	sdcRead
 6643 04c0 0346     		mov	r3, r0
 6644 04c2 002B     		cmp	r3, #0
 6645 04c4 04D0     		beq	.L437
 6646              		.loc 7 1202 0
 6647 04c6 3549     		ldr	r1, .L447+60
 6648 04c8 0598     		ldr	r0, [sp, #20]
 6649 04ca FFF7FEFF 		bl	chprintf
 6650              		.loc 7 1203 0
 6651 04ce 83E0     		b	.L415
 6652              	.L437:
 6653              		.loc 7 1206 0
 6654 04d0 4FF40072 		mov	r2, #512
 6655 04d4 2C49     		ldr	r1, .L447+40
 6656 04d6 2548     		ldr	r0, .L447+12
 6657 04d8 FFF7FEFF 		bl	memcmp
 6658 04dc 0346     		mov	r3, r0
 6659 04de 002B     		cmp	r3, #0
 6660 04e0 04D0     		beq	.L438
 6661              		.loc 7 1207 0
 6662 04e2 2F49     		ldr	r1, .L447+64
 6663 04e4 0598     		ldr	r0, [sp, #20]
 6664 04e6 FFF7FEFF 		bl	chprintf
ARM GAS  C:\Users\PCHAUT~1\AppData\Local\Temp\ccLw8kky.s 			page 129


 6665              		.loc 7 1208 0
 6666 04ea 75E0     		b	.L415
 6667              	.L438:
 6668              		.loc 7 1211 0
 6669 04ec 2D4B     		ldr	r3, .L447+68
 6670 04ee 2E49     		ldr	r1, .L447+72
 6671 04f0 4FF40072 		mov	r2, #512
 6672 04f4 1846     		mov	r0, r3
 6673 04f6 FFF7FEFF 		bl	memcmp
 6674 04fa 0346     		mov	r3, r0
 6675 04fc 002B     		cmp	r3, #0
 6676 04fe 04D1     		bne	.L439
 6677              		.loc 7 1213 0
 6678 0500 2A49     		ldr	r1, .L447+76
 6679 0502 0598     		ldr	r0, [sp, #20]
 6680 0504 FFF7FEFF 		bl	chprintf
 6681              		.loc 7 1214 0
 6682 0508 66E0     		b	.L415
 6683              	.L439:
 6684              		.loc 7 1217 0
 6685 050a 099B     		ldr	r3, [sp, #36]
 6686 050c 0233     		adds	r3, r3, #2
 6687 050e 1A46     		mov	r2, r3
 6688 0510 0999     		ldr	r1, [sp, #36]
 6689 0512 1848     		ldr	r0, .L447+20
 6690 0514 FFF7FEFF 		bl	sdcErase
 6691 0518 0346     		mov	r3, r0
 6692 051a 002B     		cmp	r3, #0
 6693 051c 04D0     		beq	.L440
 6694              		.loc 7 1218 0
 6695 051e 2449     		ldr	r1, .L447+80
 6696 0520 0598     		ldr	r0, [sp, #20]
 6697 0522 FFF7FEFF 		bl	chprintf
 6698              		.loc 7 1219 0
 6699 0526 57E0     		b	.L415
 6700              	.L440:
 6701              		.loc 7 1221 0
 6702 0528 0223     		movs	r3, #2
 6703 052a 174A     		ldr	r2, .L447+40
 6704 052c 0999     		ldr	r1, [sp, #36]
 6705 052e 1148     		ldr	r0, .L447+20
 6706 0530 FFF7FEFF 		bl	sdcRead
 6707 0534 0346     		mov	r3, r0
 6708 0536 002B     		cmp	r3, #0
 6709 0538 04D0     		beq	.L441
 6710              		.loc 7 1222 0
 6711 053a 1849     		ldr	r1, .L447+60
 6712 053c 0598     		ldr	r0, [sp, #20]
 6713 053e FFF7FEFF 		bl	chprintf
 6714              		.loc 7 1223 0
 6715 0542 49E0     		b	.L415
 6716              	.L441:
 6717              		.loc 7 1226 0
 6718 0544 4FF40072 		mov	r2, #512
 6719 0548 0F49     		ldr	r1, .L447+40
 6720 054a 0848     		ldr	r0, .L447+12
 6721 054c FFF7FEFF 		bl	memcmp
ARM GAS  C:\Users\PCHAUT~1\AppData\Local\Temp\ccLw8kky.s 			page 130


 6722 0550 0346     		mov	r3, r0
 6723 0552 002B     		cmp	r3, #0
 6724 0554 30D1     		bne	.L442
 6725              		.loc 7 1227 0
 6726 0556 1749     		ldr	r1, .L447+84
 6727 0558 0598     		ldr	r0, [sp, #20]
 6728 055a FFF7FEFF 		bl	chprintf
 6729              		.loc 7 1228 0
 6730 055e 3BE0     		b	.L415
 6731              	.L448:
 6732              		.align	2
 6733              	.L447:
 6734 0560 04120000 		.word	.LC148
 6735 0564 BC120000 		.word	.LC152
 6736 0568 CC110000 		.word	.LC146
 6737 056c 00000000 		.word	buf
 6738 0570 C4120000 		.word	.LC153
 6739 0574 00000000 		.word	SDCD1
 6740 0578 38110000 		.word	.LC139
 6741 057c D0120000 		.word	.LC154
 6742 0580 D8120000 		.word	.LC155
 6743 0584 E4120000 		.word	.LC156
 6744 0588 00000000 		.word	buf2
 6745 058c 310CC330 		.word	818089009
 6746 0590 EC120000 		.word	.LC157
 6747 0594 0C130000 		.word	.LC158
 6748 0598 20130000 		.word	.LC159
 6749 059c 48130000 		.word	.LC160
 6750 05a0 6C130000 		.word	.LC161
 6751 05a4 00020000 		.word	buf+512
 6752 05a8 00020000 		.word	buf2+512
 6753 05ac 9C130000 		.word	.LC162
 6754 05b0 C8130000 		.word	.LC163
 6755 05b4 E8130000 		.word	.LC164
 6756              	.L442:
 6757              		.loc 7 1230 0
 6758 05b8 0D4B     		ldr	r3, .L449
 6759 05ba 0E49     		ldr	r1, .L449+4
 6760 05bc 4FF40072 		mov	r2, #512
 6761 05c0 1846     		mov	r0, r3
 6762 05c2 FFF7FEFF 		bl	memcmp
 6763 05c6 0346     		mov	r3, r0
 6764 05c8 002B     		cmp	r3, #0
 6765 05ca 04D1     		bne	.L444
 6766              		.loc 7 1232 0
 6767 05cc 0A49     		ldr	r1, .L449+8
 6768 05ce 0598     		ldr	r0, [sp, #20]
 6769 05d0 FFF7FEFF 		bl	chprintf
 6770              		.loc 7 1233 0
 6771 05d4 00E0     		b	.L415
 6772              	.L444:
 6773              	.LBE11:
 6774              		.loc 7 1239 0
 6775 05d6 00BF     		nop
 6776              	.L415:
 6777              		.loc 7 1240 0
 6778 05d8 0848     		ldr	r0, .L449+12
ARM GAS  C:\Users\PCHAUT~1\AppData\Local\Temp\ccLw8kky.s 			page 131


 6779 05da FFF7FEFF 		bl	sdcDisconnect
 6780              	.L407:
 6781              		.loc 7 1241 0
 6782 05de 084B     		ldr	r3, .L449+16
 6783 05e0 0D9A     		ldr	r2, [sp, #52]
 6784 05e2 1B68     		ldr	r3, [r3]
 6785 05e4 9A42     		cmp	r2, r3
 6786 05e6 01D0     		beq	.L443
 6787 05e8 FFF7FEFF 		bl	__stack_chk_fail
 6788              	.L443:
 6789 05ec 0EB0     		add	sp, sp, #56
 6790              		.cfi_def_cfa_offset 8
 6791              		@ sp needed
 6792 05ee 10BD     		pop	{r4, pc}
 6793              	.L450:
 6794              		.align	2
 6795              	.L449:
 6796 05f0 00020000 		.word	buf+512
 6797 05f4 00020000 		.word	buf2+512
 6798 05f8 E8130000 		.word	.LC164
 6799 05fc 00000000 		.word	SDCD1
 6800 0600 00000000 		.word	__stack_chk_guard
 6801              		.cfi_endproc
 6802              	.LFE308:
 6803              		.size	cmd_sdc, .-cmd_sdc
 6804              		.global	shell_commands
 6805              		.section	.rodata
 6806 141d 000000   		.align	2
 6807              	.LC165:
 6808 1420 6D6F756E 		.ascii	"mount\000"
 6808      7400
 6809 1426 0000     		.align	2
 6810              	.LC166:
 6811 1428 756E6D6F 		.ascii	"unmount\000"
 6811      756E7400 
 6812              		.align	2
 6813              	.LC167:
 6814 1430 6765746C 		.ascii	"getlabel\000"
 6814      6162656C 
 6814      00
 6815 1439 000000   		.align	2
 6816              	.LC168:
 6817 143c 7365746C 		.ascii	"setlabel\000"
 6817      6162656C 
 6817      00
 6818 1445 000000   		.align	2
 6819              	.LC169:
 6820 1448 74726565 		.ascii	"tree\000"
 6820      00
 6821 144d 000000   		.align	2
 6822              	.LC170:
 6823 1450 66726565 		.ascii	"free\000"
 6823      00
 6824 1455 000000   		.align	2
 6825              	.LC171:
 6826 1458 6D6B6469 		.ascii	"mkdir\000"
 6826      7200
ARM GAS  C:\Users\PCHAUT~1\AppData\Local\Temp\ccLw8kky.s 			page 132


 6827 145e 0000     		.align	2
 6828              	.LC172:
 6829 1460 68656C6C 		.ascii	"hello\000"
 6829      6F00
 6830 1466 0000     		.align	2
 6831              	.LC173:
 6832 1468 63617400 		.ascii	"cat\000"
 6833              		.align	2
 6834              	.LC174:
 6835 146c 73665F70 		.ascii	"sf_play\000"
 6835      6C617900 
 6836              		.align	2
 6837              	.LC175:
 6838 1474 73665F73 		.ascii	"sf_stop\000"
 6838      746F7000 
 6839              		.align	2
 6840              	.LC176:
 6841 147c 73665F76 		.ascii	"sf_volume\000"
 6841      6F6C756D 
 6841      6500
 6842 1486 0000     		.align	2
 6843              	.LC177:
 6844 1488 6D6C5F70 		.ascii	"ml_play\000"
 6844      6C617900 
 6845              		.align	2
 6846              	.LC178:
 6847 1490 6D6C5F73 		.ascii	"ml_stop\000"
 6847      746F7000 
 6848              		.align	2
 6849              	.LC179:
 6850 1498 6D656D00 		.ascii	"mem\000"
 6851              		.align	2
 6852              	.LC180:
 6853 149c 74687265 		.ascii	"threads\000"
 6853      61647300 
 6854              		.align	2
 6855              	.LC181:
 6856 14a4 74657374 		.ascii	"test\000"
 6856      00
 6857 14a9 000000   		.align	2
 6858              	.LC182:
 6859 14ac 636C6F63 		.ascii	"clock\000"
 6859      6B00
 6860 14b2 0000     		.align	2
 6861              	.LC183:
 6862 14b4 73717274 		.ascii	"sqrt\000"
 6862      00
 6863 14b9 000000   		.align	2
 6864              	.LC184:
 6865 14bc 6174616E 		.ascii	"atan2\000"
 6865      3200
 6866 14c2 0000     		.align	2
 6867              	.LC185:
 6868 14c4 636F6E66 		.ascii	"config_tree\000"
 6868      69675F74 
 6868      72656500 
 6869              		.align	2
ARM GAS  C:\Users\PCHAUT~1\AppData\Local\Temp\ccLw8kky.s 			page 133


 6870              	.LC186:
 6871 14d0 636F6E66 		.ascii	"config_set\000"
 6871      69675F73 
 6871      657400
 6872 14db 00       		.align	2
 6873              	.LC187:
 6874 14dc 636F6E66 		.ascii	"config_save\000"
 6874      69675F73 
 6874      61766500 
 6875              		.align	2
 6876              	.LC188:
 6877 14e8 636F6E66 		.ascii	"config_load\000"
 6877      69675F6C 
 6877      6F616400 
 6878              		.align	2
 6879              	.LC189:
 6880 14f4 636F6E66 		.ascii	"config_erase\000"
 6880      69675F65 
 6880      72617365 
 6880      00
 6881 1501 000000   		.align	2
 6882              	.LC190:
 6883 1504 63616D5F 		.ascii	"cam_brightness\000"
 6883      62726967 
 6883      68746E65 
 6883      737300
 6884 1513 00       		.align	2
 6885              	.LC191:
 6886 1514 63616D5F 		.ascii	"cam_contrast\000"
 6886      636F6E74 
 6886      72617374 
 6886      00
 6887 1521 000000   		.align	2
 6888              	.LC192:
 6889 1524 63616D5F 		.ascii	"cam_conf1\000"
 6889      636F6E66 
 6889      3100
 6890 152e 0000     		.align	2
 6891              	.LC193:
 6892 1530 63616D5F 		.ascii	"cam_conf2\000"
 6892      636F6E66 
 6892      3200
 6893 153a 0000     		.align	2
 6894              	.LC194:
 6895 153c 63616D5F 		.ascii	"cam_mirror\000"
 6895      6D697272 
 6895      6F7200
 6896 1547 00       		.align	2
 6897              	.LC195:
 6898 1548 63616D5F 		.ascii	"cam_gain\000"
 6898      6761696E 
 6898      00
 6899 1551 000000   		.align	2
 6900              	.LC196:
 6901 1554 63616D5F 		.ascii	"cam_awb\000"
 6901      61776200 
 6902              		.align	2
ARM GAS  C:\Users\PCHAUT~1\AppData\Local\Temp\ccLw8kky.s 			page 134


 6903              	.LC197:
 6904 155c 63616D5F 		.ascii	"cam_ae\000"
 6904      616500
 6905 1563 00       		.align	2
 6906              	.LC198:
 6907 1564 63616D5F 		.ascii	"cam_exposure\000"
 6907      6578706F 
 6907      73757265 
 6907      00
 6908 1571 000000   		.align	2
 6909              	.LC199:
 6910 1574 63616D5F 		.ascii	"cam_dcmi_prepare\000"
 6910      64636D69 
 6910      5F707265 
 6910      70617265 
 6910      00
 6911 1585 000000   		.align	2
 6912              	.LC200:
 6913 1588 63616D5F 		.ascii	"cam_dcmi_unprepare\000"
 6913      64636D69 
 6913      5F756E70 
 6913      72657061 
 6913      726500
 6914 159b 00       		.align	2
 6915              	.LC201:
 6916 159c 63616D5F 		.ascii	"cam_capture\000"
 6916      63617074 
 6916      75726500 
 6917              		.align	2
 6918              	.LC202:
 6919 15a8 63616D5F 		.ascii	"cam_send\000"
 6919      73656E64 
 6919      00
 6920 15b1 000000   		.align	2
 6921              	.LC203:
 6922 15b4 7365745F 		.ascii	"set_led\000"
 6922      6C656400 
 6923              		.align	2
 6924              	.LC204:
 6925 15bc 7365745F 		.ascii	"set_speed\000"
 6925      73706565 
 6925      6400
 6926 15c6 0000     		.align	2
 6927              	.LC205:
 6928 15c8 62617474 		.ascii	"batt\000"
 6928      00
 6929 15cd 000000   		.align	2
 6930              	.LC206:
 6931 15d0 61756469 		.ascii	"audio_play\000"
 6931      6F5F706C 
 6931      617900
 6932 15db 00       		.align	2
 6933              	.LC207:
 6934 15dc 61756469 		.ascii	"audio_stop\000"
 6934      6F5F7374 
 6934      6F7000
 6935 15e7 00       		.align	2
ARM GAS  C:\Users\PCHAUT~1\AppData\Local\Temp\ccLw8kky.s 			page 135


 6936              	.LC208:
 6937 15e8 766F6C75 		.ascii	"volume\000"
 6937      6D6500
 6938 15ef 00       		.align	2
 6939              	.LC209:
 6940 15f0 6D69635F 		.ascii	"mic_data\000"
 6940      64617461 
 6940      00
 6941 15f9 000000   		.align	2
 6942              	.LC210:
 6943 15fc 73646300 		.ascii	"sdc\000"
 6944              		.section	.rodata.shell_commands,"a",%progbits
 6945              		.align	2
 6946              		.type	shell_commands, %object
 6947              		.size	shell_commands, 392
 6948              	shell_commands:
 6949 0000 20140000 		.word	.LC165
 6950 0004 00000000 		.word	cmd_mount
 6951 0008 28140000 		.word	.LC166
 6952 000c 00000000 		.word	cmd_unmount
 6953 0010 30140000 		.word	.LC167
 6954 0014 00000000 		.word	cmd_getlabel
 6955 0018 3C140000 		.word	.LC168
 6956 001c 00000000 		.word	cmd_setlabel
 6957 0020 48140000 		.word	.LC169
 6958 0024 00000000 		.word	cmd_tree
 6959 0028 50140000 		.word	.LC170
 6960 002c 00000000 		.word	cmd_free
 6961 0030 58140000 		.word	.LC171
 6962 0034 00000000 		.word	cmd_mkdir
 6963 0038 60140000 		.word	.LC172
 6964 003c 00000000 		.word	cmd_hello
 6965 0040 68140000 		.word	.LC173
 6966 0044 00000000 		.word	cmd_cat
 6967 0048 6C140000 		.word	.LC174
 6968 004c 00000000 		.word	cmd_sound_file_play
 6969 0050 74140000 		.word	.LC175
 6970 0054 00000000 		.word	cmd_sound_file_stop
 6971 0058 7C140000 		.word	.LC176
 6972 005c 00000000 		.word	cmd_sound_file_volume
 6973 0060 88140000 		.word	.LC177
 6974 0064 00000000 		.word	cmd_melody_play
 6975 0068 90140000 		.word	.LC178
 6976 006c 00000000 		.word	cmd_melody_stop
 6977 0070 98140000 		.word	.LC179
 6978 0074 00000000 		.word	cmd_mem
 6979 0078 9C140000 		.word	.LC180
 6980 007c 00000000 		.word	cmd_threads
 6981 0080 98140000 		.word	.LC179
 6982 0084 00000000 		.word	cmd_mem
 6983 0088 9C140000 		.word	.LC180
 6984 008c 00000000 		.word	cmd_threads
 6985 0090 A4140000 		.word	.LC181
 6986 0094 00000000 		.word	cmd_test
 6987 0098 AC140000 		.word	.LC182
 6988 009c 00000000 		.word	cmd_readclock
 6989 00a0 B4140000 		.word	.LC183
ARM GAS  C:\Users\PCHAUT~1\AppData\Local\Temp\ccLw8kky.s 			page 136


 6990 00a4 00000000 		.word	cmd_sqrt
 6991 00a8 BC140000 		.word	.LC184
 6992 00ac 00000000 		.word	cmd_atan2
 6993 00b0 C4140000 		.word	.LC185
 6994 00b4 00000000 		.word	cmd_config_tree
 6995 00b8 D0140000 		.word	.LC186
 6996 00bc 00000000 		.word	cmd_config_set
 6997 00c0 DC140000 		.word	.LC187
 6998 00c4 00000000 		.word	cmd_config_save
 6999 00c8 E8140000 		.word	.LC188
 7000 00cc 00000000 		.word	cmd_config_load
 7001 00d0 F4140000 		.word	.LC189
 7002 00d4 00000000 		.word	cmd_config_erase
 7003 00d8 04150000 		.word	.LC190
 7004 00dc 00000000 		.word	cmd_cam_set_brightness
 7005 00e0 14150000 		.word	.LC191
 7006 00e4 00000000 		.word	cmd_cam_set_contrast
 7007 00e8 24150000 		.word	.LC192
 7008 00ec 00000000 		.word	cmd_cam_set_conf1
 7009 00f0 30150000 		.word	.LC193
 7010 00f4 00000000 		.word	cmd_cam_set_conf2
 7011 00f8 3C150000 		.word	.LC194
 7012 00fc 00000000 		.word	cmd_cam_set_mirror
 7013 0100 48150000 		.word	.LC195
 7014 0104 00000000 		.word	cmd_cam_set_gain
 7015 0108 54150000 		.word	.LC196
 7016 010c 00000000 		.word	cmd_cam_set_awb
 7017 0110 5C150000 		.word	.LC197
 7018 0114 00000000 		.word	cmd_cam_set_ae
 7019 0118 64150000 		.word	.LC198
 7020 011c 00000000 		.word	cmd_cam_set_exposure
 7021 0120 74150000 		.word	.LC199
 7022 0124 00000000 		.word	cmd_cam_dcmi_prepare
 7023 0128 88150000 		.word	.LC200
 7024 012c 00000000 		.word	cmd_cam_dcmi_unprepare
 7025 0130 9C150000 		.word	.LC201
 7026 0134 00000000 		.word	cmd_cam_capture
 7027 0138 A8150000 		.word	.LC202
 7028 013c 00000000 		.word	cmd_cam_send
 7029 0140 B4150000 		.word	.LC203
 7030 0144 00000000 		.word	cmd_set_led
 7031 0148 BC150000 		.word	.LC204
 7032 014c 00000000 		.word	cmd_set_speed
 7033 0150 C8150000 		.word	.LC205
 7034 0154 00000000 		.word	cmd_get_battery
 7035 0158 D0150000 		.word	.LC206
 7036 015c 00000000 		.word	cmd_audio_play
 7037 0160 DC150000 		.word	.LC207
 7038 0164 00000000 		.word	cmd_audio_stop
 7039 0168 E8150000 		.word	.LC208
 7040 016c 00000000 		.word	cmd_volume
 7041 0170 F0150000 		.word	.LC209
 7042 0174 00000000 		.word	cmd_mic_data
 7043 0178 FC150000 		.word	.LC210
 7044 017c 00000000 		.word	cmd_sdc
 7045 0180 00000000 		.word	0
 7046 0184 00000000 		.word	0
ARM GAS  C:\Users\PCHAUT~1\AppData\Local\Temp\ccLw8kky.s 			page 137


 7047              		.section	.text.shell_spawn_thd,"ax",%progbits
 7048              		.align	1
 7049              		.p2align 4,,15
 7050              		.syntax unified
 7051              		.thumb
 7052              		.thumb_func
 7053              		.fpu fpv4-sp-d16
 7054              		.type	shell_spawn_thd, %function
 7055              	shell_spawn_thd:
 7056              	.LFB309:
 7057              		.loc 7 1296 0
 7058              		.cfi_startproc
 7059              		@ args = 0, pretend = 0, frame = 16
 7060              		@ frame_needed = 0, uses_anonymous_args = 0
 7061 0000 00B5     		push	{lr}
 7062              		.cfi_def_cfa_offset 4
 7063              		.cfi_offset 14, -4
 7064 0002 85B0     		sub	sp, sp, #20
 7065              		.cfi_def_cfa_offset 24
 7066 0004 0190     		str	r0, [sp, #4]
 7067              		.loc 7 1296 0
 7068 0006 144B     		ldr	r3, .L457
 7069 0008 1B68     		ldr	r3, [r3]
 7070 000a 0393     		str	r3, [sp, #12]
 7071              		.loc 7 1298 0
 7072 000c 0023     		movs	r3, #0
 7073 000e 0293     		str	r3, [sp, #8]
 7074              		.loc 7 1305 0
 7075 0010 FFF7FEFF 		bl	shellInit
 7076              	.L455:
 7077              		.loc 7 1308 0
 7078 0014 029B     		ldr	r3, [sp, #8]
 7079 0016 002B     		cmp	r3, #0
 7080 0018 0ED1     		bne	.L452
 7081              		.loc 7 1309 0
 7082 001a 104B     		ldr	r3, .L457+4
 7083 001c D3F85432 		ldr	r3, [r3, #596]
 7084 0020 1B68     		ldr	r3, [r3]
 7085 0022 1B78     		ldrb	r3, [r3]	@ zero_extendqisi2
 7086 0024 042B     		cmp	r3, #4
 7087 0026 12D1     		bne	.L454
 7088              		.loc 7 1310 0
 7089 0028 4022     		movs	r2, #64
 7090 002a 40F67811 		movw	r1, #2424
 7091 002e 0C48     		ldr	r0, .L457+8
 7092 0030 FFF7FEFF 		bl	shellCreate
 7093 0034 0290     		str	r0, [sp, #8]
 7094 0036 0AE0     		b	.L454
 7095              	.L452:
 7096              		.loc 7 1313 0
 7097 0038 0298     		ldr	r0, [sp, #8]
 7098 003a FFF7FEFF 		bl	chThdTerminatedX
 7099 003e 0346     		mov	r3, r0
 7100 0040 002B     		cmp	r3, #0
 7101 0042 04D0     		beq	.L454
 7102              		.loc 7 1314 0
 7103 0044 0298     		ldr	r0, [sp, #8]
ARM GAS  C:\Users\PCHAUT~1\AppData\Local\Temp\ccLw8kky.s 			page 138


 7104 0046 FFF7FEFF 		bl	chThdRelease
 7105              		.loc 7 1315 0
 7106 004a 0023     		movs	r3, #0
 7107 004c 0293     		str	r3, [sp, #8]
 7108              	.L454:
 7109              		.loc 7 1318 0
 7110 004e 4FF4FA70 		mov	r0, #500
 7111 0052 FFF7FEFF 		bl	chThdSleep
 7112              		.loc 7 1308 0
 7113 0056 DDE7     		b	.L455
 7114              	.L458:
 7115              		.align	2
 7116              	.L457:
 7117 0058 00000000 		.word	__stack_chk_guard
 7118 005c 00000000 		.word	SDU1
 7119 0060 00000000 		.word	shell_cfg.13769
 7120              		.cfi_endproc
 7121              	.LFE309:
 7122              		.size	shell_spawn_thd, .-shell_spawn_thd
 7123              		.section	.text.shell_start,"ax",%progbits
 7124              		.align	1
 7125              		.p2align 4,,15
 7126              		.global	shell_start
 7127              		.syntax unified
 7128              		.thumb
 7129              		.thumb_func
 7130              		.fpu fpv4-sp-d16
 7131              		.type	shell_start, %function
 7132              	shell_start:
 7133              	.LFB310:
 7134              		.loc 7 1324 0
 7135              		.cfi_startproc
 7136              		@ args = 0, pretend = 0, frame = 8
 7137              		@ frame_needed = 0, uses_anonymous_args = 0
 7138 0000 00B5     		push	{lr}
 7139              		.cfi_def_cfa_offset 4
 7140              		.cfi_offset 14, -4
 7141 0002 85B0     		sub	sp, sp, #20
 7142              		.cfi_def_cfa_offset 24
 7143              		.loc 7 1324 0
 7144 0004 0B4B     		ldr	r3, .L461
 7145 0006 1B68     		ldr	r3, [r3]
 7146 0008 0393     		str	r3, [sp, #12]
 7147              		.loc 7 1327 0
 7148 000a 0023     		movs	r3, #0
 7149 000c 0093     		str	r3, [sp]
 7150 000e 0A4B     		ldr	r3, .L461+4
 7151 0010 4022     		movs	r2, #64
 7152 0012 40F67811 		movw	r1, #2424
 7153 0016 0948     		ldr	r0, .L461+8
 7154 0018 FFF7FEFF 		bl	chThdCreateStatic
 7155              		.loc 7 1328 0
 7156 001c 00BF     		nop
 7157 001e 054B     		ldr	r3, .L461
 7158 0020 039A     		ldr	r2, [sp, #12]
 7159 0022 1B68     		ldr	r3, [r3]
 7160 0024 9A42     		cmp	r2, r3
ARM GAS  C:\Users\PCHAUT~1\AppData\Local\Temp\ccLw8kky.s 			page 139


 7161 0026 01D0     		beq	.L460
 7162 0028 FFF7FEFF 		bl	__stack_chk_fail
 7163              	.L460:
 7164 002c 05B0     		add	sp, sp, #20
 7165              		.cfi_def_cfa_offset 4
 7166              		@ sp needed
 7167 002e 5DF804FB 		ldr	pc, [sp], #4
 7168              	.L462:
 7169 0032 00BF     		.align	2
 7170              	.L461:
 7171 0034 00000000 		.word	__stack_chk_guard
 7172 0038 00000000 		.word	shell_spawn_thd
 7173 003c 00000000 		.word	wa.13774
 7174              		.cfi_endproc
 7175              	.LFE310:
 7176              		.size	shell_start, .-shell_start
 7177              		.section	.rodata
 7178              		.align	2
 7179              	.LC211:
 7180 1600 52454144 		.ascii	"READY\000"
 7180      5900
 7181 1606 0000     		.align	2
 7182              	.LC212:
 7183 1608 43555252 		.ascii	"CURRENT\000"
 7183      454E5400 
 7184              		.align	2
 7185              	.LC213:
 7186 1610 57545354 		.ascii	"WTSTART\000"
 7186      41525400 
 7187              		.align	2
 7188              	.LC214:
 7189 1618 53555350 		.ascii	"SUSPENDED\000"
 7189      454E4445 
 7189      4400
 7190 1622 0000     		.align	2
 7191              	.LC215:
 7192 1624 51554555 		.ascii	"QUEUED\000"
 7192      454400
 7193 162b 00       		.align	2
 7194              	.LC216:
 7195 162c 57545345 		.ascii	"WTSEM\000"
 7195      4D00
 7196 1632 0000     		.align	2
 7197              	.LC217:
 7198 1634 57544D54 		.ascii	"WTMTX\000"
 7198      5800
 7199 163a 0000     		.align	2
 7200              	.LC218:
 7201 163c 5754434F 		.ascii	"WTCOND\000"
 7201      4E4400
 7202 1643 00       		.align	2
 7203              	.LC219:
 7204 1644 534C4545 		.ascii	"SLEEPING\000"
 7204      50494E47 
 7204      00
 7205 164d 000000   		.align	2
 7206              	.LC220:
ARM GAS  C:\Users\PCHAUT~1\AppData\Local\Temp\ccLw8kky.s 			page 140


 7207 1650 57544558 		.ascii	"WTEXIT\000"
 7207      495400
 7208 1657 00       		.align	2
 7209              	.LC221:
 7210 1658 57544F52 		.ascii	"WTOREVT\000"
 7210      45565400 
 7211              		.align	2
 7212              	.LC222:
 7213 1660 5754414E 		.ascii	"WTANDEVT\000"
 7213      44455654 
 7213      00
 7214 1669 000000   		.align	2
 7215              	.LC223:
 7216 166c 534E444D 		.ascii	"SNDMSGQ\000"
 7216      53475100 
 7217              		.align	2
 7218              	.LC224:
 7219 1674 534E444D 		.ascii	"SNDMSG\000"
 7219      534700
 7220 167b 00       		.align	2
 7221              	.LC225:
 7222 167c 57544D53 		.ascii	"WTMSG\000"
 7222      4700
 7223 1682 0000     		.align	2
 7224              	.LC226:
 7225 1684 46494E41 		.ascii	"FINAL\000"
 7225      4C00
 7226              		.section	.data.states.13494,"aw",%progbits
 7227              		.align	2
 7228              		.type	states.13494, %object
 7229              		.size	states.13494, 64
 7230              	states.13494:
 7231 0000 00160000 		.word	.LC211
 7232 0004 08160000 		.word	.LC212
 7233 0008 10160000 		.word	.LC213
 7234 000c 18160000 		.word	.LC214
 7235 0010 24160000 		.word	.LC215
 7236 0014 2C160000 		.word	.LC216
 7237 0018 34160000 		.word	.LC217
 7238 001c 3C160000 		.word	.LC218
 7239 0020 44160000 		.word	.LC219
 7240 0024 50160000 		.word	.LC220
 7241 0028 58160000 		.word	.LC221
 7242 002c 60160000 		.word	.LC222
 7243 0030 6C160000 		.word	.LC223
 7244 0034 74160000 		.word	.LC224
 7245 0038 7C160000 		.word	.LC225
 7246 003c 84160000 		.word	.LC226
 7247              		.section	.rodata.__func__.8875,"a",%progbits
 7248              		.align	2
 7249              		.type	__func__.8875, %object
 7250              		.size	__func__.8875, 12
 7251              	__func__.8875:
 7252 0000 63685379 		.ascii	"chSysUnlock\000"
 7252      73556E6C 
 7252      6F636B00 
 7253              		.section	.rodata
ARM GAS  C:\Users\PCHAUT~1\AppData\Local\Temp\ccLw8kky.s 			page 141


 7254 168a 0000     		.align	2
 7255              	.LC227:
 7256 168c 53445631 		.ascii	"SDV11\000"
 7256      3100
 7257 1692 0000     		.align	2
 7258              	.LC228:
 7259 1694 53445632 		.ascii	"SDV20\000"
 7259      3000
 7260 169a 0000     		.align	2
 7261              	.LC229:
 7262 169c 4D4D4300 		.ascii	"MMC\000"
 7263              		.section	.data.mode.13741,"aw",%progbits
 7264              		.align	2
 7265              		.type	mode.13741, %object
 7266              		.size	mode.13741, 16
 7267              	mode.13741:
 7268 0000 8C160000 		.word	.LC227
 7269 0004 94160000 		.word	.LC228
 7270 0008 9C160000 		.word	.LC229
 7271 000c 00000000 		.word	0
 7272              		.section	.rodata.shell_cfg.13769,"a",%progbits
 7273              		.align	2
 7274              		.type	shell_cfg.13769, %object
 7275              		.size	shell_cfg.13769, 8
 7276              	shell_cfg.13769:
 7277 0000 00000000 		.word	SDU1
 7278 0004 00000000 		.word	shell_commands
 7279              		.section	.bss.wa.13774,"aw",%nobits
 7280              		.align	3
 7281              		.type	wa.13774, %object
 7282              		.size	wa.13774, 2424
 7283              	wa.13774:
 7284 0000 00000000 		.space	2424
 7284      00000000 
 7284      00000000 
 7284      00000000 
 7284      00000000 
 7285              		.text
 7286              	.Letext0:
 7287              		.file 8 "c:\\users\\pchautems\\documents\\robotiquetp\\eclipse_e-puck2\\tools\\gcc-arm-none-eabi-7
 7288              		.file 9 "c:\\users\\pchautems\\documents\\robotiquetp\\eclipse_e-puck2\\tools\\gcc-arm-none-eabi-7
 7289              		.file 10 "c:\\users\\pchautems\\documents\\robotiquetp\\eclipse_e-puck2\\tools\\gcc-arm-none-eabi-
 7290              		.file 11 "c:\\users\\pchautems\\documents\\robotiquetp\\eclipse_e-puck2\\tools\\gcc-arm-none-eabi-
 7291              		.file 12 "c:\\users\\pchautems\\documents\\robotiquetp\\eclipse_e-puck2\\tools\\gcc-arm-none-eabi-
 7292              		.file 13 "c:\\users\\pchautems\\documents\\robotiquetp\\eclipse_e-puck2\\tools\\gcc-arm-none-eabi-
 7293              		.file 14 "c:\\users\\pchautems\\documents\\robotiquetp\\eclipse_e-puck2\\tools\\gcc-arm-none-eabi-
 7294              		.file 15 "<built-in>"
 7295              		.file 16 "c:\\users\\pchautems\\documents\\robotiquetp\\eclipse_e-puck2\\tools\\gcc-arm-none-eabi-
 7296              		.file 17 "c:\\users\\pchautems\\documents\\robotiquetp\\eclipse_e-puck2\\tools\\gcc-arm-none-eabi-
 7297              		.file 18 "../lib/e-puck2_main-processor/ChibiOS//os/rt/ports/ARMCMx/compilers/GCC/chtypes.h"
 7298              		.file 19 "../lib/e-puck2_main-processor/ChibiOS//os/rt/include/chsystypes.h"
 7299              		.file 20 "../lib/e-puck2_main-processor/ChibiOS//os/rt/include/chschd.h"
 7300              		.file 21 "../lib/e-puck2_main-processor/ChibiOS//os/ext/CMSIS/include/core_cm4.h"
 7301              		.file 22 "../lib/e-puck2_main-processor/ChibiOS//os/ext/CMSIS/ST/system_stm32f4xx.h"
 7302              		.file 23 "../lib/e-puck2_main-processor/ChibiOS//os/ext/CMSIS/ST/stm32f407xx.h"
 7303              		.file 24 "../lib/e-puck2_main-processor/ChibiOS//os/rt/ports/ARMCMx/chcore.h"
 7304              		.file 25 "../lib/e-puck2_main-processor/ChibiOS//os/rt/include/chdebug.h"
ARM GAS  C:\Users\PCHAUT~1\AppData\Local\Temp\ccLw8kky.s 			page 142


 7305              		.file 26 "../lib/e-puck2_main-processor/ChibiOS//os/rt/include/chtm.h"
 7306              		.file 27 "../lib/e-puck2_main-processor/ChibiOS//os/rt/include/chstats.h"
 7307              		.file 28 "../lib/e-puck2_main-processor/ChibiOS//os/rt/include/chsem.h"
 7308              		.file 29 "../lib/e-puck2_main-processor/ChibiOS//os/rt/include/chmtx.h"
 7309              		.file 30 "../lib/e-puck2_main-processor/ChibiOS//os/rt/include/chregistry.h"
 7310              		.file 31 "../lib/e-puck2_main-processor/ChibiOS//os/rt/include/chevents.h"
 7311              		.file 32 "../lib/e-puck2_main-processor/ChibiOS//os/rt/include/chqueues.h"
 7312              		.file 33 "../lib/e-puck2_main-processor/ChibiOS//os/rt/include/chstreams.h"
 7313              		.file 34 "../lib/e-puck2_main-processor/ChibiOS//os/hal/ports/STM32/STM32F4xx/stm32_dma.h"
 7314              		.file 35 "../lib/e-puck2_main-processor/ChibiOS//os/hal/include/hal_ioblock.h"
 7315              		.file 36 "../lib/e-puck2_main-processor/ChibiOS//os/hal/ports/STM32/LLD/GPIOv2/pal_lld.h"
 7316              		.file 37 "../lib/e-puck2_main-processor/ChibiOS//os/hal/include/adc.h"
 7317              		.file 38 "../lib/e-puck2_main-processor/ChibiOS//os/hal/ports/STM32/STM32F4xx/adc_lld.h"
 7318              		.file 39 "../lib/e-puck2_main-processor/ChibiOS//os/hal/include/can.h"
 7319              		.file 40 "../lib/e-puck2_main-processor/ChibiOS//os/hal/ports/STM32/LLD/can_lld.h"
 7320              		.file 41 "../lib/e-puck2_main-processor/ChibiOS//os/hal/include/dac.h"
 7321              		.file 42 "../lib/e-puck2_main-processor/ChibiOS//os/hal/ports/STM32/LLD/DACv1/dac_lld.h"
 7322              		.file 43 "../lib/e-puck2_main-processor/ChibiOS//os/hal/include/ext.h"
 7323              		.file 44 "../lib/e-puck2_main-processor/ChibiOS//os/hal/ports/STM32/LLD/ext_lld.h"
 7324              		.file 45 "../lib/e-puck2_main-processor/ChibiOS//os/hal/include/gpt.h"
 7325              		.file 46 "../lib/e-puck2_main-processor/ChibiOS//os/hal/ports/STM32/LLD/TIMv1/gpt_lld.h"
 7326              		.file 47 "../lib/e-puck2_main-processor/ChibiOS//os/hal/ports/STM32/LLD/TIMv1/stm32_tim.h"
 7327              		.file 48 "../lib/e-puck2_main-processor/ChibiOS//os/hal/include/i2c.h"
 7328              		.file 49 "../lib/e-puck2_main-processor/ChibiOS//os/hal/ports/STM32/LLD/I2Cv1/i2c_lld.h"
 7329              		.file 50 "../lib/e-puck2_main-processor/ChibiOS//os/hal/include/i2s.h"
 7330              		.file 51 "../lib/e-puck2_main-processor/ChibiOS//os/hal/ports/STM32/LLD/SPIv1/i2s_lld.h"
 7331              		.file 52 "../lib/e-puck2_main-processor/ChibiOS//os/hal/include/pwm.h"
 7332              		.file 53 "../lib/e-puck2_main-processor/ChibiOS//os/hal/ports/STM32/LLD/TIMv1/pwm_lld.h"
 7333              		.file 54 "../lib/e-puck2_main-processor/ChibiOS//os/hal/include/serial.h"
 7334              		.file 55 "../lib/e-puck2_main-processor/ChibiOS//os/hal/ports/STM32/LLD/USARTv1/serial_lld.h"
 7335              		.file 56 "../lib/e-puck2_main-processor/ChibiOS//os/hal/include/sdc.h"
 7336              		.file 57 "../lib/e-puck2_main-processor/ChibiOS//os/hal/ports/STM32/LLD/sdc_lld.h"
 7337              		.file 58 "../lib/e-puck2_main-processor/ChibiOS//os/hal/include/spi.h"
 7338              		.file 59 "../lib/e-puck2_main-processor/ChibiOS//os/hal/ports/STM32/LLD/SPIv1/spi_lld.h"
 7339              		.file 60 "../lib/e-puck2_main-processor/ChibiOS//os/hal/include/usb.h"
 7340              		.file 61 "../lib/e-puck2_main-processor/ChibiOS//os/hal/ports/STM32/LLD/OTGv1/usb_lld.h"
 7341              		.file 62 "../lib/e-puck2_main-processor/ChibiOS//os/hal/ports/STM32/LLD/OTGv1/stm32_otg.h"
 7342              		.file 63 "../lib/e-puck2_main-processor/ChibiOS//os/hal/include/serial_usb.h"
 7343              		.file 64 "../lib/e-puck2_main-processor/ChibiOS//test/rt/test.h"
 7344              		.file 65 "../lib/e-puck2_main-processor/ChibiOS//os/various/shell.h"
 7345              		.file 66 "../lib/e-puck2_main-processor/src/usbcfg.h"
 7346              		.file 67 "c:\\users\\pchautems\\documents\\robotiquetp\\eclipse_e-puck2\\tools\\gcc-arm-none-eabi-
 7347              		.file 68 "../lib/e-puck2_main-processor/aseba/common/types.h"
 7348              		.file 69 "../lib/e-puck2_main-processor/aseba/vm/vm.h"
 7349              		.file 70 "../lib/e-puck2_main-processor/aseba/vm/natives.h"
 7350              		.file 71 "../lib/e-puck2_main-processor/src/camera/po8030.h"
 7351              		.file 72 "../lib/e-puck2_main-processor/ChibiOS_ext/os/hal/include/../ports/STM32/STM32F4xx/dcmi_l
 7352              		.file 73 "../lib/e-puck2_main-processor/src/camera/dcmi_camera.h"
 7353              		.file 74 "../lib/e-puck2_main-processor/src/parameter/parameter.h"
 7354              		.file 75 "c:\\users\\pchautems\\documents\\robotiquetp\\eclipse_e-puck2\\tools\\gcc-arm-none-eabi-
 7355              		.file 76 "../lib/e-puck2_main-processor/src/msgbus/messagebus.h"
 7356              		.file 77 "./main.h"
 7357              		.file 78 "../lib/e-puck2_main-processor/ChibiOS_ext//ext/fatfs/src/integer.h"
 7358              		.file 79 "../lib/e-puck2_main-processor/ChibiOS_ext//ext/fatfs/src/ff.h"
 7359              		.file 80 "../lib/e-puck2_main-processor/src/audio/play_sound_file.h"
 7360              		.file 81 "../lib/e-puck2_main-processor/src/audio/play_melody.h"
 7361              		.section	.debug_info,"",%progbits
ARM GAS  C:\Users\PCHAUT~1\AppData\Local\Temp\ccLw8kky.s 			page 143


 7362              	.Ldebug_info0:
 7363 0000 D1600000 		.4byte	0x60d1
 7364 0004 0400     		.2byte	0x4
 7365 0006 00000000 		.4byte	.Ldebug_abbrev0
 7366 000a 04       		.byte	0x4
 7367 000b 01       		.uleb128 0x1
 7368 000c 390B0000 		.4byte	.LASF1145
 7369 0010 0C       		.byte	0xc
 7370 0011 ED2C0000 		.4byte	.LASF1146
 7371 0015 D3000000 		.4byte	.LASF1147
 7372 0019 00000000 		.4byte	.Ldebug_ranges0+0
 7373 001d 00000000 		.4byte	0
 7374 0021 00000000 		.4byte	.Ldebug_line0
 7375 0025 02       		.uleb128 0x2
 7376 0026 04       		.byte	0x4
 7377 0027 05       		.byte	0x5
 7378 0028 696E7400 		.ascii	"int\000"
 7379 002c 03       		.uleb128 0x3
 7380 002d 8F110000 		.4byte	.LASF3
 7381 0031 08       		.byte	0x8
 7382 0032 D8       		.byte	0xd8
 7383 0033 37000000 		.4byte	0x37
 7384 0037 04       		.uleb128 0x4
 7385 0038 04       		.byte	0x4
 7386 0039 07       		.byte	0x7
 7387 003a 3C300000 		.4byte	.LASF0
 7388 003e 04       		.uleb128 0x4
 7389 003f 08       		.byte	0x8
 7390 0040 05       		.byte	0x5
 7391 0041 D62C0000 		.4byte	.LASF1
 7392 0045 04       		.uleb128 0x4
 7393 0046 08       		.byte	0x8
 7394 0047 04       		.byte	0x4
 7395 0048 6F200000 		.4byte	.LASF2
 7396 004c 03       		.uleb128 0x3
 7397 004d C22F0000 		.4byte	.LASF4
 7398 0051 09       		.byte	0x9
 7399 0052 29       		.byte	0x29
 7400 0053 57000000 		.4byte	0x57
 7401 0057 04       		.uleb128 0x4
 7402 0058 01       		.byte	0x1
 7403 0059 06       		.byte	0x6
 7404 005a ED1A0000 		.4byte	.LASF5
 7405 005e 03       		.uleb128 0x3
 7406 005f 7E010000 		.4byte	.LASF6
 7407 0063 09       		.byte	0x9
 7408 0064 2B       		.byte	0x2b
 7409 0065 69000000 		.4byte	0x69
 7410 0069 04       		.uleb128 0x4
 7411 006a 01       		.byte	0x1
 7412 006b 08       		.byte	0x8
 7413 006c 0C0D0000 		.4byte	.LASF7
 7414 0070 03       		.uleb128 0x3
 7415 0071 9C090000 		.4byte	.LASF8
 7416 0075 09       		.byte	0x9
 7417 0076 37       		.byte	0x37
 7418 0077 7B000000 		.4byte	0x7b
ARM GAS  C:\Users\PCHAUT~1\AppData\Local\Temp\ccLw8kky.s 			page 144


 7419 007b 04       		.uleb128 0x4
 7420 007c 02       		.byte	0x2
 7421 007d 05       		.byte	0x5
 7422 007e F8300000 		.4byte	.LASF9
 7423 0082 03       		.uleb128 0x3
 7424 0083 A6090000 		.4byte	.LASF10
 7425 0087 09       		.byte	0x9
 7426 0088 39       		.byte	0x39
 7427 0089 8D000000 		.4byte	0x8d
 7428 008d 04       		.uleb128 0x4
 7429 008e 02       		.byte	0x2
 7430 008f 07       		.byte	0x7
 7431 0090 D21A0000 		.4byte	.LASF11
 7432 0094 03       		.uleb128 0x3
 7433 0095 D0260000 		.4byte	.LASF12
 7434 0099 09       		.byte	0x9
 7435 009a 4D       		.byte	0x4d
 7436 009b 9F000000 		.4byte	0x9f
 7437 009f 04       		.uleb128 0x4
 7438 00a0 04       		.byte	0x4
 7439 00a1 05       		.byte	0x5
 7440 00a2 991E0000 		.4byte	.LASF13
 7441 00a6 03       		.uleb128 0x3
 7442 00a7 F1260000 		.4byte	.LASF14
 7443 00ab 09       		.byte	0x9
 7444 00ac 4F       		.byte	0x4f
 7445 00ad B1000000 		.4byte	0xb1
 7446 00b1 04       		.uleb128 0x4
 7447 00b2 04       		.byte	0x4
 7448 00b3 07       		.byte	0x7
 7449 00b4 C3200000 		.4byte	.LASF15
 7450 00b8 03       		.uleb128 0x3
 7451 00b9 CC150000 		.4byte	.LASF16
 7452 00bd 09       		.byte	0x9
 7453 00be 69       		.byte	0x69
 7454 00bf C3000000 		.4byte	0xc3
 7455 00c3 04       		.uleb128 0x4
 7456 00c4 08       		.byte	0x8
 7457 00c5 07       		.byte	0x7
 7458 00c6 9D290000 		.4byte	.LASF17
 7459 00ca 03       		.uleb128 0x3
 7460 00cb 54090000 		.4byte	.LASF18
 7461 00cf 0A       		.byte	0xa
 7462 00d0 22       		.byte	0x22
 7463 00d1 D5000000 		.4byte	0xd5
 7464 00d5 05       		.uleb128 0x5
 7465 00d6 04       		.byte	0x4
 7466 00d7 DB000000 		.4byte	0xdb
 7467 00db 06       		.uleb128 0x6
 7468 00dc 00070000 		.4byte	.LASF125
 7469 00e0 03       		.uleb128 0x3
 7470 00e1 5F110000 		.4byte	.LASF19
 7471 00e5 0B       		.byte	0xb
 7472 00e6 2C       		.byte	0x2c
 7473 00e7 9F000000 		.4byte	0x9f
 7474 00eb 03       		.uleb128 0x3
 7475 00ec 7F250000 		.4byte	.LASF20
ARM GAS  C:\Users\PCHAUT~1\AppData\Local\Temp\ccLw8kky.s 			page 145


 7476 00f0 0B       		.byte	0xb
 7477 00f1 72       		.byte	0x72
 7478 00f2 9F000000 		.4byte	0x9f
 7479 00f6 07       		.uleb128 0x7
 7480 00f7 EF130000 		.4byte	.LASF21
 7481 00fb 08       		.byte	0x8
 7482 00fc 6501     		.2byte	0x165
 7483 00fe 37000000 		.4byte	0x37
 7484 0102 08       		.uleb128 0x8
 7485 0103 04       		.byte	0x4
 7486 0104 0B       		.byte	0xb
 7487 0105 A6       		.byte	0xa6
 7488 0106 21010000 		.4byte	0x121
 7489 010a 09       		.uleb128 0x9
 7490 010b 4E1D0000 		.4byte	.LASF22
 7491 010f 0B       		.byte	0xb
 7492 0110 A8       		.byte	0xa8
 7493 0111 F6000000 		.4byte	0xf6
 7494 0115 09       		.uleb128 0x9
 7495 0116 5E130000 		.4byte	.LASF23
 7496 011a 0B       		.byte	0xb
 7497 011b A9       		.byte	0xa9
 7498 011c 21010000 		.4byte	0x121
 7499 0120 00       		.byte	0
 7500 0121 0A       		.uleb128 0xa
 7501 0122 69000000 		.4byte	0x69
 7502 0126 31010000 		.4byte	0x131
 7503 012a 0B       		.uleb128 0xb
 7504 012b 37000000 		.4byte	0x37
 7505 012f 03       		.byte	0x3
 7506 0130 00       		.byte	0
 7507 0131 0C       		.uleb128 0xc
 7508 0132 08       		.byte	0x8
 7509 0133 0B       		.byte	0xb
 7510 0134 A3       		.byte	0xa3
 7511 0135 52010000 		.4byte	0x152
 7512 0139 0D       		.uleb128 0xd
 7513 013a BD110000 		.4byte	.LASF24
 7514 013e 0B       		.byte	0xb
 7515 013f A5       		.byte	0xa5
 7516 0140 25000000 		.4byte	0x25
 7517 0144 00       		.byte	0
 7518 0145 0D       		.uleb128 0xd
 7519 0146 55270000 		.4byte	.LASF25
 7520 014a 0B       		.byte	0xb
 7521 014b AA       		.byte	0xaa
 7522 014c 02010000 		.4byte	0x102
 7523 0150 04       		.byte	0x4
 7524 0151 00       		.byte	0
 7525 0152 03       		.uleb128 0x3
 7526 0153 39260000 		.4byte	.LASF26
 7527 0157 0B       		.byte	0xb
 7528 0158 AB       		.byte	0xab
 7529 0159 31010000 		.4byte	0x131
 7530 015d 03       		.uleb128 0x3
 7531 015e F02B0000 		.4byte	.LASF27
 7532 0162 0B       		.byte	0xb
ARM GAS  C:\Users\PCHAUT~1\AppData\Local\Temp\ccLw8kky.s 			page 146


 7533 0163 AF       		.byte	0xaf
 7534 0164 CA000000 		.4byte	0xca
 7535 0168 0E       		.uleb128 0xe
 7536 0169 04       		.byte	0x4
 7537 016a 0F       		.uleb128 0xf
 7538 016b 68010000 		.4byte	0x168
 7539 016f 05       		.uleb128 0x5
 7540 0170 04       		.byte	0x4
 7541 0171 75010000 		.4byte	0x175
 7542 0175 04       		.uleb128 0x4
 7543 0176 01       		.byte	0x1
 7544 0177 08       		.byte	0x8
 7545 0178 86210000 		.4byte	.LASF28
 7546 017c 0F       		.uleb128 0xf
 7547 017d 75010000 		.4byte	0x175
 7548 0181 03       		.uleb128 0x3
 7549 0182 69190000 		.4byte	.LASF29
 7550 0186 0C       		.byte	0xc
 7551 0187 16       		.byte	0x16
 7552 0188 B1000000 		.4byte	0xb1
 7553 018c 10       		.uleb128 0x10
 7554 018d 72220000 		.4byte	.LASF34
 7555 0191 18       		.byte	0x18
 7556 0192 0C       		.byte	0xc
 7557 0193 2F       		.byte	0x2f
 7558 0194 DF010000 		.4byte	0x1df
 7559 0198 0D       		.uleb128 0xd
 7560 0199 09160000 		.4byte	.LASF30
 7561 019d 0C       		.byte	0xc
 7562 019e 31       		.byte	0x31
 7563 019f DF010000 		.4byte	0x1df
 7564 01a3 00       		.byte	0
 7565 01a4 11       		.uleb128 0x11
 7566 01a5 5F6B00   		.ascii	"_k\000"
 7567 01a8 0C       		.byte	0xc
 7568 01a9 32       		.byte	0x32
 7569 01aa 25000000 		.4byte	0x25
 7570 01ae 04       		.byte	0x4
 7571 01af 0D       		.uleb128 0xd
 7572 01b0 1C200000 		.4byte	.LASF31
 7573 01b4 0C       		.byte	0xc
 7574 01b5 32       		.byte	0x32
 7575 01b6 25000000 		.4byte	0x25
 7576 01ba 08       		.byte	0x8
 7577 01bb 0D       		.uleb128 0xd
 7578 01bc BC2F0000 		.4byte	.LASF32
 7579 01c0 0C       		.byte	0xc
 7580 01c1 32       		.byte	0x32
 7581 01c2 25000000 		.4byte	0x25
 7582 01c6 0C       		.byte	0xc
 7583 01c7 0D       		.uleb128 0xd
 7584 01c8 A10D0000 		.4byte	.LASF33
 7585 01cc 0C       		.byte	0xc
 7586 01cd 32       		.byte	0x32
 7587 01ce 25000000 		.4byte	0x25
 7588 01d2 10       		.byte	0x10
 7589 01d3 11       		.uleb128 0x11
ARM GAS  C:\Users\PCHAUT~1\AppData\Local\Temp\ccLw8kky.s 			page 147


 7590 01d4 5F7800   		.ascii	"_x\000"
 7591 01d7 0C       		.byte	0xc
 7592 01d8 33       		.byte	0x33
 7593 01d9 E5010000 		.4byte	0x1e5
 7594 01dd 14       		.byte	0x14
 7595 01de 00       		.byte	0
 7596 01df 05       		.uleb128 0x5
 7597 01e0 04       		.byte	0x4
 7598 01e1 8C010000 		.4byte	0x18c
 7599 01e5 0A       		.uleb128 0xa
 7600 01e6 81010000 		.4byte	0x181
 7601 01ea F5010000 		.4byte	0x1f5
 7602 01ee 0B       		.uleb128 0xb
 7603 01ef 37000000 		.4byte	0x37
 7604 01f3 00       		.byte	0
 7605 01f4 00       		.byte	0
 7606 01f5 10       		.uleb128 0x10
 7607 01f6 7D080000 		.4byte	.LASF35
 7608 01fa 24       		.byte	0x24
 7609 01fb 0C       		.byte	0xc
 7610 01fc 37       		.byte	0x37
 7611 01fd 6E020000 		.4byte	0x26e
 7612 0201 0D       		.uleb128 0xd
 7613 0202 F5170000 		.4byte	.LASF36
 7614 0206 0C       		.byte	0xc
 7615 0207 39       		.byte	0x39
 7616 0208 25000000 		.4byte	0x25
 7617 020c 00       		.byte	0
 7618 020d 0D       		.uleb128 0xd
 7619 020e DD2F0000 		.4byte	.LASF37
 7620 0212 0C       		.byte	0xc
 7621 0213 3A       		.byte	0x3a
 7622 0214 25000000 		.4byte	0x25
 7623 0218 04       		.byte	0x4
 7624 0219 0D       		.uleb128 0xd
 7625 021a 7F130000 		.4byte	.LASF38
 7626 021e 0C       		.byte	0xc
 7627 021f 3B       		.byte	0x3b
 7628 0220 25000000 		.4byte	0x25
 7629 0224 08       		.byte	0x8
 7630 0225 0D       		.uleb128 0xd
 7631 0226 E5140000 		.4byte	.LASF39
 7632 022a 0C       		.byte	0xc
 7633 022b 3C       		.byte	0x3c
 7634 022c 25000000 		.4byte	0x25
 7635 0230 0C       		.byte	0xc
 7636 0231 0D       		.uleb128 0xd
 7637 0232 5A020000 		.4byte	.LASF40
 7638 0236 0C       		.byte	0xc
 7639 0237 3D       		.byte	0x3d
 7640 0238 25000000 		.4byte	0x25
 7641 023c 10       		.byte	0x10
 7642 023d 0D       		.uleb128 0xd
 7643 023e 6E0F0000 		.4byte	.LASF41
 7644 0242 0C       		.byte	0xc
 7645 0243 3E       		.byte	0x3e
 7646 0244 25000000 		.4byte	0x25
ARM GAS  C:\Users\PCHAUT~1\AppData\Local\Temp\ccLw8kky.s 			page 148


 7647 0248 14       		.byte	0x14
 7648 0249 0D       		.uleb128 0xd
 7649 024a D10C0000 		.4byte	.LASF42
 7650 024e 0C       		.byte	0xc
 7651 024f 3F       		.byte	0x3f
 7652 0250 25000000 		.4byte	0x25
 7653 0254 18       		.byte	0x18
 7654 0255 0D       		.uleb128 0xd
 7655 0256 00090000 		.4byte	.LASF43
 7656 025a 0C       		.byte	0xc
 7657 025b 40       		.byte	0x40
 7658 025c 25000000 		.4byte	0x25
 7659 0260 1C       		.byte	0x1c
 7660 0261 0D       		.uleb128 0xd
 7661 0262 880C0000 		.4byte	.LASF44
 7662 0266 0C       		.byte	0xc
 7663 0267 41       		.byte	0x41
 7664 0268 25000000 		.4byte	0x25
 7665 026c 20       		.byte	0x20
 7666 026d 00       		.byte	0
 7667 026e 12       		.uleb128 0x12
 7668 026f 16180000 		.4byte	.LASF45
 7669 0273 0801     		.2byte	0x108
 7670 0275 0C       		.byte	0xc
 7671 0276 4A       		.byte	0x4a
 7672 0277 AE020000 		.4byte	0x2ae
 7673 027b 0D       		.uleb128 0xd
 7674 027c 1B150000 		.4byte	.LASF46
 7675 0280 0C       		.byte	0xc
 7676 0281 4B       		.byte	0x4b
 7677 0282 AE020000 		.4byte	0x2ae
 7678 0286 00       		.byte	0
 7679 0287 0D       		.uleb128 0xd
 7680 0288 E20A0000 		.4byte	.LASF47
 7681 028c 0C       		.byte	0xc
 7682 028d 4C       		.byte	0x4c
 7683 028e AE020000 		.4byte	0x2ae
 7684 0292 80       		.byte	0x80
 7685 0293 13       		.uleb128 0x13
 7686 0294 63020000 		.4byte	.LASF48
 7687 0298 0C       		.byte	0xc
 7688 0299 4E       		.byte	0x4e
 7689 029a 81010000 		.4byte	0x181
 7690 029e 0001     		.2byte	0x100
 7691 02a0 13       		.uleb128 0x13
 7692 02a1 73270000 		.4byte	.LASF49
 7693 02a5 0C       		.byte	0xc
 7694 02a6 51       		.byte	0x51
 7695 02a7 81010000 		.4byte	0x181
 7696 02ab 0401     		.2byte	0x104
 7697 02ad 00       		.byte	0
 7698 02ae 0A       		.uleb128 0xa
 7699 02af 68010000 		.4byte	0x168
 7700 02b3 BE020000 		.4byte	0x2be
 7701 02b7 0B       		.uleb128 0xb
 7702 02b8 37000000 		.4byte	0x37
 7703 02bc 1F       		.byte	0x1f
ARM GAS  C:\Users\PCHAUT~1\AppData\Local\Temp\ccLw8kky.s 			page 149


 7704 02bd 00       		.byte	0
 7705 02be 12       		.uleb128 0x12
 7706 02bf E4010000 		.4byte	.LASF50
 7707 02c3 9001     		.2byte	0x190
 7708 02c5 0C       		.byte	0xc
 7709 02c6 5D       		.byte	0x5d
 7710 02c7 FC020000 		.4byte	0x2fc
 7711 02cb 0D       		.uleb128 0xd
 7712 02cc 09160000 		.4byte	.LASF30
 7713 02d0 0C       		.byte	0xc
 7714 02d1 5E       		.byte	0x5e
 7715 02d2 FC020000 		.4byte	0x2fc
 7716 02d6 00       		.byte	0
 7717 02d7 0D       		.uleb128 0xd
 7718 02d8 96020000 		.4byte	.LASF51
 7719 02dc 0C       		.byte	0xc
 7720 02dd 5F       		.byte	0x5f
 7721 02de 25000000 		.4byte	0x25
 7722 02e2 04       		.byte	0x4
 7723 02e3 0D       		.uleb128 0xd
 7724 02e4 EF250000 		.4byte	.LASF52
 7725 02e8 0C       		.byte	0xc
 7726 02e9 61       		.byte	0x61
 7727 02ea 02030000 		.4byte	0x302
 7728 02ee 08       		.byte	0x8
 7729 02ef 0D       		.uleb128 0xd
 7730 02f0 16180000 		.4byte	.LASF45
 7731 02f4 0C       		.byte	0xc
 7732 02f5 62       		.byte	0x62
 7733 02f6 6E020000 		.4byte	0x26e
 7734 02fa 88       		.byte	0x88
 7735 02fb 00       		.byte	0
 7736 02fc 05       		.uleb128 0x5
 7737 02fd 04       		.byte	0x4
 7738 02fe BE020000 		.4byte	0x2be
 7739 0302 0A       		.uleb128 0xa
 7740 0303 12030000 		.4byte	0x312
 7741 0307 12030000 		.4byte	0x312
 7742 030b 0B       		.uleb128 0xb
 7743 030c 37000000 		.4byte	0x37
 7744 0310 1F       		.byte	0x1f
 7745 0311 00       		.byte	0
 7746 0312 05       		.uleb128 0x5
 7747 0313 04       		.byte	0x4
 7748 0314 18030000 		.4byte	0x318
 7749 0318 14       		.uleb128 0x14
 7750 0319 10       		.uleb128 0x10
 7751 031a A21C0000 		.4byte	.LASF53
 7752 031e 08       		.byte	0x8
 7753 031f 0C       		.byte	0xc
 7754 0320 75       		.byte	0x75
 7755 0321 3E030000 		.4byte	0x33e
 7756 0325 0D       		.uleb128 0xd
 7757 0326 8D070000 		.4byte	.LASF54
 7758 032a 0C       		.byte	0xc
 7759 032b 76       		.byte	0x76
 7760 032c 3E030000 		.4byte	0x33e
ARM GAS  C:\Users\PCHAUT~1\AppData\Local\Temp\ccLw8kky.s 			page 150


 7761 0330 00       		.byte	0
 7762 0331 0D       		.uleb128 0xd
 7763 0332 130E0000 		.4byte	.LASF55
 7764 0336 0C       		.byte	0xc
 7765 0337 77       		.byte	0x77
 7766 0338 25000000 		.4byte	0x25
 7767 033c 04       		.byte	0x4
 7768 033d 00       		.byte	0
 7769 033e 05       		.uleb128 0x5
 7770 033f 04       		.byte	0x4
 7771 0340 69000000 		.4byte	0x69
 7772 0344 10       		.uleb128 0x10
 7773 0345 D6250000 		.4byte	.LASF56
 7774 0349 68       		.byte	0x68
 7775 034a 0C       		.byte	0xc
 7776 034b B5       		.byte	0xb5
 7777 034c 6E040000 		.4byte	0x46e
 7778 0350 11       		.uleb128 0x11
 7779 0351 5F7000   		.ascii	"_p\000"
 7780 0354 0C       		.byte	0xc
 7781 0355 B6       		.byte	0xb6
 7782 0356 3E030000 		.4byte	0x33e
 7783 035a 00       		.byte	0
 7784 035b 11       		.uleb128 0x11
 7785 035c 5F7200   		.ascii	"_r\000"
 7786 035f 0C       		.byte	0xc
 7787 0360 B7       		.byte	0xb7
 7788 0361 25000000 		.4byte	0x25
 7789 0365 04       		.byte	0x4
 7790 0366 11       		.uleb128 0x11
 7791 0367 5F7700   		.ascii	"_w\000"
 7792 036a 0C       		.byte	0xc
 7793 036b B8       		.byte	0xb8
 7794 036c 25000000 		.4byte	0x25
 7795 0370 08       		.byte	0x8
 7796 0371 0D       		.uleb128 0xd
 7797 0372 F7020000 		.4byte	.LASF57
 7798 0376 0C       		.byte	0xc
 7799 0377 B9       		.byte	0xb9
 7800 0378 7B000000 		.4byte	0x7b
 7801 037c 0C       		.byte	0xc
 7802 037d 0D       		.uleb128 0xd
 7803 037e 9C250000 		.4byte	.LASF58
 7804 0382 0C       		.byte	0xc
 7805 0383 BA       		.byte	0xba
 7806 0384 7B000000 		.4byte	0x7b
 7807 0388 0E       		.byte	0xe
 7808 0389 11       		.uleb128 0x11
 7809 038a 5F626600 		.ascii	"_bf\000"
 7810 038e 0C       		.byte	0xc
 7811 038f BB       		.byte	0xbb
 7812 0390 19030000 		.4byte	0x319
 7813 0394 10       		.byte	0x10
 7814 0395 0D       		.uleb128 0xd
 7815 0396 CD050000 		.4byte	.LASF59
 7816 039a 0C       		.byte	0xc
 7817 039b BC       		.byte	0xbc
ARM GAS  C:\Users\PCHAUT~1\AppData\Local\Temp\ccLw8kky.s 			page 151


 7818 039c 25000000 		.4byte	0x25
 7819 03a0 18       		.byte	0x18
 7820 03a1 0D       		.uleb128 0xd
 7821 03a2 5B160000 		.4byte	.LASF60
 7822 03a6 0C       		.byte	0xc
 7823 03a7 C3       		.byte	0xc3
 7824 03a8 68010000 		.4byte	0x168
 7825 03ac 1C       		.byte	0x1c
 7826 03ad 0D       		.uleb128 0xd
 7827 03ae 10310000 		.4byte	.LASF61
 7828 03b2 0C       		.byte	0xc
 7829 03b3 C5       		.byte	0xc5
 7830 03b4 C9050000 		.4byte	0x5c9
 7831 03b8 20       		.byte	0x20
 7832 03b9 0D       		.uleb128 0xd
 7833 03ba 7F0E0000 		.4byte	.LASF62
 7834 03be 0C       		.byte	0xc
 7835 03bf C7       		.byte	0xc7
 7836 03c0 F8050000 		.4byte	0x5f8
 7837 03c4 24       		.byte	0x24
 7838 03c5 0D       		.uleb128 0xd
 7839 03c6 951A0000 		.4byte	.LASF63
 7840 03ca 0C       		.byte	0xc
 7841 03cb CA       		.byte	0xca
 7842 03cc 1C060000 		.4byte	0x61c
 7843 03d0 28       		.byte	0x28
 7844 03d1 0D       		.uleb128 0xd
 7845 03d2 7F210000 		.4byte	.LASF64
 7846 03d6 0C       		.byte	0xc
 7847 03d7 CB       		.byte	0xcb
 7848 03d8 36060000 		.4byte	0x636
 7849 03dc 2C       		.byte	0x2c
 7850 03dd 11       		.uleb128 0x11
 7851 03de 5F756200 		.ascii	"_ub\000"
 7852 03e2 0C       		.byte	0xc
 7853 03e3 CE       		.byte	0xce
 7854 03e4 19030000 		.4byte	0x319
 7855 03e8 30       		.byte	0x30
 7856 03e9 11       		.uleb128 0x11
 7857 03ea 5F757000 		.ascii	"_up\000"
 7858 03ee 0C       		.byte	0xc
 7859 03ef CF       		.byte	0xcf
 7860 03f0 3E030000 		.4byte	0x33e
 7861 03f4 38       		.byte	0x38
 7862 03f5 11       		.uleb128 0x11
 7863 03f6 5F757200 		.ascii	"_ur\000"
 7864 03fa 0C       		.byte	0xc
 7865 03fb D0       		.byte	0xd0
 7866 03fc 25000000 		.4byte	0x25
 7867 0400 3C       		.byte	0x3c
 7868 0401 0D       		.uleb128 0xd
 7869 0402 9C240000 		.4byte	.LASF65
 7870 0406 0C       		.byte	0xc
 7871 0407 D3       		.byte	0xd3
 7872 0408 3C060000 		.4byte	0x63c
 7873 040c 40       		.byte	0x40
 7874 040d 0D       		.uleb128 0xd
ARM GAS  C:\Users\PCHAUT~1\AppData\Local\Temp\ccLw8kky.s 			page 152


 7875 040e E5030000 		.4byte	.LASF66
 7876 0412 0C       		.byte	0xc
 7877 0413 D4       		.byte	0xd4
 7878 0414 4C060000 		.4byte	0x64c
 7879 0418 43       		.byte	0x43
 7880 0419 11       		.uleb128 0x11
 7881 041a 5F6C6200 		.ascii	"_lb\000"
 7882 041e 0C       		.byte	0xc
 7883 041f D7       		.byte	0xd7
 7884 0420 19030000 		.4byte	0x319
 7885 0424 44       		.byte	0x44
 7886 0425 0D       		.uleb128 0xd
 7887 0426 7E240000 		.4byte	.LASF67
 7888 042a 0C       		.byte	0xc
 7889 042b DA       		.byte	0xda
 7890 042c 25000000 		.4byte	0x25
 7891 0430 4C       		.byte	0x4c
 7892 0431 0D       		.uleb128 0xd
 7893 0432 1B1C0000 		.4byte	.LASF68
 7894 0436 0C       		.byte	0xc
 7895 0437 DB       		.byte	0xdb
 7896 0438 E0000000 		.4byte	0xe0
 7897 043c 50       		.byte	0x50
 7898 043d 0D       		.uleb128 0xd
 7899 043e 4C060000 		.4byte	.LASF69
 7900 0442 0C       		.byte	0xc
 7901 0443 DE       		.byte	0xde
 7902 0444 8C040000 		.4byte	0x48c
 7903 0448 54       		.byte	0x54
 7904 0449 0D       		.uleb128 0xd
 7905 044a DF030000 		.4byte	.LASF70
 7906 044e 0C       		.byte	0xc
 7907 044f E2       		.byte	0xe2
 7908 0450 5D010000 		.4byte	0x15d
 7909 0454 58       		.byte	0x58
 7910 0455 0D       		.uleb128 0xd
 7911 0456 CB010000 		.4byte	.LASF71
 7912 045a 0C       		.byte	0xc
 7913 045b E4       		.byte	0xe4
 7914 045c 52010000 		.4byte	0x152
 7915 0460 5C       		.byte	0x5c
 7916 0461 0D       		.uleb128 0xd
 7917 0462 362D0000 		.4byte	.LASF72
 7918 0466 0C       		.byte	0xc
 7919 0467 E5       		.byte	0xe5
 7920 0468 25000000 		.4byte	0x25
 7921 046c 64       		.byte	0x64
 7922 046d 00       		.byte	0
 7923 046e 15       		.uleb128 0x15
 7924 046f 25000000 		.4byte	0x25
 7925 0473 8C040000 		.4byte	0x48c
 7926 0477 16       		.uleb128 0x16
 7927 0478 8C040000 		.4byte	0x48c
 7928 047c 16       		.uleb128 0x16
 7929 047d 68010000 		.4byte	0x168
 7930 0481 16       		.uleb128 0x16
 7931 0482 6F010000 		.4byte	0x16f
ARM GAS  C:\Users\PCHAUT~1\AppData\Local\Temp\ccLw8kky.s 			page 153


 7932 0486 16       		.uleb128 0x16
 7933 0487 25000000 		.4byte	0x25
 7934 048b 00       		.byte	0
 7935 048c 05       		.uleb128 0x5
 7936 048d 04       		.byte	0x4
 7937 048e 97040000 		.4byte	0x497
 7938 0492 0F       		.uleb128 0xf
 7939 0493 8C040000 		.4byte	0x48c
 7940 0497 17       		.uleb128 0x17
 7941 0498 16070000 		.4byte	.LASF73
 7942 049c 2804     		.2byte	0x428
 7943 049e 0C       		.byte	0xc
 7944 049f 3902     		.2byte	0x239
 7945 04a1 C9050000 		.4byte	0x5c9
 7946 04a5 18       		.uleb128 0x18
 7947 04a6 B1140000 		.4byte	.LASF74
 7948 04aa 0C       		.byte	0xc
 7949 04ab 3B02     		.2byte	0x23b
 7950 04ad 25000000 		.4byte	0x25
 7951 04b1 00       		.byte	0
 7952 04b2 18       		.uleb128 0x18
 7953 04b3 9F100000 		.4byte	.LASF75
 7954 04b7 0C       		.byte	0xc
 7955 04b8 4002     		.2byte	0x240
 7956 04ba A3060000 		.4byte	0x6a3
 7957 04be 04       		.byte	0x4
 7958 04bf 18       		.uleb128 0x18
 7959 04c0 1A0D0000 		.4byte	.LASF76
 7960 04c4 0C       		.byte	0xc
 7961 04c5 4002     		.2byte	0x240
 7962 04c7 A3060000 		.4byte	0x6a3
 7963 04cb 08       		.byte	0x8
 7964 04cc 18       		.uleb128 0x18
 7965 04cd B10A0000 		.4byte	.LASF77
 7966 04d1 0C       		.byte	0xc
 7967 04d2 4002     		.2byte	0x240
 7968 04d4 A3060000 		.4byte	0x6a3
 7969 04d8 0C       		.byte	0xc
 7970 04d9 18       		.uleb128 0x18
 7971 04da 91020000 		.4byte	.LASF78
 7972 04de 0C       		.byte	0xc
 7973 04df 4202     		.2byte	0x242
 7974 04e1 25000000 		.4byte	0x25
 7975 04e5 10       		.byte	0x10
 7976 04e6 18       		.uleb128 0x18
 7977 04e7 7B1F0000 		.4byte	.LASF79
 7978 04eb 0C       		.byte	0xc
 7979 04ec 4302     		.2byte	0x243
 7980 04ee 85080000 		.4byte	0x885
 7981 04f2 14       		.byte	0x14
 7982 04f3 18       		.uleb128 0x18
 7983 04f4 132B0000 		.4byte	.LASF80
 7984 04f8 0C       		.byte	0xc
 7985 04f9 4602     		.2byte	0x246
 7986 04fb 25000000 		.4byte	0x25
 7987 04ff 30       		.byte	0x30
 7988 0500 18       		.uleb128 0x18
ARM GAS  C:\Users\PCHAUT~1\AppData\Local\Temp\ccLw8kky.s 			page 154


 7989 0501 992D0000 		.4byte	.LASF81
 7990 0505 0C       		.byte	0xc
 7991 0506 4702     		.2byte	0x247
 7992 0508 9A080000 		.4byte	0x89a
 7993 050c 34       		.byte	0x34
 7994 050d 18       		.uleb128 0x18
 7995 050e 8A2B0000 		.4byte	.LASF82
 7996 0512 0C       		.byte	0xc
 7997 0513 4902     		.2byte	0x249
 7998 0515 25000000 		.4byte	0x25
 7999 0519 38       		.byte	0x38
 8000 051a 18       		.uleb128 0x18
 8001 051b DF240000 		.4byte	.LASF83
 8002 051f 0C       		.byte	0xc
 8003 0520 4B02     		.2byte	0x24b
 8004 0522 AB080000 		.4byte	0x8ab
 8005 0526 3C       		.byte	0x3c
 8006 0527 18       		.uleb128 0x18
 8007 0528 B90A0000 		.4byte	.LASF84
 8008 052c 0C       		.byte	0xc
 8009 052d 4E02     		.2byte	0x24e
 8010 052f DF010000 		.4byte	0x1df
 8011 0533 40       		.byte	0x40
 8012 0534 18       		.uleb128 0x18
 8013 0535 A20A0000 		.4byte	.LASF85
 8014 0539 0C       		.byte	0xc
 8015 053a 4F02     		.2byte	0x24f
 8016 053c 25000000 		.4byte	0x25
 8017 0540 44       		.byte	0x44
 8018 0541 18       		.uleb128 0x18
 8019 0542 D1270000 		.4byte	.LASF86
 8020 0546 0C       		.byte	0xc
 8021 0547 5002     		.2byte	0x250
 8022 0549 DF010000 		.4byte	0x1df
 8023 054d 48       		.byte	0x48
 8024 054e 18       		.uleb128 0x18
 8025 054f D01B0000 		.4byte	.LASF87
 8026 0553 0C       		.byte	0xc
 8027 0554 5102     		.2byte	0x251
 8028 0556 B1080000 		.4byte	0x8b1
 8029 055a 4C       		.byte	0x4c
 8030 055b 18       		.uleb128 0x18
 8031 055c 3C030000 		.4byte	.LASF88
 8032 0560 0C       		.byte	0xc
 8033 0561 5402     		.2byte	0x254
 8034 0563 25000000 		.4byte	0x25
 8035 0567 50       		.byte	0x50
 8036 0568 18       		.uleb128 0x18
 8037 0569 9E120000 		.4byte	.LASF89
 8038 056d 0C       		.byte	0xc
 8039 056e 5502     		.2byte	0x255
 8040 0570 6F010000 		.4byte	0x16f
 8041 0574 54       		.byte	0x54
 8042 0575 18       		.uleb128 0x18
 8043 0576 27140000 		.4byte	.LASF90
 8044 057a 0C       		.byte	0xc
 8045 057b 7802     		.2byte	0x278
ARM GAS  C:\Users\PCHAUT~1\AppData\Local\Temp\ccLw8kky.s 			page 155


 8046 057d 63080000 		.4byte	0x863
 8047 0581 58       		.byte	0x58
 8048 0582 19       		.uleb128 0x19
 8049 0583 E4010000 		.4byte	.LASF50
 8050 0587 0C       		.byte	0xc
 8051 0588 7C02     		.2byte	0x27c
 8052 058a FC020000 		.4byte	0x2fc
 8053 058e 4801     		.2byte	0x148
 8054 0590 19       		.uleb128 0x19
 8055 0591 D6220000 		.4byte	.LASF91
 8056 0595 0C       		.byte	0xc
 8057 0596 7D02     		.2byte	0x27d
 8058 0598 BE020000 		.4byte	0x2be
 8059 059c 4C01     		.2byte	0x14c
 8060 059e 19       		.uleb128 0x19
 8061 059f 81030000 		.4byte	.LASF92
 8062 05a3 0C       		.byte	0xc
 8063 05a4 8102     		.2byte	0x281
 8064 05a6 C2080000 		.4byte	0x8c2
 8065 05aa DC02     		.2byte	0x2dc
 8066 05ac 19       		.uleb128 0x19
 8067 05ad BD240000 		.4byte	.LASF93
 8068 05b1 0C       		.byte	0xc
 8069 05b2 8602     		.2byte	0x286
 8070 05b4 68060000 		.4byte	0x668
 8071 05b8 E002     		.2byte	0x2e0
 8072 05ba 19       		.uleb128 0x19
 8073 05bb 5D070000 		.4byte	.LASF94
 8074 05bf 0C       		.byte	0xc
 8075 05c0 8802     		.2byte	0x288
 8076 05c2 CE080000 		.4byte	0x8ce
 8077 05c6 EC02     		.2byte	0x2ec
 8078 05c8 00       		.byte	0
 8079 05c9 05       		.uleb128 0x5
 8080 05ca 04       		.byte	0x4
 8081 05cb 6E040000 		.4byte	0x46e
 8082 05cf 15       		.uleb128 0x15
 8083 05d0 25000000 		.4byte	0x25
 8084 05d4 ED050000 		.4byte	0x5ed
 8085 05d8 16       		.uleb128 0x16
 8086 05d9 8C040000 		.4byte	0x48c
 8087 05dd 16       		.uleb128 0x16
 8088 05de 68010000 		.4byte	0x168
 8089 05e2 16       		.uleb128 0x16
 8090 05e3 ED050000 		.4byte	0x5ed
 8091 05e7 16       		.uleb128 0x16
 8092 05e8 25000000 		.4byte	0x25
 8093 05ec 00       		.byte	0
 8094 05ed 05       		.uleb128 0x5
 8095 05ee 04       		.byte	0x4
 8096 05ef 7C010000 		.4byte	0x17c
 8097 05f3 1A       		.uleb128 0x1a
 8098 05f4 ED050000 		.4byte	0x5ed
 8099 05f8 05       		.uleb128 0x5
 8100 05f9 04       		.byte	0x4
 8101 05fa CF050000 		.4byte	0x5cf
 8102 05fe 15       		.uleb128 0x15
ARM GAS  C:\Users\PCHAUT~1\AppData\Local\Temp\ccLw8kky.s 			page 156


 8103 05ff EB000000 		.4byte	0xeb
 8104 0603 1C060000 		.4byte	0x61c
 8105 0607 16       		.uleb128 0x16
 8106 0608 8C040000 		.4byte	0x48c
 8107 060c 16       		.uleb128 0x16
 8108 060d 68010000 		.4byte	0x168
 8109 0611 16       		.uleb128 0x16
 8110 0612 EB000000 		.4byte	0xeb
 8111 0616 16       		.uleb128 0x16
 8112 0617 25000000 		.4byte	0x25
 8113 061b 00       		.byte	0
 8114 061c 05       		.uleb128 0x5
 8115 061d 04       		.byte	0x4
 8116 061e FE050000 		.4byte	0x5fe
 8117 0622 15       		.uleb128 0x15
 8118 0623 25000000 		.4byte	0x25
 8119 0627 36060000 		.4byte	0x636
 8120 062b 16       		.uleb128 0x16
 8121 062c 8C040000 		.4byte	0x48c
 8122 0630 16       		.uleb128 0x16
 8123 0631 68010000 		.4byte	0x168
 8124 0635 00       		.byte	0
 8125 0636 05       		.uleb128 0x5
 8126 0637 04       		.byte	0x4
 8127 0638 22060000 		.4byte	0x622
 8128 063c 0A       		.uleb128 0xa
 8129 063d 69000000 		.4byte	0x69
 8130 0641 4C060000 		.4byte	0x64c
 8131 0645 0B       		.uleb128 0xb
 8132 0646 37000000 		.4byte	0x37
 8133 064a 02       		.byte	0x2
 8134 064b 00       		.byte	0
 8135 064c 0A       		.uleb128 0xa
 8136 064d 69000000 		.4byte	0x69
 8137 0651 5C060000 		.4byte	0x65c
 8138 0655 0B       		.uleb128 0xb
 8139 0656 37000000 		.4byte	0x37
 8140 065a 00       		.byte	0
 8141 065b 00       		.byte	0
 8142 065c 07       		.uleb128 0x7
 8143 065d 712F0000 		.4byte	.LASF95
 8144 0661 0C       		.byte	0xc
 8145 0662 1F01     		.2byte	0x11f
 8146 0664 44030000 		.4byte	0x344
 8147 0668 1B       		.uleb128 0x1b
 8148 0669 BB210000 		.4byte	.LASF96
 8149 066d 0C       		.byte	0xc
 8150 066e 0C       		.byte	0xc
 8151 066f 2301     		.2byte	0x123
 8152 0671 9D060000 		.4byte	0x69d
 8153 0675 18       		.uleb128 0x18
 8154 0676 09160000 		.4byte	.LASF30
 8155 067a 0C       		.byte	0xc
 8156 067b 2501     		.2byte	0x125
 8157 067d 9D060000 		.4byte	0x69d
 8158 0681 00       		.byte	0
 8159 0682 18       		.uleb128 0x18
ARM GAS  C:\Users\PCHAUT~1\AppData\Local\Temp\ccLw8kky.s 			page 157


 8160 0683 6A140000 		.4byte	.LASF97
 8161 0687 0C       		.byte	0xc
 8162 0688 2601     		.2byte	0x126
 8163 068a 25000000 		.4byte	0x25
 8164 068e 04       		.byte	0x4
 8165 068f 18       		.uleb128 0x18
 8166 0690 751F0000 		.4byte	.LASF98
 8167 0694 0C       		.byte	0xc
 8168 0695 2701     		.2byte	0x127
 8169 0697 A3060000 		.4byte	0x6a3
 8170 069b 08       		.byte	0x8
 8171 069c 00       		.byte	0
 8172 069d 05       		.uleb128 0x5
 8173 069e 04       		.byte	0x4
 8174 069f 68060000 		.4byte	0x668
 8175 06a3 05       		.uleb128 0x5
 8176 06a4 04       		.byte	0x4
 8177 06a5 5C060000 		.4byte	0x65c
 8178 06a9 1B       		.uleb128 0x1b
 8179 06aa 3B310000 		.4byte	.LASF99
 8180 06ae 0E       		.byte	0xe
 8181 06af 0C       		.byte	0xc
 8182 06b0 3F01     		.2byte	0x13f
 8183 06b2 DE060000 		.4byte	0x6de
 8184 06b6 18       		.uleb128 0x18
 8185 06b7 801A0000 		.4byte	.LASF100
 8186 06bb 0C       		.byte	0xc
 8187 06bc 4001     		.2byte	0x140
 8188 06be DE060000 		.4byte	0x6de
 8189 06c2 00       		.byte	0
 8190 06c3 18       		.uleb128 0x18
 8191 06c4 C80F0000 		.4byte	.LASF101
 8192 06c8 0C       		.byte	0xc
 8193 06c9 4101     		.2byte	0x141
 8194 06cb DE060000 		.4byte	0x6de
 8195 06cf 06       		.byte	0x6
 8196 06d0 18       		.uleb128 0x18
 8197 06d1 FF040000 		.4byte	.LASF102
 8198 06d5 0C       		.byte	0xc
 8199 06d6 4201     		.2byte	0x142
 8200 06d8 8D000000 		.4byte	0x8d
 8201 06dc 0C       		.byte	0xc
 8202 06dd 00       		.byte	0
 8203 06de 0A       		.uleb128 0xa
 8204 06df 8D000000 		.4byte	0x8d
 8205 06e3 EE060000 		.4byte	0x6ee
 8206 06e7 0B       		.uleb128 0xb
 8207 06e8 37000000 		.4byte	0x37
 8208 06ec 02       		.byte	0x2
 8209 06ed 00       		.byte	0
 8210 06ee 1C       		.uleb128 0x1c
 8211 06ef D0       		.byte	0xd0
 8212 06f0 0C       		.byte	0xc
 8213 06f1 5902     		.2byte	0x259
 8214 06f3 EF070000 		.4byte	0x7ef
 8215 06f7 18       		.uleb128 0x18
 8216 06f8 CF090000 		.4byte	.LASF103
ARM GAS  C:\Users\PCHAUT~1\AppData\Local\Temp\ccLw8kky.s 			page 158


 8217 06fc 0C       		.byte	0xc
 8218 06fd 5B02     		.2byte	0x25b
 8219 06ff 37000000 		.4byte	0x37
 8220 0703 00       		.byte	0
 8221 0704 18       		.uleb128 0x18
 8222 0705 311A0000 		.4byte	.LASF104
 8223 0709 0C       		.byte	0xc
 8224 070a 5C02     		.2byte	0x25c
 8225 070c 6F010000 		.4byte	0x16f
 8226 0710 04       		.byte	0x4
 8227 0711 18       		.uleb128 0x18
 8228 0712 221D0000 		.4byte	.LASF105
 8229 0716 0C       		.byte	0xc
 8230 0717 5D02     		.2byte	0x25d
 8231 0719 EF070000 		.4byte	0x7ef
 8232 071d 08       		.byte	0x8
 8233 071e 18       		.uleb128 0x18
 8234 071f 96110000 		.4byte	.LASF106
 8235 0723 0C       		.byte	0xc
 8236 0724 5E02     		.2byte	0x25e
 8237 0726 F5010000 		.4byte	0x1f5
 8238 072a 24       		.byte	0x24
 8239 072b 18       		.uleb128 0x18
 8240 072c FC290000 		.4byte	.LASF107
 8241 0730 0C       		.byte	0xc
 8242 0731 5F02     		.2byte	0x25f
 8243 0733 25000000 		.4byte	0x25
 8244 0737 48       		.byte	0x48
 8245 0738 18       		.uleb128 0x18
 8246 0739 A61F0000 		.4byte	.LASF108
 8247 073d 0C       		.byte	0xc
 8248 073e 6002     		.2byte	0x260
 8249 0740 C3000000 		.4byte	0xc3
 8250 0744 50       		.byte	0x50
 8251 0745 18       		.uleb128 0x18
 8252 0746 53300000 		.4byte	.LASF109
 8253 074a 0C       		.byte	0xc
 8254 074b 6102     		.2byte	0x261
 8255 074d A9060000 		.4byte	0x6a9
 8256 0751 58       		.byte	0x58
 8257 0752 18       		.uleb128 0x18
 8258 0753 B0240000 		.4byte	.LASF110
 8259 0757 0C       		.byte	0xc
 8260 0758 6202     		.2byte	0x262
 8261 075a 52010000 		.4byte	0x152
 8262 075e 68       		.byte	0x68
 8263 075f 18       		.uleb128 0x18
 8264 0760 AB070000 		.4byte	.LASF111
 8265 0764 0C       		.byte	0xc
 8266 0765 6302     		.2byte	0x263
 8267 0767 52010000 		.4byte	0x152
 8268 076b 70       		.byte	0x70
 8269 076c 18       		.uleb128 0x18
 8270 076d D11E0000 		.4byte	.LASF112
 8271 0771 0C       		.byte	0xc
 8272 0772 6402     		.2byte	0x264
 8273 0774 52010000 		.4byte	0x152
ARM GAS  C:\Users\PCHAUT~1\AppData\Local\Temp\ccLw8kky.s 			page 159


 8274 0778 78       		.byte	0x78
 8275 0779 18       		.uleb128 0x18
 8276 077a CA1C0000 		.4byte	.LASF113
 8277 077e 0C       		.byte	0xc
 8278 077f 6502     		.2byte	0x265
 8279 0781 FF070000 		.4byte	0x7ff
 8280 0785 80       		.byte	0x80
 8281 0786 18       		.uleb128 0x18
 8282 0787 3D160000 		.4byte	.LASF114
 8283 078b 0C       		.byte	0xc
 8284 078c 6602     		.2byte	0x266
 8285 078e 0F080000 		.4byte	0x80f
 8286 0792 88       		.byte	0x88
 8287 0793 18       		.uleb128 0x18
 8288 0794 28230000 		.4byte	.LASF115
 8289 0798 0C       		.byte	0xc
 8290 0799 6702     		.2byte	0x267
 8291 079b 25000000 		.4byte	0x25
 8292 079f A0       		.byte	0xa0
 8293 07a0 18       		.uleb128 0x18
 8294 07a1 2B100000 		.4byte	.LASF116
 8295 07a5 0C       		.byte	0xc
 8296 07a6 6802     		.2byte	0x268
 8297 07a8 52010000 		.4byte	0x152
 8298 07ac A4       		.byte	0xa4
 8299 07ad 18       		.uleb128 0x18
 8300 07ae 65130000 		.4byte	.LASF117
 8301 07b2 0C       		.byte	0xc
 8302 07b3 6902     		.2byte	0x269
 8303 07b5 52010000 		.4byte	0x152
 8304 07b9 AC       		.byte	0xac
 8305 07ba 18       		.uleb128 0x18
 8306 07bb 880D0000 		.4byte	.LASF118
 8307 07bf 0C       		.byte	0xc
 8308 07c0 6A02     		.2byte	0x26a
 8309 07c2 52010000 		.4byte	0x152
 8310 07c6 B4       		.byte	0xb4
 8311 07c7 18       		.uleb128 0x18
 8312 07c8 A6180000 		.4byte	.LASF119
 8313 07cc 0C       		.byte	0xc
 8314 07cd 6B02     		.2byte	0x26b
 8315 07cf 52010000 		.4byte	0x152
 8316 07d3 BC       		.byte	0xbc
 8317 07d4 18       		.uleb128 0x18
 8318 07d5 971D0000 		.4byte	.LASF120
 8319 07d9 0C       		.byte	0xc
 8320 07da 6C02     		.2byte	0x26c
 8321 07dc 52010000 		.4byte	0x152
 8322 07e0 C4       		.byte	0xc4
 8323 07e1 18       		.uleb128 0x18
 8324 07e2 44260000 		.4byte	.LASF121
 8325 07e6 0C       		.byte	0xc
 8326 07e7 6D02     		.2byte	0x26d
 8327 07e9 25000000 		.4byte	0x25
 8328 07ed CC       		.byte	0xcc
 8329 07ee 00       		.byte	0
 8330 07ef 0A       		.uleb128 0xa
ARM GAS  C:\Users\PCHAUT~1\AppData\Local\Temp\ccLw8kky.s 			page 160


 8331 07f0 75010000 		.4byte	0x175
 8332 07f4 FF070000 		.4byte	0x7ff
 8333 07f8 0B       		.uleb128 0xb
 8334 07f9 37000000 		.4byte	0x37
 8335 07fd 19       		.byte	0x19
 8336 07fe 00       		.byte	0
 8337 07ff 0A       		.uleb128 0xa
 8338 0800 75010000 		.4byte	0x175
 8339 0804 0F080000 		.4byte	0x80f
 8340 0808 0B       		.uleb128 0xb
 8341 0809 37000000 		.4byte	0x37
 8342 080d 07       		.byte	0x7
 8343 080e 00       		.byte	0
 8344 080f 0A       		.uleb128 0xa
 8345 0810 75010000 		.4byte	0x175
 8346 0814 1F080000 		.4byte	0x81f
 8347 0818 0B       		.uleb128 0xb
 8348 0819 37000000 		.4byte	0x37
 8349 081d 17       		.byte	0x17
 8350 081e 00       		.byte	0
 8351 081f 1C       		.uleb128 0x1c
 8352 0820 F0       		.byte	0xf0
 8353 0821 0C       		.byte	0xc
 8354 0822 7202     		.2byte	0x272
 8355 0824 43080000 		.4byte	0x843
 8356 0828 18       		.uleb128 0x18
 8357 0829 991F0000 		.4byte	.LASF122
 8358 082d 0C       		.byte	0xc
 8359 082e 7502     		.2byte	0x275
 8360 0830 43080000 		.4byte	0x843
 8361 0834 00       		.byte	0
 8362 0835 18       		.uleb128 0x18
 8363 0836 A6100000 		.4byte	.LASF123
 8364 083a 0C       		.byte	0xc
 8365 083b 7602     		.2byte	0x276
 8366 083d 53080000 		.4byte	0x853
 8367 0841 78       		.byte	0x78
 8368 0842 00       		.byte	0
 8369 0843 0A       		.uleb128 0xa
 8370 0844 3E030000 		.4byte	0x33e
 8371 0848 53080000 		.4byte	0x853
 8372 084c 0B       		.uleb128 0xb
 8373 084d 37000000 		.4byte	0x37
 8374 0851 1D       		.byte	0x1d
 8375 0852 00       		.byte	0
 8376 0853 0A       		.uleb128 0xa
 8377 0854 37000000 		.4byte	0x37
 8378 0858 63080000 		.4byte	0x863
 8379 085c 0B       		.uleb128 0xb
 8380 085d 37000000 		.4byte	0x37
 8381 0861 1D       		.byte	0x1d
 8382 0862 00       		.byte	0
 8383 0863 1D       		.uleb128 0x1d
 8384 0864 F0       		.byte	0xf0
 8385 0865 0C       		.byte	0xc
 8386 0866 5702     		.2byte	0x257
 8387 0868 85080000 		.4byte	0x885
ARM GAS  C:\Users\PCHAUT~1\AppData\Local\Temp\ccLw8kky.s 			page 161


 8388 086c 1E       		.uleb128 0x1e
 8389 086d 16070000 		.4byte	.LASF73
 8390 0871 0C       		.byte	0xc
 8391 0872 6E02     		.2byte	0x26e
 8392 0874 EE060000 		.4byte	0x6ee
 8393 0878 1E       		.uleb128 0x1e
 8394 0879 09040000 		.4byte	.LASF124
 8395 087d 0C       		.byte	0xc
 8396 087e 7702     		.2byte	0x277
 8397 0880 1F080000 		.4byte	0x81f
 8398 0884 00       		.byte	0
 8399 0885 0A       		.uleb128 0xa
 8400 0886 75010000 		.4byte	0x175
 8401 088a 95080000 		.4byte	0x895
 8402 088e 0B       		.uleb128 0xb
 8403 088f 37000000 		.4byte	0x37
 8404 0893 18       		.byte	0x18
 8405 0894 00       		.byte	0
 8406 0895 06       		.uleb128 0x6
 8407 0896 C5240000 		.4byte	.LASF126
 8408 089a 05       		.uleb128 0x5
 8409 089b 04       		.byte	0x4
 8410 089c 95080000 		.4byte	0x895
 8411 08a0 1F       		.uleb128 0x1f
 8412 08a1 AB080000 		.4byte	0x8ab
 8413 08a5 16       		.uleb128 0x16
 8414 08a6 8C040000 		.4byte	0x48c
 8415 08aa 00       		.byte	0
 8416 08ab 05       		.uleb128 0x5
 8417 08ac 04       		.byte	0x4
 8418 08ad A0080000 		.4byte	0x8a0
 8419 08b1 05       		.uleb128 0x5
 8420 08b2 04       		.byte	0x4
 8421 08b3 DF010000 		.4byte	0x1df
 8422 08b7 1F       		.uleb128 0x1f
 8423 08b8 C2080000 		.4byte	0x8c2
 8424 08bc 16       		.uleb128 0x16
 8425 08bd 25000000 		.4byte	0x25
 8426 08c1 00       		.byte	0
 8427 08c2 05       		.uleb128 0x5
 8428 08c3 04       		.byte	0x4
 8429 08c4 C8080000 		.4byte	0x8c8
 8430 08c8 05       		.uleb128 0x5
 8431 08c9 04       		.byte	0x4
 8432 08ca B7080000 		.4byte	0x8b7
 8433 08ce 0A       		.uleb128 0xa
 8434 08cf 5C060000 		.4byte	0x65c
 8435 08d3 DE080000 		.4byte	0x8de
 8436 08d7 0B       		.uleb128 0xb
 8437 08d8 37000000 		.4byte	0x37
 8438 08dc 02       		.byte	0x2
 8439 08dd 00       		.byte	0
 8440 08de 20       		.uleb128 0x20
 8441 08df 4E240000 		.4byte	.LASF127
 8442 08e3 0C       		.byte	0xc
 8443 08e4 0703     		.2byte	0x307
 8444 08e6 8C040000 		.4byte	0x48c
ARM GAS  C:\Users\PCHAUT~1\AppData\Local\Temp\ccLw8kky.s 			page 162


 8445 08ea 20       		.uleb128 0x20
 8446 08eb F02A0000 		.4byte	.LASF128
 8447 08ef 0C       		.byte	0xc
 8448 08f0 0803     		.2byte	0x308
 8449 08f2 92040000 		.4byte	0x492
 8450 08f6 04       		.uleb128 0x4
 8451 08f7 04       		.byte	0x4
 8452 08f8 04       		.byte	0x4
 8453 08f9 A60D0000 		.4byte	.LASF129
 8454 08fd 04       		.uleb128 0x4
 8455 08fe 08       		.byte	0x8
 8456 08ff 04       		.byte	0x4
 8457 0900 E8250000 		.4byte	.LASF130
 8458 0904 21       		.uleb128 0x21
 8459 0905 331E0000 		.4byte	.LASF1148
 8460 0909 05       		.byte	0x5
 8461 090a 01       		.byte	0x1
 8462 090b 57000000 		.4byte	0x57
 8463 090f 0D       		.byte	0xd
 8464 0910 8202     		.2byte	0x282
 8465 0912 2F090000 		.4byte	0x92f
 8466 0916 22       		.uleb128 0x22
 8467 0917 4B1B0000 		.4byte	.LASF131
 8468 091b 7F       		.sleb128 -1
 8469 091c 23       		.uleb128 0x23
 8470 091d 73030000 		.4byte	.LASF132
 8471 0921 00       		.byte	0
 8472 0922 23       		.uleb128 0x23
 8473 0923 49010000 		.4byte	.LASF133
 8474 0927 01       		.byte	0x1
 8475 0928 23       		.uleb128 0x23
 8476 0929 A72B0000 		.4byte	.LASF134
 8477 092d 02       		.byte	0x2
 8478 092e 00       		.byte	0
 8479 092f 20       		.uleb128 0x20
 8480 0930 A70C0000 		.4byte	.LASF135
 8481 0934 0D       		.byte	0xd
 8482 0935 8D02     		.2byte	0x28d
 8483 0937 04090000 		.4byte	0x904
 8484 093b 03       		.uleb128 0x3
 8485 093c 0C0B0000 		.4byte	.LASF136
 8486 0940 0E       		.byte	0xe
 8487 0941 28       		.byte	0x28
 8488 0942 46090000 		.4byte	0x946
 8489 0946 10       		.uleb128 0x10
 8490 0947 AD310000 		.4byte	.LASF137
 8491 094b 04       		.byte	0x4
 8492 094c 0F       		.byte	0xf
 8493 094d 00       		.byte	0
 8494 094e 5D090000 		.4byte	0x95d
 8495 0952 24       		.uleb128 0x24
 8496 0953 C92B0000 		.4byte	.LASF138
 8497 0957 68010000 		.4byte	0x168
 8498 095b 00       		.byte	0
 8499 095c 00       		.byte	0
 8500 095d 03       		.uleb128 0x3
 8501 095e 97100000 		.4byte	.LASF139
ARM GAS  C:\Users\PCHAUT~1\AppData\Local\Temp\ccLw8kky.s 			page 163


 8502 0962 10       		.byte	0x10
 8503 0963 2E       		.byte	0x2e
 8504 0964 3B090000 		.4byte	0x93b
 8505 0968 03       		.uleb128 0x3
 8506 0969 62190000 		.4byte	.LASF140
 8507 096d 11       		.byte	0x11
 8508 096e 14       		.byte	0x14
 8509 096f 4C000000 		.4byte	0x4c
 8510 0973 03       		.uleb128 0x3
 8511 0974 C5110000 		.4byte	.LASF141
 8512 0978 11       		.byte	0x11
 8513 0979 18       		.byte	0x18
 8514 097a 5E000000 		.4byte	0x5e
 8515 097e 0F       		.uleb128 0xf
 8516 097f 73090000 		.4byte	0x973
 8517 0983 03       		.uleb128 0x3
 8518 0984 AD1A0000 		.4byte	.LASF142
 8519 0988 11       		.byte	0x11
 8520 0989 20       		.byte	0x20
 8521 098a 70000000 		.4byte	0x70
 8522 098e 03       		.uleb128 0x3
 8523 098f D0020000 		.4byte	.LASF143
 8524 0993 11       		.byte	0x11
 8525 0994 24       		.byte	0x24
 8526 0995 82000000 		.4byte	0x82
 8527 0999 03       		.uleb128 0x3
 8528 099a D1040000 		.4byte	.LASF144
 8529 099e 11       		.byte	0x11
 8530 099f 2C       		.byte	0x2c
 8531 09a0 94000000 		.4byte	0x94
 8532 09a4 1A       		.uleb128 0x1a
 8533 09a5 99090000 		.4byte	0x999
 8534 09a9 03       		.uleb128 0x3
 8535 09aa F01F0000 		.4byte	.LASF145
 8536 09ae 11       		.byte	0x11
 8537 09af 30       		.byte	0x30
 8538 09b0 A6000000 		.4byte	0xa6
 8539 09b4 1A       		.uleb128 0x1a
 8540 09b5 A9090000 		.4byte	0x9a9
 8541 09b9 0F       		.uleb128 0xf
 8542 09ba B4090000 		.4byte	0x9b4
 8543 09be 03       		.uleb128 0x3
 8544 09bf F30E0000 		.4byte	.LASF146
 8545 09c3 11       		.byte	0x11
 8546 09c4 3C       		.byte	0x3c
 8547 09c5 B8000000 		.4byte	0xb8
 8548 09c9 03       		.uleb128 0x3
 8549 09ca 09110000 		.4byte	.LASF147
 8550 09ce 12       		.byte	0x12
 8551 09cf 45       		.byte	0x45
 8552 09d0 A9090000 		.4byte	0x9a9
 8553 09d4 03       		.uleb128 0x3
 8554 09d5 2A070000 		.4byte	.LASF148
 8555 09d9 12       		.byte	0x12
 8556 09da 46       		.byte	0x46
 8557 09db BE090000 		.4byte	0x9be
 8558 09df 03       		.uleb128 0x3
ARM GAS  C:\Users\PCHAUT~1\AppData\Local\Temp\ccLw8kky.s 			page 164


 8559 09e0 4B180000 		.4byte	.LASF149
 8560 09e4 12       		.byte	0x12
 8561 09e5 48       		.byte	0x48
 8562 09e6 73090000 		.4byte	0x973
 8563 09ea 03       		.uleb128 0x3
 8564 09eb E72A0000 		.4byte	.LASF150
 8565 09ef 12       		.byte	0x12
 8566 09f0 49       		.byte	0x49
 8567 09f1 73090000 		.4byte	0x973
 8568 09f5 03       		.uleb128 0x3
 8569 09f6 A2170000 		.4byte	.LASF151
 8570 09fa 12       		.byte	0x12
 8571 09fb 4A       		.byte	0x4a
 8572 09fc 73090000 		.4byte	0x973
 8573 0a00 03       		.uleb128 0x3
 8574 0a01 271A0000 		.4byte	.LASF152
 8575 0a05 12       		.byte	0x12
 8576 0a06 4B       		.byte	0x4b
 8577 0a07 73090000 		.4byte	0x973
 8578 0a0b 03       		.uleb128 0x3
 8579 0a0c 52080000 		.4byte	.LASF153
 8580 0a10 12       		.byte	0x12
 8581 0a11 4C       		.byte	0x4c
 8582 0a12 A9090000 		.4byte	0x9a9
 8583 0a16 03       		.uleb128 0x3
 8584 0a17 A1000000 		.4byte	.LASF154
 8585 0a1b 12       		.byte	0x12
 8586 0a1c 4D       		.byte	0x4d
 8587 0a1d 99090000 		.4byte	0x999
 8588 0a21 03       		.uleb128 0x3
 8589 0a22 84200000 		.4byte	.LASF155
 8590 0a26 12       		.byte	0x12
 8591 0a27 4F       		.byte	0x4f
 8592 0a28 A9090000 		.4byte	0x9a9
 8593 0a2c 03       		.uleb128 0x3
 8594 0a2d AA2D0000 		.4byte	.LASF156
 8595 0a31 12       		.byte	0x12
 8596 0a32 50       		.byte	0x50
 8597 0a33 A9090000 		.4byte	0x9a9
 8598 0a37 03       		.uleb128 0x3
 8599 0a38 A0230000 		.4byte	.LASF157
 8600 0a3c 12       		.byte	0x12
 8601 0a3d 51       		.byte	0x51
 8602 0a3e 99090000 		.4byte	0x999
 8603 0a42 03       		.uleb128 0x3
 8604 0a43 251B0000 		.4byte	.LASF158
 8605 0a47 12       		.byte	0x12
 8606 0a48 52       		.byte	0x52
 8607 0a49 A9090000 		.4byte	0x9a9
 8608 0a4d 03       		.uleb128 0x3
 8609 0a4e E5040000 		.4byte	.LASF159
 8610 0a52 13       		.byte	0x13
 8611 0a53 33       		.byte	0x33
 8612 0a54 A9090000 		.4byte	0x9a9
 8613 0a58 1A       		.uleb128 0x1a
 8614 0a59 4D0A0000 		.4byte	0xa4d
 8615 0a5d 03       		.uleb128 0x3
ARM GAS  C:\Users\PCHAUT~1\AppData\Local\Temp\ccLw8kky.s 			page 165


 8616 0a5e 77040000 		.4byte	.LASF160
 8617 0a62 13       		.byte	0x13
 8618 0a63 3F       		.byte	0x3f
 8619 0a64 680A0000 		.4byte	0xa68
 8620 0a68 10       		.uleb128 0x10
 8621 0a69 510D0000 		.4byte	.LASF161
 8622 0a6d 68       		.byte	0x68
 8623 0a6e 14       		.byte	0x14
 8624 0a6f C2       		.byte	0xc2
 8625 0a70 860B0000 		.4byte	0xb86
 8626 0a74 0D       		.uleb128 0xd
 8627 0a75 EC160000 		.4byte	.LASF162
 8628 0a79 14       		.byte	0x14
 8629 0a7a C3       		.byte	0xc3
 8630 0a7b 910B0000 		.4byte	0xb91
 8631 0a7f 00       		.byte	0
 8632 0a80 0D       		.uleb128 0xd
 8633 0a81 F0110000 		.4byte	.LASF163
 8634 0a85 14       		.byte	0x14
 8635 0a86 C5       		.byte	0xc5
 8636 0a87 910B0000 		.4byte	0xb91
 8637 0a8b 04       		.byte	0x4
 8638 0a8c 0D       		.uleb128 0xd
 8639 0a8d 87150000 		.4byte	.LASF164
 8640 0a91 14       		.byte	0x14
 8641 0a92 C7       		.byte	0xc7
 8642 0a93 0B0A0000 		.4byte	0xa0b
 8643 0a97 08       		.byte	0x8
 8644 0a98 0D       		.uleb128 0xd
 8645 0a99 460E0000 		.4byte	.LASF165
 8646 0a9d 14       		.byte	0x14
 8647 0a9e C8       		.byte	0xc8
 8648 0a9f 3B160000 		.4byte	0x163b
 8649 0aa3 0C       		.byte	0xc
 8650 0aa4 0D       		.uleb128 0xd
 8651 0aa5 99030000 		.4byte	.LASF166
 8652 0aa9 14       		.byte	0x14
 8653 0aaa CA       		.byte	0xca
 8654 0aab 910B0000 		.4byte	0xb91
 8655 0aaf 10       		.byte	0x10
 8656 0ab0 0D       		.uleb128 0xd
 8657 0ab1 5A2E0000 		.4byte	.LASF167
 8658 0ab5 14       		.byte	0x14
 8659 0ab6 CB       		.byte	0xcb
 8660 0ab7 910B0000 		.4byte	0xb91
 8661 0abb 14       		.byte	0x14
 8662 0abc 0D       		.uleb128 0xd
 8663 0abd 832B0000 		.4byte	.LASF168
 8664 0ac1 14       		.byte	0x14
 8665 0ac2 D2       		.byte	0xd2
 8666 0ac3 ED050000 		.4byte	0x5ed
 8667 0ac7 18       		.byte	0x18
 8668 0ac8 0D       		.uleb128 0xd
 8669 0ac9 7D230000 		.4byte	.LASF169
 8670 0acd 14       		.byte	0x14
 8671 0ace D8       		.byte	0xd8
 8672 0acf B1190000 		.4byte	0x19b1
ARM GAS  C:\Users\PCHAUT~1\AppData\Local\Temp\ccLw8kky.s 			page 166


 8673 0ad3 1C       		.byte	0x1c
 8674 0ad4 0D       		.uleb128 0xd
 8675 0ad5 C7310000 		.4byte	.LASF170
 8676 0ad9 14       		.byte	0x14
 8677 0ada DD       		.byte	0xdd
 8678 0adb EA090000 		.4byte	0x9ea
 8679 0adf 20       		.byte	0x20
 8680 0ae0 0D       		.uleb128 0xd
 8681 0ae1 8E2A0000 		.4byte	.LASF171
 8682 0ae5 14       		.byte	0x14
 8683 0ae6 E1       		.byte	0xe1
 8684 0ae7 DF090000 		.4byte	0x9df
 8685 0aeb 21       		.byte	0x21
 8686 0aec 0D       		.uleb128 0xd
 8687 0aed 551E0000 		.4byte	.LASF172
 8688 0af1 14       		.byte	0x14
 8689 0af2 E6       		.byte	0xe6
 8690 0af3 F5090000 		.4byte	0x9f5
 8691 0af7 22       		.byte	0x22
 8692 0af8 0D       		.uleb128 0xd
 8693 0af9 111B0000 		.4byte	.LASF173
 8694 0afd 14       		.byte	0x14
 8695 0afe EC       		.byte	0xec
 8696 0aff 000A0000 		.4byte	0xa00
 8697 0b03 23       		.byte	0x23
 8698 0b04 0D       		.uleb128 0xd
 8699 0b05 4E1E0000 		.4byte	.LASF174
 8700 0b09 14       		.byte	0x14
 8701 0b0a F3       		.byte	0xf3
 8702 0b0b 580A0000 		.4byte	0xa58
 8703 0b0f 24       		.byte	0x24
 8704 0b10 25       		.uleb128 0x25
 8705 0b11 705F7500 		.ascii	"p_u\000"
 8706 0b15 14       		.byte	0x14
 8707 0b16 3101     		.2byte	0x131
 8708 0b18 E0180000 		.4byte	0x18e0
 8709 0b1c 28       		.byte	0x28
 8710 0b1d 18       		.uleb128 0x18
 8711 0b1e 7B060000 		.4byte	.LASF175
 8712 0b22 14       		.byte	0x14
 8713 0b23 3601     		.2byte	0x136
 8714 0b25 970B0000 		.4byte	0xb97
 8715 0b29 2C       		.byte	0x2c
 8716 0b2a 18       		.uleb128 0x18
 8717 0b2b EF1B0000 		.4byte	.LASF176
 8718 0b2f 14       		.byte	0x14
 8719 0b30 3C01     		.2byte	0x13c
 8720 0b32 BB0B0000 		.4byte	0xbbb
 8721 0b36 30       		.byte	0x30
 8722 0b37 18       		.uleb128 0x18
 8723 0b38 C9090000 		.4byte	.LASF177
 8724 0b3c 14       		.byte	0x14
 8725 0b3d 4001     		.2byte	0x140
 8726 0b3f 160A0000 		.4byte	0xa16
 8727 0b43 38       		.byte	0x38
 8728 0b44 18       		.uleb128 0x18
 8729 0b45 D6270000 		.4byte	.LASF178
ARM GAS  C:\Users\PCHAUT~1\AppData\Local\Temp\ccLw8kky.s 			page 167


 8730 0b49 14       		.byte	0x14
 8731 0b4a 4601     		.2byte	0x146
 8732 0b4c 210A0000 		.4byte	0xa21
 8733 0b50 3C       		.byte	0x3c
 8734 0b51 18       		.uleb128 0x18
 8735 0b52 BE2A0000 		.4byte	.LASF179
 8736 0b56 14       		.byte	0x14
 8737 0b57 4D01     		.2byte	0x14d
 8738 0b59 AB190000 		.4byte	0x19ab
 8739 0b5d 40       		.byte	0x40
 8740 0b5e 18       		.uleb128 0x18
 8741 0b5f A2250000 		.4byte	.LASF180
 8742 0b63 14       		.byte	0x14
 8743 0b64 5101     		.2byte	0x151
 8744 0b66 0B0A0000 		.4byte	0xa0b
 8745 0b6a 44       		.byte	0x44
 8746 0b6b 18       		.uleb128 0x18
 8747 0b6c AA170000 		.4byte	.LASF181
 8748 0b70 14       		.byte	0x14
 8749 0b71 5801     		.2byte	0x158
 8750 0b73 68010000 		.4byte	0x168
 8751 0b77 48       		.byte	0x48
 8752 0b78 18       		.uleb128 0x18
 8753 0b79 0C320000 		.4byte	.LASF182
 8754 0b7d 14       		.byte	0x14
 8755 0b7e 5E01     		.2byte	0x15e
 8756 0b80 91180000 		.4byte	0x1891
 8757 0b84 50       		.byte	0x50
 8758 0b85 00       		.byte	0
 8759 0b86 03       		.uleb128 0x3
 8760 0b87 162F0000 		.4byte	.LASF183
 8761 0b8b 13       		.byte	0x13
 8762 0b8c 44       		.byte	0x44
 8763 0b8d 910B0000 		.4byte	0xb91
 8764 0b91 05       		.uleb128 0x5
 8765 0b92 04       		.byte	0x4
 8766 0b93 5D0A0000 		.4byte	0xa5d
 8767 0b97 03       		.uleb128 0x3
 8768 0b98 BA060000 		.4byte	.LASF184
 8769 0b9c 13       		.byte	0x13
 8770 0b9d 49       		.byte	0x49
 8771 0b9e A20B0000 		.4byte	0xba2
 8772 0ba2 10       		.uleb128 0x10
 8773 0ba3 E1310000 		.4byte	.LASF185
 8774 0ba7 04       		.byte	0x4
 8775 0ba8 14       		.byte	0x14
 8776 0ba9 B0       		.byte	0xb0
 8777 0baa BB0B0000 		.4byte	0xbbb
 8778 0bae 0D       		.uleb128 0xd
 8779 0baf EC160000 		.4byte	.LASF162
 8780 0bb3 14       		.byte	0x14
 8781 0bb4 B1       		.byte	0xb1
 8782 0bb5 910B0000 		.4byte	0xb91
 8783 0bb9 00       		.byte	0
 8784 0bba 00       		.byte	0
 8785 0bbb 03       		.uleb128 0x3
 8786 0bbc 181E0000 		.4byte	.LASF186
ARM GAS  C:\Users\PCHAUT~1\AppData\Local\Temp\ccLw8kky.s 			page 168


 8787 0bc0 13       		.byte	0x13
 8788 0bc1 50       		.byte	0x50
 8789 0bc2 C60B0000 		.4byte	0xbc6
 8790 0bc6 10       		.uleb128 0x10
 8791 0bc7 62030000 		.4byte	.LASF187
 8792 0bcb 08       		.byte	0x8
 8793 0bcc 14       		.byte	0x14
 8794 0bcd B7       		.byte	0xb7
 8795 0bce EB0B0000 		.4byte	0xbeb
 8796 0bd2 0D       		.uleb128 0xd
 8797 0bd3 EC160000 		.4byte	.LASF162
 8798 0bd7 14       		.byte	0x14
 8799 0bd8 B8       		.byte	0xb8
 8800 0bd9 910B0000 		.4byte	0xb91
 8801 0bdd 00       		.byte	0
 8802 0bde 0D       		.uleb128 0xd
 8803 0bdf F0110000 		.4byte	.LASF163
 8804 0be3 14       		.byte	0x14
 8805 0be4 B9       		.byte	0xb9
 8806 0be5 910B0000 		.4byte	0xb91
 8807 0be9 04       		.byte	0x4
 8808 0bea 00       		.byte	0
 8809 0beb 03       		.uleb128 0x3
 8810 0bec 440D0000 		.4byte	.LASF188
 8811 0bf0 13       		.byte	0x13
 8812 0bf1 57       		.byte	0x57
 8813 0bf2 F60B0000 		.4byte	0xbf6
 8814 0bf6 1B       		.uleb128 0x1b
 8815 0bf7 AC260000 		.4byte	.LASF189
 8816 0bfb 1C       		.byte	0x1c
 8817 0bfc 14       		.byte	0x14
 8818 0bfd 9001     		.2byte	0x190
 8819 0bff 520C0000 		.4byte	0xc52
 8820 0c03 18       		.uleb128 0x18
 8821 0c04 B3210000 		.4byte	.LASF190
 8822 0c08 14       		.byte	0x14
 8823 0c09 9101     		.2byte	0x191
 8824 0c0b BB0B0000 		.4byte	0xbbb
 8825 0c0f 00       		.byte	0
 8826 0c10 18       		.uleb128 0x18
 8827 0c11 56290000 		.4byte	.LASF191
 8828 0c15 14       		.byte	0x14
 8829 0c16 9201     		.2byte	0x192
 8830 0c18 0B0A0000 		.4byte	0xa0b
 8831 0c1c 08       		.byte	0x8
 8832 0c1d 18       		.uleb128 0x18
 8833 0c1e DD100000 		.4byte	.LASF192
 8834 0c22 14       		.byte	0x14
 8835 0c23 9401     		.2byte	0x194
 8836 0c25 3B160000 		.4byte	0x163b
 8837 0c29 0C       		.byte	0xc
 8838 0c2a 18       		.uleb128 0x18
 8839 0c2b A0190000 		.4byte	.LASF193
 8840 0c2f 14       		.byte	0x14
 8841 0c30 9701     		.2byte	0x197
 8842 0c32 910B0000 		.4byte	0xb91
 8843 0c36 10       		.byte	0x10
ARM GAS  C:\Users\PCHAUT~1\AppData\Local\Temp\ccLw8kky.s 			page 169


 8844 0c37 18       		.uleb128 0x18
 8845 0c38 E8110000 		.4byte	.LASF194
 8846 0c3c 14       		.byte	0x14
 8847 0c3d 9801     		.2byte	0x198
 8848 0c3f 910B0000 		.4byte	0xb91
 8849 0c43 14       		.byte	0x14
 8850 0c44 18       		.uleb128 0x18
 8851 0c45 A7140000 		.4byte	.LASF195
 8852 0c49 14       		.byte	0x14
 8853 0c4a 9B01     		.2byte	0x19b
 8854 0c4c 910B0000 		.4byte	0xb91
 8855 0c50 18       		.byte	0x18
 8856 0c51 00       		.byte	0
 8857 0c52 03       		.uleb128 0x3
 8858 0c53 2B250000 		.4byte	.LASF196
 8859 0c57 13       		.byte	0x13
 8860 0c58 5C       		.byte	0x5c
 8861 0c59 5D0C0000 		.4byte	0xc5d
 8862 0c5d 05       		.uleb128 0x5
 8863 0c5e 04       		.byte	0x4
 8864 0c5f 630C0000 		.4byte	0xc63
 8865 0c63 1F       		.uleb128 0x1f
 8866 0c64 6E0C0000 		.4byte	0xc6e
 8867 0c68 16       		.uleb128 0x16
 8868 0c69 68010000 		.4byte	0x168
 8869 0c6d 00       		.byte	0
 8870 0c6e 03       		.uleb128 0x3
 8871 0c6f C1100000 		.4byte	.LASF197
 8872 0c73 13       		.byte	0x13
 8873 0c74 61       		.byte	0x61
 8874 0c75 790C0000 		.4byte	0xc79
 8875 0c79 1B       		.uleb128 0x1b
 8876 0c7a 7D2A0000 		.4byte	.LASF198
 8877 0c7e 14       		.byte	0x14
 8878 0c7f 14       		.byte	0x14
 8879 0c80 6B01     		.2byte	0x16b
 8880 0c82 C80C0000 		.4byte	0xcc8
 8881 0c86 18       		.uleb128 0x18
 8882 0c87 E3100000 		.4byte	.LASF199
 8883 0c8b 14       		.byte	0x14
 8884 0c8c 6C01     		.2byte	0x16c
 8885 0c8e B7190000 		.4byte	0x19b7
 8886 0c92 00       		.byte	0
 8887 0c93 18       		.uleb128 0x18
 8888 0c94 F40C0000 		.4byte	.LASF200
 8889 0c98 14       		.byte	0x14
 8890 0c99 6D01     		.2byte	0x16d
 8891 0c9b B7190000 		.4byte	0x19b7
 8892 0c9f 04       		.byte	0x4
 8893 0ca0 18       		.uleb128 0x18
 8894 0ca1 771A0000 		.4byte	.LASF201
 8895 0ca5 14       		.byte	0x14
 8896 0ca6 6E01     		.2byte	0x16e
 8897 0ca8 4D0A0000 		.4byte	0xa4d
 8898 0cac 08       		.byte	0x8
 8899 0cad 18       		.uleb128 0x18
 8900 0cae 432A0000 		.4byte	.LASF202
ARM GAS  C:\Users\PCHAUT~1\AppData\Local\Temp\ccLw8kky.s 			page 170


 8901 0cb2 14       		.byte	0x14
 8902 0cb3 6F01     		.2byte	0x16f
 8903 0cb5 520C0000 		.4byte	0xc52
 8904 0cb9 0C       		.byte	0xc
 8905 0cba 18       		.uleb128 0x18
 8906 0cbb 4C0E0000 		.4byte	.LASF203
 8907 0cbf 14       		.byte	0x14
 8908 0cc0 7101     		.2byte	0x171
 8909 0cc2 68010000 		.4byte	0x168
 8910 0cc6 10       		.byte	0x10
 8911 0cc7 00       		.byte	0
 8912 0cc8 03       		.uleb128 0x3
 8913 0cc9 F92B0000 		.4byte	.LASF204
 8914 0ccd 13       		.byte	0x13
 8915 0cce 66       		.byte	0x66
 8916 0ccf D30C0000 		.4byte	0xcd3
 8917 0cd3 1B       		.uleb128 0x1b
 8918 0cd4 A1040000 		.4byte	.LASF205
 8919 0cd8 10       		.byte	0x10
 8920 0cd9 14       		.byte	0x14
 8921 0cda 7B01     		.2byte	0x17b
 8922 0cdc 150D0000 		.4byte	0xd15
 8923 0ce0 18       		.uleb128 0x18
 8924 0ce1 E3100000 		.4byte	.LASF199
 8925 0ce5 14       		.byte	0x14
 8926 0ce6 7C01     		.2byte	0x17c
 8927 0ce8 B7190000 		.4byte	0x19b7
 8928 0cec 00       		.byte	0
 8929 0ced 18       		.uleb128 0x18
 8930 0cee F40C0000 		.4byte	.LASF200
 8931 0cf2 14       		.byte	0x14
 8932 0cf3 7E01     		.2byte	0x17e
 8933 0cf5 B7190000 		.4byte	0x19b7
 8934 0cf9 04       		.byte	0x4
 8935 0cfa 18       		.uleb128 0x18
 8936 0cfb 771A0000 		.4byte	.LASF201
 8937 0cff 14       		.byte	0x14
 8938 0d00 8001     		.2byte	0x180
 8939 0d02 4D0A0000 		.4byte	0xa4d
 8940 0d06 08       		.byte	0x8
 8941 0d07 18       		.uleb128 0x18
 8942 0d08 33020000 		.4byte	.LASF206
 8943 0d0c 14       		.byte	0x14
 8944 0d0d 8201     		.2byte	0x182
 8945 0d0f 580A0000 		.4byte	0xa58
 8946 0d13 0C       		.byte	0xc
 8947 0d14 00       		.byte	0
 8948 0d15 03       		.uleb128 0x3
 8949 0d16 1F0E0000 		.4byte	.LASF207
 8950 0d1a 13       		.byte	0x13
 8951 0d1b 6B       		.byte	0x6b
 8952 0d1c 200D0000 		.4byte	0xd20
 8953 0d20 17       		.uleb128 0x17
 8954 0d21 FC260000 		.4byte	.LASF208
 8955 0d25 1404     		.2byte	0x414
 8956 0d27 14       		.byte	0x14
 8957 0d28 A201     		.2byte	0x1a2
ARM GAS  C:\Users\PCHAUT~1\AppData\Local\Temp\ccLw8kky.s 			page 171


 8958 0d2a 630D0000 		.4byte	0xd63
 8959 0d2e 18       		.uleb128 0x18
 8960 0d2f 71190000 		.4byte	.LASF209
 8961 0d33 14       		.byte	0x14
 8962 0d34 AA01     		.2byte	0x1aa
 8963 0d36 F3050000 		.4byte	0x5f3
 8964 0d3a 00       		.byte	0
 8965 0d3b 18       		.uleb128 0x18
 8966 0d3c 1F190000 		.4byte	.LASF210
 8967 0d40 14       		.byte	0x14
 8968 0d41 AF01     		.2byte	0x1af
 8969 0d43 370A0000 		.4byte	0xa37
 8970 0d47 04       		.byte	0x4
 8971 0d48 18       		.uleb128 0x18
 8972 0d49 59030000 		.4byte	.LASF211
 8973 0d4d 14       		.byte	0x14
 8974 0d4e B301     		.2byte	0x1b3
 8975 0d50 370A0000 		.4byte	0xa37
 8976 0d54 08       		.byte	0x8
 8977 0d55 18       		.uleb128 0x18
 8978 0d56 151D0000 		.4byte	.LASF212
 8979 0d5a 14       		.byte	0x14
 8980 0d5b B901     		.2byte	0x1b9
 8981 0d5d 23180000 		.4byte	0x1823
 8982 0d61 0C       		.byte	0xc
 8983 0d62 00       		.byte	0
 8984 0d63 03       		.uleb128 0x3
 8985 0d64 72010000 		.4byte	.LASF213
 8986 0d68 13       		.byte	0x13
 8987 0d69 70       		.byte	0x70
 8988 0d6a 6E0D0000 		.4byte	0xd6e
 8989 0d6e 17       		.uleb128 0x17
 8990 0d6f F91C0000 		.4byte	.LASF214
 8991 0d73 7006     		.2byte	0x670
 8992 0d75 14       		.byte	0x14
 8993 0d76 C201     		.2byte	0x1c2
 8994 0d78 DB0D0000 		.4byte	0xddb
 8995 0d7c 18       		.uleb128 0x18
 8996 0d7d B4060000 		.4byte	.LASF215
 8997 0d81 14       		.byte	0x14
 8998 0d82 C601     		.2byte	0x1c6
 8999 0d84 EB0B0000 		.4byte	0xbeb
 9000 0d88 00       		.byte	0
 9001 0d89 18       		.uleb128 0x18
 9002 0d8a 52060000 		.4byte	.LASF216
 9003 0d8e 14       		.byte	0x14
 9004 0d8f CA01     		.2byte	0x1ca
 9005 0d91 C80C0000 		.4byte	0xcc8
 9006 0d95 1C       		.byte	0x1c
 9007 0d96 25       		.uleb128 0x25
 9008 0d97 64626700 		.ascii	"dbg\000"
 9009 0d9b 14       		.byte	0x14
 9010 0d9c CE01     		.2byte	0x1ce
 9011 0d9e 150D0000 		.4byte	0xd15
 9012 0da2 2C       		.byte	0x2c
 9013 0da3 19       		.uleb128 0x19
 9014 0da4 A21E0000 		.4byte	.LASF217
ARM GAS  C:\Users\PCHAUT~1\AppData\Local\Temp\ccLw8kky.s 			page 172


 9015 0da8 14       		.byte	0x14
 9016 0da9 D201     		.2byte	0x1d2
 9017 0dab 5D0A0000 		.4byte	0xa5d
 9018 0daf 4004     		.2byte	0x440
 9019 0db1 26       		.uleb128 0x26
 9020 0db2 746D00   		.ascii	"tm\000"
 9021 0db5 14       		.byte	0x14
 9022 0db6 D701     		.2byte	0x1d7
 9023 0db8 43180000 		.4byte	0x1843
 9024 0dbc A804     		.2byte	0x4a8
 9025 0dbe 19       		.uleb128 0x19
 9026 0dbf 4A230000 		.4byte	.LASF218
 9027 0dc3 14       		.byte	0x14
 9028 0dc4 DD01     		.2byte	0x1dd
 9029 0dc6 D5180000 		.4byte	0x18d5
 9030 0dca B004     		.2byte	0x4b0
 9031 0dcc 19       		.uleb128 0x19
 9032 0dcd 132A0000 		.4byte	.LASF219
 9033 0dd1 14       		.byte	0x14
 9034 0dd2 E301     		.2byte	0x1e3
 9035 0dd4 BD190000 		.4byte	0x19bd
 9036 0dd8 E804     		.2byte	0x4e8
 9037 0dda 00       		.byte	0
 9038 0ddb 0A       		.uleb128 0xa
 9039 0ddc A9090000 		.4byte	0x9a9
 9040 0de0 EB0D0000 		.4byte	0xdeb
 9041 0de4 0B       		.uleb128 0xb
 9042 0de5 37000000 		.4byte	0x37
 9043 0de9 01       		.byte	0x1
 9044 0dea 00       		.byte	0
 9045 0deb 0A       		.uleb128 0xa
 9046 0dec A9090000 		.4byte	0x9a9
 9047 0df0 FB0D0000 		.4byte	0xdfb
 9048 0df4 0B       		.uleb128 0xb
 9049 0df5 37000000 		.4byte	0x37
 9050 0df9 07       		.byte	0x7
 9051 0dfa 00       		.byte	0
 9052 0dfb 20       		.uleb128 0x20
 9053 0dfc 62290000 		.4byte	.LASF220
 9054 0e00 15       		.byte	0x15
 9055 0e01 A706     		.2byte	0x6a7
 9056 0e03 A4090000 		.4byte	0x9a4
 9057 0e07 27       		.uleb128 0x27
 9058 0e08 371C0000 		.4byte	.LASF221
 9059 0e0c 16       		.byte	0x16
 9060 0e0d 4C       		.byte	0x4c
 9061 0e0e A9090000 		.4byte	0x9a9
 9062 0e12 0C       		.uleb128 0xc
 9063 0e13 50       		.byte	0x50
 9064 0e14 17       		.byte	0x17
 9065 0e15 C4       		.byte	0xc4
 9066 0e16 090F0000 		.4byte	0xf09
 9067 0e1a 11       		.uleb128 0x11
 9068 0e1b 535200   		.ascii	"SR\000"
 9069 0e1e 17       		.byte	0x17
 9070 0e1f C6       		.byte	0xc6
 9071 0e20 B4090000 		.4byte	0x9b4
ARM GAS  C:\Users\PCHAUT~1\AppData\Local\Temp\ccLw8kky.s 			page 173


 9072 0e24 00       		.byte	0
 9073 0e25 11       		.uleb128 0x11
 9074 0e26 43523100 		.ascii	"CR1\000"
 9075 0e2a 17       		.byte	0x17
 9076 0e2b C7       		.byte	0xc7
 9077 0e2c B4090000 		.4byte	0x9b4
 9078 0e30 04       		.byte	0x4
 9079 0e31 11       		.uleb128 0x11
 9080 0e32 43523200 		.ascii	"CR2\000"
 9081 0e36 17       		.byte	0x17
 9082 0e37 C8       		.byte	0xc8
 9083 0e38 B4090000 		.4byte	0x9b4
 9084 0e3c 08       		.byte	0x8
 9085 0e3d 0D       		.uleb128 0xd
 9086 0e3e C6030000 		.4byte	.LASF222
 9087 0e42 17       		.byte	0x17
 9088 0e43 C9       		.byte	0xc9
 9089 0e44 B4090000 		.4byte	0x9b4
 9090 0e48 0C       		.byte	0xc
 9091 0e49 0D       		.uleb128 0xd
 9092 0e4a CC030000 		.4byte	.LASF223
 9093 0e4e 17       		.byte	0x17
 9094 0e4f CA       		.byte	0xca
 9095 0e50 B4090000 		.4byte	0x9b4
 9096 0e54 10       		.byte	0x10
 9097 0e55 0D       		.uleb128 0xd
 9098 0e56 530E0000 		.4byte	.LASF224
 9099 0e5a 17       		.byte	0x17
 9100 0e5b CB       		.byte	0xcb
 9101 0e5c B4090000 		.4byte	0x9b4
 9102 0e60 14       		.byte	0x14
 9103 0e61 0D       		.uleb128 0xd
 9104 0e62 590E0000 		.4byte	.LASF225
 9105 0e66 17       		.byte	0x17
 9106 0e67 CC       		.byte	0xcc
 9107 0e68 B4090000 		.4byte	0x9b4
 9108 0e6c 18       		.byte	0x18
 9109 0e6d 0D       		.uleb128 0xd
 9110 0e6e 66150000 		.4byte	.LASF226
 9111 0e72 17       		.byte	0x17
 9112 0e73 CD       		.byte	0xcd
 9113 0e74 B4090000 		.4byte	0x9b4
 9114 0e78 1C       		.byte	0x1c
 9115 0e79 0D       		.uleb128 0xd
 9116 0e7a 5F0E0000 		.4byte	.LASF227
 9117 0e7e 17       		.byte	0x17
 9118 0e7f CE       		.byte	0xce
 9119 0e80 B4090000 		.4byte	0x9b4
 9120 0e84 20       		.byte	0x20
 9121 0e85 11       		.uleb128 0x11
 9122 0e86 48545200 		.ascii	"HTR\000"
 9123 0e8a 17       		.byte	0x17
 9124 0e8b CF       		.byte	0xcf
 9125 0e8c B4090000 		.4byte	0x9b4
 9126 0e90 24       		.byte	0x24
 9127 0e91 11       		.uleb128 0x11
 9128 0e92 4C545200 		.ascii	"LTR\000"
ARM GAS  C:\Users\PCHAUT~1\AppData\Local\Temp\ccLw8kky.s 			page 174


 9129 0e96 17       		.byte	0x17
 9130 0e97 D0       		.byte	0xd0
 9131 0e98 B4090000 		.4byte	0x9b4
 9132 0e9c 28       		.byte	0x28
 9133 0e9d 0D       		.uleb128 0xd
 9134 0e9e 69180000 		.4byte	.LASF228
 9135 0ea2 17       		.byte	0x17
 9136 0ea3 D1       		.byte	0xd1
 9137 0ea4 B4090000 		.4byte	0x9b4
 9138 0ea8 2C       		.byte	0x2c
 9139 0ea9 0D       		.uleb128 0xd
 9140 0eaa 6E180000 		.4byte	.LASF229
 9141 0eae 17       		.byte	0x17
 9142 0eaf D2       		.byte	0xd2
 9143 0eb0 B4090000 		.4byte	0x9b4
 9144 0eb4 30       		.byte	0x30
 9145 0eb5 0D       		.uleb128 0xd
 9146 0eb6 73180000 		.4byte	.LASF230
 9147 0eba 17       		.byte	0x17
 9148 0ebb D3       		.byte	0xd3
 9149 0ebc B4090000 		.4byte	0x9b4
 9150 0ec0 34       		.byte	0x34
 9151 0ec1 0D       		.uleb128 0xd
 9152 0ec2 92100000 		.4byte	.LASF231
 9153 0ec6 17       		.byte	0x17
 9154 0ec7 D4       		.byte	0xd4
 9155 0ec8 B4090000 		.4byte	0x9b4
 9156 0ecc 38       		.byte	0x38
 9157 0ecd 0D       		.uleb128 0xd
 9158 0ece A22B0000 		.4byte	.LASF232
 9159 0ed2 17       		.byte	0x17
 9160 0ed3 D5       		.byte	0xd5
 9161 0ed4 B4090000 		.4byte	0x9b4
 9162 0ed8 3C       		.byte	0x3c
 9163 0ed9 0D       		.uleb128 0xd
 9164 0eda F4100000 		.4byte	.LASF233
 9165 0ede 17       		.byte	0x17
 9166 0edf D6       		.byte	0xd6
 9167 0ee0 B4090000 		.4byte	0x9b4
 9168 0ee4 40       		.byte	0x40
 9169 0ee5 0D       		.uleb128 0xd
 9170 0ee6 B62B0000 		.4byte	.LASF234
 9171 0eea 17       		.byte	0x17
 9172 0eeb D7       		.byte	0xd7
 9173 0eec B4090000 		.4byte	0x9b4
 9174 0ef0 44       		.byte	0x44
 9175 0ef1 0D       		.uleb128 0xd
 9176 0ef2 BB2B0000 		.4byte	.LASF235
 9177 0ef6 17       		.byte	0x17
 9178 0ef7 D8       		.byte	0xd8
 9179 0ef8 B4090000 		.4byte	0x9b4
 9180 0efc 48       		.byte	0x48
 9181 0efd 11       		.uleb128 0x11
 9182 0efe 445200   		.ascii	"DR\000"
 9183 0f01 17       		.byte	0x17
 9184 0f02 D9       		.byte	0xd9
 9185 0f03 B4090000 		.4byte	0x9b4
ARM GAS  C:\Users\PCHAUT~1\AppData\Local\Temp\ccLw8kky.s 			page 175


 9186 0f07 4C       		.byte	0x4c
 9187 0f08 00       		.byte	0
 9188 0f09 03       		.uleb128 0x3
 9189 0f0a BE1A0000 		.4byte	.LASF236
 9190 0f0e 17       		.byte	0x17
 9191 0f0f DA       		.byte	0xda
 9192 0f10 120E0000 		.4byte	0xe12
 9193 0f14 0C       		.uleb128 0xc
 9194 0f15 10       		.byte	0x10
 9195 0f16 17       		.byte	0x17
 9196 0f17 E9       		.byte	0xe9
 9197 0f18 4D0F0000 		.4byte	0xf4d
 9198 0f1c 11       		.uleb128 0x11
 9199 0f1d 54495200 		.ascii	"TIR\000"
 9200 0f21 17       		.byte	0x17
 9201 0f22 EB       		.byte	0xeb
 9202 0f23 B4090000 		.4byte	0x9b4
 9203 0f27 00       		.byte	0
 9204 0f28 0D       		.uleb128 0xd
 9205 0f29 2D150000 		.4byte	.LASF237
 9206 0f2d 17       		.byte	0x17
 9207 0f2e EC       		.byte	0xec
 9208 0f2f B4090000 		.4byte	0x9b4
 9209 0f33 04       		.byte	0x4
 9210 0f34 0D       		.uleb128 0xd
 9211 0f35 941E0000 		.4byte	.LASF238
 9212 0f39 17       		.byte	0x17
 9213 0f3a ED       		.byte	0xed
 9214 0f3b B4090000 		.4byte	0x9b4
 9215 0f3f 08       		.byte	0x8
 9216 0f40 0D       		.uleb128 0xd
 9217 0f41 2C1B0000 		.4byte	.LASF239
 9218 0f45 17       		.byte	0x17
 9219 0f46 EE       		.byte	0xee
 9220 0f47 B4090000 		.4byte	0x9b4
 9221 0f4b 0C       		.byte	0xc
 9222 0f4c 00       		.byte	0
 9223 0f4d 03       		.uleb128 0x3
 9224 0f4e 9E060000 		.4byte	.LASF240
 9225 0f52 17       		.byte	0x17
 9226 0f53 EF       		.byte	0xef
 9227 0f54 140F0000 		.4byte	0xf14
 9228 0f58 0C       		.uleb128 0xc
 9229 0f59 10       		.byte	0x10
 9230 0f5a 17       		.byte	0x17
 9231 0f5b F5       		.byte	0xf5
 9232 0f5c 910F0000 		.4byte	0xf91
 9233 0f60 11       		.uleb128 0x11
 9234 0f61 52495200 		.ascii	"RIR\000"
 9235 0f65 17       		.byte	0x17
 9236 0f66 F7       		.byte	0xf7
 9237 0f67 B4090000 		.4byte	0x9b4
 9238 0f6b 00       		.byte	0
 9239 0f6c 0D       		.uleb128 0xd
 9240 0f6d 5C260000 		.4byte	.LASF241
 9241 0f71 17       		.byte	0x17
 9242 0f72 F8       		.byte	0xf8
ARM GAS  C:\Users\PCHAUT~1\AppData\Local\Temp\ccLw8kky.s 			page 176


 9243 0f73 B4090000 		.4byte	0x9b4
 9244 0f77 04       		.byte	0x4
 9245 0f78 0D       		.uleb128 0xd
 9246 0f79 30200000 		.4byte	.LASF242
 9247 0f7d 17       		.byte	0x17
 9248 0f7e F9       		.byte	0xf9
 9249 0f7f B4090000 		.4byte	0x9b4
 9250 0f83 08       		.byte	0x8
 9251 0f84 0D       		.uleb128 0xd
 9252 0f85 D41C0000 		.4byte	.LASF243
 9253 0f89 17       		.byte	0x17
 9254 0f8a FA       		.byte	0xfa
 9255 0f8b B4090000 		.4byte	0x9b4
 9256 0f8f 0C       		.byte	0xc
 9257 0f90 00       		.byte	0
 9258 0f91 03       		.uleb128 0x3
 9259 0f92 34250000 		.4byte	.LASF244
 9260 0f96 17       		.byte	0x17
 9261 0f97 FB       		.byte	0xfb
 9262 0f98 580F0000 		.4byte	0xf58
 9263 0f9c 1C       		.uleb128 0x1c
 9264 0f9d 08       		.byte	0x8
 9265 0f9e 17       		.byte	0x17
 9266 0f9f 0101     		.2byte	0x101
 9267 0fa1 C00F0000 		.4byte	0xfc0
 9268 0fa5 25       		.uleb128 0x25
 9269 0fa6 46523100 		.ascii	"FR1\000"
 9270 0faa 17       		.byte	0x17
 9271 0fab 0301     		.2byte	0x103
 9272 0fad B4090000 		.4byte	0x9b4
 9273 0fb1 00       		.byte	0
 9274 0fb2 25       		.uleb128 0x25
 9275 0fb3 46523200 		.ascii	"FR2\000"
 9276 0fb7 17       		.byte	0x17
 9277 0fb8 0401     		.2byte	0x104
 9278 0fba B4090000 		.4byte	0x9b4
 9279 0fbe 04       		.byte	0x4
 9280 0fbf 00       		.byte	0
 9281 0fc0 07       		.uleb128 0x7
 9282 0fc1 32150000 		.4byte	.LASF245
 9283 0fc5 17       		.byte	0x17
 9284 0fc6 0501     		.2byte	0x105
 9285 0fc8 9C0F0000 		.4byte	0xf9c
 9286 0fcc 28       		.uleb128 0x28
 9287 0fcd 2003     		.2byte	0x320
 9288 0fcf 17       		.byte	0x17
 9289 0fd0 0B01     		.2byte	0x10b
 9290 0fd2 02110000 		.4byte	0x1102
 9291 0fd6 25       		.uleb128 0x25
 9292 0fd7 4D435200 		.ascii	"MCR\000"
 9293 0fdb 17       		.byte	0x17
 9294 0fdc 0D01     		.2byte	0x10d
 9295 0fde B4090000 		.4byte	0x9b4
 9296 0fe2 00       		.byte	0
 9297 0fe3 25       		.uleb128 0x25
 9298 0fe4 4D535200 		.ascii	"MSR\000"
 9299 0fe8 17       		.byte	0x17
ARM GAS  C:\Users\PCHAUT~1\AppData\Local\Temp\ccLw8kky.s 			page 177


 9300 0fe9 0E01     		.2byte	0x10e
 9301 0feb B4090000 		.4byte	0x9b4
 9302 0fef 04       		.byte	0x4
 9303 0ff0 25       		.uleb128 0x25
 9304 0ff1 54535200 		.ascii	"TSR\000"
 9305 0ff5 17       		.byte	0x17
 9306 0ff6 0F01     		.2byte	0x10f
 9307 0ff8 B4090000 		.4byte	0x9b4
 9308 0ffc 08       		.byte	0x8
 9309 0ffd 18       		.uleb128 0x18
 9310 0ffe 04130000 		.4byte	.LASF246
 9311 1002 17       		.byte	0x17
 9312 1003 1001     		.2byte	0x110
 9313 1005 B4090000 		.4byte	0x9b4
 9314 1009 0C       		.byte	0xc
 9315 100a 18       		.uleb128 0x18
 9316 100b A7200000 		.4byte	.LASF247
 9317 100f 17       		.byte	0x17
 9318 1010 1101     		.2byte	0x111
 9319 1012 B4090000 		.4byte	0x9b4
 9320 1016 10       		.byte	0x10
 9321 1017 25       		.uleb128 0x25
 9322 1018 49455200 		.ascii	"IER\000"
 9323 101c 17       		.byte	0x17
 9324 101d 1201     		.2byte	0x112
 9325 101f B4090000 		.4byte	0x9b4
 9326 1023 14       		.byte	0x14
 9327 1024 25       		.uleb128 0x25
 9328 1025 45535200 		.ascii	"ESR\000"
 9329 1029 17       		.byte	0x17
 9330 102a 1301     		.2byte	0x113
 9331 102c B4090000 		.4byte	0x9b4
 9332 1030 18       		.byte	0x18
 9333 1031 25       		.uleb128 0x25
 9334 1032 42545200 		.ascii	"BTR\000"
 9335 1036 17       		.byte	0x17
 9336 1037 1401     		.2byte	0x114
 9337 1039 B4090000 		.4byte	0x9b4
 9338 103d 1C       		.byte	0x1c
 9339 103e 18       		.uleb128 0x18
 9340 103f 44280000 		.4byte	.LASF248
 9341 1043 17       		.byte	0x17
 9342 1044 1501     		.2byte	0x115
 9343 1046 02110000 		.4byte	0x1102
 9344 104a 20       		.byte	0x20
 9345 104b 19       		.uleb128 0x19
 9346 104c BE160000 		.4byte	.LASF249
 9347 1050 17       		.byte	0x17
 9348 1051 1601     		.2byte	0x116
 9349 1053 12110000 		.4byte	0x1112
 9350 1057 8001     		.2byte	0x180
 9351 1059 19       		.uleb128 0x19
 9352 105a F52D0000 		.4byte	.LASF250
 9353 105e 17       		.byte	0x17
 9354 105f 1701     		.2byte	0x117
 9355 1061 22110000 		.4byte	0x1122
 9356 1065 B001     		.2byte	0x1b0
ARM GAS  C:\Users\PCHAUT~1\AppData\Local\Temp\ccLw8kky.s 			page 178


 9357 1067 19       		.uleb128 0x19
 9358 1068 4E280000 		.4byte	.LASF251
 9359 106c 17       		.byte	0x17
 9360 106d 1801     		.2byte	0x118
 9361 106f 32110000 		.4byte	0x1132
 9362 1073 D001     		.2byte	0x1d0
 9363 1075 26       		.uleb128 0x26
 9364 1076 464D5200 		.ascii	"FMR\000"
 9365 107a 17       		.byte	0x17
 9366 107b 1901     		.2byte	0x119
 9367 107d B4090000 		.4byte	0x9b4
 9368 1081 0002     		.2byte	0x200
 9369 1083 19       		.uleb128 0x19
 9370 1084 280F0000 		.4byte	.LASF252
 9371 1088 17       		.byte	0x17
 9372 1089 1A01     		.2byte	0x11a
 9373 108b B4090000 		.4byte	0x9b4
 9374 108f 0402     		.2byte	0x204
 9375 1091 19       		.uleb128 0x19
 9376 1092 58280000 		.4byte	.LASF253
 9377 1096 17       		.byte	0x17
 9378 1097 1B01     		.2byte	0x11b
 9379 1099 A9090000 		.4byte	0x9a9
 9380 109d 0802     		.2byte	0x208
 9381 109f 19       		.uleb128 0x19
 9382 10a0 DB2A0000 		.4byte	.LASF254
 9383 10a4 17       		.byte	0x17
 9384 10a5 1C01     		.2byte	0x11c
 9385 10a7 B4090000 		.4byte	0x9b4
 9386 10ab 0C02     		.2byte	0x20c
 9387 10ad 19       		.uleb128 0x19
 9388 10ae 62280000 		.4byte	.LASF255
 9389 10b2 17       		.byte	0x17
 9390 10b3 1D01     		.2byte	0x11d
 9391 10b5 A9090000 		.4byte	0x9a9
 9392 10b9 1002     		.2byte	0x210
 9393 10bb 19       		.uleb128 0x19
 9394 10bc A1200000 		.4byte	.LASF256
 9395 10c0 17       		.byte	0x17
 9396 10c1 1E01     		.2byte	0x11e
 9397 10c3 B4090000 		.4byte	0x9b4
 9398 10c7 1402     		.2byte	0x214
 9399 10c9 19       		.uleb128 0x19
 9400 10ca 6C280000 		.4byte	.LASF257
 9401 10ce 17       		.byte	0x17
 9402 10cf 1F01     		.2byte	0x11f
 9403 10d1 A9090000 		.4byte	0x9a9
 9404 10d5 1802     		.2byte	0x218
 9405 10d7 19       		.uleb128 0x19
 9406 10d8 28050000 		.4byte	.LASF258
 9407 10dc 17       		.byte	0x17
 9408 10dd 2001     		.2byte	0x120
 9409 10df B4090000 		.4byte	0x9b4
 9410 10e3 1C02     		.2byte	0x21c
 9411 10e5 19       		.uleb128 0x19
 9412 10e6 76280000 		.4byte	.LASF259
 9413 10ea 17       		.byte	0x17
ARM GAS  C:\Users\PCHAUT~1\AppData\Local\Temp\ccLw8kky.s 			page 179


 9414 10eb 2101     		.2byte	0x121
 9415 10ed EB0D0000 		.4byte	0xdeb
 9416 10f1 2002     		.2byte	0x220
 9417 10f3 19       		.uleb128 0x19
 9418 10f4 4D070000 		.4byte	.LASF260
 9419 10f8 17       		.byte	0x17
 9420 10f9 2201     		.2byte	0x122
 9421 10fb 42110000 		.4byte	0x1142
 9422 10ff 4002     		.2byte	0x240
 9423 1101 00       		.byte	0
 9424 1102 0A       		.uleb128 0xa
 9425 1103 A9090000 		.4byte	0x9a9
 9426 1107 12110000 		.4byte	0x1112
 9427 110b 0B       		.uleb128 0xb
 9428 110c 37000000 		.4byte	0x37
 9429 1110 57       		.byte	0x57
 9430 1111 00       		.byte	0
 9431 1112 0A       		.uleb128 0xa
 9432 1113 4D0F0000 		.4byte	0xf4d
 9433 1117 22110000 		.4byte	0x1122
 9434 111b 0B       		.uleb128 0xb
 9435 111c 37000000 		.4byte	0x37
 9436 1120 02       		.byte	0x2
 9437 1121 00       		.byte	0
 9438 1122 0A       		.uleb128 0xa
 9439 1123 910F0000 		.4byte	0xf91
 9440 1127 32110000 		.4byte	0x1132
 9441 112b 0B       		.uleb128 0xb
 9442 112c 37000000 		.4byte	0x37
 9443 1130 01       		.byte	0x1
 9444 1131 00       		.byte	0
 9445 1132 0A       		.uleb128 0xa
 9446 1133 A9090000 		.4byte	0x9a9
 9447 1137 42110000 		.4byte	0x1142
 9448 113b 0B       		.uleb128 0xb
 9449 113c 37000000 		.4byte	0x37
 9450 1140 0B       		.byte	0xb
 9451 1141 00       		.byte	0
 9452 1142 0A       		.uleb128 0xa
 9453 1143 C00F0000 		.4byte	0xfc0
 9454 1147 52110000 		.4byte	0x1152
 9455 114b 0B       		.uleb128 0xb
 9456 114c 37000000 		.4byte	0x37
 9457 1150 1B       		.byte	0x1b
 9458 1151 00       		.byte	0
 9459 1152 07       		.uleb128 0x7
 9460 1153 53110000 		.4byte	.LASF261
 9461 1157 17       		.byte	0x17
 9462 1158 2301     		.2byte	0x123
 9463 115a CC0F0000 		.4byte	0xfcc
 9464 115e 1C       		.uleb128 0x1c
 9465 115f 38       		.byte	0x38
 9466 1160 17       		.byte	0x17
 9467 1161 3601     		.2byte	0x136
 9468 1163 1C120000 		.4byte	0x121c
 9469 1167 25       		.uleb128 0x25
 9470 1168 435200   		.ascii	"CR\000"
ARM GAS  C:\Users\PCHAUT~1\AppData\Local\Temp\ccLw8kky.s 			page 180


 9471 116b 17       		.byte	0x17
 9472 116c 3801     		.2byte	0x138
 9473 116e B4090000 		.4byte	0x9b4
 9474 1172 00       		.byte	0
 9475 1173 18       		.uleb128 0x18
 9476 1174 AE1C0000 		.4byte	.LASF262
 9477 1178 17       		.byte	0x17
 9478 1179 3901     		.2byte	0x139
 9479 117b B4090000 		.4byte	0x9b4
 9480 117f 04       		.byte	0x4
 9481 1180 18       		.uleb128 0x18
 9482 1181 92280000 		.4byte	.LASF263
 9483 1185 17       		.byte	0x17
 9484 1186 3A01     		.2byte	0x13a
 9485 1188 B4090000 		.4byte	0x9b4
 9486 118c 08       		.byte	0x8
 9487 118d 18       		.uleb128 0x18
 9488 118e 18230000 		.4byte	.LASF264
 9489 1192 17       		.byte	0x17
 9490 1193 3B01     		.2byte	0x13b
 9491 1195 B4090000 		.4byte	0x9b4
 9492 1199 0C       		.byte	0xc
 9493 119a 18       		.uleb128 0x18
 9494 119b 2E0E0000 		.4byte	.LASF265
 9495 119f 17       		.byte	0x17
 9496 11a0 3C01     		.2byte	0x13c
 9497 11a2 B4090000 		.4byte	0x9b4
 9498 11a6 10       		.byte	0x10
 9499 11a7 18       		.uleb128 0x18
 9500 11a8 9A280000 		.4byte	.LASF266
 9501 11ac 17       		.byte	0x17
 9502 11ad 3D01     		.2byte	0x13d
 9503 11af B4090000 		.4byte	0x9b4
 9504 11b3 14       		.byte	0x14
 9505 11b4 18       		.uleb128 0x18
 9506 11b5 20230000 		.4byte	.LASF267
 9507 11b9 17       		.byte	0x17
 9508 11ba 3E01     		.2byte	0x13e
 9509 11bc B4090000 		.4byte	0x9b4
 9510 11c0 18       		.byte	0x18
 9511 11c1 18       		.uleb128 0x18
 9512 11c2 350E0000 		.4byte	.LASF268
 9513 11c6 17       		.byte	0x17
 9514 11c7 3F01     		.2byte	0x13f
 9515 11c9 B4090000 		.4byte	0x9b4
 9516 11cd 1C       		.byte	0x1c
 9517 11ce 18       		.uleb128 0x18
 9518 11cf ED280000 		.4byte	.LASF269
 9519 11d3 17       		.byte	0x17
 9520 11d4 4001     		.2byte	0x140
 9521 11d6 B4090000 		.4byte	0x9b4
 9522 11da 20       		.byte	0x20
 9523 11db 18       		.uleb128 0x18
 9524 11dc 42230000 		.4byte	.LASF270
 9525 11e0 17       		.byte	0x17
 9526 11e1 4101     		.2byte	0x141
 9527 11e3 B4090000 		.4byte	0x9b4
ARM GAS  C:\Users\PCHAUT~1\AppData\Local\Temp\ccLw8kky.s 			page 181


 9528 11e7 24       		.byte	0x24
 9529 11e8 18       		.uleb128 0x18
 9530 11e9 0C2E0000 		.4byte	.LASF271
 9531 11ed 17       		.byte	0x17
 9532 11ee 4201     		.2byte	0x142
 9533 11f0 B4090000 		.4byte	0x9b4
 9534 11f4 28       		.byte	0x28
 9535 11f5 18       		.uleb128 0x18
 9536 11f6 3E020000 		.4byte	.LASF272
 9537 11fa 17       		.byte	0x17
 9538 11fb 4301     		.2byte	0x143
 9539 11fd B4090000 		.4byte	0x9b4
 9540 1201 2C       		.byte	0x2c
 9541 1202 18       		.uleb128 0x18
 9542 1203 43020000 		.4byte	.LASF273
 9543 1207 17       		.byte	0x17
 9544 1208 4401     		.2byte	0x144
 9545 120a B4090000 		.4byte	0x9b4
 9546 120e 30       		.byte	0x30
 9547 120f 25       		.uleb128 0x25
 9548 1210 535200   		.ascii	"SR\000"
 9549 1213 17       		.byte	0x17
 9550 1214 4501     		.2byte	0x145
 9551 1216 B4090000 		.4byte	0x9b4
 9552 121a 34       		.byte	0x34
 9553 121b 00       		.byte	0
 9554 121c 07       		.uleb128 0x7
 9555 121d 4C250000 		.4byte	.LASF274
 9556 1221 17       		.byte	0x17
 9557 1222 4601     		.2byte	0x146
 9558 1224 5E110000 		.4byte	0x115e
 9559 1228 1C       		.uleb128 0x1c
 9560 1229 2C       		.byte	0x2c
 9561 122a 17       		.byte	0x17
 9562 122b 5801     		.2byte	0x158
 9563 122d BE120000 		.4byte	0x12be
 9564 1231 25       		.uleb128 0x25
 9565 1232 435200   		.ascii	"CR\000"
 9566 1235 17       		.byte	0x17
 9567 1236 5A01     		.2byte	0x15a
 9568 1238 B4090000 		.4byte	0x9b4
 9569 123c 00       		.byte	0
 9570 123d 25       		.uleb128 0x25
 9571 123e 535200   		.ascii	"SR\000"
 9572 1241 17       		.byte	0x17
 9573 1242 5B01     		.2byte	0x15b
 9574 1244 B4090000 		.4byte	0x9b4
 9575 1248 04       		.byte	0x4
 9576 1249 18       		.uleb128 0x18
 9577 124a 390D0000 		.4byte	.LASF275
 9578 124e 17       		.byte	0x17
 9579 124f 5C01     		.2byte	0x15c
 9580 1251 B4090000 		.4byte	0x9b4
 9581 1255 08       		.byte	0x8
 9582 1256 25       		.uleb128 0x25
 9583 1257 49455200 		.ascii	"IER\000"
 9584 125b 17       		.byte	0x17
ARM GAS  C:\Users\PCHAUT~1\AppData\Local\Temp\ccLw8kky.s 			page 182


 9585 125c 5D01     		.2byte	0x15d
 9586 125e B4090000 		.4byte	0x9b4
 9587 1262 0C       		.byte	0xc
 9588 1263 18       		.uleb128 0x18
 9589 1264 5D290000 		.4byte	.LASF276
 9590 1268 17       		.byte	0x17
 9591 1269 5E01     		.2byte	0x15e
 9592 126b B4090000 		.4byte	0x9b4
 9593 126f 10       		.byte	0x10
 9594 1270 25       		.uleb128 0x25
 9595 1271 49435200 		.ascii	"ICR\000"
 9596 1275 17       		.byte	0x17
 9597 1276 5F01     		.2byte	0x15f
 9598 1278 B4090000 		.4byte	0x9b4
 9599 127c 14       		.byte	0x14
 9600 127d 18       		.uleb128 0x18
 9601 127e 9D210000 		.4byte	.LASF277
 9602 1282 17       		.byte	0x17
 9603 1283 6001     		.2byte	0x160
 9604 1285 B4090000 		.4byte	0x9b4
 9605 1289 18       		.byte	0x18
 9606 128a 18       		.uleb128 0x18
 9607 128b E4300000 		.4byte	.LASF278
 9608 128f 17       		.byte	0x17
 9609 1290 6101     		.2byte	0x161
 9610 1292 B4090000 		.4byte	0x9b4
 9611 1296 1C       		.byte	0x1c
 9612 1297 18       		.uleb128 0x18
 9613 1298 ED170000 		.4byte	.LASF279
 9614 129c 17       		.byte	0x17
 9615 129d 6201     		.2byte	0x162
 9616 129f B4090000 		.4byte	0x9b4
 9617 12a3 20       		.byte	0x20
 9618 12a4 18       		.uleb128 0x18
 9619 12a5 1F220000 		.4byte	.LASF280
 9620 12a9 17       		.byte	0x17
 9621 12aa 6301     		.2byte	0x163
 9622 12ac B4090000 		.4byte	0x9b4
 9623 12b0 24       		.byte	0x24
 9624 12b1 25       		.uleb128 0x25
 9625 12b2 445200   		.ascii	"DR\000"
 9626 12b5 17       		.byte	0x17
 9627 12b6 6401     		.2byte	0x164
 9628 12b8 B4090000 		.4byte	0x9b4
 9629 12bc 28       		.byte	0x28
 9630 12bd 00       		.byte	0
 9631 12be 07       		.uleb128 0x7
 9632 12bf 37050000 		.4byte	.LASF281
 9633 12c3 17       		.byte	0x17
 9634 12c4 6501     		.2byte	0x165
 9635 12c6 28120000 		.4byte	0x1228
 9636 12ca 1C       		.uleb128 0x1c
 9637 12cb 18       		.byte	0x18
 9638 12cc 17       		.byte	0x17
 9639 12cd 6B01     		.2byte	0x16b
 9640 12cf 21130000 		.4byte	0x1321
 9641 12d3 25       		.uleb128 0x25
ARM GAS  C:\Users\PCHAUT~1\AppData\Local\Temp\ccLw8kky.s 			page 183


 9642 12d4 435200   		.ascii	"CR\000"
 9643 12d7 17       		.byte	0x17
 9644 12d8 6D01     		.2byte	0x16d
 9645 12da B4090000 		.4byte	0x9b4
 9646 12de 00       		.byte	0
 9647 12df 18       		.uleb128 0x18
 9648 12e0 EF290000 		.4byte	.LASF282
 9649 12e4 17       		.byte	0x17
 9650 12e5 6E01     		.2byte	0x16e
 9651 12e7 B4090000 		.4byte	0x9b4
 9652 12eb 04       		.byte	0x4
 9653 12ec 25       		.uleb128 0x25
 9654 12ed 50415200 		.ascii	"PAR\000"
 9655 12f1 17       		.byte	0x17
 9656 12f2 6F01     		.2byte	0x16f
 9657 12f4 B4090000 		.4byte	0x9b4
 9658 12f8 08       		.byte	0x8
 9659 12f9 18       		.uleb128 0x18
 9660 12fa 04050000 		.4byte	.LASF283
 9661 12fe 17       		.byte	0x17
 9662 12ff 7001     		.2byte	0x170
 9663 1301 B4090000 		.4byte	0x9b4
 9664 1305 0C       		.byte	0xc
 9665 1306 18       		.uleb128 0x18
 9666 1307 180A0000 		.4byte	.LASF284
 9667 130b 17       		.byte	0x17
 9668 130c 7101     		.2byte	0x171
 9669 130e B4090000 		.4byte	0x9b4
 9670 1312 10       		.byte	0x10
 9671 1313 25       		.uleb128 0x25
 9672 1314 46435200 		.ascii	"FCR\000"
 9673 1318 17       		.byte	0x17
 9674 1319 7201     		.2byte	0x172
 9675 131b B4090000 		.4byte	0x9b4
 9676 131f 14       		.byte	0x14
 9677 1320 00       		.byte	0
 9678 1321 07       		.uleb128 0x7
 9679 1322 220A0000 		.4byte	.LASF285
 9680 1326 17       		.byte	0x17
 9681 1327 7301     		.2byte	0x173
 9682 1329 CA120000 		.4byte	0x12ca
 9683 132d 0A       		.uleb128 0xa
 9684 132e B4090000 		.4byte	0x9b4
 9685 1332 3D130000 		.4byte	0x133d
 9686 1336 0B       		.uleb128 0xb
 9687 1337 37000000 		.4byte	0x37
 9688 133b 01       		.byte	0x1
 9689 133c 00       		.byte	0
 9690 133d 1A       		.uleb128 0x1a
 9691 133e 2D130000 		.4byte	0x132d
 9692 1342 0A       		.uleb128 0xa
 9693 1343 B4090000 		.4byte	0x9b4
 9694 1347 52130000 		.4byte	0x1352
 9695 134b 0B       		.uleb128 0xb
 9696 134c 37000000 		.4byte	0x37
 9697 1350 03       		.byte	0x3
 9698 1351 00       		.byte	0
ARM GAS  C:\Users\PCHAUT~1\AppData\Local\Temp\ccLw8kky.s 			page 184


 9699 1352 1A       		.uleb128 0x1a
 9700 1353 42130000 		.4byte	0x1342
 9701 1357 1C       		.uleb128 0x1c
 9702 1358 28       		.byte	0x28
 9703 1359 17       		.byte	0x17
 9704 135a 3F02     		.2byte	0x23f
 9705 135c E2130000 		.4byte	0x13e2
 9706 1360 25       		.uleb128 0x25
 9707 1361 43523100 		.ascii	"CR1\000"
 9708 1365 17       		.byte	0x17
 9709 1366 4102     		.2byte	0x241
 9710 1368 B4090000 		.4byte	0x9b4
 9711 136c 00       		.byte	0
 9712 136d 25       		.uleb128 0x25
 9713 136e 43523200 		.ascii	"CR2\000"
 9714 1372 17       		.byte	0x17
 9715 1373 4202     		.2byte	0x242
 9716 1375 B4090000 		.4byte	0x9b4
 9717 1379 04       		.byte	0x4
 9718 137a 18       		.uleb128 0x18
 9719 137b 02320000 		.4byte	.LASF286
 9720 137f 17       		.byte	0x17
 9721 1380 4302     		.2byte	0x243
 9722 1382 B4090000 		.4byte	0x9b4
 9723 1386 08       		.byte	0x8
 9724 1387 18       		.uleb128 0x18
 9725 1388 07320000 		.4byte	.LASF287
 9726 138c 17       		.byte	0x17
 9727 138d 4402     		.2byte	0x244
 9728 138f B4090000 		.4byte	0x9b4
 9729 1393 0C       		.byte	0xc
 9730 1394 25       		.uleb128 0x25
 9731 1395 445200   		.ascii	"DR\000"
 9732 1398 17       		.byte	0x17
 9733 1399 4502     		.2byte	0x245
 9734 139b B4090000 		.4byte	0x9b4
 9735 139f 10       		.byte	0x10
 9736 13a0 25       		.uleb128 0x25
 9737 13a1 53523100 		.ascii	"SR1\000"
 9738 13a5 17       		.byte	0x17
 9739 13a6 4602     		.2byte	0x246
 9740 13a8 B4090000 		.4byte	0x9b4
 9741 13ac 14       		.byte	0x14
 9742 13ad 25       		.uleb128 0x25
 9743 13ae 53523200 		.ascii	"SR2\000"
 9744 13b2 17       		.byte	0x17
 9745 13b3 4702     		.2byte	0x247
 9746 13b5 B4090000 		.4byte	0x9b4
 9747 13b9 18       		.byte	0x18
 9748 13ba 25       		.uleb128 0x25
 9749 13bb 43435200 		.ascii	"CCR\000"
 9750 13bf 17       		.byte	0x17
 9751 13c0 4802     		.2byte	0x248
 9752 13c2 B4090000 		.4byte	0x9b4
 9753 13c6 1C       		.byte	0x1c
 9754 13c7 18       		.uleb128 0x18
 9755 13c8 6C060000 		.4byte	.LASF288
ARM GAS  C:\Users\PCHAUT~1\AppData\Local\Temp\ccLw8kky.s 			page 185


 9756 13cc 17       		.byte	0x17
 9757 13cd 4902     		.2byte	0x249
 9758 13cf B4090000 		.4byte	0x9b4
 9759 13d3 20       		.byte	0x20
 9760 13d4 18       		.uleb128 0x18
 9761 13d5 25300000 		.4byte	.LASF289
 9762 13d9 17       		.byte	0x17
 9763 13da 4A02     		.2byte	0x24a
 9764 13dc B4090000 		.4byte	0x9b4
 9765 13e0 24       		.byte	0x24
 9766 13e1 00       		.byte	0
 9767 13e2 07       		.uleb128 0x7
 9768 13e3 B2170000 		.4byte	.LASF290
 9769 13e7 17       		.byte	0x17
 9770 13e8 4B02     		.2byte	0x24b
 9771 13ea 57130000 		.4byte	0x1357
 9772 13ee 1C       		.uleb128 0x1c
 9773 13ef 84       		.byte	0x84
 9774 13f0 17       		.byte	0x17
 9775 13f1 BF02     		.2byte	0x2bf
 9776 13f3 FC140000 		.4byte	0x14fc
 9777 13f7 18       		.uleb128 0x18
 9778 13f8 031D0000 		.4byte	.LASF291
 9779 13fc 17       		.byte	0x17
 9780 13fd C102     		.2byte	0x2c1
 9781 13ff B4090000 		.4byte	0x9b4
 9782 1403 00       		.byte	0
 9783 1404 18       		.uleb128 0x18
 9784 1405 682B0000 		.4byte	.LASF292
 9785 1409 17       		.byte	0x17
 9786 140a C202     		.2byte	0x2c2
 9787 140c B4090000 		.4byte	0x9b4
 9788 1410 04       		.byte	0x4
 9789 1411 25       		.uleb128 0x25
 9790 1412 41524700 		.ascii	"ARG\000"
 9791 1416 17       		.byte	0x17
 9792 1417 C302     		.2byte	0x2c3
 9793 1419 B4090000 		.4byte	0x9b4
 9794 141d 08       		.byte	0x8
 9795 141e 25       		.uleb128 0x25
 9796 141f 434D4400 		.ascii	"CMD\000"
 9797 1423 17       		.byte	0x17
 9798 1424 C402     		.2byte	0x2c4
 9799 1426 B4090000 		.4byte	0x9b4
 9800 142a 0C       		.byte	0xc
 9801 142b 18       		.uleb128 0x18
 9802 142c 5F210000 		.4byte	.LASF293
 9803 1430 17       		.byte	0x17
 9804 1431 C502     		.2byte	0x2c5
 9805 1433 B9090000 		.4byte	0x9b9
 9806 1437 10       		.byte	0x10
 9807 1438 18       		.uleb128 0x18
 9808 1439 93070000 		.4byte	.LASF294
 9809 143d 17       		.byte	0x17
 9810 143e C602     		.2byte	0x2c6
 9811 1440 B9090000 		.4byte	0x9b9
 9812 1444 14       		.byte	0x14
ARM GAS  C:\Users\PCHAUT~1\AppData\Local\Temp\ccLw8kky.s 			page 186


 9813 1445 18       		.uleb128 0x18
 9814 1446 99070000 		.4byte	.LASF295
 9815 144a 17       		.byte	0x17
 9816 144b C702     		.2byte	0x2c7
 9817 144d B9090000 		.4byte	0x9b9
 9818 1451 18       		.byte	0x18
 9819 1452 18       		.uleb128 0x18
 9820 1453 9F070000 		.4byte	.LASF296
 9821 1457 17       		.byte	0x17
 9822 1458 C802     		.2byte	0x2c8
 9823 145a B9090000 		.4byte	0x9b9
 9824 145e 1C       		.byte	0x1c
 9825 145f 18       		.uleb128 0x18
 9826 1460 A5070000 		.4byte	.LASF297
 9827 1464 17       		.byte	0x17
 9828 1465 C902     		.2byte	0x2c9
 9829 1467 B9090000 		.4byte	0x9b9
 9830 146b 20       		.byte	0x20
 9831 146c 18       		.uleb128 0x18
 9832 146d 99190000 		.4byte	.LASF298
 9833 1471 17       		.byte	0x17
 9834 1472 CA02     		.2byte	0x2ca
 9835 1474 B4090000 		.4byte	0x9b4
 9836 1478 24       		.byte	0x24
 9837 1479 18       		.uleb128 0x18
 9838 147a 751B0000 		.4byte	.LASF299
 9839 147e 17       		.byte	0x17
 9840 147f CB02     		.2byte	0x2cb
 9841 1481 B4090000 		.4byte	0x9b4
 9842 1485 28       		.byte	0x28
 9843 1486 18       		.uleb128 0x18
 9844 1487 11300000 		.4byte	.LASF300
 9845 148b 17       		.byte	0x17
 9846 148c CC02     		.2byte	0x2cc
 9847 148e B4090000 		.4byte	0x9b4
 9848 1492 2C       		.byte	0x2c
 9849 1493 18       		.uleb128 0x18
 9850 1494 FB310000 		.4byte	.LASF301
 9851 1498 17       		.byte	0x17
 9852 1499 CD02     		.2byte	0x2cd
 9853 149b B9090000 		.4byte	0x9b9
 9854 149f 30       		.byte	0x30
 9855 14a0 25       		.uleb128 0x25
 9856 14a1 53544100 		.ascii	"STA\000"
 9857 14a5 17       		.byte	0x17
 9858 14a6 CE02     		.2byte	0x2ce
 9859 14a8 B9090000 		.4byte	0x9b9
 9860 14ac 34       		.byte	0x34
 9861 14ad 25       		.uleb128 0x25
 9862 14ae 49435200 		.ascii	"ICR\000"
 9863 14b2 17       		.byte	0x17
 9864 14b3 CF02     		.2byte	0x2cf
 9865 14b5 B4090000 		.4byte	0x9b4
 9866 14b9 38       		.byte	0x38
 9867 14ba 18       		.uleb128 0x18
 9868 14bb 9B020000 		.4byte	.LASF302
 9869 14bf 17       		.byte	0x17
ARM GAS  C:\Users\PCHAUT~1\AppData\Local\Temp\ccLw8kky.s 			page 187


 9870 14c0 D002     		.2byte	0x2d0
 9871 14c2 B4090000 		.4byte	0x9b4
 9872 14c6 3C       		.byte	0x3c
 9873 14c7 18       		.uleb128 0x18
 9874 14c8 44280000 		.4byte	.LASF248
 9875 14cc 17       		.byte	0x17
 9876 14cd D102     		.2byte	0x2d1
 9877 14cf DB0D0000 		.4byte	0xddb
 9878 14d3 40       		.byte	0x40
 9879 14d4 18       		.uleb128 0x18
 9880 14d5 571A0000 		.4byte	.LASF303
 9881 14d9 17       		.byte	0x17
 9882 14da D202     		.2byte	0x2d2
 9883 14dc B9090000 		.4byte	0x9b9
 9884 14e0 48       		.byte	0x48
 9885 14e1 18       		.uleb128 0x18
 9886 14e2 4E280000 		.4byte	.LASF251
 9887 14e6 17       		.byte	0x17
 9888 14e7 D302     		.2byte	0x2d3
 9889 14e9 FC140000 		.4byte	0x14fc
 9890 14ed 4C       		.byte	0x4c
 9891 14ee 18       		.uleb128 0x18
 9892 14ef 220D0000 		.4byte	.LASF304
 9893 14f3 17       		.byte	0x17
 9894 14f4 D402     		.2byte	0x2d4
 9895 14f6 B4090000 		.4byte	0x9b4
 9896 14fa 80       		.byte	0x80
 9897 14fb 00       		.byte	0
 9898 14fc 0A       		.uleb128 0xa
 9899 14fd A9090000 		.4byte	0x9a9
 9900 1501 0C150000 		.4byte	0x150c
 9901 1505 0B       		.uleb128 0xb
 9902 1506 37000000 		.4byte	0x37
 9903 150a 0C       		.byte	0xc
 9904 150b 00       		.byte	0
 9905 150c 07       		.uleb128 0x7
 9906 150d B4290000 		.4byte	.LASF305
 9907 1511 17       		.byte	0x17
 9908 1512 D502     		.2byte	0x2d5
 9909 1514 EE130000 		.4byte	0x13ee
 9910 1518 1C       		.uleb128 0x1c
 9911 1519 24       		.byte	0x24
 9912 151a 17       		.byte	0x17
 9913 151b DB02     		.2byte	0x2db
 9914 151d 95150000 		.4byte	0x1595
 9915 1521 25       		.uleb128 0x25
 9916 1522 43523100 		.ascii	"CR1\000"
 9917 1526 17       		.byte	0x17
 9918 1527 DD02     		.2byte	0x2dd
 9919 1529 B4090000 		.4byte	0x9b4
 9920 152d 00       		.byte	0
 9921 152e 25       		.uleb128 0x25
 9922 152f 43523200 		.ascii	"CR2\000"
 9923 1533 17       		.byte	0x17
 9924 1534 DE02     		.2byte	0x2de
 9925 1536 B4090000 		.4byte	0x9b4
 9926 153a 04       		.byte	0x4
ARM GAS  C:\Users\PCHAUT~1\AppData\Local\Temp\ccLw8kky.s 			page 188


 9927 153b 25       		.uleb128 0x25
 9928 153c 535200   		.ascii	"SR\000"
 9929 153f 17       		.byte	0x17
 9930 1540 DF02     		.2byte	0x2df
 9931 1542 B4090000 		.4byte	0x9b4
 9932 1546 08       		.byte	0x8
 9933 1547 25       		.uleb128 0x25
 9934 1548 445200   		.ascii	"DR\000"
 9935 154b 17       		.byte	0x17
 9936 154c E002     		.2byte	0x2e0
 9937 154e B4090000 		.4byte	0x9b4
 9938 1552 0C       		.byte	0xc
 9939 1553 18       		.uleb128 0x18
 9940 1554 65090000 		.4byte	.LASF306
 9941 1558 17       		.byte	0x17
 9942 1559 E102     		.2byte	0x2e1
 9943 155b B4090000 		.4byte	0x9b4
 9944 155f 10       		.byte	0x10
 9945 1560 18       		.uleb128 0x18
 9946 1561 BB0F0000 		.4byte	.LASF307
 9947 1565 17       		.byte	0x17
 9948 1566 E202     		.2byte	0x2e2
 9949 1568 B4090000 		.4byte	0x9b4
 9950 156c 14       		.byte	0x14
 9951 156d 18       		.uleb128 0x18
 9952 156e 860E0000 		.4byte	.LASF308
 9953 1572 17       		.byte	0x17
 9954 1573 E302     		.2byte	0x2e3
 9955 1575 B4090000 		.4byte	0x9b4
 9956 1579 18       		.byte	0x18
 9957 157a 18       		.uleb128 0x18
 9958 157b 892C0000 		.4byte	.LASF309
 9959 157f 17       		.byte	0x17
 9960 1580 E402     		.2byte	0x2e4
 9961 1582 B4090000 		.4byte	0x9b4
 9962 1586 1C       		.byte	0x1c
 9963 1587 18       		.uleb128 0x18
 9964 1588 19090000 		.4byte	.LASF310
 9965 158c 17       		.byte	0x17
 9966 158d E502     		.2byte	0x2e5
 9967 158f B4090000 		.4byte	0x9b4
 9968 1593 20       		.byte	0x20
 9969 1594 00       		.byte	0
 9970 1595 07       		.uleb128 0x7
 9971 1596 372A0000 		.4byte	.LASF311
 9972 159a 17       		.byte	0x17
 9973 159b E602     		.2byte	0x2e6
 9974 159d 18150000 		.4byte	0x1518
 9975 15a1 1C       		.uleb128 0x1c
 9976 15a2 1C       		.byte	0x1c
 9977 15a3 17       		.byte	0x17
 9978 15a4 0903     		.2byte	0x309
 9979 15a6 04160000 		.4byte	0x1604
 9980 15aa 25       		.uleb128 0x25
 9981 15ab 535200   		.ascii	"SR\000"
 9982 15ae 17       		.byte	0x17
 9983 15af 0B03     		.2byte	0x30b
ARM GAS  C:\Users\PCHAUT~1\AppData\Local\Temp\ccLw8kky.s 			page 189


 9984 15b1 B4090000 		.4byte	0x9b4
 9985 15b5 00       		.byte	0
 9986 15b6 25       		.uleb128 0x25
 9987 15b7 445200   		.ascii	"DR\000"
 9988 15ba 17       		.byte	0x17
 9989 15bb 0C03     		.2byte	0x30c
 9990 15bd B4090000 		.4byte	0x9b4
 9991 15c1 04       		.byte	0x4
 9992 15c2 25       		.uleb128 0x25
 9993 15c3 42525200 		.ascii	"BRR\000"
 9994 15c7 17       		.byte	0x17
 9995 15c8 0D03     		.2byte	0x30d
 9996 15ca B4090000 		.4byte	0x9b4
 9997 15ce 08       		.byte	0x8
 9998 15cf 25       		.uleb128 0x25
 9999 15d0 43523100 		.ascii	"CR1\000"
 10000 15d4 17       		.byte	0x17
 10001 15d5 0E03     		.2byte	0x30e
 10002 15d7 B4090000 		.4byte	0x9b4
 10003 15db 0C       		.byte	0xc
 10004 15dc 25       		.uleb128 0x25
 10005 15dd 43523200 		.ascii	"CR2\000"
 10006 15e1 17       		.byte	0x17
 10007 15e2 0F03     		.2byte	0x30f
 10008 15e4 B4090000 		.4byte	0x9b4
 10009 15e8 10       		.byte	0x10
 10010 15e9 25       		.uleb128 0x25
 10011 15ea 43523300 		.ascii	"CR3\000"
 10012 15ee 17       		.byte	0x17
 10013 15ef 1003     		.2byte	0x310
 10014 15f1 B4090000 		.4byte	0x9b4
 10015 15f5 14       		.byte	0x14
 10016 15f6 18       		.uleb128 0x18
 10017 15f7 27130000 		.4byte	.LASF312
 10018 15fb 17       		.byte	0x17
 10019 15fc 1103     		.2byte	0x311
 10020 15fe B4090000 		.4byte	0x9b4
 10021 1602 18       		.byte	0x18
 10022 1603 00       		.byte	0
 10023 1604 07       		.uleb128 0x7
 10024 1605 1E310000 		.4byte	.LASF313
 10025 1609 17       		.byte	0x17
 10026 160a 1203     		.2byte	0x312
 10027 160c A1150000 		.4byte	0x15a1
 10028 1610 0A       		.uleb128 0xa
 10029 1611 B4090000 		.4byte	0x9b4
 10030 1615 20160000 		.4byte	0x1620
 10031 1619 0B       		.uleb128 0xb
 10032 161a 37000000 		.4byte	0x37
 10033 161e 0E       		.byte	0xe
 10034 161f 00       		.byte	0
 10035 1620 1A       		.uleb128 0x1a
 10036 1621 10160000 		.4byte	0x1610
 10037 1625 03       		.uleb128 0x3
 10038 1626 7B200000 		.4byte	.LASF314
 10039 162a 18       		.byte	0x18
 10040 162b 65       		.byte	0x65
ARM GAS  C:\Users\PCHAUT~1\AppData\Local\Temp\ccLw8kky.s 			page 190


 10041 162c 68010000 		.4byte	0x168
 10042 1630 03       		.uleb128 0x3
 10043 1631 66110000 		.4byte	.LASF315
 10044 1635 18       		.byte	0x18
 10045 1636 6D       		.byte	0x6d
 10046 1637 BE090000 		.4byte	0x9be
 10047 163b 10       		.uleb128 0x10
 10048 163c 43180000 		.4byte	.LASF316
 10049 1640 04       		.byte	0x4
 10050 1641 18       		.byte	0x18
 10051 1642 89       		.byte	0x89
 10052 1643 54160000 		.4byte	0x1654
 10053 1647 11       		.uleb128 0x11
 10054 1648 72313300 		.ascii	"r13\000"
 10055 164c 18       		.byte	0x18
 10056 164d 8A       		.byte	0x8a
 10057 164e 95170000 		.4byte	0x1795
 10058 1652 00       		.byte	0
 10059 1653 00       		.byte	0
 10060 1654 10       		.uleb128 0x10
 10061 1655 09000000 		.4byte	.LASF317
 10062 1659 64       		.byte	0x64
 10063 165a 01       		.byte	0x1
 10064 165b F4       		.byte	0xf4
 10065 165c 95170000 		.4byte	0x1795
 10066 1660 11       		.uleb128 0x11
 10067 1661 73313600 		.ascii	"s16\000"
 10068 1665 01       		.byte	0x1
 10069 1666 F6       		.byte	0xf6
 10070 1667 25160000 		.4byte	0x1625
 10071 166b 00       		.byte	0
 10072 166c 11       		.uleb128 0x11
 10073 166d 73313700 		.ascii	"s17\000"
 10074 1671 01       		.byte	0x1
 10075 1672 F7       		.byte	0xf7
 10076 1673 25160000 		.4byte	0x1625
 10077 1677 04       		.byte	0x4
 10078 1678 11       		.uleb128 0x11
 10079 1679 73313800 		.ascii	"s18\000"
 10080 167d 01       		.byte	0x1
 10081 167e F8       		.byte	0xf8
 10082 167f 25160000 		.4byte	0x1625
 10083 1683 08       		.byte	0x8
 10084 1684 11       		.uleb128 0x11
 10085 1685 73313900 		.ascii	"s19\000"
 10086 1689 01       		.byte	0x1
 10087 168a F9       		.byte	0xf9
 10088 168b 25160000 		.4byte	0x1625
 10089 168f 0C       		.byte	0xc
 10090 1690 11       		.uleb128 0x11
 10091 1691 73323000 		.ascii	"s20\000"
 10092 1695 01       		.byte	0x1
 10093 1696 FA       		.byte	0xfa
 10094 1697 25160000 		.4byte	0x1625
 10095 169b 10       		.byte	0x10
 10096 169c 11       		.uleb128 0x11
 10097 169d 73323100 		.ascii	"s21\000"
ARM GAS  C:\Users\PCHAUT~1\AppData\Local\Temp\ccLw8kky.s 			page 191


 10098 16a1 01       		.byte	0x1
 10099 16a2 FB       		.byte	0xfb
 10100 16a3 25160000 		.4byte	0x1625
 10101 16a7 14       		.byte	0x14
 10102 16a8 11       		.uleb128 0x11
 10103 16a9 73323200 		.ascii	"s22\000"
 10104 16ad 01       		.byte	0x1
 10105 16ae FC       		.byte	0xfc
 10106 16af 25160000 		.4byte	0x1625
 10107 16b3 18       		.byte	0x18
 10108 16b4 11       		.uleb128 0x11
 10109 16b5 73323300 		.ascii	"s23\000"
 10110 16b9 01       		.byte	0x1
 10111 16ba FD       		.byte	0xfd
 10112 16bb 25160000 		.4byte	0x1625
 10113 16bf 1C       		.byte	0x1c
 10114 16c0 11       		.uleb128 0x11
 10115 16c1 73323400 		.ascii	"s24\000"
 10116 16c5 01       		.byte	0x1
 10117 16c6 FE       		.byte	0xfe
 10118 16c7 25160000 		.4byte	0x1625
 10119 16cb 20       		.byte	0x20
 10120 16cc 11       		.uleb128 0x11
 10121 16cd 73323500 		.ascii	"s25\000"
 10122 16d1 01       		.byte	0x1
 10123 16d2 FF       		.byte	0xff
 10124 16d3 25160000 		.4byte	0x1625
 10125 16d7 24       		.byte	0x24
 10126 16d8 25       		.uleb128 0x25
 10127 16d9 73323600 		.ascii	"s26\000"
 10128 16dd 01       		.byte	0x1
 10129 16de 0001     		.2byte	0x100
 10130 16e0 25160000 		.4byte	0x1625
 10131 16e4 28       		.byte	0x28
 10132 16e5 25       		.uleb128 0x25
 10133 16e6 73323700 		.ascii	"s27\000"
 10134 16ea 01       		.byte	0x1
 10135 16eb 0101     		.2byte	0x101
 10136 16ed 25160000 		.4byte	0x1625
 10137 16f1 2C       		.byte	0x2c
 10138 16f2 25       		.uleb128 0x25
 10139 16f3 73323800 		.ascii	"s28\000"
 10140 16f7 01       		.byte	0x1
 10141 16f8 0201     		.2byte	0x102
 10142 16fa 25160000 		.4byte	0x1625
 10143 16fe 30       		.byte	0x30
 10144 16ff 25       		.uleb128 0x25
 10145 1700 73323900 		.ascii	"s29\000"
 10146 1704 01       		.byte	0x1
 10147 1705 0301     		.2byte	0x103
 10148 1707 25160000 		.4byte	0x1625
 10149 170b 34       		.byte	0x34
 10150 170c 25       		.uleb128 0x25
 10151 170d 73333000 		.ascii	"s30\000"
 10152 1711 01       		.byte	0x1
 10153 1712 0401     		.2byte	0x104
 10154 1714 25160000 		.4byte	0x1625
ARM GAS  C:\Users\PCHAUT~1\AppData\Local\Temp\ccLw8kky.s 			page 192


 10155 1718 38       		.byte	0x38
 10156 1719 25       		.uleb128 0x25
 10157 171a 73333100 		.ascii	"s31\000"
 10158 171e 01       		.byte	0x1
 10159 171f 0501     		.2byte	0x105
 10160 1721 25160000 		.4byte	0x1625
 10161 1725 3C       		.byte	0x3c
 10162 1726 25       		.uleb128 0x25
 10163 1727 723400   		.ascii	"r4\000"
 10164 172a 01       		.byte	0x1
 10165 172b 0701     		.2byte	0x107
 10166 172d 25160000 		.4byte	0x1625
 10167 1731 40       		.byte	0x40
 10168 1732 25       		.uleb128 0x25
 10169 1733 723500   		.ascii	"r5\000"
 10170 1736 01       		.byte	0x1
 10171 1737 0801     		.2byte	0x108
 10172 1739 25160000 		.4byte	0x1625
 10173 173d 44       		.byte	0x44
 10174 173e 25       		.uleb128 0x25
 10175 173f 723600   		.ascii	"r6\000"
 10176 1742 01       		.byte	0x1
 10177 1743 0901     		.2byte	0x109
 10178 1745 25160000 		.4byte	0x1625
 10179 1749 48       		.byte	0x48
 10180 174a 25       		.uleb128 0x25
 10181 174b 723700   		.ascii	"r7\000"
 10182 174e 01       		.byte	0x1
 10183 174f 0A01     		.2byte	0x10a
 10184 1751 25160000 		.4byte	0x1625
 10185 1755 4C       		.byte	0x4c
 10186 1756 25       		.uleb128 0x25
 10187 1757 723800   		.ascii	"r8\000"
 10188 175a 01       		.byte	0x1
 10189 175b 0B01     		.2byte	0x10b
 10190 175d 25160000 		.4byte	0x1625
 10191 1761 50       		.byte	0x50
 10192 1762 25       		.uleb128 0x25
 10193 1763 723900   		.ascii	"r9\000"
 10194 1766 01       		.byte	0x1
 10195 1767 0C01     		.2byte	0x10c
 10196 1769 25160000 		.4byte	0x1625
 10197 176d 54       		.byte	0x54
 10198 176e 25       		.uleb128 0x25
 10199 176f 72313000 		.ascii	"r10\000"
 10200 1773 01       		.byte	0x1
 10201 1774 0D01     		.2byte	0x10d
 10202 1776 25160000 		.4byte	0x1625
 10203 177a 58       		.byte	0x58
 10204 177b 25       		.uleb128 0x25
 10205 177c 72313100 		.ascii	"r11\000"
 10206 1780 01       		.byte	0x1
 10207 1781 0E01     		.2byte	0x10e
 10208 1783 25160000 		.4byte	0x1625
 10209 1787 5C       		.byte	0x5c
 10210 1788 25       		.uleb128 0x25
 10211 1789 6C7200   		.ascii	"lr\000"
ARM GAS  C:\Users\PCHAUT~1\AppData\Local\Temp\ccLw8kky.s 			page 193


 10212 178c 01       		.byte	0x1
 10213 178d 0F01     		.2byte	0x10f
 10214 178f 25160000 		.4byte	0x1625
 10215 1793 60       		.byte	0x60
 10216 1794 00       		.byte	0
 10217 1795 05       		.uleb128 0x5
 10218 1796 04       		.byte	0x4
 10219 1797 54160000 		.4byte	0x1654
 10220 179b 0C       		.uleb128 0xc
 10221 179c 10       		.byte	0x10
 10222 179d 19       		.byte	0x19
 10223 179e 51       		.byte	0x51
 10224 179f D4170000 		.4byte	0x17d4
 10225 17a3 0D       		.uleb128 0xd
 10226 17a4 B8280000 		.4byte	.LASF318
 10227 17a8 19       		.byte	0x19
 10228 17a9 55       		.byte	0x55
 10229 17aa 4D0A0000 		.4byte	0xa4d
 10230 17ae 00       		.byte	0
 10231 17af 0D       		.uleb128 0xd
 10232 17b0 19210000 		.4byte	.LASF319
 10233 17b4 19       		.byte	0x19
 10234 17b5 59       		.byte	0x59
 10235 17b6 910B0000 		.4byte	0xb91
 10236 17ba 04       		.byte	0x4
 10237 17bb 0D       		.uleb128 0xd
 10238 17bc 88100000 		.4byte	.LASF320
 10239 17c0 19       		.byte	0x19
 10240 17c1 5D       		.byte	0x5d
 10241 17c2 68010000 		.4byte	0x168
 10242 17c6 08       		.byte	0x8
 10243 17c7 0D       		.uleb128 0xd
 10244 17c8 0A0E0000 		.4byte	.LASF321
 10245 17cc 19       		.byte	0x19
 10246 17cd 61       		.byte	0x61
 10247 17ce 73090000 		.4byte	0x973
 10248 17d2 0C       		.byte	0xc
 10249 17d3 00       		.byte	0
 10250 17d4 03       		.uleb128 0x3
 10251 17d5 71110000 		.4byte	.LASF322
 10252 17d9 19       		.byte	0x19
 10253 17da 62       		.byte	0x62
 10254 17db 9B170000 		.4byte	0x179b
 10255 17df 29       		.uleb128 0x29
 10256 17e0 0804     		.2byte	0x408
 10257 17e2 19       		.byte	0x19
 10258 17e3 67       		.byte	0x67
 10259 17e4 0D180000 		.4byte	0x180d
 10260 17e8 0D       		.uleb128 0xd
 10261 17e9 64120000 		.4byte	.LASF323
 10262 17ed 19       		.byte	0x19
 10263 17ee 6B       		.byte	0x6b
 10264 17ef 37000000 		.4byte	0x37
 10265 17f3 00       		.byte	0
 10266 17f4 0D       		.uleb128 0xd
 10267 17f5 861A0000 		.4byte	.LASF324
 10268 17f9 19       		.byte	0x19
ARM GAS  C:\Users\PCHAUT~1\AppData\Local\Temp\ccLw8kky.s 			page 194


 10269 17fa 6F       		.byte	0x6f
 10270 17fb 0D180000 		.4byte	0x180d
 10271 17ff 04       		.byte	0x4
 10272 1800 0D       		.uleb128 0xd
 10273 1801 270D0000 		.4byte	.LASF325
 10274 1805 19       		.byte	0x19
 10275 1806 73       		.byte	0x73
 10276 1807 13180000 		.4byte	0x1813
 10277 180b 08       		.byte	0x8
 10278 180c 00       		.byte	0
 10279 180d 05       		.uleb128 0x5
 10280 180e 04       		.byte	0x4
 10281 180f D4170000 		.4byte	0x17d4
 10282 1813 0A       		.uleb128 0xa
 10283 1814 D4170000 		.4byte	0x17d4
 10284 1818 23180000 		.4byte	0x1823
 10285 181c 0B       		.uleb128 0xb
 10286 181d 37000000 		.4byte	0x37
 10287 1821 3F       		.byte	0x3f
 10288 1822 00       		.byte	0
 10289 1823 03       		.uleb128 0x3
 10290 1824 15000000 		.4byte	.LASF326
 10291 1828 19       		.byte	0x19
 10292 1829 74       		.byte	0x74
 10293 182a DF170000 		.4byte	0x17df
 10294 182e 0C       		.uleb128 0xc
 10295 182f 04       		.byte	0x4
 10296 1830 1A       		.byte	0x1a
 10297 1831 38       		.byte	0x38
 10298 1832 43180000 		.4byte	0x1843
 10299 1836 0D       		.uleb128 0xd
 10300 1837 C1290000 		.4byte	.LASF327
 10301 183b 1A       		.byte	0x1a
 10302 183c 3C       		.byte	0x3c
 10303 183d C9090000 		.4byte	0x9c9
 10304 1841 00       		.byte	0
 10305 1842 00       		.byte	0
 10306 1843 03       		.uleb128 0x3
 10307 1844 C9060000 		.4byte	.LASF328
 10308 1848 1A       		.byte	0x1a
 10309 1849 3D       		.byte	0x3d
 10310 184a 2E180000 		.4byte	0x182e
 10311 184e 0C       		.uleb128 0xc
 10312 184f 18       		.byte	0x18
 10313 1850 1A       		.byte	0x1a
 10314 1851 48       		.byte	0x48
 10315 1852 91180000 		.4byte	0x1891
 10316 1856 0D       		.uleb128 0xd
 10317 1857 2A090000 		.4byte	.LASF329
 10318 185b 1A       		.byte	0x1a
 10319 185c 49       		.byte	0x49
 10320 185d C9090000 		.4byte	0x9c9
 10321 1861 00       		.byte	0
 10322 1862 0D       		.uleb128 0xd
 10323 1863 2D020000 		.4byte	.LASF330
 10324 1867 1A       		.byte	0x1a
 10325 1868 4A       		.byte	0x4a
ARM GAS  C:\Users\PCHAUT~1\AppData\Local\Temp\ccLw8kky.s 			page 195


 10326 1869 C9090000 		.4byte	0x9c9
 10327 186d 04       		.byte	0x4
 10328 186e 0D       		.uleb128 0xd
 10329 186f C61F0000 		.4byte	.LASF331
 10330 1873 1A       		.byte	0x1a
 10331 1874 4B       		.byte	0x4b
 10332 1875 C9090000 		.4byte	0x9c9
 10333 1879 08       		.byte	0x8
 10334 187a 11       		.uleb128 0x11
 10335 187b 6E00     		.ascii	"n\000"
 10336 187d 1A       		.byte	0x1a
 10337 187e 4C       		.byte	0x4c
 10338 187f 420A0000 		.4byte	0xa42
 10339 1883 0C       		.byte	0xc
 10340 1884 0D       		.uleb128 0xd
 10341 1885 6A1F0000 		.4byte	.LASF332
 10342 1889 1A       		.byte	0x1a
 10343 188a 4D       		.byte	0x4d
 10344 188b D4090000 		.4byte	0x9d4
 10345 188f 10       		.byte	0x10
 10346 1890 00       		.byte	0
 10347 1891 03       		.uleb128 0x3
 10348 1892 4E2D0000 		.4byte	.LASF333
 10349 1896 1A       		.byte	0x1a
 10350 1897 4E       		.byte	0x4e
 10351 1898 4E180000 		.4byte	0x184e
 10352 189c 0C       		.uleb128 0xc
 10353 189d 38       		.byte	0x38
 10354 189e 1B       		.byte	0x1b
 10355 189f 38       		.byte	0x38
 10356 18a0 D5180000 		.4byte	0x18d5
 10357 18a4 0D       		.uleb128 0xd
 10358 18a5 5A080000 		.4byte	.LASF334
 10359 18a9 1B       		.byte	0x1b
 10360 18aa 39       		.byte	0x39
 10361 18ab 420A0000 		.4byte	0xa42
 10362 18af 00       		.byte	0
 10363 18b0 0D       		.uleb128 0xd
 10364 18b1 FC0E0000 		.4byte	.LASF335
 10365 18b5 1B       		.byte	0x1b
 10366 18b6 3A       		.byte	0x3a
 10367 18b7 420A0000 		.4byte	0xa42
 10368 18bb 04       		.byte	0x4
 10369 18bc 0D       		.uleb128 0xd
 10370 18bd 6C2C0000 		.4byte	.LASF336
 10371 18c1 1B       		.byte	0x1b
 10372 18c2 3B       		.byte	0x3b
 10373 18c3 91180000 		.4byte	0x1891
 10374 18c7 08       		.byte	0x8
 10375 18c8 0D       		.uleb128 0xd
 10376 18c9 C0000000 		.4byte	.LASF337
 10377 18cd 1B       		.byte	0x1b
 10378 18ce 3D       		.byte	0x3d
 10379 18cf 91180000 		.4byte	0x1891
 10380 18d3 20       		.byte	0x20
 10381 18d4 00       		.byte	0
 10382 18d5 03       		.uleb128 0x3
ARM GAS  C:\Users\PCHAUT~1\AppData\Local\Temp\ccLw8kky.s 			page 196


 10383 18d6 85060000 		.4byte	.LASF338
 10384 18da 1B       		.byte	0x1b
 10385 18db 3F       		.byte	0x3f
 10386 18dc 9C180000 		.4byte	0x189c
 10387 18e0 08       		.uleb128 0x8
 10388 18e1 04       		.byte	0x4
 10389 18e2 14       		.byte	0x14
 10390 18e3 FA       		.byte	0xfa
 10391 18e4 3D190000 		.4byte	0x193d
 10392 18e8 1E       		.uleb128 0x1e
 10393 18e9 14150000 		.4byte	.LASF339
 10394 18ed 14       		.byte	0x14
 10395 18ee 0101     		.2byte	0x101
 10396 18f0 160A0000 		.4byte	0xa16
 10397 18f4 1E       		.uleb128 0x1e
 10398 18f5 0F0A0000 		.4byte	.LASF340
 10399 18f9 14       		.byte	0x14
 10400 18fa 0801     		.2byte	0x108
 10401 18fc 160A0000 		.4byte	0xa16
 10402 1900 1E       		.uleb128 0x1e
 10403 1901 6A250000 		.4byte	.LASF341
 10404 1905 14       		.byte	0x14
 10405 1906 0F01     		.2byte	0x10f
 10406 1908 68010000 		.4byte	0x168
 10407 190c 1E       		.uleb128 0x1e
 10408 190d 8B1F0000 		.4byte	.LASF342
 10409 1911 14       		.byte	0x14
 10410 1912 1601     		.2byte	0x116
 10411 1914 3D190000 		.4byte	0x193d
 10412 1918 1E       		.uleb128 0x1e
 10413 1919 88010000 		.4byte	.LASF343
 10414 191d 14       		.byte	0x14
 10415 191e 1E01     		.2byte	0x11e
 10416 1920 68190000 		.4byte	0x1968
 10417 1924 1E       		.uleb128 0x1e
 10418 1925 CF250000 		.4byte	.LASF344
 10419 1929 14       		.byte	0x14
 10420 192a 2701     		.2byte	0x127
 10421 192c AB190000 		.4byte	0x19ab
 10422 1930 1E       		.uleb128 0x1e
 10423 1931 962A0000 		.4byte	.LASF345
 10424 1935 14       		.byte	0x14
 10425 1936 2F01     		.2byte	0x12f
 10426 1938 210A0000 		.4byte	0xa21
 10427 193c 00       		.byte	0
 10428 193d 05       		.uleb128 0x5
 10429 193e 04       		.byte	0x4
 10430 193f 860B0000 		.4byte	0xb86
 10431 1943 10       		.uleb128 0x10
 10432 1944 641D0000 		.4byte	.LASF346
 10433 1948 0C       		.byte	0xc
 10434 1949 1C       		.byte	0x1c
 10435 194a 34       		.byte	0x34
 10436 194b 68190000 		.4byte	0x1968
 10437 194f 0D       		.uleb128 0xd
 10438 1950 642C0000 		.4byte	.LASF347
 10439 1954 1C       		.byte	0x1c
ARM GAS  C:\Users\PCHAUT~1\AppData\Local\Temp\ccLw8kky.s 			page 197


 10440 1955 35       		.byte	0x35
 10441 1956 BB0B0000 		.4byte	0xbbb
 10442 195a 00       		.byte	0
 10443 195b 0D       		.uleb128 0xd
 10444 195c 3E0D0000 		.4byte	.LASF348
 10445 1960 1C       		.byte	0x1c
 10446 1961 37       		.byte	0x37
 10447 1962 370A0000 		.4byte	0xa37
 10448 1966 08       		.byte	0x8
 10449 1967 00       		.byte	0
 10450 1968 05       		.uleb128 0x5
 10451 1969 04       		.byte	0x4
 10452 196a 43190000 		.4byte	0x1943
 10453 196e 10       		.uleb128 0x10
 10454 196f CE0F0000 		.4byte	.LASF349
 10455 1973 14       		.byte	0x14
 10456 1974 1D       		.byte	0x1d
 10457 1975 39       		.byte	0x39
 10458 1976 AB190000 		.4byte	0x19ab
 10459 197a 0D       		.uleb128 0xd
 10460 197b EE180000 		.4byte	.LASF350
 10461 197f 1D       		.byte	0x1d
 10462 1980 3A       		.byte	0x3a
 10463 1981 BB0B0000 		.4byte	0xbbb
 10464 1985 00       		.byte	0
 10465 1986 0D       		.uleb128 0xd
 10466 1987 131C0000 		.4byte	.LASF351
 10467 198b 1D       		.byte	0x1d
 10468 198c 3C       		.byte	0x3c
 10469 198d 910B0000 		.4byte	0xb91
 10470 1991 08       		.byte	0x8
 10471 1992 0D       		.uleb128 0xd
 10472 1993 6C020000 		.4byte	.LASF352
 10473 1997 1D       		.byte	0x1d
 10474 1998 3E       		.byte	0x3e
 10475 1999 EF1A0000 		.4byte	0x1aef
 10476 199d 0C       		.byte	0xc
 10477 199e 0D       		.uleb128 0xd
 10478 199f C10A0000 		.4byte	.LASF353
 10479 19a3 1D       		.byte	0x1d
 10480 19a4 41       		.byte	0x41
 10481 19a5 370A0000 		.4byte	0xa37
 10482 19a9 10       		.byte	0x10
 10483 19aa 00       		.byte	0
 10484 19ab 05       		.uleb128 0x5
 10485 19ac 04       		.byte	0x4
 10486 19ad 6E190000 		.4byte	0x196e
 10487 19b1 05       		.uleb128 0x5
 10488 19b2 04       		.byte	0x4
 10489 19b3 30160000 		.4byte	0x1630
 10490 19b7 05       		.uleb128 0x5
 10491 19b8 04       		.byte	0x4
 10492 19b9 6E0C0000 		.4byte	0xc6e
 10493 19bd 0A       		.uleb128 0xa
 10494 19be 30160000 		.4byte	0x1630
 10495 19c2 CD190000 		.4byte	0x19cd
 10496 19c6 0B       		.uleb128 0xb
ARM GAS  C:\Users\PCHAUT~1\AppData\Local\Temp\ccLw8kky.s 			page 198


 10497 19c7 37000000 		.4byte	0x37
 10498 19cb 30       		.byte	0x30
 10499 19cc 00       		.byte	0
 10500 19cd 2A       		.uleb128 0x2a
 10501 19ce 636800   		.ascii	"ch\000"
 10502 19d1 14       		.byte	0x14
 10503 19d2 0902     		.2byte	0x209
 10504 19d4 630D0000 		.4byte	0xd63
 10505 19d8 0C       		.uleb128 0xc
 10506 19d9 16       		.byte	0x16
 10507 19da 1E       		.byte	0x1e
 10508 19db 34       		.byte	0x34
 10509 19dc B91A0000 		.4byte	0x1ab9
 10510 19e0 0D       		.uleb128 0xd
 10511 19e1 B02C0000 		.4byte	.LASF354
 10512 19e5 1E       		.byte	0x1e
 10513 19e6 35       		.byte	0x35
 10514 19e7 B91A0000 		.4byte	0x1ab9
 10515 19eb 00       		.byte	0
 10516 19ec 0D       		.uleb128 0xd
 10517 19ed EF2F0000 		.4byte	.LASF355
 10518 19f1 1E       		.byte	0x1e
 10519 19f2 36       		.byte	0x36
 10520 19f3 73090000 		.4byte	0x973
 10521 19f7 04       		.byte	0x4
 10522 19f8 0D       		.uleb128 0xd
 10523 19f9 18040000 		.4byte	.LASF356
 10524 19fd 1E       		.byte	0x1e
 10525 19fe 37       		.byte	0x37
 10526 19ff 73090000 		.4byte	0x973
 10527 1a03 05       		.byte	0x5
 10528 1a04 0D       		.uleb128 0xd
 10529 1a05 971C0000 		.4byte	.LASF357
 10530 1a09 1E       		.byte	0x1e
 10531 1a0a 38       		.byte	0x38
 10532 1a0b 8E090000 		.4byte	0x98e
 10533 1a0f 06       		.byte	0x6
 10534 1a10 0D       		.uleb128 0xd
 10535 1a11 27000000 		.4byte	.LASF358
 10536 1a15 1E       		.byte	0x1e
 10537 1a16 39       		.byte	0x39
 10538 1a17 73090000 		.4byte	0x973
 10539 1a1b 08       		.byte	0x8
 10540 1a1c 0D       		.uleb128 0xd
 10541 1a1d 431A0000 		.4byte	.LASF359
 10542 1a21 1E       		.byte	0x1e
 10543 1a22 3A       		.byte	0x3a
 10544 1a23 73090000 		.4byte	0x973
 10545 1a27 09       		.byte	0x9
 10546 1a28 0D       		.uleb128 0xd
 10547 1a29 17300000 		.4byte	.LASF360
 10548 1a2d 1E       		.byte	0x1e
 10549 1a2e 3B       		.byte	0x3b
 10550 1a2f 73090000 		.4byte	0x973
 10551 1a33 0A       		.byte	0xa
 10552 1a34 0D       		.uleb128 0xd
 10553 1a35 2A2D0000 		.4byte	.LASF361
ARM GAS  C:\Users\PCHAUT~1\AppData\Local\Temp\ccLw8kky.s 			page 199


 10554 1a39 1E       		.byte	0x1e
 10555 1a3a 3C       		.byte	0x3c
 10556 1a3b 73090000 		.4byte	0x973
 10557 1a3f 0B       		.byte	0xb
 10558 1a40 0D       		.uleb128 0xd
 10559 1a41 E02B0000 		.4byte	.LASF362
 10560 1a45 1E       		.byte	0x1e
 10561 1a46 3D       		.byte	0x3d
 10562 1a47 73090000 		.4byte	0x973
 10563 1a4b 0C       		.byte	0xc
 10564 1a4c 0D       		.uleb128 0xd
 10565 1a4d 44100000 		.4byte	.LASF363
 10566 1a51 1E       		.byte	0x1e
 10567 1a52 3E       		.byte	0x3e
 10568 1a53 73090000 		.4byte	0x973
 10569 1a57 0D       		.byte	0xd
 10570 1a58 0D       		.uleb128 0xd
 10571 1a59 1D070000 		.4byte	.LASF364
 10572 1a5d 1E       		.byte	0x1e
 10573 1a5e 3F       		.byte	0x3f
 10574 1a5f 73090000 		.4byte	0x973
 10575 1a63 0E       		.byte	0xe
 10576 1a64 0D       		.uleb128 0xd
 10577 1a65 F7110000 		.4byte	.LASF365
 10578 1a69 1E       		.byte	0x1e
 10579 1a6a 40       		.byte	0x40
 10580 1a6b 73090000 		.4byte	0x973
 10581 1a6f 0F       		.byte	0xf
 10582 1a70 0D       		.uleb128 0xd
 10583 1a71 71140000 		.4byte	.LASF366
 10584 1a75 1E       		.byte	0x1e
 10585 1a76 41       		.byte	0x41
 10586 1a77 73090000 		.4byte	0x973
 10587 1a7b 10       		.byte	0x10
 10588 1a7c 0D       		.uleb128 0xd
 10589 1a7d 061C0000 		.4byte	.LASF367
 10590 1a81 1E       		.byte	0x1e
 10591 1a82 43       		.byte	0x43
 10592 1a83 73090000 		.4byte	0x973
 10593 1a87 11       		.byte	0x11
 10594 1a88 0D       		.uleb128 0xd
 10595 1a89 D2030000 		.4byte	.LASF368
 10596 1a8d 1E       		.byte	0x1e
 10597 1a8e 44       		.byte	0x44
 10598 1a8f 73090000 		.4byte	0x973
 10599 1a93 12       		.byte	0x12
 10600 1a94 0D       		.uleb128 0xd
 10601 1a95 FA1B0000 		.4byte	.LASF369
 10602 1a99 1E       		.byte	0x1e
 10603 1a9a 45       		.byte	0x45
 10604 1a9b 73090000 		.4byte	0x973
 10605 1a9f 13       		.byte	0x13
 10606 1aa0 0D       		.uleb128 0xd
 10607 1aa1 5A240000 		.4byte	.LASF370
 10608 1aa5 1E       		.byte	0x1e
 10609 1aa6 46       		.byte	0x46
 10610 1aa7 73090000 		.4byte	0x973
ARM GAS  C:\Users\PCHAUT~1\AppData\Local\Temp\ccLw8kky.s 			page 200


 10611 1aab 14       		.byte	0x14
 10612 1aac 0D       		.uleb128 0xd
 10613 1aad 66010000 		.4byte	.LASF371
 10614 1ab1 1E       		.byte	0x1e
 10615 1ab2 48       		.byte	0x48
 10616 1ab3 73090000 		.4byte	0x973
 10617 1ab7 15       		.byte	0x15
 10618 1ab8 00       		.byte	0
 10619 1ab9 0A       		.uleb128 0xa
 10620 1aba 75010000 		.4byte	0x175
 10621 1abe C91A0000 		.4byte	0x1ac9
 10622 1ac2 0B       		.uleb128 0xb
 10623 1ac3 37000000 		.4byte	0x37
 10624 1ac7 03       		.byte	0x3
 10625 1ac8 00       		.byte	0
 10626 1ac9 03       		.uleb128 0x3
 10627 1aca BF190000 		.4byte	.LASF372
 10628 1ace 1E       		.byte	0x1e
 10629 1acf 49       		.byte	0x49
 10630 1ad0 D8190000 		.4byte	0x19d8
 10631 1ad4 0F       		.uleb128 0xf
 10632 1ad5 C91A0000 		.4byte	0x1ac9
 10633 1ad9 27       		.uleb128 0x27
 10634 1ada 050F0000 		.4byte	.LASF373
 10635 1ade 1E       		.byte	0x1e
 10636 1adf 6E       		.byte	0x6e
 10637 1ae0 D41A0000 		.4byte	0x1ad4
 10638 1ae4 03       		.uleb128 0x3
 10639 1ae5 C9270000 		.4byte	.LASF374
 10640 1ae9 1D       		.byte	0x1d
 10641 1aea 34       		.byte	0x34
 10642 1aeb 6E190000 		.4byte	0x196e
 10643 1aef 05       		.uleb128 0x5
 10644 1af0 04       		.byte	0x4
 10645 1af1 E41A0000 		.4byte	0x1ae4
 10646 1af5 03       		.uleb128 0x3
 10647 1af6 780F0000 		.4byte	.LASF375
 10648 1afa 1F       		.byte	0x1f
 10649 1afb 34       		.byte	0x34
 10650 1afc 001B0000 		.4byte	0x1b00
 10651 1b00 10       		.uleb128 0x10
 10652 1b01 E9300000 		.4byte	.LASF376
 10653 1b05 14       		.byte	0x14
 10654 1b06 1F       		.byte	0x1f
 10655 1b07 39       		.byte	0x39
 10656 1b08 491B0000 		.4byte	0x1b49
 10657 1b0c 0D       		.uleb128 0xd
 10658 1b0d 13030000 		.4byte	.LASF377
 10659 1b11 1F       		.byte	0x1f
 10660 1b12 3A       		.byte	0x3a
 10661 1b13 491B0000 		.4byte	0x1b49
 10662 1b17 00       		.byte	0
 10663 1b18 0D       		.uleb128 0xd
 10664 1b19 F5280000 		.4byte	.LASF378
 10665 1b1d 1F       		.byte	0x1f
 10666 1b1e 3D       		.byte	0x3d
 10667 1b1f 910B0000 		.4byte	0xb91
ARM GAS  C:\Users\PCHAUT~1\AppData\Local\Temp\ccLw8kky.s 			page 201


 10668 1b23 04       		.byte	0x4
 10669 1b24 0D       		.uleb128 0xd
 10670 1b25 80040000 		.4byte	.LASF379
 10671 1b29 1F       		.byte	0x1f
 10672 1b2a 3F       		.byte	0x3f
 10673 1b2b 210A0000 		.4byte	0xa21
 10674 1b2f 08       		.byte	0x8
 10675 1b30 0D       		.uleb128 0xd
 10676 1b31 9D2A0000 		.4byte	.LASF380
 10677 1b35 1F       		.byte	0x1f
 10678 1b36 41       		.byte	0x41
 10679 1b37 2C0A0000 		.4byte	0xa2c
 10680 1b3b 0C       		.byte	0xc
 10681 1b3c 0D       		.uleb128 0xd
 10682 1b3d 50120000 		.4byte	.LASF381
 10683 1b41 1F       		.byte	0x1f
 10684 1b42 43       		.byte	0x43
 10685 1b43 2C0A0000 		.4byte	0xa2c
 10686 1b47 10       		.byte	0x10
 10687 1b48 00       		.byte	0
 10688 1b49 05       		.uleb128 0x5
 10689 1b4a 04       		.byte	0x4
 10690 1b4b F51A0000 		.4byte	0x1af5
 10691 1b4f 10       		.uleb128 0x10
 10692 1b50 B12A0000 		.4byte	.LASF382
 10693 1b54 04       		.byte	0x4
 10694 1b55 1F       		.byte	0x1f
 10695 1b56 4A       		.byte	0x4a
 10696 1b57 681B0000 		.4byte	0x1b68
 10697 1b5b 0D       		.uleb128 0xd
 10698 1b5c F4290000 		.4byte	.LASF383
 10699 1b60 1F       		.byte	0x1f
 10700 1b61 4B       		.byte	0x4b
 10701 1b62 491B0000 		.4byte	0x1b49
 10702 1b66 00       		.byte	0
 10703 1b67 00       		.byte	0
 10704 1b68 03       		.uleb128 0x3
 10705 1b69 5F1A0000 		.4byte	.LASF384
 10706 1b6d 1F       		.byte	0x1f
 10707 1b6e 4E       		.byte	0x4e
 10708 1b6f 4F1B0000 		.4byte	0x1b4f
 10709 1b73 03       		.uleb128 0x3
 10710 1b74 B0120000 		.4byte	.LASF385
 10711 1b78 20       		.byte	0x20
 10712 1b79 3F       		.byte	0x3f
 10713 1b7a 7E1B0000 		.4byte	0x1b7e
 10714 1b7e 10       		.uleb128 0x10
 10715 1b7f A0150000 		.4byte	.LASF386
 10716 1b83 24       		.byte	0x24
 10717 1b84 20       		.byte	0x20
 10718 1b85 4D       		.byte	0x4d
 10719 1b86 EB1B0000 		.4byte	0x1beb
 10720 1b8a 0D       		.uleb128 0xd
 10721 1b8b 94060000 		.4byte	.LASF387
 10722 1b8f 20       		.byte	0x20
 10723 1b90 4E       		.byte	0x4e
 10724 1b91 BB0B0000 		.4byte	0xbbb
ARM GAS  C:\Users\PCHAUT~1\AppData\Local\Temp\ccLw8kky.s 			page 202


 10725 1b95 00       		.byte	0
 10726 1b96 0D       		.uleb128 0xd
 10727 1b97 111F0000 		.4byte	.LASF388
 10728 1b9b 20       		.byte	0x20
 10729 1b9c 4F       		.byte	0x4f
 10730 1b9d 2C000000 		.4byte	0x2c
 10731 1ba1 08       		.byte	0x8
 10732 1ba2 0D       		.uleb128 0xd
 10733 1ba3 E3160000 		.4byte	.LASF389
 10734 1ba7 20       		.byte	0x20
 10735 1ba8 50       		.byte	0x50
 10736 1ba9 0D1C0000 		.4byte	0x1c0d
 10737 1bad 0C       		.byte	0xc
 10738 1bae 0D       		.uleb128 0xd
 10739 1baf C7050000 		.4byte	.LASF390
 10740 1bb3 20       		.byte	0x20
 10741 1bb4 51       		.byte	0x51
 10742 1bb5 0D1C0000 		.4byte	0x1c0d
 10743 1bb9 10       		.byte	0x10
 10744 1bba 0D       		.uleb128 0xd
 10745 1bbb 1F210000 		.4byte	.LASF391
 10746 1bbf 20       		.byte	0x20
 10747 1bc0 53       		.byte	0x53
 10748 1bc1 0D1C0000 		.4byte	0x1c0d
 10749 1bc5 14       		.byte	0x14
 10750 1bc6 0D       		.uleb128 0xd
 10751 1bc7 911F0000 		.4byte	.LASF392
 10752 1bcb 20       		.byte	0x20
 10753 1bcc 54       		.byte	0x54
 10754 1bcd 0D1C0000 		.4byte	0x1c0d
 10755 1bd1 18       		.byte	0x18
 10756 1bd2 0D       		.uleb128 0xd
 10757 1bd3 C6250000 		.4byte	.LASF393
 10758 1bd7 20       		.byte	0x20
 10759 1bd8 55       		.byte	0x55
 10760 1bd9 EB1B0000 		.4byte	0x1beb
 10761 1bdd 1C       		.byte	0x1c
 10762 1bde 0D       		.uleb128 0xd
 10763 1bdf 31220000 		.4byte	.LASF394
 10764 1be3 20       		.byte	0x20
 10765 1be4 56       		.byte	0x56
 10766 1be5 68010000 		.4byte	0x168
 10767 1be9 20       		.byte	0x20
 10768 1bea 00       		.byte	0
 10769 1beb 03       		.uleb128 0x3
 10770 1bec 76050000 		.4byte	.LASF395
 10771 1bf0 20       		.byte	0x20
 10772 1bf1 42       		.byte	0x42
 10773 1bf2 F61B0000 		.4byte	0x1bf6
 10774 1bf6 05       		.uleb128 0x5
 10775 1bf7 04       		.byte	0x4
 10776 1bf8 FC1B0000 		.4byte	0x1bfc
 10777 1bfc 1F       		.uleb128 0x1f
 10778 1bfd 071C0000 		.4byte	0x1c07
 10779 1c01 16       		.uleb128 0x16
 10780 1c02 071C0000 		.4byte	0x1c07
 10781 1c06 00       		.byte	0
ARM GAS  C:\Users\PCHAUT~1\AppData\Local\Temp\ccLw8kky.s 			page 203


 10782 1c07 05       		.uleb128 0x5
 10783 1c08 04       		.byte	0x4
 10784 1c09 731B0000 		.4byte	0x1b73
 10785 1c0d 05       		.uleb128 0x5
 10786 1c0e 04       		.byte	0x4
 10787 1c0f 73090000 		.4byte	0x973
 10788 1c13 03       		.uleb128 0x3
 10789 1c14 DA060000 		.4byte	.LASF396
 10790 1c18 20       		.byte	0x20
 10791 1c19 64       		.byte	0x64
 10792 1c1a 731B0000 		.4byte	0x1b73
 10793 1c1e 03       		.uleb128 0x3
 10794 1c1f 2C310000 		.4byte	.LASF397
 10795 1c23 20       		.byte	0x20
 10796 1c24 71       		.byte	0x71
 10797 1c25 731B0000 		.4byte	0x1b73
 10798 1c29 10       		.uleb128 0x10
 10799 1c2a FE2E0000 		.4byte	.LASF398
 10800 1c2e 10       		.byte	0x10
 10801 1c2f 21       		.byte	0x21
 10802 1c30 40       		.byte	0x40
 10803 1c31 661C0000 		.4byte	0x1c66
 10804 1c35 0D       		.uleb128 0xd
 10805 1c36 A01F0000 		.4byte	.LASF399
 10806 1c3a 21       		.byte	0x21
 10807 1c3b 41       		.byte	0x41
 10808 1c3c 8A1C0000 		.4byte	0x1c8a
 10809 1c40 00       		.byte	0
 10810 1c41 0D       		.uleb128 0xd
 10811 1c42 09060000 		.4byte	.LASF400
 10812 1c46 21       		.byte	0x21
 10813 1c47 41       		.byte	0x41
 10814 1c48 A91C0000 		.4byte	0x1ca9
 10815 1c4c 04       		.byte	0x4
 10816 1c4d 11       		.uleb128 0x11
 10817 1c4e 70757400 		.ascii	"put\000"
 10818 1c52 21       		.byte	0x21
 10819 1c53 41       		.byte	0x41
 10820 1c54 C31C0000 		.4byte	0x1cc3
 10821 1c58 08       		.byte	0x8
 10822 1c59 11       		.uleb128 0x11
 10823 1c5a 67657400 		.ascii	"get\000"
 10824 1c5e 21       		.byte	0x21
 10825 1c5f 41       		.byte	0x41
 10826 1c60 D81C0000 		.4byte	0x1cd8
 10827 1c64 0C       		.byte	0xc
 10828 1c65 00       		.byte	0
 10829 1c66 0F       		.uleb128 0xf
 10830 1c67 291C0000 		.4byte	0x1c29
 10831 1c6b 15       		.uleb128 0x15
 10832 1c6c 2C000000 		.4byte	0x2c
 10833 1c70 841C0000 		.4byte	0x1c84
 10834 1c74 16       		.uleb128 0x16
 10835 1c75 68010000 		.4byte	0x168
 10836 1c79 16       		.uleb128 0x16
 10837 1c7a 841C0000 		.4byte	0x1c84
 10838 1c7e 16       		.uleb128 0x16
ARM GAS  C:\Users\PCHAUT~1\AppData\Local\Temp\ccLw8kky.s 			page 204


 10839 1c7f 2C000000 		.4byte	0x2c
 10840 1c83 00       		.byte	0
 10841 1c84 05       		.uleb128 0x5
 10842 1c85 04       		.byte	0x4
 10843 1c86 7E090000 		.4byte	0x97e
 10844 1c8a 05       		.uleb128 0x5
 10845 1c8b 04       		.byte	0x4
 10846 1c8c 6B1C0000 		.4byte	0x1c6b
 10847 1c90 15       		.uleb128 0x15
 10848 1c91 2C000000 		.4byte	0x2c
 10849 1c95 A91C0000 		.4byte	0x1ca9
 10850 1c99 16       		.uleb128 0x16
 10851 1c9a 68010000 		.4byte	0x168
 10852 1c9e 16       		.uleb128 0x16
 10853 1c9f 0D1C0000 		.4byte	0x1c0d
 10854 1ca3 16       		.uleb128 0x16
 10855 1ca4 2C000000 		.4byte	0x2c
 10856 1ca8 00       		.byte	0
 10857 1ca9 05       		.uleb128 0x5
 10858 1caa 04       		.byte	0x4
 10859 1cab 901C0000 		.4byte	0x1c90
 10860 1caf 15       		.uleb128 0x15
 10861 1cb0 160A0000 		.4byte	0xa16
 10862 1cb4 C31C0000 		.4byte	0x1cc3
 10863 1cb8 16       		.uleb128 0x16
 10864 1cb9 68010000 		.4byte	0x168
 10865 1cbd 16       		.uleb128 0x16
 10866 1cbe 73090000 		.4byte	0x973
 10867 1cc2 00       		.byte	0
 10868 1cc3 05       		.uleb128 0x5
 10869 1cc4 04       		.byte	0x4
 10870 1cc5 AF1C0000 		.4byte	0x1caf
 10871 1cc9 15       		.uleb128 0x15
 10872 1cca 160A0000 		.4byte	0xa16
 10873 1cce D81C0000 		.4byte	0x1cd8
 10874 1cd2 16       		.uleb128 0x16
 10875 1cd3 68010000 		.4byte	0x168
 10876 1cd7 00       		.byte	0
 10877 1cd8 05       		.uleb128 0x5
 10878 1cd9 04       		.byte	0x4
 10879 1cda C91C0000 		.4byte	0x1cc9
 10880 1cde 0C       		.uleb128 0xc
 10881 1cdf 04       		.byte	0x4
 10882 1ce0 21       		.byte	0x21
 10883 1ce1 49       		.byte	0x49
 10884 1ce2 F31C0000 		.4byte	0x1cf3
 10885 1ce6 11       		.uleb128 0x11
 10886 1ce7 766D7400 		.ascii	"vmt\000"
 10887 1ceb 21       		.byte	0x21
 10888 1cec 4B       		.byte	0x4b
 10889 1ced F31C0000 		.4byte	0x1cf3
 10890 1cf1 00       		.byte	0
 10891 1cf2 00       		.byte	0
 10892 1cf3 05       		.uleb128 0x5
 10893 1cf4 04       		.byte	0x4
 10894 1cf5 661C0000 		.4byte	0x1c66
 10895 1cf9 03       		.uleb128 0x3
ARM GAS  C:\Users\PCHAUT~1\AppData\Local\Temp\ccLw8kky.s 			page 205


 10896 1cfa F4030000 		.4byte	.LASF401
 10897 1cfe 21       		.byte	0x21
 10898 1cff 4D       		.byte	0x4d
 10899 1d00 DE1C0000 		.4byte	0x1cde
 10900 1d04 0C       		.uleb128 0xc
 10901 1d05 0C       		.byte	0xc
 10902 1d06 22       		.byte	0x22
 10903 1d07 DA       		.byte	0xda
 10904 1d08 491D0000 		.4byte	0x1d49
 10905 1d0c 0D       		.uleb128 0xd
 10906 1d0d AD300000 		.4byte	.LASF402
 10907 1d11 22       		.byte	0x22
 10908 1d12 DB       		.byte	0xdb
 10909 1d13 491D0000 		.4byte	0x1d49
 10910 1d17 00       		.byte	0
 10911 1d18 0D       		.uleb128 0xd
 10912 1d19 EF140000 		.4byte	.LASF403
 10913 1d1d 22       		.byte	0x22
 10914 1d1e DC       		.byte	0xdc
 10915 1d1f 4F1D0000 		.4byte	0x1d4f
 10916 1d23 04       		.byte	0x4
 10917 1d24 0D       		.uleb128 0xd
 10918 1d25 AA050000 		.4byte	.LASF404
 10919 1d29 22       		.byte	0x22
 10920 1d2a DD       		.byte	0xdd
 10921 1d2b 73090000 		.4byte	0x973
 10922 1d2f 08       		.byte	0x8
 10923 1d30 0D       		.uleb128 0xd
 10924 1d31 BF270000 		.4byte	.LASF405
 10925 1d35 22       		.byte	0x22
 10926 1d36 DF       		.byte	0xdf
 10927 1d37 73090000 		.4byte	0x973
 10928 1d3b 09       		.byte	0x9
 10929 1d3c 0D       		.uleb128 0xd
 10930 1d3d B8040000 		.4byte	.LASF406
 10931 1d41 22       		.byte	0x22
 10932 1d42 E0       		.byte	0xe0
 10933 1d43 73090000 		.4byte	0x973
 10934 1d47 0A       		.byte	0xa
 10935 1d48 00       		.byte	0
 10936 1d49 05       		.uleb128 0x5
 10937 1d4a 04       		.byte	0x4
 10938 1d4b 21130000 		.4byte	0x1321
 10939 1d4f 05       		.uleb128 0x5
 10940 1d50 04       		.byte	0x4
 10941 1d51 B4090000 		.4byte	0x9b4
 10942 1d55 03       		.uleb128 0x3
 10943 1d56 7D180000 		.4byte	.LASF407
 10944 1d5a 22       		.byte	0x22
 10945 1d5b E1       		.byte	0xe1
 10946 1d5c 041D0000 		.4byte	0x1d04
 10947 1d60 0F       		.uleb128 0xf
 10948 1d61 551D0000 		.4byte	0x1d55
 10949 1d65 0A       		.uleb128 0xa
 10950 1d66 601D0000 		.4byte	0x1d60
 10951 1d6a 751D0000 		.4byte	0x1d75
 10952 1d6e 0B       		.uleb128 0xb
ARM GAS  C:\Users\PCHAUT~1\AppData\Local\Temp\ccLw8kky.s 			page 206


 10953 1d6f 37000000 		.4byte	0x37
 10954 1d73 0F       		.byte	0xf
 10955 1d74 00       		.byte	0
 10956 1d75 0F       		.uleb128 0xf
 10957 1d76 651D0000 		.4byte	0x1d65
 10958 1d7a 20       		.uleb128 0x20
 10959 1d7b 05230000 		.4byte	.LASF408
 10960 1d7f 22       		.byte	0x22
 10961 1d80 BB01     		.2byte	0x1bb
 10962 1d82 751D0000 		.4byte	0x1d75
 10963 1d86 15       		.uleb128 0x15
 10964 1d87 160A0000 		.4byte	0xa16
 10965 1d8b 9F1D0000 		.4byte	0x1d9f
 10966 1d8f 16       		.uleb128 0x16
 10967 1d90 68010000 		.4byte	0x168
 10968 1d94 16       		.uleb128 0x16
 10969 1d95 73090000 		.4byte	0x973
 10970 1d99 16       		.uleb128 0x16
 10971 1d9a 4D0A0000 		.4byte	0xa4d
 10972 1d9e 00       		.byte	0
 10973 1d9f 05       		.uleb128 0x5
 10974 1da0 04       		.byte	0x4
 10975 1da1 861D0000 		.4byte	0x1d86
 10976 1da5 15       		.uleb128 0x15
 10977 1da6 160A0000 		.4byte	0xa16
 10978 1daa B91D0000 		.4byte	0x1db9
 10979 1dae 16       		.uleb128 0x16
 10980 1daf 68010000 		.4byte	0x168
 10981 1db3 16       		.uleb128 0x16
 10982 1db4 4D0A0000 		.4byte	0xa4d
 10983 1db8 00       		.byte	0
 10984 1db9 05       		.uleb128 0x5
 10985 1dba 04       		.byte	0x4
 10986 1dbb A51D0000 		.4byte	0x1da5
 10987 1dbf 15       		.uleb128 0x15
 10988 1dc0 2C000000 		.4byte	0x2c
 10989 1dc4 DD1D0000 		.4byte	0x1ddd
 10990 1dc8 16       		.uleb128 0x16
 10991 1dc9 68010000 		.4byte	0x168
 10992 1dcd 16       		.uleb128 0x16
 10993 1dce 841C0000 		.4byte	0x1c84
 10994 1dd2 16       		.uleb128 0x16
 10995 1dd3 2C000000 		.4byte	0x2c
 10996 1dd7 16       		.uleb128 0x16
 10997 1dd8 4D0A0000 		.4byte	0xa4d
 10998 1ddc 00       		.byte	0
 10999 1ddd 05       		.uleb128 0x5
 11000 1dde 04       		.byte	0x4
 11001 1ddf BF1D0000 		.4byte	0x1dbf
 11002 1de3 15       		.uleb128 0x15
 11003 1de4 2C000000 		.4byte	0x2c
 11004 1de8 011E0000 		.4byte	0x1e01
 11005 1dec 16       		.uleb128 0x16
 11006 1ded 68010000 		.4byte	0x168
 11007 1df1 16       		.uleb128 0x16
 11008 1df2 0D1C0000 		.4byte	0x1c0d
 11009 1df6 16       		.uleb128 0x16
ARM GAS  C:\Users\PCHAUT~1\AppData\Local\Temp\ccLw8kky.s 			page 207


 11010 1df7 2C000000 		.4byte	0x2c
 11011 1dfb 16       		.uleb128 0x16
 11012 1dfc 4D0A0000 		.4byte	0xa4d
 11013 1e00 00       		.byte	0
 11014 1e01 05       		.uleb128 0x5
 11015 1e02 04       		.byte	0x4
 11016 1e03 E31D0000 		.4byte	0x1de3
 11017 1e07 2B       		.uleb128 0x2b
 11018 1e08 07       		.byte	0x7
 11019 1e09 01       		.byte	0x1
 11020 1e0a 69000000 		.4byte	0x69
 11021 1e0e 23       		.byte	0x23
 11022 1e0f 28       		.byte	0x28
 11023 1e10 4B1E0000 		.4byte	0x1e4b
 11024 1e14 23       		.uleb128 0x23
 11025 1e15 11020000 		.4byte	.LASF409
 11026 1e19 00       		.byte	0
 11027 1e1a 23       		.uleb128 0x23
 11028 1e1b 89130000 		.4byte	.LASF410
 11029 1e1f 01       		.byte	0x1
 11030 1e20 23       		.uleb128 0x23
 11031 1e21 630F0000 		.4byte	.LASF411
 11032 1e25 02       		.byte	0x2
 11033 1e26 23       		.uleb128 0x23
 11034 1e27 D0240000 		.4byte	.LASF412
 11035 1e2b 03       		.byte	0x3
 11036 1e2c 23       		.uleb128 0x23
 11037 1e2d DD2E0000 		.4byte	.LASF413
 11038 1e31 04       		.byte	0x4
 11039 1e32 23       		.uleb128 0x23
 11040 1e33 92090000 		.4byte	.LASF414
 11041 1e37 05       		.byte	0x5
 11042 1e38 23       		.uleb128 0x23
 11043 1e39 7B270000 		.4byte	.LASF415
 11044 1e3d 06       		.byte	0x6
 11045 1e3e 23       		.uleb128 0x23
 11046 1e3f 24200000 		.4byte	.LASF416
 11047 1e43 07       		.byte	0x7
 11048 1e44 23       		.uleb128 0x23
 11049 1e45 622E0000 		.4byte	.LASF417
 11050 1e49 08       		.byte	0x8
 11051 1e4a 00       		.byte	0
 11052 1e4b 03       		.uleb128 0x3
 11053 1e4c 281E0000 		.4byte	.LASF418
 11054 1e50 23       		.byte	0x23
 11055 1e51 32       		.byte	0x32
 11056 1e52 071E0000 		.4byte	0x1e07
 11057 1e56 0C       		.uleb128 0xc
 11058 1e57 08       		.byte	0x8
 11059 1e58 23       		.byte	0x23
 11060 1e59 37       		.byte	0x37
 11061 1e5a 771E0000 		.4byte	0x1e77
 11062 1e5e 0D       		.uleb128 0xd
 11063 1e5f ED080000 		.4byte	.LASF419
 11064 1e63 23       		.byte	0x23
 11065 1e64 38       		.byte	0x38
 11066 1e65 A9090000 		.4byte	0x9a9
ARM GAS  C:\Users\PCHAUT~1\AppData\Local\Temp\ccLw8kky.s 			page 208


 11067 1e69 00       		.byte	0
 11068 1e6a 0D       		.uleb128 0xd
 11069 1e6b 61260000 		.4byte	.LASF420
 11070 1e6f 23       		.byte	0x23
 11071 1e70 39       		.byte	0x39
 11072 1e71 A9090000 		.4byte	0x9a9
 11073 1e75 04       		.byte	0x4
 11074 1e76 00       		.byte	0
 11075 1e77 03       		.uleb128 0x3
 11076 1e78 8D290000 		.4byte	.LASF421
 11077 1e7c 23       		.byte	0x23
 11078 1e7d 3A       		.byte	0x3a
 11079 1e7e 561E0000 		.4byte	0x1e56
 11080 1e82 15       		.uleb128 0x15
 11081 1e83 911E0000 		.4byte	0x1e91
 11082 1e87 911E0000 		.4byte	0x1e91
 11083 1e8b 16       		.uleb128 0x16
 11084 1e8c 68010000 		.4byte	0x168
 11085 1e90 00       		.byte	0
 11086 1e91 04       		.uleb128 0x4
 11087 1e92 01       		.byte	0x1
 11088 1e93 02       		.byte	0x2
 11089 1e94 9E010000 		.4byte	.LASF422
 11090 1e98 05       		.uleb128 0x5
 11091 1e99 04       		.byte	0x4
 11092 1e9a 821E0000 		.4byte	0x1e82
 11093 1e9e 15       		.uleb128 0x15
 11094 1e9f 911E0000 		.4byte	0x1e91
 11095 1ea3 BC1E0000 		.4byte	0x1ebc
 11096 1ea7 16       		.uleb128 0x16
 11097 1ea8 68010000 		.4byte	0x168
 11098 1eac 16       		.uleb128 0x16
 11099 1ead A9090000 		.4byte	0x9a9
 11100 1eb1 16       		.uleb128 0x16
 11101 1eb2 0D1C0000 		.4byte	0x1c0d
 11102 1eb6 16       		.uleb128 0x16
 11103 1eb7 A9090000 		.4byte	0x9a9
 11104 1ebb 00       		.byte	0
 11105 1ebc 05       		.uleb128 0x5
 11106 1ebd 04       		.byte	0x4
 11107 1ebe 9E1E0000 		.4byte	0x1e9e
 11108 1ec2 15       		.uleb128 0x15
 11109 1ec3 911E0000 		.4byte	0x1e91
 11110 1ec7 E01E0000 		.4byte	0x1ee0
 11111 1ecb 16       		.uleb128 0x16
 11112 1ecc 68010000 		.4byte	0x168
 11113 1ed0 16       		.uleb128 0x16
 11114 1ed1 A9090000 		.4byte	0x9a9
 11115 1ed5 16       		.uleb128 0x16
 11116 1ed6 841C0000 		.4byte	0x1c84
 11117 1eda 16       		.uleb128 0x16
 11118 1edb A9090000 		.4byte	0x9a9
 11119 1edf 00       		.byte	0
 11120 1ee0 05       		.uleb128 0x5
 11121 1ee1 04       		.byte	0x4
 11122 1ee2 C21E0000 		.4byte	0x1ec2
 11123 1ee6 15       		.uleb128 0x15
ARM GAS  C:\Users\PCHAUT~1\AppData\Local\Temp\ccLw8kky.s 			page 209


 11124 1ee7 911E0000 		.4byte	0x1e91
 11125 1eeb FA1E0000 		.4byte	0x1efa
 11126 1eef 16       		.uleb128 0x16
 11127 1ef0 68010000 		.4byte	0x168
 11128 1ef4 16       		.uleb128 0x16
 11129 1ef5 FA1E0000 		.4byte	0x1efa
 11130 1ef9 00       		.byte	0
 11131 1efa 05       		.uleb128 0x5
 11132 1efb 04       		.byte	0x4
 11133 1efc 771E0000 		.4byte	0x1e77
 11134 1f00 05       		.uleb128 0x5
 11135 1f01 04       		.byte	0x4
 11136 1f02 E61E0000 		.4byte	0x1ee6
 11137 1f06 0A       		.uleb128 0xa
 11138 1f07 A9090000 		.4byte	0x9a9
 11139 1f0b 161F0000 		.4byte	0x1f16
 11140 1f0f 0B       		.uleb128 0xb
 11141 1f10 37000000 		.4byte	0x37
 11142 1f14 03       		.byte	0x3
 11143 1f15 00       		.byte	0
 11144 1f16 0C       		.uleb128 0xc
 11145 1f17 04       		.byte	0x4
 11146 1f18 24       		.byte	0x24
 11147 1f19 B3       		.byte	0xb3
 11148 1f1a 371F0000 		.4byte	0x1f37
 11149 1f1e 11       		.uleb128 0x11
 11150 1f1f 73657400 		.ascii	"set\000"
 11151 1f23 24       		.byte	0x24
 11152 1f24 B4       		.byte	0xb4
 11153 1f25 8E090000 		.4byte	0x98e
 11154 1f29 00       		.byte	0
 11155 1f2a 0D       		.uleb128 0xd
 11156 1f2b 48110000 		.4byte	.LASF423
 11157 1f2f 24       		.byte	0x24
 11158 1f30 B5       		.byte	0xb5
 11159 1f31 8E090000 		.4byte	0x98e
 11160 1f35 02       		.byte	0x2
 11161 1f36 00       		.byte	0
 11162 1f37 08       		.uleb128 0x8
 11163 1f38 04       		.byte	0x4
 11164 1f39 24       		.byte	0x24
 11165 1f3a B1       		.byte	0xb1
 11166 1f3b 521F0000 		.4byte	0x1f52
 11167 1f3f 2C       		.uleb128 0x2c
 11168 1f40 5700     		.ascii	"W\000"
 11169 1f42 24       		.byte	0x24
 11170 1f43 B2       		.byte	0xb2
 11171 1f44 A9090000 		.4byte	0x9a9
 11172 1f48 2C       		.uleb128 0x2c
 11173 1f49 4800     		.ascii	"H\000"
 11174 1f4b 24       		.byte	0x24
 11175 1f4c B6       		.byte	0xb6
 11176 1f4d 161F0000 		.4byte	0x1f16
 11177 1f51 00       		.byte	0
 11178 1f52 1A       		.uleb128 0x1a
 11179 1f53 371F0000 		.4byte	0x1f37
 11180 1f57 0C       		.uleb128 0xc
ARM GAS  C:\Users\PCHAUT~1\AppData\Local\Temp\ccLw8kky.s 			page 210


 11181 1f58 2C       		.byte	0x2c
 11182 1f59 24       		.byte	0x24
 11183 1f5a A9       		.byte	0xa9
 11184 1f5b E41F0000 		.4byte	0x1fe4
 11185 1f5f 0D       		.uleb128 0xd
 11186 1f60 F2270000 		.4byte	.LASF424
 11187 1f64 24       		.byte	0x24
 11188 1f65 AB       		.byte	0xab
 11189 1f66 B4090000 		.4byte	0x9b4
 11190 1f6a 00       		.byte	0
 11191 1f6b 0D       		.uleb128 0xd
 11192 1f6c 39040000 		.4byte	.LASF425
 11193 1f70 24       		.byte	0x24
 11194 1f71 AC       		.byte	0xac
 11195 1f72 B4090000 		.4byte	0x9b4
 11196 1f76 04       		.byte	0x4
 11197 1f77 0D       		.uleb128 0xd
 11198 1f78 44130000 		.4byte	.LASF426
 11199 1f7c 24       		.byte	0x24
 11200 1f7d AD       		.byte	0xad
 11201 1f7e B4090000 		.4byte	0x9b4
 11202 1f82 08       		.byte	0x8
 11203 1f83 0D       		.uleb128 0xd
 11204 1f84 C0260000 		.4byte	.LASF427
 11205 1f88 24       		.byte	0x24
 11206 1f89 AE       		.byte	0xae
 11207 1f8a B4090000 		.4byte	0x9b4
 11208 1f8e 0C       		.byte	0xc
 11209 1f8f 11       		.uleb128 0x11
 11210 1f90 49445200 		.ascii	"IDR\000"
 11211 1f94 24       		.byte	0x24
 11212 1f95 AF       		.byte	0xaf
 11213 1f96 B4090000 		.4byte	0x9b4
 11214 1f9a 10       		.byte	0x10
 11215 1f9b 11       		.uleb128 0x11
 11216 1f9c 4F445200 		.ascii	"ODR\000"
 11217 1fa0 24       		.byte	0x24
 11218 1fa1 B0       		.byte	0xb0
 11219 1fa2 B4090000 		.4byte	0x9b4
 11220 1fa6 14       		.byte	0x14
 11221 1fa7 0D       		.uleb128 0xd
 11222 1fa8 78180000 		.4byte	.LASF428
 11223 1fac 24       		.byte	0x24
 11224 1fad B7       		.byte	0xb7
 11225 1fae 521F0000 		.4byte	0x1f52
 11226 1fb2 18       		.byte	0x18
 11227 1fb3 0D       		.uleb128 0xd
 11228 1fb4 D91F0000 		.4byte	.LASF429
 11229 1fb8 24       		.byte	0x24
 11230 1fb9 B8       		.byte	0xb8
 11231 1fba B4090000 		.4byte	0x9b4
 11232 1fbe 1C       		.byte	0x1c
 11233 1fbf 0D       		.uleb128 0xd
 11234 1fc0 0E240000 		.4byte	.LASF430
 11235 1fc4 24       		.byte	0x24
 11236 1fc5 B9       		.byte	0xb9
 11237 1fc6 B4090000 		.4byte	0x9b4
ARM GAS  C:\Users\PCHAUT~1\AppData\Local\Temp\ccLw8kky.s 			page 211


 11238 1fca 20       		.byte	0x20
 11239 1fcb 0D       		.uleb128 0xd
 11240 1fcc 02240000 		.4byte	.LASF431
 11241 1fd0 24       		.byte	0x24
 11242 1fd1 BA       		.byte	0xba
 11243 1fd2 B4090000 		.4byte	0x9b4
 11244 1fd6 24       		.byte	0x24
 11245 1fd7 11       		.uleb128 0x11
 11246 1fd8 42525200 		.ascii	"BRR\000"
 11247 1fdc 24       		.byte	0x24
 11248 1fdd BB       		.byte	0xbb
 11249 1fde B4090000 		.4byte	0x9b4
 11250 1fe2 28       		.byte	0x28
 11251 1fe3 00       		.byte	0
 11252 1fe4 03       		.uleb128 0x3
 11253 1fe5 07150000 		.4byte	.LASF432
 11254 1fe9 24       		.byte	0x24
 11255 1fea BC       		.byte	0xbc
 11256 1feb 571F0000 		.4byte	0x1f57
 11257 1fef 0C       		.uleb128 0xc
 11258 1ff0 1C       		.byte	0x1c
 11259 1ff1 24       		.byte	0x24
 11260 1ff2 C1       		.byte	0xc1
 11261 1ff3 4C200000 		.4byte	0x204c
 11262 1ff7 0D       		.uleb128 0xd
 11263 1ff8 542C0000 		.4byte	.LASF433
 11264 1ffc 24       		.byte	0x24
 11265 1ffd C3       		.byte	0xc3
 11266 1ffe A9090000 		.4byte	0x9a9
 11267 2002 00       		.byte	0
 11268 2003 0D       		.uleb128 0xd
 11269 2004 32040000 		.4byte	.LASF434
 11270 2008 24       		.byte	0x24
 11271 2009 C5       		.byte	0xc5
 11272 200a A9090000 		.4byte	0x9a9
 11273 200e 04       		.byte	0x4
 11274 200f 0D       		.uleb128 0xd
 11275 2010 03030000 		.4byte	.LASF435
 11276 2014 24       		.byte	0x24
 11277 2015 C7       		.byte	0xc7
 11278 2016 A9090000 		.4byte	0x9a9
 11279 201a 08       		.byte	0x8
 11280 201b 0D       		.uleb128 0xd
 11281 201c 2C2B0000 		.4byte	.LASF436
 11282 2020 24       		.byte	0x24
 11283 2021 C9       		.byte	0xc9
 11284 2022 A9090000 		.4byte	0x9a9
 11285 2026 0C       		.byte	0xc
 11286 2027 11       		.uleb128 0x11
 11287 2028 6F647200 		.ascii	"odr\000"
 11288 202c 24       		.byte	0x24
 11289 202d CB       		.byte	0xcb
 11290 202e A9090000 		.4byte	0x9a9
 11291 2032 10       		.byte	0x10
 11292 2033 0D       		.uleb128 0xd
 11293 2034 97270000 		.4byte	.LASF437
 11294 2038 24       		.byte	0x24
ARM GAS  C:\Users\PCHAUT~1\AppData\Local\Temp\ccLw8kky.s 			page 212


 11295 2039 CD       		.byte	0xcd
 11296 203a A9090000 		.4byte	0x9a9
 11297 203e 14       		.byte	0x14
 11298 203f 0D       		.uleb128 0xd
 11299 2040 A7000000 		.4byte	.LASF438
 11300 2044 24       		.byte	0x24
 11301 2045 CF       		.byte	0xcf
 11302 2046 A9090000 		.4byte	0x9a9
 11303 204a 18       		.byte	0x18
 11304 204b 00       		.byte	0
 11305 204c 03       		.uleb128 0x3
 11306 204d DF220000 		.4byte	.LASF439
 11307 2051 24       		.byte	0x24
 11308 2052 D0       		.byte	0xd0
 11309 2053 EF1F0000 		.4byte	0x1fef
 11310 2057 0C       		.uleb128 0xc
 11311 2058 FC       		.byte	0xfc
 11312 2059 24       		.byte	0x24
 11313 205a D9       		.byte	0xd9
 11314 205b CC200000 		.4byte	0x20cc
 11315 205f 0D       		.uleb128 0xd
 11316 2060 BF150000 		.4byte	.LASF440
 11317 2064 24       		.byte	0x24
 11318 2065 DC       		.byte	0xdc
 11319 2066 4C200000 		.4byte	0x204c
 11320 206a 00       		.byte	0
 11321 206b 0D       		.uleb128 0xd
 11322 206c 11040000 		.4byte	.LASF441
 11323 2070 24       		.byte	0x24
 11324 2071 E0       		.byte	0xe0
 11325 2072 4C200000 		.4byte	0x204c
 11326 2076 1C       		.byte	0x1c
 11327 2077 0D       		.uleb128 0xd
 11328 2078 73020000 		.4byte	.LASF442
 11329 207c 24       		.byte	0x24
 11330 207d E4       		.byte	0xe4
 11331 207e 4C200000 		.4byte	0x204c
 11332 2082 38       		.byte	0x38
 11333 2083 0D       		.uleb128 0xd
 11334 2084 6C120000 		.4byte	.LASF443
 11335 2088 24       		.byte	0x24
 11336 2089 E8       		.byte	0xe8
 11337 208a 4C200000 		.4byte	0x204c
 11338 208e 54       		.byte	0x54
 11339 208f 0D       		.uleb128 0xd
 11340 2090 AC210000 		.4byte	.LASF444
 11341 2094 24       		.byte	0x24
 11342 2095 EC       		.byte	0xec
 11343 2096 4C200000 		.4byte	0x204c
 11344 209a 70       		.byte	0x70
 11345 209b 0D       		.uleb128 0xd
 11346 209c B7310000 		.4byte	.LASF445
 11347 20a0 24       		.byte	0x24
 11348 20a1 F0       		.byte	0xf0
 11349 20a2 4C200000 		.4byte	0x204c
 11350 20a6 8C       		.byte	0x8c
 11351 20a7 0D       		.uleb128 0xd
ARM GAS  C:\Users\PCHAUT~1\AppData\Local\Temp\ccLw8kky.s 			page 213


 11352 20a8 1A100000 		.4byte	.LASF446
 11353 20ac 24       		.byte	0x24
 11354 20ad F4       		.byte	0xf4
 11355 20ae 4C200000 		.4byte	0x204c
 11356 20b2 A8       		.byte	0xa8
 11357 20b3 0D       		.uleb128 0xd
 11358 20b4 1B1F0000 		.4byte	.LASF447
 11359 20b8 24       		.byte	0x24
 11360 20b9 F8       		.byte	0xf8
 11361 20ba 4C200000 		.4byte	0x204c
 11362 20be C4       		.byte	0xc4
 11363 20bf 0D       		.uleb128 0xd
 11364 20c0 6E2E0000 		.4byte	.LASF448
 11365 20c4 24       		.byte	0x24
 11366 20c5 FC       		.byte	0xfc
 11367 20c6 4C200000 		.4byte	0x204c
 11368 20ca E0       		.byte	0xe0
 11369 20cb 00       		.byte	0
 11370 20cc 03       		.uleb128 0x3
 11371 20cd 340F0000 		.4byte	.LASF449
 11372 20d1 24       		.byte	0x24
 11373 20d2 FE       		.byte	0xfe
 11374 20d3 57200000 		.4byte	0x2057
 11375 20d7 0F       		.uleb128 0xf
 11376 20d8 CC200000 		.4byte	0x20cc
 11377 20dc 07       		.uleb128 0x7
 11378 20dd 221F0000 		.4byte	.LASF450
 11379 20e1 24       		.byte	0x24
 11380 20e2 1B01     		.2byte	0x11b
 11381 20e4 E8200000 		.4byte	0x20e8
 11382 20e8 05       		.uleb128 0x5
 11383 20e9 04       		.byte	0x4
 11384 20ea E41F0000 		.4byte	0x1fe4
 11385 20ee 20       		.uleb128 0x20
 11386 20ef C9280000 		.4byte	.LASF451
 11387 20f3 24       		.byte	0x24
 11388 20f4 DA01     		.2byte	0x1da
 11389 20f6 D7200000 		.4byte	0x20d7
 11390 20fa 2B       		.uleb128 0x2b
 11391 20fb 07       		.byte	0x7
 11392 20fc 01       		.byte	0x1
 11393 20fd 69000000 		.4byte	0x69
 11394 2101 25       		.byte	0x25
 11395 2102 46       		.byte	0x46
 11396 2103 2C210000 		.4byte	0x212c
 11397 2107 23       		.uleb128 0x23
 11398 2108 8D0A0000 		.4byte	.LASF452
 11399 210c 00       		.byte	0
 11400 210d 23       		.uleb128 0x23
 11401 210e 371B0000 		.4byte	.LASF453
 11402 2112 01       		.byte	0x1
 11403 2113 23       		.uleb128 0x23
 11404 2114 D62B0000 		.4byte	.LASF454
 11405 2118 02       		.byte	0x2
 11406 2119 23       		.uleb128 0x23
 11407 211a 5E180000 		.4byte	.LASF455
 11408 211e 03       		.byte	0x3
ARM GAS  C:\Users\PCHAUT~1\AppData\Local\Temp\ccLw8kky.s 			page 214


 11409 211f 23       		.uleb128 0x23
 11410 2120 0A080000 		.4byte	.LASF456
 11411 2124 04       		.byte	0x4
 11412 2125 23       		.uleb128 0x23
 11413 2126 0C180000 		.4byte	.LASF457
 11414 212a 05       		.byte	0x5
 11415 212b 00       		.byte	0
 11416 212c 03       		.uleb128 0x3
 11417 212d 80050000 		.4byte	.LASF458
 11418 2131 25       		.byte	0x25
 11419 2132 4D       		.byte	0x4d
 11420 2133 FA200000 		.4byte	0x20fa
 11421 2137 07       		.uleb128 0x7
 11422 2138 C9160000 		.4byte	.LASF459
 11423 213c 26       		.byte	0x26
 11424 213d 2701     		.2byte	0x127
 11425 213f 8E090000 		.4byte	0x98e
 11426 2143 07       		.uleb128 0x7
 11427 2144 18250000 		.4byte	.LASF460
 11428 2148 26       		.byte	0x26
 11429 2149 2C01     		.2byte	0x12c
 11430 214b 8E090000 		.4byte	0x98e
 11431 214f 2D       		.uleb128 0x2d
 11432 2150 07       		.byte	0x7
 11433 2151 01       		.byte	0x1
 11434 2152 69000000 		.4byte	0x69
 11435 2156 26       		.byte	0x26
 11436 2157 3301     		.2byte	0x133
 11437 2159 6A210000 		.4byte	0x216a
 11438 215d 23       		.uleb128 0x23
 11439 215e 09130000 		.4byte	.LASF461
 11440 2162 00       		.byte	0
 11441 2163 23       		.uleb128 0x23
 11442 2164 1B030000 		.4byte	.LASF462
 11443 2168 01       		.byte	0x1
 11444 2169 00       		.byte	0
 11445 216a 07       		.uleb128 0x7
 11446 216b 7C2D0000 		.4byte	.LASF463
 11447 216f 26       		.byte	0x26
 11448 2170 3601     		.2byte	0x136
 11449 2172 4F210000 		.4byte	0x214f
 11450 2176 07       		.uleb128 0x7
 11451 2177 2C140000 		.4byte	.LASF464
 11452 217b 26       		.byte	0x26
 11453 217c 3B01     		.2byte	0x13b
 11454 217e 82210000 		.4byte	0x2182
 11455 2182 1B       		.uleb128 0x1b
 11456 2183 2C140000 		.4byte	.LASF464
 11457 2187 38       		.byte	0x38
 11458 2188 26       		.byte	0x26
 11459 2189 9F01     		.2byte	0x19f
 11460 218b 12220000 		.4byte	0x2212
 11461 218f 18       		.uleb128 0x18
 11462 2190 831C0000 		.4byte	.LASF465
 11463 2194 26       		.byte	0x26
 11464 2195 A301     		.2byte	0x1a3
 11465 2197 2C210000 		.4byte	0x212c
ARM GAS  C:\Users\PCHAUT~1\AppData\Local\Temp\ccLw8kky.s 			page 215


 11466 219b 00       		.byte	0
 11467 219c 18       		.uleb128 0x18
 11468 219d A2240000 		.4byte	.LASF466
 11469 21a1 26       		.byte	0x26
 11470 21a2 A701     		.2byte	0x1a7
 11471 21a4 39230000 		.4byte	0x2339
 11472 21a8 04       		.byte	0x4
 11473 21a9 18       		.uleb128 0x18
 11474 21aa A0020000 		.4byte	.LASF467
 11475 21ae 26       		.byte	0x26
 11476 21af AB01     		.2byte	0x1ab
 11477 21b1 3F220000 		.4byte	0x223f
 11478 21b5 08       		.byte	0x8
 11479 21b6 18       		.uleb128 0x18
 11480 21b7 9B200000 		.4byte	.LASF468
 11481 21bb 26       		.byte	0x26
 11482 21bc AF01     		.2byte	0x1af
 11483 21be 2C000000 		.4byte	0x2c
 11484 21c2 0C       		.byte	0xc
 11485 21c3 18       		.uleb128 0x18
 11486 21c4 E8280000 		.4byte	.LASF469
 11487 21c8 26       		.byte	0x26
 11488 21c9 B301     		.2byte	0x1b3
 11489 21cb 3F230000 		.4byte	0x233f
 11490 21cf 10       		.byte	0x10
 11491 21d0 18       		.uleb128 0x18
 11492 21d1 C4080000 		.4byte	.LASF470
 11493 21d5 26       		.byte	0x26
 11494 21d6 B801     		.2byte	0x1b8
 11495 21d8 860B0000 		.4byte	0xb86
 11496 21dc 14       		.byte	0x14
 11497 21dd 18       		.uleb128 0x18
 11498 21de 11110000 		.4byte	.LASF471
 11499 21e2 26       		.byte	0x26
 11500 21e3 BE01     		.2byte	0x1be
 11501 21e5 E41A0000 		.4byte	0x1ae4
 11502 21e9 18       		.byte	0x18
 11503 21ea 25       		.uleb128 0x25
 11504 21eb 61646300 		.ascii	"adc\000"
 11505 21ef 26       		.byte	0x26
 11506 21f0 C701     		.2byte	0x1c7
 11507 21f2 45230000 		.4byte	0x2345
 11508 21f6 2C       		.byte	0x2c
 11509 21f7 18       		.uleb128 0x18
 11510 21f8 A30E0000 		.4byte	.LASF472
 11511 21fc 26       		.byte	0x26
 11512 21fd CB01     		.2byte	0x1cb
 11513 21ff 4B230000 		.4byte	0x234b
 11514 2203 30       		.byte	0x30
 11515 2204 18       		.uleb128 0x18
 11516 2205 621F0000 		.4byte	.LASF473
 11517 2209 26       		.byte	0x26
 11518 220a CF01     		.2byte	0x1cf
 11519 220c A9090000 		.4byte	0x9a9
 11520 2210 34       		.byte	0x34
 11521 2211 00       		.byte	0
 11522 2212 07       		.uleb128 0x7
ARM GAS  C:\Users\PCHAUT~1\AppData\Local\Temp\ccLw8kky.s 			page 216


 11523 2213 57230000 		.4byte	.LASF474
 11524 2217 26       		.byte	0x26
 11525 2218 4501     		.2byte	0x145
 11526 221a 1E220000 		.4byte	0x221e
 11527 221e 05       		.uleb128 0x5
 11528 221f 04       		.byte	0x4
 11529 2220 24220000 		.4byte	0x2224
 11530 2224 1F       		.uleb128 0x1f
 11531 2225 39220000 		.4byte	0x2239
 11532 2229 16       		.uleb128 0x16
 11533 222a 39220000 		.4byte	0x2239
 11534 222e 16       		.uleb128 0x16
 11535 222f 3F220000 		.4byte	0x223f
 11536 2233 16       		.uleb128 0x16
 11537 2234 2C000000 		.4byte	0x2c
 11538 2238 00       		.byte	0
 11539 2239 05       		.uleb128 0x5
 11540 223a 04       		.byte	0x4
 11541 223b 76210000 		.4byte	0x2176
 11542 223f 05       		.uleb128 0x5
 11543 2240 04       		.byte	0x4
 11544 2241 37210000 		.4byte	0x2137
 11545 2245 07       		.uleb128 0x7
 11546 2246 471C0000 		.4byte	.LASF475
 11547 224a 26       		.byte	0x26
 11548 224b 4E01     		.2byte	0x14e
 11549 224d 51220000 		.4byte	0x2251
 11550 2251 05       		.uleb128 0x5
 11551 2252 04       		.byte	0x4
 11552 2253 57220000 		.4byte	0x2257
 11553 2257 1F       		.uleb128 0x1f
 11554 2258 67220000 		.4byte	0x2267
 11555 225c 16       		.uleb128 0x16
 11556 225d 39220000 		.4byte	0x2239
 11557 2261 16       		.uleb128 0x16
 11558 2262 6A210000 		.4byte	0x216a
 11559 2266 00       		.byte	0
 11560 2267 1C       		.uleb128 0x1c
 11561 2268 28       		.byte	0x28
 11562 2269 26       		.byte	0x26
 11563 226a 5801     		.2byte	0x158
 11564 226c 00230000 		.4byte	0x2300
 11565 2270 18       		.uleb128 0x18
 11566 2271 402C0000 		.4byte	.LASF476
 11567 2275 26       		.byte	0x26
 11568 2276 5C01     		.2byte	0x15c
 11569 2278 911E0000 		.4byte	0x1e91
 11570 227c 00       		.byte	0
 11571 227d 18       		.uleb128 0x18
 11572 227e 59150000 		.4byte	.LASF477
 11573 2282 26       		.byte	0x26
 11574 2283 6001     		.2byte	0x160
 11575 2285 43210000 		.4byte	0x2143
 11576 2289 02       		.byte	0x2
 11577 228a 18       		.uleb128 0x18
 11578 228b FC0C0000 		.4byte	.LASF478
 11579 228f 26       		.byte	0x26
ARM GAS  C:\Users\PCHAUT~1\AppData\Local\Temp\ccLw8kky.s 			page 217


 11580 2290 6401     		.2byte	0x164
 11581 2292 12220000 		.4byte	0x2212
 11582 2296 04       		.byte	0x4
 11583 2297 18       		.uleb128 0x18
 11584 2298 C72E0000 		.4byte	.LASF479
 11585 229c 26       		.byte	0x26
 11586 229d 6801     		.2byte	0x168
 11587 229f 45220000 		.4byte	0x2245
 11588 22a3 08       		.byte	0x8
 11589 22a4 25       		.uleb128 0x25
 11590 22a5 63723100 		.ascii	"cr1\000"
 11591 22a9 26       		.byte	0x26
 11592 22aa 6F01     		.2byte	0x16f
 11593 22ac A9090000 		.4byte	0x9a9
 11594 22b0 0C       		.byte	0xc
 11595 22b1 25       		.uleb128 0x25
 11596 22b2 63723200 		.ascii	"cr2\000"
 11597 22b6 26       		.byte	0x26
 11598 22b7 7601     		.2byte	0x176
 11599 22b9 A9090000 		.4byte	0x9a9
 11600 22bd 10       		.byte	0x10
 11601 22be 18       		.uleb128 0x18
 11602 22bf 0C1E0000 		.4byte	.LASF480
 11603 22c3 26       		.byte	0x26
 11604 22c4 7C01     		.2byte	0x17c
 11605 22c6 A9090000 		.4byte	0x9a9
 11606 22ca 14       		.byte	0x14
 11607 22cb 18       		.uleb128 0x18
 11608 22cc 121E0000 		.4byte	.LASF481
 11609 22d0 26       		.byte	0x26
 11610 22d1 8201     		.2byte	0x182
 11611 22d3 A9090000 		.4byte	0x9a9
 11612 22d7 18       		.byte	0x18
 11613 22d8 18       		.uleb128 0x18
 11614 22d9 02020000 		.4byte	.LASF482
 11615 22dd 26       		.byte	0x26
 11616 22de 8701     		.2byte	0x187
 11617 22e0 A9090000 		.4byte	0x9a9
 11618 22e4 1C       		.byte	0x1c
 11619 22e5 18       		.uleb128 0x18
 11620 22e6 49300000 		.4byte	.LASF483
 11621 22ea 26       		.byte	0x26
 11622 22eb 8C01     		.2byte	0x18c
 11623 22ed A9090000 		.4byte	0x9a9
 11624 22f1 20       		.byte	0x20
 11625 22f2 18       		.uleb128 0x18
 11626 22f3 4E300000 		.4byte	.LASF484
 11627 22f7 26       		.byte	0x26
 11628 22f8 9101     		.2byte	0x191
 11629 22fa A9090000 		.4byte	0x9a9
 11630 22fe 24       		.byte	0x24
 11631 22ff 00       		.byte	0
 11632 2300 07       		.uleb128 0x7
 11633 2301 E8060000 		.4byte	.LASF485
 11634 2305 26       		.byte	0x26
 11635 2306 9201     		.2byte	0x192
 11636 2308 67220000 		.4byte	0x2267
ARM GAS  C:\Users\PCHAUT~1\AppData\Local\Temp\ccLw8kky.s 			page 218


 11637 230c 0F       		.uleb128 0xf
 11638 230d 00230000 		.4byte	0x2300
 11639 2311 1C       		.uleb128 0x1c
 11640 2312 04       		.byte	0x4
 11641 2313 26       		.byte	0x26
 11642 2314 9801     		.2byte	0x198
 11643 2316 28230000 		.4byte	0x2328
 11644 231a 18       		.uleb128 0x18
 11645 231b B4300000 		.4byte	.LASF486
 11646 231f 26       		.byte	0x26
 11647 2320 9901     		.2byte	0x199
 11648 2322 A9090000 		.4byte	0x9a9
 11649 2326 00       		.byte	0
 11650 2327 00       		.byte	0
 11651 2328 07       		.uleb128 0x7
 11652 2329 44140000 		.4byte	.LASF487
 11653 232d 26       		.byte	0x26
 11654 232e 9A01     		.2byte	0x19a
 11655 2330 11230000 		.4byte	0x2311
 11656 2334 0F       		.uleb128 0xf
 11657 2335 28230000 		.4byte	0x2328
 11658 2339 05       		.uleb128 0x5
 11659 233a 04       		.byte	0x4
 11660 233b 34230000 		.4byte	0x2334
 11661 233f 05       		.uleb128 0x5
 11662 2340 04       		.byte	0x4
 11663 2341 0C230000 		.4byte	0x230c
 11664 2345 05       		.uleb128 0x5
 11665 2346 04       		.byte	0x4
 11666 2347 090F0000 		.4byte	0xf09
 11667 234b 05       		.uleb128 0x5
 11668 234c 04       		.byte	0x4
 11669 234d 601D0000 		.4byte	0x1d60
 11670 2351 20       		.uleb128 0x20
 11671 2352 401F0000 		.4byte	.LASF488
 11672 2356 26       		.byte	0x26
 11673 2357 1402     		.2byte	0x214
 11674 2359 76210000 		.4byte	0x2176
 11675 235d 20       		.uleb128 0x20
 11676 235e 461F0000 		.4byte	.LASF489
 11677 2362 26       		.byte	0x26
 11678 2363 1802     		.2byte	0x218
 11679 2365 76210000 		.4byte	0x2176
 11680 2369 20       		.uleb128 0x20
 11681 236a 4C1F0000 		.4byte	.LASF490
 11682 236e 26       		.byte	0x26
 11683 236f 1C02     		.2byte	0x21c
 11684 2371 76210000 		.4byte	0x2176
 11685 2375 2B       		.uleb128 0x2b
 11686 2376 07       		.byte	0x7
 11687 2377 01       		.byte	0x1
 11688 2378 69000000 		.4byte	0x69
 11689 237c 27       		.byte	0x27
 11690 237d 5F       		.byte	0x5f
 11691 237e A1230000 		.4byte	0x23a1
 11692 2382 23       		.uleb128 0x23
 11693 2383 D5110000 		.4byte	.LASF491
ARM GAS  C:\Users\PCHAUT~1\AppData\Local\Temp\ccLw8kky.s 			page 219


 11694 2387 00       		.byte	0
 11695 2388 23       		.uleb128 0x23
 11696 2389 58010000 		.4byte	.LASF492
 11697 238d 01       		.byte	0x1
 11698 238e 23       		.uleb128 0x23
 11699 238f 73000000 		.4byte	.LASF493
 11700 2393 02       		.byte	0x2
 11701 2394 23       		.uleb128 0x23
 11702 2395 B9200000 		.4byte	.LASF494
 11703 2399 03       		.byte	0x3
 11704 239a 23       		.uleb128 0x23
 11705 239b F40D0000 		.4byte	.LASF495
 11706 239f 04       		.byte	0x4
 11707 23a0 00       		.byte	0
 11708 23a1 03       		.uleb128 0x3
 11709 23a2 42070000 		.4byte	.LASF496
 11710 23a6 27       		.byte	0x27
 11711 23a7 65       		.byte	0x65
 11712 23a8 75230000 		.4byte	0x2375
 11713 23ac 0A       		.uleb128 0xa
 11714 23ad 73090000 		.4byte	0x973
 11715 23b1 BC230000 		.4byte	0x23bc
 11716 23b5 0B       		.uleb128 0xb
 11717 23b6 37000000 		.4byte	0x37
 11718 23ba 07       		.byte	0x7
 11719 23bb 00       		.byte	0
 11720 23bc 0C       		.uleb128 0xc
 11721 23bd 08       		.byte	0x8
 11722 23be 28       		.byte	0x28
 11723 23bf F4       		.byte	0xf4
 11724 23c0 DE230000 		.4byte	0x23de
 11725 23c4 11       		.uleb128 0x11
 11726 23c5 6D637200 		.ascii	"mcr\000"
 11727 23c9 28       		.byte	0x28
 11728 23ca FA       		.byte	0xfa
 11729 23cb A9090000 		.4byte	0x9a9
 11730 23cf 00       		.byte	0
 11731 23d0 25       		.uleb128 0x25
 11732 23d1 62747200 		.ascii	"btr\000"
 11733 23d5 28       		.byte	0x28
 11734 23d6 0001     		.2byte	0x100
 11735 23d8 A9090000 		.4byte	0x9a9
 11736 23dc 04       		.byte	0x4
 11737 23dd 00       		.byte	0
 11738 23de 07       		.uleb128 0x7
 11739 23df A2210000 		.4byte	.LASF497
 11740 23e3 28       		.byte	0x28
 11741 23e4 0101     		.2byte	0x101
 11742 23e6 BC230000 		.4byte	0x23bc
 11743 23ea 0F       		.uleb128 0xf
 11744 23eb DE230000 		.4byte	0x23de
 11745 23ef 1C       		.uleb128 0x1c
 11746 23f0 30       		.byte	0x30
 11747 23f1 28       		.byte	0x28
 11748 23f2 0601     		.2byte	0x106
 11749 23f4 7B240000 		.4byte	0x247b
 11750 23f8 18       		.uleb128 0x18
ARM GAS  C:\Users\PCHAUT~1\AppData\Local\Temp\ccLw8kky.s 			page 220


 11751 23f9 831C0000 		.4byte	.LASF465
 11752 23fd 28       		.byte	0x28
 11753 23fe 0A01     		.2byte	0x10a
 11754 2400 A1230000 		.4byte	0x23a1
 11755 2404 00       		.byte	0
 11756 2405 18       		.uleb128 0x18
 11757 2406 A2240000 		.4byte	.LASF466
 11758 240a 28       		.byte	0x28
 11759 240b 0E01     		.2byte	0x10e
 11760 240d 7B240000 		.4byte	0x247b
 11761 2411 04       		.byte	0x4
 11762 2412 18       		.uleb128 0x18
 11763 2413 310D0000 		.4byte	.LASF498
 11764 2417 28       		.byte	0x28
 11765 2418 1201     		.2byte	0x112
 11766 241a BB0B0000 		.4byte	0xbbb
 11767 241e 08       		.byte	0x8
 11768 241f 18       		.uleb128 0x18
 11769 2420 B0280000 		.4byte	.LASF499
 11770 2424 28       		.byte	0x28
 11771 2425 1601     		.2byte	0x116
 11772 2427 BB0B0000 		.4byte	0xbbb
 11773 242b 10       		.byte	0x10
 11774 242c 18       		.uleb128 0x18
 11775 242d 67210000 		.4byte	.LASF500
 11776 2431 28       		.byte	0x28
 11777 2432 2301     		.2byte	0x123
 11778 2434 681B0000 		.4byte	0x1b68
 11779 2438 18       		.byte	0x18
 11780 2439 18       		.uleb128 0x18
 11781 243a E00F0000 		.4byte	.LASF501
 11782 243e 28       		.byte	0x28
 11783 243f 2A01     		.2byte	0x12a
 11784 2441 681B0000 		.4byte	0x1b68
 11785 2445 1C       		.byte	0x1c
 11786 2446 18       		.uleb128 0x18
 11787 2447 4D150000 		.4byte	.LASF502
 11788 244b 28       		.byte	0x28
 11789 244c 3001     		.2byte	0x130
 11790 244e 681B0000 		.4byte	0x1b68
 11791 2452 20       		.byte	0x20
 11792 2453 18       		.uleb128 0x18
 11793 2454 95040000 		.4byte	.LASF503
 11794 2458 28       		.byte	0x28
 11795 2459 3501     		.2byte	0x135
 11796 245b 681B0000 		.4byte	0x1b68
 11797 245f 24       		.byte	0x24
 11798 2460 18       		.uleb128 0x18
 11799 2461 DB0C0000 		.4byte	.LASF504
 11800 2465 28       		.byte	0x28
 11801 2466 3901     		.2byte	0x139
 11802 2468 681B0000 		.4byte	0x1b68
 11803 246c 28       		.byte	0x28
 11804 246d 25       		.uleb128 0x25
 11805 246e 63616E00 		.ascii	"can\000"
 11806 2472 28       		.byte	0x28
 11807 2473 3F01     		.2byte	0x13f
ARM GAS  C:\Users\PCHAUT~1\AppData\Local\Temp\ccLw8kky.s 			page 221


 11808 2475 81240000 		.4byte	0x2481
 11809 2479 2C       		.byte	0x2c
 11810 247a 00       		.byte	0
 11811 247b 05       		.uleb128 0x5
 11812 247c 04       		.byte	0x4
 11813 247d EA230000 		.4byte	0x23ea
 11814 2481 05       		.uleb128 0x5
 11815 2482 04       		.byte	0x4
 11816 2483 52110000 		.4byte	0x1152
 11817 2487 07       		.uleb128 0x7
 11818 2488 F5040000 		.4byte	.LASF505
 11819 248c 28       		.byte	0x28
 11820 248d 4001     		.2byte	0x140
 11821 248f EF230000 		.4byte	0x23ef
 11822 2493 20       		.uleb128 0x20
 11823 2494 D52A0000 		.4byte	.LASF506
 11824 2498 28       		.byte	0x28
 11825 2499 4B01     		.2byte	0x14b
 11826 249b 87240000 		.4byte	0x2487
 11827 249f 2B       		.uleb128 0x2b
 11828 24a0 07       		.byte	0x7
 11829 24a1 01       		.byte	0x1
 11830 24a2 69000000 		.4byte	0x69
 11831 24a6 29       		.byte	0x29
 11832 24a7 46       		.byte	0x46
 11833 24a8 D1240000 		.4byte	0x24d1
 11834 24ac 23       		.uleb128 0x23
 11835 24ad 0D250000 		.4byte	.LASF507
 11836 24b1 00       		.byte	0
 11837 24b2 23       		.uleb128 0x23
 11838 24b3 772C0000 		.4byte	.LASF508
 11839 24b7 01       		.byte	0x1
 11840 24b8 23       		.uleb128 0x23
 11841 24b9 4C130000 		.4byte	.LASF509
 11842 24bd 02       		.byte	0x2
 11843 24be 23       		.uleb128 0x23
 11844 24bf 5A1C0000 		.4byte	.LASF510
 11845 24c3 03       		.byte	0x3
 11846 24c4 23       		.uleb128 0x23
 11847 24c5 71240000 		.4byte	.LASF511
 11848 24c9 04       		.byte	0x4
 11849 24ca 23       		.uleb128 0x23
 11850 24cb 9D140000 		.4byte	.LASF512
 11851 24cf 05       		.byte	0x5
 11852 24d0 00       		.byte	0
 11853 24d1 03       		.uleb128 0x3
 11854 24d2 01210000 		.4byte	.LASF513
 11855 24d6 29       		.byte	0x29
 11856 24d7 4D       		.byte	0x4d
 11857 24d8 9F240000 		.4byte	0x249f
 11858 24dc 0C       		.uleb128 0xc
 11859 24dd 1C       		.byte	0x1c
 11860 24de 2A       		.byte	0x2a
 11861 24df F9       		.byte	0xf9
 11862 24e0 3F250000 		.4byte	0x253f
 11863 24e4 11       		.uleb128 0x11
 11864 24e5 64616300 		.ascii	"dac\000"
ARM GAS  C:\Users\PCHAUT~1\AppData\Local\Temp\ccLw8kky.s 			page 222


 11865 24e9 2A       		.byte	0x2a
 11866 24ea FD       		.byte	0xfd
 11867 24eb 3F250000 		.4byte	0x253f
 11868 24ef 00       		.byte	0
 11869 24f0 18       		.uleb128 0x18
 11870 24f1 11200000 		.4byte	.LASF514
 11871 24f5 2A       		.byte	0x2a
 11872 24f6 0101     		.2byte	0x101
 11873 24f8 A9090000 		.4byte	0x9a9
 11874 24fc 04       		.byte	0x4
 11875 24fd 18       		.uleb128 0x18
 11876 24fe CB080000 		.4byte	.LASF515
 11877 2502 2A       		.byte	0x2a
 11878 2503 0501     		.2byte	0x105
 11879 2505 A9090000 		.4byte	0x9a9
 11880 2509 08       		.byte	0x8
 11881 250a 18       		.uleb128 0x18
 11882 250b BE020000 		.4byte	.LASF516
 11883 250f 2A       		.byte	0x2a
 11884 2510 0901     		.2byte	0x109
 11885 2512 A9090000 		.4byte	0x9a9
 11886 2516 0C       		.byte	0xc
 11887 2517 25       		.uleb128 0x25
 11888 2518 646D6100 		.ascii	"dma\000"
 11889 251c 2A       		.byte	0x2a
 11890 251d 0D01     		.2byte	0x10d
 11891 251f 4B230000 		.4byte	0x234b
 11892 2523 10       		.byte	0x10
 11893 2524 18       		.uleb128 0x18
 11894 2525 621F0000 		.4byte	.LASF473
 11895 2529 2A       		.byte	0x2a
 11896 252a 1101     		.2byte	0x111
 11897 252c A9090000 		.4byte	0x9a9
 11898 2530 14       		.byte	0x14
 11899 2531 18       		.uleb128 0x18
 11900 2532 DF1E0000 		.4byte	.LASF517
 11901 2536 2A       		.byte	0x2a
 11902 2537 1501     		.2byte	0x115
 11903 2539 A9090000 		.4byte	0x9a9
 11904 253d 18       		.byte	0x18
 11905 253e 00       		.byte	0
 11906 253f 05       		.uleb128 0x5
 11907 2540 04       		.byte	0x4
 11908 2541 1C120000 		.4byte	0x121c
 11909 2545 07       		.uleb128 0x7
 11910 2546 40040000 		.4byte	.LASF518
 11911 254a 2A       		.byte	0x2a
 11912 254b 1601     		.2byte	0x116
 11913 254d DC240000 		.4byte	0x24dc
 11914 2551 0F       		.uleb128 0xf
 11915 2552 45250000 		.4byte	0x2545
 11916 2556 07       		.uleb128 0x7
 11917 2557 1C110000 		.4byte	.LASF519
 11918 255b 2A       		.byte	0x2a
 11919 255c 1B01     		.2byte	0x11b
 11920 255e 62250000 		.4byte	0x2562
 11921 2562 1B       		.uleb128 0x1b
ARM GAS  C:\Users\PCHAUT~1\AppData\Local\Temp\ccLw8kky.s 			page 223


 11922 2563 1C110000 		.4byte	.LASF519
 11923 2567 30       		.byte	0x30
 11924 2568 2A       		.byte	0x2a
 11925 2569 7B01     		.2byte	0x17b
 11926 256b D8250000 		.4byte	0x25d8
 11927 256f 18       		.uleb128 0x18
 11928 2570 831C0000 		.4byte	.LASF465
 11929 2574 2A       		.byte	0x2a
 11930 2575 7F01     		.2byte	0x17f
 11931 2577 D1240000 		.4byte	0x24d1
 11932 257b 00       		.byte	0
 11933 257c 18       		.uleb128 0x18
 11934 257d E8280000 		.4byte	.LASF469
 11935 2581 2A       		.byte	0x2a
 11936 2582 8301     		.2byte	0x183
 11937 2584 16270000 		.4byte	0x2716
 11938 2588 04       		.byte	0x4
 11939 2589 18       		.uleb128 0x18
 11940 258a A0020000 		.4byte	.LASF467
 11941 258e 2A       		.byte	0x2a
 11942 258f 8701     		.2byte	0x187
 11943 2591 3D260000 		.4byte	0x263d
 11944 2595 08       		.byte	0x8
 11945 2596 18       		.uleb128 0x18
 11946 2597 9B200000 		.4byte	.LASF468
 11947 259b 2A       		.byte	0x2a
 11948 259c 8B01     		.2byte	0x18b
 11949 259e 8E090000 		.4byte	0x98e
 11950 25a2 0C       		.byte	0xc
 11951 25a3 18       		.uleb128 0x18
 11952 25a4 A2240000 		.4byte	.LASF466
 11953 25a8 2A       		.byte	0x2a
 11954 25a9 8F01     		.2byte	0x18f
 11955 25ab 1C270000 		.4byte	0x271c
 11956 25af 10       		.byte	0x10
 11957 25b0 18       		.uleb128 0x18
 11958 25b1 C4080000 		.4byte	.LASF470
 11959 25b5 2A       		.byte	0x2a
 11960 25b6 9401     		.2byte	0x194
 11961 25b8 860B0000 		.4byte	0xb86
 11962 25bc 14       		.byte	0x14
 11963 25bd 18       		.uleb128 0x18
 11964 25be 11110000 		.4byte	.LASF471
 11965 25c2 2A       		.byte	0x2a
 11966 25c3 9A01     		.2byte	0x19a
 11967 25c5 E41A0000 		.4byte	0x1ae4
 11968 25c9 18       		.byte	0x18
 11969 25ca 18       		.uleb128 0x18
 11970 25cb 22160000 		.4byte	.LASF520
 11971 25cf 2A       		.byte	0x2a
 11972 25d0 A301     		.2byte	0x1a3
 11973 25d2 22270000 		.4byte	0x2722
 11974 25d6 2C       		.byte	0x2c
 11975 25d7 00       		.byte	0
 11976 25d8 07       		.uleb128 0x7
 11977 25d9 30210000 		.4byte	.LASF521
 11978 25dd 2A       		.byte	0x2a
ARM GAS  C:\Users\PCHAUT~1\AppData\Local\Temp\ccLw8kky.s 			page 224


 11979 25de 2001     		.2byte	0x120
 11980 25e0 8E090000 		.4byte	0x98e
 11981 25e4 0F       		.uleb128 0xf
 11982 25e5 D8250000 		.4byte	0x25d8
 11983 25e9 2D       		.uleb128 0x2d
 11984 25ea 07       		.byte	0x7
 11985 25eb 01       		.byte	0x1
 11986 25ec 69000000 		.4byte	0x69
 11987 25f0 2A       		.byte	0x2a
 11988 25f1 2701     		.2byte	0x127
 11989 25f3 04260000 		.4byte	0x2604
 11990 25f7 23       		.uleb128 0x23
 11991 25f8 F4210000 		.4byte	.LASF522
 11992 25fc 00       		.byte	0
 11993 25fd 23       		.uleb128 0x23
 11994 25fe BF0C0000 		.4byte	.LASF523
 11995 2602 01       		.byte	0x1
 11996 2603 00       		.byte	0
 11997 2604 07       		.uleb128 0x7
 11998 2605 B3160000 		.4byte	.LASF524
 11999 2609 2A       		.byte	0x2a
 12000 260a 2A01     		.2byte	0x12a
 12001 260c E9250000 		.4byte	0x25e9
 12002 2610 07       		.uleb128 0x7
 12003 2611 3C090000 		.4byte	.LASF525
 12004 2615 2A       		.byte	0x2a
 12005 2616 3401     		.2byte	0x134
 12006 2618 1C260000 		.4byte	0x261c
 12007 261c 05       		.uleb128 0x5
 12008 261d 04       		.byte	0x4
 12009 261e 22260000 		.4byte	0x2622
 12010 2622 1F       		.uleb128 0x1f
 12011 2623 37260000 		.4byte	0x2637
 12012 2627 16       		.uleb128 0x16
 12013 2628 37260000 		.4byte	0x2637
 12014 262c 16       		.uleb128 0x16
 12015 262d 3D260000 		.4byte	0x263d
 12016 2631 16       		.uleb128 0x16
 12017 2632 2C000000 		.4byte	0x2c
 12018 2636 00       		.byte	0
 12019 2637 05       		.uleb128 0x5
 12020 2638 04       		.byte	0x4
 12021 2639 56250000 		.4byte	0x2556
 12022 263d 05       		.uleb128 0x5
 12023 263e 04       		.byte	0x4
 12024 263f E4250000 		.4byte	0x25e4
 12025 2643 07       		.uleb128 0x7
 12026 2644 322B0000 		.4byte	.LASF526
 12027 2648 2A       		.byte	0x2a
 12028 2649 3F01     		.2byte	0x13f
 12029 264b 4F260000 		.4byte	0x264f
 12030 264f 05       		.uleb128 0x5
 12031 2650 04       		.byte	0x4
 12032 2651 55260000 		.4byte	0x2655
 12033 2655 1F       		.uleb128 0x1f
 12034 2656 65260000 		.4byte	0x2665
 12035 265a 16       		.uleb128 0x16
ARM GAS  C:\Users\PCHAUT~1\AppData\Local\Temp\ccLw8kky.s 			page 225


 12036 265b 37260000 		.4byte	0x2637
 12037 265f 16       		.uleb128 0x16
 12038 2660 04260000 		.4byte	0x2604
 12039 2664 00       		.byte	0
 12040 2665 2D       		.uleb128 0x2d
 12041 2666 07       		.byte	0x7
 12042 2667 01       		.byte	0x1
 12043 2668 69000000 		.4byte	0x69
 12044 266c 2A       		.byte	0x2a
 12045 266d 4401     		.2byte	0x144
 12046 266f 86260000 		.4byte	0x2686
 12047 2673 23       		.uleb128 0x23
 12048 2674 87250000 		.4byte	.LASF527
 12049 2678 00       		.byte	0
 12050 2679 23       		.uleb128 0x23
 12051 267a D3180000 		.4byte	.LASF528
 12052 267e 01       		.byte	0x1
 12053 267f 23       		.uleb128 0x23
 12054 2680 2F1D0000 		.4byte	.LASF529
 12055 2684 02       		.byte	0x2
 12056 2685 00       		.byte	0
 12057 2686 07       		.uleb128 0x7
 12058 2687 960E0000 		.4byte	.LASF530
 12059 268b 2A       		.byte	0x2a
 12060 268c 4D01     		.2byte	0x14d
 12061 268e 65260000 		.4byte	0x2665
 12062 2692 1C       		.uleb128 0x1c
 12063 2693 10       		.byte	0x10
 12064 2694 2A       		.byte	0x2a
 12065 2695 5201     		.2byte	0x152
 12066 2697 D0260000 		.4byte	0x26d0
 12067 269b 18       		.uleb128 0x18
 12068 269c 59150000 		.4byte	.LASF477
 12069 26a0 2A       		.byte	0x2a
 12070 26a1 5601     		.2byte	0x156
 12071 26a3 A9090000 		.4byte	0x9a9
 12072 26a7 00       		.byte	0
 12073 26a8 18       		.uleb128 0x18
 12074 26a9 FC0C0000 		.4byte	.LASF478
 12075 26ad 2A       		.byte	0x2a
 12076 26ae 5A01     		.2byte	0x15a
 12077 26b0 10260000 		.4byte	0x2610
 12078 26b4 04       		.byte	0x4
 12079 26b5 18       		.uleb128 0x18
 12080 26b6 C72E0000 		.4byte	.LASF479
 12081 26ba 2A       		.byte	0x2a
 12082 26bb 5E01     		.2byte	0x15e
 12083 26bd 43260000 		.4byte	0x2643
 12084 26c1 08       		.byte	0x8
 12085 26c2 18       		.uleb128 0x18
 12086 26c3 8D1A0000 		.4byte	.LASF531
 12087 26c7 2A       		.byte	0x2a
 12088 26c8 6601     		.2byte	0x166
 12089 26ca A9090000 		.4byte	0x9a9
 12090 26ce 0C       		.byte	0xc
 12091 26cf 00       		.byte	0
 12092 26d0 07       		.uleb128 0x7
ARM GAS  C:\Users\PCHAUT~1\AppData\Local\Temp\ccLw8kky.s 			page 226


 12093 26d1 D1170000 		.4byte	.LASF532
 12094 26d5 2A       		.byte	0x2a
 12095 26d6 6701     		.2byte	0x167
 12096 26d8 92260000 		.4byte	0x2692
 12097 26dc 0F       		.uleb128 0xf
 12098 26dd D0260000 		.4byte	0x26d0
 12099 26e1 1C       		.uleb128 0x1c
 12100 26e2 04       		.byte	0x4
 12101 26e3 2A       		.byte	0x2a
 12102 26e4 6C01     		.2byte	0x16c
 12103 26e6 05270000 		.4byte	0x2705
 12104 26ea 18       		.uleb128 0x18
 12105 26eb 170F0000 		.4byte	.LASF533
 12106 26ef 2A       		.byte	0x2a
 12107 26f0 7101     		.2byte	0x171
 12108 26f2 D8250000 		.4byte	0x25d8
 12109 26f6 00       		.byte	0
 12110 26f7 18       		.uleb128 0x18
 12111 26f8 A4010000 		.4byte	.LASF534
 12112 26fc 2A       		.byte	0x2a
 12113 26fd 7501     		.2byte	0x175
 12114 26ff 86260000 		.4byte	0x2686
 12115 2703 02       		.byte	0x2
 12116 2704 00       		.byte	0
 12117 2705 07       		.uleb128 0x7
 12118 2706 2E110000 		.4byte	.LASF535
 12119 270a 2A       		.byte	0x2a
 12120 270b 7601     		.2byte	0x176
 12121 270d E1260000 		.4byte	0x26e1
 12122 2711 0F       		.uleb128 0xf
 12123 2712 05270000 		.4byte	0x2705
 12124 2716 05       		.uleb128 0x5
 12125 2717 04       		.byte	0x4
 12126 2718 DC260000 		.4byte	0x26dc
 12127 271c 05       		.uleb128 0x5
 12128 271d 04       		.byte	0x4
 12129 271e 11270000 		.4byte	0x2711
 12130 2722 05       		.uleb128 0x5
 12131 2723 04       		.byte	0x4
 12132 2724 51250000 		.4byte	0x2551
 12133 2728 20       		.uleb128 0x20
 12134 2729 EF040000 		.4byte	.LASF536
 12135 272d 2A       		.byte	0x2a
 12136 272e B301     		.2byte	0x1b3
 12137 2730 56250000 		.4byte	0x2556
 12138 2734 2B       		.uleb128 0x2b
 12139 2735 07       		.byte	0x7
 12140 2736 01       		.byte	0x1
 12141 2737 69000000 		.4byte	0x69
 12142 273b 2B       		.byte	0x2b
 12143 273c 3F       		.byte	0x3f
 12144 273d 54270000 		.4byte	0x2754
 12145 2741 23       		.uleb128 0x23
 12146 2742 E90D0000 		.4byte	.LASF537
 12147 2746 00       		.byte	0
 12148 2747 23       		.uleb128 0x23
 12149 2748 BE310000 		.4byte	.LASF538
ARM GAS  C:\Users\PCHAUT~1\AppData\Local\Temp\ccLw8kky.s 			page 227


 12150 274c 01       		.byte	0x1
 12151 274d 23       		.uleb128 0x23
 12152 274e EC020000 		.4byte	.LASF539
 12153 2752 02       		.byte	0x2
 12154 2753 00       		.byte	0
 12155 2754 03       		.uleb128 0x3
 12156 2755 A6230000 		.4byte	.LASF540
 12157 2759 2B       		.byte	0x2b
 12158 275a 43       		.byte	0x43
 12159 275b 34270000 		.4byte	0x2734
 12160 275f 03       		.uleb128 0x3
 12161 2760 D80A0000 		.4byte	.LASF541
 12162 2764 2B       		.byte	0x2b
 12163 2765 48       		.byte	0x48
 12164 2766 6A270000 		.4byte	0x276a
 12165 276a 10       		.uleb128 0x10
 12166 276b D80A0000 		.4byte	.LASF541
 12167 276f 08       		.byte	0x8
 12168 2770 2C       		.byte	0x2c
 12169 2771 71       		.byte	0x71
 12170 2772 8F270000 		.4byte	0x278f
 12171 2776 0D       		.uleb128 0xd
 12172 2777 831C0000 		.4byte	.LASF465
 12173 277b 2C       		.byte	0x2c
 12174 277c 75       		.byte	0x75
 12175 277d 54270000 		.4byte	0x2754
 12176 2781 00       		.byte	0
 12177 2782 0D       		.uleb128 0xd
 12178 2783 A2240000 		.4byte	.LASF466
 12179 2787 2C       		.byte	0x2c
 12180 2788 79       		.byte	0x79
 12181 2789 21280000 		.4byte	0x2821
 12182 278d 04       		.byte	0x4
 12183 278e 00       		.byte	0
 12184 278f 03       		.uleb128 0x3
 12185 2790 352F0000 		.4byte	.LASF542
 12186 2794 2C       		.byte	0x2c
 12187 2795 47       		.byte	0x47
 12188 2796 A9090000 		.4byte	0x9a9
 12189 279a 03       		.uleb128 0x3
 12190 279b A2280000 		.4byte	.LASF543
 12191 279f 2C       		.byte	0x2c
 12192 27a0 4F       		.byte	0x4f
 12193 27a1 A5270000 		.4byte	0x27a5
 12194 27a5 05       		.uleb128 0x5
 12195 27a6 04       		.byte	0x4
 12196 27a7 AB270000 		.4byte	0x27ab
 12197 27ab 1F       		.uleb128 0x1f
 12198 27ac BB270000 		.4byte	0x27bb
 12199 27b0 16       		.uleb128 0x16
 12200 27b1 BB270000 		.4byte	0x27bb
 12201 27b5 16       		.uleb128 0x16
 12202 27b6 8F270000 		.4byte	0x278f
 12203 27ba 00       		.byte	0
 12204 27bb 05       		.uleb128 0x5
 12205 27bc 04       		.byte	0x4
 12206 27bd 5F270000 		.4byte	0x275f
ARM GAS  C:\Users\PCHAUT~1\AppData\Local\Temp\ccLw8kky.s 			page 228


 12207 27c1 0C       		.uleb128 0xc
 12208 27c2 08       		.byte	0x8
 12209 27c3 2C       		.byte	0x2c
 12210 27c4 54       		.byte	0x54
 12211 27c5 E1270000 		.4byte	0x27e1
 12212 27c9 0D       		.uleb128 0xd
 12213 27ca AC0A0000 		.4byte	.LASF544
 12214 27ce 2C       		.byte	0x2c
 12215 27cf 58       		.byte	0x58
 12216 27d0 A9090000 		.4byte	0x9a9
 12217 27d4 00       		.byte	0
 12218 27d5 11       		.uleb128 0x11
 12219 27d6 636200   		.ascii	"cb\000"
 12220 27d9 2C       		.byte	0x2c
 12221 27da 5F       		.byte	0x5f
 12222 27db 9A270000 		.4byte	0x279a
 12223 27df 04       		.byte	0x4
 12224 27e0 00       		.byte	0
 12225 27e1 03       		.uleb128 0x3
 12226 27e2 2C130000 		.4byte	.LASF545
 12227 27e6 2C       		.byte	0x2c
 12228 27e7 60       		.byte	0x60
 12229 27e8 C1270000 		.4byte	0x27c1
 12230 27ec 0C       		.uleb128 0xc
 12231 27ed B8       		.byte	0xb8
 12232 27ee 2C       		.byte	0x2c
 12233 27ef 66       		.byte	0x66
 12234 27f0 01280000 		.4byte	0x2801
 12235 27f4 0D       		.uleb128 0xd
 12236 27f5 5F2B0000 		.4byte	.LASF546
 12237 27f9 2C       		.byte	0x2c
 12238 27fa 6A       		.byte	0x6a
 12239 27fb 01280000 		.4byte	0x2801
 12240 27ff 00       		.byte	0
 12241 2800 00       		.byte	0
 12242 2801 0A       		.uleb128 0xa
 12243 2802 E1270000 		.4byte	0x27e1
 12244 2806 11280000 		.4byte	0x2811
 12245 280a 0B       		.uleb128 0xb
 12246 280b 37000000 		.4byte	0x37
 12247 280f 16       		.byte	0x16
 12248 2810 00       		.byte	0
 12249 2811 03       		.uleb128 0x3
 12250 2812 35270000 		.4byte	.LASF547
 12251 2816 2C       		.byte	0x2c
 12252 2817 6C       		.byte	0x6c
 12253 2818 EC270000 		.4byte	0x27ec
 12254 281c 0F       		.uleb128 0xf
 12255 281d 11280000 		.4byte	0x2811
 12256 2821 05       		.uleb128 0x5
 12257 2822 04       		.byte	0x4
 12258 2823 1C280000 		.4byte	0x281c
 12259 2827 27       		.uleb128 0x27
 12260 2828 33070000 		.4byte	.LASF548
 12261 282c 2C       		.byte	0x2c
 12262 282d 86       		.byte	0x86
 12263 282e 5F270000 		.4byte	0x275f
ARM GAS  C:\Users\PCHAUT~1\AppData\Local\Temp\ccLw8kky.s 			page 229


 12264 2832 2B       		.uleb128 0x2b
 12265 2833 07       		.byte	0x7
 12266 2834 01       		.byte	0x1
 12267 2835 69000000 		.4byte	0x69
 12268 2839 2D       		.byte	0x2d
 12269 283a 31       		.byte	0x31
 12270 283b 5E280000 		.4byte	0x285e
 12271 283f 23       		.uleb128 0x23
 12272 2840 431D0000 		.4byte	.LASF549
 12273 2844 00       		.byte	0
 12274 2845 23       		.uleb128 0x23
 12275 2846 B51A0000 		.4byte	.LASF550
 12276 284a 01       		.byte	0x1
 12277 284b 23       		.uleb128 0x23
 12278 284c F7200000 		.4byte	.LASF551
 12279 2850 02       		.byte	0x2
 12280 2851 23       		.uleb128 0x23
 12281 2852 B1090000 		.4byte	.LASF552
 12282 2856 03       		.byte	0x3
 12283 2857 23       		.uleb128 0x23
 12284 2858 BB050000 		.4byte	.LASF553
 12285 285c 04       		.byte	0x4
 12286 285d 00       		.byte	0
 12287 285e 03       		.uleb128 0x3
 12288 285f 57190000 		.4byte	.LASF554
 12289 2863 2D       		.byte	0x2d
 12290 2864 37       		.byte	0x37
 12291 2865 32280000 		.4byte	0x2832
 12292 2869 03       		.uleb128 0x3
 12293 286a EA1E0000 		.4byte	.LASF555
 12294 286e 2D       		.byte	0x2d
 12295 286f 3C       		.byte	0x3c
 12296 2870 74280000 		.4byte	0x2874
 12297 2874 1B       		.uleb128 0x1b
 12298 2875 EA1E0000 		.4byte	.LASF555
 12299 2879 10       		.byte	0x10
 12300 287a 2E       		.byte	0x2e
 12301 287b 9701     		.2byte	0x197
 12302 287d B6280000 		.4byte	0x28b6
 12303 2881 18       		.uleb128 0x18
 12304 2882 831C0000 		.4byte	.LASF465
 12305 2886 2E       		.byte	0x2e
 12306 2887 9B01     		.2byte	0x19b
 12307 2889 5E280000 		.4byte	0x285e
 12308 288d 00       		.byte	0
 12309 288e 18       		.uleb128 0x18
 12310 288f A2240000 		.4byte	.LASF466
 12311 2893 2E       		.byte	0x2e
 12312 2894 9F01     		.2byte	0x19f
 12313 2896 4B2A0000 		.4byte	0x2a4b
 12314 289a 04       		.byte	0x4
 12315 289b 18       		.uleb128 0x18
 12316 289c 42110000 		.4byte	.LASF556
 12317 28a0 2E       		.byte	0x2e
 12318 28a1 A701     		.2byte	0x1a7
 12319 28a3 A9090000 		.4byte	0x9a9
 12320 28a7 08       		.byte	0x8
ARM GAS  C:\Users\PCHAUT~1\AppData\Local\Temp\ccLw8kky.s 			page 230


 12321 28a8 25       		.uleb128 0x25
 12322 28a9 74696D00 		.ascii	"tim\000"
 12323 28ad 2E       		.byte	0x2e
 12324 28ae AB01     		.2byte	0x1ab
 12325 28b0 512A0000 		.4byte	0x2a51
 12326 28b4 0C       		.byte	0xc
 12327 28b5 00       		.byte	0
 12328 28b6 03       		.uleb128 0x3
 12329 28b7 D5160000 		.4byte	.LASF557
 12330 28bb 2D       		.byte	0x2d
 12331 28bc 43       		.byte	0x43
 12332 28bd C1280000 		.4byte	0x28c1
 12333 28c1 05       		.uleb128 0x5
 12334 28c2 04       		.byte	0x4
 12335 28c3 C7280000 		.4byte	0x28c7
 12336 28c7 1F       		.uleb128 0x1f
 12337 28c8 D2280000 		.4byte	0x28d2
 12338 28cc 16       		.uleb128 0x16
 12339 28cd D2280000 		.4byte	0x28d2
 12340 28d1 00       		.byte	0
 12341 28d2 05       		.uleb128 0x5
 12342 28d3 04       		.byte	0x4
 12343 28d4 69280000 		.4byte	0x2869
 12344 28d8 1C       		.uleb128 0x1c
 12345 28d9 60       		.byte	0x60
 12346 28da 2F       		.byte	0x2f
 12347 28db 9E01     		.2byte	0x19e
 12348 28dd E4290000 		.4byte	0x29e4
 12349 28e1 25       		.uleb128 0x25
 12350 28e2 43523100 		.ascii	"CR1\000"
 12351 28e6 2F       		.byte	0x2f
 12352 28e7 9F01     		.2byte	0x19f
 12353 28e9 B4090000 		.4byte	0x9b4
 12354 28ed 00       		.byte	0
 12355 28ee 25       		.uleb128 0x25
 12356 28ef 43523200 		.ascii	"CR2\000"
 12357 28f3 2F       		.byte	0x2f
 12358 28f4 A001     		.2byte	0x1a0
 12359 28f6 B4090000 		.4byte	0x9b4
 12360 28fa 04       		.byte	0x4
 12361 28fb 18       		.uleb128 0x18
 12362 28fc 4B2A0000 		.4byte	.LASF558
 12363 2900 2F       		.byte	0x2f
 12364 2901 A101     		.2byte	0x1a1
 12365 2903 B4090000 		.4byte	0x9b4
 12366 2907 08       		.byte	0x8
 12367 2908 18       		.uleb128 0x18
 12368 2909 3C0E0000 		.4byte	.LASF559
 12369 290d 2F       		.byte	0x2f
 12370 290e A201     		.2byte	0x1a2
 12371 2910 B4090000 		.4byte	0x9b4
 12372 2914 0C       		.byte	0xc
 12373 2915 25       		.uleb128 0x25
 12374 2916 535200   		.ascii	"SR\000"
 12375 2919 2F       		.byte	0x2f
 12376 291a A301     		.2byte	0x1a3
 12377 291c B4090000 		.4byte	0x9b4
ARM GAS  C:\Users\PCHAUT~1\AppData\Local\Temp\ccLw8kky.s 			page 231


 12378 2920 10       		.byte	0x10
 12379 2921 25       		.uleb128 0x25
 12380 2922 45475200 		.ascii	"EGR\000"
 12381 2926 2F       		.byte	0x2f
 12382 2927 A401     		.2byte	0x1a4
 12383 2929 B4090000 		.4byte	0x9b4
 12384 292d 14       		.byte	0x14
 12385 292e 18       		.uleb128 0x18
 12386 292f 2A300000 		.4byte	.LASF560
 12387 2933 2F       		.byte	0x2f
 12388 2934 A501     		.2byte	0x1a5
 12389 2936 B4090000 		.4byte	0x9b4
 12390 293a 18       		.byte	0x18
 12391 293b 18       		.uleb128 0x18
 12392 293c 30300000 		.4byte	.LASF561
 12393 2940 2F       		.byte	0x2f
 12394 2941 A601     		.2byte	0x1a6
 12395 2943 B4090000 		.4byte	0x9b4
 12396 2947 1C       		.byte	0x1c
 12397 2948 18       		.uleb128 0x18
 12398 2949 14090000 		.4byte	.LASF562
 12399 294d 2F       		.byte	0x2f
 12400 294e A701     		.2byte	0x1a7
 12401 2950 B4090000 		.4byte	0x9b4
 12402 2954 20       		.byte	0x20
 12403 2955 25       		.uleb128 0x25
 12404 2956 434E5400 		.ascii	"CNT\000"
 12405 295a 2F       		.byte	0x2f
 12406 295b A801     		.2byte	0x1a8
 12407 295d B4090000 		.4byte	0x9b4
 12408 2961 24       		.byte	0x24
 12409 2962 25       		.uleb128 0x25
 12410 2963 50534300 		.ascii	"PSC\000"
 12411 2967 2F       		.byte	0x2f
 12412 2968 A901     		.2byte	0x1a9
 12413 296a B4090000 		.4byte	0x9b4
 12414 296e 28       		.byte	0x28
 12415 296f 25       		.uleb128 0x25
 12416 2970 41525200 		.ascii	"ARR\000"
 12417 2974 2F       		.byte	0x2f
 12418 2975 AA01     		.2byte	0x1aa
 12419 2977 B4090000 		.4byte	0x9b4
 12420 297b 2C       		.byte	0x2c
 12421 297c 25       		.uleb128 0x25
 12422 297d 52435200 		.ascii	"RCR\000"
 12423 2981 2F       		.byte	0x2f
 12424 2982 AB01     		.2byte	0x1ab
 12425 2984 B4090000 		.4byte	0x9b4
 12426 2988 30       		.byte	0x30
 12427 2989 25       		.uleb128 0x25
 12428 298a 43435200 		.ascii	"CCR\000"
 12429 298e 2F       		.byte	0x2f
 12430 298f AC01     		.2byte	0x1ac
 12431 2991 52130000 		.4byte	0x1352
 12432 2995 34       		.byte	0x34
 12433 2996 18       		.uleb128 0x18
 12434 2997 B9020000 		.4byte	.LASF563
ARM GAS  C:\Users\PCHAUT~1\AppData\Local\Temp\ccLw8kky.s 			page 232


 12435 299b 2F       		.byte	0x2f
 12436 299c AD01     		.2byte	0x1ad
 12437 299e B4090000 		.4byte	0x9b4
 12438 29a2 44       		.byte	0x44
 12439 29a3 25       		.uleb128 0x25
 12440 29a4 44435200 		.ascii	"DCR\000"
 12441 29a8 2F       		.byte	0x2f
 12442 29a9 AE01     		.2byte	0x1ae
 12443 29ab B4090000 		.4byte	0x9b4
 12444 29af 48       		.byte	0x48
 12445 29b0 18       		.uleb128 0x18
 12446 29b1 EB1C0000 		.4byte	.LASF564
 12447 29b5 2F       		.byte	0x2f
 12448 29b6 AF01     		.2byte	0x1af
 12449 29b8 B4090000 		.4byte	0x9b4
 12450 29bc 4C       		.byte	0x4c
 12451 29bd 25       		.uleb128 0x25
 12452 29be 4F5200   		.ascii	"OR\000"
 12453 29c1 2F       		.byte	0x2f
 12454 29c2 B001     		.2byte	0x1b0
 12455 29c4 B4090000 		.4byte	0x9b4
 12456 29c8 50       		.byte	0x50
 12457 29c9 18       		.uleb128 0x18
 12458 29ca 36300000 		.4byte	.LASF565
 12459 29ce 2F       		.byte	0x2f
 12460 29cf B101     		.2byte	0x1b1
 12461 29d1 B4090000 		.4byte	0x9b4
 12462 29d5 54       		.byte	0x54
 12463 29d6 18       		.uleb128 0x18
 12464 29d7 4E110000 		.4byte	.LASF566
 12465 29db 2F       		.byte	0x2f
 12466 29dc B201     		.2byte	0x1b2
 12467 29de 3D130000 		.4byte	0x133d
 12468 29e2 58       		.byte	0x58
 12469 29e3 00       		.byte	0
 12470 29e4 07       		.uleb128 0x7
 12471 29e5 2C290000 		.4byte	.LASF567
 12472 29e9 2F       		.byte	0x2f
 12473 29ea B301     		.2byte	0x1b3
 12474 29ec D8280000 		.4byte	0x28d8
 12475 29f0 07       		.uleb128 0x7
 12476 29f1 230B0000 		.4byte	.LASF568
 12477 29f5 2E       		.byte	0x2e
 12478 29f6 6D01     		.2byte	0x16d
 12479 29f8 A9090000 		.4byte	0x9a9
 12480 29fc 1C       		.uleb128 0x1c
 12481 29fd 10       		.byte	0x10
 12482 29fe 2E       		.byte	0x2e
 12483 29ff 7801     		.2byte	0x178
 12484 2a01 3A2A0000 		.4byte	0x2a3a
 12485 2a05 18       		.uleb128 0x18
 12486 2a06 782F0000 		.4byte	.LASF569
 12487 2a0a 2E       		.byte	0x2e
 12488 2a0b 7E01     		.2byte	0x17e
 12489 2a0d F0290000 		.4byte	0x29f0
 12490 2a11 00       		.byte	0
 12491 2a12 18       		.uleb128 0x18
ARM GAS  C:\Users\PCHAUT~1\AppData\Local\Temp\ccLw8kky.s 			page 233


 12492 2a13 F01C0000 		.4byte	.LASF570
 12493 2a17 2E       		.byte	0x2e
 12494 2a18 8501     		.2byte	0x185
 12495 2a1a B6280000 		.4byte	0x28b6
 12496 2a1e 04       		.byte	0x4
 12497 2a1f 25       		.uleb128 0x25
 12498 2a20 63723200 		.ascii	"cr2\000"
 12499 2a24 2E       		.byte	0x2e
 12500 2a25 8B01     		.2byte	0x18b
 12501 2a27 A9090000 		.4byte	0x9a9
 12502 2a2b 08       		.byte	0x8
 12503 2a2c 18       		.uleb128 0x18
 12504 2a2d AF100000 		.4byte	.LASF571
 12505 2a31 2E       		.byte	0x2e
 12506 2a32 9101     		.2byte	0x191
 12507 2a34 A9090000 		.4byte	0x9a9
 12508 2a38 0C       		.byte	0xc
 12509 2a39 00       		.byte	0
 12510 2a3a 07       		.uleb128 0x7
 12511 2a3b 17080000 		.4byte	.LASF572
 12512 2a3f 2E       		.byte	0x2e
 12513 2a40 9201     		.2byte	0x192
 12514 2a42 FC290000 		.4byte	0x29fc
 12515 2a46 0F       		.uleb128 0xf
 12516 2a47 3A2A0000 		.4byte	0x2a3a
 12517 2a4b 05       		.uleb128 0x5
 12518 2a4c 04       		.byte	0x4
 12519 2a4d 462A0000 		.4byte	0x2a46
 12520 2a51 05       		.uleb128 0x5
 12521 2a52 04       		.byte	0x4
 12522 2a53 E4290000 		.4byte	0x29e4
 12523 2a57 20       		.uleb128 0x20
 12524 2a58 AD2E0000 		.4byte	.LASF573
 12525 2a5c 2E       		.byte	0x2e
 12526 2a5d F201     		.2byte	0x1f2
 12527 2a5f 69280000 		.4byte	0x2869
 12528 2a63 20       		.uleb128 0x20
 12529 2a64 A9240000 		.4byte	.LASF574
 12530 2a68 2E       		.byte	0x2e
 12531 2a69 0202     		.2byte	0x202
 12532 2a6b 69280000 		.4byte	0x2869
 12533 2a6f 2B       		.uleb128 0x2b
 12534 2a70 07       		.byte	0x7
 12535 2a71 01       		.byte	0x1
 12536 2a72 69000000 		.4byte	0x69
 12537 2a76 30       		.byte	0x30
 12538 2a77 4C       		.byte	0x4c
 12539 2a78 A12A0000 		.4byte	0x2aa1
 12540 2a7c 23       		.uleb128 0x23
 12541 2a7d EF070000 		.4byte	.LASF575
 12542 2a81 00       		.byte	0
 12543 2a82 23       		.uleb128 0x23
 12544 2a83 E1120000 		.4byte	.LASF576
 12545 2a87 01       		.byte	0x1
 12546 2a88 23       		.uleb128 0x23
 12547 2a89 F6080000 		.4byte	.LASF577
 12548 2a8d 02       		.byte	0x2
ARM GAS  C:\Users\PCHAUT~1\AppData\Local\Temp\ccLw8kky.s 			page 234


 12549 2a8e 23       		.uleb128 0x23
 12550 2a8f F5050000 		.4byte	.LASF578
 12551 2a93 03       		.byte	0x3
 12552 2a94 23       		.uleb128 0x23
 12553 2a95 69040000 		.4byte	.LASF579
 12554 2a99 04       		.byte	0x4
 12555 2a9a 23       		.uleb128 0x23
 12556 2a9b 14190000 		.4byte	.LASF580
 12557 2a9f 05       		.byte	0x5
 12558 2aa0 00       		.byte	0
 12559 2aa1 03       		.uleb128 0x3
 12560 2aa2 50160000 		.4byte	.LASF581
 12561 2aa6 30       		.byte	0x30
 12562 2aa7 53       		.byte	0x53
 12563 2aa8 6F2A0000 		.4byte	0x2a6f
 12564 2aac 07       		.uleb128 0x7
 12565 2aad C71E0000 		.4byte	.LASF582
 12566 2ab1 31       		.byte	0x31
 12567 2ab2 6A01     		.2byte	0x16a
 12568 2ab4 8E090000 		.4byte	0x98e
 12569 2ab8 07       		.uleb128 0x7
 12570 2ab9 17050000 		.4byte	.LASF583
 12571 2abd 31       		.byte	0x31
 12572 2abe 6F01     		.2byte	0x16f
 12573 2ac0 A9090000 		.4byte	0x9a9
 12574 2ac4 2D       		.uleb128 0x2d
 12575 2ac5 07       		.byte	0x7
 12576 2ac6 01       		.byte	0x1
 12577 2ac7 69000000 		.4byte	0x69
 12578 2acb 31       		.byte	0x31
 12579 2acc 7401     		.2byte	0x174
 12580 2ace E52A0000 		.4byte	0x2ae5
 12581 2ad2 23       		.uleb128 0x23
 12582 2ad3 0E060000 		.4byte	.LASF584
 12583 2ad7 01       		.byte	0x1
 12584 2ad8 23       		.uleb128 0x23
 12585 2ad9 AC000000 		.4byte	.LASF585
 12586 2add 02       		.byte	0x2
 12587 2ade 23       		.uleb128 0x23
 12588 2adf 5B0D0000 		.4byte	.LASF586
 12589 2ae3 03       		.byte	0x3
 12590 2ae4 00       		.byte	0
 12591 2ae5 07       		.uleb128 0x7
 12592 2ae6 D8300000 		.4byte	.LASF587
 12593 2aea 31       		.byte	0x31
 12594 2aeb 7801     		.2byte	0x178
 12595 2aed C42A0000 		.4byte	0x2ac4
 12596 2af1 2D       		.uleb128 0x2d
 12597 2af2 07       		.byte	0x7
 12598 2af3 01       		.byte	0x1
 12599 2af4 69000000 		.4byte	0x69
 12600 2af8 31       		.byte	0x31
 12601 2af9 7D01     		.2byte	0x17d
 12602 2afb 122B0000 		.4byte	0x2b12
 12603 2aff 23       		.uleb128 0x23
 12604 2b00 07070000 		.4byte	.LASF588
 12605 2b04 01       		.byte	0x1
ARM GAS  C:\Users\PCHAUT~1\AppData\Local\Temp\ccLw8kky.s 			page 235


 12606 2b05 23       		.uleb128 0x23
 12607 2b06 FF2F0000 		.4byte	.LASF589
 12608 2b0a 02       		.byte	0x2
 12609 2b0b 23       		.uleb128 0x23
 12610 2b0c BE0E0000 		.4byte	.LASF590
 12611 2b10 03       		.byte	0x3
 12612 2b11 00       		.byte	0
 12613 2b12 07       		.uleb128 0x7
 12614 2b13 8B080000 		.4byte	.LASF591
 12615 2b17 31       		.byte	0x31
 12616 2b18 8101     		.2byte	0x181
 12617 2b1a F12A0000 		.4byte	0x2af1
 12618 2b1e 1C       		.uleb128 0x1c
 12619 2b1f 0C       		.byte	0xc
 12620 2b20 31       		.byte	0x31
 12621 2b21 8601     		.2byte	0x186
 12622 2b23 4F2B0000 		.4byte	0x2b4f
 12623 2b27 18       		.uleb128 0x18
 12624 2b28 E51A0000 		.4byte	.LASF592
 12625 2b2c 31       		.byte	0x31
 12626 2b2d 8801     		.2byte	0x188
 12627 2b2f E52A0000 		.4byte	0x2ae5
 12628 2b33 00       		.byte	0
 12629 2b34 18       		.uleb128 0x18
 12630 2b35 D9040000 		.4byte	.LASF593
 12631 2b39 31       		.byte	0x31
 12632 2b3a 8901     		.2byte	0x189
 12633 2b3c A9090000 		.4byte	0x9a9
 12634 2b40 04       		.byte	0x4
 12635 2b41 18       		.uleb128 0x18
 12636 2b42 59310000 		.4byte	.LASF594
 12637 2b46 31       		.byte	0x31
 12638 2b47 8C01     		.2byte	0x18c
 12639 2b49 122B0000 		.4byte	0x2b12
 12640 2b4d 08       		.byte	0x8
 12641 2b4e 00       		.byte	0
 12642 2b4f 07       		.uleb128 0x7
 12643 2b50 C6020000 		.4byte	.LASF595
 12644 2b54 31       		.byte	0x31
 12645 2b55 8E01     		.2byte	0x18e
 12646 2b57 1E2B0000 		.4byte	0x2b1e
 12647 2b5b 0F       		.uleb128 0xf
 12648 2b5c 4F2B0000 		.4byte	0x2b4f
 12649 2b60 07       		.uleb128 0x7
 12650 2b61 E0050000 		.4byte	.LASF596
 12651 2b65 31       		.byte	0x31
 12652 2b66 9301     		.2byte	0x193
 12653 2b68 6C2B0000 		.4byte	0x2b6c
 12654 2b6c 1B       		.uleb128 0x1b
 12655 2b6d E0050000 		.4byte	.LASF596
 12656 2b71 3C       		.byte	0x3c
 12657 2b72 31       		.byte	0x31
 12658 2b73 9801     		.2byte	0x198
 12659 2b75 092C0000 		.4byte	0x2c09
 12660 2b79 18       		.uleb128 0x18
 12661 2b7a 831C0000 		.4byte	.LASF465
 12662 2b7e 31       		.byte	0x31
ARM GAS  C:\Users\PCHAUT~1\AppData\Local\Temp\ccLw8kky.s 			page 236


 12663 2b7f 9C01     		.2byte	0x19c
 12664 2b81 A12A0000 		.4byte	0x2aa1
 12665 2b85 00       		.byte	0
 12666 2b86 18       		.uleb128 0x18
 12667 2b87 A2240000 		.4byte	.LASF466
 12668 2b8b 31       		.byte	0x31
 12669 2b8c A001     		.2byte	0x1a0
 12670 2b8e 092C0000 		.4byte	0x2c09
 12671 2b92 04       		.byte	0x4
 12672 2b93 18       		.uleb128 0x18
 12673 2b94 26020000 		.4byte	.LASF597
 12674 2b98 31       		.byte	0x31
 12675 2b99 A401     		.2byte	0x1a4
 12676 2b9b B82A0000 		.4byte	0x2ab8
 12677 2b9f 08       		.byte	0x8
 12678 2ba0 18       		.uleb128 0x18
 12679 2ba1 11110000 		.4byte	.LASF471
 12680 2ba5 31       		.byte	0x31
 12681 2ba6 A901     		.2byte	0x1a9
 12682 2ba8 E41A0000 		.4byte	0x1ae4
 12683 2bac 0C       		.byte	0xc
 12684 2bad 18       		.uleb128 0x18
 12685 2bae C4080000 		.4byte	.LASF470
 12686 2bb2 31       		.byte	0x31
 12687 2bb3 B201     		.2byte	0x1b2
 12688 2bb5 860B0000 		.4byte	0xb86
 12689 2bb9 20       		.byte	0x20
 12690 2bba 18       		.uleb128 0x18
 12691 2bbb EA120000 		.4byte	.LASF598
 12692 2bbf 31       		.byte	0x31
 12693 2bc0 B601     		.2byte	0x1b6
 12694 2bc2 AC2A0000 		.4byte	0x2aac
 12695 2bc6 24       		.byte	0x24
 12696 2bc7 18       		.uleb128 0x18
 12697 2bc8 980A0000 		.4byte	.LASF599
 12698 2bcc 31       		.byte	0x31
 12699 2bcd BA01     		.2byte	0x1ba
 12700 2bcf A9090000 		.4byte	0x9a9
 12701 2bd3 28       		.byte	0x28
 12702 2bd4 18       		.uleb128 0x18
 12703 2bd5 020B0000 		.4byte	.LASF600
 12704 2bd9 31       		.byte	0x31
 12705 2bda BE01     		.2byte	0x1be
 12706 2bdc A9090000 		.4byte	0x9a9
 12707 2be0 2C       		.byte	0x2c
 12708 2be1 18       		.uleb128 0x18
 12709 2be2 AD010000 		.4byte	.LASF601
 12710 2be6 31       		.byte	0x31
 12711 2be7 C201     		.2byte	0x1c2
 12712 2be9 4B230000 		.4byte	0x234b
 12713 2bed 30       		.byte	0x30
 12714 2bee 18       		.uleb128 0x18
 12715 2bef D9020000 		.4byte	.LASF602
 12716 2bf3 31       		.byte	0x31
 12717 2bf4 C601     		.2byte	0x1c6
 12718 2bf6 4B230000 		.4byte	0x234b
 12719 2bfa 34       		.byte	0x34
ARM GAS  C:\Users\PCHAUT~1\AppData\Local\Temp\ccLw8kky.s 			page 237


 12720 2bfb 25       		.uleb128 0x25
 12721 2bfc 69326300 		.ascii	"i2c\000"
 12722 2c00 31       		.byte	0x31
 12723 2c01 CA01     		.2byte	0x1ca
 12724 2c03 0F2C0000 		.4byte	0x2c0f
 12725 2c07 38       		.byte	0x38
 12726 2c08 00       		.byte	0
 12727 2c09 05       		.uleb128 0x5
 12728 2c0a 04       		.byte	0x4
 12729 2c0b 5B2B0000 		.4byte	0x2b5b
 12730 2c0f 05       		.uleb128 0x5
 12731 2c10 04       		.byte	0x4
 12732 2c11 E2130000 		.4byte	0x13e2
 12733 2c15 20       		.uleb128 0x20
 12734 2c16 07170000 		.4byte	.LASF603
 12735 2c1a 31       		.byte	0x31
 12736 2c1b E001     		.2byte	0x1e0
 12737 2c1d 602B0000 		.4byte	0x2b60
 12738 2c21 2B       		.uleb128 0x2b
 12739 2c22 07       		.byte	0x7
 12740 2c23 01       		.byte	0x1
 12741 2c24 69000000 		.4byte	0x69
 12742 2c28 32       		.byte	0x32
 12743 2c29 39       		.byte	0x39
 12744 2c2a 4D2C0000 		.4byte	0x2c4d
 12745 2c2e 23       		.uleb128 0x23
 12746 2c2f F4140000 		.4byte	.LASF604
 12747 2c33 00       		.byte	0
 12748 2c34 23       		.uleb128 0x23
 12749 2c35 EB100000 		.4byte	.LASF605
 12750 2c39 01       		.byte	0x1
 12751 2c3a 23       		.uleb128 0x23
 12752 2c3b 1B1B0000 		.4byte	.LASF606
 12753 2c3f 02       		.byte	0x2
 12754 2c40 23       		.uleb128 0x23
 12755 2c41 EC200000 		.4byte	.LASF607
 12756 2c45 03       		.byte	0x3
 12757 2c46 23       		.uleb128 0x23
 12758 2c47 16280000 		.4byte	.LASF608
 12759 2c4b 04       		.byte	0x4
 12760 2c4c 00       		.byte	0
 12761 2c4d 03       		.uleb128 0x3
 12762 2c4e 492C0000 		.4byte	.LASF609
 12763 2c52 32       		.byte	0x32
 12764 2c53 3F       		.byte	0x3f
 12765 2c54 212C0000 		.4byte	0x2c21
 12766 2c58 03       		.uleb128 0x3
 12767 2c59 4F310000 		.4byte	.LASF610
 12768 2c5d 33       		.byte	0x33
 12769 2c5e E2       		.byte	0xe2
 12770 2c5f 632C0000 		.4byte	0x2c63
 12771 2c63 1B       		.uleb128 0x1b
 12772 2c64 4F310000 		.4byte	.LASF610
 12773 2c68 20       		.byte	0x20
 12774 2c69 33       		.byte	0x33
 12775 2c6a 1B01     		.2byte	0x11b
 12776 2c6c D92C0000 		.4byte	0x2cd9
ARM GAS  C:\Users\PCHAUT~1\AppData\Local\Temp\ccLw8kky.s 			page 238


 12777 2c70 18       		.uleb128 0x18
 12778 2c71 831C0000 		.4byte	.LASF465
 12779 2c75 33       		.byte	0x33
 12780 2c76 1F01     		.2byte	0x11f
 12781 2c78 4D2C0000 		.4byte	0x2c4d
 12782 2c7c 00       		.byte	0
 12783 2c7d 18       		.uleb128 0x18
 12784 2c7e A2240000 		.4byte	.LASF466
 12785 2c82 33       		.byte	0x33
 12786 2c83 2301     		.2byte	0x123
 12787 2c85 712D0000 		.4byte	0x2d71
 12788 2c89 04       		.byte	0x4
 12789 2c8a 25       		.uleb128 0x25
 12790 2c8b 73706900 		.ascii	"spi\000"
 12791 2c8f 33       		.byte	0x33
 12792 2c90 2801     		.2byte	0x128
 12793 2c92 772D0000 		.4byte	0x2d77
 12794 2c96 08       		.byte	0x8
 12795 2c97 25       		.uleb128 0x25
 12796 2c98 63666700 		.ascii	"cfg\000"
 12797 2c9c 33       		.byte	0x33
 12798 2c9d 2C01     		.2byte	0x12c
 12799 2c9f 8E090000 		.4byte	0x98e
 12800 2ca3 0C       		.byte	0xc
 12801 2ca4 18       		.uleb128 0x18
 12802 2ca5 AD010000 		.4byte	.LASF601
 12803 2ca9 33       		.byte	0x33
 12804 2caa 3001     		.2byte	0x130
 12805 2cac 4B230000 		.4byte	0x234b
 12806 2cb0 10       		.byte	0x10
 12807 2cb1 18       		.uleb128 0x18
 12808 2cb2 D9020000 		.4byte	.LASF602
 12809 2cb6 33       		.byte	0x33
 12810 2cb7 3401     		.2byte	0x134
 12811 2cb9 4B230000 		.4byte	0x234b
 12812 2cbd 14       		.byte	0x14
 12813 2cbe 18       		.uleb128 0x18
 12814 2cbf 980A0000 		.4byte	.LASF599
 12815 2cc3 33       		.byte	0x33
 12816 2cc4 3801     		.2byte	0x138
 12817 2cc6 A9090000 		.4byte	0x9a9
 12818 2cca 18       		.byte	0x18
 12819 2ccb 18       		.uleb128 0x18
 12820 2ccc 020B0000 		.4byte	.LASF600
 12821 2cd0 33       		.byte	0x33
 12822 2cd1 3C01     		.2byte	0x13c
 12823 2cd3 A9090000 		.4byte	0x9a9
 12824 2cd7 1C       		.byte	0x1c
 12825 2cd8 00       		.byte	0
 12826 2cd9 03       		.uleb128 0x3
 12827 2cda EE0A0000 		.4byte	.LASF611
 12828 2cde 33       		.byte	0x33
 12829 2cdf EB       		.byte	0xeb
 12830 2ce0 E42C0000 		.4byte	0x2ce4
 12831 2ce4 05       		.uleb128 0x5
 12832 2ce5 04       		.byte	0x4
 12833 2ce6 EA2C0000 		.4byte	0x2cea
ARM GAS  C:\Users\PCHAUT~1\AppData\Local\Temp\ccLw8kky.s 			page 239


 12834 2cea 1F       		.uleb128 0x1f
 12835 2ceb FF2C0000 		.4byte	0x2cff
 12836 2cef 16       		.uleb128 0x16
 12837 2cf0 FF2C0000 		.4byte	0x2cff
 12838 2cf4 16       		.uleb128 0x16
 12839 2cf5 2C000000 		.4byte	0x2c
 12840 2cf9 16       		.uleb128 0x16
 12841 2cfa 2C000000 		.4byte	0x2c
 12842 2cfe 00       		.byte	0
 12843 2cff 05       		.uleb128 0x5
 12844 2d00 04       		.byte	0x4
 12845 2d01 582C0000 		.4byte	0x2c58
 12846 2d05 0C       		.uleb128 0xc
 12847 2d06 14       		.byte	0x14
 12848 2d07 33       		.byte	0x33
 12849 2d08 F1       		.byte	0xf1
 12850 2d09 592D0000 		.4byte	0x2d59
 12851 2d0d 0D       		.uleb128 0xd
 12852 2d0e 48020000 		.4byte	.LASF612
 12853 2d12 33       		.byte	0x33
 12854 2d13 F6       		.byte	0xf6
 12855 2d14 592D0000 		.4byte	0x2d59
 12856 2d18 00       		.byte	0
 12857 2d19 0D       		.uleb128 0xd
 12858 2d1a 1C020000 		.4byte	.LASF613
 12859 2d1e 33       		.byte	0x33
 12860 2d1f FB       		.byte	0xfb
 12861 2d20 68010000 		.4byte	0x168
 12862 2d24 04       		.byte	0x4
 12863 2d25 0D       		.uleb128 0xd
 12864 2d26 17110000 		.4byte	.LASF614
 12865 2d2a 33       		.byte	0x33
 12866 2d2b FF       		.byte	0xff
 12867 2d2c 2C000000 		.4byte	0x2c
 12868 2d30 08       		.byte	0x8
 12869 2d31 18       		.uleb128 0x18
 12870 2d32 FC0C0000 		.4byte	.LASF478
 12871 2d36 33       		.byte	0x33
 12872 2d37 0301     		.2byte	0x103
 12873 2d39 D92C0000 		.4byte	0x2cd9
 12874 2d3d 0C       		.byte	0xc
 12875 2d3e 18       		.uleb128 0x18
 12876 2d3f 4E210000 		.4byte	.LASF615
 12877 2d43 33       		.byte	0x33
 12878 2d44 0F01     		.2byte	0x10f
 12879 2d46 83090000 		.4byte	0x983
 12880 2d4a 10       		.byte	0x10
 12881 2d4b 18       		.uleb128 0x18
 12882 2d4c 68080000 		.4byte	.LASF616
 12883 2d50 33       		.byte	0x33
 12884 2d51 1501     		.2byte	0x115
 12885 2d53 83090000 		.4byte	0x983
 12886 2d57 12       		.byte	0x12
 12887 2d58 00       		.byte	0
 12888 2d59 05       		.uleb128 0x5
 12889 2d5a 04       		.byte	0x4
 12890 2d5b 5F2D0000 		.4byte	0x2d5f
ARM GAS  C:\Users\PCHAUT~1\AppData\Local\Temp\ccLw8kky.s 			page 240


 12891 2d5f 2E       		.uleb128 0x2e
 12892 2d60 07       		.uleb128 0x7
 12893 2d61 64310000 		.4byte	.LASF617
 12894 2d65 33       		.byte	0x33
 12895 2d66 1601     		.2byte	0x116
 12896 2d68 052D0000 		.4byte	0x2d05
 12897 2d6c 0F       		.uleb128 0xf
 12898 2d6d 602D0000 		.4byte	0x2d60
 12899 2d71 05       		.uleb128 0x5
 12900 2d72 04       		.byte	0x4
 12901 2d73 6C2D0000 		.4byte	0x2d6c
 12902 2d77 05       		.uleb128 0x5
 12903 2d78 04       		.byte	0x4
 12904 2d79 95150000 		.4byte	0x1595
 12905 2d7d 20       		.uleb128 0x20
 12906 2d7e CF310000 		.4byte	.LASF618
 12907 2d82 33       		.byte	0x33
 12908 2d83 4801     		.2byte	0x148
 12909 2d85 582C0000 		.4byte	0x2c58
 12910 2d89 2B       		.uleb128 0x2b
 12911 2d8a 07       		.byte	0x7
 12912 2d8b 01       		.byte	0x1
 12913 2d8c 69000000 		.4byte	0x69
 12914 2d90 34       		.byte	0x34
 12915 2d91 4A       		.byte	0x4a
 12916 2d92 A92D0000 		.4byte	0x2da9
 12917 2d96 23       		.uleb128 0x23
 12918 2d97 1F090000 		.4byte	.LASF619
 12919 2d9b 00       		.byte	0
 12920 2d9c 23       		.uleb128 0x23
 12921 2d9d F9100000 		.4byte	.LASF620
 12922 2da1 01       		.byte	0x1
 12923 2da2 23       		.uleb128 0x23
 12924 2da3 23150000 		.4byte	.LASF621
 12925 2da7 02       		.byte	0x2
 12926 2da8 00       		.byte	0
 12927 2da9 03       		.uleb128 0x3
 12928 2daa 8A040000 		.4byte	.LASF622
 12929 2dae 34       		.byte	0x34
 12930 2daf 4E       		.byte	0x4e
 12931 2db0 892D0000 		.4byte	0x2d89
 12932 2db4 03       		.uleb128 0x3
 12933 2db5 10100000 		.4byte	.LASF623
 12934 2db9 34       		.byte	0x34
 12935 2dba 53       		.byte	0x53
 12936 2dbb BF2D0000 		.4byte	0x2dbf
 12937 2dbf 1B       		.uleb128 0x1b
 12938 2dc0 10100000 		.4byte	.LASF623
 12939 2dc4 1C       		.byte	0x1c
 12940 2dc5 35       		.byte	0x35
 12941 2dc6 7901     		.2byte	0x179
 12942 2dc8 282E0000 		.4byte	0x2e28
 12943 2dcc 18       		.uleb128 0x18
 12944 2dcd 831C0000 		.4byte	.LASF465
 12945 2dd1 35       		.byte	0x35
 12946 2dd2 7D01     		.2byte	0x17d
 12947 2dd4 A92D0000 		.4byte	0x2da9
ARM GAS  C:\Users\PCHAUT~1\AppData\Local\Temp\ccLw8kky.s 			page 241


 12948 2dd8 00       		.byte	0
 12949 2dd9 18       		.uleb128 0x18
 12950 2dda A2240000 		.4byte	.LASF466
 12951 2dde 35       		.byte	0x35
 12952 2ddf 8101     		.2byte	0x181
 12953 2de1 232F0000 		.4byte	0x2f23
 12954 2de5 04       		.byte	0x4
 12955 2de6 18       		.uleb128 0x18
 12956 2de7 E7180000 		.4byte	.LASF624
 12957 2deb 35       		.byte	0x35
 12958 2dec 8501     		.2byte	0x185
 12959 2dee 6E2E0000 		.4byte	0x2e6e
 12960 2df2 08       		.byte	0x8
 12961 2df3 18       		.uleb128 0x18
 12962 2df4 EC210000 		.4byte	.LASF625
 12963 2df8 35       		.byte	0x35
 12964 2df9 8901     		.2byte	0x189
 12965 2dfb 622E0000 		.4byte	0x2e62
 12966 2dff 0C       		.byte	0xc
 12967 2e00 18       		.uleb128 0x18
 12968 2e01 5F2B0000 		.4byte	.LASF546
 12969 2e05 35       		.byte	0x35
 12970 2e06 8D01     		.2byte	0x18d
 12971 2e08 562E0000 		.4byte	0x2e56
 12972 2e0c 10       		.byte	0x10
 12973 2e0d 18       		.uleb128 0x18
 12974 2e0e 42110000 		.4byte	.LASF556
 12975 2e12 35       		.byte	0x35
 12976 2e13 9501     		.2byte	0x195
 12977 2e15 A9090000 		.4byte	0x9a9
 12978 2e19 14       		.byte	0x14
 12979 2e1a 25       		.uleb128 0x25
 12980 2e1b 74696D00 		.ascii	"tim\000"
 12981 2e1f 35       		.byte	0x35
 12982 2e20 9901     		.2byte	0x199
 12983 2e22 512A0000 		.4byte	0x2a51
 12984 2e26 18       		.byte	0x18
 12985 2e27 00       		.byte	0
 12986 2e28 03       		.uleb128 0x3
 12987 2e29 14160000 		.4byte	.LASF626
 12988 2e2d 34       		.byte	0x34
 12989 2e2e 5A       		.byte	0x5a
 12990 2e2f 332E0000 		.4byte	0x2e33
 12991 2e33 05       		.uleb128 0x5
 12992 2e34 04       		.byte	0x4
 12993 2e35 392E0000 		.4byte	0x2e39
 12994 2e39 1F       		.uleb128 0x1f
 12995 2e3a 442E0000 		.4byte	0x2e44
 12996 2e3e 16       		.uleb128 0x16
 12997 2e3f 442E0000 		.4byte	0x2e44
 12998 2e43 00       		.byte	0
 12999 2e44 05       		.uleb128 0x5
 13000 2e45 04       		.byte	0x4
 13001 2e46 B42D0000 		.4byte	0x2db4
 13002 2e4a 07       		.uleb128 0x7
 13003 2e4b 591B0000 		.4byte	.LASF627
 13004 2e4f 35       		.byte	0x35
ARM GAS  C:\Users\PCHAUT~1\AppData\Local\Temp\ccLw8kky.s 			page 242


 13005 2e50 2501     		.2byte	0x125
 13006 2e52 A9090000 		.4byte	0x9a9
 13007 2e56 07       		.uleb128 0x7
 13008 2e57 641E0000 		.4byte	.LASF628
 13009 2e5b 35       		.byte	0x35
 13010 2e5c 2A01     		.2byte	0x12a
 13011 2e5e 73090000 		.4byte	0x973
 13012 2e62 07       		.uleb128 0x7
 13013 2e63 051B0000 		.4byte	.LASF629
 13014 2e67 35       		.byte	0x35
 13015 2e68 2F01     		.2byte	0x12f
 13016 2e6a A9090000 		.4byte	0x9a9
 13017 2e6e 07       		.uleb128 0x7
 13018 2e6f 14120000 		.4byte	.LASF630
 13019 2e73 35       		.byte	0x35
 13020 2e74 3401     		.2byte	0x134
 13021 2e76 A9090000 		.4byte	0x9a9
 13022 2e7a 1C       		.uleb128 0x1c
 13023 2e7b 08       		.byte	0x8
 13024 2e7c 35       		.byte	0x35
 13025 2e7d 3901     		.2byte	0x139
 13026 2e7f 9E2E0000 		.4byte	0x2e9e
 13027 2e83 18       		.uleb128 0x18
 13028 2e84 AC0A0000 		.4byte	.LASF544
 13029 2e88 35       		.byte	0x35
 13030 2e89 3D01     		.2byte	0x13d
 13031 2e8b 4A2E0000 		.4byte	0x2e4a
 13032 2e8f 00       		.byte	0
 13033 2e90 18       		.uleb128 0x18
 13034 2e91 F01C0000 		.4byte	.LASF570
 13035 2e95 35       		.byte	0x35
 13036 2e96 4301     		.2byte	0x143
 13037 2e98 282E0000 		.4byte	0x2e28
 13038 2e9c 04       		.byte	0x4
 13039 2e9d 00       		.byte	0
 13040 2e9e 07       		.uleb128 0x7
 13041 2e9f 03120000 		.4byte	.LASF631
 13042 2ea3 35       		.byte	0x35
 13043 2ea4 4501     		.2byte	0x145
 13044 2ea6 7A2E0000 		.4byte	0x2e7a
 13045 2eaa 1C       		.uleb128 0x1c
 13046 2eab 34       		.byte	0x34
 13047 2eac 35       		.byte	0x35
 13048 2ead 4A01     		.2byte	0x14a
 13049 2eaf 022F0000 		.4byte	0x2f02
 13050 2eb3 18       		.uleb128 0x18
 13051 2eb4 782F0000 		.4byte	.LASF569
 13052 2eb8 35       		.byte	0x35
 13053 2eb9 5001     		.2byte	0x150
 13054 2ebb A9090000 		.4byte	0x9a9
 13055 2ebf 00       		.byte	0
 13056 2ec0 18       		.uleb128 0x18
 13057 2ec1 E7180000 		.4byte	.LASF624
 13058 2ec5 35       		.byte	0x35
 13059 2ec6 5601     		.2byte	0x156
 13060 2ec8 6E2E0000 		.4byte	0x2e6e
 13061 2ecc 04       		.byte	0x4
ARM GAS  C:\Users\PCHAUT~1\AppData\Local\Temp\ccLw8kky.s 			page 243


 13062 2ecd 18       		.uleb128 0x18
 13063 2ece F01C0000 		.4byte	.LASF570
 13064 2ed2 35       		.byte	0x35
 13065 2ed3 5C01     		.2byte	0x15c
 13066 2ed5 282E0000 		.4byte	0x2e28
 13067 2ed9 08       		.byte	0x8
 13068 2eda 18       		.uleb128 0x18
 13069 2edb 5F2B0000 		.4byte	.LASF546
 13070 2edf 35       		.byte	0x35
 13071 2ee0 6001     		.2byte	0x160
 13072 2ee2 022F0000 		.4byte	0x2f02
 13073 2ee6 0C       		.byte	0xc
 13074 2ee7 25       		.uleb128 0x25
 13075 2ee8 63723200 		.ascii	"cr2\000"
 13076 2eec 35       		.byte	0x35
 13077 2eed 6601     		.2byte	0x166
 13078 2eef A9090000 		.4byte	0x9a9
 13079 2ef3 2C       		.byte	0x2c
 13080 2ef4 18       		.uleb128 0x18
 13081 2ef5 AF100000 		.4byte	.LASF571
 13082 2ef9 35       		.byte	0x35
 13083 2efa 7301     		.2byte	0x173
 13084 2efc A9090000 		.4byte	0x9a9
 13085 2f00 30       		.byte	0x30
 13086 2f01 00       		.byte	0
 13087 2f02 0A       		.uleb128 0xa
 13088 2f03 9E2E0000 		.4byte	0x2e9e
 13089 2f07 122F0000 		.4byte	0x2f12
 13090 2f0b 0B       		.uleb128 0xb
 13091 2f0c 37000000 		.4byte	0x37
 13092 2f10 03       		.byte	0x3
 13093 2f11 00       		.byte	0
 13094 2f12 07       		.uleb128 0x7
 13095 2f13 21100000 		.4byte	.LASF632
 13096 2f17 35       		.byte	0x35
 13097 2f18 7401     		.2byte	0x174
 13098 2f1a AA2E0000 		.4byte	0x2eaa
 13099 2f1e 0F       		.uleb128 0xf
 13100 2f1f 122F0000 		.4byte	0x2f12
 13101 2f23 05       		.uleb128 0x5
 13102 2f24 04       		.byte	0x4
 13103 2f25 1E2F0000 		.4byte	0x2f1e
 13104 2f29 20       		.uleb128 0x20
 13105 2f2a 4C170000 		.4byte	.LASF633
 13106 2f2e 35       		.byte	0x35
 13107 2f2f BC01     		.2byte	0x1bc
 13108 2f31 B42D0000 		.4byte	0x2db4
 13109 2f35 20       		.uleb128 0x20
 13110 2f36 52170000 		.4byte	.LASF634
 13111 2f3a 35       		.byte	0x35
 13112 2f3b C001     		.2byte	0x1c0
 13113 2f3d B42D0000 		.4byte	0x2db4
 13114 2f41 20       		.uleb128 0x20
 13115 2f42 58170000 		.4byte	.LASF635
 13116 2f46 35       		.byte	0x35
 13117 2f47 C401     		.2byte	0x1c4
 13118 2f49 B42D0000 		.4byte	0x2db4
ARM GAS  C:\Users\PCHAUT~1\AppData\Local\Temp\ccLw8kky.s 			page 244


 13119 2f4d 20       		.uleb128 0x20
 13120 2f4e 5E170000 		.4byte	.LASF636
 13121 2f52 35       		.byte	0x35
 13122 2f53 C801     		.2byte	0x1c8
 13123 2f55 B42D0000 		.4byte	0x2db4
 13124 2f59 2B       		.uleb128 0x2b
 13125 2f5a 07       		.byte	0x7
 13126 2f5b 01       		.byte	0x1
 13127 2f5c 69000000 		.4byte	0x69
 13128 2f60 36       		.byte	0x36
 13129 2f61 55       		.byte	0x55
 13130 2f62 792F0000 		.4byte	0x2f79
 13131 2f66 23       		.uleb128 0x23
 13132 2f67 21080000 		.4byte	.LASF637
 13133 2f6b 00       		.byte	0
 13134 2f6c 23       		.uleb128 0x23
 13135 2f6d 80110000 		.4byte	.LASF638
 13136 2f71 01       		.byte	0x1
 13137 2f72 23       		.uleb128 0x23
 13138 2f73 81140000 		.4byte	.LASF639
 13139 2f77 02       		.byte	0x2
 13140 2f78 00       		.byte	0
 13141 2f79 03       		.uleb128 0x3
 13142 2f7a DE1F0000 		.4byte	.LASF640
 13143 2f7e 36       		.byte	0x36
 13144 2f7f 59       		.byte	0x59
 13145 2f80 592F0000 		.4byte	0x2f59
 13146 2f84 03       		.uleb128 0x3
 13147 2f85 952B0000 		.4byte	.LASF641
 13148 2f89 36       		.byte	0x36
 13149 2f8a 5E       		.byte	0x5e
 13150 2f8b 8F2F0000 		.4byte	0x2f8f
 13151 2f8f 10       		.uleb128 0x10
 13152 2f90 952B0000 		.4byte	.LASF641
 13153 2f94 78       		.byte	0x78
 13154 2f95 36       		.byte	0x36
 13155 2f96 78       		.byte	0x78
 13156 2f97 FA2F0000 		.4byte	0x2ffa
 13157 2f9b 11       		.uleb128 0x11
 13158 2f9c 766D7400 		.ascii	"vmt\000"
 13159 2fa0 36       		.byte	0x36
 13160 2fa1 7A       		.byte	0x7a
 13161 2fa2 78300000 		.4byte	0x3078
 13162 2fa6 00       		.byte	0
 13163 2fa7 0D       		.uleb128 0xd
 13164 2fa8 64000000 		.4byte	.LASF642
 13165 2fac 36       		.byte	0x36
 13166 2fad 7B       		.byte	0x7b
 13167 2fae 681B0000 		.4byte	0x1b68
 13168 2fb2 04       		.byte	0x4
 13169 2fb3 0D       		.uleb128 0xd
 13170 2fb4 831C0000 		.4byte	.LASF465
 13171 2fb8 36       		.byte	0x36
 13172 2fb9 7B       		.byte	0x7b
 13173 2fba 792F0000 		.4byte	0x2f79
 13174 2fbe 08       		.byte	0x8
 13175 2fbf 0D       		.uleb128 0xd
ARM GAS  C:\Users\PCHAUT~1\AppData\Local\Temp\ccLw8kky.s 			page 245


 13176 2fc0 B11F0000 		.4byte	.LASF643
 13177 2fc4 36       		.byte	0x36
 13178 2fc5 7B       		.byte	0x7b
 13179 2fc6 131C0000 		.4byte	0x1c13
 13180 2fca 0C       		.byte	0xc
 13181 2fcb 0D       		.uleb128 0xd
 13182 2fcc 9B170000 		.4byte	.LASF644
 13183 2fd0 36       		.byte	0x36
 13184 2fd1 7B       		.byte	0x7b
 13185 2fd2 1E1C0000 		.4byte	0x1c1e
 13186 2fd6 30       		.byte	0x30
 13187 2fd7 11       		.uleb128 0x11
 13188 2fd8 696200   		.ascii	"ib\000"
 13189 2fdb 36       		.byte	0x36
 13190 2fdc 7B       		.byte	0x7b
 13191 2fdd 7E300000 		.4byte	0x307e
 13192 2fe1 54       		.byte	0x54
 13193 2fe2 11       		.uleb128 0x11
 13194 2fe3 6F6200   		.ascii	"ob\000"
 13195 2fe6 36       		.byte	0x36
 13196 2fe7 7B       		.byte	0x7b
 13197 2fe8 7E300000 		.4byte	0x307e
 13198 2fec 64       		.byte	0x64
 13199 2fed 0D       		.uleb128 0xd
 13200 2fee 14220000 		.4byte	.LASF645
 13201 2ff2 36       		.byte	0x36
 13202 2ff3 7B       		.byte	0x7b
 13203 2ff4 8E300000 		.4byte	0x308e
 13204 2ff8 74       		.byte	0x74
 13205 2ff9 00       		.byte	0
 13206 2ffa 2A       		.uleb128 0x2a
 13207 2ffb 53443300 		.ascii	"SD3\000"
 13208 2fff 37       		.byte	0x37
 13209 3000 1501     		.2byte	0x115
 13210 3002 842F0000 		.4byte	0x2f84
 13211 3006 10       		.uleb128 0x10
 13212 3007 B2130000 		.4byte	.LASF646
 13213 300b 20       		.byte	0x20
 13214 300c 36       		.byte	0x36
 13215 300d 6D       		.byte	0x6d
 13216 300e 73300000 		.4byte	0x3073
 13217 3012 0D       		.uleb128 0xd
 13218 3013 A01F0000 		.4byte	.LASF399
 13219 3017 36       		.byte	0x36
 13220 3018 6E       		.byte	0x6e
 13221 3019 8A1C0000 		.4byte	0x1c8a
 13222 301d 00       		.byte	0
 13223 301e 0D       		.uleb128 0xd
 13224 301f 09060000 		.4byte	.LASF400
 13225 3023 36       		.byte	0x36
 13226 3024 6E       		.byte	0x6e
 13227 3025 A91C0000 		.4byte	0x1ca9
 13228 3029 04       		.byte	0x4
 13229 302a 11       		.uleb128 0x11
 13230 302b 70757400 		.ascii	"put\000"
 13231 302f 36       		.byte	0x36
 13232 3030 6E       		.byte	0x6e
ARM GAS  C:\Users\PCHAUT~1\AppData\Local\Temp\ccLw8kky.s 			page 246


 13233 3031 C31C0000 		.4byte	0x1cc3
 13234 3035 08       		.byte	0x8
 13235 3036 11       		.uleb128 0x11
 13236 3037 67657400 		.ascii	"get\000"
 13237 303b 36       		.byte	0x36
 13238 303c 6E       		.byte	0x6e
 13239 303d D81C0000 		.4byte	0x1cd8
 13240 3041 0C       		.byte	0xc
 13241 3042 0D       		.uleb128 0xd
 13242 3043 221A0000 		.4byte	.LASF647
 13243 3047 36       		.byte	0x36
 13244 3048 6E       		.byte	0x6e
 13245 3049 9F1D0000 		.4byte	0x1d9f
 13246 304d 10       		.byte	0x10
 13247 304e 0D       		.uleb128 0xd
 13248 304f 861F0000 		.4byte	.LASF648
 13249 3053 36       		.byte	0x36
 13250 3054 6E       		.byte	0x6e
 13251 3055 B91D0000 		.4byte	0x1db9
 13252 3059 14       		.byte	0x14
 13253 305a 0D       		.uleb128 0xd
 13254 305b BE2C0000 		.4byte	.LASF649
 13255 305f 36       		.byte	0x36
 13256 3060 6E       		.byte	0x6e
 13257 3061 DD1D0000 		.4byte	0x1ddd
 13258 3065 18       		.byte	0x18
 13259 3066 0D       		.uleb128 0xd
 13260 3067 49190000 		.4byte	.LASF650
 13261 306b 36       		.byte	0x36
 13262 306c 6E       		.byte	0x6e
 13263 306d 011E0000 		.4byte	0x1e01
 13264 3071 1C       		.byte	0x1c
 13265 3072 00       		.byte	0
 13266 3073 0F       		.uleb128 0xf
 13267 3074 06300000 		.4byte	0x3006
 13268 3078 05       		.uleb128 0x5
 13269 3079 04       		.byte	0x4
 13270 307a 73300000 		.4byte	0x3073
 13271 307e 0A       		.uleb128 0xa
 13272 307f 73090000 		.4byte	0x973
 13273 3083 8E300000 		.4byte	0x308e
 13274 3087 0B       		.uleb128 0xb
 13275 3088 37000000 		.4byte	0x37
 13276 308c 0F       		.byte	0xf
 13277 308d 00       		.byte	0
 13278 308e 05       		.uleb128 0x5
 13279 308f 04       		.byte	0x4
 13280 3090 04160000 		.4byte	0x1604
 13281 3094 2B       		.uleb128 0x2b
 13282 3095 07       		.byte	0x7
 13283 3096 01       		.byte	0x1
 13284 3097 69000000 		.4byte	0x69
 13285 309b 38       		.byte	0x38
 13286 309c 6C       		.byte	0x6c
 13287 309d B4300000 		.4byte	0x30b4
 13288 30a1 23       		.uleb128 0x23
 13289 30a2 54040000 		.4byte	.LASF651
ARM GAS  C:\Users\PCHAUT~1\AppData\Local\Temp\ccLw8kky.s 			page 247


 13290 30a6 00       		.byte	0
 13291 30a7 23       		.uleb128 0x23
 13292 30a8 7A1B0000 		.4byte	.LASF652
 13293 30ac 01       		.byte	0x1
 13294 30ad 23       		.uleb128 0x23
 13295 30ae B5180000 		.4byte	.LASF653
 13296 30b2 02       		.byte	0x2
 13297 30b3 00       		.byte	0
 13298 30b4 03       		.uleb128 0x3
 13299 30b5 35230000 		.4byte	.LASF654
 13300 30b9 38       		.byte	0x38
 13301 30ba 70       		.byte	0x70
 13302 30bb 94300000 		.4byte	0x3094
 13303 30bf 03       		.uleb128 0x3
 13304 30c0 27220000 		.4byte	.LASF655
 13305 30c4 39       		.byte	0x39
 13306 30c5 BF       		.byte	0xbf
 13307 30c6 A9090000 		.4byte	0x9a9
 13308 30ca 03       		.uleb128 0x3
 13309 30cb 30010000 		.4byte	.LASF656
 13310 30cf 39       		.byte	0x39
 13311 30d0 C4       		.byte	0xc4
 13312 30d1 A9090000 		.4byte	0x9a9
 13313 30d5 03       		.uleb128 0x3
 13314 30d6 6E2B0000 		.4byte	.LASF657
 13315 30da 39       		.byte	0x39
 13316 30db C9       		.byte	0xc9
 13317 30dc E0300000 		.4byte	0x30e0
 13318 30e0 10       		.uleb128 0x10
 13319 30e1 6E2B0000 		.4byte	.LASF657
 13320 30e5 4C       		.byte	0x4c
 13321 30e6 39       		.byte	0x39
 13322 30e7 F2       		.byte	0xf2
 13323 30e8 8F310000 		.4byte	0x318f
 13324 30ec 11       		.uleb128 0x11
 13325 30ed 766D7400 		.ascii	"vmt\000"
 13326 30f1 39       		.byte	0x39
 13327 30f2 F6       		.byte	0xf6
 13328 30f3 32320000 		.4byte	0x3232
 13329 30f7 00       		.byte	0
 13330 30f8 0D       		.uleb128 0xd
 13331 30f9 831C0000 		.4byte	.LASF465
 13332 30fd 39       		.byte	0x39
 13333 30fe F7       		.byte	0xf7
 13334 30ff 4B1E0000 		.4byte	0x1e4b
 13335 3103 04       		.byte	0x4
 13336 3104 11       		.uleb128 0x11
 13337 3105 63696400 		.ascii	"cid\000"
 13338 3109 39       		.byte	0x39
 13339 310a F7       		.byte	0xf7
 13340 310b 061F0000 		.4byte	0x1f06
 13341 310f 08       		.byte	0x8
 13342 3110 11       		.uleb128 0x11
 13343 3111 63736400 		.ascii	"csd\000"
 13344 3115 39       		.byte	0x39
 13345 3116 F7       		.byte	0xf7
 13346 3117 061F0000 		.4byte	0x1f06
ARM GAS  C:\Users\PCHAUT~1\AppData\Local\Temp\ccLw8kky.s 			page 248


 13347 311b 18       		.byte	0x18
 13348 311c 0D       		.uleb128 0xd
 13349 311d AD250000 		.4byte	.LASF658
 13350 3121 39       		.byte	0x39
 13351 3122 F7       		.byte	0xf7
 13352 3123 A9090000 		.4byte	0x9a9
 13353 3127 28       		.byte	0x28
 13354 3128 0D       		.uleb128 0xd
 13355 3129 A2240000 		.4byte	.LASF466
 13356 312d 39       		.byte	0x39
 13357 312e FB       		.byte	0xfb
 13358 312f 38320000 		.4byte	0x3238
 13359 3133 2C       		.byte	0x2c
 13360 3134 0D       		.uleb128 0xd
 13361 3135 A1050000 		.4byte	.LASF659
 13362 3139 39       		.byte	0x39
 13363 313a FF       		.byte	0xff
 13364 313b BF300000 		.4byte	0x30bf
 13365 313f 30       		.byte	0x30
 13366 3140 18       		.uleb128 0x18
 13367 3141 26020000 		.4byte	.LASF597
 13368 3145 39       		.byte	0x39
 13369 3146 0301     		.2byte	0x103
 13370 3148 CA300000 		.4byte	0x30ca
 13371 314c 34       		.byte	0x34
 13372 314d 25       		.uleb128 0x25
 13373 314e 72636100 		.ascii	"rca\000"
 13374 3152 39       		.byte	0x39
 13375 3153 0701     		.2byte	0x107
 13376 3155 A9090000 		.4byte	0x9a9
 13377 3159 38       		.byte	0x38
 13378 315a 18       		.uleb128 0x18
 13379 315b C4080000 		.4byte	.LASF470
 13380 315f 39       		.byte	0x39
 13381 3160 0C01     		.2byte	0x10c
 13382 3162 860B0000 		.4byte	0xb86
 13383 3166 3C       		.byte	0x3c
 13384 3167 18       		.uleb128 0x18
 13385 3168 621F0000 		.4byte	.LASF473
 13386 316c 39       		.byte	0x39
 13387 316d 1001     		.2byte	0x110
 13388 316f A9090000 		.4byte	0x9a9
 13389 3173 40       		.byte	0x40
 13390 3174 25       		.uleb128 0x25
 13391 3175 646D6100 		.ascii	"dma\000"
 13392 3179 39       		.byte	0x39
 13393 317a 1401     		.2byte	0x114
 13394 317c 4B230000 		.4byte	0x234b
 13395 3180 44       		.byte	0x44
 13396 3181 18       		.uleb128 0x18
 13397 3182 A91C0000 		.4byte	.LASF660
 13398 3186 39       		.byte	0x39
 13399 3187 1901     		.2byte	0x119
 13400 3189 3E320000 		.4byte	0x323e
 13401 318d 48       		.byte	0x48
 13402 318e 00       		.byte	0
 13403 318f 0C       		.uleb128 0xc
ARM GAS  C:\Users\PCHAUT~1\AppData\Local\Temp\ccLw8kky.s 			page 249


 13404 3190 08       		.byte	0x8
 13405 3191 39       		.byte	0x39
 13406 3192 CF       		.byte	0xcf
 13407 3193 B0310000 		.4byte	0x31b0
 13408 3197 0D       		.uleb128 0xd
 13409 3198 73120000 		.4byte	.LASF661
 13410 319c 39       		.byte	0x39
 13411 319d D8       		.byte	0xd8
 13412 319e 0D1C0000 		.4byte	0x1c0d
 13413 31a2 00       		.byte	0
 13414 31a3 0D       		.uleb128 0xd
 13415 31a4 022E0000 		.4byte	.LASF662
 13416 31a8 39       		.byte	0x39
 13417 31a9 DC       		.byte	0xdc
 13418 31aa B4300000 		.4byte	0x30b4
 13419 31ae 04       		.byte	0x4
 13420 31af 00       		.byte	0
 13421 31b0 03       		.uleb128 0x3
 13422 31b1 E2210000 		.4byte	.LASF663
 13423 31b5 39       		.byte	0x39
 13424 31b6 DE       		.byte	0xde
 13425 31b7 8F310000 		.4byte	0x318f
 13426 31bb 0F       		.uleb128 0xf
 13427 31bc B0310000 		.4byte	0x31b0
 13428 31c0 10       		.uleb128 0x10
 13429 31c1 182E0000 		.4byte	.LASF664
 13430 31c5 20       		.byte	0x20
 13431 31c6 39       		.byte	0x39
 13432 31c7 EB       		.byte	0xeb
 13433 31c8 2D320000 		.4byte	0x322d
 13434 31cc 0D       		.uleb128 0xd
 13435 31cd D5310000 		.4byte	.LASF665
 13436 31d1 39       		.byte	0x39
 13437 31d2 EC       		.byte	0xec
 13438 31d3 981E0000 		.4byte	0x1e98
 13439 31d7 00       		.byte	0
 13440 31d8 0D       		.uleb128 0xd
 13441 31d9 B4100000 		.4byte	.LASF666
 13442 31dd 39       		.byte	0x39
 13443 31de EC       		.byte	0xec
 13444 31df 981E0000 		.4byte	0x1e98
 13445 31e3 04       		.byte	0x4
 13446 31e4 0D       		.uleb128 0xd
 13447 31e5 1F140000 		.4byte	.LASF667
 13448 31e9 39       		.byte	0x39
 13449 31ea EC       		.byte	0xec
 13450 31eb 981E0000 		.4byte	0x1e98
 13451 31ef 08       		.byte	0x8
 13452 31f0 0D       		.uleb128 0xd
 13453 31f1 101A0000 		.4byte	.LASF668
 13454 31f5 39       		.byte	0x39
 13455 31f6 EC       		.byte	0xec
 13456 31f7 981E0000 		.4byte	0x1e98
 13457 31fb 0C       		.byte	0xc
 13458 31fc 0D       		.uleb128 0xd
 13459 31fd 09060000 		.4byte	.LASF400
 13460 3201 39       		.byte	0x39
ARM GAS  C:\Users\PCHAUT~1\AppData\Local\Temp\ccLw8kky.s 			page 250


 13461 3202 EC       		.byte	0xec
 13462 3203 BC1E0000 		.4byte	0x1ebc
 13463 3207 10       		.byte	0x10
 13464 3208 0D       		.uleb128 0xd
 13465 3209 A01F0000 		.4byte	.LASF399
 13466 320d 39       		.byte	0x39
 13467 320e EC       		.byte	0xec
 13468 320f E01E0000 		.4byte	0x1ee0
 13469 3213 14       		.byte	0x14
 13470 3214 0D       		.uleb128 0xd
 13471 3215 0F220000 		.4byte	.LASF669
 13472 3219 39       		.byte	0x39
 13473 321a EC       		.byte	0xec
 13474 321b 981E0000 		.4byte	0x1e98
 13475 321f 18       		.byte	0x18
 13476 3220 0D       		.uleb128 0xd
 13477 3221 732D0000 		.4byte	.LASF670
 13478 3225 39       		.byte	0x39
 13479 3226 EC       		.byte	0xec
 13480 3227 001F0000 		.4byte	0x1f00
 13481 322b 1C       		.byte	0x1c
 13482 322c 00       		.byte	0
 13483 322d 0F       		.uleb128 0xf
 13484 322e C0310000 		.4byte	0x31c0
 13485 3232 05       		.uleb128 0x5
 13486 3233 04       		.byte	0x4
 13487 3234 2D320000 		.4byte	0x322d
 13488 3238 05       		.uleb128 0x5
 13489 3239 04       		.byte	0x4
 13490 323a BB310000 		.4byte	0x31bb
 13491 323e 05       		.uleb128 0x5
 13492 323f 04       		.byte	0x4
 13493 3240 0C150000 		.4byte	0x150c
 13494 3244 20       		.uleb128 0x20
 13495 3245 190E0000 		.4byte	.LASF671
 13496 3249 39       		.byte	0x39
 13497 324a 2501     		.2byte	0x125
 13498 324c D5300000 		.4byte	0x30d5
 13499 3250 2B       		.uleb128 0x2b
 13500 3251 07       		.byte	0x7
 13501 3252 01       		.byte	0x1
 13502 3253 69000000 		.4byte	0x69
 13503 3257 3A       		.byte	0x3a
 13504 3258 46       		.byte	0x46
 13505 3259 7C320000 		.4byte	0x327c
 13506 325d 23       		.uleb128 0x23
 13507 325e DA080000 		.4byte	.LASF672
 13508 3262 00       		.byte	0
 13509 3263 23       		.uleb128 0x23
 13510 3264 EB030000 		.4byte	.LASF673
 13511 3268 01       		.byte	0x1
 13512 3269 23       		.uleb128 0x23
 13513 326a B72D0000 		.4byte	.LASF674
 13514 326e 02       		.byte	0x2
 13515 326f 23       		.uleb128 0x23
 13516 3270 1C130000 		.4byte	.LASF675
 13517 3274 03       		.byte	0x3
ARM GAS  C:\Users\PCHAUT~1\AppData\Local\Temp\ccLw8kky.s 			page 251


 13518 3275 23       		.uleb128 0x23
 13519 3276 8C190000 		.4byte	.LASF676
 13520 327a 04       		.byte	0x4
 13521 327b 00       		.byte	0
 13522 327c 03       		.uleb128 0x3
 13523 327d BB120000 		.4byte	.LASF677
 13524 3281 3A       		.byte	0x3a
 13525 3282 4C       		.byte	0x4c
 13526 3283 50320000 		.4byte	0x3250
 13527 3287 07       		.uleb128 0x7
 13528 3288 5A2C0000 		.4byte	.LASF678
 13529 328c 3B       		.byte	0x3b
 13530 328d 9601     		.2byte	0x196
 13531 328f 93320000 		.4byte	0x3293
 13532 3293 1B       		.uleb128 0x1b
 13533 3294 5A2C0000 		.4byte	.LASF678
 13534 3298 34       		.byte	0x34
 13535 3299 3B       		.byte	0x3b
 13536 329a BA01     		.2byte	0x1ba
 13537 329c 16330000 		.4byte	0x3316
 13538 32a0 18       		.uleb128 0x18
 13539 32a1 831C0000 		.4byte	.LASF465
 13540 32a5 3B       		.byte	0x3b
 13541 32a6 BE01     		.2byte	0x1be
 13542 32a8 7C320000 		.4byte	0x327c
 13543 32ac 00       		.byte	0
 13544 32ad 18       		.uleb128 0x18
 13545 32ae A2240000 		.4byte	.LASF466
 13546 32b2 3B       		.byte	0x3b
 13547 32b3 C201     		.2byte	0x1c2
 13548 32b5 88330000 		.4byte	0x3388
 13549 32b9 04       		.byte	0x4
 13550 32ba 18       		.uleb128 0x18
 13551 32bb C4080000 		.4byte	.LASF470
 13552 32bf 3B       		.byte	0x3b
 13553 32c0 C701     		.2byte	0x1c7
 13554 32c2 860B0000 		.4byte	0xb86
 13555 32c6 08       		.byte	0x8
 13556 32c7 18       		.uleb128 0x18
 13557 32c8 11110000 		.4byte	.LASF471
 13558 32cc 3B       		.byte	0x3b
 13559 32cd CD01     		.2byte	0x1cd
 13560 32cf E41A0000 		.4byte	0x1ae4
 13561 32d3 0C       		.byte	0xc
 13562 32d4 25       		.uleb128 0x25
 13563 32d5 73706900 		.ascii	"spi\000"
 13564 32d9 3B       		.byte	0x3b
 13565 32da D601     		.2byte	0x1d6
 13566 32dc 772D0000 		.4byte	0x2d77
 13567 32e0 20       		.byte	0x20
 13568 32e1 18       		.uleb128 0x18
 13569 32e2 AD010000 		.4byte	.LASF601
 13570 32e6 3B       		.byte	0x3b
 13571 32e7 DA01     		.2byte	0x1da
 13572 32e9 4B230000 		.4byte	0x234b
 13573 32ed 24       		.byte	0x24
 13574 32ee 18       		.uleb128 0x18
ARM GAS  C:\Users\PCHAUT~1\AppData\Local\Temp\ccLw8kky.s 			page 252


 13575 32ef D9020000 		.4byte	.LASF602
 13576 32f3 3B       		.byte	0x3b
 13577 32f4 DE01     		.2byte	0x1de
 13578 32f6 4B230000 		.4byte	0x234b
 13579 32fa 28       		.byte	0x28
 13580 32fb 18       		.uleb128 0x18
 13581 32fc 980A0000 		.4byte	.LASF599
 13582 3300 3B       		.byte	0x3b
 13583 3301 E201     		.2byte	0x1e2
 13584 3303 A9090000 		.4byte	0x9a9
 13585 3307 2C       		.byte	0x2c
 13586 3308 18       		.uleb128 0x18
 13587 3309 020B0000 		.4byte	.LASF600
 13588 330d 3B       		.byte	0x3b
 13589 330e E601     		.2byte	0x1e6
 13590 3310 A9090000 		.4byte	0x9a9
 13591 3314 30       		.byte	0x30
 13592 3315 00       		.byte	0
 13593 3316 07       		.uleb128 0x7
 13594 3317 A71B0000 		.4byte	.LASF679
 13595 331b 3B       		.byte	0x3b
 13596 331c 9E01     		.2byte	0x19e
 13597 331e 22330000 		.4byte	0x3322
 13598 3322 05       		.uleb128 0x5
 13599 3323 04       		.byte	0x4
 13600 3324 28330000 		.4byte	0x3328
 13601 3328 1F       		.uleb128 0x1f
 13602 3329 33330000 		.4byte	0x3333
 13603 332d 16       		.uleb128 0x16
 13604 332e 33330000 		.4byte	0x3333
 13605 3332 00       		.byte	0
 13606 3333 05       		.uleb128 0x5
 13607 3334 04       		.byte	0x4
 13608 3335 87320000 		.4byte	0x3287
 13609 3339 1C       		.uleb128 0x1c
 13610 333a 0C       		.byte	0xc
 13611 333b 3B       		.byte	0x3b
 13612 333c A301     		.2byte	0x1a3
 13613 333e 77330000 		.4byte	0x3377
 13614 3342 18       		.uleb128 0x18
 13615 3343 FC0C0000 		.4byte	.LASF478
 13616 3347 3B       		.byte	0x3b
 13617 3348 A701     		.2byte	0x1a7
 13618 334a 16330000 		.4byte	0x3316
 13619 334e 00       		.byte	0
 13620 334f 18       		.uleb128 0x18
 13621 3350 EF2E0000 		.4byte	.LASF680
 13622 3354 3B       		.byte	0x3b
 13623 3355 AC01     		.2byte	0x1ac
 13624 3357 DC200000 		.4byte	0x20dc
 13625 335b 04       		.byte	0x4
 13626 335c 18       		.uleb128 0x18
 13627 335d FC0A0000 		.4byte	.LASF681
 13628 3361 3B       		.byte	0x3b
 13629 3362 B001     		.2byte	0x1b0
 13630 3364 8E090000 		.4byte	0x98e
 13631 3368 08       		.byte	0x8
ARM GAS  C:\Users\PCHAUT~1\AppData\Local\Temp\ccLw8kky.s 			page 253


 13632 3369 25       		.uleb128 0x25
 13633 336a 63723100 		.ascii	"cr1\000"
 13634 336e 3B       		.byte	0x3b
 13635 336f B401     		.2byte	0x1b4
 13636 3371 8E090000 		.4byte	0x98e
 13637 3375 0A       		.byte	0xa
 13638 3376 00       		.byte	0
 13639 3377 07       		.uleb128 0x7
 13640 3378 092B0000 		.4byte	.LASF682
 13641 337c 3B       		.byte	0x3b
 13642 337d B501     		.2byte	0x1b5
 13643 337f 39330000 		.4byte	0x3339
 13644 3383 0F       		.uleb128 0xf
 13645 3384 77330000 		.4byte	0x3377
 13646 3388 05       		.uleb128 0x5
 13647 3389 04       		.byte	0x4
 13648 338a 83330000 		.4byte	0x3383
 13649 338e 20       		.uleb128 0x20
 13650 338f D6290000 		.4byte	.LASF683
 13651 3393 3B       		.byte	0x3b
 13652 3394 F201     		.2byte	0x1f2
 13653 3396 87320000 		.4byte	0x3287
 13654 339a 03       		.uleb128 0x3
 13655 339b 20170000 		.4byte	.LASF684
 13656 339f 3C       		.byte	0x3c
 13657 33a0 FA       		.byte	0xfa
 13658 33a1 A5330000 		.4byte	0x33a5
 13659 33a5 17       		.uleb128 0x17
 13660 33a6 20170000 		.4byte	.LASF684
 13661 33aa 6002     		.2byte	0x260
 13662 33ac 3D       		.byte	0x3d
 13663 33ad 7701     		.2byte	0x177
 13664 33af D1340000 		.4byte	0x34d1
 13665 33b3 18       		.uleb128 0x18
 13666 33b4 831C0000 		.4byte	.LASF465
 13667 33b8 3D       		.byte	0x3d
 13668 33b9 7B01     		.2byte	0x17b
 13669 33bb 09350000 		.4byte	0x3509
 13670 33bf 00       		.byte	0
 13671 33c0 18       		.uleb128 0x18
 13672 33c1 A2240000 		.4byte	.LASF466
 13673 33c5 3D       		.byte	0x3d
 13674 33c6 7F01     		.2byte	0x17f
 13675 33c8 2C3E0000 		.4byte	0x3e2c
 13676 33cc 04       		.byte	0x4
 13677 33cd 18       		.uleb128 0x18
 13678 33ce 522B0000 		.4byte	.LASF685
 13679 33d2 3D       		.byte	0x3d
 13680 33d3 8301     		.2byte	0x183
 13681 33d5 8E090000 		.4byte	0x98e
 13682 33d9 08       		.byte	0x8
 13683 33da 18       		.uleb128 0x18
 13684 33db 492F0000 		.4byte	.LASF686
 13685 33df 3D       		.byte	0x3d
 13686 33e0 8701     		.2byte	0x187
 13687 33e2 8E090000 		.4byte	0x98e
 13688 33e6 0A       		.byte	0xa
ARM GAS  C:\Users\PCHAUT~1\AppData\Local\Temp\ccLw8kky.s 			page 254


 13689 33e7 25       		.uleb128 0x25
 13690 33e8 65706300 		.ascii	"epc\000"
 13691 33ec 3D       		.byte	0x3d
 13692 33ed 8B01     		.2byte	0x18b
 13693 33ef 323E0000 		.4byte	0x3e32
 13694 33f3 0C       		.byte	0xc
 13695 33f4 18       		.uleb128 0x18
 13696 33f5 0A090000 		.4byte	.LASF687
 13697 33f9 3D       		.byte	0x3d
 13698 33fa 9201     		.2byte	0x192
 13699 33fc 483E0000 		.4byte	0x3e48
 13700 3400 1C       		.byte	0x1c
 13701 3401 18       		.uleb128 0x18
 13702 3402 7D100000 		.4byte	.LASF688
 13703 3406 3D       		.byte	0x3d
 13704 3407 9901     		.2byte	0x199
 13705 3409 483E0000 		.4byte	0x3e48
 13706 340d 28       		.byte	0x28
 13707 340e 18       		.uleb128 0x18
 13708 340f D0140000 		.4byte	.LASF689
 13709 3413 3D       		.byte	0x3d
 13710 3414 9D01     		.2byte	0x19d
 13711 3416 4E350000 		.4byte	0x354e
 13712 341a 34       		.byte	0x34
 13713 341b 18       		.uleb128 0x18
 13714 341c E5230000 		.4byte	.LASF690
 13715 3420 3D       		.byte	0x3d
 13716 3421 A101     		.2byte	0x1a1
 13717 3423 0D1C0000 		.4byte	0x1c0d
 13718 3427 38       		.byte	0x38
 13719 3428 18       		.uleb128 0x18
 13720 3429 B91E0000 		.4byte	.LASF691
 13721 342d 3D       		.byte	0x3d
 13722 342e A501     		.2byte	0x1a5
 13723 3430 2C000000 		.4byte	0x2c
 13724 3434 3C       		.byte	0x3c
 13725 3435 18       		.uleb128 0x18
 13726 3436 B6270000 		.4byte	.LASF692
 13727 343a 3D       		.byte	0x3d
 13728 343b A901     		.2byte	0x1a9
 13729 343d CE350000 		.4byte	0x35ce
 13730 3441 40       		.byte	0x40
 13731 3442 18       		.uleb128 0x18
 13732 3443 D4080000 		.4byte	.LASF693
 13733 3447 3D       		.byte	0x3d
 13734 3448 AD01     		.2byte	0x1ad
 13735 344a AC230000 		.4byte	0x23ac
 13736 344e 44       		.byte	0x44
 13737 344f 18       		.uleb128 0x18
 13738 3450 6E1B0000 		.4byte	.LASF694
 13739 3454 3D       		.byte	0x3d
 13740 3455 B101     		.2byte	0x1b1
 13741 3457 8E090000 		.4byte	0x98e
 13742 345b 4C       		.byte	0x4c
 13743 345c 18       		.uleb128 0x18
 13744 345d E71B0000 		.4byte	.LASF695
 13745 3461 3D       		.byte	0x3d
ARM GAS  C:\Users\PCHAUT~1\AppData\Local\Temp\ccLw8kky.s 			page 255


 13746 3462 B501     		.2byte	0x1b5
 13747 3464 73090000 		.4byte	0x973
 13748 3468 4E       		.byte	0x4e
 13749 3469 18       		.uleb128 0x18
 13750 346a BC220000 		.4byte	.LASF696
 13751 346e 3D       		.byte	0x3d
 13752 346f B901     		.2byte	0x1b9
 13753 3471 73090000 		.4byte	0x973
 13754 3475 4F       		.byte	0x4f
 13755 3476 25       		.uleb128 0x25
 13756 3477 6F746700 		.ascii	"otg\000"
 13757 347b 3D       		.byte	0x3d
 13758 347c C101     		.2byte	0x1c1
 13759 347e 583E0000 		.4byte	0x3e58
 13760 3482 50       		.byte	0x50
 13761 3483 18       		.uleb128 0x18
 13762 3484 5A120000 		.4byte	.LASF697
 13763 3488 3D       		.byte	0x3d
 13764 3489 C501     		.2byte	0x1c5
 13765 348b 5E3E0000 		.4byte	0x3e5e
 13766 348f 54       		.byte	0x54
 13767 3490 18       		.uleb128 0x18
 13768 3491 D5200000 		.4byte	.LASF698
 13769 3495 3D       		.byte	0x3d
 13770 3496 C901     		.2byte	0x1c9
 13771 3498 A9090000 		.4byte	0x9a9
 13772 349c 58       		.byte	0x58
 13773 349d 18       		.uleb128 0x18
 13774 349e 38110000 		.4byte	.LASF699
 13775 34a2 3D       		.byte	0x3d
 13776 34a3 CD01     		.2byte	0x1cd
 13777 34a5 A9090000 		.4byte	0x9a9
 13778 34a9 5C       		.byte	0x5c
 13779 34aa 18       		.uleb128 0x18
 13780 34ab 1D0A0000 		.4byte	.LASF700
 13781 34af 3D       		.byte	0x3d
 13782 34b0 D101     		.2byte	0x1d1
 13783 34b2 860B0000 		.4byte	0xb86
 13784 34b6 60       		.byte	0x60
 13785 34b7 25       		.uleb128 0x25
 13786 34b8 747200   		.ascii	"tr\000"
 13787 34bb 3D       		.byte	0x3d
 13788 34bc D601     		.2byte	0x1d6
 13789 34be 860B0000 		.4byte	0xb86
 13790 34c2 64       		.byte	0x64
 13791 34c3 18       		.uleb128 0x18
 13792 34c4 4F1A0000 		.4byte	.LASF701
 13793 34c8 3D       		.byte	0x3d
 13794 34c9 DA01     		.2byte	0x1da
 13795 34cb 643E0000 		.4byte	0x3e64
 13796 34cf 68       		.byte	0x68
 13797 34d0 00       		.byte	0
 13798 34d1 03       		.uleb128 0x3
 13799 34d2 990D0000 		.4byte	.LASF702
 13800 34d6 3C       		.byte	0x3c
 13801 34d7 FF       		.byte	0xff
 13802 34d8 73090000 		.4byte	0x973
ARM GAS  C:\Users\PCHAUT~1\AppData\Local\Temp\ccLw8kky.s 			page 256


 13803 34dc 2D       		.uleb128 0x2d
 13804 34dd 07       		.byte	0x7
 13805 34de 01       		.byte	0x1
 13806 34df 69000000 		.4byte	0x69
 13807 34e3 3C       		.byte	0x3c
 13808 34e4 0401     		.2byte	0x104
 13809 34e6 09350000 		.4byte	0x3509
 13810 34ea 23       		.uleb128 0x23
 13811 34eb A2300000 		.4byte	.LASF703
 13812 34ef 00       		.byte	0
 13813 34f0 23       		.uleb128 0x23
 13814 34f1 00000000 		.4byte	.LASF704
 13815 34f5 01       		.byte	0x1
 13816 34f6 23       		.uleb128 0x23
 13817 34f7 3F190000 		.4byte	.LASF705
 13818 34fb 02       		.byte	0x2
 13819 34fc 23       		.uleb128 0x23
 13820 34fd AC200000 		.4byte	.LASF706
 13821 3501 03       		.byte	0x3
 13822 3502 23       		.uleb128 0x23
 13823 3503 590A0000 		.4byte	.LASF707
 13824 3507 04       		.byte	0x4
 13825 3508 00       		.byte	0
 13826 3509 07       		.uleb128 0x7
 13827 350a 14320000 		.4byte	.LASF708
 13828 350e 3C       		.byte	0x3c
 13829 350f 0A01     		.2byte	0x10a
 13830 3511 DC340000 		.4byte	0x34dc
 13831 3515 2D       		.uleb128 0x2d
 13832 3516 07       		.byte	0x7
 13833 3517 01       		.byte	0x1
 13834 3518 69000000 		.4byte	0x69
 13835 351c 3C       		.byte	0x3c
 13836 351d 1801     		.2byte	0x118
 13837 351f 4E350000 		.4byte	0x354e
 13838 3523 23       		.uleb128 0x23
 13839 3524 5D270000 		.4byte	.LASF709
 13840 3528 00       		.byte	0
 13841 3529 23       		.uleb128 0x23
 13842 352a C5140000 		.4byte	.LASF710
 13843 352e 01       		.byte	0x1
 13844 352f 23       		.uleb128 0x23
 13845 3530 B1230000 		.4byte	.LASF711
 13846 3534 02       		.byte	0x2
 13847 3535 23       		.uleb128 0x23
 13848 3536 B61C0000 		.4byte	.LASF712
 13849 353a 03       		.byte	0x3
 13850 353b 23       		.uleb128 0x23
 13851 353c 401B0000 		.4byte	.LASF713
 13852 3540 04       		.byte	0x4
 13853 3541 23       		.uleb128 0x23
 13854 3542 29160000 		.4byte	.LASF714
 13855 3546 05       		.byte	0x5
 13856 3547 23       		.uleb128 0x23
 13857 3548 C2130000 		.4byte	.LASF715
 13858 354c 06       		.byte	0x6
 13859 354d 00       		.byte	0
ARM GAS  C:\Users\PCHAUT~1\AppData\Local\Temp\ccLw8kky.s 			page 257


 13860 354e 07       		.uleb128 0x7
 13861 354f A5160000 		.4byte	.LASF716
 13862 3553 3C       		.byte	0x3c
 13863 3554 2001     		.2byte	0x120
 13864 3556 15350000 		.4byte	0x3515
 13865 355a 2D       		.uleb128 0x2d
 13866 355b 07       		.byte	0x7
 13867 355c 01       		.byte	0x1
 13868 355d 69000000 		.4byte	0x69
 13869 3561 3C       		.byte	0x3c
 13870 3562 2501     		.2byte	0x125
 13871 3564 8D350000 		.4byte	0x358d
 13872 3568 23       		.uleb128 0x23
 13873 3569 90260000 		.4byte	.LASF717
 13874 356d 00       		.byte	0
 13875 356e 23       		.uleb128 0x23
 13876 356f 3C210000 		.4byte	.LASF718
 13877 3573 01       		.byte	0x1
 13878 3574 23       		.uleb128 0x23
 13879 3575 FB190000 		.4byte	.LASF719
 13880 3579 02       		.byte	0x2
 13881 357a 23       		.uleb128 0x23
 13882 357b 9B1A0000 		.4byte	.LASF720
 13883 357f 03       		.byte	0x3
 13884 3580 23       		.uleb128 0x23
 13885 3581 3B2E0000 		.4byte	.LASF721
 13886 3585 04       		.byte	0x4
 13887 3586 23       		.uleb128 0x23
 13888 3587 A8190000 		.4byte	.LASF722
 13889 358b 05       		.byte	0x5
 13890 358c 00       		.byte	0
 13891 358d 07       		.uleb128 0x7
 13892 358e 74210000 		.4byte	.LASF723
 13893 3592 3C       		.byte	0x3c
 13894 3593 2C01     		.2byte	0x12c
 13895 3595 5A350000 		.4byte	0x355a
 13896 3599 1C       		.uleb128 0x1c
 13897 359a 08       		.byte	0x8
 13898 359b 3C       		.byte	0x3c
 13899 359c 3101     		.2byte	0x131
 13900 359e BD350000 		.4byte	0x35bd
 13901 35a2 18       		.uleb128 0x18
 13902 35a3 76310000 		.4byte	.LASF724
 13903 35a7 3C       		.byte	0x3c
 13904 35a8 3501     		.2byte	0x135
 13905 35aa 2C000000 		.4byte	0x2c
 13906 35ae 00       		.byte	0
 13907 35af 18       		.uleb128 0x18
 13908 35b0 D6050000 		.4byte	.LASF725
 13909 35b4 3C       		.byte	0x3c
 13910 35b5 3901     		.2byte	0x139
 13911 35b7 841C0000 		.4byte	0x1c84
 13912 35bb 04       		.byte	0x4
 13913 35bc 00       		.byte	0
 13914 35bd 07       		.uleb128 0x7
 13915 35be 881B0000 		.4byte	.LASF726
 13916 35c2 3C       		.byte	0x3c
ARM GAS  C:\Users\PCHAUT~1\AppData\Local\Temp\ccLw8kky.s 			page 258


 13917 35c3 3A01     		.2byte	0x13a
 13918 35c5 99350000 		.4byte	0x3599
 13919 35c9 0F       		.uleb128 0xf
 13920 35ca BD350000 		.4byte	0x35bd
 13921 35ce 07       		.uleb128 0x7
 13922 35cf 02310000 		.4byte	.LASF727
 13923 35d3 3C       		.byte	0x3c
 13924 35d4 4201     		.2byte	0x142
 13925 35d6 DA350000 		.4byte	0x35da
 13926 35da 05       		.uleb128 0x5
 13927 35db 04       		.byte	0x4
 13928 35dc E0350000 		.4byte	0x35e0
 13929 35e0 1F       		.uleb128 0x1f
 13930 35e1 EB350000 		.4byte	0x35eb
 13931 35e5 16       		.uleb128 0x16
 13932 35e6 EB350000 		.4byte	0x35eb
 13933 35ea 00       		.byte	0
 13934 35eb 05       		.uleb128 0x5
 13935 35ec 04       		.byte	0x4
 13936 35ed 9A330000 		.4byte	0x339a
 13937 35f1 07       		.uleb128 0x7
 13938 35f2 3C060000 		.4byte	.LASF728
 13939 35f6 3C       		.byte	0x3c
 13940 35f7 4B01     		.2byte	0x14b
 13941 35f9 FD350000 		.4byte	0x35fd
 13942 35fd 05       		.uleb128 0x5
 13943 35fe 04       		.byte	0x4
 13944 35ff 03360000 		.4byte	0x3603
 13945 3603 1F       		.uleb128 0x1f
 13946 3604 13360000 		.4byte	0x3613
 13947 3608 16       		.uleb128 0x16
 13948 3609 EB350000 		.4byte	0x35eb
 13949 360d 16       		.uleb128 0x16
 13950 360e D1340000 		.4byte	0x34d1
 13951 3612 00       		.byte	0
 13952 3613 07       		.uleb128 0x7
 13953 3614 4E0F0000 		.4byte	.LASF729
 13954 3618 3C       		.byte	0x3c
 13955 3619 5401     		.2byte	0x154
 13956 361b 1F360000 		.4byte	0x361f
 13957 361f 05       		.uleb128 0x5
 13958 3620 04       		.byte	0x4
 13959 3621 25360000 		.4byte	0x3625
 13960 3625 1F       		.uleb128 0x1f
 13961 3626 35360000 		.4byte	0x3635
 13962 362a 16       		.uleb128 0x16
 13963 362b EB350000 		.4byte	0x35eb
 13964 362f 16       		.uleb128 0x16
 13965 3630 8D350000 		.4byte	0x358d
 13966 3634 00       		.byte	0
 13967 3635 07       		.uleb128 0x7
 13968 3636 FA070000 		.4byte	.LASF730
 13969 363a 3C       		.byte	0x3c
 13970 363b 6001     		.2byte	0x160
 13971 363d 41360000 		.4byte	0x3641
 13972 3641 05       		.uleb128 0x5
 13973 3642 04       		.byte	0x4
ARM GAS  C:\Users\PCHAUT~1\AppData\Local\Temp\ccLw8kky.s 			page 259


 13974 3643 47360000 		.4byte	0x3647
 13975 3647 15       		.uleb128 0x15
 13976 3648 911E0000 		.4byte	0x1e91
 13977 364c 56360000 		.4byte	0x3656
 13978 3650 16       		.uleb128 0x16
 13979 3651 EB350000 		.4byte	0x35eb
 13980 3655 00       		.byte	0
 13981 3656 07       		.uleb128 0x7
 13982 3657 8A140000 		.4byte	.LASF731
 13983 365b 3C       		.byte	0x3c
 13984 365c 6501     		.2byte	0x165
 13985 365e 62360000 		.4byte	0x3662
 13986 3662 05       		.uleb128 0x5
 13987 3663 04       		.byte	0x4
 13988 3664 68360000 		.4byte	0x3668
 13989 3668 15       		.uleb128 0x15
 13990 3669 86360000 		.4byte	0x3686
 13991 366d 86360000 		.4byte	0x3686
 13992 3671 16       		.uleb128 0x16
 13993 3672 EB350000 		.4byte	0x35eb
 13994 3676 16       		.uleb128 0x16
 13995 3677 73090000 		.4byte	0x973
 13996 367b 16       		.uleb128 0x16
 13997 367c 73090000 		.4byte	0x973
 13998 3680 16       		.uleb128 0x16
 13999 3681 8E090000 		.4byte	0x98e
 14000 3685 00       		.byte	0
 14001 3686 05       		.uleb128 0x5
 14002 3687 04       		.byte	0x4
 14003 3688 C9350000 		.4byte	0x35c9
 14004 368c 0C       		.uleb128 0xc
 14005 368d 20       		.byte	0x20
 14006 368e 3E       		.byte	0x3e
 14007 368f 35       		.byte	0x35
 14008 3690 F5360000 		.4byte	0x36f5
 14009 3694 0D       		.uleb128 0xd
 14010 3695 62040000 		.4byte	.LASF732
 14011 3699 3E       		.byte	0x3e
 14012 369a 36       		.byte	0x36
 14013 369b B4090000 		.4byte	0x9b4
 14014 369f 00       		.byte	0
 14015 36a0 0D       		.uleb128 0xd
 14016 36a1 88110000 		.4byte	.LASF733
 14017 36a5 3E       		.byte	0x3e
 14018 36a6 38       		.byte	0x38
 14019 36a7 B4090000 		.4byte	0x9b4
 14020 36ab 04       		.byte	0x4
 14021 36ac 0D       		.uleb128 0xd
 14022 36ad B5030000 		.4byte	.LASF734
 14023 36b1 3E       		.byte	0x3e
 14024 36b2 39       		.byte	0x39
 14025 36b3 B4090000 		.4byte	0x9b4
 14026 36b7 08       		.byte	0x8
 14027 36b8 0D       		.uleb128 0xd
 14028 36b9 93240000 		.4byte	.LASF735
 14029 36bd 3E       		.byte	0x3e
 14030 36be 3A       		.byte	0x3a
ARM GAS  C:\Users\PCHAUT~1\AppData\Local\Temp\ccLw8kky.s 			page 260


 14031 36bf B4090000 		.4byte	0x9b4
 14032 36c3 0C       		.byte	0xc
 14033 36c4 0D       		.uleb128 0xd
 14034 36c5 F4190000 		.4byte	.LASF736
 14035 36c9 3E       		.byte	0x3e
 14036 36ca 3C       		.byte	0x3c
 14037 36cb B4090000 		.4byte	0x9b4
 14038 36cf 10       		.byte	0x10
 14039 36d0 0D       		.uleb128 0xd
 14040 36d1 CD110000 		.4byte	.LASF737
 14041 36d5 3E       		.byte	0x3e
 14042 36d6 3E       		.byte	0x3e
 14043 36d7 B4090000 		.4byte	0x9b4
 14044 36db 14       		.byte	0x14
 14045 36dc 0D       		.uleb128 0xd
 14046 36dd E0110000 		.4byte	.LASF738
 14047 36e1 3E       		.byte	0x3e
 14048 36e2 3F       		.byte	0x3f
 14049 36e3 B4090000 		.4byte	0x9b4
 14050 36e7 18       		.byte	0x18
 14051 36e8 0D       		.uleb128 0xd
 14052 36e9 09050000 		.4byte	.LASF739
 14053 36ed 3E       		.byte	0x3e
 14054 36ee 40       		.byte	0x40
 14055 36ef B4090000 		.4byte	0x9b4
 14056 36f3 1C       		.byte	0x1c
 14057 36f4 00       		.byte	0
 14058 36f5 03       		.uleb128 0x3
 14059 36f6 ED230000 		.4byte	.LASF740
 14060 36fa 3E       		.byte	0x3e
 14061 36fb 41       		.byte	0x41
 14062 36fc 8C360000 		.4byte	0x368c
 14063 3700 0C       		.uleb128 0xc
 14064 3701 20       		.byte	0x20
 14065 3702 3E       		.byte	0x3e
 14066 3703 46       		.byte	0x46
 14067 3704 69370000 		.4byte	0x3769
 14068 3708 0D       		.uleb128 0xd
 14069 3709 37120000 		.4byte	.LASF741
 14070 370d 3E       		.byte	0x3e
 14071 370e 47       		.byte	0x47
 14072 370f B4090000 		.4byte	0x9b4
 14073 3713 00       		.byte	0
 14074 3714 0D       		.uleb128 0xd
 14075 3715 0D170000 		.4byte	.LASF742
 14076 3719 3E       		.byte	0x3e
 14077 371a 49       		.byte	0x49
 14078 371b B4090000 		.4byte	0x9b4
 14079 371f 04       		.byte	0x4
 14080 3720 0D       		.uleb128 0xd
 14081 3721 222A0000 		.4byte	.LASF743
 14082 3725 3E       		.byte	0x3e
 14083 3726 4A       		.byte	0x4a
 14084 3727 B4090000 		.4byte	0x9b4
 14085 372b 08       		.byte	0x8
 14086 372c 0D       		.uleb128 0xd
 14087 372d 3D170000 		.4byte	.LASF744
ARM GAS  C:\Users\PCHAUT~1\AppData\Local\Temp\ccLw8kky.s 			page 261


 14088 3731 3E       		.byte	0x3e
 14089 3732 4C       		.byte	0x4c
 14090 3733 B4090000 		.4byte	0x9b4
 14091 3737 0C       		.byte	0xc
 14092 3738 0D       		.uleb128 0xd
 14093 3739 E61D0000 		.4byte	.LASF745
 14094 373d 3E       		.byte	0x3e
 14095 373e 4D       		.byte	0x4d
 14096 373f B4090000 		.4byte	0x9b4
 14097 3743 10       		.byte	0x10
 14098 3744 0D       		.uleb128 0xd
 14099 3745 CD110000 		.4byte	.LASF737
 14100 3749 3E       		.byte	0x3e
 14101 374a 4F       		.byte	0x4f
 14102 374b B4090000 		.4byte	0x9b4
 14103 374f 14       		.byte	0x14
 14104 3750 0D       		.uleb128 0xd
 14105 3751 E5080000 		.4byte	.LASF746
 14106 3755 3E       		.byte	0x3e
 14107 3756 50       		.byte	0x50
 14108 3757 B4090000 		.4byte	0x9b4
 14109 375b 18       		.byte	0x18
 14110 375c 0D       		.uleb128 0xd
 14111 375d 0B2A0000 		.4byte	.LASF747
 14112 3761 3E       		.byte	0x3e
 14113 3762 52       		.byte	0x52
 14114 3763 B4090000 		.4byte	0x9b4
 14115 3767 1C       		.byte	0x1c
 14116 3768 00       		.byte	0
 14117 3769 03       		.uleb128 0x3
 14118 376a 6D0A0000 		.4byte	.LASF748
 14119 376e 3E       		.byte	0x3e
 14120 376f 53       		.byte	0x53
 14121 3770 00370000 		.4byte	0x3700
 14122 3774 0C       		.uleb128 0xc
 14123 3775 20       		.byte	0x20
 14124 3776 3E       		.byte	0x3e
 14125 3777 58       		.byte	0x58
 14126 3778 DD370000 		.4byte	0x37dd
 14127 377c 0D       		.uleb128 0xd
 14128 377d CA1A0000 		.4byte	.LASF749
 14129 3781 3E       		.byte	0x3e
 14130 3782 59       		.byte	0x59
 14131 3783 B4090000 		.4byte	0x9b4
 14132 3787 00       		.byte	0
 14133 3788 0D       		.uleb128 0xd
 14134 3789 0D170000 		.4byte	.LASF742
 14135 378d 3E       		.byte	0x3e
 14136 378e 5B       		.byte	0x5b
 14137 378f B4090000 		.4byte	0x9b4
 14138 3793 04       		.byte	0x4
 14139 3794 0D       		.uleb128 0xd
 14140 3795 BE1F0000 		.4byte	.LASF750
 14141 3799 3E       		.byte	0x3e
 14142 379a 5C       		.byte	0x5c
 14143 379b B4090000 		.4byte	0x9b4
 14144 379f 08       		.byte	0x8
ARM GAS  C:\Users\PCHAUT~1\AppData\Local\Temp\ccLw8kky.s 			page 262


 14145 37a0 0D       		.uleb128 0xd
 14146 37a1 3D170000 		.4byte	.LASF744
 14147 37a5 3E       		.byte	0x3e
 14148 37a6 5E       		.byte	0x5e
 14149 37a7 B4090000 		.4byte	0x9b4
 14150 37ab 0C       		.byte	0xc
 14151 37ac 0D       		.uleb128 0xd
 14152 37ad C02B0000 		.4byte	.LASF751
 14153 37b1 3E       		.byte	0x3e
 14154 37b2 5F       		.byte	0x5f
 14155 37b3 B4090000 		.4byte	0x9b4
 14156 37b7 10       		.byte	0x10
 14157 37b8 0D       		.uleb128 0xd
 14158 37b9 CD110000 		.4byte	.LASF737
 14159 37bd 3E       		.byte	0x3e
 14160 37be 61       		.byte	0x61
 14161 37bf B4090000 		.4byte	0x9b4
 14162 37c3 14       		.byte	0x14
 14163 37c4 0D       		.uleb128 0xd
 14164 37c5 E0110000 		.4byte	.LASF738
 14165 37c9 3E       		.byte	0x3e
 14166 37ca 62       		.byte	0x62
 14167 37cb B4090000 		.4byte	0x9b4
 14168 37cf 18       		.byte	0x18
 14169 37d0 0D       		.uleb128 0xd
 14170 37d1 0B2A0000 		.4byte	.LASF747
 14171 37d5 3E       		.byte	0x3e
 14172 37d6 63       		.byte	0x63
 14173 37d7 B4090000 		.4byte	0x9b4
 14174 37db 1C       		.byte	0x1c
 14175 37dc 00       		.byte	0
 14176 37dd 03       		.uleb128 0x3
 14177 37de DC090000 		.4byte	.LASF752
 14178 37e2 3E       		.byte	0x3e
 14179 37e3 64       		.byte	0x64
 14180 37e4 74370000 		.4byte	0x3774
 14181 37e8 2F       		.uleb128 0x2f
 14182 37e9 00100100 		.4byte	0x11000
 14183 37ed 3E       		.byte	0x3e
 14184 37ee 69       		.byte	0x69
 14185 37ef C53A0000 		.4byte	0x3ac5
 14186 37f3 0D       		.uleb128 0xd
 14187 37f4 2B060000 		.4byte	.LASF753
 14188 37f8 3E       		.byte	0x3e
 14189 37f9 6A       		.byte	0x6a
 14190 37fa B4090000 		.4byte	0x9b4
 14191 37fe 00       		.byte	0
 14192 37ff 0D       		.uleb128 0xd
 14193 3800 59100000 		.4byte	.LASF754
 14194 3804 3E       		.byte	0x3e
 14195 3805 6B       		.byte	0x6b
 14196 3806 B4090000 		.4byte	0x9b4
 14197 380a 04       		.byte	0x4
 14198 380b 0D       		.uleb128 0xd
 14199 380c 34090000 		.4byte	.LASF755
 14200 3810 3E       		.byte	0x3e
 14201 3811 6C       		.byte	0x6c
ARM GAS  C:\Users\PCHAUT~1\AppData\Local\Temp\ccLw8kky.s 			page 263


 14202 3812 B4090000 		.4byte	0x9b4
 14203 3816 08       		.byte	0x8
 14204 3817 0D       		.uleb128 0xd
 14205 3818 16310000 		.4byte	.LASF756
 14206 381c 3E       		.byte	0x3e
 14207 381d 6D       		.byte	0x6d
 14208 381e B4090000 		.4byte	0x9b4
 14209 3822 0C       		.byte	0xc
 14210 3823 0D       		.uleb128 0xd
 14211 3824 4F190000 		.4byte	.LASF757
 14212 3828 3E       		.byte	0x3e
 14213 3829 6E       		.byte	0x6e
 14214 382a B4090000 		.4byte	0x9b4
 14215 382e 10       		.byte	0x10
 14216 382f 0D       		.uleb128 0xd
 14217 3830 BF040000 		.4byte	.LASF758
 14218 3834 3E       		.byte	0x3e
 14219 3835 6F       		.byte	0x6f
 14220 3836 B4090000 		.4byte	0x9b4
 14221 383a 14       		.byte	0x14
 14222 383b 0D       		.uleb128 0xd
 14223 383c 9F220000 		.4byte	.LASF759
 14224 3840 3E       		.byte	0x3e
 14225 3841 70       		.byte	0x70
 14226 3842 B4090000 		.4byte	0x9b4
 14227 3846 18       		.byte	0x18
 14228 3847 0D       		.uleb128 0xd
 14229 3848 F7090000 		.4byte	.LASF760
 14230 384c 3E       		.byte	0x3e
 14231 384d 71       		.byte	0x71
 14232 384e B4090000 		.4byte	0x9b4
 14233 3852 1C       		.byte	0x1c
 14234 3853 0D       		.uleb128 0xd
 14235 3854 EF090000 		.4byte	.LASF761
 14236 3858 3E       		.byte	0x3e
 14237 3859 73       		.byte	0x73
 14238 385a B4090000 		.4byte	0x9b4
 14239 385e 20       		.byte	0x20
 14240 385f 0D       		.uleb128 0xd
 14241 3860 07220000 		.4byte	.LASF762
 14242 3864 3E       		.byte	0x3e
 14243 3865 75       		.byte	0x75
 14244 3866 B4090000 		.4byte	0x9b4
 14245 386a 24       		.byte	0x24
 14246 386b 0D       		.uleb128 0xd
 14247 386c 40010000 		.4byte	.LASF763
 14248 3870 3E       		.byte	0x3e
 14249 3871 76       		.byte	0x76
 14250 3872 B4090000 		.4byte	0x9b4
 14251 3876 28       		.byte	0x28
 14252 3877 0D       		.uleb128 0xd
 14253 3878 B3220000 		.4byte	.LASF764
 14254 387c 3E       		.byte	0x3e
 14255 387d 78       		.byte	0x78
 14256 387e B4090000 		.4byte	0x9b4
 14257 3882 2C       		.byte	0x2c
 14258 3883 0D       		.uleb128 0xd
ARM GAS  C:\Users\PCHAUT~1\AppData\Local\Temp\ccLw8kky.s 			page 264


 14259 3884 56130000 		.4byte	.LASF765
 14260 3888 3E       		.byte	0x3e
 14261 3889 7A       		.byte	0x7a
 14262 388a B4090000 		.4byte	0x9b4
 14263 388e 30       		.byte	0x30
 14264 388f 0D       		.uleb128 0xd
 14265 3890 A52E0000 		.4byte	.LASF766
 14266 3894 3E       		.byte	0x3e
 14267 3895 7B       		.byte	0x7b
 14268 3896 B4090000 		.4byte	0x9b4
 14269 389a 34       		.byte	0x34
 14270 389b 0D       		.uleb128 0xd
 14271 389c A8020000 		.4byte	.LASF767
 14272 38a0 3E       		.byte	0x3e
 14273 38a1 7C       		.byte	0x7c
 14274 38a2 B4090000 		.4byte	0x9b4
 14275 38a6 38       		.byte	0x38
 14276 38a7 11       		.uleb128 0x11
 14277 38a8 43494400 		.ascii	"CID\000"
 14278 38ac 3E       		.byte	0x3e
 14279 38ad 7D       		.byte	0x7d
 14280 38ae B4090000 		.4byte	0x9b4
 14281 38b2 3C       		.byte	0x3c
 14282 38b3 0D       		.uleb128 0xd
 14283 38b4 6C150000 		.4byte	.LASF768
 14284 38b8 3E       		.byte	0x3e
 14285 38b9 7E       		.byte	0x7e
 14286 38ba D53A0000 		.4byte	0x3ad5
 14287 38be 40       		.byte	0x40
 14288 38bf 13       		.uleb128 0x13
 14289 38c0 E42C0000 		.4byte	.LASF769
 14290 38c4 3E       		.byte	0x3e
 14291 38c5 7F       		.byte	0x7f
 14292 38c6 B4090000 		.4byte	0x9b4
 14293 38ca 0001     		.2byte	0x100
 14294 38cc 13       		.uleb128 0x13
 14295 38cd 0B030000 		.4byte	.LASF770
 14296 38d1 3E       		.byte	0x3e
 14297 38d2 81       		.byte	0x81
 14298 38d3 20160000 		.4byte	0x1620
 14299 38d7 0401     		.2byte	0x104
 14300 38d9 13       		.uleb128 0x13
 14301 38da 6E1A0000 		.4byte	.LASF771
 14302 38de 3E       		.byte	0x3e
 14303 38df 83       		.byte	0x83
 14304 38e0 EA3A0000 		.4byte	0x3aea
 14305 38e4 4001     		.2byte	0x140
 14306 38e6 13       		.uleb128 0x13
 14307 38e7 5D1F0000 		.4byte	.LASF772
 14308 38eb 3E       		.byte	0x3e
 14309 38ec 84       		.byte	0x84
 14310 38ed B4090000 		.4byte	0x9b4
 14311 38f1 0004     		.2byte	0x400
 14312 38f3 13       		.uleb128 0x13
 14313 38f4 58300000 		.4byte	.LASF773
 14314 38f8 3E       		.byte	0x3e
 14315 38f9 85       		.byte	0x85
ARM GAS  C:\Users\PCHAUT~1\AppData\Local\Temp\ccLw8kky.s 			page 265


 14316 38fa B4090000 		.4byte	0x9b4
 14317 38fe 0404     		.2byte	0x404
 14318 3900 13       		.uleb128 0x13
 14319 3901 5F050000 		.4byte	.LASF774
 14320 3905 3E       		.byte	0x3e
 14321 3906 86       		.byte	0x86
 14322 3907 B4090000 		.4byte	0x9b4
 14323 390b 0804     		.2byte	0x408
 14324 390d 13       		.uleb128 0x13
 14325 390e 372C0000 		.4byte	.LASF775
 14326 3912 3E       		.byte	0x3e
 14327 3913 88       		.byte	0x88
 14328 3914 B4090000 		.4byte	0x9b4
 14329 3918 0C04     		.2byte	0x40c
 14330 391a 13       		.uleb128 0x13
 14331 391b 2A040000 		.4byte	.LASF776
 14332 391f 3E       		.byte	0x3e
 14333 3920 89       		.byte	0x89
 14334 3921 B4090000 		.4byte	0x9b4
 14335 3925 1004     		.2byte	0x410
 14336 3927 13       		.uleb128 0x13
 14337 3928 22050000 		.4byte	.LASF777
 14338 392c 3E       		.byte	0x3e
 14339 392d 8B       		.byte	0x8b
 14340 392e B4090000 		.4byte	0x9b4
 14341 3932 1404     		.2byte	0x414
 14342 3934 13       		.uleb128 0x13
 14343 3935 74100000 		.4byte	.LASF778
 14344 3939 3E       		.byte	0x3e
 14345 393a 8D       		.byte	0x8d
 14346 393b B4090000 		.4byte	0x9b4
 14347 393f 1804     		.2byte	0x418
 14348 3941 13       		.uleb128 0x13
 14349 3942 28260000 		.4byte	.LASF779
 14350 3946 3E       		.byte	0x3e
 14351 3947 8F       		.byte	0x8f
 14352 3948 FF3A0000 		.4byte	0x3aff
 14353 394c 1C04     		.2byte	0x41c
 14354 394e 13       		.uleb128 0x13
 14355 394f A1030000 		.4byte	.LASF780
 14356 3953 3E       		.byte	0x3e
 14357 3954 90       		.byte	0x90
 14358 3955 B4090000 		.4byte	0x9b4
 14359 3959 4004     		.2byte	0x440
 14360 395b 13       		.uleb128 0x13
 14361 395c C0280000 		.4byte	.LASF781
 14362 3960 3E       		.byte	0x3e
 14363 3961 92       		.byte	0x92
 14364 3962 143B0000 		.4byte	0x3b14
 14365 3966 4404     		.2byte	0x444
 14366 3968 30       		.uleb128 0x30
 14367 3969 686300   		.ascii	"hc\000"
 14368 396c 3E       		.byte	0x3e
 14369 396d 93       		.byte	0x93
 14370 396e 193B0000 		.4byte	0x3b19
 14371 3972 0005     		.2byte	0x500
 14372 3974 13       		.uleb128 0x13
ARM GAS  C:\Users\PCHAUT~1\AppData\Local\Temp\ccLw8kky.s 			page 266


 14373 3975 802C0000 		.4byte	.LASF782
 14374 3979 3E       		.byte	0x3e
 14375 397a 94       		.byte	0x94
 14376 397b 393B0000 		.4byte	0x3b39
 14377 397f 0007     		.2byte	0x700
 14378 3981 13       		.uleb128 0x13
 14379 3982 6D220000 		.4byte	.LASF783
 14380 3986 3E       		.byte	0x3e
 14381 3987 95       		.byte	0x95
 14382 3988 B4090000 		.4byte	0x9b4
 14383 398c 0008     		.2byte	0x800
 14384 398e 13       		.uleb128 0x13
 14385 398f 132E0000 		.4byte	.LASF784
 14386 3993 3E       		.byte	0x3e
 14387 3994 96       		.byte	0x96
 14388 3995 B4090000 		.4byte	0x9b4
 14389 3999 0408     		.2byte	0x804
 14390 399b 13       		.uleb128 0x13
 14391 399c FB060000 		.4byte	.LASF785
 14392 39a0 3E       		.byte	0x3e
 14393 39a1 97       		.byte	0x97
 14394 39a2 B4090000 		.4byte	0x9b4
 14395 39a6 0808     		.2byte	0x808
 14396 39a8 13       		.uleb128 0x13
 14397 39a9 19060000 		.4byte	.LASF786
 14398 39ad 3E       		.byte	0x3e
 14399 39ae 98       		.byte	0x98
 14400 39af B4090000 		.4byte	0x9b4
 14401 39b3 0C08     		.2byte	0x80c
 14402 39b5 13       		.uleb128 0x13
 14403 39b6 51100000 		.4byte	.LASF787
 14404 39ba 3E       		.byte	0x3e
 14405 39bb 99       		.byte	0x99
 14406 39bc B4090000 		.4byte	0x9b4
 14407 39c0 1008     		.2byte	0x810
 14408 39c2 13       		.uleb128 0x13
 14409 39c3 572A0000 		.4byte	.LASF788
 14410 39c7 3E       		.byte	0x3e
 14411 39c8 9B       		.byte	0x9b
 14412 39c9 B4090000 		.4byte	0x9b4
 14413 39cd 1408     		.2byte	0x814
 14414 39cf 13       		.uleb128 0x13
 14415 39d0 032B0000 		.4byte	.LASF789
 14416 39d4 3E       		.byte	0x3e
 14417 39d5 9D       		.byte	0x9d
 14418 39d6 B4090000 		.4byte	0x9b4
 14419 39da 1808     		.2byte	0x818
 14420 39dc 13       		.uleb128 0x13
 14421 39dd 0C270000 		.4byte	.LASF790
 14422 39e1 3E       		.byte	0x3e
 14423 39e2 9F       		.byte	0x9f
 14424 39e3 B4090000 		.4byte	0x9b4
 14425 39e7 1C08     		.2byte	0x81c
 14426 39e9 13       		.uleb128 0x13
 14427 39ea 62070000 		.4byte	.LASF791
 14428 39ee 3E       		.byte	0x3e
 14429 39ef A1       		.byte	0xa1
ARM GAS  C:\Users\PCHAUT~1\AppData\Local\Temp\ccLw8kky.s 			page 267


 14430 39f0 B4090000 		.4byte	0x9b4
 14431 39f4 2008     		.2byte	0x820
 14432 39f6 13       		.uleb128 0x13
 14433 39f7 72060000 		.4byte	.LASF792
 14434 39fb 3E       		.byte	0x3e
 14435 39fc A2       		.byte	0xa2
 14436 39fd B4090000 		.4byte	0x9b4
 14437 3a01 2408     		.2byte	0x824
 14438 3a03 13       		.uleb128 0x13
 14439 3a04 88220000 		.4byte	.LASF793
 14440 3a08 3E       		.byte	0x3e
 14441 3a09 A3       		.byte	0xa3
 14442 3a0a B4090000 		.4byte	0x9b4
 14443 3a0e 2808     		.2byte	0x828
 14444 3a10 13       		.uleb128 0x13
 14445 3a11 74130000 		.4byte	.LASF794
 14446 3a15 3E       		.byte	0x3e
 14447 3a16 A5       		.byte	0xa5
 14448 3a17 B4090000 		.4byte	0x9b4
 14449 3a1b 2C08     		.2byte	0x82c
 14450 3a1d 13       		.uleb128 0x13
 14451 3a1e 74080000 		.4byte	.LASF795
 14452 3a22 3E       		.byte	0x3e
 14453 3a23 A7       		.byte	0xa7
 14454 3a24 B4090000 		.4byte	0x9b4
 14455 3a28 3008     		.2byte	0x830
 14456 3a2a 13       		.uleb128 0x13
 14457 3a2b 1D120000 		.4byte	.LASF796
 14458 3a2f 3E       		.byte	0x3e
 14459 3a30 A8       		.byte	0xa8
 14460 3a31 B4090000 		.4byte	0x9b4
 14461 3a35 3408     		.2byte	0x834
 14462 3a37 13       		.uleb128 0x13
 14463 3a38 82080000 		.4byte	.LASF797
 14464 3a3c 3E       		.byte	0x3e
 14465 3a3d AA       		.byte	0xaa
 14466 3a3e B4090000 		.4byte	0x9b4
 14467 3a42 3808     		.2byte	0x838
 14468 3a44 13       		.uleb128 0x13
 14469 3a45 BB080000 		.4byte	.LASF798
 14470 3a49 3E       		.byte	0x3e
 14471 3a4a AB       		.byte	0xab
 14472 3a4b B4090000 		.4byte	0x9b4
 14473 3a4f 3C08     		.2byte	0x83c
 14474 3a51 13       		.uleb128 0x13
 14475 3a52 5C090000 		.4byte	.LASF799
 14476 3a56 3E       		.byte	0x3e
 14477 3a57 AC       		.byte	0xac
 14478 3a58 4E3B0000 		.4byte	0x3b4e
 14479 3a5c 4008     		.2byte	0x840
 14480 3a5e 13       		.uleb128 0x13
 14481 3a5f A5110000 		.4byte	.LASF800
 14482 3a63 3E       		.byte	0x3e
 14483 3a64 AD       		.byte	0xad
 14484 3a65 4E3B0000 		.4byte	0x3b4e
 14485 3a69 8008     		.2byte	0x880
 14486 3a6b 13       		.uleb128 0x13
ARM GAS  C:\Users\PCHAUT~1\AppData\Local\Temp\ccLw8kky.s 			page 268


 14487 3a6c 2A170000 		.4byte	.LASF801
 14488 3a70 3E       		.byte	0x3e
 14489 3a71 AE       		.byte	0xae
 14490 3a72 4E3B0000 		.4byte	0x3b4e
 14491 3a76 C008     		.2byte	0x8c0
 14492 3a78 30       		.uleb128 0x30
 14493 3a79 696500   		.ascii	"ie\000"
 14494 3a7c 3E       		.byte	0x3e
 14495 3a7d AF       		.byte	0xaf
 14496 3a7e 533B0000 		.4byte	0x3b53
 14497 3a82 0009     		.2byte	0x900
 14498 3a84 30       		.uleb128 0x30
 14499 3a85 6F6500   		.ascii	"oe\000"
 14500 3a88 3E       		.byte	0x3e
 14501 3a89 B0       		.byte	0xb0
 14502 3a8a 633B0000 		.4byte	0x3b63
 14503 3a8e 000B     		.2byte	0xb00
 14504 3a90 13       		.uleb128 0x13
 14505 3a91 B20F0000 		.4byte	.LASF802
 14506 3a95 3E       		.byte	0x3e
 14507 3a96 B1       		.byte	0xb1
 14508 3a97 393B0000 		.4byte	0x3b39
 14509 3a9b 000D     		.2byte	0xd00
 14510 3a9d 13       		.uleb128 0x13
 14511 3a9e 332E0000 		.4byte	.LASF803
 14512 3aa2 3E       		.byte	0x3e
 14513 3aa3 B2       		.byte	0xb2
 14514 3aa4 B4090000 		.4byte	0x9b4
 14515 3aa8 000E     		.2byte	0xe00
 14516 3aaa 13       		.uleb128 0x13
 14517 3aab BE1E0000 		.4byte	.LASF804
 14518 3aaf 3E       		.byte	0x3e
 14519 3ab0 B4       		.byte	0xb4
 14520 3ab1 833B0000 		.4byte	0x3b83
 14521 3ab5 040E     		.2byte	0xe04
 14522 3ab7 13       		.uleb128 0x13
 14523 3ab8 220D0000 		.4byte	.LASF304
 14524 3abc 3E       		.byte	0x3e
 14525 3abd B5       		.byte	0xb5
 14526 3abe 9F3B0000 		.4byte	0x3b9f
 14527 3ac2 0010     		.2byte	0x1000
 14528 3ac4 00       		.byte	0
 14529 3ac5 0A       		.uleb128 0xa
 14530 3ac6 B4090000 		.4byte	0x9b4
 14531 3aca D53A0000 		.4byte	0x3ad5
 14532 3ace 0B       		.uleb128 0xb
 14533 3acf 37000000 		.4byte	0x37
 14534 3ad3 2F       		.byte	0x2f
 14535 3ad4 00       		.byte	0
 14536 3ad5 1A       		.uleb128 0x1a
 14537 3ad6 C53A0000 		.4byte	0x3ac5
 14538 3ada 0A       		.uleb128 0xa
 14539 3adb B4090000 		.4byte	0x9b4
 14540 3adf EA3A0000 		.4byte	0x3aea
 14541 3ae3 0B       		.uleb128 0xb
 14542 3ae4 37000000 		.4byte	0x37
 14543 3ae8 AF       		.byte	0xaf
ARM GAS  C:\Users\PCHAUT~1\AppData\Local\Temp\ccLw8kky.s 			page 269


 14544 3ae9 00       		.byte	0
 14545 3aea 1A       		.uleb128 0x1a
 14546 3aeb DA3A0000 		.4byte	0x3ada
 14547 3aef 0A       		.uleb128 0xa
 14548 3af0 B4090000 		.4byte	0x9b4
 14549 3af4 FF3A0000 		.4byte	0x3aff
 14550 3af8 0B       		.uleb128 0xb
 14551 3af9 37000000 		.4byte	0x37
 14552 3afd 08       		.byte	0x8
 14553 3afe 00       		.byte	0
 14554 3aff 1A       		.uleb128 0x1a
 14555 3b00 EF3A0000 		.4byte	0x3aef
 14556 3b04 0A       		.uleb128 0xa
 14557 3b05 B4090000 		.4byte	0x9b4
 14558 3b09 143B0000 		.4byte	0x3b14
 14559 3b0d 0B       		.uleb128 0xb
 14560 3b0e 37000000 		.4byte	0x37
 14561 3b12 2E       		.byte	0x2e
 14562 3b13 00       		.byte	0
 14563 3b14 1A       		.uleb128 0x1a
 14564 3b15 043B0000 		.4byte	0x3b04
 14565 3b19 0A       		.uleb128 0xa
 14566 3b1a F5360000 		.4byte	0x36f5
 14567 3b1e 293B0000 		.4byte	0x3b29
 14568 3b22 0B       		.uleb128 0xb
 14569 3b23 37000000 		.4byte	0x37
 14570 3b27 0F       		.byte	0xf
 14571 3b28 00       		.byte	0
 14572 3b29 0A       		.uleb128 0xa
 14573 3b2a B4090000 		.4byte	0x9b4
 14574 3b2e 393B0000 		.4byte	0x3b39
 14575 3b32 0B       		.uleb128 0xb
 14576 3b33 37000000 		.4byte	0x37
 14577 3b37 3F       		.byte	0x3f
 14578 3b38 00       		.byte	0
 14579 3b39 1A       		.uleb128 0x1a
 14580 3b3a 293B0000 		.4byte	0x3b29
 14581 3b3e 0A       		.uleb128 0xa
 14582 3b3f B4090000 		.4byte	0x9b4
 14583 3b43 4E3B0000 		.4byte	0x3b4e
 14584 3b47 0B       		.uleb128 0xb
 14585 3b48 37000000 		.4byte	0x37
 14586 3b4c 0F       		.byte	0xf
 14587 3b4d 00       		.byte	0
 14588 3b4e 1A       		.uleb128 0x1a
 14589 3b4f 3E3B0000 		.4byte	0x3b3e
 14590 3b53 0A       		.uleb128 0xa
 14591 3b54 69370000 		.4byte	0x3769
 14592 3b58 633B0000 		.4byte	0x3b63
 14593 3b5c 0B       		.uleb128 0xb
 14594 3b5d 37000000 		.4byte	0x37
 14595 3b61 0F       		.byte	0xf
 14596 3b62 00       		.byte	0
 14597 3b63 0A       		.uleb128 0xa
 14598 3b64 DD370000 		.4byte	0x37dd
 14599 3b68 733B0000 		.4byte	0x3b73
 14600 3b6c 0B       		.uleb128 0xb
ARM GAS  C:\Users\PCHAUT~1\AppData\Local\Temp\ccLw8kky.s 			page 270


 14601 3b6d 37000000 		.4byte	0x37
 14602 3b71 0F       		.byte	0xf
 14603 3b72 00       		.byte	0
 14604 3b73 0A       		.uleb128 0xa
 14605 3b74 B4090000 		.4byte	0x9b4
 14606 3b78 833B0000 		.4byte	0x3b83
 14607 3b7c 0B       		.uleb128 0xb
 14608 3b7d 37000000 		.4byte	0x37
 14609 3b81 7E       		.byte	0x7e
 14610 3b82 00       		.byte	0
 14611 3b83 1A       		.uleb128 0x1a
 14612 3b84 733B0000 		.4byte	0x3b73
 14613 3b88 0A       		.uleb128 0xa
 14614 3b89 B4090000 		.4byte	0x9b4
 14615 3b8d 9F3B0000 		.4byte	0x3b9f
 14616 3b91 0B       		.uleb128 0xb
 14617 3b92 37000000 		.4byte	0x37
 14618 3b96 0F       		.byte	0xf
 14619 3b97 31       		.uleb128 0x31
 14620 3b98 37000000 		.4byte	0x37
 14621 3b9c FF03     		.2byte	0x3ff
 14622 3b9e 00       		.byte	0
 14623 3b9f 1A       		.uleb128 0x1a
 14624 3ba0 883B0000 		.4byte	0x3b88
 14625 3ba4 03       		.uleb128 0x3
 14626 3ba5 43310000 		.4byte	.LASF805
 14627 3ba9 3E       		.byte	0x3e
 14628 3baa B6       		.byte	0xb6
 14629 3bab E8370000 		.4byte	0x37e8
 14630 3baf 0C       		.uleb128 0xc
 14631 3bb0 0C       		.byte	0xc
 14632 3bb1 3D       		.byte	0x3d
 14633 3bb2 C6       		.byte	0xc6
 14634 3bb3 DC3B0000 		.4byte	0x3bdc
 14635 3bb7 0D       		.uleb128 0xd
 14636 3bb8 9A0C0000 		.4byte	.LASF806
 14637 3bbc 3D       		.byte	0x3d
 14638 3bbd C7       		.byte	0xc7
 14639 3bbe A9090000 		.4byte	0x9a9
 14640 3bc2 00       		.byte	0
 14641 3bc3 0D       		.uleb128 0xd
 14642 3bc4 890F0000 		.4byte	.LASF807
 14643 3bc8 3D       		.byte	0x3d
 14644 3bc9 C8       		.byte	0xc8
 14645 3bca A9090000 		.4byte	0x9a9
 14646 3bce 04       		.byte	0x4
 14647 3bcf 0D       		.uleb128 0xd
 14648 3bd0 36140000 		.4byte	.LASF808
 14649 3bd4 3D       		.byte	0x3d
 14650 3bd5 C9       		.byte	0xc9
 14651 3bd6 A9090000 		.4byte	0x9a9
 14652 3bda 08       		.byte	0x8
 14653 3bdb 00       		.byte	0
 14654 3bdc 03       		.uleb128 0x3
 14655 3bdd 9F0F0000 		.4byte	.LASF809
 14656 3be1 3D       		.byte	0x3d
 14657 3be2 CA       		.byte	0xca
ARM GAS  C:\Users\PCHAUT~1\AppData\Local\Temp\ccLw8kky.s 			page 271


 14658 3be3 AF3B0000 		.4byte	0x3baf
 14659 3be7 0F       		.uleb128 0xf
 14660 3be8 DC3B0000 		.4byte	0x3bdc
 14661 3bec 0C       		.uleb128 0xc
 14662 3bed 04       		.byte	0x4
 14663 3bee 3D       		.byte	0x3d
 14664 3bef DD       		.byte	0xdd
 14665 3bf0 013C0000 		.4byte	0x3c01
 14666 3bf4 0D       		.uleb128 0xd
 14667 3bf5 2D2E0000 		.4byte	.LASF810
 14668 3bf9 3D       		.byte	0x3d
 14669 3bfa E1       		.byte	0xe1
 14670 3bfb 841C0000 		.4byte	0x1c84
 14671 3bff 00       		.byte	0
 14672 3c00 00       		.byte	0
 14673 3c01 0C       		.uleb128 0xc
 14674 3c02 04       		.byte	0x4
 14675 3c03 3D       		.byte	0x3d
 14676 3c04 E3       		.byte	0xe3
 14677 3c05 163C0000 		.4byte	0x3c16
 14678 3c09 0D       		.uleb128 0xd
 14679 3c0a 310D0000 		.4byte	.LASF498
 14680 3c0e 3D       		.byte	0x3d
 14681 3c0f E7       		.byte	0xe7
 14682 3c10 163C0000 		.4byte	0x3c16
 14683 3c14 00       		.byte	0
 14684 3c15 00       		.byte	0
 14685 3c16 05       		.uleb128 0x5
 14686 3c17 04       		.byte	0x4
 14687 3c18 1E1C0000 		.4byte	0x1c1e
 14688 3c1c 08       		.uleb128 0x8
 14689 3c1d 04       		.byte	0x4
 14690 3c1e 3D       		.byte	0x3d
 14691 3c1f DC       		.byte	0xdc
 14692 3c20 3B3C0000 		.4byte	0x3c3b
 14693 3c24 09       		.uleb128 0x9
 14694 3c25 01290000 		.4byte	.LASF811
 14695 3c29 3D       		.byte	0x3d
 14696 3c2a E2       		.byte	0xe2
 14697 3c2b EC3B0000 		.4byte	0x3bec
 14698 3c2f 09       		.uleb128 0x9
 14699 3c30 9C270000 		.4byte	.LASF812
 14700 3c34 3D       		.byte	0x3d
 14701 3c35 E8       		.byte	0xe8
 14702 3c36 013C0000 		.4byte	0x3c01
 14703 3c3a 00       		.byte	0
 14704 3c3b 0C       		.uleb128 0xc
 14705 3c3c 14       		.byte	0x14
 14706 3c3d 3D       		.byte	0x3d
 14707 3c3e CF       		.byte	0xcf
 14708 3c3f 803C0000 		.4byte	0x3c80
 14709 3c43 0D       		.uleb128 0xd
 14710 3c44 C0090000 		.4byte	.LASF813
 14711 3c48 3D       		.byte	0x3d
 14712 3c49 D3       		.byte	0xd3
 14713 3c4a 911E0000 		.4byte	0x1e91
 14714 3c4e 00       		.byte	0
ARM GAS  C:\Users\PCHAUT~1\AppData\Local\Temp\ccLw8kky.s 			page 272


 14715 3c4f 0D       		.uleb128 0xd
 14716 3c50 C3180000 		.4byte	.LASF814
 14717 3c54 3D       		.byte	0x3d
 14718 3c55 D7       		.byte	0xd7
 14719 3c56 2C000000 		.4byte	0x2c
 14720 3c5a 04       		.byte	0x4
 14721 3c5b 0D       		.uleb128 0xd
 14722 3c5c 3E0F0000 		.4byte	.LASF815
 14723 3c60 3D       		.byte	0x3d
 14724 3c61 DB       		.byte	0xdb
 14725 3c62 2C000000 		.4byte	0x2c
 14726 3c66 08       		.byte	0x8
 14727 3c67 0D       		.uleb128 0xd
 14728 3c68 AC0A0000 		.4byte	.LASF544
 14729 3c6c 3D       		.byte	0x3d
 14730 3c6d E9       		.byte	0xe9
 14731 3c6e 1C3C0000 		.4byte	0x3c1c
 14732 3c72 0C       		.byte	0xc
 14733 3c73 0D       		.uleb128 0xd
 14734 3c74 4E140000 		.4byte	.LASF816
 14735 3c78 3D       		.byte	0x3d
 14736 3c79 ED       		.byte	0xed
 14737 3c7a 2C000000 		.4byte	0x2c
 14738 3c7e 10       		.byte	0x10
 14739 3c7f 00       		.byte	0
 14740 3c80 03       		.uleb128 0x3
 14741 3c81 74150000 		.4byte	.LASF817
 14742 3c85 3D       		.byte	0x3d
 14743 3c86 EE       		.byte	0xee
 14744 3c87 3B3C0000 		.4byte	0x3c3b
 14745 3c8b 1C       		.uleb128 0x1c
 14746 3c8c 04       		.byte	0x4
 14747 3c8d 3D       		.byte	0x3d
 14748 3c8e 0101     		.2byte	0x101
 14749 3c90 A23C0000 		.4byte	0x3ca2
 14750 3c94 18       		.uleb128 0x18
 14751 3c95 C20F0000 		.4byte	.LASF818
 14752 3c99 3D       		.byte	0x3d
 14753 3c9a 0501     		.2byte	0x105
 14754 3c9c 0D1C0000 		.4byte	0x1c0d
 14755 3ca0 00       		.byte	0
 14756 3ca1 00       		.byte	0
 14757 3ca2 1C       		.uleb128 0x1c
 14758 3ca3 04       		.byte	0x4
 14759 3ca4 3D       		.byte	0x3d
 14760 3ca5 0701     		.2byte	0x107
 14761 3ca7 B93C0000 		.4byte	0x3cb9
 14762 3cab 18       		.uleb128 0x18
 14763 3cac B0280000 		.4byte	.LASF499
 14764 3cb0 3D       		.byte	0x3d
 14765 3cb1 0B01     		.2byte	0x10b
 14766 3cb3 B93C0000 		.4byte	0x3cb9
 14767 3cb7 00       		.byte	0
 14768 3cb8 00       		.byte	0
 14769 3cb9 05       		.uleb128 0x5
 14770 3cba 04       		.byte	0x4
 14771 3cbb 131C0000 		.4byte	0x1c13
ARM GAS  C:\Users\PCHAUT~1\AppData\Local\Temp\ccLw8kky.s 			page 273


 14772 3cbf 1D       		.uleb128 0x1d
 14773 3cc0 04       		.byte	0x4
 14774 3cc1 3D       		.byte	0x3d
 14775 3cc2 0001     		.2byte	0x100
 14776 3cc4 E13C0000 		.4byte	0x3ce1
 14777 3cc8 1E       		.uleb128 0x1e
 14778 3cc9 01290000 		.4byte	.LASF811
 14779 3ccd 3D       		.byte	0x3d
 14780 3cce 0601     		.2byte	0x106
 14781 3cd0 8B3C0000 		.4byte	0x3c8b
 14782 3cd4 1E       		.uleb128 0x1e
 14783 3cd5 9C270000 		.4byte	.LASF812
 14784 3cd9 3D       		.byte	0x3d
 14785 3cda 0C01     		.2byte	0x10c
 14786 3cdc A23C0000 		.4byte	0x3ca2
 14787 3ce0 00       		.byte	0
 14788 3ce1 0C       		.uleb128 0xc
 14789 3ce2 14       		.byte	0x14
 14790 3ce3 3D       		.byte	0x3d
 14791 3ce4 F3       		.byte	0xf3
 14792 3ce5 283D0000 		.4byte	0x3d28
 14793 3ce9 0D       		.uleb128 0xd
 14794 3cea 39070000 		.4byte	.LASF819
 14795 3cee 3D       		.byte	0x3d
 14796 3cef F7       		.byte	0xf7
 14797 3cf0 911E0000 		.4byte	0x1e91
 14798 3cf4 00       		.byte	0
 14799 3cf5 0D       		.uleb128 0xd
 14800 3cf6 ED190000 		.4byte	.LASF820
 14801 3cfa 3D       		.byte	0x3d
 14802 3cfb FB       		.byte	0xfb
 14803 3cfc 2C000000 		.4byte	0x2c
 14804 3d00 04       		.byte	0x4
 14805 3d01 0D       		.uleb128 0xd
 14806 3d02 870A0000 		.4byte	.LASF821
 14807 3d06 3D       		.byte	0x3d
 14808 3d07 FF       		.byte	0xff
 14809 3d08 2C000000 		.4byte	0x2c
 14810 3d0c 08       		.byte	0x8
 14811 3d0d 18       		.uleb128 0x18
 14812 3d0e AC0A0000 		.4byte	.LASF544
 14813 3d12 3D       		.byte	0x3d
 14814 3d13 0D01     		.2byte	0x10d
 14815 3d15 BF3C0000 		.4byte	0x3cbf
 14816 3d19 0C       		.byte	0xc
 14817 3d1a 18       		.uleb128 0x18
 14818 3d1b 4E140000 		.4byte	.LASF816
 14819 3d1f 3D       		.byte	0x3d
 14820 3d20 1101     		.2byte	0x111
 14821 3d22 2C000000 		.4byte	0x2c
 14822 3d26 10       		.byte	0x10
 14823 3d27 00       		.byte	0
 14824 3d28 07       		.uleb128 0x7
 14825 3d29 14260000 		.4byte	.LASF822
 14826 3d2d 3D       		.byte	0x3d
 14827 3d2e 1201     		.2byte	0x112
 14828 3d30 E13C0000 		.4byte	0x3ce1
ARM GAS  C:\Users\PCHAUT~1\AppData\Local\Temp\ccLw8kky.s 			page 274


 14829 3d34 1C       		.uleb128 0x1c
 14830 3d35 24       		.byte	0x24
 14831 3d36 3D       		.byte	0x3d
 14832 3d37 1801     		.2byte	0x118
 14833 3d39 C03D0000 		.4byte	0x3dc0
 14834 3d3d 18       		.uleb128 0x18
 14835 3d3e 5C1E0000 		.4byte	.LASF823
 14836 3d42 3D       		.byte	0x3d
 14837 3d43 1C01     		.2byte	0x11c
 14838 3d45 A9090000 		.4byte	0x9a9
 14839 3d49 00       		.byte	0
 14840 3d4a 18       		.uleb128 0x18
 14841 3d4b 030D0000 		.4byte	.LASF824
 14842 3d4f 3D       		.byte	0x3d
 14843 3d50 2701     		.2byte	0x127
 14844 3d52 F1350000 		.4byte	0x35f1
 14845 3d56 04       		.byte	0x4
 14846 3d57 18       		.uleb128 0x18
 14847 3d58 B81F0000 		.4byte	.LASF825
 14848 3d5c 3D       		.byte	0x3d
 14849 3d5d 2D01     		.2byte	0x12d
 14850 3d5f F1350000 		.4byte	0x35f1
 14851 3d63 08       		.byte	0x8
 14852 3d64 18       		.uleb128 0x18
 14853 3d65 61100000 		.4byte	.LASF826
 14854 3d69 3D       		.byte	0x3d
 14855 3d6a 3301     		.2byte	0x133
 14856 3d6c F1350000 		.4byte	0x35f1
 14857 3d70 0C       		.byte	0xc
 14858 3d71 18       		.uleb128 0x18
 14859 3d72 A2310000 		.4byte	.LASF827
 14860 3d76 3D       		.byte	0x3d
 14861 3d77 3901     		.2byte	0x139
 14862 3d79 8E090000 		.4byte	0x98e
 14863 3d7d 10       		.byte	0x10
 14864 3d7e 18       		.uleb128 0x18
 14865 3d7f D1100000 		.4byte	.LASF828
 14866 3d83 3D       		.byte	0x3d
 14867 3d84 3F01     		.2byte	0x13f
 14868 3d86 8E090000 		.4byte	0x98e
 14869 3d8a 12       		.byte	0x12
 14870 3d8b 18       		.uleb128 0x18
 14871 3d8c CB2F0000 		.4byte	.LASF829
 14872 3d90 3D       		.byte	0x3d
 14873 3d91 4401     		.2byte	0x144
 14874 3d93 C03D0000 		.4byte	0x3dc0
 14875 3d97 14       		.byte	0x14
 14876 3d98 18       		.uleb128 0x18
 14877 3d99 A6120000 		.4byte	.LASF830
 14878 3d9d 3D       		.byte	0x3d
 14879 3d9e 4901     		.2byte	0x149
 14880 3da0 C63D0000 		.4byte	0x3dc6
 14881 3da4 18       		.byte	0x18
 14882 3da5 18       		.uleb128 0x18
 14883 3da6 FE170000 		.4byte	.LASF831
 14884 3daa 3D       		.byte	0x3d
 14885 3dab 5001     		.2byte	0x150
ARM GAS  C:\Users\PCHAUT~1\AppData\Local\Temp\ccLw8kky.s 			page 275


 14886 3dad 8E090000 		.4byte	0x98e
 14887 3db1 1C       		.byte	0x1c
 14888 3db2 18       		.uleb128 0x18
 14889 3db3 9B2E0000 		.4byte	.LASF832
 14890 3db7 3D       		.byte	0x3d
 14891 3db8 5601     		.2byte	0x156
 14892 3dba 0D1C0000 		.4byte	0x1c0d
 14893 3dbe 20       		.byte	0x20
 14894 3dbf 00       		.byte	0
 14895 3dc0 05       		.uleb128 0x5
 14896 3dc1 04       		.byte	0x4
 14897 3dc2 803C0000 		.4byte	0x3c80
 14898 3dc6 05       		.uleb128 0x5
 14899 3dc7 04       		.byte	0x4
 14900 3dc8 283D0000 		.4byte	0x3d28
 14901 3dcc 07       		.uleb128 0x7
 14902 3dcd 80280000 		.4byte	.LASF833
 14903 3dd1 3D       		.byte	0x3d
 14904 3dd2 5701     		.2byte	0x157
 14905 3dd4 343D0000 		.4byte	0x3d34
 14906 3dd8 0F       		.uleb128 0xf
 14907 3dd9 CC3D0000 		.4byte	0x3dcc
 14908 3ddd 1C       		.uleb128 0x1c
 14909 3dde 10       		.byte	0x10
 14910 3ddf 3D       		.byte	0x3d
 14911 3de0 5C01     		.2byte	0x15c
 14912 3de2 1B3E0000 		.4byte	0x3e1b
 14913 3de6 18       		.uleb128 0x18
 14914 3de7 22060000 		.4byte	.LASF834
 14915 3deb 3D       		.byte	0x3d
 14916 3dec 6101     		.2byte	0x161
 14917 3dee 13360000 		.4byte	0x3613
 14918 3df2 00       		.byte	0
 14919 3df3 18       		.uleb128 0x18
 14920 3df4 872D0000 		.4byte	.LASF835
 14921 3df8 3D       		.byte	0x3d
 14922 3df9 6601     		.2byte	0x166
 14923 3dfb 56360000 		.4byte	0x3656
 14924 3dff 04       		.byte	0x4
 14925 3e00 18       		.uleb128 0x18
 14926 3e01 90180000 		.4byte	.LASF836
 14927 3e05 3D       		.byte	0x3d
 14928 3e06 6C01     		.2byte	0x16c
 14929 3e08 35360000 		.4byte	0x3635
 14930 3e0c 08       		.byte	0x8
 14931 3e0d 18       		.uleb128 0x18
 14932 3e0e DF020000 		.4byte	.LASF837
 14933 3e12 3D       		.byte	0x3d
 14934 3e13 7001     		.2byte	0x170
 14935 3e15 CE350000 		.4byte	0x35ce
 14936 3e19 0C       		.byte	0xc
 14937 3e1a 00       		.byte	0
 14938 3e1b 07       		.uleb128 0x7
 14939 3e1c 33170000 		.4byte	.LASF838
 14940 3e20 3D       		.byte	0x3d
 14941 3e21 7201     		.2byte	0x172
 14942 3e23 DD3D0000 		.4byte	0x3ddd
ARM GAS  C:\Users\PCHAUT~1\AppData\Local\Temp\ccLw8kky.s 			page 276


 14943 3e27 0F       		.uleb128 0xf
 14944 3e28 1B3E0000 		.4byte	0x3e1b
 14945 3e2c 05       		.uleb128 0x5
 14946 3e2d 04       		.byte	0x4
 14947 3e2e 273E0000 		.4byte	0x3e27
 14948 3e32 0A       		.uleb128 0xa
 14949 3e33 423E0000 		.4byte	0x3e42
 14950 3e37 423E0000 		.4byte	0x3e42
 14951 3e3b 0B       		.uleb128 0xb
 14952 3e3c 37000000 		.4byte	0x37
 14953 3e40 03       		.byte	0x3
 14954 3e41 00       		.byte	0
 14955 3e42 05       		.uleb128 0x5
 14956 3e43 04       		.byte	0x4
 14957 3e44 D83D0000 		.4byte	0x3dd8
 14958 3e48 0A       		.uleb128 0xa
 14959 3e49 68010000 		.4byte	0x168
 14960 3e4d 583E0000 		.4byte	0x3e58
 14961 3e51 0B       		.uleb128 0xb
 14962 3e52 37000000 		.4byte	0x37
 14963 3e56 02       		.byte	0x2
 14964 3e57 00       		.byte	0
 14965 3e58 05       		.uleb128 0x5
 14966 3e59 04       		.byte	0x4
 14967 3e5a A43B0000 		.4byte	0x3ba4
 14968 3e5e 05       		.uleb128 0x5
 14969 3e5f 04       		.byte	0x4
 14970 3e60 E73B0000 		.4byte	0x3be7
 14971 3e64 0A       		.uleb128 0xa
 14972 3e65 30160000 		.4byte	0x1630
 14973 3e69 743E0000 		.4byte	0x3e74
 14974 3e6d 0B       		.uleb128 0xb
 14975 3e6e 37000000 		.4byte	0x37
 14976 3e72 3E       		.byte	0x3e
 14977 3e73 00       		.byte	0
 14978 3e74 20       		.uleb128 0x20
 14979 3e75 961B0000 		.4byte	.LASF839
 14980 3e79 3D       		.byte	0x3d
 14981 3e7a 0602     		.2byte	0x206
 14982 3e7c 9A330000 		.4byte	0x339a
 14983 3e80 0A       		.uleb128 0xa
 14984 3e81 73090000 		.4byte	0x973
 14985 3e85 903E0000 		.4byte	0x3e90
 14986 3e89 0B       		.uleb128 0xb
 14987 3e8a 37000000 		.4byte	0x37
 14988 3e8e 03       		.byte	0x3
 14989 3e8f 00       		.byte	0
 14990 3e90 2B       		.uleb128 0x2b
 14991 3e91 07       		.byte	0x7
 14992 3e92 01       		.byte	0x1
 14993 3e93 69000000 		.4byte	0x69
 14994 3e97 3F       		.byte	0x3f
 14995 3e98 97       		.byte	0x97
 14996 3e99 B03E0000 		.4byte	0x3eb0
 14997 3e9d 23       		.uleb128 0x23
 14998 3e9e 05100000 		.4byte	.LASF840
 14999 3ea2 00       		.byte	0
ARM GAS  C:\Users\PCHAUT~1\AppData\Local\Temp\ccLw8kky.s 			page 277


 15000 3ea3 23       		.uleb128 0x23
 15001 3ea4 56210000 		.4byte	.LASF841
 15002 3ea8 01       		.byte	0x1
 15003 3ea9 23       		.uleb128 0x23
 15004 3eaa 4A090000 		.4byte	.LASF842
 15005 3eae 02       		.byte	0x2
 15006 3eaf 00       		.byte	0
 15007 3eb0 03       		.uleb128 0x3
 15008 3eb1 9A080000 		.4byte	.LASF843
 15009 3eb5 3F       		.byte	0x3f
 15010 3eb6 9B       		.byte	0x9b
 15011 3eb7 903E0000 		.4byte	0x3e90
 15012 3ebb 03       		.uleb128 0x3
 15013 3ebc 2C030000 		.4byte	.LASF844
 15014 3ec0 3F       		.byte	0x3f
 15015 3ec1 A0       		.byte	0xa0
 15016 3ec2 C63E0000 		.4byte	0x3ec6
 15017 3ec6 12       		.uleb128 0x12
 15018 3ec7 2C030000 		.4byte	.LASF844
 15019 3ecb 5802     		.2byte	0x258
 15020 3ecd 3F       		.byte	0x3f
 15021 3ece E5       		.byte	0xe5
 15022 3ecf 343F0000 		.4byte	0x3f34
 15023 3ed3 11       		.uleb128 0x11
 15024 3ed4 766D7400 		.ascii	"vmt\000"
 15025 3ed8 3F       		.byte	0x3f
 15026 3ed9 E7       		.byte	0xe7
 15027 3eda EF3F0000 		.4byte	0x3fef
 15028 3ede 00       		.byte	0
 15029 3edf 0D       		.uleb128 0xd
 15030 3ee0 64000000 		.4byte	.LASF642
 15031 3ee4 3F       		.byte	0x3f
 15032 3ee5 E8       		.byte	0xe8
 15033 3ee6 681B0000 		.4byte	0x1b68
 15034 3eea 04       		.byte	0x4
 15035 3eeb 0D       		.uleb128 0xd
 15036 3eec 831C0000 		.4byte	.LASF465
 15037 3ef0 3F       		.byte	0x3f
 15038 3ef1 E8       		.byte	0xe8
 15039 3ef2 B03E0000 		.4byte	0x3eb0
 15040 3ef6 08       		.byte	0x8
 15041 3ef7 0D       		.uleb128 0xd
 15042 3ef8 B11F0000 		.4byte	.LASF643
 15043 3efc 3F       		.byte	0x3f
 15044 3efd E8       		.byte	0xe8
 15045 3efe 131C0000 		.4byte	0x1c13
 15046 3f02 0C       		.byte	0xc
 15047 3f03 0D       		.uleb128 0xd
 15048 3f04 9B170000 		.4byte	.LASF644
 15049 3f08 3F       		.byte	0x3f
 15050 3f09 E8       		.byte	0xe8
 15051 3f0a 1E1C0000 		.4byte	0x1c1e
 15052 3f0e 30       		.byte	0x30
 15053 3f0f 11       		.uleb128 0x11
 15054 3f10 696200   		.ascii	"ib\000"
 15055 3f13 3F       		.byte	0x3f
 15056 3f14 E8       		.byte	0xe8
ARM GAS  C:\Users\PCHAUT~1\AppData\Local\Temp\ccLw8kky.s 			page 278


 15057 3f15 F53F0000 		.4byte	0x3ff5
 15058 3f19 54       		.byte	0x54
 15059 3f1a 30       		.uleb128 0x30
 15060 3f1b 6F6200   		.ascii	"ob\000"
 15061 3f1e 3F       		.byte	0x3f
 15062 3f1f E8       		.byte	0xe8
 15063 3f20 F53F0000 		.4byte	0x3ff5
 15064 3f24 5401     		.2byte	0x154
 15065 3f26 13       		.uleb128 0x13
 15066 3f27 A2240000 		.4byte	.LASF466
 15067 3f2b 3F       		.byte	0x3f
 15068 3f2c E8       		.byte	0xe8
 15069 3f2d 05400000 		.4byte	0x4005
 15070 3f31 5402     		.2byte	0x254
 15071 3f33 00       		.byte	0
 15072 3f34 0C       		.uleb128 0xc
 15073 3f35 08       		.byte	0x8
 15074 3f36 3F       		.byte	0x3f
 15075 3f37 A7       		.byte	0xa7
 15076 3f38 6D3F0000 		.4byte	0x3f6d
 15077 3f3c 0D       		.uleb128 0xd
 15078 3f3d A42C0000 		.4byte	.LASF845
 15079 3f41 3F       		.byte	0x3f
 15080 3f42 AB       		.byte	0xab
 15081 3f43 EB350000 		.4byte	0x35eb
 15082 3f47 00       		.byte	0
 15083 3f48 0D       		.uleb128 0xd
 15084 3f49 FF140000 		.4byte	.LASF846
 15085 3f4d 3F       		.byte	0x3f
 15086 3f4e AF       		.byte	0xaf
 15087 3f4f D1340000 		.4byte	0x34d1
 15088 3f53 04       		.byte	0x4
 15089 3f54 0D       		.uleb128 0xd
 15090 3f55 33060000 		.4byte	.LASF847
 15091 3f59 3F       		.byte	0x3f
 15092 3f5a B3       		.byte	0xb3
 15093 3f5b D1340000 		.4byte	0x34d1
 15094 3f5f 05       		.byte	0x5
 15095 3f60 0D       		.uleb128 0xd
 15096 3f61 49160000 		.4byte	.LASF848
 15097 3f65 3F       		.byte	0x3f
 15098 3f66 B9       		.byte	0xb9
 15099 3f67 D1340000 		.4byte	0x34d1
 15100 3f6b 06       		.byte	0x6
 15101 3f6c 00       		.byte	0
 15102 3f6d 03       		.uleb128 0x3
 15103 3f6e B6250000 		.4byte	.LASF849
 15104 3f72 3F       		.byte	0x3f
 15105 3f73 BA       		.byte	0xba
 15106 3f74 343F0000 		.4byte	0x3f34
 15107 3f78 0F       		.uleb128 0xf
 15108 3f79 6D3F0000 		.4byte	0x3f6d
 15109 3f7d 10       		.uleb128 0x10
 15110 3f7e A81D0000 		.4byte	.LASF850
 15111 3f82 20       		.byte	0x20
 15112 3f83 3F       		.byte	0x3f
 15113 3f84 DA       		.byte	0xda
ARM GAS  C:\Users\PCHAUT~1\AppData\Local\Temp\ccLw8kky.s 			page 279


 15114 3f85 EA3F0000 		.4byte	0x3fea
 15115 3f89 0D       		.uleb128 0xd
 15116 3f8a A01F0000 		.4byte	.LASF399
 15117 3f8e 3F       		.byte	0x3f
 15118 3f8f DB       		.byte	0xdb
 15119 3f90 8A1C0000 		.4byte	0x1c8a
 15120 3f94 00       		.byte	0
 15121 3f95 0D       		.uleb128 0xd
 15122 3f96 09060000 		.4byte	.LASF400
 15123 3f9a 3F       		.byte	0x3f
 15124 3f9b DB       		.byte	0xdb
 15125 3f9c A91C0000 		.4byte	0x1ca9
 15126 3fa0 04       		.byte	0x4
 15127 3fa1 11       		.uleb128 0x11
 15128 3fa2 70757400 		.ascii	"put\000"
 15129 3fa6 3F       		.byte	0x3f
 15130 3fa7 DB       		.byte	0xdb
 15131 3fa8 C31C0000 		.4byte	0x1cc3
 15132 3fac 08       		.byte	0x8
 15133 3fad 11       		.uleb128 0x11
 15134 3fae 67657400 		.ascii	"get\000"
 15135 3fb2 3F       		.byte	0x3f
 15136 3fb3 DB       		.byte	0xdb
 15137 3fb4 D81C0000 		.4byte	0x1cd8
 15138 3fb8 0C       		.byte	0xc
 15139 3fb9 0D       		.uleb128 0xd
 15140 3fba 221A0000 		.4byte	.LASF647
 15141 3fbe 3F       		.byte	0x3f
 15142 3fbf DB       		.byte	0xdb
 15143 3fc0 9F1D0000 		.4byte	0x1d9f
 15144 3fc4 10       		.byte	0x10
 15145 3fc5 0D       		.uleb128 0xd
 15146 3fc6 861F0000 		.4byte	.LASF648
 15147 3fca 3F       		.byte	0x3f
 15148 3fcb DB       		.byte	0xdb
 15149 3fcc B91D0000 		.4byte	0x1db9
 15150 3fd0 14       		.byte	0x14
 15151 3fd1 0D       		.uleb128 0xd
 15152 3fd2 BE2C0000 		.4byte	.LASF649
 15153 3fd6 3F       		.byte	0x3f
 15154 3fd7 DB       		.byte	0xdb
 15155 3fd8 DD1D0000 		.4byte	0x1ddd
 15156 3fdc 18       		.byte	0x18
 15157 3fdd 0D       		.uleb128 0xd
 15158 3fde 49190000 		.4byte	.LASF650
 15159 3fe2 3F       		.byte	0x3f
 15160 3fe3 DB       		.byte	0xdb
 15161 3fe4 011E0000 		.4byte	0x1e01
 15162 3fe8 1C       		.byte	0x1c
 15163 3fe9 00       		.byte	0
 15164 3fea 0F       		.uleb128 0xf
 15165 3feb 7D3F0000 		.4byte	0x3f7d
 15166 3fef 05       		.uleb128 0x5
 15167 3ff0 04       		.byte	0x4
 15168 3ff1 EA3F0000 		.4byte	0x3fea
 15169 3ff5 0A       		.uleb128 0xa
 15170 3ff6 73090000 		.4byte	0x973
ARM GAS  C:\Users\PCHAUT~1\AppData\Local\Temp\ccLw8kky.s 			page 280


 15171 3ffa 05400000 		.4byte	0x4005
 15172 3ffe 0B       		.uleb128 0xb
 15173 3fff 37000000 		.4byte	0x37
 15174 4003 FF       		.byte	0xff
 15175 4004 00       		.byte	0
 15176 4005 05       		.uleb128 0x5
 15177 4006 04       		.byte	0x4
 15178 4007 783F0000 		.4byte	0x3f78
 15179 400b 29       		.uleb128 0x29
 15180 400c D809     		.2byte	0x9d8
 15181 400e 40       		.byte	0x40
 15182 400f 44       		.byte	0x44
 15183 4010 50400000 		.4byte	0x4050
 15184 4014 11       		.uleb128 0x11
 15185 4015 543000   		.ascii	"T0\000"
 15186 4018 40       		.byte	0x40
 15187 4019 45       		.byte	0x45
 15188 401a 643E0000 		.4byte	0x3e64
 15189 401e 00       		.byte	0
 15190 401f 30       		.uleb128 0x30
 15191 4020 543100   		.ascii	"T1\000"
 15192 4023 40       		.byte	0x40
 15193 4024 46       		.byte	0x46
 15194 4025 643E0000 		.4byte	0x3e64
 15195 4029 F801     		.2byte	0x1f8
 15196 402b 30       		.uleb128 0x30
 15197 402c 543200   		.ascii	"T2\000"
 15198 402f 40       		.byte	0x40
 15199 4030 47       		.byte	0x47
 15200 4031 643E0000 		.4byte	0x3e64
 15201 4035 F003     		.2byte	0x3f0
 15202 4037 30       		.uleb128 0x30
 15203 4038 543300   		.ascii	"T3\000"
 15204 403b 40       		.byte	0x40
 15205 403c 48       		.byte	0x48
 15206 403d 643E0000 		.4byte	0x3e64
 15207 4041 E805     		.2byte	0x5e8
 15208 4043 30       		.uleb128 0x30
 15209 4044 543400   		.ascii	"T4\000"
 15210 4047 40       		.byte	0x40
 15211 4048 49       		.byte	0x49
 15212 4049 643E0000 		.4byte	0x3e64
 15213 404d E007     		.2byte	0x7e0
 15214 404f 00       		.byte	0
 15215 4050 32       		.uleb128 0x32
 15216 4051 69260000 		.4byte	.LASF1149
 15217 4055 D809     		.2byte	0x9d8
 15218 4057 40       		.byte	0x40
 15219 4058 43       		.byte	0x43
 15220 4059 73400000 		.4byte	0x4073
 15221 405d 2C       		.uleb128 0x2c
 15222 405e 776100   		.ascii	"wa\000"
 15223 4061 40       		.byte	0x40
 15224 4062 4A       		.byte	0x4a
 15225 4063 0B400000 		.4byte	0x400b
 15226 4067 09       		.uleb128 0x9
 15227 4068 07240000 		.4byte	.LASF851
ARM GAS  C:\Users\PCHAUT~1\AppData\Local\Temp\ccLw8kky.s 			page 281


 15228 406c 40       		.byte	0x40
 15229 406d 4B       		.byte	0x4b
 15230 406e 73400000 		.4byte	0x4073
 15231 4072 00       		.byte	0
 15232 4073 0A       		.uleb128 0xa
 15233 4074 73090000 		.4byte	0x973
 15234 4078 84400000 		.4byte	0x4084
 15235 407c 31       		.uleb128 0x31
 15236 407d 37000000 		.4byte	0x37
 15237 4081 D709     		.2byte	0x9d7
 15238 4083 00       		.byte	0
 15239 4084 27       		.uleb128 0x27
 15240 4085 651C0000 		.4byte	.LASF852
 15241 4089 40       		.byte	0x40
 15242 408a 4F       		.byte	0x4f
 15243 408b 911E0000 		.4byte	0x1e91
 15244 408f 0A       		.uleb128 0xa
 15245 4090 910B0000 		.4byte	0xb91
 15246 4094 9F400000 		.4byte	0x409f
 15247 4098 0B       		.uleb128 0xb
 15248 4099 37000000 		.4byte	0x37
 15249 409d 04       		.byte	0x4
 15250 409e 00       		.byte	0
 15251 409f 27       		.uleb128 0x27
 15252 40a0 7F0A0000 		.4byte	.LASF853
 15253 40a4 40       		.byte	0x40
 15254 40a5 A7       		.byte	0xa7
 15255 40a6 8F400000 		.4byte	0x408f
 15256 40aa 27       		.uleb128 0x27
 15257 40ab 49240000 		.4byte	.LASF854
 15258 40af 40       		.byte	0x40
 15259 40b0 A8       		.byte	0xa8
 15260 40b1 50400000 		.4byte	0x4050
 15261 40b5 0A       		.uleb128 0xa
 15262 40b6 6A010000 		.4byte	0x16a
 15263 40ba C0400000 		.4byte	0x40c0
 15264 40be 33       		.uleb128 0x33
 15265 40bf 00       		.byte	0
 15266 40c0 0F       		.uleb128 0xf
 15267 40c1 B5400000 		.4byte	0x40b5
 15268 40c5 34       		.uleb128 0x34
 15269 40c6 776100   		.ascii	"wa\000"
 15270 40c9 40       		.byte	0x40
 15271 40ca A9       		.byte	0xa9
 15272 40cb C0400000 		.4byte	0x40c0
 15273 40cf 27       		.uleb128 0x27
 15274 40d0 7D290000 		.4byte	.LASF855
 15275 40d4 40       		.byte	0x40
 15276 40d5 AA       		.byte	0xaa
 15277 40d6 911E0000 		.4byte	0x1e91
 15278 40da 03       		.uleb128 0x3
 15279 40db 90170000 		.4byte	.LASF856
 15280 40df 41       		.byte	0x41
 15281 40e0 2D       		.byte	0x2d
 15282 40e1 E5400000 		.4byte	0x40e5
 15283 40e5 05       		.uleb128 0x5
 15284 40e6 04       		.byte	0x4
ARM GAS  C:\Users\PCHAUT~1\AppData\Local\Temp\ccLw8kky.s 			page 282


 15285 40e7 EB400000 		.4byte	0x40eb
 15286 40eb 1F       		.uleb128 0x1f
 15287 40ec 00410000 		.4byte	0x4100
 15288 40f0 16       		.uleb128 0x16
 15289 40f1 00410000 		.4byte	0x4100
 15290 40f5 16       		.uleb128 0x16
 15291 40f6 25000000 		.4byte	0x25
 15292 40fa 16       		.uleb128 0x16
 15293 40fb 06410000 		.4byte	0x4106
 15294 40ff 00       		.byte	0
 15295 4100 05       		.uleb128 0x5
 15296 4101 04       		.byte	0x4
 15297 4102 F91C0000 		.4byte	0x1cf9
 15298 4106 05       		.uleb128 0x5
 15299 4107 04       		.byte	0x4
 15300 4108 6F010000 		.4byte	0x16f
 15301 410c 0C       		.uleb128 0xc
 15302 410d 08       		.byte	0x8
 15303 410e 41       		.byte	0x41
 15304 410f 32       		.byte	0x32
 15305 4110 2D410000 		.4byte	0x412d
 15306 4114 0D       		.uleb128 0xd
 15307 4115 69240000 		.4byte	.LASF857
 15308 4119 41       		.byte	0x41
 15309 411a 33       		.byte	0x33
 15310 411b ED050000 		.4byte	0x5ed
 15311 411f 00       		.byte	0
 15312 4120 0D       		.uleb128 0xd
 15313 4121 76260000 		.4byte	.LASF858
 15314 4125 41       		.byte	0x41
 15315 4126 34       		.byte	0x34
 15316 4127 DA400000 		.4byte	0x40da
 15317 412b 04       		.byte	0x4
 15318 412c 00       		.byte	0
 15319 412d 03       		.uleb128 0x3
 15320 412e 79160000 		.4byte	.LASF859
 15321 4132 41       		.byte	0x41
 15322 4133 35       		.byte	0x35
 15323 4134 0C410000 		.4byte	0x410c
 15324 4138 0F       		.uleb128 0xf
 15325 4139 2D410000 		.4byte	0x412d
 15326 413d 0C       		.uleb128 0xc
 15327 413e 08       		.byte	0x8
 15328 413f 41       		.byte	0x41
 15329 4140 3A       		.byte	0x3a
 15330 4141 5E410000 		.4byte	0x415e
 15331 4145 0D       		.uleb128 0xd
 15332 4146 AE020000 		.4byte	.LASF860
 15333 414a 41       		.byte	0x41
 15334 414b 3B       		.byte	0x3b
 15335 414c 00410000 		.4byte	0x4100
 15336 4150 00       		.byte	0
 15337 4151 0D       		.uleb128 0xd
 15338 4152 1C0F0000 		.4byte	.LASF861
 15339 4156 41       		.byte	0x41
 15340 4157 3D       		.byte	0x3d
 15341 4158 5E410000 		.4byte	0x415e
ARM GAS  C:\Users\PCHAUT~1\AppData\Local\Temp\ccLw8kky.s 			page 283


 15342 415c 04       		.byte	0x4
 15343 415d 00       		.byte	0
 15344 415e 05       		.uleb128 0x5
 15345 415f 04       		.byte	0x4
 15346 4160 38410000 		.4byte	0x4138
 15347 4164 03       		.uleb128 0x3
 15348 4165 DC280000 		.4byte	.LASF862
 15349 4169 41       		.byte	0x41
 15350 416a 3F       		.byte	0x3f
 15351 416b 3D410000 		.4byte	0x413d
 15352 416f 0F       		.uleb128 0xf
 15353 4170 64410000 		.4byte	0x4164
 15354 4174 27       		.uleb128 0x27
 15355 4175 7B190000 		.4byte	.LASF863
 15356 4179 41       		.byte	0x41
 15357 417a 42       		.byte	0x42
 15358 417b 681B0000 		.4byte	0x1b68
 15359 417f 27       		.uleb128 0x27
 15360 4180 930C0000 		.4byte	.LASF864
 15361 4184 42       		.byte	0x42
 15362 4185 14       		.byte	0x14
 15363 4186 273E0000 		.4byte	0x3e27
 15364 418a 27       		.uleb128 0x27
 15365 418b 6D0D0000 		.4byte	.LASF865
 15366 418f 42       		.byte	0x42
 15367 4190 15       		.byte	0x15
 15368 4191 6D3F0000 		.4byte	0x3f6d
 15369 4195 27       		.uleb128 0x27
 15370 4196 0F160000 		.4byte	.LASF866
 15371 419a 42       		.byte	0x42
 15372 419b 16       		.byte	0x16
 15373 419c BB3E0000 		.4byte	0x3ebb
 15374 41a0 27       		.uleb128 0x27
 15375 41a1 F8010000 		.4byte	.LASF867
 15376 41a5 43       		.byte	0x43
 15377 41a6 63       		.byte	0x63
 15378 41a7 6F010000 		.4byte	0x16f
 15379 41ab 03       		.uleb128 0x3
 15380 41ac 810D0000 		.4byte	.LASF868
 15381 41b0 44       		.byte	0x44
 15382 41b1 23       		.byte	0x23
 15383 41b2 7B000000 		.4byte	0x7b
 15384 41b6 2B       		.uleb128 0x2b
 15385 41b7 07       		.byte	0x7
 15386 41b8 01       		.byte	0x1
 15387 41b9 69000000 		.4byte	0x69
 15388 41bd 45       		.byte	0x45
 15389 41be 37       		.byte	0x37
 15390 41bf CA410000 		.4byte	0x41ca
 15391 41c3 23       		.uleb128 0x23
 15392 41c4 7A170000 		.4byte	.LASF869
 15393 41c8 10       		.byte	0x10
 15394 41c9 00       		.byte	0
 15395 41ca 0C       		.uleb128 0xc
 15396 41cb 08       		.byte	0x8
 15397 41cc 46       		.byte	0x46
 15398 41cd 47       		.byte	0x47
ARM GAS  C:\Users\PCHAUT~1\AppData\Local\Temp\ccLw8kky.s 			page 284


 15399 41ce EB410000 		.4byte	0x41eb
 15400 41d2 0D       		.uleb128 0xd
 15401 41d3 17110000 		.4byte	.LASF614
 15402 41d7 46       		.byte	0x46
 15403 41d8 49       		.byte	0x49
 15404 41d9 AB410000 		.4byte	0x41ab
 15405 41dd 00       		.byte	0
 15406 41de 0D       		.uleb128 0xd
 15407 41df EB2B0000 		.4byte	.LASF870
 15408 41e3 46       		.byte	0x46
 15409 41e4 4A       		.byte	0x4a
 15410 41e5 ED050000 		.4byte	0x5ed
 15411 41e9 04       		.byte	0x4
 15412 41ea 00       		.byte	0
 15413 41eb 03       		.uleb128 0x3
 15414 41ec 6B090000 		.4byte	.LASF871
 15415 41f0 46       		.byte	0x46
 15416 41f1 4B       		.byte	0x4b
 15417 41f2 CA410000 		.4byte	0x41ca
 15418 41f6 0C       		.uleb128 0xc
 15419 41f7 08       		.byte	0x8
 15420 41f8 46       		.byte	0x46
 15421 41f9 4E       		.byte	0x4e
 15422 41fa 23420000 		.4byte	0x4223
 15423 41fe 0D       		.uleb128 0xd
 15424 41ff EB2B0000 		.4byte	.LASF870
 15425 4203 46       		.byte	0x46
 15426 4204 50       		.byte	0x50
 15427 4205 ED050000 		.4byte	0x5ed
 15428 4209 00       		.byte	0
 15429 420a 11       		.uleb128 0x11
 15430 420b 646F6300 		.ascii	"doc\000"
 15431 420f 46       		.byte	0x46
 15432 4210 51       		.byte	0x51
 15433 4211 ED050000 		.4byte	0x5ed
 15434 4215 04       		.byte	0x4
 15435 4216 0D       		.uleb128 0xd
 15436 4217 770D0000 		.4byte	.LASF872
 15437 421b 46       		.byte	0x46
 15438 421c 52       		.byte	0x52
 15439 421d 23420000 		.4byte	0x4223
 15440 4221 08       		.byte	0x8
 15441 4222 00       		.byte	0
 15442 4223 0A       		.uleb128 0xa
 15443 4224 EB410000 		.4byte	0x41eb
 15444 4228 32420000 		.4byte	0x4232
 15445 422c 35       		.uleb128 0x35
 15446 422d 37000000 		.4byte	0x37
 15447 4231 00       		.byte	0
 15448 4232 03       		.uleb128 0x3
 15449 4233 781D0000 		.4byte	.LASF873
 15450 4237 46       		.byte	0x46
 15451 4238 53       		.byte	0x53
 15452 4239 F6410000 		.4byte	0x41f6
 15453 423d 0F       		.uleb128 0xf
 15454 423e 32420000 		.4byte	0x4232
 15455 4242 27       		.uleb128 0x27
ARM GAS  C:\Users\PCHAUT~1\AppData\Local\Temp\ccLw8kky.s 			page 285


 15456 4243 35200000 		.4byte	.LASF874
 15457 4247 46       		.byte	0x46
 15458 4248 62       		.byte	0x62
 15459 4249 3D420000 		.4byte	0x423d
 15460 424d 27       		.uleb128 0x27
 15461 424e 86160000 		.4byte	.LASF875
 15462 4252 46       		.byte	0x46
 15463 4253 67       		.byte	0x67
 15464 4254 3D420000 		.4byte	0x423d
 15465 4258 27       		.uleb128 0x27
 15466 4259 350A0000 		.4byte	.LASF876
 15467 425d 46       		.byte	0x46
 15468 425e 6C       		.byte	0x6c
 15469 425f 3D420000 		.4byte	0x423d
 15470 4263 27       		.uleb128 0x27
 15471 4264 F6180000 		.4byte	.LASF877
 15472 4268 46       		.byte	0x46
 15473 4269 71       		.byte	0x71
 15474 426a 3D420000 		.4byte	0x423d
 15475 426e 27       		.uleb128 0x27
 15476 426f C9190000 		.4byte	.LASF878
 15477 4273 46       		.byte	0x46
 15478 4274 76       		.byte	0x76
 15479 4275 3D420000 		.4byte	0x423d
 15480 4279 27       		.uleb128 0x27
 15481 427a 752E0000 		.4byte	.LASF879
 15482 427e 46       		.byte	0x46
 15483 427f 7B       		.byte	0x7b
 15484 4280 3D420000 		.4byte	0x423d
 15485 4284 27       		.uleb128 0x27
 15486 4285 BA300000 		.4byte	.LASF880
 15487 4289 46       		.byte	0x46
 15488 428a 80       		.byte	0x80
 15489 428b 3D420000 		.4byte	0x423d
 15490 428f 27       		.uleb128 0x27
 15491 4290 2B240000 		.4byte	.LASF881
 15492 4294 46       		.byte	0x46
 15493 4295 85       		.byte	0x85
 15494 4296 3D420000 		.4byte	0x423d
 15495 429a 27       		.uleb128 0x27
 15496 429b 761E0000 		.4byte	.LASF882
 15497 429f 46       		.byte	0x46
 15498 42a0 8A       		.byte	0x8a
 15499 42a1 3D420000 		.4byte	0x423d
 15500 42a5 27       		.uleb128 0x27
 15501 42a6 7E120000 		.4byte	.LASF883
 15502 42aa 46       		.byte	0x46
 15503 42ab 8F       		.byte	0x8f
 15504 42ac 3D420000 		.4byte	0x423d
 15505 42b0 27       		.uleb128 0x27
 15506 42b1 5D300000 		.4byte	.LASF884
 15507 42b5 46       		.byte	0x46
 15508 42b6 94       		.byte	0x94
 15509 42b7 3D420000 		.4byte	0x423d
 15510 42bb 27       		.uleb128 0x27
 15511 42bc C71D0000 		.4byte	.LASF885
 15512 42c0 46       		.byte	0x46
ARM GAS  C:\Users\PCHAUT~1\AppData\Local\Temp\ccLw8kky.s 			page 286


 15513 42c1 99       		.byte	0x99
 15514 42c2 3D420000 		.4byte	0x423d
 15515 42c6 27       		.uleb128 0x27
 15516 42c7 E9240000 		.4byte	.LASF886
 15517 42cb 46       		.byte	0x46
 15518 42cc 9E       		.byte	0x9e
 15519 42cd 3D420000 		.4byte	0x423d
 15520 42d1 27       		.uleb128 0x27
 15521 42d2 D0130000 		.4byte	.LASF887
 15522 42d6 46       		.byte	0x46
 15523 42d7 A3       		.byte	0xa3
 15524 42d8 3D420000 		.4byte	0x423d
 15525 42dc 27       		.uleb128 0x27
 15526 42dd 6B070000 		.4byte	.LASF888
 15527 42e1 46       		.byte	0x46
 15528 42e2 A8       		.byte	0xa8
 15529 42e3 3D420000 		.4byte	0x423d
 15530 42e7 27       		.uleb128 0x27
 15531 42e8 FE130000 		.4byte	.LASF889
 15532 42ec 46       		.byte	0x46
 15533 42ed AD       		.byte	0xad
 15534 42ee 3D420000 		.4byte	0x423d
 15535 42f2 27       		.uleb128 0x27
 15536 42f3 C12D0000 		.4byte	.LASF890
 15537 42f7 46       		.byte	0x46
 15538 42f8 B2       		.byte	0xb2
 15539 42f9 3D420000 		.4byte	0x423d
 15540 42fd 27       		.uleb128 0x27
 15541 42fe 24180000 		.4byte	.LASF891
 15542 4302 46       		.byte	0x46
 15543 4303 B7       		.byte	0xb7
 15544 4304 3D420000 		.4byte	0x423d
 15545 4308 27       		.uleb128 0x27
 15546 4309 C5230000 		.4byte	.LASF892
 15547 430d 46       		.byte	0x46
 15548 430e BC       		.byte	0xbc
 15549 430f 3D420000 		.4byte	0x423d
 15550 4313 27       		.uleb128 0x27
 15551 4314 92130000 		.4byte	.LASF893
 15552 4318 46       		.byte	0x46
 15553 4319 C1       		.byte	0xc1
 15554 431a 3D420000 		.4byte	0x423d
 15555 431e 27       		.uleb128 0x27
 15556 431f BF0D0000 		.4byte	.LASF894
 15557 4323 46       		.byte	0x46
 15558 4324 C6       		.byte	0xc6
 15559 4325 3D420000 		.4byte	0x423d
 15560 4329 27       		.uleb128 0x27
 15561 432a 86300000 		.4byte	.LASF895
 15562 432e 46       		.byte	0x46
 15563 432f CF       		.byte	0xcf
 15564 4330 3D420000 		.4byte	0x423d
 15565 4334 05       		.uleb128 0x5
 15566 4335 04       		.byte	0x4
 15567 4336 83090000 		.4byte	0x983
 15568 433a 2B       		.uleb128 0x2b
 15569 433b 07       		.byte	0x7
ARM GAS  C:\Users\PCHAUT~1\AppData\Local\Temp\ccLw8kky.s 			page 287


 15570 433c 01       		.byte	0x1
 15571 433d 69000000 		.4byte	0x69
 15572 4341 47       		.byte	0x47
 15573 4342 10       		.byte	0x10
 15574 4343 A8430000 		.4byte	0x43a8
 15575 4347 23       		.uleb128 0x23
 15576 4348 8B030000 		.4byte	.LASF896
 15577 434c 00       		.byte	0
 15578 434d 23       		.uleb128 0x23
 15579 434e 48290000 		.4byte	.LASF897
 15580 4352 01       		.byte	0x1
 15581 4353 23       		.uleb128 0x23
 15582 4354 C8290000 		.4byte	.LASF898
 15583 4358 02       		.byte	0x2
 15584 4359 23       		.uleb128 0x23
 15585 435a CB1F0000 		.4byte	.LASF899
 15586 435e 03       		.byte	0x3
 15587 435f 23       		.uleb128 0x23
 15588 4360 A0260000 		.4byte	.LASF900
 15589 4364 10       		.byte	0x10
 15590 4365 23       		.uleb128 0x23
 15591 4366 DF1C0000 		.4byte	.LASF901
 15592 436a 11       		.byte	0x11
 15593 436b 23       		.uleb128 0x23
 15594 436c CA220000 		.4byte	.LASF902
 15595 4370 12       		.byte	0x12
 15596 4371 23       		.uleb128 0x23
 15597 4372 68100000 		.4byte	.LASF903
 15598 4376 13       		.byte	0x13
 15599 4377 23       		.uleb128 0x23
 15600 4378 91220000 		.4byte	.LASF904
 15601 437c 30       		.byte	0x30
 15602 437d 23       		.uleb128 0x23
 15603 437e 23280000 		.4byte	.LASF905
 15604 4382 31       		.byte	0x31
 15605 4383 23       		.uleb128 0x23
 15606 4384 BE170000 		.4byte	.LASF906
 15607 4388 32       		.byte	0x32
 15608 4389 23       		.uleb128 0x23
 15609 438a 13240000 		.4byte	.LASF907
 15610 438e 33       		.byte	0x33
 15611 438f 23       		.uleb128 0x23
 15612 4390 891C0000 		.4byte	.LASF908
 15613 4394 36       		.byte	0x36
 15614 4395 23       		.uleb128 0x23
 15615 4396 B3010000 		.4byte	.LASF909
 15616 439a 37       		.byte	0x37
 15617 439b 23       		.uleb128 0x23
 15618 439c FF270000 		.4byte	.LASF910
 15619 43a0 41       		.byte	0x41
 15620 43a1 23       		.uleb128 0x23
 15621 43a2 14170000 		.4byte	.LASF911
 15622 43a6 44       		.byte	0x44
 15623 43a7 00       		.byte	0
 15624 43a8 03       		.uleb128 0x3
 15625 43a9 E4170000 		.4byte	.LASF912
 15626 43ad 47       		.byte	0x47
ARM GAS  C:\Users\PCHAUT~1\AppData\Local\Temp\ccLw8kky.s 			page 288


 15627 43ae 21       		.byte	0x21
 15628 43af 3A430000 		.4byte	0x433a
 15629 43b3 2B       		.uleb128 0x2b
 15630 43b4 07       		.byte	0x7
 15631 43b5 01       		.byte	0x1
 15632 43b6 69000000 		.4byte	0x69
 15633 43ba 47       		.byte	0x47
 15634 43bb 29       		.byte	0x29
 15635 43bc D3430000 		.4byte	0x43d3
 15636 43c0 23       		.uleb128 0x23
 15637 43c1 A6030000 		.4byte	.LASF913
 15638 43c5 20       		.byte	0x20
 15639 43c6 23       		.uleb128 0x23
 15640 43c7 5F2A0000 		.4byte	.LASF914
 15641 43cb 40       		.byte	0x40
 15642 43cc 23       		.uleb128 0x23
 15643 43cd 6E2A0000 		.4byte	.LASF915
 15644 43d1 80       		.byte	0x80
 15645 43d2 00       		.byte	0
 15646 43d3 03       		.uleb128 0x3
 15647 43d4 A9150000 		.4byte	.LASF916
 15648 43d8 47       		.byte	0x47
 15649 43d9 2D       		.byte	0x2d
 15650 43da B3430000 		.4byte	0x43b3
 15651 43de 2B       		.uleb128 0x2b
 15652 43df 07       		.byte	0x7
 15653 43e0 01       		.byte	0x1
 15654 43e1 69000000 		.4byte	0x69
 15655 43e5 48       		.byte	0x48
 15656 43e6 83       		.byte	0x83
 15657 43e7 F8430000 		.4byte	0x43f8
 15658 43eb 23       		.uleb128 0x23
 15659 43ec B32E0000 		.4byte	.LASF917
 15660 43f0 00       		.byte	0
 15661 43f1 23       		.uleb128 0x23
 15662 43f2 8B210000 		.4byte	.LASF918
 15663 43f6 01       		.byte	0x1
 15664 43f7 00       		.byte	0
 15665 43f8 03       		.uleb128 0x3
 15666 43f9 292F0000 		.4byte	.LASF919
 15667 43fd 48       		.byte	0x48
 15668 43fe 86       		.byte	0x86
 15669 43ff DE430000 		.4byte	0x43de
 15670 4403 2B       		.uleb128 0x2b
 15671 4404 07       		.byte	0x7
 15672 4405 01       		.byte	0x1
 15673 4406 69000000 		.4byte	0x69
 15674 440a 48       		.byte	0x48
 15675 440b 8B       		.byte	0x8b
 15676 440c 41440000 		.4byte	0x4441
 15677 4410 23       		.uleb128 0x23
 15678 4411 46080000 		.4byte	.LASF920
 15679 4415 00       		.byte	0
 15680 4416 23       		.uleb128 0x23
 15681 4417 20040000 		.4byte	.LASF921
 15682 441b 01       		.byte	0x1
 15683 441c 23       		.uleb128 0x23
ARM GAS  C:\Users\PCHAUT~1\AppData\Local\Temp\ccLw8kky.s 			page 289


 15684 441d 08290000 		.4byte	.LASF922
 15685 4421 02       		.byte	0x2
 15686 4422 23       		.uleb128 0x23
 15687 4423 22270000 		.4byte	.LASF923
 15688 4427 03       		.byte	0x3
 15689 4428 23       		.uleb128 0x23
 15690 4429 8D000000 		.4byte	.LASF924
 15691 442d 04       		.byte	0x4
 15692 442e 23       		.uleb128 0x23
 15693 442f 40220000 		.4byte	.LASF925
 15694 4433 05       		.byte	0x5
 15695 4434 23       		.uleb128 0x23
 15696 4435 53180000 		.4byte	.LASF926
 15697 4439 06       		.byte	0x6
 15698 443a 23       		.uleb128 0x23
 15699 443b 0C210000 		.4byte	.LASF927
 15700 443f 07       		.byte	0x7
 15701 4440 00       		.byte	0
 15702 4441 03       		.uleb128 0x3
 15703 4442 BB1D0000 		.4byte	.LASF928
 15704 4446 48       		.byte	0x48
 15705 4447 94       		.byte	0x94
 15706 4448 03440000 		.4byte	0x4403
 15707 444c 03       		.uleb128 0x3
 15708 444d 44050000 		.4byte	.LASF929
 15709 4451 48       		.byte	0x48
 15710 4452 99       		.byte	0x99
 15711 4453 57440000 		.4byte	0x4457
 15712 4457 10       		.uleb128 0x10
 15713 4458 44050000 		.4byte	.LASF929
 15714 445c 14       		.byte	0x14
 15715 445d 48       		.byte	0x48
 15716 445e C3       		.byte	0xc3
 15717 445f A0440000 		.4byte	0x44a0
 15718 4463 0D       		.uleb128 0xd
 15719 4464 831C0000 		.4byte	.LASF465
 15720 4468 48       		.byte	0x48
 15721 4469 C7       		.byte	0xc7
 15722 446a 41440000 		.4byte	0x4441
 15723 446e 00       		.byte	0
 15724 446f 0D       		.uleb128 0xd
 15725 4470 A2240000 		.4byte	.LASF466
 15726 4474 48       		.byte	0x48
 15727 4475 CB       		.byte	0xcb
 15728 4476 2B450000 		.4byte	0x452b
 15729 447a 04       		.byte	0x4
 15730 447b 0D       		.uleb128 0xd
 15731 447c 4D2B0000 		.4byte	.LASF930
 15732 4480 48       		.byte	0x48
 15733 4481 CF       		.byte	0xcf
 15734 4482 31450000 		.4byte	0x4531
 15735 4486 08       		.byte	0x8
 15736 4487 0D       		.uleb128 0xd
 15737 4488 A30E0000 		.4byte	.LASF472
 15738 448c 48       		.byte	0x48
 15739 448d D3       		.byte	0xd3
 15740 448e 4B230000 		.4byte	0x234b
ARM GAS  C:\Users\PCHAUT~1\AppData\Local\Temp\ccLw8kky.s 			page 290


 15741 4492 0C       		.byte	0xc
 15742 4493 0D       		.uleb128 0xd
 15743 4494 621F0000 		.4byte	.LASF473
 15744 4498 48       		.byte	0x48
 15745 4499 D7       		.byte	0xd7
 15746 449a A9090000 		.4byte	0x9a9
 15747 449e 10       		.byte	0x10
 15748 449f 00       		.byte	0
 15749 44a0 03       		.uleb128 0x3
 15750 44a1 28120000 		.4byte	.LASF931
 15751 44a5 48       		.byte	0x48
 15752 44a6 A0       		.byte	0xa0
 15753 44a7 AB440000 		.4byte	0x44ab
 15754 44ab 05       		.uleb128 0x5
 15755 44ac 04       		.byte	0x4
 15756 44ad B1440000 		.4byte	0x44b1
 15757 44b1 1F       		.uleb128 0x1f
 15758 44b2 BC440000 		.4byte	0x44bc
 15759 44b6 16       		.uleb128 0x16
 15760 44b7 BC440000 		.4byte	0x44bc
 15761 44bb 00       		.byte	0
 15762 44bc 05       		.uleb128 0x5
 15763 44bd 04       		.byte	0x4
 15764 44be 4C440000 		.4byte	0x444c
 15765 44c2 03       		.uleb128 0x3
 15766 44c3 4E220000 		.4byte	.LASF932
 15767 44c7 48       		.byte	0x48
 15768 44c8 A8       		.byte	0xa8
 15769 44c9 CD440000 		.4byte	0x44cd
 15770 44cd 05       		.uleb128 0x5
 15771 44ce 04       		.byte	0x4
 15772 44cf D3440000 		.4byte	0x44d3
 15773 44d3 1F       		.uleb128 0x1f
 15774 44d4 E3440000 		.4byte	0x44e3
 15775 44d8 16       		.uleb128 0x16
 15776 44d9 BC440000 		.4byte	0x44bc
 15777 44dd 16       		.uleb128 0x16
 15778 44de F8430000 		.4byte	0x43f8
 15779 44e2 00       		.byte	0
 15780 44e3 0C       		.uleb128 0xc
 15781 44e4 10       		.byte	0x10
 15782 44e5 48       		.byte	0x48
 15783 44e6 AD       		.byte	0xad
 15784 44e7 1B450000 		.4byte	0x451b
 15785 44eb 0D       		.uleb128 0xd
 15786 44ec F4250000 		.4byte	.LASF933
 15787 44f0 48       		.byte	0x48
 15788 44f1 B1       		.byte	0xb1
 15789 44f2 A0440000 		.4byte	0x44a0
 15790 44f6 00       		.byte	0
 15791 44f7 0D       		.uleb128 0xd
 15792 44f8 152D0000 		.4byte	.LASF934
 15793 44fc 48       		.byte	0x48
 15794 44fd B5       		.byte	0xb5
 15795 44fe A0440000 		.4byte	0x44a0
 15796 4502 04       		.byte	0x4
 15797 4503 0D       		.uleb128 0xd
ARM GAS  C:\Users\PCHAUT~1\AppData\Local\Temp\ccLw8kky.s 			page 291


 15798 4504 C72E0000 		.4byte	.LASF479
 15799 4508 48       		.byte	0x48
 15800 4509 B9       		.byte	0xb9
 15801 450a C2440000 		.4byte	0x44c2
 15802 450e 08       		.byte	0x8
 15803 450f 11       		.uleb128 0x11
 15804 4510 637200   		.ascii	"cr\000"
 15805 4513 48       		.byte	0x48
 15806 4514 BD       		.byte	0xbd
 15807 4515 A9090000 		.4byte	0x9a9
 15808 4519 0C       		.byte	0xc
 15809 451a 00       		.byte	0
 15810 451b 03       		.uleb128 0x3
 15811 451c 7B300000 		.4byte	.LASF935
 15812 4520 48       		.byte	0x48
 15813 4521 BE       		.byte	0xbe
 15814 4522 E3440000 		.4byte	0x44e3
 15815 4526 0F       		.uleb128 0xf
 15816 4527 1B450000 		.4byte	0x451b
 15817 452b 05       		.uleb128 0x5
 15818 452c 04       		.byte	0x4
 15819 452d 26450000 		.4byte	0x4526
 15820 4531 05       		.uleb128 0x5
 15821 4532 04       		.byte	0x4
 15822 4533 BE120000 		.4byte	0x12be
 15823 4537 27       		.uleb128 0x27
 15824 4538 9B050000 		.4byte	.LASF936
 15825 453c 48       		.byte	0x48
 15826 453d E3       		.byte	0xe3
 15827 453e 4C440000 		.4byte	0x444c
 15828 4542 2B       		.uleb128 0x2b
 15829 4543 07       		.byte	0x7
 15830 4544 01       		.byte	0x1
 15831 4545 69000000 		.4byte	0x69
 15832 4549 49       		.byte	0x49
 15833 454a 0B       		.byte	0xb
 15834 454b 5C450000 		.4byte	0x455c
 15835 454f 23       		.uleb128 0x23
 15836 4550 54200000 		.4byte	.LASF937
 15837 4554 00       		.byte	0
 15838 4555 23       		.uleb128 0x23
 15839 4556 AC0D0000 		.4byte	.LASF938
 15840 455a 01       		.byte	0x1
 15841 455b 00       		.byte	0
 15842 455c 03       		.uleb128 0x3
 15843 455d 63160000 		.4byte	.LASF939
 15844 4561 4A       		.byte	0x4a
 15845 4562 08       		.byte	0x8
 15846 4563 67450000 		.4byte	0x4567
 15847 4567 10       		.uleb128 0x10
 15848 4568 3F270000 		.4byte	.LASF940
 15849 456c 18       		.byte	0x18
 15850 456d 4A       		.byte	0x4a
 15851 456e 0B       		.byte	0xb
 15852 456f BB450000 		.4byte	0x45bb
 15853 4573 11       		.uleb128 0x11
 15854 4574 696400   		.ascii	"id\000"
ARM GAS  C:\Users\PCHAUT~1\AppData\Local\Temp\ccLw8kky.s 			page 292


 15855 4577 4A       		.byte	0x4a
 15856 4578 0C       		.byte	0xc
 15857 4579 ED050000 		.4byte	0x5ed
 15858 457d 00       		.byte	0
 15859 457e 0D       		.uleb128 0xd
 15860 457f EC010000 		.4byte	.LASF941
 15861 4583 4A       		.byte	0x4a
 15862 4584 0D       		.byte	0xd
 15863 4585 99090000 		.4byte	0x999
 15864 4589 04       		.byte	0x4
 15865 458a 0D       		.uleb128 0xd
 15866 458b 6F050000 		.4byte	.LASF942
 15867 458f 4A       		.byte	0x4a
 15868 4590 0E       		.byte	0xe
 15869 4591 25460000 		.4byte	0x4625
 15870 4595 08       		.byte	0x8
 15871 4596 0D       		.uleb128 0xd
 15872 4597 440F0000 		.4byte	.LASF943
 15873 459b 4A       		.byte	0x4a
 15874 459c 0F       		.byte	0xf
 15875 459d 25460000 		.4byte	0x4625
 15876 45a1 0C       		.byte	0xc
 15877 45a2 0D       		.uleb128 0xd
 15878 45a3 FE020000 		.4byte	.LASF944
 15879 45a7 4A       		.byte	0x4a
 15880 45a8 10       		.byte	0x10
 15881 45a9 25460000 		.4byte	0x4625
 15882 45ad 10       		.byte	0x10
 15883 45ae 0D       		.uleb128 0xd
 15884 45af 532F0000 		.4byte	.LASF945
 15885 45b3 4A       		.byte	0x4a
 15886 45b4 11       		.byte	0x11
 15887 45b5 2B460000 		.4byte	0x462b
 15888 45b9 14       		.byte	0x14
 15889 45ba 00       		.byte	0
 15890 45bb 03       		.uleb128 0x3
 15891 45bc F91A0000 		.4byte	.LASF946
 15892 45c0 4A       		.byte	0x4a
 15893 45c1 09       		.byte	0x9
 15894 45c2 C6450000 		.4byte	0x45c6
 15895 45c6 10       		.uleb128 0x10
 15896 45c7 D9140000 		.4byte	.LASF947
 15897 45cb 18       		.byte	0x18
 15898 45cc 4A       		.byte	0x4a
 15899 45cd 2E       		.byte	0x2e
 15900 45ce 25460000 		.4byte	0x4625
 15901 45d2 11       		.uleb128 0x11
 15902 45d3 696400   		.ascii	"id\000"
 15903 45d6 4A       		.byte	0x4a
 15904 45d7 2F       		.byte	0x2f
 15905 45d8 ED050000 		.4byte	0x5ed
 15906 45dc 00       		.byte	0
 15907 45dd 11       		.uleb128 0x11
 15908 45de 6E7300   		.ascii	"ns\000"
 15909 45e1 4A       		.byte	0x4a
 15910 45e2 30       		.byte	0x30
 15911 45e3 25460000 		.4byte	0x4625
ARM GAS  C:\Users\PCHAUT~1\AppData\Local\Temp\ccLw8kky.s 			page 293


 15912 45e7 04       		.byte	0x4
 15913 45e8 0D       		.uleb128 0xd
 15914 45e9 FE020000 		.4byte	.LASF944
 15915 45ed 4A       		.byte	0x4a
 15916 45ee 31       		.byte	0x31
 15917 45ef 2B460000 		.4byte	0x462b
 15918 45f3 08       		.byte	0x8
 15919 45f4 0D       		.uleb128 0xd
 15920 45f5 31260000 		.4byte	.LASF948
 15921 45f9 4A       		.byte	0x4a
 15922 45fa 32       		.byte	0x32
 15923 45fb 911E0000 		.4byte	0x1e91
 15924 45ff 0C       		.byte	0xc
 15925 4600 0D       		.uleb128 0xd
 15926 4601 98150000 		.4byte	.LASF949
 15927 4605 4A       		.byte	0x4a
 15928 4606 33       		.byte	0x33
 15929 4607 911E0000 		.4byte	0x1e91
 15930 460b 0D       		.byte	0xd
 15931 460c 0D       		.uleb128 0xd
 15932 460d 2F090000 		.4byte	.LASF950
 15933 4611 4A       		.byte	0x4a
 15934 4612 34       		.byte	0x34
 15935 4613 73090000 		.4byte	0x973
 15936 4617 0E       		.byte	0xe
 15937 4618 0D       		.uleb128 0xd
 15938 4619 3E100000 		.4byte	.LASF951
 15939 461d 4A       		.byte	0x4a
 15940 461e 3C       		.byte	0x3c
 15941 461f C6460000 		.4byte	0x46c6
 15942 4623 10       		.byte	0x10
 15943 4624 00       		.byte	0
 15944 4625 05       		.uleb128 0x5
 15945 4626 04       		.byte	0x4
 15946 4627 5C450000 		.4byte	0x455c
 15947 462b 05       		.uleb128 0x5
 15948 462c 04       		.byte	0x4
 15949 462d BB450000 		.4byte	0x45bb
 15950 4631 10       		.uleb128 0x10
 15951 4632 FB1D0000 		.4byte	.LASF952
 15952 4636 08       		.byte	0x8
 15953 4637 4A       		.byte	0x4a
 15954 4638 14       		.byte	0x14
 15955 4639 62460000 		.4byte	0x4662
 15956 463d 11       		.uleb128 0x11
 15957 463e 62756600 		.ascii	"buf\000"
 15958 4642 4A       		.byte	0x4a
 15959 4643 15       		.byte	0x15
 15960 4644 6F010000 		.4byte	0x16f
 15961 4648 00       		.byte	0
 15962 4649 0D       		.uleb128 0xd
 15963 464a F62E0000 		.4byte	.LASF953
 15964 464e 4A       		.byte	0x4a
 15965 464f 16       		.byte	0x16
 15966 4650 8E090000 		.4byte	0x98e
 15967 4654 04       		.byte	0x4
 15968 4655 11       		.uleb128 0x11
ARM GAS  C:\Users\PCHAUT~1\AppData\Local\Temp\ccLw8kky.s 			page 294


 15969 4656 6C656E00 		.ascii	"len\000"
 15970 465a 4A       		.byte	0x4a
 15971 465b 17       		.byte	0x17
 15972 465c 8E090000 		.4byte	0x98e
 15973 4660 06       		.byte	0x6
 15974 4661 00       		.byte	0
 15975 4662 10       		.uleb128 0x10
 15976 4663 231C0000 		.4byte	.LASF954
 15977 4667 08       		.byte	0x8
 15978 4668 4A       		.byte	0x4a
 15979 4669 1A       		.byte	0x1a
 15980 466a 93460000 		.4byte	0x4693
 15981 466e 11       		.uleb128 0x11
 15982 466f 62756600 		.ascii	"buf\000"
 15983 4673 4A       		.byte	0x4a
 15984 4674 1B       		.byte	0x1b
 15985 4675 93460000 		.4byte	0x4693
 15986 4679 00       		.byte	0
 15987 467a 0D       		.uleb128 0xd
 15988 467b 1B0B0000 		.4byte	.LASF955
 15989 467f 4A       		.byte	0x4a
 15990 4680 1C       		.byte	0x1c
 15991 4681 8E090000 		.4byte	0x98e
 15992 4685 04       		.byte	0x4
 15993 4686 11       		.uleb128 0x11
 15994 4687 64696D00 		.ascii	"dim\000"
 15995 468b 4A       		.byte	0x4a
 15996 468c 1D       		.byte	0x1d
 15997 468d 8E090000 		.4byte	0x98e
 15998 4691 06       		.byte	0x6
 15999 4692 00       		.byte	0
 16000 4693 05       		.uleb128 0x5
 16001 4694 04       		.byte	0x4
 16002 4695 F6080000 		.4byte	0x8f6
 16003 4699 10       		.uleb128 0x10
 16004 469a 56140000 		.4byte	.LASF956
 16005 469e 08       		.byte	0x8
 16006 469f 4A       		.byte	0x4a
 16007 46a0 20       		.byte	0x20
 16008 46a1 C6460000 		.4byte	0x46c6
 16009 46a5 11       		.uleb128 0x11
 16010 46a6 62756600 		.ascii	"buf\000"
 16011 46aa 4A       		.byte	0x4a
 16012 46ab 21       		.byte	0x21
 16013 46ac 93460000 		.4byte	0x4693
 16014 46b0 00       		.byte	0
 16015 46b1 11       		.uleb128 0x11
 16016 46b2 6E00     		.ascii	"n\000"
 16017 46b4 4A       		.byte	0x4a
 16018 46b5 22       		.byte	0x22
 16019 46b6 8E090000 		.4byte	0x98e
 16020 46ba 04       		.byte	0x4
 16021 46bb 11       		.uleb128 0x11
 16022 46bc 6D00     		.ascii	"m\000"
 16023 46be 4A       		.byte	0x4a
 16024 46bf 23       		.byte	0x23
 16025 46c0 8E090000 		.4byte	0x98e
ARM GAS  C:\Users\PCHAUT~1\AppData\Local\Temp\ccLw8kky.s 			page 295


 16026 46c4 06       		.byte	0x6
 16027 46c5 00       		.byte	0
 16028 46c6 08       		.uleb128 0x8
 16029 46c7 08       		.byte	0x8
 16030 46c8 4A       		.byte	0x4a
 16031 46c9 35       		.byte	0x35
 16032 46ca 0B470000 		.4byte	0x470b
 16033 46ce 2C       		.uleb128 0x2c
 16034 46cf 6200     		.ascii	"b\000"
 16035 46d1 4A       		.byte	0x4a
 16036 46d2 36       		.byte	0x36
 16037 46d3 911E0000 		.4byte	0x1e91
 16038 46d7 2C       		.uleb128 0x2c
 16039 46d8 7300     		.ascii	"s\000"
 16040 46da 4A       		.byte	0x4a
 16041 46db 37       		.byte	0x37
 16042 46dc F6080000 		.4byte	0x8f6
 16043 46e0 2C       		.uleb128 0x2c
 16044 46e1 6900     		.ascii	"i\000"
 16045 46e3 4A       		.byte	0x4a
 16046 46e4 38       		.byte	0x38
 16047 46e5 99090000 		.4byte	0x999
 16048 46e9 2C       		.uleb128 0x2c
 16049 46ea 73747200 		.ascii	"str\000"
 16050 46ee 4A       		.byte	0x4a
 16051 46ef 39       		.byte	0x39
 16052 46f0 31460000 		.4byte	0x4631
 16053 46f4 09       		.uleb128 0x9
 16054 46f5 3B010000 		.4byte	.LASF957
 16055 46f9 4A       		.byte	0x4a
 16056 46fa 3A       		.byte	0x3a
 16057 46fb 62460000 		.4byte	0x4662
 16058 46ff 2C       		.uleb128 0x2c
 16059 4700 6D617400 		.ascii	"mat\000"
 16060 4704 4A       		.byte	0x4a
 16061 4705 3B       		.byte	0x3b
 16062 4706 99460000 		.4byte	0x4699
 16063 470a 00       		.byte	0
 16064 470b 27       		.uleb128 0x27
 16065 470c B70C0000 		.4byte	.LASF958
 16066 4710 4B       		.byte	0x4b
 16067 4711 10       		.byte	0x10
 16068 4712 06410000 		.4byte	0x4106
 16069 4716 27       		.uleb128 0x27
 16070 4717 A5080000 		.4byte	.LASF959
 16071 471b 4B       		.byte	0x4b
 16072 471c E8       		.byte	0xe8
 16073 471d 6F010000 		.4byte	0x16f
 16074 4721 27       		.uleb128 0x27
 16075 4722 A92C0000 		.4byte	.LASF960
 16076 4726 4B       		.byte	0x4b
 16077 4727 E9       		.byte	0xe9
 16078 4728 25000000 		.4byte	0x25
 16079 472c 27       		.uleb128 0x27
 16080 472d 02110000 		.4byte	.LASF961
 16081 4731 4B       		.byte	0x4b
 16082 4732 E9       		.byte	0xe9
ARM GAS  C:\Users\PCHAUT~1\AppData\Local\Temp\ccLw8kky.s 			page 296


 16083 4733 25000000 		.4byte	0x25
 16084 4737 27       		.uleb128 0x27
 16085 4738 1B1A0000 		.4byte	.LASF962
 16086 473c 4B       		.byte	0x4b
 16087 473d E9       		.byte	0xe9
 16088 473e 25000000 		.4byte	0x25
 16089 4742 27       		.uleb128 0x27
 16090 4743 640A0000 		.4byte	.LASF963
 16091 4747 4B       		.byte	0x4b
 16092 4748 EB       		.byte	0xeb
 16093 4749 25000000 		.4byte	0x25
 16094 474d 10       		.uleb128 0x10
 16095 474e 75290000 		.4byte	.LASF964
 16096 4752 5C       		.byte	0x5c
 16097 4753 4C       		.byte	0x4c
 16098 4754 0C       		.byte	0xc
 16099 4755 BA470000 		.4byte	0x47ba
 16100 4759 0D       		.uleb128 0xd
 16101 475a 07240000 		.4byte	.LASF851
 16102 475e 4C       		.byte	0x4c
 16103 475f 0D       		.byte	0xd
 16104 4760 68010000 		.4byte	0x168
 16105 4764 00       		.byte	0
 16106 4765 0D       		.uleb128 0xd
 16107 4766 EA050000 		.4byte	.LASF965
 16108 476a 4C       		.byte	0x4c
 16109 476b 0E       		.byte	0xe
 16110 476c 2C000000 		.4byte	0x2c
 16111 4770 04       		.byte	0x4
 16112 4771 0D       		.uleb128 0xd
 16113 4772 AA0E0000 		.4byte	.LASF966
 16114 4776 4C       		.byte	0x4c
 16115 4777 0F       		.byte	0xf
 16116 4778 68010000 		.4byte	0x168
 16117 477c 08       		.byte	0x8
 16118 477d 0D       		.uleb128 0xd
 16119 477e 60080000 		.4byte	.LASF967
 16120 4782 4C       		.byte	0x4c
 16121 4783 10       		.byte	0x10
 16122 4784 68010000 		.4byte	0x168
 16123 4788 0C       		.byte	0xc
 16124 4789 0D       		.uleb128 0xd
 16125 478a EB2B0000 		.4byte	.LASF870
 16126 478e 4C       		.byte	0x4c
 16127 478f 11       		.byte	0x11
 16128 4790 BA470000 		.4byte	0x47ba
 16129 4794 10       		.byte	0x10
 16130 4795 0D       		.uleb128 0xd
 16131 4796 07020000 		.4byte	.LASF968
 16132 479a 4C       		.byte	0x4c
 16133 479b 12       		.byte	0x12
 16134 479c 911E0000 		.4byte	0x1e91
 16135 47a0 51       		.byte	0x51
 16136 47a1 0D       		.uleb128 0xd
 16137 47a2 3B280000 		.4byte	.LASF969
 16138 47a6 4C       		.byte	0x4c
 16139 47a7 13       		.byte	0x13
ARM GAS  C:\Users\PCHAUT~1\AppData\Local\Temp\ccLw8kky.s 			page 297


 16140 47a8 EF470000 		.4byte	0x47ef
 16141 47ac 54       		.byte	0x54
 16142 47ad 0D       		.uleb128 0xd
 16143 47ae FE020000 		.4byte	.LASF944
 16144 47b2 4C       		.byte	0x4c
 16145 47b3 14       		.byte	0x14
 16146 47b4 F5470000 		.4byte	0x47f5
 16147 47b8 58       		.byte	0x58
 16148 47b9 00       		.byte	0
 16149 47ba 0A       		.uleb128 0xa
 16150 47bb 75010000 		.4byte	0x175
 16151 47bf CA470000 		.4byte	0x47ca
 16152 47c3 0B       		.uleb128 0xb
 16153 47c4 37000000 		.4byte	0x37
 16154 47c8 40       		.byte	0x40
 16155 47c9 00       		.byte	0
 16156 47ca 10       		.uleb128 0x10
 16157 47cb 32000000 		.4byte	.LASF970
 16158 47cf 08       		.byte	0x8
 16159 47d0 4C       		.byte	0x4c
 16160 47d1 25       		.byte	0x25
 16161 47d2 EF470000 		.4byte	0x47ef
 16162 47d6 0D       		.uleb128 0xd
 16163 47d7 BA260000 		.4byte	.LASF971
 16164 47db 4C       		.byte	0x4c
 16165 47dc 26       		.byte	0x26
 16166 47dd 95480000 		.4byte	0x4895
 16167 47e1 00       		.byte	0
 16168 47e2 0D       		.uleb128 0xd
 16169 47e3 FE020000 		.4byte	.LASF944
 16170 47e7 4C       		.byte	0x4c
 16171 47e8 27       		.byte	0x27
 16172 47e9 EF470000 		.4byte	0x47ef
 16173 47ed 04       		.byte	0x4
 16174 47ee 00       		.byte	0
 16175 47ef 05       		.uleb128 0x5
 16176 47f0 04       		.byte	0x4
 16177 47f1 CA470000 		.4byte	0x47ca
 16178 47f5 05       		.uleb128 0x5
 16179 47f6 04       		.byte	0x4
 16180 47f7 4D470000 		.4byte	0x474d
 16181 47fb 03       		.uleb128 0x3
 16182 47fc 2D1F0000 		.4byte	.LASF972
 16183 4800 4C       		.byte	0x4c
 16184 4801 15       		.byte	0x15
 16185 4802 4D470000 		.4byte	0x474d
 16186 4806 0C       		.uleb128 0xc
 16187 4807 04       		.byte	0x4
 16188 4808 4C       		.byte	0x4c
 16189 4809 18       		.byte	0x18
 16190 480a 1B480000 		.4byte	0x481b
 16191 480e 0D       		.uleb128 0xd
 16192 480f 410E0000 		.4byte	.LASF973
 16193 4813 4C       		.byte	0x4c
 16194 4814 19       		.byte	0x19
 16195 4815 1B480000 		.4byte	0x481b
 16196 4819 00       		.byte	0
ARM GAS  C:\Users\PCHAUT~1\AppData\Local\Temp\ccLw8kky.s 			page 298


 16197 481a 00       		.byte	0
 16198 481b 05       		.uleb128 0x5
 16199 481c 04       		.byte	0x4
 16200 481d FB470000 		.4byte	0x47fb
 16201 4821 0C       		.uleb128 0xc
 16202 4822 0C       		.byte	0xc
 16203 4823 4C       		.byte	0x4c
 16204 4824 17       		.byte	0x17
 16205 4825 4E480000 		.4byte	0x484e
 16206 4829 0D       		.uleb128 0xd
 16207 482a DC290000 		.4byte	.LASF974
 16208 482e 4C       		.byte	0x4c
 16209 482f 1A       		.byte	0x1a
 16210 4830 06480000 		.4byte	0x4806
 16211 4834 00       		.byte	0
 16212 4835 0D       		.uleb128 0xd
 16213 4836 AA0E0000 		.4byte	.LASF966
 16214 483a 4C       		.byte	0x4c
 16215 483b 1B       		.byte	0x1b
 16216 483c 68010000 		.4byte	0x168
 16217 4840 04       		.byte	0x4
 16218 4841 0D       		.uleb128 0xd
 16219 4842 60080000 		.4byte	.LASF967
 16220 4846 4C       		.byte	0x4c
 16221 4847 1C       		.byte	0x1c
 16222 4848 68010000 		.4byte	0x168
 16223 484c 08       		.byte	0x8
 16224 484d 00       		.byte	0
 16225 484e 03       		.uleb128 0x3
 16226 484f B8140000 		.4byte	.LASF975
 16227 4853 4C       		.byte	0x4c
 16228 4854 1D       		.byte	0x1d
 16229 4855 21480000 		.4byte	0x4821
 16230 4859 10       		.uleb128 0x10
 16231 485a CA210000 		.4byte	.LASF976
 16232 485e 0C       		.byte	0xc
 16233 485f 4C       		.byte	0x4c
 16234 4860 1F       		.byte	0x1f
 16235 4861 8A480000 		.4byte	0x488a
 16236 4865 0D       		.uleb128 0xd
 16237 4866 AA0E0000 		.4byte	.LASF966
 16238 486a 4C       		.byte	0x4c
 16239 486b 20       		.byte	0x20
 16240 486c 68010000 		.4byte	0x168
 16241 4870 00       		.byte	0
 16242 4871 0D       		.uleb128 0xd
 16243 4872 60080000 		.4byte	.LASF967
 16244 4876 4C       		.byte	0x4c
 16245 4877 21       		.byte	0x21
 16246 4878 68010000 		.4byte	0x168
 16247 487c 04       		.byte	0x4
 16248 487d 0D       		.uleb128 0xd
 16249 487e 8B050000 		.4byte	.LASF977
 16250 4882 4C       		.byte	0x4c
 16251 4883 22       		.byte	0x22
 16252 4884 1B480000 		.4byte	0x481b
 16253 4888 08       		.byte	0x8
ARM GAS  C:\Users\PCHAUT~1\AppData\Local\Temp\ccLw8kky.s 			page 299


 16254 4889 00       		.byte	0
 16255 488a 03       		.uleb128 0x3
 16256 488b 65230000 		.4byte	.LASF978
 16257 488f 4C       		.byte	0x4c
 16258 4890 23       		.byte	0x23
 16259 4891 59480000 		.4byte	0x4859
 16260 4895 05       		.uleb128 0x5
 16261 4896 04       		.byte	0x4
 16262 4897 8A480000 		.4byte	0x488a
 16263 489b 34       		.uleb128 0x34
 16264 489c 62757300 		.ascii	"bus\000"
 16265 48a0 4D       		.byte	0x4d
 16266 48a1 0E       		.byte	0xe
 16267 48a2 4E480000 		.4byte	0x484e
 16268 48a6 27       		.uleb128 0x27
 16269 48a7 AE110000 		.4byte	.LASF979
 16270 48ab 4D       		.byte	0x4d
 16271 48ac 10       		.byte	0x10
 16272 48ad 5C450000 		.4byte	0x455c
 16273 48b1 03       		.uleb128 0x3
 16274 48b2 C1030000 		.4byte	.LASF980
 16275 48b6 4E       		.byte	0x4e
 16276 48b7 10       		.byte	0x10
 16277 48b8 69000000 		.4byte	0x69
 16278 48bc 03       		.uleb128 0x3
 16279 48bd A1180000 		.4byte	.LASF981
 16280 48c1 4E       		.byte	0x4e
 16281 48c2 14       		.byte	0x14
 16282 48c3 8D000000 		.4byte	0x8d
 16283 48c7 03       		.uleb128 0x3
 16284 48c8 711E0000 		.4byte	.LASF982
 16285 48cc 4E       		.byte	0x4e
 16286 48cd 19       		.byte	0x19
 16287 48ce 37000000 		.4byte	0x37
 16288 48d2 03       		.uleb128 0x3
 16289 48d3 11050000 		.4byte	.LASF983
 16290 48d7 4E       		.byte	0x4e
 16291 48d8 1D       		.byte	0x1d
 16292 48d9 B1000000 		.4byte	0xb1
 16293 48dd 29       		.uleb128 0x29
 16294 48de 3002     		.2byte	0x230
 16295 48e0 4F       		.byte	0x4f
 16296 48e1 4D       		.byte	0x4d
 16297 48e2 BE490000 		.4byte	0x49be
 16298 48e6 0D       		.uleb128 0xd
 16299 48e7 452B0000 		.4byte	.LASF984
 16300 48eb 4F       		.byte	0x4f
 16301 48ec 4E       		.byte	0x4e
 16302 48ed B1480000 		.4byte	0x48b1
 16303 48f1 00       		.byte	0
 16304 48f2 11       		.uleb128 0x11
 16305 48f3 64727600 		.ascii	"drv\000"
 16306 48f7 4F       		.byte	0x4f
 16307 48f8 4F       		.byte	0x4f
 16308 48f9 B1480000 		.4byte	0x48b1
 16309 48fd 01       		.byte	0x1
 16310 48fe 0D       		.uleb128 0xd
ARM GAS  C:\Users\PCHAUT~1\AppData\Local\Temp\ccLw8kky.s 			page 300


 16311 48ff E7190000 		.4byte	.LASF985
 16312 4903 4F       		.byte	0x4f
 16313 4904 50       		.byte	0x50
 16314 4905 B1480000 		.4byte	0x48b1
 16315 4909 02       		.byte	0x2
 16316 490a 0D       		.uleb128 0xd
 16317 490b 422F0000 		.4byte	.LASF986
 16318 490f 4F       		.byte	0x4f
 16319 4910 51       		.byte	0x51
 16320 4911 B1480000 		.4byte	0x48b1
 16321 4915 03       		.byte	0x3
 16322 4916 0D       		.uleb128 0xd
 16323 4917 26290000 		.4byte	.LASF987
 16324 491b 4F       		.byte	0x4f
 16325 491c 52       		.byte	0x52
 16326 491d B1480000 		.4byte	0x48b1
 16327 4921 04       		.byte	0x4
 16328 4922 0D       		.uleb128 0xd
 16329 4923 88230000 		.4byte	.LASF988
 16330 4927 4F       		.byte	0x4f
 16331 4928 53       		.byte	0x53
 16332 4929 B1480000 		.4byte	0x48b1
 16333 492d 05       		.byte	0x5
 16334 492e 11       		.uleb128 0x11
 16335 492f 696400   		.ascii	"id\000"
 16336 4932 4F       		.byte	0x4f
 16337 4933 54       		.byte	0x54
 16338 4934 BC480000 		.4byte	0x48bc
 16339 4938 06       		.byte	0x6
 16340 4939 0D       		.uleb128 0xd
 16341 493a B22F0000 		.4byte	.LASF989
 16342 493e 4F       		.byte	0x4f
 16343 493f 55       		.byte	0x55
 16344 4940 BC480000 		.4byte	0x48bc
 16345 4944 08       		.byte	0x8
 16346 4945 0D       		.uleb128 0xd
 16347 4946 521F0000 		.4byte	.LASF990
 16348 494a 4F       		.byte	0x4f
 16349 494b 5D       		.byte	0x5d
 16350 494c D2480000 		.4byte	0x48d2
 16351 4950 0C       		.byte	0xc
 16352 4951 0D       		.uleb128 0xd
 16353 4952 25010000 		.4byte	.LASF991
 16354 4956 4F       		.byte	0x4f
 16355 4957 5E       		.byte	0x5e
 16356 4958 D2480000 		.4byte	0x48d2
 16357 495c 10       		.byte	0x10
 16358 495d 0D       		.uleb128 0xd
 16359 495e 960F0000 		.4byte	.LASF992
 16360 4962 4F       		.byte	0x4f
 16361 4963 63       		.byte	0x63
 16362 4964 D2480000 		.4byte	0x48d2
 16363 4968 14       		.byte	0x14
 16364 4969 0D       		.uleb128 0xd
 16365 496a 311B0000 		.4byte	.LASF993
 16366 496e 4F       		.byte	0x4f
 16367 496f 64       		.byte	0x64
ARM GAS  C:\Users\PCHAUT~1\AppData\Local\Temp\ccLw8kky.s 			page 301


 16368 4970 D2480000 		.4byte	0x48d2
 16369 4974 18       		.byte	0x18
 16370 4975 0D       		.uleb128 0xd
 16371 4976 26110000 		.4byte	.LASF994
 16372 497a 4F       		.byte	0x4f
 16373 497b 65       		.byte	0x65
 16374 497c D2480000 		.4byte	0x48d2
 16375 4980 1C       		.byte	0x1c
 16376 4981 0D       		.uleb128 0xd
 16377 4982 44170000 		.4byte	.LASF995
 16378 4986 4F       		.byte	0x4f
 16379 4987 66       		.byte	0x66
 16380 4988 D2480000 		.4byte	0x48d2
 16381 498c 20       		.byte	0x20
 16382 498d 0D       		.uleb128 0xd
 16383 498e 52020000 		.4byte	.LASF996
 16384 4992 4F       		.byte	0x4f
 16385 4993 67       		.byte	0x67
 16386 4994 D2480000 		.4byte	0x48d2
 16387 4998 24       		.byte	0x24
 16388 4999 0D       		.uleb128 0xd
 16389 499a 081F0000 		.4byte	.LASF997
 16390 499e 4F       		.byte	0x4f
 16391 499f 68       		.byte	0x68
 16392 49a0 D2480000 		.4byte	0x48d2
 16393 49a4 28       		.byte	0x28
 16394 49a5 0D       		.uleb128 0xd
 16395 49a6 5B0F0000 		.4byte	.LASF998
 16396 49aa 4F       		.byte	0x4f
 16397 49ab 69       		.byte	0x69
 16398 49ac D2480000 		.4byte	0x48d2
 16399 49b0 2C       		.byte	0x2c
 16400 49b1 11       		.uleb128 0x11
 16401 49b2 77696E00 		.ascii	"win\000"
 16402 49b6 4F       		.byte	0x4f
 16403 49b7 6A       		.byte	0x6a
 16404 49b8 BE490000 		.4byte	0x49be
 16405 49bc 30       		.byte	0x30
 16406 49bd 00       		.byte	0
 16407 49be 0A       		.uleb128 0xa
 16408 49bf B1480000 		.4byte	0x48b1
 16409 49c3 CF490000 		.4byte	0x49cf
 16410 49c7 31       		.uleb128 0x31
 16411 49c8 37000000 		.4byte	0x37
 16412 49cc FF01     		.2byte	0x1ff
 16413 49ce 00       		.byte	0
 16414 49cf 03       		.uleb128 0x3
 16415 49d0 C6150000 		.4byte	.LASF999
 16416 49d4 4F       		.byte	0x4f
 16417 49d5 6B       		.byte	0x6b
 16418 49d6 DD480000 		.4byte	0x48dd
 16419 49da 29       		.uleb128 0x29
 16420 49db 2802     		.2byte	0x228
 16421 49dd 4F       		.byte	0x4f
 16422 49de 71       		.byte	0x71
 16423 49df 7E4A0000 		.4byte	0x4a7e
 16424 49e3 11       		.uleb128 0x11
ARM GAS  C:\Users\PCHAUT~1\AppData\Local\Temp\ccLw8kky.s 			page 302


 16425 49e4 667300   		.ascii	"fs\000"
 16426 49e7 4F       		.byte	0x4f
 16427 49e8 72       		.byte	0x72
 16428 49e9 7E4A0000 		.4byte	0x4a7e
 16429 49ed 00       		.byte	0
 16430 49ee 11       		.uleb128 0x11
 16431 49ef 696400   		.ascii	"id\000"
 16432 49f2 4F       		.byte	0x4f
 16433 49f3 73       		.byte	0x73
 16434 49f4 BC480000 		.4byte	0x48bc
 16435 49f8 04       		.byte	0x4
 16436 49f9 0D       		.uleb128 0xd
 16437 49fa BA190000 		.4byte	.LASF1000
 16438 49fe 4F       		.byte	0x4f
 16439 49ff 74       		.byte	0x74
 16440 4a00 B1480000 		.4byte	0x48b1
 16441 4a04 06       		.byte	0x6
 16442 4a05 11       		.uleb128 0x11
 16443 4a06 65727200 		.ascii	"err\000"
 16444 4a0a 4F       		.byte	0x4f
 16445 4a0b 75       		.byte	0x75
 16446 4a0c B1480000 		.4byte	0x48b1
 16447 4a10 07       		.byte	0x7
 16448 4a11 0D       		.uleb128 0xd
 16449 4a12 61010000 		.4byte	.LASF1001
 16450 4a16 4F       		.byte	0x4f
 16451 4a17 76       		.byte	0x76
 16452 4a18 D2480000 		.4byte	0x48d2
 16453 4a1c 08       		.byte	0x8
 16454 4a1d 0D       		.uleb128 0xd
 16455 4a1e 311B0000 		.4byte	.LASF993
 16456 4a22 4F       		.byte	0x4f
 16457 4a23 77       		.byte	0x77
 16458 4a24 D2480000 		.4byte	0x48d2
 16459 4a28 0C       		.byte	0xc
 16460 4a29 0D       		.uleb128 0xd
 16461 4a2a 711D0000 		.4byte	.LASF1002
 16462 4a2e 4F       		.byte	0x4f
 16463 4a2f 78       		.byte	0x78
 16464 4a30 D2480000 		.4byte	0x48d2
 16465 4a34 10       		.byte	0x10
 16466 4a35 0D       		.uleb128 0xd
 16467 4a36 6E080000 		.4byte	.LASF1003
 16468 4a3a 4F       		.byte	0x4f
 16469 4a3b 79       		.byte	0x79
 16470 4a3c D2480000 		.4byte	0x48d2
 16471 4a40 14       		.byte	0x14
 16472 4a41 0D       		.uleb128 0xd
 16473 4a42 E6020000 		.4byte	.LASF1004
 16474 4a46 4F       		.byte	0x4f
 16475 4a47 7A       		.byte	0x7a
 16476 4a48 D2480000 		.4byte	0x48d2
 16477 4a4c 18       		.byte	0x18
 16478 4a4d 0D       		.uleb128 0xd
 16479 4a4e 8D0E0000 		.4byte	.LASF1005
 16480 4a52 4F       		.byte	0x4f
 16481 4a53 7C       		.byte	0x7c
ARM GAS  C:\Users\PCHAUT~1\AppData\Local\Temp\ccLw8kky.s 			page 303


 16482 4a54 D2480000 		.4byte	0x48d2
 16483 4a58 1C       		.byte	0x1c
 16484 4a59 0D       		.uleb128 0xd
 16485 4a5a 39080000 		.4byte	.LASF1006
 16486 4a5e 4F       		.byte	0x4f
 16487 4a5f 7D       		.byte	0x7d
 16488 4a60 844A0000 		.4byte	0x4a84
 16489 4a64 20       		.byte	0x20
 16490 4a65 0D       		.uleb128 0xd
 16491 4a66 10280000 		.4byte	.LASF1007
 16492 4a6a 4F       		.byte	0x4f
 16493 4a6b 80       		.byte	0x80
 16494 4a6c 8A4A0000 		.4byte	0x4a8a
 16495 4a70 24       		.byte	0x24
 16496 4a71 11       		.uleb128 0x11
 16497 4a72 62756600 		.ascii	"buf\000"
 16498 4a76 4F       		.byte	0x4f
 16499 4a77 86       		.byte	0x86
 16500 4a78 BE490000 		.4byte	0x49be
 16501 4a7c 28       		.byte	0x28
 16502 4a7d 00       		.byte	0
 16503 4a7e 05       		.uleb128 0x5
 16504 4a7f 04       		.byte	0x4
 16505 4a80 CF490000 		.4byte	0x49cf
 16506 4a84 05       		.uleb128 0x5
 16507 4a85 04       		.byte	0x4
 16508 4a86 B1480000 		.4byte	0x48b1
 16509 4a8a 05       		.uleb128 0x5
 16510 4a8b 04       		.byte	0x4
 16511 4a8c D2480000 		.4byte	0x48d2
 16512 4a90 36       		.uleb128 0x36
 16513 4a91 46494C00 		.ascii	"FIL\000"
 16514 4a95 4F       		.byte	0x4f
 16515 4a96 88       		.byte	0x88
 16516 4a97 DA490000 		.4byte	0x49da
 16517 4a9b 2B       		.uleb128 0x2b
 16518 4a9c 07       		.byte	0x7
 16519 4a9d 01       		.byte	0x1
 16520 4a9e 69000000 		.4byte	0x69
 16521 4aa2 4F       		.byte	0x4f
 16522 4aa3 B4       		.byte	0xb4
 16523 4aa4 214B0000 		.4byte	0x4b21
 16524 4aa8 23       		.uleb128 0x23
 16525 4aa9 6F290000 		.4byte	.LASF1008
 16526 4aad 00       		.byte	0
 16527 4aae 23       		.uleb128 0x23
 16528 4aaf A62F0000 		.4byte	.LASF1009
 16529 4ab3 01       		.byte	0x1
 16530 4ab4 23       		.uleb128 0x23
 16531 4ab5 AB270000 		.4byte	.LASF1010
 16532 4ab9 02       		.byte	0x2
 16533 4aba 23       		.uleb128 0x23
 16534 4abb 2A2A0000 		.4byte	.LASF1011
 16535 4abf 03       		.byte	0x3
 16536 4ac0 23       		.uleb128 0x23
 16537 4ac1 62220000 		.4byte	.LASF1012
 16538 4ac5 04       		.byte	0x4
ARM GAS  C:\Users\PCHAUT~1\AppData\Local\Temp\ccLw8kky.s 			page 304


 16539 4ac6 23       		.uleb128 0x23
 16540 4ac7 782B0000 		.4byte	.LASF1013
 16541 4acb 05       		.byte	0x5
 16542 4acc 23       		.uleb128 0x23
 16543 4acd E30E0000 		.4byte	.LASF1014
 16544 4ad1 06       		.byte	0x6
 16545 4ad2 23       		.uleb128 0x23
 16546 4ad3 F1310000 		.4byte	.LASF1015
 16547 4ad7 07       		.byte	0x7
 16548 4ad8 23       		.uleb128 0x23
 16549 4ad9 A2270000 		.4byte	.LASF1016
 16550 4add 08       		.byte	0x8
 16551 4ade 23       		.uleb128 0x23
 16552 4adf B51B0000 		.4byte	.LASF1017
 16553 4ae3 09       		.byte	0x9
 16554 4ae4 23       		.uleb128 0x23
 16555 4ae5 59060000 		.4byte	.LASF1018
 16556 4ae9 0A       		.byte	0xa
 16557 4aea 23       		.uleb128 0x23
 16558 4aeb E1270000 		.4byte	.LASF1019
 16559 4aef 0B       		.byte	0xb
 16560 4af0 23       		.uleb128 0x23
 16561 4af1 91230000 		.4byte	.LASF1020
 16562 4af5 0C       		.byte	0xc
 16563 4af6 23       		.uleb128 0x23
 16564 4af7 C70A0000 		.4byte	.LASF1021
 16565 4afb 0D       		.byte	0xd
 16566 4afc 23       		.uleb128 0x23
 16567 4afd D4010000 		.4byte	.LASF1022
 16568 4b01 0E       		.byte	0xe
 16569 4b02 23       		.uleb128 0x23
 16570 4b03 7D0C0000 		.4byte	.LASF1023
 16571 4b07 0F       		.byte	0xf
 16572 4b08 23       		.uleb128 0x23
 16573 4b09 162C0000 		.4byte	.LASF1024
 16574 4b0d 10       		.byte	0x10
 16575 4b0e 23       		.uleb128 0x23
 16576 4b0f 822F0000 		.4byte	.LASF1025
 16577 4b13 11       		.byte	0x11
 16578 4b14 23       		.uleb128 0x23
 16579 4b15 0E010000 		.4byte	.LASF1026
 16580 4b19 12       		.byte	0x12
 16581 4b1a 23       		.uleb128 0x23
 16582 4b1b 44030000 		.4byte	.LASF1027
 16583 4b1f 13       		.byte	0x13
 16584 4b20 00       		.byte	0
 16585 4b21 03       		.uleb128 0x3
 16586 4b22 38220000 		.4byte	.LASF1028
 16587 4b26 4F       		.byte	0x4f
 16588 4b27 C9       		.byte	0xc9
 16589 4b28 9B4A0000 		.4byte	0x4a9b
 16590 4b2c 2B       		.uleb128 0x2b
 16591 4b2d 07       		.byte	0x7
 16592 4b2e 01       		.byte	0x1
 16593 4b2f 69000000 		.4byte	0x69
 16594 4b33 50       		.byte	0x50
 16595 4b34 1B       		.byte	0x1b
ARM GAS  C:\Users\PCHAUT~1\AppData\Local\Temp\ccLw8kky.s 			page 305


 16596 4b35 4C4B0000 		.4byte	0x4b4c
 16597 4b39 23       		.uleb128 0x23
 16598 4b3a 4D260000 		.4byte	.LASF1029
 16599 4b3e 00       		.byte	0
 16600 4b3f 23       		.uleb128 0x23
 16601 4b40 13290000 		.4byte	.LASF1030
 16602 4b44 01       		.byte	0x1
 16603 4b45 23       		.uleb128 0x23
 16604 4b46 4F050000 		.4byte	.LASF1031
 16605 4b4a 02       		.byte	0x2
 16606 4b4b 00       		.byte	0
 16607 4b4c 2B       		.uleb128 0x2b
 16608 4b4d 07       		.byte	0x7
 16609 4b4e 01       		.byte	0x1
 16610 4b4f 69000000 		.4byte	0x69
 16611 4b53 51       		.byte	0x51
 16612 4b54 86       		.byte	0x86
 16613 4b55 6C4B0000 		.4byte	0x4b6c
 16614 4b59 23       		.uleb128 0x23
 16615 4b5a 8F010000 		.4byte	.LASF1032
 16616 4b5e 00       		.byte	0
 16617 4b5f 23       		.uleb128 0x23
 16618 4b60 F2220000 		.4byte	.LASF1033
 16619 4b64 01       		.byte	0x1
 16620 4b65 23       		.uleb128 0x23
 16621 4b66 541D0000 		.4byte	.LASF1034
 16622 4b6a 02       		.byte	0x2
 16623 4b6b 00       		.byte	0
 16624 4b6c 0A       		.uleb128 0xa
 16625 4b6d 73090000 		.4byte	0x973
 16626 4b71 7D4B0000 		.4byte	0x4b7d
 16627 4b75 31       		.uleb128 0x31
 16628 4b76 37000000 		.4byte	0x37
 16629 4b7a 0320     		.2byte	0x2003
 16630 4b7c 00       		.byte	0
 16631 4b7d 37       		.uleb128 0x37
 16632 4b7e 62756600 		.ascii	"buf\000"
 16633 4b82 07       		.byte	0x7
 16634 4b83 23       		.byte	0x23
 16635 4b84 6C4B0000 		.4byte	0x4b6c
 16636 4b88 05       		.uleb128 0x5
 16637 4b89 03       		.byte	0x3
 16638 4b8a 00000000 		.4byte	buf
 16639 4b8e 0A       		.uleb128 0xa
 16640 4b8f 73090000 		.4byte	0x973
 16641 4b93 9F4B0000 		.4byte	0x4b9f
 16642 4b97 31       		.uleb128 0x31
 16643 4b98 37000000 		.4byte	0x37
 16644 4b9c FF1F     		.2byte	0x1fff
 16645 4b9e 00       		.byte	0
 16646 4b9f 38       		.uleb128 0x38
 16647 4ba0 3E1A0000 		.4byte	.LASF1035
 16648 4ba4 07       		.byte	0x7
 16649 4ba5 25       		.byte	0x25
 16650 4ba6 8E4B0000 		.4byte	0x4b8e
 16651 4baa 05       		.uleb128 0x5
 16652 4bab 03       		.byte	0x3
ARM GAS  C:\Users\PCHAUT~1\AppData\Local\Temp\ccLw8kky.s 			page 306


 16653 4bac 00000000 		.4byte	buf2
 16654 4bb0 38       		.uleb128 0x38
 16655 4bb1 CE2B0000 		.4byte	.LASF1036
 16656 4bb5 07       		.byte	0x7
 16657 4bb6 2A       		.byte	0x2a
 16658 4bb7 A8430000 		.4byte	0x43a8
 16659 4bbb 05       		.uleb128 0x5
 16660 4bbc 03       		.byte	0x3
 16661 4bbd 00000000 		.4byte	cmd_fmt
 16662 4bc1 38       		.uleb128 0x38
 16663 4bc2 E7150000 		.4byte	.LASF1037
 16664 4bc6 07       		.byte	0x7
 16665 4bc7 2B       		.byte	0x2b
 16666 4bc8 D3430000 		.4byte	0x43d3
 16667 4bcc 05       		.uleb128 0x5
 16668 4bcd 03       		.byte	0x3
 16669 4bce 00000000 		.4byte	cmd_subx
 16670 4bd2 38       		.uleb128 0x38
 16671 4bd3 F0150000 		.4byte	.LASF1038
 16672 4bd7 07       		.byte	0x7
 16673 4bd8 2B       		.byte	0x2b
 16674 4bd9 D3430000 		.4byte	0x43d3
 16675 4bdd 05       		.uleb128 0x5
 16676 4bde 03       		.byte	0x3
 16677 4bdf 00000000 		.4byte	cmd_suby
 16678 4be3 38       		.uleb128 0x38
 16679 4be4 502A0000 		.4byte	.LASF1039
 16680 4be8 07       		.byte	0x7
 16681 4be9 2C       		.byte	0x2c
 16682 4bea 8E090000 		.4byte	0x98e
 16683 4bee 05       		.uleb128 0x5
 16684 4bef 03       		.byte	0x3
 16685 4bf0 00000000 		.4byte	cmd_x1
 16686 4bf4 38       		.uleb128 0x38
 16687 4bf5 E02A0000 		.4byte	.LASF1040
 16688 4bf9 07       		.byte	0x7
 16689 4bfa 2C       		.byte	0x2c
 16690 4bfb 8E090000 		.4byte	0x98e
 16691 4bff 05       		.uleb128 0x5
 16692 4c00 03       		.byte	0x3
 16693 4c01 00000000 		.4byte	cmd_y1
 16694 4c05 38       		.uleb128 0x38
 16695 4c06 C7040000 		.4byte	.LASF1041
 16696 4c0a 07       		.byte	0x7
 16697 4c0b 2C       		.byte	0x2c
 16698 4c0c 8E090000 		.4byte	0x98e
 16699 4c10 05       		.uleb128 0x5
 16700 4c11 03       		.byte	0x3
 16701 4c12 00000000 		.4byte	cmd_width
 16702 4c16 38       		.uleb128 0x38
 16703 4c17 9C1B0000 		.4byte	.LASF1042
 16704 4c1b 07       		.byte	0x7
 16705 4c1c 2C       		.byte	0x2c
 16706 4c1d 8E090000 		.4byte	0x98e
 16707 4c21 05       		.uleb128 0x5
 16708 4c22 03       		.byte	0x3
 16709 4c23 00000000 		.4byte	cmd_height
ARM GAS  C:\Users\PCHAUT~1\AppData\Local\Temp\ccLw8kky.s 			page 307


 16710 4c27 0A       		.uleb128 0xa
 16711 4c28 75010000 		.4byte	0x175
 16712 4c2c 374C0000 		.4byte	0x4c37
 16713 4c30 0B       		.uleb128 0xb
 16714 4c31 37000000 		.4byte	0x37
 16715 4c35 FF       		.byte	0xff
 16716 4c36 00       		.byte	0
 16717 4c37 38       		.uleb128 0x38
 16718 4c38 BB030000 		.4byte	.LASF1043
 16719 4c3c 07       		.byte	0x7
 16720 4c3d 33       		.byte	0x33
 16721 4c3e 274C0000 		.4byte	0x4c27
 16722 4c42 05       		.uleb128 0x5
 16723 4c43 03       		.byte	0x3
 16724 4c44 00000000 		.4byte	fbuff
 16725 4c48 0A       		.uleb128 0xa
 16726 4c49 38410000 		.4byte	0x4138
 16727 4c4d 584C0000 		.4byte	0x4c58
 16728 4c51 0B       		.uleb128 0xb
 16729 4c52 37000000 		.4byte	0x37
 16730 4c56 30       		.byte	0x30
 16731 4c57 00       		.byte	0
 16732 4c58 0F       		.uleb128 0xf
 16733 4c59 484C0000 		.4byte	0x4c48
 16734 4c5d 39       		.uleb128 0x39
 16735 4c5e 700E0000 		.4byte	.LASF1044
 16736 4c62 07       		.byte	0x7
 16737 4c63 DB04     		.2byte	0x4db
 16738 4c65 584C0000 		.4byte	0x4c58
 16739 4c69 05       		.uleb128 0x5
 16740 4c6a 03       		.byte	0x3
 16741 4c6b 00000000 		.4byte	shell_commands
 16742 4c6f 3A       		.uleb128 0x3a
 16743 4c70 2D0B0000 		.4byte	.LASF1047
 16744 4c74 07       		.byte	0x7
 16745 4c75 2B05     		.2byte	0x52b
 16746 4c77 00000000 		.4byte	.LFB310
 16747 4c7b 40000000 		.4byte	.LFE310-.LFB310
 16748 4c7f 01       		.uleb128 0x1
 16749 4c80 9C       		.byte	0x9c
 16750 4c81 974C0000 		.4byte	0x4c97
 16751 4c85 3B       		.uleb128 0x3b
 16752 4c86 776100   		.ascii	"wa\000"
 16753 4c89 07       		.byte	0x7
 16754 4c8a 2D05     		.2byte	0x52d
 16755 4c8c 974C0000 		.4byte	0x4c97
 16756 4c90 05       		.uleb128 0x5
 16757 4c91 03       		.byte	0x3
 16758 4c92 00000000 		.4byte	wa.13774
 16759 4c96 00       		.byte	0
 16760 4c97 0A       		.uleb128 0xa
 16761 4c98 30160000 		.4byte	0x1630
 16762 4c9c A84C0000 		.4byte	0x4ca8
 16763 4ca0 31       		.uleb128 0x31
 16764 4ca1 37000000 		.4byte	0x37
 16765 4ca5 2E01     		.2byte	0x12e
 16766 4ca7 00       		.byte	0
ARM GAS  C:\Users\PCHAUT~1\AppData\Local\Temp\ccLw8kky.s 			page 308


 16767 4ca8 3C       		.uleb128 0x3c
 16768 4ca9 FF090000 		.4byte	.LASF1054
 16769 4cad 07       		.byte	0x7
 16770 4cae 0F05     		.2byte	0x50f
 16771 4cb0 00000000 		.4byte	.LFB309
 16772 4cb4 64000000 		.4byte	.LFE309-.LFB309
 16773 4cb8 01       		.uleb128 0x1
 16774 4cb9 9C       		.byte	0x9c
 16775 4cba ED4C0000 		.4byte	0x4ced
 16776 4cbe 3D       		.uleb128 0x3d
 16777 4cbf 7000     		.ascii	"p\000"
 16778 4cc1 07       		.byte	0x7
 16779 4cc2 0F05     		.2byte	0x50f
 16780 4cc4 68010000 		.4byte	0x168
 16781 4cc8 02       		.uleb128 0x2
 16782 4cc9 91       		.byte	0x91
 16783 4cca 6C       		.sleb128 -20
 16784 4ccb 3E       		.uleb128 0x3e
 16785 4ccc E81F0000 		.4byte	.LASF1045
 16786 4cd0 07       		.byte	0x7
 16787 4cd1 1205     		.2byte	0x512
 16788 4cd3 910B0000 		.4byte	0xb91
 16789 4cd7 02       		.uleb128 0x2
 16790 4cd8 91       		.byte	0x91
 16791 4cd9 70       		.sleb128 -16
 16792 4cda 3E       		.uleb128 0x3e
 16793 4cdb C6260000 		.4byte	.LASF1046
 16794 4cdf 07       		.byte	0x7
 16795 4ce0 1405     		.2byte	0x514
 16796 4ce2 6F410000 		.4byte	0x416f
 16797 4ce6 05       		.uleb128 0x5
 16798 4ce7 03       		.byte	0x3
 16799 4ce8 00000000 		.4byte	shell_cfg.13769
 16800 4cec 00       		.byte	0
 16801 4ced 3A       		.uleb128 0x3a
 16802 4cee 6E310000 		.4byte	.LASF1048
 16803 4cf2 07       		.byte	0x7
 16804 4cf3 0704     		.2byte	0x407
 16805 4cf5 00000000 		.4byte	.LFB308
 16806 4cf9 04060000 		.4byte	.LFE308-.LFB308
 16807 4cfd 01       		.uleb128 0x1
 16808 4cfe 9C       		.byte	0x9c
 16809 4cff CA4D0000 		.4byte	0x4dca
 16810 4d03 3D       		.uleb128 0x3d
 16811 4d04 63687000 		.ascii	"chp\000"
 16812 4d08 07       		.byte	0x7
 16813 4d09 0704     		.2byte	0x407
 16814 4d0b 00410000 		.4byte	0x4100
 16815 4d0f 02       		.uleb128 0x2
 16816 4d10 91       		.byte	0x91
 16817 4d11 54       		.sleb128 -44
 16818 4d12 3F       		.uleb128 0x3f
 16819 4d13 41080000 		.4byte	.LASF1049
 16820 4d17 07       		.byte	0x7
 16821 4d18 0704     		.2byte	0x407
 16822 4d1a 25000000 		.4byte	0x25
 16823 4d1e 02       		.uleb128 0x2
ARM GAS  C:\Users\PCHAUT~1\AppData\Local\Temp\ccLw8kky.s 			page 309


 16824 4d1f 91       		.byte	0x91
 16825 4d20 50       		.sleb128 -48
 16826 4d21 3F       		.uleb128 0x3f
 16827 4d22 82260000 		.4byte	.LASF1050
 16828 4d26 07       		.byte	0x7
 16829 4d27 0704     		.2byte	0x407
 16830 4d29 06410000 		.4byte	0x4106
 16831 4d2d 02       		.uleb128 0x2
 16832 4d2e 91       		.byte	0x91
 16833 4d2f 4C       		.sleb128 -52
 16834 4d30 3E       		.uleb128 0x3e
 16835 4d31 AC0A0000 		.4byte	.LASF544
 16836 4d35 07       		.byte	0x7
 16837 4d36 0804     		.2byte	0x408
 16838 4d38 CA4D0000 		.4byte	0x4dca
 16839 4d3c 05       		.uleb128 0x5
 16840 4d3d 03       		.byte	0x3
 16841 4d3e 00000000 		.4byte	mode.13741
 16842 4d42 3E       		.uleb128 0x3e
 16843 4d43 64170000 		.4byte	.LASF1051
 16844 4d47 07       		.byte	0x7
 16845 4d48 0904     		.2byte	0x409
 16846 4d4a 4D0A0000 		.4byte	0xa4d
 16847 4d4e 02       		.uleb128 0x2
 16848 4d4f 91       		.byte	0x91
 16849 4d50 68       		.sleb128 -24
 16850 4d51 3B       		.uleb128 0x3b
 16851 4d52 656E6400 		.ascii	"end\000"
 16852 4d56 07       		.byte	0x7
 16853 4d57 0904     		.2byte	0x409
 16854 4d59 4D0A0000 		.4byte	0xa4d
 16855 4d5d 02       		.uleb128 0x2
 16856 4d5e 91       		.byte	0x91
 16857 4d5f 6C       		.sleb128 -20
 16858 4d60 3B       		.uleb128 0x3b
 16859 4d61 6E00     		.ascii	"n\000"
 16860 4d63 07       		.byte	0x7
 16861 4d64 0A04     		.2byte	0x40a
 16862 4d66 A9090000 		.4byte	0x9a9
 16863 4d6a 02       		.uleb128 0x2
 16864 4d6b 91       		.byte	0x91
 16865 4d6c 58       		.sleb128 -40
 16866 4d6d 3E       		.uleb128 0x3e
 16867 4d6e E62F0000 		.4byte	.LASF1052
 16868 4d72 07       		.byte	0x7
 16869 4d73 0A04     		.2byte	0x40a
 16870 4d75 A9090000 		.4byte	0x9a9
 16871 4d79 02       		.uleb128 0x2
 16872 4d7a 91       		.byte	0x91
 16873 4d7b 64       		.sleb128 -28
 16874 4d7c 40       		.uleb128 0x40
 16875 4d7d 87260000 		.4byte	.LASF1150
 16876 4d81 07       		.byte	0x7
 16877 4d82 D704     		.2byte	0x4d7
 16878 4d84 D8050000 		.4byte	.L415
 16879 4d88 41       		.uleb128 0x41
 16880 4d89 E8020000 		.4byte	.LBB10
ARM GAS  C:\Users\PCHAUT~1\AppData\Local\Temp\ccLw8kky.s 			page 310


 16881 4d8d 02010000 		.4byte	.LBE10-.LBB10
 16882 4d91 A34D0000 		.4byte	0x4da3
 16883 4d95 3B       		.uleb128 0x3b
 16884 4d96 6900     		.ascii	"i\000"
 16885 4d98 07       		.byte	0x7
 16886 4d99 6904     		.2byte	0x469
 16887 4d9b 37000000 		.4byte	0x37
 16888 4d9f 02       		.uleb128 0x2
 16889 4da0 91       		.byte	0x91
 16890 4da1 5C       		.sleb128 -36
 16891 4da2 00       		.byte	0
 16892 4da3 42       		.uleb128 0x42
 16893 4da4 10040000 		.4byte	.LBB11
 16894 4da8 C6010000 		.4byte	.LBE11-.LBB11
 16895 4dac 3B       		.uleb128 0x3b
 16896 4dad 6900     		.ascii	"i\000"
 16897 4daf 07       		.byte	0x7
 16898 4db0 9E04     		.2byte	0x49e
 16899 4db2 37000000 		.4byte	0x37
 16900 4db6 02       		.uleb128 0x2
 16901 4db7 91       		.byte	0x91
 16902 4db8 60       		.sleb128 -32
 16903 4db9 3E       		.uleb128 0x3e
 16904 4dba CA180000 		.4byte	.LASF1053
 16905 4dbe 07       		.byte	0x7
 16906 4dbf AC04     		.2byte	0x4ac
 16907 4dc1 CA300000 		.4byte	0x30ca
 16908 4dc5 02       		.uleb128 0x2
 16909 4dc6 91       		.byte	0x91
 16910 4dc7 70       		.sleb128 -16
 16911 4dc8 00       		.byte	0
 16912 4dc9 00       		.byte	0
 16913 4dca 0A       		.uleb128 0xa
 16914 4dcb ED050000 		.4byte	0x5ed
 16915 4dcf DA4D0000 		.4byte	0x4dda
 16916 4dd3 0B       		.uleb128 0xb
 16917 4dd4 37000000 		.4byte	0x37
 16918 4dd8 03       		.byte	0x3
 16919 4dd9 00       		.byte	0
 16920 4dda 3C       		.uleb128 0x3c
 16921 4ddb 80000000 		.4byte	.LASF1055
 16922 4ddf 07       		.byte	0x7
 16923 4de0 F703     		.2byte	0x3f7
 16924 4de2 00000000 		.4byte	.LFB307
 16925 4de6 98000000 		.4byte	.LFE307-.LFB307
 16926 4dea 01       		.uleb128 0x1
 16927 4deb 9C       		.byte	0x9c
 16928 4dec 4B4E0000 		.4byte	0x4e4b
 16929 4df0 3D       		.uleb128 0x3d
 16930 4df1 63687000 		.ascii	"chp\000"
 16931 4df5 07       		.byte	0x7
 16932 4df6 F703     		.2byte	0x3f7
 16933 4df8 00410000 		.4byte	0x4100
 16934 4dfc 02       		.uleb128 0x2
 16935 4dfd 91       		.byte	0x91
 16936 4dfe 64       		.sleb128 -28
 16937 4dff 3F       		.uleb128 0x3f
ARM GAS  C:\Users\PCHAUT~1\AppData\Local\Temp\ccLw8kky.s 			page 311


 16938 4e00 41080000 		.4byte	.LASF1049
 16939 4e04 07       		.byte	0x7
 16940 4e05 F703     		.2byte	0x3f7
 16941 4e07 25000000 		.4byte	0x25
 16942 4e0b 02       		.uleb128 0x2
 16943 4e0c 91       		.byte	0x91
 16944 4e0d 60       		.sleb128 -32
 16945 4e0e 3F       		.uleb128 0x3f
 16946 4e0f 82260000 		.4byte	.LASF1050
 16947 4e13 07       		.byte	0x7
 16948 4e14 F703     		.2byte	0x3f7
 16949 4e16 06410000 		.4byte	0x4106
 16950 4e1a 02       		.uleb128 0x2
 16951 4e1b 91       		.byte	0x91
 16952 4e1c 5C       		.sleb128 -36
 16953 4e1d 3E       		.uleb128 0x3e
 16954 4e1e D8120000 		.4byte	.LASF1056
 16955 4e22 07       		.byte	0x7
 16956 4e23 FC03     		.2byte	0x3fc
 16957 4e25 34430000 		.4byte	0x4334
 16958 4e29 02       		.uleb128 0x2
 16959 4e2a 91       		.byte	0x91
 16960 4e2b 6C       		.sleb128 -20
 16961 4e2c 3E       		.uleb128 0x3e
 16962 4e2d 6A000000 		.4byte	.LASF1057
 16963 4e31 07       		.byte	0x7
 16964 4e32 FD03     		.2byte	0x3fd
 16965 4e34 8E090000 		.4byte	0x98e
 16966 4e38 02       		.uleb128 0x2
 16967 4e39 91       		.byte	0x91
 16968 4e3a 6A       		.sleb128 -22
 16969 4e3b 3E       		.uleb128 0x3e
 16970 4e3c 0F2C0000 		.4byte	.LASF1058
 16971 4e40 07       		.byte	0x7
 16972 4e41 FE03     		.2byte	0x3fe
 16973 4e43 803E0000 		.4byte	0x3e80
 16974 4e47 02       		.uleb128 0x2
 16975 4e48 91       		.byte	0x91
 16976 4e49 70       		.sleb128 -16
 16977 4e4a 00       		.byte	0
 16978 4e4b 3C       		.uleb128 0x3c
 16979 4e4c 631B0000 		.4byte	.LASF1059
 16980 4e50 07       		.byte	0x7
 16981 4e51 EC03     		.2byte	0x3ec
 16982 4e53 00000000 		.4byte	.LFB306
 16983 4e57 68000000 		.4byte	.LFE306-.LFB306
 16984 4e5b 01       		.uleb128 0x1
 16985 4e5c 9C       		.byte	0x9c
 16986 4e5d 9E4E0000 		.4byte	0x4e9e
 16987 4e61 3D       		.uleb128 0x3d
 16988 4e62 63687000 		.ascii	"chp\000"
 16989 4e66 07       		.byte	0x7
 16990 4e67 EC03     		.2byte	0x3ec
 16991 4e69 00410000 		.4byte	0x4100
 16992 4e6d 02       		.uleb128 0x2
 16993 4e6e 91       		.byte	0x91
 16994 4e6f 6C       		.sleb128 -20
ARM GAS  C:\Users\PCHAUT~1\AppData\Local\Temp\ccLw8kky.s 			page 312


 16995 4e70 3F       		.uleb128 0x3f
 16996 4e71 41080000 		.4byte	.LASF1049
 16997 4e75 07       		.byte	0x7
 16998 4e76 EC03     		.2byte	0x3ec
 16999 4e78 25000000 		.4byte	0x25
 17000 4e7c 02       		.uleb128 0x2
 17001 4e7d 91       		.byte	0x91
 17002 4e7e 68       		.sleb128 -24
 17003 4e7f 3F       		.uleb128 0x3f
 17004 4e80 82260000 		.4byte	.LASF1050
 17005 4e84 07       		.byte	0x7
 17006 4e85 EC03     		.2byte	0x3ec
 17007 4e87 06410000 		.4byte	0x4106
 17008 4e8b 02       		.uleb128 0x2
 17009 4e8c 91       		.byte	0x91
 17010 4e8d 64       		.sleb128 -28
 17011 4e8e 3B       		.uleb128 0x3b
 17012 4e8f 6D696300 		.ascii	"mic\000"
 17013 4e93 07       		.byte	0x7
 17014 4e94 EE03     		.2byte	0x3ee
 17015 4e96 73090000 		.4byte	0x973
 17016 4e9a 02       		.uleb128 0x2
 17017 4e9b 91       		.byte	0x91
 17018 4e9c 73       		.sleb128 -13
 17019 4e9d 00       		.byte	0
 17020 4e9e 3C       		.uleb128 0x3c
 17021 4e9f AF0E0000 		.4byte	.LASF1060
 17022 4ea3 07       		.byte	0x7
 17023 4ea4 E403     		.2byte	0x3e4
 17024 4ea6 00000000 		.4byte	.LFB305
 17025 4eaa 30000000 		.4byte	.LFE305-.LFB305
 17026 4eae 01       		.uleb128 0x1
 17027 4eaf 9C       		.byte	0x9c
 17028 4eb0 E24E0000 		.4byte	0x4ee2
 17029 4eb4 3D       		.uleb128 0x3d
 17030 4eb5 63687000 		.ascii	"chp\000"
 17031 4eb9 07       		.byte	0x7
 17032 4eba E403     		.2byte	0x3e4
 17033 4ebc 00410000 		.4byte	0x4100
 17034 4ec0 02       		.uleb128 0x2
 17035 4ec1 91       		.byte	0x91
 17036 4ec2 6C       		.sleb128 -20
 17037 4ec3 3F       		.uleb128 0x3f
 17038 4ec4 41080000 		.4byte	.LASF1049
 17039 4ec8 07       		.byte	0x7
 17040 4ec9 E403     		.2byte	0x3e4
 17041 4ecb 25000000 		.4byte	0x25
 17042 4ecf 02       		.uleb128 0x2
 17043 4ed0 91       		.byte	0x91
 17044 4ed1 68       		.sleb128 -24
 17045 4ed2 3F       		.uleb128 0x3f
 17046 4ed3 82260000 		.4byte	.LASF1050
 17047 4ed7 07       		.byte	0x7
 17048 4ed8 E403     		.2byte	0x3e4
 17049 4eda 06410000 		.4byte	0x4106
 17050 4ede 02       		.uleb128 0x2
 17051 4edf 91       		.byte	0x91
ARM GAS  C:\Users\PCHAUT~1\AppData\Local\Temp\ccLw8kky.s 			page 313


 17052 4ee0 64       		.sleb128 -28
 17053 4ee1 00       		.byte	0
 17054 4ee2 3C       		.uleb128 0x3c
 17055 4ee3 F91F0000 		.4byte	.LASF1061
 17056 4ee7 07       		.byte	0x7
 17057 4ee8 D803     		.2byte	0x3d8
 17058 4eea 00000000 		.4byte	.LFB304
 17059 4eee 58000000 		.4byte	.LFE304-.LFB304
 17060 4ef2 01       		.uleb128 0x1
 17061 4ef3 9C       		.byte	0x9c
 17062 4ef4 354F0000 		.4byte	0x4f35
 17063 4ef8 3D       		.uleb128 0x3d
 17064 4ef9 63687000 		.ascii	"chp\000"
 17065 4efd 07       		.byte	0x7
 17066 4efe D803     		.2byte	0x3d8
 17067 4f00 00410000 		.4byte	0x4100
 17068 4f04 02       		.uleb128 0x2
 17069 4f05 91       		.byte	0x91
 17070 4f06 6C       		.sleb128 -20
 17071 4f07 3F       		.uleb128 0x3f
 17072 4f08 41080000 		.4byte	.LASF1049
 17073 4f0c 07       		.byte	0x7
 17074 4f0d D803     		.2byte	0x3d8
 17075 4f0f 25000000 		.4byte	0x25
 17076 4f13 02       		.uleb128 0x2
 17077 4f14 91       		.byte	0x91
 17078 4f15 68       		.sleb128 -24
 17079 4f16 3F       		.uleb128 0x3f
 17080 4f17 82260000 		.4byte	.LASF1050
 17081 4f1b 07       		.byte	0x7
 17082 4f1c D803     		.2byte	0x3d8
 17083 4f1e 06410000 		.4byte	0x4106
 17084 4f22 02       		.uleb128 0x2
 17085 4f23 91       		.byte	0x91
 17086 4f24 64       		.sleb128 -28
 17087 4f25 3E       		.uleb128 0x3e
 17088 4f26 1A220000 		.4byte	.LASF1062
 17089 4f2a 07       		.byte	0x7
 17090 4f2b DA03     		.2byte	0x3da
 17091 4f2d 8E090000 		.4byte	0x98e
 17092 4f31 02       		.uleb128 0x2
 17093 4f32 91       		.byte	0x91
 17094 4f33 72       		.sleb128 -14
 17095 4f34 00       		.byte	0
 17096 4f35 3C       		.uleb128 0x3c
 17097 4f36 38290000 		.4byte	.LASF1063
 17098 4f3a 07       		.byte	0x7
 17099 4f3b D003     		.2byte	0x3d0
 17100 4f3d 00000000 		.4byte	.LFB303
 17101 4f41 40000000 		.4byte	.LFE303-.LFB303
 17102 4f45 01       		.uleb128 0x1
 17103 4f46 9C       		.byte	0x9c
 17104 4f47 794F0000 		.4byte	0x4f79
 17105 4f4b 3D       		.uleb128 0x3d
 17106 4f4c 63687000 		.ascii	"chp\000"
 17107 4f50 07       		.byte	0x7
 17108 4f51 D003     		.2byte	0x3d0
ARM GAS  C:\Users\PCHAUT~1\AppData\Local\Temp\ccLw8kky.s 			page 314


 17109 4f53 00410000 		.4byte	0x4100
 17110 4f57 02       		.uleb128 0x2
 17111 4f58 91       		.byte	0x91
 17112 4f59 6C       		.sleb128 -20
 17113 4f5a 3F       		.uleb128 0x3f
 17114 4f5b 41080000 		.4byte	.LASF1049
 17115 4f5f 07       		.byte	0x7
 17116 4f60 D003     		.2byte	0x3d0
 17117 4f62 25000000 		.4byte	0x25
 17118 4f66 02       		.uleb128 0x2
 17119 4f67 91       		.byte	0x91
 17120 4f68 68       		.sleb128 -24
 17121 4f69 3F       		.uleb128 0x3f
 17122 4f6a 82260000 		.4byte	.LASF1050
 17123 4f6e 07       		.byte	0x7
 17124 4f6f D003     		.2byte	0x3d0
 17125 4f71 06410000 		.4byte	0x4106
 17126 4f75 02       		.uleb128 0x2
 17127 4f76 91       		.byte	0x91
 17128 4f77 64       		.sleb128 -28
 17129 4f78 00       		.byte	0
 17130 4f79 3C       		.uleb128 0x3c
 17131 4f7a 2B080000 		.4byte	.LASF1064
 17132 4f7e 07       		.byte	0x7
 17133 4f7f C003     		.2byte	0x3c0
 17134 4f81 00000000 		.4byte	.LFB302
 17135 4f85 A0000000 		.4byte	.LFE302-.LFB302
 17136 4f89 01       		.uleb128 0x1
 17137 4f8a 9C       		.byte	0x9c
 17138 4f8b DB4F0000 		.4byte	0x4fdb
 17139 4f8f 3D       		.uleb128 0x3d
 17140 4f90 63687000 		.ascii	"chp\000"
 17141 4f94 07       		.byte	0x7
 17142 4f95 C003     		.2byte	0x3c0
 17143 4f97 00410000 		.4byte	0x4100
 17144 4f9b 02       		.uleb128 0x2
 17145 4f9c 91       		.byte	0x91
 17146 4f9d 6C       		.sleb128 -20
 17147 4f9e 3F       		.uleb128 0x3f
 17148 4f9f 41080000 		.4byte	.LASF1049
 17149 4fa3 07       		.byte	0x7
 17150 4fa4 C003     		.2byte	0x3c0
 17151 4fa6 25000000 		.4byte	0x25
 17152 4faa 02       		.uleb128 0x2
 17153 4fab 91       		.byte	0x91
 17154 4fac 68       		.sleb128 -24
 17155 4fad 3F       		.uleb128 0x3f
 17156 4fae 82260000 		.4byte	.LASF1050
 17157 4fb2 07       		.byte	0x7
 17158 4fb3 C003     		.2byte	0x3c0
 17159 4fb5 06410000 		.4byte	0x4106
 17160 4fb9 02       		.uleb128 0x2
 17161 4fba 91       		.byte	0x91
 17162 4fbb 64       		.sleb128 -28
 17163 4fbc 3E       		.uleb128 0x3e
 17164 4fbd 650E0000 		.4byte	.LASF1065
 17165 4fc1 07       		.byte	0x7
ARM GAS  C:\Users\PCHAUT~1\AppData\Local\Temp\ccLw8kky.s 			page 315


 17166 4fc2 C203     		.2byte	0x3c2
 17167 4fc4 83090000 		.4byte	0x983
 17168 4fc8 02       		.uleb128 0x2
 17169 4fc9 91       		.byte	0x91
 17170 4fca 70       		.sleb128 -16
 17171 4fcb 3E       		.uleb128 0x3e
 17172 4fcc 87240000 		.4byte	.LASF1066
 17173 4fd0 07       		.byte	0x7
 17174 4fd1 C303     		.2byte	0x3c3
 17175 4fd3 83090000 		.4byte	0x983
 17176 4fd7 02       		.uleb128 0x2
 17177 4fd8 91       		.byte	0x91
 17178 4fd9 72       		.sleb128 -14
 17179 4fda 00       		.byte	0
 17180 4fdb 3C       		.uleb128 0x3c
 17181 4fdc 091D0000 		.4byte	.LASF1067
 17182 4fe0 07       		.byte	0x7
 17183 4fe1 AB03     		.2byte	0x3ab
 17184 4fe3 00000000 		.4byte	.LFB301
 17185 4fe7 AC000000 		.4byte	.LFE301-.LFB301
 17186 4feb 01       		.uleb128 0x1
 17187 4fec 9C       		.byte	0x9c
 17188 4fed 3D500000 		.4byte	0x503d
 17189 4ff1 3D       		.uleb128 0x3d
 17190 4ff2 63687000 		.ascii	"chp\000"
 17191 4ff6 07       		.byte	0x7
 17192 4ff7 AB03     		.2byte	0x3ab
 17193 4ff9 00410000 		.4byte	0x4100
 17194 4ffd 02       		.uleb128 0x2
 17195 4ffe 91       		.byte	0x91
 17196 4fff 6C       		.sleb128 -20
 17197 5000 3F       		.uleb128 0x3f
 17198 5001 41080000 		.4byte	.LASF1049
 17199 5005 07       		.byte	0x7
 17200 5006 AB03     		.2byte	0x3ab
 17201 5008 25000000 		.4byte	0x25
 17202 500c 02       		.uleb128 0x2
 17203 500d 91       		.byte	0x91
 17204 500e 68       		.sleb128 -24
 17205 500f 3F       		.uleb128 0x3f
 17206 5010 82260000 		.4byte	.LASF1050
 17207 5014 07       		.byte	0x7
 17208 5015 AB03     		.2byte	0x3ab
 17209 5017 06410000 		.4byte	0x4106
 17210 501b 02       		.uleb128 0x2
 17211 501c 91       		.byte	0x91
 17212 501d 64       		.sleb128 -28
 17213 501e 3E       		.uleb128 0x3e
 17214 501f 4C040000 		.4byte	.LASF1068
 17215 5023 07       		.byte	0x7
 17216 5024 AD03     		.2byte	0x3ad
 17217 5026 73090000 		.4byte	0x973
 17218 502a 02       		.uleb128 0x2
 17219 502b 91       		.byte	0x91
 17220 502c 72       		.sleb128 -14
 17221 502d 3E       		.uleb128 0x3e
 17222 502e B1050000 		.4byte	.LASF1069
ARM GAS  C:\Users\PCHAUT~1\AppData\Local\Temp\ccLw8kky.s 			page 316


 17223 5032 07       		.byte	0x7
 17224 5033 AE03     		.2byte	0x3ae
 17225 5035 73090000 		.4byte	0x973
 17226 5039 02       		.uleb128 0x2
 17227 503a 91       		.byte	0x91
 17228 503b 73       		.sleb128 -13
 17229 503c 00       		.byte	0
 17230 503d 3C       		.uleb128 0x3c
 17231 503e 761C0000 		.4byte	.LASF1070
 17232 5042 07       		.byte	0x7
 17233 5043 9103     		.2byte	0x391
 17234 5045 00000000 		.4byte	.LFB300
 17235 5049 D0000000 		.4byte	.LFE300-.LFB300
 17236 504d 01       		.uleb128 0x1
 17237 504e 9C       		.byte	0x9c
 17238 504f 90500000 		.4byte	0x5090
 17239 5053 3D       		.uleb128 0x3d
 17240 5054 63687000 		.ascii	"chp\000"
 17241 5058 07       		.byte	0x7
 17242 5059 9103     		.2byte	0x391
 17243 505b 00410000 		.4byte	0x4100
 17244 505f 02       		.uleb128 0x2
 17245 5060 91       		.byte	0x91
 17246 5061 6C       		.sleb128 -20
 17247 5062 3F       		.uleb128 0x3f
 17248 5063 41080000 		.4byte	.LASF1049
 17249 5067 07       		.byte	0x7
 17250 5068 9103     		.2byte	0x391
 17251 506a 25000000 		.4byte	0x25
 17252 506e 02       		.uleb128 0x2
 17253 506f 91       		.byte	0x91
 17254 5070 68       		.sleb128 -24
 17255 5071 3F       		.uleb128 0x3f
 17256 5072 82260000 		.4byte	.LASF1050
 17257 5076 07       		.byte	0x7
 17258 5077 9103     		.2byte	0x391
 17259 5079 06410000 		.4byte	0x4106
 17260 507d 02       		.uleb128 0x2
 17261 507e 91       		.byte	0x91
 17262 507f 64       		.sleb128 -28
 17263 5080 3E       		.uleb128 0x3e
 17264 5081 D02E0000 		.4byte	.LASF1071
 17265 5085 07       		.byte	0x7
 17266 5086 9503     		.2byte	0x395
 17267 5088 0D1C0000 		.4byte	0x1c0d
 17268 508c 02       		.uleb128 0x2
 17269 508d 91       		.byte	0x91
 17270 508e 70       		.sleb128 -16
 17271 508f 00       		.byte	0
 17272 5090 3C       		.uleb128 0x3c
 17273 5091 87270000 		.4byte	.LASF1072
 17274 5095 07       		.byte	0x7
 17275 5096 8903     		.2byte	0x389
 17276 5098 00000000 		.4byte	.LFB299
 17277 509c 30000000 		.4byte	.LFE299-.LFB299
 17278 50a0 01       		.uleb128 0x1
 17279 50a1 9C       		.byte	0x9c
ARM GAS  C:\Users\PCHAUT~1\AppData\Local\Temp\ccLw8kky.s 			page 317


 17280 50a2 D4500000 		.4byte	0x50d4
 17281 50a6 3D       		.uleb128 0x3d
 17282 50a7 63687000 		.ascii	"chp\000"
 17283 50ab 07       		.byte	0x7
 17284 50ac 8903     		.2byte	0x389
 17285 50ae 00410000 		.4byte	0x4100
 17286 50b2 02       		.uleb128 0x2
 17287 50b3 91       		.byte	0x91
 17288 50b4 6C       		.sleb128 -20
 17289 50b5 3F       		.uleb128 0x3f
 17290 50b6 41080000 		.4byte	.LASF1049
 17291 50ba 07       		.byte	0x7
 17292 50bb 8903     		.2byte	0x389
 17293 50bd 25000000 		.4byte	0x25
 17294 50c1 02       		.uleb128 0x2
 17295 50c2 91       		.byte	0x91
 17296 50c3 68       		.sleb128 -24
 17297 50c4 3F       		.uleb128 0x3f
 17298 50c5 82260000 		.4byte	.LASF1050
 17299 50c9 07       		.byte	0x7
 17300 50ca 8903     		.2byte	0x389
 17301 50cc 06410000 		.4byte	0x4106
 17302 50d0 02       		.uleb128 0x2
 17303 50d1 91       		.byte	0x91
 17304 50d2 64       		.sleb128 -28
 17305 50d3 00       		.byte	0
 17306 50d4 3C       		.uleb128 0x3c
 17307 50d5 202C0000 		.4byte	.LASF1073
 17308 50d9 07       		.byte	0x7
 17309 50da 7E03     		.2byte	0x37e
 17310 50dc 00000000 		.4byte	.LFB298
 17311 50e0 3C000000 		.4byte	.LFE298-.LFB298
 17312 50e4 01       		.uleb128 0x1
 17313 50e5 9C       		.byte	0x9c
 17314 50e6 18510000 		.4byte	0x5118
 17315 50ea 3D       		.uleb128 0x3d
 17316 50eb 63687000 		.ascii	"chp\000"
 17317 50ef 07       		.byte	0x7
 17318 50f0 7E03     		.2byte	0x37e
 17319 50f2 00410000 		.4byte	0x4100
 17320 50f6 02       		.uleb128 0x2
 17321 50f7 91       		.byte	0x91
 17322 50f8 6C       		.sleb128 -20
 17323 50f9 3F       		.uleb128 0x3f
 17324 50fa 41080000 		.4byte	.LASF1049
 17325 50fe 07       		.byte	0x7
 17326 50ff 7E03     		.2byte	0x37e
 17327 5101 25000000 		.4byte	0x25
 17328 5105 02       		.uleb128 0x2
 17329 5106 91       		.byte	0x91
 17330 5107 68       		.sleb128 -24
 17331 5108 3F       		.uleb128 0x3f
 17332 5109 82260000 		.4byte	.LASF1050
 17333 510d 07       		.byte	0x7
 17334 510e 7E03     		.2byte	0x37e
 17335 5110 06410000 		.4byte	0x4106
 17336 5114 02       		.uleb128 0x2
ARM GAS  C:\Users\PCHAUT~1\AppData\Local\Temp\ccLw8kky.s 			page 318


 17337 5115 91       		.byte	0x91
 17338 5116 64       		.sleb128 -28
 17339 5117 00       		.byte	0
 17340 5118 3C       		.uleb128 0x3c
 17341 5119 E02D0000 		.4byte	.LASF1074
 17342 511d 07       		.byte	0x7
 17343 511e 6303     		.2byte	0x363
 17344 5120 00000000 		.4byte	.LFB297
 17345 5124 94000000 		.4byte	.LFE297-.LFB297
 17346 5128 01       		.uleb128 0x1
 17347 5129 9C       		.byte	0x9c
 17348 512a 6B510000 		.4byte	0x516b
 17349 512e 3D       		.uleb128 0x3d
 17350 512f 63687000 		.ascii	"chp\000"
 17351 5133 07       		.byte	0x7
 17352 5134 6303     		.2byte	0x363
 17353 5136 00410000 		.4byte	0x4100
 17354 513a 02       		.uleb128 0x2
 17355 513b 91       		.byte	0x91
 17356 513c 6C       		.sleb128 -20
 17357 513d 3F       		.uleb128 0x3f
 17358 513e 41080000 		.4byte	.LASF1049
 17359 5142 07       		.byte	0x7
 17360 5143 6303     		.2byte	0x363
 17361 5145 25000000 		.4byte	0x25
 17362 5149 02       		.uleb128 0x2
 17363 514a 91       		.byte	0x91
 17364 514b 68       		.sleb128 -24
 17365 514c 3F       		.uleb128 0x3f
 17366 514d 82260000 		.4byte	.LASF1050
 17367 5151 07       		.byte	0x7
 17368 5152 6303     		.2byte	0x363
 17369 5154 06410000 		.4byte	0x4106
 17370 5158 02       		.uleb128 0x2
 17371 5159 91       		.byte	0x91
 17372 515a 64       		.sleb128 -28
 17373 515b 3E       		.uleb128 0x3e
 17374 515c 15270000 		.4byte	.LASF1075
 17375 5160 07       		.byte	0x7
 17376 5161 6503     		.2byte	0x365
 17377 5163 73090000 		.4byte	0x973
 17378 5167 02       		.uleb128 0x2
 17379 5168 91       		.byte	0x91
 17380 5169 73       		.sleb128 -13
 17381 516a 00       		.byte	0
 17382 516b 3C       		.uleb128 0x3c
 17383 516c EF120000 		.4byte	.LASF1076
 17384 5170 07       		.byte	0x7
 17385 5171 4D03     		.2byte	0x34d
 17386 5173 00000000 		.4byte	.LFB296
 17387 5177 A0000000 		.4byte	.LFE296-.LFB296
 17388 517b 01       		.uleb128 0x1
 17389 517c 9C       		.byte	0x9c
 17390 517d DC510000 		.4byte	0x51dc
 17391 5181 3D       		.uleb128 0x3d
 17392 5182 63687000 		.ascii	"chp\000"
 17393 5186 07       		.byte	0x7
ARM GAS  C:\Users\PCHAUT~1\AppData\Local\Temp\ccLw8kky.s 			page 319


 17394 5187 4D03     		.2byte	0x34d
 17395 5189 00410000 		.4byte	0x4100
 17396 518d 02       		.uleb128 0x2
 17397 518e 91       		.byte	0x91
 17398 518f 6C       		.sleb128 -20
 17399 5190 3F       		.uleb128 0x3f
 17400 5191 41080000 		.4byte	.LASF1049
 17401 5195 07       		.byte	0x7
 17402 5196 4D03     		.2byte	0x34d
 17403 5198 25000000 		.4byte	0x25
 17404 519c 02       		.uleb128 0x2
 17405 519d 91       		.byte	0x91
 17406 519e 68       		.sleb128 -24
 17407 519f 3F       		.uleb128 0x3f
 17408 51a0 82260000 		.4byte	.LASF1050
 17409 51a4 07       		.byte	0x7
 17410 51a5 4D03     		.2byte	0x34d
 17411 51a7 06410000 		.4byte	0x4106
 17412 51ab 02       		.uleb128 0x2
 17413 51ac 91       		.byte	0x91
 17414 51ad 64       		.sleb128 -28
 17415 51ae 3B       		.uleb128 0x3b
 17416 51af 65727200 		.ascii	"err\000"
 17417 51b3 07       		.byte	0x7
 17418 51b4 4F03     		.2byte	0x34f
 17419 51b6 68090000 		.4byte	0x968
 17420 51ba 02       		.uleb128 0x2
 17421 51bb 91       		.byte	0x91
 17422 51bc 71       		.sleb128 -15
 17423 51bd 3E       		.uleb128 0x3e
 17424 51be D42F0000 		.4byte	.LASF1077
 17425 51c2 07       		.byte	0x7
 17426 51c3 5003     		.2byte	0x350
 17427 51c5 8E090000 		.4byte	0x98e
 17428 51c9 02       		.uleb128 0x2
 17429 51ca 91       		.byte	0x91
 17430 51cb 72       		.sleb128 -14
 17431 51cc 3E       		.uleb128 0x3e
 17432 51cd B9070000 		.4byte	.LASF1078
 17433 51d1 07       		.byte	0x7
 17434 51d2 5103     		.2byte	0x351
 17435 51d4 73090000 		.4byte	0x973
 17436 51d8 02       		.uleb128 0x2
 17437 51d9 91       		.byte	0x91
 17438 51da 70       		.sleb128 -16
 17439 51db 00       		.byte	0
 17440 51dc 3C       		.uleb128 0x3c
 17441 51dd 622F0000 		.4byte	.LASF1079
 17442 51e1 07       		.byte	0x7
 17443 51e2 3903     		.2byte	0x339
 17444 51e4 00000000 		.4byte	.LFB295
 17445 51e8 88000000 		.4byte	.LFE295-.LFB295
 17446 51ec 01       		.uleb128 0x1
 17447 51ed 9C       		.byte	0x9c
 17448 51ee 3D520000 		.4byte	0x523d
 17449 51f2 3D       		.uleb128 0x3d
 17450 51f3 63687000 		.ascii	"chp\000"
ARM GAS  C:\Users\PCHAUT~1\AppData\Local\Temp\ccLw8kky.s 			page 320


 17451 51f7 07       		.byte	0x7
 17452 51f8 3903     		.2byte	0x339
 17453 51fa 00410000 		.4byte	0x4100
 17454 51fe 02       		.uleb128 0x2
 17455 51ff 91       		.byte	0x91
 17456 5200 6C       		.sleb128 -20
 17457 5201 3F       		.uleb128 0x3f
 17458 5202 41080000 		.4byte	.LASF1049
 17459 5206 07       		.byte	0x7
 17460 5207 3903     		.2byte	0x339
 17461 5209 25000000 		.4byte	0x25
 17462 520d 02       		.uleb128 0x2
 17463 520e 91       		.byte	0x91
 17464 520f 68       		.sleb128 -24
 17465 5210 3F       		.uleb128 0x3f
 17466 5211 82260000 		.4byte	.LASF1050
 17467 5215 07       		.byte	0x7
 17468 5216 3903     		.2byte	0x339
 17469 5218 06410000 		.4byte	0x4106
 17470 521c 02       		.uleb128 0x2
 17471 521d 91       		.byte	0x91
 17472 521e 64       		.sleb128 -28
 17473 521f 3B       		.uleb128 0x3b
 17474 5220 65727200 		.ascii	"err\000"
 17475 5224 07       		.byte	0x7
 17476 5225 3B03     		.2byte	0x33b
 17477 5227 68090000 		.4byte	0x968
 17478 522b 02       		.uleb128 0x2
 17479 522c 91       		.byte	0x91
 17480 522d 73       		.sleb128 -13
 17481 522e 3B       		.uleb128 0x3b
 17482 522f 616500   		.ascii	"ae\000"
 17483 5232 07       		.byte	0x7
 17484 5233 3C03     		.2byte	0x33c
 17485 5235 73090000 		.4byte	0x973
 17486 5239 02       		.uleb128 0x2
 17487 523a 91       		.byte	0x91
 17488 523b 72       		.sleb128 -14
 17489 523c 00       		.byte	0
 17490 523d 3C       		.uleb128 0x3c
 17491 523e 3E2D0000 		.4byte	.LASF1080
 17492 5242 07       		.byte	0x7
 17493 5243 2503     		.2byte	0x325
 17494 5245 00000000 		.4byte	.LFB294
 17495 5249 88000000 		.4byte	.LFE294-.LFB294
 17496 524d 01       		.uleb128 0x1
 17497 524e 9C       		.byte	0x9c
 17498 524f 9F520000 		.4byte	0x529f
 17499 5253 3D       		.uleb128 0x3d
 17500 5254 63687000 		.ascii	"chp\000"
 17501 5258 07       		.byte	0x7
 17502 5259 2503     		.2byte	0x325
 17503 525b 00410000 		.4byte	0x4100
 17504 525f 02       		.uleb128 0x2
 17505 5260 91       		.byte	0x91
 17506 5261 6C       		.sleb128 -20
 17507 5262 3F       		.uleb128 0x3f
ARM GAS  C:\Users\PCHAUT~1\AppData\Local\Temp\ccLw8kky.s 			page 321


 17508 5263 41080000 		.4byte	.LASF1049
 17509 5267 07       		.byte	0x7
 17510 5268 2503     		.2byte	0x325
 17511 526a 25000000 		.4byte	0x25
 17512 526e 02       		.uleb128 0x2
 17513 526f 91       		.byte	0x91
 17514 5270 68       		.sleb128 -24
 17515 5271 3F       		.uleb128 0x3f
 17516 5272 82260000 		.4byte	.LASF1050
 17517 5276 07       		.byte	0x7
 17518 5277 2503     		.2byte	0x325
 17519 5279 06410000 		.4byte	0x4106
 17520 527d 02       		.uleb128 0x2
 17521 527e 91       		.byte	0x91
 17522 527f 64       		.sleb128 -28
 17523 5280 3B       		.uleb128 0x3b
 17524 5281 65727200 		.ascii	"err\000"
 17525 5285 07       		.byte	0x7
 17526 5286 2703     		.2byte	0x327
 17527 5288 68090000 		.4byte	0x968
 17528 528c 02       		.uleb128 0x2
 17529 528d 91       		.byte	0x91
 17530 528e 73       		.sleb128 -13
 17531 528f 3B       		.uleb128 0x3b
 17532 5290 61776200 		.ascii	"awb\000"
 17533 5294 07       		.byte	0x7
 17534 5295 2803     		.2byte	0x328
 17535 5297 73090000 		.4byte	0x973
 17536 529b 02       		.uleb128 0x2
 17537 529c 91       		.byte	0x91
 17538 529d 72       		.sleb128 -14
 17539 529e 00       		.byte	0
 17540 529f 3C       		.uleb128 0x3c
 17541 52a0 952F0000 		.4byte	.LASF1081
 17542 52a4 07       		.byte	0x7
 17543 52a5 0F03     		.2byte	0x30f
 17544 52a7 00000000 		.4byte	.LFB293
 17545 52ab B4000000 		.4byte	.LFE293-.LFB293
 17546 52af 01       		.uleb128 0x1
 17547 52b0 9C       		.byte	0x9c
 17548 52b1 19530000 		.4byte	0x5319
 17549 52b5 3D       		.uleb128 0x3d
 17550 52b6 63687000 		.ascii	"chp\000"
 17551 52ba 07       		.byte	0x7
 17552 52bb 0F03     		.2byte	0x30f
 17553 52bd 00410000 		.4byte	0x4100
 17554 52c1 02       		.uleb128 0x2
 17555 52c2 91       		.byte	0x91
 17556 52c3 6C       		.sleb128 -20
 17557 52c4 3F       		.uleb128 0x3f
 17558 52c5 41080000 		.4byte	.LASF1049
 17559 52c9 07       		.byte	0x7
 17560 52ca 0F03     		.2byte	0x30f
 17561 52cc 25000000 		.4byte	0x25
 17562 52d0 02       		.uleb128 0x2
 17563 52d1 91       		.byte	0x91
 17564 52d2 68       		.sleb128 -24
ARM GAS  C:\Users\PCHAUT~1\AppData\Local\Temp\ccLw8kky.s 			page 322


 17565 52d3 3F       		.uleb128 0x3f
 17566 52d4 82260000 		.4byte	.LASF1050
 17567 52d8 07       		.byte	0x7
 17568 52d9 0F03     		.2byte	0x30f
 17569 52db 06410000 		.4byte	0x4106
 17570 52df 02       		.uleb128 0x2
 17571 52e0 91       		.byte	0x91
 17572 52e1 64       		.sleb128 -28
 17573 52e2 3B       		.uleb128 0x3b
 17574 52e3 65727200 		.ascii	"err\000"
 17575 52e7 07       		.byte	0x7
 17576 52e8 1103     		.2byte	0x311
 17577 52ea 68090000 		.4byte	0x968
 17578 52ee 02       		.uleb128 0x2
 17579 52ef 91       		.byte	0x91
 17580 52f0 73       		.sleb128 -13
 17581 52f1 3B       		.uleb128 0x3b
 17582 52f2 7200     		.ascii	"r\000"
 17583 52f4 07       		.byte	0x7
 17584 52f5 1203     		.2byte	0x312
 17585 52f7 73090000 		.4byte	0x973
 17586 52fb 02       		.uleb128 0x2
 17587 52fc 91       		.byte	0x91
 17588 52fd 70       		.sleb128 -16
 17589 52fe 3B       		.uleb128 0x3b
 17590 52ff 6700     		.ascii	"g\000"
 17591 5301 07       		.byte	0x7
 17592 5302 1203     		.2byte	0x312
 17593 5304 73090000 		.4byte	0x973
 17594 5308 02       		.uleb128 0x2
 17595 5309 91       		.byte	0x91
 17596 530a 71       		.sleb128 -15
 17597 530b 3B       		.uleb128 0x3b
 17598 530c 6200     		.ascii	"b\000"
 17599 530e 07       		.byte	0x7
 17600 530f 1203     		.2byte	0x312
 17601 5311 73090000 		.4byte	0x973
 17602 5315 02       		.uleb128 0x2
 17603 5316 91       		.byte	0x91
 17604 5317 72       		.sleb128 -14
 17605 5318 00       		.byte	0
 17606 5319 3C       		.uleb128 0x3c
 17607 531a 912C0000 		.4byte	.LASF1082
 17608 531e 07       		.byte	0x7
 17609 531f FA02     		.2byte	0x2fa
 17610 5321 00000000 		.4byte	.LFB292
 17611 5325 A0000000 		.4byte	.LFE292-.LFB292
 17612 5329 01       		.uleb128 0x1
 17613 532a 9C       		.byte	0x9c
 17614 532b 86530000 		.4byte	0x5386
 17615 532f 3D       		.uleb128 0x3d
 17616 5330 63687000 		.ascii	"chp\000"
 17617 5334 07       		.byte	0x7
 17618 5335 FA02     		.2byte	0x2fa
 17619 5337 00410000 		.4byte	0x4100
 17620 533b 02       		.uleb128 0x2
 17621 533c 91       		.byte	0x91
ARM GAS  C:\Users\PCHAUT~1\AppData\Local\Temp\ccLw8kky.s 			page 323


 17622 533d 6C       		.sleb128 -20
 17623 533e 3F       		.uleb128 0x3f
 17624 533f 41080000 		.4byte	.LASF1049
 17625 5343 07       		.byte	0x7
 17626 5344 FA02     		.2byte	0x2fa
 17627 5346 25000000 		.4byte	0x25
 17628 534a 02       		.uleb128 0x2
 17629 534b 91       		.byte	0x91
 17630 534c 68       		.sleb128 -24
 17631 534d 3F       		.uleb128 0x3f
 17632 534e 82260000 		.4byte	.LASF1050
 17633 5352 07       		.byte	0x7
 17634 5353 FA02     		.2byte	0x2fa
 17635 5355 06410000 		.4byte	0x4106
 17636 5359 02       		.uleb128 0x2
 17637 535a 91       		.byte	0x91
 17638 535b 64       		.sleb128 -28
 17639 535c 3B       		.uleb128 0x3b
 17640 535d 65727200 		.ascii	"err\000"
 17641 5361 07       		.byte	0x7
 17642 5362 FC02     		.2byte	0x2fc
 17643 5364 68090000 		.4byte	0x968
 17644 5368 02       		.uleb128 0x2
 17645 5369 91       		.byte	0x91
 17646 536a 73       		.sleb128 -13
 17647 536b 3B       		.uleb128 0x3b
 17648 536c 7600     		.ascii	"v\000"
 17649 536e 07       		.byte	0x7
 17650 536f FD02     		.2byte	0x2fd
 17651 5371 73090000 		.4byte	0x973
 17652 5375 02       		.uleb128 0x2
 17653 5376 91       		.byte	0x91
 17654 5377 71       		.sleb128 -15
 17655 5378 3B       		.uleb128 0x3b
 17656 5379 6800     		.ascii	"h\000"
 17657 537b 07       		.byte	0x7
 17658 537c FD02     		.2byte	0x2fd
 17659 537e 73090000 		.4byte	0x973
 17660 5382 02       		.uleb128 0x2
 17661 5383 91       		.byte	0x91
 17662 5384 72       		.sleb128 -14
 17663 5385 00       		.byte	0
 17664 5386 3C       		.uleb128 0x3c
 17665 5387 90310000 		.4byte	.LASF1083
 17666 538b 07       		.byte	0x7
 17667 538c E502     		.2byte	0x2e5
 17668 538e 00000000 		.4byte	.LFB291
 17669 5392 08010000 		.4byte	.LFE291-.LFB291
 17670 5396 01       		.uleb128 0x1
 17671 5397 9C       		.byte	0x9c
 17672 5398 D9530000 		.4byte	0x53d9
 17673 539c 3D       		.uleb128 0x3d
 17674 539d 63687000 		.ascii	"chp\000"
 17675 53a1 07       		.byte	0x7
 17676 53a2 E502     		.2byte	0x2e5
 17677 53a4 00410000 		.4byte	0x4100
 17678 53a8 02       		.uleb128 0x2
ARM GAS  C:\Users\PCHAUT~1\AppData\Local\Temp\ccLw8kky.s 			page 324


 17679 53a9 91       		.byte	0x91
 17680 53aa 64       		.sleb128 -28
 17681 53ab 3F       		.uleb128 0x3f
 17682 53ac 41080000 		.4byte	.LASF1049
 17683 53b0 07       		.byte	0x7
 17684 53b1 E502     		.2byte	0x2e5
 17685 53b3 25000000 		.4byte	0x25
 17686 53b7 02       		.uleb128 0x2
 17687 53b8 91       		.byte	0x91
 17688 53b9 60       		.sleb128 -32
 17689 53ba 3F       		.uleb128 0x3f
 17690 53bb 82260000 		.4byte	.LASF1050
 17691 53bf 07       		.byte	0x7
 17692 53c0 E502     		.2byte	0x2e5
 17693 53c2 06410000 		.4byte	0x4106
 17694 53c6 02       		.uleb128 0x2
 17695 53c7 91       		.byte	0x91
 17696 53c8 5C       		.sleb128 -36
 17697 53c9 3B       		.uleb128 0x3b
 17698 53ca 65727200 		.ascii	"err\000"
 17699 53ce 07       		.byte	0x7
 17700 53cf E702     		.2byte	0x2e7
 17701 53d1 68090000 		.4byte	0x968
 17702 53d5 02       		.uleb128 0x2
 17703 53d6 91       		.byte	0x91
 17704 53d7 6B       		.sleb128 -21
 17705 53d8 00       		.byte	0
 17706 53d9 3C       		.uleb128 0x3c
 17707 53da 7E310000 		.4byte	.LASF1084
 17708 53de 07       		.byte	0x7
 17709 53df B902     		.2byte	0x2b9
 17710 53e1 00000000 		.4byte	.LFB290
 17711 53e5 44010000 		.4byte	.LFE290-.LFB290
 17712 53e9 01       		.uleb128 0x1
 17713 53ea 9C       		.byte	0x9c
 17714 53eb 46540000 		.4byte	0x5446
 17715 53ef 3D       		.uleb128 0x3d
 17716 53f0 63687000 		.ascii	"chp\000"
 17717 53f4 07       		.byte	0x7
 17718 53f5 B902     		.2byte	0x2b9
 17719 53f7 00410000 		.4byte	0x4100
 17720 53fb 02       		.uleb128 0x2
 17721 53fc 91       		.byte	0x91
 17722 53fd 6C       		.sleb128 -20
 17723 53fe 3F       		.uleb128 0x3f
 17724 53ff 41080000 		.4byte	.LASF1049
 17725 5403 07       		.byte	0x7
 17726 5404 B902     		.2byte	0x2b9
 17727 5406 25000000 		.4byte	0x25
 17728 540a 02       		.uleb128 0x2
 17729 540b 91       		.byte	0x91
 17730 540c 68       		.sleb128 -24
 17731 540d 3F       		.uleb128 0x3f
 17732 540e 82260000 		.4byte	.LASF1050
 17733 5412 07       		.byte	0x7
 17734 5413 B902     		.2byte	0x2b9
 17735 5415 06410000 		.4byte	0x4106
ARM GAS  C:\Users\PCHAUT~1\AppData\Local\Temp\ccLw8kky.s 			page 325


 17736 5419 02       		.uleb128 0x2
 17737 541a 91       		.byte	0x91
 17738 541b 64       		.sleb128 -28
 17739 541c 3B       		.uleb128 0x3b
 17740 541d 6600     		.ascii	"f\000"
 17741 541f 07       		.byte	0x7
 17742 5420 BB02     		.2byte	0x2bb
 17743 5422 8E090000 		.4byte	0x98e
 17744 5426 02       		.uleb128 0x2
 17745 5427 91       		.byte	0x91
 17746 5428 72       		.sleb128 -14
 17747 5429 3B       		.uleb128 0x3b
 17748 542a 737800   		.ascii	"sx\000"
 17749 542d 07       		.byte	0x7
 17750 542e BC02     		.2byte	0x2bc
 17751 5430 73090000 		.4byte	0x973
 17752 5434 02       		.uleb128 0x2
 17753 5435 91       		.byte	0x91
 17754 5436 70       		.sleb128 -16
 17755 5437 3B       		.uleb128 0x3b
 17756 5438 737900   		.ascii	"sy\000"
 17757 543b 07       		.byte	0x7
 17758 543c BC02     		.2byte	0x2bc
 17759 543e 73090000 		.4byte	0x973
 17760 5442 02       		.uleb128 0x2
 17761 5443 91       		.byte	0x91
 17762 5444 71       		.sleb128 -15
 17763 5445 00       		.byte	0
 17764 5446 3C       		.uleb128 0x3c
 17765 5447 DA070000 		.4byte	.LASF1085
 17766 544b 07       		.byte	0x7
 17767 544c A702     		.2byte	0x2a7
 17768 544e 00000000 		.4byte	.LFB289
 17769 5452 88000000 		.4byte	.LFE289-.LFB289
 17770 5456 01       		.uleb128 0x1
 17771 5457 9C       		.byte	0x9c
 17772 5458 A8540000 		.4byte	0x54a8
 17773 545c 3D       		.uleb128 0x3d
 17774 545d 63687000 		.ascii	"chp\000"
 17775 5461 07       		.byte	0x7
 17776 5462 A702     		.2byte	0x2a7
 17777 5464 00410000 		.4byte	0x4100
 17778 5468 02       		.uleb128 0x2
 17779 5469 91       		.byte	0x91
 17780 546a 6C       		.sleb128 -20
 17781 546b 3F       		.uleb128 0x3f
 17782 546c 41080000 		.4byte	.LASF1049
 17783 5470 07       		.byte	0x7
 17784 5471 A702     		.2byte	0x2a7
 17785 5473 25000000 		.4byte	0x25
 17786 5477 02       		.uleb128 0x2
 17787 5478 91       		.byte	0x91
 17788 5479 68       		.sleb128 -24
 17789 547a 3F       		.uleb128 0x3f
 17790 547b 82260000 		.4byte	.LASF1050
 17791 547f 07       		.byte	0x7
 17792 5480 A702     		.2byte	0x2a7
ARM GAS  C:\Users\PCHAUT~1\AppData\Local\Temp\ccLw8kky.s 			page 326


 17793 5482 06410000 		.4byte	0x4106
 17794 5486 02       		.uleb128 0x2
 17795 5487 91       		.byte	0x91
 17796 5488 64       		.sleb128 -28
 17797 5489 3E       		.uleb128 0x3e
 17798 548a 3E100000 		.4byte	.LASF951
 17799 548e 07       		.byte	0x7
 17800 548f A902     		.2byte	0x2a9
 17801 5491 68090000 		.4byte	0x968
 17802 5495 02       		.uleb128 0x2
 17803 5496 91       		.byte	0x91
 17804 5497 72       		.sleb128 -14
 17805 5498 3B       		.uleb128 0x3b
 17806 5499 65727200 		.ascii	"err\000"
 17807 549d 07       		.byte	0x7
 17808 549e A902     		.2byte	0x2a9
 17809 54a0 68090000 		.4byte	0x968
 17810 54a4 02       		.uleb128 0x2
 17811 54a5 91       		.byte	0x91
 17812 54a6 73       		.sleb128 -13
 17813 54a7 00       		.byte	0
 17814 54a8 3C       		.uleb128 0x3c
 17815 54a9 EE0F0000 		.4byte	.LASF1086
 17816 54ad 07       		.byte	0x7
 17817 54ae 9502     		.2byte	0x295
 17818 54b0 00000000 		.4byte	.LFB288
 17819 54b4 88000000 		.4byte	.LFE288-.LFB288
 17820 54b8 01       		.uleb128 0x1
 17821 54b9 9C       		.byte	0x9c
 17822 54ba 0A550000 		.4byte	0x550a
 17823 54be 3D       		.uleb128 0x3d
 17824 54bf 63687000 		.ascii	"chp\000"
 17825 54c3 07       		.byte	0x7
 17826 54c4 9502     		.2byte	0x295
 17827 54c6 00410000 		.4byte	0x4100
 17828 54ca 02       		.uleb128 0x2
 17829 54cb 91       		.byte	0x91
 17830 54cc 6C       		.sleb128 -20
 17831 54cd 3F       		.uleb128 0x3f
 17832 54ce 41080000 		.4byte	.LASF1049
 17833 54d2 07       		.byte	0x7
 17834 54d3 9502     		.2byte	0x295
 17835 54d5 25000000 		.4byte	0x25
 17836 54d9 02       		.uleb128 0x2
 17837 54da 91       		.byte	0x91
 17838 54db 68       		.sleb128 -24
 17839 54dc 3F       		.uleb128 0x3f
 17840 54dd 82260000 		.4byte	.LASF1050
 17841 54e1 07       		.byte	0x7
 17842 54e2 9502     		.2byte	0x295
 17843 54e4 06410000 		.4byte	0x4106
 17844 54e8 02       		.uleb128 0x2
 17845 54e9 91       		.byte	0x91
 17846 54ea 64       		.sleb128 -28
 17847 54eb 3E       		.uleb128 0x3e
 17848 54ec 3E100000 		.4byte	.LASF951
 17849 54f0 07       		.byte	0x7
ARM GAS  C:\Users\PCHAUT~1\AppData\Local\Temp\ccLw8kky.s 			page 327


 17850 54f1 9702     		.2byte	0x297
 17851 54f3 68090000 		.4byte	0x968
 17852 54f7 02       		.uleb128 0x2
 17853 54f8 91       		.byte	0x91
 17854 54f9 72       		.sleb128 -14
 17855 54fa 3B       		.uleb128 0x3b
 17856 54fb 65727200 		.ascii	"err\000"
 17857 54ff 07       		.byte	0x7
 17858 5500 9702     		.2byte	0x297
 17859 5502 68090000 		.4byte	0x968
 17860 5506 02       		.uleb128 0x2
 17861 5507 91       		.byte	0x91
 17862 5508 73       		.sleb128 -13
 17863 5509 00       		.byte	0
 17864 550a 3C       		.uleb128 0x3c
 17865 550b DC200000 		.4byte	.LASF1087
 17866 550f 07       		.byte	0x7
 17867 5510 8502     		.2byte	0x285
 17868 5512 00000000 		.4byte	.LFB287
 17869 5516 64000000 		.4byte	.LFE287-.LFB287
 17870 551a 01       		.uleb128 0x1
 17871 551b 9C       		.byte	0x9c
 17872 551c 69550000 		.4byte	0x5569
 17873 5520 3D       		.uleb128 0x3d
 17874 5521 63687000 		.ascii	"chp\000"
 17875 5525 07       		.byte	0x7
 17876 5526 8502     		.2byte	0x285
 17877 5528 00410000 		.4byte	0x4100
 17878 552c 02       		.uleb128 0x2
 17879 552d 91       		.byte	0x91
 17880 552e 6C       		.sleb128 -20
 17881 552f 3F       		.uleb128 0x3f
 17882 5530 41080000 		.4byte	.LASF1049
 17883 5534 07       		.byte	0x7
 17884 5535 8502     		.2byte	0x285
 17885 5537 25000000 		.4byte	0x25
 17886 553b 02       		.uleb128 0x2
 17887 553c 91       		.byte	0x91
 17888 553d 68       		.sleb128 -24
 17889 553e 3F       		.uleb128 0x3f
 17890 553f 82260000 		.4byte	.LASF1050
 17891 5543 07       		.byte	0x7
 17892 5544 8502     		.2byte	0x285
 17893 5546 06410000 		.4byte	0x4106
 17894 554a 02       		.uleb128 0x2
 17895 554b 91       		.byte	0x91
 17896 554c 64       		.sleb128 -28
 17897 554d 20       		.uleb128 0x20
 17898 554e 71250000 		.4byte	.LASF1088
 17899 5552 07       		.byte	0x7
 17900 5553 8902     		.2byte	0x289
 17901 5555 73090000 		.4byte	0x973
 17902 5559 3E       		.uleb128 0x3e
 17903 555a 932E0000 		.4byte	.LASF1089
 17904 555e 07       		.byte	0x7
 17905 555f 8A02     		.2byte	0x28a
 17906 5561 911E0000 		.4byte	0x1e91
ARM GAS  C:\Users\PCHAUT~1\AppData\Local\Temp\ccLw8kky.s 			page 328


 17907 5565 02       		.uleb128 0x2
 17908 5566 91       		.byte	0x91
 17909 5567 73       		.sleb128 -13
 17910 5568 00       		.byte	0
 17911 5569 3C       		.uleb128 0x3c
 17912 556a D7150000 		.4byte	.LASF1090
 17913 556e 07       		.byte	0x7
 17914 556f 7002     		.2byte	0x270
 17915 5571 00000000 		.4byte	.LFB286
 17916 5575 78000000 		.4byte	.LFE286-.LFB286
 17917 5579 01       		.uleb128 0x1
 17918 557a 9C       		.byte	0x9c
 17919 557b E3550000 		.4byte	0x55e3
 17920 557f 3D       		.uleb128 0x3d
 17921 5580 63687000 		.ascii	"chp\000"
 17922 5584 07       		.byte	0x7
 17923 5585 7002     		.2byte	0x270
 17924 5587 00410000 		.4byte	0x4100
 17925 558b 02       		.uleb128 0x2
 17926 558c 91       		.byte	0x91
 17927 558d 64       		.sleb128 -28
 17928 558e 3F       		.uleb128 0x3f
 17929 558f 41080000 		.4byte	.LASF1049
 17930 5593 07       		.byte	0x7
 17931 5594 7002     		.2byte	0x270
 17932 5596 25000000 		.4byte	0x25
 17933 559a 02       		.uleb128 0x2
 17934 559b 91       		.byte	0x91
 17935 559c 60       		.sleb128 -32
 17936 559d 3F       		.uleb128 0x3f
 17937 559e 82260000 		.4byte	.LASF1050
 17938 55a2 07       		.byte	0x7
 17939 55a3 7002     		.2byte	0x270
 17940 55a5 06410000 		.4byte	0x4106
 17941 55a9 02       		.uleb128 0x2
 17942 55aa 91       		.byte	0x91
 17943 55ab 5C       		.sleb128 -36
 17944 55ac 20       		.uleb128 0x20
 17945 55ad 71250000 		.4byte	.LASF1088
 17946 55b1 07       		.byte	0x7
 17947 55b2 7402     		.2byte	0x274
 17948 55b4 73090000 		.4byte	0x973
 17949 55b8 20       		.uleb128 0x20
 17950 55b9 A7220000 		.4byte	.LASF1091
 17951 55bd 07       		.byte	0x7
 17952 55be 7402     		.2byte	0x274
 17953 55c0 73090000 		.4byte	0x973
 17954 55c4 3B       		.uleb128 0x3b
 17955 55c5 6C656E00 		.ascii	"len\000"
 17956 55c9 07       		.byte	0x7
 17957 55ca 7502     		.2byte	0x275
 17958 55cc 2C000000 		.4byte	0x2c
 17959 55d0 02       		.uleb128 0x2
 17960 55d1 91       		.byte	0x91
 17961 55d2 70       		.sleb128 -16
 17962 55d3 3E       		.uleb128 0x3e
 17963 55d4 932E0000 		.4byte	.LASF1089
ARM GAS  C:\Users\PCHAUT~1\AppData\Local\Temp\ccLw8kky.s 			page 329


 17964 55d8 07       		.byte	0x7
 17965 55d9 7602     		.2byte	0x276
 17966 55db 911E0000 		.4byte	0x1e91
 17967 55df 02       		.uleb128 0x2
 17968 55e0 91       		.byte	0x91
 17969 55e1 6F       		.sleb128 -17
 17970 55e2 00       		.byte	0
 17971 55e3 3C       		.uleb128 0x3c
 17972 55e4 27190000 		.4byte	.LASF1092
 17973 55e8 07       		.byte	0x7
 17974 55e9 6602     		.2byte	0x266
 17975 55eb 00000000 		.4byte	.LFB285
 17976 55ef 34000000 		.4byte	.LFE285-.LFB285
 17977 55f3 01       		.uleb128 0x1
 17978 55f4 9C       		.byte	0x9c
 17979 55f5 33560000 		.4byte	0x5633
 17980 55f9 3D       		.uleb128 0x3d
 17981 55fa 63687000 		.ascii	"chp\000"
 17982 55fe 07       		.byte	0x7
 17983 55ff 6602     		.2byte	0x266
 17984 5601 00410000 		.4byte	0x4100
 17985 5605 02       		.uleb128 0x2
 17986 5606 91       		.byte	0x91
 17987 5607 6C       		.sleb128 -20
 17988 5608 3F       		.uleb128 0x3f
 17989 5609 41080000 		.4byte	.LASF1049
 17990 560d 07       		.byte	0x7
 17991 560e 6602     		.2byte	0x266
 17992 5610 25000000 		.4byte	0x25
 17993 5614 02       		.uleb128 0x2
 17994 5615 91       		.byte	0x91
 17995 5616 68       		.sleb128 -24
 17996 5617 3F       		.uleb128 0x3f
 17997 5618 82260000 		.4byte	.LASF1050
 17998 561c 07       		.byte	0x7
 17999 561d 6602     		.2byte	0x266
 18000 561f 06410000 		.4byte	0x4106
 18001 5623 02       		.uleb128 0x2
 18002 5624 91       		.byte	0x91
 18003 5625 64       		.sleb128 -28
 18004 5626 20       		.uleb128 0x20
 18005 5627 71250000 		.4byte	.LASF1088
 18006 562b 07       		.byte	0x7
 18007 562c 6B02     		.2byte	0x26b
 18008 562e 73090000 		.4byte	0x973
 18009 5632 00       		.byte	0
 18010 5633 3C       		.uleb128 0x3c
 18011 5634 AC080000 		.4byte	.LASF1093
 18012 5638 07       		.byte	0x7
 18013 5639 3402     		.2byte	0x234
 18014 563b 00000000 		.4byte	.LFB284
 18015 563f 3C010000 		.4byte	.LFE284-.LFB284
 18016 5643 01       		.uleb128 0x1
 18017 5644 9C       		.byte	0x9c
 18018 5645 95560000 		.4byte	0x5695
 18019 5649 3D       		.uleb128 0x3d
 18020 564a 63687000 		.ascii	"chp\000"
ARM GAS  C:\Users\PCHAUT~1\AppData\Local\Temp\ccLw8kky.s 			page 330


 18021 564e 07       		.byte	0x7
 18022 564f 3402     		.2byte	0x234
 18023 5651 00410000 		.4byte	0x4100
 18024 5655 02       		.uleb128 0x2
 18025 5656 91       		.byte	0x91
 18026 5657 64       		.sleb128 -28
 18027 5658 3F       		.uleb128 0x3f
 18028 5659 41080000 		.4byte	.LASF1049
 18029 565d 07       		.byte	0x7
 18030 565e 3402     		.2byte	0x234
 18031 5660 25000000 		.4byte	0x25
 18032 5664 02       		.uleb128 0x2
 18033 5665 91       		.byte	0x91
 18034 5666 60       		.sleb128 -32
 18035 5667 3F       		.uleb128 0x3f
 18036 5668 82260000 		.4byte	.LASF1050
 18037 566c 07       		.byte	0x7
 18038 566d 3402     		.2byte	0x234
 18039 566f 06410000 		.4byte	0x4106
 18040 5673 02       		.uleb128 0x2
 18041 5674 91       		.byte	0x91
 18042 5675 5C       		.sleb128 -36
 18043 5676 3E       		.uleb128 0x3e
 18044 5677 03060000 		.4byte	.LASF1094
 18045 567b 07       		.byte	0x7
 18046 567c 3602     		.2byte	0x236
 18047 567e 2B460000 		.4byte	0x462b
 18048 5682 02       		.uleb128 0x2
 18049 5683 91       		.byte	0x91
 18050 5684 70       		.sleb128 -16
 18051 5685 3E       		.uleb128 0x3e
 18052 5686 CB000000 		.4byte	.LASF1095
 18053 568a 07       		.byte	0x7
 18054 568b 3702     		.2byte	0x237
 18055 568d 25000000 		.4byte	0x25
 18056 5691 02       		.uleb128 0x2
 18057 5692 91       		.byte	0x91
 18058 5693 6C       		.sleb128 -20
 18059 5694 00       		.byte	0
 18060 5695 3C       		.uleb128 0x3c
 18061 5696 D30E0000 		.4byte	.LASF1096
 18062 569a 07       		.byte	0x7
 18063 569b 2402     		.2byte	0x224
 18064 569d 00000000 		.4byte	.LFB283
 18065 56a1 64000000 		.4byte	.LFE283-.LFB283
 18066 56a5 01       		.uleb128 0x1
 18067 56a6 9C       		.byte	0x9c
 18068 56a7 E7560000 		.4byte	0x56e7
 18069 56ab 3D       		.uleb128 0x3d
 18070 56ac 63687000 		.ascii	"chp\000"
 18071 56b0 07       		.byte	0x7
 18072 56b1 2402     		.2byte	0x224
 18073 56b3 00410000 		.4byte	0x4100
 18074 56b7 02       		.uleb128 0x2
 18075 56b8 91       		.byte	0x91
 18076 56b9 6C       		.sleb128 -20
 18077 56ba 3F       		.uleb128 0x3f
ARM GAS  C:\Users\PCHAUT~1\AppData\Local\Temp\ccLw8kky.s 			page 331


 18078 56bb 41080000 		.4byte	.LASF1049
 18079 56bf 07       		.byte	0x7
 18080 56c0 2402     		.2byte	0x224
 18081 56c2 25000000 		.4byte	0x25
 18082 56c6 02       		.uleb128 0x2
 18083 56c7 91       		.byte	0x91
 18084 56c8 68       		.sleb128 -24
 18085 56c9 3F       		.uleb128 0x3f
 18086 56ca 82260000 		.4byte	.LASF1050
 18087 56ce 07       		.byte	0x7
 18088 56cf 2402     		.2byte	0x224
 18089 56d1 06410000 		.4byte	0x4106
 18090 56d5 02       		.uleb128 0x2
 18091 56d6 91       		.byte	0x91
 18092 56d7 64       		.sleb128 -28
 18093 56d8 3B       		.uleb128 0x3b
 18094 56d9 6E7300   		.ascii	"ns\000"
 18095 56dc 07       		.byte	0x7
 18096 56dd 2602     		.2byte	0x226
 18097 56df 25460000 		.4byte	0x4625
 18098 56e3 02       		.uleb128 0x2
 18099 56e4 91       		.byte	0x91
 18100 56e5 70       		.sleb128 -16
 18101 56e6 00       		.byte	0
 18102 56e7 3C       		.uleb128 0x3c
 18103 56e8 C52C0000 		.4byte	.LASF1097
 18104 56ec 07       		.byte	0x7
 18105 56ed F501     		.2byte	0x1f5
 18106 56ef 00000000 		.4byte	.LFB282
 18107 56f3 7C010000 		.4byte	.LFE282-.LFB282
 18108 56f7 01       		.uleb128 0x1
 18109 56f8 9C       		.byte	0x9c
 18110 56f9 4B570000 		.4byte	0x574b
 18111 56fd 3D       		.uleb128 0x3d
 18112 56fe 6F757400 		.ascii	"out\000"
 18113 5702 07       		.byte	0x7
 18114 5703 F501     		.2byte	0x1f5
 18115 5705 00410000 		.4byte	0x4100
 18116 5709 03       		.uleb128 0x3
 18117 570a 91       		.byte	0x91
 18118 570b A47F     		.sleb128 -92
 18119 570d 3D       		.uleb128 0x3d
 18120 570e 6E7300   		.ascii	"ns\000"
 18121 5711 07       		.byte	0x7
 18122 5712 F501     		.2byte	0x1f5
 18123 5714 25460000 		.4byte	0x4625
 18124 5718 03       		.uleb128 0x3
 18125 5719 91       		.byte	0x91
 18126 571a A07F     		.sleb128 -96
 18127 571c 3F       		.uleb128 0x3f
 18128 571d 3D130000 		.4byte	.LASF1098
 18129 5721 07       		.byte	0x7
 18130 5722 F501     		.2byte	0x1f5
 18131 5724 25000000 		.4byte	0x25
 18132 5728 03       		.uleb128 0x3
 18133 5729 91       		.byte	0x91
 18134 572a 9C7F     		.sleb128 -100
ARM GAS  C:\Users\PCHAUT~1\AppData\Local\Temp\ccLw8kky.s 			page 332


 18135 572c 3B       		.uleb128 0x3b
 18136 572d 7000     		.ascii	"p\000"
 18137 572f 07       		.byte	0x7
 18138 5730 F701     		.2byte	0x1f7
 18139 5732 2B460000 		.4byte	0x462b
 18140 5736 03       		.uleb128 0x3
 18141 5737 91       		.byte	0x91
 18142 5738 A87F     		.sleb128 -88
 18143 573a 3E       		.uleb128 0x3e
 18144 573b 90200000 		.4byte	.LASF1099
 18145 573f 07       		.byte	0x7
 18146 5740 F801     		.2byte	0x1f8
 18147 5742 4B570000 		.4byte	0x574b
 18148 5746 03       		.uleb128 0x3
 18149 5747 91       		.byte	0x91
 18150 5748 AC7F     		.sleb128 -84
 18151 574a 00       		.byte	0
 18152 574b 0A       		.uleb128 0xa
 18153 574c 75010000 		.4byte	0x175
 18154 5750 5B570000 		.4byte	0x575b
 18155 5754 0B       		.uleb128 0xb
 18156 5755 37000000 		.4byte	0x37
 18157 5759 3F       		.byte	0x3f
 18158 575a 00       		.byte	0
 18159 575b 3C       		.uleb128 0x3c
 18160 575c E80C0000 		.4byte	.LASF1100
 18161 5760 07       		.byte	0x7
 18162 5761 ED01     		.2byte	0x1ed
 18163 5763 00000000 		.4byte	.LFB281
 18164 5767 48000000 		.4byte	.LFE281-.LFB281
 18165 576b 01       		.uleb128 0x1
 18166 576c 9C       		.byte	0x9c
 18167 576d 9D570000 		.4byte	0x579d
 18168 5771 3D       		.uleb128 0x3d
 18169 5772 6F757400 		.ascii	"out\000"
 18170 5776 07       		.byte	0x7
 18171 5777 ED01     		.2byte	0x1ed
 18172 5779 00410000 		.4byte	0x4100
 18173 577d 02       		.uleb128 0x2
 18174 577e 91       		.byte	0x91
 18175 577f 6C       		.sleb128 -20
 18176 5780 3F       		.uleb128 0x3f
 18177 5781 3D130000 		.4byte	.LASF1098
 18178 5785 07       		.byte	0x7
 18179 5786 ED01     		.2byte	0x1ed
 18180 5788 25000000 		.4byte	0x25
 18181 578c 02       		.uleb128 0x2
 18182 578d 91       		.byte	0x91
 18183 578e 68       		.sleb128 -24
 18184 578f 3B       		.uleb128 0x3b
 18185 5790 6900     		.ascii	"i\000"
 18186 5792 07       		.byte	0x7
 18187 5793 EF01     		.2byte	0x1ef
 18188 5795 25000000 		.4byte	0x25
 18189 5799 02       		.uleb128 0x2
 18190 579a 91       		.byte	0x91
 18191 579b 70       		.sleb128 -16
ARM GAS  C:\Users\PCHAUT~1\AppData\Local\Temp\ccLw8kky.s 			page 333


 18192 579c 00       		.byte	0
 18193 579d 3C       		.uleb128 0x3c
 18194 579e 2D050000 		.4byte	.LASF1101
 18195 57a2 07       		.byte	0x7
 18196 57a3 CD01     		.2byte	0x1cd
 18197 57a5 00000000 		.4byte	.LFB280
 18198 57a9 40010000 		.4byte	.LFE280-.LFB280
 18199 57ad 01       		.uleb128 0x1
 18200 57ae 9C       		.byte	0x9c
 18201 57af 19580000 		.4byte	0x5819
 18202 57b3 3D       		.uleb128 0x3d
 18203 57b4 63687000 		.ascii	"chp\000"
 18204 57b8 07       		.byte	0x7
 18205 57b9 CD01     		.2byte	0x1cd
 18206 57bb 00410000 		.4byte	0x4100
 18207 57bf 02       		.uleb128 0x2
 18208 57c0 91       		.byte	0x91
 18209 57c1 4C       		.sleb128 -52
 18210 57c2 3F       		.uleb128 0x3f
 18211 57c3 41080000 		.4byte	.LASF1049
 18212 57c7 07       		.byte	0x7
 18213 57c8 CD01     		.2byte	0x1cd
 18214 57ca 25000000 		.4byte	0x25
 18215 57ce 02       		.uleb128 0x2
 18216 57cf 91       		.byte	0x91
 18217 57d0 48       		.sleb128 -56
 18218 57d1 3F       		.uleb128 0x3f
 18219 57d2 82260000 		.4byte	.LASF1050
 18220 57d6 07       		.byte	0x7
 18221 57d7 CD01     		.2byte	0x1cd
 18222 57d9 06410000 		.4byte	0x4106
 18223 57dd 02       		.uleb128 0x2
 18224 57de 91       		.byte	0x91
 18225 57df 44       		.sleb128 -60
 18226 57e0 3B       		.uleb128 0x3b
 18227 57e1 6100     		.ascii	"a\000"
 18228 57e3 07       		.byte	0x7
 18229 57e4 CF01     		.2byte	0x1cf
 18230 57e6 83090000 		.4byte	0x983
 18231 57ea 02       		.uleb128 0x2
 18232 57eb 91       		.byte	0x91
 18233 57ec 54       		.sleb128 -44
 18234 57ed 3B       		.uleb128 0x3b
 18235 57ee 6200     		.ascii	"b\000"
 18236 57f0 07       		.byte	0x7
 18237 57f1 CF01     		.2byte	0x1cf
 18238 57f3 83090000 		.4byte	0x983
 18239 57f7 02       		.uleb128 0x2
 18240 57f8 91       		.byte	0x91
 18241 57f9 56       		.sleb128 -42
 18242 57fa 3E       		.uleb128 0x3e
 18243 57fb 38190000 		.4byte	.LASF1102
 18244 57ff 07       		.byte	0x7
 18245 5800 CF01     		.2byte	0x1cf
 18246 5802 83090000 		.4byte	0x983
 18247 5806 02       		.uleb128 0x2
 18248 5807 91       		.byte	0x91
ARM GAS  C:\Users\PCHAUT~1\AppData\Local\Temp\ccLw8kky.s 			page 334


 18249 5808 52       		.sleb128 -46
 18250 5809 3B       		.uleb128 0x3b
 18251 580a 746D7000 		.ascii	"tmp\000"
 18252 580e 07       		.byte	0x7
 18253 580f D001     		.2byte	0x1d0
 18254 5811 91180000 		.4byte	0x1891
 18255 5815 02       		.uleb128 0x2
 18256 5816 91       		.byte	0x91
 18257 5817 58       		.sleb128 -40
 18258 5818 00       		.byte	0
 18259 5819 3C       		.uleb128 0x3c
 18260 581a D70F0000 		.4byte	.LASF1103
 18261 581e 07       		.byte	0x7
 18262 581f A001     		.2byte	0x1a0
 18263 5821 00000000 		.4byte	.LFB279
 18264 5825 58010000 		.4byte	.LFE279-.LFB279
 18265 5829 01       		.uleb128 0x1
 18266 582a 9C       		.byte	0x9c
 18267 582b 97580000 		.4byte	0x5897
 18268 582f 3D       		.uleb128 0x3d
 18269 5830 63687000 		.ascii	"chp\000"
 18270 5834 07       		.byte	0x7
 18271 5835 A001     		.2byte	0x1a0
 18272 5837 00410000 		.4byte	0x4100
 18273 583b 02       		.uleb128 0x2
 18274 583c 91       		.byte	0x91
 18275 583d 4C       		.sleb128 -52
 18276 583e 3F       		.uleb128 0x3f
 18277 583f 41080000 		.4byte	.LASF1049
 18278 5843 07       		.byte	0x7
 18279 5844 A001     		.2byte	0x1a0
 18280 5846 25000000 		.4byte	0x25
 18281 584a 02       		.uleb128 0x2
 18282 584b 91       		.byte	0x91
 18283 584c 48       		.sleb128 -56
 18284 584d 3F       		.uleb128 0x3f
 18285 584e 82260000 		.4byte	.LASF1050
 18286 5852 07       		.byte	0x7
 18287 5853 A001     		.2byte	0x1a0
 18288 5855 06410000 		.4byte	0x4106
 18289 5859 02       		.uleb128 0x2
 18290 585a 91       		.byte	0x91
 18291 585b 44       		.sleb128 -60
 18292 585c 3E       		.uleb128 0x3e
 18293 585d D91C0000 		.4byte	.LASF1104
 18294 5861 07       		.byte	0x7
 18295 5862 A201     		.2byte	0x1a2
 18296 5864 8E090000 		.4byte	0x98e
 18297 5868 02       		.uleb128 0x2
 18298 5869 91       		.byte	0x91
 18299 586a 52       		.sleb128 -46
 18300 586b 3E       		.uleb128 0x3e
 18301 586c 38190000 		.4byte	.LASF1102
 18302 5870 07       		.byte	0x7
 18303 5871 A201     		.2byte	0x1a2
 18304 5873 8E090000 		.4byte	0x98e
 18305 5877 02       		.uleb128 0x2
ARM GAS  C:\Users\PCHAUT~1\AppData\Local\Temp\ccLw8kky.s 			page 335


 18306 5878 91       		.byte	0x91
 18307 5879 50       		.sleb128 -48
 18308 587a 3B       		.uleb128 0x3b
 18309 587b 7800     		.ascii	"x\000"
 18310 587d 07       		.byte	0x7
 18311 587e A301     		.2byte	0x1a3
 18312 5880 F6080000 		.4byte	0x8f6
 18313 5884 02       		.uleb128 0x2
 18314 5885 91       		.byte	0x91
 18315 5886 54       		.sleb128 -44
 18316 5887 3B       		.uleb128 0x3b
 18317 5888 746D7000 		.ascii	"tmp\000"
 18318 588c 07       		.byte	0x7
 18319 588d A401     		.2byte	0x1a4
 18320 588f 91180000 		.4byte	0x1891
 18321 5893 02       		.uleb128 0x2
 18322 5894 91       		.byte	0x91
 18323 5895 58       		.sleb128 -40
 18324 5896 00       		.byte	0
 18325 5897 3C       		.uleb128 0x3c
 18326 5898 83020000 		.4byte	.LASF1105
 18327 589c 07       		.byte	0x7
 18328 589d 9501     		.2byte	0x195
 18329 589f 00000000 		.4byte	.LFB278
 18330 58a3 50000000 		.4byte	.LFE278-.LFB278
 18331 58a7 01       		.uleb128 0x1
 18332 58a8 9C       		.byte	0x9c
 18333 58a9 DB580000 		.4byte	0x58db
 18334 58ad 3D       		.uleb128 0x3d
 18335 58ae 63687000 		.ascii	"chp\000"
 18336 58b2 07       		.byte	0x7
 18337 58b3 9501     		.2byte	0x195
 18338 58b5 00410000 		.4byte	0x4100
 18339 58b9 02       		.uleb128 0x2
 18340 58ba 91       		.byte	0x91
 18341 58bb 6C       		.sleb128 -20
 18342 58bc 3F       		.uleb128 0x3f
 18343 58bd 41080000 		.4byte	.LASF1049
 18344 58c1 07       		.byte	0x7
 18345 58c2 9501     		.2byte	0x195
 18346 58c4 25000000 		.4byte	0x25
 18347 58c8 02       		.uleb128 0x2
 18348 58c9 91       		.byte	0x91
 18349 58ca 68       		.sleb128 -24
 18350 58cb 3F       		.uleb128 0x3f
 18351 58cc 82260000 		.4byte	.LASF1050
 18352 58d0 07       		.byte	0x7
 18353 58d1 9501     		.2byte	0x195
 18354 58d3 06410000 		.4byte	0x4106
 18355 58d7 02       		.uleb128 0x2
 18356 58d8 91       		.byte	0x91
 18357 58d9 64       		.sleb128 -28
 18358 58da 00       		.byte	0
 18359 58db 3C       		.uleb128 0x3c
 18360 58dc 08200000 		.4byte	.LASF1106
 18361 58e0 07       		.byte	0x7
 18362 58e1 8301     		.2byte	0x183
ARM GAS  C:\Users\PCHAUT~1\AppData\Local\Temp\ccLw8kky.s 			page 336


 18363 58e3 00000000 		.4byte	.LFB277
 18364 58e7 74000000 		.4byte	.LFE277-.LFB277
 18365 58eb 01       		.uleb128 0x1
 18366 58ec 9C       		.byte	0x9c
 18367 58ed 2D590000 		.4byte	0x592d
 18368 58f1 3D       		.uleb128 0x3d
 18369 58f2 63687000 		.ascii	"chp\000"
 18370 58f6 07       		.byte	0x7
 18371 58f7 8301     		.2byte	0x183
 18372 58f9 00410000 		.4byte	0x4100
 18373 58fd 02       		.uleb128 0x2
 18374 58fe 91       		.byte	0x91
 18375 58ff 6C       		.sleb128 -20
 18376 5900 3F       		.uleb128 0x3f
 18377 5901 41080000 		.4byte	.LASF1049
 18378 5905 07       		.byte	0x7
 18379 5906 8301     		.2byte	0x183
 18380 5908 25000000 		.4byte	0x25
 18381 590c 02       		.uleb128 0x2
 18382 590d 91       		.byte	0x91
 18383 590e 68       		.sleb128 -24
 18384 590f 3F       		.uleb128 0x3f
 18385 5910 82260000 		.4byte	.LASF1050
 18386 5914 07       		.byte	0x7
 18387 5915 8301     		.2byte	0x183
 18388 5917 06410000 		.4byte	0x4106
 18389 591b 02       		.uleb128 0x2
 18390 591c 91       		.byte	0x91
 18391 591d 64       		.sleb128 -28
 18392 591e 3B       		.uleb128 0x3b
 18393 591f 747000   		.ascii	"tp\000"
 18394 5922 07       		.byte	0x7
 18395 5923 8501     		.2byte	0x185
 18396 5925 910B0000 		.4byte	0xb91
 18397 5929 02       		.uleb128 0x2
 18398 592a 91       		.byte	0x91
 18399 592b 70       		.sleb128 -16
 18400 592c 00       		.byte	0
 18401 592d 3C       		.uleb128 0x3c
 18402 592e FE0D0000 		.4byte	.LASF1107
 18403 5932 07       		.byte	0x7
 18404 5933 6E01     		.2byte	0x16e
 18405 5935 00000000 		.4byte	.LFB276
 18406 5939 98000000 		.4byte	.LFE276-.LFB276
 18407 593d 01       		.uleb128 0x1
 18408 593e 9C       		.byte	0x9c
 18409 593f 91590000 		.4byte	0x5991
 18410 5943 3D       		.uleb128 0x3d
 18411 5944 63687000 		.ascii	"chp\000"
 18412 5948 07       		.byte	0x7
 18413 5949 6E01     		.2byte	0x16e
 18414 594b 00410000 		.4byte	0x4100
 18415 594f 02       		.uleb128 0x2
 18416 5950 91       		.byte	0x91
 18417 5951 64       		.sleb128 -28
 18418 5952 3F       		.uleb128 0x3f
 18419 5953 41080000 		.4byte	.LASF1049
ARM GAS  C:\Users\PCHAUT~1\AppData\Local\Temp\ccLw8kky.s 			page 337


 18420 5957 07       		.byte	0x7
 18421 5958 6E01     		.2byte	0x16e
 18422 595a 25000000 		.4byte	0x25
 18423 595e 02       		.uleb128 0x2
 18424 595f 91       		.byte	0x91
 18425 5960 60       		.sleb128 -32
 18426 5961 3F       		.uleb128 0x3f
 18427 5962 82260000 		.4byte	.LASF1050
 18428 5966 07       		.byte	0x7
 18429 5967 6E01     		.2byte	0x16e
 18430 5969 06410000 		.4byte	0x4106
 18431 596d 02       		.uleb128 0x2
 18432 596e 91       		.byte	0x91
 18433 596f 5C       		.sleb128 -36
 18434 5970 3E       		.uleb128 0x3e
 18435 5971 2D0F0000 		.4byte	.LASF1108
 18436 5975 07       		.byte	0x7
 18437 5976 7001     		.2byte	0x170
 18438 5978 91590000 		.4byte	0x5991
 18439 597c 05       		.uleb128 0x5
 18440 597d 03       		.byte	0x3
 18441 597e 00000000 		.4byte	states.13494
 18442 5982 3B       		.uleb128 0x3b
 18443 5983 747000   		.ascii	"tp\000"
 18444 5986 07       		.byte	0x7
 18445 5987 7101     		.2byte	0x171
 18446 5989 910B0000 		.4byte	0xb91
 18447 598d 02       		.uleb128 0x2
 18448 598e 91       		.byte	0x91
 18449 598f 68       		.sleb128 -24
 18450 5990 00       		.byte	0
 18451 5991 0A       		.uleb128 0xa
 18452 5992 ED050000 		.4byte	0x5ed
 18453 5996 A1590000 		.4byte	0x59a1
 18454 599a 0B       		.uleb128 0xb
 18455 599b 37000000 		.4byte	0x37
 18456 599f 0F       		.byte	0xf
 18457 59a0 00       		.byte	0
 18458 59a1 3C       		.uleb128 0x3c
 18459 59a2 B7150000 		.4byte	.LASF1109
 18460 59a6 07       		.byte	0x7
 18461 59a7 5F01     		.2byte	0x15f
 18462 59a9 00000000 		.4byte	.LFB275
 18463 59ad 7C000000 		.4byte	.LFE275-.LFB275
 18464 59b1 01       		.uleb128 0x1
 18465 59b2 9C       		.byte	0x9c
 18466 59b3 015A0000 		.4byte	0x5a01
 18467 59b7 3D       		.uleb128 0x3d
 18468 59b8 63687000 		.ascii	"chp\000"
 18469 59bc 07       		.byte	0x7
 18470 59bd 5F01     		.2byte	0x15f
 18471 59bf 00410000 		.4byte	0x4100
 18472 59c3 02       		.uleb128 0x2
 18473 59c4 91       		.byte	0x91
 18474 59c5 64       		.sleb128 -28
 18475 59c6 3F       		.uleb128 0x3f
 18476 59c7 41080000 		.4byte	.LASF1049
ARM GAS  C:\Users\PCHAUT~1\AppData\Local\Temp\ccLw8kky.s 			page 338


 18477 59cb 07       		.byte	0x7
 18478 59cc 5F01     		.2byte	0x15f
 18479 59ce 25000000 		.4byte	0x25
 18480 59d2 02       		.uleb128 0x2
 18481 59d3 91       		.byte	0x91
 18482 59d4 60       		.sleb128 -32
 18483 59d5 3F       		.uleb128 0x3f
 18484 59d6 82260000 		.4byte	.LASF1050
 18485 59da 07       		.byte	0x7
 18486 59db 5F01     		.2byte	0x15f
 18487 59dd 06410000 		.4byte	0x4106
 18488 59e1 02       		.uleb128 0x2
 18489 59e2 91       		.byte	0x91
 18490 59e3 5C       		.sleb128 -36
 18491 59e4 3B       		.uleb128 0x3b
 18492 59e5 6E00     		.ascii	"n\000"
 18493 59e7 07       		.byte	0x7
 18494 59e8 6101     		.2byte	0x161
 18495 59ea 2C000000 		.4byte	0x2c
 18496 59ee 02       		.uleb128 0x2
 18497 59ef 91       		.byte	0x91
 18498 59f0 70       		.sleb128 -16
 18499 59f1 3E       		.uleb128 0x3e
 18500 59f2 17110000 		.4byte	.LASF614
 18501 59f6 07       		.byte	0x7
 18502 59f7 6101     		.2byte	0x161
 18503 59f9 2C000000 		.4byte	0x2c
 18504 59fd 02       		.uleb128 0x2
 18505 59fe 91       		.byte	0x91
 18506 59ff 6C       		.sleb128 -20
 18507 5a00 00       		.byte	0
 18508 5a01 3C       		.uleb128 0x3c
 18509 5a02 6A170000 		.4byte	.LASF1110
 18510 5a06 07       		.byte	0x7
 18511 5a07 5601     		.2byte	0x156
 18512 5a09 00000000 		.4byte	.LFB274
 18513 5a0d 30000000 		.4byte	.LFE274-.LFB274
 18514 5a11 01       		.uleb128 0x1
 18515 5a12 9C       		.byte	0x9c
 18516 5a13 455A0000 		.4byte	0x5a45
 18517 5a17 3D       		.uleb128 0x3d
 18518 5a18 63687000 		.ascii	"chp\000"
 18519 5a1c 07       		.byte	0x7
 18520 5a1d 5601     		.2byte	0x156
 18521 5a1f 00410000 		.4byte	0x4100
 18522 5a23 02       		.uleb128 0x2
 18523 5a24 91       		.byte	0x91
 18524 5a25 6C       		.sleb128 -20
 18525 5a26 3F       		.uleb128 0x3f
 18526 5a27 41080000 		.4byte	.LASF1049
 18527 5a2b 07       		.byte	0x7
 18528 5a2c 5601     		.2byte	0x156
 18529 5a2e 25000000 		.4byte	0x25
 18530 5a32 02       		.uleb128 0x2
 18531 5a33 91       		.byte	0x91
 18532 5a34 68       		.sleb128 -24
 18533 5a35 3F       		.uleb128 0x3f
ARM GAS  C:\Users\PCHAUT~1\AppData\Local\Temp\ccLw8kky.s 			page 339


 18534 5a36 82260000 		.4byte	.LASF1050
 18535 5a3a 07       		.byte	0x7
 18536 5a3b 5601     		.2byte	0x156
 18537 5a3d 06410000 		.4byte	0x4106
 18538 5a41 02       		.uleb128 0x2
 18539 5a42 91       		.byte	0x91
 18540 5a43 64       		.sleb128 -28
 18541 5a44 00       		.byte	0
 18542 5a45 3C       		.uleb128 0x3c
 18543 5a46 47000000 		.4byte	.LASF1111
 18544 5a4a 07       		.byte	0x7
 18545 5a4b 3D01     		.2byte	0x13d
 18546 5a4d 00000000 		.4byte	.LFB273
 18547 5a51 0C010000 		.4byte	.LFE273-.LFB273
 18548 5a55 01       		.uleb128 0x1
 18549 5a56 9C       		.byte	0x9c
 18550 5a57 895A0000 		.4byte	0x5a89
 18551 5a5b 3D       		.uleb128 0x3d
 18552 5a5c 63687000 		.ascii	"chp\000"
 18553 5a60 07       		.byte	0x7
 18554 5a61 3D01     		.2byte	0x13d
 18555 5a63 00410000 		.4byte	0x4100
 18556 5a67 02       		.uleb128 0x2
 18557 5a68 91       		.byte	0x91
 18558 5a69 6C       		.sleb128 -20
 18559 5a6a 3F       		.uleb128 0x3f
 18560 5a6b 41080000 		.4byte	.LASF1049
 18561 5a6f 07       		.byte	0x7
 18562 5a70 3D01     		.2byte	0x13d
 18563 5a72 25000000 		.4byte	0x25
 18564 5a76 02       		.uleb128 0x2
 18565 5a77 91       		.byte	0x91
 18566 5a78 68       		.sleb128 -24
 18567 5a79 3F       		.uleb128 0x3f
 18568 5a7a 82260000 		.4byte	.LASF1050
 18569 5a7e 07       		.byte	0x7
 18570 5a7f 3D01     		.2byte	0x13d
 18571 5a81 06410000 		.4byte	0x4106
 18572 5a85 02       		.uleb128 0x2
 18573 5a86 91       		.byte	0x91
 18574 5a87 64       		.sleb128 -28
 18575 5a88 00       		.byte	0
 18576 5a89 3C       		.uleb128 0x3c
 18577 5a8a C4070000 		.4byte	.LASF1112
 18578 5a8e 07       		.byte	0x7
 18579 5a8f 3201     		.2byte	0x132
 18580 5a91 00000000 		.4byte	.LFB272
 18581 5a95 50000000 		.4byte	.LFE272-.LFB272
 18582 5a99 01       		.uleb128 0x1
 18583 5a9a 9C       		.byte	0x9c
 18584 5a9b CD5A0000 		.4byte	0x5acd
 18585 5a9f 3D       		.uleb128 0x3d
 18586 5aa0 63687000 		.ascii	"chp\000"
 18587 5aa4 07       		.byte	0x7
 18588 5aa5 3201     		.2byte	0x132
 18589 5aa7 00410000 		.4byte	0x4100
 18590 5aab 02       		.uleb128 0x2
ARM GAS  C:\Users\PCHAUT~1\AppData\Local\Temp\ccLw8kky.s 			page 340


 18591 5aac 91       		.byte	0x91
 18592 5aad 6C       		.sleb128 -20
 18593 5aae 3F       		.uleb128 0x3f
 18594 5aaf 41080000 		.4byte	.LASF1049
 18595 5ab3 07       		.byte	0x7
 18596 5ab4 3201     		.2byte	0x132
 18597 5ab6 25000000 		.4byte	0x25
 18598 5aba 02       		.uleb128 0x2
 18599 5abb 91       		.byte	0x91
 18600 5abc 68       		.sleb128 -24
 18601 5abd 3F       		.uleb128 0x3f
 18602 5abe 82260000 		.4byte	.LASF1050
 18603 5ac2 07       		.byte	0x7
 18604 5ac3 3201     		.2byte	0x132
 18605 5ac5 06410000 		.4byte	0x4106
 18606 5ac9 02       		.uleb128 0x2
 18607 5aca 91       		.byte	0x91
 18608 5acb 64       		.sleb128 -28
 18609 5acc 00       		.byte	0
 18610 5acd 3C       		.uleb128 0x3c
 18611 5ace F41E0000 		.4byte	.LASF1113
 18612 5ad2 07       		.byte	0x7
 18613 5ad3 2901     		.2byte	0x129
 18614 5ad5 00000000 		.4byte	.LFB271
 18615 5ad9 30000000 		.4byte	.LFE271-.LFB271
 18616 5add 01       		.uleb128 0x1
 18617 5ade 9C       		.byte	0x9c
 18618 5adf 115B0000 		.4byte	0x5b11
 18619 5ae3 3D       		.uleb128 0x3d
 18620 5ae4 63687000 		.ascii	"chp\000"
 18621 5ae8 07       		.byte	0x7
 18622 5ae9 2901     		.2byte	0x129
 18623 5aeb 00410000 		.4byte	0x4100
 18624 5aef 02       		.uleb128 0x2
 18625 5af0 91       		.byte	0x91
 18626 5af1 6C       		.sleb128 -20
 18627 5af2 3F       		.uleb128 0x3f
 18628 5af3 41080000 		.4byte	.LASF1049
 18629 5af7 07       		.byte	0x7
 18630 5af8 2901     		.2byte	0x129
 18631 5afa 25000000 		.4byte	0x25
 18632 5afe 02       		.uleb128 0x2
 18633 5aff 91       		.byte	0x91
 18634 5b00 68       		.sleb128 -24
 18635 5b01 3F       		.uleb128 0x3f
 18636 5b02 82260000 		.4byte	.LASF1050
 18637 5b06 07       		.byte	0x7
 18638 5b07 2901     		.2byte	0x129
 18639 5b09 06410000 		.4byte	0x4106
 18640 5b0d 02       		.uleb128 0x2
 18641 5b0e 91       		.byte	0x91
 18642 5b0f 64       		.sleb128 -28
 18643 5b10 00       		.byte	0
 18644 5b11 3C       		.uleb128 0x3c
 18645 5b12 F3160000 		.4byte	.LASF1114
 18646 5b16 07       		.byte	0x7
 18647 5b17 1D01     		.2byte	0x11d
ARM GAS  C:\Users\PCHAUT~1\AppData\Local\Temp\ccLw8kky.s 			page 341


 18648 5b19 00000000 		.4byte	.LFB270
 18649 5b1d 48000000 		.4byte	.LFE270-.LFB270
 18650 5b21 01       		.uleb128 0x1
 18651 5b22 9C       		.byte	0x9c
 18652 5b23 555B0000 		.4byte	0x5b55
 18653 5b27 3D       		.uleb128 0x3d
 18654 5b28 63687000 		.ascii	"chp\000"
 18655 5b2c 07       		.byte	0x7
 18656 5b2d 1D01     		.2byte	0x11d
 18657 5b2f 00410000 		.4byte	0x4100
 18658 5b33 02       		.uleb128 0x2
 18659 5b34 91       		.byte	0x91
 18660 5b35 6C       		.sleb128 -20
 18661 5b36 3F       		.uleb128 0x3f
 18662 5b37 41080000 		.4byte	.LASF1049
 18663 5b3b 07       		.byte	0x7
 18664 5b3c 1D01     		.2byte	0x11d
 18665 5b3e 25000000 		.4byte	0x25
 18666 5b42 02       		.uleb128 0x2
 18667 5b43 91       		.byte	0x91
 18668 5b44 68       		.sleb128 -24
 18669 5b45 3F       		.uleb128 0x3f
 18670 5b46 82260000 		.4byte	.LASF1050
 18671 5b4a 07       		.byte	0x7
 18672 5b4b 1D01     		.2byte	0x11d
 18673 5b4d 06410000 		.4byte	0x4106
 18674 5b51 02       		.uleb128 0x2
 18675 5b52 91       		.byte	0x91
 18676 5b53 64       		.sleb128 -28
 18677 5b54 00       		.byte	0
 18678 5b55 43       		.uleb128 0x43
 18679 5b56 F6130000 		.4byte	.LASF1115
 18680 5b5a 07       		.byte	0x7
 18681 5b5b E9       		.byte	0xe9
 18682 5b5c 00000000 		.4byte	.LFB269
 18683 5b60 2C010000 		.4byte	.LFE269-.LFB269
 18684 5b64 01       		.uleb128 0x1
 18685 5b65 9C       		.byte	0x9c
 18686 5b66 E35B0000 		.4byte	0x5be3
 18687 5b6a 44       		.uleb128 0x44
 18688 5b6b 63687000 		.ascii	"chp\000"
 18689 5b6f 07       		.byte	0x7
 18690 5b70 E9       		.byte	0xe9
 18691 5b71 00410000 		.4byte	0x4100
 18692 5b75 03       		.uleb128 0x3
 18693 5b76 91       		.byte	0x91
 18694 5b77 BC79     		.sleb128 -836
 18695 5b79 45       		.uleb128 0x45
 18696 5b7a 41080000 		.4byte	.LASF1049
 18697 5b7e 07       		.byte	0x7
 18698 5b7f E9       		.byte	0xe9
 18699 5b80 25000000 		.4byte	0x25
 18700 5b84 03       		.uleb128 0x3
 18701 5b85 91       		.byte	0x91
 18702 5b86 B879     		.sleb128 -840
 18703 5b88 45       		.uleb128 0x45
 18704 5b89 82260000 		.4byte	.LASF1050
ARM GAS  C:\Users\PCHAUT~1\AppData\Local\Temp\ccLw8kky.s 			page 342


 18705 5b8d 07       		.byte	0x7
 18706 5b8e E9       		.byte	0xe9
 18707 5b8f 06410000 		.4byte	0x4106
 18708 5b93 03       		.uleb128 0x3
 18709 5b94 91       		.byte	0x91
 18710 5b95 B479     		.sleb128 -844
 18711 5b97 37       		.uleb128 0x37
 18712 5b98 65727200 		.ascii	"err\000"
 18713 5b9c 07       		.byte	0x7
 18714 5b9d EA       		.byte	0xea
 18715 5b9e 214B0000 		.4byte	0x4b21
 18716 5ba2 03       		.uleb128 0x3
 18717 5ba3 91       		.byte	0x91
 18718 5ba4 C379     		.sleb128 -829
 18719 5ba6 38       		.uleb128 0x38
 18720 5ba7 CC170000 		.4byte	.LASF1116
 18721 5bab 07       		.byte	0x7
 18722 5bac EB       		.byte	0xeb
 18723 5bad 904A0000 		.4byte	0x4a90
 18724 5bb1 03       		.uleb128 0x3
 18725 5bb2 91       		.byte	0x91
 18726 5bb3 CC79     		.sleb128 -820
 18727 5bb5 38       		.uleb128 0x38
 18728 5bb6 F8270000 		.4byte	.LASF1117
 18729 5bba 07       		.byte	0x7
 18730 5bbb EC       		.byte	0xec
 18731 5bbc E35B0000 		.4byte	0x5be3
 18732 5bc0 03       		.uleb128 0x3
 18733 5bc1 91       		.byte	0x91
 18734 5bc2 F47D     		.sleb128 -268
 18735 5bc4 38       		.uleb128 0x38
 18736 5bc5 A62A0000 		.4byte	.LASF1118
 18737 5bc9 07       		.byte	0x7
 18738 5bca ED       		.byte	0xed
 18739 5bcb C7480000 		.4byte	0x48c7
 18740 5bcf 03       		.uleb128 0x3
 18741 5bd0 91       		.byte	0x91
 18742 5bd1 C879     		.sleb128 -824
 18743 5bd3 38       		.uleb128 0x38
 18744 5bd4 0E0F0000 		.4byte	.LASF1119
 18745 5bd8 07       		.byte	0x7
 18746 5bd9 EE       		.byte	0xee
 18747 5bda C7480000 		.4byte	0x48c7
 18748 5bde 03       		.uleb128 0x3
 18749 5bdf 91       		.byte	0x91
 18750 5be0 C479     		.sleb128 -828
 18751 5be2 00       		.byte	0
 18752 5be3 0A       		.uleb128 0xa
 18753 5be4 75010000 		.4byte	0x175
 18754 5be8 F35B0000 		.4byte	0x5bf3
 18755 5bec 0B       		.uleb128 0xb
 18756 5bed 37000000 		.4byte	0x37
 18757 5bf1 FE       		.byte	0xfe
 18758 5bf2 00       		.byte	0
 18759 5bf3 43       		.uleb128 0x43
 18760 5bf4 57000000 		.4byte	.LASF1120
 18761 5bf8 07       		.byte	0x7
ARM GAS  C:\Users\PCHAUT~1\AppData\Local\Temp\ccLw8kky.s 			page 343


 18762 5bf9 CA       		.byte	0xca
 18763 5bfa 00000000 		.4byte	.LFB268
 18764 5bfe B0000000 		.4byte	.LFE268-.LFB268
 18765 5c02 01       		.uleb128 0x1
 18766 5c03 9C       		.byte	0x9c
 18767 5c04 5C5C0000 		.4byte	0x5c5c
 18768 5c08 44       		.uleb128 0x44
 18769 5c09 63687000 		.ascii	"chp\000"
 18770 5c0d 07       		.byte	0x7
 18771 5c0e CA       		.byte	0xca
 18772 5c0f 00410000 		.4byte	0x4100
 18773 5c13 02       		.uleb128 0x2
 18774 5c14 91       		.byte	0x91
 18775 5c15 5C       		.sleb128 -36
 18776 5c16 45       		.uleb128 0x45
 18777 5c17 41080000 		.4byte	.LASF1049
 18778 5c1b 07       		.byte	0x7
 18779 5c1c CA       		.byte	0xca
 18780 5c1d 25000000 		.4byte	0x25
 18781 5c21 02       		.uleb128 0x2
 18782 5c22 91       		.byte	0x91
 18783 5c23 58       		.sleb128 -40
 18784 5c24 45       		.uleb128 0x45
 18785 5c25 82260000 		.4byte	.LASF1050
 18786 5c29 07       		.byte	0x7
 18787 5c2a CA       		.byte	0xca
 18788 5c2b 06410000 		.4byte	0x4106
 18789 5c2f 02       		.uleb128 0x2
 18790 5c30 91       		.byte	0x91
 18791 5c31 54       		.sleb128 -44
 18792 5c32 37       		.uleb128 0x37
 18793 5c33 65727200 		.ascii	"err\000"
 18794 5c37 07       		.byte	0x7
 18795 5c38 CB       		.byte	0xcb
 18796 5c39 214B0000 		.4byte	0x4b21
 18797 5c3d 02       		.uleb128 0x2
 18798 5c3e 91       		.byte	0x91
 18799 5c3f 63       		.sleb128 -29
 18800 5c40 37       		.uleb128 0x37
 18801 5c41 6C626C00 		.ascii	"lbl\000"
 18802 5c45 07       		.byte	0x7
 18803 5c46 CC       		.byte	0xcc
 18804 5c47 5C5C0000 		.4byte	0x5c5c
 18805 5c4b 02       		.uleb128 0x2
 18806 5c4c 91       		.byte	0x91
 18807 5c4d 68       		.sleb128 -24
 18808 5c4e 37       		.uleb128 0x37
 18809 5c4f 736E00   		.ascii	"sn\000"
 18810 5c52 07       		.byte	0x7
 18811 5c53 CD       		.byte	0xcd
 18812 5c54 D2480000 		.4byte	0x48d2
 18813 5c58 02       		.uleb128 0x2
 18814 5c59 91       		.byte	0x91
 18815 5c5a 64       		.sleb128 -28
 18816 5c5b 00       		.byte	0
 18817 5c5c 0A       		.uleb128 0xa
 18818 5c5d 75010000 		.4byte	0x175
ARM GAS  C:\Users\PCHAUT~1\AppData\Local\Temp\ccLw8kky.s 			page 344


 18819 5c61 6C5C0000 		.4byte	0x5c6c
 18820 5c65 0B       		.uleb128 0xb
 18821 5c66 37000000 		.4byte	0x37
 18822 5c6a 0B       		.byte	0xb
 18823 5c6b 00       		.byte	0
 18824 5c6c 43       		.uleb128 0x43
 18825 5c6d DA1B0000 		.4byte	.LASF1121
 18826 5c71 07       		.byte	0x7
 18827 5c72 B5       		.byte	0xb5
 18828 5c73 00000000 		.4byte	.LFB267
 18829 5c77 88000000 		.4byte	.LFE267-.LFB267
 18830 5c7b 01       		.uleb128 0x1
 18831 5c7c 9C       		.byte	0x9c
 18832 5c7d BA5C0000 		.4byte	0x5cba
 18833 5c81 44       		.uleb128 0x44
 18834 5c82 63687000 		.ascii	"chp\000"
 18835 5c86 07       		.byte	0x7
 18836 5c87 B5       		.byte	0xb5
 18837 5c88 00410000 		.4byte	0x4100
 18838 5c8c 02       		.uleb128 0x2
 18839 5c8d 91       		.byte	0x91
 18840 5c8e 6C       		.sleb128 -20
 18841 5c8f 45       		.uleb128 0x45
 18842 5c90 41080000 		.4byte	.LASF1049
 18843 5c94 07       		.byte	0x7
 18844 5c95 B5       		.byte	0xb5
 18845 5c96 25000000 		.4byte	0x25
 18846 5c9a 02       		.uleb128 0x2
 18847 5c9b 91       		.byte	0x91
 18848 5c9c 68       		.sleb128 -24
 18849 5c9d 45       		.uleb128 0x45
 18850 5c9e 82260000 		.4byte	.LASF1050
 18851 5ca2 07       		.byte	0x7
 18852 5ca3 B5       		.byte	0xb5
 18853 5ca4 06410000 		.4byte	0x4106
 18854 5ca8 02       		.uleb128 0x2
 18855 5ca9 91       		.byte	0x91
 18856 5caa 64       		.sleb128 -28
 18857 5cab 37       		.uleb128 0x37
 18858 5cac 65727200 		.ascii	"err\000"
 18859 5cb0 07       		.byte	0x7
 18860 5cb1 B6       		.byte	0xb6
 18861 5cb2 214B0000 		.4byte	0x4b21
 18862 5cb6 02       		.uleb128 0x2
 18863 5cb7 91       		.byte	0x91
 18864 5cb8 73       		.sleb128 -13
 18865 5cb9 00       		.byte	0
 18866 5cba 43       		.uleb128 0x43
 18867 5cbb DE250000 		.4byte	.LASF1122
 18868 5cbf 07       		.byte	0x7
 18869 5cc0 9D       		.byte	0x9d
 18870 5cc1 00000000 		.4byte	.LFB266
 18871 5cc5 94000000 		.4byte	.LFE266-.LFB266
 18872 5cc9 01       		.uleb128 0x1
 18873 5cca 9C       		.byte	0x9c
 18874 5ccb 085D0000 		.4byte	0x5d08
 18875 5ccf 44       		.uleb128 0x44
ARM GAS  C:\Users\PCHAUT~1\AppData\Local\Temp\ccLw8kky.s 			page 345


 18876 5cd0 63687000 		.ascii	"chp\000"
 18877 5cd4 07       		.byte	0x7
 18878 5cd5 9D       		.byte	0x9d
 18879 5cd6 00410000 		.4byte	0x4100
 18880 5cda 02       		.uleb128 0x2
 18881 5cdb 91       		.byte	0x91
 18882 5cdc 6C       		.sleb128 -20
 18883 5cdd 45       		.uleb128 0x45
 18884 5cde 41080000 		.4byte	.LASF1049
 18885 5ce2 07       		.byte	0x7
 18886 5ce3 9D       		.byte	0x9d
 18887 5ce4 25000000 		.4byte	0x25
 18888 5ce8 02       		.uleb128 0x2
 18889 5ce9 91       		.byte	0x91
 18890 5cea 68       		.sleb128 -24
 18891 5ceb 45       		.uleb128 0x45
 18892 5cec 82260000 		.4byte	.LASF1050
 18893 5cf0 07       		.byte	0x7
 18894 5cf1 9D       		.byte	0x9d
 18895 5cf2 06410000 		.4byte	0x4106
 18896 5cf6 02       		.uleb128 0x2
 18897 5cf7 91       		.byte	0x91
 18898 5cf8 64       		.sleb128 -28
 18899 5cf9 37       		.uleb128 0x37
 18900 5cfa 65727200 		.ascii	"err\000"
 18901 5cfe 07       		.byte	0x7
 18902 5cff 9E       		.byte	0x9e
 18903 5d00 214B0000 		.4byte	0x4b21
 18904 5d04 02       		.uleb128 0x2
 18905 5d05 91       		.byte	0x91
 18906 5d06 73       		.sleb128 -13
 18907 5d07 00       		.byte	0
 18908 5d08 43       		.uleb128 0x43
 18909 5d09 65050000 		.4byte	.LASF1123
 18910 5d0d 07       		.byte	0x7
 18911 5d0e 76       		.byte	0x76
 18912 5d0f 00000000 		.4byte	.LFB265
 18913 5d13 E8000000 		.4byte	.LFE265-.LFB265
 18914 5d17 01       		.uleb128 0x1
 18915 5d18 9C       		.byte	0x9c
 18916 5d19 785D0000 		.4byte	0x5d78
 18917 5d1d 44       		.uleb128 0x44
 18918 5d1e 63687000 		.ascii	"chp\000"
 18919 5d22 07       		.byte	0x7
 18920 5d23 76       		.byte	0x76
 18921 5d24 00410000 		.4byte	0x4100
 18922 5d28 03       		.uleb128 0x3
 18923 5d29 91       		.byte	0x91
 18924 5d2a BC7B     		.sleb128 -580
 18925 5d2c 45       		.uleb128 0x45
 18926 5d2d 41080000 		.4byte	.LASF1049
 18927 5d31 07       		.byte	0x7
 18928 5d32 76       		.byte	0x76
 18929 5d33 25000000 		.4byte	0x25
 18930 5d37 03       		.uleb128 0x3
 18931 5d38 91       		.byte	0x91
 18932 5d39 B87B     		.sleb128 -584
ARM GAS  C:\Users\PCHAUT~1\AppData\Local\Temp\ccLw8kky.s 			page 346


 18933 5d3b 45       		.uleb128 0x45
 18934 5d3c 82260000 		.4byte	.LASF1050
 18935 5d40 07       		.byte	0x7
 18936 5d41 76       		.byte	0x76
 18937 5d42 06410000 		.4byte	0x4106
 18938 5d46 03       		.uleb128 0x3
 18939 5d47 91       		.byte	0x91
 18940 5d48 B47B     		.sleb128 -588
 18941 5d4a 38       		.uleb128 0x38
 18942 5d4b CC170000 		.4byte	.LASF1116
 18943 5d4f 07       		.byte	0x7
 18944 5d50 77       		.byte	0x77
 18945 5d51 904A0000 		.4byte	0x4a90
 18946 5d55 03       		.uleb128 0x3
 18947 5d56 91       		.byte	0x91
 18948 5d57 CC7B     		.sleb128 -564
 18949 5d59 37       		.uleb128 0x37
 18950 5d5a 65727200 		.ascii	"err\000"
 18951 5d5e 07       		.byte	0x7
 18952 5d5f 78       		.byte	0x78
 18953 5d60 214B0000 		.4byte	0x4b21
 18954 5d64 03       		.uleb128 0x3
 18955 5d65 91       		.byte	0x91
 18956 5d66 C77B     		.sleb128 -569
 18957 5d68 38       		.uleb128 0x38
 18958 5d69 F72F0000 		.4byte	.LASF1124
 18959 5d6d 07       		.byte	0x7
 18960 5d6e 79       		.byte	0x79
 18961 5d6f 25000000 		.4byte	0x25
 18962 5d73 03       		.uleb128 0x3
 18963 5d74 91       		.byte	0x91
 18964 5d75 C87B     		.sleb128 -568
 18965 5d77 00       		.byte	0
 18966 5d78 43       		.uleb128 0x43
 18967 5d79 27210000 		.4byte	.LASF1125
 18968 5d7d 07       		.byte	0x7
 18969 5d7e 69       		.byte	0x69
 18970 5d7f 00000000 		.4byte	.LFB264
 18971 5d83 44000000 		.4byte	.LFE264-.LFB264
 18972 5d87 01       		.uleb128 0x1
 18973 5d88 9C       		.byte	0x9c
 18974 5d89 B85D0000 		.4byte	0x5db8
 18975 5d8d 44       		.uleb128 0x44
 18976 5d8e 63687000 		.ascii	"chp\000"
 18977 5d92 07       		.byte	0x7
 18978 5d93 69       		.byte	0x69
 18979 5d94 00410000 		.4byte	0x4100
 18980 5d98 02       		.uleb128 0x2
 18981 5d99 91       		.byte	0x91
 18982 5d9a 6C       		.sleb128 -20
 18983 5d9b 45       		.uleb128 0x45
 18984 5d9c 41080000 		.4byte	.LASF1049
 18985 5da0 07       		.byte	0x7
 18986 5da1 69       		.byte	0x69
 18987 5da2 25000000 		.4byte	0x25
 18988 5da6 02       		.uleb128 0x2
 18989 5da7 91       		.byte	0x91
ARM GAS  C:\Users\PCHAUT~1\AppData\Local\Temp\ccLw8kky.s 			page 347


 18990 5da8 68       		.sleb128 -24
 18991 5da9 45       		.uleb128 0x45
 18992 5daa 82260000 		.4byte	.LASF1050
 18993 5dae 07       		.byte	0x7
 18994 5daf 69       		.byte	0x69
 18995 5db0 06410000 		.4byte	0x4106
 18996 5db4 02       		.uleb128 0x2
 18997 5db5 91       		.byte	0x91
 18998 5db6 64       		.sleb128 -28
 18999 5db7 00       		.byte	0
 19000 5db8 43       		.uleb128 0x43
 19001 5db9 A12D0000 		.4byte	.LASF1126
 19002 5dbd 07       		.byte	0x7
 19003 5dbe 4D       		.byte	0x4d
 19004 5dbf 00000000 		.4byte	.LFB263
 19005 5dc3 C4000000 		.4byte	.LFE263-.LFB263
 19006 5dc7 01       		.uleb128 0x1
 19007 5dc8 9C       		.byte	0x9c
 19008 5dc9 305E0000 		.4byte	0x5e30
 19009 5dcd 44       		.uleb128 0x44
 19010 5dce 63687000 		.ascii	"chp\000"
 19011 5dd2 07       		.byte	0x7
 19012 5dd3 4D       		.byte	0x4d
 19013 5dd4 00410000 		.4byte	0x4100
 19014 5dd8 02       		.uleb128 0x2
 19015 5dd9 91       		.byte	0x91
 19016 5dda 64       		.sleb128 -28
 19017 5ddb 45       		.uleb128 0x45
 19018 5ddc 41080000 		.4byte	.LASF1049
 19019 5de0 07       		.byte	0x7
 19020 5de1 4D       		.byte	0x4d
 19021 5de2 25000000 		.4byte	0x25
 19022 5de6 02       		.uleb128 0x2
 19023 5de7 91       		.byte	0x91
 19024 5de8 60       		.sleb128 -32
 19025 5de9 45       		.uleb128 0x45
 19026 5dea 82260000 		.4byte	.LASF1050
 19027 5dee 07       		.byte	0x7
 19028 5def 4D       		.byte	0x4d
 19029 5df0 06410000 		.4byte	0x4106
 19030 5df4 02       		.uleb128 0x2
 19031 5df5 91       		.byte	0x91
 19032 5df6 5C       		.sleb128 -36
 19033 5df7 37       		.uleb128 0x37
 19034 5df8 65727200 		.ascii	"err\000"
 19035 5dfc 07       		.byte	0x7
 19036 5dfd 4E       		.byte	0x4e
 19037 5dfe 214B0000 		.4byte	0x4b21
 19038 5e02 02       		.uleb128 0x2
 19039 5e03 91       		.byte	0x91
 19040 5e04 6A       		.sleb128 -22
 19041 5e05 38       		.uleb128 0x38
 19042 5e06 7A020000 		.4byte	.LASF1127
 19043 5e0a 07       		.byte	0x7
 19044 5e0b 4F       		.byte	0x4f
 19045 5e0c A9090000 		.4byte	0x9a9
 19046 5e10 02       		.uleb128 0x2
ARM GAS  C:\Users\PCHAUT~1\AppData\Local\Temp\ccLw8kky.s 			page 348


 19047 5e11 91       		.byte	0x91
 19048 5e12 6C       		.sleb128 -20
 19049 5e13 37       		.uleb128 0x37
 19050 5e14 66737000 		.ascii	"fsp\000"
 19051 5e18 07       		.byte	0x7
 19052 5e19 50       		.byte	0x50
 19053 5e1a 7E4A0000 		.4byte	0x4a7e
 19054 5e1e 02       		.uleb128 0x2
 19055 5e1f 91       		.byte	0x91
 19056 5e20 70       		.sleb128 -16
 19057 5e21 38       		.uleb128 0x38
 19058 5e22 C82A0000 		.4byte	.LASF1128
 19059 5e26 07       		.byte	0x7
 19060 5e27 51       		.byte	0x51
 19061 5e28 B1480000 		.4byte	0x48b1
 19062 5e2c 02       		.uleb128 0x2
 19063 5e2d 91       		.byte	0x91
 19064 5e2e 6B       		.sleb128 -21
 19065 5e2f 00       		.byte	0
 19066 5e30 43       		.uleb128 0x43
 19067 5e31 AD1E0000 		.4byte	.LASF1129
 19068 5e35 07       		.byte	0x7
 19069 5e36 43       		.byte	0x43
 19070 5e37 00000000 		.4byte	.LFB262
 19071 5e3b 48000000 		.4byte	.LFE262-.LFB262
 19072 5e3f 01       		.uleb128 0x1
 19073 5e40 9C       		.byte	0x9c
 19074 5e41 705E0000 		.4byte	0x5e70
 19075 5e45 44       		.uleb128 0x44
 19076 5e46 63687000 		.ascii	"chp\000"
 19077 5e4a 07       		.byte	0x7
 19078 5e4b 43       		.byte	0x43
 19079 5e4c 00410000 		.4byte	0x4100
 19080 5e50 02       		.uleb128 0x2
 19081 5e51 91       		.byte	0x91
 19082 5e52 6C       		.sleb128 -20
 19083 5e53 45       		.uleb128 0x45
 19084 5e54 41080000 		.4byte	.LASF1049
 19085 5e58 07       		.byte	0x7
 19086 5e59 43       		.byte	0x43
 19087 5e5a 25000000 		.4byte	0x25
 19088 5e5e 02       		.uleb128 0x2
 19089 5e5f 91       		.byte	0x91
 19090 5e60 68       		.sleb128 -24
 19091 5e61 45       		.uleb128 0x45
 19092 5e62 82260000 		.4byte	.LASF1050
 19093 5e66 07       		.byte	0x7
 19094 5e67 43       		.byte	0x43
 19095 5e68 06410000 		.4byte	0x4106
 19096 5e6c 02       		.uleb128 0x2
 19097 5e6d 91       		.byte	0x91
 19098 5e6e 64       		.sleb128 -28
 19099 5e6f 00       		.byte	0
 19100 5e70 43       		.uleb128 0x43
 19101 5e71 8E150000 		.4byte	.LASF1130
 19102 5e75 07       		.byte	0x7
 19103 5e76 35       		.byte	0x35
ARM GAS  C:\Users\PCHAUT~1\AppData\Local\Temp\ccLw8kky.s 			page 349


 19104 5e77 00000000 		.4byte	.LFB261
 19105 5e7b 54000000 		.4byte	.LFE261-.LFB261
 19106 5e7f 01       		.uleb128 0x1
 19107 5e80 9C       		.byte	0x9c
 19108 5e81 B05E0000 		.4byte	0x5eb0
 19109 5e85 44       		.uleb128 0x44
 19110 5e86 63687000 		.ascii	"chp\000"
 19111 5e8a 07       		.byte	0x7
 19112 5e8b 35       		.byte	0x35
 19113 5e8c 00410000 		.4byte	0x4100
 19114 5e90 02       		.uleb128 0x2
 19115 5e91 91       		.byte	0x91
 19116 5e92 6C       		.sleb128 -20
 19117 5e93 45       		.uleb128 0x45
 19118 5e94 41080000 		.4byte	.LASF1049
 19119 5e98 07       		.byte	0x7
 19120 5e99 35       		.byte	0x35
 19121 5e9a 25000000 		.4byte	0x25
 19122 5e9e 02       		.uleb128 0x2
 19123 5e9f 91       		.byte	0x91
 19124 5ea0 68       		.sleb128 -24
 19125 5ea1 45       		.uleb128 0x45
 19126 5ea2 82260000 		.4byte	.LASF1050
 19127 5ea6 07       		.byte	0x7
 19128 5ea7 35       		.byte	0x35
 19129 5ea8 06410000 		.4byte	0x4106
 19130 5eac 02       		.uleb128 0x2
 19131 5ead 91       		.byte	0x91
 19132 5eae 64       		.sleb128 -28
 19133 5eaf 00       		.byte	0
 19134 5eb0 46       		.uleb128 0x46
 19135 5eb1 C1210000 		.4byte	.LASF1132
 19136 5eb5 06       		.byte	0x6
 19137 5eb6 45       		.byte	0x45
 19138 5eb7 25000000 		.4byte	0x25
 19139 5ebb 00000000 		.4byte	.LFB259
 19140 5ebf 44000000 		.4byte	.LFE259-.LFB259
 19141 5ec3 01       		.uleb128 0x1
 19142 5ec4 9C       		.byte	0x9c
 19143 5ec5 025F0000 		.4byte	0x5f02
 19144 5ec9 44       		.uleb128 0x44
 19145 5eca 63687000 		.ascii	"chp\000"
 19146 5ece 06       		.byte	0x6
 19147 5ecf 45       		.byte	0x45
 19148 5ed0 00410000 		.4byte	0x4100
 19149 5ed4 02       		.uleb128 0x2
 19150 5ed5 91       		.byte	0x91
 19151 5ed6 5C       		.sleb128 -36
 19152 5ed7 44       		.uleb128 0x44
 19153 5ed8 666D7400 		.ascii	"fmt\000"
 19154 5edc 06       		.byte	0x6
 19155 5edd 45       		.byte	0x45
 19156 5ede ED050000 		.4byte	0x5ed
 19157 5ee2 02       		.uleb128 0x2
 19158 5ee3 91       		.byte	0x91
 19159 5ee4 58       		.sleb128 -40
 19160 5ee5 47       		.uleb128 0x47
ARM GAS  C:\Users\PCHAUT~1\AppData\Local\Temp\ccLw8kky.s 			page 350


 19161 5ee6 37       		.uleb128 0x37
 19162 5ee7 617000   		.ascii	"ap\000"
 19163 5eea 06       		.byte	0x6
 19164 5eeb 46       		.byte	0x46
 19165 5eec 5D090000 		.4byte	0x95d
 19166 5ef0 02       		.uleb128 0x2
 19167 5ef1 91       		.byte	0x91
 19168 5ef2 64       		.sleb128 -28
 19169 5ef3 38       		.uleb128 0x38
 19170 5ef4 F9150000 		.4byte	.LASF1131
 19171 5ef8 06       		.byte	0x6
 19172 5ef9 47       		.byte	0x47
 19173 5efa 25000000 		.4byte	0x25
 19174 5efe 02       		.uleb128 0x2
 19175 5eff 91       		.byte	0x91
 19176 5f00 68       		.sleb128 -24
 19177 5f01 00       		.byte	0
 19178 5f02 46       		.uleb128 0x46
 19179 5f03 3F120000 		.4byte	.LASF1133
 19180 5f07 05       		.byte	0x5
 19181 5f08 DA       		.byte	0xda
 19182 5f09 911E0000 		.4byte	0x1e91
 19183 5f0d 00000000 		.4byte	.LFB172
 19184 5f11 38000000 		.4byte	.LFE172-.LFB172
 19185 5f15 01       		.uleb128 0x1
 19186 5f16 9C       		.byte	0x9c
 19187 5f17 295F0000 		.4byte	0x5f29
 19188 5f1b 44       		.uleb128 0x44
 19189 5f1c 747000   		.ascii	"tp\000"
 19190 5f1f 05       		.byte	0x5
 19191 5f20 DA       		.byte	0xda
 19192 5f21 910B0000 		.4byte	0xb91
 19193 5f25 02       		.uleb128 0x2
 19194 5f26 91       		.byte	0x91
 19195 5f27 6C       		.sleb128 -20
 19196 5f28 00       		.byte	0
 19197 5f29 48       		.uleb128 0x48
 19198 5f2a 58250000 		.4byte	.LASF1134
 19199 5f2e 05       		.byte	0x5
 19200 5f2f BB       		.byte	0xbb
 19201 5f30 0B0A0000 		.4byte	0xa0b
 19202 5f34 00000000 		.4byte	.LFB170
 19203 5f38 2C000000 		.4byte	.LFE170-.LFB170
 19204 5f3c 01       		.uleb128 0x1
 19205 5f3d 9C       		.byte	0x9c
 19206 5f3e 48       		.uleb128 0x48
 19207 5f3f 7A220000 		.4byte	.LASF1135
 19208 5f43 05       		.byte	0x5
 19209 5f44 AE       		.byte	0xae
 19210 5f45 910B0000 		.4byte	0xb91
 19211 5f49 00000000 		.4byte	.LFB169
 19212 5f4d 2C000000 		.4byte	.LFE169-.LFB169
 19213 5f51 01       		.uleb128 0x1
 19214 5f52 9C       		.byte	0x9c
 19215 5f53 49       		.uleb128 0x49
 19216 5f54 DA260000 		.4byte	.LASF1136
 19217 5f58 04       		.byte	0x4
ARM GAS  C:\Users\PCHAUT~1\AppData\Local\Temp\ccLw8kky.s 			page 351


 19218 5f59 4201     		.2byte	0x142
 19219 5f5b 911E0000 		.4byte	0x1e91
 19220 5f5f 00000000 		.4byte	.LFB161
 19221 5f63 3C000000 		.4byte	.LFE161-.LFB161
 19222 5f67 01       		.uleb128 0x1
 19223 5f68 9C       		.byte	0x9c
 19224 5f69 8C5F0000 		.4byte	0x5f8c
 19225 5f6d 3F       		.uleb128 0x3f
 19226 5f6e 64170000 		.4byte	.LASF1051
 19227 5f72 04       		.byte	0x4
 19228 5f73 4201     		.2byte	0x142
 19229 5f75 4D0A0000 		.4byte	0xa4d
 19230 5f79 02       		.uleb128 0x2
 19231 5f7a 91       		.byte	0x91
 19232 5f7b 6C       		.sleb128 -20
 19233 5f7c 3D       		.uleb128 0x3d
 19234 5f7d 656E6400 		.ascii	"end\000"
 19235 5f81 04       		.byte	0x4
 19236 5f82 4201     		.2byte	0x142
 19237 5f84 4D0A0000 		.4byte	0xa4d
 19238 5f88 02       		.uleb128 0x2
 19239 5f89 91       		.byte	0x91
 19240 5f8a 68       		.sleb128 -24
 19241 5f8b 00       		.byte	0
 19242 5f8c 49       		.uleb128 0x49
 19243 5f8d C6120000 		.4byte	.LASF1137
 19244 5f91 04       		.byte	0x4
 19245 5f92 1C01     		.2byte	0x11c
 19246 5f94 911E0000 		.4byte	0x1e91
 19247 5f98 00000000 		.4byte	.LFB159
 19248 5f9c 40000000 		.4byte	.LFE159-.LFB159
 19249 5fa0 01       		.uleb128 0x1
 19250 5fa1 9C       		.byte	0x9c
 19251 5fa2 D45F0000 		.4byte	0x5fd4
 19252 5fa6 3F       		.uleb128 0x3f
 19253 5fa7 39100000 		.4byte	.LASF1138
 19254 5fab 04       		.byte	0x4
 19255 5fac 1C01     		.2byte	0x11c
 19256 5fae 4D0A0000 		.4byte	0xa4d
 19257 5fb2 02       		.uleb128 0x2
 19258 5fb3 91       		.byte	0x91
 19259 5fb4 6C       		.sleb128 -20
 19260 5fb5 3F       		.uleb128 0x3f
 19261 5fb6 64170000 		.4byte	.LASF1051
 19262 5fba 04       		.byte	0x4
 19263 5fbb 1D01     		.2byte	0x11d
 19264 5fbd 4D0A0000 		.4byte	0xa4d
 19265 5fc1 02       		.uleb128 0x2
 19266 5fc2 91       		.byte	0x91
 19267 5fc3 68       		.sleb128 -24
 19268 5fc4 3D       		.uleb128 0x3d
 19269 5fc5 656E6400 		.ascii	"end\000"
 19270 5fc9 04       		.byte	0x4
 19271 5fca 1E01     		.2byte	0x11e
 19272 5fcc 4D0A0000 		.4byte	0xa4d
 19273 5fd0 02       		.uleb128 0x2
 19274 5fd1 91       		.byte	0x91
ARM GAS  C:\Users\PCHAUT~1\AppData\Local\Temp\ccLw8kky.s 			page 352


 19275 5fd2 64       		.sleb128 -28
 19276 5fd3 00       		.byte	0
 19277 5fd4 46       		.uleb128 0x46
 19278 5fd5 612D0000 		.4byte	.LASF1139
 19279 5fd9 04       		.byte	0x4
 19280 5fda F7       		.byte	0xf7
 19281 5fdb 4D0A0000 		.4byte	0xa4d
 19282 5fdf 00000000 		.4byte	.LFB157
 19283 5fe3 34000000 		.4byte	.LFE157-.LFB157
 19284 5fe7 01       		.uleb128 0x1
 19285 5fe8 9C       		.byte	0x9c
 19286 5fe9 FC5F0000 		.4byte	0x5ffc
 19287 5fed 38       		.uleb128 0x38
 19288 5fee 252E0000 		.4byte	.LASF1140
 19289 5ff2 04       		.byte	0x4
 19290 5ff3 F8       		.byte	0xf8
 19291 5ff4 4D0A0000 		.4byte	0xa4d
 19292 5ff8 02       		.uleb128 0x2
 19293 5ff9 91       		.byte	0x91
 19294 5ffa 70       		.sleb128 -16
 19295 5ffb 00       		.byte	0
 19296 5ffc 48       		.uleb128 0x48
 19297 5ffd 01260000 		.4byte	.LASF1141
 19298 6001 04       		.byte	0x4
 19299 6002 E4       		.byte	0xe4
 19300 6003 4D0A0000 		.4byte	0xa4d
 19301 6007 00000000 		.4byte	.LFB156
 19302 600b 2C000000 		.4byte	.LFE156-.LFB156
 19303 600f 01       		.uleb128 0x1
 19304 6010 9C       		.byte	0x9c
 19305 6011 3C       		.uleb128 0x3c
 19306 6012 E3290000 		.4byte	.LASF1142
 19307 6016 03       		.byte	0x3
 19308 6017 6601     		.2byte	0x166
 19309 6019 00000000 		.4byte	.LFB149
 19310 601d 58000000 		.4byte	.LFE149-.LFB149
 19311 6021 01       		.uleb128 0x1
 19312 6022 9C       		.byte	0x9c
 19313 6023 37600000 		.4byte	0x6037
 19314 6027 4A       		.uleb128 0x4a
 19315 6028 C71B0000 		.4byte	.LASF1151
 19316 602c 47600000 		.4byte	0x6047
 19317 6030 05       		.uleb128 0x5
 19318 6031 03       		.byte	0x3
 19319 6032 00000000 		.4byte	__func__.8875
 19320 6036 00       		.byte	0
 19321 6037 0A       		.uleb128 0xa
 19322 6038 7C010000 		.4byte	0x17c
 19323 603c 47600000 		.4byte	0x6047
 19324 6040 0B       		.uleb128 0xb
 19325 6041 37000000 		.4byte	0x37
 19326 6045 0B       		.byte	0xb
 19327 6046 00       		.byte	0
 19328 6047 0F       		.uleb128 0xf
 19329 6048 37600000 		.4byte	0x6037
 19330 604c 4B       		.uleb128 0x4b
 19331 604d 441E0000 		.4byte	.LASF1152
ARM GAS  C:\Users\PCHAUT~1\AppData\Local\Temp\ccLw8kky.s 			page 353


 19332 6051 03       		.byte	0x3
 19333 6052 5A01     		.2byte	0x15a
 19334 6054 00000000 		.4byte	.LFB148
 19335 6058 30000000 		.4byte	.LFE148-.LFB148
 19336 605c 01       		.uleb128 0x1
 19337 605d 9C       		.byte	0x9c
 19338 605e 3C       		.uleb128 0x3c
 19339 605f EF1D0000 		.4byte	.LASF1143
 19340 6063 01       		.byte	0x1
 19341 6064 CA01     		.2byte	0x1ca
 19342 6066 00000000 		.4byte	.LFB120
 19343 606a 30000000 		.4byte	.LFE120-.LFB120
 19344 606e 01       		.uleb128 0x1
 19345 606f 9C       		.byte	0x9c
 19346 6070 8E600000 		.4byte	0x608e
 19347 6074 4C       		.uleb128 0x4c
 19348 6075 BE600000 		.4byte	0x60be
 19349 6079 0E000000 		.4byte	.LBB8
 19350 607d 06000000 		.4byte	.LBE8-.LBB8
 19351 6081 01       		.byte	0x1
 19352 6082 CD01     		.2byte	0x1cd
 19353 6084 4D       		.uleb128 0x4d
 19354 6085 C7600000 		.4byte	0x60c7
 19355 6089 02       		.uleb128 0x2
 19356 608a 91       		.byte	0x91
 19357 608b 70       		.sleb128 -16
 19358 608c 00       		.byte	0
 19359 608d 00       		.byte	0
 19360 608e 3C       		.uleb128 0x3c
 19361 608f 65200000 		.4byte	.LASF1144
 19362 6093 01       		.byte	0x1
 19363 6094 BC01     		.2byte	0x1bc
 19364 6096 00000000 		.4byte	.LFB119
 19365 609a 30000000 		.4byte	.LFE119-.LFB119
 19366 609e 01       		.uleb128 0x1
 19367 609f 9C       		.byte	0x9c
 19368 60a0 BE600000 		.4byte	0x60be
 19369 60a4 4C       		.uleb128 0x4c
 19370 60a5 BE600000 		.4byte	0x60be
 19371 60a9 0E000000 		.4byte	.LBB6
 19372 60ad 06000000 		.4byte	.LBE6-.LBB6
 19373 60b1 01       		.byte	0x1
 19374 60b2 BF01     		.2byte	0x1bf
 19375 60b4 4D       		.uleb128 0x4d
 19376 60b5 C7600000 		.4byte	0x60c7
 19377 60b9 02       		.uleb128 0x2
 19378 60ba 91       		.byte	0x91
 19379 60bb 70       		.sleb128 -16
 19380 60bc 00       		.byte	0
 19381 60bd 00       		.byte	0
 19382 60be 4E       		.uleb128 0x4e
 19383 60bf 4C2E0000 		.4byte	.LASF1153
 19384 60c3 02       		.byte	0x2
 19385 60c4 2002     		.2byte	0x220
 19386 60c6 03       		.byte	0x3
 19387 60c7 4F       		.uleb128 0x4f
 19388 60c8 3E100000 		.4byte	.LASF951
ARM GAS  C:\Users\PCHAUT~1\AppData\Local\Temp\ccLw8kky.s 			page 354


 19389 60cc 02       		.byte	0x2
 19390 60cd 2002     		.2byte	0x220
 19391 60cf A9090000 		.4byte	0x9a9
 19392 60d3 00       		.byte	0
 19393 60d4 00       		.byte	0
 19394              		.section	.debug_abbrev,"",%progbits
 19395              	.Ldebug_abbrev0:
 19396 0000 01       		.uleb128 0x1
 19397 0001 11       		.uleb128 0x11
 19398 0002 01       		.byte	0x1
 19399 0003 25       		.uleb128 0x25
 19400 0004 0E       		.uleb128 0xe
 19401 0005 13       		.uleb128 0x13
 19402 0006 0B       		.uleb128 0xb
 19403 0007 03       		.uleb128 0x3
 19404 0008 0E       		.uleb128 0xe
 19405 0009 1B       		.uleb128 0x1b
 19406 000a 0E       		.uleb128 0xe
 19407 000b 55       		.uleb128 0x55
 19408 000c 17       		.uleb128 0x17
 19409 000d 11       		.uleb128 0x11
 19410 000e 01       		.uleb128 0x1
 19411 000f 10       		.uleb128 0x10
 19412 0010 17       		.uleb128 0x17
 19413 0011 00       		.byte	0
 19414 0012 00       		.byte	0
 19415 0013 02       		.uleb128 0x2
 19416 0014 24       		.uleb128 0x24
 19417 0015 00       		.byte	0
 19418 0016 0B       		.uleb128 0xb
 19419 0017 0B       		.uleb128 0xb
 19420 0018 3E       		.uleb128 0x3e
 19421 0019 0B       		.uleb128 0xb
 19422 001a 03       		.uleb128 0x3
 19423 001b 08       		.uleb128 0x8
 19424 001c 00       		.byte	0
 19425 001d 00       		.byte	0
 19426 001e 03       		.uleb128 0x3
 19427 001f 16       		.uleb128 0x16
 19428 0020 00       		.byte	0
 19429 0021 03       		.uleb128 0x3
 19430 0022 0E       		.uleb128 0xe
 19431 0023 3A       		.uleb128 0x3a
 19432 0024 0B       		.uleb128 0xb
 19433 0025 3B       		.uleb128 0x3b
 19434 0026 0B       		.uleb128 0xb
 19435 0027 49       		.uleb128 0x49
 19436 0028 13       		.uleb128 0x13
 19437 0029 00       		.byte	0
 19438 002a 00       		.byte	0
 19439 002b 04       		.uleb128 0x4
 19440 002c 24       		.uleb128 0x24
 19441 002d 00       		.byte	0
 19442 002e 0B       		.uleb128 0xb
 19443 002f 0B       		.uleb128 0xb
 19444 0030 3E       		.uleb128 0x3e
 19445 0031 0B       		.uleb128 0xb
ARM GAS  C:\Users\PCHAUT~1\AppData\Local\Temp\ccLw8kky.s 			page 355


 19446 0032 03       		.uleb128 0x3
 19447 0033 0E       		.uleb128 0xe
 19448 0034 00       		.byte	0
 19449 0035 00       		.byte	0
 19450 0036 05       		.uleb128 0x5
 19451 0037 0F       		.uleb128 0xf
 19452 0038 00       		.byte	0
 19453 0039 0B       		.uleb128 0xb
 19454 003a 0B       		.uleb128 0xb
 19455 003b 49       		.uleb128 0x49
 19456 003c 13       		.uleb128 0x13
 19457 003d 00       		.byte	0
 19458 003e 00       		.byte	0
 19459 003f 06       		.uleb128 0x6
 19460 0040 13       		.uleb128 0x13
 19461 0041 00       		.byte	0
 19462 0042 03       		.uleb128 0x3
 19463 0043 0E       		.uleb128 0xe
 19464 0044 3C       		.uleb128 0x3c
 19465 0045 19       		.uleb128 0x19
 19466 0046 00       		.byte	0
 19467 0047 00       		.byte	0
 19468 0048 07       		.uleb128 0x7
 19469 0049 16       		.uleb128 0x16
 19470 004a 00       		.byte	0
 19471 004b 03       		.uleb128 0x3
 19472 004c 0E       		.uleb128 0xe
 19473 004d 3A       		.uleb128 0x3a
 19474 004e 0B       		.uleb128 0xb
 19475 004f 3B       		.uleb128 0x3b
 19476 0050 05       		.uleb128 0x5
 19477 0051 49       		.uleb128 0x49
 19478 0052 13       		.uleb128 0x13
 19479 0053 00       		.byte	0
 19480 0054 00       		.byte	0
 19481 0055 08       		.uleb128 0x8
 19482 0056 17       		.uleb128 0x17
 19483 0057 01       		.byte	0x1
 19484 0058 0B       		.uleb128 0xb
 19485 0059 0B       		.uleb128 0xb
 19486 005a 3A       		.uleb128 0x3a
 19487 005b 0B       		.uleb128 0xb
 19488 005c 3B       		.uleb128 0x3b
 19489 005d 0B       		.uleb128 0xb
 19490 005e 01       		.uleb128 0x1
 19491 005f 13       		.uleb128 0x13
 19492 0060 00       		.byte	0
 19493 0061 00       		.byte	0
 19494 0062 09       		.uleb128 0x9
 19495 0063 0D       		.uleb128 0xd
 19496 0064 00       		.byte	0
 19497 0065 03       		.uleb128 0x3
 19498 0066 0E       		.uleb128 0xe
 19499 0067 3A       		.uleb128 0x3a
 19500 0068 0B       		.uleb128 0xb
 19501 0069 3B       		.uleb128 0x3b
 19502 006a 0B       		.uleb128 0xb
ARM GAS  C:\Users\PCHAUT~1\AppData\Local\Temp\ccLw8kky.s 			page 356


 19503 006b 49       		.uleb128 0x49
 19504 006c 13       		.uleb128 0x13
 19505 006d 00       		.byte	0
 19506 006e 00       		.byte	0
 19507 006f 0A       		.uleb128 0xa
 19508 0070 01       		.uleb128 0x1
 19509 0071 01       		.byte	0x1
 19510 0072 49       		.uleb128 0x49
 19511 0073 13       		.uleb128 0x13
 19512 0074 01       		.uleb128 0x1
 19513 0075 13       		.uleb128 0x13
 19514 0076 00       		.byte	0
 19515 0077 00       		.byte	0
 19516 0078 0B       		.uleb128 0xb
 19517 0079 21       		.uleb128 0x21
 19518 007a 00       		.byte	0
 19519 007b 49       		.uleb128 0x49
 19520 007c 13       		.uleb128 0x13
 19521 007d 2F       		.uleb128 0x2f
 19522 007e 0B       		.uleb128 0xb
 19523 007f 00       		.byte	0
 19524 0080 00       		.byte	0
 19525 0081 0C       		.uleb128 0xc
 19526 0082 13       		.uleb128 0x13
 19527 0083 01       		.byte	0x1
 19528 0084 0B       		.uleb128 0xb
 19529 0085 0B       		.uleb128 0xb
 19530 0086 3A       		.uleb128 0x3a
 19531 0087 0B       		.uleb128 0xb
 19532 0088 3B       		.uleb128 0x3b
 19533 0089 0B       		.uleb128 0xb
 19534 008a 01       		.uleb128 0x1
 19535 008b 13       		.uleb128 0x13
 19536 008c 00       		.byte	0
 19537 008d 00       		.byte	0
 19538 008e 0D       		.uleb128 0xd
 19539 008f 0D       		.uleb128 0xd
 19540 0090 00       		.byte	0
 19541 0091 03       		.uleb128 0x3
 19542 0092 0E       		.uleb128 0xe
 19543 0093 3A       		.uleb128 0x3a
 19544 0094 0B       		.uleb128 0xb
 19545 0095 3B       		.uleb128 0x3b
 19546 0096 0B       		.uleb128 0xb
 19547 0097 49       		.uleb128 0x49
 19548 0098 13       		.uleb128 0x13
 19549 0099 38       		.uleb128 0x38
 19550 009a 0B       		.uleb128 0xb
 19551 009b 00       		.byte	0
 19552 009c 00       		.byte	0
 19553 009d 0E       		.uleb128 0xe
 19554 009e 0F       		.uleb128 0xf
 19555 009f 00       		.byte	0
 19556 00a0 0B       		.uleb128 0xb
 19557 00a1 0B       		.uleb128 0xb
 19558 00a2 00       		.byte	0
 19559 00a3 00       		.byte	0
ARM GAS  C:\Users\PCHAUT~1\AppData\Local\Temp\ccLw8kky.s 			page 357


 19560 00a4 0F       		.uleb128 0xf
 19561 00a5 26       		.uleb128 0x26
 19562 00a6 00       		.byte	0
 19563 00a7 49       		.uleb128 0x49
 19564 00a8 13       		.uleb128 0x13
 19565 00a9 00       		.byte	0
 19566 00aa 00       		.byte	0
 19567 00ab 10       		.uleb128 0x10
 19568 00ac 13       		.uleb128 0x13
 19569 00ad 01       		.byte	0x1
 19570 00ae 03       		.uleb128 0x3
 19571 00af 0E       		.uleb128 0xe
 19572 00b0 0B       		.uleb128 0xb
 19573 00b1 0B       		.uleb128 0xb
 19574 00b2 3A       		.uleb128 0x3a
 19575 00b3 0B       		.uleb128 0xb
 19576 00b4 3B       		.uleb128 0x3b
 19577 00b5 0B       		.uleb128 0xb
 19578 00b6 01       		.uleb128 0x1
 19579 00b7 13       		.uleb128 0x13
 19580 00b8 00       		.byte	0
 19581 00b9 00       		.byte	0
 19582 00ba 11       		.uleb128 0x11
 19583 00bb 0D       		.uleb128 0xd
 19584 00bc 00       		.byte	0
 19585 00bd 03       		.uleb128 0x3
 19586 00be 08       		.uleb128 0x8
 19587 00bf 3A       		.uleb128 0x3a
 19588 00c0 0B       		.uleb128 0xb
 19589 00c1 3B       		.uleb128 0x3b
 19590 00c2 0B       		.uleb128 0xb
 19591 00c3 49       		.uleb128 0x49
 19592 00c4 13       		.uleb128 0x13
 19593 00c5 38       		.uleb128 0x38
 19594 00c6 0B       		.uleb128 0xb
 19595 00c7 00       		.byte	0
 19596 00c8 00       		.byte	0
 19597 00c9 12       		.uleb128 0x12
 19598 00ca 13       		.uleb128 0x13
 19599 00cb 01       		.byte	0x1
 19600 00cc 03       		.uleb128 0x3
 19601 00cd 0E       		.uleb128 0xe
 19602 00ce 0B       		.uleb128 0xb
 19603 00cf 05       		.uleb128 0x5
 19604 00d0 3A       		.uleb128 0x3a
 19605 00d1 0B       		.uleb128 0xb
 19606 00d2 3B       		.uleb128 0x3b
 19607 00d3 0B       		.uleb128 0xb
 19608 00d4 01       		.uleb128 0x1
 19609 00d5 13       		.uleb128 0x13
 19610 00d6 00       		.byte	0
 19611 00d7 00       		.byte	0
 19612 00d8 13       		.uleb128 0x13
 19613 00d9 0D       		.uleb128 0xd
 19614 00da 00       		.byte	0
 19615 00db 03       		.uleb128 0x3
 19616 00dc 0E       		.uleb128 0xe
ARM GAS  C:\Users\PCHAUT~1\AppData\Local\Temp\ccLw8kky.s 			page 358


 19617 00dd 3A       		.uleb128 0x3a
 19618 00de 0B       		.uleb128 0xb
 19619 00df 3B       		.uleb128 0x3b
 19620 00e0 0B       		.uleb128 0xb
 19621 00e1 49       		.uleb128 0x49
 19622 00e2 13       		.uleb128 0x13
 19623 00e3 38       		.uleb128 0x38
 19624 00e4 05       		.uleb128 0x5
 19625 00e5 00       		.byte	0
 19626 00e6 00       		.byte	0
 19627 00e7 14       		.uleb128 0x14
 19628 00e8 15       		.uleb128 0x15
 19629 00e9 00       		.byte	0
 19630 00ea 27       		.uleb128 0x27
 19631 00eb 19       		.uleb128 0x19
 19632 00ec 00       		.byte	0
 19633 00ed 00       		.byte	0
 19634 00ee 15       		.uleb128 0x15
 19635 00ef 15       		.uleb128 0x15
 19636 00f0 01       		.byte	0x1
 19637 00f1 27       		.uleb128 0x27
 19638 00f2 19       		.uleb128 0x19
 19639 00f3 49       		.uleb128 0x49
 19640 00f4 13       		.uleb128 0x13
 19641 00f5 01       		.uleb128 0x1
 19642 00f6 13       		.uleb128 0x13
 19643 00f7 00       		.byte	0
 19644 00f8 00       		.byte	0
 19645 00f9 16       		.uleb128 0x16
 19646 00fa 05       		.uleb128 0x5
 19647 00fb 00       		.byte	0
 19648 00fc 49       		.uleb128 0x49
 19649 00fd 13       		.uleb128 0x13
 19650 00fe 00       		.byte	0
 19651 00ff 00       		.byte	0
 19652 0100 17       		.uleb128 0x17
 19653 0101 13       		.uleb128 0x13
 19654 0102 01       		.byte	0x1
 19655 0103 03       		.uleb128 0x3
 19656 0104 0E       		.uleb128 0xe
 19657 0105 0B       		.uleb128 0xb
 19658 0106 05       		.uleb128 0x5
 19659 0107 3A       		.uleb128 0x3a
 19660 0108 0B       		.uleb128 0xb
 19661 0109 3B       		.uleb128 0x3b
 19662 010a 05       		.uleb128 0x5
 19663 010b 01       		.uleb128 0x1
 19664 010c 13       		.uleb128 0x13
 19665 010d 00       		.byte	0
 19666 010e 00       		.byte	0
 19667 010f 18       		.uleb128 0x18
 19668 0110 0D       		.uleb128 0xd
 19669 0111 00       		.byte	0
 19670 0112 03       		.uleb128 0x3
 19671 0113 0E       		.uleb128 0xe
 19672 0114 3A       		.uleb128 0x3a
 19673 0115 0B       		.uleb128 0xb
ARM GAS  C:\Users\PCHAUT~1\AppData\Local\Temp\ccLw8kky.s 			page 359


 19674 0116 3B       		.uleb128 0x3b
 19675 0117 05       		.uleb128 0x5
 19676 0118 49       		.uleb128 0x49
 19677 0119 13       		.uleb128 0x13
 19678 011a 38       		.uleb128 0x38
 19679 011b 0B       		.uleb128 0xb
 19680 011c 00       		.byte	0
 19681 011d 00       		.byte	0
 19682 011e 19       		.uleb128 0x19
 19683 011f 0D       		.uleb128 0xd
 19684 0120 00       		.byte	0
 19685 0121 03       		.uleb128 0x3
 19686 0122 0E       		.uleb128 0xe
 19687 0123 3A       		.uleb128 0x3a
 19688 0124 0B       		.uleb128 0xb
 19689 0125 3B       		.uleb128 0x3b
 19690 0126 05       		.uleb128 0x5
 19691 0127 49       		.uleb128 0x49
 19692 0128 13       		.uleb128 0x13
 19693 0129 38       		.uleb128 0x38
 19694 012a 05       		.uleb128 0x5
 19695 012b 00       		.byte	0
 19696 012c 00       		.byte	0
 19697 012d 1A       		.uleb128 0x1a
 19698 012e 35       		.uleb128 0x35
 19699 012f 00       		.byte	0
 19700 0130 49       		.uleb128 0x49
 19701 0131 13       		.uleb128 0x13
 19702 0132 00       		.byte	0
 19703 0133 00       		.byte	0
 19704 0134 1B       		.uleb128 0x1b
 19705 0135 13       		.uleb128 0x13
 19706 0136 01       		.byte	0x1
 19707 0137 03       		.uleb128 0x3
 19708 0138 0E       		.uleb128 0xe
 19709 0139 0B       		.uleb128 0xb
 19710 013a 0B       		.uleb128 0xb
 19711 013b 3A       		.uleb128 0x3a
 19712 013c 0B       		.uleb128 0xb
 19713 013d 3B       		.uleb128 0x3b
 19714 013e 05       		.uleb128 0x5
 19715 013f 01       		.uleb128 0x1
 19716 0140 13       		.uleb128 0x13
 19717 0141 00       		.byte	0
 19718 0142 00       		.byte	0
 19719 0143 1C       		.uleb128 0x1c
 19720 0144 13       		.uleb128 0x13
 19721 0145 01       		.byte	0x1
 19722 0146 0B       		.uleb128 0xb
 19723 0147 0B       		.uleb128 0xb
 19724 0148 3A       		.uleb128 0x3a
 19725 0149 0B       		.uleb128 0xb
 19726 014a 3B       		.uleb128 0x3b
 19727 014b 05       		.uleb128 0x5
 19728 014c 01       		.uleb128 0x1
 19729 014d 13       		.uleb128 0x13
 19730 014e 00       		.byte	0
ARM GAS  C:\Users\PCHAUT~1\AppData\Local\Temp\ccLw8kky.s 			page 360


 19731 014f 00       		.byte	0
 19732 0150 1D       		.uleb128 0x1d
 19733 0151 17       		.uleb128 0x17
 19734 0152 01       		.byte	0x1
 19735 0153 0B       		.uleb128 0xb
 19736 0154 0B       		.uleb128 0xb
 19737 0155 3A       		.uleb128 0x3a
 19738 0156 0B       		.uleb128 0xb
 19739 0157 3B       		.uleb128 0x3b
 19740 0158 05       		.uleb128 0x5
 19741 0159 01       		.uleb128 0x1
 19742 015a 13       		.uleb128 0x13
 19743 015b 00       		.byte	0
 19744 015c 00       		.byte	0
 19745 015d 1E       		.uleb128 0x1e
 19746 015e 0D       		.uleb128 0xd
 19747 015f 00       		.byte	0
 19748 0160 03       		.uleb128 0x3
 19749 0161 0E       		.uleb128 0xe
 19750 0162 3A       		.uleb128 0x3a
 19751 0163 0B       		.uleb128 0xb
 19752 0164 3B       		.uleb128 0x3b
 19753 0165 05       		.uleb128 0x5
 19754 0166 49       		.uleb128 0x49
 19755 0167 13       		.uleb128 0x13
 19756 0168 00       		.byte	0
 19757 0169 00       		.byte	0
 19758 016a 1F       		.uleb128 0x1f
 19759 016b 15       		.uleb128 0x15
 19760 016c 01       		.byte	0x1
 19761 016d 27       		.uleb128 0x27
 19762 016e 19       		.uleb128 0x19
 19763 016f 01       		.uleb128 0x1
 19764 0170 13       		.uleb128 0x13
 19765 0171 00       		.byte	0
 19766 0172 00       		.byte	0
 19767 0173 20       		.uleb128 0x20
 19768 0174 34       		.uleb128 0x34
 19769 0175 00       		.byte	0
 19770 0176 03       		.uleb128 0x3
 19771 0177 0E       		.uleb128 0xe
 19772 0178 3A       		.uleb128 0x3a
 19773 0179 0B       		.uleb128 0xb
 19774 017a 3B       		.uleb128 0x3b
 19775 017b 05       		.uleb128 0x5
 19776 017c 49       		.uleb128 0x49
 19777 017d 13       		.uleb128 0x13
 19778 017e 3F       		.uleb128 0x3f
 19779 017f 19       		.uleb128 0x19
 19780 0180 3C       		.uleb128 0x3c
 19781 0181 19       		.uleb128 0x19
 19782 0182 00       		.byte	0
 19783 0183 00       		.byte	0
 19784 0184 21       		.uleb128 0x21
 19785 0185 04       		.uleb128 0x4
 19786 0186 01       		.byte	0x1
 19787 0187 03       		.uleb128 0x3
ARM GAS  C:\Users\PCHAUT~1\AppData\Local\Temp\ccLw8kky.s 			page 361


 19788 0188 0E       		.uleb128 0xe
 19789 0189 3E       		.uleb128 0x3e
 19790 018a 0B       		.uleb128 0xb
 19791 018b 0B       		.uleb128 0xb
 19792 018c 0B       		.uleb128 0xb
 19793 018d 49       		.uleb128 0x49
 19794 018e 13       		.uleb128 0x13
 19795 018f 3A       		.uleb128 0x3a
 19796 0190 0B       		.uleb128 0xb
 19797 0191 3B       		.uleb128 0x3b
 19798 0192 05       		.uleb128 0x5
 19799 0193 01       		.uleb128 0x1
 19800 0194 13       		.uleb128 0x13
 19801 0195 00       		.byte	0
 19802 0196 00       		.byte	0
 19803 0197 22       		.uleb128 0x22
 19804 0198 28       		.uleb128 0x28
 19805 0199 00       		.byte	0
 19806 019a 03       		.uleb128 0x3
 19807 019b 0E       		.uleb128 0xe
 19808 019c 1C       		.uleb128 0x1c
 19809 019d 0D       		.uleb128 0xd
 19810 019e 00       		.byte	0
 19811 019f 00       		.byte	0
 19812 01a0 23       		.uleb128 0x23
 19813 01a1 28       		.uleb128 0x28
 19814 01a2 00       		.byte	0
 19815 01a3 03       		.uleb128 0x3
 19816 01a4 0E       		.uleb128 0xe
 19817 01a5 1C       		.uleb128 0x1c
 19818 01a6 0B       		.uleb128 0xb
 19819 01a7 00       		.byte	0
 19820 01a8 00       		.byte	0
 19821 01a9 24       		.uleb128 0x24
 19822 01aa 0D       		.uleb128 0xd
 19823 01ab 00       		.byte	0
 19824 01ac 03       		.uleb128 0x3
 19825 01ad 0E       		.uleb128 0xe
 19826 01ae 49       		.uleb128 0x49
 19827 01af 13       		.uleb128 0x13
 19828 01b0 38       		.uleb128 0x38
 19829 01b1 0B       		.uleb128 0xb
 19830 01b2 34       		.uleb128 0x34
 19831 01b3 19       		.uleb128 0x19
 19832 01b4 00       		.byte	0
 19833 01b5 00       		.byte	0
 19834 01b6 25       		.uleb128 0x25
 19835 01b7 0D       		.uleb128 0xd
 19836 01b8 00       		.byte	0
 19837 01b9 03       		.uleb128 0x3
 19838 01ba 08       		.uleb128 0x8
 19839 01bb 3A       		.uleb128 0x3a
 19840 01bc 0B       		.uleb128 0xb
 19841 01bd 3B       		.uleb128 0x3b
 19842 01be 05       		.uleb128 0x5
 19843 01bf 49       		.uleb128 0x49
 19844 01c0 13       		.uleb128 0x13
ARM GAS  C:\Users\PCHAUT~1\AppData\Local\Temp\ccLw8kky.s 			page 362


 19845 01c1 38       		.uleb128 0x38
 19846 01c2 0B       		.uleb128 0xb
 19847 01c3 00       		.byte	0
 19848 01c4 00       		.byte	0
 19849 01c5 26       		.uleb128 0x26
 19850 01c6 0D       		.uleb128 0xd
 19851 01c7 00       		.byte	0
 19852 01c8 03       		.uleb128 0x3
 19853 01c9 08       		.uleb128 0x8
 19854 01ca 3A       		.uleb128 0x3a
 19855 01cb 0B       		.uleb128 0xb
 19856 01cc 3B       		.uleb128 0x3b
 19857 01cd 05       		.uleb128 0x5
 19858 01ce 49       		.uleb128 0x49
 19859 01cf 13       		.uleb128 0x13
 19860 01d0 38       		.uleb128 0x38
 19861 01d1 05       		.uleb128 0x5
 19862 01d2 00       		.byte	0
 19863 01d3 00       		.byte	0
 19864 01d4 27       		.uleb128 0x27
 19865 01d5 34       		.uleb128 0x34
 19866 01d6 00       		.byte	0
 19867 01d7 03       		.uleb128 0x3
 19868 01d8 0E       		.uleb128 0xe
 19869 01d9 3A       		.uleb128 0x3a
 19870 01da 0B       		.uleb128 0xb
 19871 01db 3B       		.uleb128 0x3b
 19872 01dc 0B       		.uleb128 0xb
 19873 01dd 49       		.uleb128 0x49
 19874 01de 13       		.uleb128 0x13
 19875 01df 3F       		.uleb128 0x3f
 19876 01e0 19       		.uleb128 0x19
 19877 01e1 3C       		.uleb128 0x3c
 19878 01e2 19       		.uleb128 0x19
 19879 01e3 00       		.byte	0
 19880 01e4 00       		.byte	0
 19881 01e5 28       		.uleb128 0x28
 19882 01e6 13       		.uleb128 0x13
 19883 01e7 01       		.byte	0x1
 19884 01e8 0B       		.uleb128 0xb
 19885 01e9 05       		.uleb128 0x5
 19886 01ea 3A       		.uleb128 0x3a
 19887 01eb 0B       		.uleb128 0xb
 19888 01ec 3B       		.uleb128 0x3b
 19889 01ed 05       		.uleb128 0x5
 19890 01ee 01       		.uleb128 0x1
 19891 01ef 13       		.uleb128 0x13
 19892 01f0 00       		.byte	0
 19893 01f1 00       		.byte	0
 19894 01f2 29       		.uleb128 0x29
 19895 01f3 13       		.uleb128 0x13
 19896 01f4 01       		.byte	0x1
 19897 01f5 0B       		.uleb128 0xb
 19898 01f6 05       		.uleb128 0x5
 19899 01f7 3A       		.uleb128 0x3a
 19900 01f8 0B       		.uleb128 0xb
 19901 01f9 3B       		.uleb128 0x3b
ARM GAS  C:\Users\PCHAUT~1\AppData\Local\Temp\ccLw8kky.s 			page 363


 19902 01fa 0B       		.uleb128 0xb
 19903 01fb 01       		.uleb128 0x1
 19904 01fc 13       		.uleb128 0x13
 19905 01fd 00       		.byte	0
 19906 01fe 00       		.byte	0
 19907 01ff 2A       		.uleb128 0x2a
 19908 0200 34       		.uleb128 0x34
 19909 0201 00       		.byte	0
 19910 0202 03       		.uleb128 0x3
 19911 0203 08       		.uleb128 0x8
 19912 0204 3A       		.uleb128 0x3a
 19913 0205 0B       		.uleb128 0xb
 19914 0206 3B       		.uleb128 0x3b
 19915 0207 05       		.uleb128 0x5
 19916 0208 49       		.uleb128 0x49
 19917 0209 13       		.uleb128 0x13
 19918 020a 3F       		.uleb128 0x3f
 19919 020b 19       		.uleb128 0x19
 19920 020c 3C       		.uleb128 0x3c
 19921 020d 19       		.uleb128 0x19
 19922 020e 00       		.byte	0
 19923 020f 00       		.byte	0
 19924 0210 2B       		.uleb128 0x2b
 19925 0211 04       		.uleb128 0x4
 19926 0212 01       		.byte	0x1
 19927 0213 3E       		.uleb128 0x3e
 19928 0214 0B       		.uleb128 0xb
 19929 0215 0B       		.uleb128 0xb
 19930 0216 0B       		.uleb128 0xb
 19931 0217 49       		.uleb128 0x49
 19932 0218 13       		.uleb128 0x13
 19933 0219 3A       		.uleb128 0x3a
 19934 021a 0B       		.uleb128 0xb
 19935 021b 3B       		.uleb128 0x3b
 19936 021c 0B       		.uleb128 0xb
 19937 021d 01       		.uleb128 0x1
 19938 021e 13       		.uleb128 0x13
 19939 021f 00       		.byte	0
 19940 0220 00       		.byte	0
 19941 0221 2C       		.uleb128 0x2c
 19942 0222 0D       		.uleb128 0xd
 19943 0223 00       		.byte	0
 19944 0224 03       		.uleb128 0x3
 19945 0225 08       		.uleb128 0x8
 19946 0226 3A       		.uleb128 0x3a
 19947 0227 0B       		.uleb128 0xb
 19948 0228 3B       		.uleb128 0x3b
 19949 0229 0B       		.uleb128 0xb
 19950 022a 49       		.uleb128 0x49
 19951 022b 13       		.uleb128 0x13
 19952 022c 00       		.byte	0
 19953 022d 00       		.byte	0
 19954 022e 2D       		.uleb128 0x2d
 19955 022f 04       		.uleb128 0x4
 19956 0230 01       		.byte	0x1
 19957 0231 3E       		.uleb128 0x3e
 19958 0232 0B       		.uleb128 0xb
ARM GAS  C:\Users\PCHAUT~1\AppData\Local\Temp\ccLw8kky.s 			page 364


 19959 0233 0B       		.uleb128 0xb
 19960 0234 0B       		.uleb128 0xb
 19961 0235 49       		.uleb128 0x49
 19962 0236 13       		.uleb128 0x13
 19963 0237 3A       		.uleb128 0x3a
 19964 0238 0B       		.uleb128 0xb
 19965 0239 3B       		.uleb128 0x3b
 19966 023a 05       		.uleb128 0x5
 19967 023b 01       		.uleb128 0x1
 19968 023c 13       		.uleb128 0x13
 19969 023d 00       		.byte	0
 19970 023e 00       		.byte	0
 19971 023f 2E       		.uleb128 0x2e
 19972 0240 26       		.uleb128 0x26
 19973 0241 00       		.byte	0
 19974 0242 00       		.byte	0
 19975 0243 00       		.byte	0
 19976 0244 2F       		.uleb128 0x2f
 19977 0245 13       		.uleb128 0x13
 19978 0246 01       		.byte	0x1
 19979 0247 0B       		.uleb128 0xb
 19980 0248 06       		.uleb128 0x6
 19981 0249 3A       		.uleb128 0x3a
 19982 024a 0B       		.uleb128 0xb
 19983 024b 3B       		.uleb128 0x3b
 19984 024c 0B       		.uleb128 0xb
 19985 024d 01       		.uleb128 0x1
 19986 024e 13       		.uleb128 0x13
 19987 024f 00       		.byte	0
 19988 0250 00       		.byte	0
 19989 0251 30       		.uleb128 0x30
 19990 0252 0D       		.uleb128 0xd
 19991 0253 00       		.byte	0
 19992 0254 03       		.uleb128 0x3
 19993 0255 08       		.uleb128 0x8
 19994 0256 3A       		.uleb128 0x3a
 19995 0257 0B       		.uleb128 0xb
 19996 0258 3B       		.uleb128 0x3b
 19997 0259 0B       		.uleb128 0xb
 19998 025a 49       		.uleb128 0x49
 19999 025b 13       		.uleb128 0x13
 20000 025c 38       		.uleb128 0x38
 20001 025d 05       		.uleb128 0x5
 20002 025e 00       		.byte	0
 20003 025f 00       		.byte	0
 20004 0260 31       		.uleb128 0x31
 20005 0261 21       		.uleb128 0x21
 20006 0262 00       		.byte	0
 20007 0263 49       		.uleb128 0x49
 20008 0264 13       		.uleb128 0x13
 20009 0265 2F       		.uleb128 0x2f
 20010 0266 05       		.uleb128 0x5
 20011 0267 00       		.byte	0
 20012 0268 00       		.byte	0
 20013 0269 32       		.uleb128 0x32
 20014 026a 17       		.uleb128 0x17
 20015 026b 01       		.byte	0x1
ARM GAS  C:\Users\PCHAUT~1\AppData\Local\Temp\ccLw8kky.s 			page 365


 20016 026c 03       		.uleb128 0x3
 20017 026d 0E       		.uleb128 0xe
 20018 026e 0B       		.uleb128 0xb
 20019 026f 05       		.uleb128 0x5
 20020 0270 3A       		.uleb128 0x3a
 20021 0271 0B       		.uleb128 0xb
 20022 0272 3B       		.uleb128 0x3b
 20023 0273 0B       		.uleb128 0xb
 20024 0274 01       		.uleb128 0x1
 20025 0275 13       		.uleb128 0x13
 20026 0276 00       		.byte	0
 20027 0277 00       		.byte	0
 20028 0278 33       		.uleb128 0x33
 20029 0279 21       		.uleb128 0x21
 20030 027a 00       		.byte	0
 20031 027b 00       		.byte	0
 20032 027c 00       		.byte	0
 20033 027d 34       		.uleb128 0x34
 20034 027e 34       		.uleb128 0x34
 20035 027f 00       		.byte	0
 20036 0280 03       		.uleb128 0x3
 20037 0281 08       		.uleb128 0x8
 20038 0282 3A       		.uleb128 0x3a
 20039 0283 0B       		.uleb128 0xb
 20040 0284 3B       		.uleb128 0x3b
 20041 0285 0B       		.uleb128 0xb
 20042 0286 49       		.uleb128 0x49
 20043 0287 13       		.uleb128 0x13
 20044 0288 3F       		.uleb128 0x3f
 20045 0289 19       		.uleb128 0x19
 20046 028a 3C       		.uleb128 0x3c
 20047 028b 19       		.uleb128 0x19
 20048 028c 00       		.byte	0
 20049 028d 00       		.byte	0
 20050 028e 35       		.uleb128 0x35
 20051 028f 21       		.uleb128 0x21
 20052 0290 00       		.byte	0
 20053 0291 49       		.uleb128 0x49
 20054 0292 13       		.uleb128 0x13
 20055 0293 00       		.byte	0
 20056 0294 00       		.byte	0
 20057 0295 36       		.uleb128 0x36
 20058 0296 16       		.uleb128 0x16
 20059 0297 00       		.byte	0
 20060 0298 03       		.uleb128 0x3
 20061 0299 08       		.uleb128 0x8
 20062 029a 3A       		.uleb128 0x3a
 20063 029b 0B       		.uleb128 0xb
 20064 029c 3B       		.uleb128 0x3b
 20065 029d 0B       		.uleb128 0xb
 20066 029e 49       		.uleb128 0x49
 20067 029f 13       		.uleb128 0x13
 20068 02a0 00       		.byte	0
 20069 02a1 00       		.byte	0
 20070 02a2 37       		.uleb128 0x37
 20071 02a3 34       		.uleb128 0x34
 20072 02a4 00       		.byte	0
ARM GAS  C:\Users\PCHAUT~1\AppData\Local\Temp\ccLw8kky.s 			page 366


 20073 02a5 03       		.uleb128 0x3
 20074 02a6 08       		.uleb128 0x8
 20075 02a7 3A       		.uleb128 0x3a
 20076 02a8 0B       		.uleb128 0xb
 20077 02a9 3B       		.uleb128 0x3b
 20078 02aa 0B       		.uleb128 0xb
 20079 02ab 49       		.uleb128 0x49
 20080 02ac 13       		.uleb128 0x13
 20081 02ad 02       		.uleb128 0x2
 20082 02ae 18       		.uleb128 0x18
 20083 02af 00       		.byte	0
 20084 02b0 00       		.byte	0
 20085 02b1 38       		.uleb128 0x38
 20086 02b2 34       		.uleb128 0x34
 20087 02b3 00       		.byte	0
 20088 02b4 03       		.uleb128 0x3
 20089 02b5 0E       		.uleb128 0xe
 20090 02b6 3A       		.uleb128 0x3a
 20091 02b7 0B       		.uleb128 0xb
 20092 02b8 3B       		.uleb128 0x3b
 20093 02b9 0B       		.uleb128 0xb
 20094 02ba 49       		.uleb128 0x49
 20095 02bb 13       		.uleb128 0x13
 20096 02bc 02       		.uleb128 0x2
 20097 02bd 18       		.uleb128 0x18
 20098 02be 00       		.byte	0
 20099 02bf 00       		.byte	0
 20100 02c0 39       		.uleb128 0x39
 20101 02c1 34       		.uleb128 0x34
 20102 02c2 00       		.byte	0
 20103 02c3 03       		.uleb128 0x3
 20104 02c4 0E       		.uleb128 0xe
 20105 02c5 3A       		.uleb128 0x3a
 20106 02c6 0B       		.uleb128 0xb
 20107 02c7 3B       		.uleb128 0x3b
 20108 02c8 05       		.uleb128 0x5
 20109 02c9 49       		.uleb128 0x49
 20110 02ca 13       		.uleb128 0x13
 20111 02cb 3F       		.uleb128 0x3f
 20112 02cc 19       		.uleb128 0x19
 20113 02cd 02       		.uleb128 0x2
 20114 02ce 18       		.uleb128 0x18
 20115 02cf 00       		.byte	0
 20116 02d0 00       		.byte	0
 20117 02d1 3A       		.uleb128 0x3a
 20118 02d2 2E       		.uleb128 0x2e
 20119 02d3 01       		.byte	0x1
 20120 02d4 3F       		.uleb128 0x3f
 20121 02d5 19       		.uleb128 0x19
 20122 02d6 03       		.uleb128 0x3
 20123 02d7 0E       		.uleb128 0xe
 20124 02d8 3A       		.uleb128 0x3a
 20125 02d9 0B       		.uleb128 0xb
 20126 02da 3B       		.uleb128 0x3b
 20127 02db 05       		.uleb128 0x5
 20128 02dc 27       		.uleb128 0x27
 20129 02dd 19       		.uleb128 0x19
ARM GAS  C:\Users\PCHAUT~1\AppData\Local\Temp\ccLw8kky.s 			page 367


 20130 02de 11       		.uleb128 0x11
 20131 02df 01       		.uleb128 0x1
 20132 02e0 12       		.uleb128 0x12
 20133 02e1 06       		.uleb128 0x6
 20134 02e2 40       		.uleb128 0x40
 20135 02e3 18       		.uleb128 0x18
 20136 02e4 9642     		.uleb128 0x2116
 20137 02e6 19       		.uleb128 0x19
 20138 02e7 01       		.uleb128 0x1
 20139 02e8 13       		.uleb128 0x13
 20140 02e9 00       		.byte	0
 20141 02ea 00       		.byte	0
 20142 02eb 3B       		.uleb128 0x3b
 20143 02ec 34       		.uleb128 0x34
 20144 02ed 00       		.byte	0
 20145 02ee 03       		.uleb128 0x3
 20146 02ef 08       		.uleb128 0x8
 20147 02f0 3A       		.uleb128 0x3a
 20148 02f1 0B       		.uleb128 0xb
 20149 02f2 3B       		.uleb128 0x3b
 20150 02f3 05       		.uleb128 0x5
 20151 02f4 49       		.uleb128 0x49
 20152 02f5 13       		.uleb128 0x13
 20153 02f6 02       		.uleb128 0x2
 20154 02f7 18       		.uleb128 0x18
 20155 02f8 00       		.byte	0
 20156 02f9 00       		.byte	0
 20157 02fa 3C       		.uleb128 0x3c
 20158 02fb 2E       		.uleb128 0x2e
 20159 02fc 01       		.byte	0x1
 20160 02fd 03       		.uleb128 0x3
 20161 02fe 0E       		.uleb128 0xe
 20162 02ff 3A       		.uleb128 0x3a
 20163 0300 0B       		.uleb128 0xb
 20164 0301 3B       		.uleb128 0x3b
 20165 0302 05       		.uleb128 0x5
 20166 0303 27       		.uleb128 0x27
 20167 0304 19       		.uleb128 0x19
 20168 0305 11       		.uleb128 0x11
 20169 0306 01       		.uleb128 0x1
 20170 0307 12       		.uleb128 0x12
 20171 0308 06       		.uleb128 0x6
 20172 0309 40       		.uleb128 0x40
 20173 030a 18       		.uleb128 0x18
 20174 030b 9642     		.uleb128 0x2116
 20175 030d 19       		.uleb128 0x19
 20176 030e 01       		.uleb128 0x1
 20177 030f 13       		.uleb128 0x13
 20178 0310 00       		.byte	0
 20179 0311 00       		.byte	0
 20180 0312 3D       		.uleb128 0x3d
 20181 0313 05       		.uleb128 0x5
 20182 0314 00       		.byte	0
 20183 0315 03       		.uleb128 0x3
 20184 0316 08       		.uleb128 0x8
 20185 0317 3A       		.uleb128 0x3a
 20186 0318 0B       		.uleb128 0xb
ARM GAS  C:\Users\PCHAUT~1\AppData\Local\Temp\ccLw8kky.s 			page 368


 20187 0319 3B       		.uleb128 0x3b
 20188 031a 05       		.uleb128 0x5
 20189 031b 49       		.uleb128 0x49
 20190 031c 13       		.uleb128 0x13
 20191 031d 02       		.uleb128 0x2
 20192 031e 18       		.uleb128 0x18
 20193 031f 00       		.byte	0
 20194 0320 00       		.byte	0
 20195 0321 3E       		.uleb128 0x3e
 20196 0322 34       		.uleb128 0x34
 20197 0323 00       		.byte	0
 20198 0324 03       		.uleb128 0x3
 20199 0325 0E       		.uleb128 0xe
 20200 0326 3A       		.uleb128 0x3a
 20201 0327 0B       		.uleb128 0xb
 20202 0328 3B       		.uleb128 0x3b
 20203 0329 05       		.uleb128 0x5
 20204 032a 49       		.uleb128 0x49
 20205 032b 13       		.uleb128 0x13
 20206 032c 02       		.uleb128 0x2
 20207 032d 18       		.uleb128 0x18
 20208 032e 00       		.byte	0
 20209 032f 00       		.byte	0
 20210 0330 3F       		.uleb128 0x3f
 20211 0331 05       		.uleb128 0x5
 20212 0332 00       		.byte	0
 20213 0333 03       		.uleb128 0x3
 20214 0334 0E       		.uleb128 0xe
 20215 0335 3A       		.uleb128 0x3a
 20216 0336 0B       		.uleb128 0xb
 20217 0337 3B       		.uleb128 0x3b
 20218 0338 05       		.uleb128 0x5
 20219 0339 49       		.uleb128 0x49
 20220 033a 13       		.uleb128 0x13
 20221 033b 02       		.uleb128 0x2
 20222 033c 18       		.uleb128 0x18
 20223 033d 00       		.byte	0
 20224 033e 00       		.byte	0
 20225 033f 40       		.uleb128 0x40
 20226 0340 0A       		.uleb128 0xa
 20227 0341 00       		.byte	0
 20228 0342 03       		.uleb128 0x3
 20229 0343 0E       		.uleb128 0xe
 20230 0344 3A       		.uleb128 0x3a
 20231 0345 0B       		.uleb128 0xb
 20232 0346 3B       		.uleb128 0x3b
 20233 0347 05       		.uleb128 0x5
 20234 0348 11       		.uleb128 0x11
 20235 0349 01       		.uleb128 0x1
 20236 034a 00       		.byte	0
 20237 034b 00       		.byte	0
 20238 034c 41       		.uleb128 0x41
 20239 034d 0B       		.uleb128 0xb
 20240 034e 01       		.byte	0x1
 20241 034f 11       		.uleb128 0x11
 20242 0350 01       		.uleb128 0x1
 20243 0351 12       		.uleb128 0x12
ARM GAS  C:\Users\PCHAUT~1\AppData\Local\Temp\ccLw8kky.s 			page 369


 20244 0352 06       		.uleb128 0x6
 20245 0353 01       		.uleb128 0x1
 20246 0354 13       		.uleb128 0x13
 20247 0355 00       		.byte	0
 20248 0356 00       		.byte	0
 20249 0357 42       		.uleb128 0x42
 20250 0358 0B       		.uleb128 0xb
 20251 0359 01       		.byte	0x1
 20252 035a 11       		.uleb128 0x11
 20253 035b 01       		.uleb128 0x1
 20254 035c 12       		.uleb128 0x12
 20255 035d 06       		.uleb128 0x6
 20256 035e 00       		.byte	0
 20257 035f 00       		.byte	0
 20258 0360 43       		.uleb128 0x43
 20259 0361 2E       		.uleb128 0x2e
 20260 0362 01       		.byte	0x1
 20261 0363 3F       		.uleb128 0x3f
 20262 0364 19       		.uleb128 0x19
 20263 0365 03       		.uleb128 0x3
 20264 0366 0E       		.uleb128 0xe
 20265 0367 3A       		.uleb128 0x3a
 20266 0368 0B       		.uleb128 0xb
 20267 0369 3B       		.uleb128 0x3b
 20268 036a 0B       		.uleb128 0xb
 20269 036b 27       		.uleb128 0x27
 20270 036c 19       		.uleb128 0x19
 20271 036d 11       		.uleb128 0x11
 20272 036e 01       		.uleb128 0x1
 20273 036f 12       		.uleb128 0x12
 20274 0370 06       		.uleb128 0x6
 20275 0371 40       		.uleb128 0x40
 20276 0372 18       		.uleb128 0x18
 20277 0373 9642     		.uleb128 0x2116
 20278 0375 19       		.uleb128 0x19
 20279 0376 01       		.uleb128 0x1
 20280 0377 13       		.uleb128 0x13
 20281 0378 00       		.byte	0
 20282 0379 00       		.byte	0
 20283 037a 44       		.uleb128 0x44
 20284 037b 05       		.uleb128 0x5
 20285 037c 00       		.byte	0
 20286 037d 03       		.uleb128 0x3
 20287 037e 08       		.uleb128 0x8
 20288 037f 3A       		.uleb128 0x3a
 20289 0380 0B       		.uleb128 0xb
 20290 0381 3B       		.uleb128 0x3b
 20291 0382 0B       		.uleb128 0xb
 20292 0383 49       		.uleb128 0x49
 20293 0384 13       		.uleb128 0x13
 20294 0385 02       		.uleb128 0x2
 20295 0386 18       		.uleb128 0x18
 20296 0387 00       		.byte	0
 20297 0388 00       		.byte	0
 20298 0389 45       		.uleb128 0x45
 20299 038a 05       		.uleb128 0x5
 20300 038b 00       		.byte	0
ARM GAS  C:\Users\PCHAUT~1\AppData\Local\Temp\ccLw8kky.s 			page 370


 20301 038c 03       		.uleb128 0x3
 20302 038d 0E       		.uleb128 0xe
 20303 038e 3A       		.uleb128 0x3a
 20304 038f 0B       		.uleb128 0xb
 20305 0390 3B       		.uleb128 0x3b
 20306 0391 0B       		.uleb128 0xb
 20307 0392 49       		.uleb128 0x49
 20308 0393 13       		.uleb128 0x13
 20309 0394 02       		.uleb128 0x2
 20310 0395 18       		.uleb128 0x18
 20311 0396 00       		.byte	0
 20312 0397 00       		.byte	0
 20313 0398 46       		.uleb128 0x46
 20314 0399 2E       		.uleb128 0x2e
 20315 039a 01       		.byte	0x1
 20316 039b 03       		.uleb128 0x3
 20317 039c 0E       		.uleb128 0xe
 20318 039d 3A       		.uleb128 0x3a
 20319 039e 0B       		.uleb128 0xb
 20320 039f 3B       		.uleb128 0x3b
 20321 03a0 0B       		.uleb128 0xb
 20322 03a1 27       		.uleb128 0x27
 20323 03a2 19       		.uleb128 0x19
 20324 03a3 49       		.uleb128 0x49
 20325 03a4 13       		.uleb128 0x13
 20326 03a5 11       		.uleb128 0x11
 20327 03a6 01       		.uleb128 0x1
 20328 03a7 12       		.uleb128 0x12
 20329 03a8 06       		.uleb128 0x6
 20330 03a9 40       		.uleb128 0x40
 20331 03aa 18       		.uleb128 0x18
 20332 03ab 9642     		.uleb128 0x2116
 20333 03ad 19       		.uleb128 0x19
 20334 03ae 01       		.uleb128 0x1
 20335 03af 13       		.uleb128 0x13
 20336 03b0 00       		.byte	0
 20337 03b1 00       		.byte	0
 20338 03b2 47       		.uleb128 0x47
 20339 03b3 18       		.uleb128 0x18
 20340 03b4 00       		.byte	0
 20341 03b5 00       		.byte	0
 20342 03b6 00       		.byte	0
 20343 03b7 48       		.uleb128 0x48
 20344 03b8 2E       		.uleb128 0x2e
 20345 03b9 00       		.byte	0
 20346 03ba 03       		.uleb128 0x3
 20347 03bb 0E       		.uleb128 0xe
 20348 03bc 3A       		.uleb128 0x3a
 20349 03bd 0B       		.uleb128 0xb
 20350 03be 3B       		.uleb128 0x3b
 20351 03bf 0B       		.uleb128 0xb
 20352 03c0 27       		.uleb128 0x27
 20353 03c1 19       		.uleb128 0x19
 20354 03c2 49       		.uleb128 0x49
 20355 03c3 13       		.uleb128 0x13
 20356 03c4 11       		.uleb128 0x11
 20357 03c5 01       		.uleb128 0x1
ARM GAS  C:\Users\PCHAUT~1\AppData\Local\Temp\ccLw8kky.s 			page 371


 20358 03c6 12       		.uleb128 0x12
 20359 03c7 06       		.uleb128 0x6
 20360 03c8 40       		.uleb128 0x40
 20361 03c9 18       		.uleb128 0x18
 20362 03ca 9642     		.uleb128 0x2116
 20363 03cc 19       		.uleb128 0x19
 20364 03cd 00       		.byte	0
 20365 03ce 00       		.byte	0
 20366 03cf 49       		.uleb128 0x49
 20367 03d0 2E       		.uleb128 0x2e
 20368 03d1 01       		.byte	0x1
 20369 03d2 03       		.uleb128 0x3
 20370 03d3 0E       		.uleb128 0xe
 20371 03d4 3A       		.uleb128 0x3a
 20372 03d5 0B       		.uleb128 0xb
 20373 03d6 3B       		.uleb128 0x3b
 20374 03d7 05       		.uleb128 0x5
 20375 03d8 27       		.uleb128 0x27
 20376 03d9 19       		.uleb128 0x19
 20377 03da 49       		.uleb128 0x49
 20378 03db 13       		.uleb128 0x13
 20379 03dc 11       		.uleb128 0x11
 20380 03dd 01       		.uleb128 0x1
 20381 03de 12       		.uleb128 0x12
 20382 03df 06       		.uleb128 0x6
 20383 03e0 40       		.uleb128 0x40
 20384 03e1 18       		.uleb128 0x18
 20385 03e2 9642     		.uleb128 0x2116
 20386 03e4 19       		.uleb128 0x19
 20387 03e5 01       		.uleb128 0x1
 20388 03e6 13       		.uleb128 0x13
 20389 03e7 00       		.byte	0
 20390 03e8 00       		.byte	0
 20391 03e9 4A       		.uleb128 0x4a
 20392 03ea 34       		.uleb128 0x34
 20393 03eb 00       		.byte	0
 20394 03ec 03       		.uleb128 0x3
 20395 03ed 0E       		.uleb128 0xe
 20396 03ee 49       		.uleb128 0x49
 20397 03ef 13       		.uleb128 0x13
 20398 03f0 34       		.uleb128 0x34
 20399 03f1 19       		.uleb128 0x19
 20400 03f2 02       		.uleb128 0x2
 20401 03f3 18       		.uleb128 0x18
 20402 03f4 00       		.byte	0
 20403 03f5 00       		.byte	0
 20404 03f6 4B       		.uleb128 0x4b
 20405 03f7 2E       		.uleb128 0x2e
 20406 03f8 00       		.byte	0
 20407 03f9 03       		.uleb128 0x3
 20408 03fa 0E       		.uleb128 0xe
 20409 03fb 3A       		.uleb128 0x3a
 20410 03fc 0B       		.uleb128 0xb
 20411 03fd 3B       		.uleb128 0x3b
 20412 03fe 05       		.uleb128 0x5
 20413 03ff 27       		.uleb128 0x27
 20414 0400 19       		.uleb128 0x19
ARM GAS  C:\Users\PCHAUT~1\AppData\Local\Temp\ccLw8kky.s 			page 372


 20415 0401 11       		.uleb128 0x11
 20416 0402 01       		.uleb128 0x1
 20417 0403 12       		.uleb128 0x12
 20418 0404 06       		.uleb128 0x6
 20419 0405 40       		.uleb128 0x40
 20420 0406 18       		.uleb128 0x18
 20421 0407 9642     		.uleb128 0x2116
 20422 0409 19       		.uleb128 0x19
 20423 040a 00       		.byte	0
 20424 040b 00       		.byte	0
 20425 040c 4C       		.uleb128 0x4c
 20426 040d 1D       		.uleb128 0x1d
 20427 040e 01       		.byte	0x1
 20428 040f 31       		.uleb128 0x31
 20429 0410 13       		.uleb128 0x13
 20430 0411 11       		.uleb128 0x11
 20431 0412 01       		.uleb128 0x1
 20432 0413 12       		.uleb128 0x12
 20433 0414 06       		.uleb128 0x6
 20434 0415 58       		.uleb128 0x58
 20435 0416 0B       		.uleb128 0xb
 20436 0417 59       		.uleb128 0x59
 20437 0418 05       		.uleb128 0x5
 20438 0419 00       		.byte	0
 20439 041a 00       		.byte	0
 20440 041b 4D       		.uleb128 0x4d
 20441 041c 05       		.uleb128 0x5
 20442 041d 00       		.byte	0
 20443 041e 31       		.uleb128 0x31
 20444 041f 13       		.uleb128 0x13
 20445 0420 02       		.uleb128 0x2
 20446 0421 18       		.uleb128 0x18
 20447 0422 00       		.byte	0
 20448 0423 00       		.byte	0
 20449 0424 4E       		.uleb128 0x4e
 20450 0425 2E       		.uleb128 0x2e
 20451 0426 01       		.byte	0x1
 20452 0427 03       		.uleb128 0x3
 20453 0428 0E       		.uleb128 0xe
 20454 0429 3A       		.uleb128 0x3a
 20455 042a 0B       		.uleb128 0xb
 20456 042b 3B       		.uleb128 0x3b
 20457 042c 05       		.uleb128 0x5
 20458 042d 27       		.uleb128 0x27
 20459 042e 19       		.uleb128 0x19
 20460 042f 20       		.uleb128 0x20
 20461 0430 0B       		.uleb128 0xb
 20462 0431 00       		.byte	0
 20463 0432 00       		.byte	0
 20464 0433 4F       		.uleb128 0x4f
 20465 0434 05       		.uleb128 0x5
 20466 0435 00       		.byte	0
 20467 0436 03       		.uleb128 0x3
 20468 0437 0E       		.uleb128 0xe
 20469 0438 3A       		.uleb128 0x3a
 20470 0439 0B       		.uleb128 0xb
 20471 043a 3B       		.uleb128 0x3b
ARM GAS  C:\Users\PCHAUT~1\AppData\Local\Temp\ccLw8kky.s 			page 373


 20472 043b 05       		.uleb128 0x5
 20473 043c 49       		.uleb128 0x49
 20474 043d 13       		.uleb128 0x13
 20475 043e 00       		.byte	0
 20476 043f 00       		.byte	0
 20477 0440 00       		.byte	0
 20478              		.section	.debug_aranges,"",%progbits
 20479 0000 04020000 		.4byte	0x204
 20480 0004 0200     		.2byte	0x2
 20481 0006 00000000 		.4byte	.Ldebug_info0
 20482 000a 04       		.byte	0x4
 20483 000b 00       		.byte	0
 20484 000c 0000     		.2byte	0
 20485 000e 0000     		.2byte	0
 20486 0010 00000000 		.4byte	.LFB119
 20487 0014 30000000 		.4byte	.LFE119-.LFB119
 20488 0018 00000000 		.4byte	.LFB120
 20489 001c 30000000 		.4byte	.LFE120-.LFB120
 20490 0020 00000000 		.4byte	.LFB148
 20491 0024 30000000 		.4byte	.LFE148-.LFB148
 20492 0028 00000000 		.4byte	.LFB149
 20493 002c 58000000 		.4byte	.LFE149-.LFB149
 20494 0030 00000000 		.4byte	.LFB156
 20495 0034 2C000000 		.4byte	.LFE156-.LFB156
 20496 0038 00000000 		.4byte	.LFB157
 20497 003c 34000000 		.4byte	.LFE157-.LFB157
 20498 0040 00000000 		.4byte	.LFB159
 20499 0044 40000000 		.4byte	.LFE159-.LFB159
 20500 0048 00000000 		.4byte	.LFB161
 20501 004c 3C000000 		.4byte	.LFE161-.LFB161
 20502 0050 00000000 		.4byte	.LFB169
 20503 0054 2C000000 		.4byte	.LFE169-.LFB169
 20504 0058 00000000 		.4byte	.LFB170
 20505 005c 2C000000 		.4byte	.LFE170-.LFB170
 20506 0060 00000000 		.4byte	.LFB172
 20507 0064 38000000 		.4byte	.LFE172-.LFB172
 20508 0068 00000000 		.4byte	.LFB259
 20509 006c 44000000 		.4byte	.LFE259-.LFB259
 20510 0070 00000000 		.4byte	.LFB261
 20511 0074 54000000 		.4byte	.LFE261-.LFB261
 20512 0078 00000000 		.4byte	.LFB262
 20513 007c 48000000 		.4byte	.LFE262-.LFB262
 20514 0080 00000000 		.4byte	.LFB263
 20515 0084 C4000000 		.4byte	.LFE263-.LFB263
 20516 0088 00000000 		.4byte	.LFB264
 20517 008c 44000000 		.4byte	.LFE264-.LFB264
 20518 0090 00000000 		.4byte	.LFB265
 20519 0094 E8000000 		.4byte	.LFE265-.LFB265
 20520 0098 00000000 		.4byte	.LFB266
 20521 009c 94000000 		.4byte	.LFE266-.LFB266
 20522 00a0 00000000 		.4byte	.LFB267
 20523 00a4 88000000 		.4byte	.LFE267-.LFB267
 20524 00a8 00000000 		.4byte	.LFB268
 20525 00ac B0000000 		.4byte	.LFE268-.LFB268
 20526 00b0 00000000 		.4byte	.LFB269
 20527 00b4 2C010000 		.4byte	.LFE269-.LFB269
 20528 00b8 00000000 		.4byte	.LFB270
ARM GAS  C:\Users\PCHAUT~1\AppData\Local\Temp\ccLw8kky.s 			page 374


 20529 00bc 48000000 		.4byte	.LFE270-.LFB270
 20530 00c0 00000000 		.4byte	.LFB271
 20531 00c4 30000000 		.4byte	.LFE271-.LFB271
 20532 00c8 00000000 		.4byte	.LFB272
 20533 00cc 50000000 		.4byte	.LFE272-.LFB272
 20534 00d0 00000000 		.4byte	.LFB273
 20535 00d4 0C010000 		.4byte	.LFE273-.LFB273
 20536 00d8 00000000 		.4byte	.LFB274
 20537 00dc 30000000 		.4byte	.LFE274-.LFB274
 20538 00e0 00000000 		.4byte	.LFB275
 20539 00e4 7C000000 		.4byte	.LFE275-.LFB275
 20540 00e8 00000000 		.4byte	.LFB276
 20541 00ec 98000000 		.4byte	.LFE276-.LFB276
 20542 00f0 00000000 		.4byte	.LFB277
 20543 00f4 74000000 		.4byte	.LFE277-.LFB277
 20544 00f8 00000000 		.4byte	.LFB278
 20545 00fc 50000000 		.4byte	.LFE278-.LFB278
 20546 0100 00000000 		.4byte	.LFB279
 20547 0104 58010000 		.4byte	.LFE279-.LFB279
 20548 0108 00000000 		.4byte	.LFB280
 20549 010c 40010000 		.4byte	.LFE280-.LFB280
 20550 0110 00000000 		.4byte	.LFB281
 20551 0114 48000000 		.4byte	.LFE281-.LFB281
 20552 0118 00000000 		.4byte	.LFB282
 20553 011c 7C010000 		.4byte	.LFE282-.LFB282
 20554 0120 00000000 		.4byte	.LFB283
 20555 0124 64000000 		.4byte	.LFE283-.LFB283
 20556 0128 00000000 		.4byte	.LFB284
 20557 012c 3C010000 		.4byte	.LFE284-.LFB284
 20558 0130 00000000 		.4byte	.LFB285
 20559 0134 34000000 		.4byte	.LFE285-.LFB285
 20560 0138 00000000 		.4byte	.LFB286
 20561 013c 78000000 		.4byte	.LFE286-.LFB286
 20562 0140 00000000 		.4byte	.LFB287
 20563 0144 64000000 		.4byte	.LFE287-.LFB287
 20564 0148 00000000 		.4byte	.LFB288
 20565 014c 88000000 		.4byte	.LFE288-.LFB288
 20566 0150 00000000 		.4byte	.LFB289
 20567 0154 88000000 		.4byte	.LFE289-.LFB289
 20568 0158 00000000 		.4byte	.LFB290
 20569 015c 44010000 		.4byte	.LFE290-.LFB290
 20570 0160 00000000 		.4byte	.LFB291
 20571 0164 08010000 		.4byte	.LFE291-.LFB291
 20572 0168 00000000 		.4byte	.LFB292
 20573 016c A0000000 		.4byte	.LFE292-.LFB292
 20574 0170 00000000 		.4byte	.LFB293
 20575 0174 B4000000 		.4byte	.LFE293-.LFB293
 20576 0178 00000000 		.4byte	.LFB294
 20577 017c 88000000 		.4byte	.LFE294-.LFB294
 20578 0180 00000000 		.4byte	.LFB295
 20579 0184 88000000 		.4byte	.LFE295-.LFB295
 20580 0188 00000000 		.4byte	.LFB296
 20581 018c A0000000 		.4byte	.LFE296-.LFB296
 20582 0190 00000000 		.4byte	.LFB297
 20583 0194 94000000 		.4byte	.LFE297-.LFB297
 20584 0198 00000000 		.4byte	.LFB298
 20585 019c 3C000000 		.4byte	.LFE298-.LFB298
ARM GAS  C:\Users\PCHAUT~1\AppData\Local\Temp\ccLw8kky.s 			page 375


 20586 01a0 00000000 		.4byte	.LFB299
 20587 01a4 30000000 		.4byte	.LFE299-.LFB299
 20588 01a8 00000000 		.4byte	.LFB300
 20589 01ac D0000000 		.4byte	.LFE300-.LFB300
 20590 01b0 00000000 		.4byte	.LFB301
 20591 01b4 AC000000 		.4byte	.LFE301-.LFB301
 20592 01b8 00000000 		.4byte	.LFB302
 20593 01bc A0000000 		.4byte	.LFE302-.LFB302
 20594 01c0 00000000 		.4byte	.LFB303
 20595 01c4 40000000 		.4byte	.LFE303-.LFB303
 20596 01c8 00000000 		.4byte	.LFB304
 20597 01cc 58000000 		.4byte	.LFE304-.LFB304
 20598 01d0 00000000 		.4byte	.LFB305
 20599 01d4 30000000 		.4byte	.LFE305-.LFB305
 20600 01d8 00000000 		.4byte	.LFB306
 20601 01dc 68000000 		.4byte	.LFE306-.LFB306
 20602 01e0 00000000 		.4byte	.LFB307
 20603 01e4 98000000 		.4byte	.LFE307-.LFB307
 20604 01e8 00000000 		.4byte	.LFB308
 20605 01ec 04060000 		.4byte	.LFE308-.LFB308
 20606 01f0 00000000 		.4byte	.LFB309
 20607 01f4 64000000 		.4byte	.LFE309-.LFB309
 20608 01f8 00000000 		.4byte	.LFB310
 20609 01fc 40000000 		.4byte	.LFE310-.LFB310
 20610 0200 00000000 		.4byte	0
 20611 0204 00000000 		.4byte	0
 20612              		.section	.debug_ranges,"",%progbits
 20613              	.Ldebug_ranges0:
 20614 0000 00000000 		.4byte	.LFB119
 20615 0004 30000000 		.4byte	.LFE119
 20616 0008 00000000 		.4byte	.LFB120
 20617 000c 30000000 		.4byte	.LFE120
 20618 0010 00000000 		.4byte	.LFB148
 20619 0014 30000000 		.4byte	.LFE148
 20620 0018 00000000 		.4byte	.LFB149
 20621 001c 58000000 		.4byte	.LFE149
 20622 0020 00000000 		.4byte	.LFB156
 20623 0024 2C000000 		.4byte	.LFE156
 20624 0028 00000000 		.4byte	.LFB157
 20625 002c 34000000 		.4byte	.LFE157
 20626 0030 00000000 		.4byte	.LFB159
 20627 0034 40000000 		.4byte	.LFE159
 20628 0038 00000000 		.4byte	.LFB161
 20629 003c 3C000000 		.4byte	.LFE161
 20630 0040 00000000 		.4byte	.LFB169
 20631 0044 2C000000 		.4byte	.LFE169
 20632 0048 00000000 		.4byte	.LFB170
 20633 004c 2C000000 		.4byte	.LFE170
 20634 0050 00000000 		.4byte	.LFB172
 20635 0054 38000000 		.4byte	.LFE172
 20636 0058 00000000 		.4byte	.LFB259
 20637 005c 44000000 		.4byte	.LFE259
 20638 0060 00000000 		.4byte	.LFB261
 20639 0064 54000000 		.4byte	.LFE261
 20640 0068 00000000 		.4byte	.LFB262
 20641 006c 48000000 		.4byte	.LFE262
 20642 0070 00000000 		.4byte	.LFB263
ARM GAS  C:\Users\PCHAUT~1\AppData\Local\Temp\ccLw8kky.s 			page 376


 20643 0074 C4000000 		.4byte	.LFE263
 20644 0078 00000000 		.4byte	.LFB264
 20645 007c 44000000 		.4byte	.LFE264
 20646 0080 00000000 		.4byte	.LFB265
 20647 0084 E8000000 		.4byte	.LFE265
 20648 0088 00000000 		.4byte	.LFB266
 20649 008c 94000000 		.4byte	.LFE266
 20650 0090 00000000 		.4byte	.LFB267
 20651 0094 88000000 		.4byte	.LFE267
 20652 0098 00000000 		.4byte	.LFB268
 20653 009c B0000000 		.4byte	.LFE268
 20654 00a0 00000000 		.4byte	.LFB269
 20655 00a4 2C010000 		.4byte	.LFE269
 20656 00a8 00000000 		.4byte	.LFB270
 20657 00ac 48000000 		.4byte	.LFE270
 20658 00b0 00000000 		.4byte	.LFB271
 20659 00b4 30000000 		.4byte	.LFE271
 20660 00b8 00000000 		.4byte	.LFB272
 20661 00bc 50000000 		.4byte	.LFE272
 20662 00c0 00000000 		.4byte	.LFB273
 20663 00c4 0C010000 		.4byte	.LFE273
 20664 00c8 00000000 		.4byte	.LFB274
 20665 00cc 30000000 		.4byte	.LFE274
 20666 00d0 00000000 		.4byte	.LFB275
 20667 00d4 7C000000 		.4byte	.LFE275
 20668 00d8 00000000 		.4byte	.LFB276
 20669 00dc 98000000 		.4byte	.LFE276
 20670 00e0 00000000 		.4byte	.LFB277
 20671 00e4 74000000 		.4byte	.LFE277
 20672 00e8 00000000 		.4byte	.LFB278
 20673 00ec 50000000 		.4byte	.LFE278
 20674 00f0 00000000 		.4byte	.LFB279
 20675 00f4 58010000 		.4byte	.LFE279
 20676 00f8 00000000 		.4byte	.LFB280
 20677 00fc 40010000 		.4byte	.LFE280
 20678 0100 00000000 		.4byte	.LFB281
 20679 0104 48000000 		.4byte	.LFE281
 20680 0108 00000000 		.4byte	.LFB282
 20681 010c 7C010000 		.4byte	.LFE282
 20682 0110 00000000 		.4byte	.LFB283
 20683 0114 64000000 		.4byte	.LFE283
 20684 0118 00000000 		.4byte	.LFB284
 20685 011c 3C010000 		.4byte	.LFE284
 20686 0120 00000000 		.4byte	.LFB285
 20687 0124 34000000 		.4byte	.LFE285
 20688 0128 00000000 		.4byte	.LFB286
 20689 012c 78000000 		.4byte	.LFE286
 20690 0130 00000000 		.4byte	.LFB287
 20691 0134 64000000 		.4byte	.LFE287
 20692 0138 00000000 		.4byte	.LFB288
 20693 013c 88000000 		.4byte	.LFE288
 20694 0140 00000000 		.4byte	.LFB289
 20695 0144 88000000 		.4byte	.LFE289
 20696 0148 00000000 		.4byte	.LFB290
 20697 014c 44010000 		.4byte	.LFE290
 20698 0150 00000000 		.4byte	.LFB291
 20699 0154 08010000 		.4byte	.LFE291
ARM GAS  C:\Users\PCHAUT~1\AppData\Local\Temp\ccLw8kky.s 			page 377


 20700 0158 00000000 		.4byte	.LFB292
 20701 015c A0000000 		.4byte	.LFE292
 20702 0160 00000000 		.4byte	.LFB293
 20703 0164 B4000000 		.4byte	.LFE293
 20704 0168 00000000 		.4byte	.LFB294
 20705 016c 88000000 		.4byte	.LFE294
 20706 0170 00000000 		.4byte	.LFB295
 20707 0174 88000000 		.4byte	.LFE295
 20708 0178 00000000 		.4byte	.LFB296
 20709 017c A0000000 		.4byte	.LFE296
 20710 0180 00000000 		.4byte	.LFB297
 20711 0184 94000000 		.4byte	.LFE297
 20712 0188 00000000 		.4byte	.LFB298
 20713 018c 3C000000 		.4byte	.LFE298
 20714 0190 00000000 		.4byte	.LFB299
 20715 0194 30000000 		.4byte	.LFE299
 20716 0198 00000000 		.4byte	.LFB300
 20717 019c D0000000 		.4byte	.LFE300
 20718 01a0 00000000 		.4byte	.LFB301
 20719 01a4 AC000000 		.4byte	.LFE301
 20720 01a8 00000000 		.4byte	.LFB302
 20721 01ac A0000000 		.4byte	.LFE302
 20722 01b0 00000000 		.4byte	.LFB303
 20723 01b4 40000000 		.4byte	.LFE303
 20724 01b8 00000000 		.4byte	.LFB304
 20725 01bc 58000000 		.4byte	.LFE304
 20726 01c0 00000000 		.4byte	.LFB305
 20727 01c4 30000000 		.4byte	.LFE305
 20728 01c8 00000000 		.4byte	.LFB306
 20729 01cc 68000000 		.4byte	.LFE306
 20730 01d0 00000000 		.4byte	.LFB307
 20731 01d4 98000000 		.4byte	.LFE307
 20732 01d8 00000000 		.4byte	.LFB308
 20733 01dc 04060000 		.4byte	.LFE308
 20734 01e0 00000000 		.4byte	.LFB309
 20735 01e4 64000000 		.4byte	.LFE309
 20736 01e8 00000000 		.4byte	.LFB310
 20737 01ec 40000000 		.4byte	.LFE310
 20738 01f0 00000000 		.4byte	0
 20739 01f4 00000000 		.4byte	0
 20740              		.section	.debug_line,"",%progbits
 20741              	.Ldebug_line0:
 20742 0000 6C140000 		.section	.debug_str,"MS",%progbits,1
 20742      02002D0C 
 20742      00000201 
 20742      FB0E0D00 
 20742      01010101 
 20743              	.LASF704:
 20744 0000 5553425F 		.ascii	"USB_STOP\000"
 20744      53544F50 
 20744      00
 20745              	.LASF317:
 20746 0009 706F7274 		.ascii	"port_intctx\000"
 20746      5F696E74 
 20746      63747800 
 20747              	.LASF326:
 20748 0015 63685F74 		.ascii	"ch_trace_buffer_t\000"
ARM GAS  C:\Users\PCHAUT~1\AppData\Local\Temp\ccLw8kky.s 			page 378


 20748      72616365 
 20748      5F627566 
 20748      6665725F 
 20748      7400
 20749              	.LASF358:
 20750 0027 63685F70 		.ascii	"ch_ptrsize\000"
 20750      74727369 
 20750      7A6500
 20751              	.LASF970:
 20752 0032 6D657373 		.ascii	"messagebus_watcher_s\000"
 20752      61676562 
 20752      75735F77 
 20752      61746368 
 20752      65725F73 
 20753              	.LASF1111:
 20754 0047 636D645F 		.ascii	"cmd_melody_play\000"
 20754      6D656C6F 
 20754      64795F70 
 20754      6C617900 
 20755              	.LASF1120:
 20756 0057 636D645F 		.ascii	"cmd_getlabel\000"
 20756      6765746C 
 20756      6162656C 
 20756      00
 20757              	.LASF642:
 20758 0064 6576656E 		.ascii	"event\000"
 20758      7400
 20759              	.LASF1057:
 20760 006a 64617461 		.ascii	"data_len\000"
 20760      5F6C656E 
 20760      00
 20761              	.LASF493:
 20762 0073 43414E5F 		.ascii	"CAN_STARTING\000"
 20762      53544152 
 20762      54494E47 
 20762      00
 20763              	.LASF1055:
 20764 0080 636D645F 		.ascii	"cmd_mic_data\000"
 20764      6D69635F 
 20764      64617461 
 20764      00
 20765              	.LASF924:
 20766 008d 44434D49 		.ascii	"DCMI_ACTIVE_ONESHOT\000"
 20766      5F414354 
 20766      4956455F 
 20766      4F4E4553 
 20766      484F5400 
 20767              	.LASF154:
 20768 00a1 6D73675F 		.ascii	"msg_t\000"
 20768      7400
 20769              	.LASF438:
 20770 00a7 61667268 		.ascii	"afrh\000"
 20770      00
 20771              	.LASF585:
 20772 00ac 4F504D4F 		.ascii	"OPMODE_SMBUS_DEVICE\000"
 20772      44455F53 
 20772      4D425553 
ARM GAS  C:\Users\PCHAUT~1\AppData\Local\Temp\ccLw8kky.s 			page 379


 20772      5F444556 
 20772      49434500 
 20773              	.LASF337:
 20774 00c0 6D5F6372 		.ascii	"m_crit_isr\000"
 20774      69745F69 
 20774      737200
 20775              	.LASF1095:
 20776 00cb 76616C75 		.ascii	"value_i\000"
 20776      655F6900 
 20777              	.LASF1147:
 20778 00d3 433A5C55 		.ascii	"C:\\Users\\Pchautems\\Documents\\RobotiqueTP\\Proje"
 20778      73657273 
 20778      5C506368 
 20778      61757465 
 20778      6D735C44 
 20779 0101 745C6D69 		.ascii	"t\\miniprojet\000"
 20779      6E697072 
 20779      6F6A6574 
 20779      00
 20780              	.LASF1026:
 20781 010e 46525F54 		.ascii	"FR_TOO_MANY_OPEN_FILES\000"
 20781      4F4F5F4D 
 20781      414E595F 
 20781      4F50454E 
 20781      5F46494C 
 20782              	.LASF991:
 20783 0125 66726565 		.ascii	"free_clust\000"
 20783      5F636C75 
 20783      737400
 20784              	.LASF656:
 20785 0130 73646366 		.ascii	"sdcflags_t\000"
 20785      6C616773 
 20785      5F7400
 20786              	.LASF957:
 20787 013b 76656374 		.ascii	"vect\000"
 20787      00
 20788              	.LASF763:
 20789 0140 44494550 		.ascii	"DIEPTXF0\000"
 20789      54584630 
 20789      00
 20790              	.LASF133:
 20791 0149 5F5F6664 		.ascii	"__fdlibm_xopen\000"
 20791      6C69626D 
 20791      5F786F70 
 20791      656E00
 20792              	.LASF492:
 20793 0158 43414E5F 		.ascii	"CAN_STOP\000"
 20793      53544F50 
 20793      00
 20794              	.LASF1001:
 20795 0161 66707472 		.ascii	"fptr\000"
 20795      00
 20796              	.LASF371:
 20797 0166 63665F6F 		.ascii	"cf_off_time\000"
 20797      66665F74 
 20797      696D6500 
 20798              	.LASF213:
ARM GAS  C:\Users\PCHAUT~1\AppData\Local\Temp\ccLw8kky.s 			page 380


 20799 0172 63685F73 		.ascii	"ch_system_t\000"
 20799      79737465 
 20799      6D5F7400 
 20800              	.LASF6:
 20801 017e 5F5F7569 		.ascii	"__uint8_t\000"
 20801      6E74385F 
 20801      7400
 20802              	.LASF343:
 20803 0188 77747365 		.ascii	"wtsemp\000"
 20803      6D7000
 20804              	.LASF1032:
 20805 018f 4D4C5F53 		.ascii	"ML_SIMPLE_PLAY\000"
 20805      494D504C 
 20805      455F504C 
 20805      415900
 20806              	.LASF422:
 20807 019e 5F426F6F 		.ascii	"_Bool\000"
 20807      6C00
 20808              	.LASF534:
 20809 01a4 64617461 		.ascii	"datamode\000"
 20809      6D6F6465 
 20809      00
 20810              	.LASF601:
 20811 01ad 646D6172 		.ascii	"dmarx\000"
 20811      7800
 20812              	.LASF909:
 20813 01b3 464F524D 		.ascii	"FORMAT_RGB444_BYTE_SWAP\000"
 20813      41545F52 
 20813      47423434 
 20813      345F4259 
 20813      54455F53 
 20814              	.LASF71:
 20815 01cb 5F6D6273 		.ascii	"_mbstate\000"
 20815      74617465 
 20815      00
 20816              	.LASF1022:
 20817 01d4 46525F4D 		.ascii	"FR_MKFS_ABORTED\000"
 20817      4B46535F 
 20817      41424F52 
 20817      54454400 
 20818              	.LASF50:
 20819 01e4 5F617465 		.ascii	"_atexit\000"
 20819      78697400 
 20820              	.LASF941:
 20821 01ec 6368616E 		.ascii	"changed_cnt\000"
 20821      6765645F 
 20821      636E7400 
 20822              	.LASF867:
 20823 01f8 7375626F 		.ascii	"suboptarg\000"
 20823      70746172 
 20823      6700
 20824              	.LASF482:
 20825 0202 73717231 		.ascii	"sqr1\000"
 20825      00
 20826              	.LASF968:
 20827 0207 7075626C 		.ascii	"published\000"
 20827      69736865 
ARM GAS  C:\Users\PCHAUT~1\AppData\Local\Temp\ccLw8kky.s 			page 381


 20827      6400
 20828              	.LASF409:
 20829 0211 424C4B5F 		.ascii	"BLK_UNINIT\000"
 20829      554E494E 
 20829      495400
 20830              	.LASF613:
 20831 021c 72785F62 		.ascii	"rx_buffer\000"
 20831      75666665 
 20831      7200
 20832              	.LASF597:
 20833 0226 6572726F 		.ascii	"errors\000"
 20833      727300
 20834              	.LASF330:
 20835 022d 776F7273 		.ascii	"worst\000"
 20835      7400
 20836              	.LASF206:
 20837 0233 76745F73 		.ascii	"vt_systime\000"
 20837      79737469 
 20837      6D6500
 20838              	.LASF272:
 20839 023e 444F5231 		.ascii	"DOR1\000"
 20839      00
 20840              	.LASF273:
 20841 0243 444F5232 		.ascii	"DOR2\000"
 20841      00
 20842              	.LASF612:
 20843 0248 74785F62 		.ascii	"tx_buffer\000"
 20843      75666665 
 20843      7200
 20844              	.LASF996:
 20845 0252 64697262 		.ascii	"dirbase\000"
 20845      61736500 
 20846              	.LASF40:
 20847 025a 5F5F746D 		.ascii	"__tm_mon\000"
 20847      5F6D6F6E 
 20847      00
 20848              	.LASF48:
 20849 0263 5F666E74 		.ascii	"_fntypes\000"
 20849      79706573 
 20849      00
 20850              	.LASF352:
 20851 026c 6D5F6E65 		.ascii	"m_next\000"
 20851      787400
 20852              	.LASF442:
 20853 0273 50434461 		.ascii	"PCData\000"
 20853      746100
 20854              	.LASF1127:
 20855 027a 636C7573 		.ascii	"clusters\000"
 20855      74657273 
 20855      00
 20856              	.LASF1105:
 20857 0283 636D645F 		.ascii	"cmd_readclock\000"
 20857      72656164 
 20857      636C6F63 
 20857      6B00
 20858              	.LASF78:
 20859 0291 5F696E63 		.ascii	"_inc\000"
ARM GAS  C:\Users\PCHAUT~1\AppData\Local\Temp\ccLw8kky.s 			page 382


 20859      00
 20860              	.LASF51:
 20861 0296 5F696E64 		.ascii	"_ind\000"
 20861      00
 20862              	.LASF302:
 20863 029b 4D41534B 		.ascii	"MASK\000"
 20863      00
 20864              	.LASF467:
 20865 02a0 73616D70 		.ascii	"samples\000"
 20865      6C657300 
 20866              	.LASF767:
 20867 02a8 47434346 		.ascii	"GCCFG\000"
 20867      4700
 20868              	.LASF860:
 20869 02ae 73635F63 		.ascii	"sc_channel\000"
 20869      68616E6E 
 20869      656C00
 20870              	.LASF563:
 20871 02b9 42445452 		.ascii	"BDTR\000"
 20871      00
 20872              	.LASF516:
 20873 02be 7265676D 		.ascii	"regmask\000"
 20873      61736B00 
 20874              	.LASF595:
 20875 02c6 49324343 		.ascii	"I2CConfig\000"
 20875      6F6E6669 
 20875      6700
 20876              	.LASF143:
 20877 02d0 75696E74 		.ascii	"uint16_t\000"
 20877      31365F74 
 20877      00
 20878              	.LASF602:
 20879 02d9 646D6174 		.ascii	"dmatx\000"
 20879      7800
 20880              	.LASF837:
 20881 02df 736F665F 		.ascii	"sof_cb\000"
 20881      636200
 20882              	.LASF1004:
 20883 02e6 64736563 		.ascii	"dsect\000"
 20883      7400
 20884              	.LASF539:
 20885 02ec 4558545F 		.ascii	"EXT_ACTIVE\000"
 20885      41435449 
 20885      564500
 20886              	.LASF57:
 20887 02f7 5F666C61 		.ascii	"_flags\000"
 20887      677300
 20888              	.LASF944:
 20889 02fe 6E657874 		.ascii	"next\000"
 20889      00
 20890              	.LASF435:
 20891 0303 6F737065 		.ascii	"ospeedr\000"
 20891      65647200 
 20892              	.LASF770:
 20893 030b 44494550 		.ascii	"DIEPTXF\000"
 20893      54584600 
 20894              	.LASF377:
ARM GAS  C:\Users\PCHAUT~1\AppData\Local\Temp\ccLw8kky.s 			page 383


 20895 0313 656C5F6E 		.ascii	"el_next\000"
 20895      65787400 
 20896              	.LASF462:
 20897 031b 4144435F 		.ascii	"ADC_ERR_OVERFLOW\000"
 20897      4552525F 
 20897      4F564552 
 20897      464C4F57 
 20897      00
 20898              	.LASF844:
 20899 032c 53657269 		.ascii	"SerialUSBDriver\000"
 20899      616C5553 
 20899      42447269 
 20899      76657200 
 20900              	.LASF88:
 20901 033c 5F637674 		.ascii	"_cvtlen\000"
 20901      6C656E00 
 20902              	.LASF1027:
 20903 0344 46525F49 		.ascii	"FR_INVALID_PARAMETER\000"
 20903      4E56414C 
 20903      49445F50 
 20903      4152414D 
 20903      45544552 
 20904              	.LASF211:
 20905 0359 6C6F636B 		.ascii	"lock_cnt\000"
 20905      5F636E74 
 20905      00
 20906              	.LASF187:
 20907 0362 63685F74 		.ascii	"ch_threads_queue\000"
 20907      68726561 
 20907      64735F71 
 20907      75657565 
 20907      00
 20908              	.LASF132:
 20909 0373 5F5F6664 		.ascii	"__fdlibm_svid\000"
 20909      6C69626D 
 20909      5F737669 
 20909      6400
 20910              	.LASF92:
 20911 0381 5F736967 		.ascii	"_sig_func\000"
 20911      5F66756E 
 20911      6300
 20912              	.LASF896:
 20913 038b 464F524D 		.ascii	"FORMAT_CBYCRY\000"
 20913      41545F43 
 20913      42594352 
 20913      5900
 20914              	.LASF166:
 20915 0399 705F6E65 		.ascii	"p_newer\000"
 20915      77657200 
 20916              	.LASF780:
 20917 03a1 48505254 		.ascii	"HPRT\000"
 20917      00
 20918              	.LASF913:
 20919 03a6 53554253 		.ascii	"SUBSAMPLING_X1\000"
 20919      414D504C 
 20919      494E475F 
 20919      583100
ARM GAS  C:\Users\PCHAUT~1\AppData\Local\Temp\ccLw8kky.s 			page 384


 20920              	.LASF734:
 20921 03b5 4843494E 		.ascii	"HCINT\000"
 20921      5400
 20922              	.LASF1043:
 20923 03bb 66627566 		.ascii	"fbuff\000"
 20923      6600
 20924              	.LASF980:
 20925 03c1 42595445 		.ascii	"BYTE\000"
 20925      00
 20926              	.LASF222:
 20927 03c6 534D5052 		.ascii	"SMPR1\000"
 20927      3100
 20928              	.LASF223:
 20929 03cc 534D5052 		.ascii	"SMPR2\000"
 20929      3200
 20930              	.LASF368:
 20931 03d2 63665F6F 		.ascii	"cf_off_flags\000"
 20931      66665F66 
 20931      6C616773 
 20931      00
 20932              	.LASF70:
 20933 03df 5F6C6F63 		.ascii	"_lock\000"
 20933      6B00
 20934              	.LASF66:
 20935 03e5 5F6E6275 		.ascii	"_nbuf\000"
 20935      6600
 20936              	.LASF673:
 20937 03eb 5350495F 		.ascii	"SPI_STOP\000"
 20937      53544F50 
 20937      00
 20938              	.LASF401:
 20939 03f4 42617365 		.ascii	"BaseSequentialStream\000"
 20939      53657175 
 20939      656E7469 
 20939      616C5374 
 20939      7265616D 
 20940              	.LASF124:
 20941 0409 5F756E75 		.ascii	"_unused\000"
 20941      73656400 
 20942              	.LASF441:
 20943 0411 50424461 		.ascii	"PBData\000"
 20943      746100
 20944              	.LASF356:
 20945 0418 63685F73 		.ascii	"ch_size\000"
 20945      697A6500 
 20946              	.LASF921:
 20947 0420 44434D49 		.ascii	"DCMI_STOP\000"
 20947      5F53544F 
 20947      5000
 20948              	.LASF776:
 20949 042a 48505458 		.ascii	"HPTXSTS\000"
 20949      53545300 
 20950              	.LASF434:
 20951 0432 6F747970 		.ascii	"otyper\000"
 20951      657200
 20952              	.LASF425:
 20953 0439 4F545950 		.ascii	"OTYPER\000"
ARM GAS  C:\Users\PCHAUT~1\AppData\Local\Temp\ccLw8kky.s 			page 385


 20953      455200
 20954              	.LASF518:
 20955 0440 64616370 		.ascii	"dacparams_t\000"
 20955      6172616D 
 20955      735F7400 
 20956              	.LASF1068:
 20957 044c 6C65645F 		.ascii	"led_num\000"
 20957      6E756D00 
 20958              	.LASF651:
 20959 0454 5344435F 		.ascii	"SDC_MODE_1BIT\000"
 20959      4D4F4445 
 20959      5F314249 
 20959      5400
 20960              	.LASF732:
 20961 0462 48434348 		.ascii	"HCCHAR\000"
 20961      415200
 20962              	.LASF579:
 20963 0469 4932435F 		.ascii	"I2C_ACTIVE_RX\000"
 20963      41435449 
 20963      56455F52 
 20963      5800
 20964              	.LASF160:
 20965 0477 74687265 		.ascii	"thread_t\000"
 20965      61645F74 
 20965      00
 20966              	.LASF379:
 20967 0480 656C5F65 		.ascii	"el_events\000"
 20967      76656E74 
 20967      7300
 20968              	.LASF622:
 20969 048a 70776D73 		.ascii	"pwmstate_t\000"
 20969      74617465 
 20969      5F7400
 20970              	.LASF503:
 20971 0495 736C6565 		.ascii	"sleep_event\000"
 20971      705F6576 
 20971      656E7400 
 20972              	.LASF205:
 20973 04a1 63685F76 		.ascii	"ch_virtual_timers_list\000"
 20973      69727475 
 20973      616C5F74 
 20973      696D6572 
 20973      735F6C69 
 20974              	.LASF406:
 20975 04b8 76656374 		.ascii	"vector\000"
 20975      6F7200
 20976              	.LASF758:
 20977 04bf 47494E54 		.ascii	"GINTSTS\000"
 20977      53545300 
 20978              	.LASF1041:
 20979 04c7 636D645F 		.ascii	"cmd_width\000"
 20979      77696474 
 20979      6800
 20980              	.LASF144:
 20981 04d1 696E7433 		.ascii	"int32_t\000"
 20981      325F7400 
 20982              	.LASF593:
ARM GAS  C:\Users\PCHAUT~1\AppData\Local\Temp\ccLw8kky.s 			page 386


 20983 04d9 636C6F63 		.ascii	"clock_speed\000"
 20983      6B5F7370 
 20983      65656400 
 20984              	.LASF159:
 20985 04e5 73797374 		.ascii	"systime_t\000"
 20985      696D655F 
 20985      7400
 20986              	.LASF536:
 20987 04ef 44414344 		.ascii	"DACD2\000"
 20987      3200
 20988              	.LASF505:
 20989 04f5 43414E44 		.ascii	"CANDriver\000"
 20989      72697665 
 20989      7200
 20990              	.LASF102:
 20991 04ff 5F616464 		.ascii	"_add\000"
 20991      00
 20992              	.LASF283:
 20993 0504 4D304152 		.ascii	"M0AR\000"
 20993      00
 20994              	.LASF739:
 20995 0509 72657376 		.ascii	"resvd1c\000"
 20995      64316300 
 20996              	.LASF983:
 20997 0511 44574F52 		.ascii	"DWORD\000"
 20997      4400
 20998              	.LASF583:
 20999 0517 69326366 		.ascii	"i2cflags_t\000"
 20999      6C616773 
 20999      5F7400
 21000              	.LASF777:
 21001 0522 4841494E 		.ascii	"HAINT\000"
 21001      5400
 21002              	.LASF258:
 21003 0528 46413152 		.ascii	"FA1R\000"
 21003      00
 21004              	.LASF1101:
 21005 052d 636D645F 		.ascii	"cmd_atan2\000"
 21005      6174616E 
 21005      3200
 21006              	.LASF281:
 21007 0537 44434D49 		.ascii	"DCMI_TypeDef\000"
 21007      5F547970 
 21007      65446566 
 21007      00
 21008              	.LASF929:
 21009 0544 44434D49 		.ascii	"DCMIDriver\000"
 21009      44726976 
 21009      657200
 21010              	.LASF1031:
 21011 054f 53465F46 		.ascii	"SF_FORCE_CHANGE\000"
 21011      4F524345 
 21011      5F434841 
 21011      4E474500 
 21012              	.LASF774:
 21013 055f 48464E55 		.ascii	"HFNUM\000"
 21013      4D00
ARM GAS  C:\Users\PCHAUT~1\AppData\Local\Temp\ccLw8kky.s 			page 387


 21014              	.LASF1123:
 21015 0565 636D645F 		.ascii	"cmd_hello\000"
 21015      68656C6C 
 21015      6F00
 21016              	.LASF942:
 21017 056f 70617265 		.ascii	"parent\000"
 21017      6E7400
 21018              	.LASF395:
 21019 0576 716E6F74 		.ascii	"qnotify_t\000"
 21019      6966795F 
 21019      7400
 21020              	.LASF458:
 21021 0580 61646373 		.ascii	"adcstate_t\000"
 21021      74617465 
 21021      5F7400
 21022              	.LASF977:
 21023 058b 7075626C 		.ascii	"published_topic\000"
 21023      69736865 
 21023      645F746F 
 21023      70696300 
 21024              	.LASF936:
 21025 059b 44434D49 		.ascii	"DCMID\000"
 21025      4400
 21026              	.LASF659:
 21027 05a1 63617264 		.ascii	"cardmode\000"
 21027      6D6F6465 
 21027      00
 21028              	.LASF404:
 21029 05aa 69736869 		.ascii	"ishift\000"
 21029      667400
 21030              	.LASF1069:
 21031 05b1 6C65645F 		.ascii	"led_value\000"
 21031      76616C75 
 21031      6500
 21032              	.LASF553:
 21033 05bb 4750545F 		.ascii	"GPT_ONESHOT\000"
 21033      4F4E4553 
 21033      484F5400 
 21034              	.LASF390:
 21035 05c7 715F746F 		.ascii	"q_top\000"
 21035      7000
 21036              	.LASF59:
 21037 05cd 5F6C6266 		.ascii	"_lbfsize\000"
 21037      73697A65 
 21037      00
 21038              	.LASF725:
 21039 05d6 75645F73 		.ascii	"ud_string\000"
 21039      7472696E 
 21039      6700
 21040              	.LASF596:
 21041 05e0 49324344 		.ascii	"I2CDriver\000"
 21041      72697665 
 21041      7200
 21042              	.LASF965:
 21043 05ea 62756666 		.ascii	"buffer_len\000"
 21043      65725F6C 
 21043      656E00
ARM GAS  C:\Users\PCHAUT~1\AppData\Local\Temp\ccLw8kky.s 			page 388


 21044              	.LASF578:
 21045 05f5 4932435F 		.ascii	"I2C_ACTIVE_TX\000"
 21045      41435449 
 21045      56455F54 
 21045      5800
 21046              	.LASF1094:
 21047 0603 70617261 		.ascii	"param\000"
 21047      6D00
 21048              	.LASF400:
 21049 0609 72656164 		.ascii	"read\000"
 21049      00
 21050              	.LASF584:
 21051 060e 4F504D4F 		.ascii	"OPMODE_I2C\000"
 21051      44455F49 
 21051      324300
 21052              	.LASF786:
 21053 0619 72657376 		.ascii	"resvd80C\000"
 21053      64383043 
 21053      00
 21054              	.LASF834:
 21055 0622 6576656E 		.ascii	"event_cb\000"
 21055      745F6362 
 21055      00
 21056              	.LASF753:
 21057 062b 474F5447 		.ascii	"GOTGCTL\000"
 21057      43544C00 
 21058              	.LASF847:
 21059 0633 62756C6B 		.ascii	"bulk_out\000"
 21059      5F6F7574 
 21059      00
 21060              	.LASF728:
 21061 063c 75736265 		.ascii	"usbepcallback_t\000"
 21061      7063616C 
 21061      6C626163 
 21061      6B5F7400 
 21062              	.LASF69:
 21063 064c 5F646174 		.ascii	"_data\000"
 21063      6100
 21064              	.LASF216:
 21065 0652 76746C69 		.ascii	"vtlist\000"
 21065      737400
 21066              	.LASF1018:
 21067 0659 46525F57 		.ascii	"FR_WRITE_PROTECTED\000"
 21067      52495445 
 21067      5F50524F 
 21067      54454354 
 21067      454400
 21068              	.LASF288:
 21069 066c 54524953 		.ascii	"TRISE\000"
 21069      4500
 21070              	.LASF792:
 21071 0672 72657376 		.ascii	"resvd824\000"
 21071      64383234 
 21071      00
 21072              	.LASF175:
 21073 067b 705F7761 		.ascii	"p_waiting\000"
 21073      6974696E 
ARM GAS  C:\Users\PCHAUT~1\AppData\Local\Temp\ccLw8kky.s 			page 389


 21073      6700
 21074              	.LASF338:
 21075 0685 6B65726E 		.ascii	"kernel_stats_t\000"
 21075      656C5F73 
 21075      74617473 
 21075      5F7400
 21076              	.LASF387:
 21077 0694 715F7761 		.ascii	"q_waiting\000"
 21077      6974696E 
 21077      6700
 21078              	.LASF240:
 21079 069e 43414E5F 		.ascii	"CAN_TxMailBox_TypeDef\000"
 21079      54784D61 
 21079      696C426F 
 21079      785F5479 
 21079      70654465 
 21080              	.LASF215:
 21081 06b4 726C6973 		.ascii	"rlist\000"
 21081      7400
 21082              	.LASF184:
 21083 06ba 74687265 		.ascii	"threads_list_t\000"
 21083      6164735F 
 21083      6C697374 
 21083      5F7400
 21084              	.LASF328:
 21085 06c9 746D5F63 		.ascii	"tm_calibration_t\000"
 21085      616C6962 
 21085      72617469 
 21085      6F6E5F74 
 21085      00
 21086              	.LASF396:
 21087 06da 696E7075 		.ascii	"input_queue_t\000"
 21087      745F7175 
 21087      6575655F 
 21087      7400
 21088              	.LASF485:
 21089 06e8 41444343 		.ascii	"ADCConversionGroup\000"
 21089      6F6E7665 
 21089      7273696F 
 21089      6E47726F 
 21089      757000
 21090              	.LASF785:
 21091 06fb 44535453 		.ascii	"DSTS\000"
 21091      00
 21092              	.LASF125:
 21093 0700 5F5F6C6F 		.ascii	"__lock\000"
 21093      636B00
 21094              	.LASF588:
 21095 0707 5354445F 		.ascii	"STD_DUTY_CYCLE\000"
 21095      44555459 
 21095      5F435943 
 21095      4C4500
 21096              	.LASF73:
 21097 0716 5F726565 		.ascii	"_reent\000"
 21097      6E7400
 21098              	.LASF364:
 21099 071d 63665F6F 		.ascii	"cf_off_older\000"
ARM GAS  C:\Users\PCHAUT~1\AppData\Local\Temp\ccLw8kky.s 			page 390


 21099      66665F6F 
 21099      6C646572 
 21099      00
 21100              	.LASF148:
 21101 072a 72747469 		.ascii	"rttime_t\000"
 21101      6D655F74 
 21101      00
 21102              	.LASF548:
 21103 0733 45585444 		.ascii	"EXTD1\000"
 21103      3100
 21104              	.LASF819:
 21105 0739 72787175 		.ascii	"rxqueued\000"
 21105      65756564 
 21105      00
 21106              	.LASF496:
 21107 0742 63616E73 		.ascii	"canstate_t\000"
 21107      74617465 
 21107      5F7400
 21108              	.LASF260:
 21109 074d 7346696C 		.ascii	"sFilterRegister\000"
 21109      74657252 
 21109      65676973 
 21109      74657200 
 21110              	.LASF94:
 21111 075d 5F5F7366 		.ascii	"__sf\000"
 21111      00
 21112              	.LASF791:
 21113 0762 72657376 		.ascii	"resvd820\000"
 21113      64383230 
 21113      00
 21114              	.LASF888:
 21115 076b 41736562 		.ascii	"AsebaNativeDescription_mathmuldiv\000"
 21115      614E6174 
 21115      69766544 
 21115      65736372 
 21115      69707469 
 21116              	.LASF54:
 21117 078d 5F626173 		.ascii	"_base\000"
 21117      6500
 21118              	.LASF294:
 21119 0793 52455350 		.ascii	"RESP1\000"
 21119      3100
 21120              	.LASF295:
 21121 0799 52455350 		.ascii	"RESP2\000"
 21121      3200
 21122              	.LASF296:
 21123 079f 52455350 		.ascii	"RESP3\000"
 21123      3300
 21124              	.LASF297:
 21125 07a5 52455350 		.ascii	"RESP4\000"
 21125      3400
 21126              	.LASF111:
 21127 07ab 5F6D6274 		.ascii	"_mbtowc_state\000"
 21127      6F77635F 
 21127      73746174 
 21127      6500
 21128              	.LASF1078:
ARM GAS  C:\Users\PCHAUT~1\AppData\Local\Temp\ccLw8kky.s 			page 391


 21129 07b9 66726163 		.ascii	"fractional\000"
 21129      74696F6E 
 21129      616C00
 21130              	.LASF1112:
 21131 07c4 636D645F 		.ascii	"cmd_sound_file_volume\000"
 21131      736F756E 
 21131      645F6669 
 21131      6C655F76 
 21131      6F6C756D 
 21132              	.LASF1085:
 21133 07da 636D645F 		.ascii	"cmd_cam_set_contrast\000"
 21133      63616D5F 
 21133      7365745F 
 21133      636F6E74 
 21133      72617374 
 21134              	.LASF575:
 21135 07ef 4932435F 		.ascii	"I2C_UNINIT\000"
 21135      554E494E 
 21135      495400
 21136              	.LASF730:
 21137 07fa 75736272 		.ascii	"usbreqhandler_t\000"
 21137      65716861 
 21137      6E646C65 
 21137      725F7400 
 21138              	.LASF456:
 21139 080a 4144435F 		.ascii	"ADC_COMPLETE\000"
 21139      434F4D50 
 21139      4C455445 
 21139      00
 21140              	.LASF572:
 21141 0817 47505443 		.ascii	"GPTConfig\000"
 21141      6F6E6669 
 21141      6700
 21142              	.LASF637:
 21143 0821 53445F55 		.ascii	"SD_UNINIT\000"
 21143      4E494E49 
 21143      5400
 21144              	.LASF1064:
 21145 082b 636D645F 		.ascii	"cmd_set_speed\000"
 21145      7365745F 
 21145      73706565 
 21145      6400
 21146              	.LASF1006:
 21147 0839 6469725F 		.ascii	"dir_ptr\000"
 21147      70747200 
 21148              	.LASF1049:
 21149 0841 61726763 		.ascii	"argc\000"
 21149      00
 21150              	.LASF920:
 21151 0846 44434D49 		.ascii	"DCMI_UNINIT\000"
 21151      5F554E49 
 21151      4E495400 
 21152              	.LASF153:
 21153 0852 74707269 		.ascii	"tprio_t\000"
 21153      6F5F7400 
 21154              	.LASF334:
 21155 085a 6E5F6972 		.ascii	"n_irq\000"
ARM GAS  C:\Users\PCHAUT~1\AppData\Local\Temp\ccLw8kky.s 			page 392


 21155      7100
 21156              	.LASF967:
 21157 0860 636F6E64 		.ascii	"condvar\000"
 21157      76617200 
 21158              	.LASF616:
 21159 0868 69327370 		.ascii	"i2spr\000"
 21159      7200
 21160              	.LASF1003:
 21161 086e 636C7573 		.ascii	"clust\000"
 21161      7400
 21162              	.LASF795:
 21163 0874 72657376 		.ascii	"resvd830\000"
 21163      64383330 
 21163      00
 21164              	.LASF35:
 21165 087d 5F5F746D 		.ascii	"__tm\000"
 21165      00
 21166              	.LASF797:
 21167 0882 72657376 		.ascii	"resvd838\000"
 21167      64383338 
 21167      00
 21168              	.LASF591:
 21169 088b 69326364 		.ascii	"i2cdutycycle_t\000"
 21169      75747963 
 21169      79636C65 
 21169      5F7400
 21170              	.LASF843:
 21171 089a 73647573 		.ascii	"sdustate_t\000"
 21171      74617465 
 21171      5F7400
 21172              	.LASF959:
 21173 08a5 6F707461 		.ascii	"optarg\000"
 21173      726700
 21174              	.LASF1093:
 21175 08ac 636D645F 		.ascii	"cmd_config_set\000"
 21175      636F6E66 
 21175      69675F73 
 21175      657400
 21176              	.LASF798:
 21177 08bb 72657376 		.ascii	"resvd83C\000"
 21177      64383343 
 21177      00
 21178              	.LASF470:
 21179 08c4 74687265 		.ascii	"thread\000"
 21179      616400
 21180              	.LASF515:
 21181 08cb 72656773 		.ascii	"regshift\000"
 21181      68696674 
 21181      00
 21182              	.LASF693:
 21183 08d4 73657475 		.ascii	"setup\000"
 21183      7000
 21184              	.LASF672:
 21185 08da 5350495F 		.ascii	"SPI_UNINIT\000"
 21185      554E494E 
 21185      495400
 21186              	.LASF746:
ARM GAS  C:\Users\PCHAUT~1\AppData\Local\Temp\ccLw8kky.s 			page 393


 21187 08e5 44545846 		.ascii	"DTXFSTS\000"
 21187      53545300 
 21188              	.LASF419:
 21189 08ed 626C6B5F 		.ascii	"blk_size\000"
 21189      73697A65 
 21189      00
 21190              	.LASF577:
 21191 08f6 4932435F 		.ascii	"I2C_READY\000"
 21191      52454144 
 21191      5900
 21192              	.LASF43:
 21193 0900 5F5F746D 		.ascii	"__tm_yday\000"
 21193      5F796461 
 21193      7900
 21194              	.LASF687:
 21195 090a 696E5F70 		.ascii	"in_params\000"
 21195      6172616D 
 21195      7300
 21196              	.LASF562:
 21197 0914 43434552 		.ascii	"CCER\000"
 21197      00
 21198              	.LASF310:
 21199 0919 49325350 		.ascii	"I2SPR\000"
 21199      5200
 21200              	.LASF619:
 21201 091f 50574D5F 		.ascii	"PWM_UNINIT\000"
 21201      554E494E 
 21201      495400
 21202              	.LASF329:
 21203 092a 62657374 		.ascii	"best\000"
 21203      00
 21204              	.LASF950:
 21205 092f 74797065 		.ascii	"type\000"
 21205      00
 21206              	.LASF755:
 21207 0934 47414842 		.ascii	"GAHBCFG\000"
 21207      43464700 
 21208              	.LASF525:
 21209 093c 64616363 		.ascii	"daccallback_t\000"
 21209      616C6C62 
 21209      61636B5F 
 21209      7400
 21210              	.LASF842:
 21211 094a 5344555F 		.ascii	"SDU_READY\000"
 21211      52454144 
 21211      5900
 21212              	.LASF18:
 21213 0954 5F4C4F43 		.ascii	"_LOCK_T\000"
 21213      4B5F5400 
 21214              	.LASF799:
 21215 095c 72657376 		.ascii	"resvd840\000"
 21215      64383430 
 21215      00
 21216              	.LASF306:
 21217 0965 43524350 		.ascii	"CRCPR\000"
 21217      5200
 21218              	.LASF871:
ARM GAS  C:\Users\PCHAUT~1\AppData\Local\Temp\ccLw8kky.s 			page 394


 21219 096b 41736562 		.ascii	"AsebaNativeFunctionArgumentDescription\000"
 21219      614E6174 
 21219      69766546 
 21219      756E6374 
 21219      696F6E41 
 21220              	.LASF414:
 21221 0992 424C4B5F 		.ascii	"BLK_READY\000"
 21221      52454144 
 21221      5900
 21222              	.LASF8:
 21223 099c 5F5F696E 		.ascii	"__int16_t\000"
 21223      7431365F 
 21223      7400
 21224              	.LASF10:
 21225 09a6 5F5F7569 		.ascii	"__uint16_t\000"
 21225      6E743136 
 21225      5F7400
 21226              	.LASF552:
 21227 09b1 4750545F 		.ascii	"GPT_CONTINUOUS\000"
 21227      434F4E54 
 21227      494E554F 
 21227      555300
 21228              	.LASF813:
 21229 09c0 74787175 		.ascii	"txqueued\000"
 21229      65756564 
 21229      00
 21230              	.LASF177:
 21231 09c9 705F6D73 		.ascii	"p_msg\000"
 21231      6700
 21232              	.LASF103:
 21233 09cf 5F756E75 		.ascii	"_unused_rand\000"
 21233      7365645F 
 21233      72616E64 
 21233      00
 21234              	.LASF752:
 21235 09dc 73746D33 		.ascii	"stm32_otg_out_ep_t\000"
 21235      325F6F74 
 21235      675F6F75 
 21235      745F6570 
 21235      5F7400
 21236              	.LASF761:
 21237 09ef 47525853 		.ascii	"GRXSTSP\000"
 21237      54535000 
 21238              	.LASF760:
 21239 09f7 47525853 		.ascii	"GRXSTSR\000"
 21239      54535200 
 21240              	.LASF1054:
 21241 09ff 7368656C 		.ascii	"shell_spawn_thd\000"
 21241      6C5F7370 
 21241      61776E5F 
 21241      74686400 
 21242              	.LASF340:
 21243 0a0f 65786974 		.ascii	"exitcode\000"
 21243      636F6465 
 21243      00
 21244              	.LASF284:
 21245 0a18 4D314152 		.ascii	"M1AR\000"
ARM GAS  C:\Users\PCHAUT~1\AppData\Local\Temp\ccLw8kky.s 			page 395


 21245      00
 21246              	.LASF700:
 21247 0a1d 77616974 		.ascii	"wait\000"
 21247      00
 21248              	.LASF285:
 21249 0a22 444D415F 		.ascii	"DMA_Stream_TypeDef\000"
 21249      53747265 
 21249      616D5F54 
 21249      79706544 
 21249      656600
 21250              	.LASF876:
 21251 0a35 41736562 		.ascii	"AsebaNativeDescription_vecaddscalar\000"
 21251      614E6174 
 21251      69766544 
 21251      65736372 
 21251      69707469 
 21252              	.LASF707:
 21253 0a59 5553425F 		.ascii	"USB_ACTIVE\000"
 21253      41435449 
 21253      564500
 21254              	.LASF963:
 21255 0a64 6F707472 		.ascii	"optreset\000"
 21255      65736574 
 21255      00
 21256              	.LASF748:
 21257 0a6d 73746D33 		.ascii	"stm32_otg_in_ep_t\000"
 21257      325F6F74 
 21257      675F696E 
 21257      5F65705F 
 21257      7400
 21258              	.LASF853:
 21259 0a7f 74687265 		.ascii	"threads\000"
 21259      61647300 
 21260              	.LASF821:
 21261 0a87 7278636E 		.ascii	"rxcnt\000"
 21261      7400
 21262              	.LASF452:
 21263 0a8d 4144435F 		.ascii	"ADC_UNINIT\000"
 21263      554E494E 
 21263      495400
 21264              	.LASF599:
 21265 0a98 7278646D 		.ascii	"rxdmamode\000"
 21265      616D6F64 
 21265      6500
 21266              	.LASF85:
 21267 0aa2 5F726573 		.ascii	"_result_k\000"
 21267      756C745F 
 21267      6B00
 21268              	.LASF544:
 21269 0aac 6D6F6465 		.ascii	"mode\000"
 21269      00
 21270              	.LASF77:
 21271 0ab1 5F737464 		.ascii	"_stderr\000"
 21271      65727200 
 21272              	.LASF84:
 21273 0ab9 5F726573 		.ascii	"_result\000"
 21273      756C7400 
ARM GAS  C:\Users\PCHAUT~1\AppData\Local\Temp\ccLw8kky.s 			page 396


 21274              	.LASF353:
 21275 0ac1 6D5F636E 		.ascii	"m_cnt\000"
 21275      7400
 21276              	.LASF1021:
 21277 0ac7 46525F4E 		.ascii	"FR_NO_FILESYSTEM\000"
 21277      4F5F4649 
 21277      4C455359 
 21277      5354454D 
 21277      00
 21278              	.LASF541:
 21279 0ad8 45585444 		.ascii	"EXTDriver\000"
 21279      72697665 
 21279      7200
 21280              	.LASF47:
 21281 0ae2 5F64736F 		.ascii	"_dso_handle\000"
 21281      5F68616E 
 21281      646C6500 
 21282              	.LASF611:
 21283 0aee 69327363 		.ascii	"i2scallback_t\000"
 21283      616C6C62 
 21283      61636B5F 
 21283      7400
 21284              	.LASF681:
 21285 0afc 73737061 		.ascii	"sspad\000"
 21285      6400
 21286              	.LASF600:
 21287 0b02 7478646D 		.ascii	"txdmamode\000"
 21287      616D6F64 
 21287      6500
 21288              	.LASF136:
 21289 0b0c 5F5F676E 		.ascii	"__gnuc_va_list\000"
 21289      75635F76 
 21289      615F6C69 
 21289      737400
 21290              	.LASF955:
 21291 0b1b 6275665F 		.ascii	"buf_dim\000"
 21291      64696D00 
 21292              	.LASF568:
 21293 0b23 67707466 		.ascii	"gptfreq_t\000"
 21293      7265715F 
 21293      7400
 21294              	.LASF1047:
 21295 0b2d 7368656C 		.ascii	"shell_start\000"
 21295      6C5F7374 
 21295      61727400 
 21296              	.LASF1145:
 21297 0b39 474E5520 		.ascii	"GNU C11 7.2.1 20170904 (release) [ARM/embedded-7-br"
 21297      43313120 
 21297      372E322E 
 21297      31203230 
 21297      31373039 
 21298 0b6c 616E6368 		.ascii	"anch revision 255204] -mcpu=cortex-m4 -mfloat-abi=h"
 21298      20726576 
 21298      6973696F 
 21298      6E203235 
 21298      35323034 
 21299 0b9f 61726420 		.ascii	"ard -mfpu=fpv4-sp-d16 -mno-thumb-interwork -mthumb "
ARM GAS  C:\Users\PCHAUT~1\AppData\Local\Temp\ccLw8kky.s 			page 397


 21299      2D6D6670 
 21299      753D6670 
 21299      76342D73 
 21299      702D6431 
 21300 0bd2 2D676764 		.ascii	"-ggdb -O0 -fomit-frame-pointer -falign-functions=16"
 21300      62202D4F 
 21300      30202D66 
 21300      6F6D6974 
 21300      2D667261 
 21301 0c05 202D666E 		.ascii	" -fno-strict-aliasing -fstack-protector-all -ffunct"
 21301      6F2D7374 
 21301      72696374 
 21301      2D616C69 
 21301      6173696E 
 21302 0c38 696F6E2D 		.ascii	"ion-sections -fdata-sections -fno-common -fsingle-p"
 21302      73656374 
 21302      696F6E73 
 21302      202D6664 
 21302      6174612D 
 21303 0c6b 72656369 		.ascii	"recision-constant\000"
 21303      73696F6E 
 21303      2D636F6E 
 21303      7374616E 
 21303      7400
 21304              	.LASF1023:
 21305 0c7d 46525F54 		.ascii	"FR_TIMEOUT\000"
 21305      494D454F 
 21305      555400
 21306              	.LASF44:
 21307 0c88 5F5F746D 		.ascii	"__tm_isdst\000"
 21307      5F697364 
 21307      737400
 21308              	.LASF864:
 21309 0c93 75736263 		.ascii	"usbcfg\000"
 21309      666700
 21310              	.LASF806:
 21311 0c9a 72785F66 		.ascii	"rx_fifo_size\000"
 21311      69666F5F 
 21311      73697A65 
 21311      00
 21312              	.LASF135:
 21313 0ca7 5F5F6664 		.ascii	"__fdlib_version\000"
 21313      6C69625F 
 21313      76657273 
 21313      696F6E00 
 21314              	.LASF958:
 21315 0cb7 656E7669 		.ascii	"environ\000"
 21315      726F6E00 
 21316              	.LASF523:
 21317 0cbf 4441435F 		.ascii	"DAC_ERR_UNDERFLOW\000"
 21317      4552525F 
 21317      554E4445 
 21317      52464C4F 
 21317      5700
 21318              	.LASF42:
 21319 0cd1 5F5F746D 		.ascii	"__tm_wday\000"
 21319      5F776461 
ARM GAS  C:\Users\PCHAUT~1\AppData\Local\Temp\ccLw8kky.s 			page 398


 21319      7900
 21320              	.LASF504:
 21321 0cdb 77616B65 		.ascii	"wakeup_event\000"
 21321      75705F65 
 21321      76656E74 
 21321      00
 21322              	.LASF1100:
 21323 0ce8 74726565 		.ascii	"tree_indent\000"
 21323      5F696E64 
 21323      656E7400 
 21324              	.LASF200:
 21325 0cf4 76745F70 		.ascii	"vt_prev\000"
 21325      72657600 
 21326              	.LASF478:
 21327 0cfc 656E645F 		.ascii	"end_cb\000"
 21327      636200
 21328              	.LASF824:
 21329 0d03 73657475 		.ascii	"setup_cb\000"
 21329      705F6362 
 21329      00
 21330              	.LASF7:
 21331 0d0c 756E7369 		.ascii	"unsigned char\000"
 21331      676E6564 
 21331      20636861 
 21331      7200
 21332              	.LASF76:
 21333 0d1a 5F737464 		.ascii	"_stdout\000"
 21333      6F757400 
 21334              	.LASF304:
 21335 0d22 4649464F 		.ascii	"FIFO\000"
 21335      00
 21336              	.LASF325:
 21337 0d27 74625F62 		.ascii	"tb_buffer\000"
 21337      75666665 
 21337      7200
 21338              	.LASF498:
 21339 0d31 74787175 		.ascii	"txqueue\000"
 21339      65756500 
 21340              	.LASF275:
 21341 0d39 52495352 		.ascii	"RISR\000"
 21341      00
 21342              	.LASF348:
 21343 0d3e 735F636E 		.ascii	"s_cnt\000"
 21343      7400
 21344              	.LASF188:
 21345 0d44 72656164 		.ascii	"ready_list_t\000"
 21345      795F6C69 
 21345      73745F74 
 21345      00
 21346              	.LASF161:
 21347 0d51 63685F74 		.ascii	"ch_thread\000"
 21347      68726561 
 21347      6400
 21348              	.LASF586:
 21349 0d5b 4F504D4F 		.ascii	"OPMODE_SMBUS_HOST\000"
 21349      44455F53 
 21349      4D425553 
ARM GAS  C:\Users\PCHAUT~1\AppData\Local\Temp\ccLw8kky.s 			page 399


 21349      5F484F53 
 21349      5400
 21350              	.LASF865:
 21351 0d6d 73657275 		.ascii	"serusbcfg\000"
 21351      73626366 
 21351      6700
 21352              	.LASF872:
 21353 0d77 61726775 		.ascii	"arguments\000"
 21353      6D656E74 
 21353      7300
 21354              	.LASF868:
 21355 0d81 73696E74 		.ascii	"sint16\000"
 21355      313600
 21356              	.LASF118:
 21357 0d88 5F6D6273 		.ascii	"_mbsrtowcs_state\000"
 21357      72746F77 
 21357      63735F73 
 21357      74617465 
 21357      00
 21358              	.LASF702:
 21359 0d99 75736265 		.ascii	"usbep_t\000"
 21359      705F7400 
 21360              	.LASF33:
 21361 0da1 5F776473 		.ascii	"_wds\000"
 21361      00
 21362              	.LASF129:
 21363 0da6 666C6F61 		.ascii	"float\000"
 21363      7400
 21364              	.LASF938:
 21365 0dac 43415054 		.ascii	"CAPTURE_CONTINUOUS\000"
 21365      5552455F 
 21365      434F4E54 
 21365      494E554F 
 21365      555300
 21366              	.LASF894:
 21367 0dbf 41736562 		.ascii	"AsebaNativeDescription_vecnonzerosequence\000"
 21367      614E6174 
 21367      69766544 
 21367      65736372 
 21367      69707469 
 21368              	.LASF537:
 21369 0de9 4558545F 		.ascii	"EXT_UNINIT\000"
 21369      554E494E 
 21369      495400
 21370              	.LASF495:
 21371 0df4 43414E5F 		.ascii	"CAN_SLEEP\000"
 21371      534C4545 
 21371      5000
 21372              	.LASF1107:
 21373 0dfe 636D645F 		.ascii	"cmd_threads\000"
 21373      74687265 
 21373      61647300 
 21374              	.LASF321:
 21375 0e0a 73655F73 		.ascii	"se_state\000"
 21375      74617465 
 21375      00
 21376              	.LASF55:
ARM GAS  C:\Users\PCHAUT~1\AppData\Local\Temp\ccLw8kky.s 			page 400


 21377 0e13 5F73697A 		.ascii	"_size\000"
 21377      6500
 21378              	.LASF671:
 21379 0e19 53444344 		.ascii	"SDCD1\000"
 21379      3100
 21380              	.LASF207:
 21381 0e1f 73797374 		.ascii	"system_debug_t\000"
 21381      656D5F64 
 21381      65627567 
 21381      5F7400
 21382              	.LASF265:
 21383 0e2e 44485238 		.ascii	"DHR8R1\000"
 21383      523100
 21384              	.LASF268:
 21385 0e35 44485238 		.ascii	"DHR8R2\000"
 21385      523200
 21386              	.LASF559:
 21387 0e3c 44494552 		.ascii	"DIER\000"
 21387      00
 21388              	.LASF973:
 21389 0e41 68656164 		.ascii	"head\000"
 21389      00
 21390              	.LASF165:
 21391 0e46 705F6374 		.ascii	"p_ctx\000"
 21391      7800
 21392              	.LASF203:
 21393 0e4c 76745F70 		.ascii	"vt_par\000"
 21393      617200
 21394              	.LASF224:
 21395 0e53 4A4F4652 		.ascii	"JOFR1\000"
 21395      3100
 21396              	.LASF225:
 21397 0e59 4A4F4652 		.ascii	"JOFR2\000"
 21397      3200
 21398              	.LASF227:
 21399 0e5f 4A4F4652 		.ascii	"JOFR4\000"
 21399      3400
 21400              	.LASF1065:
 21401 0e65 73706565 		.ascii	"speed_left\000"
 21401      645F6C65 
 21401      667400
 21402              	.LASF1044:
 21403 0e70 7368656C 		.ascii	"shell_commands\000"
 21403      6C5F636F 
 21403      6D6D616E 
 21403      647300
 21404              	.LASF62:
 21405 0e7f 5F777269 		.ascii	"_write\000"
 21405      746500
 21406              	.LASF308:
 21407 0e86 54584352 		.ascii	"TXCRCR\000"
 21407      435200
 21408              	.LASF1005:
 21409 0e8d 6469725F 		.ascii	"dir_sect\000"
 21409      73656374 
 21409      00
 21410              	.LASF530:
ARM GAS  C:\Users\PCHAUT~1\AppData\Local\Temp\ccLw8kky.s 			page 401


 21411 0e96 64616364 		.ascii	"dacdhrmode_t\000"
 21411      68726D6F 
 21411      64655F74 
 21411      00
 21412              	.LASF472:
 21413 0ea3 646D6173 		.ascii	"dmastp\000"
 21413      747000
 21414              	.LASF966:
 21415 0eaa 6C6F636B 		.ascii	"lock\000"
 21415      00
 21416              	.LASF1060:
 21417 0eaf 636D645F 		.ascii	"cmd_audio_stop\000"
 21417      61756469 
 21417      6F5F7374 
 21417      6F7000
 21418              	.LASF590:
 21419 0ebe 46415354 		.ascii	"FAST_DUTY_CYCLE_16_9\000"
 21419      5F445554 
 21419      595F4359 
 21419      434C455F 
 21419      31365F39 
 21420              	.LASF1096:
 21421 0ed3 636D645F 		.ascii	"cmd_config_tree\000"
 21421      636F6E66 
 21421      69675F74 
 21421      72656500 
 21422              	.LASF1014:
 21423 0ee3 46525F49 		.ascii	"FR_INVALID_NAME\000"
 21423      4E56414C 
 21423      49445F4E 
 21423      414D4500 
 21424              	.LASF146:
 21425 0ef3 75696E74 		.ascii	"uint64_t\000"
 21425      36345F74 
 21425      00
 21426              	.LASF335:
 21427 0efc 6E5F6374 		.ascii	"n_ctxswc\000"
 21427      78737763 
 21427      00
 21428              	.LASF373:
 21429 0f05 63685F64 		.ascii	"ch_debug\000"
 21429      65627567 
 21429      00
 21430              	.LASF1119:
 21431 0f0e 42797465 		.ascii	"ByteRead\000"
 21431      52656164 
 21431      00
 21432              	.LASF533:
 21433 0f17 696E6974 		.ascii	"init\000"
 21433      00
 21434              	.LASF861:
 21435 0f1c 73635F63 		.ascii	"sc_commands\000"
 21435      6F6D6D61 
 21435      6E647300 
 21436              	.LASF252:
 21437 0f28 464D3152 		.ascii	"FM1R\000"
 21437      00
ARM GAS  C:\Users\PCHAUT~1\AppData\Local\Temp\ccLw8kky.s 			page 402


 21438              	.LASF1108:
 21439 0f2d 73746174 		.ascii	"states\000"
 21439      657300
 21440              	.LASF449:
 21441 0f34 50414C43 		.ascii	"PALConfig\000"
 21441      6F6E6669 
 21441      6700
 21442              	.LASF815:
 21443 0f3e 7478636E 		.ascii	"txcnt\000"
 21443      7400
 21444              	.LASF943:
 21445 0f44 73756273 		.ascii	"subspaces\000"
 21445      70616365 
 21445      7300
 21446              	.LASF729:
 21447 0f4e 75736265 		.ascii	"usbeventcb_t\000"
 21447      76656E74 
 21447      63625F74 
 21447      00
 21448              	.LASF998:
 21449 0f5b 77696E73 		.ascii	"winsect\000"
 21449      65637400 
 21450              	.LASF411:
 21451 0f63 424C4B5F 		.ascii	"BLK_ACTIVE\000"
 21451      41435449 
 21451      564500
 21452              	.LASF41:
 21453 0f6e 5F5F746D 		.ascii	"__tm_year\000"
 21453      5F796561 
 21453      7200
 21454              	.LASF375:
 21455 0f78 6576656E 		.ascii	"event_listener_t\000"
 21455      745F6C69 
 21455      7374656E 
 21455      65725F74 
 21455      00
 21456              	.LASF807:
 21457 0f89 6F74675F 		.ascii	"otg_ram_size\000"
 21457      72616D5F 
 21457      73697A65 
 21457      00
 21458              	.LASF992:
 21459 0f96 6E5F6661 		.ascii	"n_fatent\000"
 21459      74656E74 
 21459      00
 21460              	.LASF809:
 21461 0f9f 73746D33 		.ascii	"stm32_otg_params_t\000"
 21461      325F6F74 
 21461      675F7061 
 21461      72616D73 
 21461      5F7400
 21462              	.LASF802:
 21463 0fb2 72657376 		.ascii	"resvdD00\000"
 21463      64443030 
 21463      00
 21464              	.LASF307:
 21465 0fbb 52584352 		.ascii	"RXCRCR\000"
ARM GAS  C:\Users\PCHAUT~1\AppData\Local\Temp\ccLw8kky.s 			page 403


 21465      435200
 21466              	.LASF818:
 21467 0fc2 72786275 		.ascii	"rxbuf\000"
 21467      6600
 21468              	.LASF101:
 21469 0fc8 5F6D756C 		.ascii	"_mult\000"
 21469      7400
 21470              	.LASF349:
 21471 0fce 63685F6D 		.ascii	"ch_mutex\000"
 21471      75746578 
 21471      00
 21472              	.LASF1103:
 21473 0fd7 636D645F 		.ascii	"cmd_sqrt\000"
 21473      73717274 
 21473      00
 21474              	.LASF501:
 21475 0fe0 7478656D 		.ascii	"txempty_event\000"
 21475      7074795F 
 21475      6576656E 
 21475      7400
 21476              	.LASF1086:
 21477 0fee 636D645F 		.ascii	"cmd_cam_set_brightness\000"
 21477      63616D5F 
 21477      7365745F 
 21477      62726967 
 21477      68746E65 
 21478              	.LASF840:
 21479 1005 5344555F 		.ascii	"SDU_UNINIT\000"
 21479      554E494E 
 21479      495400
 21480              	.LASF623:
 21481 1010 50574D44 		.ascii	"PWMDriver\000"
 21481      72697665 
 21481      7200
 21482              	.LASF446:
 21483 101a 50474461 		.ascii	"PGData\000"
 21483      746100
 21484              	.LASF632:
 21485 1021 50574D43 		.ascii	"PWMConfig\000"
 21485      6F6E6669 
 21485      6700
 21486              	.LASF116:
 21487 102b 5F6D6272 		.ascii	"_mbrlen_state\000"
 21487      6C656E5F 
 21487      73746174 
 21487      6500
 21488              	.LASF1138:
 21489 1039 74696D65 		.ascii	"time\000"
 21489      00
 21490              	.LASF951:
 21491 103e 76616C75 		.ascii	"value\000"
 21491      6500
 21492              	.LASF363:
 21493 1044 63665F6F 		.ascii	"cf_off_newer\000"
 21493      66665F6E 
 21493      65776572 
 21493      00
ARM GAS  C:\Users\PCHAUT~1\AppData\Local\Temp\ccLw8kky.s 			page 404


 21494              	.LASF787:
 21495 1051 44494550 		.ascii	"DIEPMSK\000"
 21495      4D534B00 
 21496              	.LASF754:
 21497 1059 474F5447 		.ascii	"GOTGINT\000"
 21497      494E5400 
 21498              	.LASF826:
 21499 1061 6F75745F 		.ascii	"out_cb\000"
 21499      636200
 21500              	.LASF903:
 21501 1068 464F524D 		.ascii	"FORMAT_BGGR\000"
 21501      41545F42 
 21501      47475200 
 21502              	.LASF778:
 21503 1074 4841494E 		.ascii	"HAINTMSK\000"
 21503      544D534B 
 21503      00
 21504              	.LASF688:
 21505 107d 6F75745F 		.ascii	"out_params\000"
 21505      70617261 
 21505      6D7300
 21506              	.LASF320:
 21507 1088 73655F77 		.ascii	"se_wtobjp\000"
 21507      746F626A 
 21507      7000
 21508              	.LASF231:
 21509 1092 4A535152 		.ascii	"JSQR\000"
 21509      00
 21510              	.LASF139:
 21511 1097 76615F6C 		.ascii	"va_list\000"
 21511      69737400 
 21512              	.LASF75:
 21513 109f 5F737464 		.ascii	"_stdin\000"
 21513      696E00
 21514              	.LASF123:
 21515 10a6 5F6E6D61 		.ascii	"_nmalloc\000"
 21515      6C6C6F63 
 21515      00
 21516              	.LASF571:
 21517 10af 64696572 		.ascii	"dier\000"
 21517      00
 21518              	.LASF666:
 21519 10b4 69735F70 		.ascii	"is_protected\000"
 21519      726F7465 
 21519      63746564 
 21519      00
 21520              	.LASF197:
 21521 10c1 76697274 		.ascii	"virtual_timer_t\000"
 21521      75616C5F 
 21521      74696D65 
 21521      725F7400 
 21522              	.LASF828:
 21523 10d1 6F75745F 		.ascii	"out_maxsize\000"
 21523      6D617873 
 21523      697A6500 
 21524              	.LASF192:
 21525 10dd 725F6374 		.ascii	"r_ctx\000"
ARM GAS  C:\Users\PCHAUT~1\AppData\Local\Temp\ccLw8kky.s 			page 405


 21525      7800
 21526              	.LASF199:
 21527 10e3 76745F6E 		.ascii	"vt_next\000"
 21527      65787400 
 21528              	.LASF605:
 21529 10eb 4932535F 		.ascii	"I2S_STOP\000"
 21529      53544F50 
 21529      00
 21530              	.LASF233:
 21531 10f4 4A445232 		.ascii	"JDR2\000"
 21531      00
 21532              	.LASF620:
 21533 10f9 50574D5F 		.ascii	"PWM_STOP\000"
 21533      53544F50 
 21533      00
 21534              	.LASF961:
 21535 1102 6F707465 		.ascii	"opterr\000"
 21535      727200
 21536              	.LASF147:
 21537 1109 7274636E 		.ascii	"rtcnt_t\000"
 21537      745F7400 
 21538              	.LASF471:
 21539 1111 6D757465 		.ascii	"mutex\000"
 21539      7800
 21540              	.LASF614:
 21541 1117 73697A65 		.ascii	"size\000"
 21541      00
 21542              	.LASF519:
 21543 111c 44414344 		.ascii	"DACDriver\000"
 21543      72697665 
 21543      7200
 21544              	.LASF994:
 21545 1126 766F6C62 		.ascii	"volbase\000"
 21545      61736500 
 21546              	.LASF535:
 21547 112e 44414343 		.ascii	"DACConfig\000"
 21547      6F6E6669 
 21547      6700
 21548              	.LASF699:
 21549 1138 74787065 		.ascii	"txpending\000"
 21549      6E64696E 
 21549      6700
 21550              	.LASF556:
 21551 1142 636C6F63 		.ascii	"clock\000"
 21551      6B00
 21552              	.LASF423:
 21553 1148 636C6561 		.ascii	"clear\000"
 21553      7200
 21554              	.LASF566:
 21555 114e 43435852 		.ascii	"CCXR\000"
 21555      00
 21556              	.LASF261:
 21557 1153 43414E5F 		.ascii	"CAN_TypeDef\000"
 21557      54797065 
 21557      44656600 
 21558              	.LASF19:
 21559 115f 5F6F6666 		.ascii	"_off_t\000"
ARM GAS  C:\Users\PCHAUT~1\AppData\Local\Temp\ccLw8kky.s 			page 406


 21559      5F7400
 21560              	.LASF315:
 21561 1166 73746B61 		.ascii	"stkalign_t\000"
 21561      6C69676E 
 21561      5F7400
 21562              	.LASF322:
 21563 1171 63685F73 		.ascii	"ch_swc_event_t\000"
 21563      77635F65 
 21563      76656E74 
 21563      5F7400
 21564              	.LASF638:
 21565 1180 53445F53 		.ascii	"SD_STOP\000"
 21565      544F5000 
 21566              	.LASF733:
 21567 1188 72657376 		.ascii	"resvd8\000"
 21567      643800
 21568              	.LASF3:
 21569 118f 73697A65 		.ascii	"size_t\000"
 21569      5F7400
 21570              	.LASF106:
 21571 1196 5F6C6F63 		.ascii	"_localtime_buf\000"
 21571      616C7469 
 21571      6D655F62 
 21571      756600
 21572              	.LASF800:
 21573 11a5 72657376 		.ascii	"resvd880\000"
 21573      64383830 
 21573      00
 21574              	.LASF979:
 21575 11ae 70617261 		.ascii	"parameter_root\000"
 21575      6D657465 
 21575      725F726F 
 21575      6F7400
 21576              	.LASF24:
 21577 11bd 5F5F636F 		.ascii	"__count\000"
 21577      756E7400 
 21578              	.LASF141:
 21579 11c5 75696E74 		.ascii	"uint8_t\000"
 21579      385F7400 
 21580              	.LASF737:
 21581 11cd 72657376 		.ascii	"resvd14\000"
 21581      64313400 
 21582              	.LASF491:
 21583 11d5 43414E5F 		.ascii	"CAN_UNINIT\000"
 21583      554E494E 
 21583      495400
 21584              	.LASF738:
 21585 11e0 72657376 		.ascii	"resvd18\000"
 21585      64313800 
 21586              	.LASF194:
 21587 11e8 725F6F6C 		.ascii	"r_older\000"
 21587      64657200 
 21588              	.LASF163:
 21589 11f0 705F7072 		.ascii	"p_prev\000"
 21589      657600
 21590              	.LASF365:
 21591 11f7 63665F6F 		.ascii	"cf_off_name\000"
ARM GAS  C:\Users\PCHAUT~1\AppData\Local\Temp\ccLw8kky.s 			page 407


 21591      66665F6E 
 21591      616D6500 
 21592              	.LASF631:
 21593 1203 50574D43 		.ascii	"PWMChannelConfig\000"
 21593      68616E6E 
 21593      656C436F 
 21593      6E666967 
 21593      00
 21594              	.LASF630:
 21595 1214 70776D63 		.ascii	"pwmcnt_t\000"
 21595      6E745F74 
 21595      00
 21596              	.LASF796:
 21597 121d 44494550 		.ascii	"DIEPEMPMSK\000"
 21597      454D504D 
 21597      534B00
 21598              	.LASF931:
 21599 1228 64636D69 		.ascii	"dcmicallback_t\000"
 21599      63616C6C 
 21599      6261636B 
 21599      5F7400
 21600              	.LASF741:
 21601 1237 44494550 		.ascii	"DIEPCTL\000"
 21601      43544C00 
 21602              	.LASF1133:
 21603 123f 63685468 		.ascii	"chThdTerminatedX\000"
 21603      64546572 
 21603      6D696E61 
 21603      74656458 
 21603      00
 21604              	.LASF381:
 21605 1250 656C5F77 		.ascii	"el_wflags\000"
 21605      666C6167 
 21605      7300
 21606              	.LASF697:
 21607 125a 6F746770 		.ascii	"otgparams\000"
 21607      6172616D 
 21607      7300
 21608              	.LASF323:
 21609 1264 74625F73 		.ascii	"tb_size\000"
 21609      697A6500 
 21610              	.LASF443:
 21611 126c 50444461 		.ascii	"PDData\000"
 21611      746100
 21612              	.LASF661:
 21613 1273 73637261 		.ascii	"scratchpad\000"
 21613      74636870 
 21613      616400
 21614              	.LASF883:
 21615 127e 41736562 		.ascii	"AsebaNativeDescription_vecclamp\000"
 21615      614E6174 
 21615      69766544 
 21615      65736372 
 21615      69707469 
 21616              	.LASF89:
 21617 129e 5F637674 		.ascii	"_cvtbuf\000"
 21617      62756600 
ARM GAS  C:\Users\PCHAUT~1\AppData\Local\Temp\ccLw8kky.s 			page 408


 21618              	.LASF830:
 21619 12a6 6F75745F 		.ascii	"out_state\000"
 21619      73746174 
 21619      6500
 21620              	.LASF385:
 21621 12b0 696F5F71 		.ascii	"io_queue_t\000"
 21621      75657565 
 21621      5F7400
 21622              	.LASF677:
 21623 12bb 73706973 		.ascii	"spistate_t\000"
 21623      74617465 
 21623      5F7400
 21624              	.LASF1137:
 21625 12c6 63685654 		.ascii	"chVTIsTimeWithinX\000"
 21625      49735469 
 21625      6D655769 
 21625      7468696E 
 21625      5800
 21626              	.LASF1056:
 21627 12d8 6D69635F 		.ascii	"mic_data\000"
 21627      64617461 
 21627      00
 21628              	.LASF576:
 21629 12e1 4932435F 		.ascii	"I2C_STOP\000"
 21629      53544F50 
 21629      00
 21630              	.LASF598:
 21631 12ea 61646472 		.ascii	"addr\000"
 21631      00
 21632              	.LASF1076:
 21633 12ef 636D645F 		.ascii	"cmd_cam_set_exposure\000"
 21633      63616D5F 
 21633      7365745F 
 21633      6578706F 
 21633      73757265 
 21634              	.LASF246:
 21635 1304 52463052 		.ascii	"RF0R\000"
 21635      00
 21636              	.LASF461:
 21637 1309 4144435F 		.ascii	"ADC_ERR_DMAFAILURE\000"
 21637      4552525F 
 21637      444D4146 
 21637      41494C55 
 21637      524500
 21638              	.LASF675:
 21639 131c 5350495F 		.ascii	"SPI_ACTIVE\000"
 21639      41435449 
 21639      564500
 21640              	.LASF312:
 21641 1327 47545052 		.ascii	"GTPR\000"
 21641      00
 21642              	.LASF545:
 21643 132c 45585443 		.ascii	"EXTChannelConfig\000"
 21643      68616E6E 
 21643      656C436F 
 21643      6E666967 
 21643      00
ARM GAS  C:\Users\PCHAUT~1\AppData\Local\Temp\ccLw8kky.s 			page 409


 21644              	.LASF1098:
 21645 133d 696E6465 		.ascii	"indent\000"
 21645      6E7400
 21646              	.LASF426:
 21647 1344 4F535045 		.ascii	"OSPEEDR\000"
 21647      45445200 
 21648              	.LASF509:
 21649 134c 4441435F 		.ascii	"DAC_READY\000"
 21649      52454144 
 21649      5900
 21650              	.LASF765:
 21651 1356 72657376 		.ascii	"resvd30\000"
 21651      64333000 
 21652              	.LASF23:
 21653 135e 5F5F7763 		.ascii	"__wchb\000"
 21653      686200
 21654              	.LASF117:
 21655 1365 5F6D6272 		.ascii	"_mbrtowc_state\000"
 21655      746F7763 
 21655      5F737461 
 21655      746500
 21656              	.LASF794:
 21657 1374 44564255 		.ascii	"DVBUSPULSE\000"
 21657      5350554C 
 21657      534500
 21658              	.LASF38:
 21659 137f 5F5F746D 		.ascii	"__tm_hour\000"
 21659      5F686F75 
 21659      7200
 21660              	.LASF410:
 21661 1389 424C4B5F 		.ascii	"BLK_STOP\000"
 21661      53544F50 
 21661      00
 21662              	.LASF893:
 21663 1392 41736562 		.ascii	"AsebaNativeDescription_mathsqrt\000"
 21663      614E6174 
 21663      69766544 
 21663      65736372 
 21663      69707469 
 21664              	.LASF646:
 21665 13b2 53657269 		.ascii	"SerialDriverVMT\000"
 21665      616C4472 
 21665      69766572 
 21665      564D5400 
 21666              	.LASF715:
 21667 13c2 5553425F 		.ascii	"USB_EP0_ERROR\000"
 21667      4550305F 
 21667      4552524F 
 21667      5200
 21668              	.LASF887:
 21669 13d0 41736562 		.ascii	"AsebaNativeDescription_vecsort\000"
 21669      614E6174 
 21669      69766544 
 21669      65736372 
 21669      69707469 
 21670              	.LASF21:
 21671 13ef 77696E74 		.ascii	"wint_t\000"
ARM GAS  C:\Users\PCHAUT~1\AppData\Local\Temp\ccLw8kky.s 			page 410


 21671      5F7400
 21672              	.LASF1115:
 21673 13f6 636D645F 		.ascii	"cmd_cat\000"
 21673      63617400 
 21674              	.LASF889:
 21675 13fe 41736562 		.ascii	"AsebaNativeDescription_mathatan2\000"
 21675      614E6174 
 21675      69766544 
 21675      65736372 
 21675      69707469 
 21676              	.LASF667:
 21677 141f 636F6E6E 		.ascii	"connect\000"
 21677      65637400 
 21678              	.LASF90:
 21679 1427 5F6E6577 		.ascii	"_new\000"
 21679      00
 21680              	.LASF464:
 21681 142c 41444344 		.ascii	"ADCDriver\000"
 21681      72697665 
 21681      7200
 21682              	.LASF808:
 21683 1436 6E756D5F 		.ascii	"num_endpoints\000"
 21683      656E6470 
 21683      6F696E74 
 21683      7300
 21684              	.LASF487:
 21685 1444 41444343 		.ascii	"ADCConfig\000"
 21685      6F6E6669 
 21685      6700
 21686              	.LASF816:
 21687 144e 746F7473 		.ascii	"totsize\000"
 21687      697A6500 
 21688              	.LASF956:
 21689 1456 5F706172 		.ascii	"_param_val_matrix_s\000"
 21689      616D5F76 
 21689      616C5F6D 
 21689      61747269 
 21689      785F7300 
 21690              	.LASF97:
 21691 146a 5F6E696F 		.ascii	"_niobs\000"
 21691      627300
 21692              	.LASF366:
 21693 1471 63665F6F 		.ascii	"cf_off_stklimit\000"
 21693      66665F73 
 21693      746B6C69 
 21693      6D697400 
 21694              	.LASF639:
 21695 1481 53445F52 		.ascii	"SD_READY\000"
 21695      45414459 
 21695      00
 21696              	.LASF731:
 21697 148a 75736267 		.ascii	"usbgetdescriptor_t\000"
 21697      65746465 
 21697      73637269 
 21697      70746F72 
 21697      5F7400
 21698              	.LASF512:
ARM GAS  C:\Users\PCHAUT~1\AppData\Local\Temp\ccLw8kky.s 			page 411


 21699 149d 4441435F 		.ascii	"DAC_ERROR\000"
 21699      4552524F 
 21699      5200
 21700              	.LASF195:
 21701 14a7 725F6375 		.ascii	"r_current\000"
 21701      7272656E 
 21701      7400
 21702              	.LASF74:
 21703 14b1 5F657272 		.ascii	"_errno\000"
 21703      6E6F00
 21704              	.LASF975:
 21705 14b8 6D657373 		.ascii	"messagebus_t\000"
 21705      61676562 
 21705      75735F74 
 21705      00
 21706              	.LASF710:
 21707 14c5 5553425F 		.ascii	"USB_EP0_TX\000"
 21707      4550305F 
 21707      545800
 21708              	.LASF689:
 21709 14d0 65703073 		.ascii	"ep0state\000"
 21709      74617465 
 21709      00
 21710              	.LASF947:
 21711 14d9 70617261 		.ascii	"parameter_s\000"
 21711      6D657465 
 21711      725F7300 
 21712              	.LASF39:
 21713 14e5 5F5F746D 		.ascii	"__tm_mday\000"
 21713      5F6D6461 
 21713      7900
 21714              	.LASF403:
 21715 14ef 69666372 		.ascii	"ifcr\000"
 21715      00
 21716              	.LASF604:
 21717 14f4 4932535F 		.ascii	"I2S_UNINIT\000"
 21717      554E494E 
 21717      495400
 21718              	.LASF846:
 21719 14ff 62756C6B 		.ascii	"bulk_in\000"
 21719      5F696E00 
 21720              	.LASF432:
 21721 1507 73746D33 		.ascii	"stm32_gpio_t\000"
 21721      325F6770 
 21721      696F5F74 
 21721      00
 21722              	.LASF339:
 21723 1514 7264796D 		.ascii	"rdymsg\000"
 21723      736700
 21724              	.LASF46:
 21725 151b 5F666E61 		.ascii	"_fnargs\000"
 21725      72677300 
 21726              	.LASF621:
 21727 1523 50574D5F 		.ascii	"PWM_READY\000"
 21727      52454144 
 21727      5900
 21728              	.LASF237:
ARM GAS  C:\Users\PCHAUT~1\AppData\Local\Temp\ccLw8kky.s 			page 412


 21729 152d 54445452 		.ascii	"TDTR\000"
 21729      00
 21730              	.LASF245:
 21731 1532 43414E5F 		.ascii	"CAN_FilterRegister_TypeDef\000"
 21731      46696C74 
 21731      65725265 
 21731      67697374 
 21731      65725F54 
 21732              	.LASF502:
 21733 154d 6572726F 		.ascii	"error_event\000"
 21733      725F6576 
 21733      656E7400 
 21734              	.LASF477:
 21735 1559 6E756D5F 		.ascii	"num_channels\000"
 21735      6368616E 
 21735      6E656C73 
 21735      00
 21736              	.LASF226:
 21737 1566 4A4F4652 		.ascii	"JOFR3\000"
 21737      3300
 21738              	.LASF768:
 21739 156c 72657376 		.ascii	"resvd58\000"
 21739      64353800 
 21740              	.LASF817:
 21741 1574 55534249 		.ascii	"USBInEndpointState\000"
 21741      6E456E64 
 21741      706F696E 
 21741      74537461 
 21741      746500
 21742              	.LASF164:
 21743 1587 705F7072 		.ascii	"p_prio\000"
 21743      696F00
 21744              	.LASF1130:
 21745 158e 636D645F 		.ascii	"cmd_mount\000"
 21745      6D6F756E 
 21745      7400
 21746              	.LASF949:
 21747 1598 64656669 		.ascii	"defined\000"
 21747      6E656400 
 21748              	.LASF386:
 21749 15a0 696F5F71 		.ascii	"io_queue\000"
 21749      75657565 
 21749      00
 21750              	.LASF916:
 21751 15a9 73756273 		.ascii	"subsampling_t\000"
 21751      616D706C 
 21751      696E675F 
 21751      7400
 21752              	.LASF1109:
 21753 15b7 636D645F 		.ascii	"cmd_mem\000"
 21753      6D656D00 
 21754              	.LASF440:
 21755 15bf 50414461 		.ascii	"PAData\000"
 21755      746100
 21756              	.LASF999:
 21757 15c6 46415446 		.ascii	"FATFS\000"
 21757      5300
ARM GAS  C:\Users\PCHAUT~1\AppData\Local\Temp\ccLw8kky.s 			page 413


 21758              	.LASF16:
 21759 15cc 5F5F7569 		.ascii	"__uint64_t\000"
 21759      6E743634 
 21759      5F7400
 21760              	.LASF1090:
 21761 15d7 636D645F 		.ascii	"cmd_config_save\000"
 21761      636F6E66 
 21761      69675F73 
 21761      61766500 
 21762              	.LASF1037:
 21763 15e7 636D645F 		.ascii	"cmd_subx\000"
 21763      73756278 
 21763      00
 21764              	.LASF1038:
 21765 15f0 636D645F 		.ascii	"cmd_suby\000"
 21765      73756279 
 21765      00
 21766              	.LASF1131:
 21767 15f9 666F726D 		.ascii	"formatted_bytes\000"
 21767      61747465 
 21767      645F6279 
 21767      74657300 
 21768              	.LASF30:
 21769 1609 5F6E6578 		.ascii	"_next\000"
 21769      7400
 21770              	.LASF866:
 21771 160f 53445531 		.ascii	"SDU1\000"
 21771      00
 21772              	.LASF626:
 21773 1614 70776D63 		.ascii	"pwmcallback_t\000"
 21773      616C6C62 
 21773      61636B5F 
 21773      7400
 21774              	.LASF520:
 21775 1622 70617261 		.ascii	"params\000"
 21775      6D7300
 21776              	.LASF714:
 21777 1629 5553425F 		.ascii	"USB_EP0_SENDING_STS\000"
 21777      4550305F 
 21777      53454E44 
 21777      494E475F 
 21777      53545300 
 21778              	.LASF114:
 21779 163d 5F736967 		.ascii	"_signal_buf\000"
 21779      6E616C5F 
 21779      62756600 
 21780              	.LASF848:
 21781 1649 696E745F 		.ascii	"int_in\000"
 21781      696E00
 21782              	.LASF581:
 21783 1650 69326373 		.ascii	"i2cstate_t\000"
 21783      74617465 
 21783      5F7400
 21784              	.LASF60:
 21785 165b 5F636F6F 		.ascii	"_cookie\000"
 21785      6B696500 
 21786              	.LASF939:
ARM GAS  C:\Users\PCHAUT~1\AppData\Local\Temp\ccLw8kky.s 			page 414


 21787 1663 70617261 		.ascii	"parameter_namespace_t\000"
 21787      6D657465 
 21787      725F6E61 
 21787      6D657370 
 21787      6163655F 
 21788              	.LASF859:
 21789 1679 5368656C 		.ascii	"ShellCommand\000"
 21789      6C436F6D 
 21789      6D616E64 
 21789      00
 21790              	.LASF875:
 21791 1686 41736562 		.ascii	"AsebaNativeDescription_vecfill\000"
 21791      614E6174 
 21791      69766544 
 21791      65736372 
 21791      69707469 
 21792              	.LASF716:
 21793 16a5 75736265 		.ascii	"usbep0state_t\000"
 21793      70307374 
 21793      6174655F 
 21793      7400
 21794              	.LASF524:
 21795 16b3 64616365 		.ascii	"dacerror_t\000"
 21795      72726F72 
 21795      5F7400
 21796              	.LASF249:
 21797 16be 7354784D 		.ascii	"sTxMailBox\000"
 21797      61696C42 
 21797      6F7800
 21798              	.LASF459:
 21799 16c9 61646373 		.ascii	"adcsample_t\000"
 21799      616D706C 
 21799      655F7400 
 21800              	.LASF557:
 21801 16d5 67707463 		.ascii	"gptcallback_t\000"
 21801      616C6C62 
 21801      61636B5F 
 21801      7400
 21802              	.LASF389:
 21803 16e3 715F6275 		.ascii	"q_buffer\000"
 21803      66666572 
 21803      00
 21804              	.LASF162:
 21805 16ec 705F6E65 		.ascii	"p_next\000"
 21805      787400
 21806              	.LASF1114:
 21807 16f3 636D645F 		.ascii	"cmd_sound_file_play\000"
 21807      736F756E 
 21807      645F6669 
 21807      6C655F70 
 21807      6C617900 
 21808              	.LASF603:
 21809 1707 49324344 		.ascii	"I2CD1\000"
 21809      3100
 21810              	.LASF742:
 21811 170d 72657376 		.ascii	"resvd4\000"
 21811      643400
ARM GAS  C:\Users\PCHAUT~1\AppData\Local\Temp\ccLw8kky.s 			page 415


 21812              	.LASF911:
 21813 1714 464F524D 		.ascii	"FORMAT_YYYY\000"
 21813      41545F59 
 21813      59595900 
 21814              	.LASF684:
 21815 1720 55534244 		.ascii	"USBDriver\000"
 21815      72697665 
 21815      7200
 21816              	.LASF801:
 21817 172a 72657376 		.ascii	"resvd8C0\000"
 21817      64384330 
 21817      00
 21818              	.LASF838:
 21819 1733 55534243 		.ascii	"USBConfig\000"
 21819      6F6E6669 
 21819      6700
 21820              	.LASF744:
 21821 173d 72657376 		.ascii	"resvdC\000"
 21821      644300
 21822              	.LASF995:
 21823 1744 66617462 		.ascii	"fatbase\000"
 21823      61736500 
 21824              	.LASF633:
 21825 174c 50574D44 		.ascii	"PWMD2\000"
 21825      3200
 21826              	.LASF634:
 21827 1752 50574D44 		.ascii	"PWMD3\000"
 21827      3300
 21828              	.LASF635:
 21829 1758 50574D44 		.ascii	"PWMD4\000"
 21829      3400
 21830              	.LASF636:
 21831 175e 50574D44 		.ascii	"PWMD5\000"
 21831      3500
 21832              	.LASF1051:
 21833 1764 73746172 		.ascii	"start\000"
 21833      7400
 21834              	.LASF1110:
 21835 176a 636D645F 		.ascii	"cmd_melody_stop\000"
 21835      6D656C6F 
 21835      64795F73 
 21835      746F7000 
 21836              	.LASF869:
 21837 177a 41534542 		.ascii	"ASEBA_MAX_BREAKPOINTS\000"
 21837      415F4D41 
 21837      585F4252 
 21837      45414B50 
 21837      4F494E54 
 21838              	.LASF856:
 21839 1790 7368656C 		.ascii	"shellcmd_t\000"
 21839      6C636D64 
 21839      5F7400
 21840              	.LASF644:
 21841 179b 6F717565 		.ascii	"oqueue\000"
 21841      756500
 21842              	.LASF151:
 21843 17a2 74726566 		.ascii	"trefs_t\000"
ARM GAS  C:\Users\PCHAUT~1\AppData\Local\Temp\ccLw8kky.s 			page 416


 21843      735F7400 
 21844              	.LASF181:
 21845 17aa 705F6D70 		.ascii	"p_mpool\000"
 21845      6F6F6C00 
 21846              	.LASF290:
 21847 17b2 4932435F 		.ascii	"I2C_TypeDef\000"
 21847      54797065 
 21847      44656600 
 21848              	.LASF906:
 21849 17be 464F524D 		.ascii	"FORMAT_BGR565\000"
 21849      41545F42 
 21849      47523536 
 21849      3500
 21850              	.LASF1116:
 21851 17cc 66737263 		.ascii	"fsrc\000"
 21851      00
 21852              	.LASF532:
 21853 17d1 44414343 		.ascii	"DACConversionGroup\000"
 21853      6F6E7665 
 21853      7273696F 
 21853      6E47726F 
 21853      757000
 21854              	.LASF912:
 21855 17e4 666F726D 		.ascii	"format_t\000"
 21855      61745F74 
 21855      00
 21856              	.LASF279:
 21857 17ed 43575354 		.ascii	"CWSTRTR\000"
 21857      52545200 
 21858              	.LASF36:
 21859 17f5 5F5F746D 		.ascii	"__tm_sec\000"
 21859      5F736563 
 21859      00
 21860              	.LASF831:
 21861 17fe 696E5F6D 		.ascii	"in_multiplier\000"
 21861      756C7469 
 21861      706C6965 
 21861      7200
 21862              	.LASF457:
 21863 180c 4144435F 		.ascii	"ADC_ERROR\000"
 21863      4552524F 
 21863      5200
 21864              	.LASF45:
 21865 1816 5F6F6E5F 		.ascii	"_on_exit_args\000"
 21865      65786974 
 21865      5F617267 
 21865      7300
 21866              	.LASF891:
 21867 1824 41736562 		.ascii	"AsebaNativeDescription_mathcos\000"
 21867      614E6174 
 21867      69766544 
 21867      65736372 
 21867      69707469 
 21868              	.LASF316:
 21869 1843 636F6E74 		.ascii	"context\000"
 21869      65787400 
 21870              	.LASF149:
ARM GAS  C:\Users\PCHAUT~1\AppData\Local\Temp\ccLw8kky.s 			page 417


 21871 184b 746D6F64 		.ascii	"tmode_t\000"
 21871      655F7400 
 21872              	.LASF926:
 21873 1853 44434D49 		.ascii	"DCMI_ERROR\000"
 21873      5F455252 
 21873      4F5200
 21874              	.LASF455:
 21875 185e 4144435F 		.ascii	"ADC_ACTIVE\000"
 21875      41435449 
 21875      564500
 21876              	.LASF228:
 21877 1869 53515231 		.ascii	"SQR1\000"
 21877      00
 21878              	.LASF229:
 21879 186e 53515232 		.ascii	"SQR2\000"
 21879      00
 21880              	.LASF230:
 21881 1873 53515233 		.ascii	"SQR3\000"
 21881      00
 21882              	.LASF428:
 21883 1878 42535252 		.ascii	"BSRR\000"
 21883      00
 21884              	.LASF407:
 21885 187d 73746D33 		.ascii	"stm32_dma_stream_t\000"
 21885      325F646D 
 21885      615F7374 
 21885      7265616D 
 21885      5F7400
 21886              	.LASF836:
 21887 1890 72657175 		.ascii	"requests_hook_cb\000"
 21887      65737473 
 21887      5F686F6F 
 21887      6B5F6362 
 21887      00
 21888              	.LASF981:
 21889 18a1 574F5244 		.ascii	"WORD\000"
 21889      00
 21890              	.LASF119:
 21891 18a6 5F776372 		.ascii	"_wcrtomb_state\000"
 21891      746F6D62 
 21891      5F737461 
 21891      746500
 21892              	.LASF653:
 21893 18b5 5344435F 		.ascii	"SDC_MODE_8BIT\000"
 21893      4D4F4445 
 21893      5F384249 
 21893      5400
 21894              	.LASF814:
 21895 18c3 74787369 		.ascii	"txsize\000"
 21895      7A6500
 21896              	.LASF1053:
 21897 18ca 65727266 		.ascii	"errflags\000"
 21897      6C616773 
 21897      00
 21898              	.LASF528:
 21899 18d3 4441435F 		.ascii	"DAC_DHRM_12BIT_LEFT\000"
 21899      4448524D 
ARM GAS  C:\Users\PCHAUT~1\AppData\Local\Temp\ccLw8kky.s 			page 418


 21899      5F313242 
 21899      49545F4C 
 21899      45465400 
 21900              	.LASF624:
 21901 18e7 70657269 		.ascii	"period\000"
 21901      6F6400
 21902              	.LASF350:
 21903 18ee 6D5F7175 		.ascii	"m_queue\000"
 21903      65756500 
 21904              	.LASF877:
 21905 18f6 41736562 		.ascii	"AsebaNativeDescription_vecadd\000"
 21905      614E6174 
 21905      69766544 
 21905      65736372 
 21905      69707469 
 21906              	.LASF580:
 21907 1914 4932435F 		.ascii	"I2C_LOCKED\000"
 21907      4C4F434B 
 21907      454400
 21908              	.LASF210:
 21909 191f 6973725F 		.ascii	"isr_cnt\000"
 21909      636E7400 
 21910              	.LASF1092:
 21911 1927 636D645F 		.ascii	"cmd_config_erase\000"
 21911      636F6E66 
 21911      69675F65 
 21911      72617365 
 21911      00
 21912              	.LASF1102:
 21913 1938 72657375 		.ascii	"result\000"
 21913      6C7400
 21914              	.LASF705:
 21915 193f 5553425F 		.ascii	"USB_READY\000"
 21915      52454144 
 21915      5900
 21916              	.LASF650:
 21917 1949 72656164 		.ascii	"readt\000"
 21917      7400
 21918              	.LASF757:
 21919 194f 47525354 		.ascii	"GRSTCTL\000"
 21919      43544C00 
 21920              	.LASF554:
 21921 1957 67707473 		.ascii	"gptstate_t\000"
 21921      74617465 
 21921      5F7400
 21922              	.LASF140:
 21923 1962 696E7438 		.ascii	"int8_t\000"
 21923      5F7400
 21924              	.LASF29:
 21925 1969 5F5F554C 		.ascii	"__ULong\000"
 21925      6F6E6700 
 21926              	.LASF209:
 21927 1971 70616E69 		.ascii	"panic_msg\000"
 21927      635F6D73 
 21927      6700
 21928              	.LASF863:
 21929 197b 7368656C 		.ascii	"shell_terminated\000"
ARM GAS  C:\Users\PCHAUT~1\AppData\Local\Temp\ccLw8kky.s 			page 419


 21929      6C5F7465 
 21929      726D696E 
 21929      61746564 
 21929      00
 21930              	.LASF676:
 21931 198c 5350495F 		.ascii	"SPI_COMPLETE\000"
 21931      434F4D50 
 21931      4C455445 
 21931      00
 21932              	.LASF298:
 21933 1999 4454494D 		.ascii	"DTIMER\000"
 21933      455200
 21934              	.LASF193:
 21935 19a0 725F6E65 		.ascii	"r_newer\000"
 21935      77657200 
 21936              	.LASF722:
 21937 19a8 5553425F 		.ascii	"USB_EVENT_STALLED\000"
 21937      4556454E 
 21937      545F5354 
 21937      414C4C45 
 21937      4400
 21938              	.LASF1000:
 21939 19ba 666C6167 		.ascii	"flag\000"
 21939      00
 21940              	.LASF372:
 21941 19bf 63686465 		.ascii	"chdebug_t\000"
 21941      6275675F 
 21941      7400
 21942              	.LASF878:
 21943 19c9 41736562 		.ascii	"AsebaNativeDescription_vecsub\000"
 21943      614E6174 
 21943      69766544 
 21943      65736372 
 21943      69707469 
 21944              	.LASF985:
 21945 19e7 6373697A 		.ascii	"csize\000"
 21945      6500
 21946              	.LASF820:
 21947 19ed 72787369 		.ascii	"rxsize\000"
 21947      7A6500
 21948              	.LASF736:
 21949 19f4 48435453 		.ascii	"HCTSIZ\000"
 21949      495A00
 21950              	.LASF719:
 21951 19fb 5553425F 		.ascii	"USB_EVENT_CONFIGURED\000"
 21951      4556454E 
 21951      545F434F 
 21951      4E464947 
 21951      55524544 
 21952              	.LASF668:
 21953 1a10 64697363 		.ascii	"disconnect\000"
 21953      6F6E6E65 
 21953      637400
 21954              	.LASF962:
 21955 1a1b 6F70746F 		.ascii	"optopt\000"
 21955      707400
 21956              	.LASF647:
ARM GAS  C:\Users\PCHAUT~1\AppData\Local\Temp\ccLw8kky.s 			page 420


 21957 1a22 70757474 		.ascii	"putt\000"
 21957      00
 21958              	.LASF152:
 21959 1a27 74736C69 		.ascii	"tslices_t\000"
 21959      6365735F 
 21959      7400
 21960              	.LASF104:
 21961 1a31 5F737472 		.ascii	"_strtok_last\000"
 21961      746F6B5F 
 21961      6C617374 
 21961      00
 21962              	.LASF1035:
 21963 1a3e 62756632 		.ascii	"buf2\000"
 21963      00
 21964              	.LASF359:
 21965 1a43 63685F74 		.ascii	"ch_timesize\000"
 21965      696D6573 
 21965      697A6500 
 21966              	.LASF701:
 21967 1a4f 77615F70 		.ascii	"wa_pump\000"
 21967      756D7000 
 21968              	.LASF303:
 21969 1a57 4649464F 		.ascii	"FIFOCNT\000"
 21969      434E5400 
 21970              	.LASF384:
 21971 1a5f 6576656E 		.ascii	"event_source_t\000"
 21971      745F736F 
 21971      75726365 
 21971      5F7400
 21972              	.LASF771:
 21973 1a6e 72657376 		.ascii	"resvd140\000"
 21973      64313430 
 21973      00
 21974              	.LASF201:
 21975 1a77 76745F64 		.ascii	"vt_delta\000"
 21975      656C7461 
 21975      00
 21976              	.LASF100:
 21977 1a80 5F736565 		.ascii	"_seed\000"
 21977      6400
 21978              	.LASF324:
 21979 1a86 74625F70 		.ascii	"tb_ptr\000"
 21979      747200
 21980              	.LASF531:
 21981 1a8d 74726967 		.ascii	"trigger\000"
 21981      67657200 
 21982              	.LASF63:
 21983 1a95 5F736565 		.ascii	"_seek\000"
 21983      6B00
 21984              	.LASF720:
 21985 1a9b 5553425F 		.ascii	"USB_EVENT_SUSPEND\000"
 21985      4556454E 
 21985      545F5355 
 21985      5350454E 
 21985      4400
 21986              	.LASF142:
 21987 1aad 696E7431 		.ascii	"int16_t\000"
ARM GAS  C:\Users\PCHAUT~1\AppData\Local\Temp\ccLw8kky.s 			page 421


 21987      365F7400 
 21988              	.LASF550:
 21989 1ab5 4750545F 		.ascii	"GPT_STOP\000"
 21989      53544F50 
 21989      00
 21990              	.LASF236:
 21991 1abe 4144435F 		.ascii	"ADC_TypeDef\000"
 21991      54797065 
 21991      44656600 
 21992              	.LASF749:
 21993 1aca 444F4550 		.ascii	"DOEPCTL\000"
 21993      43544C00 
 21994              	.LASF11:
 21995 1ad2 73686F72 		.ascii	"short unsigned int\000"
 21995      7420756E 
 21995      7369676E 
 21995      65642069 
 21995      6E7400
 21996              	.LASF592:
 21997 1ae5 6F705F6D 		.ascii	"op_mode\000"
 21997      6F646500 
 21998              	.LASF5:
 21999 1aed 7369676E 		.ascii	"signed char\000"
 21999      65642063 
 21999      68617200 
 22000              	.LASF946:
 22001 1af9 70617261 		.ascii	"parameter_t\000"
 22001      6D657465 
 22001      725F7400 
 22002              	.LASF629:
 22003 1b05 70776D63 		.ascii	"pwmchnmsk_t\000"
 22003      686E6D73 
 22003      6B5F7400 
 22004              	.LASF173:
 22005 1b11 705F7072 		.ascii	"p_preempt\000"
 22005      65656D70 
 22005      7400
 22006              	.LASF606:
 22007 1b1b 4932535F 		.ascii	"I2S_READY\000"
 22007      52454144 
 22007      5900
 22008              	.LASF158:
 22009 1b25 75636E74 		.ascii	"ucnt_t\000"
 22009      5F7400
 22010              	.LASF239:
 22011 1b2c 54444852 		.ascii	"TDHR\000"
 22011      00
 22012              	.LASF993:
 22013 1b31 6673697A 		.ascii	"fsize\000"
 22013      6500
 22014              	.LASF453:
 22015 1b37 4144435F 		.ascii	"ADC_STOP\000"
 22015      53544F50 
 22015      00
 22016              	.LASF713:
 22017 1b40 5553425F 		.ascii	"USB_EP0_RX\000"
 22017      4550305F 
ARM GAS  C:\Users\PCHAUT~1\AppData\Local\Temp\ccLw8kky.s 			page 422


 22017      525800
 22018              	.LASF131:
 22019 1b4b 5F5F6664 		.ascii	"__fdlibm_ieee\000"
 22019      6C69626D 
 22019      5F696565 
 22019      6500
 22020              	.LASF627:
 22021 1b59 70776D6D 		.ascii	"pwmmode_t\000"
 22021      6F64655F 
 22021      7400
 22022              	.LASF1059:
 22023 1b63 636D645F 		.ascii	"cmd_volume\000"
 22023      766F6C75 
 22023      6D6500
 22024              	.LASF694:
 22025 1b6e 73746174 		.ascii	"status\000"
 22025      757300
 22026              	.LASF299:
 22027 1b75 444C454E 		.ascii	"DLEN\000"
 22027      00
 22028              	.LASF652:
 22029 1b7a 5344435F 		.ascii	"SDC_MODE_4BIT\000"
 22029      4D4F4445 
 22029      5F344249 
 22029      5400
 22030              	.LASF726:
 22031 1b88 55534244 		.ascii	"USBDescriptor\000"
 22031      65736372 
 22031      6970746F 
 22031      7200
 22032              	.LASF839:
 22033 1b96 55534244 		.ascii	"USBD1\000"
 22033      3100
 22034              	.LASF1042:
 22035 1b9c 636D645F 		.ascii	"cmd_height\000"
 22035      68656967 
 22035      687400
 22036              	.LASF679:
 22037 1ba7 73706963 		.ascii	"spicallback_t\000"
 22037      616C6C62 
 22037      61636B5F 
 22037      7400
 22038              	.LASF1017:
 22039 1bb5 46525F49 		.ascii	"FR_INVALID_OBJECT\000"
 22039      4E56414C 
 22039      49445F4F 
 22039      424A4543 
 22039      5400
 22040              	.LASF1151:
 22041 1bc7 5F5F6675 		.ascii	"__func__\000"
 22041      6E635F5F 
 22041      00
 22042              	.LASF87:
 22043 1bd0 5F667265 		.ascii	"_freelist\000"
 22043      656C6973 
 22043      7400
 22044              	.LASF1121:
ARM GAS  C:\Users\PCHAUT~1\AppData\Local\Temp\ccLw8kky.s 			page 423


 22045 1bda 636D645F 		.ascii	"cmd_setlabel\000"
 22045      7365746C 
 22045      6162656C 
 22045      00
 22046              	.LASF695:
 22047 1be7 61646472 		.ascii	"address\000"
 22047      65737300 
 22048              	.LASF176:
 22049 1bef 705F6D73 		.ascii	"p_msgqueue\000"
 22049      67717565 
 22049      756500
 22050              	.LASF369:
 22051 1bfa 63665F6F 		.ascii	"cf_off_refs\000"
 22051      66665F72 
 22051      65667300 
 22052              	.LASF367:
 22053 1c06 63665F6F 		.ascii	"cf_off_state\000"
 22053      66665F73 
 22053      74617465 
 22053      00
 22054              	.LASF351:
 22055 1c13 6D5F6F77 		.ascii	"m_owner\000"
 22055      6E657200 
 22056              	.LASF68:
 22057 1c1b 5F6F6666 		.ascii	"_offset\000"
 22057      73657400 
 22058              	.LASF954:
 22059 1c23 5F706172 		.ascii	"_param_val_vector_s\000"
 22059      616D5F76 
 22059      616C5F76 
 22059      6563746F 
 22059      725F7300 
 22060              	.LASF221:
 22061 1c37 53797374 		.ascii	"SystemCoreClock\000"
 22061      656D436F 
 22061      7265436C 
 22061      6F636B00 
 22062              	.LASF475:
 22063 1c47 61646365 		.ascii	"adcerrorcallback_t\000"
 22063      72726F72 
 22063      63616C6C 
 22063      6261636B 
 22063      5F7400
 22064              	.LASF510:
 22065 1c5a 4441435F 		.ascii	"DAC_ACTIVE\000"
 22065      41435449 
 22065      564500
 22066              	.LASF852:
 22067 1c65 74657374 		.ascii	"test_global_fail\000"
 22067      5F676C6F 
 22067      62616C5F 
 22067      6661696C 
 22067      00
 22068              	.LASF1070:
 22069 1c76 636D645F 		.ascii	"cmd_cam_send\000"
 22069      63616D5F 
 22069      73656E64 
ARM GAS  C:\Users\PCHAUT~1\AppData\Local\Temp\ccLw8kky.s 			page 424


 22069      00
 22070              	.LASF465:
 22071 1c83 73746174 		.ascii	"state\000"
 22071      6500
 22072              	.LASF908:
 22073 1c89 464F524D 		.ascii	"FORMAT_RGB444\000"
 22073      41545F52 
 22073      47423434 
 22073      3400
 22074              	.LASF357:
 22075 1c97 63685F76 		.ascii	"ch_version\000"
 22075      65727369 
 22075      6F6E00
 22076              	.LASF53:
 22077 1ca2 5F5F7362 		.ascii	"__sbuf\000"
 22077      756600
 22078              	.LASF660:
 22079 1ca9 7364696F 		.ascii	"sdio\000"
 22079      00
 22080              	.LASF262:
 22081 1cae 53575452 		.ascii	"SWTRIGR\000"
 22081      49475200 
 22082              	.LASF712:
 22083 1cb6 5553425F 		.ascii	"USB_EP0_WAITING_STS\000"
 22083      4550305F 
 22083      57414954 
 22083      494E475F 
 22083      53545300 
 22084              	.LASF113:
 22085 1cca 5F6C3634 		.ascii	"_l64a_buf\000"
 22085      615F6275 
 22085      6600
 22086              	.LASF243:
 22087 1cd4 52444852 		.ascii	"RDHR\000"
 22087      00
 22088              	.LASF1104:
 22089 1cd9 696E7075 		.ascii	"input\000"
 22089      7400
 22090              	.LASF901:
 22091 1cdf 464F524D 		.ascii	"FORMAT_GBRG\000"
 22091      41545F47 
 22091      42524700 
 22092              	.LASF564:
 22093 1ceb 444D4152 		.ascii	"DMAR\000"
 22093      00
 22094              	.LASF570:
 22095 1cf0 63616C6C 		.ascii	"callback\000"
 22095      6261636B 
 22095      00
 22096              	.LASF214:
 22097 1cf9 63685F73 		.ascii	"ch_system\000"
 22097      79737465 
 22097      6D00
 22098              	.LASF291:
 22099 1d03 504F5745 		.ascii	"POWER\000"
 22099      5200
 22100              	.LASF1067:
ARM GAS  C:\Users\PCHAUT~1\AppData\Local\Temp\ccLw8kky.s 			page 425


 22101 1d09 636D645F 		.ascii	"cmd_set_led\000"
 22101      7365745F 
 22101      6C656400 
 22102              	.LASF212:
 22103 1d15 74726163 		.ascii	"trace_buffer\000"
 22103      655F6275 
 22103      66666572 
 22103      00
 22104              	.LASF105:
 22105 1d22 5F617363 		.ascii	"_asctime_buf\000"
 22105      74696D65 
 22105      5F627566 
 22105      00
 22106              	.LASF529:
 22107 1d2f 4441435F 		.ascii	"DAC_DHRM_8BIT_RIGHT\000"
 22107      4448524D 
 22107      5F384249 
 22107      545F5249 
 22107      47485400 
 22108              	.LASF549:
 22109 1d43 4750545F 		.ascii	"GPT_UNINIT\000"
 22109      554E494E 
 22109      495400
 22110              	.LASF22:
 22111 1d4e 5F5F7763 		.ascii	"__wch\000"
 22111      6800
 22112              	.LASF1034:
 22113 1d54 4D4C5F46 		.ascii	"ML_FORCE_CHANGE\000"
 22113      4F524345 
 22113      5F434841 
 22113      4E474500 
 22114              	.LASF346:
 22115 1d64 63685F73 		.ascii	"ch_semaphore\000"
 22115      656D6170 
 22115      686F7265 
 22115      00
 22116              	.LASF1002:
 22117 1d71 73636C75 		.ascii	"sclust\000"
 22117      737400
 22118              	.LASF873:
 22119 1d78 41736562 		.ascii	"AsebaNativeFunctionDescription\000"
 22119      614E6174 
 22119      69766546 
 22119      756E6374 
 22119      696F6E44 
 22120              	.LASF120:
 22121 1d97 5F776373 		.ascii	"_wcsrtombs_state\000"
 22121      72746F6D 
 22121      62735F73 
 22121      74617465 
 22121      00
 22122              	.LASF850:
 22123 1da8 53657269 		.ascii	"SerialUSBDriverVMT\000"
 22123      616C5553 
 22123      42447269 
 22123      76657256 
 22123      4D5400
ARM GAS  C:\Users\PCHAUT~1\AppData\Local\Temp\ccLw8kky.s 			page 426


 22124              	.LASF928:
 22125 1dbb 64636D69 		.ascii	"dcmistate_t\000"
 22125      73746174 
 22125      655F7400 
 22126              	.LASF885:
 22127 1dc7 41736562 		.ascii	"AsebaNativeDescription_vecstat\000"
 22127      614E6174 
 22127      69766544 
 22127      65736372 
 22127      69707469 
 22128              	.LASF745:
 22129 1de6 44494550 		.ascii	"DIEPTSIZ\000"
 22129      5453495A 
 22129      00
 22130              	.LASF1143:
 22131 1def 706F7274 		.ascii	"port_unlock\000"
 22131      5F756E6C 
 22131      6F636B00 
 22132              	.LASF952:
 22133 1dfb 5F706172 		.ascii	"_param_val_str_s\000"
 22133      616D5F76 
 22133      616C5F73 
 22133      74725F73 
 22133      00
 22134              	.LASF480:
 22135 1e0c 736D7072 		.ascii	"smpr1\000"
 22135      3100
 22136              	.LASF481:
 22137 1e12 736D7072 		.ascii	"smpr2\000"
 22137      3200
 22138              	.LASF186:
 22139 1e18 74687265 		.ascii	"threads_queue_t\000"
 22139      6164735F 
 22139      71756575 
 22139      655F7400 
 22140              	.LASF418:
 22141 1e28 626C6B73 		.ascii	"blkstate_t\000"
 22141      74617465 
 22141      5F7400
 22142              	.LASF1148:
 22143 1e33 5F5F6664 		.ascii	"__fdlibm_version\000"
 22143      6C69626D 
 22143      5F766572 
 22143      73696F6E 
 22143      00
 22144              	.LASF1152:
 22145 1e44 63685379 		.ascii	"chSysLock\000"
 22145      734C6F63 
 22145      6B00
 22146              	.LASF174:
 22147 1e4e 705F7469 		.ascii	"p_time\000"
 22147      6D6500
 22148              	.LASF172:
 22149 1e55 705F7265 		.ascii	"p_refs\000"
 22149      667300
 22150              	.LASF823:
 22151 1e5c 65705F6D 		.ascii	"ep_mode\000"
ARM GAS  C:\Users\PCHAUT~1\AppData\Local\Temp\ccLw8kky.s 			page 427


 22151      6F646500 
 22152              	.LASF628:
 22153 1e64 70776D63 		.ascii	"pwmchannel_t\000"
 22153      68616E6E 
 22153      656C5F74 
 22153      00
 22154              	.LASF982:
 22155 1e71 55494E54 		.ascii	"UINT\000"
 22155      00
 22156              	.LASF882:
 22157 1e76 41736562 		.ascii	"AsebaNativeDescription_vecmax\000"
 22157      614E6174 
 22157      69766544 
 22157      65736372 
 22157      69707469 
 22158              	.LASF238:
 22159 1e94 54444C52 		.ascii	"TDLR\000"
 22159      00
 22160              	.LASF13:
 22161 1e99 6C6F6E67 		.ascii	"long int\000"
 22161      20696E74 
 22161      00
 22162              	.LASF217:
 22163 1ea2 6D61696E 		.ascii	"mainthread\000"
 22163      74687265 
 22163      616400
 22164              	.LASF1129:
 22165 1ead 636D645F 		.ascii	"cmd_unmount\000"
 22165      756E6D6F 
 22165      756E7400 
 22166              	.LASF691:
 22167 1eb9 6570306E 		.ascii	"ep0n\000"
 22167      00
 22168              	.LASF804:
 22169 1ebe 72657376 		.ascii	"resvdE04\000"
 22169      64453034 
 22169      00
 22170              	.LASF582:
 22171 1ec7 69326361 		.ascii	"i2caddr_t\000"
 22171      6464725F 
 22171      7400
 22172              	.LASF112:
 22173 1ed1 5F776374 		.ascii	"_wctomb_state\000"
 22173      6F6D625F 
 22173      73746174 
 22173      6500
 22174              	.LASF517:
 22175 1edf 646D6169 		.ascii	"dmairqprio\000"
 22175      72717072 
 22175      696F00
 22176              	.LASF555:
 22177 1eea 47505444 		.ascii	"GPTDriver\000"
 22177      72697665 
 22177      7200
 22178              	.LASF1113:
 22179 1ef4 636D645F 		.ascii	"cmd_sound_file_stop\000"
 22179      736F756E 
ARM GAS  C:\Users\PCHAUT~1\AppData\Local\Temp\ccLw8kky.s 			page 428


 22179      645F6669 
 22179      6C655F73 
 22179      746F7000 
 22180              	.LASF997:
 22181 1f08 64617461 		.ascii	"database\000"
 22181      62617365 
 22181      00
 22182              	.LASF388:
 22183 1f11 715F636F 		.ascii	"q_counter\000"
 22183      756E7465 
 22183      7200
 22184              	.LASF447:
 22185 1f1b 50484461 		.ascii	"PHData\000"
 22185      746100
 22186              	.LASF450:
 22187 1f22 696F706F 		.ascii	"ioportid_t\000"
 22187      72746964 
 22187      5F7400
 22188              	.LASF972:
 22189 1f2d 6D657373 		.ascii	"messagebus_topic_t\000"
 22189      61676562 
 22189      75735F74 
 22189      6F706963 
 22189      5F7400
 22190              	.LASF488:
 22191 1f40 41444344 		.ascii	"ADCD1\000"
 22191      3100
 22192              	.LASF489:
 22193 1f46 41444344 		.ascii	"ADCD2\000"
 22193      3200
 22194              	.LASF490:
 22195 1f4c 41444344 		.ascii	"ADCD3\000"
 22195      3300
 22196              	.LASF990:
 22197 1f52 6C617374 		.ascii	"last_clust\000"
 22197      5F636C75 
 22197      737400
 22198              	.LASF772:
 22199 1f5d 48434647 		.ascii	"HCFG\000"
 22199      00
 22200              	.LASF473:
 22201 1f62 646D616D 		.ascii	"dmamode\000"
 22201      6F646500 
 22202              	.LASF332:
 22203 1f6a 63756D75 		.ascii	"cumulative\000"
 22203      6C617469 
 22203      766500
 22204              	.LASF98:
 22205 1f75 5F696F62 		.ascii	"_iobs\000"
 22205      7300
 22206              	.LASF79:
 22207 1f7b 5F656D65 		.ascii	"_emergency\000"
 22207      7267656E 
 22207      637900
 22208              	.LASF648:
 22209 1f86 67657474 		.ascii	"gett\000"
 22209      00
ARM GAS  C:\Users\PCHAUT~1\AppData\Local\Temp\ccLw8kky.s 			page 429


 22210              	.LASF342:
 22211 1f8b 77747472 		.ascii	"wttrp\000"
 22211      7000
 22212              	.LASF392:
 22213 1f91 715F7264 		.ascii	"q_rdptr\000"
 22213      70747200 
 22214              	.LASF122:
 22215 1f99 5F6E6578 		.ascii	"_nextf\000"
 22215      746600
 22216              	.LASF399:
 22217 1fa0 77726974 		.ascii	"write\000"
 22217      6500
 22218              	.LASF108:
 22219 1fa6 5F72616E 		.ascii	"_rand_next\000"
 22219      645F6E65 
 22219      787400
 22220              	.LASF643:
 22221 1fb1 69717565 		.ascii	"iqueue\000"
 22221      756500
 22222              	.LASF825:
 22223 1fb8 696E5F63 		.ascii	"in_cb\000"
 22223      6200
 22224              	.LASF750:
 22225 1fbe 444F4550 		.ascii	"DOEPINT\000"
 22225      494E5400 
 22226              	.LASF331:
 22227 1fc6 6C617374 		.ascii	"last\000"
 22227      00
 22228              	.LASF899:
 22229 1fcb 464F524D 		.ascii	"FORMAT_YCRYCB\000"
 22229      41545F59 
 22229      43525943 
 22229      4200
 22230              	.LASF429:
 22231 1fd9 4C434B52 		.ascii	"LCKR\000"
 22231      00
 22232              	.LASF640:
 22233 1fde 73647374 		.ascii	"sdstate_t\000"
 22233      6174655F 
 22233      7400
 22234              	.LASF1045:
 22235 1fe8 7368656C 		.ascii	"shelltp\000"
 22235      6C747000 
 22236              	.LASF145:
 22237 1ff0 75696E74 		.ascii	"uint32_t\000"
 22237      33325F74 
 22237      00
 22238              	.LASF1061:
 22239 1ff9 636D645F 		.ascii	"cmd_audio_play\000"
 22239      61756469 
 22239      6F5F706C 
 22239      617900
 22240              	.LASF1106:
 22241 2008 636D645F 		.ascii	"cmd_test\000"
 22241      74657374 
 22241      00
 22242              	.LASF514:
ARM GAS  C:\Users\PCHAUT~1\AppData\Local\Temp\ccLw8kky.s 			page 430


 22243 2011 64617461 		.ascii	"dataoffset\000"
 22243      6F666673 
 22243      657400
 22244              	.LASF31:
 22245 201c 5F6D6178 		.ascii	"_maxwds\000"
 22245      77647300 
 22246              	.LASF416:
 22247 2024 424C4B5F 		.ascii	"BLK_WRITING\000"
 22247      57524954 
 22247      494E4700 
 22248              	.LASF242:
 22249 2030 52444C52 		.ascii	"RDLR\000"
 22249      00
 22250              	.LASF874:
 22251 2035 41736562 		.ascii	"AsebaNativeDescription_veccopy\000"
 22251      614E6174 
 22251      69766544 
 22251      65736372 
 22251      69707469 
 22252              	.LASF937:
 22253 2054 43415054 		.ascii	"CAPTURE_ONE_SHOT\000"
 22253      5552455F 
 22253      4F4E455F 
 22253      53484F54 
 22253      00
 22254              	.LASF1144:
 22255 2065 706F7274 		.ascii	"port_lock\000"
 22255      5F6C6F63 
 22255      6B00
 22256              	.LASF2:
 22257 206f 6C6F6E67 		.ascii	"long double\000"
 22257      20646F75 
 22257      626C6500 
 22258              	.LASF314:
 22259 207b 72656761 		.ascii	"regarm_t\000"
 22259      726D5F74 
 22259      00
 22260              	.LASF155:
 22261 2084 6576656E 		.ascii	"eventmask_t\000"
 22261      746D6173 
 22261      6B5F7400 
 22262              	.LASF1099:
 22263 2090 73747269 		.ascii	"string_buf\000"
 22263      6E675F62 
 22263      756600
 22264              	.LASF468:
 22265 209b 64657074 		.ascii	"depth\000"
 22265      6800
 22266              	.LASF256:
 22267 20a1 46464131 		.ascii	"FFA1R\000"
 22267      5200
 22268              	.LASF247:
 22269 20a7 52463152 		.ascii	"RF1R\000"
 22269      00
 22270              	.LASF706:
 22271 20ac 5553425F 		.ascii	"USB_SELECTED\000"
 22271      53454C45 
ARM GAS  C:\Users\PCHAUT~1\AppData\Local\Temp\ccLw8kky.s 			page 431


 22271      43544544 
 22271      00
 22272              	.LASF494:
 22273 20b9 43414E5F 		.ascii	"CAN_READY\000"
 22273      52454144 
 22273      5900
 22274              	.LASF15:
 22275 20c3 6C6F6E67 		.ascii	"long unsigned int\000"
 22275      20756E73 
 22275      69676E65 
 22275      6420696E 
 22275      7400
 22276              	.LASF698:
 22277 20d5 706D6E65 		.ascii	"pmnext\000"
 22277      787400
 22278              	.LASF1087:
 22279 20dc 636D645F 		.ascii	"cmd_config_load\000"
 22279      636F6E66 
 22279      69675F6C 
 22279      6F616400 
 22280              	.LASF607:
 22281 20ec 4932535F 		.ascii	"I2S_ACTIVE\000"
 22281      41435449 
 22281      564500
 22282              	.LASF551:
 22283 20f7 4750545F 		.ascii	"GPT_READY\000"
 22283      52454144 
 22283      5900
 22284              	.LASF513:
 22285 2101 64616373 		.ascii	"dacstate_t\000"
 22285      74617465 
 22285      5F7400
 22286              	.LASF927:
 22287 210c 44434D49 		.ascii	"DCMI_TIMEOUT\000"
 22287      5F54494D 
 22287      454F5554 
 22287      00
 22288              	.LASF319:
 22289 2119 73655F74 		.ascii	"se_tp\000"
 22289      7000
 22290              	.LASF391:
 22291 211f 715F7772 		.ascii	"q_wrptr\000"
 22291      70747200 
 22292              	.LASF1125:
 22293 2127 636D645F 		.ascii	"cmd_tree\000"
 22293      74726565 
 22293      00
 22294              	.LASF521:
 22295 2130 64616373 		.ascii	"dacsample_t\000"
 22295      616D706C 
 22295      655F7400 
 22296              	.LASF718:
 22297 213c 5553425F 		.ascii	"USB_EVENT_ADDRESS\000"
 22297      4556454E 
 22297      545F4144 
 22297      44524553 
 22297      5300
ARM GAS  C:\Users\PCHAUT~1\AppData\Local\Temp\ccLw8kky.s 			page 432


 22298              	.LASF615:
 22299 214e 69327363 		.ascii	"i2scfgr\000"
 22299      66677200 
 22300              	.LASF841:
 22301 2156 5344555F 		.ascii	"SDU_STOP\000"
 22301      53544F50 
 22301      00
 22302              	.LASF293:
 22303 215f 52455350 		.ascii	"RESPCMD\000"
 22303      434D4400 
 22304              	.LASF500:
 22305 2167 72786675 		.ascii	"rxfull_event\000"
 22305      6C6C5F65 
 22305      76656E74 
 22305      00
 22306              	.LASF723:
 22307 2174 75736265 		.ascii	"usbevent_t\000"
 22307      76656E74 
 22307      5F7400
 22308              	.LASF64:
 22309 217f 5F636C6F 		.ascii	"_close\000"
 22309      736500
 22310              	.LASF28:
 22311 2186 63686172 		.ascii	"char\000"
 22311      00
 22312              	.LASF918:
 22313 218b 44434D49 		.ascii	"DCMI_ERR_OVERFLOW\000"
 22313      5F455252 
 22313      5F4F5645 
 22313      52464C4F 
 22313      5700
 22314              	.LASF277:
 22315 219d 45534352 		.ascii	"ESCR\000"
 22315      00
 22316              	.LASF497:
 22317 21a2 43414E43 		.ascii	"CANConfig\000"
 22317      6F6E6669 
 22317      6700
 22318              	.LASF444:
 22319 21ac 50454461 		.ascii	"PEData\000"
 22319      746100
 22320              	.LASF190:
 22321 21b3 725F7175 		.ascii	"r_queue\000"
 22321      65756500 
 22322              	.LASF96:
 22323 21bb 5F676C75 		.ascii	"_glue\000"
 22323      6500
 22324              	.LASF1132:
 22325 21c1 63687072 		.ascii	"chprintf\000"
 22325      696E7466 
 22325      00
 22326              	.LASF976:
 22327 21ca 6D657373 		.ascii	"messagebus_watchgroup_s\000"
 22327      61676562 
 22327      75735F77 
 22327      61746368 
 22327      67726F75 
ARM GAS  C:\Users\PCHAUT~1\AppData\Local\Temp\ccLw8kky.s 			page 433


 22328              	.LASF663:
 22329 21e2 53444343 		.ascii	"SDCConfig\000"
 22329      6F6E6669 
 22329      6700
 22330              	.LASF625:
 22331 21ec 656E6162 		.ascii	"enabled\000"
 22331      6C656400 
 22332              	.LASF522:
 22333 21f4 4441435F 		.ascii	"DAC_ERR_DMAFAILURE\000"
 22333      4552525F 
 22333      444D4146 
 22333      41494C55 
 22333      524500
 22334              	.LASF762:
 22335 2207 47525846 		.ascii	"GRXFSIZ\000"
 22335      53495A00 
 22336              	.LASF669:
 22337 220f 73796E63 		.ascii	"sync\000"
 22337      00
 22338              	.LASF645:
 22339 2214 75736172 		.ascii	"usart\000"
 22339      7400
 22340              	.LASF1062:
 22341 221a 66726571 		.ascii	"freq\000"
 22341      00
 22342              	.LASF280:
 22343 221f 43575349 		.ascii	"CWSIZER\000"
 22343      5A455200 
 22344              	.LASF655:
 22345 2227 7364636D 		.ascii	"sdcmode_t\000"
 22345      6F64655F 
 22345      7400
 22346              	.LASF394:
 22347 2231 715F6C69 		.ascii	"q_link\000"
 22347      6E6B00
 22348              	.LASF1028:
 22349 2238 46524553 		.ascii	"FRESULT\000"
 22349      554C5400 
 22350              	.LASF925:
 22351 2240 44434D49 		.ascii	"DCMI_COMPLETE\000"
 22351      5F434F4D 
 22351      504C4554 
 22351      4500
 22352              	.LASF932:
 22353 224e 64636D69 		.ascii	"dcmierrorcallback_t\000"
 22353      6572726F 
 22353      7263616C 
 22353      6C626163 
 22353      6B5F7400 
 22354              	.LASF1012:
 22355 2262 46525F4E 		.ascii	"FR_NO_FILE\000"
 22355      4F5F4649 
 22355      4C4500
 22356              	.LASF783:
 22357 226d 44434647 		.ascii	"DCFG\000"
 22357      00
 22358              	.LASF34:
ARM GAS  C:\Users\PCHAUT~1\AppData\Local\Temp\ccLw8kky.s 			page 434


 22359 2272 5F426967 		.ascii	"_Bigint\000"
 22359      696E7400 
 22360              	.LASF1135:
 22361 227a 63685468 		.ascii	"chThdGetSelfX\000"
 22361      64476574 
 22361      53656C66 
 22361      5800
 22362              	.LASF793:
 22363 2288 44564255 		.ascii	"DVBUSDIS\000"
 22363      53444953 
 22363      00
 22364              	.LASF904:
 22365 2291 464F524D 		.ascii	"FORMAT_RGB565\000"
 22365      41545F52 
 22365      47423536 
 22365      3500
 22366              	.LASF759:
 22367 229f 47494E54 		.ascii	"GINTMSK\000"
 22367      4D534B00 
 22368              	.LASF1091:
 22369 22a7 5F636F6E 		.ascii	"_config_end\000"
 22369      6669675F 
 22369      656E6400 
 22370              	.LASF764:
 22371 22b3 484E5054 		.ascii	"HNPTXSTS\000"
 22371      58535453 
 22371      00
 22372              	.LASF696:
 22373 22bc 636F6E66 		.ascii	"configuration\000"
 22373      69677572 
 22373      6174696F 
 22373      6E00
 22374              	.LASF902:
 22375 22ca 464F524D 		.ascii	"FORMAT_GRBG\000"
 22375      41545F47 
 22375      52424700 
 22376              	.LASF91:
 22377 22d6 5F617465 		.ascii	"_atexit0\000"
 22377      78697430 
 22377      00
 22378              	.LASF439:
 22379 22df 73746D33 		.ascii	"stm32_gpio_setup_t\000"
 22379      325F6770 
 22379      696F5F73 
 22379      65747570 
 22379      5F7400
 22380              	.LASF1033:
 22381 22f2 4D4C5F57 		.ascii	"ML_WAIT_AND_CHANGE\000"
 22381      4149545F 
 22381      414E445F 
 22381      4348414E 
 22381      474500
 22382              	.LASF408:
 22383 2305 5F73746D 		.ascii	"_stm32_dma_streams\000"
 22383      33325F64 
 22383      6D615F73 
 22383      74726561 
ARM GAS  C:\Users\PCHAUT~1\AppData\Local\Temp\ccLw8kky.s 			page 435


 22383      6D7300
 22384              	.LASF264:
 22385 2318 44485231 		.ascii	"DHR12L1\000"
 22385      324C3100 
 22386              	.LASF267:
 22387 2320 44485231 		.ascii	"DHR12L2\000"
 22387      324C3200 
 22388              	.LASF115:
 22389 2328 5F676574 		.ascii	"_getdate_err\000"
 22389      64617465 
 22389      5F657272 
 22389      00
 22390              	.LASF654:
 22391 2335 73646362 		.ascii	"sdcbusmode_t\000"
 22391      75736D6F 
 22391      64655F74 
 22391      00
 22392              	.LASF270:
 22393 2342 44485231 		.ascii	"DHR12LD\000"
 22393      324C4400 
 22394              	.LASF218:
 22395 234a 6B65726E 		.ascii	"kernel_stats\000"
 22395      656C5F73 
 22395      74617473 
 22395      00
 22396              	.LASF474:
 22397 2357 61646363 		.ascii	"adccallback_t\000"
 22397      616C6C62 
 22397      61636B5F 
 22397      7400
 22398              	.LASF978:
 22399 2365 6D657373 		.ascii	"messagebus_watchgroup_t\000"
 22399      61676562 
 22399      75735F77 
 22399      61746368 
 22399      67726F75 
 22400              	.LASF169:
 22401 237d 705F7374 		.ascii	"p_stklimit\000"
 22401      6B6C696D 
 22401      697400
 22402              	.LASF988:
 22403 2388 6673695F 		.ascii	"fsi_flag\000"
 22403      666C6167 
 22403      00
 22404              	.LASF1020:
 22405 2391 46525F4E 		.ascii	"FR_NOT_ENABLED\000"
 22405      4F545F45 
 22405      4E41424C 
 22405      454400
 22406              	.LASF157:
 22407 23a0 636E745F 		.ascii	"cnt_t\000"
 22407      7400
 22408              	.LASF540:
 22409 23a6 65787473 		.ascii	"extstate_t\000"
 22409      74617465 
 22409      5F7400
 22410              	.LASF711:
ARM GAS  C:\Users\PCHAUT~1\AppData\Local\Temp\ccLw8kky.s 			page 436


 22411 23b1 5553425F 		.ascii	"USB_EP0_WAITING_TX0\000"
 22411      4550305F 
 22411      57414954 
 22411      494E475F 
 22411      54583000 
 22412              	.LASF892:
 22413 23c5 41736562 		.ascii	"AsebaNativeDescription_mathrot2\000"
 22413      614E6174 
 22413      69766544 
 22413      65736372 
 22413      69707469 
 22414              	.LASF690:
 22415 23e5 6570306E 		.ascii	"ep0next\000"
 22415      65787400 
 22416              	.LASF740:
 22417 23ed 73746D33 		.ascii	"stm32_otg_host_chn_t\000"
 22417      325F6F74 
 22417      675F686F 
 22417      73745F63 
 22417      686E5F74 
 22418              	.LASF431:
 22419 2402 41465248 		.ascii	"AFRH\000"
 22419      00
 22420              	.LASF851:
 22421 2407 62756666 		.ascii	"buffer\000"
 22421      657200
 22422              	.LASF430:
 22423 240e 4146524C 		.ascii	"AFRL\000"
 22423      00
 22424              	.LASF907:
 22425 2413 464F524D 		.ascii	"FORMAT_BGR565_BYTE_SWAP\000"
 22425      41545F42 
 22425      47523536 
 22425      355F4259 
 22425      54455F53 
 22426              	.LASF881:
 22427 242b 41736562 		.ascii	"AsebaNativeDescription_vecmin\000"
 22427      614E6174 
 22427      69766544 
 22427      65736372 
 22427      69707469 
 22428              	.LASF854:
 22429 2449 74657374 		.ascii	"test\000"
 22429      00
 22430              	.LASF127:
 22431 244e 5F696D70 		.ascii	"_impure_ptr\000"
 22431      7572655F 
 22431      70747200 
 22432              	.LASF370:
 22433 245a 63665F6F 		.ascii	"cf_off_preempt\000"
 22433      66665F70 
 22433      7265656D 
 22433      707400
 22434              	.LASF857:
 22435 2469 73635F6E 		.ascii	"sc_name\000"
 22435      616D6500 
 22436              	.LASF511:
ARM GAS  C:\Users\PCHAUT~1\AppData\Local\Temp\ccLw8kky.s 			page 437


 22437 2471 4441435F 		.ascii	"DAC_COMPLETE\000"
 22437      434F4D50 
 22437      4C455445 
 22437      00
 22438              	.LASF67:
 22439 247e 5F626C6B 		.ascii	"_blksize\000"
 22439      73697A65 
 22439      00
 22440              	.LASF1066:
 22441 2487 73706565 		.ascii	"speed_right\000"
 22441      645F7269 
 22441      67687400 
 22442              	.LASF735:
 22443 2493 4843494E 		.ascii	"HCINTMSK\000"
 22443      544D534B 
 22443      00
 22444              	.LASF65:
 22445 249c 5F756275 		.ascii	"_ubuf\000"
 22445      6600
 22446              	.LASF466:
 22447 24a2 636F6E66 		.ascii	"config\000"
 22447      696700
 22448              	.LASF574:
 22449 24a9 47505444 		.ascii	"GPTD11\000"
 22449      313100
 22450              	.LASF110:
 22451 24b0 5F6D626C 		.ascii	"_mblen_state\000"
 22451      656E5F73 
 22451      74617465 
 22451      00
 22452              	.LASF93:
 22453 24bd 5F5F7367 		.ascii	"__sglue\000"
 22453      6C756500 
 22454              	.LASF126:
 22455 24c5 5F5F6C6F 		.ascii	"__locale_t\000"
 22455      63616C65 
 22455      5F7400
 22456              	.LASF412:
 22457 24d0 424C4B5F 		.ascii	"BLK_CONNECTING\000"
 22457      434F4E4E 
 22457      45435449 
 22457      4E4700
 22458              	.LASF83:
 22459 24df 5F5F636C 		.ascii	"__cleanup\000"
 22459      65616E75 
 22459      7000
 22460              	.LASF886:
 22461 24e9 41736562 		.ascii	"AsebaNativeDescription_vecargbounds\000"
 22461      614E6174 
 22461      69766544 
 22461      65736372 
 22461      69707469 
 22462              	.LASF507:
 22463 250d 4441435F 		.ascii	"DAC_UNINIT\000"
 22463      554E494E 
 22463      495400
 22464              	.LASF460:
ARM GAS  C:\Users\PCHAUT~1\AppData\Local\Temp\ccLw8kky.s 			page 438


 22465 2518 6164635F 		.ascii	"adc_channels_num_t\000"
 22465      6368616E 
 22465      6E656C73 
 22465      5F6E756D 
 22465      5F7400
 22466              	.LASF196:
 22467 252b 76746675 		.ascii	"vtfunc_t\000"
 22467      6E635F74 
 22467      00
 22468              	.LASF244:
 22469 2534 43414E5F 		.ascii	"CAN_FIFOMailBox_TypeDef\000"
 22469      4649464F 
 22469      4D61696C 
 22469      426F785F 
 22469      54797065 
 22470              	.LASF274:
 22471 254c 4441435F 		.ascii	"DAC_TypeDef\000"
 22471      54797065 
 22471      44656600 
 22472              	.LASF1134:
 22473 2558 63685468 		.ascii	"chThdGetPriorityX\000"
 22473      64476574 
 22473      5072696F 
 22473      72697479 
 22473      5800
 22474              	.LASF341:
 22475 256a 77746F62 		.ascii	"wtobjp\000"
 22475      6A7000
 22476              	.LASF1088:
 22477 2571 5F636F6E 		.ascii	"_config_start\000"
 22477      6669675F 
 22477      73746172 
 22477      7400
 22478              	.LASF20:
 22479 257f 5F66706F 		.ascii	"_fpos_t\000"
 22479      735F7400 
 22480              	.LASF527:
 22481 2587 4441435F 		.ascii	"DAC_DHRM_12BIT_RIGHT\000"
 22481      4448524D 
 22481      5F313242 
 22481      49545F52 
 22481      49474854 
 22482              	.LASF58:
 22483 259c 5F66696C 		.ascii	"_file\000"
 22483      6500
 22484              	.LASF180:
 22485 25a2 705F7265 		.ascii	"p_realprio\000"
 22485      616C7072 
 22485      696F00
 22486              	.LASF658:
 22487 25ad 63617061 		.ascii	"capacity\000"
 22487      63697479 
 22487      00
 22488              	.LASF849:
 22489 25b6 53657269 		.ascii	"SerialUSBConfig\000"
 22489      616C5553 
 22489      42436F6E 
ARM GAS  C:\Users\PCHAUT~1\AppData\Local\Temp\ccLw8kky.s 			page 439


 22489      66696700 
 22490              	.LASF393:
 22491 25c6 715F6E6F 		.ascii	"q_notify\000"
 22491      74696679 
 22491      00
 22492              	.LASF344:
 22493 25cf 77746D74 		.ascii	"wtmtxp\000"
 22493      787000
 22494              	.LASF56:
 22495 25d6 5F5F7346 		.ascii	"__sFILE\000"
 22495      494C4500 
 22496              	.LASF1122:
 22497 25de 636D645F 		.ascii	"cmd_mkdir\000"
 22497      6D6B6469 
 22497      7200
 22498              	.LASF130:
 22499 25e8 646F7562 		.ascii	"double\000"
 22499      6C6500
 22500              	.LASF52:
 22501 25ef 5F666E73 		.ascii	"_fns\000"
 22501      00
 22502              	.LASF933:
 22503 25f4 6672616D 		.ascii	"frame_end_cb\000"
 22503      655F656E 
 22503      645F6362 
 22503      00
 22504              	.LASF1141:
 22505 2601 63685654 		.ascii	"chVTGetSystemTimeX\000"
 22505      47657453 
 22505      79737465 
 22505      6D54696D 
 22505      655800
 22506              	.LASF822:
 22507 2614 5553424F 		.ascii	"USBOutEndpointState\000"
 22507      7574456E 
 22507      64706F69 
 22507      6E745374 
 22507      61746500 
 22508              	.LASF779:
 22509 2628 72657376 		.ascii	"resvd41C\000"
 22509      64343143 
 22509      00
 22510              	.LASF948:
 22511 2631 6368616E 		.ascii	"changed\000"
 22511      67656400 
 22512              	.LASF26:
 22513 2639 5F6D6273 		.ascii	"_mbstate_t\000"
 22513      74617465 
 22513      5F7400
 22514              	.LASF121:
 22515 2644 5F685F65 		.ascii	"_h_errno\000"
 22515      72726E6F 
 22515      00
 22516              	.LASF1029:
 22517 264d 53465F53 		.ascii	"SF_SIMPLE_PLAY\000"
 22517      494D504C 
 22517      455F504C 
ARM GAS  C:\Users\PCHAUT~1\AppData\Local\Temp\ccLw8kky.s 			page 440


 22517      415900
 22518              	.LASF241:
 22519 265c 52445452 		.ascii	"RDTR\000"
 22519      00
 22520              	.LASF420:
 22521 2661 626C6B5F 		.ascii	"blk_num\000"
 22521      6E756D00 
 22522              	.LASF1149:
 22523 2669 74657374 		.ascii	"test_buffers\000"
 22523      5F627566 
 22523      66657273 
 22523      00
 22524              	.LASF858:
 22525 2676 73635F66 		.ascii	"sc_function\000"
 22525      756E6374 
 22525      696F6E00 
 22526              	.LASF1050:
 22527 2682 61726776 		.ascii	"argv\000"
 22527      00
 22528              	.LASF1150:
 22529 2687 65786974 		.ascii	"exittest\000"
 22529      74657374 
 22529      00
 22530              	.LASF717:
 22531 2690 5553425F 		.ascii	"USB_EVENT_RESET\000"
 22531      4556454E 
 22531      545F5245 
 22531      53455400 
 22532              	.LASF900:
 22533 26a0 464F524D 		.ascii	"FORMAT_RGGB\000"
 22533      41545F52 
 22533      47474200 
 22534              	.LASF189:
 22535 26ac 63685F72 		.ascii	"ch_ready_list\000"
 22535      65616479 
 22535      5F6C6973 
 22535      7400
 22536              	.LASF971:
 22537 26ba 67726F75 		.ascii	"group\000"
 22537      7000
 22538              	.LASF427:
 22539 26c0 50555044 		.ascii	"PUPDR\000"
 22539      5200
 22540              	.LASF1046:
 22541 26c6 7368656C 		.ascii	"shell_cfg\000"
 22541      6C5F6366 
 22541      6700
 22542              	.LASF12:
 22543 26d0 5F5F696E 		.ascii	"__int32_t\000"
 22543      7433325F 
 22543      7400
 22544              	.LASF1136:
 22545 26da 63685654 		.ascii	"chVTIsSystemTimeWithin\000"
 22545      49735379 
 22545      7374656D 
 22545      54696D65 
 22545      57697468 
ARM GAS  C:\Users\PCHAUT~1\AppData\Local\Temp\ccLw8kky.s 			page 441


 22546              	.LASF14:
 22547 26f1 5F5F7569 		.ascii	"__uint32_t\000"
 22547      6E743332 
 22547      5F7400
 22548              	.LASF208:
 22549 26fc 63685F73 		.ascii	"ch_system_debug\000"
 22549      79737465 
 22549      6D5F6465 
 22549      62756700 
 22550              	.LASF790:
 22551 270c 4441494E 		.ascii	"DAINTMSK\000"
 22551      544D534B 
 22551      00
 22552              	.LASF1075:
 22553 2715 63617074 		.ascii	"capture_mode\000"
 22553      7572655F 
 22553      6D6F6465 
 22553      00
 22554              	.LASF923:
 22555 2722 44434D49 		.ascii	"DCMI_ACTIVE_STREAM\000"
 22555      5F414354 
 22555      4956455F 
 22555      53545245 
 22555      414D00
 22556              	.LASF547:
 22557 2735 45585443 		.ascii	"EXTConfig\000"
 22557      6F6E6669 
 22557      6700
 22558              	.LASF940:
 22559 273f 70617261 		.ascii	"parameter_namespace_s\000"
 22559      6D657465 
 22559      725F6E61 
 22559      6D657370 
 22559      6163655F 
 22560              	.LASF25:
 22561 2755 5F5F7661 		.ascii	"__value\000"
 22561      6C756500 
 22562              	.LASF709:
 22563 275d 5553425F 		.ascii	"USB_EP0_WAITING_SETUP\000"
 22563      4550305F 
 22563      57414954 
 22563      494E475F 
 22563      53455455 
 22564              	.LASF49:
 22565 2773 5F69735F 		.ascii	"_is_cxa\000"
 22565      63786100 
 22566              	.LASF415:
 22567 277b 424C4B5F 		.ascii	"BLK_READING\000"
 22567      52454144 
 22567      494E4700 
 22568              	.LASF1072:
 22569 2787 636D645F 		.ascii	"cmd_cam_capture\000"
 22569      63616D5F 
 22569      63617074 
 22569      75726500 
 22570              	.LASF437:
 22571 2797 6166726C 		.ascii	"afrl\000"
ARM GAS  C:\Users\PCHAUT~1\AppData\Local\Temp\ccLw8kky.s 			page 442


 22571      00
 22572              	.LASF812:
 22573 279c 71756575 		.ascii	"queue\000"
 22573      6500
 22574              	.LASF1016:
 22575 27a2 46525F45 		.ascii	"FR_EXIST\000"
 22575      58495354 
 22575      00
 22576              	.LASF1010:
 22577 27ab 46525F49 		.ascii	"FR_INT_ERR\000"
 22577      4E545F45 
 22577      525200
 22578              	.LASF692:
 22579 27b6 65703065 		.ascii	"ep0endcb\000"
 22579      6E646362 
 22579      00
 22580              	.LASF405:
 22581 27bf 73656C66 		.ascii	"selfindex\000"
 22581      696E6465 
 22581      7800
 22582              	.LASF374:
 22583 27c9 6D757465 		.ascii	"mutex_t\000"
 22583      785F7400 
 22584              	.LASF86:
 22585 27d1 5F703573 		.ascii	"_p5s\000"
 22585      00
 22586              	.LASF178:
 22587 27d6 705F6570 		.ascii	"p_epending\000"
 22587      656E6469 
 22587      6E6700
 22588              	.LASF1019:
 22589 27e1 46525F49 		.ascii	"FR_INVALID_DRIVE\000"
 22589      4E56414C 
 22589      49445F44 
 22589      52495645 
 22589      00
 22590              	.LASF424:
 22591 27f2 4D4F4445 		.ascii	"MODER\000"
 22591      5200
 22592              	.LASF1117:
 22593 27f8 42756666 		.ascii	"Buffer\000"
 22593      657200
 22594              	.LASF910:
 22595 27ff 464F524D 		.ascii	"FORMAT_DPC_BAYER\000"
 22595      41545F44 
 22595      50435F42 
 22595      41594552 
 22595      00
 22596              	.LASF1007:
 22597 2810 636C7462 		.ascii	"cltbl\000"
 22597      6C00
 22598              	.LASF608:
 22599 2816 4932535F 		.ascii	"I2S_COMPLETE\000"
 22599      434F4D50 
 22599      4C455445 
 22599      00
 22600              	.LASF905:
ARM GAS  C:\Users\PCHAUT~1\AppData\Local\Temp\ccLw8kky.s 			page 443


 22601 2823 464F524D 		.ascii	"FORMAT_RGB565_BYTE_SWAP\000"
 22601      41545F52 
 22601      47423536 
 22601      355F4259 
 22601      54455F53 
 22602              	.LASF969:
 22603 283b 77617463 		.ascii	"watchers\000"
 22603      68657273 
 22603      00
 22604              	.LASF248:
 22605 2844 52455345 		.ascii	"RESERVED0\000"
 22605      52564544 
 22605      3000
 22606              	.LASF251:
 22607 284e 52455345 		.ascii	"RESERVED1\000"
 22607      52564544 
 22607      3100
 22608              	.LASF253:
 22609 2858 52455345 		.ascii	"RESERVED2\000"
 22609      52564544 
 22609      3200
 22610              	.LASF255:
 22611 2862 52455345 		.ascii	"RESERVED3\000"
 22611      52564544 
 22611      3300
 22612              	.LASF257:
 22613 286c 52455345 		.ascii	"RESERVED4\000"
 22613      52564544 
 22613      3400
 22614              	.LASF259:
 22615 2876 52455345 		.ascii	"RESERVED5\000"
 22615      52564544 
 22615      3500
 22616              	.LASF833:
 22617 2880 55534245 		.ascii	"USBEndpointConfig\000"
 22617      6E64706F 
 22617      696E7443 
 22617      6F6E6669 
 22617      6700
 22618              	.LASF263:
 22619 2892 44485231 		.ascii	"DHR12R1\000"
 22619      32523100 
 22620              	.LASF266:
 22621 289a 44485231 		.ascii	"DHR12R2\000"
 22621      32523200 
 22622              	.LASF543:
 22623 28a2 65787463 		.ascii	"extcallback_t\000"
 22623      616C6C62 
 22623      61636B5F 
 22623      7400
 22624              	.LASF499:
 22625 28b0 72787175 		.ascii	"rxqueue\000"
 22625      65756500 
 22626              	.LASF318:
 22627 28b8 73655F74 		.ascii	"se_time\000"
 22627      696D6500 
 22628              	.LASF781:
ARM GAS  C:\Users\PCHAUT~1\AppData\Local\Temp\ccLw8kky.s 			page 444


 22629 28c0 72657376 		.ascii	"resvd444\000"
 22629      64343434 
 22629      00
 22630              	.LASF451:
 22631 28c9 70616C5F 		.ascii	"pal_default_config\000"
 22631      64656661 
 22631      756C745F 
 22631      636F6E66 
 22631      696700
 22632              	.LASF862:
 22633 28dc 5368656C 		.ascii	"ShellConfig\000"
 22633      6C436F6E 
 22633      66696700 
 22634              	.LASF469:
 22635 28e8 67727070 		.ascii	"grpp\000"
 22635      00
 22636              	.LASF269:
 22637 28ed 44485231 		.ascii	"DHR12RD\000"
 22637      32524400 
 22638              	.LASF378:
 22639 28f5 656C5F6C 		.ascii	"el_listener\000"
 22639      69737465 
 22639      6E657200 
 22640              	.LASF811:
 22641 2901 6C696E65 		.ascii	"linear\000"
 22641      617200
 22642              	.LASF922:
 22643 2908 44434D49 		.ascii	"DCMI_READY\000"
 22643      5F524541 
 22643      445900
 22644              	.LASF1030:
 22645 2913 53465F57 		.ascii	"SF_WAIT_AND_CHANGE\000"
 22645      4149545F 
 22645      414E445F 
 22645      4348414E 
 22645      474500
 22646              	.LASF987:
 22647 2926 77666C61 		.ascii	"wflag\000"
 22647      6700
 22648              	.LASF567:
 22649 292c 73746D33 		.ascii	"stm32_tim_t\000"
 22649      325F7469 
 22649      6D5F7400 
 22650              	.LASF1063:
 22651 2938 636D645F 		.ascii	"cmd_get_battery\000"
 22651      6765745F 
 22651      62617474 
 22651      65727900 
 22652              	.LASF897:
 22653 2948 464F524D 		.ascii	"FORMAT_CRYCBY\000"
 22653      41545F43 
 22653      52594342 
 22653      5900
 22654              	.LASF191:
 22655 2956 725F7072 		.ascii	"r_prio\000"
 22655      696F00
 22656              	.LASF276:
ARM GAS  C:\Users\PCHAUT~1\AppData\Local\Temp\ccLw8kky.s 			page 445


 22657 295d 4D495352 		.ascii	"MISR\000"
 22657      00
 22658              	.LASF220:
 22659 2962 49544D5F 		.ascii	"ITM_RxBuffer\000"
 22659      52784275 
 22659      66666572 
 22659      00
 22660              	.LASF1008:
 22661 296f 46525F4F 		.ascii	"FR_OK\000"
 22661      4B00
 22662              	.LASF964:
 22663 2975 746F7069 		.ascii	"topic_s\000"
 22663      635F7300 
 22664              	.LASF855:
 22665 297d 74657374 		.ascii	"test_timer_done\000"
 22665      5F74696D 
 22665      65725F64 
 22665      6F6E6500 
 22666              	.LASF421:
 22667 298d 426C6F63 		.ascii	"BlockDeviceInfo\000"
 22667      6B446576 
 22667      69636549 
 22667      6E666F00 
 22668              	.LASF17:
 22669 299d 6C6F6E67 		.ascii	"long long unsigned int\000"
 22669      206C6F6E 
 22669      6720756E 
 22669      7369676E 
 22669      65642069 
 22670              	.LASF305:
 22671 29b4 5344494F 		.ascii	"SDIO_TypeDef\000"
 22671      5F547970 
 22671      65446566 
 22671      00
 22672              	.LASF327:
 22673 29c1 6F666673 		.ascii	"offset\000"
 22673      657400
 22674              	.LASF898:
 22675 29c8 464F524D 		.ascii	"FORMAT_YCBYCR\000"
 22675      41545F59 
 22675      43425943 
 22675      5200
 22676              	.LASF683:
 22677 29d6 53504944 		.ascii	"SPID1\000"
 22677      3100
 22678              	.LASF974:
 22679 29dc 746F7069 		.ascii	"topics\000"
 22679      637300
 22680              	.LASF1142:
 22681 29e3 63685379 		.ascii	"chSysUnlock\000"
 22681      73556E6C 
 22681      6F636B00 
 22682              	.LASF282:
 22683 29ef 4E445452 		.ascii	"NDTR\000"
 22683      00
 22684              	.LASF383:
 22685 29f4 65735F6E 		.ascii	"es_next\000"
ARM GAS  C:\Users\PCHAUT~1\AppData\Local\Temp\ccLw8kky.s 			page 446


 22685      65787400 
 22686              	.LASF107:
 22687 29fc 5F67616D 		.ascii	"_gamma_signgam\000"
 22687      6D615F73 
 22687      69676E67 
 22687      616D00
 22688              	.LASF747:
 22689 2a0b 72657376 		.ascii	"resvd1C\000"
 22689      64314300 
 22690              	.LASF219:
 22691 2a13 69646C65 		.ascii	"idle_thread_wa\000"
 22691      5F746872 
 22691      6561645F 
 22691      776100
 22692              	.LASF743:
 22693 2a22 44494550 		.ascii	"DIEPINT\000"
 22693      494E5400 
 22694              	.LASF1011:
 22695 2a2a 46525F4E 		.ascii	"FR_NOT_READY\000"
 22695      4F545F52 
 22695      45414459 
 22695      00
 22696              	.LASF311:
 22697 2a37 5350495F 		.ascii	"SPI_TypeDef\000"
 22697      54797065 
 22697      44656600 
 22698              	.LASF202:
 22699 2a43 76745F66 		.ascii	"vt_func\000"
 22699      756E6300 
 22700              	.LASF558:
 22701 2a4b 534D4352 		.ascii	"SMCR\000"
 22701      00
 22702              	.LASF1039:
 22703 2a50 636D645F 		.ascii	"cmd_x1\000"
 22703      783100
 22704              	.LASF788:
 22705 2a57 444F4550 		.ascii	"DOEPMSK\000"
 22705      4D534B00 
 22706              	.LASF914:
 22707 2a5f 53554253 		.ascii	"SUBSAMPLING_X2\000"
 22707      414D504C 
 22707      494E475F 
 22707      583200
 22708              	.LASF915:
 22709 2a6e 53554253 		.ascii	"SUBSAMPLING_X4\000"
 22709      414D504C 
 22709      494E475F 
 22709      583400
 22710              	.LASF198:
 22711 2a7d 63685F76 		.ascii	"ch_virtual_timer\000"
 22711      69727475 
 22711      616C5F74 
 22711      696D6572 
 22711      00
 22712              	.LASF171:
 22713 2a8e 705F666C 		.ascii	"p_flags\000"
 22713      61677300 
ARM GAS  C:\Users\PCHAUT~1\AppData\Local\Temp\ccLw8kky.s 			page 447


 22714              	.LASF345:
 22715 2a96 65776D61 		.ascii	"ewmask\000"
 22715      736B00
 22716              	.LASF380:
 22717 2a9d 656C5F66 		.ascii	"el_flags\000"
 22717      6C616773 
 22717      00
 22718              	.LASF1118:
 22719 2aa6 42797465 		.ascii	"ByteToRead\000"
 22719      546F5265 
 22719      616400
 22720              	.LASF382:
 22721 2ab1 6576656E 		.ascii	"event_source\000"
 22721      745F736F 
 22721      75726365 
 22721      00
 22722              	.LASF179:
 22723 2abe 705F6D74 		.ascii	"p_mtxlist\000"
 22723      786C6973 
 22723      7400
 22724              	.LASF1128:
 22725 2ac8 636C7573 		.ascii	"cluster_size\000"
 22725      7465725F 
 22725      73697A65 
 22725      00
 22726              	.LASF506:
 22727 2ad5 43414E44 		.ascii	"CAND1\000"
 22727      3100
 22728              	.LASF254:
 22729 2adb 46533152 		.ascii	"FS1R\000"
 22729      00
 22730              	.LASF1040:
 22731 2ae0 636D645F 		.ascii	"cmd_y1\000"
 22731      793100
 22732              	.LASF150:
 22733 2ae7 74737461 		.ascii	"tstate_t\000"
 22733      74655F74 
 22733      00
 22734              	.LASF128:
 22735 2af0 5F676C6F 		.ascii	"_global_impure_ptr\000"
 22735      62616C5F 
 22735      696D7075 
 22735      72655F70 
 22735      747200
 22736              	.LASF789:
 22737 2b03 4441494E 		.ascii	"DAINT\000"
 22737      5400
 22738              	.LASF682:
 22739 2b09 53504943 		.ascii	"SPIConfig\000"
 22739      6F6E6669 
 22739      6700
 22740              	.LASF80:
 22741 2b13 5F756E73 		.ascii	"_unspecified_locale_info\000"
 22741      70656369 
 22741      66696564 
 22741      5F6C6F63 
 22741      616C655F 
ARM GAS  C:\Users\PCHAUT~1\AppData\Local\Temp\ccLw8kky.s 			page 448


 22742              	.LASF436:
 22743 2b2c 70757064 		.ascii	"pupdr\000"
 22743      7200
 22744              	.LASF526:
 22745 2b32 64616365 		.ascii	"dacerrorcallback_t\000"
 22745      72726F72 
 22745      63616C6C 
 22745      6261636B 
 22745      5F7400
 22746              	.LASF984:
 22747 2b45 66735F74 		.ascii	"fs_type\000"
 22747      79706500 
 22748              	.LASF930:
 22749 2b4d 64636D69 		.ascii	"dcmi\000"
 22749      00
 22750              	.LASF685:
 22751 2b52 7472616E 		.ascii	"transmitting\000"
 22751      736D6974 
 22751      74696E67 
 22751      00
 22752              	.LASF546:
 22753 2b5f 6368616E 		.ascii	"channels\000"
 22753      6E656C73 
 22753      00
 22754              	.LASF292:
 22755 2b68 434C4B43 		.ascii	"CLKCR\000"
 22755      5200
 22756              	.LASF657:
 22757 2b6e 53444344 		.ascii	"SDCDriver\000"
 22757      72697665 
 22757      7200
 22758              	.LASF1013:
 22759 2b78 46525F4E 		.ascii	"FR_NO_PATH\000"
 22759      4F5F5041 
 22759      544800
 22760              	.LASF168:
 22761 2b83 705F6E61 		.ascii	"p_name\000"
 22761      6D6500
 22762              	.LASF82:
 22763 2b8a 5F5F7364 		.ascii	"__sdidinit\000"
 22763      6964696E 
 22763      697400
 22764              	.LASF641:
 22765 2b95 53657269 		.ascii	"SerialDriver\000"
 22765      616C4472 
 22765      69766572 
 22765      00
 22766              	.LASF232:
 22767 2ba2 4A445231 		.ascii	"JDR1\000"
 22767      00
 22768              	.LASF134:
 22769 2ba7 5F5F6664 		.ascii	"__fdlibm_posix\000"
 22769      6C69626D 
 22769      5F706F73 
 22769      697800
 22770              	.LASF234:
 22771 2bb6 4A445233 		.ascii	"JDR3\000"
ARM GAS  C:\Users\PCHAUT~1\AppData\Local\Temp\ccLw8kky.s 			page 449


 22771      00
 22772              	.LASF235:
 22773 2bbb 4A445234 		.ascii	"JDR4\000"
 22773      00
 22774              	.LASF751:
 22775 2bc0 444F4550 		.ascii	"DOEPTSIZ\000"
 22775      5453495A 
 22775      00
 22776              	.LASF138:
 22777 2bc9 5F5F6170 		.ascii	"__ap\000"
 22777      00
 22778              	.LASF1036:
 22779 2bce 636D645F 		.ascii	"cmd_fmt\000"
 22779      666D7400 
 22780              	.LASF454:
 22781 2bd6 4144435F 		.ascii	"ADC_READY\000"
 22781      52454144 
 22781      5900
 22782              	.LASF362:
 22783 2be0 63665F6F 		.ascii	"cf_off_ctx\000"
 22783      66665F63 
 22783      747800
 22784              	.LASF870:
 22785 2beb 6E616D65 		.ascii	"name\000"
 22785      00
 22786              	.LASF27:
 22787 2bf0 5F666C6F 		.ascii	"_flock_t\000"
 22787      636B5F74 
 22787      00
 22788              	.LASF204:
 22789 2bf9 76697274 		.ascii	"virtual_timers_list_t\000"
 22789      75616C5F 
 22789      74696D65 
 22789      72735F6C 
 22789      6973745F 
 22790              	.LASF1058:
 22791 2c0f 68656164 		.ascii	"header\000"
 22791      657200
 22792              	.LASF1024:
 22793 2c16 46525F4C 		.ascii	"FR_LOCKED\000"
 22793      4F434B45 
 22793      4400
 22794              	.LASF1073:
 22795 2c20 636D645F 		.ascii	"cmd_cam_dcmi_unprepare\000"
 22795      63616D5F 
 22795      64636D69 
 22795      5F756E70 
 22795      72657061 
 22796              	.LASF775:
 22797 2c37 72657376 		.ascii	"resvd40C\000"
 22797      64343043 
 22797      00
 22798              	.LASF476:
 22799 2c40 63697263 		.ascii	"circular\000"
 22799      756C6172 
 22799      00
 22800              	.LASF609:
ARM GAS  C:\Users\PCHAUT~1\AppData\Local\Temp\ccLw8kky.s 			page 450


 22801 2c49 69327373 		.ascii	"i2sstate_t\000"
 22801      74617465 
 22801      5F7400
 22802              	.LASF433:
 22803 2c54 6D6F6465 		.ascii	"moder\000"
 22803      7200
 22804              	.LASF678:
 22805 2c5a 53504944 		.ascii	"SPIDriver\000"
 22805      72697665 
 22805      7200
 22806              	.LASF347:
 22807 2c64 735F7175 		.ascii	"s_queue\000"
 22807      65756500 
 22808              	.LASF336:
 22809 2c6c 6D5F6372 		.ascii	"m_crit_thd\000"
 22809      69745F74 
 22809      686400
 22810              	.LASF508:
 22811 2c77 4441435F 		.ascii	"DAC_STOP\000"
 22811      53544F50 
 22811      00
 22812              	.LASF782:
 22813 2c80 72657376 		.ascii	"resvd700\000"
 22813      64373030 
 22813      00
 22814              	.LASF309:
 22815 2c89 49325343 		.ascii	"I2SCFGR\000"
 22815      46475200 
 22816              	.LASF1082:
 22817 2c91 636D645F 		.ascii	"cmd_cam_set_mirror\000"
 22817      63616D5F 
 22817      7365745F 
 22817      6D697272 
 22817      6F7200
 22818              	.LASF845:
 22819 2ca4 75736270 		.ascii	"usbp\000"
 22819      00
 22820              	.LASF960:
 22821 2ca9 6F707469 		.ascii	"optind\000"
 22821      6E6400
 22822              	.LASF354:
 22823 2cb0 63685F69 		.ascii	"ch_identifier\000"
 22823      64656E74 
 22823      69666965 
 22823      7200
 22824              	.LASF649:
 22825 2cbe 77726974 		.ascii	"writet\000"
 22825      657400
 22826              	.LASF1097:
 22827 2cc5 73686F77 		.ascii	"show_config_tree\000"
 22827      5F636F6E 
 22827      6669675F 
 22827      74726565 
 22827      00
 22828              	.LASF1:
 22829 2cd6 6C6F6E67 		.ascii	"long long int\000"
 22829      206C6F6E 
ARM GAS  C:\Users\PCHAUT~1\AppData\Local\Temp\ccLw8kky.s 			page 451


 22829      6720696E 
 22829      7400
 22830              	.LASF769:
 22831 2ce4 48505458 		.ascii	"HPTXFSIZ\000"
 22831      4653495A 
 22831      00
 22832              	.LASF1146:
 22833 2ced 2E2E2F6C 		.ascii	"../lib/e-puck2_main-processor/src/cmd.c\000"
 22833      69622F65 
 22833      2D707563 
 22833      6B325F6D 
 22833      61696E2D 
 22834              	.LASF934:
 22835 2d15 7472616E 		.ascii	"transfer_complete_cb\000"
 22835      73666572 
 22835      5F636F6D 
 22835      706C6574 
 22835      655F6362 
 22836              	.LASF361:
 22837 2d2a 63665F6F 		.ascii	"cf_off_prio\000"
 22837      66665F70 
 22837      72696F00 
 22838              	.LASF72:
 22839 2d36 5F666C61 		.ascii	"_flags2\000"
 22839      67733200 
 22840              	.LASF1080:
 22841 2d3e 636D645F 		.ascii	"cmd_cam_set_awb\000"
 22841      63616D5F 
 22841      7365745F 
 22841      61776200 
 22842              	.LASF333:
 22843 2d4e 74696D65 		.ascii	"time_measurement_t\000"
 22843      5F6D6561 
 22843      73757265 
 22843      6D656E74 
 22843      5F7400
 22844              	.LASF1139:
 22845 2d61 63685654 		.ascii	"chVTGetSystemTime\000"
 22845      47657453 
 22845      79737465 
 22845      6D54696D 
 22845      6500
 22846              	.LASF670:
 22847 2d73 6765745F 		.ascii	"get_info\000"
 22847      696E666F 
 22847      00
 22848              	.LASF463:
 22849 2d7c 61646365 		.ascii	"adcerror_t\000"
 22849      72726F72 
 22849      5F7400
 22850              	.LASF835:
 22851 2d87 6765745F 		.ascii	"get_descriptor_cb\000"
 22851      64657363 
 22851      72697074 
 22851      6F725F63 
 22851      6200
 22852              	.LASF81:
ARM GAS  C:\Users\PCHAUT~1\AppData\Local\Temp\ccLw8kky.s 			page 452


 22853 2d99 5F6C6F63 		.ascii	"_locale\000"
 22853      616C6500 
 22854              	.LASF1126:
 22855 2da1 636D645F 		.ascii	"cmd_free\000"
 22855      66726565 
 22855      00
 22856              	.LASF156:
 22857 2daa 6576656E 		.ascii	"eventflags_t\000"
 22857      74666C61 
 22857      67735F74 
 22857      00
 22858              	.LASF674:
 22859 2db7 5350495F 		.ascii	"SPI_READY\000"
 22859      52454144 
 22859      5900
 22860              	.LASF890:
 22861 2dc1 41736562 		.ascii	"AsebaNativeDescription_mathsin\000"
 22861      614E6174 
 22861      69766544 
 22861      65736372 
 22861      69707469 
 22862              	.LASF1074:
 22863 2de0 636D645F 		.ascii	"cmd_cam_dcmi_prepare\000"
 22863      63616D5F 
 22863      64636D69 
 22863      5F707265 
 22863      70617265 
 22864              	.LASF250:
 22865 2df5 73464946 		.ascii	"sFIFOMailBox\000"
 22865      4F4D6169 
 22865      6C426F78 
 22865      00
 22866              	.LASF662:
 22867 2e02 6275735F 		.ascii	"bus_width\000"
 22867      77696474 
 22867      6800
 22868              	.LASF271:
 22869 2e0c 44485238 		.ascii	"DHR8RD\000"
 22869      524400
 22870              	.LASF784:
 22871 2e13 4443544C 		.ascii	"DCTL\000"
 22871      00
 22872              	.LASF664:
 22873 2e18 53444344 		.ascii	"SDCDriverVMT\000"
 22873      72697665 
 22873      72564D54 
 22873      00
 22874              	.LASF1140:
 22875 2e25 73797374 		.ascii	"systime\000"
 22875      696D6500 
 22876              	.LASF810:
 22877 2e2d 74786275 		.ascii	"txbuf\000"
 22877      6600
 22878              	.LASF803:
 22879 2e33 50434743 		.ascii	"PCGCCTL\000"
 22879      43544C00 
 22880              	.LASF721:
ARM GAS  C:\Users\PCHAUT~1\AppData\Local\Temp\ccLw8kky.s 			page 453


 22881 2e3b 5553425F 		.ascii	"USB_EVENT_WAKEUP\000"
 22881      4556454E 
 22881      545F5741 
 22881      4B455550 
 22881      00
 22882              	.LASF1153:
 22883 2e4c 5F5F7365 		.ascii	"__set_BASEPRI\000"
 22883      745F4241 
 22883      53455052 
 22883      4900
 22884              	.LASF167:
 22885 2e5a 705F6F6C 		.ascii	"p_older\000"
 22885      64657200 
 22886              	.LASF417:
 22887 2e62 424C4B5F 		.ascii	"BLK_SYNCING\000"
 22887      53594E43 
 22887      494E4700 
 22888              	.LASF448:
 22889 2e6e 50494461 		.ascii	"PIData\000"
 22889      746100
 22890              	.LASF879:
 22891 2e75 41736562 		.ascii	"AsebaNativeDescription_vecmul\000"
 22891      614E6174 
 22891      69766544 
 22891      65736372 
 22891      69707469 
 22892              	.LASF1089:
 22893 2e93 73756363 		.ascii	"success\000"
 22893      65737300 
 22894              	.LASF832:
 22895 2e9b 73657475 		.ascii	"setup_buf\000"
 22895      705F6275 
 22895      6600
 22896              	.LASF766:
 22897 2ea5 72657376 		.ascii	"resvd34\000"
 22897      64333400 
 22898              	.LASF573:
 22899 2ead 47505444 		.ascii	"GPTD6\000"
 22899      3600
 22900              	.LASF917:
 22901 2eb3 44434D49 		.ascii	"DCMI_ERR_DMAFAILURE\000"
 22901      5F455252 
 22901      5F444D41 
 22901      4641494C 
 22901      55524500 
 22902              	.LASF479:
 22903 2ec7 6572726F 		.ascii	"error_cb\000"
 22903      725F6362 
 22903      00
 22904              	.LASF1071:
 22905 2ed0 696D675F 		.ascii	"img_buff_ptr\000"
 22905      62756666 
 22905      5F707472 
 22905      00
 22906              	.LASF413:
 22907 2edd 424C4B5F 		.ascii	"BLK_DISCONNECTING\000"
 22907      44495343 
ARM GAS  C:\Users\PCHAUT~1\AppData\Local\Temp\ccLw8kky.s 			page 454


 22907      4F4E4E45 
 22907      4354494E 
 22907      4700
 22908              	.LASF680:
 22909 2eef 7373706F 		.ascii	"ssport\000"
 22909      727400
 22910              	.LASF953:
 22911 2ef6 6275665F 		.ascii	"buf_len\000"
 22911      6C656E00 
 22912              	.LASF398:
 22913 2efe 42617365 		.ascii	"BaseSequentialStreamVMT\000"
 22913      53657175 
 22913      656E7469 
 22913      616C5374 
 22913      7265616D 
 22914              	.LASF183:
 22915 2f16 74687265 		.ascii	"thread_reference_t\000"
 22915      61645F72 
 22915      65666572 
 22915      656E6365 
 22915      5F7400
 22916              	.LASF919:
 22917 2f29 64636D69 		.ascii	"dcmierror_t\000"
 22917      6572726F 
 22917      725F7400 
 22918              	.LASF542:
 22919 2f35 65787063 		.ascii	"expchannel_t\000"
 22919      68616E6E 
 22919      656C5F74 
 22919      00
 22920              	.LASF986:
 22921 2f42 6E5F6661 		.ascii	"n_fats\000"
 22921      747300
 22922              	.LASF686:
 22923 2f49 72656365 		.ascii	"receiving\000"
 22923      6976696E 
 22923      6700
 22924              	.LASF945:
 22925 2f53 70617261 		.ascii	"parameter_list\000"
 22925      6D657465 
 22925      725F6C69 
 22925      737400
 22926              	.LASF1079:
 22927 2f62 636D645F 		.ascii	"cmd_cam_set_ae\000"
 22927      63616D5F 
 22927      7365745F 
 22927      616500
 22928              	.LASF95:
 22929 2f71 5F5F4649 		.ascii	"__FILE\000"
 22929      4C4500
 22930              	.LASF569:
 22931 2f78 66726571 		.ascii	"frequency\000"
 22931      75656E63 
 22931      7900
 22932              	.LASF1025:
 22933 2f82 46525F4E 		.ascii	"FR_NOT_ENOUGH_CORE\000"
 22933      4F545F45 
ARM GAS  C:\Users\PCHAUT~1\AppData\Local\Temp\ccLw8kky.s 			page 455


 22933      4E4F5547 
 22933      485F434F 
 22933      524500
 22934              	.LASF1081:
 22935 2f95 636D645F 		.ascii	"cmd_cam_set_gain\000"
 22935      63616D5F 
 22935      7365745F 
 22935      6761696E 
 22935      00
 22936              	.LASF1009:
 22937 2fa6 46525F44 		.ascii	"FR_DISK_ERR\000"
 22937      49534B5F 
 22937      45525200 
 22938              	.LASF989:
 22939 2fb2 6E5F726F 		.ascii	"n_rootdir\000"
 22939      6F746469 
 22939      7200
 22940              	.LASF32:
 22941 2fbc 5F736967 		.ascii	"_sign\000"
 22941      6E00
 22942              	.LASF4:
 22943 2fc2 5F5F696E 		.ascii	"__int8_t\000"
 22943      74385F74 
 22943      00
 22944              	.LASF829:
 22945 2fcb 696E5F73 		.ascii	"in_state\000"
 22945      74617465 
 22945      00
 22946              	.LASF1077:
 22947 2fd4 696E7465 		.ascii	"integral\000"
 22947      6772616C 
 22947      00
 22948              	.LASF37:
 22949 2fdd 5F5F746D 		.ascii	"__tm_min\000"
 22949      5F6D696E 
 22949      00
 22950              	.LASF1052:
 22951 2fe6 73746172 		.ascii	"startblk\000"
 22951      74626C6B 
 22951      00
 22952              	.LASF355:
 22953 2fef 63685F7A 		.ascii	"ch_zero\000"
 22953      65726F00 
 22954              	.LASF1124:
 22955 2ff7 77726974 		.ascii	"written\000"
 22955      74656E00 
 22956              	.LASF589:
 22957 2fff 46415354 		.ascii	"FAST_DUTY_CYCLE_2\000"
 22957      5F445554 
 22957      595F4359 
 22957      434C455F 
 22957      3200
 22958              	.LASF300:
 22959 3011 44435452 		.ascii	"DCTRL\000"
 22959      4C00
 22960              	.LASF360:
 22961 3017 63685F74 		.ascii	"ch_threadsize\000"
ARM GAS  C:\Users\PCHAUT~1\AppData\Local\Temp\ccLw8kky.s 			page 456


 22961      68726561 
 22961      6473697A 
 22961      6500
 22962              	.LASF289:
 22963 3025 464C5452 		.ascii	"FLTR\000"
 22963      00
 22964              	.LASF560:
 22965 302a 43434D52 		.ascii	"CCMR1\000"
 22965      3100
 22966              	.LASF561:
 22967 3030 43434D52 		.ascii	"CCMR2\000"
 22967      3200
 22968              	.LASF565:
 22969 3036 43434D52 		.ascii	"CCMR3\000"
 22969      3300
 22970              	.LASF0:
 22971 303c 756E7369 		.ascii	"unsigned int\000"
 22971      676E6564 
 22971      20696E74 
 22971      00
 22972              	.LASF483:
 22973 3049 73717232 		.ascii	"sqr2\000"
 22973      00
 22974              	.LASF484:
 22975 304e 73717233 		.ascii	"sqr3\000"
 22975      00
 22976              	.LASF109:
 22977 3053 5F723438 		.ascii	"_r48\000"
 22977      00
 22978              	.LASF773:
 22979 3058 48464952 		.ascii	"HFIR\000"
 22979      00
 22980              	.LASF884:
 22981 305d 41736562 		.ascii	"AsebaNativeDescription_vecdot\000"
 22981      614E6174 
 22981      69766544 
 22981      65736372 
 22981      69707469 
 22982              	.LASF935:
 22983 307b 44434D49 		.ascii	"DCMIConfig\000"
 22983      436F6E66 
 22983      696700
 22984              	.LASF895:
 22985 3086 41736562 		.ascii	"AsebaNativeDescription_rand\000"
 22985      614E6174 
 22985      69766544 
 22985      65736372 
 22985      69707469 
 22986              	.LASF703:
 22987 30a2 5553425F 		.ascii	"USB_UNINIT\000"
 22987      554E494E 
 22987      495400
 22988              	.LASF402:
 22989 30ad 73747265 		.ascii	"stream\000"
 22989      616D00
 22990              	.LASF486:
 22991 30b4 64756D6D 		.ascii	"dummy\000"
ARM GAS  C:\Users\PCHAUT~1\AppData\Local\Temp\ccLw8kky.s 			page 457


 22991      7900
 22992              	.LASF880:
 22993 30ba 41736562 		.ascii	"AsebaNativeDescription_vecdiv\000"
 22993      614E6174 
 22993      69766544 
 22993      65736372 
 22993      69707469 
 22994              	.LASF587:
 22995 30d8 6932636F 		.ascii	"i2copmode_t\000"
 22995      706D6F64 
 22995      655F7400 
 22996              	.LASF278:
 22997 30e4 45535552 		.ascii	"ESUR\000"
 22997      00
 22998              	.LASF376:
 22999 30e9 6576656E 		.ascii	"event_listener\000"
 22999      745F6C69 
 22999      7374656E 
 22999      657200
 23000              	.LASF9:
 23001 30f8 73686F72 		.ascii	"short int\000"
 23001      7420696E 
 23001      7400
 23002              	.LASF727:
 23003 3102 75736263 		.ascii	"usbcallback_t\000"
 23003      616C6C62 
 23003      61636B5F 
 23003      7400
 23004              	.LASF61:
 23005 3110 5F726561 		.ascii	"_read\000"
 23005      6400
 23006              	.LASF756:
 23007 3116 47555342 		.ascii	"GUSBCFG\000"
 23007      43464700 
 23008              	.LASF313:
 23009 311e 55534152 		.ascii	"USART_TypeDef\000"
 23009      545F5479 
 23009      70654465 
 23009      6600
 23010              	.LASF397:
 23011 312c 6F757470 		.ascii	"output_queue_t\000"
 23011      75745F71 
 23011      75657565 
 23011      5F7400
 23012              	.LASF99:
 23013 313b 5F72616E 		.ascii	"_rand48\000"
 23013      64343800 
 23014              	.LASF805:
 23015 3143 73746D33 		.ascii	"stm32_otg_t\000"
 23015      325F6F74 
 23015      675F7400 
 23016              	.LASF610:
 23017 314f 49325344 		.ascii	"I2SDriver\000"
 23017      72697665 
 23017      7200
 23018              	.LASF594:
 23019 3159 64757479 		.ascii	"duty_cycle\000"
ARM GAS  C:\Users\PCHAUT~1\AppData\Local\Temp\ccLw8kky.s 			page 458


 23019      5F637963 
 23019      6C6500
 23020              	.LASF617:
 23021 3164 49325343 		.ascii	"I2SConfig\000"
 23021      6F6E6669 
 23021      6700
 23022              	.LASF1048:
 23023 316e 636D645F 		.ascii	"cmd_sdc\000"
 23023      73646300 
 23024              	.LASF724:
 23025 3176 75645F73 		.ascii	"ud_size\000"
 23025      697A6500 
 23026              	.LASF1084:
 23027 317e 636D645F 		.ascii	"cmd_cam_set_conf1\000"
 23027      63616D5F 
 23027      7365745F 
 23027      636F6E66 
 23027      3100
 23028              	.LASF1083:
 23029 3190 636D645F 		.ascii	"cmd_cam_set_conf2\000"
 23029      63616D5F 
 23029      7365745F 
 23029      636F6E66 
 23029      3200
 23030              	.LASF827:
 23031 31a2 696E5F6D 		.ascii	"in_maxsize\000"
 23031      61787369 
 23031      7A6500
 23032              	.LASF137:
 23033 31ad 5F5F7661 		.ascii	"__va_list\000"
 23033      5F6C6973 
 23033      7400
 23034              	.LASF445:
 23035 31b7 50464461 		.ascii	"PFData\000"
 23035      746100
 23036              	.LASF538:
 23037 31be 4558545F 		.ascii	"EXT_STOP\000"
 23037      53544F50 
 23037      00
 23038              	.LASF170:
 23039 31c7 705F7374 		.ascii	"p_state\000"
 23039      61746500 
 23040              	.LASF618:
 23041 31cf 49325344 		.ascii	"I2SD2\000"
 23041      3200
 23042              	.LASF665:
 23043 31d5 69735F69 		.ascii	"is_inserted\000"
 23043      6E736572 
 23043      74656400 
 23044              	.LASF185:
 23045 31e1 63685F74 		.ascii	"ch_threads_list\000"
 23045      68726561 
 23045      64735F6C 
 23045      69737400 
 23046              	.LASF1015:
 23047 31f1 46525F44 		.ascii	"FR_DENIED\000"
 23047      454E4945 
ARM GAS  C:\Users\PCHAUT~1\AppData\Local\Temp\ccLw8kky.s 			page 459


 23047      4400
 23048              	.LASF301:
 23049 31fb 44434F55 		.ascii	"DCOUNT\000"
 23049      4E5400
 23050              	.LASF286:
 23051 3202 4F415231 		.ascii	"OAR1\000"
 23051      00
 23052              	.LASF287:
 23053 3207 4F415232 		.ascii	"OAR2\000"
 23053      00
 23054              	.LASF182:
 23055 320c 705F7374 		.ascii	"p_stats\000"
 23055      61747300 
 23056              	.LASF708:
 23057 3214 75736273 		.ascii	"usbstate_t\000"
 23057      74617465 
 23057      5F7400
 23058              		.ident	"GCC: (GNU Tools for Arm Embedded Processors 7-2017-q4-major) 7.2.1 20170904 (release) [ARM
ARM GAS  C:\Users\PCHAUT~1\AppData\Local\Temp\ccLw8kky.s 			page 460


DEFINED SYMBOLS
                            *ABS*:00000000 cmd.c
C:\Users\PCHAUT~1\AppData\Local\Temp\ccLw8kky.s:18     .text.port_lock:00000000 $t
C:\Users\PCHAUT~1\AppData\Local\Temp\ccLw8kky.s:25     .text.port_lock:00000000 port_lock
C:\Users\PCHAUT~1\AppData\Local\Temp\ccLw8kky.s:72     .text.port_lock:0000002c $d
C:\Users\PCHAUT~1\AppData\Local\Temp\ccLw8kky.s:77     .text.port_unlock:00000000 $t
C:\Users\PCHAUT~1\AppData\Local\Temp\ccLw8kky.s:84     .text.port_unlock:00000000 port_unlock
C:\Users\PCHAUT~1\AppData\Local\Temp\ccLw8kky.s:129    .text.port_unlock:0000002c $d
C:\Users\PCHAUT~1\AppData\Local\Temp\ccLw8kky.s:134    .text.chSysLock:00000000 $t
C:\Users\PCHAUT~1\AppData\Local\Temp\ccLw8kky.s:141    .text.chSysLock:00000000 chSysLock
C:\Users\PCHAUT~1\AppData\Local\Temp\ccLw8kky.s:179    .text.chSysLock:0000002c $d
C:\Users\PCHAUT~1\AppData\Local\Temp\ccLw8kky.s:184    .text.chSysUnlock:00000000 $t
C:\Users\PCHAUT~1\AppData\Local\Temp\ccLw8kky.s:191    .text.chSysUnlock:00000000 chSysUnlock
C:\Users\PCHAUT~1\AppData\Local\Temp\ccLw8kky.s:247    .text.chSysUnlock:0000004c $d
C:\Users\PCHAUT~1\AppData\Local\Temp\ccLw8kky.s:7251   .rodata.__func__.8875:00000000 __func__.8875
C:\Users\PCHAUT~1\AppData\Local\Temp\ccLw8kky.s:254    .text.chVTGetSystemTimeX:00000000 $t
C:\Users\PCHAUT~1\AppData\Local\Temp\ccLw8kky.s:261    .text.chVTGetSystemTimeX:00000000 chVTGetSystemTimeX
C:\Users\PCHAUT~1\AppData\Local\Temp\ccLw8kky.s:296    .text.chVTGetSystemTimeX:00000024 $d
C:\Users\PCHAUT~1\AppData\Local\Temp\ccLw8kky.s:302    .text.chVTGetSystemTime:00000000 $t
C:\Users\PCHAUT~1\AppData\Local\Temp\ccLw8kky.s:309    .text.chVTGetSystemTime:00000000 chVTGetSystemTime
C:\Users\PCHAUT~1\AppData\Local\Temp\ccLw8kky.s:349    .text.chVTGetSystemTime:00000030 $d
C:\Users\PCHAUT~1\AppData\Local\Temp\ccLw8kky.s:354    .text.chVTIsTimeWithinX:00000000 $t
C:\Users\PCHAUT~1\AppData\Local\Temp\ccLw8kky.s:361    .text.chVTIsTimeWithinX:00000000 chVTIsTimeWithinX
C:\Users\PCHAUT~1\AppData\Local\Temp\ccLw8kky.s:407    .text.chVTIsTimeWithinX:0000003c $d
C:\Users\PCHAUT~1\AppData\Local\Temp\ccLw8kky.s:412    .text.chVTIsSystemTimeWithin:00000000 $t
C:\Users\PCHAUT~1\AppData\Local\Temp\ccLw8kky.s:419    .text.chVTIsSystemTimeWithin:00000000 chVTIsSystemTimeWithin
C:\Users\PCHAUT~1\AppData\Local\Temp\ccLw8kky.s:460    .text.chVTIsSystemTimeWithin:00000038 $d
C:\Users\PCHAUT~1\AppData\Local\Temp\ccLw8kky.s:465    .text.chThdGetSelfX:00000000 $t
C:\Users\PCHAUT~1\AppData\Local\Temp\ccLw8kky.s:472    .text.chThdGetSelfX:00000000 chThdGetSelfX
C:\Users\PCHAUT~1\AppData\Local\Temp\ccLw8kky.s:507    .text.chThdGetSelfX:00000024 $d
C:\Users\PCHAUT~1\AppData\Local\Temp\ccLw8kky.s:513    .text.chThdGetPriorityX:00000000 $t
C:\Users\PCHAUT~1\AppData\Local\Temp\ccLw8kky.s:520    .text.chThdGetPriorityX:00000000 chThdGetPriorityX
C:\Users\PCHAUT~1\AppData\Local\Temp\ccLw8kky.s:555    .text.chThdGetPriorityX:00000028 $d
C:\Users\PCHAUT~1\AppData\Local\Temp\ccLw8kky.s:560    .text.chThdTerminatedX:00000000 $t
C:\Users\PCHAUT~1\AppData\Local\Temp\ccLw8kky.s:567    .text.chThdTerminatedX:00000000 chThdTerminatedX
C:\Users\PCHAUT~1\AppData\Local\Temp\ccLw8kky.s:607    .text.chThdTerminatedX:00000034 $d
C:\Users\PCHAUT~1\AppData\Local\Temp\ccLw8kky.s:612    .text.chprintf:00000000 $t
C:\Users\PCHAUT~1\AppData\Local\Temp\ccLw8kky.s:619    .text.chprintf:00000000 chprintf
C:\Users\PCHAUT~1\AppData\Local\Temp\ccLw8kky.s:678    .text.chprintf:00000040 $d
C:\Users\PCHAUT~1\AppData\Local\Temp\ccLw8kky.s:683    .bss.buf:00000000 $d
C:\Users\PCHAUT~1\AppData\Local\Temp\ccLw8kky.s:686    .bss.buf:00000000 buf
C:\Users\PCHAUT~1\AppData\Local\Temp\ccLw8kky.s:689    .bss.buf2:00000000 $d
C:\Users\PCHAUT~1\AppData\Local\Temp\ccLw8kky.s:692    .bss.buf2:00000000 buf2
C:\Users\PCHAUT~1\AppData\Local\Temp\ccLw8kky.s:697    .bss.cmd_fmt:00000000 cmd_fmt
C:\Users\PCHAUT~1\AppData\Local\Temp\ccLw8kky.s:698    .bss.cmd_fmt:00000000 $d
C:\Users\PCHAUT~1\AppData\Local\Temp\ccLw8kky.s:702    .bss.cmd_subx:00000000 cmd_subx
C:\Users\PCHAUT~1\AppData\Local\Temp\ccLw8kky.s:703    .bss.cmd_subx:00000000 $d
C:\Users\PCHAUT~1\AppData\Local\Temp\ccLw8kky.s:707    .bss.cmd_suby:00000000 cmd_suby
C:\Users\PCHAUT~1\AppData\Local\Temp\ccLw8kky.s:708    .bss.cmd_suby:00000000 $d
C:\Users\PCHAUT~1\AppData\Local\Temp\ccLw8kky.s:710    .bss.cmd_x1:00000000 $d
C:\Users\PCHAUT~1\AppData\Local\Temp\ccLw8kky.s:713    .bss.cmd_x1:00000000 cmd_x1
C:\Users\PCHAUT~1\AppData\Local\Temp\ccLw8kky.s:716    .bss.cmd_y1:00000000 $d
C:\Users\PCHAUT~1\AppData\Local\Temp\ccLw8kky.s:719    .bss.cmd_y1:00000000 cmd_y1
C:\Users\PCHAUT~1\AppData\Local\Temp\ccLw8kky.s:722    .bss.cmd_width:00000000 $d
C:\Users\PCHAUT~1\AppData\Local\Temp\ccLw8kky.s:725    .bss.cmd_width:00000000 cmd_width
C:\Users\PCHAUT~1\AppData\Local\Temp\ccLw8kky.s:728    .bss.cmd_height:00000000 $d
C:\Users\PCHAUT~1\AppData\Local\Temp\ccLw8kky.s:731    .bss.cmd_height:00000000 cmd_height
ARM GAS  C:\Users\PCHAUT~1\AppData\Local\Temp\ccLw8kky.s 			page 461


C:\Users\PCHAUT~1\AppData\Local\Temp\ccLw8kky.s:734    .bss.fbuff:00000000 $d
C:\Users\PCHAUT~1\AppData\Local\Temp\ccLw8kky.s:737    .bss.fbuff:00000000 fbuff
C:\Users\PCHAUT~1\AppData\Local\Temp\ccLw8kky.s:740    .rodata:00000000 $d
C:\Users\PCHAUT~1\AppData\Local\Temp\ccLw8kky.s:748    .text.cmd_mount:00000000 $t
C:\Users\PCHAUT~1\AppData\Local\Temp\ccLw8kky.s:756    .text.cmd_mount:00000000 cmd_mount
C:\Users\PCHAUT~1\AppData\Local\Temp\ccLw8kky.s:809    .text.cmd_mount:00000048 $d
C:\Users\PCHAUT~1\AppData\Local\Temp\ccLw8kky.s:820    .text.cmd_unmount:00000000 $t
C:\Users\PCHAUT~1\AppData\Local\Temp\ccLw8kky.s:828    .text.cmd_unmount:00000000 cmd_unmount
C:\Users\PCHAUT~1\AppData\Local\Temp\ccLw8kky.s:875    .text.cmd_unmount:00000040 $d
C:\Users\PCHAUT~1\AppData\Local\Temp\ccLw8kky.s:901    .text.cmd_free:00000000 $t
C:\Users\PCHAUT~1\AppData\Local\Temp\ccLw8kky.s:909    .text.cmd_free:00000000 cmd_free
C:\Users\PCHAUT~1\AppData\Local\Temp\ccLw8kky.s:1003   .text.cmd_free:000000a8 $d
C:\Users\PCHAUT~1\AppData\Local\Temp\ccLw8kky.s:1014   .text.cmd_tree:00000000 $t
C:\Users\PCHAUT~1\AppData\Local\Temp\ccLw8kky.s:1022   .text.cmd_tree:00000000 cmd_tree
C:\Users\PCHAUT~1\AppData\Local\Temp\ccLw8kky.s:1065   .text.cmd_tree:0000003c $d
C:\Users\PCHAUT~1\AppData\Local\Temp\ccLw8kky.s:1099   .text.cmd_hello:00000000 $t
C:\Users\PCHAUT~1\AppData\Local\Temp\ccLw8kky.s:1107   .text.cmd_hello:00000000 cmd_hello
C:\Users\PCHAUT~1\AppData\Local\Temp\ccLw8kky.s:1226   .text.cmd_hello:000000c4 $d
C:\Users\PCHAUT~1\AppData\Local\Temp\ccLw8kky.s:1253   .text.cmd_mkdir:00000000 $t
C:\Users\PCHAUT~1\AppData\Local\Temp\ccLw8kky.s:1261   .text.cmd_mkdir:00000000 cmd_mkdir
C:\Users\PCHAUT~1\AppData\Local\Temp\ccLw8kky.s:1345   .text.cmd_mkdir:00000080 $d
C:\Users\PCHAUT~1\AppData\Local\Temp\ccLw8kky.s:1367   .text.cmd_setlabel:00000000 $t
C:\Users\PCHAUT~1\AppData\Local\Temp\ccLw8kky.s:1375   .text.cmd_setlabel:00000000 cmd_setlabel
C:\Users\PCHAUT~1\AppData\Local\Temp\ccLw8kky.s:1453   .text.cmd_setlabel:00000074 $d
C:\Users\PCHAUT~1\AppData\Local\Temp\ccLw8kky.s:1481   .text.cmd_getlabel:00000000 $t
C:\Users\PCHAUT~1\AppData\Local\Temp\ccLw8kky.s:1489   .text.cmd_getlabel:00000000 cmd_getlabel
C:\Users\PCHAUT~1\AppData\Local\Temp\ccLw8kky.s:1582   .text.cmd_getlabel:00000094 $d
C:\Users\PCHAUT~1\AppData\Local\Temp\ccLw8kky.s:1612   .text.cmd_cat:00000000 $t
C:\Users\PCHAUT~1\AppData\Local\Temp\ccLw8kky.s:1620   .text.cmd_cat:00000000 cmd_cat
C:\Users\PCHAUT~1\AppData\Local\Temp\ccLw8kky.s:1778   .text.cmd_cat:00000110 $d
C:\Users\PCHAUT~1\AppData\Local\Temp\ccLw8kky.s:1793   .text.cmd_sound_file_play:00000000 $t
C:\Users\PCHAUT~1\AppData\Local\Temp\ccLw8kky.s:1800   .text.cmd_sound_file_play:00000000 cmd_sound_file_play
C:\Users\PCHAUT~1\AppData\Local\Temp\ccLw8kky.s:1851   .text.cmd_sound_file_play:00000040 $d
C:\Users\PCHAUT~1\AppData\Local\Temp\ccLw8kky.s:1857   .text.cmd_sound_file_stop:00000000 $t
C:\Users\PCHAUT~1\AppData\Local\Temp\ccLw8kky.s:1864   .text.cmd_sound_file_stop:00000000 cmd_sound_file_stop
C:\Users\PCHAUT~1\AppData\Local\Temp\ccLw8kky.s:1900   .text.cmd_sound_file_stop:0000002c $d
C:\Users\PCHAUT~1\AppData\Local\Temp\ccLw8kky.s:1909   .text.cmd_sound_file_volume:00000000 $t
C:\Users\PCHAUT~1\AppData\Local\Temp\ccLw8kky.s:1916   .text.cmd_sound_file_volume:00000000 cmd_sound_file_volume
C:\Users\PCHAUT~1\AppData\Local\Temp\ccLw8kky.s:1970   .text.cmd_sound_file_volume:00000048 $d
C:\Users\PCHAUT~1\AppData\Local\Temp\ccLw8kky.s:2025   .text.cmd_melody_play:00000000 $t
C:\Users\PCHAUT~1\AppData\Local\Temp\ccLw8kky.s:2032   .text.cmd_melody_play:00000000 cmd_melody_play
C:\Users\PCHAUT~1\AppData\Local\Temp\ccLw8kky.s:2150   .text.cmd_melody_play:000000c8 $d
C:\Users\PCHAUT~1\AppData\Local\Temp\ccLw8kky.s:2171   .text.cmd_melody_stop:00000000 $t
C:\Users\PCHAUT~1\AppData\Local\Temp\ccLw8kky.s:2178   .text.cmd_melody_stop:00000000 cmd_melody_stop
C:\Users\PCHAUT~1\AppData\Local\Temp\ccLw8kky.s:2214   .text.cmd_melody_stop:0000002c $d
C:\Users\PCHAUT~1\AppData\Local\Temp\ccLw8kky.s:2232   .text.cmd_mem:00000000 $t
C:\Users\PCHAUT~1\AppData\Local\Temp\ccLw8kky.s:2239   .text.cmd_mem:00000000 cmd_mem
C:\Users\PCHAUT~1\AppData\Local\Temp\ccLw8kky.s:2307   .text.cmd_mem:00000068 $d
C:\Users\PCHAUT~1\AppData\Local\Temp\ccLw8kky.s:2327   .text.cmd_threads:00000000 $t
C:\Users\PCHAUT~1\AppData\Local\Temp\ccLw8kky.s:2334   .text.cmd_threads:00000000 cmd_threads
C:\Users\PCHAUT~1\AppData\Local\Temp\ccLw8kky.s:2427   .text.cmd_threads:00000084 $d
C:\Users\PCHAUT~1\AppData\Local\Temp\ccLw8kky.s:7230   .data.states.13494:00000000 states.13494
C:\Users\PCHAUT~1\AppData\Local\Temp\ccLw8kky.s:2443   .text.cmd_test:00000000 $t
C:\Users\PCHAUT~1\AppData\Local\Temp\ccLw8kky.s:2450   .text.cmd_test:00000000 cmd_test
C:\Users\PCHAUT~1\AppData\Local\Temp\ccLw8kky.s:2519   .text.cmd_test:00000064 $d
C:\Users\PCHAUT~1\AppData\Local\Temp\ccLw8kky.s:2532   .text.cmd_readclock:00000000 $t
C:\Users\PCHAUT~1\AppData\Local\Temp\ccLw8kky.s:2539   .text.cmd_readclock:00000000 cmd_readclock
ARM GAS  C:\Users\PCHAUT~1\AppData\Local\Temp\ccLw8kky.s 			page 462


C:\Users\PCHAUT~1\AppData\Local\Temp\ccLw8kky.s:2583   .text.cmd_readclock:0000003c $d
C:\Users\PCHAUT~1\AppData\Local\Temp\ccLw8kky.s:2609   .text.cmd_sqrt:00000000 $t
C:\Users\PCHAUT~1\AppData\Local\Temp\ccLw8kky.s:2616   .text.cmd_sqrt:00000000 cmd_sqrt
C:\Users\PCHAUT~1\AppData\Local\Temp\ccLw8kky.s:2781   .text.cmd_sqrt:00000140 $d
C:\Users\PCHAUT~1\AppData\Local\Temp\ccLw8kky.s:2799   .text.cmd_atan2:00000000 $t
C:\Users\PCHAUT~1\AppData\Local\Temp\ccLw8kky.s:2806   .text.cmd_atan2:00000000 cmd_atan2
C:\Users\PCHAUT~1\AppData\Local\Temp\ccLw8kky.s:2949   .text.cmd_atan2:00000124 $d
C:\Users\PCHAUT~1\AppData\Local\Temp\ccLw8kky.s:2964   .text.tree_indent:00000000 $t
C:\Users\PCHAUT~1\AppData\Local\Temp\ccLw8kky.s:2971   .text.tree_indent:00000000 tree_indent
C:\Users\PCHAUT~1\AppData\Local\Temp\ccLw8kky.s:3023   .text.tree_indent:00000040 $d
C:\Users\PCHAUT~1\AppData\Local\Temp\ccLw8kky.s:3055   .text.show_config_tree:00000000 $t
C:\Users\PCHAUT~1\AppData\Local\Temp\ccLw8kky.s:3062   .text.show_config_tree:00000000 show_config_tree
C:\Users\PCHAUT~1\AppData\Local\Temp\ccLw8kky.s:3121   .text.show_config_tree:00000058 $d
C:\Users\PCHAUT~1\AppData\Local\Temp\ccLw8kky.s:3125   .text.show_config_tree:00000068 $t
C:\Users\PCHAUT~1\AppData\Local\Temp\ccLw8kky.s:3270   .text.show_config_tree:00000158 $d
C:\Users\PCHAUT~1\AppData\Local\Temp\ccLw8kky.s:3287   .text.cmd_config_tree:00000000 $t
C:\Users\PCHAUT~1\AppData\Local\Temp\ccLw8kky.s:3294   .text.cmd_config_tree:00000000 cmd_config_tree
C:\Users\PCHAUT~1\AppData\Local\Temp\ccLw8kky.s:3360   .text.cmd_config_tree:00000058 $d
C:\Users\PCHAUT~1\AppData\Local\Temp\ccLw8kky.s:3388   .text.cmd_config_set:00000000 $t
C:\Users\PCHAUT~1\AppData\Local\Temp\ccLw8kky.s:3395   .text.cmd_config_set:00000000 cmd_config_set
C:\Users\PCHAUT~1\AppData\Local\Temp\ccLw8kky.s:3570   .text.cmd_config_set:00000110 $d
C:\Users\PCHAUT~1\AppData\Local\Temp\ccLw8kky.s:3585   .text.cmd_config_erase:00000000 $t
C:\Users\PCHAUT~1\AppData\Local\Temp\ccLw8kky.s:3592   .text.cmd_config_erase:00000000 cmd_config_erase
C:\Users\PCHAUT~1\AppData\Local\Temp\ccLw8kky.s:3629   .text.cmd_config_erase:0000002c $d
C:\Users\PCHAUT~1\AppData\Local\Temp\ccLw8kky.s:3642   .text.cmd_config_save:00000000 $t
C:\Users\PCHAUT~1\AppData\Local\Temp\ccLw8kky.s:3649   .text.cmd_config_save:00000000 cmd_config_save
C:\Users\PCHAUT~1\AppData\Local\Temp\ccLw8kky.s:3715   .text.cmd_config_save:00000060 $d
C:\Users\PCHAUT~1\AppData\Local\Temp\ccLw8kky.s:3729   .text.cmd_config_load:00000000 $t
C:\Users\PCHAUT~1\AppData\Local\Temp\ccLw8kky.s:3736   .text.cmd_config_load:00000000 cmd_config_load
C:\Users\PCHAUT~1\AppData\Local\Temp\ccLw8kky.s:3792   .text.cmd_config_load:00000050 $d
C:\Users\PCHAUT~1\AppData\Local\Temp\ccLw8kky.s:3812   .text.cmd_cam_set_brightness:00000000 $t
C:\Users\PCHAUT~1\AppData\Local\Temp\ccLw8kky.s:3819   .text.cmd_cam_set_brightness:00000000 cmd_cam_set_brightness
C:\Users\PCHAUT~1\AppData\Local\Temp\ccLw8kky.s:3895   .text.cmd_cam_set_brightness:00000078 $d
C:\Users\PCHAUT~1\AppData\Local\Temp\ccLw8kky.s:3908   .text.cmd_cam_set_contrast:00000000 $t
C:\Users\PCHAUT~1\AppData\Local\Temp\ccLw8kky.s:3915   .text.cmd_cam_set_contrast:00000000 cmd_cam_set_contrast
C:\Users\PCHAUT~1\AppData\Local\Temp\ccLw8kky.s:3991   .text.cmd_cam_set_contrast:00000078 $d
C:\Users\PCHAUT~1\AppData\Local\Temp\ccLw8kky.s:4029   .text.cmd_cam_set_conf1:00000000 $t
C:\Users\PCHAUT~1\AppData\Local\Temp\ccLw8kky.s:4036   .text.cmd_cam_set_conf1:00000000 cmd_cam_set_conf1
C:\Users\PCHAUT~1\AppData\Local\Temp\ccLw8kky.s:4204   .text.cmd_cam_set_conf1:00000110 $d
C:\Users\PCHAUT~1\AppData\Local\Temp\ccLw8kky.s:4231   .text.cmd_cam_set_conf2:00000000 $t
C:\Users\PCHAUT~1\AppData\Local\Temp\ccLw8kky.s:4238   .text.cmd_cam_set_conf2:00000000 cmd_cam_set_conf2
C:\Users\PCHAUT~1\AppData\Local\Temp\ccLw8kky.s:4371   .text.cmd_cam_set_conf2:000000dc $d
C:\Users\PCHAUT~1\AppData\Local\Temp\ccLw8kky.s:4397   .text.cmd_cam_set_mirror:00000000 $t
C:\Users\PCHAUT~1\AppData\Local\Temp\ccLw8kky.s:4404   .text.cmd_cam_set_mirror:00000000 cmd_cam_set_mirror
C:\Users\PCHAUT~1\AppData\Local\Temp\ccLw8kky.s:4490   .text.cmd_cam_set_mirror:00000090 $d
C:\Users\PCHAUT~1\AppData\Local\Temp\ccLw8kky.s:4510   .text.cmd_cam_set_gain:00000000 $t
C:\Users\PCHAUT~1\AppData\Local\Temp\ccLw8kky.s:4517   .text.cmd_cam_set_gain:00000000 cmd_cam_set_gain
C:\Users\PCHAUT~1\AppData\Local\Temp\ccLw8kky.s:4611   .text.cmd_cam_set_gain:000000a4 $d
C:\Users\PCHAUT~1\AppData\Local\Temp\ccLw8kky.s:4630   .text.cmd_cam_set_awb:00000000 $t
C:\Users\PCHAUT~1\AppData\Local\Temp\ccLw8kky.s:4637   .text.cmd_cam_set_awb:00000000 cmd_cam_set_awb
C:\Users\PCHAUT~1\AppData\Local\Temp\ccLw8kky.s:4713   .text.cmd_cam_set_awb:00000078 $d
C:\Users\PCHAUT~1\AppData\Local\Temp\ccLw8kky.s:4732   .text.cmd_cam_set_ae:00000000 $t
C:\Users\PCHAUT~1\AppData\Local\Temp\ccLw8kky.s:4739   .text.cmd_cam_set_ae:00000000 cmd_cam_set_ae
C:\Users\PCHAUT~1\AppData\Local\Temp\ccLw8kky.s:4815   .text.cmd_cam_set_ae:00000078 $d
C:\Users\PCHAUT~1\AppData\Local\Temp\ccLw8kky.s:4836   .text.cmd_cam_set_exposure:00000000 $t
C:\Users\PCHAUT~1\AppData\Local\Temp\ccLw8kky.s:4843   .text.cmd_cam_set_exposure:00000000 cmd_cam_set_exposure
C:\Users\PCHAUT~1\AppData\Local\Temp\ccLw8kky.s:4929   .text.cmd_cam_set_exposure:00000090 $d
ARM GAS  C:\Users\PCHAUT~1\AppData\Local\Temp\ccLw8kky.s 			page 463


C:\Users\PCHAUT~1\AppData\Local\Temp\ccLw8kky.s:4948   .text.cmd_cam_dcmi_prepare:00000000 $t
C:\Users\PCHAUT~1\AppData\Local\Temp\ccLw8kky.s:4955   .text.cmd_cam_dcmi_prepare:00000000 cmd_cam_dcmi_prepare
C:\Users\PCHAUT~1\AppData\Local\Temp\ccLw8kky.s:5041   .text.cmd_cam_dcmi_prepare:00000084 $d
C:\Users\PCHAUT~1\AppData\Local\Temp\ccLw8kky.s:5053   .text.cmd_cam_dcmi_unprepare:00000000 $t
C:\Users\PCHAUT~1\AppData\Local\Temp\ccLw8kky.s:5060   .text.cmd_cam_dcmi_unprepare:00000000 cmd_cam_dcmi_unprepare
C:\Users\PCHAUT~1\AppData\Local\Temp\ccLw8kky.s:5100   .text.cmd_cam_dcmi_unprepare:00000034 $d
C:\Users\PCHAUT~1\AppData\Local\Temp\ccLw8kky.s:5106   .text.cmd_cam_capture:00000000 $t
C:\Users\PCHAUT~1\AppData\Local\Temp\ccLw8kky.s:5113   .text.cmd_cam_capture:00000000 cmd_cam_capture
C:\Users\PCHAUT~1\AppData\Local\Temp\ccLw8kky.s:5149   .text.cmd_cam_capture:0000002c $d
C:\Users\PCHAUT~1\AppData\Local\Temp\ccLw8kky.s:5164   .text.cmd_cam_send:00000000 $t
C:\Users\PCHAUT~1\AppData\Local\Temp\ccLw8kky.s:5171   .text.cmd_cam_send:00000000 cmd_cam_send
C:\Users\PCHAUT~1\AppData\Local\Temp\ccLw8kky.s:5286   .text.cmd_cam_send:000000bc $d
C:\Users\PCHAUT~1\AppData\Local\Temp\ccLw8kky.s:5301   .text.cmd_set_led:00000000 $t
C:\Users\PCHAUT~1\AppData\Local\Temp\ccLw8kky.s:5308   .text.cmd_set_led:00000000 cmd_set_led
C:\Users\PCHAUT~1\AppData\Local\Temp\ccLw8kky.s:5407   .text.cmd_set_led:000000a4 $d
C:\Users\PCHAUT~1\AppData\Local\Temp\ccLw8kky.s:5421   .text.cmd_set_speed:00000000 $t
C:\Users\PCHAUT~1\AppData\Local\Temp\ccLw8kky.s:5428   .text.cmd_set_speed:00000000 cmd_set_speed
C:\Users\PCHAUT~1\AppData\Local\Temp\ccLw8kky.s:5511   .text.cmd_set_speed:00000090 $d
C:\Users\PCHAUT~1\AppData\Local\Temp\ccLw8kky.s:5523   .text.cmd_get_battery:00000000 $t
C:\Users\PCHAUT~1\AppData\Local\Temp\ccLw8kky.s:5530   .text.cmd_get_battery:00000000 cmd_get_battery
C:\Users\PCHAUT~1\AppData\Local\Temp\ccLw8kky.s:5571   .text.cmd_get_battery:00000038 $d
C:\Users\PCHAUT~1\AppData\Local\Temp\ccLw8kky.s:5582   .text.cmd_audio_play:00000000 $t
C:\Users\PCHAUT~1\AppData\Local\Temp\ccLw8kky.s:5589   .text.cmd_audio_play:00000000 cmd_audio_play
C:\Users\PCHAUT~1\AppData\Local\Temp\ccLw8kky.s:5646   .text.cmd_audio_play:00000050 $d
C:\Users\PCHAUT~1\AppData\Local\Temp\ccLw8kky.s:5652   .text.cmd_audio_stop:00000000 $t
C:\Users\PCHAUT~1\AppData\Local\Temp\ccLw8kky.s:5659   .text.cmd_audio_stop:00000000 cmd_audio_stop
C:\Users\PCHAUT~1\AppData\Local\Temp\ccLw8kky.s:5695   .text.cmd_audio_stop:0000002c $d
C:\Users\PCHAUT~1\AppData\Local\Temp\ccLw8kky.s:5707   .text.cmd_volume:00000000 $t
C:\Users\PCHAUT~1\AppData\Local\Temp\ccLw8kky.s:5714   .text.cmd_volume:00000000 cmd_volume
C:\Users\PCHAUT~1\AppData\Local\Temp\ccLw8kky.s:5776   .text.cmd_volume:0000005c $d
C:\Users\PCHAUT~1\AppData\Local\Temp\ccLw8kky.s:5783   .text.cmd_mic_data:00000000 $t
C:\Users\PCHAUT~1\AppData\Local\Temp\ccLw8kky.s:5790   .text.cmd_mic_data:00000000 cmd_mic_data
C:\Users\PCHAUT~1\AppData\Local\Temp\ccLw8kky.s:5874   .text.cmd_mic_data:00000090 $d
C:\Users\PCHAUT~1\AppData\Local\Temp\ccLw8kky.s:5969   .text.cmd_sdc:00000000 $t
C:\Users\PCHAUT~1\AppData\Local\Temp\ccLw8kky.s:5977   .text.cmd_sdc:00000000 cmd_sdc
C:\Users\PCHAUT~1\AppData\Local\Temp\ccLw8kky.s:6318   .text.cmd_sdc:0000024c $d
C:\Users\PCHAUT~1\AppData\Local\Temp\ccLw8kky.s:7267   .data.mode.13741:00000000 mode.13741
C:\Users\PCHAUT~1\AppData\Local\Temp\ccLw8kky.s:6341   .text.cmd_sdc:000002a0 $t
C:\Users\PCHAUT~1\AppData\Local\Temp\ccLw8kky.s:6734   .text.cmd_sdc:00000560 $d
C:\Users\PCHAUT~1\AppData\Local\Temp\ccLw8kky.s:6758   .text.cmd_sdc:000005b8 $t
C:\Users\PCHAUT~1\AppData\Local\Temp\ccLw8kky.s:6796   .text.cmd_sdc:000005f0 $d
C:\Users\PCHAUT~1\AppData\Local\Temp\ccLw8kky.s:6948   .rodata.shell_commands:00000000 shell_commands
C:\Users\PCHAUT~1\AppData\Local\Temp\ccLw8kky.s:6945   .rodata.shell_commands:00000000 $d
C:\Users\PCHAUT~1\AppData\Local\Temp\ccLw8kky.s:7048   .text.shell_spawn_thd:00000000 $t
C:\Users\PCHAUT~1\AppData\Local\Temp\ccLw8kky.s:7055   .text.shell_spawn_thd:00000000 shell_spawn_thd
C:\Users\PCHAUT~1\AppData\Local\Temp\ccLw8kky.s:7117   .text.shell_spawn_thd:00000058 $d
C:\Users\PCHAUT~1\AppData\Local\Temp\ccLw8kky.s:7276   .rodata.shell_cfg.13769:00000000 shell_cfg.13769
C:\Users\PCHAUT~1\AppData\Local\Temp\ccLw8kky.s:7124   .text.shell_start:00000000 $t
C:\Users\PCHAUT~1\AppData\Local\Temp\ccLw8kky.s:7132   .text.shell_start:00000000 shell_start
C:\Users\PCHAUT~1\AppData\Local\Temp\ccLw8kky.s:7171   .text.shell_start:00000034 $d
C:\Users\PCHAUT~1\AppData\Local\Temp\ccLw8kky.s:7283   .bss.wa.13774:00000000 wa.13774
C:\Users\PCHAUT~1\AppData\Local\Temp\ccLw8kky.s:7227   .data.states.13494:00000000 $d
C:\Users\PCHAUT~1\AppData\Local\Temp\ccLw8kky.s:7248   .rodata.__func__.8875:00000000 $d
C:\Users\PCHAUT~1\AppData\Local\Temp\ccLw8kky.s:7264   .data.mode.13741:00000000 $d
C:\Users\PCHAUT~1\AppData\Local\Temp\ccLw8kky.s:7273   .rodata.shell_cfg.13769:00000000 $d
C:\Users\PCHAUT~1\AppData\Local\Temp\ccLw8kky.s:7280   .bss.wa.13774:00000000 $d

ARM GAS  C:\Users\PCHAUT~1\AppData\Local\Temp\ccLw8kky.s 			page 464


UNDEFINED SYMBOLS
__stack_chk_fail
__stack_chk_guard
_stats_start_measure_crit_thd
_dbg_check_lock
_dbg_check_unlock
_stats_stop_measure_crit_thd
chSysHalt
ch
chvprintf
mountSDCard
unmountSDCard
f_getfree
getSDCardClusterSize
memset
scan_files
f_open
fverbose_error
f_puts
f_close
f_mkdir
f_setlabel
f_getlabel
f_read
playSoundFile
stopCurrentSoundFile
atoi
setSoundFileVolume
playMelody
stopCurrentMelody
chHeapStatus
chCoreGetStatusX
chRegFirstThread
chRegNextThread
chThdCreateFromHeap
chThdWait
TestThread
chTMObjectInit
strcmp
chTMStartMeasurementX
aseba_sqrt
chTMStopMeasurementX
sqrtf
aseba_atan2
atan2f
__aeabi_f2d
parameter_defined
parameter_scalar_get
parameter_integer_get
parameter_boolean_get
parameter_string_get
parameter_namespace_find
parameter_root
parameter_find
sscanf
parameter_integer_set
parameter_boolean_set
ARM GAS  C:\Users\PCHAUT~1\AppData\Local\Temp\ccLw8kky.s 			page 465


parameter_string_set
config_erase
_config_start
config_save
config_load
_config_end
po8030_set_brightness
po8030_set_contrast
po8030_advanced_config
po8030_set_mirror
po8030_set_rgb_gain
po8030_set_awb
po8030_set_ae
po8030_set_exposure
dcmi_set_capture_mode
dcmi_disable_double_buffering
dcmi_enable_double_buffering
dcmi_prepare
dcmi_unprepare
dcmi_capture_start
dcmi_capture_stop
dcmi_double_buffering_enabled
chThdSleep
dcmi_get_first_buffer_ptr
po8030_get_image_size
dcmi_get_second_buffer_ptr
SDU1
set_led
set_body_led
set_front_led
right_motor_set_speed
left_motor_set_speed
get_battery_raw
dac_play
dac_stop
mic_get_volume
mic_buffer_get_size
mic_buffer_ready_reset
mic_buffer_is_ready
mic_get_buffer_ptr
sdcConnect
SDCD1
sdcWrite
sdcErase
sdcGetAndClearErrors
sdcRead
memcmp
sdcDisconnect
shellInit
shellCreate
chThdRelease
chThdCreateStatic
