ARM GAS  C:\Users\PCHAUT~1\AppData\Local\Temp\ccLw8kky.s 			page 1


   1              		.cpu cortex-m4
   2              		.eabi_attribute 27, 1
   3              		.eabi_attribute 28, 1
   4              		.eabi_attribute 20, 1
   5              		.eabi_attribute 21, 1
   6              		.eabi_attribute 23, 3
   7              		.eabi_attribute 24, 1
   8              		.eabi_attribute 25, 1
   9              		.eabi_attribute 26, 1
  10              		.eabi_attribute 30, 6
  11              		.eabi_attribute 34, 1
  12              		.eabi_attribute 18, 4
  13              		.file	"cmd.c"
  14              		.text
  15              	.Ltext0:
  16              		.cfi_sections	.debug_frame
  17              		.section	.text.port_lock,"ax",%progbits
  18              		.align	1
  19              		.p2align 4,,15
  20              		.syntax unified
  21              		.thumb
  22              		.thumb_func
  23              		.fpu fpv4-sp-d16
  24              		.type	port_lock, %function
  25              	port_lock:
  26              	.LFB119:
  27              		.file 1 "../lib/e-puck2_main-processor/ChibiOS//os/rt/ports/ARMCMx/chcore_v7m.h"
  28              		.loc 1 444 0
  29              		.cfi_startproc
  30              		@ args = 0, pretend = 0, frame = 8
  31              		@ frame_needed = 0, uses_anonymous_args = 0
  32 0000 00B5     		push	{lr}
  33              		.cfi_def_cfa_offset 4
  34              		.cfi_offset 14, -4
  35 0002 83B0     		sub	sp, sp, #12
  36              		.cfi_def_cfa_offset 16
  37              		.loc 1 444 0
  38 0004 094B     		ldr	r3, .L3
  39 0006 1B68     		ldr	r3, [r3]
  40 0008 0193     		str	r3, [sp, #4]
  41 000a 2023     		movs	r3, #32
  42 000c 0093     		str	r3, [sp]
  43              	.LBB6:
  44              	.LBB7:
  45              		.file 2 "../lib/e-puck2_main-processor/ChibiOS//os/ext/CMSIS/include/core_cmFunc.h"
  46              		.loc 2 546 0
  47 000e 009B     		ldr	r3, [sp]
  48              		.syntax unified
  49              	@ 546 "../lib/e-puck2_main-processor/ChibiOS//os/ext/CMSIS/include/core_cmFunc.h" 1
  50 0010 83F31188 		MSR basepri, r3
  51              	@ 0 "" 2
  52              		.thumb
  53              		.syntax unified
  54              	.LBE7:
  55              	.LBE6:
  56              		.loc 1 451 0
  57 0014 00BF     		nop
ARM GAS  C:\Users\PCHAUT~1\AppData\Local\Temp\ccLw8kky.s 			page 2


  58 0016 054B     		ldr	r3, .L3
  59 0018 019A     		ldr	r2, [sp, #4]
  60 001a 1B68     		ldr	r3, [r3]
  61 001c 9A42     		cmp	r2, r3
  62 001e 01D0     		beq	.L2
  63 0020 FFF7FEFF 		bl	__stack_chk_fail
  64              	.L2:
  65 0024 03B0     		add	sp, sp, #12
  66              		.cfi_def_cfa_offset 4
  67              		@ sp needed
  68 0026 5DF804FB 		ldr	pc, [sp], #4
  69              	.L4:
  70 002a 00BF     		.align	2
  71              	.L3:
  72 002c 00000000 		.word	__stack_chk_guard
  73              		.cfi_endproc
  74              	.LFE119:
  75              		.size	port_lock, .-port_lock
  76              		.section	.text.port_unlock,"ax",%progbits
  77              		.align	1
  78              		.p2align 4,,15
  79              		.syntax unified
  80              		.thumb
  81              		.thumb_func
  82              		.fpu fpv4-sp-d16
  83              		.type	port_unlock, %function
  84              	port_unlock:
  85              	.LFB120:
  86              		.loc 1 458 0
  87              		.cfi_startproc
  88              		@ args = 0, pretend = 0, frame = 8
  89              		@ frame_needed = 0, uses_anonymous_args = 0
  90 0000 00B5     		push	{lr}
  91              		.cfi_def_cfa_offset 4
  92              		.cfi_offset 14, -4
  93 0002 83B0     		sub	sp, sp, #12
  94              		.cfi_def_cfa_offset 16
  95              		.loc 1 458 0
  96 0004 094B     		ldr	r3, .L7
  97 0006 1B68     		ldr	r3, [r3]
  98 0008 0193     		str	r3, [sp, #4]
  99 000a 0023     		movs	r3, #0
 100 000c 0093     		str	r3, [sp]
 101              	.LBB8:
 102              	.LBB9:
 103              		.loc 2 546 0
 104 000e 009B     		ldr	r3, [sp]
 105              		.syntax unified
 106              	@ 546 "../lib/e-puck2_main-processor/ChibiOS//os/ext/CMSIS/include/core_cmFunc.h" 1
 107 0010 83F31188 		MSR basepri, r3
 108              	@ 0 "" 2
 109              		.thumb
 110              		.syntax unified
 111              	.LBE9:
 112              	.LBE8:
 113              		.loc 1 465 0
 114 0014 00BF     		nop
ARM GAS  C:\Users\PCHAUT~1\AppData\Local\Temp\ccLw8kky.s 			page 3


 115 0016 054B     		ldr	r3, .L7
 116 0018 019A     		ldr	r2, [sp, #4]
 117 001a 1B68     		ldr	r3, [r3]
 118 001c 9A42     		cmp	r2, r3
 119 001e 01D0     		beq	.L6
 120 0020 FFF7FEFF 		bl	__stack_chk_fail
 121              	.L6:
 122 0024 03B0     		add	sp, sp, #12
 123              		.cfi_def_cfa_offset 4
 124              		@ sp needed
 125 0026 5DF804FB 		ldr	pc, [sp], #4
 126              	.L8:
 127 002a 00BF     		.align	2
 128              	.L7:
 129 002c 00000000 		.word	__stack_chk_guard
 130              		.cfi_endproc
 131              	.LFE120:
 132              		.size	port_unlock, .-port_unlock
 133              		.section	.text.chSysLock,"ax",%progbits
 134              		.align	1
 135              		.p2align 4,,15
 136              		.syntax unified
 137              		.thumb
 138              		.thumb_func
 139              		.fpu fpv4-sp-d16
 140              		.type	chSysLock, %function
 141              	chSysLock:
 142              	.LFB148:
 143              		.file 3 "../lib/e-puck2_main-processor/ChibiOS//os/rt/include/chsys.h"
 144              		.loc 3 346 0
 145              		.cfi_startproc
 146              		@ args = 0, pretend = 0, frame = 8
 147              		@ frame_needed = 0, uses_anonymous_args = 0
 148 0000 00B5     		push	{lr}
 149              		.cfi_def_cfa_offset 4
 150              		.cfi_offset 14, -4
 151 0002 83B0     		sub	sp, sp, #12
 152              		.cfi_def_cfa_offset 16
 153              		.loc 3 346 0
 154 0004 094B     		ldr	r3, .L11
 155 0006 1B68     		ldr	r3, [r3]
 156 0008 0193     		str	r3, [sp, #4]
 157              		.loc 3 348 0
 158 000a FFF7FEFF 		bl	port_lock
 159              		.loc 3 349 0
 160 000e FFF7FEFF 		bl	_stats_start_measure_crit_thd
 161              		.loc 3 350 0
 162 0012 FFF7FEFF 		bl	_dbg_check_lock
 163              		.loc 3 351 0
 164 0016 00BF     		nop
 165 0018 044B     		ldr	r3, .L11
 166 001a 019A     		ldr	r2, [sp, #4]
 167 001c 1B68     		ldr	r3, [r3]
 168 001e 9A42     		cmp	r2, r3
 169 0020 01D0     		beq	.L10
 170 0022 FFF7FEFF 		bl	__stack_chk_fail
 171              	.L10:
ARM GAS  C:\Users\PCHAUT~1\AppData\Local\Temp\ccLw8kky.s 			page 4


 172 0026 03B0     		add	sp, sp, #12
 173              		.cfi_def_cfa_offset 4
 174              		@ sp needed
 175 0028 5DF804FB 		ldr	pc, [sp], #4
 176              	.L12:
 177              		.align	2
 178              	.L11:
 179 002c 00000000 		.word	__stack_chk_guard
 180              		.cfi_endproc
 181              	.LFE148:
 182              		.size	chSysLock, .-chSysLock
 183              		.section	.text.chSysUnlock,"ax",%progbits
 184              		.align	1
 185              		.p2align 4,,15
 186              		.syntax unified
 187              		.thumb
 188              		.thumb_func
 189              		.fpu fpv4-sp-d16
 190              		.type	chSysUnlock, %function
 191              	chSysUnlock:
 192              	.LFB149:
 193              		.loc 3 358 0
 194              		.cfi_startproc
 195              		@ args = 0, pretend = 0, frame = 8
 196              		@ frame_needed = 0, uses_anonymous_args = 0
 197 0000 00B5     		push	{lr}
 198              		.cfi_def_cfa_offset 4
 199              		.cfi_offset 14, -4
 200 0002 83B0     		sub	sp, sp, #12
 201              		.cfi_def_cfa_offset 16
 202              		.loc 3 358 0
 203 0004 114B     		ldr	r3, .L16
 204 0006 1B68     		ldr	r3, [r3]
 205 0008 0193     		str	r3, [sp, #4]
 206              		.loc 3 360 0
 207 000a FFF7FEFF 		bl	_dbg_check_unlock
 208              		.loc 3 361 0
 209 000e FFF7FEFF 		bl	_stats_stop_measure_crit_thd
 210              		.loc 3 367 0
 211 0012 0F4B     		ldr	r3, .L16+4
 212 0014 1B68     		ldr	r3, [r3]
 213 0016 0E4A     		ldr	r2, .L16+4
 214 0018 9342     		cmp	r3, r2
 215 001a 0AD0     		beq	.L14
 216              		.loc 3 367 0 is_stmt 0 discriminator 2
 217 001c 0C4B     		ldr	r3, .L16+4
 218 001e 9B69     		ldr	r3, [r3, #24]
 219 0020 9A68     		ldr	r2, [r3, #8]
 220 0022 0B4B     		ldr	r3, .L16+4
 221 0024 1B68     		ldr	r3, [r3]
 222 0026 9B68     		ldr	r3, [r3, #8]
 223 0028 9A42     		cmp	r2, r3
 224 002a 02D2     		bcs	.L14
 225              		.loc 3 367 0 discriminator 3
 226 002c 0948     		ldr	r0, .L16+8
 227 002e FFF7FEFF 		bl	chSysHalt
 228              	.L14:
ARM GAS  C:\Users\PCHAUT~1\AppData\Local\Temp\ccLw8kky.s 			page 5


 229              		.loc 3 371 0 is_stmt 1
 230 0032 FFF7FEFF 		bl	port_unlock
 231              		.loc 3 372 0
 232 0036 00BF     		nop
 233 0038 044B     		ldr	r3, .L16
 234 003a 019A     		ldr	r2, [sp, #4]
 235 003c 1B68     		ldr	r3, [r3]
 236 003e 9A42     		cmp	r2, r3
 237 0040 01D0     		beq	.L15
 238 0042 FFF7FEFF 		bl	__stack_chk_fail
 239              	.L15:
 240 0046 03B0     		add	sp, sp, #12
 241              		.cfi_def_cfa_offset 4
 242              		@ sp needed
 243 0048 5DF804FB 		ldr	pc, [sp], #4
 244              	.L17:
 245              		.align	2
 246              	.L16:
 247 004c 00000000 		.word	__stack_chk_guard
 248 0050 00000000 		.word	ch
 249 0054 00000000 		.word	__func__.8875
 250              		.cfi_endproc
 251              	.LFE149:
 252              		.size	chSysUnlock, .-chSysUnlock
 253              		.section	.text.chVTGetSystemTimeX,"ax",%progbits
 254              		.align	1
 255              		.p2align 4,,15
 256              		.syntax unified
 257              		.thumb
 258              		.thumb_func
 259              		.fpu fpv4-sp-d16
 260              		.type	chVTGetSystemTimeX, %function
 261              	chVTGetSystemTimeX:
 262              	.LFB156:
 263              		.file 4 "../lib/e-puck2_main-processor/ChibiOS//os/rt/include/chvt.h"
 264              		.loc 4 228 0
 265              		.cfi_startproc
 266              		@ args = 0, pretend = 0, frame = 8
 267              		@ frame_needed = 0, uses_anonymous_args = 0
 268 0000 00B5     		push	{lr}
 269              		.cfi_def_cfa_offset 4
 270              		.cfi_offset 14, -4
 271 0002 83B0     		sub	sp, sp, #12
 272              		.cfi_def_cfa_offset 16
 273              		.loc 4 228 0
 274 0004 074B     		ldr	r3, .L21
 275 0006 1B68     		ldr	r3, [r3]
 276 0008 0193     		str	r3, [sp, #4]
 277              		.loc 4 231 0
 278 000a 074B     		ldr	r3, .L21+4
 279 000c 9B6A     		ldr	r3, [r3, #40]
 280              		.loc 4 235 0
 281 000e 1846     		mov	r0, r3
 282 0010 044B     		ldr	r3, .L21
 283 0012 019A     		ldr	r2, [sp, #4]
 284 0014 1B68     		ldr	r3, [r3]
 285 0016 9A42     		cmp	r2, r3
ARM GAS  C:\Users\PCHAUT~1\AppData\Local\Temp\ccLw8kky.s 			page 6


 286 0018 01D0     		beq	.L20
 287 001a FFF7FEFF 		bl	__stack_chk_fail
 288              	.L20:
 289 001e 03B0     		add	sp, sp, #12
 290              		.cfi_def_cfa_offset 4
 291              		@ sp needed
 292 0020 5DF804FB 		ldr	pc, [sp], #4
 293              	.L22:
 294              		.align	2
 295              	.L21:
 296 0024 00000000 		.word	__stack_chk_guard
 297 0028 00000000 		.word	ch
 298              		.cfi_endproc
 299              	.LFE156:
 300              		.size	chVTGetSystemTimeX, .-chVTGetSystemTimeX
 301              		.section	.text.chVTGetSystemTime,"ax",%progbits
 302              		.align	1
 303              		.p2align 4,,15
 304              		.syntax unified
 305              		.thumb
 306              		.thumb_func
 307              		.fpu fpv4-sp-d16
 308              		.type	chVTGetSystemTime, %function
 309              	chVTGetSystemTime:
 310              	.LFB157:
 311              		.loc 4 247 0
 312              		.cfi_startproc
 313              		@ args = 0, pretend = 0, frame = 8
 314              		@ frame_needed = 0, uses_anonymous_args = 0
 315 0000 00B5     		push	{lr}
 316              		.cfi_def_cfa_offset 4
 317              		.cfi_offset 14, -4
 318 0002 83B0     		sub	sp, sp, #12
 319              		.cfi_def_cfa_offset 16
 320              		.loc 4 247 0
 321 0004 0A4B     		ldr	r3, .L26
 322 0006 1B68     		ldr	r3, [r3]
 323 0008 0193     		str	r3, [sp, #4]
 324              		.loc 4 250 0
 325 000a FFF7FEFF 		bl	chSysLock
 326              		.loc 4 251 0
 327 000e FFF7FEFF 		bl	chVTGetSystemTimeX
 328 0012 0090     		str	r0, [sp]
 329              		.loc 4 252 0
 330 0014 FFF7FEFF 		bl	chSysUnlock
 331              		.loc 4 254 0
 332 0018 009B     		ldr	r3, [sp]
 333              		.loc 4 255 0
 334 001a 1846     		mov	r0, r3
 335 001c 044B     		ldr	r3, .L26
 336 001e 019A     		ldr	r2, [sp, #4]
 337 0020 1B68     		ldr	r3, [r3]
 338 0022 9A42     		cmp	r2, r3
 339 0024 01D0     		beq	.L25
 340 0026 FFF7FEFF 		bl	__stack_chk_fail
 341              	.L25:
 342 002a 03B0     		add	sp, sp, #12
ARM GAS  C:\Users\PCHAUT~1\AppData\Local\Temp\ccLw8kky.s 			page 7


 343              		.cfi_def_cfa_offset 4
 344              		@ sp needed
 345 002c 5DF804FB 		ldr	pc, [sp], #4
 346              	.L27:
 347              		.align	2
 348              	.L26:
 349 0030 00000000 		.word	__stack_chk_guard
 350              		.cfi_endproc
 351              	.LFE157:
 352              		.size	chVTGetSystemTime, .-chVTGetSystemTime
 353              		.section	.text.chVTIsTimeWithinX,"ax",%progbits
 354              		.align	1
 355              		.p2align 4,,15
 356              		.syntax unified
 357              		.thumb
 358              		.thumb_func
 359              		.fpu fpv4-sp-d16
 360              		.type	chVTIsTimeWithinX, %function
 361              	chVTIsTimeWithinX:
 362              	.LFB159:
 363              		.loc 4 286 0
 364              		.cfi_startproc
 365              		@ args = 0, pretend = 0, frame = 24
 366              		@ frame_needed = 0, uses_anonymous_args = 0
 367 0000 00B5     		push	{lr}
 368              		.cfi_def_cfa_offset 4
 369              		.cfi_offset 14, -4
 370 0002 87B0     		sub	sp, sp, #28
 371              		.cfi_def_cfa_offset 32
 372 0004 0390     		str	r0, [sp, #12]
 373 0006 0291     		str	r1, [sp, #8]
 374 0008 0192     		str	r2, [sp, #4]
 375              		.loc 4 286 0
 376 000a 0C4B     		ldr	r3, .L31
 377 000c 1B68     		ldr	r3, [r3]
 378 000e 0593     		str	r3, [sp, #20]
 379              		.loc 4 288 0
 380 0010 039A     		ldr	r2, [sp, #12]
 381 0012 029B     		ldr	r3, [sp, #8]
 382 0014 D21A     		subs	r2, r2, r3
 383 0016 0199     		ldr	r1, [sp, #4]
 384 0018 029B     		ldr	r3, [sp, #8]
 385 001a CB1A     		subs	r3, r1, r3
 386 001c 9A42     		cmp	r2, r3
 387 001e 34BF     		ite	cc
 388 0020 0123     		movcc	r3, #1
 389 0022 0023     		movcs	r3, #0
 390 0024 DBB2     		uxtb	r3, r3
 391              		.loc 4 289 0
 392 0026 1846     		mov	r0, r3
 393 0028 044B     		ldr	r3, .L31
 394 002a 059A     		ldr	r2, [sp, #20]
 395 002c 1B68     		ldr	r3, [r3]
 396 002e 9A42     		cmp	r2, r3
 397 0030 01D0     		beq	.L30
 398 0032 FFF7FEFF 		bl	__stack_chk_fail
 399              	.L30:
ARM GAS  C:\Users\PCHAUT~1\AppData\Local\Temp\ccLw8kky.s 			page 8


 400 0036 07B0     		add	sp, sp, #28
 401              		.cfi_def_cfa_offset 4
 402              		@ sp needed
 403 0038 5DF804FB 		ldr	pc, [sp], #4
 404              	.L32:
 405              		.align	2
 406              	.L31:
 407 003c 00000000 		.word	__stack_chk_guard
 408              		.cfi_endproc
 409              	.LFE159:
 410              		.size	chVTIsTimeWithinX, .-chVTIsTimeWithinX
 411              		.section	.text.chVTIsSystemTimeWithin,"ax",%progbits
 412              		.align	1
 413              		.p2align 4,,15
 414              		.syntax unified
 415              		.thumb
 416              		.thumb_func
 417              		.fpu fpv4-sp-d16
 418              		.type	chVTIsSystemTimeWithin, %function
 419              	chVTIsSystemTimeWithin:
 420              	.LFB161:
 421              		.loc 4 322 0
 422              		.cfi_startproc
 423              		@ args = 0, pretend = 0, frame = 16
 424              		@ frame_needed = 0, uses_anonymous_args = 0
 425 0000 00B5     		push	{lr}
 426              		.cfi_def_cfa_offset 4
 427              		.cfi_offset 14, -4
 428 0002 85B0     		sub	sp, sp, #20
 429              		.cfi_def_cfa_offset 24
 430 0004 0190     		str	r0, [sp, #4]
 431 0006 0091     		str	r1, [sp]
 432              		.loc 4 322 0
 433 0008 0B4B     		ldr	r3, .L36
 434 000a 1B68     		ldr	r3, [r3]
 435 000c 0393     		str	r3, [sp, #12]
 436              		.loc 4 324 0
 437 000e FFF7FEFF 		bl	chVTGetSystemTime
 438 0012 0346     		mov	r3, r0
 439 0014 009A     		ldr	r2, [sp]
 440 0016 0199     		ldr	r1, [sp, #4]
 441 0018 1846     		mov	r0, r3
 442 001a FFF7FEFF 		bl	chVTIsTimeWithinX
 443 001e 0346     		mov	r3, r0
 444              		.loc 4 325 0
 445 0020 1846     		mov	r0, r3
 446 0022 054B     		ldr	r3, .L36
 447 0024 039A     		ldr	r2, [sp, #12]
 448 0026 1B68     		ldr	r3, [r3]
 449 0028 9A42     		cmp	r2, r3
 450 002a 01D0     		beq	.L35
 451 002c FFF7FEFF 		bl	__stack_chk_fail
 452              	.L35:
 453 0030 05B0     		add	sp, sp, #20
 454              		.cfi_def_cfa_offset 4
 455              		@ sp needed
 456 0032 5DF804FB 		ldr	pc, [sp], #4
ARM GAS  C:\Users\PCHAUT~1\AppData\Local\Temp\ccLw8kky.s 			page 9


 457              	.L37:
 458 0036 00BF     		.align	2
 459              	.L36:
 460 0038 00000000 		.word	__stack_chk_guard
 461              		.cfi_endproc
 462              	.LFE161:
 463              		.size	chVTIsSystemTimeWithin, .-chVTIsSystemTimeWithin
 464              		.section	.text.chThdGetSelfX,"ax",%progbits
 465              		.align	1
 466              		.p2align 4,,15
 467              		.syntax unified
 468              		.thumb
 469              		.thumb_func
 470              		.fpu fpv4-sp-d16
 471              		.type	chThdGetSelfX, %function
 472              	chThdGetSelfX:
 473              	.LFB169:
 474              		.file 5 "../lib/e-puck2_main-processor/ChibiOS//os/rt/include/chthreads.h"
 475              		.loc 5 174 0
 476              		.cfi_startproc
 477              		@ args = 0, pretend = 0, frame = 8
 478              		@ frame_needed = 0, uses_anonymous_args = 0
 479 0000 00B5     		push	{lr}
 480              		.cfi_def_cfa_offset 4
 481              		.cfi_offset 14, -4
 482 0002 83B0     		sub	sp, sp, #12
 483              		.cfi_def_cfa_offset 16
 484              		.loc 5 174 0
 485 0004 074B     		ldr	r3, .L41
 486 0006 1B68     		ldr	r3, [r3]
 487 0008 0193     		str	r3, [sp, #4]
 488              		.loc 5 176 0
 489 000a 074B     		ldr	r3, .L41+4
 490 000c 9B69     		ldr	r3, [r3, #24]
 491              		.loc 5 177 0
 492 000e 1846     		mov	r0, r3
 493 0010 044B     		ldr	r3, .L41
 494 0012 019A     		ldr	r2, [sp, #4]
 495 0014 1B68     		ldr	r3, [r3]
 496 0016 9A42     		cmp	r2, r3
 497 0018 01D0     		beq	.L40
 498 001a FFF7FEFF 		bl	__stack_chk_fail
 499              	.L40:
 500 001e 03B0     		add	sp, sp, #12
 501              		.cfi_def_cfa_offset 4
 502              		@ sp needed
 503 0020 5DF804FB 		ldr	pc, [sp], #4
 504              	.L42:
 505              		.align	2
 506              	.L41:
 507 0024 00000000 		.word	__stack_chk_guard
 508 0028 00000000 		.word	ch
 509              		.cfi_endproc
 510              	.LFE169:
 511              		.size	chThdGetSelfX, .-chThdGetSelfX
 512              		.section	.text.chThdGetPriorityX,"ax",%progbits
 513              		.align	1
ARM GAS  C:\Users\PCHAUT~1\AppData\Local\Temp\ccLw8kky.s 			page 10


 514              		.p2align 4,,15
 515              		.syntax unified
 516              		.thumb
 517              		.thumb_func
 518              		.fpu fpv4-sp-d16
 519              		.type	chThdGetPriorityX, %function
 520              	chThdGetPriorityX:
 521              	.LFB170:
 522              		.loc 5 187 0
 523              		.cfi_startproc
 524              		@ args = 0, pretend = 0, frame = 8
 525              		@ frame_needed = 0, uses_anonymous_args = 0
 526 0000 00B5     		push	{lr}
 527              		.cfi_def_cfa_offset 4
 528              		.cfi_offset 14, -4
 529 0002 83B0     		sub	sp, sp, #12
 530              		.cfi_def_cfa_offset 16
 531              		.loc 5 187 0
 532 0004 084B     		ldr	r3, .L46
 533 0006 1B68     		ldr	r3, [r3]
 534 0008 0193     		str	r3, [sp, #4]
 535              		.loc 5 189 0
 536 000a FFF7FEFF 		bl	chThdGetSelfX
 537 000e 0346     		mov	r3, r0
 538 0010 9B68     		ldr	r3, [r3, #8]
 539              		.loc 5 190 0
 540 0012 1846     		mov	r0, r3
 541 0014 044B     		ldr	r3, .L46
 542 0016 019A     		ldr	r2, [sp, #4]
 543 0018 1B68     		ldr	r3, [r3]
 544 001a 9A42     		cmp	r2, r3
 545 001c 01D0     		beq	.L45
 546 001e FFF7FEFF 		bl	__stack_chk_fail
 547              	.L45:
 548 0022 03B0     		add	sp, sp, #12
 549              		.cfi_def_cfa_offset 4
 550              		@ sp needed
 551 0024 5DF804FB 		ldr	pc, [sp], #4
 552              	.L47:
 553              		.align	2
 554              	.L46:
 555 0028 00000000 		.word	__stack_chk_guard
 556              		.cfi_endproc
 557              	.LFE170:
 558              		.size	chThdGetPriorityX, .-chThdGetPriorityX
 559              		.section	.text.chThdTerminatedX,"ax",%progbits
 560              		.align	1
 561              		.p2align 4,,15
 562              		.syntax unified
 563              		.thumb
 564              		.thumb_func
 565              		.fpu fpv4-sp-d16
 566              		.type	chThdTerminatedX, %function
 567              	chThdTerminatedX:
 568              	.LFB172:
 569              		.loc 5 218 0
 570              		.cfi_startproc
ARM GAS  C:\Users\PCHAUT~1\AppData\Local\Temp\ccLw8kky.s 			page 11


 571              		@ args = 0, pretend = 0, frame = 16
 572              		@ frame_needed = 0, uses_anonymous_args = 0
 573 0000 00B5     		push	{lr}
 574              		.cfi_def_cfa_offset 4
 575              		.cfi_offset 14, -4
 576 0002 85B0     		sub	sp, sp, #20
 577              		.cfi_def_cfa_offset 24
 578 0004 0190     		str	r0, [sp, #4]
 579              		.loc 5 218 0
 580 0006 0B4B     		ldr	r3, .L51
 581 0008 1B68     		ldr	r3, [r3]
 582 000a 0393     		str	r3, [sp, #12]
 583              		.loc 5 220 0
 584 000c 019B     		ldr	r3, [sp, #4]
 585 000e 93F82030 		ldrb	r3, [r3, #32]	@ zero_extendqisi2
 586 0012 0F2B     		cmp	r3, #15
 587 0014 0CBF     		ite	eq
 588 0016 0123     		moveq	r3, #1
 589 0018 0023     		movne	r3, #0
 590 001a DBB2     		uxtb	r3, r3
 591              		.loc 5 221 0
 592 001c 1846     		mov	r0, r3
 593 001e 054B     		ldr	r3, .L51
 594 0020 039A     		ldr	r2, [sp, #12]
 595 0022 1B68     		ldr	r3, [r3]
 596 0024 9A42     		cmp	r2, r3
 597 0026 01D0     		beq	.L50
 598 0028 FFF7FEFF 		bl	__stack_chk_fail
 599              	.L50:
 600 002c 05B0     		add	sp, sp, #20
 601              		.cfi_def_cfa_offset 4
 602              		@ sp needed
 603 002e 5DF804FB 		ldr	pc, [sp], #4
 604              	.L52:
 605 0032 00BF     		.align	2
 606              	.L51:
 607 0034 00000000 		.word	__stack_chk_guard
 608              		.cfi_endproc
 609              	.LFE172:
 610              		.size	chThdTerminatedX, .-chThdTerminatedX
 611              		.section	.text.chprintf,"ax",%progbits
 612              		.align	1
 613              		.p2align 4,,15
 614              		.syntax unified
 615              		.thumb
 616              		.thumb_func
 617              		.fpu fpv4-sp-d16
 618              		.type	chprintf, %function
 619              	chprintf:
 620              	.LFB259:
 621              		.file 6 "../lib/e-puck2_main-processor/ChibiOS//os/hal/lib/streams/chprintf.h"
 622              		.loc 6 69 0
 623              		.cfi_startproc
 624              		@ args = 4, pretend = 12, frame = 24
 625              		@ frame_needed = 0, uses_anonymous_args = 1
 626 0000 0EB4     		push	{r1, r2, r3}
 627              		.cfi_def_cfa_offset 12
ARM GAS  C:\Users\PCHAUT~1\AppData\Local\Temp\ccLw8kky.s 			page 12


 628              		.cfi_offset 1, -12
 629              		.cfi_offset 2, -8
 630              		.cfi_offset 3, -4
 631 0002 00B5     		push	{lr}
 632              		.cfi_def_cfa_offset 16
 633              		.cfi_offset 14, -16
 634 0004 86B0     		sub	sp, sp, #24
 635              		.cfi_def_cfa_offset 40
 636 0006 0190     		str	r0, [sp, #4]
 637 0008 079B     		ldr	r3, [sp, #28]
 638 000a 0093     		str	r3, [sp]
 639              		.loc 6 69 0
 640 000c 0C4B     		ldr	r3, .L56
 641 000e 1B68     		ldr	r3, [r3]
 642 0010 0593     		str	r3, [sp, #20]
 643              		.loc 6 73 0
 644 0012 08AB     		add	r3, sp, #32
 645 0014 0393     		str	r3, [sp, #12]
 646              		.loc 6 74 0
 647 0016 039A     		ldr	r2, [sp, #12]
 648 0018 0099     		ldr	r1, [sp]
 649 001a 0198     		ldr	r0, [sp, #4]
 650 001c FFF7FEFF 		bl	chvprintf
 651 0020 0490     		str	r0, [sp, #16]
 652              		.loc 6 77 0
 653 0022 049B     		ldr	r3, [sp, #16]
 654              		.loc 6 78 0
 655 0024 1846     		mov	r0, r3
 656 0026 064B     		ldr	r3, .L56
 657 0028 059A     		ldr	r2, [sp, #20]
 658 002a 1B68     		ldr	r3, [r3]
 659 002c 9A42     		cmp	r2, r3
 660 002e 01D0     		beq	.L55
 661 0030 FFF7FEFF 		bl	__stack_chk_fail
 662              	.L55:
 663 0034 06B0     		add	sp, sp, #24
 664              		.cfi_def_cfa_offset 16
 665              		@ sp needed
 666 0036 5DF804EB 		ldr	lr, [sp], #4
 667              		.cfi_restore 14
 668              		.cfi_def_cfa_offset 12
 669 003a 03B0     		add	sp, sp, #12
 670              		.cfi_restore 3
 671              		.cfi_restore 2
 672              		.cfi_restore 1
 673              		.cfi_def_cfa_offset 0
 674 003c 7047     		bx	lr
 675              	.L57:
 676 003e 00BF     		.align	2
 677              	.L56:
 678 0040 00000000 		.word	__stack_chk_guard
 679              		.cfi_endproc
 680              	.LFE259:
 681              		.size	chprintf, .-chprintf
 682              		.section	.bss.buf,"aw",%nobits
 683              		.align	2
 684              		.type	buf, %object
ARM GAS  C:\Users\PCHAUT~1\AppData\Local\Temp\ccLw8kky.s 			page 13


 685              		.size	buf, 8196
 686              	buf:
 687 0000 00000000 		.space	8196
 687      00000000 
 687      00000000 
 687      00000000 
 687      00000000 
 688              		.section	.bss.buf2,"aw",%nobits
 689              		.align	2
 690              		.type	buf2, %object
 691              		.size	buf2, 8192
 692              	buf2:
 693 0000 00000000 		.space	8192
 693      00000000 
 693      00000000 
 693      00000000 
 693      00000000 
 694              		.section	.bss.cmd_fmt,"aw",%nobits
 695              		.type	cmd_fmt, %object
 696              		.size	cmd_fmt, 1
 697              	cmd_fmt:
 698 0000 00       		.space	1
 699              		.section	.bss.cmd_subx,"aw",%nobits
 700              		.type	cmd_subx, %object
 701              		.size	cmd_subx, 1
 702              	cmd_subx:
 703 0000 00       		.space	1
 704              		.section	.bss.cmd_suby,"aw",%nobits
 705              		.type	cmd_suby, %object
 706              		.size	cmd_suby, 1
 707              	cmd_suby:
 708 0000 00       		.space	1
 709              		.section	.bss.cmd_x1,"aw",%nobits
 710              		.align	1
 711              		.type	cmd_x1, %object
 712              		.size	cmd_x1, 2
 713              	cmd_x1:
 714 0000 0000     		.space	2
 715              		.section	.bss.cmd_y1,"aw",%nobits
 716              		.align	1
 717              		.type	cmd_y1, %object
 718              		.size	cmd_y1, 2
 719              	cmd_y1:
 720 0000 0000     		.space	2
 721              		.section	.bss.cmd_width,"aw",%nobits
 722              		.align	1
 723              		.type	cmd_width, %object
 724              		.size	cmd_width, 2
 725              	cmd_width:
 726 0000 0000     		.space	2
 727              		.section	.bss.cmd_height,"aw",%nobits
 728              		.align	1
 729              		.type	cmd_height, %object
 730              		.size	cmd_height, 2
 731              	cmd_height:
 732 0000 0000     		.space	2
 733              		.section	.bss.fbuff,"aw",%nobits
ARM GAS  C:\Users\PCHAUT~1\AppData\Local\Temp\ccLw8kky.s 			page 14


 734              		.align	2
 735              		.type	fbuff, %object
 736              		.size	fbuff, 256
 737              	fbuff:
 738 0000 00000000 		.space	256
 738      00000000 
 738      00000000 
 738      00000000 
 738      00000000 
 739              		.section	.rodata
 740              		.align	2
 741              	.LC0:
 742 0000 46533A20 		.ascii	"FS: f_mount() failed. Is the SD card inserted?\015\012"
 742      665F6D6F 
 742      756E7428 
 742      29206661 
 742      696C6564 
 743 0030 00       		.ascii	"\000"
 744 0031 000000   		.align	2
 745              	.LC1:
 746 0034 46533A20 		.ascii	"FS: f_mount() succeeded\015\012\000"
 746      665F6D6F 
 746      756E7428 
 746      29207375 
 746      63636565 
 747              		.section	.text.cmd_mount,"ax",%progbits
 748              		.align	1
 749              		.p2align 4,,15
 750              		.global	cmd_mount
 751              		.syntax unified
 752              		.thumb
 753              		.thumb_func
 754              		.fpu fpv4-sp-d16
 755              		.type	cmd_mount, %function
 756              	cmd_mount:
 757              	.LFB261:
 758              		.file 7 "../lib/e-puck2_main-processor/src/cmd.c"
 759              		.loc 7 53 0
 760              		.cfi_startproc
 761              		@ args = 0, pretend = 0, frame = 24
 762              		@ frame_needed = 0, uses_anonymous_args = 0
 763 0000 00B5     		push	{lr}
 764              		.cfi_def_cfa_offset 4
 765              		.cfi_offset 14, -4
 766 0002 87B0     		sub	sp, sp, #28
 767              		.cfi_def_cfa_offset 32
 768 0004 0390     		str	r0, [sp, #12]
 769 0006 0291     		str	r1, [sp, #8]
 770 0008 0192     		str	r2, [sp, #4]
 771              		.loc 7 53 0
 772 000a 0F4B     		ldr	r3, .L62
 773 000c 1B68     		ldr	r3, [r3]
 774 000e 0593     		str	r3, [sp, #20]
 775              		.loc 7 60 0
 776 0010 FFF7FEFF 		bl	mountSDCard
 777 0014 0346     		mov	r3, r0
 778 0016 83F00103 		eor	r3, r3, #1
ARM GAS  C:\Users\PCHAUT~1\AppData\Local\Temp\ccLw8kky.s 			page 15


 779 001a DBB2     		uxtb	r3, r3
 780 001c 002B     		cmp	r3, #0
 781 001e 04D0     		beq	.L59
 782              		.loc 7 61 0
 783 0020 0A49     		ldr	r1, .L62+4
 784 0022 0398     		ldr	r0, [sp, #12]
 785 0024 FFF7FEFF 		bl	chprintf
 786              		.loc 7 62 0
 787 0028 03E0     		b	.L58
 788              	.L59:
 789              		.loc 7 64 0
 790 002a 0949     		ldr	r1, .L62+8
 791 002c 0398     		ldr	r0, [sp, #12]
 792 002e FFF7FEFF 		bl	chprintf
 793              	.L58:
 794              		.loc 7 65 0
 795 0032 054B     		ldr	r3, .L62
 796 0034 059A     		ldr	r2, [sp, #20]
 797 0036 1B68     		ldr	r3, [r3]
 798 0038 9A42     		cmp	r2, r3
 799 003a 01D0     		beq	.L61
 800 003c FFF7FEFF 		bl	__stack_chk_fail
 801              	.L61:
 802 0040 07B0     		add	sp, sp, #28
 803              		.cfi_def_cfa_offset 4
 804              		@ sp needed
 805 0042 5DF804FB 		ldr	pc, [sp], #4
 806              	.L63:
 807 0046 00BF     		.align	2
 808              	.L62:
 809 0048 00000000 		.word	__stack_chk_guard
 810 004c 00000000 		.word	.LC0
 811 0050 34000000 		.word	.LC1
 812              		.cfi_endproc
 813              	.LFE261:
 814              		.size	cmd_mount, .-cmd_mount
 815              		.section	.rodata
 816 004e 0000     		.align	2
 817              	.LC2:
 818 0050 46533A20 		.ascii	"FS: f_mount() unmount failed\015\012\000"
 818      665F6D6F 
 818      756E7428 
 818      2920756E 
 818      6D6F756E 
 819              		.section	.text.cmd_unmount,"ax",%progbits
 820              		.align	1
 821              		.p2align 4,,15
 822              		.global	cmd_unmount
 823              		.syntax unified
 824              		.thumb
 825              		.thumb_func
 826              		.fpu fpv4-sp-d16
 827              		.type	cmd_unmount, %function
 828              	cmd_unmount:
 829              	.LFB262:
 830              		.loc 7 67 0
 831              		.cfi_startproc
ARM GAS  C:\Users\PCHAUT~1\AppData\Local\Temp\ccLw8kky.s 			page 16


 832              		@ args = 0, pretend = 0, frame = 24
 833              		@ frame_needed = 0, uses_anonymous_args = 0
 834 0000 00B5     		push	{lr}
 835              		.cfi_def_cfa_offset 4
 836              		.cfi_offset 14, -4
 837 0002 87B0     		sub	sp, sp, #28
 838              		.cfi_def_cfa_offset 32
 839 0004 0390     		str	r0, [sp, #12]
 840 0006 0291     		str	r1, [sp, #8]
 841 0008 0192     		str	r2, [sp, #4]
 842              		.loc 7 67 0
 843 000a 0D4B     		ldr	r3, .L67
 844 000c 1B68     		ldr	r3, [r3]
 845 000e 0593     		str	r3, [sp, #20]
 846              		.loc 7 71 0
 847 0010 FFF7FEFF 		bl	unmountSDCard
 848 0014 0346     		mov	r3, r0
 849 0016 83F00103 		eor	r3, r3, #1
 850 001a DBB2     		uxtb	r3, r3
 851 001c 002B     		cmp	r3, #0
 852 001e 04D0     		beq	.L64
 853              		.loc 7 72 0
 854 0020 0849     		ldr	r1, .L67+4
 855 0022 0398     		ldr	r0, [sp, #12]
 856 0024 FFF7FEFF 		bl	chprintf
 857              		.loc 7 73 0
 858 0028 00BF     		nop
 859              	.L64:
 860              		.loc 7 75 0
 861 002a 054B     		ldr	r3, .L67
 862 002c 059A     		ldr	r2, [sp, #20]
 863 002e 1B68     		ldr	r3, [r3]
 864 0030 9A42     		cmp	r2, r3
 865 0032 01D0     		beq	.L66
 866 0034 FFF7FEFF 		bl	__stack_chk_fail
 867              	.L66:
 868 0038 07B0     		add	sp, sp, #28
 869              		.cfi_def_cfa_offset 4
 870              		@ sp needed
 871 003a 5DF804FB 		ldr	pc, [sp], #4
 872              	.L68:
 873 003e 00BF     		.align	2
 874              	.L67:
 875 0040 00000000 		.word	__stack_chk_guard
 876 0044 50000000 		.word	.LC2
 877              		.cfi_endproc
 878              	.LFE262:
 879              		.size	cmd_unmount, .-cmd_unmount
 880              		.section	.rodata
 881 006f 00       		.align	2
 882              	.LC3:
 883 0070 2F00     		.ascii	"/\000"
 884 0072 0000     		.align	2
 885              	.LC4:
 886 0074 46533A20 		.ascii	"FS: f_getfree() failed\015\012\000"
 886      665F6765 
 886      74667265 
ARM GAS  C:\Users\PCHAUT~1\AppData\Local\Temp\ccLw8kky.s 			page 17


 886      65282920 
 886      6661696C 
 887 008d 000000   		.align	2
 888              	.LC5:
 889 0090 46533A20 		.ascii	"FS: %lu free clusters\015\012    %lu sectors per cl"
 889      256C7520 
 889      66726565 
 889      20636C75 
 889      73746572 
 890 00bd 75737465 		.ascii	"uster\015\012\000"
 890      720D0A00 
 891 00c5 000000   		.align	2
 892              	.LC6:
 893 00c8 256C7520 		.ascii	"%lu B free\015\012\000"
 893      42206672 
 893      65650D0A 
 893      00
 894 00d5 000000   		.align	2
 895              	.LC7:
 896 00d8 256C7520 		.ascii	"%lu KB free\015\012\000"
 896      4B422066 
 896      7265650D 
 896      0A00
 897 00e6 0000     		.align	2
 898              	.LC8:
 899 00e8 256C7520 		.ascii	"%lu MB free\015\012\000"
 899      4D422066 
 899      7265650D 
 899      0A00
 900              		.section	.text.cmd_free,"ax",%progbits
 901              		.align	1
 902              		.p2align 4,,15
 903              		.global	cmd_free
 904              		.syntax unified
 905              		.thumb
 906              		.thumb_func
 907              		.fpu fpv4-sp-d16
 908              		.type	cmd_free, %function
 909              	cmd_free:
 910              	.LFB263:
 911              		.loc 7 77 0
 912              		.cfi_startproc
 913              		@ args = 0, pretend = 0, frame = 32
 914              		@ frame_needed = 0, uses_anonymous_args = 0
 915 0000 00B5     		push	{lr}
 916              		.cfi_def_cfa_offset 4
 917              		.cfi_offset 14, -4
 918 0002 89B0     		sub	sp, sp, #36
 919              		.cfi_def_cfa_offset 40
 920 0004 0390     		str	r0, [sp, #12]
 921 0006 0291     		str	r1, [sp, #8]
 922 0008 0192     		str	r2, [sp, #4]
 923              		.loc 7 77 0
 924 000a 274B     		ldr	r3, .L73
 925 000c 1B68     		ldr	r3, [r3]
 926 000e 0793     		str	r3, [sp, #28]
 927              		.loc 7 85 0
ARM GAS  C:\Users\PCHAUT~1\AppData\Local\Temp\ccLw8kky.s 			page 18


 928 0010 06AA     		add	r2, sp, #24
 929 0012 05AB     		add	r3, sp, #20
 930 0014 1946     		mov	r1, r3
 931 0016 2548     		ldr	r0, .L73+4
 932 0018 FFF7FEFF 		bl	f_getfree
 933 001c 0346     		mov	r3, r0
 934 001e 8DF81230 		strb	r3, [sp, #18]
 935              		.loc 7 86 0
 936 0022 9DF81230 		ldrb	r3, [sp, #18]	@ zero_extendqisi2
 937 0026 002B     		cmp	r3, #0
 938 0028 04D0     		beq	.L70
 939              		.loc 7 87 0
 940 002a 2149     		ldr	r1, .L73+8
 941 002c 0398     		ldr	r0, [sp, #12]
 942 002e FFF7FEFF 		bl	chprintf
 943 0032 2EE0     		b	.L69
 944              	.L70:
 945              		.loc 7 91 0
 946 0034 FFF7FEFF 		bl	getSDCardClusterSize
 947 0038 0346     		mov	r3, r0
 948 003a 8DF81330 		strb	r3, [sp, #19]
 949              		.loc 7 95 0
 950 003e 059A     		ldr	r2, [sp, #20]
 951 0040 9DF81330 		ldrb	r3, [sp, #19]	@ zero_extendqisi2
 952 0044 1B49     		ldr	r1, .L73+12
 953 0046 0398     		ldr	r0, [sp, #12]
 954 0048 FFF7FEFF 		bl	chprintf
 955              		.loc 7 98 0
 956 004c 9DF81330 		ldrb	r3, [sp, #19]	@ zero_extendqisi2
 957 0050 059A     		ldr	r2, [sp, #20]
 958 0052 02FB03F3 		mul	r3, r2, r3
 959              		.loc 7 97 0
 960 0056 5B02     		lsls	r3, r3, #9
 961 0058 1A46     		mov	r2, r3
 962 005a 1749     		ldr	r1, .L73+16
 963 005c 0398     		ldr	r0, [sp, #12]
 964 005e FFF7FEFF 		bl	chprintf
 965              		.loc 7 100 0
 966 0062 9DF81330 		ldrb	r3, [sp, #19]	@ zero_extendqisi2
 967 0066 059A     		ldr	r2, [sp, #20]
 968 0068 02FB03F3 		mul	r3, r2, r3
 969 006c 5B02     		lsls	r3, r3, #9
 970              		.loc 7 99 0
 971 006e 9B0A     		lsrs	r3, r3, #10
 972 0070 1A46     		mov	r2, r3
 973 0072 1249     		ldr	r1, .L73+20
 974 0074 0398     		ldr	r0, [sp, #12]
 975 0076 FFF7FEFF 		bl	chprintf
 976              		.loc 7 102 0
 977 007a 9DF81330 		ldrb	r3, [sp, #19]	@ zero_extendqisi2
 978 007e 059A     		ldr	r2, [sp, #20]
 979 0080 02FB03F3 		mul	r3, r2, r3
 980 0084 5B02     		lsls	r3, r3, #9
 981              		.loc 7 101 0
 982 0086 1B0D     		lsrs	r3, r3, #20
 983 0088 1A46     		mov	r2, r3
 984 008a 0D49     		ldr	r1, .L73+24
ARM GAS  C:\Users\PCHAUT~1\AppData\Local\Temp\ccLw8kky.s 			page 19


 985 008c 0398     		ldr	r0, [sp, #12]
 986 008e FFF7FEFF 		bl	chprintf
 987              	.L69:
 988              		.loc 7 103 0
 989 0092 054B     		ldr	r3, .L73
 990 0094 079A     		ldr	r2, [sp, #28]
 991 0096 1B68     		ldr	r3, [r3]
 992 0098 9A42     		cmp	r2, r3
 993 009a 01D0     		beq	.L72
 994 009c FFF7FEFF 		bl	__stack_chk_fail
 995              	.L72:
 996 00a0 09B0     		add	sp, sp, #36
 997              		.cfi_def_cfa_offset 4
 998              		@ sp needed
 999 00a2 5DF804FB 		ldr	pc, [sp], #4
 1000              	.L74:
 1001 00a6 00BF     		.align	2
 1002              	.L73:
 1003 00a8 00000000 		.word	__stack_chk_guard
 1004 00ac 70000000 		.word	.LC3
 1005 00b0 74000000 		.word	.LC4
 1006 00b4 90000000 		.word	.LC5
 1007 00b8 C8000000 		.word	.LC6
 1008 00bc D8000000 		.word	.LC7
 1009 00c0 E8000000 		.word	.LC8
 1010              		.cfi_endproc
 1011              	.LFE263:
 1012              		.size	cmd_free, .-cmd_free
 1013              		.section	.text.cmd_tree,"ax",%progbits
 1014              		.align	1
 1015              		.p2align 4,,15
 1016              		.global	cmd_tree
 1017              		.syntax unified
 1018              		.thumb
 1019              		.thumb_func
 1020              		.fpu fpv4-sp-d16
 1021              		.type	cmd_tree, %function
 1022              	cmd_tree:
 1023              	.LFB264:
 1024              		.loc 7 105 0
 1025              		.cfi_startproc
 1026              		@ args = 0, pretend = 0, frame = 24
 1027              		@ frame_needed = 0, uses_anonymous_args = 0
 1028 0000 00B5     		push	{lr}
 1029              		.cfi_def_cfa_offset 4
 1030              		.cfi_offset 14, -4
 1031 0002 87B0     		sub	sp, sp, #28
 1032              		.cfi_def_cfa_offset 32
 1033 0004 0390     		str	r0, [sp, #12]
 1034 0006 0291     		str	r1, [sp, #8]
 1035 0008 0192     		str	r2, [sp, #4]
 1036              		.loc 7 105 0
 1037 000a 0C4B     		ldr	r3, .L77
 1038 000c 1B68     		ldr	r3, [r3]
 1039 000e 0593     		str	r3, [sp, #20]
 1040              		.loc 7 112 0
 1041 0010 4FF48072 		mov	r2, #256
ARM GAS  C:\Users\PCHAUT~1\AppData\Local\Temp\ccLw8kky.s 			page 20


 1042 0014 0021     		movs	r1, #0
 1043 0016 0A48     		ldr	r0, .L77+4
 1044 0018 FFF7FEFF 		bl	memset
 1045              		.loc 7 114 0
 1046 001c 0849     		ldr	r1, .L77+4
 1047 001e 0398     		ldr	r0, [sp, #12]
 1048 0020 FFF7FEFF 		bl	scan_files
 1049              		.loc 7 115 0
 1050 0024 00BF     		nop
 1051 0026 054B     		ldr	r3, .L77
 1052 0028 059A     		ldr	r2, [sp, #20]
 1053 002a 1B68     		ldr	r3, [r3]
 1054 002c 9A42     		cmp	r2, r3
 1055 002e 01D0     		beq	.L76
 1056 0030 FFF7FEFF 		bl	__stack_chk_fail
 1057              	.L76:
 1058 0034 07B0     		add	sp, sp, #28
 1059              		.cfi_def_cfa_offset 4
 1060              		@ sp needed
 1061 0036 5DF804FB 		ldr	pc, [sp], #4
 1062              	.L78:
 1063 003a 00BF     		.align	2
 1064              	.L77:
 1065 003c 00000000 		.word	__stack_chk_guard
 1066 0040 00000000 		.word	fbuff
 1067              		.cfi_endproc
 1068              	.LFE264:
 1069              		.size	cmd_tree, .-cmd_tree
 1070              		.section	.rodata
 1071 00f6 0000     		.align	2
 1072              	.LC9:
 1073 00f8 55736167 		.ascii	"Usage: hello\015\012\000"
 1073      653A2068 
 1073      656C6C6F 
 1073      0D0A00
 1074 0107 00       		.align	2
 1075              	.LC10:
 1076 0108 20202020 		.ascii	"       Creates hello.txt with 'Hello World'\015\012"
 1076      20202043 
 1076      72656174 
 1076      65732068 
 1076      656C6C6F 
 1077 0135 00       		.ascii	"\000"
 1078 0136 0000     		.align	2
 1079              	.LC11:
 1080 0138 68656C6C 		.ascii	"hello.txt\000"
 1080      6F2E7478 
 1080      7400
 1081 0142 0000     		.align	2
 1082              	.LC12:
 1083 0144 46533A20 		.ascii	"FS: f_open(\"hello.txt\") failed.\015\012\000"
 1083      665F6F70 
 1083      656E2822 
 1083      68656C6C 
 1083      6F2E7478 
 1084 0166 0000     		.align	2
 1085              	.LC13:
ARM GAS  C:\Users\PCHAUT~1\AppData\Local\Temp\ccLw8kky.s 			page 21


 1086 0168 46533A20 		.ascii	"FS: f_open(\"hello.txt\") succeeded\015\012\000"
 1086      665F6F70 
 1086      656E2822 
 1086      68656C6C 
 1086      6F2E7478 
 1087              		.align	2
 1088              	.LC14:
 1089 018c 48656C6C 		.ascii	"Hello World\000"
 1089      6F20576F 
 1089      726C6400 
 1090              		.align	2
 1091              	.LC15:
 1092 0198 46533A20 		.ascii	"FS: f_puts(\"Hello World\",\"hello.txt\") failed\015"
 1092      665F7075 
 1092      74732822 
 1092      48656C6C 
 1092      6F20576F 
 1093 01c5 0A00     		.ascii	"\012\000"
 1094 01c7 00       		.align	2
 1095              	.LC16:
 1096 01c8 46533A20 		.ascii	"FS: f_puts(\"Hello World\",\"hello.txt\") succeeded"
 1096      665F7075 
 1096      74732822 
 1096      48656C6C 
 1096      6F20576F 
 1097 01f7 0D0A00   		.ascii	"\015\012\000"
 1098              		.section	.text.cmd_hello,"ax",%progbits
 1099              		.align	1
 1100              		.p2align 4,,15
 1101              		.global	cmd_hello
 1102              		.syntax unified
 1103              		.thumb
 1104              		.thumb_func
 1105              		.fpu fpv4-sp-d16
 1106              		.type	cmd_hello, %function
 1107              	cmd_hello:
 1108              	.LFB265:
 1109              		.loc 7 118 0
 1110              		.cfi_startproc
 1111              		@ args = 0, pretend = 0, frame = 584
 1112              		@ frame_needed = 0, uses_anonymous_args = 0
 1113 0000 10B5     		push	{r4, lr}
 1114              		.cfi_def_cfa_offset 8
 1115              		.cfi_offset 4, -8
 1116              		.cfi_offset 14, -4
 1117 0002 ADF5127D 		sub	sp, sp, #584
 1118              		.cfi_def_cfa_offset 592
 1119 0006 03AB     		add	r3, sp, #12
 1120 0008 1860     		str	r0, [r3]
 1121 000a 02AB     		add	r3, sp, #8
 1122 000c 1960     		str	r1, [r3]
 1123 000e 01AB     		add	r3, sp, #4
 1124 0010 1A60     		str	r2, [r3]
 1125              		.loc 7 118 0
 1126 0012 2C4B     		ldr	r3, .L87
 1127 0014 1B68     		ldr	r3, [r3]
 1128 0016 9193     		str	r3, [sp, #580]
ARM GAS  C:\Users\PCHAUT~1\AppData\Local\Temp\ccLw8kky.s 			page 22


 1129              		.loc 7 126 0
 1130 0018 02AB     		add	r3, sp, #8
 1131 001a 1B68     		ldr	r3, [r3]
 1132 001c 002B     		cmp	r3, #0
 1133 001e 0ADD     		ble	.L80
 1134              		.loc 7 127 0
 1135 0020 03AB     		add	r3, sp, #12
 1136 0022 2949     		ldr	r1, .L87+4
 1137 0024 1868     		ldr	r0, [r3]
 1138 0026 FFF7FEFF 		bl	chprintf
 1139              		.loc 7 128 0
 1140 002a 03AB     		add	r3, sp, #12
 1141 002c 2749     		ldr	r1, .L87+8
 1142 002e 1868     		ldr	r0, [r3]
 1143 0030 FFF7FEFF 		bl	chprintf
 1144              		.loc 7 129 0
 1145 0034 3CE0     		b	.L79
 1146              	.L80:
 1147              		.loc 7 134 0
 1148 0036 0DF11704 		add	r4, sp, #23
 1149 003a 07AB     		add	r3, sp, #28
 1150 003c 0B22     		movs	r2, #11
 1151 003e 2449     		ldr	r1, .L87+12
 1152 0040 1846     		mov	r0, r3
 1153 0042 FFF7FEFF 		bl	f_open
 1154 0046 0346     		mov	r3, r0
 1155 0048 2370     		strb	r3, [r4]
 1156              		.loc 7 135 0
 1157 004a 0DF11703 		add	r3, sp, #23
 1158 004e 1B78     		ldrb	r3, [r3]	@ zero_extendqisi2
 1159 0050 002B     		cmp	r3, #0
 1160 0052 0DD0     		beq	.L82
 1161              		.loc 7 136 0
 1162 0054 03AB     		add	r3, sp, #12
 1163 0056 1F49     		ldr	r1, .L87+16
 1164 0058 1868     		ldr	r0, [r3]
 1165 005a FFF7FEFF 		bl	chprintf
 1166              		.loc 7 137 0
 1167 005e 0DF11703 		add	r3, sp, #23
 1168 0062 1A78     		ldrb	r2, [r3]	@ zero_extendqisi2
 1169 0064 03AB     		add	r3, sp, #12
 1170 0066 1146     		mov	r1, r2
 1171 0068 1868     		ldr	r0, [r3]
 1172 006a FFF7FEFF 		bl	fverbose_error
 1173              		.loc 7 138 0
 1174 006e 1FE0     		b	.L79
 1175              	.L82:
 1176              		.loc 7 140 0
 1177 0070 03AB     		add	r3, sp, #12
 1178 0072 1949     		ldr	r1, .L87+20
 1179 0074 1868     		ldr	r0, [r3]
 1180 0076 FFF7FEFF 		bl	chprintf
 1181              		.loc 7 145 0
 1182 007a 06AC     		add	r4, sp, #24
 1183 007c 07AB     		add	r3, sp, #28
 1184 007e 1946     		mov	r1, r3
 1185 0080 1648     		ldr	r0, .L87+24
ARM GAS  C:\Users\PCHAUT~1\AppData\Local\Temp\ccLw8kky.s 			page 23


 1186 0082 FFF7FEFF 		bl	f_puts
 1187 0086 2060     		str	r0, [r4]
 1188              		.loc 7 146 0
 1189 0088 06AB     		add	r3, sp, #24
 1190 008a 1B68     		ldr	r3, [r3]
 1191 008c B3F1FF3F 		cmp	r3, #-1
 1192 0090 05D1     		bne	.L83
 1193              		.loc 7 147 0
 1194 0092 03AB     		add	r3, sp, #12
 1195 0094 1249     		ldr	r1, .L87+28
 1196 0096 1868     		ldr	r0, [r3]
 1197 0098 FFF7FEFF 		bl	chprintf
 1198 009c 04E0     		b	.L84
 1199              	.L83:
 1200              		.loc 7 149 0
 1201 009e 03AB     		add	r3, sp, #12
 1202 00a0 1049     		ldr	r1, .L87+32
 1203 00a2 1868     		ldr	r0, [r3]
 1204 00a4 FFF7FEFF 		bl	chprintf
 1205              	.L84:
 1206              		.loc 7 154 0
 1207 00a8 07AB     		add	r3, sp, #28
 1208 00aa 1846     		mov	r0, r3
 1209 00ac FFF7FEFF 		bl	f_close
 1210              	.L79:
 1211              		.loc 7 155 0
 1212 00b0 044B     		ldr	r3, .L87
 1213 00b2 919A     		ldr	r2, [sp, #580]
 1214 00b4 1B68     		ldr	r3, [r3]
 1215 00b6 9A42     		cmp	r2, r3
 1216 00b8 01D0     		beq	.L86
 1217 00ba FFF7FEFF 		bl	__stack_chk_fail
 1218              	.L86:
 1219 00be 0DF5127D 		add	sp, sp, #584
 1220              		.cfi_def_cfa_offset 8
 1221              		@ sp needed
 1222 00c2 10BD     		pop	{r4, pc}
 1223              	.L88:
 1224              		.align	2
 1225              	.L87:
 1226 00c4 00000000 		.word	__stack_chk_guard
 1227 00c8 F8000000 		.word	.LC9
 1228 00cc 08010000 		.word	.LC10
 1229 00d0 38010000 		.word	.LC11
 1230 00d4 44010000 		.word	.LC12
 1231 00d8 68010000 		.word	.LC13
 1232 00dc 8C010000 		.word	.LC14
 1233 00e0 98010000 		.word	.LC15
 1234 00e4 C8010000 		.word	.LC16
 1235              		.cfi_endproc
 1236              	.LFE265:
 1237              		.size	cmd_hello, .-cmd_hello
 1238              		.section	.rodata
 1239 01fa 0000     		.align	2
 1240              	.LC17:
 1241 01fc 55736167 		.ascii	"Usage: mkdir dirName\015\012\000"
 1241      653A206D 
ARM GAS  C:\Users\PCHAUT~1\AppData\Local\Temp\ccLw8kky.s 			page 24


 1241      6B646972 
 1241      20646972 
 1241      4E616D65 
 1242 0213 00       		.align	2
 1243              	.LC18:
 1244 0214 20202020 		.ascii	"       Creates directory with dirName (no spaces)\015"
 1244      20202043 
 1244      72656174 
 1244      65732064 
 1244      69726563 
 1245 0246 0A00     		.ascii	"\012\000"
 1246              		.align	2
 1247              	.LC19:
 1248 0248 46533A20 		.ascii	"FS: f_mkdir(%s) failed\015\012\000"
 1248      665F6D6B 
 1248      64697228 
 1248      25732920 
 1248      6661696C 
 1249 0261 000000   		.align	2
 1250              	.LC20:
 1251 0264 46533A20 		.ascii	"FS: f_mkdir(%s) succeeded\015\012\000"
 1251      665F6D6B 
 1251      64697228 
 1251      25732920 
 1251      73756363 
 1252              		.section	.text.cmd_mkdir,"ax",%progbits
 1253              		.align	1
 1254              		.p2align 4,,15
 1255              		.global	cmd_mkdir
 1256              		.syntax unified
 1257              		.thumb
 1258              		.thumb_func
 1259              		.fpu fpv4-sp-d16
 1260              		.type	cmd_mkdir, %function
 1261              	cmd_mkdir:
 1262              	.LFB266:
 1263              		.loc 7 157 0
 1264              		.cfi_startproc
 1265              		@ args = 0, pretend = 0, frame = 24
 1266              		@ frame_needed = 0, uses_anonymous_args = 0
 1267 0000 00B5     		push	{lr}
 1268              		.cfi_def_cfa_offset 4
 1269              		.cfi_offset 14, -4
 1270 0002 87B0     		sub	sp, sp, #28
 1271              		.cfi_def_cfa_offset 32
 1272 0004 0390     		str	r0, [sp, #12]
 1273 0006 0291     		str	r1, [sp, #8]
 1274 0008 0192     		str	r2, [sp, #4]
 1275              		.loc 7 157 0
 1276 000a 1D4B     		ldr	r3, .L94
 1277 000c 1B68     		ldr	r3, [r3]
 1278 000e 0593     		str	r3, [sp, #20]
 1279              		.loc 7 159 0
 1280 0010 029B     		ldr	r3, [sp, #8]
 1281 0012 012B     		cmp	r3, #1
 1282 0014 08D0     		beq	.L90
 1283              		.loc 7 160 0
ARM GAS  C:\Users\PCHAUT~1\AppData\Local\Temp\ccLw8kky.s 			page 25


 1284 0016 1B49     		ldr	r1, .L94+4
 1285 0018 0398     		ldr	r0, [sp, #12]
 1286 001a FFF7FEFF 		bl	chprintf
 1287              		.loc 7 161 0
 1288 001e 1A49     		ldr	r1, .L94+8
 1289 0020 0398     		ldr	r0, [sp, #12]
 1290 0022 FFF7FEFF 		bl	chprintf
 1291              		.loc 7 162 0
 1292 0026 21E0     		b	.L89
 1293              	.L90:
 1294              		.loc 7 167 0
 1295 0028 019B     		ldr	r3, [sp, #4]
 1296 002a 1B68     		ldr	r3, [r3]
 1297 002c 1846     		mov	r0, r3
 1298 002e FFF7FEFF 		bl	f_mkdir
 1299 0032 0346     		mov	r3, r0
 1300 0034 8DF81330 		strb	r3, [sp, #19]
 1301              		.loc 7 168 0
 1302 0038 9DF81330 		ldrb	r3, [sp, #19]	@ zero_extendqisi2
 1303 003c 002B     		cmp	r3, #0
 1304 003e 0DD0     		beq	.L92
 1305              		.loc 7 172 0
 1306 0040 019B     		ldr	r3, [sp, #4]
 1307 0042 1B68     		ldr	r3, [r3]
 1308 0044 1A46     		mov	r2, r3
 1309 0046 1149     		ldr	r1, .L94+12
 1310 0048 0398     		ldr	r0, [sp, #12]
 1311 004a FFF7FEFF 		bl	chprintf
 1312              		.loc 7 173 0
 1313 004e 9DF81330 		ldrb	r3, [sp, #19]	@ zero_extendqisi2
 1314 0052 1946     		mov	r1, r3
 1315 0054 0398     		ldr	r0, [sp, #12]
 1316 0056 FFF7FEFF 		bl	fverbose_error
 1317              		.loc 7 174 0
 1318 005a 07E0     		b	.L89
 1319              	.L92:
 1320              		.loc 7 176 0
 1321 005c 019B     		ldr	r3, [sp, #4]
 1322 005e 1B68     		ldr	r3, [r3]
 1323 0060 1A46     		mov	r2, r3
 1324 0062 0B49     		ldr	r1, .L94+16
 1325 0064 0398     		ldr	r0, [sp, #12]
 1326 0066 FFF7FEFF 		bl	chprintf
 1327              		.loc 7 178 0
 1328 006a 00BF     		nop
 1329              	.L89:
 1330              		.loc 7 179 0
 1331 006c 044B     		ldr	r3, .L94
 1332 006e 059A     		ldr	r2, [sp, #20]
 1333 0070 1B68     		ldr	r3, [r3]
 1334 0072 9A42     		cmp	r2, r3
 1335 0074 01D0     		beq	.L93
 1336 0076 FFF7FEFF 		bl	__stack_chk_fail
 1337              	.L93:
 1338 007a 07B0     		add	sp, sp, #28
 1339              		.cfi_def_cfa_offset 4
 1340              		@ sp needed
ARM GAS  C:\Users\PCHAUT~1\AppData\Local\Temp\ccLw8kky.s 			page 26


 1341 007c 5DF804FB 		ldr	pc, [sp], #4
 1342              	.L95:
 1343              		.align	2
 1344              	.L94:
 1345 0080 00000000 		.word	__stack_chk_guard
 1346 0084 FC010000 		.word	.LC17
 1347 0088 14020000 		.word	.LC18
 1348 008c 48020000 		.word	.LC19
 1349 0090 64020000 		.word	.LC20
 1350              		.cfi_endproc
 1351              	.LFE266:
 1352              		.size	cmd_mkdir, .-cmd_mkdir
 1353              		.section	.rodata
 1354              		.align	2
 1355              	.LC21:
 1356 0280 55736167 		.ascii	"Usage: setlabel label\015\012\000"
 1356      653A2073 
 1356      65746C61 
 1356      62656C20 
 1356      6C616265 
 1357              		.align	2
 1358              	.LC22:
 1359 0298 20202020 		.ascii	"       Sets FAT label (no spaces)\015\012\000"
 1359      20202053 
 1359      65747320 
 1359      46415420 
 1359      6C616265 
 1360              		.align	2
 1361              	.LC23:
 1362 02bc 46533A20 		.ascii	"FS: f_setlabel(%s) failed.\015\012\000"
 1362      665F7365 
 1362      746C6162 
 1362      656C2825 
 1362      73292066 
 1363 02d9 000000   		.align	2
 1364              	.LC24:
 1365 02dc 46533A20 		.ascii	"FS: f_setlabel(%s) succeeded.\015\012\000"
 1365      665F7365 
 1365      746C6162 
 1365      656C2825 
 1365      73292073 
 1366              		.section	.text.cmd_setlabel,"ax",%progbits
 1367              		.align	1
 1368              		.p2align 4,,15
 1369              		.global	cmd_setlabel
 1370              		.syntax unified
 1371              		.thumb
 1372              		.thumb_func
 1373              		.fpu fpv4-sp-d16
 1374              		.type	cmd_setlabel, %function
 1375              	cmd_setlabel:
 1376              	.LFB267:
 1377              		.loc 7 181 0
 1378              		.cfi_startproc
 1379              		@ args = 0, pretend = 0, frame = 24
 1380              		@ frame_needed = 0, uses_anonymous_args = 0
 1381 0000 00B5     		push	{lr}
ARM GAS  C:\Users\PCHAUT~1\AppData\Local\Temp\ccLw8kky.s 			page 27


 1382              		.cfi_def_cfa_offset 4
 1383              		.cfi_offset 14, -4
 1384 0002 87B0     		sub	sp, sp, #28
 1385              		.cfi_def_cfa_offset 32
 1386 0004 0390     		str	r0, [sp, #12]
 1387 0006 0291     		str	r1, [sp, #8]
 1388 0008 0192     		str	r2, [sp, #4]
 1389              		.loc 7 181 0
 1390 000a 1A4B     		ldr	r3, .L101
 1391 000c 1B68     		ldr	r3, [r3]
 1392 000e 0593     		str	r3, [sp, #20]
 1393              		.loc 7 183 0
 1394 0010 029B     		ldr	r3, [sp, #8]
 1395 0012 012B     		cmp	r3, #1
 1396 0014 08D0     		beq	.L97
 1397              		.loc 7 184 0
 1398 0016 1849     		ldr	r1, .L101+4
 1399 0018 0398     		ldr	r0, [sp, #12]
 1400 001a FFF7FEFF 		bl	chprintf
 1401              		.loc 7 185 0
 1402 001e 1749     		ldr	r1, .L101+8
 1403 0020 0398     		ldr	r0, [sp, #12]
 1404 0022 FFF7FEFF 		bl	chprintf
 1405              		.loc 7 186 0
 1406 0026 1BE0     		b	.L96
 1407              	.L97:
 1408              		.loc 7 191 0
 1409 0028 019B     		ldr	r3, [sp, #4]
 1410 002a 1B68     		ldr	r3, [r3]
 1411 002c 1846     		mov	r0, r3
 1412 002e FFF7FEFF 		bl	f_setlabel
 1413 0032 0346     		mov	r3, r0
 1414 0034 8DF81330 		strb	r3, [sp, #19]
 1415              		.loc 7 192 0
 1416 0038 9DF81330 		ldrb	r3, [sp, #19]	@ zero_extendqisi2
 1417 003c 002B     		cmp	r3, #0
 1418 003e 0AD0     		beq	.L99
 1419              		.loc 7 193 0
 1420 0040 0F49     		ldr	r1, .L101+12
 1421 0042 0398     		ldr	r0, [sp, #12]
 1422 0044 FFF7FEFF 		bl	chprintf
 1423              		.loc 7 194 0
 1424 0048 9DF81330 		ldrb	r3, [sp, #19]	@ zero_extendqisi2
 1425 004c 1946     		mov	r1, r3
 1426 004e 0398     		ldr	r0, [sp, #12]
 1427 0050 FFF7FEFF 		bl	fverbose_error
 1428              		.loc 7 195 0
 1429 0054 04E0     		b	.L96
 1430              	.L99:
 1431              		.loc 7 197 0
 1432 0056 0B49     		ldr	r1, .L101+16
 1433 0058 0398     		ldr	r0, [sp, #12]
 1434 005a FFF7FEFF 		bl	chprintf
 1435              		.loc 7 199 0
 1436 005e 00BF     		nop
 1437              	.L96:
 1438              		.loc 7 200 0
ARM GAS  C:\Users\PCHAUT~1\AppData\Local\Temp\ccLw8kky.s 			page 28


 1439 0060 044B     		ldr	r3, .L101
 1440 0062 059A     		ldr	r2, [sp, #20]
 1441 0064 1B68     		ldr	r3, [r3]
 1442 0066 9A42     		cmp	r2, r3
 1443 0068 01D0     		beq	.L100
 1444 006a FFF7FEFF 		bl	__stack_chk_fail
 1445              	.L100:
 1446 006e 07B0     		add	sp, sp, #28
 1447              		.cfi_def_cfa_offset 4
 1448              		@ sp needed
 1449 0070 5DF804FB 		ldr	pc, [sp], #4
 1450              	.L102:
 1451              		.align	2
 1452              	.L101:
 1453 0074 00000000 		.word	__stack_chk_guard
 1454 0078 80020000 		.word	.LC21
 1455 007c 98020000 		.word	.LC22
 1456 0080 BC020000 		.word	.LC23
 1457 0084 DC020000 		.word	.LC24
 1458              		.cfi_endproc
 1459              	.LFE267:
 1460              		.size	cmd_setlabel, .-cmd_setlabel
 1461              		.section	.rodata
 1462              		.align	2
 1463              	.LC25:
 1464 02fc 55736167 		.ascii	"Usage: getlabel\015\012\000"
 1464      653A2067 
 1464      65746C61 
 1464      62656C0D 
 1464      0A00
 1465 030e 0000     		.align	2
 1466              	.LC26:
 1467 0310 20202020 		.ascii	"       Gets and prints FAT label\015\012\000"
 1467      20202047 
 1467      65747320 
 1467      616E6420 
 1467      7072696E 
 1468 0333 00       		.align	2
 1469              	.LC27:
 1470 0334 00       		.ascii	"\000"
 1471 0335 000000   		.align	2
 1472              	.LC28:
 1473 0338 46533A20 		.ascii	"FS: f_getlabel failed.\015\012\000"
 1473      665F6765 
 1473      746C6162 
 1473      656C2066 
 1473      61696C65 
 1474 0351 000000   		.align	2
 1475              	.LC29:
 1476 0354 4C414245 		.ascii	"LABEL: %s\015\012\000"
 1476      4C3A2025 
 1476      730D0A00 
 1477              		.align	2
 1478              	.LC30:
 1479 0360 2020532F 		.ascii	"  S/N: 0x%X\015\012\000"
 1479      4E3A2030 
 1479      7825580D 
ARM GAS  C:\Users\PCHAUT~1\AppData\Local\Temp\ccLw8kky.s 			page 29


 1479      0A00
 1480              		.section	.text.cmd_getlabel,"ax",%progbits
 1481              		.align	1
 1482              		.p2align 4,,15
 1483              		.global	cmd_getlabel
 1484              		.syntax unified
 1485              		.thumb
 1486              		.thumb_func
 1487              		.fpu fpv4-sp-d16
 1488              		.type	cmd_getlabel, %function
 1489              	cmd_getlabel:
 1490              	.LFB268:
 1491              		.loc 7 202 0
 1492              		.cfi_startproc
 1493              		@ args = 0, pretend = 0, frame = 40
 1494              		@ frame_needed = 0, uses_anonymous_args = 0
 1495 0000 00B5     		push	{lr}
 1496              		.cfi_def_cfa_offset 4
 1497              		.cfi_offset 14, -4
 1498 0002 8BB0     		sub	sp, sp, #44
 1499              		.cfi_def_cfa_offset 48
 1500 0004 0390     		str	r0, [sp, #12]
 1501 0006 0291     		str	r1, [sp, #8]
 1502 0008 0192     		str	r2, [sp, #4]
 1503              		.loc 7 202 0
 1504 000a 224B     		ldr	r3, .L109
 1505 000c 1B68     		ldr	r3, [r3]
 1506 000e 0993     		str	r3, [sp, #36]
 1507              		.loc 7 207 0
 1508 0010 029B     		ldr	r3, [sp, #8]
 1509 0012 002B     		cmp	r3, #0
 1510 0014 08DD     		ble	.L104
 1511              		.loc 7 208 0
 1512 0016 2049     		ldr	r1, .L109+4
 1513 0018 0398     		ldr	r0, [sp, #12]
 1514 001a FFF7FEFF 		bl	chprintf
 1515              		.loc 7 209 0
 1516 001e 1F49     		ldr	r1, .L109+8
 1517 0020 0398     		ldr	r0, [sp, #12]
 1518 0022 FFF7FEFF 		bl	chprintf
 1519              		.loc 7 210 0
 1520 0026 2AE0     		b	.L103
 1521              	.L104:
 1522              		.loc 7 212 0
 1523 0028 06AB     		add	r3, sp, #24
 1524 002a 0C22     		movs	r2, #12
 1525 002c 0021     		movs	r1, #0
 1526 002e 1846     		mov	r0, r3
 1527 0030 FFF7FEFF 		bl	memset
 1528              		.loc 7 216 0
 1529 0034 05AA     		add	r2, sp, #20
 1530 0036 06AB     		add	r3, sp, #24
 1531 0038 1946     		mov	r1, r3
 1532 003a 1948     		ldr	r0, .L109+12
 1533 003c FFF7FEFF 		bl	f_getlabel
 1534 0040 0346     		mov	r3, r0
 1535 0042 8DF81330 		strb	r3, [sp, #19]
ARM GAS  C:\Users\PCHAUT~1\AppData\Local\Temp\ccLw8kky.s 			page 30


 1536              		.loc 7 217 0
 1537 0046 9DF81330 		ldrb	r3, [sp, #19]	@ zero_extendqisi2
 1538 004a 002B     		cmp	r3, #0
 1539 004c 0AD0     		beq	.L106
 1540              		.loc 7 218 0
 1541 004e 1549     		ldr	r1, .L109+16
 1542 0050 0398     		ldr	r0, [sp, #12]
 1543 0052 FFF7FEFF 		bl	chprintf
 1544              		.loc 7 219 0
 1545 0056 9DF81330 		ldrb	r3, [sp, #19]	@ zero_extendqisi2
 1546 005a 1946     		mov	r1, r3
 1547 005c 0398     		ldr	r0, [sp, #12]
 1548 005e FFF7FEFF 		bl	fverbose_error
 1549              		.loc 7 220 0
 1550 0062 0CE0     		b	.L103
 1551              	.L106:
 1552              		.loc 7 225 0
 1553 0064 06AB     		add	r3, sp, #24
 1554 0066 1A46     		mov	r2, r3
 1555 0068 0F49     		ldr	r1, .L109+20
 1556 006a 0398     		ldr	r0, [sp, #12]
 1557 006c FFF7FEFF 		bl	chprintf
 1558              		.loc 7 226 0
 1559 0070 059B     		ldr	r3, [sp, #20]
 1560 0072 1A46     		mov	r2, r3
 1561 0074 0D49     		ldr	r1, .L109+24
 1562 0076 0398     		ldr	r0, [sp, #12]
 1563 0078 FFF7FEFF 		bl	chprintf
 1564              		.loc 7 227 0
 1565 007c 00BF     		nop
 1566              	.L103:
 1567              		.loc 7 228 0
 1568 007e 054B     		ldr	r3, .L109
 1569 0080 099A     		ldr	r2, [sp, #36]
 1570 0082 1B68     		ldr	r3, [r3]
 1571 0084 9A42     		cmp	r2, r3
 1572 0086 01D0     		beq	.L108
 1573 0088 FFF7FEFF 		bl	__stack_chk_fail
 1574              	.L108:
 1575 008c 0BB0     		add	sp, sp, #44
 1576              		.cfi_def_cfa_offset 4
 1577              		@ sp needed
 1578 008e 5DF804FB 		ldr	pc, [sp], #4
 1579              	.L110:
 1580 0092 00BF     		.align	2
 1581              	.L109:
 1582 0094 00000000 		.word	__stack_chk_guard
 1583 0098 FC020000 		.word	.LC25
 1584 009c 10030000 		.word	.LC26
 1585 00a0 34030000 		.word	.LC27
 1586 00a4 38030000 		.word	.LC28
 1587 00a8 54030000 		.word	.LC29
 1588 00ac 60030000 		.word	.LC30
 1589              		.cfi_endproc
 1590              	.LFE268:
 1591              		.size	cmd_getlabel, .-cmd_getlabel
 1592              		.section	.rodata
ARM GAS  C:\Users\PCHAUT~1\AppData\Local\Temp\ccLw8kky.s 			page 31


 1593 036e 0000     		.align	2
 1594              	.LC31:
 1595 0370 55736167 		.ascii	"Usage: cat filename\015\012\000"
 1595      653A2063 
 1595      61742066 
 1595      696C656E 
 1595      616D650D 
 1596 0386 0000     		.align	2
 1597              	.LC32:
 1598 0388 20202020 		.ascii	"       Echos filename (no spaces)\015\012\000"
 1598      20202045 
 1598      63686F73 
 1598      2066696C 
 1598      656E616D 
 1599              		.align	2
 1600              	.LC33:
 1601 03ac 46533A20 		.ascii	"FS: f_open(%s) failed.\015\012\000"
 1601      665F6F70 
 1601      656E2825 
 1601      73292066 
 1601      61696C65 
 1602 03c5 000000   		.align	2
 1603              	.LC34:
 1604 03c8 46533A20 		.ascii	"FS: f_read() failed\015\012\000"
 1604      665F7265 
 1604      61642829 
 1604      20666169 
 1604      6C65640D 
 1605 03de 0000     		.align	2
 1606              	.LC35:
 1607 03e0 257300   		.ascii	"%s\000"
 1608 03e3 00       		.align	2
 1609              	.LC36:
 1610 03e4 0D0A00   		.ascii	"\015\012\000"
 1611              		.section	.text.cmd_cat,"ax",%progbits
 1612              		.align	1
 1613              		.p2align 4,,15
 1614              		.global	cmd_cat
 1615              		.syntax unified
 1616              		.thumb
 1617              		.thumb_func
 1618              		.fpu fpv4-sp-d16
 1619              		.type	cmd_cat, %function
 1620              	cmd_cat:
 1621              	.LFB269:
 1622              		.loc 7 233 0
 1623              		.cfi_startproc
 1624              		@ args = 0, pretend = 0, frame = 840
 1625              		@ frame_needed = 0, uses_anonymous_args = 0
 1626 0000 10B5     		push	{r4, lr}
 1627              		.cfi_def_cfa_offset 8
 1628              		.cfi_offset 4, -8
 1629              		.cfi_offset 14, -4
 1630 0002 ADF5527D 		sub	sp, sp, #840
 1631              		.cfi_def_cfa_offset 848
 1632 0006 03AB     		add	r3, sp, #12
 1633 0008 1860     		str	r0, [r3]
ARM GAS  C:\Users\PCHAUT~1\AppData\Local\Temp\ccLw8kky.s 			page 32


 1634 000a 02AB     		add	r3, sp, #8
 1635 000c 1960     		str	r1, [r3]
 1636 000e 01AB     		add	r3, sp, #4
 1637 0010 1A60     		str	r2, [r3]
 1638              		.loc 7 233 0
 1639 0012 3F4B     		ldr	r3, .L118
 1640 0014 1B68     		ldr	r3, [r3]
 1641 0016 D193     		str	r3, [sp, #836]
 1642              		.loc 7 237 0
 1643 0018 06AB     		add	r3, sp, #24
 1644 001a FF22     		movs	r2, #255
 1645 001c 1A60     		str	r2, [r3]
 1646              		.loc 7 242 0
 1647 001e 02AB     		add	r3, sp, #8
 1648 0020 1B68     		ldr	r3, [r3]
 1649 0022 012B     		cmp	r3, #1
 1650 0024 0AD0     		beq	.L112
 1651              		.loc 7 243 0
 1652 0026 03AB     		add	r3, sp, #12
 1653 0028 3A49     		ldr	r1, .L118+4
 1654 002a 1868     		ldr	r0, [r3]
 1655 002c FFF7FEFF 		bl	chprintf
 1656              		.loc 7 244 0
 1657 0030 03AB     		add	r3, sp, #12
 1658 0032 3949     		ldr	r1, .L118+8
 1659 0034 1868     		ldr	r0, [r3]
 1660 0036 FFF7FEFF 		bl	chprintf
 1661              		.loc 7 245 0
 1662 003a 5FE0     		b	.L111
 1663              	.L112:
 1664              		.loc 7 250 0
 1665 003c 01AB     		add	r3, sp, #4
 1666 003e 1B68     		ldr	r3, [r3]
 1667 0040 1968     		ldr	r1, [r3]
 1668 0042 0DF11304 		add	r4, sp, #19
 1669 0046 07AB     		add	r3, sp, #28
 1670 0048 0122     		movs	r2, #1
 1671 004a 1846     		mov	r0, r3
 1672 004c FFF7FEFF 		bl	f_open
 1673 0050 0346     		mov	r3, r0
 1674 0052 2370     		strb	r3, [r4]
 1675              		.loc 7 251 0
 1676 0054 0DF11303 		add	r3, sp, #19
 1677 0058 1B78     		ldrb	r3, [r3]	@ zero_extendqisi2
 1678 005a 002B     		cmp	r3, #0
 1679 005c 10D0     		beq	.L114
 1680              		.loc 7 252 0
 1681 005e 01AB     		add	r3, sp, #4
 1682 0060 1B68     		ldr	r3, [r3]
 1683 0062 1A68     		ldr	r2, [r3]
 1684 0064 03AB     		add	r3, sp, #12
 1685 0066 2D49     		ldr	r1, .L118+12
 1686 0068 1868     		ldr	r0, [r3]
 1687 006a FFF7FEFF 		bl	chprintf
 1688              		.loc 7 253 0
 1689 006e 0DF11303 		add	r3, sp, #19
 1690 0072 1A78     		ldrb	r2, [r3]	@ zero_extendqisi2
ARM GAS  C:\Users\PCHAUT~1\AppData\Local\Temp\ccLw8kky.s 			page 33


 1691 0074 03AB     		add	r3, sp, #12
 1692 0076 1146     		mov	r1, r2
 1693 0078 1868     		ldr	r0, [r3]
 1694 007a FFF7FEFF 		bl	fverbose_error
 1695              		.loc 7 254 0
 1696 007e 3DE0     		b	.L111
 1697              	.L114:
 1698              		.loc 7 264 0
 1699 0080 91AB     		add	r3, sp, #580
 1700 0082 FF22     		movs	r2, #255
 1701 0084 0021     		movs	r1, #0
 1702 0086 1846     		mov	r0, r3
 1703 0088 FFF7FEFF 		bl	memset
 1704              		.loc 7 268 0
 1705 008c 0DF11304 		add	r4, sp, #19
 1706 0090 05AB     		add	r3, sp, #20
 1707 0092 06AA     		add	r2, sp, #24
 1708 0094 91A9     		add	r1, sp, #580
 1709 0096 07A8     		add	r0, sp, #28
 1710 0098 1268     		ldr	r2, [r2]
 1711 009a FFF7FEFF 		bl	f_read
 1712 009e 0346     		mov	r3, r0
 1713 00a0 2370     		strb	r3, [r4]
 1714              		.loc 7 269 0
 1715 00a2 0DF11303 		add	r3, sp, #19
 1716 00a6 1B78     		ldrb	r3, [r3]	@ zero_extendqisi2
 1717 00a8 002B     		cmp	r3, #0
 1718 00aa 11D0     		beq	.L115
 1719              		.loc 7 270 0
 1720 00ac 03AB     		add	r3, sp, #12
 1721 00ae 1C49     		ldr	r1, .L118+16
 1722 00b0 1868     		ldr	r0, [r3]
 1723 00b2 FFF7FEFF 		bl	chprintf
 1724              		.loc 7 271 0
 1725 00b6 0DF11303 		add	r3, sp, #19
 1726 00ba 1A78     		ldrb	r2, [r3]	@ zero_extendqisi2
 1727 00bc 03AB     		add	r3, sp, #12
 1728 00be 1146     		mov	r1, r2
 1729 00c0 1868     		ldr	r0, [r3]
 1730 00c2 FFF7FEFF 		bl	fverbose_error
 1731              		.loc 7 272 0
 1732 00c6 07AB     		add	r3, sp, #28
 1733 00c8 1846     		mov	r0, r3
 1734 00ca FFF7FEFF 		bl	f_close
 1735              		.loc 7 273 0
 1736 00ce 15E0     		b	.L111
 1737              	.L115:
 1738              		.loc 7 275 0
 1739 00d0 91AA     		add	r2, sp, #580
 1740 00d2 03AB     		add	r3, sp, #12
 1741 00d4 1349     		ldr	r1, .L118+20
 1742 00d6 1868     		ldr	r0, [r3]
 1743 00d8 FFF7FEFF 		bl	chprintf
 1744              		.loc 7 276 0
 1745 00dc 05AB     		add	r3, sp, #20
 1746 00de 1B68     		ldr	r3, [r3]
 1747 00e0 06AA     		add	r2, sp, #24
ARM GAS  C:\Users\PCHAUT~1\AppData\Local\Temp\ccLw8kky.s 			page 34


 1748 00e2 1268     		ldr	r2, [r2]
 1749 00e4 9A42     		cmp	r2, r3
 1750 00e6 CBD9     		bls	.L114
 1751              		.loc 7 277 0
 1752 00e8 03AB     		add	r3, sp, #12
 1753 00ea 0F49     		ldr	r1, .L118+24
 1754 00ec 1868     		ldr	r0, [r3]
 1755 00ee FFF7FEFF 		bl	chprintf
 1756              		.loc 7 281 0
 1757 00f2 07AB     		add	r3, sp, #28
 1758 00f4 1846     		mov	r0, r3
 1759 00f6 FFF7FEFF 		bl	f_close
 1760              		.loc 7 282 0
 1761 00fa 00BF     		nop
 1762              	.L111:
 1763              		.loc 7 283 0
 1764 00fc 044B     		ldr	r3, .L118
 1765 00fe D19A     		ldr	r2, [sp, #836]
 1766 0100 1B68     		ldr	r3, [r3]
 1767 0102 9A42     		cmp	r2, r3
 1768 0104 01D0     		beq	.L117
 1769 0106 FFF7FEFF 		bl	__stack_chk_fail
 1770              	.L117:
 1771 010a 0DF5527D 		add	sp, sp, #840
 1772              		.cfi_def_cfa_offset 8
 1773              		@ sp needed
 1774 010e 10BD     		pop	{r4, pc}
 1775              	.L119:
 1776              		.align	2
 1777              	.L118:
 1778 0110 00000000 		.word	__stack_chk_guard
 1779 0114 70030000 		.word	.LC31
 1780 0118 88030000 		.word	.LC32
 1781 011c AC030000 		.word	.LC33
 1782 0120 C8030000 		.word	.LC34
 1783 0124 E0030000 		.word	.LC35
 1784 0128 E4030000 		.word	.LC36
 1785              		.cfi_endproc
 1786              	.LFE269:
 1787              		.size	cmd_cat, .-cmd_cat
 1788              		.section	.rodata
 1789 03e7 00       		.align	2
 1790              	.LC37:
 1791 03e8 55736167 		.ascii	"Usage: sf_play pathToTheMusic\015\012\000"
 1791      653A2073 
 1791      665F706C 
 1791      61792070 
 1791      61746854 
 1792              		.section	.text.cmd_sound_file_play,"ax",%progbits
 1793              		.align	1
 1794              		.p2align 4,,15
 1795              		.syntax unified
 1796              		.thumb
 1797              		.thumb_func
 1798              		.fpu fpv4-sp-d16
 1799              		.type	cmd_sound_file_play, %function
 1800              	cmd_sound_file_play:
ARM GAS  C:\Users\PCHAUT~1\AppData\Local\Temp\ccLw8kky.s 			page 35


 1801              	.LFB270:
 1802              		.loc 7 286 0
 1803              		.cfi_startproc
 1804              		@ args = 0, pretend = 0, frame = 24
 1805              		@ frame_needed = 0, uses_anonymous_args = 0
 1806 0000 00B5     		push	{lr}
 1807              		.cfi_def_cfa_offset 4
 1808              		.cfi_offset 14, -4
 1809 0002 87B0     		sub	sp, sp, #28
 1810              		.cfi_def_cfa_offset 32
 1811 0004 0390     		str	r0, [sp, #12]
 1812 0006 0291     		str	r1, [sp, #8]
 1813 0008 0192     		str	r2, [sp, #4]
 1814              		.loc 7 286 0
 1815 000a 0D4B     		ldr	r3, .L124
 1816 000c 1B68     		ldr	r3, [r3]
 1817 000e 0593     		str	r3, [sp, #20]
 1818              		.loc 7 288 0
 1819 0010 029B     		ldr	r3, [sp, #8]
 1820 0012 012B     		cmp	r3, #1
 1821 0014 04D0     		beq	.L121
 1822              		.loc 7 289 0
 1823 0016 0B49     		ldr	r1, .L124+4
 1824 0018 0398     		ldr	r0, [sp, #12]
 1825 001a FFF7FEFF 		bl	chprintf
 1826              		.loc 7 290 0
 1827 001e 05E0     		b	.L120
 1828              	.L121:
 1829              		.loc 7 293 0
 1830 0020 019B     		ldr	r3, [sp, #4]
 1831 0022 1B68     		ldr	r3, [r3]
 1832 0024 0221     		movs	r1, #2
 1833 0026 1846     		mov	r0, r3
 1834 0028 FFF7FEFF 		bl	playSoundFile
 1835              	.L120:
 1836              		.loc 7 295 0
 1837 002c 044B     		ldr	r3, .L124
 1838 002e 059A     		ldr	r2, [sp, #20]
 1839 0030 1B68     		ldr	r3, [r3]
 1840 0032 9A42     		cmp	r2, r3
 1841 0034 01D0     		beq	.L123
 1842 0036 FFF7FEFF 		bl	__stack_chk_fail
 1843              	.L123:
 1844 003a 07B0     		add	sp, sp, #28
 1845              		.cfi_def_cfa_offset 4
 1846              		@ sp needed
 1847 003c 5DF804FB 		ldr	pc, [sp], #4
 1848              	.L125:
 1849              		.align	2
 1850              	.L124:
 1851 0040 00000000 		.word	__stack_chk_guard
 1852 0044 E8030000 		.word	.LC37
 1853              		.cfi_endproc
 1854              	.LFE270:
 1855              		.size	cmd_sound_file_play, .-cmd_sound_file_play
 1856              		.section	.text.cmd_sound_file_stop,"ax",%progbits
 1857              		.align	1
ARM GAS  C:\Users\PCHAUT~1\AppData\Local\Temp\ccLw8kky.s 			page 36


 1858              		.p2align 4,,15
 1859              		.syntax unified
 1860              		.thumb
 1861              		.thumb_func
 1862              		.fpu fpv4-sp-d16
 1863              		.type	cmd_sound_file_stop, %function
 1864              	cmd_sound_file_stop:
 1865              	.LFB271:
 1866              		.loc 7 298 0
 1867              		.cfi_startproc
 1868              		@ args = 0, pretend = 0, frame = 24
 1869              		@ frame_needed = 0, uses_anonymous_args = 0
 1870 0000 00B5     		push	{lr}
 1871              		.cfi_def_cfa_offset 4
 1872              		.cfi_offset 14, -4
 1873 0002 87B0     		sub	sp, sp, #28
 1874              		.cfi_def_cfa_offset 32
 1875 0004 0390     		str	r0, [sp, #12]
 1876 0006 0291     		str	r1, [sp, #8]
 1877 0008 0192     		str	r2, [sp, #4]
 1878              		.loc 7 298 0
 1879 000a 084B     		ldr	r3, .L128
 1880 000c 1B68     		ldr	r3, [r3]
 1881 000e 0593     		str	r3, [sp, #20]
 1882              		.loc 7 303 0
 1883 0010 FFF7FEFF 		bl	stopCurrentSoundFile
 1884              		.loc 7 304 0
 1885 0014 00BF     		nop
 1886 0016 054B     		ldr	r3, .L128
 1887 0018 059A     		ldr	r2, [sp, #20]
 1888 001a 1B68     		ldr	r3, [r3]
 1889 001c 9A42     		cmp	r2, r3
 1890 001e 01D0     		beq	.L127
 1891 0020 FFF7FEFF 		bl	__stack_chk_fail
 1892              	.L127:
 1893 0024 07B0     		add	sp, sp, #28
 1894              		.cfi_def_cfa_offset 4
 1895              		@ sp needed
 1896 0026 5DF804FB 		ldr	pc, [sp], #4
 1897              	.L129:
 1898 002a 00BF     		.align	2
 1899              	.L128:
 1900 002c 00000000 		.word	__stack_chk_guard
 1901              		.cfi_endproc
 1902              	.LFE271:
 1903              		.size	cmd_sound_file_stop, .-cmd_sound_file_stop
 1904              		.section	.rodata
 1905              		.align	2
 1906              	.LC38:
 1907 0408 55736167 		.ascii	"Usage: sf_volume value\015\012\000"
 1907      653A2073 
 1907      665F766F 
 1907      6C756D65 
 1907      2076616C 
 1908              		.section	.text.cmd_sound_file_volume,"ax",%progbits
 1909              		.align	1
 1910              		.p2align 4,,15
ARM GAS  C:\Users\PCHAUT~1\AppData\Local\Temp\ccLw8kky.s 			page 37


 1911              		.syntax unified
 1912              		.thumb
 1913              		.thumb_func
 1914              		.fpu fpv4-sp-d16
 1915              		.type	cmd_sound_file_volume, %function
 1916              	cmd_sound_file_volume:
 1917              	.LFB272:
 1918              		.loc 7 307 0
 1919              		.cfi_startproc
 1920              		@ args = 0, pretend = 0, frame = 24
 1921              		@ frame_needed = 0, uses_anonymous_args = 0
 1922 0000 00B5     		push	{lr}
 1923              		.cfi_def_cfa_offset 4
 1924              		.cfi_offset 14, -4
 1925 0002 87B0     		sub	sp, sp, #28
 1926              		.cfi_def_cfa_offset 32
 1927 0004 0390     		str	r0, [sp, #12]
 1928 0006 0291     		str	r1, [sp, #8]
 1929 0008 0192     		str	r2, [sp, #4]
 1930              		.loc 7 307 0
 1931 000a 0F4B     		ldr	r3, .L134
 1932 000c 1B68     		ldr	r3, [r3]
 1933 000e 0593     		str	r3, [sp, #20]
 1934              		.loc 7 309 0
 1935 0010 029B     		ldr	r3, [sp, #8]
 1936 0012 012B     		cmp	r3, #1
 1937 0014 04D0     		beq	.L131
 1938              		.loc 7 310 0
 1939 0016 0D49     		ldr	r1, .L134+4
 1940 0018 0398     		ldr	r0, [sp, #12]
 1941 001a FFF7FEFF 		bl	chprintf
 1942              		.loc 7 311 0
 1943 001e 09E0     		b	.L130
 1944              	.L131:
 1945              		.loc 7 314 0
 1946 0020 019B     		ldr	r3, [sp, #4]
 1947 0022 1B68     		ldr	r3, [r3]
 1948 0024 1846     		mov	r0, r3
 1949 0026 FFF7FEFF 		bl	atoi
 1950 002a 0346     		mov	r3, r0
 1951 002c DBB2     		uxtb	r3, r3
 1952 002e 1846     		mov	r0, r3
 1953 0030 FFF7FEFF 		bl	setSoundFileVolume
 1954              	.L130:
 1955              		.loc 7 315 0
 1956 0034 044B     		ldr	r3, .L134
 1957 0036 059A     		ldr	r2, [sp, #20]
 1958 0038 1B68     		ldr	r3, [r3]
 1959 003a 9A42     		cmp	r2, r3
 1960 003c 01D0     		beq	.L133
 1961 003e FFF7FEFF 		bl	__stack_chk_fail
 1962              	.L133:
 1963 0042 07B0     		add	sp, sp, #28
 1964              		.cfi_def_cfa_offset 4
 1965              		@ sp needed
 1966 0044 5DF804FB 		ldr	pc, [sp], #4
 1967              	.L135:
ARM GAS  C:\Users\PCHAUT~1\AppData\Local\Temp\ccLw8kky.s 			page 38


 1968              		.align	2
 1969              	.L134:
 1970 0048 00000000 		.word	__stack_chk_guard
 1971 004c 08040000 		.word	.LC38
 1972              		.cfi_endproc
 1973              	.LFE272:
 1974              		.size	cmd_sound_file_volume, .-cmd_sound_file_volume
 1975              		.section	.rodata
 1976 0421 000000   		.align	2
 1977              	.LC39:
 1978 0424 55736167 		.ascii	"Usage: ml_play numberOfTheMelody\015\012\000"
 1978      653A206D 
 1978      6C5F706C 
 1978      6179206E 
 1978      756D6265 
 1979 0447 00       		.align	2
 1980              	.LC40:
 1981 0448 6D656C6F 		.ascii	"melodies availables :\015\012\000"
 1981      64696573 
 1981      20617661 
 1981      696C6162 
 1981      6C657320 
 1982              		.align	2
 1983              	.LC41:
 1984 0460 31292049 		.ascii	"1) IMPOSSIBLE_MISSION,\015\012\000"
 1984      4D504F53 
 1984      5349424C 
 1984      455F4D49 
 1984      5353494F 
 1985 0479 000000   		.align	2
 1986              	.LC42:
 1987 047c 32292057 		.ascii	"2) WE_ARE_THE_CHAMPIONS,\015\012\000"
 1987      455F4152 
 1987      455F5448 
 1987      455F4348 
 1987      414D5049 
 1988 0497 00       		.align	2
 1989              	.LC43:
 1990 0498 33292052 		.ascii	"3) RUSSIA,\015\012\000"
 1990      55535349 
 1990      412C0D0A 
 1990      00
 1991 04a5 000000   		.align	2
 1992              	.LC44:
 1993 04a8 3429204D 		.ascii	"4) MARIO,\015\012\000"
 1993      4152494F 
 1993      2C0D0A00 
 1994              		.align	2
 1995              	.LC45:
 1996 04b4 35292055 		.ascii	"5) UNDERWORLD,\015\012\000"
 1996      4E444552 
 1996      574F524C 
 1996      442C0D0A 
 1996      00
 1997 04c5 000000   		.align	2
 1998              	.LC46:
 1999 04c8 3629204D 		.ascii	"6) MARIO_START,\015\012\000"
ARM GAS  C:\Users\PCHAUT~1\AppData\Local\Temp\ccLw8kky.s 			page 39


 1999      4152494F 
 1999      5F535441 
 1999      52542C0D 
 1999      0A00
 2000 04da 0000     		.align	2
 2001              	.LC47:
 2002 04dc 3729204D 		.ascii	"7) MARIO_DEATH,\015\012\000"
 2002      4152494F 
 2002      5F444541 
 2002      54482C0D 
 2002      0A00
 2003 04ee 0000     		.align	2
 2004              	.LC48:
 2005 04f0 3829204D 		.ascii	"8) MARIO_FLAG,\015\012\000"
 2005      4152494F 
 2005      5F464C41 
 2005      472C0D0A 
 2005      00
 2006 0501 000000   		.align	2
 2007              	.LC49:
 2008 0504 39292057 		.ascii	"9) WALKING,\015\012\000"
 2008      414C4B49 
 2008      4E472C0D 
 2008      0A00
 2009 0512 0000     		.align	2
 2010              	.LC50:
 2011 0514 31302920 		.ascii	"10) PIRATES_OF_THE_CARIBBEAN,\015\012\000"
 2011      50495241 
 2011      5445535F 
 2011      4F465F54 
 2011      48455F43 
 2012              		.align	2
 2013              	.LC51:
 2014 0534 31312920 		.ascii	"11) SIMPSON,\015\012\000"
 2014      53494D50 
 2014      534F4E2C 
 2014      0D0A00
 2015 0543 00       		.align	2
 2016              	.LC52:
 2017 0544 31322920 		.ascii	"12) STARWARS,\015\012\000"
 2017      53544152 
 2017      57415253 
 2017      2C0D0A00 
 2018              		.align	2
 2019              	.LC53:
 2020 0554 31332920 		.ascii	"13) SANDSTORMS,\015\012\000"
 2020      53414E44 
 2020      53544F52 
 2020      4D532C0D 
 2020      0A00
 2021 0566 0000     		.align	2
 2022              	.LC54:
 2023 0568 31342920 		.ascii	"14) SEVEN_NATION_ARMY\015\012\000"
 2023      53455645 
 2023      4E5F4E41 
 2023      54494F4E 
 2023      5F41524D 
ARM GAS  C:\Users\PCHAUT~1\AppData\Local\Temp\ccLw8kky.s 			page 40


 2024              		.section	.text.cmd_melody_play,"ax",%progbits
 2025              		.align	1
 2026              		.p2align 4,,15
 2027              		.syntax unified
 2028              		.thumb
 2029              		.thumb_func
 2030              		.fpu fpv4-sp-d16
 2031              		.type	cmd_melody_play, %function
 2032              	cmd_melody_play:
 2033              	.LFB273:
 2034              		.loc 7 318 0
 2035              		.cfi_startproc
 2036              		@ args = 0, pretend = 0, frame = 24
 2037              		@ frame_needed = 0, uses_anonymous_args = 0
 2038 0000 00B5     		push	{lr}
 2039              		.cfi_def_cfa_offset 4
 2040              		.cfi_offset 14, -4
 2041 0002 87B0     		sub	sp, sp, #28
 2042              		.cfi_def_cfa_offset 32
 2043 0004 0390     		str	r0, [sp, #12]
 2044 0006 0291     		str	r1, [sp, #8]
 2045 0008 0192     		str	r2, [sp, #4]
 2046              		.loc 7 318 0
 2047 000a 2F4B     		ldr	r3, .L140
 2048 000c 1B68     		ldr	r3, [r3]
 2049 000e 0593     		str	r3, [sp, #20]
 2050              		.loc 7 320 0
 2051 0010 029B     		ldr	r3, [sp, #8]
 2052 0012 012B     		cmp	r3, #1
 2053 0014 40D0     		beq	.L137
 2054              		.loc 7 321 0
 2055 0016 2D49     		ldr	r1, .L140+4
 2056 0018 0398     		ldr	r0, [sp, #12]
 2057 001a FFF7FEFF 		bl	chprintf
 2058              		.loc 7 322 0
 2059 001e 2C49     		ldr	r1, .L140+8
 2060 0020 0398     		ldr	r0, [sp, #12]
 2061 0022 FFF7FEFF 		bl	chprintf
 2062              		.loc 7 323 0
 2063 0026 2B49     		ldr	r1, .L140+12
 2064 0028 0398     		ldr	r0, [sp, #12]
 2065 002a FFF7FEFF 		bl	chprintf
 2066              		.loc 7 324 0
 2067 002e 2A49     		ldr	r1, .L140+16
 2068 0030 0398     		ldr	r0, [sp, #12]
 2069 0032 FFF7FEFF 		bl	chprintf
 2070              		.loc 7 325 0
 2071 0036 2949     		ldr	r1, .L140+20
 2072 0038 0398     		ldr	r0, [sp, #12]
 2073 003a FFF7FEFF 		bl	chprintf
 2074              		.loc 7 326 0
 2075 003e 2849     		ldr	r1, .L140+24
 2076 0040 0398     		ldr	r0, [sp, #12]
 2077 0042 FFF7FEFF 		bl	chprintf
 2078              		.loc 7 327 0
 2079 0046 2749     		ldr	r1, .L140+28
 2080 0048 0398     		ldr	r0, [sp, #12]
ARM GAS  C:\Users\PCHAUT~1\AppData\Local\Temp\ccLw8kky.s 			page 41


 2081 004a FFF7FEFF 		bl	chprintf
 2082              		.loc 7 328 0
 2083 004e 2649     		ldr	r1, .L140+32
 2084 0050 0398     		ldr	r0, [sp, #12]
 2085 0052 FFF7FEFF 		bl	chprintf
 2086              		.loc 7 329 0
 2087 0056 2549     		ldr	r1, .L140+36
 2088 0058 0398     		ldr	r0, [sp, #12]
 2089 005a FFF7FEFF 		bl	chprintf
 2090              		.loc 7 330 0
 2091 005e 2449     		ldr	r1, .L140+40
 2092 0060 0398     		ldr	r0, [sp, #12]
 2093 0062 FFF7FEFF 		bl	chprintf
 2094              		.loc 7 331 0
 2095 0066 2349     		ldr	r1, .L140+44
 2096 0068 0398     		ldr	r0, [sp, #12]
 2097 006a FFF7FEFF 		bl	chprintf
 2098              		.loc 7 332 0
 2099 006e 2249     		ldr	r1, .L140+48
 2100 0070 0398     		ldr	r0, [sp, #12]
 2101 0072 FFF7FEFF 		bl	chprintf
 2102              		.loc 7 333 0
 2103 0076 2149     		ldr	r1, .L140+52
 2104 0078 0398     		ldr	r0, [sp, #12]
 2105 007a FFF7FEFF 		bl	chprintf
 2106              		.loc 7 334 0
 2107 007e 2049     		ldr	r1, .L140+56
 2108 0080 0398     		ldr	r0, [sp, #12]
 2109 0082 FFF7FEFF 		bl	chprintf
 2110              		.loc 7 335 0
 2111 0086 1F49     		ldr	r1, .L140+60
 2112 0088 0398     		ldr	r0, [sp, #12]
 2113 008a FFF7FEFF 		bl	chprintf
 2114              		.loc 7 336 0
 2115 008e 1E49     		ldr	r1, .L140+64
 2116 0090 0398     		ldr	r0, [sp, #12]
 2117 0092 FFF7FEFF 		bl	chprintf
 2118              		.loc 7 337 0
 2119 0096 0DE0     		b	.L136
 2120              	.L137:
 2121              		.loc 7 339 0
 2122 0098 019B     		ldr	r3, [sp, #4]
 2123 009a 1B68     		ldr	r3, [r3]
 2124 009c 1846     		mov	r0, r3
 2125 009e FFF7FEFF 		bl	atoi
 2126 00a2 0346     		mov	r3, r0
 2127 00a4 DBB2     		uxtb	r3, r3
 2128 00a6 013B     		subs	r3, r3, #1
 2129 00a8 DBB2     		uxtb	r3, r3
 2130 00aa 0022     		movs	r2, #0
 2131 00ac 0221     		movs	r1, #2
 2132 00ae 1846     		mov	r0, r3
 2133 00b0 FFF7FEFF 		bl	playMelody
 2134              	.L136:
 2135              		.loc 7 340 0
 2136 00b4 044B     		ldr	r3, .L140
 2137 00b6 059A     		ldr	r2, [sp, #20]
ARM GAS  C:\Users\PCHAUT~1\AppData\Local\Temp\ccLw8kky.s 			page 42


 2138 00b8 1B68     		ldr	r3, [r3]
 2139 00ba 9A42     		cmp	r2, r3
 2140 00bc 01D0     		beq	.L139
 2141 00be FFF7FEFF 		bl	__stack_chk_fail
 2142              	.L139:
 2143 00c2 07B0     		add	sp, sp, #28
 2144              		.cfi_def_cfa_offset 4
 2145              		@ sp needed
 2146 00c4 5DF804FB 		ldr	pc, [sp], #4
 2147              	.L141:
 2148              		.align	2
 2149              	.L140:
 2150 00c8 00000000 		.word	__stack_chk_guard
 2151 00cc 24040000 		.word	.LC39
 2152 00d0 48040000 		.word	.LC40
 2153 00d4 60040000 		.word	.LC41
 2154 00d8 7C040000 		.word	.LC42
 2155 00dc 98040000 		.word	.LC43
 2156 00e0 A8040000 		.word	.LC44
 2157 00e4 B4040000 		.word	.LC45
 2158 00e8 C8040000 		.word	.LC46
 2159 00ec DC040000 		.word	.LC47
 2160 00f0 F0040000 		.word	.LC48
 2161 00f4 04050000 		.word	.LC49
 2162 00f8 14050000 		.word	.LC50
 2163 00fc 34050000 		.word	.LC51
 2164 0100 44050000 		.word	.LC52
 2165 0104 54050000 		.word	.LC53
 2166 0108 68050000 		.word	.LC54
 2167              		.cfi_endproc
 2168              	.LFE273:
 2169              		.size	cmd_melody_play, .-cmd_melody_play
 2170              		.section	.text.cmd_melody_stop,"ax",%progbits
 2171              		.align	1
 2172              		.p2align 4,,15
 2173              		.syntax unified
 2174              		.thumb
 2175              		.thumb_func
 2176              		.fpu fpv4-sp-d16
 2177              		.type	cmd_melody_stop, %function
 2178              	cmd_melody_stop:
 2179              	.LFB274:
 2180              		.loc 7 343 0
 2181              		.cfi_startproc
 2182              		@ args = 0, pretend = 0, frame = 24
 2183              		@ frame_needed = 0, uses_anonymous_args = 0
 2184 0000 00B5     		push	{lr}
 2185              		.cfi_def_cfa_offset 4
 2186              		.cfi_offset 14, -4
 2187 0002 87B0     		sub	sp, sp, #28
 2188              		.cfi_def_cfa_offset 32
 2189 0004 0390     		str	r0, [sp, #12]
 2190 0006 0291     		str	r1, [sp, #8]
 2191 0008 0192     		str	r2, [sp, #4]
 2192              		.loc 7 343 0
 2193 000a 084B     		ldr	r3, .L144
 2194 000c 1B68     		ldr	r3, [r3]
ARM GAS  C:\Users\PCHAUT~1\AppData\Local\Temp\ccLw8kky.s 			page 43


 2195 000e 0593     		str	r3, [sp, #20]
 2196              		.loc 7 348 0
 2197 0010 FFF7FEFF 		bl	stopCurrentMelody
 2198              		.loc 7 349 0
 2199 0014 00BF     		nop
 2200 0016 054B     		ldr	r3, .L144
 2201 0018 059A     		ldr	r2, [sp, #20]
 2202 001a 1B68     		ldr	r3, [r3]
 2203 001c 9A42     		cmp	r2, r3
 2204 001e 01D0     		beq	.L143
 2205 0020 FFF7FEFF 		bl	__stack_chk_fail
 2206              	.L143:
 2207 0024 07B0     		add	sp, sp, #28
 2208              		.cfi_def_cfa_offset 4
 2209              		@ sp needed
 2210 0026 5DF804FB 		ldr	pc, [sp], #4
 2211              	.L145:
 2212 002a 00BF     		.align	2
 2213              	.L144:
 2214 002c 00000000 		.word	__stack_chk_guard
 2215              		.cfi_endproc
 2216              	.LFE274:
 2217              		.size	cmd_melody_stop, .-cmd_melody_stop
 2218              		.section	.rodata
 2219              		.align	2
 2220              	.LC55:
 2221 0580 55736167 		.ascii	"Usage: mem\015\012\000"
 2221      653A206D 
 2221      656D0D0A 
 2221      00
 2222 058d 000000   		.align	2
 2223              	.LC56:
 2224 0590 636F7265 		.ascii	"core free memory : %u bytes\015\012\000"
 2224      20667265 
 2224      65206D65 
 2224      6D6F7279 
 2224      203A2025 
 2225 05ae 0000     		.align	2
 2226              	.LC57:
 2227 05b0 68656170 		.ascii	"heap fragments     : %u\015\012\000"
 2227      20667261 
 2227      676D656E 
 2227      74732020 
 2227      2020203A 
 2228 05ca 0000     		.align	2
 2229              	.LC58:
 2230 05cc 68656170 		.ascii	"heap free total    : %u bytes\015\012\000"
 2230      20667265 
 2230      6520746F 
 2230      74616C20 
 2230      2020203A 
 2231              		.section	.text.cmd_mem,"ax",%progbits
 2232              		.align	1
 2233              		.p2align 4,,15
 2234              		.syntax unified
 2235              		.thumb
 2236              		.thumb_func
ARM GAS  C:\Users\PCHAUT~1\AppData\Local\Temp\ccLw8kky.s 			page 44


 2237              		.fpu fpv4-sp-d16
 2238              		.type	cmd_mem, %function
 2239              	cmd_mem:
 2240              	.LFB275:
 2241              		.loc 7 352 0
 2242              		.cfi_startproc
 2243              		@ args = 0, pretend = 0, frame = 32
 2244              		@ frame_needed = 0, uses_anonymous_args = 0
 2245 0000 00B5     		push	{lr}
 2246              		.cfi_def_cfa_offset 4
 2247              		.cfi_offset 14, -4
 2248 0002 89B0     		sub	sp, sp, #36
 2249              		.cfi_def_cfa_offset 40
 2250 0004 0390     		str	r0, [sp, #12]
 2251 0006 0291     		str	r1, [sp, #8]
 2252 0008 0192     		str	r2, [sp, #4]
 2253              		.loc 7 352 0
 2254 000a 174B     		ldr	r3, .L150
 2255 000c 1B68     		ldr	r3, [r3]
 2256 000e 0793     		str	r3, [sp, #28]
 2257              		.loc 7 356 0
 2258 0010 029B     		ldr	r3, [sp, #8]
 2259 0012 002B     		cmp	r3, #0
 2260 0014 04DD     		ble	.L147
 2261              		.loc 7 357 0
 2262 0016 1549     		ldr	r1, .L150+4
 2263 0018 0398     		ldr	r0, [sp, #12]
 2264 001a FFF7FEFF 		bl	chprintf
 2265 001e 18E0     		b	.L146
 2266              	.L147:
 2267              		.loc 7 360 0
 2268 0020 05AB     		add	r3, sp, #20
 2269 0022 1946     		mov	r1, r3
 2270 0024 0020     		movs	r0, #0
 2271 0026 FFF7FEFF 		bl	chHeapStatus
 2272 002a 0690     		str	r0, [sp, #24]
 2273              		.loc 7 361 0
 2274 002c FFF7FEFF 		bl	chCoreGetStatusX
 2275 0030 0346     		mov	r3, r0
 2276 0032 1A46     		mov	r2, r3
 2277 0034 0E49     		ldr	r1, .L150+8
 2278 0036 0398     		ldr	r0, [sp, #12]
 2279 0038 FFF7FEFF 		bl	chprintf
 2280              		.loc 7 362 0
 2281 003c 069A     		ldr	r2, [sp, #24]
 2282 003e 0D49     		ldr	r1, .L150+12
 2283 0040 0398     		ldr	r0, [sp, #12]
 2284 0042 FFF7FEFF 		bl	chprintf
 2285              		.loc 7 363 0
 2286 0046 059B     		ldr	r3, [sp, #20]
 2287 0048 1A46     		mov	r2, r3
 2288 004a 0B49     		ldr	r1, .L150+16
 2289 004c 0398     		ldr	r0, [sp, #12]
 2290 004e FFF7FEFF 		bl	chprintf
 2291              	.L146:
 2292              		.loc 7 364 0
 2293 0052 054B     		ldr	r3, .L150
ARM GAS  C:\Users\PCHAUT~1\AppData\Local\Temp\ccLw8kky.s 			page 45


 2294 0054 079A     		ldr	r2, [sp, #28]
 2295 0056 1B68     		ldr	r3, [r3]
 2296 0058 9A42     		cmp	r2, r3
 2297 005a 01D0     		beq	.L149
 2298 005c FFF7FEFF 		bl	__stack_chk_fail
 2299              	.L149:
 2300 0060 09B0     		add	sp, sp, #36
 2301              		.cfi_def_cfa_offset 4
 2302              		@ sp needed
 2303 0062 5DF804FB 		ldr	pc, [sp], #4
 2304              	.L151:
 2305 0066 00BF     		.align	2
 2306              	.L150:
 2307 0068 00000000 		.word	__stack_chk_guard
 2308 006c 80050000 		.word	.LC55
 2309 0070 90050000 		.word	.LC56
 2310 0074 B0050000 		.word	.LC57
 2311 0078 CC050000 		.word	.LC58
 2312              		.cfi_endproc
 2313              	.LFE275:
 2314              		.size	cmd_mem, .-cmd_mem
 2315              		.section	.rodata
 2316              		.align	2
 2317              	.LC59:
 2318 05ec 55736167 		.ascii	"Usage: threads\015\012\000"
 2318      653A2074 
 2318      68726561 
 2318      64730D0A 
 2318      00
 2319 05fd 000000   		.align	2
 2320              	.LC60:
 2321 0600 20202020 		.ascii	"        addr        stack prio refs         state\015"
 2321      20202020 
 2321      61646472 
 2321      20202020 
 2321      20202020 
 2322 0632 0A00     		.ascii	"\012\000"
 2323              		.align	2
 2324              	.LC61:
 2325 0634 2530386C 		.ascii	"%08lx %08lx %4lu %4lu %9s\015\012\000"
 2325      78202530 
 2325      386C7820 
 2325      25346C75 
 2325      2025346C 
 2326              		.section	.text.cmd_threads,"ax",%progbits
 2327              		.align	1
 2328              		.p2align 4,,15
 2329              		.syntax unified
 2330              		.thumb
 2331              		.thumb_func
 2332              		.fpu fpv4-sp-d16
 2333              		.type	cmd_threads, %function
 2334              	cmd_threads:
 2335              	.LFB276:
 2336              		.loc 7 367 0
 2337              		.cfi_startproc
 2338              		@ args = 0, pretend = 0, frame = 24
ARM GAS  C:\Users\PCHAUT~1\AppData\Local\Temp\ccLw8kky.s 			page 46


 2339              		@ frame_needed = 0, uses_anonymous_args = 0
 2340 0000 30B5     		push	{r4, r5, lr}
 2341              		.cfi_def_cfa_offset 12
 2342              		.cfi_offset 4, -12
 2343              		.cfi_offset 5, -8
 2344              		.cfi_offset 14, -4
 2345 0002 8BB0     		sub	sp, sp, #44
 2346              		.cfi_def_cfa_offset 56
 2347 0004 0790     		str	r0, [sp, #28]
 2348 0006 0691     		str	r1, [sp, #24]
 2349 0008 0592     		str	r2, [sp, #20]
 2350              		.loc 7 367 0
 2351 000a 1E4B     		ldr	r3, .L157
 2352 000c 1B68     		ldr	r3, [r3]
 2353 000e 0993     		str	r3, [sp, #36]
 2354              		.loc 7 372 0
 2355 0010 069B     		ldr	r3, [sp, #24]
 2356 0012 002B     		cmp	r3, #0
 2357 0014 04DD     		ble	.L153
 2358              		.loc 7 373 0
 2359 0016 1C49     		ldr	r1, .L157+4
 2360 0018 0798     		ldr	r0, [sp, #28]
 2361 001a FFF7FEFF 		bl	chprintf
 2362              		.loc 7 374 0
 2363 001e 28E0     		b	.L152
 2364              	.L153:
 2365              		.loc 7 376 0
 2366 0020 1A49     		ldr	r1, .L157+8
 2367 0022 0798     		ldr	r0, [sp, #28]
 2368 0024 FFF7FEFF 		bl	chprintf
 2369              		.loc 7 377 0
 2370 0028 FFF7FEFF 		bl	chRegFirstThread
 2371 002c 0890     		str	r0, [sp, #32]
 2372              	.L155:
 2373              		.loc 7 379 0 discriminator 1
 2374 002e 0899     		ldr	r1, [sp, #32]
 2375              		.loc 7 380 0 discriminator 1
 2376 0030 089B     		ldr	r3, [sp, #32]
 2377 0032 DB68     		ldr	r3, [r3, #12]
 2378              		.loc 7 379 0 discriminator 1
 2379 0034 1D46     		mov	r5, r3
 2380              		.loc 7 381 0 discriminator 1
 2381 0036 089B     		ldr	r3, [sp, #32]
 2382 0038 9B68     		ldr	r3, [r3, #8]
 2383 003a 089A     		ldr	r2, [sp, #32]
 2384 003c 92F82220 		ldrb	r2, [r2, #34]	@ zero_extendqisi2
 2385 0040 013A     		subs	r2, r2, #1
 2386              		.loc 7 379 0 discriminator 1
 2387 0042 1046     		mov	r0, r2
 2388              		.loc 7 382 0 discriminator 1
 2389 0044 089A     		ldr	r2, [sp, #32]
 2390 0046 92F82020 		ldrb	r2, [r2, #32]	@ zero_extendqisi2
 2391 004a 1446     		mov	r4, r2
 2392              		.loc 7 379 0 discriminator 1
 2393 004c 104A     		ldr	r2, .L157+12
 2394 004e 52F82420 		ldr	r2, [r2, r4, lsl #2]
 2395 0052 0292     		str	r2, [sp, #8]
ARM GAS  C:\Users\PCHAUT~1\AppData\Local\Temp\ccLw8kky.s 			page 47


 2396 0054 0190     		str	r0, [sp, #4]
 2397 0056 0093     		str	r3, [sp]
 2398 0058 2B46     		mov	r3, r5
 2399 005a 0A46     		mov	r2, r1
 2400 005c 0D49     		ldr	r1, .L157+16
 2401 005e 0798     		ldr	r0, [sp, #28]
 2402 0060 FFF7FEFF 		bl	chprintf
 2403              		.loc 7 383 0 discriminator 1
 2404 0064 0898     		ldr	r0, [sp, #32]
 2405 0066 FFF7FEFF 		bl	chRegNextThread
 2406 006a 0890     		str	r0, [sp, #32]
 2407              		.loc 7 384 0 discriminator 1
 2408 006c 089B     		ldr	r3, [sp, #32]
 2409 006e 002B     		cmp	r3, #0
 2410 0070 DDD1     		bne	.L155
 2411              	.L152:
 2412              		.loc 7 385 0
 2413 0072 044B     		ldr	r3, .L157
 2414 0074 099A     		ldr	r2, [sp, #36]
 2415 0076 1B68     		ldr	r3, [r3]
 2416 0078 9A42     		cmp	r2, r3
 2417 007a 01D0     		beq	.L156
 2418 007c FFF7FEFF 		bl	__stack_chk_fail
 2419              	.L156:
 2420 0080 0BB0     		add	sp, sp, #44
 2421              		.cfi_def_cfa_offset 12
 2422              		@ sp needed
 2423 0082 30BD     		pop	{r4, r5, pc}
 2424              	.L158:
 2425              		.align	2
 2426              	.L157:
 2427 0084 00000000 		.word	__stack_chk_guard
 2428 0088 EC050000 		.word	.LC59
 2429 008c 00060000 		.word	.LC60
 2430 0090 00000000 		.word	states.13494
 2431 0094 34060000 		.word	.LC61
 2432              		.cfi_endproc
 2433              	.LFE276:
 2434              		.size	cmd_threads, .-cmd_threads
 2435              		.section	.rodata
 2436              		.align	2
 2437              	.LC62:
 2438 0650 55736167 		.ascii	"Usage: test\015\012\000"
 2438      653A2074 
 2438      6573740D 
 2438      0A00
 2439 065e 0000     		.align	2
 2440              	.LC63:
 2441 0660 6F757420 		.ascii	"out of memory\015\012\000"
 2441      6F66206D 
 2441      656D6F72 
 2441      790D0A00 
 2442              		.section	.text.cmd_test,"ax",%progbits
 2443              		.align	1
 2444              		.p2align 4,,15
 2445              		.syntax unified
 2446              		.thumb
ARM GAS  C:\Users\PCHAUT~1\AppData\Local\Temp\ccLw8kky.s 			page 48


 2447              		.thumb_func
 2448              		.fpu fpv4-sp-d16
 2449              		.type	cmd_test, %function
 2450              	cmd_test:
 2451              	.LFB277:
 2452              		.loc 7 388 0
 2453              		.cfi_startproc
 2454              		@ args = 0, pretend = 0, frame = 24
 2455              		@ frame_needed = 0, uses_anonymous_args = 0
 2456 0000 00B5     		push	{lr}
 2457              		.cfi_def_cfa_offset 4
 2458              		.cfi_offset 14, -4
 2459 0002 89B0     		sub	sp, sp, #36
 2460              		.cfi_def_cfa_offset 40
 2461 0004 0590     		str	r0, [sp, #20]
 2462 0006 0491     		str	r1, [sp, #16]
 2463 0008 0392     		str	r2, [sp, #12]
 2464              		.loc 7 388 0
 2465 000a 164B     		ldr	r3, .L164
 2466 000c 1B68     		ldr	r3, [r3]
 2467 000e 0793     		str	r3, [sp, #28]
 2468              		.loc 7 392 0
 2469 0010 049B     		ldr	r3, [sp, #16]
 2470 0012 002B     		cmp	r3, #0
 2471 0014 04DD     		ble	.L160
 2472              		.loc 7 393 0
 2473 0016 1449     		ldr	r1, .L164+4
 2474 0018 0598     		ldr	r0, [sp, #20]
 2475 001a FFF7FEFF 		bl	chprintf
 2476              		.loc 7 394 0
 2477 001e 16E0     		b	.L159
 2478              	.L160:
 2479              		.loc 7 396 0
 2480 0020 FFF7FEFF 		bl	chThdGetPriorityX
 2481 0024 0246     		mov	r2, r0
 2482 0026 059B     		ldr	r3, [sp, #20]
 2483 0028 0093     		str	r3, [sp]
 2484 002a 104B     		ldr	r3, .L164+8
 2485 002c 4FF41E71 		mov	r1, #632
 2486 0030 0020     		movs	r0, #0
 2487 0032 FFF7FEFF 		bl	chThdCreateFromHeap
 2488 0036 0690     		str	r0, [sp, #24]
 2489              		.loc 7 398 0
 2490 0038 069B     		ldr	r3, [sp, #24]
 2491 003a 002B     		cmp	r3, #0
 2492 003c 04D1     		bne	.L162
 2493              		.loc 7 399 0
 2494 003e 0C49     		ldr	r1, .L164+12
 2495 0040 0598     		ldr	r0, [sp, #20]
 2496 0042 FFF7FEFF 		bl	chprintf
 2497              		.loc 7 400 0
 2498 0046 02E0     		b	.L159
 2499              	.L162:
 2500              		.loc 7 402 0
 2501 0048 0698     		ldr	r0, [sp, #24]
 2502 004a FFF7FEFF 		bl	chThdWait
 2503              	.L159:
ARM GAS  C:\Users\PCHAUT~1\AppData\Local\Temp\ccLw8kky.s 			page 49


 2504              		.loc 7 403 0
 2505 004e 054B     		ldr	r3, .L164
 2506 0050 079A     		ldr	r2, [sp, #28]
 2507 0052 1B68     		ldr	r3, [r3]
 2508 0054 9A42     		cmp	r2, r3
 2509 0056 01D0     		beq	.L163
 2510 0058 FFF7FEFF 		bl	__stack_chk_fail
 2511              	.L163:
 2512 005c 09B0     		add	sp, sp, #36
 2513              		.cfi_def_cfa_offset 4
 2514              		@ sp needed
 2515 005e 5DF804FB 		ldr	pc, [sp], #4
 2516              	.L165:
 2517 0062 00BF     		.align	2
 2518              	.L164:
 2519 0064 00000000 		.word	__stack_chk_guard
 2520 0068 50060000 		.word	.LC62
 2521 006c 00000000 		.word	TestThread
 2522 0070 60060000 		.word	.LC63
 2523              		.cfi_endproc
 2524              	.LFE277:
 2525              		.size	cmd_test, .-cmd_test
 2526              		.section	.rodata
 2527              		.align	2
 2528              	.LC64:
 2529 0670 53595343 		.ascii	"SYSCLK: %i \012 HCLK: %i \012 PCLK1  %i \012 PCLK2 "
 2529      4C4B3A20 
 2529      2569200A 
 2529      2048434C 
 2529      4B3A2025 
 2530 069a 2569200A 		.ascii	"%i \012\000"
 2530      00
 2531              		.section	.text.cmd_readclock,"ax",%progbits
 2532              		.align	1
 2533              		.p2align 4,,15
 2534              		.syntax unified
 2535              		.thumb
 2536              		.thumb_func
 2537              		.fpu fpv4-sp-d16
 2538              		.type	cmd_readclock, %function
 2539              	cmd_readclock:
 2540              	.LFB278:
 2541              		.loc 7 406 0
 2542              		.cfi_startproc
 2543              		@ args = 0, pretend = 0, frame = 24
 2544              		@ frame_needed = 0, uses_anonymous_args = 0
 2545 0000 00B5     		push	{lr}
 2546              		.cfi_def_cfa_offset 4
 2547              		.cfi_offset 14, -4
 2548 0002 89B0     		sub	sp, sp, #36
 2549              		.cfi_def_cfa_offset 40
 2550 0004 0590     		str	r0, [sp, #20]
 2551 0006 0491     		str	r1, [sp, #16]
 2552 0008 0392     		str	r2, [sp, #12]
 2553              		.loc 7 406 0
 2554 000a 0C4B     		ldr	r3, .L168
 2555 000c 1B68     		ldr	r3, [r3]
ARM GAS  C:\Users\PCHAUT~1\AppData\Local\Temp\ccLw8kky.s 			page 50


 2556 000e 0793     		str	r3, [sp, #28]
 2557              		.loc 7 409 0
 2558 0010 0B4B     		ldr	r3, .L168+4
 2559 0012 0193     		str	r3, [sp, #4]
 2560 0014 0B4B     		ldr	r3, .L168+8
 2561 0016 0093     		str	r3, [sp]
 2562 0018 0B4B     		ldr	r3, .L168+12
 2563 001a 0B4A     		ldr	r2, .L168+12
 2564 001c 0B49     		ldr	r1, .L168+16
 2565 001e 0598     		ldr	r0, [sp, #20]
 2566 0020 FFF7FEFF 		bl	chprintf
 2567              		.loc 7 411 0
 2568 0024 00BF     		nop
 2569 0026 054B     		ldr	r3, .L168
 2570 0028 079A     		ldr	r2, [sp, #28]
 2571 002a 1B68     		ldr	r3, [r3]
 2572 002c 9A42     		cmp	r2, r3
 2573 002e 01D0     		beq	.L167
 2574 0030 FFF7FEFF 		bl	__stack_chk_fail
 2575              	.L167:
 2576 0034 09B0     		add	sp, sp, #36
 2577              		.cfi_def_cfa_offset 4
 2578              		@ sp needed
 2579 0036 5DF804FB 		ldr	pc, [sp], #4
 2580              	.L169:
 2581 003a 00BF     		.align	2
 2582              	.L168:
 2583 003c 00000000 		.word	__stack_chk_guard
 2584 0040 00BD0105 		.word	84000000
 2585 0044 80DE8002 		.word	42000000
 2586 0048 007A030A 		.word	168000000
 2587 004c 70060000 		.word	.LC64
 2588              		.cfi_endproc
 2589              	.LFE278:
 2590              		.size	cmd_readclock, .-cmd_readclock
 2591              		.section	.rodata
 2592 069f 00       		.align	2
 2593              	.LC65:
 2594 06a0 55736167 		.ascii	"Usage: sqrt mode int\015\012Modes: a (aseba), b (ma"
 2594      653A2073 
 2594      71727420 
 2594      6D6F6465 
 2594      20696E74 
 2595 06cd 7468292C 		.ascii	"th), c (assembler) is default mode\015\012\000"
 2595      20632028 
 2595      61737365 
 2595      6D626C65 
 2595      72292069 
 2596 06f2 0000     		.align	2
 2597              	.LC66:
 2598 06f4 6100     		.ascii	"a\000"
 2599 06f6 0000     		.align	2
 2600              	.LC67:
 2601 06f8 6200     		.ascii	"b\000"
 2602 06fa 0000     		.align	2
 2603              	.LC68:
 2604 06fc 73717274 		.ascii	"sqrt(%u) = %u \015\012\000"
ARM GAS  C:\Users\PCHAUT~1\AppData\Local\Temp\ccLw8kky.s 			page 51


 2604      28257529 
 2604      203D2025 
 2604      75200D0A 
 2604      00
 2605 070d 000000   		.align	2
 2606              	.LC69:
 2607 0710 74696D65 		.ascii	"time: %u \015\012\000"
 2607      3A202575 
 2607      200D0A00 
 2608              		.section	.text.cmd_sqrt,"ax",%progbits
 2609              		.align	1
 2610              		.p2align 4,,15
 2611              		.syntax unified
 2612              		.thumb
 2613              		.thumb_func
 2614              		.fpu fpv4-sp-d16
 2615              		.type	cmd_sqrt, %function
 2616              	cmd_sqrt:
 2617              	.LFB279:
 2618              		.loc 7 417 0
 2619              		.cfi_startproc
 2620              		@ args = 0, pretend = 0, frame = 56
 2621              		@ frame_needed = 0, uses_anonymous_args = 0
 2622 0000 00B5     		push	{lr}
 2623              		.cfi_def_cfa_offset 4
 2624              		.cfi_offset 14, -4
 2625 0002 8FB0     		sub	sp, sp, #60
 2626              		.cfi_def_cfa_offset 64
 2627 0004 0390     		str	r0, [sp, #12]
 2628 0006 0291     		str	r1, [sp, #8]
 2629 0008 0192     		str	r2, [sp, #4]
 2630              		.loc 7 417 0
 2631 000a 4D4B     		ldr	r3, .L178
 2632 000c 1B68     		ldr	r3, [r3]
 2633 000e 0D93     		str	r3, [sp, #52]
 2634              		.loc 7 421 0
 2635 0010 06AB     		add	r3, sp, #24
 2636 0012 1846     		mov	r0, r3
 2637 0014 FFF7FEFF 		bl	chTMObjectInit
 2638              		.loc 7 423 0
 2639 0018 029B     		ldr	r3, [sp, #8]
 2640 001a 022B     		cmp	r3, #2
 2641 001c 04D0     		beq	.L171
 2642              		.loc 7 424 0
 2643 001e 4949     		ldr	r1, .L178+4
 2644 0020 0398     		ldr	r0, [sp, #12]
 2645 0022 FFF7FEFF 		bl	chprintf
 2646              		.loc 7 457 0
 2647 0026 7FE0     		b	.L177
 2648              	.L171:
 2649              		.loc 7 427 0
 2650 0028 019B     		ldr	r3, [sp, #4]
 2651 002a 0433     		adds	r3, r3, #4
 2652 002c 1B68     		ldr	r3, [r3]
 2653 002e 1846     		mov	r0, r3
 2654 0030 FFF7FEFF 		bl	atoi
 2655 0034 0346     		mov	r3, r0
ARM GAS  C:\Users\PCHAUT~1\AppData\Local\Temp\ccLw8kky.s 			page 52


 2656 0036 ADF81230 		strh	r3, [sp, #18]	@ movhi
 2657              		.loc 7 429 0
 2658 003a 019B     		ldr	r3, [sp, #4]
 2659 003c 1B68     		ldr	r3, [r3]
 2660 003e 4249     		ldr	r1, .L178+8
 2661 0040 1846     		mov	r0, r3
 2662 0042 FFF7FEFF 		bl	strcmp
 2663 0046 0346     		mov	r3, r0
 2664 0048 002B     		cmp	r3, #0
 2665 004a 14D1     		bne	.L173
 2666              		.loc 7 430 0
 2667 004c FFF7FEFF 		bl	chSysLock
 2668              		.loc 7 431 0
 2669 0050 06AB     		add	r3, sp, #24
 2670 0052 1846     		mov	r0, r3
 2671 0054 FFF7FEFF 		bl	chTMStartMeasurementX
 2672              		.loc 7 432 0
 2673 0058 BDF91230 		ldrsh	r3, [sp, #18]
 2674 005c 1846     		mov	r0, r3
 2675 005e FFF7FEFF 		bl	aseba_sqrt
 2676 0062 0346     		mov	r3, r0
 2677 0064 ADF81030 		strh	r3, [sp, #16]	@ movhi
 2678              		.loc 7 433 0
 2679 0068 06AB     		add	r3, sp, #24
 2680 006a 1846     		mov	r0, r3
 2681 006c FFF7FEFF 		bl	chTMStopMeasurementX
 2682              		.loc 7 434 0
 2683 0070 FFF7FEFF 		bl	chSysUnlock
 2684 0074 4AE0     		b	.L174
 2685              	.L173:
 2686              		.loc 7 435 0
 2687 0076 019B     		ldr	r3, [sp, #4]
 2688 0078 1B68     		ldr	r3, [r3]
 2689 007a 3449     		ldr	r1, .L178+12
 2690 007c 1846     		mov	r0, r3
 2691 007e FFF7FEFF 		bl	strcmp
 2692 0082 0346     		mov	r3, r0
 2693 0084 002B     		cmp	r3, #0
 2694 0086 1ED1     		bne	.L175
 2695              		.loc 7 436 0
 2696 0088 FFF7FEFF 		bl	chSysLock
 2697              		.loc 7 437 0
 2698 008c 06AB     		add	r3, sp, #24
 2699 008e 1846     		mov	r0, r3
 2700 0090 FFF7FEFF 		bl	chTMStartMeasurementX
 2701              		.loc 7 438 0
 2702 0094 BDF81230 		ldrh	r3, [sp, #18]
 2703 0098 07EE903A 		vmov	s15, r3	@ int
 2704 009c F8EE677A 		vcvt.f32.u32	s15, s15
 2705 00a0 B0EE670A 		vmov.f32	s0, s15
 2706 00a4 FFF7FEFF 		bl	sqrtf
 2707 00a8 F0EE407A 		vmov.f32	s15, s0
 2708 00ac FCEEE77A 		vcvt.u32.f32	s15, s15
 2709 00b0 17EE903A 		vmov	r3, s15	@ int
 2710 00b4 ADF81030 		strh	r3, [sp, #16]	@ movhi
 2711              		.loc 7 439 0
 2712 00b8 06AB     		add	r3, sp, #24
ARM GAS  C:\Users\PCHAUT~1\AppData\Local\Temp\ccLw8kky.s 			page 53


 2713 00ba 1846     		mov	r0, r3
 2714 00bc FFF7FEFF 		bl	chTMStopMeasurementX
 2715              		.loc 7 440 0
 2716 00c0 FFF7FEFF 		bl	chSysUnlock
 2717 00c4 22E0     		b	.L174
 2718              	.L175:
 2719              		.loc 7 442 0
 2720 00c6 FFF7FEFF 		bl	chSysLock
 2721              		.loc 7 443 0
 2722 00ca 06AB     		add	r3, sp, #24
 2723 00cc 1846     		mov	r0, r3
 2724 00ce FFF7FEFF 		bl	chTMStartMeasurementX
 2725              		.loc 7 444 0
 2726 00d2 BDF81230 		ldrh	r3, [sp, #18]
 2727 00d6 07EE903A 		vmov	s15, r3	@ int
 2728 00da F8EE677A 		vcvt.f32.u32	s15, s15
 2729 00de CDED057A 		vstr.32	s15, [sp, #20]
 2730              		.loc 7 445 0
 2731 00e2 059B     		ldr	r3, [sp, #20]	@ float
 2732 00e4 07EE903A 		vmov	s15, r3
 2733              		.syntax unified
 2734              	@ 445 "../lib/e-puck2_main-processor/src/cmd.c" 1
 2735 00e8 F1EEE77A 		vsqrt.f32 s15, s15
 2736              	@ 0 "" 2
 2737              		.thumb
 2738              		.syntax unified
 2739 00ec CDED057A 		vstr.32	s15, [sp, #20]
 2740              		.loc 7 449 0
 2741 00f0 DDED057A 		vldr.32	s15, [sp, #20]
 2742 00f4 FCEEE77A 		vcvt.u32.f32	s15, s15
 2743 00f8 17EE903A 		vmov	r3, s15	@ int
 2744 00fc ADF81030 		strh	r3, [sp, #16]	@ movhi
 2745              		.loc 7 450 0
 2746 0100 06AB     		add	r3, sp, #24
 2747 0102 1846     		mov	r0, r3
 2748 0104 FFF7FEFF 		bl	chTMStopMeasurementX
 2749              		.loc 7 451 0
 2750 0108 FFF7FEFF 		bl	chSysUnlock
 2751              	.L174:
 2752              		.loc 7 454 0
 2753 010c BDF81220 		ldrh	r2, [sp, #18]
 2754 0110 BDF81030 		ldrh	r3, [sp, #16]
 2755 0114 0E49     		ldr	r1, .L178+16
 2756 0116 0398     		ldr	r0, [sp, #12]
 2757 0118 FFF7FEFF 		bl	chprintf
 2758              		.loc 7 455 0
 2759 011c 089B     		ldr	r3, [sp, #32]
 2760 011e 1A46     		mov	r2, r3
 2761 0120 0C49     		ldr	r1, .L178+20
 2762 0122 0398     		ldr	r0, [sp, #12]
 2763 0124 FFF7FEFF 		bl	chprintf
 2764              	.L177:
 2765              		.loc 7 457 0
 2766 0128 00BF     		nop
 2767 012a 054B     		ldr	r3, .L178
 2768 012c 0D9A     		ldr	r2, [sp, #52]
 2769 012e 1B68     		ldr	r3, [r3]
ARM GAS  C:\Users\PCHAUT~1\AppData\Local\Temp\ccLw8kky.s 			page 54


 2770 0130 9A42     		cmp	r2, r3
 2771 0132 01D0     		beq	.L176
 2772 0134 FFF7FEFF 		bl	__stack_chk_fail
 2773              	.L176:
 2774 0138 0FB0     		add	sp, sp, #60
 2775              		.cfi_def_cfa_offset 4
 2776              		@ sp needed
 2777 013a 5DF804FB 		ldr	pc, [sp], #4
 2778              	.L179:
 2779 013e 00BF     		.align	2
 2780              	.L178:
 2781 0140 00000000 		.word	__stack_chk_guard
 2782 0144 A0060000 		.word	.LC65
 2783 0148 F4060000 		.word	.LC66
 2784 014c F8060000 		.word	.LC67
 2785 0150 FC060000 		.word	.LC68
 2786 0154 10070000 		.word	.LC69
 2787              		.cfi_endproc
 2788              	.LFE279:
 2789              		.size	cmd_sqrt, .-cmd_sqrt
 2790              		.section	.rodata
 2791              		.align	2
 2792              	.LC70:
 2793 071c 55736167 		.ascii	"Usage: atan2 mode a b\015\012Modes: a (aseba), b (m"
 2793      653A2061 
 2793      74616E32 
 2793      206D6F64 
 2793      65206120 
 2794 0749 61746829 		.ascii	"ath) is default mode\015\012\000"
 2794      20697320 
 2794      64656661 
 2794      756C7420 
 2794      6D6F6465 
 2795              		.align	2
 2796              	.LC71:
 2797 0760 6174616E 		.ascii	"atan2(%d, %d) = %d \015\012\000"
 2797      32282564 
 2797      2C202564 
 2797      29203D20 
 2797      2564200D 
 2798              		.section	.text.cmd_atan2,"ax",%progbits
 2799              		.align	1
 2800              		.p2align 4,,15
 2801              		.syntax unified
 2802              		.thumb
 2803              		.thumb_func
 2804              		.fpu fpv4-sp-d16
 2805              		.type	cmd_atan2, %function
 2806              	cmd_atan2:
 2807              	.LFB280:
 2808              		.loc 7 462 0
 2809              		.cfi_startproc
 2810              		@ args = 0, pretend = 0, frame = 56
 2811              		@ frame_needed = 0, uses_anonymous_args = 0
 2812 0000 00B5     		push	{lr}
 2813              		.cfi_def_cfa_offset 4
 2814              		.cfi_offset 14, -4
ARM GAS  C:\Users\PCHAUT~1\AppData\Local\Temp\ccLw8kky.s 			page 55


 2815 0002 91B0     		sub	sp, sp, #68
 2816              		.cfi_def_cfa_offset 72
 2817 0004 0590     		str	r0, [sp, #20]
 2818 0006 0491     		str	r1, [sp, #16]
 2819 0008 0392     		str	r2, [sp, #12]
 2820              		.loc 7 462 0
 2821 000a 464B     		ldr	r3, .L187
 2822 000c 1B68     		ldr	r3, [r3]
 2823 000e 0F93     		str	r3, [sp, #60]
 2824              		.loc 7 465 0
 2825 0010 08AB     		add	r3, sp, #32
 2826 0012 1846     		mov	r0, r3
 2827 0014 FFF7FEFF 		bl	chTMObjectInit
 2828              		.loc 7 467 0
 2829 0018 049B     		ldr	r3, [sp, #16]
 2830 001a 032B     		cmp	r3, #3
 2831 001c 04D0     		beq	.L181
 2832              		.loc 7 468 0
 2833 001e 4249     		ldr	r1, .L187+4
 2834 0020 0598     		ldr	r0, [sp, #20]
 2835 0022 FFF7FEFF 		bl	chprintf
 2836              		.loc 7 491 0
 2837 0026 72E0     		b	.L186
 2838              	.L181:
 2839              		.loc 7 470 0
 2840 0028 039B     		ldr	r3, [sp, #12]
 2841 002a 0433     		adds	r3, r3, #4
 2842 002c 1B68     		ldr	r3, [r3]
 2843 002e 1846     		mov	r0, r3
 2844 0030 FFF7FEFF 		bl	atoi
 2845 0034 0346     		mov	r3, r0
 2846 0036 ADF81C30 		strh	r3, [sp, #28]	@ movhi
 2847              		.loc 7 471 0
 2848 003a 039B     		ldr	r3, [sp, #12]
 2849 003c 0833     		adds	r3, r3, #8
 2850 003e 1B68     		ldr	r3, [r3]
 2851 0040 1846     		mov	r0, r3
 2852 0042 FFF7FEFF 		bl	atoi
 2853 0046 0346     		mov	r3, r0
 2854 0048 ADF81E30 		strh	r3, [sp, #30]	@ movhi
 2855              		.loc 7 473 0
 2856 004c 039B     		ldr	r3, [sp, #12]
 2857 004e 1B68     		ldr	r3, [r3]
 2858 0050 3649     		ldr	r1, .L187+8
 2859 0052 1846     		mov	r0, r3
 2860 0054 FFF7FEFF 		bl	strcmp
 2861 0058 0346     		mov	r3, r0
 2862 005a 002B     		cmp	r3, #0
 2863 005c 17D1     		bne	.L183
 2864              		.loc 7 474 0
 2865 005e FFF7FEFF 		bl	chSysLock
 2866              		.loc 7 475 0
 2867 0062 08AB     		add	r3, sp, #32
 2868 0064 1846     		mov	r0, r3
 2869 0066 FFF7FEFF 		bl	chTMStartMeasurementX
 2870              		.loc 7 476 0
 2871 006a BDF91E20 		ldrsh	r2, [sp, #30]
ARM GAS  C:\Users\PCHAUT~1\AppData\Local\Temp\ccLw8kky.s 			page 56


 2872 006e BDF91C30 		ldrsh	r3, [sp, #28]
 2873 0072 1146     		mov	r1, r2
 2874 0074 1846     		mov	r0, r3
 2875 0076 FFF7FEFF 		bl	aseba_atan2
 2876 007a 0346     		mov	r3, r0
 2877 007c ADF81A30 		strh	r3, [sp, #26]	@ movhi
 2878              		.loc 7 477 0
 2879 0080 08AB     		add	r3, sp, #32
 2880 0082 1846     		mov	r0, r3
 2881 0084 FFF7FEFF 		bl	chTMStopMeasurementX
 2882              		.loc 7 478 0
 2883 0088 FFF7FEFF 		bl	chSysUnlock
 2884 008c 2DE0     		b	.L184
 2885              	.L183:
 2886              		.loc 7 480 0
 2887 008e FFF7FEFF 		bl	chSysLock
 2888              		.loc 7 481 0
 2889 0092 08AB     		add	r3, sp, #32
 2890 0094 1846     		mov	r0, r3
 2891 0096 FFF7FEFF 		bl	chTMStartMeasurementX
 2892              		.loc 7 482 0
 2893 009a BDF91C30 		ldrsh	r3, [sp, #28]
 2894 009e 07EE903A 		vmov	s15, r3	@ int
 2895 00a2 F8EEE77A 		vcvt.f32.s32	s15, s15
 2896 00a6 BDF91E30 		ldrsh	r3, [sp, #30]
 2897 00aa 07EE103A 		vmov	s14, r3	@ int
 2898 00ae B8EEC77A 		vcvt.f32.s32	s14, s14
 2899 00b2 F0EE470A 		vmov.f32	s1, s14
 2900 00b6 B0EE670A 		vmov.f32	s0, s15
 2901 00ba FFF7FEFF 		bl	atan2f
 2902 00be B0EE407A 		vmov.f32	s14, s0
 2903 00c2 DFED1B7A 		vldr.32	s15, .L187+12
 2904 00c6 27EE277A 		vmul.f32	s14, s14, s15
 2905 00ca DFED1A6A 		vldr.32	s13, .L187+16
 2906 00ce C7EE267A 		vdiv.f32	s15, s14, s13
 2907 00d2 FDEEE77A 		vcvt.s32.f32	s15, s15
 2908 00d6 17EE903A 		vmov	r3, s15	@ int
 2909 00da ADF81A30 		strh	r3, [sp, #26]	@ movhi
 2910              		.loc 7 483 0
 2911 00de 08AB     		add	r3, sp, #32
 2912 00e0 1846     		mov	r0, r3
 2913 00e2 FFF7FEFF 		bl	chTMStopMeasurementX
 2914              		.loc 7 484 0
 2915 00e6 FFF7FEFF 		bl	chSysUnlock
 2916              	.L184:
 2917              		.loc 7 488 0
 2918 00ea BDF91C20 		ldrsh	r2, [sp, #28]
 2919 00ee BDF91E10 		ldrsh	r1, [sp, #30]
 2920 00f2 BDF91A30 		ldrsh	r3, [sp, #26]
 2921 00f6 0093     		str	r3, [sp]
 2922 00f8 0B46     		mov	r3, r1
 2923 00fa 0F49     		ldr	r1, .L187+20
 2924 00fc 0598     		ldr	r0, [sp, #20]
 2925 00fe FFF7FEFF 		bl	chprintf
 2926              		.loc 7 489 0
 2927 0102 0A9B     		ldr	r3, [sp, #40]
 2928 0104 1A46     		mov	r2, r3
ARM GAS  C:\Users\PCHAUT~1\AppData\Local\Temp\ccLw8kky.s 			page 57


 2929 0106 0D49     		ldr	r1, .L187+24
 2930 0108 0598     		ldr	r0, [sp, #20]
 2931 010a FFF7FEFF 		bl	chprintf
 2932              	.L186:
 2933              		.loc 7 491 0
 2934 010e 00BF     		nop
 2935 0110 044B     		ldr	r3, .L187
 2936 0112 0F9A     		ldr	r2, [sp, #60]
 2937 0114 1B68     		ldr	r3, [r3]
 2938 0116 9A42     		cmp	r2, r3
 2939 0118 01D0     		beq	.L185
 2940 011a FFF7FEFF 		bl	__stack_chk_fail
 2941              	.L185:
 2942 011e 11B0     		add	sp, sp, #68
 2943              		.cfi_def_cfa_offset 4
 2944              		@ sp needed
 2945 0120 5DF804FB 		ldr	pc, [sp], #4
 2946              	.L188:
 2947              		.align	2
 2948              	.L187:
 2949 0124 00000000 		.word	__stack_chk_guard
 2950 0128 1C070000 		.word	.LC70
 2951 012c F4060000 		.word	.LC66
 2952 0130 00000047 		.word	1191182336
 2953 0134 DB0F4940 		.word	1078530011
 2954 0138 60070000 		.word	.LC71
 2955 013c 10070000 		.word	.LC69
 2956              		.cfi_endproc
 2957              	.LFE280:
 2958              		.size	cmd_atan2, .-cmd_atan2
 2959              		.section	.rodata
 2960 0776 0000     		.align	2
 2961              	.LC72:
 2962 0778 202000   		.ascii	"  \000"
 2963              		.section	.text.tree_indent,"ax",%progbits
 2964              		.align	1
 2965              		.p2align 4,,15
 2966              		.syntax unified
 2967              		.thumb
 2968              		.thumb_func
 2969              		.fpu fpv4-sp-d16
 2970              		.type	tree_indent, %function
 2971              	tree_indent:
 2972              	.LFB281:
 2973              		.loc 7 494 0
 2974              		.cfi_startproc
 2975              		@ args = 0, pretend = 0, frame = 16
 2976              		@ frame_needed = 0, uses_anonymous_args = 0
 2977 0000 00B5     		push	{lr}
 2978              		.cfi_def_cfa_offset 4
 2979              		.cfi_offset 14, -4
 2980 0002 85B0     		sub	sp, sp, #20
 2981              		.cfi_def_cfa_offset 24
 2982 0004 0190     		str	r0, [sp, #4]
 2983 0006 0091     		str	r1, [sp]
 2984              		.loc 7 494 0
 2985 0008 0D4B     		ldr	r3, .L193
ARM GAS  C:\Users\PCHAUT~1\AppData\Local\Temp\ccLw8kky.s 			page 58


 2986 000a 1B68     		ldr	r3, [r3]
 2987 000c 0393     		str	r3, [sp, #12]
 2988              		.loc 7 496 0
 2989 000e 0023     		movs	r3, #0
 2990 0010 0293     		str	r3, [sp, #8]
 2991 0012 06E0     		b	.L190
 2992              	.L191:
 2993              		.loc 7 497 0 discriminator 3
 2994 0014 0B49     		ldr	r1, .L193+4
 2995 0016 0198     		ldr	r0, [sp, #4]
 2996 0018 FFF7FEFF 		bl	chprintf
 2997              		.loc 7 496 0 discriminator 3
 2998 001c 029B     		ldr	r3, [sp, #8]
 2999 001e 0133     		adds	r3, r3, #1
 3000 0020 0293     		str	r3, [sp, #8]
 3001              	.L190:
 3002              		.loc 7 496 0 is_stmt 0 discriminator 1
 3003 0022 029A     		ldr	r2, [sp, #8]
 3004 0024 009B     		ldr	r3, [sp]
 3005 0026 9A42     		cmp	r2, r3
 3006 0028 F4DB     		blt	.L191
 3007              		.loc 7 499 0 is_stmt 1
 3008 002a 00BF     		nop
 3009 002c 044B     		ldr	r3, .L193
 3010 002e 039A     		ldr	r2, [sp, #12]
 3011 0030 1B68     		ldr	r3, [r3]
 3012 0032 9A42     		cmp	r2, r3
 3013 0034 01D0     		beq	.L192
 3014 0036 FFF7FEFF 		bl	__stack_chk_fail
 3015              	.L192:
 3016 003a 05B0     		add	sp, sp, #20
 3017              		.cfi_def_cfa_offset 4
 3018              		@ sp needed
 3019 003c 5DF804FB 		ldr	pc, [sp], #4
 3020              	.L194:
 3021              		.align	2
 3022              	.L193:
 3023 0040 00000000 		.word	__stack_chk_guard
 3024 0044 78070000 		.word	.LC72
 3025              		.cfi_endproc
 3026              	.LFE281:
 3027              		.size	tree_indent, .-tree_indent
 3028              		.section	.rodata
 3029 077b 00       		.align	2
 3030              	.LC73:
 3031 077c 25733A0D 		.ascii	"%s:\015\012\000"
 3031      0A00
 3032              		.global	__aeabi_f2d
 3033 0782 0000     		.align	2
 3034              	.LC74:
 3035 0784 25733A20 		.ascii	"%s: %f\015\012\000"
 3035      25660D0A 
 3035      00
 3036 078d 000000   		.align	2
 3037              	.LC75:
 3038 0790 25733A20 		.ascii	"%s: %d\015\012\000"
 3038      25640D0A 
ARM GAS  C:\Users\PCHAUT~1\AppData\Local\Temp\ccLw8kky.s 			page 59


 3038      00
 3039 0799 000000   		.align	2
 3040              	.LC76:
 3041 079c 74727565 		.ascii	"true\000"
 3041      00
 3042 07a1 000000   		.align	2
 3043              	.LC77:
 3044 07a4 66616C73 		.ascii	"false\000"
 3044      6500
 3045 07aa 0000     		.align	2
 3046              	.LC78:
 3047 07ac 25733A20 		.ascii	"%s: %s\015\012\000"
 3047      25730D0A 
 3047      00
 3048 07b5 000000   		.align	2
 3049              	.LC79:
 3050 07b8 25733A20 		.ascii	"%s: unknown type %d\015\012\000"
 3050      756E6B6E 
 3050      6F776E20 
 3050      74797065 
 3050      2025640D 
 3051 07ce 0000     		.align	2
 3052              	.LC80:
 3053 07d0 25733A20 		.ascii	"%s: [not set]\015\012\000"
 3053      5B6E6F74 
 3053      20736574 
 3053      5D0D0A00 
 3054              		.section	.text.show_config_tree,"ax",%progbits
 3055              		.align	1
 3056              		.p2align 4,,15
 3057              		.syntax unified
 3058              		.thumb
 3059              		.thumb_func
 3060              		.fpu fpv4-sp-d16
 3061              		.type	show_config_tree, %function
 3062              	show_config_tree:
 3063              	.LFB282:
 3064              		.loc 7 502 0
 3065              		.cfi_startproc
 3066              		@ args = 0, pretend = 0, frame = 88
 3067              		@ frame_needed = 0, uses_anonymous_args = 0
 3068 0000 30B5     		push	{r4, r5, lr}
 3069              		.cfi_def_cfa_offset 12
 3070              		.cfi_offset 4, -12
 3071              		.cfi_offset 5, -8
 3072              		.cfi_offset 14, -4
 3073 0002 99B0     		sub	sp, sp, #100
 3074              		.cfi_def_cfa_offset 112
 3075 0004 0590     		str	r0, [sp, #20]
 3076 0006 0491     		str	r1, [sp, #16]
 3077 0008 0392     		str	r2, [sp, #12]
 3078              		.loc 7 502 0
 3079 000a 534B     		ldr	r3, .L213
 3080 000c 1B68     		ldr	r3, [r3]
 3081 000e 1793     		str	r3, [sp, #92]
 3082              		.loc 7 506 0
 3083 0010 0399     		ldr	r1, [sp, #12]
ARM GAS  C:\Users\PCHAUT~1\AppData\Local\Temp\ccLw8kky.s 			page 60


 3084 0012 0598     		ldr	r0, [sp, #20]
 3085 0014 FFF7FEFF 		bl	tree_indent
 3086              		.loc 7 507 0
 3087 0018 049B     		ldr	r3, [sp, #16]
 3088 001a 1B68     		ldr	r3, [r3]
 3089 001c 1A46     		mov	r2, r3
 3090 001e 4F49     		ldr	r1, .L213+4
 3091 0020 0598     		ldr	r0, [sp, #20]
 3092 0022 FFF7FEFF 		bl	chprintf
 3093              		.loc 7 509 0
 3094 0026 049B     		ldr	r3, [sp, #16]
 3095 0028 5B69     		ldr	r3, [r3, #20]
 3096 002a 0693     		str	r3, [sp, #24]
 3097 002c 6FE0     		b	.L196
 3098              	.L208:
 3099              		.loc 7 510 0
 3100 002e 039B     		ldr	r3, [sp, #12]
 3101 0030 0133     		adds	r3, r3, #1
 3102 0032 1946     		mov	r1, r3
 3103 0034 0598     		ldr	r0, [sp, #20]
 3104 0036 FFF7FEFF 		bl	tree_indent
 3105              		.loc 7 511 0
 3106 003a 0698     		ldr	r0, [sp, #24]
 3107 003c FFF7FEFF 		bl	parameter_defined
 3108 0040 0346     		mov	r3, r0
 3109 0042 002B     		cmp	r3, #0
 3110 0044 59D0     		beq	.L197
 3111              		.loc 7 512 0
 3112 0046 069B     		ldr	r3, [sp, #24]
 3113 0048 9B7B     		ldrb	r3, [r3, #14]	@ zero_extendqisi2
 3114 004a 013B     		subs	r3, r3, #1
 3115 004c 032B     		cmp	r3, #3
 3116 004e 4AD8     		bhi	.L198
 3117 0050 01A2     		adr	r2, .L200
 3118 0052 52F823F0 		ldr	pc, [r2, r3, lsl #2]
 3119 0056 00BF     		.p2align 2
 3120              	.L200:
 3121 0058 69000000 		.word	.L199+1
 3122 005c A9000000 		.word	.L201+1
 3123 0060 91000000 		.word	.L202+1
 3124 0064 CB000000 		.word	.L203+1
 3125              		.p2align 1
 3126              	.L199:
 3127              		.loc 7 514 0
 3128 0068 069B     		ldr	r3, [sp, #24]
 3129 006a 1D68     		ldr	r5, [r3]
 3130 006c 0698     		ldr	r0, [sp, #24]
 3131 006e FFF7FEFF 		bl	parameter_scalar_get
 3132 0072 10EE103A 		vmov	r3, s0
 3133 0076 1846     		mov	r0, r3	@ float
 3134 0078 FFF7FEFF 		bl	__aeabi_f2d
 3135              	.LVL0:
 3136 007c 0346     		mov	r3, r0
 3137 007e 0C46     		mov	r4, r1
 3138 0080 CDE90034 		strd	r3, [sp]
 3139 0084 2A46     		mov	r2, r5
 3140 0086 3649     		ldr	r1, .L213+8
ARM GAS  C:\Users\PCHAUT~1\AppData\Local\Temp\ccLw8kky.s 			page 61


 3141 0088 0598     		ldr	r0, [sp, #20]
 3142 008a FFF7FEFF 		bl	chprintf
 3143              		.loc 7 515 0
 3144 008e 3BE0     		b	.L207
 3145              	.L202:
 3146              		.loc 7 518 0
 3147 0090 069B     		ldr	r3, [sp, #24]
 3148 0092 1C68     		ldr	r4, [r3]
 3149 0094 0698     		ldr	r0, [sp, #24]
 3150 0096 FFF7FEFF 		bl	parameter_integer_get
 3151 009a 0346     		mov	r3, r0
 3152 009c 2246     		mov	r2, r4
 3153 009e 3149     		ldr	r1, .L213+12
 3154 00a0 0598     		ldr	r0, [sp, #20]
 3155 00a2 FFF7FEFF 		bl	chprintf
 3156              		.loc 7 519 0
 3157 00a6 2FE0     		b	.L207
 3158              	.L201:
 3159              		.loc 7 522 0
 3160 00a8 069B     		ldr	r3, [sp, #24]
 3161 00aa 1C68     		ldr	r4, [r3]
 3162 00ac 0698     		ldr	r0, [sp, #24]
 3163 00ae FFF7FEFF 		bl	parameter_boolean_get
 3164 00b2 0346     		mov	r3, r0
 3165 00b4 002B     		cmp	r3, #0
 3166 00b6 01D0     		beq	.L205
 3167              		.loc 7 522 0 is_stmt 0 discriminator 1
 3168 00b8 2B4B     		ldr	r3, .L213+16
 3169 00ba 00E0     		b	.L206
 3170              	.L205:
 3171              		.loc 7 522 0 discriminator 2
 3172 00bc 2B4B     		ldr	r3, .L213+20
 3173              	.L206:
 3174              		.loc 7 522 0 discriminator 4
 3175 00be 2246     		mov	r2, r4
 3176 00c0 2B49     		ldr	r1, .L213+24
 3177 00c2 0598     		ldr	r0, [sp, #20]
 3178 00c4 FFF7FEFF 		bl	chprintf
 3179              		.loc 7 523 0 is_stmt 1 discriminator 4
 3180 00c8 1EE0     		b	.L207
 3181              	.L203:
 3182              		.loc 7 526 0
 3183 00ca 07AB     		add	r3, sp, #28
 3184 00cc 4022     		movs	r2, #64
 3185 00ce 1946     		mov	r1, r3
 3186 00d0 0698     		ldr	r0, [sp, #24]
 3187 00d2 FFF7FEFF 		bl	parameter_string_get
 3188              		.loc 7 527 0
 3189 00d6 069B     		ldr	r3, [sp, #24]
 3190 00d8 1A68     		ldr	r2, [r3]
 3191 00da 07AB     		add	r3, sp, #28
 3192 00dc 2449     		ldr	r1, .L213+24
 3193 00de 0598     		ldr	r0, [sp, #20]
 3194 00e0 FFF7FEFF 		bl	chprintf
 3195              		.loc 7 528 0
 3196 00e4 10E0     		b	.L207
 3197              	.L198:
ARM GAS  C:\Users\PCHAUT~1\AppData\Local\Temp\ccLw8kky.s 			page 62


 3198              		.loc 7 531 0
 3199 00e6 069B     		ldr	r3, [sp, #24]
 3200 00e8 1A68     		ldr	r2, [r3]
 3201 00ea 069B     		ldr	r3, [sp, #24]
 3202 00ec 9B7B     		ldrb	r3, [r3, #14]	@ zero_extendqisi2
 3203 00ee 2149     		ldr	r1, .L213+28
 3204 00f0 0598     		ldr	r0, [sp, #20]
 3205 00f2 FFF7FEFF 		bl	chprintf
 3206              		.loc 7 532 0
 3207 00f6 00BF     		nop
 3208 00f8 06E0     		b	.L207
 3209              	.L197:
 3210              		.loc 7 535 0
 3211 00fa 069B     		ldr	r3, [sp, #24]
 3212 00fc 1B68     		ldr	r3, [r3]
 3213 00fe 1A46     		mov	r2, r3
 3214 0100 1D49     		ldr	r1, .L213+32
 3215 0102 0598     		ldr	r0, [sp, #20]
 3216 0104 FFF7FEFF 		bl	chprintf
 3217              	.L207:
 3218              		.loc 7 509 0 discriminator 2
 3219 0108 069B     		ldr	r3, [sp, #24]
 3220 010a 9B68     		ldr	r3, [r3, #8]
 3221 010c 0693     		str	r3, [sp, #24]
 3222              	.L196:
 3223              		.loc 7 509 0 is_stmt 0 discriminator 1
 3224 010e 069B     		ldr	r3, [sp, #24]
 3225 0110 002B     		cmp	r3, #0
 3226 0112 8CD1     		bne	.L208
 3227              		.loc 7 539 0 is_stmt 1
 3228 0114 049B     		ldr	r3, [sp, #16]
 3229 0116 DB68     		ldr	r3, [r3, #12]
 3230 0118 002B     		cmp	r3, #0
 3231 011a 07D0     		beq	.L209
 3232              		.loc 7 540 0
 3233 011c 049B     		ldr	r3, [sp, #16]
 3234 011e D968     		ldr	r1, [r3, #12]
 3235 0120 039B     		ldr	r3, [sp, #12]
 3236 0122 0133     		adds	r3, r3, #1
 3237 0124 1A46     		mov	r2, r3
 3238 0126 0598     		ldr	r0, [sp, #20]
 3239 0128 FFF76AFF 		bl	show_config_tree
 3240              	.L209:
 3241              		.loc 7 543 0
 3242 012c 049B     		ldr	r3, [sp, #16]
 3243 012e 1B69     		ldr	r3, [r3, #16]
 3244 0130 002B     		cmp	r3, #0
 3245 0132 06D0     		beq	.L212
 3246              		.loc 7 544 0
 3247 0134 049B     		ldr	r3, [sp, #16]
 3248 0136 1B69     		ldr	r3, [r3, #16]
 3249 0138 039A     		ldr	r2, [sp, #12]
 3250 013a 1946     		mov	r1, r3
 3251 013c 0598     		ldr	r0, [sp, #20]
 3252 013e FFF75FFF 		bl	show_config_tree
 3253              	.L212:
 3254              		.loc 7 546 0
ARM GAS  C:\Users\PCHAUT~1\AppData\Local\Temp\ccLw8kky.s 			page 63


 3255 0142 00BF     		nop
 3256 0144 044B     		ldr	r3, .L213
 3257 0146 179A     		ldr	r2, [sp, #92]
 3258 0148 1B68     		ldr	r3, [r3]
 3259 014a 9A42     		cmp	r2, r3
 3260 014c 01D0     		beq	.L211
 3261 014e FFF7FEFF 		bl	__stack_chk_fail
 3262              	.L211:
 3263 0152 19B0     		add	sp, sp, #100
 3264              		.cfi_def_cfa_offset 12
 3265              		@ sp needed
 3266 0154 30BD     		pop	{r4, r5, pc}
 3267              	.L214:
 3268 0156 00BF     		.align	2
 3269              	.L213:
 3270 0158 00000000 		.word	__stack_chk_guard
 3271 015c 7C070000 		.word	.LC73
 3272 0160 84070000 		.word	.LC74
 3273 0164 90070000 		.word	.LC75
 3274 0168 9C070000 		.word	.LC76
 3275 016c A4070000 		.word	.LC77
 3276 0170 AC070000 		.word	.LC78
 3277 0174 B8070000 		.word	.LC79
 3278 0178 D0070000 		.word	.LC80
 3279              		.cfi_endproc
 3280              	.LFE282:
 3281              		.size	show_config_tree, .-show_config_tree
 3282              		.section	.rodata
 3283              		.align	2
 3284              	.LC81:
 3285 07e0 43616E6E 		.ascii	"Cannot find subtree.\015\012\000"
 3285      6F742066 
 3285      696E6420 
 3285      73756274 
 3285      7265652E 
 3286              		.section	.text.cmd_config_tree,"ax",%progbits
 3287              		.align	1
 3288              		.p2align 4,,15
 3289              		.syntax unified
 3290              		.thumb
 3291              		.thumb_func
 3292              		.fpu fpv4-sp-d16
 3293              		.type	cmd_config_tree, %function
 3294              	cmd_config_tree:
 3295              	.LFB283:
 3296              		.loc 7 549 0
 3297              		.cfi_startproc
 3298              		@ args = 0, pretend = 0, frame = 24
 3299              		@ frame_needed = 0, uses_anonymous_args = 0
 3300 0000 00B5     		push	{lr}
 3301              		.cfi_def_cfa_offset 4
 3302              		.cfi_offset 14, -4
 3303 0002 87B0     		sub	sp, sp, #28
 3304              		.cfi_def_cfa_offset 32
 3305 0004 0390     		str	r0, [sp, #12]
 3306 0006 0291     		str	r1, [sp, #8]
 3307 0008 0192     		str	r2, [sp, #4]
ARM GAS  C:\Users\PCHAUT~1\AppData\Local\Temp\ccLw8kky.s 			page 64


 3308              		.loc 7 549 0
 3309 000a 134B     		ldr	r3, .L220
 3310 000c 1B68     		ldr	r3, [r3]
 3311 000e 0593     		str	r3, [sp, #20]
 3312              		.loc 7 551 0
 3313 0010 029B     		ldr	r3, [sp, #8]
 3314 0012 012B     		cmp	r3, #1
 3315 0014 02D0     		beq	.L216
 3316              		.loc 7 552 0
 3317 0016 114B     		ldr	r3, .L220+4
 3318 0018 0493     		str	r3, [sp, #16]
 3319 001a 0EE0     		b	.L217
 3320              	.L216:
 3321              		.loc 7 554 0
 3322 001c 019B     		ldr	r3, [sp, #4]
 3323 001e 1B68     		ldr	r3, [r3]
 3324 0020 1946     		mov	r1, r3
 3325 0022 0E48     		ldr	r0, .L220+4
 3326 0024 FFF7FEFF 		bl	parameter_namespace_find
 3327 0028 0490     		str	r0, [sp, #16]
 3328              		.loc 7 555 0
 3329 002a 049B     		ldr	r3, [sp, #16]
 3330 002c 002B     		cmp	r3, #0
 3331 002e 04D1     		bne	.L217
 3332              		.loc 7 556 0
 3333 0030 0B49     		ldr	r1, .L220+8
 3334 0032 0398     		ldr	r0, [sp, #12]
 3335 0034 FFF7FEFF 		bl	chprintf
 3336              		.loc 7 557 0
 3337 0038 04E0     		b	.L215
 3338              	.L217:
 3339              		.loc 7 561 0
 3340 003a 0022     		movs	r2, #0
 3341 003c 0499     		ldr	r1, [sp, #16]
 3342 003e 0398     		ldr	r0, [sp, #12]
 3343 0040 FFF7FEFF 		bl	show_config_tree
 3344              	.L215:
 3345              		.loc 7 562 0
 3346 0044 044B     		ldr	r3, .L220
 3347 0046 059A     		ldr	r2, [sp, #20]
 3348 0048 1B68     		ldr	r3, [r3]
 3349 004a 9A42     		cmp	r2, r3
 3350 004c 01D0     		beq	.L219
 3351 004e FFF7FEFF 		bl	__stack_chk_fail
 3352              	.L219:
 3353 0052 07B0     		add	sp, sp, #28
 3354              		.cfi_def_cfa_offset 4
 3355              		@ sp needed
 3356 0054 5DF804FB 		ldr	pc, [sp], #4
 3357              	.L221:
 3358              		.align	2
 3359              	.L220:
 3360 0058 00000000 		.word	__stack_chk_guard
 3361 005c 00000000 		.word	parameter_root
 3362 0060 E0070000 		.word	.LC81
 3363              		.cfi_endproc
 3364              	.LFE283:
ARM GAS  C:\Users\PCHAUT~1\AppData\Local\Temp\ccLw8kky.s 			page 65


 3365              		.size	cmd_config_tree, .-cmd_config_tree
 3366              		.section	.rodata
 3367 07f7 00       		.align	2
 3368              	.LC82:
 3369 07f8 55736167 		.ascii	"Usage: config_set /parameter/url value.\015\012\000"
 3369      653A2063 
 3369      6F6E6669 
 3369      675F7365 
 3369      74202F70 
 3370 0822 0000     		.align	2
 3371              	.LC83:
 3372 0824 436F756C 		.ascii	"Could not find parameter \"%s\"\015\012\000"
 3372      64206E6F 
 3372      74206669 
 3372      6E642070 
 3372      6172616D 
 3373              		.align	2
 3374              	.LC84:
 3375 0844 256400   		.ascii	"%d\000"
 3376 0847 00       		.align	2
 3377              	.LC85:
 3378 0848 496E7661 		.ascii	"Invalid value for integer parameter.\015\012\000"
 3378      6C696420 
 3378      76616C75 
 3378      6520666F 
 3378      7220696E 
 3379 086f 00       		.align	2
 3380              	.LC86:
 3381 0870 496E7661 		.ascii	"Invalid value for boolean parameter, must be true o"
 3381      6C696420 
 3381      76616C75 
 3381      6520666F 
 3381      7220626F 
 3382 08a3 72206661 		.ascii	"r false.\015\012\000"
 3382      6C73652E 
 3382      0D0A00
 3383 08ae 0000     		.align	2
 3384              	.LC87:
 3385 08b0 496E7661 		.ascii	"Invalid value for string parameter, must not use sp"
 3385      6C696420 
 3385      76616C75 
 3385      6520666F 
 3385      72207374 
 3386 08e3 61636573 		.ascii	"aces.\015\012\000"
 3386      2E0D0A00 
 3387              		.section	.text.cmd_config_set,"ax",%progbits
 3388              		.align	1
 3389              		.p2align 4,,15
 3390              		.syntax unified
 3391              		.thumb
 3392              		.thumb_func
 3393              		.fpu fpv4-sp-d16
 3394              		.type	cmd_config_set, %function
 3395              	cmd_config_set:
 3396              	.LFB284:
 3397              		.loc 7 565 0
 3398              		.cfi_startproc
ARM GAS  C:\Users\PCHAUT~1\AppData\Local\Temp\ccLw8kky.s 			page 66


 3399              		@ args = 0, pretend = 0, frame = 32
 3400              		@ frame_needed = 0, uses_anonymous_args = 0
 3401 0000 00B5     		push	{lr}
 3402              		.cfi_def_cfa_offset 4
 3403              		.cfi_offset 14, -4
 3404 0002 89B0     		sub	sp, sp, #36
 3405              		.cfi_def_cfa_offset 40
 3406 0004 0390     		str	r0, [sp, #12]
 3407 0006 0291     		str	r1, [sp, #8]
 3408 0008 0192     		str	r2, [sp, #4]
 3409              		.loc 7 565 0
 3410 000a 414B     		ldr	r3, .L241
 3411 000c 1B68     		ldr	r3, [r3]
 3412 000e 0793     		str	r3, [sp, #28]
 3413              		.loc 7 569 0
 3414 0010 029B     		ldr	r3, [sp, #8]
 3415 0012 022B     		cmp	r3, #2
 3416 0014 04D0     		beq	.L223
 3417              		.loc 7 570 0
 3418 0016 3F49     		ldr	r1, .L241+4
 3419 0018 0398     		ldr	r0, [sp, #12]
 3420 001a FFF7FEFF 		bl	chprintf
 3421              		.loc 7 571 0
 3422 001e 6CE0     		b	.L222
 3423              	.L223:
 3424              		.loc 7 574 0
 3425 0020 019B     		ldr	r3, [sp, #4]
 3426 0022 1B68     		ldr	r3, [r3]
 3427 0024 1946     		mov	r1, r3
 3428 0026 3C48     		ldr	r0, .L241+8
 3429 0028 FFF7FEFF 		bl	parameter_find
 3430 002c 0690     		str	r0, [sp, #24]
 3431              		.loc 7 576 0
 3432 002e 069B     		ldr	r3, [sp, #24]
 3433 0030 002B     		cmp	r3, #0
 3434 0032 07D1     		bne	.L225
 3435              		.loc 7 577 0
 3436 0034 019B     		ldr	r3, [sp, #4]
 3437 0036 1B68     		ldr	r3, [r3]
 3438 0038 1A46     		mov	r2, r3
 3439 003a 3849     		ldr	r1, .L241+12
 3440 003c 0398     		ldr	r0, [sp, #12]
 3441 003e FFF7FEFF 		bl	chprintf
 3442              		.loc 7 578 0
 3443 0042 5AE0     		b	.L222
 3444              	.L225:
 3445              		.loc 7 581 0
 3446 0044 069B     		ldr	r3, [sp, #24]
 3447 0046 9B7B     		ldrb	r3, [r3, #14]	@ zero_extendqisi2
 3448 0048 032B     		cmp	r3, #3
 3449 004a 04D0     		beq	.L227
 3450 004c 042B     		cmp	r3, #4
 3451 004e 3BD0     		beq	.L228
 3452 0050 022B     		cmp	r3, #2
 3453 0052 16D0     		beq	.L229
 3454 0054 48E0     		b	.L240
 3455              	.L227:
ARM GAS  C:\Users\PCHAUT~1\AppData\Local\Temp\ccLw8kky.s 			page 67


 3456              		.loc 7 583 0
 3457 0056 019B     		ldr	r3, [sp, #4]
 3458 0058 0433     		adds	r3, r3, #4
 3459 005a 1B68     		ldr	r3, [r3]
 3460 005c 05AA     		add	r2, sp, #20
 3461 005e 3049     		ldr	r1, .L241+16
 3462 0060 1846     		mov	r0, r3
 3463 0062 FFF7FEFF 		bl	sscanf
 3464 0066 0346     		mov	r3, r0
 3465 0068 012B     		cmp	r3, #1
 3466 006a 05D1     		bne	.L230
 3467              		.loc 7 584 0
 3468 006c 059B     		ldr	r3, [sp, #20]
 3469 006e 1946     		mov	r1, r3
 3470 0070 0698     		ldr	r0, [sp, #24]
 3471 0072 FFF7FEFF 		bl	parameter_integer_set
 3472              		.loc 7 588 0
 3473 0076 40E0     		b	.L222
 3474              	.L230:
 3475              		.loc 7 586 0
 3476 0078 2A49     		ldr	r1, .L241+20
 3477 007a 0398     		ldr	r0, [sp, #12]
 3478 007c FFF7FEFF 		bl	chprintf
 3479              		.loc 7 588 0
 3480 0080 3BE0     		b	.L222
 3481              	.L229:
 3482              		.loc 7 591 0
 3483 0082 019B     		ldr	r3, [sp, #4]
 3484 0084 0433     		adds	r3, r3, #4
 3485 0086 1B68     		ldr	r3, [r3]
 3486 0088 2749     		ldr	r1, .L241+24
 3487 008a 1846     		mov	r0, r3
 3488 008c FFF7FEFF 		bl	strcmp
 3489 0090 0346     		mov	r3, r0
 3490 0092 002B     		cmp	r3, #0
 3491 0094 04D1     		bne	.L233
 3492              		.loc 7 592 0
 3493 0096 0121     		movs	r1, #1
 3494 0098 0698     		ldr	r0, [sp, #24]
 3495 009a FFF7FEFF 		bl	parameter_boolean_set
 3496              		.loc 7 598 0
 3497 009e 2CE0     		b	.L222
 3498              	.L233:
 3499              		.loc 7 593 0
 3500 00a0 019B     		ldr	r3, [sp, #4]
 3501 00a2 0433     		adds	r3, r3, #4
 3502 00a4 1B68     		ldr	r3, [r3]
 3503 00a6 2149     		ldr	r1, .L241+28
 3504 00a8 1846     		mov	r0, r3
 3505 00aa FFF7FEFF 		bl	strcmp
 3506 00ae 0346     		mov	r3, r0
 3507 00b0 002B     		cmp	r3, #0
 3508 00b2 04D1     		bne	.L235
 3509              		.loc 7 594 0
 3510 00b4 0021     		movs	r1, #0
 3511 00b6 0698     		ldr	r0, [sp, #24]
 3512 00b8 FFF7FEFF 		bl	parameter_boolean_set
ARM GAS  C:\Users\PCHAUT~1\AppData\Local\Temp\ccLw8kky.s 			page 68


 3513              		.loc 7 598 0
 3514 00bc 1DE0     		b	.L222
 3515              	.L235:
 3516              		.loc 7 596 0
 3517 00be 1C49     		ldr	r1, .L241+32
 3518 00c0 0398     		ldr	r0, [sp, #12]
 3519 00c2 FFF7FEFF 		bl	chprintf
 3520              		.loc 7 598 0
 3521 00c6 18E0     		b	.L222
 3522              	.L228:
 3523              		.loc 7 601 0
 3524 00c8 029B     		ldr	r3, [sp, #8]
 3525 00ca 022B     		cmp	r3, #2
 3526 00cc 07D1     		bne	.L236
 3527              		.loc 7 602 0
 3528 00ce 019B     		ldr	r3, [sp, #4]
 3529 00d0 0433     		adds	r3, r3, #4
 3530 00d2 1B68     		ldr	r3, [r3]
 3531 00d4 1946     		mov	r1, r3
 3532 00d6 0698     		ldr	r0, [sp, #24]
 3533 00d8 FFF7FEFF 		bl	parameter_string_set
 3534              		.loc 7 606 0
 3535 00dc 0DE0     		b	.L222
 3536              	.L236:
 3537              		.loc 7 604 0
 3538 00de 1549     		ldr	r1, .L241+36
 3539 00e0 0398     		ldr	r0, [sp, #12]
 3540 00e2 FFF7FEFF 		bl	chprintf
 3541              		.loc 7 606 0
 3542 00e6 08E0     		b	.L222
 3543              	.L240:
 3544              		.loc 7 609 0
 3545 00e8 069B     		ldr	r3, [sp, #24]
 3546 00ea 1A68     		ldr	r2, [r3]
 3547 00ec 069B     		ldr	r3, [sp, #24]
 3548 00ee 9B7B     		ldrb	r3, [r3, #14]	@ zero_extendqisi2
 3549 00f0 1149     		ldr	r1, .L241+40
 3550 00f2 0398     		ldr	r0, [sp, #12]
 3551 00f4 FFF7FEFF 		bl	chprintf
 3552              		.loc 7 610 0
 3553 00f8 00BF     		nop
 3554              	.L222:
 3555              		.loc 7 612 0
 3556 00fa 054B     		ldr	r3, .L241
 3557 00fc 079A     		ldr	r2, [sp, #28]
 3558 00fe 1B68     		ldr	r3, [r3]
 3559 0100 9A42     		cmp	r2, r3
 3560 0102 01D0     		beq	.L239
 3561 0104 FFF7FEFF 		bl	__stack_chk_fail
 3562              	.L239:
 3563 0108 09B0     		add	sp, sp, #36
 3564              		.cfi_def_cfa_offset 4
 3565              		@ sp needed
 3566 010a 5DF804FB 		ldr	pc, [sp], #4
 3567              	.L242:
 3568 010e 00BF     		.align	2
 3569              	.L241:
ARM GAS  C:\Users\PCHAUT~1\AppData\Local\Temp\ccLw8kky.s 			page 69


 3570 0110 00000000 		.word	__stack_chk_guard
 3571 0114 F8070000 		.word	.LC82
 3572 0118 00000000 		.word	parameter_root
 3573 011c 24080000 		.word	.LC83
 3574 0120 44080000 		.word	.LC84
 3575 0124 48080000 		.word	.LC85
 3576 0128 9C070000 		.word	.LC76
 3577 012c A4070000 		.word	.LC77
 3578 0130 70080000 		.word	.LC86
 3579 0134 B0080000 		.word	.LC87
 3580 0138 B8070000 		.word	.LC79
 3581              		.cfi_endproc
 3582              	.LFE284:
 3583              		.size	cmd_config_set, .-cmd_config_set
 3584              		.section	.text.cmd_config_erase,"ax",%progbits
 3585              		.align	1
 3586              		.p2align 4,,15
 3587              		.syntax unified
 3588              		.thumb
 3589              		.thumb_func
 3590              		.fpu fpv4-sp-d16
 3591              		.type	cmd_config_erase, %function
 3592              	cmd_config_erase:
 3593              	.LFB285:
 3594              		.loc 7 615 0
 3595              		.cfi_startproc
 3596              		@ args = 0, pretend = 0, frame = 24
 3597              		@ frame_needed = 0, uses_anonymous_args = 0
 3598 0000 00B5     		push	{lr}
 3599              		.cfi_def_cfa_offset 4
 3600              		.cfi_offset 14, -4
 3601 0002 87B0     		sub	sp, sp, #28
 3602              		.cfi_def_cfa_offset 32
 3603 0004 0390     		str	r0, [sp, #12]
 3604 0006 0291     		str	r1, [sp, #8]
 3605 0008 0192     		str	r2, [sp, #4]
 3606              		.loc 7 615 0
 3607 000a 084B     		ldr	r3, .L245
 3608 000c 1B68     		ldr	r3, [r3]
 3609 000e 0593     		str	r3, [sp, #20]
 3610              		.loc 7 621 0
 3611 0010 0748     		ldr	r0, .L245+4
 3612 0012 FFF7FEFF 		bl	config_erase
 3613              		.loc 7 622 0
 3614 0016 00BF     		nop
 3615 0018 044B     		ldr	r3, .L245
 3616 001a 059A     		ldr	r2, [sp, #20]
 3617 001c 1B68     		ldr	r3, [r3]
 3618 001e 9A42     		cmp	r2, r3
 3619 0020 01D0     		beq	.L244
 3620 0022 FFF7FEFF 		bl	__stack_chk_fail
 3621              	.L244:
 3622 0026 07B0     		add	sp, sp, #28
 3623              		.cfi_def_cfa_offset 4
 3624              		@ sp needed
 3625 0028 5DF804FB 		ldr	pc, [sp], #4
 3626              	.L246:
ARM GAS  C:\Users\PCHAUT~1\AppData\Local\Temp\ccLw8kky.s 			page 70


 3627              		.align	2
 3628              	.L245:
 3629 002c 00000000 		.word	__stack_chk_guard
 3630 0030 00000000 		.word	_config_start
 3631              		.cfi_endproc
 3632              	.LFE285:
 3633              		.size	cmd_config_erase, .-cmd_config_erase
 3634              		.section	.rodata
 3635 08eb 00       		.align	2
 3636              	.LC88:
 3637 08ec 4F4B2E0D 		.ascii	"OK.\015\012\000"
 3637      0A00
 3638 08f2 0000     		.align	2
 3639              	.LC89:
 3640 08f4 53617665 		.ascii	"Save failed.\015\012\000"
 3640      20666169 
 3640      6C65642E 
 3640      0D0A00
 3641              		.section	.text.cmd_config_save,"ax",%progbits
 3642              		.align	1
 3643              		.p2align 4,,15
 3644              		.syntax unified
 3645              		.thumb
 3646              		.thumb_func
 3647              		.fpu fpv4-sp-d16
 3648              		.type	cmd_config_save, %function
 3649              	cmd_config_save:
 3650              	.LFB286:
 3651              		.loc 7 625 0
 3652              		.cfi_startproc
 3653              		@ args = 0, pretend = 0, frame = 32
 3654              		@ frame_needed = 0, uses_anonymous_args = 0
 3655 0000 00B5     		push	{lr}
 3656              		.cfi_def_cfa_offset 4
 3657              		.cfi_offset 14, -4
 3658 0002 89B0     		sub	sp, sp, #36
 3659              		.cfi_def_cfa_offset 40
 3660 0004 0390     		str	r0, [sp, #12]
 3661 0006 0291     		str	r1, [sp, #8]
 3662 0008 0192     		str	r2, [sp, #4]
 3663              		.loc 7 625 0
 3664 000a 154B     		ldr	r3, .L252
 3665 000c 1B68     		ldr	r3, [r3]
 3666 000e 0793     		str	r3, [sp, #28]
 3667              		.loc 7 629 0
 3668 0010 144A     		ldr	r2, .L252+4
 3669 0012 154B     		ldr	r3, .L252+8
 3670 0014 D31A     		subs	r3, r2, r3
 3671 0016 0693     		str	r3, [sp, #24]
 3672              		.loc 7 633 0
 3673 0018 144A     		ldr	r2, .L252+12
 3674 001a 0699     		ldr	r1, [sp, #24]
 3675 001c 1248     		ldr	r0, .L252+8
 3676 001e FFF7FEFF 		bl	config_save
 3677              		.loc 7 636 0
 3678 0022 1149     		ldr	r1, .L252+8
 3679 0024 1148     		ldr	r0, .L252+12
ARM GAS  C:\Users\PCHAUT~1\AppData\Local\Temp\ccLw8kky.s 			page 71


 3680 0026 FFF7FEFF 		bl	config_load
 3681 002a 0346     		mov	r3, r0
 3682 002c 8DF81730 		strb	r3, [sp, #23]
 3683              		.loc 7 638 0
 3684 0030 9DF81730 		ldrb	r3, [sp, #23]	@ zero_extendqisi2
 3685 0034 002B     		cmp	r3, #0
 3686 0036 04D0     		beq	.L248
 3687              		.loc 7 639 0
 3688 0038 0D49     		ldr	r1, .L252+16
 3689 003a 0398     		ldr	r0, [sp, #12]
 3690 003c FFF7FEFF 		bl	chprintf
 3691              		.loc 7 643 0
 3692 0040 03E0     		b	.L251
 3693              	.L248:
 3694              		.loc 7 641 0
 3695 0042 0C49     		ldr	r1, .L252+20
 3696 0044 0398     		ldr	r0, [sp, #12]
 3697 0046 FFF7FEFF 		bl	chprintf
 3698              	.L251:
 3699              		.loc 7 643 0
 3700 004a 00BF     		nop
 3701 004c 044B     		ldr	r3, .L252
 3702 004e 079A     		ldr	r2, [sp, #28]
 3703 0050 1B68     		ldr	r3, [r3]
 3704 0052 9A42     		cmp	r2, r3
 3705 0054 01D0     		beq	.L250
 3706 0056 FFF7FEFF 		bl	__stack_chk_fail
 3707              	.L250:
 3708 005a 09B0     		add	sp, sp, #36
 3709              		.cfi_def_cfa_offset 4
 3710              		@ sp needed
 3711 005c 5DF804FB 		ldr	pc, [sp], #4
 3712              	.L253:
 3713              		.align	2
 3714              	.L252:
 3715 0060 00000000 		.word	__stack_chk_guard
 3716 0064 00000000 		.word	_config_end
 3717 0068 00000000 		.word	_config_start
 3718 006c 00000000 		.word	parameter_root
 3719 0070 EC080000 		.word	.LC88
 3720 0074 F4080000 		.word	.LC89
 3721              		.cfi_endproc
 3722              	.LFE286:
 3723              		.size	cmd_config_save, .-cmd_config_save
 3724              		.section	.rodata
 3725 0903 00       		.align	2
 3726              	.LC90:
 3727 0904 4C6F6164 		.ascii	"Load failed.\015\012\000"
 3727      20666169 
 3727      6C65642E 
 3727      0D0A00
 3728              		.section	.text.cmd_config_load,"ax",%progbits
 3729              		.align	1
 3730              		.p2align 4,,15
 3731              		.syntax unified
 3732              		.thumb
 3733              		.thumb_func
ARM GAS  C:\Users\PCHAUT~1\AppData\Local\Temp\ccLw8kky.s 			page 72


 3734              		.fpu fpv4-sp-d16
 3735              		.type	cmd_config_load, %function
 3736              	cmd_config_load:
 3737              	.LFB287:
 3738              		.loc 7 646 0
 3739              		.cfi_startproc
 3740              		@ args = 0, pretend = 0, frame = 24
 3741              		@ frame_needed = 0, uses_anonymous_args = 0
 3742 0000 00B5     		push	{lr}
 3743              		.cfi_def_cfa_offset 4
 3744              		.cfi_offset 14, -4
 3745 0002 87B0     		sub	sp, sp, #28
 3746              		.cfi_def_cfa_offset 32
 3747 0004 0390     		str	r0, [sp, #12]
 3748 0006 0291     		str	r1, [sp, #8]
 3749 0008 0192     		str	r2, [sp, #4]
 3750              		.loc 7 646 0
 3751 000a 114B     		ldr	r3, .L259
 3752 000c 1B68     		ldr	r3, [r3]
 3753 000e 0593     		str	r3, [sp, #20]
 3754              		.loc 7 652 0
 3755 0010 1049     		ldr	r1, .L259+4
 3756 0012 1148     		ldr	r0, .L259+8
 3757 0014 FFF7FEFF 		bl	config_load
 3758 0018 0346     		mov	r3, r0
 3759 001a 8DF81330 		strb	r3, [sp, #19]
 3760              		.loc 7 654 0
 3761 001e 9DF81330 		ldrb	r3, [sp, #19]	@ zero_extendqisi2
 3762 0022 002B     		cmp	r3, #0
 3763 0024 04D0     		beq	.L255
 3764              		.loc 7 655 0
 3765 0026 0D49     		ldr	r1, .L259+12
 3766 0028 0398     		ldr	r0, [sp, #12]
 3767 002a FFF7FEFF 		bl	chprintf
 3768              		.loc 7 659 0
 3769 002e 03E0     		b	.L258
 3770              	.L255:
 3771              		.loc 7 657 0
 3772 0030 0B49     		ldr	r1, .L259+16
 3773 0032 0398     		ldr	r0, [sp, #12]
 3774 0034 FFF7FEFF 		bl	chprintf
 3775              	.L258:
 3776              		.loc 7 659 0
 3777 0038 00BF     		nop
 3778 003a 054B     		ldr	r3, .L259
 3779 003c 059A     		ldr	r2, [sp, #20]
 3780 003e 1B68     		ldr	r3, [r3]
 3781 0040 9A42     		cmp	r2, r3
 3782 0042 01D0     		beq	.L257
 3783 0044 FFF7FEFF 		bl	__stack_chk_fail
 3784              	.L257:
 3785 0048 07B0     		add	sp, sp, #28
 3786              		.cfi_def_cfa_offset 4
 3787              		@ sp needed
 3788 004a 5DF804FB 		ldr	pc, [sp], #4
 3789              	.L260:
 3790 004e 00BF     		.align	2
ARM GAS  C:\Users\PCHAUT~1\AppData\Local\Temp\ccLw8kky.s 			page 73


 3791              	.L259:
 3792 0050 00000000 		.word	__stack_chk_guard
 3793 0054 00000000 		.word	_config_start
 3794 0058 00000000 		.word	parameter_root
 3795 005c EC080000 		.word	.LC88
 3796 0060 04090000 		.word	.LC90
 3797              		.cfi_endproc
 3798              	.LFE287:
 3799              		.size	cmd_config_load, .-cmd_config_load
 3800              		.section	.rodata
 3801 0913 00       		.align	2
 3802              	.LC91:
 3803 0914 55736167 		.ascii	"Usage: cam_brightness value.\015\012Default=0, max="
 3803      653A2063 
 3803      616D5F62 
 3803      72696768 
 3803      746E6573 
 3804 0941 3132372C 		.ascii	"127, min=-128.\015\012\000"
 3804      206D696E 
 3804      3D2D3132 
 3804      382E0D0A 
 3804      00
 3805 0952 0000     		.align	2
 3806              	.LC92:
 3807 0954 43616E6E 		.ascii	"Cannot write register (%d)\015\012\000"
 3807      6F742077 
 3807      72697465 
 3807      20726567 
 3807      69737465 
 3808 0971 000000   		.align	2
 3809              	.LC93:
 3810 0974 52656769 		.ascii	"Register written correctly\015\012\000"
 3810      73746572 
 3810      20777269 
 3810      7474656E 
 3810      20636F72 
 3811              		.section	.text.cmd_cam_set_brightness,"ax",%progbits
 3812              		.align	1
 3813              		.p2align 4,,15
 3814              		.syntax unified
 3815              		.thumb
 3816              		.thumb_func
 3817              		.fpu fpv4-sp-d16
 3818              		.type	cmd_cam_set_brightness, %function
 3819              	cmd_cam_set_brightness:
 3820              	.LFB288:
 3821              		.loc 7 662 0
 3822              		.cfi_startproc
 3823              		@ args = 0, pretend = 0, frame = 24
 3824              		@ frame_needed = 0, uses_anonymous_args = 0
 3825 0000 00B5     		push	{lr}
 3826              		.cfi_def_cfa_offset 4
 3827              		.cfi_offset 14, -4
 3828 0002 87B0     		sub	sp, sp, #28
 3829              		.cfi_def_cfa_offset 32
 3830 0004 0390     		str	r0, [sp, #12]
 3831 0006 0291     		str	r1, [sp, #8]
ARM GAS  C:\Users\PCHAUT~1\AppData\Local\Temp\ccLw8kky.s 			page 74


 3832 0008 0192     		str	r2, [sp, #4]
 3833              		.loc 7 662 0
 3834 000a 1B4B     		ldr	r3, .L267
 3835 000c 1B68     		ldr	r3, [r3]
 3836 000e 0593     		str	r3, [sp, #20]
 3837              		.loc 7 665 0
 3838 0010 029B     		ldr	r3, [sp, #8]
 3839 0012 012B     		cmp	r3, #1
 3840 0014 04D0     		beq	.L262
 3841              		.loc 7 666 0
 3842 0016 1949     		ldr	r1, .L267+4
 3843 0018 0398     		ldr	r0, [sp, #12]
 3844 001a FFF7FEFF 		bl	chprintf
 3845              		.loc 7 677 0
 3846 001e 1FE0     		b	.L266
 3847              	.L262:
 3848              		.loc 7 669 0
 3849 0020 019B     		ldr	r3, [sp, #4]
 3850 0022 1B68     		ldr	r3, [r3]
 3851 0024 1846     		mov	r0, r3
 3852 0026 FFF7FEFF 		bl	atoi
 3853 002a 0346     		mov	r3, r0
 3854 002c 8DF81230 		strb	r3, [sp, #18]
 3855              		.loc 7 670 0
 3856 0030 9DF81230 		ldrb	r3, [sp, #18]	@ zero_extendqisi2
 3857 0034 1846     		mov	r0, r3
 3858 0036 FFF7FEFF 		bl	po8030_set_brightness
 3859 003a 0346     		mov	r3, r0
 3860 003c 8DF81330 		strb	r3, [sp, #19]
 3861              		.loc 7 671 0
 3862 0040 9DF91330 		ldrsb	r3, [sp, #19]
 3863 0044 002B     		cmp	r3, #0
 3864 0046 07D0     		beq	.L264
 3865              		.loc 7 672 0
 3866 0048 9DF91330 		ldrsb	r3, [sp, #19]
 3867 004c 1A46     		mov	r2, r3
 3868 004e 0C49     		ldr	r1, .L267+8
 3869 0050 0398     		ldr	r0, [sp, #12]
 3870 0052 FFF7FEFF 		bl	chprintf
 3871              		.loc 7 677 0
 3872 0056 03E0     		b	.L266
 3873              	.L264:
 3874              		.loc 7 674 0
 3875 0058 0A49     		ldr	r1, .L267+12
 3876 005a 0398     		ldr	r0, [sp, #12]
 3877 005c FFF7FEFF 		bl	chprintf
 3878              	.L266:
 3879              		.loc 7 677 0
 3880 0060 00BF     		nop
 3881 0062 054B     		ldr	r3, .L267
 3882 0064 059A     		ldr	r2, [sp, #20]
 3883 0066 1B68     		ldr	r3, [r3]
 3884 0068 9A42     		cmp	r2, r3
 3885 006a 01D0     		beq	.L265
 3886 006c FFF7FEFF 		bl	__stack_chk_fail
 3887              	.L265:
 3888 0070 07B0     		add	sp, sp, #28
ARM GAS  C:\Users\PCHAUT~1\AppData\Local\Temp\ccLw8kky.s 			page 75


 3889              		.cfi_def_cfa_offset 4
 3890              		@ sp needed
 3891 0072 5DF804FB 		ldr	pc, [sp], #4
 3892              	.L268:
 3893 0076 00BF     		.align	2
 3894              	.L267:
 3895 0078 00000000 		.word	__stack_chk_guard
 3896 007c 14090000 		.word	.LC91
 3897 0080 54090000 		.word	.LC92
 3898 0084 74090000 		.word	.LC93
 3899              		.cfi_endproc
 3900              	.LFE288:
 3901              		.size	cmd_cam_set_brightness, .-cmd_cam_set_brightness
 3902              		.section	.rodata
 3903 0991 000000   		.align	2
 3904              	.LC94:
 3905 0994 55736167 		.ascii	"Usage: cam_contrast value.\015\012Default=64, max=2"
 3905      653A2063 
 3905      616D5F63 
 3905      6F6E7472 
 3905      61737420 
 3906 09c1 35352C20 		.ascii	"55, min=0.\015\012\000"
 3906      6D696E3D 
 3906      302E0D0A 
 3906      00
 3907              		.section	.text.cmd_cam_set_contrast,"ax",%progbits
 3908              		.align	1
 3909              		.p2align 4,,15
 3910              		.syntax unified
 3911              		.thumb
 3912              		.thumb_func
 3913              		.fpu fpv4-sp-d16
 3914              		.type	cmd_cam_set_contrast, %function
 3915              	cmd_cam_set_contrast:
 3916              	.LFB289:
 3917              		.loc 7 680 0
 3918              		.cfi_startproc
 3919              		@ args = 0, pretend = 0, frame = 24
 3920              		@ frame_needed = 0, uses_anonymous_args = 0
 3921 0000 00B5     		push	{lr}
 3922              		.cfi_def_cfa_offset 4
 3923              		.cfi_offset 14, -4
 3924 0002 87B0     		sub	sp, sp, #28
 3925              		.cfi_def_cfa_offset 32
 3926 0004 0390     		str	r0, [sp, #12]
 3927 0006 0291     		str	r1, [sp, #8]
 3928 0008 0192     		str	r2, [sp, #4]
 3929              		.loc 7 680 0
 3930 000a 1B4B     		ldr	r3, .L275
 3931 000c 1B68     		ldr	r3, [r3]
 3932 000e 0593     		str	r3, [sp, #20]
 3933              		.loc 7 683 0
 3934 0010 029B     		ldr	r3, [sp, #8]
 3935 0012 012B     		cmp	r3, #1
 3936 0014 04D0     		beq	.L270
 3937              		.loc 7 684 0
 3938 0016 1949     		ldr	r1, .L275+4
ARM GAS  C:\Users\PCHAUT~1\AppData\Local\Temp\ccLw8kky.s 			page 76


 3939 0018 0398     		ldr	r0, [sp, #12]
 3940 001a FFF7FEFF 		bl	chprintf
 3941              		.loc 7 695 0
 3942 001e 1FE0     		b	.L274
 3943              	.L270:
 3944              		.loc 7 687 0
 3945 0020 019B     		ldr	r3, [sp, #4]
 3946 0022 1B68     		ldr	r3, [r3]
 3947 0024 1846     		mov	r0, r3
 3948 0026 FFF7FEFF 		bl	atoi
 3949 002a 0346     		mov	r3, r0
 3950 002c 8DF81230 		strb	r3, [sp, #18]
 3951              		.loc 7 688 0
 3952 0030 9DF81230 		ldrb	r3, [sp, #18]	@ zero_extendqisi2
 3953 0034 1846     		mov	r0, r3
 3954 0036 FFF7FEFF 		bl	po8030_set_contrast
 3955 003a 0346     		mov	r3, r0
 3956 003c 8DF81330 		strb	r3, [sp, #19]
 3957              		.loc 7 689 0
 3958 0040 9DF91330 		ldrsb	r3, [sp, #19]
 3959 0044 002B     		cmp	r3, #0
 3960 0046 07D0     		beq	.L272
 3961              		.loc 7 690 0
 3962 0048 9DF91330 		ldrsb	r3, [sp, #19]
 3963 004c 1A46     		mov	r2, r3
 3964 004e 0C49     		ldr	r1, .L275+8
 3965 0050 0398     		ldr	r0, [sp, #12]
 3966 0052 FFF7FEFF 		bl	chprintf
 3967              		.loc 7 695 0
 3968 0056 03E0     		b	.L274
 3969              	.L272:
 3970              		.loc 7 692 0
 3971 0058 0A49     		ldr	r1, .L275+12
 3972 005a 0398     		ldr	r0, [sp, #12]
 3973 005c FFF7FEFF 		bl	chprintf
 3974              	.L274:
 3975              		.loc 7 695 0
 3976 0060 00BF     		nop
 3977 0062 054B     		ldr	r3, .L275
 3978 0064 059A     		ldr	r2, [sp, #20]
 3979 0066 1B68     		ldr	r3, [r3]
 3980 0068 9A42     		cmp	r2, r3
 3981 006a 01D0     		beq	.L273
 3982 006c FFF7FEFF 		bl	__stack_chk_fail
 3983              	.L273:
 3984 0070 07B0     		add	sp, sp, #28
 3985              		.cfi_def_cfa_offset 4
 3986              		@ sp needed
 3987 0072 5DF804FB 		ldr	pc, [sp], #4
 3988              	.L276:
 3989 0076 00BF     		.align	2
 3990              	.L275:
 3991 0078 00000000 		.word	__stack_chk_guard
 3992 007c 94090000 		.word	.LC94
 3993 0080 54090000 		.word	.LC92
 3994 0084 74090000 		.word	.LC93
 3995              		.cfi_endproc
ARM GAS  C:\Users\PCHAUT~1\AppData\Local\Temp\ccLw8kky.s 			page 77


 3996              	.LFE289:
 3997              		.size	cmd_cam_set_contrast, .-cmd_cam_set_contrast
 3998              		.section	.rodata
 3999 09ce 0000     		.align	2
 4000              	.LC95:
 4001 09d0 55736167 		.ascii	"Usage: cam_conf1 format subsampling_x subsampling_y"
 4001      653A2063 
 4001      616D5F63 
 4001      6F6E6631 
 4001      20666F72 
 4002 0a03 0D0A666F 		.ascii	"\015\012format: 0=color, 1=grey\015\012subsampling:"
 4002      726D6174 
 4002      3A20303D 
 4002      636F6C6F 
 4002      722C2031 
 4003 0a2a 20312C20 		.ascii	" 1, 2, 4\015\012\000"
 4003      322C2034 
 4003      0D0A00
 4004 0a35 000000   		.align	2
 4005              	.LC96:
 4006 0a38 52656769 		.ascii	"Registered color format\015\012\000"
 4006      73746572 
 4006      65642063 
 4006      6F6C6F72 
 4006      20666F72 
 4007 0a52 0000     		.align	2
 4008              	.LC97:
 4009 0a54 52656769 		.ascii	"Registered greyscale format\015\012\000"
 4009      73746572 
 4009      65642067 
 4009      72657973 
 4009      63616C65 
 4010 0a72 0000     		.align	2
 4011              	.LC98:
 4012 0a74 52656769 		.ascii	"Registered x subsampling x1\015\012\000"
 4012      73746572 
 4012      65642078 
 4012      20737562 
 4012      73616D70 
 4013 0a92 0000     		.align	2
 4014              	.LC99:
 4015 0a94 52656769 		.ascii	"Registered x subsampling x2\015\012\000"
 4015      73746572 
 4015      65642078 
 4015      20737562 
 4015      73616D70 
 4016 0ab2 0000     		.align	2
 4017              	.LC100:
 4018 0ab4 52656769 		.ascii	"Registered x subsampling x4\015\012\000"
 4018      73746572 
 4018      65642078 
 4018      20737562 
 4018      73616D70 
 4019 0ad2 0000     		.align	2
 4020              	.LC101:
 4021 0ad4 52656769 		.ascii	"Registered y subsampling x1\015\012\000"
 4021      73746572 
ARM GAS  C:\Users\PCHAUT~1\AppData\Local\Temp\ccLw8kky.s 			page 78


 4021      65642079 
 4021      20737562 
 4021      73616D70 
 4022 0af2 0000     		.align	2
 4023              	.LC102:
 4024 0af4 52656769 		.ascii	"Registered y subsampling x2\015\012\000"
 4024      73746572 
 4024      65642079 
 4024      20737562 
 4024      73616D70 
 4025 0b12 0000     		.align	2
 4026              	.LC103:
 4027 0b14 52656769 		.ascii	"Registered y subsampling x4\015\012\000"
 4027      73746572 
 4027      65642079 
 4027      20737562 
 4027      73616D70 
 4028              		.section	.text.cmd_cam_set_conf1,"ax",%progbits
 4029              		.align	1
 4030              		.p2align 4,,15
 4031              		.syntax unified
 4032              		.thumb
 4033              		.thumb_func
 4034              		.fpu fpv4-sp-d16
 4035              		.type	cmd_cam_set_conf1, %function
 4036              	cmd_cam_set_conf1:
 4037              	.LFB290:
 4038              		.loc 7 698 0
 4039              		.cfi_startproc
 4040              		@ args = 0, pretend = 0, frame = 24
 4041              		@ frame_needed = 0, uses_anonymous_args = 0
 4042 0000 00B5     		push	{lr}
 4043              		.cfi_def_cfa_offset 4
 4044              		.cfi_offset 14, -4
 4045 0002 87B0     		sub	sp, sp, #28
 4046              		.cfi_def_cfa_offset 32
 4047 0004 0390     		str	r0, [sp, #12]
 4048 0006 0291     		str	r1, [sp, #8]
 4049 0008 0192     		str	r2, [sp, #4]
 4050              		.loc 7 698 0
 4051 000a 414B     		ldr	r3, .L289
 4052 000c 1B68     		ldr	r3, [r3]
 4053 000e 0593     		str	r3, [sp, #20]
 4054              		.loc 7 702 0
 4055 0010 029B     		ldr	r3, [sp, #8]
 4056 0012 032B     		cmp	r3, #3
 4057 0014 04D0     		beq	.L278
 4058              		.loc 7 703 0
 4059 0016 3F49     		ldr	r1, .L289+4
 4060 0018 0398     		ldr	r0, [sp, #12]
 4061 001a FFF7FEFF 		bl	chprintf
 4062              		.loc 7 739 0
 4063 001e 6BE0     		b	.L288
 4064              	.L278:
 4065              		.loc 7 706 0
 4066 0020 019B     		ldr	r3, [sp, #4]
 4067 0022 1B68     		ldr	r3, [r3]
ARM GAS  C:\Users\PCHAUT~1\AppData\Local\Temp\ccLw8kky.s 			page 79


 4068 0024 1846     		mov	r0, r3
 4069 0026 FFF7FEFF 		bl	atoi
 4070 002a 0346     		mov	r3, r0
 4071 002c DBB2     		uxtb	r3, r3
 4072 002e ADF81230 		strh	r3, [sp, #18]	@ movhi
 4073              		.loc 7 707 0
 4074 0032 019B     		ldr	r3, [sp, #4]
 4075 0034 0433     		adds	r3, r3, #4
 4076 0036 1B68     		ldr	r3, [r3]
 4077 0038 1846     		mov	r0, r3
 4078 003a FFF7FEFF 		bl	atoi
 4079 003e 0346     		mov	r3, r0
 4080 0040 8DF81030 		strb	r3, [sp, #16]
 4081              		.loc 7 708 0
 4082 0044 019B     		ldr	r3, [sp, #4]
 4083 0046 0833     		adds	r3, r3, #8
 4084 0048 1B68     		ldr	r3, [r3]
 4085 004a 1846     		mov	r0, r3
 4086 004c FFF7FEFF 		bl	atoi
 4087 0050 0346     		mov	r3, r0
 4088 0052 8DF81130 		strb	r3, [sp, #17]
 4089              		.loc 7 710 0
 4090 0056 BDF81230 		ldrh	r3, [sp, #18]
 4091 005a 002B     		cmp	r3, #0
 4092 005c 07D1     		bne	.L280
 4093              		.loc 7 711 0
 4094 005e 2E4B     		ldr	r3, .L289+8
 4095 0060 0222     		movs	r2, #2
 4096 0062 1A70     		strb	r2, [r3]
 4097              		.loc 7 712 0
 4098 0064 2D49     		ldr	r1, .L289+12
 4099 0066 0398     		ldr	r0, [sp, #12]
 4100 0068 FFF7FEFF 		bl	chprintf
 4101 006c 06E0     		b	.L281
 4102              	.L280:
 4103              		.loc 7 714 0
 4104 006e 2A4B     		ldr	r3, .L289+8
 4105 0070 4422     		movs	r2, #68
 4106 0072 1A70     		strb	r2, [r3]
 4107              		.loc 7 715 0
 4108 0074 2A49     		ldr	r1, .L289+16
 4109 0076 0398     		ldr	r0, [sp, #12]
 4110 0078 FFF7FEFF 		bl	chprintf
 4111              	.L281:
 4112              		.loc 7 718 0
 4113 007c 9DF81030 		ldrb	r3, [sp, #16]	@ zero_extendqisi2
 4114 0080 012B     		cmp	r3, #1
 4115 0082 07D1     		bne	.L282
 4116              		.loc 7 719 0
 4117 0084 274B     		ldr	r3, .L289+20
 4118 0086 2022     		movs	r2, #32
 4119 0088 1A70     		strb	r2, [r3]
 4120              		.loc 7 720 0
 4121 008a 2749     		ldr	r1, .L289+24
 4122 008c 0398     		ldr	r0, [sp, #12]
 4123 008e FFF7FEFF 		bl	chprintf
 4124 0092 12E0     		b	.L283
ARM GAS  C:\Users\PCHAUT~1\AppData\Local\Temp\ccLw8kky.s 			page 80


 4125              	.L282:
 4126              		.loc 7 721 0
 4127 0094 9DF81030 		ldrb	r3, [sp, #16]	@ zero_extendqisi2
 4128 0098 022B     		cmp	r3, #2
 4129 009a 07D1     		bne	.L284
 4130              		.loc 7 722 0
 4131 009c 214B     		ldr	r3, .L289+20
 4132 009e 4022     		movs	r2, #64
 4133 00a0 1A70     		strb	r2, [r3]
 4134              		.loc 7 723 0
 4135 00a2 2249     		ldr	r1, .L289+28
 4136 00a4 0398     		ldr	r0, [sp, #12]
 4137 00a6 FFF7FEFF 		bl	chprintf
 4138 00aa 06E0     		b	.L283
 4139              	.L284:
 4140              		.loc 7 725 0
 4141 00ac 1D4B     		ldr	r3, .L289+20
 4142 00ae 8022     		movs	r2, #128
 4143 00b0 1A70     		strb	r2, [r3]
 4144              		.loc 7 726 0
 4145 00b2 1F49     		ldr	r1, .L289+32
 4146 00b4 0398     		ldr	r0, [sp, #12]
 4147 00b6 FFF7FEFF 		bl	chprintf
 4148              	.L283:
 4149              		.loc 7 728 0
 4150 00ba 9DF81130 		ldrb	r3, [sp, #17]	@ zero_extendqisi2
 4151 00be 012B     		cmp	r3, #1
 4152 00c0 07D1     		bne	.L285
 4153              		.loc 7 729 0
 4154 00c2 1C4B     		ldr	r3, .L289+36
 4155 00c4 2022     		movs	r2, #32
 4156 00c6 1A70     		strb	r2, [r3]
 4157              		.loc 7 730 0
 4158 00c8 1B49     		ldr	r1, .L289+40
 4159 00ca 0398     		ldr	r0, [sp, #12]
 4160 00cc FFF7FEFF 		bl	chprintf
 4161              		.loc 7 739 0
 4162 00d0 12E0     		b	.L288
 4163              	.L285:
 4164              		.loc 7 731 0
 4165 00d2 9DF81130 		ldrb	r3, [sp, #17]	@ zero_extendqisi2
 4166 00d6 022B     		cmp	r3, #2
 4167 00d8 07D1     		bne	.L286
 4168              		.loc 7 732 0
 4169 00da 164B     		ldr	r3, .L289+36
 4170 00dc 4022     		movs	r2, #64
 4171 00de 1A70     		strb	r2, [r3]
 4172              		.loc 7 733 0
 4173 00e0 1649     		ldr	r1, .L289+44
 4174 00e2 0398     		ldr	r0, [sp, #12]
 4175 00e4 FFF7FEFF 		bl	chprintf
 4176              		.loc 7 739 0
 4177 00e8 06E0     		b	.L288
 4178              	.L286:
 4179              		.loc 7 735 0
 4180 00ea 124B     		ldr	r3, .L289+36
 4181 00ec 8022     		movs	r2, #128
ARM GAS  C:\Users\PCHAUT~1\AppData\Local\Temp\ccLw8kky.s 			page 81


 4182 00ee 1A70     		strb	r2, [r3]
 4183              		.loc 7 736 0
 4184 00f0 1349     		ldr	r1, .L289+48
 4185 00f2 0398     		ldr	r0, [sp, #12]
 4186 00f4 FFF7FEFF 		bl	chprintf
 4187              	.L288:
 4188              		.loc 7 739 0
 4189 00f8 00BF     		nop
 4190 00fa 054B     		ldr	r3, .L289
 4191 00fc 059A     		ldr	r2, [sp, #20]
 4192 00fe 1B68     		ldr	r3, [r3]
 4193 0100 9A42     		cmp	r2, r3
 4194 0102 01D0     		beq	.L287
 4195 0104 FFF7FEFF 		bl	__stack_chk_fail
 4196              	.L287:
 4197 0108 07B0     		add	sp, sp, #28
 4198              		.cfi_def_cfa_offset 4
 4199              		@ sp needed
 4200 010a 5DF804FB 		ldr	pc, [sp], #4
 4201              	.L290:
 4202 010e 00BF     		.align	2
 4203              	.L289:
 4204 0110 00000000 		.word	__stack_chk_guard
 4205 0114 D0090000 		.word	.LC95
 4206 0118 00000000 		.word	cmd_fmt
 4207 011c 380A0000 		.word	.LC96
 4208 0120 540A0000 		.word	.LC97
 4209 0124 00000000 		.word	cmd_subx
 4210 0128 740A0000 		.word	.LC98
 4211 012c 940A0000 		.word	.LC99
 4212 0130 B40A0000 		.word	.LC100
 4213 0134 00000000 		.word	cmd_suby
 4214 0138 D40A0000 		.word	.LC101
 4215 013c F40A0000 		.word	.LC102
 4216 0140 140B0000 		.word	.LC103
 4217              		.cfi_endproc
 4218              	.LFE290:
 4219              		.size	cmd_cam_set_conf1, .-cmd_cam_set_conf1
 4220              		.section	.rodata
 4221 0b32 0000     		.align	2
 4222              	.LC104:
 4223 0b34 55736167 		.ascii	"Usage: cam_conf2 x1 y1 width height\015\012\000"
 4223      653A2063 
 4223      616D5F63 
 4223      6F6E6632 
 4223      20783120 
 4224 0b5a 0000     		.align	2
 4225              	.LC105:
 4226 0b5c 43616E6E 		.ascii	"Cannot set configuration (%d)\015\012\000"
 4226      6F742073 
 4226      65742063 
 4226      6F6E6669 
 4226      67757261 
 4227              		.align	2
 4228              	.LC106:
 4229 0b7c 436F6E66 		.ascii	"Configuration set correctly\015\012\000"
 4229      69677572 
ARM GAS  C:\Users\PCHAUT~1\AppData\Local\Temp\ccLw8kky.s 			page 82


 4229      6174696F 
 4229      6E207365 
 4229      7420636F 
 4230              		.section	.text.cmd_cam_set_conf2,"ax",%progbits
 4231              		.align	1
 4232              		.p2align 4,,15
 4233              		.syntax unified
 4234              		.thumb
 4235              		.thumb_func
 4236              		.fpu fpv4-sp-d16
 4237              		.type	cmd_cam_set_conf2, %function
 4238              	cmd_cam_set_conf2:
 4239              	.LFB291:
 4240              		.loc 7 742 0
 4241              		.cfi_startproc
 4242              		@ args = 0, pretend = 0, frame = 24
 4243              		@ frame_needed = 0, uses_anonymous_args = 0
 4244 0000 70B5     		push	{r4, r5, r6, lr}
 4245              		.cfi_def_cfa_offset 16
 4246              		.cfi_offset 4, -16
 4247              		.cfi_offset 5, -12
 4248              		.cfi_offset 6, -8
 4249              		.cfi_offset 14, -4
 4250 0002 8AB0     		sub	sp, sp, #40
 4251              		.cfi_def_cfa_offset 56
 4252 0004 0790     		str	r0, [sp, #28]
 4253 0006 0691     		str	r1, [sp, #24]
 4254 0008 0592     		str	r2, [sp, #20]
 4255              		.loc 7 742 0
 4256 000a 344B     		ldr	r3, .L297
 4257 000c 1B68     		ldr	r3, [r3]
 4258 000e 0993     		str	r3, [sp, #36]
 4259              		.loc 7 745 0
 4260 0010 069B     		ldr	r3, [sp, #24]
 4261 0012 042B     		cmp	r3, #4
 4262 0014 04D0     		beq	.L292
 4263              		.loc 7 746 0
 4264 0016 3249     		ldr	r1, .L297+4
 4265 0018 0798     		ldr	r0, [sp, #28]
 4266 001a FFF7FEFF 		bl	chprintf
 4267              		.loc 7 760 0
 4268 001e 53E0     		b	.L296
 4269              	.L292:
 4270              		.loc 7 748 0
 4271 0020 059B     		ldr	r3, [sp, #20]
 4272 0022 1B68     		ldr	r3, [r3]
 4273 0024 1846     		mov	r0, r3
 4274 0026 FFF7FEFF 		bl	atoi
 4275 002a 0346     		mov	r3, r0
 4276 002c 9AB2     		uxth	r2, r3
 4277 002e 2D4B     		ldr	r3, .L297+8
 4278 0030 1A80     		strh	r2, [r3]	@ movhi
 4279              		.loc 7 749 0
 4280 0032 059B     		ldr	r3, [sp, #20]
 4281 0034 0433     		adds	r3, r3, #4
 4282 0036 1B68     		ldr	r3, [r3]
 4283 0038 1846     		mov	r0, r3
ARM GAS  C:\Users\PCHAUT~1\AppData\Local\Temp\ccLw8kky.s 			page 83


 4284 003a FFF7FEFF 		bl	atoi
 4285 003e 0346     		mov	r3, r0
 4286 0040 9AB2     		uxth	r2, r3
 4287 0042 294B     		ldr	r3, .L297+12
 4288 0044 1A80     		strh	r2, [r3]	@ movhi
 4289              		.loc 7 750 0
 4290 0046 059B     		ldr	r3, [sp, #20]
 4291 0048 0833     		adds	r3, r3, #8
 4292 004a 1B68     		ldr	r3, [r3]
 4293 004c 1846     		mov	r0, r3
 4294 004e FFF7FEFF 		bl	atoi
 4295 0052 0346     		mov	r3, r0
 4296 0054 9AB2     		uxth	r2, r3
 4297 0056 254B     		ldr	r3, .L297+16
 4298 0058 1A80     		strh	r2, [r3]	@ movhi
 4299              		.loc 7 751 0
 4300 005a 059B     		ldr	r3, [sp, #20]
 4301 005c 0C33     		adds	r3, r3, #12
 4302 005e 1B68     		ldr	r3, [r3]
 4303 0060 1846     		mov	r0, r3
 4304 0062 FFF7FEFF 		bl	atoi
 4305 0066 0346     		mov	r3, r0
 4306 0068 9AB2     		uxth	r2, r3
 4307 006a 214B     		ldr	r3, .L297+20
 4308 006c 1A80     		strh	r2, [r3]	@ movhi
 4309              		.loc 7 753 0
 4310 006e 214B     		ldr	r3, .L297+24
 4311 0070 1878     		ldrb	r0, [r3]	@ zero_extendqisi2
 4312 0072 1C4B     		ldr	r3, .L297+8
 4313 0074 1B88     		ldrh	r3, [r3]
 4314 0076 1C46     		mov	r4, r3
 4315 0078 1B4B     		ldr	r3, .L297+12
 4316 007a 1B88     		ldrh	r3, [r3]
 4317 007c 1D46     		mov	r5, r3
 4318 007e 1B4B     		ldr	r3, .L297+16
 4319 0080 1B88     		ldrh	r3, [r3]
 4320 0082 1E46     		mov	r6, r3
 4321 0084 1A4B     		ldr	r3, .L297+20
 4322 0086 1B88     		ldrh	r3, [r3]
 4323 0088 1946     		mov	r1, r3
 4324 008a 1B4B     		ldr	r3, .L297+28
 4325 008c 1B78     		ldrb	r3, [r3]	@ zero_extendqisi2
 4326 008e 1B4A     		ldr	r2, .L297+32
 4327 0090 1278     		ldrb	r2, [r2]	@ zero_extendqisi2
 4328 0092 0292     		str	r2, [sp, #8]
 4329 0094 0193     		str	r3, [sp, #4]
 4330 0096 0091     		str	r1, [sp]
 4331 0098 3346     		mov	r3, r6
 4332 009a 2A46     		mov	r2, r5
 4333 009c 2146     		mov	r1, r4
 4334 009e FFF7FEFF 		bl	po8030_advanced_config
 4335 00a2 0346     		mov	r3, r0
 4336 00a4 8DF82330 		strb	r3, [sp, #35]
 4337              		.loc 7 754 0
 4338 00a8 9DF92330 		ldrsb	r3, [sp, #35]
 4339 00ac 002B     		cmp	r3, #0
 4340 00ae 07D0     		beq	.L294
ARM GAS  C:\Users\PCHAUT~1\AppData\Local\Temp\ccLw8kky.s 			page 84


 4341              		.loc 7 755 0
 4342 00b0 9DF92330 		ldrsb	r3, [sp, #35]
 4343 00b4 1A46     		mov	r2, r3
 4344 00b6 1249     		ldr	r1, .L297+36
 4345 00b8 0798     		ldr	r0, [sp, #28]
 4346 00ba FFF7FEFF 		bl	chprintf
 4347              		.loc 7 760 0
 4348 00be 03E0     		b	.L296
 4349              	.L294:
 4350              		.loc 7 757 0
 4351 00c0 1049     		ldr	r1, .L297+40
 4352 00c2 0798     		ldr	r0, [sp, #28]
 4353 00c4 FFF7FEFF 		bl	chprintf
 4354              	.L296:
 4355              		.loc 7 760 0
 4356 00c8 00BF     		nop
 4357 00ca 044B     		ldr	r3, .L297
 4358 00cc 099A     		ldr	r2, [sp, #36]
 4359 00ce 1B68     		ldr	r3, [r3]
 4360 00d0 9A42     		cmp	r2, r3
 4361 00d2 01D0     		beq	.L295
 4362 00d4 FFF7FEFF 		bl	__stack_chk_fail
 4363              	.L295:
 4364 00d8 0AB0     		add	sp, sp, #40
 4365              		.cfi_def_cfa_offset 16
 4366              		@ sp needed
 4367 00da 70BD     		pop	{r4, r5, r6, pc}
 4368              	.L298:
 4369              		.align	2
 4370              	.L297:
 4371 00dc 00000000 		.word	__stack_chk_guard
 4372 00e0 340B0000 		.word	.LC104
 4373 00e4 00000000 		.word	cmd_x1
 4374 00e8 00000000 		.word	cmd_y1
 4375 00ec 00000000 		.word	cmd_width
 4376 00f0 00000000 		.word	cmd_height
 4377 00f4 00000000 		.word	cmd_fmt
 4378 00f8 00000000 		.word	cmd_subx
 4379 00fc 00000000 		.word	cmd_suby
 4380 0100 5C0B0000 		.word	.LC105
 4381 0104 7C0B0000 		.word	.LC106
 4382              		.cfi_endproc
 4383              	.LFE291:
 4384              		.size	cmd_cam_set_conf2, .-cmd_cam_set_conf2
 4385              		.section	.rodata
 4386 0b9a 0000     		.align	2
 4387              	.LC107:
 4388 0b9c 55736167 		.ascii	"Usage: cam_mirror vertical_en horizontal_en\015\012"
 4388      653A2063 
 4388      616D5F6D 
 4388      6972726F 
 4388      72207665 
 4389 0bc9 313D656E 		.ascii	"1=enabled, 0=disabled\015\012\000"
 4389      61626C65 
 4389      642C2030 
 4389      3D646973 
 4389      61626C65 
ARM GAS  C:\Users\PCHAUT~1\AppData\Local\Temp\ccLw8kky.s 			page 85


 4390 0be1 000000   		.align	2
 4391              	.LC108:
 4392 0be4 43616E6E 		.ascii	"Cannot set mirroring (%d)\015\012\000"
 4392      6F742073 
 4392      6574206D 
 4392      6972726F 
 4392      72696E67 
 4393              		.align	2
 4394              	.LC109:
 4395 0c00 4D697272 		.ascii	"Mirroring set correctly\015\012\000"
 4395      6F72696E 
 4395      67207365 
 4395      7420636F 
 4395      72726563 
 4396              		.section	.text.cmd_cam_set_mirror,"ax",%progbits
 4397              		.align	1
 4398              		.p2align 4,,15
 4399              		.syntax unified
 4400              		.thumb
 4401              		.thumb_func
 4402              		.fpu fpv4-sp-d16
 4403              		.type	cmd_cam_set_mirror, %function
 4404              	cmd_cam_set_mirror:
 4405              	.LFB292:
 4406              		.loc 7 763 0
 4407              		.cfi_startproc
 4408              		@ args = 0, pretend = 0, frame = 24
 4409              		@ frame_needed = 0, uses_anonymous_args = 0
 4410 0000 00B5     		push	{lr}
 4411              		.cfi_def_cfa_offset 4
 4412              		.cfi_offset 14, -4
 4413 0002 87B0     		sub	sp, sp, #28
 4414              		.cfi_def_cfa_offset 32
 4415 0004 0390     		str	r0, [sp, #12]
 4416 0006 0291     		str	r1, [sp, #8]
 4417 0008 0192     		str	r2, [sp, #4]
 4418              		.loc 7 763 0
 4419 000a 214B     		ldr	r3, .L305
 4420 000c 1B68     		ldr	r3, [r3]
 4421 000e 0593     		str	r3, [sp, #20]
 4422              		.loc 7 767 0
 4423 0010 029B     		ldr	r3, [sp, #8]
 4424 0012 022B     		cmp	r3, #2
 4425 0014 04D0     		beq	.L300
 4426              		.loc 7 768 0
 4427 0016 1F49     		ldr	r1, .L305+4
 4428 0018 0398     		ldr	r0, [sp, #12]
 4429 001a FFF7FEFF 		bl	chprintf
 4430              		.loc 7 781 0
 4431 001e 2BE0     		b	.L304
 4432              	.L300:
 4433              		.loc 7 771 0
 4434 0020 019B     		ldr	r3, [sp, #4]
 4435 0022 1B68     		ldr	r3, [r3]
 4436 0024 1846     		mov	r0, r3
 4437 0026 FFF7FEFF 		bl	atoi
 4438 002a 0346     		mov	r3, r0
ARM GAS  C:\Users\PCHAUT~1\AppData\Local\Temp\ccLw8kky.s 			page 86


 4439 002c 8DF81130 		strb	r3, [sp, #17]
 4440              		.loc 7 772 0
 4441 0030 019B     		ldr	r3, [sp, #4]
 4442 0032 0433     		adds	r3, r3, #4
 4443 0034 1B68     		ldr	r3, [r3]
 4444 0036 1846     		mov	r0, r3
 4445 0038 FFF7FEFF 		bl	atoi
 4446 003c 0346     		mov	r3, r0
 4447 003e 8DF81230 		strb	r3, [sp, #18]
 4448              		.loc 7 774 0
 4449 0042 9DF81220 		ldrb	r2, [sp, #18]	@ zero_extendqisi2
 4450 0046 9DF81130 		ldrb	r3, [sp, #17]	@ zero_extendqisi2
 4451 004a 1146     		mov	r1, r2
 4452 004c 1846     		mov	r0, r3
 4453 004e FFF7FEFF 		bl	po8030_set_mirror
 4454 0052 0346     		mov	r3, r0
 4455 0054 8DF81330 		strb	r3, [sp, #19]
 4456              		.loc 7 775 0
 4457 0058 9DF91330 		ldrsb	r3, [sp, #19]
 4458 005c 002B     		cmp	r3, #0
 4459 005e 07D0     		beq	.L302
 4460              		.loc 7 776 0
 4461 0060 9DF91330 		ldrsb	r3, [sp, #19]
 4462 0064 1A46     		mov	r2, r3
 4463 0066 0C49     		ldr	r1, .L305+8
 4464 0068 0398     		ldr	r0, [sp, #12]
 4465 006a FFF7FEFF 		bl	chprintf
 4466              		.loc 7 781 0
 4467 006e 03E0     		b	.L304
 4468              	.L302:
 4469              		.loc 7 778 0
 4470 0070 0A49     		ldr	r1, .L305+12
 4471 0072 0398     		ldr	r0, [sp, #12]
 4472 0074 FFF7FEFF 		bl	chprintf
 4473              	.L304:
 4474              		.loc 7 781 0
 4475 0078 00BF     		nop
 4476 007a 054B     		ldr	r3, .L305
 4477 007c 059A     		ldr	r2, [sp, #20]
 4478 007e 1B68     		ldr	r3, [r3]
 4479 0080 9A42     		cmp	r2, r3
 4480 0082 01D0     		beq	.L303
 4481 0084 FFF7FEFF 		bl	__stack_chk_fail
 4482              	.L303:
 4483 0088 07B0     		add	sp, sp, #28
 4484              		.cfi_def_cfa_offset 4
 4485              		@ sp needed
 4486 008a 5DF804FB 		ldr	pc, [sp], #4
 4487              	.L306:
 4488 008e 00BF     		.align	2
 4489              	.L305:
 4490 0090 00000000 		.word	__stack_chk_guard
 4491 0094 9C0B0000 		.word	.LC107
 4492 0098 E40B0000 		.word	.LC108
 4493 009c 000C0000 		.word	.LC109
 4494              		.cfi_endproc
 4495              	.LFE292:
ARM GAS  C:\Users\PCHAUT~1\AppData\Local\Temp\ccLw8kky.s 			page 87


 4496              		.size	cmd_cam_set_mirror, .-cmd_cam_set_mirror
 4497              		.section	.rodata
 4498 0c1a 0000     		.align	2
 4499              	.LC110:
 4500 0c1c 55736167 		.ascii	"Usage: cam_gain red_gain green_gain blue_gain\015\012"
 4500      653A2063 
 4500      616D5F67 
 4500      61696E20 
 4500      7265645F 
 4501 0c4b 54686973 		.ascii	"This command disable auto white balance.\015\012Def"
 4501      20636F6D 
 4501      6D616E64 
 4501      20646973 
 4501      61626C65 
 4502 0c78 61756C74 		.ascii	"ault: r=94, g=64, b=93\015\012\000"
 4502      3A20723D 
 4502      39342C20 
 4502      673D3634 
 4502      2C20623D 
 4503 0c91 000000   		.align	2
 4504              	.LC111:
 4505 0c94 43616E6E 		.ascii	"Cannot set gain (%d)\015\012\000"
 4505      6F742073 
 4505      65742067 
 4505      61696E20 
 4505      28256429 
 4506 0cab 00       		.align	2
 4507              	.LC112:
 4508 0cac 4761696E 		.ascii	"Gain set correctly\015\012\000"
 4508      20736574 
 4508      20636F72 
 4508      72656374 
 4508      6C790D0A 
 4509              		.section	.text.cmd_cam_set_gain,"ax",%progbits
 4510              		.align	1
 4511              		.p2align 4,,15
 4512              		.syntax unified
 4513              		.thumb
 4514              		.thumb_func
 4515              		.fpu fpv4-sp-d16
 4516              		.type	cmd_cam_set_gain, %function
 4517              	cmd_cam_set_gain:
 4518              	.LFB293:
 4519              		.loc 7 784 0
 4520              		.cfi_startproc
 4521              		@ args = 0, pretend = 0, frame = 24
 4522              		@ frame_needed = 0, uses_anonymous_args = 0
 4523 0000 00B5     		push	{lr}
 4524              		.cfi_def_cfa_offset 4
 4525              		.cfi_offset 14, -4
 4526 0002 87B0     		sub	sp, sp, #28
 4527              		.cfi_def_cfa_offset 32
 4528 0004 0390     		str	r0, [sp, #12]
 4529 0006 0291     		str	r1, [sp, #8]
 4530 0008 0192     		str	r2, [sp, #4]
 4531              		.loc 7 784 0
 4532 000a 264B     		ldr	r3, .L313
ARM GAS  C:\Users\PCHAUT~1\AppData\Local\Temp\ccLw8kky.s 			page 88


 4533 000c 1B68     		ldr	r3, [r3]
 4534 000e 0593     		str	r3, [sp, #20]
 4535              		.loc 7 788 0
 4536 0010 029B     		ldr	r3, [sp, #8]
 4537 0012 032B     		cmp	r3, #3
 4538 0014 04D0     		beq	.L308
 4539              		.loc 7 789 0
 4540 0016 2449     		ldr	r1, .L313+4
 4541 0018 0398     		ldr	r0, [sp, #12]
 4542 001a FFF7FEFF 		bl	chprintf
 4543              		.loc 7 803 0
 4544 001e 35E0     		b	.L312
 4545              	.L308:
 4546              		.loc 7 792 0
 4547 0020 019B     		ldr	r3, [sp, #4]
 4548 0022 1B68     		ldr	r3, [r3]
 4549 0024 1846     		mov	r0, r3
 4550 0026 FFF7FEFF 		bl	atoi
 4551 002a 0346     		mov	r3, r0
 4552 002c 8DF81030 		strb	r3, [sp, #16]
 4553              		.loc 7 793 0
 4554 0030 019B     		ldr	r3, [sp, #4]
 4555 0032 0433     		adds	r3, r3, #4
 4556 0034 1B68     		ldr	r3, [r3]
 4557 0036 1846     		mov	r0, r3
 4558 0038 FFF7FEFF 		bl	atoi
 4559 003c 0346     		mov	r3, r0
 4560 003e 8DF81130 		strb	r3, [sp, #17]
 4561              		.loc 7 794 0
 4562 0042 019B     		ldr	r3, [sp, #4]
 4563 0044 0833     		adds	r3, r3, #8
 4564 0046 1B68     		ldr	r3, [r3]
 4565 0048 1846     		mov	r0, r3
 4566 004a FFF7FEFF 		bl	atoi
 4567 004e 0346     		mov	r3, r0
 4568 0050 8DF81230 		strb	r3, [sp, #18]
 4569              		.loc 7 796 0
 4570 0054 9DF81220 		ldrb	r2, [sp, #18]	@ zero_extendqisi2
 4571 0058 9DF81110 		ldrb	r1, [sp, #17]	@ zero_extendqisi2
 4572 005c 9DF81030 		ldrb	r3, [sp, #16]	@ zero_extendqisi2
 4573 0060 1846     		mov	r0, r3
 4574 0062 FFF7FEFF 		bl	po8030_set_rgb_gain
 4575 0066 0346     		mov	r3, r0
 4576 0068 8DF81330 		strb	r3, [sp, #19]
 4577              		.loc 7 797 0
 4578 006c 9DF91330 		ldrsb	r3, [sp, #19]
 4579 0070 002B     		cmp	r3, #0
 4580 0072 07D0     		beq	.L310
 4581              		.loc 7 798 0
 4582 0074 9DF91330 		ldrsb	r3, [sp, #19]
 4583 0078 1A46     		mov	r2, r3
 4584 007a 0C49     		ldr	r1, .L313+8
 4585 007c 0398     		ldr	r0, [sp, #12]
 4586 007e FFF7FEFF 		bl	chprintf
 4587              		.loc 7 803 0
 4588 0082 03E0     		b	.L312
 4589              	.L310:
ARM GAS  C:\Users\PCHAUT~1\AppData\Local\Temp\ccLw8kky.s 			page 89


 4590              		.loc 7 800 0
 4591 0084 0A49     		ldr	r1, .L313+12
 4592 0086 0398     		ldr	r0, [sp, #12]
 4593 0088 FFF7FEFF 		bl	chprintf
 4594              	.L312:
 4595              		.loc 7 803 0
 4596 008c 00BF     		nop
 4597 008e 054B     		ldr	r3, .L313
 4598 0090 059A     		ldr	r2, [sp, #20]
 4599 0092 1B68     		ldr	r3, [r3]
 4600 0094 9A42     		cmp	r2, r3
 4601 0096 01D0     		beq	.L311
 4602 0098 FFF7FEFF 		bl	__stack_chk_fail
 4603              	.L311:
 4604 009c 07B0     		add	sp, sp, #28
 4605              		.cfi_def_cfa_offset 4
 4606              		@ sp needed
 4607 009e 5DF804FB 		ldr	pc, [sp], #4
 4608              	.L314:
 4609 00a2 00BF     		.align	2
 4610              	.L313:
 4611 00a4 00000000 		.word	__stack_chk_guard
 4612 00a8 1C0C0000 		.word	.LC110
 4613 00ac 940C0000 		.word	.LC111
 4614 00b0 AC0C0000 		.word	.LC112
 4615              		.cfi_endproc
 4616              	.LFE293:
 4617              		.size	cmd_cam_set_gain, .-cmd_cam_set_gain
 4618              		.section	.rodata
 4619 0cc1 000000   		.align	2
 4620              	.LC113:
 4621 0cc4 55736167 		.ascii	"Usage: cam_awb awb_en.\015\0121=enabled, 0=disabled"
 4621      653A2063 
 4621      616D5F61 
 4621      77622061 
 4621      77625F65 
 4622 0cf1 0D0A00   		.ascii	"\015\012\000"
 4623              		.align	2
 4624              	.LC114:
 4625 0cf4 43616E6E 		.ascii	"Cannot set white balance (%d)\015\012\000"
 4625      6F742073 
 4625      65742077 
 4625      68697465 
 4625      2062616C 
 4626              		.align	2
 4627              	.LC115:
 4628 0d14 57686974 		.ascii	"White balance set correctly\015\012\000"
 4628      65206261 
 4628      6C616E63 
 4628      65207365 
 4628      7420636F 
 4629              		.section	.text.cmd_cam_set_awb,"ax",%progbits
 4630              		.align	1
 4631              		.p2align 4,,15
 4632              		.syntax unified
 4633              		.thumb
 4634              		.thumb_func
ARM GAS  C:\Users\PCHAUT~1\AppData\Local\Temp\ccLw8kky.s 			page 90


 4635              		.fpu fpv4-sp-d16
 4636              		.type	cmd_cam_set_awb, %function
 4637              	cmd_cam_set_awb:
 4638              	.LFB294:
 4639              		.loc 7 806 0
 4640              		.cfi_startproc
 4641              		@ args = 0, pretend = 0, frame = 24
 4642              		@ frame_needed = 0, uses_anonymous_args = 0
 4643 0000 00B5     		push	{lr}
 4644              		.cfi_def_cfa_offset 4
 4645              		.cfi_offset 14, -4
 4646 0002 87B0     		sub	sp, sp, #28
 4647              		.cfi_def_cfa_offset 32
 4648 0004 0390     		str	r0, [sp, #12]
 4649 0006 0291     		str	r1, [sp, #8]
 4650 0008 0192     		str	r2, [sp, #4]
 4651              		.loc 7 806 0
 4652 000a 1B4B     		ldr	r3, .L321
 4653 000c 1B68     		ldr	r3, [r3]
 4654 000e 0593     		str	r3, [sp, #20]
 4655              		.loc 7 810 0
 4656 0010 029B     		ldr	r3, [sp, #8]
 4657 0012 012B     		cmp	r3, #1
 4658 0014 04D0     		beq	.L316
 4659              		.loc 7 811 0
 4660 0016 1949     		ldr	r1, .L321+4
 4661 0018 0398     		ldr	r0, [sp, #12]
 4662 001a FFF7FEFF 		bl	chprintf
 4663              		.loc 7 823 0
 4664 001e 1FE0     		b	.L320
 4665              	.L316:
 4666              		.loc 7 814 0
 4667 0020 019B     		ldr	r3, [sp, #4]
 4668 0022 1B68     		ldr	r3, [r3]
 4669 0024 1846     		mov	r0, r3
 4670 0026 FFF7FEFF 		bl	atoi
 4671 002a 0346     		mov	r3, r0
 4672 002c 8DF81230 		strb	r3, [sp, #18]
 4673              		.loc 7 816 0
 4674 0030 9DF81230 		ldrb	r3, [sp, #18]	@ zero_extendqisi2
 4675 0034 1846     		mov	r0, r3
 4676 0036 FFF7FEFF 		bl	po8030_set_awb
 4677 003a 0346     		mov	r3, r0
 4678 003c 8DF81330 		strb	r3, [sp, #19]
 4679              		.loc 7 817 0
 4680 0040 9DF91330 		ldrsb	r3, [sp, #19]
 4681 0044 002B     		cmp	r3, #0
 4682 0046 07D0     		beq	.L318
 4683              		.loc 7 818 0
 4684 0048 9DF91330 		ldrsb	r3, [sp, #19]
 4685 004c 1A46     		mov	r2, r3
 4686 004e 0C49     		ldr	r1, .L321+8
 4687 0050 0398     		ldr	r0, [sp, #12]
 4688 0052 FFF7FEFF 		bl	chprintf
 4689              		.loc 7 823 0
 4690 0056 03E0     		b	.L320
 4691              	.L318:
ARM GAS  C:\Users\PCHAUT~1\AppData\Local\Temp\ccLw8kky.s 			page 91


 4692              		.loc 7 820 0
 4693 0058 0A49     		ldr	r1, .L321+12
 4694 005a 0398     		ldr	r0, [sp, #12]
 4695 005c FFF7FEFF 		bl	chprintf
 4696              	.L320:
 4697              		.loc 7 823 0
 4698 0060 00BF     		nop
 4699 0062 054B     		ldr	r3, .L321
 4700 0064 059A     		ldr	r2, [sp, #20]
 4701 0066 1B68     		ldr	r3, [r3]
 4702 0068 9A42     		cmp	r2, r3
 4703 006a 01D0     		beq	.L319
 4704 006c FFF7FEFF 		bl	__stack_chk_fail
 4705              	.L319:
 4706 0070 07B0     		add	sp, sp, #28
 4707              		.cfi_def_cfa_offset 4
 4708              		@ sp needed
 4709 0072 5DF804FB 		ldr	pc, [sp], #4
 4710              	.L322:
 4711 0076 00BF     		.align	2
 4712              	.L321:
 4713 0078 00000000 		.word	__stack_chk_guard
 4714 007c C40C0000 		.word	.LC113
 4715 0080 F40C0000 		.word	.LC114
 4716 0084 140D0000 		.word	.LC115
 4717              		.cfi_endproc
 4718              	.LFE294:
 4719              		.size	cmd_cam_set_awb, .-cmd_cam_set_awb
 4720              		.section	.rodata
 4721 0d32 0000     		.align	2
 4722              	.LC116:
 4723 0d34 55736167 		.ascii	"Usage: cam_ae ae_en.\015\0121=enabled, 0=disabled\015"
 4723      653A2063 
 4723      616D5F61 
 4723      65206165 
 4723      5F656E2E 
 4724 0d60 0A00     		.ascii	"\012\000"
 4725 0d62 0000     		.align	2
 4726              	.LC117:
 4727 0d64 43616E6E 		.ascii	"Cannot set auto exposure (%d)\015\012\000"
 4727      6F742073 
 4727      65742061 
 4727      75746F20 
 4727      6578706F 
 4728              		.align	2
 4729              	.LC118:
 4730 0d84 4175746F 		.ascii	"Auto exposure set correctly\015\012\000"
 4730      20657870 
 4730      6F737572 
 4730      65207365 
 4730      7420636F 
 4731              		.section	.text.cmd_cam_set_ae,"ax",%progbits
 4732              		.align	1
 4733              		.p2align 4,,15
 4734              		.syntax unified
 4735              		.thumb
 4736              		.thumb_func
ARM GAS  C:\Users\PCHAUT~1\AppData\Local\Temp\ccLw8kky.s 			page 92


 4737              		.fpu fpv4-sp-d16
 4738              		.type	cmd_cam_set_ae, %function
 4739              	cmd_cam_set_ae:
 4740              	.LFB295:
 4741              		.loc 7 826 0
 4742              		.cfi_startproc
 4743              		@ args = 0, pretend = 0, frame = 24
 4744              		@ frame_needed = 0, uses_anonymous_args = 0
 4745 0000 00B5     		push	{lr}
 4746              		.cfi_def_cfa_offset 4
 4747              		.cfi_offset 14, -4
 4748 0002 87B0     		sub	sp, sp, #28
 4749              		.cfi_def_cfa_offset 32
 4750 0004 0390     		str	r0, [sp, #12]
 4751 0006 0291     		str	r1, [sp, #8]
 4752 0008 0192     		str	r2, [sp, #4]
 4753              		.loc 7 826 0
 4754 000a 1B4B     		ldr	r3, .L329
 4755 000c 1B68     		ldr	r3, [r3]
 4756 000e 0593     		str	r3, [sp, #20]
 4757              		.loc 7 830 0
 4758 0010 029B     		ldr	r3, [sp, #8]
 4759 0012 012B     		cmp	r3, #1
 4760 0014 04D0     		beq	.L324
 4761              		.loc 7 831 0
 4762 0016 1949     		ldr	r1, .L329+4
 4763 0018 0398     		ldr	r0, [sp, #12]
 4764 001a FFF7FEFF 		bl	chprintf
 4765              		.loc 7 843 0
 4766 001e 1FE0     		b	.L328
 4767              	.L324:
 4768              		.loc 7 834 0
 4769 0020 019B     		ldr	r3, [sp, #4]
 4770 0022 1B68     		ldr	r3, [r3]
 4771 0024 1846     		mov	r0, r3
 4772 0026 FFF7FEFF 		bl	atoi
 4773 002a 0346     		mov	r3, r0
 4774 002c 8DF81230 		strb	r3, [sp, #18]
 4775              		.loc 7 836 0
 4776 0030 9DF81230 		ldrb	r3, [sp, #18]	@ zero_extendqisi2
 4777 0034 1846     		mov	r0, r3
 4778 0036 FFF7FEFF 		bl	po8030_set_ae
 4779 003a 0346     		mov	r3, r0
 4780 003c 8DF81330 		strb	r3, [sp, #19]
 4781              		.loc 7 837 0
 4782 0040 9DF91330 		ldrsb	r3, [sp, #19]
 4783 0044 002B     		cmp	r3, #0
 4784 0046 07D0     		beq	.L326
 4785              		.loc 7 838 0
 4786 0048 9DF91330 		ldrsb	r3, [sp, #19]
 4787 004c 1A46     		mov	r2, r3
 4788 004e 0C49     		ldr	r1, .L329+8
 4789 0050 0398     		ldr	r0, [sp, #12]
 4790 0052 FFF7FEFF 		bl	chprintf
 4791              		.loc 7 843 0
 4792 0056 03E0     		b	.L328
 4793              	.L326:
ARM GAS  C:\Users\PCHAUT~1\AppData\Local\Temp\ccLw8kky.s 			page 93


 4794              		.loc 7 840 0
 4795 0058 0A49     		ldr	r1, .L329+12
 4796 005a 0398     		ldr	r0, [sp, #12]
 4797 005c FFF7FEFF 		bl	chprintf
 4798              	.L328:
 4799              		.loc 7 843 0
 4800 0060 00BF     		nop
 4801 0062 054B     		ldr	r3, .L329
 4802 0064 059A     		ldr	r2, [sp, #20]
 4803 0066 1B68     		ldr	r3, [r3]
 4804 0068 9A42     		cmp	r2, r3
 4805 006a 01D0     		beq	.L327
 4806 006c FFF7FEFF 		bl	__stack_chk_fail
 4807              	.L327:
 4808 0070 07B0     		add	sp, sp, #28
 4809              		.cfi_def_cfa_offset 4
 4810              		@ sp needed
 4811 0072 5DF804FB 		ldr	pc, [sp], #4
 4812              	.L330:
 4813 0076 00BF     		.align	2
 4814              	.L329:
 4815 0078 00000000 		.word	__stack_chk_guard
 4816 007c 340D0000 		.word	.LC116
 4817 0080 640D0000 		.word	.LC117
 4818 0084 840D0000 		.word	.LC118
 4819              		.cfi_endproc
 4820              	.LFE295:
 4821              		.size	cmd_cam_set_ae, .-cmd_cam_set_ae
 4822              		.section	.rodata
 4823 0da2 0000     		.align	2
 4824              	.LC119:
 4825 0da4 55736167 		.ascii	"Usage: cam_exposure integral fractional\015\012Unit"
 4825      653A2063 
 4825      616D5F65 
 4825      78706F73 
 4825      75726520 
 4826 0dd1 20697320 		.ascii	" is line time; total integration time = (integral +"
 4826      6C696E65 
 4826      2074696D 
 4826      653B2074 
 4826      6F74616C 
 4827 0e04 20667261 		.ascii	" fractional/256) line time.\015\012Default: integra"
 4827      6374696F 
 4827      6E616C2F 
 4827      32353629 
 4827      206C696E 
 4828 0e31 6C3D3132 		.ascii	"l=128, fractional=0\015\012\000"
 4828      382C2066 
 4828      72616374 
 4828      696F6E61 
 4828      6C3D300D 
 4829 0e47 00       		.align	2
 4830              	.LC120:
 4831 0e48 43616E6E 		.ascii	"Cannot set exposure time (%d)\015\012\000"
 4831      6F742073 
 4831      65742065 
 4831      78706F73 
ARM GAS  C:\Users\PCHAUT~1\AppData\Local\Temp\ccLw8kky.s 			page 94


 4831      75726520 
 4832              		.align	2
 4833              	.LC121:
 4834 0e68 4578706F 		.ascii	"Exposure time set correctly\015\012\000"
 4834      73757265 
 4834      2074696D 
 4834      65207365 
 4834      7420636F 
 4835              		.section	.text.cmd_cam_set_exposure,"ax",%progbits
 4836              		.align	1
 4837              		.p2align 4,,15
 4838              		.syntax unified
 4839              		.thumb
 4840              		.thumb_func
 4841              		.fpu fpv4-sp-d16
 4842              		.type	cmd_cam_set_exposure, %function
 4843              	cmd_cam_set_exposure:
 4844              	.LFB296:
 4845              		.loc 7 846 0
 4846              		.cfi_startproc
 4847              		@ args = 0, pretend = 0, frame = 24
 4848              		@ frame_needed = 0, uses_anonymous_args = 0
 4849 0000 00B5     		push	{lr}
 4850              		.cfi_def_cfa_offset 4
 4851              		.cfi_offset 14, -4
 4852 0002 87B0     		sub	sp, sp, #28
 4853              		.cfi_def_cfa_offset 32
 4854 0004 0390     		str	r0, [sp, #12]
 4855 0006 0291     		str	r1, [sp, #8]
 4856 0008 0192     		str	r2, [sp, #4]
 4857              		.loc 7 846 0
 4858 000a 214B     		ldr	r3, .L337
 4859 000c 1B68     		ldr	r3, [r3]
 4860 000e 0593     		str	r3, [sp, #20]
 4861              		.loc 7 851 0
 4862 0010 029B     		ldr	r3, [sp, #8]
 4863 0012 022B     		cmp	r3, #2
 4864 0014 04D0     		beq	.L332
 4865              		.loc 7 852 0
 4866 0016 1F49     		ldr	r1, .L337+4
 4867 0018 0398     		ldr	r0, [sp, #12]
 4868 001a FFF7FEFF 		bl	chprintf
 4869              		.loc 7 865 0
 4870 001e 2BE0     		b	.L336
 4871              	.L332:
 4872              		.loc 7 855 0
 4873 0020 019B     		ldr	r3, [sp, #4]
 4874 0022 1B68     		ldr	r3, [r3]
 4875 0024 1846     		mov	r0, r3
 4876 0026 FFF7FEFF 		bl	atoi
 4877 002a 0346     		mov	r3, r0
 4878 002c ADF81230 		strh	r3, [sp, #18]	@ movhi
 4879              		.loc 7 856 0
 4880 0030 019B     		ldr	r3, [sp, #4]
 4881 0032 0433     		adds	r3, r3, #4
 4882 0034 1B68     		ldr	r3, [r3]
 4883 0036 1846     		mov	r0, r3
ARM GAS  C:\Users\PCHAUT~1\AppData\Local\Temp\ccLw8kky.s 			page 95


 4884 0038 FFF7FEFF 		bl	atoi
 4885 003c 0346     		mov	r3, r0
 4886 003e 8DF81030 		strb	r3, [sp, #16]
 4887              		.loc 7 858 0
 4888 0042 9DF81020 		ldrb	r2, [sp, #16]	@ zero_extendqisi2
 4889 0046 BDF81230 		ldrh	r3, [sp, #18]
 4890 004a 1146     		mov	r1, r2
 4891 004c 1846     		mov	r0, r3
 4892 004e FFF7FEFF 		bl	po8030_set_exposure
 4893 0052 0346     		mov	r3, r0
 4894 0054 8DF81130 		strb	r3, [sp, #17]
 4895              		.loc 7 859 0
 4896 0058 9DF91130 		ldrsb	r3, [sp, #17]
 4897 005c 002B     		cmp	r3, #0
 4898 005e 07D0     		beq	.L334
 4899              		.loc 7 860 0
 4900 0060 9DF91130 		ldrsb	r3, [sp, #17]
 4901 0064 1A46     		mov	r2, r3
 4902 0066 0C49     		ldr	r1, .L337+8
 4903 0068 0398     		ldr	r0, [sp, #12]
 4904 006a FFF7FEFF 		bl	chprintf
 4905              		.loc 7 865 0
 4906 006e 03E0     		b	.L336
 4907              	.L334:
 4908              		.loc 7 862 0
 4909 0070 0A49     		ldr	r1, .L337+12
 4910 0072 0398     		ldr	r0, [sp, #12]
 4911 0074 FFF7FEFF 		bl	chprintf
 4912              	.L336:
 4913              		.loc 7 865 0
 4914 0078 00BF     		nop
 4915 007a 054B     		ldr	r3, .L337
 4916 007c 059A     		ldr	r2, [sp, #20]
 4917 007e 1B68     		ldr	r3, [r3]
 4918 0080 9A42     		cmp	r2, r3
 4919 0082 01D0     		beq	.L335
 4920 0084 FFF7FEFF 		bl	__stack_chk_fail
 4921              	.L335:
 4922 0088 07B0     		add	sp, sp, #28
 4923              		.cfi_def_cfa_offset 4
 4924              		@ sp needed
 4925 008a 5DF804FB 		ldr	pc, [sp], #4
 4926              	.L338:
 4927 008e 00BF     		.align	2
 4928              	.L337:
 4929 0090 00000000 		.word	__stack_chk_guard
 4930 0094 A40D0000 		.word	.LC119
 4931 0098 480E0000 		.word	.LC120
 4932 009c 680E0000 		.word	.LC121
 4933              		.cfi_endproc
 4934              	.LFE296:
 4935              		.size	cmd_cam_set_exposure, .-cmd_cam_set_exposure
 4936              		.section	.rodata
 4937 0e86 0000     		.align	2
 4938              	.LC122:
 4939 0e88 55736167 		.ascii	"Usage: cam_dcmi_prepare capture_mode\015\012capture"
 4939      653A2063 
ARM GAS  C:\Users\PCHAUT~1\AppData\Local\Temp\ccLw8kky.s 			page 96


 4939      616D5F64 
 4939      636D695F 
 4939      70726570 
 4940 0eb5 5F6D6F64 		.ascii	"_mode: 0=oneshot, 1=continuous\015\012\000"
 4940      653A2030 
 4940      3D6F6E65 
 4940      73686F74 
 4940      2C20313D 
 4941 0ed6 0000     		.align	2
 4942              	.LC123:
 4943 0ed8 44434D49 		.ascii	"DCMI prepared.\015\012\000"
 4943      20707265 
 4943      70617265 
 4943      642E0D0A 
 4943      00
 4944 0ee9 000000   		.align	2
 4945              	.LC124:
 4946 0eec 43616E6E 		.ascii	"Cannot prepare dcmi, image size too big.\015\012\000"
 4946      6F742070 
 4946      72657061 
 4946      72652064 
 4946      636D692C 
 4947              		.section	.text.cmd_cam_dcmi_prepare,"ax",%progbits
 4948              		.align	1
 4949              		.p2align 4,,15
 4950              		.syntax unified
 4951              		.thumb
 4952              		.thumb_func
 4953              		.fpu fpv4-sp-d16
 4954              		.type	cmd_cam_dcmi_prepare, %function
 4955              	cmd_cam_dcmi_prepare:
 4956              	.LFB297:
 4957              		.loc 7 868 0
 4958              		.cfi_startproc
 4959              		@ args = 0, pretend = 0, frame = 24
 4960              		@ frame_needed = 0, uses_anonymous_args = 0
 4961 0000 00B5     		push	{lr}
 4962              		.cfi_def_cfa_offset 4
 4963              		.cfi_offset 14, -4
 4964 0002 87B0     		sub	sp, sp, #28
 4965              		.cfi_def_cfa_offset 32
 4966 0004 0390     		str	r0, [sp, #12]
 4967 0006 0291     		str	r1, [sp, #8]
 4968 0008 0192     		str	r2, [sp, #4]
 4969              		.loc 7 868 0
 4970 000a 1E4B     		ldr	r3, .L346
 4971 000c 1B68     		ldr	r3, [r3]
 4972 000e 0593     		str	r3, [sp, #20]
 4973              		.loc 7 869 0
 4974 0010 0023     		movs	r3, #0
 4975 0012 8DF81330 		strb	r3, [sp, #19]
 4976              		.loc 7 871 0
 4977 0016 029B     		ldr	r3, [sp, #8]
 4978 0018 012B     		cmp	r3, #1
 4979 001a 04D0     		beq	.L340
 4980              		.loc 7 872 0
 4981 001c 1A49     		ldr	r1, .L346+4
ARM GAS  C:\Users\PCHAUT~1\AppData\Local\Temp\ccLw8kky.s 			page 97


 4982 001e 0398     		ldr	r0, [sp, #12]
 4983 0020 FFF7FEFF 		bl	chprintf
 4984 0024 24E0     		b	.L339
 4985              	.L340:
 4986              		.loc 7 874 0
 4987 0026 019B     		ldr	r3, [sp, #4]
 4988 0028 1B68     		ldr	r3, [r3]
 4989 002a 1846     		mov	r0, r3
 4990 002c FFF7FEFF 		bl	atoi
 4991 0030 0346     		mov	r3, r0
 4992 0032 8DF81330 		strb	r3, [sp, #19]
 4993              		.loc 7 876 0
 4994 0036 9DF81330 		ldrb	r3, [sp, #19]	@ zero_extendqisi2
 4995 003a 1846     		mov	r0, r3
 4996 003c FFF7FEFF 		bl	dcmi_set_capture_mode
 4997              		.loc 7 878 0
 4998 0040 9DF81330 		ldrb	r3, [sp, #19]	@ zero_extendqisi2
 4999 0044 002B     		cmp	r3, #0
 5000 0046 02D1     		bne	.L342
 5001              		.loc 7 879 0
 5002 0048 FFF7FEFF 		bl	dcmi_disable_double_buffering
 5003 004c 01E0     		b	.L343
 5004              	.L342:
 5005              		.loc 7 881 0
 5006 004e FFF7FEFF 		bl	dcmi_enable_double_buffering
 5007              	.L343:
 5008              		.loc 7 884 0
 5009 0052 FFF7FEFF 		bl	dcmi_prepare
 5010 0056 0346     		mov	r3, r0
 5011 0058 002B     		cmp	r3, #0
 5012 005a 04D1     		bne	.L344
 5013              		.loc 7 885 0
 5014 005c 0B49     		ldr	r1, .L346+8
 5015 005e 0398     		ldr	r0, [sp, #12]
 5016 0060 FFF7FEFF 		bl	chprintf
 5017 0064 04E0     		b	.L339
 5018              	.L344:
 5019              		.loc 7 887 0
 5020 0066 0A49     		ldr	r1, .L346+12
 5021 0068 0398     		ldr	r0, [sp, #12]
 5022 006a FFF7FEFF 		bl	chprintf
 5023              		.loc 7 888 0
 5024 006e 00BF     		nop
 5025              	.L339:
 5026              		.loc 7 892 0
 5027 0070 044B     		ldr	r3, .L346
 5028 0072 059A     		ldr	r2, [sp, #20]
 5029 0074 1B68     		ldr	r3, [r3]
 5030 0076 9A42     		cmp	r2, r3
 5031 0078 01D0     		beq	.L345
 5032 007a FFF7FEFF 		bl	__stack_chk_fail
 5033              	.L345:
 5034 007e 07B0     		add	sp, sp, #28
 5035              		.cfi_def_cfa_offset 4
 5036              		@ sp needed
 5037 0080 5DF804FB 		ldr	pc, [sp], #4
 5038              	.L347:
ARM GAS  C:\Users\PCHAUT~1\AppData\Local\Temp\ccLw8kky.s 			page 98


 5039              		.align	2
 5040              	.L346:
 5041 0084 00000000 		.word	__stack_chk_guard
 5042 0088 880E0000 		.word	.LC122
 5043 008c D80E0000 		.word	.LC123
 5044 0090 EC0E0000 		.word	.LC124
 5045              		.cfi_endproc
 5046              	.LFE297:
 5047              		.size	cmd_cam_dcmi_prepare, .-cmd_cam_dcmi_prepare
 5048              		.section	.rodata
 5049 0f17 00       		.align	2
 5050              	.LC125:
 5051 0f18 44434D49 		.ascii	"DCMI released correctly\015\012\000"
 5051      2072656C 
 5051      65617365 
 5051      6420636F 
 5051      72726563 
 5052              		.section	.text.cmd_cam_dcmi_unprepare,"ax",%progbits
 5053              		.align	1
 5054              		.p2align 4,,15
 5055              		.syntax unified
 5056              		.thumb
 5057              		.thumb_func
 5058              		.fpu fpv4-sp-d16
 5059              		.type	cmd_cam_dcmi_unprepare, %function
 5060              	cmd_cam_dcmi_unprepare:
 5061              	.LFB298:
 5062              		.loc 7 895 0
 5063              		.cfi_startproc
 5064              		@ args = 0, pretend = 0, frame = 24
 5065              		@ frame_needed = 0, uses_anonymous_args = 0
 5066 0000 00B5     		push	{lr}
 5067              		.cfi_def_cfa_offset 4
 5068              		.cfi_offset 14, -4
 5069 0002 87B0     		sub	sp, sp, #28
 5070              		.cfi_def_cfa_offset 32
 5071 0004 0390     		str	r0, [sp, #12]
 5072 0006 0291     		str	r1, [sp, #8]
 5073 0008 0192     		str	r2, [sp, #4]
 5074              		.loc 7 895 0
 5075 000a 0A4B     		ldr	r3, .L350
 5076 000c 1B68     		ldr	r3, [r3]
 5077 000e 0593     		str	r3, [sp, #20]
 5078              		.loc 7 899 0
 5079 0010 FFF7FEFF 		bl	dcmi_unprepare
 5080              		.loc 7 901 0
 5081 0014 0849     		ldr	r1, .L350+4
 5082 0016 0398     		ldr	r0, [sp, #12]
 5083 0018 FFF7FEFF 		bl	chprintf
 5084              		.loc 7 903 0
 5085 001c 00BF     		nop
 5086 001e 054B     		ldr	r3, .L350
 5087 0020 059A     		ldr	r2, [sp, #20]
 5088 0022 1B68     		ldr	r3, [r3]
 5089 0024 9A42     		cmp	r2, r3
 5090 0026 01D0     		beq	.L349
 5091 0028 FFF7FEFF 		bl	__stack_chk_fail
ARM GAS  C:\Users\PCHAUT~1\AppData\Local\Temp\ccLw8kky.s 			page 99


 5092              	.L349:
 5093 002c 07B0     		add	sp, sp, #28
 5094              		.cfi_def_cfa_offset 4
 5095              		@ sp needed
 5096 002e 5DF804FB 		ldr	pc, [sp], #4
 5097              	.L351:
 5098 0032 00BF     		.align	2
 5099              	.L350:
 5100 0034 00000000 		.word	__stack_chk_guard
 5101 0038 180F0000 		.word	.LC125
 5102              		.cfi_endproc
 5103              	.LFE298:
 5104              		.size	cmd_cam_dcmi_unprepare, .-cmd_cam_dcmi_unprepare
 5105              		.section	.text.cmd_cam_capture,"ax",%progbits
 5106              		.align	1
 5107              		.p2align 4,,15
 5108              		.syntax unified
 5109              		.thumb
 5110              		.thumb_func
 5111              		.fpu fpv4-sp-d16
 5112              		.type	cmd_cam_capture, %function
 5113              	cmd_cam_capture:
 5114              	.LFB299:
 5115              		.loc 7 906 0
 5116              		.cfi_startproc
 5117              		@ args = 0, pretend = 0, frame = 24
 5118              		@ frame_needed = 0, uses_anonymous_args = 0
 5119 0000 00B5     		push	{lr}
 5120              		.cfi_def_cfa_offset 4
 5121              		.cfi_offset 14, -4
 5122 0002 87B0     		sub	sp, sp, #28
 5123              		.cfi_def_cfa_offset 32
 5124 0004 0390     		str	r0, [sp, #12]
 5125 0006 0291     		str	r1, [sp, #8]
 5126 0008 0192     		str	r2, [sp, #4]
 5127              		.loc 7 906 0
 5128 000a 084B     		ldr	r3, .L354
 5129 000c 1B68     		ldr	r3, [r3]
 5130 000e 0593     		str	r3, [sp, #20]
 5131              		.loc 7 910 0
 5132 0010 FFF7FEFF 		bl	dcmi_capture_start
 5133              		.loc 7 911 0
 5134 0014 00BF     		nop
 5135 0016 054B     		ldr	r3, .L354
 5136 0018 059A     		ldr	r2, [sp, #20]
 5137 001a 1B68     		ldr	r3, [r3]
 5138 001c 9A42     		cmp	r2, r3
 5139 001e 01D0     		beq	.L353
 5140 0020 FFF7FEFF 		bl	__stack_chk_fail
 5141              	.L353:
 5142 0024 07B0     		add	sp, sp, #28
 5143              		.cfi_def_cfa_offset 4
 5144              		@ sp needed
 5145 0026 5DF804FB 		ldr	pc, [sp], #4
 5146              	.L355:
 5147 002a 00BF     		.align	2
 5148              	.L354:
ARM GAS  C:\Users\PCHAUT~1\AppData\Local\Temp\ccLw8kky.s 			page 100


 5149 002c 00000000 		.word	__stack_chk_guard
 5150              		.cfi_endproc
 5151              	.LFE299:
 5152              		.size	cmd_cam_capture, .-cmd_cam_capture
 5153              		.section	.rodata
 5154 0f32 0000     		.align	2
 5155              	.LC126:
 5156 0f34 44434D49 		.ascii	"DCMI stop stream error\015\012\000"
 5156      2073746F 
 5156      70207374 
 5156      7265616D 
 5156      20657272 
 5157 0f4d 000000   		.align	2
 5158              	.LC127:
 5159 0f50 54686520 		.ascii	"The 2 images will be sent within 5 seconds\015\012\000"
 5159      3220696D 
 5159      61676573 
 5159      2077696C 
 5159      6C206265 
 5160 0f7d 000000   		.align	2
 5161              	.LC128:
 5162 0f80 54686520 		.ascii	"The image will be sent within 5 seconds\015\012\000"
 5162      696D6167 
 5162      65207769 
 5162      6C6C2062 
 5162      65207365 
 5163              		.section	.text.cmd_cam_send,"ax",%progbits
 5164              		.align	1
 5165              		.p2align 4,,15
 5166              		.syntax unified
 5167              		.thumb
 5168              		.thumb_func
 5169              		.fpu fpv4-sp-d16
 5170              		.type	cmd_cam_send, %function
 5171              	cmd_cam_send:
 5172              	.LFB300:
 5173              		.loc 7 914 0
 5174              		.cfi_startproc
 5175              		@ args = 0, pretend = 0, frame = 24
 5176              		@ frame_needed = 0, uses_anonymous_args = 0
 5177 0000 10B5     		push	{r4, lr}
 5178              		.cfi_def_cfa_offset 8
 5179              		.cfi_offset 4, -8
 5180              		.cfi_offset 14, -4
 5181 0002 86B0     		sub	sp, sp, #24
 5182              		.cfi_def_cfa_offset 32
 5183 0004 0390     		str	r0, [sp, #12]
 5184 0006 0291     		str	r1, [sp, #8]
 5185 0008 0192     		str	r2, [sp, #4]
 5186              		.loc 7 914 0
 5187 000a 2C4B     		ldr	r3, .L362
 5188 000c 1B68     		ldr	r3, [r3]
 5189 000e 0593     		str	r3, [sp, #20]
 5190              		.loc 7 919 0
 5191 0010 FFF7FEFF 		bl	dcmi_capture_stop
 5192 0014 0346     		mov	r3, r0
 5193 0016 002B     		cmp	r3, #0
ARM GAS  C:\Users\PCHAUT~1\AppData\Local\Temp\ccLw8kky.s 			page 101


 5194 0018 04D0     		beq	.L357
 5195              		.loc 7 920 0
 5196 001a 2949     		ldr	r1, .L362+4
 5197 001c 0398     		ldr	r0, [sp, #12]
 5198 001e FFF7FEFF 		bl	chprintf
 5199              		.loc 7 937 0
 5200 0022 40E0     		b	.L361
 5201              	.L357:
 5202              		.loc 7 922 0
 5203 0024 FFF7FEFF 		bl	dcmi_double_buffering_enabled
 5204 0028 0346     		mov	r3, r0
 5205 002a 002B     		cmp	r3, #0
 5206 002c 26D0     		beq	.L359
 5207              		.loc 7 923 0
 5208 002e 2549     		ldr	r1, .L362+8
 5209 0030 0398     		ldr	r0, [sp, #12]
 5210 0032 FFF7FEFF 		bl	chprintf
 5211              		.loc 7 924 0
 5212 0036 41F28830 		movw	r0, #5000
 5213 003a FFF7FEFF 		bl	chThdSleep
 5214              		.loc 7 925 0
 5215 003e FFF7FEFF 		bl	dcmi_get_first_buffer_ptr
 5216 0042 0490     		str	r0, [sp, #16]
 5217              		.loc 7 926 0
 5218 0044 204B     		ldr	r3, .L362+12
 5219 0046 1B68     		ldr	r3, [r3]
 5220 0048 1C68     		ldr	r4, [r3]
 5221 004a FFF7FEFF 		bl	po8030_get_image_size
 5222 004e 0346     		mov	r3, r0
 5223 0050 1A46     		mov	r2, r3
 5224 0052 0499     		ldr	r1, [sp, #16]
 5225 0054 1C48     		ldr	r0, .L362+12
 5226 0056 A047     		blx	r4
 5227              	.LVL1:
 5228              		.loc 7 927 0
 5229 0058 40F6B830 		movw	r0, #3000
 5230 005c FFF7FEFF 		bl	chThdSleep
 5231              		.loc 7 928 0
 5232 0060 FFF7FEFF 		bl	dcmi_get_second_buffer_ptr
 5233 0064 0490     		str	r0, [sp, #16]
 5234              		.loc 7 929 0
 5235 0066 184B     		ldr	r3, .L362+12
 5236 0068 1B68     		ldr	r3, [r3]
 5237 006a 1C68     		ldr	r4, [r3]
 5238 006c FFF7FEFF 		bl	po8030_get_image_size
 5239 0070 0346     		mov	r3, r0
 5240 0072 1A46     		mov	r2, r3
 5241 0074 0499     		ldr	r1, [sp, #16]
 5242 0076 1448     		ldr	r0, .L362+12
 5243 0078 A047     		blx	r4
 5244              	.LVL2:
 5245              		.loc 7 937 0
 5246 007a 14E0     		b	.L361
 5247              	.L359:
 5248              		.loc 7 931 0
 5249 007c 1349     		ldr	r1, .L362+16
 5250 007e 0398     		ldr	r0, [sp, #12]
ARM GAS  C:\Users\PCHAUT~1\AppData\Local\Temp\ccLw8kky.s 			page 102


 5251 0080 FFF7FEFF 		bl	chprintf
 5252              		.loc 7 932 0
 5253 0084 41F28830 		movw	r0, #5000
 5254 0088 FFF7FEFF 		bl	chThdSleep
 5255              		.loc 7 933 0
 5256 008c FFF7FEFF 		bl	dcmi_get_first_buffer_ptr
 5257 0090 0490     		str	r0, [sp, #16]
 5258              		.loc 7 934 0
 5259 0092 0D4B     		ldr	r3, .L362+12
 5260 0094 1B68     		ldr	r3, [r3]
 5261 0096 1C68     		ldr	r4, [r3]
 5262 0098 FFF7FEFF 		bl	po8030_get_image_size
 5263 009c 0346     		mov	r3, r0
 5264 009e 1A46     		mov	r2, r3
 5265 00a0 0499     		ldr	r1, [sp, #16]
 5266 00a2 0948     		ldr	r0, .L362+12
 5267 00a4 A047     		blx	r4
 5268              	.LVL3:
 5269              	.L361:
 5270              		.loc 7 937 0
 5271 00a6 00BF     		nop
 5272 00a8 044B     		ldr	r3, .L362
 5273 00aa 059A     		ldr	r2, [sp, #20]
 5274 00ac 1B68     		ldr	r3, [r3]
 5275 00ae 9A42     		cmp	r2, r3
 5276 00b0 01D0     		beq	.L360
 5277 00b2 FFF7FEFF 		bl	__stack_chk_fail
 5278              	.L360:
 5279 00b6 06B0     		add	sp, sp, #24
 5280              		.cfi_def_cfa_offset 8
 5281              		@ sp needed
 5282 00b8 10BD     		pop	{r4, pc}
 5283              	.L363:
 5284 00ba 00BF     		.align	2
 5285              	.L362:
 5286 00bc 00000000 		.word	__stack_chk_guard
 5287 00c0 340F0000 		.word	.LC126
 5288 00c4 500F0000 		.word	.LC127
 5289 00c8 00000000 		.word	SDU1
 5290 00cc 800F0000 		.word	.LC128
 5291              		.cfi_endproc
 5292              	.LFE300:
 5293              		.size	cmd_cam_send, .-cmd_cam_send
 5294              		.section	.rodata
 5295 0faa 0000     		.align	2
 5296              	.LC129:
 5297 0fac 55736167 		.ascii	"Usage: set_led led_num led_value\015\012led_num: 0-"
 5297      653A2073 
 5297      65745F6C 
 5297      6564206C 
 5297      65645F6E 
 5298 0fd9 333D736D 		.ascii	"3=small leds, 4=body led, 5=front led\015\012value:"
 5298      616C6C20 
 5298      6C656473 
 5298      2C20343D 
 5298      626F6479 
 5299 1006 20303D6F 		.ascii	" 0=off, 1=on, 2=toggle\015\012\000"
ARM GAS  C:\Users\PCHAUT~1\AppData\Local\Temp\ccLw8kky.s 			page 103


 5299      66662C20 
 5299      313D6F6E 
 5299      2C20323D 
 5299      746F6767 
 5300              		.section	.text.cmd_set_led,"ax",%progbits
 5301              		.align	1
 5302              		.p2align 4,,15
 5303              		.syntax unified
 5304              		.thumb
 5305              		.thumb_func
 5306              		.fpu fpv4-sp-d16
 5307              		.type	cmd_set_led, %function
 5308              	cmd_set_led:
 5309              	.LFB301:
 5310              		.loc 7 940 0
 5311              		.cfi_startproc
 5312              		@ args = 0, pretend = 0, frame = 24
 5313              		@ frame_needed = 0, uses_anonymous_args = 0
 5314 0000 00B5     		push	{lr}
 5315              		.cfi_def_cfa_offset 4
 5316              		.cfi_offset 14, -4
 5317 0002 87B0     		sub	sp, sp, #28
 5318              		.cfi_def_cfa_offset 32
 5319 0004 0390     		str	r0, [sp, #12]
 5320 0006 0291     		str	r1, [sp, #8]
 5321 0008 0192     		str	r2, [sp, #4]
 5322              		.loc 7 940 0
 5323 000a 264B     		ldr	r3, .L371
 5324 000c 1B68     		ldr	r3, [r3]
 5325 000e 0593     		str	r3, [sp, #20]
 5326              		.loc 7 941 0
 5327 0010 0023     		movs	r3, #0
 5328 0012 8DF81230 		strb	r3, [sp, #18]
 5329              		.loc 7 942 0
 5330 0016 0023     		movs	r3, #0
 5331 0018 8DF81330 		strb	r3, [sp, #19]
 5332              		.loc 7 944 0
 5333 001c 029B     		ldr	r3, [sp, #8]
 5334 001e 022B     		cmp	r3, #2
 5335 0020 04D0     		beq	.L365
 5336              		.loc 7 945 0
 5337 0022 2149     		ldr	r1, .L371+4
 5338 0024 0398     		ldr	r0, [sp, #12]
 5339 0026 FFF7FEFF 		bl	chprintf
 5340              		.loc 7 958 0
 5341 002a 30E0     		b	.L370
 5342              	.L365:
 5343              		.loc 7 947 0
 5344 002c 019B     		ldr	r3, [sp, #4]
 5345 002e 1B68     		ldr	r3, [r3]
 5346 0030 1846     		mov	r0, r3
 5347 0032 FFF7FEFF 		bl	atoi
 5348 0036 0346     		mov	r3, r0
 5349 0038 8DF81230 		strb	r3, [sp, #18]
 5350              		.loc 7 948 0
 5351 003c 019B     		ldr	r3, [sp, #4]
 5352 003e 0433     		adds	r3, r3, #4
ARM GAS  C:\Users\PCHAUT~1\AppData\Local\Temp\ccLw8kky.s 			page 104


 5353 0040 1B68     		ldr	r3, [r3]
 5354 0042 1846     		mov	r0, r3
 5355 0044 FFF7FEFF 		bl	atoi
 5356 0048 0346     		mov	r3, r0
 5357 004a 8DF81330 		strb	r3, [sp, #19]
 5358              		.loc 7 950 0
 5359 004e 9DF81230 		ldrb	r3, [sp, #18]	@ zero_extendqisi2
 5360 0052 032B     		cmp	r3, #3
 5361 0054 08D8     		bhi	.L367
 5362              		.loc 7 951 0
 5363 0056 9DF81320 		ldrb	r2, [sp, #19]	@ zero_extendqisi2
 5364 005a 9DF81230 		ldrb	r3, [sp, #18]	@ zero_extendqisi2
 5365 005e 1146     		mov	r1, r2
 5366 0060 1846     		mov	r0, r3
 5367 0062 FFF7FEFF 		bl	set_led
 5368              		.loc 7 958 0
 5369 0066 12E0     		b	.L370
 5370              	.L367:
 5371              		.loc 7 952 0
 5372 0068 9DF81230 		ldrb	r3, [sp, #18]	@ zero_extendqisi2
 5373 006c 042B     		cmp	r3, #4
 5374 006e 05D1     		bne	.L368
 5375              		.loc 7 953 0
 5376 0070 9DF81330 		ldrb	r3, [sp, #19]	@ zero_extendqisi2
 5377 0074 1846     		mov	r0, r3
 5378 0076 FFF7FEFF 		bl	set_body_led
 5379              		.loc 7 958 0
 5380 007a 08E0     		b	.L370
 5381              	.L368:
 5382              		.loc 7 954 0
 5383 007c 9DF81230 		ldrb	r3, [sp, #18]	@ zero_extendqisi2
 5384 0080 052B     		cmp	r3, #5
 5385 0082 04D1     		bne	.L370
 5386              		.loc 7 955 0
 5387 0084 9DF81330 		ldrb	r3, [sp, #19]	@ zero_extendqisi2
 5388 0088 1846     		mov	r0, r3
 5389 008a FFF7FEFF 		bl	set_front_led
 5390              	.L370:
 5391              		.loc 7 958 0
 5392 008e 00BF     		nop
 5393 0090 044B     		ldr	r3, .L371
 5394 0092 059A     		ldr	r2, [sp, #20]
 5395 0094 1B68     		ldr	r3, [r3]
 5396 0096 9A42     		cmp	r2, r3
 5397 0098 01D0     		beq	.L369
 5398 009a FFF7FEFF 		bl	__stack_chk_fail
 5399              	.L369:
 5400 009e 07B0     		add	sp, sp, #28
 5401              		.cfi_def_cfa_offset 4
 5402              		@ sp needed
 5403 00a0 5DF804FB 		ldr	pc, [sp], #4
 5404              	.L372:
 5405              		.align	2
 5406              	.L371:
 5407 00a4 00000000 		.word	__stack_chk_guard
 5408 00a8 AC0F0000 		.word	.LC129
 5409              		.cfi_endproc
ARM GAS  C:\Users\PCHAUT~1\AppData\Local\Temp\ccLw8kky.s 			page 105


 5410              	.LFE301:
 5411              		.size	cmd_set_led, .-cmd_set_led
 5412              		.section	.rodata
 5413 101f 00       		.align	2
 5414              	.LC130:
 5415 1020 55736167 		.ascii	"Usage: set_speed left right\015\012speed: %d..%d\015"
 5415      653A2073 
 5415      65745F73 
 5415      70656564 
 5415      206C6566 
 5416 104b 0A00     		.ascii	"\012\000"
 5417 104d 000000   		.align	2
 5418              	.LC131:
 5419 1050 6C737065 		.ascii	"lspeed=%d, rspeed=%d\015\012\000"
 5419      65643D25 
 5419      642C2072 
 5419      73706565 
 5419      643D2564 
 5420              		.section	.text.cmd_set_speed,"ax",%progbits
 5421              		.align	1
 5422              		.p2align 4,,15
 5423              		.syntax unified
 5424              		.thumb
 5425              		.thumb_func
 5426              		.fpu fpv4-sp-d16
 5427              		.type	cmd_set_speed, %function
 5428              	cmd_set_speed:
 5429              	.LFB302:
 5430              		.loc 7 961 0
 5431              		.cfi_startproc
 5432              		@ args = 0, pretend = 0, frame = 24
 5433              		@ frame_needed = 0, uses_anonymous_args = 0
 5434 0000 00B5     		push	{lr}
 5435              		.cfi_def_cfa_offset 4
 5436              		.cfi_offset 14, -4
 5437 0002 87B0     		sub	sp, sp, #28
 5438              		.cfi_def_cfa_offset 32
 5439 0004 0390     		str	r0, [sp, #12]
 5440 0006 0291     		str	r1, [sp, #8]
 5441 0008 0192     		str	r2, [sp, #4]
 5442              		.loc 7 961 0
 5443 000a 214B     		ldr	r3, .L378
 5444 000c 1B68     		ldr	r3, [r3]
 5445 000e 0593     		str	r3, [sp, #20]
 5446              		.loc 7 962 0
 5447 0010 0023     		movs	r3, #0
 5448 0012 ADF81030 		strh	r3, [sp, #16]	@ movhi
 5449              		.loc 7 963 0
 5450 0016 0023     		movs	r3, #0
 5451 0018 ADF81230 		strh	r3, [sp, #18]	@ movhi
 5452              		.loc 7 965 0
 5453 001c 029B     		ldr	r3, [sp, #8]
 5454 001e 022B     		cmp	r3, #2
 5455 0020 07D0     		beq	.L374
 5456              		.loc 7 966 0
 5457 0022 40F24C43 		movw	r3, #1100
 5458 0026 1B4A     		ldr	r2, .L378+4
ARM GAS  C:\Users\PCHAUT~1\AppData\Local\Temp\ccLw8kky.s 			page 106


 5459 0028 1B49     		ldr	r1, .L378+8
 5460 002a 0398     		ldr	r0, [sp, #12]
 5461 002c FFF7FEFF 		bl	chprintf
 5462              		.loc 7 974 0
 5463 0030 22E0     		b	.L377
 5464              	.L374:
 5465              		.loc 7 968 0
 5466 0032 019B     		ldr	r3, [sp, #4]
 5467 0034 1B68     		ldr	r3, [r3]
 5468 0036 1846     		mov	r0, r3
 5469 0038 FFF7FEFF 		bl	atoi
 5470 003c 0346     		mov	r3, r0
 5471 003e ADF81030 		strh	r3, [sp, #16]	@ movhi
 5472              		.loc 7 969 0
 5473 0042 019B     		ldr	r3, [sp, #4]
 5474 0044 0433     		adds	r3, r3, #4
 5475 0046 1B68     		ldr	r3, [r3]
 5476 0048 1846     		mov	r0, r3
 5477 004a FFF7FEFF 		bl	atoi
 5478 004e 0346     		mov	r3, r0
 5479 0050 ADF81230 		strh	r3, [sp, #18]	@ movhi
 5480              		.loc 7 970 0
 5481 0054 BDF91020 		ldrsh	r2, [sp, #16]
 5482 0058 BDF91230 		ldrsh	r3, [sp, #18]
 5483 005c 0F49     		ldr	r1, .L378+12
 5484 005e 0398     		ldr	r0, [sp, #12]
 5485 0060 FFF7FEFF 		bl	chprintf
 5486              		.loc 7 971 0
 5487 0064 BDF91230 		ldrsh	r3, [sp, #18]
 5488 0068 1846     		mov	r0, r3
 5489 006a FFF7FEFF 		bl	right_motor_set_speed
 5490              		.loc 7 972 0
 5491 006e BDF91030 		ldrsh	r3, [sp, #16]
 5492 0072 1846     		mov	r0, r3
 5493 0074 FFF7FEFF 		bl	left_motor_set_speed
 5494              	.L377:
 5495              		.loc 7 974 0
 5496 0078 00BF     		nop
 5497 007a 054B     		ldr	r3, .L378
 5498 007c 059A     		ldr	r2, [sp, #20]
 5499 007e 1B68     		ldr	r3, [r3]
 5500 0080 9A42     		cmp	r2, r3
 5501 0082 01D0     		beq	.L376
 5502 0084 FFF7FEFF 		bl	__stack_chk_fail
 5503              	.L376:
 5504 0088 07B0     		add	sp, sp, #28
 5505              		.cfi_def_cfa_offset 4
 5506              		@ sp needed
 5507 008a 5DF804FB 		ldr	pc, [sp], #4
 5508              	.L379:
 5509 008e 00BF     		.align	2
 5510              	.L378:
 5511 0090 00000000 		.word	__stack_chk_guard
 5512 0094 B4FBFFFF 		.word	-1100
 5513 0098 20100000 		.word	.LC130
 5514 009c 50100000 		.word	.LC131
 5515              		.cfi_endproc
ARM GAS  C:\Users\PCHAUT~1\AppData\Local\Temp\ccLw8kky.s 			page 107


 5516              	.LFE302:
 5517              		.size	cmd_set_speed, .-cmd_set_speed
 5518              		.section	.rodata
 5519 1067 00       		.align	2
 5520              	.LC132:
 5521 1068 42617474 		.ascii	"Battery raw value = %d\015\012\000"
 5521      65727920 
 5521      72617720 
 5521      76616C75 
 5521      65203D20 
 5522              		.section	.text.cmd_get_battery,"ax",%progbits
 5523              		.align	1
 5524              		.p2align 4,,15
 5525              		.syntax unified
 5526              		.thumb
 5527              		.thumb_func
 5528              		.fpu fpv4-sp-d16
 5529              		.type	cmd_get_battery, %function
 5530              	cmd_get_battery:
 5531              	.LFB303:
 5532              		.loc 7 977 0
 5533              		.cfi_startproc
 5534              		@ args = 0, pretend = 0, frame = 24
 5535              		@ frame_needed = 0, uses_anonymous_args = 0
 5536 0000 00B5     		push	{lr}
 5537              		.cfi_def_cfa_offset 4
 5538              		.cfi_offset 14, -4
 5539 0002 87B0     		sub	sp, sp, #28
 5540              		.cfi_def_cfa_offset 32
 5541 0004 0390     		str	r0, [sp, #12]
 5542 0006 0291     		str	r1, [sp, #8]
 5543 0008 0192     		str	r2, [sp, #4]
 5544              		.loc 7 977 0
 5545 000a 0B4B     		ldr	r3, .L382
 5546 000c 1B68     		ldr	r3, [r3]
 5547 000e 0593     		str	r3, [sp, #20]
 5548              		.loc 7 981 0
 5549 0010 FFF7FEFF 		bl	get_battery_raw
 5550 0014 0346     		mov	r3, r0
 5551 0016 1A46     		mov	r2, r3
 5552 0018 0849     		ldr	r1, .L382+4
 5553 001a 0398     		ldr	r0, [sp, #12]
 5554 001c FFF7FEFF 		bl	chprintf
 5555              		.loc 7 982 0
 5556 0020 00BF     		nop
 5557 0022 054B     		ldr	r3, .L382
 5558 0024 059A     		ldr	r2, [sp, #20]
 5559 0026 1B68     		ldr	r3, [r3]
 5560 0028 9A42     		cmp	r2, r3
 5561 002a 01D0     		beq	.L381
 5562 002c FFF7FEFF 		bl	__stack_chk_fail
 5563              	.L381:
 5564 0030 07B0     		add	sp, sp, #28
 5565              		.cfi_def_cfa_offset 4
 5566              		@ sp needed
 5567 0032 5DF804FB 		ldr	pc, [sp], #4
 5568              	.L383:
ARM GAS  C:\Users\PCHAUT~1\AppData\Local\Temp\ccLw8kky.s 			page 108


 5569 0036 00BF     		.align	2
 5570              	.L382:
 5571 0038 00000000 		.word	__stack_chk_guard
 5572 003c 68100000 		.word	.LC132
 5573              		.cfi_endproc
 5574              	.LFE303:
 5575              		.size	cmd_get_battery, .-cmd_get_battery
 5576              		.section	.rodata
 5577 1081 000000   		.align	2
 5578              	.LC133:
 5579 1084 55736167 		.ascii	"Usage: audio_play freq\015\012freq=100..20000 Hz\015"
 5579      653A2061 
 5579      7564696F 
 5579      5F706C61 
 5579      79206672 
 5580 10af 0A00     		.ascii	"\012\000"
 5581              		.section	.text.cmd_audio_play,"ax",%progbits
 5582              		.align	1
 5583              		.p2align 4,,15
 5584              		.syntax unified
 5585              		.thumb
 5586              		.thumb_func
 5587              		.fpu fpv4-sp-d16
 5588              		.type	cmd_audio_play, %function
 5589              	cmd_audio_play:
 5590              	.LFB304:
 5591              		.loc 7 985 0
 5592              		.cfi_startproc
 5593              		@ args = 0, pretend = 0, frame = 24
 5594              		@ frame_needed = 0, uses_anonymous_args = 0
 5595 0000 00B5     		push	{lr}
 5596              		.cfi_def_cfa_offset 4
 5597              		.cfi_offset 14, -4
 5598 0002 87B0     		sub	sp, sp, #28
 5599              		.cfi_def_cfa_offset 32
 5600 0004 0390     		str	r0, [sp, #12]
 5601 0006 0291     		str	r1, [sp, #8]
 5602 0008 0192     		str	r2, [sp, #4]
 5603              		.loc 7 985 0
 5604 000a 114B     		ldr	r3, .L389
 5605 000c 1B68     		ldr	r3, [r3]
 5606 000e 0593     		str	r3, [sp, #20]
 5607              		.loc 7 987 0
 5608 0010 029B     		ldr	r3, [sp, #8]
 5609 0012 012B     		cmp	r3, #1
 5610 0014 04D0     		beq	.L385
 5611              		.loc 7 988 0
 5612 0016 0F49     		ldr	r1, .L389+4
 5613 0018 0398     		ldr	r0, [sp, #12]
 5614 001a FFF7FEFF 		bl	chprintf
 5615              		.loc 7 994 0
 5616 001e 0CE0     		b	.L388
 5617              	.L385:
 5618              		.loc 7 991 0
 5619 0020 019B     		ldr	r3, [sp, #4]
 5620 0022 1B68     		ldr	r3, [r3]
 5621 0024 1846     		mov	r0, r3
ARM GAS  C:\Users\PCHAUT~1\AppData\Local\Temp\ccLw8kky.s 			page 109


 5622 0026 FFF7FEFF 		bl	atoi
 5623 002a 0346     		mov	r3, r0
 5624 002c ADF81230 		strh	r3, [sp, #18]	@ movhi
 5625              		.loc 7 992 0
 5626 0030 BDF81230 		ldrh	r3, [sp, #18]
 5627 0034 1846     		mov	r0, r3
 5628 0036 FFF7FEFF 		bl	dac_play
 5629              	.L388:
 5630              		.loc 7 994 0
 5631 003a 00BF     		nop
 5632 003c 044B     		ldr	r3, .L389
 5633 003e 059A     		ldr	r2, [sp, #20]
 5634 0040 1B68     		ldr	r3, [r3]
 5635 0042 9A42     		cmp	r2, r3
 5636 0044 01D0     		beq	.L387
 5637 0046 FFF7FEFF 		bl	__stack_chk_fail
 5638              	.L387:
 5639 004a 07B0     		add	sp, sp, #28
 5640              		.cfi_def_cfa_offset 4
 5641              		@ sp needed
 5642 004c 5DF804FB 		ldr	pc, [sp], #4
 5643              	.L390:
 5644              		.align	2
 5645              	.L389:
 5646 0050 00000000 		.word	__stack_chk_guard
 5647 0054 84100000 		.word	.LC133
 5648              		.cfi_endproc
 5649              	.LFE304:
 5650              		.size	cmd_audio_play, .-cmd_audio_play
 5651              		.section	.text.cmd_audio_stop,"ax",%progbits
 5652              		.align	1
 5653              		.p2align 4,,15
 5654              		.syntax unified
 5655              		.thumb
 5656              		.thumb_func
 5657              		.fpu fpv4-sp-d16
 5658              		.type	cmd_audio_stop, %function
 5659              	cmd_audio_stop:
 5660              	.LFB305:
 5661              		.loc 7 997 0
 5662              		.cfi_startproc
 5663              		@ args = 0, pretend = 0, frame = 24
 5664              		@ frame_needed = 0, uses_anonymous_args = 0
 5665 0000 00B5     		push	{lr}
 5666              		.cfi_def_cfa_offset 4
 5667              		.cfi_offset 14, -4
 5668 0002 87B0     		sub	sp, sp, #28
 5669              		.cfi_def_cfa_offset 32
 5670 0004 0390     		str	r0, [sp, #12]
 5671 0006 0291     		str	r1, [sp, #8]
 5672 0008 0192     		str	r2, [sp, #4]
 5673              		.loc 7 997 0
 5674 000a 084B     		ldr	r3, .L393
 5675 000c 1B68     		ldr	r3, [r3]
 5676 000e 0593     		str	r3, [sp, #20]
 5677              		.loc 7 1001 0
 5678 0010 FFF7FEFF 		bl	dac_stop
ARM GAS  C:\Users\PCHAUT~1\AppData\Local\Temp\ccLw8kky.s 			page 110


 5679              		.loc 7 1002 0
 5680 0014 00BF     		nop
 5681 0016 054B     		ldr	r3, .L393
 5682 0018 059A     		ldr	r2, [sp, #20]
 5683 001a 1B68     		ldr	r3, [r3]
 5684 001c 9A42     		cmp	r2, r3
 5685 001e 01D0     		beq	.L392
 5686 0020 FFF7FEFF 		bl	__stack_chk_fail
 5687              	.L392:
 5688 0024 07B0     		add	sp, sp, #28
 5689              		.cfi_def_cfa_offset 4
 5690              		@ sp needed
 5691 0026 5DF804FB 		ldr	pc, [sp], #4
 5692              	.L394:
 5693 002a 00BF     		.align	2
 5694              	.L393:
 5695 002c 00000000 		.word	__stack_chk_guard
 5696              		.cfi_endproc
 5697              	.LFE305:
 5698              		.size	cmd_audio_stop, .-cmd_audio_stop
 5699              		.section	.rodata
 5700 10b1 000000   		.align	2
 5701              	.LC134:
 5702 10b4 55736167 		.ascii	"Usage: volume mic_num.\015\012mic_num=0..3\015\012\000"
 5702      653A2076 
 5702      6F6C756D 
 5702      65206D69 
 5702      635F6E75 
 5703 10db 00       		.align	2
 5704              	.LC135:
 5705 10dc 25640D0A 		.ascii	"%d\015\012\000"
 5705      00
 5706              		.section	.text.cmd_volume,"ax",%progbits
 5707              		.align	1
 5708              		.p2align 4,,15
 5709              		.syntax unified
 5710              		.thumb
 5711              		.thumb_func
 5712              		.fpu fpv4-sp-d16
 5713              		.type	cmd_volume, %function
 5714              	cmd_volume:
 5715              	.LFB306:
 5716              		.loc 7 1005 0
 5717              		.cfi_startproc
 5718              		@ args = 0, pretend = 0, frame = 24
 5719              		@ frame_needed = 0, uses_anonymous_args = 0
 5720 0000 00B5     		push	{lr}
 5721              		.cfi_def_cfa_offset 4
 5722              		.cfi_offset 14, -4
 5723 0002 87B0     		sub	sp, sp, #28
 5724              		.cfi_def_cfa_offset 32
 5725 0004 0390     		str	r0, [sp, #12]
 5726 0006 0291     		str	r1, [sp, #8]
 5727 0008 0192     		str	r2, [sp, #4]
 5728              		.loc 7 1005 0
 5729 000a 144B     		ldr	r3, .L400
 5730 000c 1B68     		ldr	r3, [r3]
ARM GAS  C:\Users\PCHAUT~1\AppData\Local\Temp\ccLw8kky.s 			page 111


 5731 000e 0593     		str	r3, [sp, #20]
 5732              		.loc 7 1007 0
 5733 0010 029B     		ldr	r3, [sp, #8]
 5734 0012 012B     		cmp	r3, #1
 5735 0014 04D0     		beq	.L396
 5736              		.loc 7 1008 0
 5737 0016 1249     		ldr	r1, .L400+4
 5738 0018 0398     		ldr	r0, [sp, #12]
 5739 001a FFF7FEFF 		bl	chprintf
 5740              		.loc 7 1013 0
 5741 001e 12E0     		b	.L399
 5742              	.L396:
 5743              		.loc 7 1010 0
 5744 0020 019B     		ldr	r3, [sp, #4]
 5745 0022 1B68     		ldr	r3, [r3]
 5746 0024 1846     		mov	r0, r3
 5747 0026 FFF7FEFF 		bl	atoi
 5748 002a 0346     		mov	r3, r0
 5749 002c 8DF81330 		strb	r3, [sp, #19]
 5750              		.loc 7 1011 0
 5751 0030 9DF81330 		ldrb	r3, [sp, #19]	@ zero_extendqisi2
 5752 0034 1846     		mov	r0, r3
 5753 0036 FFF7FEFF 		bl	mic_get_volume
 5754 003a 0346     		mov	r3, r0
 5755 003c 1A46     		mov	r2, r3
 5756 003e 0949     		ldr	r1, .L400+8
 5757 0040 0398     		ldr	r0, [sp, #12]
 5758 0042 FFF7FEFF 		bl	chprintf
 5759              	.L399:
 5760              		.loc 7 1013 0
 5761 0046 00BF     		nop
 5762 0048 044B     		ldr	r3, .L400
 5763 004a 059A     		ldr	r2, [sp, #20]
 5764 004c 1B68     		ldr	r3, [r3]
 5765 004e 9A42     		cmp	r2, r3
 5766 0050 01D0     		beq	.L398
 5767 0052 FFF7FEFF 		bl	__stack_chk_fail
 5768              	.L398:
 5769 0056 07B0     		add	sp, sp, #28
 5770              		.cfi_def_cfa_offset 4
 5771              		@ sp needed
 5772 0058 5DF804FB 		ldr	pc, [sp], #4
 5773              	.L401:
 5774              		.align	2
 5775              	.L400:
 5776 005c 00000000 		.word	__stack_chk_guard
 5777 0060 B4100000 		.word	.LC134
 5778 0064 DC100000 		.word	.LC135
 5779              		.cfi_endproc
 5780              	.LFE306:
 5781              		.size	cmd_volume, .-cmd_volume
 5782              		.section	.text.cmd_mic_data,"ax",%progbits
 5783              		.align	1
 5784              		.p2align 4,,15
 5785              		.syntax unified
 5786              		.thumb
 5787              		.thumb_func
ARM GAS  C:\Users\PCHAUT~1\AppData\Local\Temp\ccLw8kky.s 			page 112


 5788              		.fpu fpv4-sp-d16
 5789              		.type	cmd_mic_data, %function
 5790              	cmd_mic_data:
 5791              	.LFB307:
 5792              		.loc 7 1016 0
 5793              		.cfi_startproc
 5794              		@ args = 0, pretend = 0, frame = 32
 5795              		@ frame_needed = 0, uses_anonymous_args = 0
 5796 0000 00B5     		push	{lr}
 5797              		.cfi_def_cfa_offset 4
 5798              		.cfi_offset 14, -4
 5799 0002 89B0     		sub	sp, sp, #36
 5800              		.cfi_def_cfa_offset 40
 5801 0004 0390     		str	r0, [sp, #12]
 5802 0006 0291     		str	r1, [sp, #8]
 5803 0008 0192     		str	r2, [sp, #4]
 5804              		.loc 7 1016 0
 5805 000a 214B     		ldr	r3, .L405
 5806 000c 1B68     		ldr	r3, [r3]
 5807 000e 0793     		str	r3, [sp, #28]
 5808              		.loc 7 1021 0
 5809 0010 FFF7FEFF 		bl	mic_buffer_get_size
 5810 0014 0346     		mov	r3, r0
 5811 0016 ADF81230 		strh	r3, [sp, #18]	@ movhi
 5812              		.loc 7 1022 0
 5813 001a AA23     		movs	r3, #170
 5814 001c 8DF81830 		strb	r3, [sp, #24]
 5815 0020 5523     		movs	r3, #85
 5816 0022 8DF81930 		strb	r3, [sp, #25]
 5817 0026 BDF81230 		ldrh	r3, [sp, #18]
 5818 002a 1B0A     		lsrs	r3, r3, #8
 5819 002c 9BB2     		uxth	r3, r3
 5820 002e DBB2     		uxtb	r3, r3
 5821 0030 8DF81A30 		strb	r3, [sp, #26]
 5822 0034 BDF81230 		ldrh	r3, [sp, #18]	@ movhi
 5823 0038 DBB2     		uxtb	r3, r3
 5824 003a 8DF81B30 		strb	r3, [sp, #27]
 5825              		.loc 7 1024 0
 5826 003e 154B     		ldr	r3, .L405+4
 5827 0040 1B68     		ldr	r3, [r3]
 5828 0042 1B68     		ldr	r3, [r3]
 5829 0044 06A9     		add	r1, sp, #24
 5830 0046 0422     		movs	r2, #4
 5831 0048 1248     		ldr	r0, .L405+4
 5832 004a 9847     		blx	r3
 5833              	.LVL4:
 5834              		.loc 7 1025 0
 5835 004c FFF7FEFF 		bl	mic_buffer_ready_reset
 5836              		.loc 7 1026 0
 5837 0050 00BF     		nop
 5838              	.L403:
 5839              		.loc 7 1026 0 is_stmt 0 discriminator 1
 5840 0052 FFF7FEFF 		bl	mic_buffer_is_ready
 5841 0056 0346     		mov	r3, r0
 5842 0058 83F00103 		eor	r3, r3, #1
 5843 005c DBB2     		uxtb	r3, r3
 5844 005e 002B     		cmp	r3, #0
ARM GAS  C:\Users\PCHAUT~1\AppData\Local\Temp\ccLw8kky.s 			page 113


 5845 0060 F7D1     		bne	.L403
 5846              		.loc 7 1027 0 is_stmt 1
 5847 0062 FFF7FEFF 		bl	mic_get_buffer_ptr
 5848 0066 0590     		str	r0, [sp, #20]
 5849              		.loc 7 1028 0
 5850 0068 0A4B     		ldr	r3, .L405+4
 5851 006a 1B68     		ldr	r3, [r3]
 5852 006c 1B68     		ldr	r3, [r3]
 5853 006e BDF81220 		ldrh	r2, [sp, #18]
 5854 0072 0599     		ldr	r1, [sp, #20]
 5855 0074 0748     		ldr	r0, .L405+4
 5856 0076 9847     		blx	r3
 5857              	.LVL5:
 5858              		.loc 7 1029 0
 5859 0078 00BF     		nop
 5860 007a 054B     		ldr	r3, .L405
 5861 007c 079A     		ldr	r2, [sp, #28]
 5862 007e 1B68     		ldr	r3, [r3]
 5863 0080 9A42     		cmp	r2, r3
 5864 0082 01D0     		beq	.L404
 5865 0084 FFF7FEFF 		bl	__stack_chk_fail
 5866              	.L404:
 5867 0088 09B0     		add	sp, sp, #36
 5868              		.cfi_def_cfa_offset 4
 5869              		@ sp needed
 5870 008a 5DF804FB 		ldr	pc, [sp], #4
 5871              	.L406:
 5872 008e 00BF     		.align	2
 5873              	.L405:
 5874 0090 00000000 		.word	__stack_chk_guard
 5875 0094 00000000 		.word	SDU1
 5876              		.cfi_endproc
 5877              	.LFE307:
 5878              		.size	cmd_mic_data, .-cmd_mic_data
 5879              		.section	.rodata
 5880 10e1 000000   		.align	2
 5881              	.LC136:
 5882 10e4 55736167 		.ascii	"Usage: sdc read|write|erase|all\015\012\000"
 5882      653A2073 
 5882      64632072 
 5882      6561647C 
 5882      77726974 
 5883 1106 0000     		.align	2
 5884              	.LC137:
 5885 1108 43617264 		.ascii	"Card not inserted, aborting.\015\012\000"
 5885      206E6F74 
 5885      20696E73 
 5885      65727465 
 5885      642C2061 
 5886 1127 00       		.align	2
 5887              	.LC138:
 5888 1128 436F6E6E 		.ascii	"Connecting... \000"
 5888      65637469 
 5888      6E672E2E 
 5888      2E2000
 5889 1137 00       		.align	2
 5890              	.LC139:
ARM GAS  C:\Users\PCHAUT~1\AppData\Local\Temp\ccLw8kky.s 			page 114


 5891 1138 6661696C 		.ascii	"failed\015\012\000"
 5891      65640D0A 
 5891      00
 5892 1141 000000   		.align	2
 5893              	.LC140:
 5894 1144 4F4B0D0A 		.ascii	"OK\015\012\015\012Card Info\015\012\000"
 5894      0D0A4361 
 5894      72642049 
 5894      6E666F0D 
 5894      0A00
 5895 1156 0000     		.align	2
 5896              	.LC141:
 5897 1158 43534420 		.ascii	"CSD      : %08X %8X %08X %08X \015\012\000"
 5897      20202020 
 5897      203A2025 
 5897      30385820 
 5897      25385820 
 5898 1179 000000   		.align	2
 5899              	.LC142:
 5900 117c 43494420 		.ascii	"CID      : %08X %8X %08X %08X \015\012\000"
 5900      20202020 
 5900      203A2025 
 5900      30385820 
 5900      25385820 
 5901 119d 000000   		.align	2
 5902              	.LC143:
 5903 11a0 4D6F6465 		.ascii	"Mode     : %s\015\012\000"
 5903      20202020 
 5903      203A2025 
 5903      730D0A00 
 5904              		.align	2
 5905              	.LC144:
 5906 11b0 43617061 		.ascii	"Capacity : %DMB\015\012\000"
 5906      63697479 
 5906      203A2025 
 5906      444D420D 
 5906      0A00
 5907 11c2 0000     		.align	2
 5908              	.LC145:
 5909 11c4 72656164 		.ascii	"read\000"
 5909      00
 5910 11c9 000000   		.align	2
 5911              	.LC146:
 5912 11cc 616C6C00 		.ascii	"all\000"
 5913              		.align	2
 5914              	.LC147:
 5915 11d0 53696E67 		.ascii	"Single block aligned read performance:           \000"
 5915      6C652062 
 5915      6C6F636B 
 5915      20616C69 
 5915      676E6564 
 5916 1202 0000     		.align	2
 5917              	.LC148:
 5918 1204 25442062 		.ascii	"%D blocks/S, %D bytes/S\015\012\000"
 5918      6C6F636B 
 5918      732F532C 
 5918      20254420 
ARM GAS  C:\Users\PCHAUT~1\AppData\Local\Temp\ccLw8kky.s 			page 115


 5918      62797465 
 5919 121e 0000     		.align	2
 5920              	.LC149:
 5921 1220 31362073 		.ascii	"16 sequential blocks aligned read performance:   \000"
 5921      65717565 
 5921      6E746961 
 5921      6C20626C 
 5921      6F636B73 
 5922 1252 0000     		.align	2
 5923              	.LC150:
 5924 1254 53696E67 		.ascii	"Single block unaligned read performance:         \000"
 5924      6C652062 
 5924      6C6F636B 
 5924      20756E61 
 5924      6C69676E 
 5925 1286 0000     		.align	2
 5926              	.LC151:
 5927 1288 31362073 		.ascii	"16 sequential blocks unaligned read performance: \000"
 5927      65717565 
 5927      6E746961 
 5927      6C20626C 
 5927      6F636B73 
 5928 12ba 0000     		.align	2
 5929              	.LC152:
 5930 12bc 77726974 		.ascii	"write\000"
 5930      6500
 5931 12c2 0000     		.align	2
 5932              	.LC153:
 5933 12c4 57726974 		.ascii	"Writing...\000"
 5933      696E672E 
 5933      2E2E00
 5934 12cf 00       		.align	2
 5935              	.LC154:
 5936 12d0 4F4B0D0A 		.ascii	"OK\015\012\000"
 5936      00
 5937 12d5 000000   		.align	2
 5938              	.LC155:
 5939 12d8 52656164 		.ascii	"Reading...\000"
 5939      696E672E 
 5939      2E2E00
 5940 12e3 00       		.align	2
 5941              	.LC156:
 5942 12e4 65726173 		.ascii	"erase\000"
 5942      6500
 5943 12ea 0000     		.align	2
 5944              	.LC157:
 5945 12ec 73646345 		.ascii	"sdcErase() test write failed\015\012\000"
 5945      72617365 
 5945      28292074 
 5945      65737420 
 5945      77726974 
 5946 130b 00       		.align	2
 5947              	.LC158:
 5948 130c 73646345 		.ascii	"sdcErase() failed\015\012\000"
 5948      72617365 
 5948      28292066 
 5948      61696C65 
ARM GAS  C:\Users\PCHAUT~1\AppData\Local\Temp\ccLw8kky.s 			page 116


 5948      640D0A00 
 5949              		.align	2
 5950              	.LC159:
 5951 1320 73646345 		.ascii	"sdcErase() yielded error flags: %d\015\012\000"
 5951      72617365 
 5951      28292079 
 5951      69656C64 
 5951      65642065 
 5952 1345 000000   		.align	2
 5953              	.LC160:
 5954 1348 73696E67 		.ascii	"single-block sdcErase() failed\015\012\000"
 5954      6C652D62 
 5954      6C6F636B 
 5954      20736463 
 5954      45726173 
 5955 1369 000000   		.align	2
 5956              	.LC161:
 5957 136c 73646345 		.ascii	"sdcErase() non-erased block compare failed\015\012\000"
 5957      72617365 
 5957      2829206E 
 5957      6F6E2D65 
 5957      72617365 
 5958 1399 000000   		.align	2
 5959              	.LC162:
 5960 139c 73646345 		.ascii	"sdcErase() erased block compare failed\015\012\000"
 5960      72617365 
 5960      28292065 
 5960      72617365 
 5960      6420626C 
 5961 13c5 000000   		.align	2
 5962              	.LC163:
 5963 13c8 6D756C74 		.ascii	"multi-block sdcErase() failed\015\012\000"
 5963      692D626C 
 5963      6F636B20 
 5963      73646345 
 5963      72617365 
 5964              		.align	2
 5965              	.LC164:
 5966 13e8 6D756C74 		.ascii	"multi-block sdcErase() erased block compare failed\015"
 5966      692D626C 
 5966      6F636B20 
 5966      73646345 
 5966      72617365 
 5967 141b 0A00     		.ascii	"\012\000"
 5968              		.section	.text.cmd_sdc,"ax",%progbits
 5969              		.align	1
 5970              		.p2align 4,,15
 5971              		.global	cmd_sdc
 5972              		.syntax unified
 5973              		.thumb
 5974              		.thumb_func
 5975              		.fpu fpv4-sp-d16
 5976              		.type	cmd_sdc, %function
 5977              	cmd_sdc:
 5978              	.LFB308:
 5979              		.loc 7 1031 0
 5980              		.cfi_startproc
ARM GAS  C:\Users\PCHAUT~1\AppData\Local\Temp\ccLw8kky.s 			page 117


 5981              		@ args = 0, pretend = 0, frame = 48
 5982              		@ frame_needed = 0, uses_anonymous_args = 0
 5983 0000 10B5     		push	{r4, lr}
 5984              		.cfi_def_cfa_offset 8
 5985              		.cfi_offset 4, -8
 5986              		.cfi_offset 14, -4
 5987 0002 8EB0     		sub	sp, sp, #56
 5988              		.cfi_def_cfa_offset 64
 5989 0004 0590     		str	r0, [sp, #20]
 5990 0006 0491     		str	r1, [sp, #16]
 5991 0008 0392     		str	r2, [sp, #12]
 5992              		.loc 7 1031 0
 5993 000a 904B     		ldr	r3, .L445
 5994 000c 1B68     		ldr	r3, [r3]
 5995 000e 0D93     		str	r3, [sp, #52]
 5996              		.loc 7 1036 0
 5997 0010 049B     		ldr	r3, [sp, #16]
 5998 0012 012B     		cmp	r3, #1
 5999 0014 04D0     		beq	.L408
 6000              		.loc 7 1037 0
 6001 0016 8E49     		ldr	r1, .L445+4
 6002 0018 0598     		ldr	r0, [sp, #20]
 6003 001a FFF7FEFF 		bl	chprintf
 6004              		.loc 7 1038 0
 6005 001e DEE2     		b	.L407
 6006              	.L408:
 6007              		.loc 7 1042 0
 6008 0020 8C4B     		ldr	r3, .L445+8
 6009 0022 1B68     		ldr	r3, [r3]
 6010 0024 1B68     		ldr	r3, [r3]
 6011 0026 8B48     		ldr	r0, .L445+8
 6012 0028 9847     		blx	r3
 6013              	.LVL6:
 6014 002a 0346     		mov	r3, r0
 6015 002c 83F00103 		eor	r3, r3, #1
 6016 0030 DBB2     		uxtb	r3, r3
 6017 0032 002B     		cmp	r3, #0
 6018 0034 04D0     		beq	.L410
 6019              		.loc 7 1043 0
 6020 0036 8849     		ldr	r1, .L445+12
 6021 0038 0598     		ldr	r0, [sp, #20]
 6022 003a FFF7FEFF 		bl	chprintf
 6023              		.loc 7 1044 0
 6024 003e CEE2     		b	.L407
 6025              	.L410:
 6026              		.loc 7 1048 0
 6027 0040 8649     		ldr	r1, .L445+16
 6028 0042 0598     		ldr	r0, [sp, #20]
 6029 0044 FFF7FEFF 		bl	chprintf
 6030              		.loc 7 1049 0
 6031 0048 8248     		ldr	r0, .L445+8
 6032 004a FFF7FEFF 		bl	sdcConnect
 6033 004e 0346     		mov	r3, r0
 6034 0050 002B     		cmp	r3, #0
 6035 0052 04D0     		beq	.L411
 6036              		.loc 7 1050 0
 6037 0054 8249     		ldr	r1, .L445+20
ARM GAS  C:\Users\PCHAUT~1\AppData\Local\Temp\ccLw8kky.s 			page 118


 6038 0056 0598     		ldr	r0, [sp, #20]
 6039 0058 FFF7FEFF 		bl	chprintf
 6040              		.loc 7 1051 0
 6041 005c BFE2     		b	.L407
 6042              	.L411:
 6043              		.loc 7 1054 0
 6044 005e 8149     		ldr	r1, .L445+24
 6045 0060 0598     		ldr	r0, [sp, #20]
 6046 0062 FFF7FEFF 		bl	chprintf
 6047              		.loc 7 1055 0
 6048 0066 7B4B     		ldr	r3, .L445+8
 6049 0068 596A     		ldr	r1, [r3, #36]
 6050 006a 7A4B     		ldr	r3, .L445+8
 6051 006c 186A     		ldr	r0, [r3, #32]
 6052 006e 794B     		ldr	r3, .L445+8
 6053 0070 DB69     		ldr	r3, [r3, #28]
 6054 0072 784A     		ldr	r2, .L445+8
 6055 0074 9269     		ldr	r2, [r2, #24]
 6056 0076 0192     		str	r2, [sp, #4]
 6057 0078 0093     		str	r3, [sp]
 6058 007a 0346     		mov	r3, r0
 6059 007c 0A46     		mov	r2, r1
 6060 007e 7A49     		ldr	r1, .L445+28
 6061 0080 0598     		ldr	r0, [sp, #20]
 6062 0082 FFF7FEFF 		bl	chprintf
 6063              		.loc 7 1057 0
 6064 0086 734B     		ldr	r3, .L445+8
 6065 0088 5969     		ldr	r1, [r3, #20]
 6066 008a 724B     		ldr	r3, .L445+8
 6067 008c 1869     		ldr	r0, [r3, #16]
 6068 008e 714B     		ldr	r3, .L445+8
 6069 0090 DB68     		ldr	r3, [r3, #12]
 6070 0092 704A     		ldr	r2, .L445+8
 6071 0094 9268     		ldr	r2, [r2, #8]
 6072 0096 0192     		str	r2, [sp, #4]
 6073 0098 0093     		str	r3, [sp]
 6074 009a 0346     		mov	r3, r0
 6075 009c 0A46     		mov	r2, r1
 6076 009e 7349     		ldr	r1, .L445+32
 6077 00a0 0598     		ldr	r0, [sp, #20]
 6078 00a2 FFF7FEFF 		bl	chprintf
 6079              		.loc 7 1059 0
 6080 00a6 6B4B     		ldr	r3, .L445+8
 6081 00a8 1B6B     		ldr	r3, [r3, #48]
 6082 00aa 03F00303 		and	r3, r3, #3
 6083 00ae 704A     		ldr	r2, .L445+36
 6084 00b0 52F82330 		ldr	r3, [r2, r3, lsl #2]
 6085 00b4 1A46     		mov	r2, r3
 6086 00b6 6F49     		ldr	r1, .L445+40
 6087 00b8 0598     		ldr	r0, [sp, #20]
 6088 00ba FFF7FEFF 		bl	chprintf
 6089              		.loc 7 1060 0
 6090 00be 654B     		ldr	r3, .L445+8
 6091 00c0 9B6A     		ldr	r3, [r3, #40]
 6092 00c2 DB0A     		lsrs	r3, r3, #11
 6093 00c4 1A46     		mov	r2, r3
 6094 00c6 6C49     		ldr	r1, .L445+44
ARM GAS  C:\Users\PCHAUT~1\AppData\Local\Temp\ccLw8kky.s 			page 119


 6095 00c8 0598     		ldr	r0, [sp, #20]
 6096 00ca FFF7FEFF 		bl	chprintf
 6097              		.loc 7 1063 0
 6098 00ce 614B     		ldr	r3, .L445+8
 6099 00d0 9B6A     		ldr	r3, [r3, #40]
 6100 00d2 9B0A     		lsrs	r3, r3, #10
 6101 00d4 0993     		str	r3, [sp, #36]
 6102              		.loc 7 1065 0
 6103 00d6 039B     		ldr	r3, [sp, #12]
