ARM GAS  C:\Users\PCHAUT~1\AppData\Local\Temp\ccacj52E.s 			page 1


   1              		.cpu cortex-m4
   2              		.eabi_attribute 27, 1
   3              		.eabi_attribute 28, 1
   4              		.eabi_attribute 20, 1
   5              		.eabi_attribute 21, 1
   6              		.eabi_attribute 23, 3
   7              		.eabi_attribute 24, 1
   8              		.eabi_attribute 25, 1
   9              		.eabi_attribute 26, 1
  10              		.eabi_attribute 30, 6
  11              		.eabi_attribute 34, 1
  12              		.eabi_attribute 18, 4
  13              		.file	"cmp.c"
  14              		.text
  15              	.Ltext0:
  16              		.cfi_sections	.debug_frame
  17              		.section	.rodata.version,"a",%progbits
  18              		.align	2
  19              		.type	version, %object
  20              		.size	version, 4
  21              	version:
  22 0000 0A000000 		.word	10
  23              		.section	.rodata.mp_version,"a",%progbits
  24              		.align	2
  25              		.type	mp_version, %object
  26              		.size	mp_version, 4
  27              	mp_version:
  28 0000 05000000 		.word	5
  29              		.global	cmp_error_messages
  30              		.section	.rodata
  31              		.align	2
  32              	.LC0:
  33 0000 4E6F2045 		.ascii	"No Error\000"
  33      72726F72 
  33      00
  34 0009 000000   		.align	2
  35              	.LC1:
  36 000c 53706563 		.ascii	"Specified string data length is too long (> 0xFFFFF"
  36      69666965 
  36      64207374 
  36      72696E67 
  36      20646174 
  37 003f 46464629 		.ascii	"FFF)\000"
  37      00
  38              		.align	2
  39              	.LC2:
  40 0044 53706563 		.ascii	"Specified binary data length is too long (> 0xFFFFF"
  40      69666965 
  40      64206269 
  40      6E617279 
  40      20646174 
  41 0077 46464629 		.ascii	"FFF)\000"
  41      00
  42              		.align	2
  43              	.LC3:
  44 007c 53706563 		.ascii	"Specified array length is too long (> 0xFFFFFFFF)\000"
  44      69666965 
ARM GAS  C:\Users\PCHAUT~1\AppData\Local\Temp\ccacj52E.s 			page 2


  44      64206172 
  44      72617920 
  44      6C656E67 
  45 00ae 0000     		.align	2
  46              	.LC4:
  47 00b0 53706563 		.ascii	"Specified map length is too long (> 0xFFFFFFFF)\000"
  47      69666965 
  47      64206D61 
  47      70206C65 
  47      6E677468 
  48              		.align	2
  49              	.LC5:
  50 00e0 496E7075 		.ascii	"Input value is too large\000"
  50      74207661 
  50      6C756520 
  50      69732074 
  50      6F6F206C 
  51 00f9 000000   		.align	2
  52              	.LC6:
  53 00fc 4572726F 		.ascii	"Error writing fixed value\000"
  53      72207772 
  53      6974696E 
  53      67206669 
  53      78656420 
  54 0116 0000     		.align	2
  55              	.LC7:
  56 0118 4572726F 		.ascii	"Error reading type marker\000"
  56      72207265 
  56      6164696E 
  56      67207479 
  56      7065206D 
  57 0132 0000     		.align	2
  58              	.LC8:
  59 0134 4572726F 		.ascii	"Error writing type marker\000"
  59      72207772 
  59      6974696E 
  59      67207479 
  59      7065206D 
  60 014e 0000     		.align	2
  61              	.LC9:
  62 0150 4572726F 		.ascii	"Error reading packed data\000"
  62      72207265 
  62      6164696E 
  62      67207061 
  62      636B6564 
  63 016a 0000     		.align	2
  64              	.LC10:
  65 016c 4572726F 		.ascii	"Error writing packed data\000"
  65      72207772 
  65      6974696E 
  65      67207061 
  65      636B6564 
  66 0186 0000     		.align	2
  67              	.LC11:
  68 0188 4572726F 		.ascii	"Error reading ext type\000"
  68      72207265 
  68      6164696E 
ARM GAS  C:\Users\PCHAUT~1\AppData\Local\Temp\ccacj52E.s 			page 3


  68      67206578 
  68      74207479 
  69 019f 00       		.align	2
  70              	.LC12:
  71 01a0 4572726F 		.ascii	"Error writing ext type\000"
  71      72207772 
  71      6974696E 
  71      67206578 
  71      74207479 
  72 01b7 00       		.align	2
  73              	.LC13:
  74 01b8 496E7661 		.ascii	"Invalid type\000"
  74      6C696420 
  74      74797065 
  74      00
  75 01c5 000000   		.align	2
  76              	.LC14:
  77 01c8 4572726F 		.ascii	"Error reading size\000"
  77      72207265 
  77      6164696E 
  77      67207369 
  77      7A6500
  78 01db 00       		.align	2
  79              	.LC15:
  80 01dc 4572726F 		.ascii	"Error writing size\000"
  80      72207772 
  80      6974696E 
  80      67207369 
  80      7A6500
  81 01ef 00       		.align	2
  82              	.LC16:
  83 01f0 4D617820 		.ascii	"Max Error\000"
  83      4572726F 
  83      7200
  84              		.section	.data.cmp_error_messages,"aw",%progbits
  85              		.align	2
  86              		.type	cmp_error_messages, %object
  87              		.size	cmp_error_messages, 68
  88              	cmp_error_messages:
  89 0000 00000000 		.word	.LC0
  90 0004 0C000000 		.word	.LC1
  91 0008 44000000 		.word	.LC2
  92 000c 7C000000 		.word	.LC3
  93 0010 B0000000 		.word	.LC4
  94 0014 E0000000 		.word	.LC5
  95 0018 FC000000 		.word	.LC6
  96 001c 18010000 		.word	.LC7
  97 0020 34010000 		.word	.LC8
  98 0024 50010000 		.word	.LC9
  99 0028 6C010000 		.word	.LC10
 100 002c 88010000 		.word	.LC11
 101 0030 A0010000 		.word	.LC12
 102 0034 B8010000 		.word	.LC13
 103 0038 C8010000 		.word	.LC14
 104 003c DC010000 		.word	.LC15
 105 0040 F0010000 		.word	.LC16
 106              		.section	.rodata._i,"a",%progbits
ARM GAS  C:\Users\PCHAUT~1\AppData\Local\Temp\ccacj52E.s 			page 4


 107              		.align	2
 108              		.type	_i, %object
 109              		.size	_i, 4
 110              	_i:
 111 0000 01000000 		.word	1
 112              		.section	.text.be16,"ax",%progbits
 113              		.align	1
 114              		.p2align 4,,15
 115              		.syntax unified
 116              		.thumb
 117              		.thumb_func
 118              		.fpu fpv4-sp-d16
 119              		.type	be16, %function
 120              	be16:
 121              	.LFB0:
 122              		.file 1 "../lib/e-puck2_main-processor/src/cmp/cmp.c"
 123              		.loc 1 98 0
 124              		.cfi_startproc
 125              		@ args = 0, pretend = 0, frame = 24
 126              		@ frame_needed = 0, uses_anonymous_args = 0
 127 0000 00B5     		push	{lr}
 128              		.cfi_def_cfa_offset 4
 129              		.cfi_offset 14, -4
 130 0002 87B0     		sub	sp, sp, #28
 131              		.cfi_def_cfa_offset 32
 132 0004 0346     		mov	r3, r0
 133 0006 ADF80630 		strh	r3, [sp, #6]	@ movhi
 134              		.loc 1 98 0
 135 000a 134B     		ldr	r3, .L5
 136 000c 1B68     		ldr	r3, [r3]
 137 000e 0593     		str	r3, [sp, #20]
 138              		.loc 1 99 0
 139 0010 0DF10603 		add	r3, sp, #6
 140 0014 0493     		str	r3, [sp, #16]
 141              		.loc 1 101 0
 142 0016 114B     		ldr	r3, .L5+4
 143 0018 1B78     		ldrb	r3, [r3]	@ zero_extendqisi2
 144 001a 002B     		cmp	r3, #0
 145 001c 0FD0     		beq	.L2
 146              	.LBB2:
 147              		.loc 1 102 0
 148 001e 0023     		movs	r3, #0
 149 0020 8DF80F30 		strb	r3, [sp, #15]
 150              		.loc 1 104 0
 151 0024 049B     		ldr	r3, [sp, #16]
 152 0026 1B78     		ldrb	r3, [r3]
 153 0028 8DF80F30 		strb	r3, [sp, #15]
 154              		.loc 1 105 0
 155 002c 049B     		ldr	r3, [sp, #16]
 156 002e 5A78     		ldrb	r2, [r3, #1]	@ zero_extendqisi2
 157 0030 049B     		ldr	r3, [sp, #16]
 158 0032 1A70     		strb	r2, [r3]
 159              		.loc 1 106 0
 160 0034 049B     		ldr	r3, [sp, #16]
 161 0036 0133     		adds	r3, r3, #1
 162 0038 9DF80F20 		ldrb	r2, [sp, #15]
 163 003c 1A70     		strb	r2, [r3]
ARM GAS  C:\Users\PCHAUT~1\AppData\Local\Temp\ccacj52E.s 			page 5


 164              	.L2:
 165              	.LBE2:
 166              		.loc 1 109 0
 167 003e BDF80630 		ldrh	r3, [sp, #6]
 168              		.loc 1 110 0
 169 0042 1846     		mov	r0, r3
 170 0044 044B     		ldr	r3, .L5
 171 0046 059A     		ldr	r2, [sp, #20]
 172 0048 1B68     		ldr	r3, [r3]
 173 004a 9A42     		cmp	r2, r3
 174 004c 01D0     		beq	.L4
 175 004e FFF7FEFF 		bl	__stack_chk_fail
 176              	.L4:
 177 0052 07B0     		add	sp, sp, #28
 178              		.cfi_def_cfa_offset 4
 179              		@ sp needed
 180 0054 5DF804FB 		ldr	pc, [sp], #4
 181              	.L6:
 182              		.align	2
 183              	.L5:
 184 0058 00000000 		.word	__stack_chk_guard
 185 005c 00000000 		.word	_i
 186              		.cfi_endproc
 187              	.LFE0:
 188              		.size	be16, .-be16
 189              		.section	.text.be32,"ax",%progbits
 190              		.align	1
 191              		.p2align 4,,15
 192              		.syntax unified
 193              		.thumb
 194              		.thumb_func
 195              		.fpu fpv4-sp-d16
 196              		.type	be32, %function
 197              	be32:
 198              	.LFB1:
 199              		.loc 1 112 0
 200              		.cfi_startproc
 201              		@ args = 0, pretend = 0, frame = 24
 202              		@ frame_needed = 0, uses_anonymous_args = 0
 203 0000 00B5     		push	{lr}
 204              		.cfi_def_cfa_offset 4
 205              		.cfi_offset 14, -4
 206 0002 87B0     		sub	sp, sp, #28
 207              		.cfi_def_cfa_offset 32
 208 0004 0190     		str	r0, [sp, #4]
 209              		.loc 1 112 0
 210 0006 194B     		ldr	r3, .L11
 211 0008 1B68     		ldr	r3, [r3]
 212 000a 0593     		str	r3, [sp, #20]
 213              		.loc 1 113 0
 214 000c 01AB     		add	r3, sp, #4
 215 000e 0493     		str	r3, [sp, #16]
 216              		.loc 1 115 0
 217 0010 174B     		ldr	r3, .L11+4
 218 0012 1B78     		ldrb	r3, [r3]	@ zero_extendqisi2
 219 0014 002B     		cmp	r3, #0
 220 0016 1DD0     		beq	.L8
ARM GAS  C:\Users\PCHAUT~1\AppData\Local\Temp\ccacj52E.s 			page 6


 221              	.LBB3:
 222              		.loc 1 116 0
 223 0018 0023     		movs	r3, #0
 224 001a 8DF80F30 		strb	r3, [sp, #15]
 225              		.loc 1 118 0
 226 001e 049B     		ldr	r3, [sp, #16]
 227 0020 1B78     		ldrb	r3, [r3]
 228 0022 8DF80F30 		strb	r3, [sp, #15]
 229              		.loc 1 119 0
 230 0026 049B     		ldr	r3, [sp, #16]
 231 0028 DA78     		ldrb	r2, [r3, #3]	@ zero_extendqisi2
 232 002a 049B     		ldr	r3, [sp, #16]
 233 002c 1A70     		strb	r2, [r3]
 234              		.loc 1 120 0
 235 002e 049B     		ldr	r3, [sp, #16]
 236 0030 0333     		adds	r3, r3, #3
 237 0032 9DF80F20 		ldrb	r2, [sp, #15]
 238 0036 1A70     		strb	r2, [r3]
 239              		.loc 1 122 0
 240 0038 049B     		ldr	r3, [sp, #16]
 241 003a 5B78     		ldrb	r3, [r3, #1]
 242 003c 8DF80F30 		strb	r3, [sp, #15]
 243              		.loc 1 123 0
 244 0040 049B     		ldr	r3, [sp, #16]
 245 0042 0133     		adds	r3, r3, #1
 246 0044 049A     		ldr	r2, [sp, #16]
 247 0046 9278     		ldrb	r2, [r2, #2]	@ zero_extendqisi2
 248 0048 1A70     		strb	r2, [r3]
 249              		.loc 1 124 0
 250 004a 049B     		ldr	r3, [sp, #16]
 251 004c 0233     		adds	r3, r3, #2
 252 004e 9DF80F20 		ldrb	r2, [sp, #15]
 253 0052 1A70     		strb	r2, [r3]
 254              	.L8:
 255              	.LBE3:
 256              		.loc 1 127 0
 257 0054 019B     		ldr	r3, [sp, #4]
 258              		.loc 1 128 0
 259 0056 1846     		mov	r0, r3
 260 0058 044B     		ldr	r3, .L11
 261 005a 059A     		ldr	r2, [sp, #20]
 262 005c 1B68     		ldr	r3, [r3]
 263 005e 9A42     		cmp	r2, r3
 264 0060 01D0     		beq	.L10
 265 0062 FFF7FEFF 		bl	__stack_chk_fail
 266              	.L10:
 267 0066 07B0     		add	sp, sp, #28
 268              		.cfi_def_cfa_offset 4
 269              		@ sp needed
 270 0068 5DF804FB 		ldr	pc, [sp], #4
 271              	.L12:
 272              		.align	2
 273              	.L11:
 274 006c 00000000 		.word	__stack_chk_guard
 275 0070 00000000 		.word	_i
 276              		.cfi_endproc
 277              	.LFE1:
ARM GAS  C:\Users\PCHAUT~1\AppData\Local\Temp\ccacj52E.s 			page 7


 278              		.size	be32, .-be32
 279              		.section	.text.be64,"ax",%progbits
 280              		.align	1
 281              		.p2align 4,,15
 282              		.syntax unified
 283              		.thumb
 284              		.thumb_func
 285              		.fpu fpv4-sp-d16
 286              		.type	be64, %function
 287              	be64:
 288              	.LFB2:
 289              		.loc 1 130 0
 290              		.cfi_startproc
 291              		@ args = 0, pretend = 0, frame = 24
 292              		@ frame_needed = 0, uses_anonymous_args = 0
 293 0000 10B5     		push	{r4, lr}
 294              		.cfi_def_cfa_offset 8
 295              		.cfi_offset 4, -8
 296              		.cfi_offset 14, -4
 297 0002 86B0     		sub	sp, sp, #24
 298              		.cfi_def_cfa_offset 32
 299 0004 CDE90001 		strd	r0, [sp]
 300              		.loc 1 130 0
 301 0008 274B     		ldr	r3, .L17
 302 000a 1B68     		ldr	r3, [r3]
 303 000c 0593     		str	r3, [sp, #20]
 304              		.loc 1 131 0
 305 000e 6B46     		mov	r3, sp
 306 0010 0493     		str	r3, [sp, #16]
 307              		.loc 1 133 0
 308 0012 264B     		ldr	r3, .L17+4
 309 0014 1B78     		ldrb	r3, [r3]	@ zero_extendqisi2
 310 0016 002B     		cmp	r3, #0
 311 0018 39D0     		beq	.L14
 312              	.LBB4:
 313              		.loc 1 134 0
 314 001a 0023     		movs	r3, #0
 315 001c 8DF80F30 		strb	r3, [sp, #15]
 316              		.loc 1 136 0
 317 0020 049B     		ldr	r3, [sp, #16]
 318 0022 1B78     		ldrb	r3, [r3]
 319 0024 8DF80F30 		strb	r3, [sp, #15]
 320              		.loc 1 137 0
 321 0028 049B     		ldr	r3, [sp, #16]
 322 002a DA79     		ldrb	r2, [r3, #7]	@ zero_extendqisi2
 323 002c 049B     		ldr	r3, [sp, #16]
 324 002e 1A70     		strb	r2, [r3]
 325              		.loc 1 138 0
 326 0030 049B     		ldr	r3, [sp, #16]
 327 0032 0733     		adds	r3, r3, #7
 328 0034 9DF80F20 		ldrb	r2, [sp, #15]
 329 0038 1A70     		strb	r2, [r3]
 330              		.loc 1 140 0
 331 003a 049B     		ldr	r3, [sp, #16]
 332 003c 5B78     		ldrb	r3, [r3, #1]
 333 003e 8DF80F30 		strb	r3, [sp, #15]
 334              		.loc 1 141 0
ARM GAS  C:\Users\PCHAUT~1\AppData\Local\Temp\ccacj52E.s 			page 8


 335 0042 049B     		ldr	r3, [sp, #16]
 336 0044 0133     		adds	r3, r3, #1
 337 0046 049A     		ldr	r2, [sp, #16]
 338 0048 9279     		ldrb	r2, [r2, #6]	@ zero_extendqisi2
 339 004a 1A70     		strb	r2, [r3]
 340              		.loc 1 142 0
 341 004c 049B     		ldr	r3, [sp, #16]
 342 004e 0633     		adds	r3, r3, #6
 343 0050 9DF80F20 		ldrb	r2, [sp, #15]
 344 0054 1A70     		strb	r2, [r3]
 345              		.loc 1 144 0
 346 0056 049B     		ldr	r3, [sp, #16]
 347 0058 9B78     		ldrb	r3, [r3, #2]
 348 005a 8DF80F30 		strb	r3, [sp, #15]
 349              		.loc 1 145 0
 350 005e 049B     		ldr	r3, [sp, #16]
 351 0060 0233     		adds	r3, r3, #2
 352 0062 049A     		ldr	r2, [sp, #16]
 353 0064 5279     		ldrb	r2, [r2, #5]	@ zero_extendqisi2
 354 0066 1A70     		strb	r2, [r3]
 355              		.loc 1 146 0
 356 0068 049B     		ldr	r3, [sp, #16]
 357 006a 0533     		adds	r3, r3, #5
 358 006c 9DF80F20 		ldrb	r2, [sp, #15]
 359 0070 1A70     		strb	r2, [r3]
 360              		.loc 1 148 0
 361 0072 049B     		ldr	r3, [sp, #16]
 362 0074 DB78     		ldrb	r3, [r3, #3]
 363 0076 8DF80F30 		strb	r3, [sp, #15]
 364              		.loc 1 149 0
 365 007a 049B     		ldr	r3, [sp, #16]
 366 007c 0333     		adds	r3, r3, #3
 367 007e 049A     		ldr	r2, [sp, #16]
 368 0080 1279     		ldrb	r2, [r2, #4]	@ zero_extendqisi2
 369 0082 1A70     		strb	r2, [r3]
 370              		.loc 1 150 0
 371 0084 049B     		ldr	r3, [sp, #16]
 372 0086 0433     		adds	r3, r3, #4
 373 0088 9DF80F20 		ldrb	r2, [sp, #15]
 374 008c 1A70     		strb	r2, [r3]
 375              	.L14:
 376              	.LBE4:
 377              		.loc 1 153 0
 378 008e DDE90034 		ldrd	r3, [sp]
 379              		.loc 1 154 0
 380 0092 1846     		mov	r0, r3
 381 0094 2146     		mov	r1, r4
 382 0096 044B     		ldr	r3, .L17
 383 0098 059A     		ldr	r2, [sp, #20]
 384 009a 1B68     		ldr	r3, [r3]
 385 009c 9A42     		cmp	r2, r3
 386 009e 01D0     		beq	.L16
 387 00a0 FFF7FEFF 		bl	__stack_chk_fail
 388              	.L16:
 389 00a4 06B0     		add	sp, sp, #24
 390              		.cfi_def_cfa_offset 8
 391              		@ sp needed
ARM GAS  C:\Users\PCHAUT~1\AppData\Local\Temp\ccacj52E.s 			page 9


 392 00a6 10BD     		pop	{r4, pc}
 393              	.L18:
 394              		.align	2
 395              	.L17:
 396 00a8 00000000 		.word	__stack_chk_guard
 397 00ac 00000000 		.word	_i
 398              		.cfi_endproc
 399              	.LFE2:
 400              		.size	be64, .-be64
 401              		.section	.text.befloat,"ax",%progbits
 402              		.align	1
 403              		.p2align 4,,15
 404              		.syntax unified
 405              		.thumb
 406              		.thumb_func
 407              		.fpu fpv4-sp-d16
 408              		.type	befloat, %function
 409              	befloat:
 410              	.LFB3:
 411              		.loc 1 156 0
 412              		.cfi_startproc
 413              		@ args = 0, pretend = 0, frame = 24
 414              		@ frame_needed = 0, uses_anonymous_args = 0
 415 0000 00B5     		push	{lr}
 416              		.cfi_def_cfa_offset 4
 417              		.cfi_offset 14, -4
 418 0002 87B0     		sub	sp, sp, #28
 419              		.cfi_def_cfa_offset 32
 420 0004 8DED010A 		vstr.32	s0, [sp, #4]
 421              		.loc 1 156 0
 422 0008 1A4B     		ldr	r3, .L23
 423 000a 1B68     		ldr	r3, [r3]
 424 000c 0593     		str	r3, [sp, #20]
 425              		.loc 1 157 0
 426 000e 01AB     		add	r3, sp, #4
 427 0010 0493     		str	r3, [sp, #16]
 428              		.loc 1 159 0
 429 0012 194B     		ldr	r3, .L23+4
 430 0014 1B78     		ldrb	r3, [r3]	@ zero_extendqisi2
 431 0016 002B     		cmp	r3, #0
 432 0018 1DD0     		beq	.L20
 433              	.LBB5:
 434              		.loc 1 160 0
 435 001a 0023     		movs	r3, #0
 436 001c 8DF80F30 		strb	r3, [sp, #15]
 437              		.loc 1 162 0
 438 0020 049B     		ldr	r3, [sp, #16]
 439 0022 1B78     		ldrb	r3, [r3]
 440 0024 8DF80F30 		strb	r3, [sp, #15]
 441              		.loc 1 163 0
 442 0028 049B     		ldr	r3, [sp, #16]
 443 002a DA78     		ldrb	r2, [r3, #3]	@ zero_extendqisi2
 444 002c 049B     		ldr	r3, [sp, #16]
 445 002e 1A70     		strb	r2, [r3]
 446              		.loc 1 164 0
 447 0030 049B     		ldr	r3, [sp, #16]
 448 0032 0333     		adds	r3, r3, #3
ARM GAS  C:\Users\PCHAUT~1\AppData\Local\Temp\ccacj52E.s 			page 10


 449 0034 9DF80F20 		ldrb	r2, [sp, #15]
 450 0038 1A70     		strb	r2, [r3]
 451              		.loc 1 166 0
 452 003a 049B     		ldr	r3, [sp, #16]
 453 003c 5B78     		ldrb	r3, [r3, #1]
 454 003e 8DF80F30 		strb	r3, [sp, #15]
 455              		.loc 1 167 0
 456 0042 049B     		ldr	r3, [sp, #16]
 457 0044 0133     		adds	r3, r3, #1
 458 0046 049A     		ldr	r2, [sp, #16]
 459 0048 9278     		ldrb	r2, [r2, #2]	@ zero_extendqisi2
 460 004a 1A70     		strb	r2, [r3]
 461              		.loc 1 168 0
 462 004c 049B     		ldr	r3, [sp, #16]
 463 004e 0233     		adds	r3, r3, #2
 464 0050 9DF80F20 		ldrb	r2, [sp, #15]
 465 0054 1A70     		strb	r2, [r3]
 466              	.L20:
 467              	.LBE5:
 468              		.loc 1 171 0
 469 0056 019B     		ldr	r3, [sp, #4]	@ float
 470 0058 07EE903A 		vmov	s15, r3
 471              		.loc 1 172 0
 472 005c B0EE670A 		vmov.f32	s0, s15
 473 0060 044B     		ldr	r3, .L23
 474 0062 059A     		ldr	r2, [sp, #20]
 475 0064 1B68     		ldr	r3, [r3]
 476 0066 9A42     		cmp	r2, r3
 477 0068 01D0     		beq	.L22
 478 006a FFF7FEFF 		bl	__stack_chk_fail
 479              	.L22:
 480 006e 07B0     		add	sp, sp, #28
 481              		.cfi_def_cfa_offset 4
 482              		@ sp needed
 483 0070 5DF804FB 		ldr	pc, [sp], #4
 484              	.L24:
 485              		.align	2
 486              	.L23:
 487 0074 00000000 		.word	__stack_chk_guard
 488 0078 00000000 		.word	_i
 489              		.cfi_endproc
 490              	.LFE3:
 491              		.size	befloat, .-befloat
 492              		.section	.text.bedouble,"ax",%progbits
 493              		.align	1
 494              		.p2align 4,,15
 495              		.syntax unified
 496              		.thumb
 497              		.thumb_func
 498              		.fpu fpv4-sp-d16
 499              		.type	bedouble, %function
 500              	bedouble:
 501              	.LFB4:
 502              		.loc 1 174 0
 503              		.cfi_startproc
 504              		@ args = 0, pretend = 0, frame = 24
 505              		@ frame_needed = 0, uses_anonymous_args = 0
ARM GAS  C:\Users\PCHAUT~1\AppData\Local\Temp\ccacj52E.s 			page 11


 506 0000 10B5     		push	{r4, lr}
 507              		.cfi_def_cfa_offset 8
 508              		.cfi_offset 4, -8
 509              		.cfi_offset 14, -4
 510 0002 86B0     		sub	sp, sp, #24
 511              		.cfi_def_cfa_offset 32
 512 0004 8DED000B 		vstr.64	d0, [sp]
 513              		.loc 1 174 0
 514 0008 294B     		ldr	r3, .L29
 515 000a 1B68     		ldr	r3, [r3]
 516 000c 0593     		str	r3, [sp, #20]
 517              		.loc 1 175 0
 518 000e 6B46     		mov	r3, sp
 519 0010 0493     		str	r3, [sp, #16]
 520              		.loc 1 177 0
 521 0012 284B     		ldr	r3, .L29+4
 522 0014 1B78     		ldrb	r3, [r3]	@ zero_extendqisi2
 523 0016 002B     		cmp	r3, #0
 524 0018 39D0     		beq	.L26
 525              	.LBB6:
 526              		.loc 1 178 0
 527 001a 0023     		movs	r3, #0
 528 001c 8DF80F30 		strb	r3, [sp, #15]
 529              		.loc 1 180 0
 530 0020 049B     		ldr	r3, [sp, #16]
 531 0022 1B78     		ldrb	r3, [r3]
 532 0024 8DF80F30 		strb	r3, [sp, #15]
 533              		.loc 1 181 0
 534 0028 049B     		ldr	r3, [sp, #16]
 535 002a DA79     		ldrb	r2, [r3, #7]	@ zero_extendqisi2
 536 002c 049B     		ldr	r3, [sp, #16]
 537 002e 1A70     		strb	r2, [r3]
 538              		.loc 1 182 0
 539 0030 049B     		ldr	r3, [sp, #16]
 540 0032 0733     		adds	r3, r3, #7
 541 0034 9DF80F20 		ldrb	r2, [sp, #15]
 542 0038 1A70     		strb	r2, [r3]
 543              		.loc 1 184 0
 544 003a 049B     		ldr	r3, [sp, #16]
 545 003c 5B78     		ldrb	r3, [r3, #1]
 546 003e 8DF80F30 		strb	r3, [sp, #15]
 547              		.loc 1 185 0
 548 0042 049B     		ldr	r3, [sp, #16]
 549 0044 0133     		adds	r3, r3, #1
 550 0046 049A     		ldr	r2, [sp, #16]
 551 0048 9279     		ldrb	r2, [r2, #6]	@ zero_extendqisi2
 552 004a 1A70     		strb	r2, [r3]
 553              		.loc 1 186 0
 554 004c 049B     		ldr	r3, [sp, #16]
 555 004e 0633     		adds	r3, r3, #6
 556 0050 9DF80F20 		ldrb	r2, [sp, #15]
 557 0054 1A70     		strb	r2, [r3]
 558              		.loc 1 188 0
 559 0056 049B     		ldr	r3, [sp, #16]
 560 0058 9B78     		ldrb	r3, [r3, #2]
 561 005a 8DF80F30 		strb	r3, [sp, #15]
 562              		.loc 1 189 0
ARM GAS  C:\Users\PCHAUT~1\AppData\Local\Temp\ccacj52E.s 			page 12


 563 005e 049B     		ldr	r3, [sp, #16]
 564 0060 0233     		adds	r3, r3, #2
 565 0062 049A     		ldr	r2, [sp, #16]
 566 0064 5279     		ldrb	r2, [r2, #5]	@ zero_extendqisi2
 567 0066 1A70     		strb	r2, [r3]
 568              		.loc 1 190 0
 569 0068 049B     		ldr	r3, [sp, #16]
 570 006a 0533     		adds	r3, r3, #5
 571 006c 9DF80F20 		ldrb	r2, [sp, #15]
 572 0070 1A70     		strb	r2, [r3]
 573              		.loc 1 192 0
 574 0072 049B     		ldr	r3, [sp, #16]
 575 0074 DB78     		ldrb	r3, [r3, #3]
 576 0076 8DF80F30 		strb	r3, [sp, #15]
 577              		.loc 1 193 0
 578 007a 049B     		ldr	r3, [sp, #16]
 579 007c 0333     		adds	r3, r3, #3
 580 007e 049A     		ldr	r2, [sp, #16]
 581 0080 1279     		ldrb	r2, [r2, #4]	@ zero_extendqisi2
 582 0082 1A70     		strb	r2, [r3]
 583              		.loc 1 194 0
 584 0084 049B     		ldr	r3, [sp, #16]
 585 0086 0433     		adds	r3, r3, #4
 586 0088 9DF80F20 		ldrb	r2, [sp, #15]
 587 008c 1A70     		strb	r2, [r3]
 588              	.L26:
 589              	.LBE6:
 590              		.loc 1 197 0
 591 008e DDE90034 		ldrd	r3, [sp]
 592 0092 44EC173B 		vmov	d7, r3, r4
 593              		.loc 1 198 0
 594 0096 B0EE470A 		vmov.f32	s0, s14
 595 009a F0EE670A 		vmov.f32	s1, s15
 596 009e 044B     		ldr	r3, .L29
 597 00a0 059A     		ldr	r2, [sp, #20]
 598 00a2 1B68     		ldr	r3, [r3]
 599 00a4 9A42     		cmp	r2, r3
 600 00a6 01D0     		beq	.L28
 601 00a8 FFF7FEFF 		bl	__stack_chk_fail
 602              	.L28:
 603 00ac 06B0     		add	sp, sp, #24
 604              		.cfi_def_cfa_offset 8
 605              		@ sp needed
 606 00ae 10BD     		pop	{r4, pc}
 607              	.L30:
 608              		.align	2
 609              	.L29:
 610 00b0 00000000 		.word	__stack_chk_guard
 611 00b4 00000000 		.word	_i
 612              		.cfi_endproc
 613              	.LFE4:
 614              		.size	bedouble, .-bedouble
 615              		.section	.text.read_byte,"ax",%progbits
 616              		.align	1
 617              		.p2align 4,,15
 618              		.syntax unified
 619              		.thumb
ARM GAS  C:\Users\PCHAUT~1\AppData\Local\Temp\ccacj52E.s 			page 13


 620              		.thumb_func
 621              		.fpu fpv4-sp-d16
 622              		.type	read_byte, %function
 623              	read_byte:
 624              	.LFB5:
 625              		.loc 1 200 0
 626              		.cfi_startproc
 627              		@ args = 0, pretend = 0, frame = 16
 628              		@ frame_needed = 0, uses_anonymous_args = 0
 629 0000 00B5     		push	{lr}
 630              		.cfi_def_cfa_offset 4
 631              		.cfi_offset 14, -4
 632 0002 85B0     		sub	sp, sp, #20
 633              		.cfi_def_cfa_offset 24
 634 0004 0190     		str	r0, [sp, #4]
 635 0006 0091     		str	r1, [sp]
 636              		.loc 1 200 0
 637 0008 0A4B     		ldr	r3, .L34
 638 000a 1B68     		ldr	r3, [r3]
 639 000c 0393     		str	r3, [sp, #12]
 640              		.loc 1 201 0
 641 000e 019B     		ldr	r3, [sp, #4]
 642 0010 9B68     		ldr	r3, [r3, #8]
 643 0012 0122     		movs	r2, #1
 644 0014 0099     		ldr	r1, [sp]
 645 0016 0198     		ldr	r0, [sp, #4]
 646 0018 9847     		blx	r3
 647              	.LVL0:
 648 001a 0346     		mov	r3, r0
 649              		.loc 1 202 0
 650 001c 1846     		mov	r0, r3
 651 001e 054B     		ldr	r3, .L34
 652 0020 039A     		ldr	r2, [sp, #12]
 653 0022 1B68     		ldr	r3, [r3]
 654 0024 9A42     		cmp	r2, r3
 655 0026 01D0     		beq	.L33
 656 0028 FFF7FEFF 		bl	__stack_chk_fail
 657              	.L33:
 658 002c 05B0     		add	sp, sp, #20
 659              		.cfi_def_cfa_offset 4
 660              		@ sp needed
 661 002e 5DF804FB 		ldr	pc, [sp], #4
 662              	.L35:
 663 0032 00BF     		.align	2
 664              	.L34:
 665 0034 00000000 		.word	__stack_chk_guard
 666              		.cfi_endproc
 667              	.LFE5:
 668              		.size	read_byte, .-read_byte
 669              		.section	.text.write_byte,"ax",%progbits
 670              		.align	1
 671              		.p2align 4,,15
 672              		.syntax unified
 673              		.thumb
 674              		.thumb_func
 675              		.fpu fpv4-sp-d16
 676              		.type	write_byte, %function
ARM GAS  C:\Users\PCHAUT~1\AppData\Local\Temp\ccacj52E.s 			page 14


 677              	write_byte:
 678              	.LFB6:
 679              		.loc 1 204 0
 680              		.cfi_startproc
 681              		@ args = 0, pretend = 0, frame = 16
 682              		@ frame_needed = 0, uses_anonymous_args = 0
 683 0000 00B5     		push	{lr}
 684              		.cfi_def_cfa_offset 4
 685              		.cfi_offset 14, -4
 686 0002 85B0     		sub	sp, sp, #20
 687              		.cfi_def_cfa_offset 24
 688 0004 0190     		str	r0, [sp, #4]
 689 0006 0B46     		mov	r3, r1
 690 0008 8DF80330 		strb	r3, [sp, #3]
 691              		.loc 1 204 0
 692 000c 0D4B     		ldr	r3, .L39
 693 000e 1B68     		ldr	r3, [r3]
 694 0010 0393     		str	r3, [sp, #12]
 695              		.loc 1 205 0
 696 0012 019B     		ldr	r3, [sp, #4]
 697 0014 DB68     		ldr	r3, [r3, #12]
 698 0016 0DF10301 		add	r1, sp, #3
 699 001a 0122     		movs	r2, #1
 700 001c 0198     		ldr	r0, [sp, #4]
 701 001e 9847     		blx	r3
 702              	.LVL1:
 703 0020 0346     		mov	r3, r0
 704 0022 012B     		cmp	r3, #1
 705 0024 0CBF     		ite	eq
 706 0026 0123     		moveq	r3, #1
 707 0028 0023     		movne	r3, #0
 708 002a DBB2     		uxtb	r3, r3
 709              		.loc 1 206 0
 710 002c 1846     		mov	r0, r3
 711 002e 054B     		ldr	r3, .L39
 712 0030 039A     		ldr	r2, [sp, #12]
 713 0032 1B68     		ldr	r3, [r3]
 714 0034 9A42     		cmp	r2, r3
 715 0036 01D0     		beq	.L38
 716 0038 FFF7FEFF 		bl	__stack_chk_fail
 717              	.L38:
 718 003c 05B0     		add	sp, sp, #20
 719              		.cfi_def_cfa_offset 4
 720              		@ sp needed
 721 003e 5DF804FB 		ldr	pc, [sp], #4
 722              	.L40:
 723 0042 00BF     		.align	2
 724              	.L39:
 725 0044 00000000 		.word	__stack_chk_guard
 726              		.cfi_endproc
 727              	.LFE6:
 728              		.size	write_byte, .-write_byte
 729              		.section	.text.read_type_marker,"ax",%progbits
 730              		.align	1
 731              		.p2align 4,,15
 732              		.syntax unified
 733              		.thumb
ARM GAS  C:\Users\PCHAUT~1\AppData\Local\Temp\ccacj52E.s 			page 15


 734              		.thumb_func
 735              		.fpu fpv4-sp-d16
 736              		.type	read_type_marker, %function
 737              	read_type_marker:
 738              	.LFB7:
 739              		.loc 1 208 0
 740              		.cfi_startproc
 741              		@ args = 0, pretend = 0, frame = 16
 742              		@ frame_needed = 0, uses_anonymous_args = 0
 743 0000 00B5     		push	{lr}
 744              		.cfi_def_cfa_offset 4
 745              		.cfi_offset 14, -4
 746 0002 85B0     		sub	sp, sp, #20
 747              		.cfi_def_cfa_offset 24
 748 0004 0190     		str	r0, [sp, #4]
 749 0006 0091     		str	r1, [sp]
 750              		.loc 1 208 0
 751 0008 0D4B     		ldr	r3, .L45
 752 000a 1B68     		ldr	r3, [r3]
 753 000c 0393     		str	r3, [sp, #12]
 754              		.loc 1 209 0
 755 000e 0099     		ldr	r1, [sp]
 756 0010 0198     		ldr	r0, [sp, #4]
 757 0012 FFF7FEFF 		bl	read_byte
 758 0016 0346     		mov	r3, r0
 759 0018 002B     		cmp	r3, #0
 760 001a 01D0     		beq	.L42
 761              		.loc 1 210 0
 762 001c 0123     		movs	r3, #1
 763 001e 03E0     		b	.L43
 764              	.L42:
 765              		.loc 1 212 0
 766 0020 019B     		ldr	r3, [sp, #4]
 767 0022 0722     		movs	r2, #7
 768 0024 1A70     		strb	r2, [r3]
 769              		.loc 1 213 0
 770 0026 0023     		movs	r3, #0
 771              	.L43:
 772              		.loc 1 214 0
 773 0028 1846     		mov	r0, r3
 774 002a 054B     		ldr	r3, .L45
 775 002c 039A     		ldr	r2, [sp, #12]
 776 002e 1B68     		ldr	r3, [r3]
 777 0030 9A42     		cmp	r2, r3
 778 0032 01D0     		beq	.L44
 779 0034 FFF7FEFF 		bl	__stack_chk_fail
 780              	.L44:
 781 0038 05B0     		add	sp, sp, #20
 782              		.cfi_def_cfa_offset 4
 783              		@ sp needed
 784 003a 5DF804FB 		ldr	pc, [sp], #4
 785              	.L46:
 786 003e 00BF     		.align	2
 787              	.L45:
 788 0040 00000000 		.word	__stack_chk_guard
 789              		.cfi_endproc
 790              	.LFE7:
ARM GAS  C:\Users\PCHAUT~1\AppData\Local\Temp\ccacj52E.s 			page 16


 791              		.size	read_type_marker, .-read_type_marker
 792              		.section	.text.write_type_marker,"ax",%progbits
 793              		.align	1
 794              		.p2align 4,,15
 795              		.syntax unified
 796              		.thumb
 797              		.thumb_func
 798              		.fpu fpv4-sp-d16
 799              		.type	write_type_marker, %function
 800              	write_type_marker:
 801              	.LFB8:
 802              		.loc 1 216 0
 803              		.cfi_startproc
 804              		@ args = 0, pretend = 0, frame = 16
 805              		@ frame_needed = 0, uses_anonymous_args = 0
 806 0000 00B5     		push	{lr}
 807              		.cfi_def_cfa_offset 4
 808              		.cfi_offset 14, -4
 809 0002 85B0     		sub	sp, sp, #20
 810              		.cfi_def_cfa_offset 24
 811 0004 0190     		str	r0, [sp, #4]
 812 0006 0B46     		mov	r3, r1
 813 0008 8DF80330 		strb	r3, [sp, #3]
 814              		.loc 1 216 0
 815 000c 0E4B     		ldr	r3, .L51
 816 000e 1B68     		ldr	r3, [r3]
 817 0010 0393     		str	r3, [sp, #12]
 818              		.loc 1 217 0
 819 0012 9DF80330 		ldrb	r3, [sp, #3]	@ zero_extendqisi2
 820 0016 1946     		mov	r1, r3
 821 0018 0198     		ldr	r0, [sp, #4]
 822 001a FFF7FEFF 		bl	write_byte
 823 001e 0346     		mov	r3, r0
 824 0020 002B     		cmp	r3, #0
 825 0022 01D0     		beq	.L48
 826              		.loc 1 218 0
 827 0024 0123     		movs	r3, #1
 828 0026 03E0     		b	.L49
 829              	.L48:
 830              		.loc 1 220 0
 831 0028 019B     		ldr	r3, [sp, #4]
 832 002a 0822     		movs	r2, #8
 833 002c 1A70     		strb	r2, [r3]
 834              		.loc 1 221 0
 835 002e 0023     		movs	r3, #0
 836              	.L49:
 837              		.loc 1 222 0
 838 0030 1846     		mov	r0, r3
 839 0032 054B     		ldr	r3, .L51
 840 0034 039A     		ldr	r2, [sp, #12]
 841 0036 1B68     		ldr	r3, [r3]
 842 0038 9A42     		cmp	r2, r3
 843 003a 01D0     		beq	.L50
 844 003c FFF7FEFF 		bl	__stack_chk_fail
 845              	.L50:
 846 0040 05B0     		add	sp, sp, #20
 847              		.cfi_def_cfa_offset 4
ARM GAS  C:\Users\PCHAUT~1\AppData\Local\Temp\ccacj52E.s 			page 17


 848              		@ sp needed
 849 0042 5DF804FB 		ldr	pc, [sp], #4
 850              	.L52:
 851 0046 00BF     		.align	2
 852              	.L51:
 853 0048 00000000 		.word	__stack_chk_guard
 854              		.cfi_endproc
 855              	.LFE8:
 856              		.size	write_type_marker, .-write_type_marker
 857              		.section	.text.write_fixed_value,"ax",%progbits
 858              		.align	1
 859              		.p2align 4,,15
 860              		.syntax unified
 861              		.thumb
 862              		.thumb_func
 863              		.fpu fpv4-sp-d16
 864              		.type	write_fixed_value, %function
 865              	write_fixed_value:
 866              	.LFB9:
 867              		.loc 1 224 0
 868              		.cfi_startproc
 869              		@ args = 0, pretend = 0, frame = 16
 870              		@ frame_needed = 0, uses_anonymous_args = 0
 871 0000 00B5     		push	{lr}
 872              		.cfi_def_cfa_offset 4
 873              		.cfi_offset 14, -4
 874 0002 85B0     		sub	sp, sp, #20
 875              		.cfi_def_cfa_offset 24
 876 0004 0190     		str	r0, [sp, #4]
 877 0006 0B46     		mov	r3, r1
 878 0008 8DF80330 		strb	r3, [sp, #3]
 879              		.loc 1 224 0
 880 000c 0E4B     		ldr	r3, .L57
 881 000e 1B68     		ldr	r3, [r3]
 882 0010 0393     		str	r3, [sp, #12]
 883              		.loc 1 225 0
 884 0012 9DF80330 		ldrb	r3, [sp, #3]	@ zero_extendqisi2
 885 0016 1946     		mov	r1, r3
 886 0018 0198     		ldr	r0, [sp, #4]
 887 001a FFF7FEFF 		bl	write_byte
 888 001e 0346     		mov	r3, r0
 889 0020 002B     		cmp	r3, #0
 890 0022 01D0     		beq	.L54
 891              		.loc 1 226 0
 892 0024 0123     		movs	r3, #1
 893 0026 03E0     		b	.L55
 894              	.L54:
 895              		.loc 1 228 0
 896 0028 019B     		ldr	r3, [sp, #4]
 897 002a 0622     		movs	r2, #6
 898 002c 1A70     		strb	r2, [r3]
 899              		.loc 1 229 0
 900 002e 0023     		movs	r3, #0
 901              	.L55:
 902              		.loc 1 230 0
 903 0030 1846     		mov	r0, r3
 904 0032 054B     		ldr	r3, .L57
ARM GAS  C:\Users\PCHAUT~1\AppData\Local\Temp\ccacj52E.s 			page 18


 905 0034 039A     		ldr	r2, [sp, #12]
 906 0036 1B68     		ldr	r3, [r3]
 907 0038 9A42     		cmp	r2, r3
 908 003a 01D0     		beq	.L56
 909 003c FFF7FEFF 		bl	__stack_chk_fail
 910              	.L56:
 911 0040 05B0     		add	sp, sp, #20
 912              		.cfi_def_cfa_offset 4
 913              		@ sp needed
 914 0042 5DF804FB 		ldr	pc, [sp], #4
 915              	.L58:
 916 0046 00BF     		.align	2
 917              	.L57:
 918 0048 00000000 		.word	__stack_chk_guard
 919              		.cfi_endproc
 920              	.LFE9:
 921              		.size	write_fixed_value, .-write_fixed_value
 922              		.section	.text.cmp_init,"ax",%progbits
 923              		.align	1
 924              		.p2align 4,,15
 925              		.global	cmp_init
 926              		.syntax unified
 927              		.thumb
 928              		.thumb_func
 929              		.fpu fpv4-sp-d16
 930              		.type	cmp_init, %function
 931              	cmp_init:
 932              	.LFB10:
 933              		.loc 1 232 0
 934              		.cfi_startproc
 935              		@ args = 0, pretend = 0, frame = 24
 936              		@ frame_needed = 0, uses_anonymous_args = 0
 937 0000 00B5     		push	{lr}
 938              		.cfi_def_cfa_offset 4
 939              		.cfi_offset 14, -4
 940 0002 87B0     		sub	sp, sp, #28
 941              		.cfi_def_cfa_offset 32
 942 0004 0390     		str	r0, [sp, #12]
 943 0006 0291     		str	r1, [sp, #8]
 944 0008 0192     		str	r2, [sp, #4]
 945 000a 0093     		str	r3, [sp]
 946              		.loc 1 232 0
 947 000c 0C4B     		ldr	r3, .L61
 948 000e 1B68     		ldr	r3, [r3]
 949 0010 0593     		str	r3, [sp, #20]
 950              		.loc 1 233 0
 951 0012 039B     		ldr	r3, [sp, #12]
 952 0014 0022     		movs	r2, #0
 953 0016 1A70     		strb	r2, [r3]
 954              		.loc 1 234 0
 955 0018 039B     		ldr	r3, [sp, #12]
 956 001a 029A     		ldr	r2, [sp, #8]
 957 001c 5A60     		str	r2, [r3, #4]
 958              		.loc 1 235 0
 959 001e 039B     		ldr	r3, [sp, #12]
 960 0020 019A     		ldr	r2, [sp, #4]
 961 0022 9A60     		str	r2, [r3, #8]
ARM GAS  C:\Users\PCHAUT~1\AppData\Local\Temp\ccacj52E.s 			page 19


 962              		.loc 1 236 0
 963 0024 039B     		ldr	r3, [sp, #12]
 964 0026 009A     		ldr	r2, [sp]
 965 0028 DA60     		str	r2, [r3, #12]
 966              		.loc 1 237 0
 967 002a 00BF     		nop
 968 002c 044B     		ldr	r3, .L61
 969 002e 059A     		ldr	r2, [sp, #20]
 970 0030 1B68     		ldr	r3, [r3]
 971 0032 9A42     		cmp	r2, r3
 972 0034 01D0     		beq	.L60
 973 0036 FFF7FEFF 		bl	__stack_chk_fail
 974              	.L60:
 975 003a 07B0     		add	sp, sp, #28
 976              		.cfi_def_cfa_offset 4
 977              		@ sp needed
 978 003c 5DF804FB 		ldr	pc, [sp], #4
 979              	.L62:
 980              		.align	2
 981              	.L61:
 982 0040 00000000 		.word	__stack_chk_guard
 983              		.cfi_endproc
 984              	.LFE10:
 985              		.size	cmp_init, .-cmp_init
 986              		.section	.text.cmp_version,"ax",%progbits
 987              		.align	1
 988              		.p2align 4,,15
 989              		.global	cmp_version
 990              		.syntax unified
 991              		.thumb
 992              		.thumb_func
 993              		.fpu fpv4-sp-d16
 994              		.type	cmp_version, %function
 995              	cmp_version:
 996              	.LFB11:
 997              		.loc 1 239 0
 998              		.cfi_startproc
 999              		@ args = 0, pretend = 0, frame = 8
 1000              		@ frame_needed = 0, uses_anonymous_args = 0
 1001 0000 00B5     		push	{lr}
 1002              		.cfi_def_cfa_offset 4
 1003              		.cfi_offset 14, -4
 1004 0002 83B0     		sub	sp, sp, #12
 1005              		.cfi_def_cfa_offset 16
 1006              		.loc 1 239 0
 1007 0004 074B     		ldr	r3, .L66
 1008 0006 1B68     		ldr	r3, [r3]
 1009 0008 0193     		str	r3, [sp, #4]
 1010              		.loc 1 240 0
 1011 000a 0A23     		movs	r3, #10
 1012              		.loc 1 241 0
 1013 000c 1846     		mov	r0, r3
 1014 000e 054B     		ldr	r3, .L66
 1015 0010 019A     		ldr	r2, [sp, #4]
 1016 0012 1B68     		ldr	r3, [r3]
 1017 0014 9A42     		cmp	r2, r3
 1018 0016 01D0     		beq	.L65
ARM GAS  C:\Users\PCHAUT~1\AppData\Local\Temp\ccacj52E.s 			page 20


 1019 0018 FFF7FEFF 		bl	__stack_chk_fail
 1020              	.L65:
 1021 001c 03B0     		add	sp, sp, #12
 1022              		.cfi_def_cfa_offset 4
 1023              		@ sp needed
 1024 001e 5DF804FB 		ldr	pc, [sp], #4
 1025              	.L67:
 1026 0022 00BF     		.align	2
 1027              	.L66:
 1028 0024 00000000 		.word	__stack_chk_guard
 1029              		.cfi_endproc
 1030              	.LFE11:
 1031              		.size	cmp_version, .-cmp_version
 1032              		.section	.text.cmp_mp_version,"ax",%progbits
 1033              		.align	1
 1034              		.p2align 4,,15
 1035              		.global	cmp_mp_version
 1036              		.syntax unified
 1037              		.thumb
 1038              		.thumb_func
 1039              		.fpu fpv4-sp-d16
 1040              		.type	cmp_mp_version, %function
 1041              	cmp_mp_version:
 1042              	.LFB12:
 1043              		.loc 1 243 0
 1044              		.cfi_startproc
 1045              		@ args = 0, pretend = 0, frame = 8
 1046              		@ frame_needed = 0, uses_anonymous_args = 0
 1047 0000 00B5     		push	{lr}
 1048              		.cfi_def_cfa_offset 4
 1049              		.cfi_offset 14, -4
 1050 0002 83B0     		sub	sp, sp, #12
 1051              		.cfi_def_cfa_offset 16
 1052              		.loc 1 243 0
 1053 0004 074B     		ldr	r3, .L71
 1054 0006 1B68     		ldr	r3, [r3]
 1055 0008 0193     		str	r3, [sp, #4]
 1056              		.loc 1 244 0
 1057 000a 0523     		movs	r3, #5
 1058              		.loc 1 245 0
 1059 000c 1846     		mov	r0, r3
 1060 000e 054B     		ldr	r3, .L71
 1061 0010 019A     		ldr	r2, [sp, #4]
 1062 0012 1B68     		ldr	r3, [r3]
 1063 0014 9A42     		cmp	r2, r3
 1064 0016 01D0     		beq	.L70
 1065 0018 FFF7FEFF 		bl	__stack_chk_fail
 1066              	.L70:
 1067 001c 03B0     		add	sp, sp, #12
 1068              		.cfi_def_cfa_offset 4
 1069              		@ sp needed
 1070 001e 5DF804FB 		ldr	pc, [sp], #4
 1071              	.L72:
 1072 0022 00BF     		.align	2
 1073              	.L71:
 1074 0024 00000000 		.word	__stack_chk_guard
 1075              		.cfi_endproc
ARM GAS  C:\Users\PCHAUT~1\AppData\Local\Temp\ccacj52E.s 			page 21


 1076              	.LFE12:
 1077              		.size	cmp_mp_version, .-cmp_mp_version
 1078              		.section	.rodata
 1079 01fa 0000     		.align	2
 1080              	.LC17:
 1081 01fc 00       		.ascii	"\000"
 1082              		.section	.text.cmp_strerror,"ax",%progbits
 1083              		.align	1
 1084              		.p2align 4,,15
 1085              		.global	cmp_strerror
 1086              		.syntax unified
 1087              		.thumb
 1088              		.thumb_func
 1089              		.fpu fpv4-sp-d16
 1090              		.type	cmp_strerror, %function
 1091              	cmp_strerror:
 1092              	.LFB13:
 1093              		.loc 1 247 0
 1094              		.cfi_startproc
 1095              		@ args = 0, pretend = 0, frame = 16
 1096              		@ frame_needed = 0, uses_anonymous_args = 0
 1097 0000 00B5     		push	{lr}
 1098              		.cfi_def_cfa_offset 4
 1099              		.cfi_offset 14, -4
 1100 0002 85B0     		sub	sp, sp, #20
 1101              		.cfi_def_cfa_offset 24
 1102 0004 0190     		str	r0, [sp, #4]
 1103              		.loc 1 247 0
 1104 0006 0F4B     		ldr	r3, .L77
 1105 0008 1B68     		ldr	r3, [r3]
 1106 000a 0393     		str	r3, [sp, #12]
 1107              		.loc 1 248 0
 1108 000c 019B     		ldr	r3, [sp, #4]
 1109 000e 1B78     		ldrb	r3, [r3]	@ zero_extendqisi2
 1110 0010 002B     		cmp	r3, #0
 1111 0012 0AD0     		beq	.L74
 1112              		.loc 1 248 0 is_stmt 0 discriminator 1
 1113 0014 019B     		ldr	r3, [sp, #4]
 1114 0016 1B78     		ldrb	r3, [r3]	@ zero_extendqisi2
 1115 0018 0F2B     		cmp	r3, #15
 1116 001a 06D8     		bhi	.L74
 1117              		.loc 1 249 0 is_stmt 1
 1118 001c 019B     		ldr	r3, [sp, #4]
 1119 001e 1B78     		ldrb	r3, [r3]	@ zero_extendqisi2
 1120 0020 1A46     		mov	r2, r3
 1121 0022 094B     		ldr	r3, .L77+4
 1122 0024 53F82230 		ldr	r3, [r3, r2, lsl #2]
 1123 0028 00E0     		b	.L75
 1124              	.L74:
 1125              		.loc 1 251 0
 1126 002a 084B     		ldr	r3, .L77+8
 1127              	.L75:
 1128              		.loc 1 252 0
 1129 002c 1846     		mov	r0, r3
 1130 002e 054B     		ldr	r3, .L77
 1131 0030 039A     		ldr	r2, [sp, #12]
 1132 0032 1B68     		ldr	r3, [r3]
ARM GAS  C:\Users\PCHAUT~1\AppData\Local\Temp\ccacj52E.s 			page 22


 1133 0034 9A42     		cmp	r2, r3
 1134 0036 01D0     		beq	.L76
 1135 0038 FFF7FEFF 		bl	__stack_chk_fail
 1136              	.L76:
 1137 003c 05B0     		add	sp, sp, #20
 1138              		.cfi_def_cfa_offset 4
 1139              		@ sp needed
 1140 003e 5DF804FB 		ldr	pc, [sp], #4
 1141              	.L78:
 1142 0042 00BF     		.align	2
 1143              	.L77:
 1144 0044 00000000 		.word	__stack_chk_guard
 1145 0048 00000000 		.word	cmp_error_messages
 1146 004c FC010000 		.word	.LC17
 1147              		.cfi_endproc
 1148              	.LFE13:
 1149              		.size	cmp_strerror, .-cmp_strerror
 1150              		.section	.text.cmp_write_pfix,"ax",%progbits
 1151              		.align	1
 1152              		.p2align 4,,15
 1153              		.global	cmp_write_pfix
 1154              		.syntax unified
 1155              		.thumb
 1156              		.thumb_func
 1157              		.fpu fpv4-sp-d16
 1158              		.type	cmp_write_pfix, %function
 1159              	cmp_write_pfix:
 1160              	.LFB14:
 1161              		.loc 1 254 0
 1162              		.cfi_startproc
 1163              		@ args = 0, pretend = 0, frame = 16
 1164              		@ frame_needed = 0, uses_anonymous_args = 0
 1165 0000 00B5     		push	{lr}
 1166              		.cfi_def_cfa_offset 4
 1167              		.cfi_offset 14, -4
 1168 0002 85B0     		sub	sp, sp, #20
 1169              		.cfi_def_cfa_offset 24
 1170 0004 0190     		str	r0, [sp, #4]
 1171 0006 0B46     		mov	r3, r1
 1172 0008 8DF80330 		strb	r3, [sp, #3]
 1173              		.loc 1 254 0
 1174 000c 0E4B     		ldr	r3, .L83
 1175 000e 1B68     		ldr	r3, [r3]
 1176 0010 0393     		str	r3, [sp, #12]
 1177              		.loc 1 255 0
 1178 0012 9DF90330 		ldrsb	r3, [sp, #3]
 1179 0016 002B     		cmp	r3, #0
 1180 0018 07DB     		blt	.L80
 1181              		.loc 1 256 0
 1182 001a 9DF80330 		ldrb	r3, [sp, #3]	@ zero_extendqisi2
 1183 001e 1946     		mov	r1, r3
 1184 0020 0198     		ldr	r0, [sp, #4]
 1185 0022 FFF7FEFF 		bl	write_fixed_value
 1186 0026 0346     		mov	r3, r0
 1187 0028 03E0     		b	.L81
 1188              	.L80:
 1189              		.loc 1 258 0
ARM GAS  C:\Users\PCHAUT~1\AppData\Local\Temp\ccacj52E.s 			page 23


 1190 002a 019B     		ldr	r3, [sp, #4]
 1191 002c 0522     		movs	r2, #5
 1192 002e 1A70     		strb	r2, [r3]
 1193              		.loc 1 259 0
 1194 0030 0023     		movs	r3, #0
 1195              	.L81:
 1196              		.loc 1 260 0
 1197 0032 1846     		mov	r0, r3
 1198 0034 044B     		ldr	r3, .L83
 1199 0036 039A     		ldr	r2, [sp, #12]
 1200 0038 1B68     		ldr	r3, [r3]
 1201 003a 9A42     		cmp	r2, r3
 1202 003c 01D0     		beq	.L82
 1203 003e FFF7FEFF 		bl	__stack_chk_fail
 1204              	.L82:
 1205 0042 05B0     		add	sp, sp, #20
 1206              		.cfi_def_cfa_offset 4
 1207              		@ sp needed
 1208 0044 5DF804FB 		ldr	pc, [sp], #4
 1209              	.L84:
 1210              		.align	2
 1211              	.L83:
 1212 0048 00000000 		.word	__stack_chk_guard
 1213              		.cfi_endproc
 1214              	.LFE14:
 1215              		.size	cmp_write_pfix, .-cmp_write_pfix
 1216              		.section	.text.cmp_write_nfix,"ax",%progbits
 1217              		.align	1
 1218              		.p2align 4,,15
 1219              		.global	cmp_write_nfix
 1220              		.syntax unified
 1221              		.thumb
 1222              		.thumb_func
 1223              		.fpu fpv4-sp-d16
 1224              		.type	cmp_write_nfix, %function
 1225              	cmp_write_nfix:
 1226              	.LFB15:
 1227              		.loc 1 262 0
 1228              		.cfi_startproc
 1229              		@ args = 0, pretend = 0, frame = 16
 1230              		@ frame_needed = 0, uses_anonymous_args = 0
 1231 0000 00B5     		push	{lr}
 1232              		.cfi_def_cfa_offset 4
 1233              		.cfi_offset 14, -4
 1234 0002 85B0     		sub	sp, sp, #20
 1235              		.cfi_def_cfa_offset 24
 1236 0004 0190     		str	r0, [sp, #4]
 1237 0006 0B46     		mov	r3, r1
 1238 0008 8DF80330 		strb	r3, [sp, #3]
 1239              		.loc 1 262 0
 1240 000c 114B     		ldr	r3, .L89
 1241 000e 1B68     		ldr	r3, [r3]
 1242 0010 0393     		str	r3, [sp, #12]
 1243              		.loc 1 263 0
 1244 0012 9DF90330 		ldrsb	r3, [sp, #3]
 1245 0016 13F1200F 		cmn	r3, #32
 1246 001a 0BDB     		blt	.L86
ARM GAS  C:\Users\PCHAUT~1\AppData\Local\Temp\ccacj52E.s 			page 24


 1247              		.loc 1 263 0 is_stmt 0 discriminator 1
 1248 001c 9DF90330 		ldrsb	r3, [sp, #3]
 1249 0020 002B     		cmp	r3, #0
 1250 0022 07DA     		bge	.L86
 1251              		.loc 1 264 0 is_stmt 1
 1252 0024 9DF80330 		ldrb	r3, [sp, #3]	@ zero_extendqisi2
 1253 0028 1946     		mov	r1, r3
 1254 002a 0198     		ldr	r0, [sp, #4]
 1255 002c FFF7FEFF 		bl	write_fixed_value
 1256 0030 0346     		mov	r3, r0
 1257 0032 03E0     		b	.L87
 1258              	.L86:
 1259              		.loc 1 266 0
 1260 0034 019B     		ldr	r3, [sp, #4]
 1261 0036 0522     		movs	r2, #5
 1262 0038 1A70     		strb	r2, [r3]
 1263              		.loc 1 267 0
 1264 003a 0023     		movs	r3, #0
 1265              	.L87:
 1266              		.loc 1 268 0
 1267 003c 1846     		mov	r0, r3
 1268 003e 054B     		ldr	r3, .L89
 1269 0040 039A     		ldr	r2, [sp, #12]
 1270 0042 1B68     		ldr	r3, [r3]
 1271 0044 9A42     		cmp	r2, r3
 1272 0046 01D0     		beq	.L88
 1273 0048 FFF7FEFF 		bl	__stack_chk_fail
 1274              	.L88:
 1275 004c 05B0     		add	sp, sp, #20
 1276              		.cfi_def_cfa_offset 4
 1277              		@ sp needed
 1278 004e 5DF804FB 		ldr	pc, [sp], #4
 1279              	.L90:
 1280 0052 00BF     		.align	2
 1281              	.L89:
 1282 0054 00000000 		.word	__stack_chk_guard
 1283              		.cfi_endproc
 1284              	.LFE15:
 1285              		.size	cmp_write_nfix, .-cmp_write_nfix
 1286              		.section	.text.cmp_write_sfix,"ax",%progbits
 1287              		.align	1
 1288              		.p2align 4,,15
 1289              		.global	cmp_write_sfix
 1290              		.syntax unified
 1291              		.thumb
 1292              		.thumb_func
 1293              		.fpu fpv4-sp-d16
 1294              		.type	cmp_write_sfix, %function
 1295              	cmp_write_sfix:
 1296              	.LFB16:
 1297              		.loc 1 270 0
 1298              		.cfi_startproc
 1299              		@ args = 0, pretend = 0, frame = 16
 1300              		@ frame_needed = 0, uses_anonymous_args = 0
 1301 0000 00B5     		push	{lr}
 1302              		.cfi_def_cfa_offset 4
 1303              		.cfi_offset 14, -4
ARM GAS  C:\Users\PCHAUT~1\AppData\Local\Temp\ccacj52E.s 			page 25


 1304 0002 85B0     		sub	sp, sp, #20
 1305              		.cfi_def_cfa_offset 24
 1306 0004 0190     		str	r0, [sp, #4]
 1307 0006 0B46     		mov	r3, r1
 1308 0008 8DF80330 		strb	r3, [sp, #3]
 1309              		.loc 1 270 0
 1310 000c 174B     		ldr	r3, .L96
 1311 000e 1B68     		ldr	r3, [r3]
 1312 0010 0393     		str	r3, [sp, #12]
 1313              		.loc 1 271 0
 1314 0012 9DF90330 		ldrsb	r3, [sp, #3]
 1315 0016 002B     		cmp	r3, #0
 1316 0018 07DB     		blt	.L92
 1317              		.loc 1 272 0
 1318 001a 9DF80330 		ldrb	r3, [sp, #3]	@ zero_extendqisi2
 1319 001e 1946     		mov	r1, r3
 1320 0020 0198     		ldr	r0, [sp, #4]
 1321 0022 FFF7FEFF 		bl	cmp_write_pfix
 1322 0026 0346     		mov	r3, r0
 1323 0028 14E0     		b	.L93
 1324              	.L92:
 1325              		.loc 1 273 0
 1326 002a 9DF90330 		ldrsb	r3, [sp, #3]
 1327 002e 13F1200F 		cmn	r3, #32
 1328 0032 0BDB     		blt	.L94
 1329              		.loc 1 273 0 is_stmt 0 discriminator 1
 1330 0034 9DF90330 		ldrsb	r3, [sp, #3]
 1331 0038 002B     		cmp	r3, #0
 1332 003a 07DA     		bge	.L94
 1333              		.loc 1 274 0 is_stmt 1
 1334 003c 9DF90330 		ldrsb	r3, [sp, #3]
 1335 0040 1946     		mov	r1, r3
 1336 0042 0198     		ldr	r0, [sp, #4]
 1337 0044 FFF7FEFF 		bl	cmp_write_nfix
 1338 0048 0346     		mov	r3, r0
 1339 004a 03E0     		b	.L93
 1340              	.L94:
 1341              		.loc 1 276 0
 1342 004c 019B     		ldr	r3, [sp, #4]
 1343 004e 0522     		movs	r2, #5
 1344 0050 1A70     		strb	r2, [r3]
 1345              		.loc 1 277 0
 1346 0052 0023     		movs	r3, #0
 1347              	.L93:
 1348              		.loc 1 278 0
 1349 0054 1846     		mov	r0, r3
 1350 0056 054B     		ldr	r3, .L96
 1351 0058 039A     		ldr	r2, [sp, #12]
 1352 005a 1B68     		ldr	r3, [r3]
 1353 005c 9A42     		cmp	r2, r3
 1354 005e 01D0     		beq	.L95
 1355 0060 FFF7FEFF 		bl	__stack_chk_fail
 1356              	.L95:
 1357 0064 05B0     		add	sp, sp, #20
 1358              		.cfi_def_cfa_offset 4
 1359              		@ sp needed
 1360 0066 5DF804FB 		ldr	pc, [sp], #4
ARM GAS  C:\Users\PCHAUT~1\AppData\Local\Temp\ccacj52E.s 			page 26


 1361              	.L97:
 1362 006a 00BF     		.align	2
 1363              	.L96:
 1364 006c 00000000 		.word	__stack_chk_guard
 1365              		.cfi_endproc
 1366              	.LFE16:
 1367              		.size	cmp_write_sfix, .-cmp_write_sfix
 1368              		.section	.text.cmp_write_s8,"ax",%progbits
 1369              		.align	1
 1370              		.p2align 4,,15
 1371              		.global	cmp_write_s8
 1372              		.syntax unified
 1373              		.thumb
 1374              		.thumb_func
 1375              		.fpu fpv4-sp-d16
 1376              		.type	cmp_write_s8, %function
 1377              	cmp_write_s8:
 1378              	.LFB17:
 1379              		.loc 1 280 0
 1380              		.cfi_startproc
 1381              		@ args = 0, pretend = 0, frame = 16
 1382              		@ frame_needed = 0, uses_anonymous_args = 0
 1383 0000 00B5     		push	{lr}
 1384              		.cfi_def_cfa_offset 4
 1385              		.cfi_offset 14, -4
 1386 0002 85B0     		sub	sp, sp, #20
 1387              		.cfi_def_cfa_offset 24
 1388 0004 0190     		str	r0, [sp, #4]
 1389 0006 0B46     		mov	r3, r1
 1390 0008 8DF80330 		strb	r3, [sp, #3]
 1391              		.loc 1 280 0
 1392 000c 134B     		ldr	r3, .L102
 1393 000e 1B68     		ldr	r3, [r3]
 1394 0010 0393     		str	r3, [sp, #12]
 1395              		.loc 1 281 0
 1396 0012 D021     		movs	r1, #208
 1397 0014 0198     		ldr	r0, [sp, #4]
 1398 0016 FFF7FEFF 		bl	write_type_marker
 1399 001a 0346     		mov	r3, r0
 1400 001c 83F00103 		eor	r3, r3, #1
 1401 0020 DBB2     		uxtb	r3, r3
 1402 0022 002B     		cmp	r3, #0
 1403 0024 01D0     		beq	.L99
 1404              		.loc 1 282 0
 1405 0026 0023     		movs	r3, #0
 1406 0028 0CE0     		b	.L100
 1407              	.L99:
 1408              		.loc 1 284 0
 1409 002a 019B     		ldr	r3, [sp, #4]
 1410 002c DB68     		ldr	r3, [r3, #12]
 1411 002e 0DF10301 		add	r1, sp, #3
 1412 0032 0122     		movs	r2, #1
 1413 0034 0198     		ldr	r0, [sp, #4]
 1414 0036 9847     		blx	r3
 1415              	.LVL2:
 1416 0038 0346     		mov	r3, r0
 1417 003a 002B     		cmp	r3, #0
ARM GAS  C:\Users\PCHAUT~1\AppData\Local\Temp\ccacj52E.s 			page 27


 1418 003c 14BF     		ite	ne
 1419 003e 0123     		movne	r3, #1
 1420 0040 0023     		moveq	r3, #0
 1421 0042 DBB2     		uxtb	r3, r3
 1422              	.L100:
 1423              		.loc 1 285 0
 1424 0044 1846     		mov	r0, r3
 1425 0046 054B     		ldr	r3, .L102
 1426 0048 039A     		ldr	r2, [sp, #12]
 1427 004a 1B68     		ldr	r3, [r3]
 1428 004c 9A42     		cmp	r2, r3
 1429 004e 01D0     		beq	.L101
 1430 0050 FFF7FEFF 		bl	__stack_chk_fail
 1431              	.L101:
 1432 0054 05B0     		add	sp, sp, #20
 1433              		.cfi_def_cfa_offset 4
 1434              		@ sp needed
 1435 0056 5DF804FB 		ldr	pc, [sp], #4
 1436              	.L103:
 1437 005a 00BF     		.align	2
 1438              	.L102:
 1439 005c 00000000 		.word	__stack_chk_guard
 1440              		.cfi_endproc
 1441              	.LFE17:
 1442              		.size	cmp_write_s8, .-cmp_write_s8
 1443              		.section	.text.cmp_write_s16,"ax",%progbits
 1444              		.align	1
 1445              		.p2align 4,,15
 1446              		.global	cmp_write_s16
 1447              		.syntax unified
 1448              		.thumb
 1449              		.thumb_func
 1450              		.fpu fpv4-sp-d16
 1451              		.type	cmp_write_s16, %function
 1452              	cmp_write_s16:
 1453              	.LFB18:
 1454              		.loc 1 287 0
 1455              		.cfi_startproc
 1456              		@ args = 0, pretend = 0, frame = 16
 1457              		@ frame_needed = 0, uses_anonymous_args = 0
 1458 0000 00B5     		push	{lr}
 1459              		.cfi_def_cfa_offset 4
 1460              		.cfi_offset 14, -4
 1461 0002 85B0     		sub	sp, sp, #20
 1462              		.cfi_def_cfa_offset 24
 1463 0004 0190     		str	r0, [sp, #4]
 1464 0006 0B46     		mov	r3, r1
 1465 0008 ADF80230 		strh	r3, [sp, #2]	@ movhi
 1466              		.loc 1 287 0
 1467 000c 184B     		ldr	r3, .L108
 1468 000e 1B68     		ldr	r3, [r3]
 1469 0010 0393     		str	r3, [sp, #12]
 1470              		.loc 1 288 0
 1471 0012 D121     		movs	r1, #209
 1472 0014 0198     		ldr	r0, [sp, #4]
 1473 0016 FFF7FEFF 		bl	write_type_marker
 1474 001a 0346     		mov	r3, r0
ARM GAS  C:\Users\PCHAUT~1\AppData\Local\Temp\ccacj52E.s 			page 28


 1475 001c 83F00103 		eor	r3, r3, #1
 1476 0020 DBB2     		uxtb	r3, r3
 1477 0022 002B     		cmp	r3, #0
 1478 0024 01D0     		beq	.L105
 1479              		.loc 1 289 0
 1480 0026 0023     		movs	r3, #0
 1481 0028 16E0     		b	.L106
 1482              	.L105:
 1483              		.loc 1 291 0
 1484 002a BDF90230 		ldrsh	r3, [sp, #2]
 1485 002e 9BB2     		uxth	r3, r3
 1486 0030 1846     		mov	r0, r3
 1487 0032 FFF7FEFF 		bl	be16
 1488 0036 0346     		mov	r3, r0
 1489 0038 1BB2     		sxth	r3, r3
 1490 003a ADF80230 		strh	r3, [sp, #2]	@ movhi
 1491              		.loc 1 293 0
 1492 003e 019B     		ldr	r3, [sp, #4]
 1493 0040 DB68     		ldr	r3, [r3, #12]
 1494 0042 0DF10201 		add	r1, sp, #2
 1495 0046 0222     		movs	r2, #2
 1496 0048 0198     		ldr	r0, [sp, #4]
 1497 004a 9847     		blx	r3
 1498              	.LVL3:
 1499 004c 0346     		mov	r3, r0
 1500 004e 002B     		cmp	r3, #0
 1501 0050 14BF     		ite	ne
 1502 0052 0123     		movne	r3, #1
 1503 0054 0023     		moveq	r3, #0
 1504 0056 DBB2     		uxtb	r3, r3
 1505              	.L106:
 1506              		.loc 1 294 0
 1507 0058 1846     		mov	r0, r3
 1508 005a 054B     		ldr	r3, .L108
 1509 005c 039A     		ldr	r2, [sp, #12]
 1510 005e 1B68     		ldr	r3, [r3]
 1511 0060 9A42     		cmp	r2, r3
 1512 0062 01D0     		beq	.L107
 1513 0064 FFF7FEFF 		bl	__stack_chk_fail
 1514              	.L107:
 1515 0068 05B0     		add	sp, sp, #20
 1516              		.cfi_def_cfa_offset 4
 1517              		@ sp needed
 1518 006a 5DF804FB 		ldr	pc, [sp], #4
 1519              	.L109:
 1520 006e 00BF     		.align	2
 1521              	.L108:
 1522 0070 00000000 		.word	__stack_chk_guard
 1523              		.cfi_endproc
 1524              	.LFE18:
 1525              		.size	cmp_write_s16, .-cmp_write_s16
 1526              		.section	.text.cmp_write_s32,"ax",%progbits
 1527              		.align	1
 1528              		.p2align 4,,15
 1529              		.global	cmp_write_s32
 1530              		.syntax unified
 1531              		.thumb
ARM GAS  C:\Users\PCHAUT~1\AppData\Local\Temp\ccacj52E.s 			page 29


 1532              		.thumb_func
 1533              		.fpu fpv4-sp-d16
 1534              		.type	cmp_write_s32, %function
 1535              	cmp_write_s32:
 1536              	.LFB19:
 1537              		.loc 1 296 0
 1538              		.cfi_startproc
 1539              		@ args = 0, pretend = 0, frame = 16
 1540              		@ frame_needed = 0, uses_anonymous_args = 0
 1541 0000 00B5     		push	{lr}
 1542              		.cfi_def_cfa_offset 4
 1543              		.cfi_offset 14, -4
 1544 0002 85B0     		sub	sp, sp, #20
 1545              		.cfi_def_cfa_offset 24
 1546 0004 0190     		str	r0, [sp, #4]
 1547 0006 0091     		str	r1, [sp]
 1548              		.loc 1 296 0
 1549 0008 154B     		ldr	r3, .L114
 1550 000a 1B68     		ldr	r3, [r3]
 1551 000c 0393     		str	r3, [sp, #12]
 1552              		.loc 1 297 0
 1553 000e D221     		movs	r1, #210
 1554 0010 0198     		ldr	r0, [sp, #4]
 1555 0012 FFF7FEFF 		bl	write_type_marker
 1556 0016 0346     		mov	r3, r0
 1557 0018 83F00103 		eor	r3, r3, #1
 1558 001c DBB2     		uxtb	r3, r3
 1559 001e 002B     		cmp	r3, #0
 1560 0020 01D0     		beq	.L111
 1561              		.loc 1 298 0
 1562 0022 0023     		movs	r3, #0
 1563 0024 11E0     		b	.L112
 1564              	.L111:
 1565              		.loc 1 300 0
 1566 0026 009B     		ldr	r3, [sp]
 1567 0028 1846     		mov	r0, r3
 1568 002a FFF7FEFF 		bl	be32
 1569 002e 0346     		mov	r3, r0
 1570 0030 0093     		str	r3, [sp]
 1571              		.loc 1 302 0
 1572 0032 019B     		ldr	r3, [sp, #4]
 1573 0034 DB68     		ldr	r3, [r3, #12]
 1574 0036 6946     		mov	r1, sp
 1575 0038 0422     		movs	r2, #4
 1576 003a 0198     		ldr	r0, [sp, #4]
 1577 003c 9847     		blx	r3
 1578              	.LVL4:
 1579 003e 0346     		mov	r3, r0
 1580 0040 002B     		cmp	r3, #0
 1581 0042 14BF     		ite	ne
 1582 0044 0123     		movne	r3, #1
 1583 0046 0023     		moveq	r3, #0
 1584 0048 DBB2     		uxtb	r3, r3
 1585              	.L112:
 1586              		.loc 1 303 0
 1587 004a 1846     		mov	r0, r3
 1588 004c 044B     		ldr	r3, .L114
ARM GAS  C:\Users\PCHAUT~1\AppData\Local\Temp\ccacj52E.s 			page 30


 1589 004e 039A     		ldr	r2, [sp, #12]
 1590 0050 1B68     		ldr	r3, [r3]
 1591 0052 9A42     		cmp	r2, r3
 1592 0054 01D0     		beq	.L113
 1593 0056 FFF7FEFF 		bl	__stack_chk_fail
 1594              	.L113:
 1595 005a 05B0     		add	sp, sp, #20
 1596              		.cfi_def_cfa_offset 4
 1597              		@ sp needed
 1598 005c 5DF804FB 		ldr	pc, [sp], #4
 1599              	.L115:
 1600              		.align	2
 1601              	.L114:
 1602 0060 00000000 		.word	__stack_chk_guard
 1603              		.cfi_endproc
 1604              	.LFE19:
 1605              		.size	cmp_write_s32, .-cmp_write_s32
 1606              		.section	.text.cmp_write_s64,"ax",%progbits
 1607              		.align	1
 1608              		.p2align 4,,15
 1609              		.global	cmp_write_s64
 1610              		.syntax unified
 1611              		.thumb
 1612              		.thumb_func
 1613              		.fpu fpv4-sp-d16
 1614              		.type	cmp_write_s64, %function
 1615              	cmp_write_s64:
 1616              	.LFB20:
 1617              		.loc 1 305 0
 1618              		.cfi_startproc
 1619              		@ args = 0, pretend = 0, frame = 24
 1620              		@ frame_needed = 0, uses_anonymous_args = 0
 1621 0000 10B5     		push	{r4, lr}
 1622              		.cfi_def_cfa_offset 8
 1623              		.cfi_offset 4, -8
 1624              		.cfi_offset 14, -4
 1625 0002 86B0     		sub	sp, sp, #24
 1626              		.cfi_def_cfa_offset 32
 1627 0004 0390     		str	r0, [sp, #12]
 1628 0006 CDE90023 		strd	r2, [sp]
 1629              		.loc 1 305 0
 1630 000a 174B     		ldr	r3, .L120
 1631 000c 1B68     		ldr	r3, [r3]
 1632 000e 0593     		str	r3, [sp, #20]
 1633              		.loc 1 306 0
 1634 0010 D321     		movs	r1, #211
 1635 0012 0398     		ldr	r0, [sp, #12]
 1636 0014 FFF7FEFF 		bl	write_type_marker
 1637 0018 0346     		mov	r3, r0
 1638 001a 83F00103 		eor	r3, r3, #1
 1639 001e DBB2     		uxtb	r3, r3
 1640 0020 002B     		cmp	r3, #0
 1641 0022 01D0     		beq	.L117
 1642              		.loc 1 307 0
 1643 0024 0023     		movs	r3, #0
 1644 0026 15E0     		b	.L118
 1645              	.L117:
ARM GAS  C:\Users\PCHAUT~1\AppData\Local\Temp\ccacj52E.s 			page 31


 1646              		.loc 1 309 0
 1647 0028 DDE90034 		ldrd	r3, [sp]
 1648 002c 1846     		mov	r0, r3
 1649 002e 2146     		mov	r1, r4
 1650 0030 FFF7FEFF 		bl	be64
 1651 0034 0346     		mov	r3, r0
 1652 0036 0C46     		mov	r4, r1
 1653 0038 CDE90034 		strd	r3, [sp]
 1654              		.loc 1 311 0
 1655 003c 039B     		ldr	r3, [sp, #12]
 1656 003e DB68     		ldr	r3, [r3, #12]
 1657 0040 6946     		mov	r1, sp
 1658 0042 0822     		movs	r2, #8
 1659 0044 0398     		ldr	r0, [sp, #12]
 1660 0046 9847     		blx	r3
 1661              	.LVL5:
 1662 0048 0346     		mov	r3, r0
 1663 004a 002B     		cmp	r3, #0
 1664 004c 14BF     		ite	ne
 1665 004e 0123     		movne	r3, #1
 1666 0050 0023     		moveq	r3, #0
 1667 0052 DBB2     		uxtb	r3, r3
 1668              	.L118:
 1669              		.loc 1 312 0
 1670 0054 1846     		mov	r0, r3
 1671 0056 044B     		ldr	r3, .L120
 1672 0058 059A     		ldr	r2, [sp, #20]
 1673 005a 1B68     		ldr	r3, [r3]
 1674 005c 9A42     		cmp	r2, r3
 1675 005e 01D0     		beq	.L119
 1676 0060 FFF7FEFF 		bl	__stack_chk_fail
 1677              	.L119:
 1678 0064 06B0     		add	sp, sp, #24
 1679              		.cfi_def_cfa_offset 8
 1680              		@ sp needed
 1681 0066 10BD     		pop	{r4, pc}
 1682              	.L121:
 1683              		.align	2
 1684              	.L120:
 1685 0068 00000000 		.word	__stack_chk_guard
 1686              		.cfi_endproc
 1687              	.LFE20:
 1688              		.size	cmp_write_s64, .-cmp_write_s64
 1689              		.section	.text.cmp_write_sint,"ax",%progbits
 1690              		.align	1
 1691              		.p2align 4,,15
 1692              		.global	cmp_write_sint
 1693              		.syntax unified
 1694              		.thumb
 1695              		.thumb_func
 1696              		.fpu fpv4-sp-d16
 1697              		.type	cmp_write_sint, %function
 1698              	cmp_write_sint:
 1699              	.LFB21:
 1700              		.loc 1 314 0
 1701              		.cfi_startproc
 1702              		@ args = 0, pretend = 0, frame = 24
ARM GAS  C:\Users\PCHAUT~1\AppData\Local\Temp\ccacj52E.s 			page 32


 1703              		@ frame_needed = 0, uses_anonymous_args = 0
 1704 0000 10B5     		push	{r4, lr}
 1705              		.cfi_def_cfa_offset 8
 1706              		.cfi_offset 4, -8
 1707              		.cfi_offset 14, -4
 1708 0002 86B0     		sub	sp, sp, #24
 1709              		.cfi_def_cfa_offset 32
 1710 0004 0390     		str	r0, [sp, #12]
 1711 0006 CDE90023 		strd	r2, [sp]
 1712              		.loc 1 314 0
 1713 000a 324B     		ldr	r3, .L130
 1714 000c 1B68     		ldr	r3, [r3]
 1715 000e 0593     		str	r3, [sp, #20]
 1716              		.loc 1 315 0
 1717 0010 DDE90034 		ldrd	r3, [sp]
 1718 0014 002B     		cmp	r3, #0
 1719 0016 74F10003 		sbcs	r3, r4, #0
 1720 001a 08DB     		blt	.L123
 1721              		.loc 1 316 0
 1722 001c DDE90034 		ldrd	r3, [sp]
 1723 0020 1A46     		mov	r2, r3
 1724 0022 2346     		mov	r3, r4
 1725 0024 0398     		ldr	r0, [sp, #12]
 1726 0026 FFF7FEFF 		bl	cmp_write_uint
 1727 002a 0346     		mov	r3, r0
 1728 002c 48E0     		b	.L124
 1729              	.L123:
 1730              		.loc 1 317 0
 1731 002e DDE90034 		ldrd	r3, [sp]
 1732 0032 6FF01F01 		mvn	r1, #31
 1733 0036 4FF0FF32 		mov	r2, #-1
 1734 003a 8B42     		cmp	r3, r1
 1735 003c 74EB0203 		sbcs	r3, r4, r2
 1736 0040 07DB     		blt	.L125
 1737              		.loc 1 318 0
 1738 0042 9DF90030 		ldrsb	r3, [sp]
 1739 0046 1946     		mov	r1, r3
 1740 0048 0398     		ldr	r0, [sp, #12]
 1741 004a FFF7FEFF 		bl	cmp_write_nfix
 1742 004e 0346     		mov	r3, r0
 1743 0050 36E0     		b	.L124
 1744              	.L125:
 1745              		.loc 1 319 0
 1746 0052 DDE90034 		ldrd	r3, [sp]
 1747 0056 6FF07F01 		mvn	r1, #127
 1748 005a 4FF0FF32 		mov	r2, #-1
 1749 005e 8B42     		cmp	r3, r1
 1750 0060 74EB0203 		sbcs	r3, r4, r2
 1751 0064 07DB     		blt	.L126
 1752              		.loc 1 320 0
 1753 0066 9DF90030 		ldrsb	r3, [sp]
 1754 006a 1946     		mov	r1, r3
 1755 006c 0398     		ldr	r0, [sp, #12]
 1756 006e FFF7FEFF 		bl	cmp_write_s8
 1757 0072 0346     		mov	r3, r0
 1758 0074 24E0     		b	.L124
 1759              	.L126:
ARM GAS  C:\Users\PCHAUT~1\AppData\Local\Temp\ccacj52E.s 			page 33


 1760              		.loc 1 321 0
 1761 0076 DDE90034 		ldrd	r3, [sp]
 1762 007a 1749     		ldr	r1, .L130+4
 1763 007c 4FF0FF32 		mov	r2, #-1
 1764 0080 8B42     		cmp	r3, r1
 1765 0082 74EB0203 		sbcs	r3, r4, r2
 1766 0086 07DB     		blt	.L127
 1767              		.loc 1 322 0
 1768 0088 BDF90030 		ldrsh	r3, [sp]
 1769 008c 1946     		mov	r1, r3
 1770 008e 0398     		ldr	r0, [sp, #12]
 1771 0090 FFF7FEFF 		bl	cmp_write_s16
 1772 0094 0346     		mov	r3, r0
 1773 0096 13E0     		b	.L124
 1774              	.L127:
 1775              		.loc 1 323 0
 1776 0098 DDE90034 		ldrd	r3, [sp]
 1777 009c B3F1004F 		cmp	r3, #-2147483648
 1778 00a0 74F1FF33 		sbcs	r3, r4, #-1
 1779 00a4 06DB     		blt	.L128
 1780              		.loc 1 324 0
 1781 00a6 009B     		ldr	r3, [sp]
 1782 00a8 1946     		mov	r1, r3
 1783 00aa 0398     		ldr	r0, [sp, #12]
 1784 00ac FFF7FEFF 		bl	cmp_write_s32
 1785 00b0 0346     		mov	r3, r0
 1786 00b2 05E0     		b	.L124
 1787              	.L128:
 1788              		.loc 1 326 0
 1789 00b4 DDE90023 		ldrd	r2, [sp]
 1790 00b8 0398     		ldr	r0, [sp, #12]
 1791 00ba FFF7FEFF 		bl	cmp_write_s64
 1792 00be 0346     		mov	r3, r0
 1793              	.L124:
 1794              		.loc 1 327 0
 1795 00c0 1846     		mov	r0, r3
 1796 00c2 044B     		ldr	r3, .L130
 1797 00c4 059A     		ldr	r2, [sp, #20]
 1798 00c6 1B68     		ldr	r3, [r3]
 1799 00c8 9A42     		cmp	r2, r3
 1800 00ca 01D0     		beq	.L129
 1801 00cc FFF7FEFF 		bl	__stack_chk_fail
 1802              	.L129:
 1803 00d0 06B0     		add	sp, sp, #24
 1804              		.cfi_def_cfa_offset 8
 1805              		@ sp needed
 1806 00d2 10BD     		pop	{r4, pc}
 1807              	.L131:
 1808              		.align	2
 1809              	.L130:
 1810 00d4 00000000 		.word	__stack_chk_guard
 1811 00d8 0080FFFF 		.word	-32768
 1812              		.cfi_endproc
 1813              	.LFE21:
 1814              		.size	cmp_write_sint, .-cmp_write_sint
 1815              		.section	.text.cmp_write_ufix,"ax",%progbits
 1816              		.align	1
ARM GAS  C:\Users\PCHAUT~1\AppData\Local\Temp\ccacj52E.s 			page 34


 1817              		.p2align 4,,15
 1818              		.global	cmp_write_ufix
 1819              		.syntax unified
 1820              		.thumb
 1821              		.thumb_func
 1822              		.fpu fpv4-sp-d16
 1823              		.type	cmp_write_ufix, %function
 1824              	cmp_write_ufix:
 1825              	.LFB22:
 1826              		.loc 1 329 0
 1827              		.cfi_startproc
 1828              		@ args = 0, pretend = 0, frame = 16
 1829              		@ frame_needed = 0, uses_anonymous_args = 0
 1830 0000 00B5     		push	{lr}
 1831              		.cfi_def_cfa_offset 4
 1832              		.cfi_offset 14, -4
 1833 0002 85B0     		sub	sp, sp, #20
 1834              		.cfi_def_cfa_offset 24
 1835 0004 0190     		str	r0, [sp, #4]
 1836 0006 0B46     		mov	r3, r1
 1837 0008 8DF80330 		strb	r3, [sp, #3]
 1838              		.loc 1 329 0
 1839 000c 0A4B     		ldr	r3, .L135
 1840 000e 1B68     		ldr	r3, [r3]
 1841 0010 0393     		str	r3, [sp, #12]
 1842              		.loc 1 330 0
 1843 0012 9DF80330 		ldrb	r3, [sp, #3]	@ zero_extendqisi2
 1844 0016 1946     		mov	r1, r3
 1845 0018 0198     		ldr	r0, [sp, #4]
 1846 001a FFF7FEFF 		bl	cmp_write_pfix
 1847 001e 0346     		mov	r3, r0
 1848              		.loc 1 331 0
 1849 0020 1846     		mov	r0, r3
 1850 0022 054B     		ldr	r3, .L135
 1851 0024 039A     		ldr	r2, [sp, #12]
 1852 0026 1B68     		ldr	r3, [r3]
 1853 0028 9A42     		cmp	r2, r3
 1854 002a 01D0     		beq	.L134
 1855 002c FFF7FEFF 		bl	__stack_chk_fail
 1856              	.L134:
 1857 0030 05B0     		add	sp, sp, #20
 1858              		.cfi_def_cfa_offset 4
 1859              		@ sp needed
 1860 0032 5DF804FB 		ldr	pc, [sp], #4
 1861              	.L136:
 1862 0036 00BF     		.align	2
 1863              	.L135:
 1864 0038 00000000 		.word	__stack_chk_guard
 1865              		.cfi_endproc
 1866              	.LFE22:
 1867              		.size	cmp_write_ufix, .-cmp_write_ufix
 1868              		.section	.text.cmp_write_u8,"ax",%progbits
 1869              		.align	1
 1870              		.p2align 4,,15
 1871              		.global	cmp_write_u8
 1872              		.syntax unified
 1873              		.thumb
ARM GAS  C:\Users\PCHAUT~1\AppData\Local\Temp\ccacj52E.s 			page 35


 1874              		.thumb_func
 1875              		.fpu fpv4-sp-d16
 1876              		.type	cmp_write_u8, %function
 1877              	cmp_write_u8:
 1878              	.LFB23:
 1879              		.loc 1 333 0
 1880              		.cfi_startproc
 1881              		@ args = 0, pretend = 0, frame = 16
 1882              		@ frame_needed = 0, uses_anonymous_args = 0
 1883 0000 00B5     		push	{lr}
 1884              		.cfi_def_cfa_offset 4
 1885              		.cfi_offset 14, -4
 1886 0002 85B0     		sub	sp, sp, #20
 1887              		.cfi_def_cfa_offset 24
 1888 0004 0190     		str	r0, [sp, #4]
 1889 0006 0B46     		mov	r3, r1
 1890 0008 8DF80330 		strb	r3, [sp, #3]
 1891              		.loc 1 333 0
 1892 000c 134B     		ldr	r3, .L141
 1893 000e 1B68     		ldr	r3, [r3]
 1894 0010 0393     		str	r3, [sp, #12]
 1895              		.loc 1 334 0
 1896 0012 CC21     		movs	r1, #204
 1897 0014 0198     		ldr	r0, [sp, #4]
 1898 0016 FFF7FEFF 		bl	write_type_marker
 1899 001a 0346     		mov	r3, r0
 1900 001c 83F00103 		eor	r3, r3, #1
 1901 0020 DBB2     		uxtb	r3, r3
 1902 0022 002B     		cmp	r3, #0
 1903 0024 01D0     		beq	.L138
 1904              		.loc 1 335 0
 1905 0026 0023     		movs	r3, #0
 1906 0028 0CE0     		b	.L139
 1907              	.L138:
 1908              		.loc 1 337 0
 1909 002a 019B     		ldr	r3, [sp, #4]
 1910 002c DB68     		ldr	r3, [r3, #12]
 1911 002e 0DF10301 		add	r1, sp, #3
 1912 0032 0122     		movs	r2, #1
 1913 0034 0198     		ldr	r0, [sp, #4]
 1914 0036 9847     		blx	r3
 1915              	.LVL6:
 1916 0038 0346     		mov	r3, r0
 1917 003a 002B     		cmp	r3, #0
 1918 003c 14BF     		ite	ne
 1919 003e 0123     		movne	r3, #1
 1920 0040 0023     		moveq	r3, #0
 1921 0042 DBB2     		uxtb	r3, r3
 1922              	.L139:
 1923              		.loc 1 338 0
 1924 0044 1846     		mov	r0, r3
 1925 0046 054B     		ldr	r3, .L141
 1926 0048 039A     		ldr	r2, [sp, #12]
 1927 004a 1B68     		ldr	r3, [r3]
 1928 004c 9A42     		cmp	r2, r3
 1929 004e 01D0     		beq	.L140
 1930 0050 FFF7FEFF 		bl	__stack_chk_fail
ARM GAS  C:\Users\PCHAUT~1\AppData\Local\Temp\ccacj52E.s 			page 36


 1931              	.L140:
 1932 0054 05B0     		add	sp, sp, #20
 1933              		.cfi_def_cfa_offset 4
 1934              		@ sp needed
 1935 0056 5DF804FB 		ldr	pc, [sp], #4
 1936              	.L142:
 1937 005a 00BF     		.align	2
 1938              	.L141:
 1939 005c 00000000 		.word	__stack_chk_guard
 1940              		.cfi_endproc
 1941              	.LFE23:
 1942              		.size	cmp_write_u8, .-cmp_write_u8
 1943              		.section	.text.cmp_write_u16,"ax",%progbits
 1944              		.align	1
 1945              		.p2align 4,,15
 1946              		.global	cmp_write_u16
 1947              		.syntax unified
 1948              		.thumb
 1949              		.thumb_func
 1950              		.fpu fpv4-sp-d16
 1951              		.type	cmp_write_u16, %function
 1952              	cmp_write_u16:
 1953              	.LFB24:
 1954              		.loc 1 340 0
 1955              		.cfi_startproc
 1956              		@ args = 0, pretend = 0, frame = 16
 1957              		@ frame_needed = 0, uses_anonymous_args = 0
 1958 0000 00B5     		push	{lr}
 1959              		.cfi_def_cfa_offset 4
 1960              		.cfi_offset 14, -4
 1961 0002 85B0     		sub	sp, sp, #20
 1962              		.cfi_def_cfa_offset 24
 1963 0004 0190     		str	r0, [sp, #4]
 1964 0006 0B46     		mov	r3, r1
 1965 0008 ADF80230 		strh	r3, [sp, #2]	@ movhi
 1966              		.loc 1 340 0
 1967 000c 174B     		ldr	r3, .L147
 1968 000e 1B68     		ldr	r3, [r3]
 1969 0010 0393     		str	r3, [sp, #12]
 1970              		.loc 1 341 0
 1971 0012 CD21     		movs	r1, #205
 1972 0014 0198     		ldr	r0, [sp, #4]
 1973 0016 FFF7FEFF 		bl	write_type_marker
 1974 001a 0346     		mov	r3, r0
 1975 001c 83F00103 		eor	r3, r3, #1
 1976 0020 DBB2     		uxtb	r3, r3
 1977 0022 002B     		cmp	r3, #0
 1978 0024 01D0     		beq	.L144
 1979              		.loc 1 342 0
 1980 0026 0023     		movs	r3, #0
 1981 0028 14E0     		b	.L145
 1982              	.L144:
 1983              		.loc 1 344 0
 1984 002a BDF80230 		ldrh	r3, [sp, #2]
 1985 002e 1846     		mov	r0, r3
 1986 0030 FFF7FEFF 		bl	be16
 1987 0034 0346     		mov	r3, r0
ARM GAS  C:\Users\PCHAUT~1\AppData\Local\Temp\ccacj52E.s 			page 37


 1988 0036 ADF80230 		strh	r3, [sp, #2]	@ movhi
 1989              		.loc 1 346 0
 1990 003a 019B     		ldr	r3, [sp, #4]
 1991 003c DB68     		ldr	r3, [r3, #12]
 1992 003e 0DF10201 		add	r1, sp, #2
 1993 0042 0222     		movs	r2, #2
 1994 0044 0198     		ldr	r0, [sp, #4]
 1995 0046 9847     		blx	r3
 1996              	.LVL7:
 1997 0048 0346     		mov	r3, r0
 1998 004a 002B     		cmp	r3, #0
 1999 004c 14BF     		ite	ne
 2000 004e 0123     		movne	r3, #1
 2001 0050 0023     		moveq	r3, #0
 2002 0052 DBB2     		uxtb	r3, r3
 2003              	.L145:
 2004              		.loc 1 347 0
 2005 0054 1846     		mov	r0, r3
 2006 0056 054B     		ldr	r3, .L147
 2007 0058 039A     		ldr	r2, [sp, #12]
 2008 005a 1B68     		ldr	r3, [r3]
 2009 005c 9A42     		cmp	r2, r3
 2010 005e 01D0     		beq	.L146
 2011 0060 FFF7FEFF 		bl	__stack_chk_fail
 2012              	.L146:
 2013 0064 05B0     		add	sp, sp, #20
 2014              		.cfi_def_cfa_offset 4
 2015              		@ sp needed
 2016 0066 5DF804FB 		ldr	pc, [sp], #4
 2017              	.L148:
 2018 006a 00BF     		.align	2
 2019              	.L147:
 2020 006c 00000000 		.word	__stack_chk_guard
 2021              		.cfi_endproc
 2022              	.LFE24:
 2023              		.size	cmp_write_u16, .-cmp_write_u16
 2024              		.section	.text.cmp_write_u32,"ax",%progbits
 2025              		.align	1
 2026              		.p2align 4,,15
 2027              		.global	cmp_write_u32
 2028              		.syntax unified
 2029              		.thumb
 2030              		.thumb_func
 2031              		.fpu fpv4-sp-d16
 2032              		.type	cmp_write_u32, %function
 2033              	cmp_write_u32:
 2034              	.LFB25:
 2035              		.loc 1 349 0
 2036              		.cfi_startproc
 2037              		@ args = 0, pretend = 0, frame = 16
 2038              		@ frame_needed = 0, uses_anonymous_args = 0
 2039 0000 00B5     		push	{lr}
 2040              		.cfi_def_cfa_offset 4
 2041              		.cfi_offset 14, -4
 2042 0002 85B0     		sub	sp, sp, #20
 2043              		.cfi_def_cfa_offset 24
 2044 0004 0190     		str	r0, [sp, #4]
ARM GAS  C:\Users\PCHAUT~1\AppData\Local\Temp\ccacj52E.s 			page 38


 2045 0006 0091     		str	r1, [sp]
 2046              		.loc 1 349 0
 2047 0008 154B     		ldr	r3, .L153
 2048 000a 1B68     		ldr	r3, [r3]
 2049 000c 0393     		str	r3, [sp, #12]
 2050              		.loc 1 350 0
 2051 000e CE21     		movs	r1, #206
 2052 0010 0198     		ldr	r0, [sp, #4]
 2053 0012 FFF7FEFF 		bl	write_type_marker
 2054 0016 0346     		mov	r3, r0
 2055 0018 83F00103 		eor	r3, r3, #1
 2056 001c DBB2     		uxtb	r3, r3
 2057 001e 002B     		cmp	r3, #0
 2058 0020 01D0     		beq	.L150
 2059              		.loc 1 351 0
 2060 0022 0023     		movs	r3, #0
 2061 0024 11E0     		b	.L151
 2062              	.L150:
 2063              		.loc 1 353 0
 2064 0026 009B     		ldr	r3, [sp]
 2065 0028 1846     		mov	r0, r3
 2066 002a FFF7FEFF 		bl	be32
 2067 002e 0346     		mov	r3, r0
 2068 0030 0093     		str	r3, [sp]
 2069              		.loc 1 355 0
 2070 0032 019B     		ldr	r3, [sp, #4]
 2071 0034 DB68     		ldr	r3, [r3, #12]
 2072 0036 6946     		mov	r1, sp
 2073 0038 0422     		movs	r2, #4
 2074 003a 0198     		ldr	r0, [sp, #4]
 2075 003c 9847     		blx	r3
 2076              	.LVL8:
 2077 003e 0346     		mov	r3, r0
 2078 0040 002B     		cmp	r3, #0
 2079 0042 14BF     		ite	ne
 2080 0044 0123     		movne	r3, #1
 2081 0046 0023     		moveq	r3, #0
 2082 0048 DBB2     		uxtb	r3, r3
 2083              	.L151:
 2084              		.loc 1 356 0
 2085 004a 1846     		mov	r0, r3
 2086 004c 044B     		ldr	r3, .L153
 2087 004e 039A     		ldr	r2, [sp, #12]
 2088 0050 1B68     		ldr	r3, [r3]
 2089 0052 9A42     		cmp	r2, r3
 2090 0054 01D0     		beq	.L152
 2091 0056 FFF7FEFF 		bl	__stack_chk_fail
 2092              	.L152:
 2093 005a 05B0     		add	sp, sp, #20
 2094              		.cfi_def_cfa_offset 4
 2095              		@ sp needed
 2096 005c 5DF804FB 		ldr	pc, [sp], #4
 2097              	.L154:
 2098              		.align	2
 2099              	.L153:
 2100 0060 00000000 		.word	__stack_chk_guard
 2101              		.cfi_endproc
ARM GAS  C:\Users\PCHAUT~1\AppData\Local\Temp\ccacj52E.s 			page 39


 2102              	.LFE25:
 2103              		.size	cmp_write_u32, .-cmp_write_u32
 2104              		.section	.text.cmp_write_u64,"ax",%progbits
 2105              		.align	1
 2106              		.p2align 4,,15
 2107              		.global	cmp_write_u64
 2108              		.syntax unified
 2109              		.thumb
 2110              		.thumb_func
 2111              		.fpu fpv4-sp-d16
 2112              		.type	cmp_write_u64, %function
 2113              	cmp_write_u64:
 2114              	.LFB26:
 2115              		.loc 1 358 0
 2116              		.cfi_startproc
 2117              		@ args = 0, pretend = 0, frame = 24
 2118              		@ frame_needed = 0, uses_anonymous_args = 0
 2119 0000 10B5     		push	{r4, lr}
 2120              		.cfi_def_cfa_offset 8
 2121              		.cfi_offset 4, -8
 2122              		.cfi_offset 14, -4
 2123 0002 86B0     		sub	sp, sp, #24
 2124              		.cfi_def_cfa_offset 32
 2125 0004 0390     		str	r0, [sp, #12]
 2126 0006 CDE90023 		strd	r2, [sp]
 2127              		.loc 1 358 0
 2128 000a 174B     		ldr	r3, .L159
 2129 000c 1B68     		ldr	r3, [r3]
 2130 000e 0593     		str	r3, [sp, #20]
 2131              		.loc 1 359 0
 2132 0010 CF21     		movs	r1, #207
 2133 0012 0398     		ldr	r0, [sp, #12]
 2134 0014 FFF7FEFF 		bl	write_type_marker
 2135 0018 0346     		mov	r3, r0
 2136 001a 83F00103 		eor	r3, r3, #1
 2137 001e DBB2     		uxtb	r3, r3
 2138 0020 002B     		cmp	r3, #0
 2139 0022 01D0     		beq	.L156
 2140              		.loc 1 360 0
 2141 0024 0023     		movs	r3, #0
 2142 0026 15E0     		b	.L157
 2143              	.L156:
 2144              		.loc 1 362 0
 2145 0028 DDE90034 		ldrd	r3, [sp]
 2146 002c 1846     		mov	r0, r3
 2147 002e 2146     		mov	r1, r4
 2148 0030 FFF7FEFF 		bl	be64
 2149 0034 0346     		mov	r3, r0
 2150 0036 0C46     		mov	r4, r1
 2151 0038 CDE90034 		strd	r3, [sp]
 2152              		.loc 1 364 0
 2153 003c 039B     		ldr	r3, [sp, #12]
 2154 003e DB68     		ldr	r3, [r3, #12]
 2155 0040 6946     		mov	r1, sp
 2156 0042 0822     		movs	r2, #8
 2157 0044 0398     		ldr	r0, [sp, #12]
 2158 0046 9847     		blx	r3
ARM GAS  C:\Users\PCHAUT~1\AppData\Local\Temp\ccacj52E.s 			page 40


 2159              	.LVL9:
 2160 0048 0346     		mov	r3, r0
 2161 004a 002B     		cmp	r3, #0
 2162 004c 14BF     		ite	ne
 2163 004e 0123     		movne	r3, #1
 2164 0050 0023     		moveq	r3, #0
 2165 0052 DBB2     		uxtb	r3, r3
 2166              	.L157:
 2167              		.loc 1 365 0
 2168 0054 1846     		mov	r0, r3
 2169 0056 044B     		ldr	r3, .L159
 2170 0058 059A     		ldr	r2, [sp, #20]
 2171 005a 1B68     		ldr	r3, [r3]
 2172 005c 9A42     		cmp	r2, r3
 2173 005e 01D0     		beq	.L158
 2174 0060 FFF7FEFF 		bl	__stack_chk_fail
 2175              	.L158:
 2176 0064 06B0     		add	sp, sp, #24
 2177              		.cfi_def_cfa_offset 8
 2178              		@ sp needed
 2179 0066 10BD     		pop	{r4, pc}
 2180              	.L160:
 2181              		.align	2
 2182              	.L159:
 2183 0068 00000000 		.word	__stack_chk_guard
 2184              		.cfi_endproc
 2185              	.LFE26:
 2186              		.size	cmp_write_u64, .-cmp_write_u64
 2187              		.section	.text.cmp_write_uint,"ax",%progbits
 2188              		.align	1
 2189              		.p2align 4,,15
 2190              		.global	cmp_write_uint
 2191              		.syntax unified
 2192              		.thumb
 2193              		.thumb_func
 2194              		.fpu fpv4-sp-d16
 2195              		.type	cmp_write_uint, %function
 2196              	cmp_write_uint:
 2197              	.LFB27:
 2198              		.loc 1 367 0
 2199              		.cfi_startproc
 2200              		@ args = 0, pretend = 0, frame = 24
 2201              		@ frame_needed = 0, uses_anonymous_args = 0
 2202 0000 10B5     		push	{r4, lr}
 2203              		.cfi_def_cfa_offset 8
 2204              		.cfi_offset 4, -8
 2205              		.cfi_offset 14, -4
 2206 0002 86B0     		sub	sp, sp, #24
 2207              		.cfi_def_cfa_offset 32
 2208 0004 0390     		str	r0, [sp, #12]
 2209 0006 CDE90023 		strd	r2, [sp]
 2210              		.loc 1 367 0
 2211 000a 274B     		ldr	r3, .L168
 2212 000c 1B68     		ldr	r3, [r3]
 2213 000e 0593     		str	r3, [sp, #20]
 2214              		.loc 1 368 0
 2215 0010 DDE90034 		ldrd	r3, [sp]
ARM GAS  C:\Users\PCHAUT~1\AppData\Local\Temp\ccacj52E.s 			page 41


 2216 0014 002C     		cmp	r4, #0
 2217 0016 08BF     		it	eq
 2218 0018 802B     		cmpeq	r3, #128
 2219 001a 07D2     		bcs	.L162
 2220              		.loc 1 369 0
 2221 001c 9DF80030 		ldrb	r3, [sp]	@ zero_extendqisi2
 2222 0020 1946     		mov	r1, r3
 2223 0022 0398     		ldr	r0, [sp, #12]
 2224 0024 FFF7FEFF 		bl	cmp_write_pfix
 2225 0028 0346     		mov	r3, r0
 2226 002a 33E0     		b	.L163
 2227              	.L162:
 2228              		.loc 1 370 0
 2229 002c DDE90034 		ldrd	r3, [sp]
 2230 0030 002C     		cmp	r4, #0
 2231 0032 08BF     		it	eq
 2232 0034 B3F5807F 		cmpeq	r3, #256
 2233 0038 07D2     		bcs	.L164
 2234              		.loc 1 371 0
 2235 003a 9DF80030 		ldrb	r3, [sp]	@ zero_extendqisi2
 2236 003e 1946     		mov	r1, r3
 2237 0040 0398     		ldr	r0, [sp, #12]
 2238 0042 FFF7FEFF 		bl	cmp_write_u8
 2239 0046 0346     		mov	r3, r0
 2240 0048 24E0     		b	.L163
 2241              	.L164:
 2242              		.loc 1 372 0
 2243 004a DDE90034 		ldrd	r3, [sp]
 2244 004e 4FF6FF71 		movw	r1, #65535
 2245 0052 4FF00002 		mov	r2, #0
 2246 0056 A242     		cmp	r2, r4
 2247 0058 08BF     		it	eq
 2248 005a 9942     		cmpeq	r1, r3
 2249 005c 07D3     		bcc	.L165
 2250              		.loc 1 373 0
 2251 005e BDF80030 		ldrh	r3, [sp]
 2252 0062 1946     		mov	r1, r3
 2253 0064 0398     		ldr	r0, [sp, #12]
 2254 0066 FFF7FEFF 		bl	cmp_write_u16
 2255 006a 0346     		mov	r3, r0
 2256 006c 12E0     		b	.L163
 2257              	.L165:
 2258              		.loc 1 374 0
 2259 006e DDE90034 		ldrd	r3, [sp]
 2260 0072 012C     		cmp	r4, #1
 2261 0074 08BF     		it	eq
 2262 0076 002B     		cmpeq	r3, #0
 2263 0078 06D2     		bcs	.L166
 2264              		.loc 1 375 0
 2265 007a 009B     		ldr	r3, [sp]
 2266 007c 1946     		mov	r1, r3
 2267 007e 0398     		ldr	r0, [sp, #12]
 2268 0080 FFF7FEFF 		bl	cmp_write_u32
 2269 0084 0346     		mov	r3, r0
 2270 0086 05E0     		b	.L163
 2271              	.L166:
 2272              		.loc 1 377 0
ARM GAS  C:\Users\PCHAUT~1\AppData\Local\Temp\ccacj52E.s 			page 42


 2273 0088 DDE90023 		ldrd	r2, [sp]
 2274 008c 0398     		ldr	r0, [sp, #12]
 2275 008e FFF7FEFF 		bl	cmp_write_u64
 2276 0092 0346     		mov	r3, r0
 2277              	.L163:
 2278              		.loc 1 378 0
 2279 0094 1846     		mov	r0, r3
 2280 0096 044B     		ldr	r3, .L168
 2281 0098 059A     		ldr	r2, [sp, #20]
 2282 009a 1B68     		ldr	r3, [r3]
 2283 009c 9A42     		cmp	r2, r3
 2284 009e 01D0     		beq	.L167
 2285 00a0 FFF7FEFF 		bl	__stack_chk_fail
 2286              	.L167:
 2287 00a4 06B0     		add	sp, sp, #24
 2288              		.cfi_def_cfa_offset 8
 2289              		@ sp needed
 2290 00a6 10BD     		pop	{r4, pc}
 2291              	.L169:
 2292              		.align	2
 2293              	.L168:
 2294 00a8 00000000 		.word	__stack_chk_guard
 2295              		.cfi_endproc
 2296              	.LFE27:
 2297              		.size	cmp_write_uint, .-cmp_write_uint
 2298              		.section	.text.cmp_write_float,"ax",%progbits
 2299              		.align	1
 2300              		.p2align 4,,15
 2301              		.global	cmp_write_float
 2302              		.syntax unified
 2303              		.thumb
 2304              		.thumb_func
 2305              		.fpu fpv4-sp-d16
 2306              		.type	cmp_write_float, %function
 2307              	cmp_write_float:
 2308              	.LFB28:
 2309              		.loc 1 380 0
 2310              		.cfi_startproc
 2311              		@ args = 0, pretend = 0, frame = 16
 2312              		@ frame_needed = 0, uses_anonymous_args = 0
 2313 0000 00B5     		push	{lr}
 2314              		.cfi_def_cfa_offset 4
 2315              		.cfi_offset 14, -4
 2316 0002 85B0     		sub	sp, sp, #20
 2317              		.cfi_def_cfa_offset 24
 2318 0004 0190     		str	r0, [sp, #4]
 2319 0006 8DED000A 		vstr.32	s0, [sp]
 2320              		.loc 1 380 0
 2321 000a 184B     		ldr	r3, .L174
 2322 000c 1B68     		ldr	r3, [r3]
 2323 000e 0393     		str	r3, [sp, #12]
 2324              		.loc 1 381 0
 2325 0010 CA21     		movs	r1, #202
 2326 0012 0198     		ldr	r0, [sp, #4]
 2327 0014 FFF7FEFF 		bl	write_type_marker
 2328 0018 0346     		mov	r3, r0
 2329 001a 83F00103 		eor	r3, r3, #1
ARM GAS  C:\Users\PCHAUT~1\AppData\Local\Temp\ccacj52E.s 			page 43


 2330 001e DBB2     		uxtb	r3, r3
 2331 0020 002B     		cmp	r3, #0
 2332 0022 01D0     		beq	.L171
 2333              		.loc 1 382 0
 2334 0024 0023     		movs	r3, #0
 2335 0026 15E0     		b	.L172
 2336              	.L171:
 2337              		.loc 1 384 0
 2338 0028 DDED007A 		vldr.32	s15, [sp]
 2339 002c B0EE670A 		vmov.f32	s0, s15
 2340 0030 FFF7FEFF 		bl	befloat
 2341 0034 F0EE407A 		vmov.f32	s15, s0
 2342 0038 CDED007A 		vstr.32	s15, [sp]
 2343              		.loc 1 386 0
 2344 003c 019B     		ldr	r3, [sp, #4]
 2345 003e DB68     		ldr	r3, [r3, #12]
 2346 0040 6946     		mov	r1, sp
 2347 0042 0422     		movs	r2, #4
 2348 0044 0198     		ldr	r0, [sp, #4]
 2349 0046 9847     		blx	r3
 2350              	.LVL10:
 2351 0048 0346     		mov	r3, r0
 2352 004a 002B     		cmp	r3, #0
 2353 004c 14BF     		ite	ne
 2354 004e 0123     		movne	r3, #1
 2355 0050 0023     		moveq	r3, #0
 2356 0052 DBB2     		uxtb	r3, r3
 2357              	.L172:
 2358              		.loc 1 387 0
 2359 0054 1846     		mov	r0, r3
 2360 0056 054B     		ldr	r3, .L174
 2361 0058 039A     		ldr	r2, [sp, #12]
 2362 005a 1B68     		ldr	r3, [r3]
 2363 005c 9A42     		cmp	r2, r3
 2364 005e 01D0     		beq	.L173
 2365 0060 FFF7FEFF 		bl	__stack_chk_fail
 2366              	.L173:
 2367 0064 05B0     		add	sp, sp, #20
 2368              		.cfi_def_cfa_offset 4
 2369              		@ sp needed
 2370 0066 5DF804FB 		ldr	pc, [sp], #4
 2371              	.L175:
 2372 006a 00BF     		.align	2
 2373              	.L174:
 2374 006c 00000000 		.word	__stack_chk_guard
 2375              		.cfi_endproc
 2376              	.LFE28:
 2377              		.size	cmp_write_float, .-cmp_write_float
 2378              		.section	.text.cmp_write_double,"ax",%progbits
 2379              		.align	1
 2380              		.p2align 4,,15
 2381              		.global	cmp_write_double
 2382              		.syntax unified
 2383              		.thumb
 2384              		.thumb_func
 2385              		.fpu fpv4-sp-d16
 2386              		.type	cmp_write_double, %function
ARM GAS  C:\Users\PCHAUT~1\AppData\Local\Temp\ccacj52E.s 			page 44


 2387              	cmp_write_double:
 2388              	.LFB29:
 2389              		.loc 1 389 0
 2390              		.cfi_startproc
 2391              		@ args = 0, pretend = 0, frame = 24
 2392              		@ frame_needed = 0, uses_anonymous_args = 0
 2393 0000 00B5     		push	{lr}
 2394              		.cfi_def_cfa_offset 4
 2395              		.cfi_offset 14, -4
 2396 0002 87B0     		sub	sp, sp, #28
 2397              		.cfi_def_cfa_offset 32
 2398 0004 0390     		str	r0, [sp, #12]
 2399 0006 8DED000B 		vstr.64	d0, [sp]
 2400              		.loc 1 389 0
 2401 000a 1A4B     		ldr	r3, .L180
 2402 000c 1B68     		ldr	r3, [r3]
 2403 000e 0593     		str	r3, [sp, #20]
 2404              		.loc 1 390 0
 2405 0010 CB21     		movs	r1, #203
 2406 0012 0398     		ldr	r0, [sp, #12]
 2407 0014 FFF7FEFF 		bl	write_type_marker
 2408 0018 0346     		mov	r3, r0
 2409 001a 83F00103 		eor	r3, r3, #1
 2410 001e DBB2     		uxtb	r3, r3
 2411 0020 002B     		cmp	r3, #0
 2412 0022 01D0     		beq	.L177
 2413              		.loc 1 391 0
 2414 0024 0023     		movs	r3, #0
 2415 0026 19E0     		b	.L178
 2416              	.L177:
 2417              		.loc 1 393 0
 2418 0028 9DED007B 		vldr.64	d7, [sp]
 2419 002c B0EE470A 		vmov.f32	s0, s14
 2420 0030 F0EE670A 		vmov.f32	s1, s15
 2421 0034 FFF7FEFF 		bl	bedouble
 2422 0038 B0EE407A 		vmov.f32	s14, s0
 2423 003c F0EE607A 		vmov.f32	s15, s1
 2424 0040 8DED007B 		vstr.64	d7, [sp]
 2425              		.loc 1 395 0
 2426 0044 039B     		ldr	r3, [sp, #12]
 2427 0046 DB68     		ldr	r3, [r3, #12]
 2428 0048 6946     		mov	r1, sp
 2429 004a 0822     		movs	r2, #8
 2430 004c 0398     		ldr	r0, [sp, #12]
 2431 004e 9847     		blx	r3
 2432              	.LVL11:
 2433 0050 0346     		mov	r3, r0
 2434 0052 002B     		cmp	r3, #0
 2435 0054 14BF     		ite	ne
 2436 0056 0123     		movne	r3, #1
 2437 0058 0023     		moveq	r3, #0
 2438 005a DBB2     		uxtb	r3, r3
 2439              	.L178:
 2440              		.loc 1 396 0
 2441 005c 1846     		mov	r0, r3
 2442 005e 054B     		ldr	r3, .L180
 2443 0060 059A     		ldr	r2, [sp, #20]
ARM GAS  C:\Users\PCHAUT~1\AppData\Local\Temp\ccacj52E.s 			page 45


 2444 0062 1B68     		ldr	r3, [r3]
 2445 0064 9A42     		cmp	r2, r3
 2446 0066 01D0     		beq	.L179
 2447 0068 FFF7FEFF 		bl	__stack_chk_fail
 2448              	.L179:
 2449 006c 07B0     		add	sp, sp, #28
 2450              		.cfi_def_cfa_offset 4
 2451              		@ sp needed
 2452 006e 5DF804FB 		ldr	pc, [sp], #4
 2453              	.L181:
 2454 0072 00BF     		.align	2
 2455              	.L180:
 2456 0074 00000000 		.word	__stack_chk_guard
 2457              		.cfi_endproc
 2458              	.LFE29:
 2459              		.size	cmp_write_double, .-cmp_write_double
 2460              		.section	.text.cmp_write_nil,"ax",%progbits
 2461              		.align	1
 2462              		.p2align 4,,15
 2463              		.global	cmp_write_nil
 2464              		.syntax unified
 2465              		.thumb
 2466              		.thumb_func
 2467              		.fpu fpv4-sp-d16
 2468              		.type	cmp_write_nil, %function
 2469              	cmp_write_nil:
 2470              	.LFB30:
 2471              		.loc 1 398 0
 2472              		.cfi_startproc
 2473              		@ args = 0, pretend = 0, frame = 16
 2474              		@ frame_needed = 0, uses_anonymous_args = 0
 2475 0000 00B5     		push	{lr}
 2476              		.cfi_def_cfa_offset 4
 2477              		.cfi_offset 14, -4
 2478 0002 85B0     		sub	sp, sp, #20
 2479              		.cfi_def_cfa_offset 24
 2480 0004 0190     		str	r0, [sp, #4]
 2481              		.loc 1 398 0
 2482 0006 094B     		ldr	r3, .L185
 2483 0008 1B68     		ldr	r3, [r3]
 2484 000a 0393     		str	r3, [sp, #12]
 2485              		.loc 1 399 0
 2486 000c C021     		movs	r1, #192
 2487 000e 0198     		ldr	r0, [sp, #4]
 2488 0010 FFF7FEFF 		bl	write_type_marker
 2489 0014 0346     		mov	r3, r0
 2490              		.loc 1 400 0
 2491 0016 1846     		mov	r0, r3
 2492 0018 044B     		ldr	r3, .L185
 2493 001a 039A     		ldr	r2, [sp, #12]
 2494 001c 1B68     		ldr	r3, [r3]
 2495 001e 9A42     		cmp	r2, r3
 2496 0020 01D0     		beq	.L184
 2497 0022 FFF7FEFF 		bl	__stack_chk_fail
 2498              	.L184:
 2499 0026 05B0     		add	sp, sp, #20
 2500              		.cfi_def_cfa_offset 4
ARM GAS  C:\Users\PCHAUT~1\AppData\Local\Temp\ccacj52E.s 			page 46


 2501              		@ sp needed
 2502 0028 5DF804FB 		ldr	pc, [sp], #4
 2503              	.L186:
 2504              		.align	2
 2505              	.L185:
 2506 002c 00000000 		.word	__stack_chk_guard
 2507              		.cfi_endproc
 2508              	.LFE30:
 2509              		.size	cmp_write_nil, .-cmp_write_nil
 2510              		.section	.text.cmp_write_true,"ax",%progbits
 2511              		.align	1
 2512              		.p2align 4,,15
 2513              		.global	cmp_write_true
 2514              		.syntax unified
 2515              		.thumb
 2516              		.thumb_func
 2517              		.fpu fpv4-sp-d16
 2518              		.type	cmp_write_true, %function
 2519              	cmp_write_true:
 2520              	.LFB31:
 2521              		.loc 1 402 0
 2522              		.cfi_startproc
 2523              		@ args = 0, pretend = 0, frame = 16
 2524              		@ frame_needed = 0, uses_anonymous_args = 0
 2525 0000 00B5     		push	{lr}
 2526              		.cfi_def_cfa_offset 4
 2527              		.cfi_offset 14, -4
 2528 0002 85B0     		sub	sp, sp, #20
 2529              		.cfi_def_cfa_offset 24
 2530 0004 0190     		str	r0, [sp, #4]
 2531              		.loc 1 402 0
 2532 0006 094B     		ldr	r3, .L190
 2533 0008 1B68     		ldr	r3, [r3]
 2534 000a 0393     		str	r3, [sp, #12]
 2535              		.loc 1 403 0
 2536 000c C321     		movs	r1, #195
 2537 000e 0198     		ldr	r0, [sp, #4]
 2538 0010 FFF7FEFF 		bl	write_type_marker
 2539 0014 0346     		mov	r3, r0
 2540              		.loc 1 404 0
 2541 0016 1846     		mov	r0, r3
 2542 0018 044B     		ldr	r3, .L190
 2543 001a 039A     		ldr	r2, [sp, #12]
 2544 001c 1B68     		ldr	r3, [r3]
 2545 001e 9A42     		cmp	r2, r3
 2546 0020 01D0     		beq	.L189
 2547 0022 FFF7FEFF 		bl	__stack_chk_fail
 2548              	.L189:
 2549 0026 05B0     		add	sp, sp, #20
 2550              		.cfi_def_cfa_offset 4
 2551              		@ sp needed
 2552 0028 5DF804FB 		ldr	pc, [sp], #4
 2553              	.L191:
 2554              		.align	2
 2555              	.L190:
 2556 002c 00000000 		.word	__stack_chk_guard
 2557              		.cfi_endproc
ARM GAS  C:\Users\PCHAUT~1\AppData\Local\Temp\ccacj52E.s 			page 47


 2558              	.LFE31:
 2559              		.size	cmp_write_true, .-cmp_write_true
 2560              		.section	.text.cmp_write_false,"ax",%progbits
 2561              		.align	1
 2562              		.p2align 4,,15
 2563              		.global	cmp_write_false
 2564              		.syntax unified
 2565              		.thumb
 2566              		.thumb_func
 2567              		.fpu fpv4-sp-d16
 2568              		.type	cmp_write_false, %function
 2569              	cmp_write_false:
 2570              	.LFB32:
 2571              		.loc 1 406 0
 2572              		.cfi_startproc
 2573              		@ args = 0, pretend = 0, frame = 16
 2574              		@ frame_needed = 0, uses_anonymous_args = 0
 2575 0000 00B5     		push	{lr}
 2576              		.cfi_def_cfa_offset 4
 2577              		.cfi_offset 14, -4
 2578 0002 85B0     		sub	sp, sp, #20
 2579              		.cfi_def_cfa_offset 24
 2580 0004 0190     		str	r0, [sp, #4]
 2581              		.loc 1 406 0
 2582 0006 094B     		ldr	r3, .L195
 2583 0008 1B68     		ldr	r3, [r3]
 2584 000a 0393     		str	r3, [sp, #12]
 2585              		.loc 1 407 0
 2586 000c C221     		movs	r1, #194
 2587 000e 0198     		ldr	r0, [sp, #4]
 2588 0010 FFF7FEFF 		bl	write_type_marker
 2589 0014 0346     		mov	r3, r0
 2590              		.loc 1 408 0
 2591 0016 1846     		mov	r0, r3
 2592 0018 044B     		ldr	r3, .L195
 2593 001a 039A     		ldr	r2, [sp, #12]
 2594 001c 1B68     		ldr	r3, [r3]
 2595 001e 9A42     		cmp	r2, r3
 2596 0020 01D0     		beq	.L194
 2597 0022 FFF7FEFF 		bl	__stack_chk_fail
 2598              	.L194:
 2599 0026 05B0     		add	sp, sp, #20
 2600              		.cfi_def_cfa_offset 4
 2601              		@ sp needed
 2602 0028 5DF804FB 		ldr	pc, [sp], #4
 2603              	.L196:
 2604              		.align	2
 2605              	.L195:
 2606 002c 00000000 		.word	__stack_chk_guard
 2607              		.cfi_endproc
 2608              	.LFE32:
 2609              		.size	cmp_write_false, .-cmp_write_false
 2610              		.section	.text.cmp_write_bool,"ax",%progbits
 2611              		.align	1
 2612              		.p2align 4,,15
 2613              		.global	cmp_write_bool
 2614              		.syntax unified
ARM GAS  C:\Users\PCHAUT~1\AppData\Local\Temp\ccacj52E.s 			page 48


 2615              		.thumb
 2616              		.thumb_func
 2617              		.fpu fpv4-sp-d16
 2618              		.type	cmp_write_bool, %function
 2619              	cmp_write_bool:
 2620              	.LFB33:
 2621              		.loc 1 410 0
 2622              		.cfi_startproc
 2623              		@ args = 0, pretend = 0, frame = 16
 2624              		@ frame_needed = 0, uses_anonymous_args = 0
 2625 0000 00B5     		push	{lr}
 2626              		.cfi_def_cfa_offset 4
 2627              		.cfi_offset 14, -4
 2628 0002 85B0     		sub	sp, sp, #20
 2629              		.cfi_def_cfa_offset 24
 2630 0004 0190     		str	r0, [sp, #4]
 2631 0006 0B46     		mov	r3, r1
 2632 0008 8DF80330 		strb	r3, [sp, #3]
 2633              		.loc 1 410 0
 2634 000c 0D4B     		ldr	r3, .L201
 2635 000e 1B68     		ldr	r3, [r3]
 2636 0010 0393     		str	r3, [sp, #12]
 2637              		.loc 1 411 0
 2638 0012 9DF80330 		ldrb	r3, [sp, #3]	@ zero_extendqisi2
 2639 0016 002B     		cmp	r3, #0
 2640 0018 04D0     		beq	.L198
 2641              		.loc 1 412 0
 2642 001a 0198     		ldr	r0, [sp, #4]
 2643 001c FFF7FEFF 		bl	cmp_write_true
 2644 0020 0346     		mov	r3, r0
 2645 0022 03E0     		b	.L199
 2646              	.L198:
 2647              		.loc 1 414 0
 2648 0024 0198     		ldr	r0, [sp, #4]
 2649 0026 FFF7FEFF 		bl	cmp_write_false
 2650 002a 0346     		mov	r3, r0
 2651              	.L199:
 2652              		.loc 1 415 0
 2653 002c 1846     		mov	r0, r3
 2654 002e 054B     		ldr	r3, .L201
 2655 0030 039A     		ldr	r2, [sp, #12]
 2656 0032 1B68     		ldr	r3, [r3]
 2657 0034 9A42     		cmp	r2, r3
 2658 0036 01D0     		beq	.L200
 2659 0038 FFF7FEFF 		bl	__stack_chk_fail
 2660              	.L200:
 2661 003c 05B0     		add	sp, sp, #20
 2662              		.cfi_def_cfa_offset 4
 2663              		@ sp needed
 2664 003e 5DF804FB 		ldr	pc, [sp], #4
 2665              	.L202:
 2666 0042 00BF     		.align	2
 2667              	.L201:
 2668 0044 00000000 		.word	__stack_chk_guard
 2669              		.cfi_endproc
 2670              	.LFE33:
 2671              		.size	cmp_write_bool, .-cmp_write_bool
ARM GAS  C:\Users\PCHAUT~1\AppData\Local\Temp\ccacj52E.s 			page 49


 2672              		.section	.text.cmp_write_u8_as_bool,"ax",%progbits
 2673              		.align	1
 2674              		.p2align 4,,15
 2675              		.global	cmp_write_u8_as_bool
 2676              		.syntax unified
 2677              		.thumb
 2678              		.thumb_func
 2679              		.fpu fpv4-sp-d16
 2680              		.type	cmp_write_u8_as_bool, %function
 2681              	cmp_write_u8_as_bool:
 2682              	.LFB34:
 2683              		.loc 1 417 0
 2684              		.cfi_startproc
 2685              		@ args = 0, pretend = 0, frame = 16
 2686              		@ frame_needed = 0, uses_anonymous_args = 0
 2687 0000 00B5     		push	{lr}
 2688              		.cfi_def_cfa_offset 4
 2689              		.cfi_offset 14, -4
 2690 0002 85B0     		sub	sp, sp, #20
 2691              		.cfi_def_cfa_offset 24
 2692 0004 0190     		str	r0, [sp, #4]
 2693 0006 0B46     		mov	r3, r1
 2694 0008 8DF80330 		strb	r3, [sp, #3]
 2695              		.loc 1 417 0
 2696 000c 0D4B     		ldr	r3, .L207
 2697 000e 1B68     		ldr	r3, [r3]
 2698 0010 0393     		str	r3, [sp, #12]
 2699              		.loc 1 418 0
 2700 0012 9DF80330 		ldrb	r3, [sp, #3]	@ zero_extendqisi2
 2701 0016 002B     		cmp	r3, #0
 2702 0018 04D0     		beq	.L204
 2703              		.loc 1 419 0
 2704 001a 0198     		ldr	r0, [sp, #4]
 2705 001c FFF7FEFF 		bl	cmp_write_true
 2706 0020 0346     		mov	r3, r0
 2707 0022 03E0     		b	.L205
 2708              	.L204:
 2709              		.loc 1 421 0
 2710 0024 0198     		ldr	r0, [sp, #4]
 2711 0026 FFF7FEFF 		bl	cmp_write_false
 2712 002a 0346     		mov	r3, r0
 2713              	.L205:
 2714              		.loc 1 422 0
 2715 002c 1846     		mov	r0, r3
 2716 002e 054B     		ldr	r3, .L207
 2717 0030 039A     		ldr	r2, [sp, #12]
 2718 0032 1B68     		ldr	r3, [r3]
 2719 0034 9A42     		cmp	r2, r3
 2720 0036 01D0     		beq	.L206
 2721 0038 FFF7FEFF 		bl	__stack_chk_fail
 2722              	.L206:
 2723 003c 05B0     		add	sp, sp, #20
 2724              		.cfi_def_cfa_offset 4
 2725              		@ sp needed
 2726 003e 5DF804FB 		ldr	pc, [sp], #4
 2727              	.L208:
 2728 0042 00BF     		.align	2
ARM GAS  C:\Users\PCHAUT~1\AppData\Local\Temp\ccacj52E.s 			page 50


 2729              	.L207:
 2730 0044 00000000 		.word	__stack_chk_guard
 2731              		.cfi_endproc
 2732              	.LFE34:
 2733              		.size	cmp_write_u8_as_bool, .-cmp_write_u8_as_bool
 2734              		.section	.text.cmp_write_fixstr_marker,"ax",%progbits
 2735              		.align	1
 2736              		.p2align 4,,15
 2737              		.global	cmp_write_fixstr_marker
 2738              		.syntax unified
 2739              		.thumb
 2740              		.thumb_func
 2741              		.fpu fpv4-sp-d16
 2742              		.type	cmp_write_fixstr_marker, %function
 2743              	cmp_write_fixstr_marker:
 2744              	.LFB35:
 2745              		.loc 1 424 0
 2746              		.cfi_startproc
 2747              		@ args = 0, pretend = 0, frame = 16
 2748              		@ frame_needed = 0, uses_anonymous_args = 0
 2749 0000 00B5     		push	{lr}
 2750              		.cfi_def_cfa_offset 4
 2751              		.cfi_offset 14, -4
 2752 0002 85B0     		sub	sp, sp, #20
 2753              		.cfi_def_cfa_offset 24
 2754 0004 0190     		str	r0, [sp, #4]
 2755 0006 0B46     		mov	r3, r1
 2756 0008 8DF80330 		strb	r3, [sp, #3]
 2757              		.loc 1 424 0
 2758 000c 104B     		ldr	r3, .L213
 2759 000e 1B68     		ldr	r3, [r3]
 2760 0010 0393     		str	r3, [sp, #12]
 2761              		.loc 1 425 0
 2762 0012 9DF80330 		ldrb	r3, [sp, #3]	@ zero_extendqisi2
 2763 0016 1F2B     		cmp	r3, #31
 2764 0018 0AD8     		bhi	.L210
 2765              		.loc 1 426 0
 2766 001a 9DF80330 		ldrb	r3, [sp, #3]
 2767 001e 63F05F03 		orn	r3, r3, #95
 2768 0022 DBB2     		uxtb	r3, r3
 2769 0024 1946     		mov	r1, r3
 2770 0026 0198     		ldr	r0, [sp, #4]
 2771 0028 FFF7FEFF 		bl	write_fixed_value
 2772 002c 0346     		mov	r3, r0
 2773 002e 03E0     		b	.L211
 2774              	.L210:
 2775              		.loc 1 428 0
 2776 0030 019B     		ldr	r3, [sp, #4]
 2777 0032 0522     		movs	r2, #5
 2778 0034 1A70     		strb	r2, [r3]
 2779              		.loc 1 429 0
 2780 0036 0023     		movs	r3, #0
 2781              	.L211:
 2782              		.loc 1 430 0
 2783 0038 1846     		mov	r0, r3
 2784 003a 054B     		ldr	r3, .L213
 2785 003c 039A     		ldr	r2, [sp, #12]
ARM GAS  C:\Users\PCHAUT~1\AppData\Local\Temp\ccacj52E.s 			page 51


 2786 003e 1B68     		ldr	r3, [r3]
 2787 0040 9A42     		cmp	r2, r3
 2788 0042 01D0     		beq	.L212
 2789 0044 FFF7FEFF 		bl	__stack_chk_fail
 2790              	.L212:
 2791 0048 05B0     		add	sp, sp, #20
 2792              		.cfi_def_cfa_offset 4
 2793              		@ sp needed
 2794 004a 5DF804FB 		ldr	pc, [sp], #4
 2795              	.L214:
 2796 004e 00BF     		.align	2
 2797              	.L213:
 2798 0050 00000000 		.word	__stack_chk_guard
 2799              		.cfi_endproc
 2800              	.LFE35:
 2801              		.size	cmp_write_fixstr_marker, .-cmp_write_fixstr_marker
 2802              		.section	.text.cmp_write_fixstr,"ax",%progbits
 2803              		.align	1
 2804              		.p2align 4,,15
 2805              		.global	cmp_write_fixstr
 2806              		.syntax unified
 2807              		.thumb
 2808              		.thumb_func
 2809              		.fpu fpv4-sp-d16
 2810              		.type	cmp_write_fixstr, %function
 2811              	cmp_write_fixstr:
 2812              	.LFB36:
 2813              		.loc 1 432 0
 2814              		.cfi_startproc
 2815              		@ args = 0, pretend = 0, frame = 24
 2816              		@ frame_needed = 0, uses_anonymous_args = 0
 2817 0000 00B5     		push	{lr}
 2818              		.cfi_def_cfa_offset 4
 2819              		.cfi_offset 14, -4
 2820 0002 87B0     		sub	sp, sp, #28
 2821              		.cfi_def_cfa_offset 32
 2822 0004 0390     		str	r0, [sp, #12]
 2823 0006 0291     		str	r1, [sp, #8]
 2824 0008 1346     		mov	r3, r2
 2825 000a 8DF80730 		strb	r3, [sp, #7]
 2826              		.loc 1 432 0
 2827 000e 194B     		ldr	r3, .L221
 2828 0010 1B68     		ldr	r3, [r3]
 2829 0012 0593     		str	r3, [sp, #20]
 2830              		.loc 1 433 0
 2831 0014 9DF80730 		ldrb	r3, [sp, #7]	@ zero_extendqisi2
 2832 0018 1946     		mov	r1, r3
 2833 001a 0398     		ldr	r0, [sp, #12]
 2834 001c FFF7FEFF 		bl	cmp_write_fixstr_marker
 2835 0020 0346     		mov	r3, r0
 2836 0022 83F00103 		eor	r3, r3, #1
 2837 0026 DBB2     		uxtb	r3, r3
 2838 0028 002B     		cmp	r3, #0
 2839 002a 01D0     		beq	.L216
 2840              		.loc 1 434 0
 2841 002c 0023     		movs	r3, #0
 2842 002e 15E0     		b	.L217
ARM GAS  C:\Users\PCHAUT~1\AppData\Local\Temp\ccacj52E.s 			page 52


 2843              	.L216:
 2844              		.loc 1 436 0
 2845 0030 9DF80730 		ldrb	r3, [sp, #7]	@ zero_extendqisi2
 2846 0034 002B     		cmp	r3, #0
 2847 0036 01D1     		bne	.L218
 2848              		.loc 1 437 0
 2849 0038 0123     		movs	r3, #1
 2850 003a 0FE0     		b	.L217
 2851              	.L218:
 2852              		.loc 1 439 0
 2853 003c 039B     		ldr	r3, [sp, #12]
 2854 003e DB68     		ldr	r3, [r3, #12]
 2855 0040 9DF80720 		ldrb	r2, [sp, #7]	@ zero_extendqisi2
 2856 0044 0299     		ldr	r1, [sp, #8]
 2857 0046 0398     		ldr	r0, [sp, #12]
 2858 0048 9847     		blx	r3
 2859              	.LVL12:
 2860 004a 0346     		mov	r3, r0
 2861 004c 002B     		cmp	r3, #0
 2862 004e 01D0     		beq	.L219
 2863              		.loc 1 440 0
 2864 0050 0123     		movs	r3, #1
 2865 0052 03E0     		b	.L217
 2866              	.L219:
 2867              		.loc 1 442 0
 2868 0054 039B     		ldr	r3, [sp, #12]
 2869 0056 0A22     		movs	r2, #10
 2870 0058 1A70     		strb	r2, [r3]
 2871              		.loc 1 443 0
 2872 005a 0023     		movs	r3, #0
 2873              	.L217:
 2874              		.loc 1 444 0
 2875 005c 1846     		mov	r0, r3
 2876 005e 054B     		ldr	r3, .L221
 2877 0060 059A     		ldr	r2, [sp, #20]
 2878 0062 1B68     		ldr	r3, [r3]
 2879 0064 9A42     		cmp	r2, r3
 2880 0066 01D0     		beq	.L220
 2881 0068 FFF7FEFF 		bl	__stack_chk_fail
 2882              	.L220:
 2883 006c 07B0     		add	sp, sp, #28
 2884              		.cfi_def_cfa_offset 4
 2885              		@ sp needed
 2886 006e 5DF804FB 		ldr	pc, [sp], #4
 2887              	.L222:
 2888 0072 00BF     		.align	2
 2889              	.L221:
 2890 0074 00000000 		.word	__stack_chk_guard
 2891              		.cfi_endproc
 2892              	.LFE36:
 2893              		.size	cmp_write_fixstr, .-cmp_write_fixstr
 2894              		.section	.text.cmp_write_str8_marker,"ax",%progbits
 2895              		.align	1
 2896              		.p2align 4,,15
 2897              		.global	cmp_write_str8_marker
 2898              		.syntax unified
 2899              		.thumb
ARM GAS  C:\Users\PCHAUT~1\AppData\Local\Temp\ccacj52E.s 			page 53


 2900              		.thumb_func
 2901              		.fpu fpv4-sp-d16
 2902              		.type	cmp_write_str8_marker, %function
 2903              	cmp_write_str8_marker:
 2904              	.LFB37:
 2905              		.loc 1 446 0
 2906              		.cfi_startproc
 2907              		@ args = 0, pretend = 0, frame = 16
 2908              		@ frame_needed = 0, uses_anonymous_args = 0
 2909 0000 00B5     		push	{lr}
 2910              		.cfi_def_cfa_offset 4
 2911              		.cfi_offset 14, -4
 2912 0002 85B0     		sub	sp, sp, #20
 2913              		.cfi_def_cfa_offset 24
 2914 0004 0190     		str	r0, [sp, #4]
 2915 0006 0B46     		mov	r3, r1
 2916 0008 8DF80330 		strb	r3, [sp, #3]
 2917              		.loc 1 446 0
 2918 000c 144B     		ldr	r3, .L228
 2919 000e 1B68     		ldr	r3, [r3]
 2920 0010 0393     		str	r3, [sp, #12]
 2921              		.loc 1 447 0
 2922 0012 D921     		movs	r1, #217
 2923 0014 0198     		ldr	r0, [sp, #4]
 2924 0016 FFF7FEFF 		bl	write_type_marker
 2925 001a 0346     		mov	r3, r0
 2926 001c 83F00103 		eor	r3, r3, #1
 2927 0020 DBB2     		uxtb	r3, r3
 2928 0022 002B     		cmp	r3, #0
 2929 0024 01D0     		beq	.L224
 2930              		.loc 1 448 0
 2931 0026 0023     		movs	r3, #0
 2932 0028 0FE0     		b	.L225
 2933              	.L224:
 2934              		.loc 1 450 0
 2935 002a 019B     		ldr	r3, [sp, #4]
 2936 002c DB68     		ldr	r3, [r3, #12]
 2937 002e 0DF10301 		add	r1, sp, #3
 2938 0032 0122     		movs	r2, #1
 2939 0034 0198     		ldr	r0, [sp, #4]
 2940 0036 9847     		blx	r3
 2941              	.LVL13:
 2942 0038 0346     		mov	r3, r0
 2943 003a 002B     		cmp	r3, #0
 2944 003c 01D0     		beq	.L226
 2945              		.loc 1 451 0
 2946 003e 0123     		movs	r3, #1
 2947 0040 03E0     		b	.L225
 2948              	.L226:
 2949              		.loc 1 453 0
 2950 0042 019B     		ldr	r3, [sp, #4]
 2951 0044 0F22     		movs	r2, #15
 2952 0046 1A70     		strb	r2, [r3]
 2953              		.loc 1 454 0
 2954 0048 0023     		movs	r3, #0
 2955              	.L225:
 2956              		.loc 1 455 0
ARM GAS  C:\Users\PCHAUT~1\AppData\Local\Temp\ccacj52E.s 			page 54


 2957 004a 1846     		mov	r0, r3
 2958 004c 044B     		ldr	r3, .L228
 2959 004e 039A     		ldr	r2, [sp, #12]
 2960 0050 1B68     		ldr	r3, [r3]
 2961 0052 9A42     		cmp	r2, r3
 2962 0054 01D0     		beq	.L227
 2963 0056 FFF7FEFF 		bl	__stack_chk_fail
 2964              	.L227:
 2965 005a 05B0     		add	sp, sp, #20
 2966              		.cfi_def_cfa_offset 4
 2967              		@ sp needed
 2968 005c 5DF804FB 		ldr	pc, [sp], #4
 2969              	.L229:
 2970              		.align	2
 2971              	.L228:
 2972 0060 00000000 		.word	__stack_chk_guard
 2973              		.cfi_endproc
 2974              	.LFE37:
 2975              		.size	cmp_write_str8_marker, .-cmp_write_str8_marker
 2976              		.section	.text.cmp_write_str8,"ax",%progbits
 2977              		.align	1
 2978              		.p2align 4,,15
 2979              		.global	cmp_write_str8
 2980              		.syntax unified
 2981              		.thumb
 2982              		.thumb_func
 2983              		.fpu fpv4-sp-d16
 2984              		.type	cmp_write_str8, %function
 2985              	cmp_write_str8:
 2986              	.LFB38:
 2987              		.loc 1 457 0
 2988              		.cfi_startproc
 2989              		@ args = 0, pretend = 0, frame = 24
 2990              		@ frame_needed = 0, uses_anonymous_args = 0
 2991 0000 00B5     		push	{lr}
 2992              		.cfi_def_cfa_offset 4
 2993              		.cfi_offset 14, -4
 2994 0002 87B0     		sub	sp, sp, #28
 2995              		.cfi_def_cfa_offset 32
 2996 0004 0390     		str	r0, [sp, #12]
 2997 0006 0291     		str	r1, [sp, #8]
 2998 0008 1346     		mov	r3, r2
 2999 000a 8DF80730 		strb	r3, [sp, #7]
 3000              		.loc 1 457 0
 3001 000e 194B     		ldr	r3, .L236
 3002 0010 1B68     		ldr	r3, [r3]
 3003 0012 0593     		str	r3, [sp, #20]
 3004              		.loc 1 458 0
 3005 0014 9DF80730 		ldrb	r3, [sp, #7]	@ zero_extendqisi2
 3006 0018 1946     		mov	r1, r3
 3007 001a 0398     		ldr	r0, [sp, #12]
 3008 001c FFF7FEFF 		bl	cmp_write_str8_marker
 3009 0020 0346     		mov	r3, r0
 3010 0022 83F00103 		eor	r3, r3, #1
 3011 0026 DBB2     		uxtb	r3, r3
 3012 0028 002B     		cmp	r3, #0
 3013 002a 01D0     		beq	.L231
ARM GAS  C:\Users\PCHAUT~1\AppData\Local\Temp\ccacj52E.s 			page 55


 3014              		.loc 1 459 0
 3015 002c 0023     		movs	r3, #0
 3016 002e 15E0     		b	.L232
 3017              	.L231:
 3018              		.loc 1 461 0
 3019 0030 9DF80730 		ldrb	r3, [sp, #7]	@ zero_extendqisi2
 3020 0034 002B     		cmp	r3, #0
 3021 0036 01D1     		bne	.L233
 3022              		.loc 1 462 0
 3023 0038 0123     		movs	r3, #1
 3024 003a 0FE0     		b	.L232
 3025              	.L233:
 3026              		.loc 1 464 0
 3027 003c 039B     		ldr	r3, [sp, #12]
 3028 003e DB68     		ldr	r3, [r3, #12]
 3029 0040 9DF80720 		ldrb	r2, [sp, #7]	@ zero_extendqisi2
 3030 0044 0299     		ldr	r1, [sp, #8]
 3031 0046 0398     		ldr	r0, [sp, #12]
 3032 0048 9847     		blx	r3
 3033              	.LVL14:
 3034 004a 0346     		mov	r3, r0
 3035 004c 002B     		cmp	r3, #0
 3036 004e 01D0     		beq	.L234
 3037              		.loc 1 465 0
 3038 0050 0123     		movs	r3, #1
 3039 0052 03E0     		b	.L232
 3040              	.L234:
 3041              		.loc 1 467 0
 3042 0054 039B     		ldr	r3, [sp, #12]
 3043 0056 0A22     		movs	r2, #10
 3044 0058 1A70     		strb	r2, [r3]
 3045              		.loc 1 468 0
 3046 005a 0023     		movs	r3, #0
 3047              	.L232:
 3048              		.loc 1 469 0
 3049 005c 1846     		mov	r0, r3
 3050 005e 054B     		ldr	r3, .L236
 3051 0060 059A     		ldr	r2, [sp, #20]
 3052 0062 1B68     		ldr	r3, [r3]
 3053 0064 9A42     		cmp	r2, r3
 3054 0066 01D0     		beq	.L235
 3055 0068 FFF7FEFF 		bl	__stack_chk_fail
 3056              	.L235:
 3057 006c 07B0     		add	sp, sp, #28
 3058              		.cfi_def_cfa_offset 4
 3059              		@ sp needed
 3060 006e 5DF804FB 		ldr	pc, [sp], #4
 3061              	.L237:
 3062 0072 00BF     		.align	2
 3063              	.L236:
 3064 0074 00000000 		.word	__stack_chk_guard
 3065              		.cfi_endproc
 3066              	.LFE38:
 3067              		.size	cmp_write_str8, .-cmp_write_str8
 3068              		.section	.text.cmp_write_str16_marker,"ax",%progbits
 3069              		.align	1
 3070              		.p2align 4,,15
ARM GAS  C:\Users\PCHAUT~1\AppData\Local\Temp\ccacj52E.s 			page 56


 3071              		.global	cmp_write_str16_marker
 3072              		.syntax unified
 3073              		.thumb
 3074              		.thumb_func
 3075              		.fpu fpv4-sp-d16
 3076              		.type	cmp_write_str16_marker, %function
 3077              	cmp_write_str16_marker:
 3078              	.LFB39:
 3079              		.loc 1 471 0
 3080              		.cfi_startproc
 3081              		@ args = 0, pretend = 0, frame = 16
 3082              		@ frame_needed = 0, uses_anonymous_args = 0
 3083 0000 00B5     		push	{lr}
 3084              		.cfi_def_cfa_offset 4
 3085              		.cfi_offset 14, -4
 3086 0002 85B0     		sub	sp, sp, #20
 3087              		.cfi_def_cfa_offset 24
 3088 0004 0190     		str	r0, [sp, #4]
 3089 0006 0B46     		mov	r3, r1
 3090 0008 ADF80230 		strh	r3, [sp, #2]	@ movhi
 3091              		.loc 1 471 0
 3092 000c 184B     		ldr	r3, .L243
 3093 000e 1B68     		ldr	r3, [r3]
 3094 0010 0393     		str	r3, [sp, #12]
 3095              		.loc 1 472 0
 3096 0012 DA21     		movs	r1, #218
 3097 0014 0198     		ldr	r0, [sp, #4]
 3098 0016 FFF7FEFF 		bl	write_type_marker
 3099 001a 0346     		mov	r3, r0
 3100 001c 83F00103 		eor	r3, r3, #1
 3101 0020 DBB2     		uxtb	r3, r3
 3102 0022 002B     		cmp	r3, #0
 3103 0024 01D0     		beq	.L239
 3104              		.loc 1 473 0
 3105 0026 0023     		movs	r3, #0
 3106 0028 17E0     		b	.L240
 3107              	.L239:
 3108              		.loc 1 475 0
 3109 002a BDF80230 		ldrh	r3, [sp, #2]
 3110 002e 1846     		mov	r0, r3
 3111 0030 FFF7FEFF 		bl	be16
 3112 0034 0346     		mov	r3, r0
 3113 0036 ADF80230 		strh	r3, [sp, #2]	@ movhi
 3114              		.loc 1 477 0
 3115 003a 019B     		ldr	r3, [sp, #4]
 3116 003c DB68     		ldr	r3, [r3, #12]
 3117 003e 0DF10201 		add	r1, sp, #2
 3118 0042 0222     		movs	r2, #2
 3119 0044 0198     		ldr	r0, [sp, #4]
 3120 0046 9847     		blx	r3
 3121              	.LVL15:
 3122 0048 0346     		mov	r3, r0
 3123 004a 002B     		cmp	r3, #0
 3124 004c 01D0     		beq	.L241
 3125              		.loc 1 478 0
 3126 004e 0123     		movs	r3, #1
 3127 0050 03E0     		b	.L240
ARM GAS  C:\Users\PCHAUT~1\AppData\Local\Temp\ccacj52E.s 			page 57


 3128              	.L241:
 3129              		.loc 1 480 0
 3130 0052 019B     		ldr	r3, [sp, #4]
 3131 0054 0F22     		movs	r2, #15
 3132 0056 1A70     		strb	r2, [r3]
 3133              		.loc 1 481 0
 3134 0058 0023     		movs	r3, #0
 3135              	.L240:
 3136              		.loc 1 482 0
 3137 005a 1846     		mov	r0, r3
 3138 005c 044B     		ldr	r3, .L243
 3139 005e 039A     		ldr	r2, [sp, #12]
 3140 0060 1B68     		ldr	r3, [r3]
 3141 0062 9A42     		cmp	r2, r3
 3142 0064 01D0     		beq	.L242
 3143 0066 FFF7FEFF 		bl	__stack_chk_fail
 3144              	.L242:
 3145 006a 05B0     		add	sp, sp, #20
 3146              		.cfi_def_cfa_offset 4
 3147              		@ sp needed
 3148 006c 5DF804FB 		ldr	pc, [sp], #4
 3149              	.L244:
 3150              		.align	2
 3151              	.L243:
 3152 0070 00000000 		.word	__stack_chk_guard
 3153              		.cfi_endproc
 3154              	.LFE39:
 3155              		.size	cmp_write_str16_marker, .-cmp_write_str16_marker
 3156              		.section	.text.cmp_write_str16,"ax",%progbits
 3157              		.align	1
 3158              		.p2align 4,,15
 3159              		.global	cmp_write_str16
 3160              		.syntax unified
 3161              		.thumb
 3162              		.thumb_func
 3163              		.fpu fpv4-sp-d16
 3164              		.type	cmp_write_str16, %function
 3165              	cmp_write_str16:
 3166              	.LFB40:
 3167              		.loc 1 484 0
 3168              		.cfi_startproc
 3169              		@ args = 0, pretend = 0, frame = 24
 3170              		@ frame_needed = 0, uses_anonymous_args = 0
 3171 0000 00B5     		push	{lr}
 3172              		.cfi_def_cfa_offset 4
 3173              		.cfi_offset 14, -4
 3174 0002 87B0     		sub	sp, sp, #28
 3175              		.cfi_def_cfa_offset 32
 3176 0004 0390     		str	r0, [sp, #12]
 3177 0006 0291     		str	r1, [sp, #8]
 3178 0008 1346     		mov	r3, r2
 3179 000a ADF80630 		strh	r3, [sp, #6]	@ movhi
 3180              		.loc 1 484 0
 3181 000e 194B     		ldr	r3, .L251
 3182 0010 1B68     		ldr	r3, [r3]
 3183 0012 0593     		str	r3, [sp, #20]
 3184              		.loc 1 485 0
ARM GAS  C:\Users\PCHAUT~1\AppData\Local\Temp\ccacj52E.s 			page 58


 3185 0014 BDF80630 		ldrh	r3, [sp, #6]
 3186 0018 1946     		mov	r1, r3
 3187 001a 0398     		ldr	r0, [sp, #12]
 3188 001c FFF7FEFF 		bl	cmp_write_str16_marker
 3189 0020 0346     		mov	r3, r0
 3190 0022 83F00103 		eor	r3, r3, #1
 3191 0026 DBB2     		uxtb	r3, r3
 3192 0028 002B     		cmp	r3, #0
 3193 002a 01D0     		beq	.L246
 3194              		.loc 1 486 0
 3195 002c 0023     		movs	r3, #0
 3196 002e 15E0     		b	.L247
 3197              	.L246:
 3198              		.loc 1 488 0
 3199 0030 BDF80630 		ldrh	r3, [sp, #6]
 3200 0034 002B     		cmp	r3, #0
 3201 0036 01D1     		bne	.L248
 3202              		.loc 1 489 0
 3203 0038 0123     		movs	r3, #1
 3204 003a 0FE0     		b	.L247
 3205              	.L248:
 3206              		.loc 1 491 0
 3207 003c 039B     		ldr	r3, [sp, #12]
 3208 003e DB68     		ldr	r3, [r3, #12]
 3209 0040 BDF80620 		ldrh	r2, [sp, #6]
 3210 0044 0299     		ldr	r1, [sp, #8]
 3211 0046 0398     		ldr	r0, [sp, #12]
 3212 0048 9847     		blx	r3
 3213              	.LVL16:
 3214 004a 0346     		mov	r3, r0
 3215 004c 002B     		cmp	r3, #0
 3216 004e 01D0     		beq	.L249
 3217              		.loc 1 492 0
 3218 0050 0123     		movs	r3, #1
 3219 0052 03E0     		b	.L247
 3220              	.L249:
 3221              		.loc 1 494 0
 3222 0054 039B     		ldr	r3, [sp, #12]
 3223 0056 0A22     		movs	r2, #10
 3224 0058 1A70     		strb	r2, [r3]
 3225              		.loc 1 495 0
 3226 005a 0023     		movs	r3, #0
 3227              	.L247:
 3228              		.loc 1 496 0
 3229 005c 1846     		mov	r0, r3
 3230 005e 054B     		ldr	r3, .L251
 3231 0060 059A     		ldr	r2, [sp, #20]
 3232 0062 1B68     		ldr	r3, [r3]
 3233 0064 9A42     		cmp	r2, r3
 3234 0066 01D0     		beq	.L250
 3235 0068 FFF7FEFF 		bl	__stack_chk_fail
 3236              	.L250:
 3237 006c 07B0     		add	sp, sp, #28
 3238              		.cfi_def_cfa_offset 4
 3239              		@ sp needed
 3240 006e 5DF804FB 		ldr	pc, [sp], #4
 3241              	.L252:
ARM GAS  C:\Users\PCHAUT~1\AppData\Local\Temp\ccacj52E.s 			page 59


 3242 0072 00BF     		.align	2
 3243              	.L251:
 3244 0074 00000000 		.word	__stack_chk_guard
 3245              		.cfi_endproc
 3246              	.LFE40:
 3247              		.size	cmp_write_str16, .-cmp_write_str16
 3248              		.section	.text.cmp_write_str32_marker,"ax",%progbits
 3249              		.align	1
 3250              		.p2align 4,,15
 3251              		.global	cmp_write_str32_marker
 3252              		.syntax unified
 3253              		.thumb
 3254              		.thumb_func
 3255              		.fpu fpv4-sp-d16
 3256              		.type	cmp_write_str32_marker, %function
 3257              	cmp_write_str32_marker:
 3258              	.LFB41:
 3259              		.loc 1 498 0
 3260              		.cfi_startproc
 3261              		@ args = 0, pretend = 0, frame = 16
 3262              		@ frame_needed = 0, uses_anonymous_args = 0
 3263 0000 00B5     		push	{lr}
 3264              		.cfi_def_cfa_offset 4
 3265              		.cfi_offset 14, -4
 3266 0002 85B0     		sub	sp, sp, #20
 3267              		.cfi_def_cfa_offset 24
 3268 0004 0190     		str	r0, [sp, #4]
 3269 0006 0091     		str	r1, [sp]
 3270              		.loc 1 498 0
 3271 0008 174B     		ldr	r3, .L258
 3272 000a 1B68     		ldr	r3, [r3]
 3273 000c 0393     		str	r3, [sp, #12]
 3274              		.loc 1 499 0
 3275 000e DB21     		movs	r1, #219
 3276 0010 0198     		ldr	r0, [sp, #4]
 3277 0012 FFF7FEFF 		bl	write_type_marker
 3278 0016 0346     		mov	r3, r0
 3279 0018 83F00103 		eor	r3, r3, #1
 3280 001c DBB2     		uxtb	r3, r3
 3281 001e 002B     		cmp	r3, #0
 3282 0020 01D0     		beq	.L254
 3283              		.loc 1 500 0
 3284 0022 0023     		movs	r3, #0
 3285 0024 14E0     		b	.L255
 3286              	.L254:
 3287              		.loc 1 502 0
 3288 0026 009B     		ldr	r3, [sp]
 3289 0028 1846     		mov	r0, r3
 3290 002a FFF7FEFF 		bl	be32
 3291 002e 0346     		mov	r3, r0
 3292 0030 0093     		str	r3, [sp]
 3293              		.loc 1 504 0
 3294 0032 019B     		ldr	r3, [sp, #4]
 3295 0034 DB68     		ldr	r3, [r3, #12]
 3296 0036 6946     		mov	r1, sp
 3297 0038 0422     		movs	r2, #4
 3298 003a 0198     		ldr	r0, [sp, #4]
ARM GAS  C:\Users\PCHAUT~1\AppData\Local\Temp\ccacj52E.s 			page 60


 3299 003c 9847     		blx	r3
 3300              	.LVL17:
 3301 003e 0346     		mov	r3, r0
 3302 0040 002B     		cmp	r3, #0
 3303 0042 01D0     		beq	.L256
 3304              		.loc 1 505 0
 3305 0044 0123     		movs	r3, #1
 3306 0046 03E0     		b	.L255
 3307              	.L256:
 3308              		.loc 1 507 0
 3309 0048 019B     		ldr	r3, [sp, #4]
 3310 004a 0F22     		movs	r2, #15
 3311 004c 1A70     		strb	r2, [r3]
 3312              		.loc 1 508 0
 3313 004e 0023     		movs	r3, #0
 3314              	.L255:
 3315              		.loc 1 509 0
 3316 0050 1846     		mov	r0, r3
 3317 0052 054B     		ldr	r3, .L258
 3318 0054 039A     		ldr	r2, [sp, #12]
 3319 0056 1B68     		ldr	r3, [r3]
 3320 0058 9A42     		cmp	r2, r3
 3321 005a 01D0     		beq	.L257
 3322 005c FFF7FEFF 		bl	__stack_chk_fail
 3323              	.L257:
 3324 0060 05B0     		add	sp, sp, #20
 3325              		.cfi_def_cfa_offset 4
 3326              		@ sp needed
 3327 0062 5DF804FB 		ldr	pc, [sp], #4
 3328              	.L259:
 3329 0066 00BF     		.align	2
 3330              	.L258:
 3331 0068 00000000 		.word	__stack_chk_guard
 3332              		.cfi_endproc
 3333              	.LFE41:
 3334              		.size	cmp_write_str32_marker, .-cmp_write_str32_marker
 3335              		.section	.text.cmp_write_str32,"ax",%progbits
 3336              		.align	1
 3337              		.p2align 4,,15
 3338              		.global	cmp_write_str32
 3339              		.syntax unified
 3340              		.thumb
 3341              		.thumb_func
 3342              		.fpu fpv4-sp-d16
 3343              		.type	cmp_write_str32, %function
 3344              	cmp_write_str32:
 3345              	.LFB42:
 3346              		.loc 1 511 0
 3347              		.cfi_startproc
 3348              		@ args = 0, pretend = 0, frame = 24
 3349              		@ frame_needed = 0, uses_anonymous_args = 0
 3350 0000 00B5     		push	{lr}
 3351              		.cfi_def_cfa_offset 4
 3352              		.cfi_offset 14, -4
 3353 0002 87B0     		sub	sp, sp, #28
 3354              		.cfi_def_cfa_offset 32
 3355 0004 0390     		str	r0, [sp, #12]
ARM GAS  C:\Users\PCHAUT~1\AppData\Local\Temp\ccacj52E.s 			page 61


 3356 0006 0291     		str	r1, [sp, #8]
 3357 0008 0192     		str	r2, [sp, #4]
 3358              		.loc 1 511 0
 3359 000a 174B     		ldr	r3, .L266
 3360 000c 1B68     		ldr	r3, [r3]
 3361 000e 0593     		str	r3, [sp, #20]
 3362              		.loc 1 512 0
 3363 0010 0199     		ldr	r1, [sp, #4]
 3364 0012 0398     		ldr	r0, [sp, #12]
 3365 0014 FFF7FEFF 		bl	cmp_write_str32_marker
 3366 0018 0346     		mov	r3, r0
 3367 001a 83F00103 		eor	r3, r3, #1
 3368 001e DBB2     		uxtb	r3, r3
 3369 0020 002B     		cmp	r3, #0
 3370 0022 01D0     		beq	.L261
 3371              		.loc 1 513 0
 3372 0024 0023     		movs	r3, #0
 3373 0026 13E0     		b	.L262
 3374              	.L261:
 3375              		.loc 1 515 0
 3376 0028 019B     		ldr	r3, [sp, #4]
 3377 002a 002B     		cmp	r3, #0
 3378 002c 01D1     		bne	.L263
 3379              		.loc 1 516 0
 3380 002e 0123     		movs	r3, #1
 3381 0030 0EE0     		b	.L262
 3382              	.L263:
 3383              		.loc 1 518 0
 3384 0032 039B     		ldr	r3, [sp, #12]
 3385 0034 DB68     		ldr	r3, [r3, #12]
 3386 0036 019A     		ldr	r2, [sp, #4]
 3387 0038 0299     		ldr	r1, [sp, #8]
 3388 003a 0398     		ldr	r0, [sp, #12]
 3389 003c 9847     		blx	r3
 3390              	.LVL18:
 3391 003e 0346     		mov	r3, r0
 3392 0040 002B     		cmp	r3, #0
 3393 0042 01D0     		beq	.L264
 3394              		.loc 1 519 0
 3395 0044 0123     		movs	r3, #1
 3396 0046 03E0     		b	.L262
 3397              	.L264:
 3398              		.loc 1 521 0
 3399 0048 039B     		ldr	r3, [sp, #12]
 3400 004a 0A22     		movs	r2, #10
 3401 004c 1A70     		strb	r2, [r3]
 3402              		.loc 1 522 0
 3403 004e 0023     		movs	r3, #0
 3404              	.L262:
 3405              		.loc 1 523 0
 3406 0050 1846     		mov	r0, r3
 3407 0052 054B     		ldr	r3, .L266
 3408 0054 059A     		ldr	r2, [sp, #20]
 3409 0056 1B68     		ldr	r3, [r3]
 3410 0058 9A42     		cmp	r2, r3
 3411 005a 01D0     		beq	.L265
 3412 005c FFF7FEFF 		bl	__stack_chk_fail
ARM GAS  C:\Users\PCHAUT~1\AppData\Local\Temp\ccacj52E.s 			page 62


 3413              	.L265:
 3414 0060 07B0     		add	sp, sp, #28
 3415              		.cfi_def_cfa_offset 4
 3416              		@ sp needed
 3417 0062 5DF804FB 		ldr	pc, [sp], #4
 3418              	.L267:
 3419 0066 00BF     		.align	2
 3420              	.L266:
 3421 0068 00000000 		.word	__stack_chk_guard
 3422              		.cfi_endproc
 3423              	.LFE42:
 3424              		.size	cmp_write_str32, .-cmp_write_str32
 3425              		.section	.text.cmp_write_str_marker,"ax",%progbits
 3426              		.align	1
 3427              		.p2align 4,,15
 3428              		.global	cmp_write_str_marker
 3429              		.syntax unified
 3430              		.thumb
 3431              		.thumb_func
 3432              		.fpu fpv4-sp-d16
 3433              		.type	cmp_write_str_marker, %function
 3434              	cmp_write_str_marker:
 3435              	.LFB43:
 3436              		.loc 1 525 0
 3437              		.cfi_startproc
 3438              		@ args = 0, pretend = 0, frame = 16
 3439              		@ frame_needed = 0, uses_anonymous_args = 0
 3440 0000 00B5     		push	{lr}
 3441              		.cfi_def_cfa_offset 4
 3442              		.cfi_offset 14, -4
 3443 0002 85B0     		sub	sp, sp, #20
 3444              		.cfi_def_cfa_offset 24
 3445 0004 0190     		str	r0, [sp, #4]
 3446 0006 0091     		str	r1, [sp]
 3447              		.loc 1 525 0
 3448 0008 1A4B     		ldr	r3, .L274
 3449 000a 1B68     		ldr	r3, [r3]
 3450 000c 0393     		str	r3, [sp, #12]
 3451              		.loc 1 526 0
 3452 000e 009B     		ldr	r3, [sp]
 3453 0010 1F2B     		cmp	r3, #31
 3454 0012 07D8     		bhi	.L269
 3455              		.loc 1 527 0
 3456 0014 009B     		ldr	r3, [sp]
 3457 0016 DBB2     		uxtb	r3, r3
 3458 0018 1946     		mov	r1, r3
 3459 001a 0198     		ldr	r0, [sp, #4]
 3460 001c FFF7FEFF 		bl	cmp_write_fixstr_marker
 3461 0020 0346     		mov	r3, r0
 3462 0022 1BE0     		b	.L270
 3463              	.L269:
 3464              		.loc 1 528 0
 3465 0024 009B     		ldr	r3, [sp]
 3466 0026 FF2B     		cmp	r3, #255
 3467 0028 07D8     		bhi	.L271
 3468              		.loc 1 529 0
 3469 002a 009B     		ldr	r3, [sp]
ARM GAS  C:\Users\PCHAUT~1\AppData\Local\Temp\ccacj52E.s 			page 63


 3470 002c DBB2     		uxtb	r3, r3
 3471 002e 1946     		mov	r1, r3
 3472 0030 0198     		ldr	r0, [sp, #4]
 3473 0032 FFF7FEFF 		bl	cmp_write_str8_marker
 3474 0036 0346     		mov	r3, r0
 3475 0038 10E0     		b	.L270
 3476              	.L271:
 3477              		.loc 1 530 0
 3478 003a 009B     		ldr	r3, [sp]
 3479 003c B3F5803F 		cmp	r3, #65536
 3480 0040 07D2     		bcs	.L272
 3481              		.loc 1 531 0
 3482 0042 009B     		ldr	r3, [sp]
 3483 0044 9BB2     		uxth	r3, r3
 3484 0046 1946     		mov	r1, r3
 3485 0048 0198     		ldr	r0, [sp, #4]
 3486 004a FFF7FEFF 		bl	cmp_write_str16_marker
 3487 004e 0346     		mov	r3, r0
 3488 0050 04E0     		b	.L270
 3489              	.L272:
 3490              		.loc 1 533 0
 3491 0052 0099     		ldr	r1, [sp]
 3492 0054 0198     		ldr	r0, [sp, #4]
 3493 0056 FFF7FEFF 		bl	cmp_write_str32_marker
 3494 005a 0346     		mov	r3, r0
 3495              	.L270:
 3496              		.loc 1 534 0
 3497 005c 1846     		mov	r0, r3
 3498 005e 054B     		ldr	r3, .L274
 3499 0060 039A     		ldr	r2, [sp, #12]
 3500 0062 1B68     		ldr	r3, [r3]
 3501 0064 9A42     		cmp	r2, r3
 3502 0066 01D0     		beq	.L273
 3503 0068 FFF7FEFF 		bl	__stack_chk_fail
 3504              	.L273:
 3505 006c 05B0     		add	sp, sp, #20
 3506              		.cfi_def_cfa_offset 4
 3507              		@ sp needed
 3508 006e 5DF804FB 		ldr	pc, [sp], #4
 3509              	.L275:
 3510 0072 00BF     		.align	2
 3511              	.L274:
 3512 0074 00000000 		.word	__stack_chk_guard
 3513              		.cfi_endproc
 3514              	.LFE43:
 3515              		.size	cmp_write_str_marker, .-cmp_write_str_marker
 3516              		.section	.text.cmp_write_str,"ax",%progbits
 3517              		.align	1
 3518              		.p2align 4,,15
 3519              		.global	cmp_write_str
 3520              		.syntax unified
 3521              		.thumb
 3522              		.thumb_func
 3523              		.fpu fpv4-sp-d16
 3524              		.type	cmp_write_str, %function
 3525              	cmp_write_str:
 3526              	.LFB44:
ARM GAS  C:\Users\PCHAUT~1\AppData\Local\Temp\ccacj52E.s 			page 64


 3527              		.loc 1 536 0
 3528              		.cfi_startproc
 3529              		@ args = 0, pretend = 0, frame = 24
 3530              		@ frame_needed = 0, uses_anonymous_args = 0
 3531 0000 00B5     		push	{lr}
 3532              		.cfi_def_cfa_offset 4
 3533              		.cfi_offset 14, -4
 3534 0002 87B0     		sub	sp, sp, #28
 3535              		.cfi_def_cfa_offset 32
 3536 0004 0390     		str	r0, [sp, #12]
 3537 0006 0291     		str	r1, [sp, #8]
 3538 0008 0192     		str	r2, [sp, #4]
 3539              		.loc 1 536 0
 3540 000a 1C4B     		ldr	r3, .L282
 3541 000c 1B68     		ldr	r3, [r3]
 3542 000e 0593     		str	r3, [sp, #20]
 3543              		.loc 1 537 0
 3544 0010 019B     		ldr	r3, [sp, #4]
 3545 0012 1F2B     		cmp	r3, #31
 3546 0014 08D8     		bhi	.L277
 3547              		.loc 1 538 0
 3548 0016 019B     		ldr	r3, [sp, #4]
 3549 0018 DBB2     		uxtb	r3, r3
 3550 001a 1A46     		mov	r2, r3
 3551 001c 0299     		ldr	r1, [sp, #8]
 3552 001e 0398     		ldr	r0, [sp, #12]
 3553 0020 FFF7FEFF 		bl	cmp_write_fixstr
 3554 0024 0346     		mov	r3, r0
 3555 0026 1EE0     		b	.L278
 3556              	.L277:
 3557              		.loc 1 539 0
 3558 0028 019B     		ldr	r3, [sp, #4]
 3559 002a FF2B     		cmp	r3, #255
 3560 002c 08D8     		bhi	.L279
 3561              		.loc 1 540 0
 3562 002e 019B     		ldr	r3, [sp, #4]
 3563 0030 DBB2     		uxtb	r3, r3
 3564 0032 1A46     		mov	r2, r3
 3565 0034 0299     		ldr	r1, [sp, #8]
 3566 0036 0398     		ldr	r0, [sp, #12]
 3567 0038 FFF7FEFF 		bl	cmp_write_str8
 3568 003c 0346     		mov	r3, r0
 3569 003e 12E0     		b	.L278
 3570              	.L279:
 3571              		.loc 1 541 0
 3572 0040 019B     		ldr	r3, [sp, #4]
 3573 0042 B3F5803F 		cmp	r3, #65536
 3574 0046 08D2     		bcs	.L280
 3575              		.loc 1 542 0
 3576 0048 019B     		ldr	r3, [sp, #4]
 3577 004a 9BB2     		uxth	r3, r3
 3578 004c 1A46     		mov	r2, r3
 3579 004e 0299     		ldr	r1, [sp, #8]
 3580 0050 0398     		ldr	r0, [sp, #12]
 3581 0052 FFF7FEFF 		bl	cmp_write_str16
 3582 0056 0346     		mov	r3, r0
 3583 0058 05E0     		b	.L278
ARM GAS  C:\Users\PCHAUT~1\AppData\Local\Temp\ccacj52E.s 			page 65


 3584              	.L280:
 3585              		.loc 1 544 0
 3586 005a 019A     		ldr	r2, [sp, #4]
 3587 005c 0299     		ldr	r1, [sp, #8]
 3588 005e 0398     		ldr	r0, [sp, #12]
 3589 0060 FFF7FEFF 		bl	cmp_write_str32
 3590 0064 0346     		mov	r3, r0
 3591              	.L278:
 3592              		.loc 1 545 0
 3593 0066 1846     		mov	r0, r3
 3594 0068 044B     		ldr	r3, .L282
 3595 006a 059A     		ldr	r2, [sp, #20]
 3596 006c 1B68     		ldr	r3, [r3]
 3597 006e 9A42     		cmp	r2, r3
 3598 0070 01D0     		beq	.L281
 3599 0072 FFF7FEFF 		bl	__stack_chk_fail
 3600              	.L281:
 3601 0076 07B0     		add	sp, sp, #28
 3602              		.cfi_def_cfa_offset 4
 3603              		@ sp needed
 3604 0078 5DF804FB 		ldr	pc, [sp], #4
 3605              	.L283:
 3606              		.align	2
 3607              	.L282:
 3608 007c 00000000 		.word	__stack_chk_guard
 3609              		.cfi_endproc
 3610              	.LFE44:
 3611              		.size	cmp_write_str, .-cmp_write_str
 3612              		.section	.text.cmp_write_bin8_marker,"ax",%progbits
 3613              		.align	1
 3614              		.p2align 4,,15
 3615              		.global	cmp_write_bin8_marker
 3616              		.syntax unified
 3617              		.thumb
 3618              		.thumb_func
 3619              		.fpu fpv4-sp-d16
 3620              		.type	cmp_write_bin8_marker, %function
 3621              	cmp_write_bin8_marker:
 3622              	.LFB45:
 3623              		.loc 1 547 0
 3624              		.cfi_startproc
 3625              		@ args = 0, pretend = 0, frame = 16
 3626              		@ frame_needed = 0, uses_anonymous_args = 0
 3627 0000 00B5     		push	{lr}
 3628              		.cfi_def_cfa_offset 4
 3629              		.cfi_offset 14, -4
 3630 0002 85B0     		sub	sp, sp, #20
 3631              		.cfi_def_cfa_offset 24
 3632 0004 0190     		str	r0, [sp, #4]
 3633 0006 0B46     		mov	r3, r1
 3634 0008 8DF80330 		strb	r3, [sp, #3]
 3635              		.loc 1 547 0
 3636 000c 144B     		ldr	r3, .L289
 3637 000e 1B68     		ldr	r3, [r3]
 3638 0010 0393     		str	r3, [sp, #12]
 3639              		.loc 1 548 0
 3640 0012 C421     		movs	r1, #196
ARM GAS  C:\Users\PCHAUT~1\AppData\Local\Temp\ccacj52E.s 			page 66


 3641 0014 0198     		ldr	r0, [sp, #4]
 3642 0016 FFF7FEFF 		bl	write_type_marker
 3643 001a 0346     		mov	r3, r0
 3644 001c 83F00103 		eor	r3, r3, #1
 3645 0020 DBB2     		uxtb	r3, r3
 3646 0022 002B     		cmp	r3, #0
 3647 0024 01D0     		beq	.L285
 3648              		.loc 1 549 0
 3649 0026 0023     		movs	r3, #0
 3650 0028 0FE0     		b	.L286
 3651              	.L285:
 3652              		.loc 1 551 0
 3653 002a 019B     		ldr	r3, [sp, #4]
 3654 002c DB68     		ldr	r3, [r3, #12]
 3655 002e 0DF10301 		add	r1, sp, #3
 3656 0032 0122     		movs	r2, #1
 3657 0034 0198     		ldr	r0, [sp, #4]
 3658 0036 9847     		blx	r3
 3659              	.LVL19:
 3660 0038 0346     		mov	r3, r0
 3661 003a 002B     		cmp	r3, #0
 3662 003c 01D0     		beq	.L287
 3663              		.loc 1 552 0
 3664 003e 0123     		movs	r3, #1
 3665 0040 03E0     		b	.L286
 3666              	.L287:
 3667              		.loc 1 554 0
 3668 0042 019B     		ldr	r3, [sp, #4]
 3669 0044 0F22     		movs	r2, #15
 3670 0046 1A70     		strb	r2, [r3]
 3671              		.loc 1 555 0
 3672 0048 0023     		movs	r3, #0
 3673              	.L286:
 3674              		.loc 1 556 0
 3675 004a 1846     		mov	r0, r3
 3676 004c 044B     		ldr	r3, .L289
 3677 004e 039A     		ldr	r2, [sp, #12]
 3678 0050 1B68     		ldr	r3, [r3]
 3679 0052 9A42     		cmp	r2, r3
 3680 0054 01D0     		beq	.L288
 3681 0056 FFF7FEFF 		bl	__stack_chk_fail
 3682              	.L288:
 3683 005a 05B0     		add	sp, sp, #20
 3684              		.cfi_def_cfa_offset 4
 3685              		@ sp needed
 3686 005c 5DF804FB 		ldr	pc, [sp], #4
 3687              	.L290:
 3688              		.align	2
 3689              	.L289:
 3690 0060 00000000 		.word	__stack_chk_guard
 3691              		.cfi_endproc
 3692              	.LFE45:
 3693              		.size	cmp_write_bin8_marker, .-cmp_write_bin8_marker
 3694              		.section	.text.cmp_write_bin8,"ax",%progbits
 3695              		.align	1
 3696              		.p2align 4,,15
 3697              		.global	cmp_write_bin8
ARM GAS  C:\Users\PCHAUT~1\AppData\Local\Temp\ccacj52E.s 			page 67


 3698              		.syntax unified
 3699              		.thumb
 3700              		.thumb_func
 3701              		.fpu fpv4-sp-d16
 3702              		.type	cmp_write_bin8, %function
 3703              	cmp_write_bin8:
 3704              	.LFB46:
 3705              		.loc 1 558 0
 3706              		.cfi_startproc
 3707              		@ args = 0, pretend = 0, frame = 24
 3708              		@ frame_needed = 0, uses_anonymous_args = 0
 3709 0000 00B5     		push	{lr}
 3710              		.cfi_def_cfa_offset 4
 3711              		.cfi_offset 14, -4
 3712 0002 87B0     		sub	sp, sp, #28
 3713              		.cfi_def_cfa_offset 32
 3714 0004 0390     		str	r0, [sp, #12]
 3715 0006 0291     		str	r1, [sp, #8]
 3716 0008 1346     		mov	r3, r2
 3717 000a 8DF80730 		strb	r3, [sp, #7]
 3718              		.loc 1 558 0
 3719 000e 194B     		ldr	r3, .L297
 3720 0010 1B68     		ldr	r3, [r3]
 3721 0012 0593     		str	r3, [sp, #20]
 3722              		.loc 1 559 0
 3723 0014 9DF80730 		ldrb	r3, [sp, #7]	@ zero_extendqisi2
 3724 0018 1946     		mov	r1, r3
 3725 001a 0398     		ldr	r0, [sp, #12]
 3726 001c FFF7FEFF 		bl	cmp_write_bin8_marker
 3727 0020 0346     		mov	r3, r0
 3728 0022 83F00103 		eor	r3, r3, #1
 3729 0026 DBB2     		uxtb	r3, r3
 3730 0028 002B     		cmp	r3, #0
 3731 002a 01D0     		beq	.L292
 3732              		.loc 1 560 0
 3733 002c 0023     		movs	r3, #0
 3734 002e 15E0     		b	.L293
 3735              	.L292:
 3736              		.loc 1 562 0
 3737 0030 9DF80730 		ldrb	r3, [sp, #7]	@ zero_extendqisi2
 3738 0034 002B     		cmp	r3, #0
 3739 0036 01D1     		bne	.L294
 3740              		.loc 1 563 0
 3741 0038 0123     		movs	r3, #1
 3742 003a 0FE0     		b	.L293
 3743              	.L294:
 3744              		.loc 1 565 0
 3745 003c 039B     		ldr	r3, [sp, #12]
 3746 003e DB68     		ldr	r3, [r3, #12]
 3747 0040 9DF80720 		ldrb	r2, [sp, #7]	@ zero_extendqisi2
 3748 0044 0299     		ldr	r1, [sp, #8]
 3749 0046 0398     		ldr	r0, [sp, #12]
 3750 0048 9847     		blx	r3
 3751              	.LVL20:
 3752 004a 0346     		mov	r3, r0
 3753 004c 002B     		cmp	r3, #0
 3754 004e 01D0     		beq	.L295
ARM GAS  C:\Users\PCHAUT~1\AppData\Local\Temp\ccacj52E.s 			page 68


 3755              		.loc 1 566 0
 3756 0050 0123     		movs	r3, #1
 3757 0052 03E0     		b	.L293
 3758              	.L295:
 3759              		.loc 1 568 0
 3760 0054 039B     		ldr	r3, [sp, #12]
 3761 0056 0A22     		movs	r2, #10
 3762 0058 1A70     		strb	r2, [r3]
 3763              		.loc 1 569 0
 3764 005a 0023     		movs	r3, #0
 3765              	.L293:
 3766              		.loc 1 570 0
 3767 005c 1846     		mov	r0, r3
 3768 005e 054B     		ldr	r3, .L297
 3769 0060 059A     		ldr	r2, [sp, #20]
 3770 0062 1B68     		ldr	r3, [r3]
 3771 0064 9A42     		cmp	r2, r3
 3772 0066 01D0     		beq	.L296
 3773 0068 FFF7FEFF 		bl	__stack_chk_fail
 3774              	.L296:
 3775 006c 07B0     		add	sp, sp, #28
 3776              		.cfi_def_cfa_offset 4
 3777              		@ sp needed
 3778 006e 5DF804FB 		ldr	pc, [sp], #4
 3779              	.L298:
 3780 0072 00BF     		.align	2
 3781              	.L297:
 3782 0074 00000000 		.word	__stack_chk_guard
 3783              		.cfi_endproc
 3784              	.LFE46:
 3785              		.size	cmp_write_bin8, .-cmp_write_bin8
 3786              		.section	.text.cmp_write_bin16_marker,"ax",%progbits
 3787              		.align	1
 3788              		.p2align 4,,15
 3789              		.global	cmp_write_bin16_marker
 3790              		.syntax unified
 3791              		.thumb
 3792              		.thumb_func
 3793              		.fpu fpv4-sp-d16
 3794              		.type	cmp_write_bin16_marker, %function
 3795              	cmp_write_bin16_marker:
 3796              	.LFB47:
 3797              		.loc 1 572 0
 3798              		.cfi_startproc
 3799              		@ args = 0, pretend = 0, frame = 16
 3800              		@ frame_needed = 0, uses_anonymous_args = 0
 3801 0000 00B5     		push	{lr}
 3802              		.cfi_def_cfa_offset 4
 3803              		.cfi_offset 14, -4
 3804 0002 85B0     		sub	sp, sp, #20
 3805              		.cfi_def_cfa_offset 24
 3806 0004 0190     		str	r0, [sp, #4]
 3807 0006 0B46     		mov	r3, r1
 3808 0008 ADF80230 		strh	r3, [sp, #2]	@ movhi
 3809              		.loc 1 572 0
 3810 000c 184B     		ldr	r3, .L304
 3811 000e 1B68     		ldr	r3, [r3]
ARM GAS  C:\Users\PCHAUT~1\AppData\Local\Temp\ccacj52E.s 			page 69


 3812 0010 0393     		str	r3, [sp, #12]
 3813              		.loc 1 573 0
 3814 0012 C521     		movs	r1, #197
 3815 0014 0198     		ldr	r0, [sp, #4]
 3816 0016 FFF7FEFF 		bl	write_type_marker
 3817 001a 0346     		mov	r3, r0
 3818 001c 83F00103 		eor	r3, r3, #1
 3819 0020 DBB2     		uxtb	r3, r3
 3820 0022 002B     		cmp	r3, #0
 3821 0024 01D0     		beq	.L300
 3822              		.loc 1 574 0
 3823 0026 0023     		movs	r3, #0
 3824 0028 17E0     		b	.L301
 3825              	.L300:
 3826              		.loc 1 576 0
 3827 002a BDF80230 		ldrh	r3, [sp, #2]
 3828 002e 1846     		mov	r0, r3
 3829 0030 FFF7FEFF 		bl	be16
 3830 0034 0346     		mov	r3, r0
 3831 0036 ADF80230 		strh	r3, [sp, #2]	@ movhi
 3832              		.loc 1 578 0
 3833 003a 019B     		ldr	r3, [sp, #4]
 3834 003c DB68     		ldr	r3, [r3, #12]
 3835 003e 0DF10201 		add	r1, sp, #2
 3836 0042 0222     		movs	r2, #2
 3837 0044 0198     		ldr	r0, [sp, #4]
 3838 0046 9847     		blx	r3
 3839              	.LVL21:
 3840 0048 0346     		mov	r3, r0
 3841 004a 002B     		cmp	r3, #0
 3842 004c 01D0     		beq	.L302
 3843              		.loc 1 579 0
 3844 004e 0123     		movs	r3, #1
 3845 0050 03E0     		b	.L301
 3846              	.L302:
 3847              		.loc 1 581 0
 3848 0052 019B     		ldr	r3, [sp, #4]
 3849 0054 0F22     		movs	r2, #15
 3850 0056 1A70     		strb	r2, [r3]
 3851              		.loc 1 582 0
 3852 0058 0023     		movs	r3, #0
 3853              	.L301:
 3854              		.loc 1 583 0
 3855 005a 1846     		mov	r0, r3
 3856 005c 044B     		ldr	r3, .L304
 3857 005e 039A     		ldr	r2, [sp, #12]
 3858 0060 1B68     		ldr	r3, [r3]
 3859 0062 9A42     		cmp	r2, r3
 3860 0064 01D0     		beq	.L303
 3861 0066 FFF7FEFF 		bl	__stack_chk_fail
 3862              	.L303:
 3863 006a 05B0     		add	sp, sp, #20
 3864              		.cfi_def_cfa_offset 4
 3865              		@ sp needed
 3866 006c 5DF804FB 		ldr	pc, [sp], #4
 3867              	.L305:
 3868              		.align	2
ARM GAS  C:\Users\PCHAUT~1\AppData\Local\Temp\ccacj52E.s 			page 70


 3869              	.L304:
 3870 0070 00000000 		.word	__stack_chk_guard
 3871              		.cfi_endproc
 3872              	.LFE47:
 3873              		.size	cmp_write_bin16_marker, .-cmp_write_bin16_marker
 3874              		.section	.text.cmp_write_bin16,"ax",%progbits
 3875              		.align	1
 3876              		.p2align 4,,15
 3877              		.global	cmp_write_bin16
 3878              		.syntax unified
 3879              		.thumb
 3880              		.thumb_func
 3881              		.fpu fpv4-sp-d16
 3882              		.type	cmp_write_bin16, %function
 3883              	cmp_write_bin16:
 3884              	.LFB48:
 3885              		.loc 1 585 0
 3886              		.cfi_startproc
 3887              		@ args = 0, pretend = 0, frame = 24
 3888              		@ frame_needed = 0, uses_anonymous_args = 0
 3889 0000 00B5     		push	{lr}
 3890              		.cfi_def_cfa_offset 4
 3891              		.cfi_offset 14, -4
 3892 0002 87B0     		sub	sp, sp, #28
 3893              		.cfi_def_cfa_offset 32
 3894 0004 0390     		str	r0, [sp, #12]
 3895 0006 0291     		str	r1, [sp, #8]
 3896 0008 1346     		mov	r3, r2
 3897 000a ADF80630 		strh	r3, [sp, #6]	@ movhi
 3898              		.loc 1 585 0
 3899 000e 194B     		ldr	r3, .L312
 3900 0010 1B68     		ldr	r3, [r3]
 3901 0012 0593     		str	r3, [sp, #20]
 3902              		.loc 1 586 0
 3903 0014 BDF80630 		ldrh	r3, [sp, #6]
 3904 0018 1946     		mov	r1, r3
 3905 001a 0398     		ldr	r0, [sp, #12]
 3906 001c FFF7FEFF 		bl	cmp_write_bin16_marker
 3907 0020 0346     		mov	r3, r0
 3908 0022 83F00103 		eor	r3, r3, #1
 3909 0026 DBB2     		uxtb	r3, r3
 3910 0028 002B     		cmp	r3, #0
 3911 002a 01D0     		beq	.L307
 3912              		.loc 1 587 0
 3913 002c 0023     		movs	r3, #0
 3914 002e 15E0     		b	.L308
 3915              	.L307:
 3916              		.loc 1 589 0
 3917 0030 BDF80630 		ldrh	r3, [sp, #6]
 3918 0034 002B     		cmp	r3, #0
 3919 0036 01D1     		bne	.L309
 3920              		.loc 1 590 0
 3921 0038 0123     		movs	r3, #1
 3922 003a 0FE0     		b	.L308
 3923              	.L309:
 3924              		.loc 1 592 0
 3925 003c 039B     		ldr	r3, [sp, #12]
ARM GAS  C:\Users\PCHAUT~1\AppData\Local\Temp\ccacj52E.s 			page 71


 3926 003e DB68     		ldr	r3, [r3, #12]
 3927 0040 BDF80620 		ldrh	r2, [sp, #6]
 3928 0044 0299     		ldr	r1, [sp, #8]
 3929 0046 0398     		ldr	r0, [sp, #12]
 3930 0048 9847     		blx	r3
 3931              	.LVL22:
 3932 004a 0346     		mov	r3, r0
 3933 004c 002B     		cmp	r3, #0
 3934 004e 01D0     		beq	.L310
 3935              		.loc 1 593 0
 3936 0050 0123     		movs	r3, #1
 3937 0052 03E0     		b	.L308
 3938              	.L310:
 3939              		.loc 1 595 0
 3940 0054 039B     		ldr	r3, [sp, #12]
 3941 0056 0A22     		movs	r2, #10
 3942 0058 1A70     		strb	r2, [r3]
 3943              		.loc 1 596 0
 3944 005a 0023     		movs	r3, #0
 3945              	.L308:
 3946              		.loc 1 597 0
 3947 005c 1846     		mov	r0, r3
 3948 005e 054B     		ldr	r3, .L312
 3949 0060 059A     		ldr	r2, [sp, #20]
 3950 0062 1B68     		ldr	r3, [r3]
 3951 0064 9A42     		cmp	r2, r3
 3952 0066 01D0     		beq	.L311
 3953 0068 FFF7FEFF 		bl	__stack_chk_fail
 3954              	.L311:
 3955 006c 07B0     		add	sp, sp, #28
 3956              		.cfi_def_cfa_offset 4
 3957              		@ sp needed
 3958 006e 5DF804FB 		ldr	pc, [sp], #4
 3959              	.L313:
 3960 0072 00BF     		.align	2
 3961              	.L312:
 3962 0074 00000000 		.word	__stack_chk_guard
 3963              		.cfi_endproc
 3964              	.LFE48:
 3965              		.size	cmp_write_bin16, .-cmp_write_bin16
 3966              		.section	.text.cmp_write_bin32_marker,"ax",%progbits
 3967              		.align	1
 3968              		.p2align 4,,15
 3969              		.global	cmp_write_bin32_marker
 3970              		.syntax unified
 3971              		.thumb
 3972              		.thumb_func
 3973              		.fpu fpv4-sp-d16
 3974              		.type	cmp_write_bin32_marker, %function
 3975              	cmp_write_bin32_marker:
 3976              	.LFB49:
 3977              		.loc 1 599 0
 3978              		.cfi_startproc
 3979              		@ args = 0, pretend = 0, frame = 16
 3980              		@ frame_needed = 0, uses_anonymous_args = 0
 3981 0000 00B5     		push	{lr}
 3982              		.cfi_def_cfa_offset 4
ARM GAS  C:\Users\PCHAUT~1\AppData\Local\Temp\ccacj52E.s 			page 72


 3983              		.cfi_offset 14, -4
 3984 0002 85B0     		sub	sp, sp, #20
 3985              		.cfi_def_cfa_offset 24
 3986 0004 0190     		str	r0, [sp, #4]
 3987 0006 0091     		str	r1, [sp]
 3988              		.loc 1 599 0
 3989 0008 174B     		ldr	r3, .L319
 3990 000a 1B68     		ldr	r3, [r3]
 3991 000c 0393     		str	r3, [sp, #12]
 3992              		.loc 1 600 0
 3993 000e C621     		movs	r1, #198
 3994 0010 0198     		ldr	r0, [sp, #4]
 3995 0012 FFF7FEFF 		bl	write_type_marker
 3996 0016 0346     		mov	r3, r0
 3997 0018 83F00103 		eor	r3, r3, #1
 3998 001c DBB2     		uxtb	r3, r3
 3999 001e 002B     		cmp	r3, #0
 4000 0020 01D0     		beq	.L315
 4001              		.loc 1 601 0
 4002 0022 0023     		movs	r3, #0
 4003 0024 14E0     		b	.L316
 4004              	.L315:
 4005              		.loc 1 603 0
 4006 0026 009B     		ldr	r3, [sp]
 4007 0028 1846     		mov	r0, r3
 4008 002a FFF7FEFF 		bl	be32
 4009 002e 0346     		mov	r3, r0
 4010 0030 0093     		str	r3, [sp]
 4011              		.loc 1 605 0
 4012 0032 019B     		ldr	r3, [sp, #4]
 4013 0034 DB68     		ldr	r3, [r3, #12]
 4014 0036 6946     		mov	r1, sp
 4015 0038 0422     		movs	r2, #4
 4016 003a 0198     		ldr	r0, [sp, #4]
 4017 003c 9847     		blx	r3
 4018              	.LVL23:
 4019 003e 0346     		mov	r3, r0
 4020 0040 002B     		cmp	r3, #0
 4021 0042 01D0     		beq	.L317
 4022              		.loc 1 606 0
 4023 0044 0123     		movs	r3, #1
 4024 0046 03E0     		b	.L316
 4025              	.L317:
 4026              		.loc 1 608 0
 4027 0048 019B     		ldr	r3, [sp, #4]
 4028 004a 0F22     		movs	r2, #15
 4029 004c 1A70     		strb	r2, [r3]
 4030              		.loc 1 609 0
 4031 004e 0023     		movs	r3, #0
 4032              	.L316:
 4033              		.loc 1 610 0
 4034 0050 1846     		mov	r0, r3
 4035 0052 054B     		ldr	r3, .L319
 4036 0054 039A     		ldr	r2, [sp, #12]
 4037 0056 1B68     		ldr	r3, [r3]
 4038 0058 9A42     		cmp	r2, r3
 4039 005a 01D0     		beq	.L318
ARM GAS  C:\Users\PCHAUT~1\AppData\Local\Temp\ccacj52E.s 			page 73


 4040 005c FFF7FEFF 		bl	__stack_chk_fail
 4041              	.L318:
 4042 0060 05B0     		add	sp, sp, #20
 4043              		.cfi_def_cfa_offset 4
 4044              		@ sp needed
 4045 0062 5DF804FB 		ldr	pc, [sp], #4
 4046              	.L320:
 4047 0066 00BF     		.align	2
 4048              	.L319:
 4049 0068 00000000 		.word	__stack_chk_guard
 4050              		.cfi_endproc
 4051              	.LFE49:
 4052              		.size	cmp_write_bin32_marker, .-cmp_write_bin32_marker
 4053              		.section	.text.cmp_write_bin32,"ax",%progbits
 4054              		.align	1
 4055              		.p2align 4,,15
 4056              		.global	cmp_write_bin32
 4057              		.syntax unified
 4058              		.thumb
 4059              		.thumb_func
 4060              		.fpu fpv4-sp-d16
 4061              		.type	cmp_write_bin32, %function
 4062              	cmp_write_bin32:
 4063              	.LFB50:
 4064              		.loc 1 612 0
 4065              		.cfi_startproc
 4066              		@ args = 0, pretend = 0, frame = 24
 4067              		@ frame_needed = 0, uses_anonymous_args = 0
 4068 0000 00B5     		push	{lr}
 4069              		.cfi_def_cfa_offset 4
 4070              		.cfi_offset 14, -4
 4071 0002 87B0     		sub	sp, sp, #28
 4072              		.cfi_def_cfa_offset 32
 4073 0004 0390     		str	r0, [sp, #12]
 4074 0006 0291     		str	r1, [sp, #8]
 4075 0008 0192     		str	r2, [sp, #4]
 4076              		.loc 1 612 0
 4077 000a 174B     		ldr	r3, .L327
 4078 000c 1B68     		ldr	r3, [r3]
 4079 000e 0593     		str	r3, [sp, #20]
 4080              		.loc 1 613 0
 4081 0010 0199     		ldr	r1, [sp, #4]
 4082 0012 0398     		ldr	r0, [sp, #12]
 4083 0014 FFF7FEFF 		bl	cmp_write_bin32_marker
 4084 0018 0346     		mov	r3, r0
 4085 001a 83F00103 		eor	r3, r3, #1
 4086 001e DBB2     		uxtb	r3, r3
 4087 0020 002B     		cmp	r3, #0
 4088 0022 01D0     		beq	.L322
 4089              		.loc 1 614 0
 4090 0024 0023     		movs	r3, #0
 4091 0026 13E0     		b	.L323
 4092              	.L322:
 4093              		.loc 1 616 0
 4094 0028 019B     		ldr	r3, [sp, #4]
 4095 002a 002B     		cmp	r3, #0
 4096 002c 01D1     		bne	.L324
ARM GAS  C:\Users\PCHAUT~1\AppData\Local\Temp\ccacj52E.s 			page 74


 4097              		.loc 1 617 0
 4098 002e 0123     		movs	r3, #1
 4099 0030 0EE0     		b	.L323
 4100              	.L324:
 4101              		.loc 1 619 0
 4102 0032 039B     		ldr	r3, [sp, #12]
 4103 0034 DB68     		ldr	r3, [r3, #12]
 4104 0036 019A     		ldr	r2, [sp, #4]
 4105 0038 0299     		ldr	r1, [sp, #8]
 4106 003a 0398     		ldr	r0, [sp, #12]
 4107 003c 9847     		blx	r3
 4108              	.LVL24:
 4109 003e 0346     		mov	r3, r0
 4110 0040 002B     		cmp	r3, #0
 4111 0042 01D0     		beq	.L325
 4112              		.loc 1 620 0
 4113 0044 0123     		movs	r3, #1
 4114 0046 03E0     		b	.L323
 4115              	.L325:
 4116              		.loc 1 622 0
 4117 0048 039B     		ldr	r3, [sp, #12]
 4118 004a 0A22     		movs	r2, #10
 4119 004c 1A70     		strb	r2, [r3]
 4120              		.loc 1 623 0
 4121 004e 0023     		movs	r3, #0
 4122              	.L323:
 4123              		.loc 1 624 0
 4124 0050 1846     		mov	r0, r3
 4125 0052 054B     		ldr	r3, .L327
 4126 0054 059A     		ldr	r2, [sp, #20]
 4127 0056 1B68     		ldr	r3, [r3]
 4128 0058 9A42     		cmp	r2, r3
 4129 005a 01D0     		beq	.L326
 4130 005c FFF7FEFF 		bl	__stack_chk_fail
 4131              	.L326:
 4132 0060 07B0     		add	sp, sp, #28
 4133              		.cfi_def_cfa_offset 4
 4134              		@ sp needed
 4135 0062 5DF804FB 		ldr	pc, [sp], #4
 4136              	.L328:
 4137 0066 00BF     		.align	2
 4138              	.L327:
 4139 0068 00000000 		.word	__stack_chk_guard
 4140              		.cfi_endproc
 4141              	.LFE50:
 4142              		.size	cmp_write_bin32, .-cmp_write_bin32
 4143              		.section	.text.cmp_write_bin_marker,"ax",%progbits
 4144              		.align	1
 4145              		.p2align 4,,15
 4146              		.global	cmp_write_bin_marker
 4147              		.syntax unified
 4148              		.thumb
 4149              		.thumb_func
 4150              		.fpu fpv4-sp-d16
 4151              		.type	cmp_write_bin_marker, %function
 4152              	cmp_write_bin_marker:
 4153              	.LFB51:
ARM GAS  C:\Users\PCHAUT~1\AppData\Local\Temp\ccacj52E.s 			page 75


 4154              		.loc 1 626 0
 4155              		.cfi_startproc
 4156              		@ args = 0, pretend = 0, frame = 16
 4157              		@ frame_needed = 0, uses_anonymous_args = 0
 4158 0000 00B5     		push	{lr}
 4159              		.cfi_def_cfa_offset 4
 4160              		.cfi_offset 14, -4
 4161 0002 85B0     		sub	sp, sp, #20
 4162              		.cfi_def_cfa_offset 24
 4163 0004 0190     		str	r0, [sp, #4]
 4164 0006 0091     		str	r1, [sp]
 4165              		.loc 1 626 0
 4166 0008 144B     		ldr	r3, .L334
 4167 000a 1B68     		ldr	r3, [r3]
 4168 000c 0393     		str	r3, [sp, #12]
 4169              		.loc 1 627 0
 4170 000e 009B     		ldr	r3, [sp]
 4171 0010 FF2B     		cmp	r3, #255
 4172 0012 07D8     		bhi	.L330
 4173              		.loc 1 628 0
 4174 0014 009B     		ldr	r3, [sp]
 4175 0016 DBB2     		uxtb	r3, r3
 4176 0018 1946     		mov	r1, r3
 4177 001a 0198     		ldr	r0, [sp, #4]
 4178 001c FFF7FEFF 		bl	cmp_write_bin8_marker
 4179 0020 0346     		mov	r3, r0
 4180 0022 10E0     		b	.L331
 4181              	.L330:
 4182              		.loc 1 629 0
 4183 0024 009B     		ldr	r3, [sp]
 4184 0026 B3F5803F 		cmp	r3, #65536
 4185 002a 07D2     		bcs	.L332
 4186              		.loc 1 630 0
 4187 002c 009B     		ldr	r3, [sp]
 4188 002e 9BB2     		uxth	r3, r3
 4189 0030 1946     		mov	r1, r3
 4190 0032 0198     		ldr	r0, [sp, #4]
 4191 0034 FFF7FEFF 		bl	cmp_write_bin16_marker
 4192 0038 0346     		mov	r3, r0
 4193 003a 04E0     		b	.L331
 4194              	.L332:
 4195              		.loc 1 632 0
 4196 003c 0099     		ldr	r1, [sp]
 4197 003e 0198     		ldr	r0, [sp, #4]
 4198 0040 FFF7FEFF 		bl	cmp_write_bin32_marker
 4199 0044 0346     		mov	r3, r0
 4200              	.L331:
 4201              		.loc 1 633 0
 4202 0046 1846     		mov	r0, r3
 4203 0048 044B     		ldr	r3, .L334
 4204 004a 039A     		ldr	r2, [sp, #12]
 4205 004c 1B68     		ldr	r3, [r3]
 4206 004e 9A42     		cmp	r2, r3
 4207 0050 01D0     		beq	.L333
 4208 0052 FFF7FEFF 		bl	__stack_chk_fail
 4209              	.L333:
 4210 0056 05B0     		add	sp, sp, #20
ARM GAS  C:\Users\PCHAUT~1\AppData\Local\Temp\ccacj52E.s 			page 76


 4211              		.cfi_def_cfa_offset 4
 4212              		@ sp needed
 4213 0058 5DF804FB 		ldr	pc, [sp], #4
 4214              	.L335:
 4215              		.align	2
 4216              	.L334:
 4217 005c 00000000 		.word	__stack_chk_guard
 4218              		.cfi_endproc
 4219              	.LFE51:
 4220              		.size	cmp_write_bin_marker, .-cmp_write_bin_marker
 4221              		.section	.text.cmp_write_bin,"ax",%progbits
 4222              		.align	1
 4223              		.p2align 4,,15
 4224              		.global	cmp_write_bin
 4225              		.syntax unified
 4226              		.thumb
 4227              		.thumb_func
 4228              		.fpu fpv4-sp-d16
 4229              		.type	cmp_write_bin, %function
 4230              	cmp_write_bin:
 4231              	.LFB52:
 4232              		.loc 1 635 0
 4233              		.cfi_startproc
 4234              		@ args = 0, pretend = 0, frame = 24
 4235              		@ frame_needed = 0, uses_anonymous_args = 0
 4236 0000 00B5     		push	{lr}
 4237              		.cfi_def_cfa_offset 4
 4238              		.cfi_offset 14, -4
 4239 0002 87B0     		sub	sp, sp, #28
 4240              		.cfi_def_cfa_offset 32
 4241 0004 0390     		str	r0, [sp, #12]
 4242 0006 0291     		str	r1, [sp, #8]
 4243 0008 0192     		str	r2, [sp, #4]
 4244              		.loc 1 635 0
 4245 000a 164B     		ldr	r3, .L341
 4246 000c 1B68     		ldr	r3, [r3]
 4247 000e 0593     		str	r3, [sp, #20]
 4248              		.loc 1 636 0
 4249 0010 019B     		ldr	r3, [sp, #4]
 4250 0012 FF2B     		cmp	r3, #255
 4251 0014 08D8     		bhi	.L337
 4252              		.loc 1 637 0
 4253 0016 019B     		ldr	r3, [sp, #4]
 4254 0018 DBB2     		uxtb	r3, r3
 4255 001a 1A46     		mov	r2, r3
 4256 001c 0299     		ldr	r1, [sp, #8]
 4257 001e 0398     		ldr	r0, [sp, #12]
 4258 0020 FFF7FEFF 		bl	cmp_write_bin8
 4259 0024 0346     		mov	r3, r0
 4260 0026 12E0     		b	.L338
 4261              	.L337:
 4262              		.loc 1 638 0
 4263 0028 019B     		ldr	r3, [sp, #4]
 4264 002a B3F5803F 		cmp	r3, #65536
 4265 002e 08D2     		bcs	.L339
 4266              		.loc 1 639 0
 4267 0030 019B     		ldr	r3, [sp, #4]
ARM GAS  C:\Users\PCHAUT~1\AppData\Local\Temp\ccacj52E.s 			page 77


 4268 0032 9BB2     		uxth	r3, r3
 4269 0034 1A46     		mov	r2, r3
 4270 0036 0299     		ldr	r1, [sp, #8]
 4271 0038 0398     		ldr	r0, [sp, #12]
 4272 003a FFF7FEFF 		bl	cmp_write_bin16
 4273 003e 0346     		mov	r3, r0
 4274 0040 05E0     		b	.L338
 4275              	.L339:
 4276              		.loc 1 641 0
 4277 0042 019A     		ldr	r2, [sp, #4]
 4278 0044 0299     		ldr	r1, [sp, #8]
 4279 0046 0398     		ldr	r0, [sp, #12]
 4280 0048 FFF7FEFF 		bl	cmp_write_bin32
 4281 004c 0346     		mov	r3, r0
 4282              	.L338:
 4283              		.loc 1 642 0
 4284 004e 1846     		mov	r0, r3
 4285 0050 044B     		ldr	r3, .L341
 4286 0052 059A     		ldr	r2, [sp, #20]
 4287 0054 1B68     		ldr	r3, [r3]
 4288 0056 9A42     		cmp	r2, r3
 4289 0058 01D0     		beq	.L340
 4290 005a FFF7FEFF 		bl	__stack_chk_fail
 4291              	.L340:
 4292 005e 07B0     		add	sp, sp, #28
 4293              		.cfi_def_cfa_offset 4
 4294              		@ sp needed
 4295 0060 5DF804FB 		ldr	pc, [sp], #4
 4296              	.L342:
 4297              		.align	2
 4298              	.L341:
 4299 0064 00000000 		.word	__stack_chk_guard
 4300              		.cfi_endproc
 4301              	.LFE52:
 4302              		.size	cmp_write_bin, .-cmp_write_bin
 4303              		.section	.text.cmp_write_fixarray,"ax",%progbits
 4304              		.align	1
 4305              		.p2align 4,,15
 4306              		.global	cmp_write_fixarray
 4307              		.syntax unified
 4308              		.thumb
 4309              		.thumb_func
 4310              		.fpu fpv4-sp-d16
 4311              		.type	cmp_write_fixarray, %function
 4312              	cmp_write_fixarray:
 4313              	.LFB53:
 4314              		.loc 1 644 0
 4315              		.cfi_startproc
 4316              		@ args = 0, pretend = 0, frame = 16
 4317              		@ frame_needed = 0, uses_anonymous_args = 0
 4318 0000 00B5     		push	{lr}
 4319              		.cfi_def_cfa_offset 4
 4320              		.cfi_offset 14, -4
 4321 0002 85B0     		sub	sp, sp, #20
 4322              		.cfi_def_cfa_offset 24
 4323 0004 0190     		str	r0, [sp, #4]
 4324 0006 0B46     		mov	r3, r1
ARM GAS  C:\Users\PCHAUT~1\AppData\Local\Temp\ccacj52E.s 			page 78


 4325 0008 8DF80330 		strb	r3, [sp, #3]
 4326              		.loc 1 644 0
 4327 000c 104B     		ldr	r3, .L347
 4328 000e 1B68     		ldr	r3, [r3]
 4329 0010 0393     		str	r3, [sp, #12]
 4330              		.loc 1 645 0
 4331 0012 9DF80330 		ldrb	r3, [sp, #3]	@ zero_extendqisi2
 4332 0016 0F2B     		cmp	r3, #15
 4333 0018 0AD8     		bhi	.L344
 4334              		.loc 1 646 0
 4335 001a 9DF80330 		ldrb	r3, [sp, #3]
 4336 001e 63F06F03 		orn	r3, r3, #111
 4337 0022 DBB2     		uxtb	r3, r3
 4338 0024 1946     		mov	r1, r3
 4339 0026 0198     		ldr	r0, [sp, #4]
 4340 0028 FFF7FEFF 		bl	write_fixed_value
 4341 002c 0346     		mov	r3, r0
 4342 002e 03E0     		b	.L345
 4343              	.L344:
 4344              		.loc 1 648 0
 4345 0030 019B     		ldr	r3, [sp, #4]
 4346 0032 0522     		movs	r2, #5
 4347 0034 1A70     		strb	r2, [r3]
 4348              		.loc 1 649 0
 4349 0036 0023     		movs	r3, #0
 4350              	.L345:
 4351              		.loc 1 650 0
 4352 0038 1846     		mov	r0, r3
 4353 003a 054B     		ldr	r3, .L347
 4354 003c 039A     		ldr	r2, [sp, #12]
 4355 003e 1B68     		ldr	r3, [r3]
 4356 0040 9A42     		cmp	r2, r3
 4357 0042 01D0     		beq	.L346
 4358 0044 FFF7FEFF 		bl	__stack_chk_fail
 4359              	.L346:
 4360 0048 05B0     		add	sp, sp, #20
 4361              		.cfi_def_cfa_offset 4
 4362              		@ sp needed
 4363 004a 5DF804FB 		ldr	pc, [sp], #4
 4364              	.L348:
 4365 004e 00BF     		.align	2
 4366              	.L347:
 4367 0050 00000000 		.word	__stack_chk_guard
 4368              		.cfi_endproc
 4369              	.LFE53:
 4370              		.size	cmp_write_fixarray, .-cmp_write_fixarray
 4371              		.section	.text.cmp_write_array16,"ax",%progbits
 4372              		.align	1
 4373              		.p2align 4,,15
 4374              		.global	cmp_write_array16
 4375              		.syntax unified
 4376              		.thumb
 4377              		.thumb_func
 4378              		.fpu fpv4-sp-d16
 4379              		.type	cmp_write_array16, %function
 4380              	cmp_write_array16:
 4381              	.LFB54:
ARM GAS  C:\Users\PCHAUT~1\AppData\Local\Temp\ccacj52E.s 			page 79


 4382              		.loc 1 652 0
 4383              		.cfi_startproc
 4384              		@ args = 0, pretend = 0, frame = 16
 4385              		@ frame_needed = 0, uses_anonymous_args = 0
 4386 0000 00B5     		push	{lr}
 4387              		.cfi_def_cfa_offset 4
 4388              		.cfi_offset 14, -4
 4389 0002 85B0     		sub	sp, sp, #20
 4390              		.cfi_def_cfa_offset 24
 4391 0004 0190     		str	r0, [sp, #4]
 4392 0006 0B46     		mov	r3, r1
 4393 0008 ADF80230 		strh	r3, [sp, #2]	@ movhi
 4394              		.loc 1 652 0
 4395 000c 184B     		ldr	r3, .L354
 4396 000e 1B68     		ldr	r3, [r3]
 4397 0010 0393     		str	r3, [sp, #12]
 4398              		.loc 1 653 0
 4399 0012 DC21     		movs	r1, #220
 4400 0014 0198     		ldr	r0, [sp, #4]
 4401 0016 FFF7FEFF 		bl	write_type_marker
 4402 001a 0346     		mov	r3, r0
 4403 001c 83F00103 		eor	r3, r3, #1
 4404 0020 DBB2     		uxtb	r3, r3
 4405 0022 002B     		cmp	r3, #0
 4406 0024 01D0     		beq	.L350
 4407              		.loc 1 654 0
 4408 0026 0023     		movs	r3, #0
 4409 0028 17E0     		b	.L351
 4410              	.L350:
 4411              		.loc 1 656 0
 4412 002a BDF80230 		ldrh	r3, [sp, #2]
 4413 002e 1846     		mov	r0, r3
 4414 0030 FFF7FEFF 		bl	be16
 4415 0034 0346     		mov	r3, r0
 4416 0036 ADF80230 		strh	r3, [sp, #2]	@ movhi
 4417              		.loc 1 658 0
 4418 003a 019B     		ldr	r3, [sp, #4]
 4419 003c DB68     		ldr	r3, [r3, #12]
 4420 003e 0DF10201 		add	r1, sp, #2
 4421 0042 0222     		movs	r2, #2
 4422 0044 0198     		ldr	r0, [sp, #4]
 4423 0046 9847     		blx	r3
 4424              	.LVL25:
 4425 0048 0346     		mov	r3, r0
 4426 004a 002B     		cmp	r3, #0
 4427 004c 01D0     		beq	.L352
 4428              		.loc 1 659 0
 4429 004e 0123     		movs	r3, #1
 4430 0050 03E0     		b	.L351
 4431              	.L352:
 4432              		.loc 1 661 0
 4433 0052 019B     		ldr	r3, [sp, #4]
 4434 0054 0F22     		movs	r2, #15
 4435 0056 1A70     		strb	r2, [r3]
 4436              		.loc 1 662 0
 4437 0058 0023     		movs	r3, #0
 4438              	.L351:
ARM GAS  C:\Users\PCHAUT~1\AppData\Local\Temp\ccacj52E.s 			page 80


 4439              		.loc 1 663 0
 4440 005a 1846     		mov	r0, r3
 4441 005c 044B     		ldr	r3, .L354
 4442 005e 039A     		ldr	r2, [sp, #12]
 4443 0060 1B68     		ldr	r3, [r3]
 4444 0062 9A42     		cmp	r2, r3
 4445 0064 01D0     		beq	.L353
 4446 0066 FFF7FEFF 		bl	__stack_chk_fail
 4447              	.L353:
 4448 006a 05B0     		add	sp, sp, #20
 4449              		.cfi_def_cfa_offset 4
 4450              		@ sp needed
 4451 006c 5DF804FB 		ldr	pc, [sp], #4
 4452              	.L355:
 4453              		.align	2
 4454              	.L354:
 4455 0070 00000000 		.word	__stack_chk_guard
 4456              		.cfi_endproc
 4457              	.LFE54:
 4458              		.size	cmp_write_array16, .-cmp_write_array16
 4459              		.section	.text.cmp_write_array32,"ax",%progbits
 4460              		.align	1
 4461              		.p2align 4,,15
 4462              		.global	cmp_write_array32
 4463              		.syntax unified
 4464              		.thumb
 4465              		.thumb_func
 4466              		.fpu fpv4-sp-d16
 4467              		.type	cmp_write_array32, %function
 4468              	cmp_write_array32:
 4469              	.LFB55:
 4470              		.loc 1 665 0
 4471              		.cfi_startproc
 4472              		@ args = 0, pretend = 0, frame = 16
 4473              		@ frame_needed = 0, uses_anonymous_args = 0
 4474 0000 00B5     		push	{lr}
 4475              		.cfi_def_cfa_offset 4
 4476              		.cfi_offset 14, -4
 4477 0002 85B0     		sub	sp, sp, #20
 4478              		.cfi_def_cfa_offset 24
 4479 0004 0190     		str	r0, [sp, #4]
 4480 0006 0091     		str	r1, [sp]
 4481              		.loc 1 665 0
 4482 0008 174B     		ldr	r3, .L361
 4483 000a 1B68     		ldr	r3, [r3]
 4484 000c 0393     		str	r3, [sp, #12]
 4485              		.loc 1 666 0
 4486 000e DD21     		movs	r1, #221
 4487 0010 0198     		ldr	r0, [sp, #4]
 4488 0012 FFF7FEFF 		bl	write_type_marker
 4489 0016 0346     		mov	r3, r0
 4490 0018 83F00103 		eor	r3, r3, #1
 4491 001c DBB2     		uxtb	r3, r3
 4492 001e 002B     		cmp	r3, #0
 4493 0020 01D0     		beq	.L357
 4494              		.loc 1 667 0
 4495 0022 0023     		movs	r3, #0
ARM GAS  C:\Users\PCHAUT~1\AppData\Local\Temp\ccacj52E.s 			page 81


 4496 0024 14E0     		b	.L358
 4497              	.L357:
 4498              		.loc 1 669 0
 4499 0026 009B     		ldr	r3, [sp]
 4500 0028 1846     		mov	r0, r3
 4501 002a FFF7FEFF 		bl	be32
 4502 002e 0346     		mov	r3, r0
 4503 0030 0093     		str	r3, [sp]
 4504              		.loc 1 671 0
 4505 0032 019B     		ldr	r3, [sp, #4]
 4506 0034 DB68     		ldr	r3, [r3, #12]
 4507 0036 6946     		mov	r1, sp
 4508 0038 0422     		movs	r2, #4
 4509 003a 0198     		ldr	r0, [sp, #4]
 4510 003c 9847     		blx	r3
 4511              	.LVL26:
 4512 003e 0346     		mov	r3, r0
 4513 0040 002B     		cmp	r3, #0
 4514 0042 01D0     		beq	.L359
 4515              		.loc 1 672 0
 4516 0044 0123     		movs	r3, #1
 4517 0046 03E0     		b	.L358
 4518              	.L359:
 4519              		.loc 1 674 0
 4520 0048 019B     		ldr	r3, [sp, #4]
 4521 004a 0F22     		movs	r2, #15
 4522 004c 1A70     		strb	r2, [r3]
 4523              		.loc 1 675 0
 4524 004e 0023     		movs	r3, #0
 4525              	.L358:
 4526              		.loc 1 676 0
 4527 0050 1846     		mov	r0, r3
 4528 0052 054B     		ldr	r3, .L361
 4529 0054 039A     		ldr	r2, [sp, #12]
 4530 0056 1B68     		ldr	r3, [r3]
 4531 0058 9A42     		cmp	r2, r3
 4532 005a 01D0     		beq	.L360
 4533 005c FFF7FEFF 		bl	__stack_chk_fail
 4534              	.L360:
 4535 0060 05B0     		add	sp, sp, #20
 4536              		.cfi_def_cfa_offset 4
 4537              		@ sp needed
 4538 0062 5DF804FB 		ldr	pc, [sp], #4
 4539              	.L362:
 4540 0066 00BF     		.align	2
 4541              	.L361:
 4542 0068 00000000 		.word	__stack_chk_guard
 4543              		.cfi_endproc
 4544              	.LFE55:
 4545              		.size	cmp_write_array32, .-cmp_write_array32
 4546              		.section	.text.cmp_write_array,"ax",%progbits
 4547              		.align	1
 4548              		.p2align 4,,15
 4549              		.global	cmp_write_array
 4550              		.syntax unified
 4551              		.thumb
 4552              		.thumb_func
ARM GAS  C:\Users\PCHAUT~1\AppData\Local\Temp\ccacj52E.s 			page 82


 4553              		.fpu fpv4-sp-d16
 4554              		.type	cmp_write_array, %function
 4555              	cmp_write_array:
 4556              	.LFB56:
 4557              		.loc 1 678 0
 4558              		.cfi_startproc
 4559              		@ args = 0, pretend = 0, frame = 16
 4560              		@ frame_needed = 0, uses_anonymous_args = 0
 4561 0000 00B5     		push	{lr}
 4562              		.cfi_def_cfa_offset 4
 4563              		.cfi_offset 14, -4
 4564 0002 85B0     		sub	sp, sp, #20
 4565              		.cfi_def_cfa_offset 24
 4566 0004 0190     		str	r0, [sp, #4]
 4567 0006 0091     		str	r1, [sp]
 4568              		.loc 1 678 0
 4569 0008 144B     		ldr	r3, .L368
 4570 000a 1B68     		ldr	r3, [r3]
 4571 000c 0393     		str	r3, [sp, #12]
 4572              		.loc 1 679 0
 4573 000e 009B     		ldr	r3, [sp]
 4574 0010 0F2B     		cmp	r3, #15
 4575 0012 07D8     		bhi	.L364
 4576              		.loc 1 680 0
 4577 0014 009B     		ldr	r3, [sp]
 4578 0016 DBB2     		uxtb	r3, r3
 4579 0018 1946     		mov	r1, r3
 4580 001a 0198     		ldr	r0, [sp, #4]
 4581 001c FFF7FEFF 		bl	cmp_write_fixarray
 4582 0020 0346     		mov	r3, r0
 4583 0022 10E0     		b	.L365
 4584              	.L364:
 4585              		.loc 1 681 0
 4586 0024 009B     		ldr	r3, [sp]
 4587 0026 B3F5803F 		cmp	r3, #65536
 4588 002a 07D2     		bcs	.L366
 4589              		.loc 1 682 0
 4590 002c 009B     		ldr	r3, [sp]
 4591 002e 9BB2     		uxth	r3, r3
 4592 0030 1946     		mov	r1, r3
 4593 0032 0198     		ldr	r0, [sp, #4]
 4594 0034 FFF7FEFF 		bl	cmp_write_array16
 4595 0038 0346     		mov	r3, r0
 4596 003a 04E0     		b	.L365
 4597              	.L366:
 4598              		.loc 1 684 0
 4599 003c 0099     		ldr	r1, [sp]
 4600 003e 0198     		ldr	r0, [sp, #4]
 4601 0040 FFF7FEFF 		bl	cmp_write_array32
 4602 0044 0346     		mov	r3, r0
 4603              	.L365:
 4604              		.loc 1 685 0
 4605 0046 1846     		mov	r0, r3
 4606 0048 044B     		ldr	r3, .L368
 4607 004a 039A     		ldr	r2, [sp, #12]
 4608 004c 1B68     		ldr	r3, [r3]
 4609 004e 9A42     		cmp	r2, r3
ARM GAS  C:\Users\PCHAUT~1\AppData\Local\Temp\ccacj52E.s 			page 83


 4610 0050 01D0     		beq	.L367
 4611 0052 FFF7FEFF 		bl	__stack_chk_fail
 4612              	.L367:
 4613 0056 05B0     		add	sp, sp, #20
 4614              		.cfi_def_cfa_offset 4
 4615              		@ sp needed
 4616 0058 5DF804FB 		ldr	pc, [sp], #4
 4617              	.L369:
 4618              		.align	2
 4619              	.L368:
 4620 005c 00000000 		.word	__stack_chk_guard
 4621              		.cfi_endproc
 4622              	.LFE56:
 4623              		.size	cmp_write_array, .-cmp_write_array
 4624              		.section	.text.cmp_write_fixmap,"ax",%progbits
 4625              		.align	1
 4626              		.p2align 4,,15
 4627              		.global	cmp_write_fixmap
 4628              		.syntax unified
 4629              		.thumb
 4630              		.thumb_func
 4631              		.fpu fpv4-sp-d16
 4632              		.type	cmp_write_fixmap, %function
 4633              	cmp_write_fixmap:
 4634              	.LFB57:
 4635              		.loc 1 687 0
 4636              		.cfi_startproc
 4637              		@ args = 0, pretend = 0, frame = 16
 4638              		@ frame_needed = 0, uses_anonymous_args = 0
 4639 0000 00B5     		push	{lr}
 4640              		.cfi_def_cfa_offset 4
 4641              		.cfi_offset 14, -4
 4642 0002 85B0     		sub	sp, sp, #20
 4643              		.cfi_def_cfa_offset 24
 4644 0004 0190     		str	r0, [sp, #4]
 4645 0006 0B46     		mov	r3, r1
 4646 0008 8DF80330 		strb	r3, [sp, #3]
 4647              		.loc 1 687 0
 4648 000c 104B     		ldr	r3, .L374
 4649 000e 1B68     		ldr	r3, [r3]
 4650 0010 0393     		str	r3, [sp, #12]
 4651              		.loc 1 688 0
 4652 0012 9DF80330 		ldrb	r3, [sp, #3]	@ zero_extendqisi2
 4653 0016 0F2B     		cmp	r3, #15
 4654 0018 0AD8     		bhi	.L371
 4655              		.loc 1 689 0
 4656 001a 9DF80330 		ldrb	r3, [sp, #3]
 4657 001e 63F07F03 		orn	r3, r3, #127
 4658 0022 DBB2     		uxtb	r3, r3
 4659 0024 1946     		mov	r1, r3
 4660 0026 0198     		ldr	r0, [sp, #4]
 4661 0028 FFF7FEFF 		bl	write_fixed_value
 4662 002c 0346     		mov	r3, r0
 4663 002e 03E0     		b	.L372
 4664              	.L371:
 4665              		.loc 1 691 0
 4666 0030 019B     		ldr	r3, [sp, #4]
ARM GAS  C:\Users\PCHAUT~1\AppData\Local\Temp\ccacj52E.s 			page 84


 4667 0032 0522     		movs	r2, #5
 4668 0034 1A70     		strb	r2, [r3]
 4669              		.loc 1 692 0
 4670 0036 0023     		movs	r3, #0
 4671              	.L372:
 4672              		.loc 1 693 0
 4673 0038 1846     		mov	r0, r3
 4674 003a 054B     		ldr	r3, .L374
 4675 003c 039A     		ldr	r2, [sp, #12]
 4676 003e 1B68     		ldr	r3, [r3]
 4677 0040 9A42     		cmp	r2, r3
 4678 0042 01D0     		beq	.L373
 4679 0044 FFF7FEFF 		bl	__stack_chk_fail
 4680              	.L373:
 4681 0048 05B0     		add	sp, sp, #20
 4682              		.cfi_def_cfa_offset 4
 4683              		@ sp needed
 4684 004a 5DF804FB 		ldr	pc, [sp], #4
 4685              	.L375:
 4686 004e 00BF     		.align	2
 4687              	.L374:
 4688 0050 00000000 		.word	__stack_chk_guard
 4689              		.cfi_endproc
 4690              	.LFE57:
 4691              		.size	cmp_write_fixmap, .-cmp_write_fixmap
 4692              		.section	.text.cmp_write_map16,"ax",%progbits
 4693              		.align	1
 4694              		.p2align 4,,15
 4695              		.global	cmp_write_map16
 4696              		.syntax unified
 4697              		.thumb
 4698              		.thumb_func
 4699              		.fpu fpv4-sp-d16
 4700              		.type	cmp_write_map16, %function
 4701              	cmp_write_map16:
 4702              	.LFB58:
 4703              		.loc 1 695 0
 4704              		.cfi_startproc
 4705              		@ args = 0, pretend = 0, frame = 16
 4706              		@ frame_needed = 0, uses_anonymous_args = 0
 4707 0000 00B5     		push	{lr}
 4708              		.cfi_def_cfa_offset 4
 4709              		.cfi_offset 14, -4
 4710 0002 85B0     		sub	sp, sp, #20
 4711              		.cfi_def_cfa_offset 24
 4712 0004 0190     		str	r0, [sp, #4]
 4713 0006 0B46     		mov	r3, r1
 4714 0008 ADF80230 		strh	r3, [sp, #2]	@ movhi
 4715              		.loc 1 695 0
 4716 000c 184B     		ldr	r3, .L381
 4717 000e 1B68     		ldr	r3, [r3]
 4718 0010 0393     		str	r3, [sp, #12]
 4719              		.loc 1 696 0
 4720 0012 DE21     		movs	r1, #222
 4721 0014 0198     		ldr	r0, [sp, #4]
 4722 0016 FFF7FEFF 		bl	write_type_marker
 4723 001a 0346     		mov	r3, r0
ARM GAS  C:\Users\PCHAUT~1\AppData\Local\Temp\ccacj52E.s 			page 85


 4724 001c 83F00103 		eor	r3, r3, #1
 4725 0020 DBB2     		uxtb	r3, r3
 4726 0022 002B     		cmp	r3, #0
 4727 0024 01D0     		beq	.L377
 4728              		.loc 1 697 0
 4729 0026 0023     		movs	r3, #0
 4730 0028 17E0     		b	.L378
 4731              	.L377:
 4732              		.loc 1 699 0
 4733 002a BDF80230 		ldrh	r3, [sp, #2]
 4734 002e 1846     		mov	r0, r3
 4735 0030 FFF7FEFF 		bl	be16
 4736 0034 0346     		mov	r3, r0
 4737 0036 ADF80230 		strh	r3, [sp, #2]	@ movhi
 4738              		.loc 1 701 0
 4739 003a 019B     		ldr	r3, [sp, #4]
 4740 003c DB68     		ldr	r3, [r3, #12]
 4741 003e 0DF10201 		add	r1, sp, #2
 4742 0042 0222     		movs	r2, #2
 4743 0044 0198     		ldr	r0, [sp, #4]
 4744 0046 9847     		blx	r3
 4745              	.LVL27:
 4746 0048 0346     		mov	r3, r0
 4747 004a 002B     		cmp	r3, #0
 4748 004c 01D0     		beq	.L379
 4749              		.loc 1 702 0
 4750 004e 0123     		movs	r3, #1
 4751 0050 03E0     		b	.L378
 4752              	.L379:
 4753              		.loc 1 704 0
 4754 0052 019B     		ldr	r3, [sp, #4]
 4755 0054 0F22     		movs	r2, #15
 4756 0056 1A70     		strb	r2, [r3]
 4757              		.loc 1 705 0
 4758 0058 0023     		movs	r3, #0
 4759              	.L378:
 4760              		.loc 1 706 0
 4761 005a 1846     		mov	r0, r3
 4762 005c 044B     		ldr	r3, .L381
 4763 005e 039A     		ldr	r2, [sp, #12]
 4764 0060 1B68     		ldr	r3, [r3]
 4765 0062 9A42     		cmp	r2, r3
 4766 0064 01D0     		beq	.L380
 4767 0066 FFF7FEFF 		bl	__stack_chk_fail
 4768              	.L380:
 4769 006a 05B0     		add	sp, sp, #20
 4770              		.cfi_def_cfa_offset 4
 4771              		@ sp needed
 4772 006c 5DF804FB 		ldr	pc, [sp], #4
 4773              	.L382:
 4774              		.align	2
 4775              	.L381:
 4776 0070 00000000 		.word	__stack_chk_guard
 4777              		.cfi_endproc
 4778              	.LFE58:
 4779              		.size	cmp_write_map16, .-cmp_write_map16
 4780              		.section	.text.cmp_write_map32,"ax",%progbits
ARM GAS  C:\Users\PCHAUT~1\AppData\Local\Temp\ccacj52E.s 			page 86


 4781              		.align	1
 4782              		.p2align 4,,15
 4783              		.global	cmp_write_map32
 4784              		.syntax unified
 4785              		.thumb
 4786              		.thumb_func
 4787              		.fpu fpv4-sp-d16
 4788              		.type	cmp_write_map32, %function
 4789              	cmp_write_map32:
 4790              	.LFB59:
 4791              		.loc 1 708 0
 4792              		.cfi_startproc
 4793              		@ args = 0, pretend = 0, frame = 16
 4794              		@ frame_needed = 0, uses_anonymous_args = 0
 4795 0000 00B5     		push	{lr}
 4796              		.cfi_def_cfa_offset 4
 4797              		.cfi_offset 14, -4
 4798 0002 85B0     		sub	sp, sp, #20
 4799              		.cfi_def_cfa_offset 24
 4800 0004 0190     		str	r0, [sp, #4]
 4801 0006 0091     		str	r1, [sp]
 4802              		.loc 1 708 0
 4803 0008 174B     		ldr	r3, .L388
 4804 000a 1B68     		ldr	r3, [r3]
 4805 000c 0393     		str	r3, [sp, #12]
 4806              		.loc 1 709 0
 4807 000e DF21     		movs	r1, #223
 4808 0010 0198     		ldr	r0, [sp, #4]
 4809 0012 FFF7FEFF 		bl	write_type_marker
 4810 0016 0346     		mov	r3, r0
 4811 0018 83F00103 		eor	r3, r3, #1
 4812 001c DBB2     		uxtb	r3, r3
 4813 001e 002B     		cmp	r3, #0
 4814 0020 01D0     		beq	.L384
 4815              		.loc 1 710 0
 4816 0022 0023     		movs	r3, #0
 4817 0024 14E0     		b	.L385
 4818              	.L384:
 4819              		.loc 1 712 0
 4820 0026 009B     		ldr	r3, [sp]
 4821 0028 1846     		mov	r0, r3
 4822 002a FFF7FEFF 		bl	be32
 4823 002e 0346     		mov	r3, r0
 4824 0030 0093     		str	r3, [sp]
 4825              		.loc 1 714 0
 4826 0032 019B     		ldr	r3, [sp, #4]
 4827 0034 DB68     		ldr	r3, [r3, #12]
 4828 0036 6946     		mov	r1, sp
 4829 0038 0422     		movs	r2, #4
 4830 003a 0198     		ldr	r0, [sp, #4]
 4831 003c 9847     		blx	r3
 4832              	.LVL28:
 4833 003e 0346     		mov	r3, r0
 4834 0040 002B     		cmp	r3, #0
 4835 0042 01D0     		beq	.L386
 4836              		.loc 1 715 0
 4837 0044 0123     		movs	r3, #1
ARM GAS  C:\Users\PCHAUT~1\AppData\Local\Temp\ccacj52E.s 			page 87


 4838 0046 03E0     		b	.L385
 4839              	.L386:
 4840              		.loc 1 717 0
 4841 0048 019B     		ldr	r3, [sp, #4]
 4842 004a 0F22     		movs	r2, #15
 4843 004c 1A70     		strb	r2, [r3]
 4844              		.loc 1 718 0
 4845 004e 0023     		movs	r3, #0
 4846              	.L385:
 4847              		.loc 1 719 0
 4848 0050 1846     		mov	r0, r3
 4849 0052 054B     		ldr	r3, .L388
 4850 0054 039A     		ldr	r2, [sp, #12]
 4851 0056 1B68     		ldr	r3, [r3]
 4852 0058 9A42     		cmp	r2, r3
 4853 005a 01D0     		beq	.L387
 4854 005c FFF7FEFF 		bl	__stack_chk_fail
 4855              	.L387:
 4856 0060 05B0     		add	sp, sp, #20
 4857              		.cfi_def_cfa_offset 4
 4858              		@ sp needed
 4859 0062 5DF804FB 		ldr	pc, [sp], #4
 4860              	.L389:
 4861 0066 00BF     		.align	2
 4862              	.L388:
 4863 0068 00000000 		.word	__stack_chk_guard
 4864              		.cfi_endproc
 4865              	.LFE59:
 4866              		.size	cmp_write_map32, .-cmp_write_map32
 4867              		.section	.text.cmp_write_map,"ax",%progbits
 4868              		.align	1
 4869              		.p2align 4,,15
 4870              		.global	cmp_write_map
 4871              		.syntax unified
 4872              		.thumb
 4873              		.thumb_func
 4874              		.fpu fpv4-sp-d16
 4875              		.type	cmp_write_map, %function
 4876              	cmp_write_map:
 4877              	.LFB60:
 4878              		.loc 1 721 0
 4879              		.cfi_startproc
 4880              		@ args = 0, pretend = 0, frame = 16
 4881              		@ frame_needed = 0, uses_anonymous_args = 0
 4882 0000 00B5     		push	{lr}
 4883              		.cfi_def_cfa_offset 4
 4884              		.cfi_offset 14, -4
 4885 0002 85B0     		sub	sp, sp, #20
 4886              		.cfi_def_cfa_offset 24
 4887 0004 0190     		str	r0, [sp, #4]
 4888 0006 0091     		str	r1, [sp]
 4889              		.loc 1 721 0
 4890 0008 144B     		ldr	r3, .L395
 4891 000a 1B68     		ldr	r3, [r3]
 4892 000c 0393     		str	r3, [sp, #12]
 4893              		.loc 1 722 0
 4894 000e 009B     		ldr	r3, [sp]
ARM GAS  C:\Users\PCHAUT~1\AppData\Local\Temp\ccacj52E.s 			page 88


 4895 0010 0F2B     		cmp	r3, #15
 4896 0012 07D8     		bhi	.L391
 4897              		.loc 1 723 0
 4898 0014 009B     		ldr	r3, [sp]
 4899 0016 DBB2     		uxtb	r3, r3
 4900 0018 1946     		mov	r1, r3
 4901 001a 0198     		ldr	r0, [sp, #4]
 4902 001c FFF7FEFF 		bl	cmp_write_fixmap
 4903 0020 0346     		mov	r3, r0
 4904 0022 10E0     		b	.L392
 4905              	.L391:
 4906              		.loc 1 724 0
 4907 0024 009B     		ldr	r3, [sp]
 4908 0026 B3F5803F 		cmp	r3, #65536
 4909 002a 07D2     		bcs	.L393
 4910              		.loc 1 725 0
 4911 002c 009B     		ldr	r3, [sp]
 4912 002e 9BB2     		uxth	r3, r3
 4913 0030 1946     		mov	r1, r3
 4914 0032 0198     		ldr	r0, [sp, #4]
 4915 0034 FFF7FEFF 		bl	cmp_write_map16
 4916 0038 0346     		mov	r3, r0
 4917 003a 04E0     		b	.L392
 4918              	.L393:
 4919              		.loc 1 727 0
 4920 003c 0099     		ldr	r1, [sp]
 4921 003e 0198     		ldr	r0, [sp, #4]
 4922 0040 FFF7FEFF 		bl	cmp_write_map32
 4923 0044 0346     		mov	r3, r0
 4924              	.L392:
 4925              		.loc 1 728 0
 4926 0046 1846     		mov	r0, r3
 4927 0048 044B     		ldr	r3, .L395
 4928 004a 039A     		ldr	r2, [sp, #12]
 4929 004c 1B68     		ldr	r3, [r3]
 4930 004e 9A42     		cmp	r2, r3
 4931 0050 01D0     		beq	.L394
 4932 0052 FFF7FEFF 		bl	__stack_chk_fail
 4933              	.L394:
 4934 0056 05B0     		add	sp, sp, #20
 4935              		.cfi_def_cfa_offset 4
 4936              		@ sp needed
 4937 0058 5DF804FB 		ldr	pc, [sp], #4
 4938              	.L396:
 4939              		.align	2
 4940              	.L395:
 4941 005c 00000000 		.word	__stack_chk_guard
 4942              		.cfi_endproc
 4943              	.LFE60:
 4944              		.size	cmp_write_map, .-cmp_write_map
 4945              		.section	.text.cmp_write_fixext1_marker,"ax",%progbits
 4946              		.align	1
 4947              		.p2align 4,,15
 4948              		.global	cmp_write_fixext1_marker
 4949              		.syntax unified
 4950              		.thumb
 4951              		.thumb_func
ARM GAS  C:\Users\PCHAUT~1\AppData\Local\Temp\ccacj52E.s 			page 89


 4952              		.fpu fpv4-sp-d16
 4953              		.type	cmp_write_fixext1_marker, %function
 4954              	cmp_write_fixext1_marker:
 4955              	.LFB61:
 4956              		.loc 1 730 0
 4957              		.cfi_startproc
 4958              		@ args = 0, pretend = 0, frame = 16
 4959              		@ frame_needed = 0, uses_anonymous_args = 0
 4960 0000 00B5     		push	{lr}
 4961              		.cfi_def_cfa_offset 4
 4962              		.cfi_offset 14, -4
 4963 0002 85B0     		sub	sp, sp, #20
 4964              		.cfi_def_cfa_offset 24
 4965 0004 0190     		str	r0, [sp, #4]
 4966 0006 0B46     		mov	r3, r1
 4967 0008 8DF80330 		strb	r3, [sp, #3]
 4968              		.loc 1 730 0
 4969 000c 144B     		ldr	r3, .L402
 4970 000e 1B68     		ldr	r3, [r3]
 4971 0010 0393     		str	r3, [sp, #12]
 4972              		.loc 1 731 0
 4973 0012 D421     		movs	r1, #212
 4974 0014 0198     		ldr	r0, [sp, #4]
 4975 0016 FFF7FEFF 		bl	write_type_marker
 4976 001a 0346     		mov	r3, r0
 4977 001c 83F00103 		eor	r3, r3, #1
 4978 0020 DBB2     		uxtb	r3, r3
 4979 0022 002B     		cmp	r3, #0
 4980 0024 01D0     		beq	.L398
 4981              		.loc 1 732 0
 4982 0026 0023     		movs	r3, #0
 4983 0028 0FE0     		b	.L399
 4984              	.L398:
 4985              		.loc 1 734 0
 4986 002a 019B     		ldr	r3, [sp, #4]
 4987 002c DB68     		ldr	r3, [r3, #12]
 4988 002e 0DF10301 		add	r1, sp, #3
 4989 0032 0122     		movs	r2, #1
 4990 0034 0198     		ldr	r0, [sp, #4]
 4991 0036 9847     		blx	r3
 4992              	.LVL29:
 4993 0038 0346     		mov	r3, r0
 4994 003a 002B     		cmp	r3, #0
 4995 003c 01D0     		beq	.L400
 4996              		.loc 1 735 0
 4997 003e 0123     		movs	r3, #1
 4998 0040 03E0     		b	.L399
 4999              	.L400:
 5000              		.loc 1 737 0
 5001 0042 019B     		ldr	r3, [sp, #4]
 5002 0044 0C22     		movs	r2, #12
 5003 0046 1A70     		strb	r2, [r3]
 5004              		.loc 1 738 0
 5005 0048 0023     		movs	r3, #0
 5006              	.L399:
 5007              		.loc 1 739 0
 5008 004a 1846     		mov	r0, r3
ARM GAS  C:\Users\PCHAUT~1\AppData\Local\Temp\ccacj52E.s 			page 90


 5009 004c 044B     		ldr	r3, .L402
 5010 004e 039A     		ldr	r2, [sp, #12]
 5011 0050 1B68     		ldr	r3, [r3]
 5012 0052 9A42     		cmp	r2, r3
 5013 0054 01D0     		beq	.L401
 5014 0056 FFF7FEFF 		bl	__stack_chk_fail
 5015              	.L401:
 5016 005a 05B0     		add	sp, sp, #20
 5017              		.cfi_def_cfa_offset 4
 5018              		@ sp needed
 5019 005c 5DF804FB 		ldr	pc, [sp], #4
 5020              	.L403:
 5021              		.align	2
 5022              	.L402:
 5023 0060 00000000 		.word	__stack_chk_guard
 5024              		.cfi_endproc
 5025              	.LFE61:
 5026              		.size	cmp_write_fixext1_marker, .-cmp_write_fixext1_marker
 5027              		.section	.text.cmp_write_fixext1,"ax",%progbits
 5028              		.align	1
 5029              		.p2align 4,,15
 5030              		.global	cmp_write_fixext1
 5031              		.syntax unified
 5032              		.thumb
 5033              		.thumb_func
 5034              		.fpu fpv4-sp-d16
 5035              		.type	cmp_write_fixext1, %function
 5036              	cmp_write_fixext1:
 5037              	.LFB62:
 5038              		.loc 1 741 0
 5039              		.cfi_startproc
 5040              		@ args = 0, pretend = 0, frame = 24
 5041              		@ frame_needed = 0, uses_anonymous_args = 0
 5042 0000 00B5     		push	{lr}
 5043              		.cfi_def_cfa_offset 4
 5044              		.cfi_offset 14, -4
 5045 0002 87B0     		sub	sp, sp, #28
 5046              		.cfi_def_cfa_offset 32
 5047 0004 0390     		str	r0, [sp, #12]
 5048 0006 0B46     		mov	r3, r1
 5049 0008 0192     		str	r2, [sp, #4]
 5050 000a 8DF80B30 		strb	r3, [sp, #11]
 5051              		.loc 1 741 0
 5052 000e 154B     		ldr	r3, .L409
 5053 0010 1B68     		ldr	r3, [r3]
 5054 0012 0593     		str	r3, [sp, #20]
 5055              		.loc 1 742 0
 5056 0014 9DF90B30 		ldrsb	r3, [sp, #11]
 5057 0018 1946     		mov	r1, r3
 5058 001a 0398     		ldr	r0, [sp, #12]
 5059 001c FFF7FEFF 		bl	cmp_write_fixext1_marker
 5060 0020 0346     		mov	r3, r0
 5061 0022 83F00103 		eor	r3, r3, #1
 5062 0026 DBB2     		uxtb	r3, r3
 5063 0028 002B     		cmp	r3, #0
 5064 002a 01D0     		beq	.L405
 5065              		.loc 1 743 0
ARM GAS  C:\Users\PCHAUT~1\AppData\Local\Temp\ccacj52E.s 			page 91


 5066 002c 0023     		movs	r3, #0
 5067 002e 0EE0     		b	.L406
 5068              	.L405:
 5069              		.loc 1 745 0
 5070 0030 039B     		ldr	r3, [sp, #12]
 5071 0032 DB68     		ldr	r3, [r3, #12]
 5072 0034 0122     		movs	r2, #1
 5073 0036 0199     		ldr	r1, [sp, #4]
 5074 0038 0398     		ldr	r0, [sp, #12]
 5075 003a 9847     		blx	r3
 5076              	.LVL30:
 5077 003c 0346     		mov	r3, r0
 5078 003e 002B     		cmp	r3, #0
 5079 0040 01D0     		beq	.L407
 5080              		.loc 1 746 0
 5081 0042 0123     		movs	r3, #1
 5082 0044 03E0     		b	.L406
 5083              	.L407:
 5084              		.loc 1 748 0
 5085 0046 039B     		ldr	r3, [sp, #12]
 5086 0048 0A22     		movs	r2, #10
 5087 004a 1A70     		strb	r2, [r3]
 5088              		.loc 1 749 0
 5089 004c 0023     		movs	r3, #0
 5090              	.L406:
 5091              		.loc 1 750 0
 5092 004e 1846     		mov	r0, r3
 5093 0050 044B     		ldr	r3, .L409
 5094 0052 059A     		ldr	r2, [sp, #20]
 5095 0054 1B68     		ldr	r3, [r3]
 5096 0056 9A42     		cmp	r2, r3
 5097 0058 01D0     		beq	.L408
 5098 005a FFF7FEFF 		bl	__stack_chk_fail
 5099              	.L408:
 5100 005e 07B0     		add	sp, sp, #28
 5101              		.cfi_def_cfa_offset 4
 5102              		@ sp needed
 5103 0060 5DF804FB 		ldr	pc, [sp], #4
 5104              	.L410:
 5105              		.align	2
 5106              	.L409:
 5107 0064 00000000 		.word	__stack_chk_guard
 5108              		.cfi_endproc
 5109              	.LFE62:
 5110              		.size	cmp_write_fixext1, .-cmp_write_fixext1
 5111              		.section	.text.cmp_write_fixext2_marker,"ax",%progbits
 5112              		.align	1
 5113              		.p2align 4,,15
 5114              		.global	cmp_write_fixext2_marker
 5115              		.syntax unified
 5116              		.thumb
 5117              		.thumb_func
 5118              		.fpu fpv4-sp-d16
 5119              		.type	cmp_write_fixext2_marker, %function
 5120              	cmp_write_fixext2_marker:
 5121              	.LFB63:
 5122              		.loc 1 752 0
ARM GAS  C:\Users\PCHAUT~1\AppData\Local\Temp\ccacj52E.s 			page 92


 5123              		.cfi_startproc
 5124              		@ args = 0, pretend = 0, frame = 16
 5125              		@ frame_needed = 0, uses_anonymous_args = 0
 5126 0000 00B5     		push	{lr}
 5127              		.cfi_def_cfa_offset 4
 5128              		.cfi_offset 14, -4
 5129 0002 85B0     		sub	sp, sp, #20
 5130              		.cfi_def_cfa_offset 24
 5131 0004 0190     		str	r0, [sp, #4]
 5132 0006 0B46     		mov	r3, r1
 5133 0008 8DF80330 		strb	r3, [sp, #3]
 5134              		.loc 1 752 0
 5135 000c 144B     		ldr	r3, .L416
 5136 000e 1B68     		ldr	r3, [r3]
 5137 0010 0393     		str	r3, [sp, #12]
 5138              		.loc 1 753 0
 5139 0012 D521     		movs	r1, #213
 5140 0014 0198     		ldr	r0, [sp, #4]
 5141 0016 FFF7FEFF 		bl	write_type_marker
 5142 001a 0346     		mov	r3, r0
 5143 001c 83F00103 		eor	r3, r3, #1
 5144 0020 DBB2     		uxtb	r3, r3
 5145 0022 002B     		cmp	r3, #0
 5146 0024 01D0     		beq	.L412
 5147              		.loc 1 754 0
 5148 0026 0023     		movs	r3, #0
 5149 0028 0FE0     		b	.L413
 5150              	.L412:
 5151              		.loc 1 756 0
 5152 002a 019B     		ldr	r3, [sp, #4]
 5153 002c DB68     		ldr	r3, [r3, #12]
 5154 002e 0DF10301 		add	r1, sp, #3
 5155 0032 0122     		movs	r2, #1
 5156 0034 0198     		ldr	r0, [sp, #4]
 5157 0036 9847     		blx	r3
 5158              	.LVL31:
 5159 0038 0346     		mov	r3, r0
 5160 003a 002B     		cmp	r3, #0
 5161 003c 01D0     		beq	.L414
 5162              		.loc 1 757 0
 5163 003e 0123     		movs	r3, #1
 5164 0040 03E0     		b	.L413
 5165              	.L414:
 5166              		.loc 1 759 0
 5167 0042 019B     		ldr	r3, [sp, #4]
 5168 0044 0C22     		movs	r2, #12
 5169 0046 1A70     		strb	r2, [r3]
 5170              		.loc 1 760 0
 5171 0048 0023     		movs	r3, #0
 5172              	.L413:
 5173              		.loc 1 761 0
 5174 004a 1846     		mov	r0, r3
 5175 004c 044B     		ldr	r3, .L416
 5176 004e 039A     		ldr	r2, [sp, #12]
 5177 0050 1B68     		ldr	r3, [r3]
 5178 0052 9A42     		cmp	r2, r3
 5179 0054 01D0     		beq	.L415
ARM GAS  C:\Users\PCHAUT~1\AppData\Local\Temp\ccacj52E.s 			page 93


 5180 0056 FFF7FEFF 		bl	__stack_chk_fail
 5181              	.L415:
 5182 005a 05B0     		add	sp, sp, #20
 5183              		.cfi_def_cfa_offset 4
 5184              		@ sp needed
 5185 005c 5DF804FB 		ldr	pc, [sp], #4
 5186              	.L417:
 5187              		.align	2
 5188              	.L416:
 5189 0060 00000000 		.word	__stack_chk_guard
 5190              		.cfi_endproc
 5191              	.LFE63:
 5192              		.size	cmp_write_fixext2_marker, .-cmp_write_fixext2_marker
 5193              		.section	.text.cmp_write_fixext2,"ax",%progbits
 5194              		.align	1
 5195              		.p2align 4,,15
 5196              		.global	cmp_write_fixext2
 5197              		.syntax unified
 5198              		.thumb
 5199              		.thumb_func
 5200              		.fpu fpv4-sp-d16
 5201              		.type	cmp_write_fixext2, %function
 5202              	cmp_write_fixext2:
 5203              	.LFB64:
 5204              		.loc 1 763 0
 5205              		.cfi_startproc
 5206              		@ args = 0, pretend = 0, frame = 24
 5207              		@ frame_needed = 0, uses_anonymous_args = 0
 5208 0000 00B5     		push	{lr}
 5209              		.cfi_def_cfa_offset 4
 5210              		.cfi_offset 14, -4
 5211 0002 87B0     		sub	sp, sp, #28
 5212              		.cfi_def_cfa_offset 32
 5213 0004 0390     		str	r0, [sp, #12]
 5214 0006 0B46     		mov	r3, r1
 5215 0008 0192     		str	r2, [sp, #4]
 5216 000a 8DF80B30 		strb	r3, [sp, #11]
 5217              		.loc 1 763 0
 5218 000e 154B     		ldr	r3, .L423
 5219 0010 1B68     		ldr	r3, [r3]
 5220 0012 0593     		str	r3, [sp, #20]
 5221              		.loc 1 764 0
 5222 0014 9DF90B30 		ldrsb	r3, [sp, #11]
 5223 0018 1946     		mov	r1, r3
 5224 001a 0398     		ldr	r0, [sp, #12]
 5225 001c FFF7FEFF 		bl	cmp_write_fixext2_marker
 5226 0020 0346     		mov	r3, r0
 5227 0022 83F00103 		eor	r3, r3, #1
 5228 0026 DBB2     		uxtb	r3, r3
 5229 0028 002B     		cmp	r3, #0
 5230 002a 01D0     		beq	.L419
 5231              		.loc 1 765 0
 5232 002c 0023     		movs	r3, #0
 5233 002e 0EE0     		b	.L420
 5234              	.L419:
 5235              		.loc 1 767 0
 5236 0030 039B     		ldr	r3, [sp, #12]
ARM GAS  C:\Users\PCHAUT~1\AppData\Local\Temp\ccacj52E.s 			page 94


 5237 0032 DB68     		ldr	r3, [r3, #12]
 5238 0034 0222     		movs	r2, #2
 5239 0036 0199     		ldr	r1, [sp, #4]
 5240 0038 0398     		ldr	r0, [sp, #12]
 5241 003a 9847     		blx	r3
 5242              	.LVL32:
 5243 003c 0346     		mov	r3, r0
 5244 003e 002B     		cmp	r3, #0
 5245 0040 01D0     		beq	.L421
 5246              		.loc 1 768 0
 5247 0042 0123     		movs	r3, #1
 5248 0044 03E0     		b	.L420
 5249              	.L421:
 5250              		.loc 1 770 0
 5251 0046 039B     		ldr	r3, [sp, #12]
 5252 0048 0A22     		movs	r2, #10
 5253 004a 1A70     		strb	r2, [r3]
 5254              		.loc 1 771 0
 5255 004c 0023     		movs	r3, #0
 5256              	.L420:
 5257              		.loc 1 772 0
 5258 004e 1846     		mov	r0, r3
 5259 0050 044B     		ldr	r3, .L423
 5260 0052 059A     		ldr	r2, [sp, #20]
 5261 0054 1B68     		ldr	r3, [r3]
 5262 0056 9A42     		cmp	r2, r3
 5263 0058 01D0     		beq	.L422
 5264 005a FFF7FEFF 		bl	__stack_chk_fail
 5265              	.L422:
 5266 005e 07B0     		add	sp, sp, #28
 5267              		.cfi_def_cfa_offset 4
 5268              		@ sp needed
 5269 0060 5DF804FB 		ldr	pc, [sp], #4
 5270              	.L424:
 5271              		.align	2
 5272              	.L423:
 5273 0064 00000000 		.word	__stack_chk_guard
 5274              		.cfi_endproc
 5275              	.LFE64:
 5276              		.size	cmp_write_fixext2, .-cmp_write_fixext2
 5277              		.section	.text.cmp_write_fixext4_marker,"ax",%progbits
 5278              		.align	1
 5279              		.p2align 4,,15
 5280              		.global	cmp_write_fixext4_marker
 5281              		.syntax unified
 5282              		.thumb
 5283              		.thumb_func
 5284              		.fpu fpv4-sp-d16
 5285              		.type	cmp_write_fixext4_marker, %function
 5286              	cmp_write_fixext4_marker:
 5287              	.LFB65:
 5288              		.loc 1 774 0
 5289              		.cfi_startproc
 5290              		@ args = 0, pretend = 0, frame = 16
 5291              		@ frame_needed = 0, uses_anonymous_args = 0
 5292 0000 00B5     		push	{lr}
 5293              		.cfi_def_cfa_offset 4
ARM GAS  C:\Users\PCHAUT~1\AppData\Local\Temp\ccacj52E.s 			page 95


 5294              		.cfi_offset 14, -4
 5295 0002 85B0     		sub	sp, sp, #20
 5296              		.cfi_def_cfa_offset 24
 5297 0004 0190     		str	r0, [sp, #4]
 5298 0006 0B46     		mov	r3, r1
 5299 0008 8DF80330 		strb	r3, [sp, #3]
 5300              		.loc 1 774 0
 5301 000c 144B     		ldr	r3, .L430
 5302 000e 1B68     		ldr	r3, [r3]
 5303 0010 0393     		str	r3, [sp, #12]
 5304              		.loc 1 775 0
 5305 0012 D621     		movs	r1, #214
 5306 0014 0198     		ldr	r0, [sp, #4]
 5307 0016 FFF7FEFF 		bl	write_type_marker
 5308 001a 0346     		mov	r3, r0
 5309 001c 83F00103 		eor	r3, r3, #1
 5310 0020 DBB2     		uxtb	r3, r3
 5311 0022 002B     		cmp	r3, #0
 5312 0024 01D0     		beq	.L426
 5313              		.loc 1 776 0
 5314 0026 0023     		movs	r3, #0
 5315 0028 0FE0     		b	.L427
 5316              	.L426:
 5317              		.loc 1 778 0
 5318 002a 019B     		ldr	r3, [sp, #4]
 5319 002c DB68     		ldr	r3, [r3, #12]
 5320 002e 0DF10301 		add	r1, sp, #3
 5321 0032 0122     		movs	r2, #1
 5322 0034 0198     		ldr	r0, [sp, #4]
 5323 0036 9847     		blx	r3
 5324              	.LVL33:
 5325 0038 0346     		mov	r3, r0
 5326 003a 002B     		cmp	r3, #0
 5327 003c 01D0     		beq	.L428
 5328              		.loc 1 779 0
 5329 003e 0123     		movs	r3, #1
 5330 0040 03E0     		b	.L427
 5331              	.L428:
 5332              		.loc 1 781 0
 5333 0042 019B     		ldr	r3, [sp, #4]
 5334 0044 0C22     		movs	r2, #12
 5335 0046 1A70     		strb	r2, [r3]
 5336              		.loc 1 782 0
 5337 0048 0023     		movs	r3, #0
 5338              	.L427:
 5339              		.loc 1 783 0
 5340 004a 1846     		mov	r0, r3
 5341 004c 044B     		ldr	r3, .L430
 5342 004e 039A     		ldr	r2, [sp, #12]
 5343 0050 1B68     		ldr	r3, [r3]
 5344 0052 9A42     		cmp	r2, r3
 5345 0054 01D0     		beq	.L429
 5346 0056 FFF7FEFF 		bl	__stack_chk_fail
 5347              	.L429:
 5348 005a 05B0     		add	sp, sp, #20
 5349              		.cfi_def_cfa_offset 4
 5350              		@ sp needed
ARM GAS  C:\Users\PCHAUT~1\AppData\Local\Temp\ccacj52E.s 			page 96


 5351 005c 5DF804FB 		ldr	pc, [sp], #4
 5352              	.L431:
 5353              		.align	2
 5354              	.L430:
 5355 0060 00000000 		.word	__stack_chk_guard
 5356              		.cfi_endproc
 5357              	.LFE65:
 5358              		.size	cmp_write_fixext4_marker, .-cmp_write_fixext4_marker
 5359              		.section	.text.cmp_write_fixext4,"ax",%progbits
 5360              		.align	1
 5361              		.p2align 4,,15
 5362              		.global	cmp_write_fixext4
 5363              		.syntax unified
 5364              		.thumb
 5365              		.thumb_func
 5366              		.fpu fpv4-sp-d16
 5367              		.type	cmp_write_fixext4, %function
 5368              	cmp_write_fixext4:
 5369              	.LFB66:
 5370              		.loc 1 785 0
 5371              		.cfi_startproc
 5372              		@ args = 0, pretend = 0, frame = 24
 5373              		@ frame_needed = 0, uses_anonymous_args = 0
 5374 0000 00B5     		push	{lr}
 5375              		.cfi_def_cfa_offset 4
 5376              		.cfi_offset 14, -4
 5377 0002 87B0     		sub	sp, sp, #28
 5378              		.cfi_def_cfa_offset 32
 5379 0004 0390     		str	r0, [sp, #12]
 5380 0006 0B46     		mov	r3, r1
 5381 0008 0192     		str	r2, [sp, #4]
 5382 000a 8DF80B30 		strb	r3, [sp, #11]
 5383              		.loc 1 785 0
 5384 000e 154B     		ldr	r3, .L437
 5385 0010 1B68     		ldr	r3, [r3]
 5386 0012 0593     		str	r3, [sp, #20]
 5387              		.loc 1 786 0
 5388 0014 9DF90B30 		ldrsb	r3, [sp, #11]
 5389 0018 1946     		mov	r1, r3
 5390 001a 0398     		ldr	r0, [sp, #12]
 5391 001c FFF7FEFF 		bl	cmp_write_fixext4_marker
 5392 0020 0346     		mov	r3, r0
 5393 0022 83F00103 		eor	r3, r3, #1
 5394 0026 DBB2     		uxtb	r3, r3
 5395 0028 002B     		cmp	r3, #0
 5396 002a 01D0     		beq	.L433
 5397              		.loc 1 787 0
 5398 002c 0023     		movs	r3, #0
 5399 002e 0EE0     		b	.L434
 5400              	.L433:
 5401              		.loc 1 789 0
 5402 0030 039B     		ldr	r3, [sp, #12]
 5403 0032 DB68     		ldr	r3, [r3, #12]
 5404 0034 0422     		movs	r2, #4
 5405 0036 0199     		ldr	r1, [sp, #4]
 5406 0038 0398     		ldr	r0, [sp, #12]
 5407 003a 9847     		blx	r3
ARM GAS  C:\Users\PCHAUT~1\AppData\Local\Temp\ccacj52E.s 			page 97


 5408              	.LVL34:
 5409 003c 0346     		mov	r3, r0
 5410 003e 002B     		cmp	r3, #0
 5411 0040 01D0     		beq	.L435
 5412              		.loc 1 790 0
 5413 0042 0123     		movs	r3, #1
 5414 0044 03E0     		b	.L434
 5415              	.L435:
 5416              		.loc 1 792 0
 5417 0046 039B     		ldr	r3, [sp, #12]
 5418 0048 0A22     		movs	r2, #10
 5419 004a 1A70     		strb	r2, [r3]
 5420              		.loc 1 793 0
 5421 004c 0023     		movs	r3, #0
 5422              	.L434:
 5423              		.loc 1 794 0
 5424 004e 1846     		mov	r0, r3
 5425 0050 044B     		ldr	r3, .L437
 5426 0052 059A     		ldr	r2, [sp, #20]
 5427 0054 1B68     		ldr	r3, [r3]
 5428 0056 9A42     		cmp	r2, r3
 5429 0058 01D0     		beq	.L436
 5430 005a FFF7FEFF 		bl	__stack_chk_fail
 5431              	.L436:
 5432 005e 07B0     		add	sp, sp, #28
 5433              		.cfi_def_cfa_offset 4
 5434              		@ sp needed
 5435 0060 5DF804FB 		ldr	pc, [sp], #4
 5436              	.L438:
 5437              		.align	2
 5438              	.L437:
 5439 0064 00000000 		.word	__stack_chk_guard
 5440              		.cfi_endproc
 5441              	.LFE66:
 5442              		.size	cmp_write_fixext4, .-cmp_write_fixext4
 5443              		.section	.text.cmp_write_fixext8_marker,"ax",%progbits
 5444              		.align	1
 5445              		.p2align 4,,15
 5446              		.global	cmp_write_fixext8_marker
 5447              		.syntax unified
 5448              		.thumb
 5449              		.thumb_func
 5450              		.fpu fpv4-sp-d16
 5451              		.type	cmp_write_fixext8_marker, %function
 5452              	cmp_write_fixext8_marker:
 5453              	.LFB67:
 5454              		.loc 1 796 0
 5455              		.cfi_startproc
 5456              		@ args = 0, pretend = 0, frame = 16
 5457              		@ frame_needed = 0, uses_anonymous_args = 0
 5458 0000 00B5     		push	{lr}
 5459              		.cfi_def_cfa_offset 4
 5460              		.cfi_offset 14, -4
 5461 0002 85B0     		sub	sp, sp, #20
 5462              		.cfi_def_cfa_offset 24
 5463 0004 0190     		str	r0, [sp, #4]
 5464 0006 0B46     		mov	r3, r1
ARM GAS  C:\Users\PCHAUT~1\AppData\Local\Temp\ccacj52E.s 			page 98


 5465 0008 8DF80330 		strb	r3, [sp, #3]
 5466              		.loc 1 796 0
 5467 000c 144B     		ldr	r3, .L444
 5468 000e 1B68     		ldr	r3, [r3]
 5469 0010 0393     		str	r3, [sp, #12]
 5470              		.loc 1 797 0
 5471 0012 D721     		movs	r1, #215
 5472 0014 0198     		ldr	r0, [sp, #4]
 5473 0016 FFF7FEFF 		bl	write_type_marker
 5474 001a 0346     		mov	r3, r0
 5475 001c 83F00103 		eor	r3, r3, #1
 5476 0020 DBB2     		uxtb	r3, r3
 5477 0022 002B     		cmp	r3, #0
 5478 0024 01D0     		beq	.L440
 5479              		.loc 1 798 0
 5480 0026 0023     		movs	r3, #0
 5481 0028 0FE0     		b	.L441
 5482              	.L440:
 5483              		.loc 1 800 0
 5484 002a 019B     		ldr	r3, [sp, #4]
 5485 002c DB68     		ldr	r3, [r3, #12]
 5486 002e 0DF10301 		add	r1, sp, #3
 5487 0032 0122     		movs	r2, #1
 5488 0034 0198     		ldr	r0, [sp, #4]
 5489 0036 9847     		blx	r3
 5490              	.LVL35:
 5491 0038 0346     		mov	r3, r0
 5492 003a 002B     		cmp	r3, #0
 5493 003c 01D0     		beq	.L442
 5494              		.loc 1 801 0
 5495 003e 0123     		movs	r3, #1
 5496 0040 03E0     		b	.L441
 5497              	.L442:
 5498              		.loc 1 803 0
 5499 0042 019B     		ldr	r3, [sp, #4]
 5500 0044 0C22     		movs	r2, #12
 5501 0046 1A70     		strb	r2, [r3]
 5502              		.loc 1 804 0
 5503 0048 0023     		movs	r3, #0
 5504              	.L441:
 5505              		.loc 1 805 0
 5506 004a 1846     		mov	r0, r3
 5507 004c 044B     		ldr	r3, .L444
 5508 004e 039A     		ldr	r2, [sp, #12]
 5509 0050 1B68     		ldr	r3, [r3]
 5510 0052 9A42     		cmp	r2, r3
 5511 0054 01D0     		beq	.L443
 5512 0056 FFF7FEFF 		bl	__stack_chk_fail
 5513              	.L443:
 5514 005a 05B0     		add	sp, sp, #20
 5515              		.cfi_def_cfa_offset 4
 5516              		@ sp needed
 5517 005c 5DF804FB 		ldr	pc, [sp], #4
 5518              	.L445:
 5519              		.align	2
 5520              	.L444:
 5521 0060 00000000 		.word	__stack_chk_guard
ARM GAS  C:\Users\PCHAUT~1\AppData\Local\Temp\ccacj52E.s 			page 99


 5522              		.cfi_endproc
 5523              	.LFE67:
 5524              		.size	cmp_write_fixext8_marker, .-cmp_write_fixext8_marker
 5525              		.section	.text.cmp_write_fixext8,"ax",%progbits
 5526              		.align	1
 5527              		.p2align 4,,15
 5528              		.global	cmp_write_fixext8
 5529              		.syntax unified
 5530              		.thumb
 5531              		.thumb_func
 5532              		.fpu fpv4-sp-d16
 5533              		.type	cmp_write_fixext8, %function
 5534              	cmp_write_fixext8:
 5535              	.LFB68:
 5536              		.loc 1 807 0
 5537              		.cfi_startproc
 5538              		@ args = 0, pretend = 0, frame = 24
 5539              		@ frame_needed = 0, uses_anonymous_args = 0
 5540 0000 00B5     		push	{lr}
 5541              		.cfi_def_cfa_offset 4
 5542              		.cfi_offset 14, -4
 5543 0002 87B0     		sub	sp, sp, #28
 5544              		.cfi_def_cfa_offset 32
 5545 0004 0390     		str	r0, [sp, #12]
 5546 0006 0B46     		mov	r3, r1
 5547 0008 0192     		str	r2, [sp, #4]
 5548 000a 8DF80B30 		strb	r3, [sp, #11]
 5549              		.loc 1 807 0
 5550 000e 154B     		ldr	r3, .L451
 5551 0010 1B68     		ldr	r3, [r3]
 5552 0012 0593     		str	r3, [sp, #20]
 5553              		.loc 1 808 0
 5554 0014 9DF90B30 		ldrsb	r3, [sp, #11]
 5555 0018 1946     		mov	r1, r3
 5556 001a 0398     		ldr	r0, [sp, #12]
 5557 001c FFF7FEFF 		bl	cmp_write_fixext8_marker
 5558 0020 0346     		mov	r3, r0
 5559 0022 83F00103 		eor	r3, r3, #1
 5560 0026 DBB2     		uxtb	r3, r3
 5561 0028 002B     		cmp	r3, #0
 5562 002a 01D0     		beq	.L447
 5563              		.loc 1 809 0
 5564 002c 0023     		movs	r3, #0
 5565 002e 0EE0     		b	.L448
 5566              	.L447:
 5567              		.loc 1 811 0
 5568 0030 039B     		ldr	r3, [sp, #12]
 5569 0032 DB68     		ldr	r3, [r3, #12]
 5570 0034 0822     		movs	r2, #8
 5571 0036 0199     		ldr	r1, [sp, #4]
 5572 0038 0398     		ldr	r0, [sp, #12]
 5573 003a 9847     		blx	r3
 5574              	.LVL36:
 5575 003c 0346     		mov	r3, r0
 5576 003e 002B     		cmp	r3, #0
 5577 0040 01D0     		beq	.L449
 5578              		.loc 1 812 0
ARM GAS  C:\Users\PCHAUT~1\AppData\Local\Temp\ccacj52E.s 			page 100


 5579 0042 0123     		movs	r3, #1
 5580 0044 03E0     		b	.L448
 5581              	.L449:
 5582              		.loc 1 814 0
 5583 0046 039B     		ldr	r3, [sp, #12]
 5584 0048 0A22     		movs	r2, #10
 5585 004a 1A70     		strb	r2, [r3]
 5586              		.loc 1 815 0
 5587 004c 0023     		movs	r3, #0
 5588              	.L448:
 5589              		.loc 1 816 0
 5590 004e 1846     		mov	r0, r3
 5591 0050 044B     		ldr	r3, .L451
 5592 0052 059A     		ldr	r2, [sp, #20]
 5593 0054 1B68     		ldr	r3, [r3]
 5594 0056 9A42     		cmp	r2, r3
 5595 0058 01D0     		beq	.L450
 5596 005a FFF7FEFF 		bl	__stack_chk_fail
 5597              	.L450:
 5598 005e 07B0     		add	sp, sp, #28
 5599              		.cfi_def_cfa_offset 4
 5600              		@ sp needed
 5601 0060 5DF804FB 		ldr	pc, [sp], #4
 5602              	.L452:
 5603              		.align	2
 5604              	.L451:
 5605 0064 00000000 		.word	__stack_chk_guard
 5606              		.cfi_endproc
 5607              	.LFE68:
 5608              		.size	cmp_write_fixext8, .-cmp_write_fixext8
 5609              		.section	.text.cmp_write_fixext16_marker,"ax",%progbits
 5610              		.align	1
 5611              		.p2align 4,,15
 5612              		.global	cmp_write_fixext16_marker
 5613              		.syntax unified
 5614              		.thumb
 5615              		.thumb_func
 5616              		.fpu fpv4-sp-d16
 5617              		.type	cmp_write_fixext16_marker, %function
 5618              	cmp_write_fixext16_marker:
 5619              	.LFB69:
 5620              		.loc 1 818 0
 5621              		.cfi_startproc
 5622              		@ args = 0, pretend = 0, frame = 16
 5623              		@ frame_needed = 0, uses_anonymous_args = 0
 5624 0000 00B5     		push	{lr}
 5625              		.cfi_def_cfa_offset 4
 5626              		.cfi_offset 14, -4
 5627 0002 85B0     		sub	sp, sp, #20
 5628              		.cfi_def_cfa_offset 24
 5629 0004 0190     		str	r0, [sp, #4]
 5630 0006 0B46     		mov	r3, r1
 5631 0008 8DF80330 		strb	r3, [sp, #3]
 5632              		.loc 1 818 0
 5633 000c 144B     		ldr	r3, .L458
 5634 000e 1B68     		ldr	r3, [r3]
 5635 0010 0393     		str	r3, [sp, #12]
ARM GAS  C:\Users\PCHAUT~1\AppData\Local\Temp\ccacj52E.s 			page 101


 5636              		.loc 1 819 0
 5637 0012 D821     		movs	r1, #216
 5638 0014 0198     		ldr	r0, [sp, #4]
 5639 0016 FFF7FEFF 		bl	write_type_marker
 5640 001a 0346     		mov	r3, r0
 5641 001c 83F00103 		eor	r3, r3, #1
 5642 0020 DBB2     		uxtb	r3, r3
 5643 0022 002B     		cmp	r3, #0
 5644 0024 01D0     		beq	.L454
 5645              		.loc 1 820 0
 5646 0026 0023     		movs	r3, #0
 5647 0028 0FE0     		b	.L455
 5648              	.L454:
 5649              		.loc 1 822 0
 5650 002a 019B     		ldr	r3, [sp, #4]
 5651 002c DB68     		ldr	r3, [r3, #12]
 5652 002e 0DF10301 		add	r1, sp, #3
 5653 0032 0122     		movs	r2, #1
 5654 0034 0198     		ldr	r0, [sp, #4]
 5655 0036 9847     		blx	r3
 5656              	.LVL37:
 5657 0038 0346     		mov	r3, r0
 5658 003a 002B     		cmp	r3, #0
 5659 003c 01D0     		beq	.L456
 5660              		.loc 1 823 0
 5661 003e 0123     		movs	r3, #1
 5662 0040 03E0     		b	.L455
 5663              	.L456:
 5664              		.loc 1 825 0
 5665 0042 019B     		ldr	r3, [sp, #4]
 5666 0044 0C22     		movs	r2, #12
 5667 0046 1A70     		strb	r2, [r3]
 5668              		.loc 1 826 0
 5669 0048 0023     		movs	r3, #0
 5670              	.L455:
 5671              		.loc 1 827 0
 5672 004a 1846     		mov	r0, r3
 5673 004c 044B     		ldr	r3, .L458
 5674 004e 039A     		ldr	r2, [sp, #12]
 5675 0050 1B68     		ldr	r3, [r3]
 5676 0052 9A42     		cmp	r2, r3
 5677 0054 01D0     		beq	.L457
 5678 0056 FFF7FEFF 		bl	__stack_chk_fail
 5679              	.L457:
 5680 005a 05B0     		add	sp, sp, #20
 5681              		.cfi_def_cfa_offset 4
 5682              		@ sp needed
 5683 005c 5DF804FB 		ldr	pc, [sp], #4
 5684              	.L459:
 5685              		.align	2
 5686              	.L458:
 5687 0060 00000000 		.word	__stack_chk_guard
 5688              		.cfi_endproc
 5689              	.LFE69:
 5690              		.size	cmp_write_fixext16_marker, .-cmp_write_fixext16_marker
 5691              		.section	.text.cmp_write_fixext16,"ax",%progbits
 5692              		.align	1
ARM GAS  C:\Users\PCHAUT~1\AppData\Local\Temp\ccacj52E.s 			page 102


 5693              		.p2align 4,,15
 5694              		.global	cmp_write_fixext16
 5695              		.syntax unified
 5696              		.thumb
 5697              		.thumb_func
 5698              		.fpu fpv4-sp-d16
 5699              		.type	cmp_write_fixext16, %function
 5700              	cmp_write_fixext16:
 5701              	.LFB70:
 5702              		.loc 1 829 0
 5703              		.cfi_startproc
 5704              		@ args = 0, pretend = 0, frame = 24
 5705              		@ frame_needed = 0, uses_anonymous_args = 0
 5706 0000 00B5     		push	{lr}
 5707              		.cfi_def_cfa_offset 4
 5708              		.cfi_offset 14, -4
 5709 0002 87B0     		sub	sp, sp, #28
 5710              		.cfi_def_cfa_offset 32
 5711 0004 0390     		str	r0, [sp, #12]
 5712 0006 0B46     		mov	r3, r1
 5713 0008 0192     		str	r2, [sp, #4]
 5714 000a 8DF80B30 		strb	r3, [sp, #11]
 5715              		.loc 1 829 0
 5716 000e 154B     		ldr	r3, .L465
 5717 0010 1B68     		ldr	r3, [r3]
 5718 0012 0593     		str	r3, [sp, #20]
 5719              		.loc 1 830 0
 5720 0014 9DF90B30 		ldrsb	r3, [sp, #11]
 5721 0018 1946     		mov	r1, r3
 5722 001a 0398     		ldr	r0, [sp, #12]
 5723 001c FFF7FEFF 		bl	cmp_write_fixext16_marker
 5724 0020 0346     		mov	r3, r0
 5725 0022 83F00103 		eor	r3, r3, #1
 5726 0026 DBB2     		uxtb	r3, r3
 5727 0028 002B     		cmp	r3, #0
 5728 002a 01D0     		beq	.L461
 5729              		.loc 1 831 0
 5730 002c 0023     		movs	r3, #0
 5731 002e 0EE0     		b	.L462
 5732              	.L461:
 5733              		.loc 1 833 0
 5734 0030 039B     		ldr	r3, [sp, #12]
 5735 0032 DB68     		ldr	r3, [r3, #12]
 5736 0034 1022     		movs	r2, #16
 5737 0036 0199     		ldr	r1, [sp, #4]
 5738 0038 0398     		ldr	r0, [sp, #12]
 5739 003a 9847     		blx	r3
 5740              	.LVL38:
 5741 003c 0346     		mov	r3, r0
 5742 003e 002B     		cmp	r3, #0
 5743 0040 01D0     		beq	.L463
 5744              		.loc 1 834 0
 5745 0042 0123     		movs	r3, #1
 5746 0044 03E0     		b	.L462
 5747              	.L463:
 5748              		.loc 1 836 0
 5749 0046 039B     		ldr	r3, [sp, #12]
ARM GAS  C:\Users\PCHAUT~1\AppData\Local\Temp\ccacj52E.s 			page 103


 5750 0048 0A22     		movs	r2, #10
 5751 004a 1A70     		strb	r2, [r3]
 5752              		.loc 1 837 0
 5753 004c 0023     		movs	r3, #0
 5754              	.L462:
 5755              		.loc 1 838 0
 5756 004e 1846     		mov	r0, r3
 5757 0050 044B     		ldr	r3, .L465
 5758 0052 059A     		ldr	r2, [sp, #20]
 5759 0054 1B68     		ldr	r3, [r3]
 5760 0056 9A42     		cmp	r2, r3
 5761 0058 01D0     		beq	.L464
 5762 005a FFF7FEFF 		bl	__stack_chk_fail
 5763              	.L464:
 5764 005e 07B0     		add	sp, sp, #28
 5765              		.cfi_def_cfa_offset 4
 5766              		@ sp needed
 5767 0060 5DF804FB 		ldr	pc, [sp], #4
 5768              	.L466:
 5769              		.align	2
 5770              	.L465:
 5771 0064 00000000 		.word	__stack_chk_guard
 5772              		.cfi_endproc
 5773              	.LFE70:
 5774              		.size	cmp_write_fixext16, .-cmp_write_fixext16
 5775              		.section	.text.cmp_write_ext8_marker,"ax",%progbits
 5776              		.align	1
 5777              		.p2align 4,,15
 5778              		.global	cmp_write_ext8_marker
 5779              		.syntax unified
 5780              		.thumb
 5781              		.thumb_func
 5782              		.fpu fpv4-sp-d16
 5783              		.type	cmp_write_ext8_marker, %function
 5784              	cmp_write_ext8_marker:
 5785              	.LFB71:
 5786              		.loc 1 840 0
 5787              		.cfi_startproc
 5788              		@ args = 0, pretend = 0, frame = 16
 5789              		@ frame_needed = 0, uses_anonymous_args = 0
 5790 0000 00B5     		push	{lr}
 5791              		.cfi_def_cfa_offset 4
 5792              		.cfi_offset 14, -4
 5793 0002 85B0     		sub	sp, sp, #20
 5794              		.cfi_def_cfa_offset 24
 5795 0004 0190     		str	r0, [sp, #4]
 5796 0006 0B46     		mov	r3, r1
 5797 0008 8DF80330 		strb	r3, [sp, #3]
 5798 000c 1346     		mov	r3, r2
 5799 000e 8DF80230 		strb	r3, [sp, #2]
 5800              		.loc 1 840 0
 5801 0012 1C4B     		ldr	r3, .L473
 5802 0014 1B68     		ldr	r3, [r3]
 5803 0016 0393     		str	r3, [sp, #12]
 5804              		.loc 1 841 0
 5805 0018 C721     		movs	r1, #199
 5806 001a 0198     		ldr	r0, [sp, #4]
ARM GAS  C:\Users\PCHAUT~1\AppData\Local\Temp\ccacj52E.s 			page 104


 5807 001c FFF7FEFF 		bl	write_type_marker
 5808 0020 0346     		mov	r3, r0
 5809 0022 83F00103 		eor	r3, r3, #1
 5810 0026 DBB2     		uxtb	r3, r3
 5811 0028 002B     		cmp	r3, #0
 5812 002a 01D0     		beq	.L468
 5813              		.loc 1 842 0
 5814 002c 0023     		movs	r3, #0
 5815 002e 1EE0     		b	.L469
 5816              	.L468:
 5817              		.loc 1 844 0
 5818 0030 019B     		ldr	r3, [sp, #4]
 5819 0032 DB68     		ldr	r3, [r3, #12]
 5820 0034 0DF10201 		add	r1, sp, #2
 5821 0038 0122     		movs	r2, #1
 5822 003a 0198     		ldr	r0, [sp, #4]
 5823 003c 9847     		blx	r3
 5824              	.LVL39:
 5825 003e 0346     		mov	r3, r0
 5826 0040 002B     		cmp	r3, #0
 5827 0042 04D1     		bne	.L470
 5828              		.loc 1 845 0
 5829 0044 019B     		ldr	r3, [sp, #4]
 5830 0046 0F22     		movs	r2, #15
 5831 0048 1A70     		strb	r2, [r3]
 5832              		.loc 1 846 0
 5833 004a 0023     		movs	r3, #0
 5834 004c 0FE0     		b	.L469
 5835              	.L470:
 5836              		.loc 1 849 0
 5837 004e 019B     		ldr	r3, [sp, #4]
 5838 0050 DB68     		ldr	r3, [r3, #12]
 5839 0052 0DF10301 		add	r1, sp, #3
 5840 0056 0122     		movs	r2, #1
 5841 0058 0198     		ldr	r0, [sp, #4]
 5842 005a 9847     		blx	r3
 5843              	.LVL40:
 5844 005c 0346     		mov	r3, r0
 5845 005e 002B     		cmp	r3, #0
 5846 0060 01D0     		beq	.L471
 5847              		.loc 1 850 0
 5848 0062 0123     		movs	r3, #1
 5849 0064 03E0     		b	.L469
 5850              	.L471:
 5851              		.loc 1 852 0
 5852 0066 019B     		ldr	r3, [sp, #4]
 5853 0068 0C22     		movs	r2, #12
 5854 006a 1A70     		strb	r2, [r3]
 5855              		.loc 1 853 0
 5856 006c 0023     		movs	r3, #0
 5857              	.L469:
 5858              		.loc 1 854 0
 5859 006e 1846     		mov	r0, r3
 5860 0070 044B     		ldr	r3, .L473
 5861 0072 039A     		ldr	r2, [sp, #12]
 5862 0074 1B68     		ldr	r3, [r3]
 5863 0076 9A42     		cmp	r2, r3
ARM GAS  C:\Users\PCHAUT~1\AppData\Local\Temp\ccacj52E.s 			page 105


 5864 0078 01D0     		beq	.L472
 5865 007a FFF7FEFF 		bl	__stack_chk_fail
 5866              	.L472:
 5867 007e 05B0     		add	sp, sp, #20
 5868              		.cfi_def_cfa_offset 4
 5869              		@ sp needed
 5870 0080 5DF804FB 		ldr	pc, [sp], #4
 5871              	.L474:
 5872              		.align	2
 5873              	.L473:
 5874 0084 00000000 		.word	__stack_chk_guard
 5875              		.cfi_endproc
 5876              	.LFE71:
 5877              		.size	cmp_write_ext8_marker, .-cmp_write_ext8_marker
 5878              		.section	.text.cmp_write_ext8,"ax",%progbits
 5879              		.align	1
 5880              		.p2align 4,,15
 5881              		.global	cmp_write_ext8
 5882              		.syntax unified
 5883              		.thumb
 5884              		.thumb_func
 5885              		.fpu fpv4-sp-d16
 5886              		.type	cmp_write_ext8, %function
 5887              	cmp_write_ext8:
 5888              	.LFB72:
 5889              		.loc 1 856 0
 5890              		.cfi_startproc
 5891              		@ args = 0, pretend = 0, frame = 24
 5892              		@ frame_needed = 0, uses_anonymous_args = 0
 5893 0000 00B5     		push	{lr}
 5894              		.cfi_def_cfa_offset 4
 5895              		.cfi_offset 14, -4
 5896 0002 87B0     		sub	sp, sp, #28
 5897              		.cfi_def_cfa_offset 32
 5898 0004 0390     		str	r0, [sp, #12]
 5899 0006 0193     		str	r3, [sp, #4]
 5900 0008 0B46     		mov	r3, r1
 5901 000a 8DF80B30 		strb	r3, [sp, #11]
 5902 000e 1346     		mov	r3, r2
 5903 0010 8DF80A30 		strb	r3, [sp, #10]
 5904              		.loc 1 856 0
 5905 0014 164B     		ldr	r3, .L480
 5906 0016 1B68     		ldr	r3, [r3]
 5907 0018 0593     		str	r3, [sp, #20]
 5908              		.loc 1 857 0
 5909 001a 9DF80A20 		ldrb	r2, [sp, #10]	@ zero_extendqisi2
 5910 001e 9DF90B30 		ldrsb	r3, [sp, #11]
 5911 0022 1946     		mov	r1, r3
 5912 0024 0398     		ldr	r0, [sp, #12]
 5913 0026 FFF7FEFF 		bl	cmp_write_ext8_marker
 5914 002a 0346     		mov	r3, r0
 5915 002c 83F00103 		eor	r3, r3, #1
 5916 0030 DBB2     		uxtb	r3, r3
 5917 0032 002B     		cmp	r3, #0
 5918 0034 01D0     		beq	.L476
 5919              		.loc 1 858 0
 5920 0036 0023     		movs	r3, #0
ARM GAS  C:\Users\PCHAUT~1\AppData\Local\Temp\ccacj52E.s 			page 106


 5921 0038 0FE0     		b	.L477
 5922              	.L476:
 5923              		.loc 1 860 0
 5924 003a 039B     		ldr	r3, [sp, #12]
 5925 003c DB68     		ldr	r3, [r3, #12]
 5926 003e 9DF80A20 		ldrb	r2, [sp, #10]	@ zero_extendqisi2
 5927 0042 0199     		ldr	r1, [sp, #4]
 5928 0044 0398     		ldr	r0, [sp, #12]
 5929 0046 9847     		blx	r3
 5930              	.LVL41:
 5931 0048 0346     		mov	r3, r0
 5932 004a 002B     		cmp	r3, #0
 5933 004c 01D0     		beq	.L478
 5934              		.loc 1 861 0
 5935 004e 0123     		movs	r3, #1
 5936 0050 03E0     		b	.L477
 5937              	.L478:
 5938              		.loc 1 863 0
 5939 0052 039B     		ldr	r3, [sp, #12]
 5940 0054 0A22     		movs	r2, #10
 5941 0056 1A70     		strb	r2, [r3]
 5942              		.loc 1 864 0
 5943 0058 0023     		movs	r3, #0
 5944              	.L477:
 5945              		.loc 1 865 0
 5946 005a 1846     		mov	r0, r3
 5947 005c 044B     		ldr	r3, .L480
 5948 005e 059A     		ldr	r2, [sp, #20]
 5949 0060 1B68     		ldr	r3, [r3]
 5950 0062 9A42     		cmp	r2, r3
 5951 0064 01D0     		beq	.L479
 5952 0066 FFF7FEFF 		bl	__stack_chk_fail
 5953              	.L479:
 5954 006a 07B0     		add	sp, sp, #28
 5955              		.cfi_def_cfa_offset 4
 5956              		@ sp needed
 5957 006c 5DF804FB 		ldr	pc, [sp], #4
 5958              	.L481:
 5959              		.align	2
 5960              	.L480:
 5961 0070 00000000 		.word	__stack_chk_guard
 5962              		.cfi_endproc
 5963              	.LFE72:
 5964              		.size	cmp_write_ext8, .-cmp_write_ext8
 5965              		.section	.text.cmp_write_ext16_marker,"ax",%progbits
 5966              		.align	1
 5967              		.p2align 4,,15
 5968              		.global	cmp_write_ext16_marker
 5969              		.syntax unified
 5970              		.thumb
 5971              		.thumb_func
 5972              		.fpu fpv4-sp-d16
 5973              		.type	cmp_write_ext16_marker, %function
 5974              	cmp_write_ext16_marker:
 5975              	.LFB73:
 5976              		.loc 1 867 0
 5977              		.cfi_startproc
ARM GAS  C:\Users\PCHAUT~1\AppData\Local\Temp\ccacj52E.s 			page 107


 5978              		@ args = 0, pretend = 0, frame = 16
 5979              		@ frame_needed = 0, uses_anonymous_args = 0
 5980 0000 00B5     		push	{lr}
 5981              		.cfi_def_cfa_offset 4
 5982              		.cfi_offset 14, -4
 5983 0002 85B0     		sub	sp, sp, #20
 5984              		.cfi_def_cfa_offset 24
 5985 0004 0190     		str	r0, [sp, #4]
 5986 0006 0B46     		mov	r3, r1
 5987 0008 8DF80330 		strb	r3, [sp, #3]
 5988 000c 1346     		mov	r3, r2	@ movhi
 5989 000e ADF80030 		strh	r3, [sp]	@ movhi
 5990              		.loc 1 867 0
 5991 0012 204B     		ldr	r3, .L488
 5992 0014 1B68     		ldr	r3, [r3]
 5993 0016 0393     		str	r3, [sp, #12]
 5994              		.loc 1 868 0
 5995 0018 C821     		movs	r1, #200
 5996 001a 0198     		ldr	r0, [sp, #4]
 5997 001c FFF7FEFF 		bl	write_type_marker
 5998 0020 0346     		mov	r3, r0
 5999 0022 83F00103 		eor	r3, r3, #1
 6000 0026 DBB2     		uxtb	r3, r3
 6001 0028 002B     		cmp	r3, #0
 6002 002a 01D0     		beq	.L483
 6003              		.loc 1 869 0
 6004 002c 0023     		movs	r3, #0
 6005 002e 25E0     		b	.L484
 6006              	.L483:
 6007              		.loc 1 871 0
 6008 0030 BDF80030 		ldrh	r3, [sp]
 6009 0034 1846     		mov	r0, r3
 6010 0036 FFF7FEFF 		bl	be16
 6011 003a 0346     		mov	r3, r0
 6012 003c ADF80030 		strh	r3, [sp]	@ movhi
 6013              		.loc 1 873 0
 6014 0040 019B     		ldr	r3, [sp, #4]
 6015 0042 DB68     		ldr	r3, [r3, #12]
 6016 0044 6946     		mov	r1, sp
 6017 0046 0222     		movs	r2, #2
 6018 0048 0198     		ldr	r0, [sp, #4]
 6019 004a 9847     		blx	r3
 6020              	.LVL42:
 6021 004c 0346     		mov	r3, r0
 6022 004e 002B     		cmp	r3, #0
 6023 0050 04D1     		bne	.L485
 6024              		.loc 1 874 0
 6025 0052 019B     		ldr	r3, [sp, #4]
 6026 0054 0F22     		movs	r2, #15
 6027 0056 1A70     		strb	r2, [r3]
 6028              		.loc 1 875 0
 6029 0058 0023     		movs	r3, #0
 6030 005a 0FE0     		b	.L484
 6031              	.L485:
 6032              		.loc 1 878 0
 6033 005c 019B     		ldr	r3, [sp, #4]
 6034 005e DB68     		ldr	r3, [r3, #12]
ARM GAS  C:\Users\PCHAUT~1\AppData\Local\Temp\ccacj52E.s 			page 108


 6035 0060 0DF10301 		add	r1, sp, #3
 6036 0064 0122     		movs	r2, #1
 6037 0066 0198     		ldr	r0, [sp, #4]
 6038 0068 9847     		blx	r3
 6039              	.LVL43:
 6040 006a 0346     		mov	r3, r0
 6041 006c 002B     		cmp	r3, #0
 6042 006e 01D0     		beq	.L486
 6043              		.loc 1 879 0
 6044 0070 0123     		movs	r3, #1
 6045 0072 03E0     		b	.L484
 6046              	.L486:
 6047              		.loc 1 881 0
 6048 0074 019B     		ldr	r3, [sp, #4]
 6049 0076 0C22     		movs	r2, #12
 6050 0078 1A70     		strb	r2, [r3]
 6051              		.loc 1 882 0
 6052 007a 0023     		movs	r3, #0
 6053              	.L484:
 6054              		.loc 1 883 0
 6055 007c 1846     		mov	r0, r3
 6056 007e 054B     		ldr	r3, .L488
 6057 0080 039A     		ldr	r2, [sp, #12]
 6058 0082 1B68     		ldr	r3, [r3]
 6059 0084 9A42     		cmp	r2, r3
 6060 0086 01D0     		beq	.L487
 6061 0088 FFF7FEFF 		bl	__stack_chk_fail
 6062              	.L487:
 6063 008c 05B0     		add	sp, sp, #20
 6064              		.cfi_def_cfa_offset 4
 6065              		@ sp needed
 6066 008e 5DF804FB 		ldr	pc, [sp], #4
 6067              	.L489:
 6068 0092 00BF     		.align	2
 6069              	.L488:
 6070 0094 00000000 		.word	__stack_chk_guard
 6071              		.cfi_endproc
 6072              	.LFE73:
 6073              		.size	cmp_write_ext16_marker, .-cmp_write_ext16_marker
 6074              		.section	.text.cmp_write_ext16,"ax",%progbits
 6075              		.align	1
 6076              		.p2align 4,,15
 6077              		.global	cmp_write_ext16
 6078              		.syntax unified
 6079              		.thumb
 6080              		.thumb_func
 6081              		.fpu fpv4-sp-d16
 6082              		.type	cmp_write_ext16, %function
 6083              	cmp_write_ext16:
 6084              	.LFB74:
 6085              		.loc 1 885 0
 6086              		.cfi_startproc
 6087              		@ args = 0, pretend = 0, frame = 24
 6088              		@ frame_needed = 0, uses_anonymous_args = 0
 6089 0000 00B5     		push	{lr}
 6090              		.cfi_def_cfa_offset 4
 6091              		.cfi_offset 14, -4
ARM GAS  C:\Users\PCHAUT~1\AppData\Local\Temp\ccacj52E.s 			page 109


 6092 0002 87B0     		sub	sp, sp, #28
 6093              		.cfi_def_cfa_offset 32
 6094 0004 0390     		str	r0, [sp, #12]
 6095 0006 0193     		str	r3, [sp, #4]
 6096 0008 0B46     		mov	r3, r1
 6097 000a 8DF80B30 		strb	r3, [sp, #11]
 6098 000e 1346     		mov	r3, r2	@ movhi
 6099 0010 ADF80830 		strh	r3, [sp, #8]	@ movhi
 6100              		.loc 1 885 0
 6101 0014 164B     		ldr	r3, .L495
 6102 0016 1B68     		ldr	r3, [r3]
 6103 0018 0593     		str	r3, [sp, #20]
 6104              		.loc 1 886 0
 6105 001a BDF80820 		ldrh	r2, [sp, #8]
 6106 001e 9DF90B30 		ldrsb	r3, [sp, #11]
 6107 0022 1946     		mov	r1, r3
 6108 0024 0398     		ldr	r0, [sp, #12]
 6109 0026 FFF7FEFF 		bl	cmp_write_ext16_marker
 6110 002a 0346     		mov	r3, r0
 6111 002c 83F00103 		eor	r3, r3, #1
 6112 0030 DBB2     		uxtb	r3, r3
 6113 0032 002B     		cmp	r3, #0
 6114 0034 01D0     		beq	.L491
 6115              		.loc 1 887 0
 6116 0036 0023     		movs	r3, #0
 6117 0038 0FE0     		b	.L492
 6118              	.L491:
 6119              		.loc 1 889 0
 6120 003a 039B     		ldr	r3, [sp, #12]
 6121 003c DB68     		ldr	r3, [r3, #12]
 6122 003e BDF80820 		ldrh	r2, [sp, #8]
 6123 0042 0199     		ldr	r1, [sp, #4]
 6124 0044 0398     		ldr	r0, [sp, #12]
 6125 0046 9847     		blx	r3
 6126              	.LVL44:
 6127 0048 0346     		mov	r3, r0
 6128 004a 002B     		cmp	r3, #0
 6129 004c 01D0     		beq	.L493
 6130              		.loc 1 890 0
 6131 004e 0123     		movs	r3, #1
 6132 0050 03E0     		b	.L492
 6133              	.L493:
 6134              		.loc 1 892 0
 6135 0052 039B     		ldr	r3, [sp, #12]
 6136 0054 0A22     		movs	r2, #10
 6137 0056 1A70     		strb	r2, [r3]
 6138              		.loc 1 893 0
 6139 0058 0023     		movs	r3, #0
 6140              	.L492:
 6141              		.loc 1 894 0
 6142 005a 1846     		mov	r0, r3
 6143 005c 044B     		ldr	r3, .L495
 6144 005e 059A     		ldr	r2, [sp, #20]
 6145 0060 1B68     		ldr	r3, [r3]
 6146 0062 9A42     		cmp	r2, r3
 6147 0064 01D0     		beq	.L494
 6148 0066 FFF7FEFF 		bl	__stack_chk_fail
ARM GAS  C:\Users\PCHAUT~1\AppData\Local\Temp\ccacj52E.s 			page 110


 6149              	.L494:
 6150 006a 07B0     		add	sp, sp, #28
 6151              		.cfi_def_cfa_offset 4
 6152              		@ sp needed
 6153 006c 5DF804FB 		ldr	pc, [sp], #4
 6154              	.L496:
 6155              		.align	2
 6156              	.L495:
 6157 0070 00000000 		.word	__stack_chk_guard
 6158              		.cfi_endproc
 6159              	.LFE74:
 6160              		.size	cmp_write_ext16, .-cmp_write_ext16
 6161              		.section	.text.cmp_write_ext32_marker,"ax",%progbits
 6162              		.align	1
 6163              		.p2align 4,,15
 6164              		.global	cmp_write_ext32_marker
 6165              		.syntax unified
 6166              		.thumb
 6167              		.thumb_func
 6168              		.fpu fpv4-sp-d16
 6169              		.type	cmp_write_ext32_marker, %function
 6170              	cmp_write_ext32_marker:
 6171              	.LFB75:
 6172              		.loc 1 896 0
 6173              		.cfi_startproc
 6174              		@ args = 0, pretend = 0, frame = 24
 6175              		@ frame_needed = 0, uses_anonymous_args = 0
 6176 0000 00B5     		push	{lr}
 6177              		.cfi_def_cfa_offset 4
 6178              		.cfi_offset 14, -4
 6179 0002 87B0     		sub	sp, sp, #28
 6180              		.cfi_def_cfa_offset 32
 6181 0004 0390     		str	r0, [sp, #12]
 6182 0006 0B46     		mov	r3, r1
 6183 0008 0192     		str	r2, [sp, #4]
 6184 000a 8DF80B30 		strb	r3, [sp, #11]
 6185              		.loc 1 896 0
 6186 000e 1F4B     		ldr	r3, .L503
 6187 0010 1B68     		ldr	r3, [r3]
 6188 0012 0593     		str	r3, [sp, #20]
 6189              		.loc 1 897 0
 6190 0014 C921     		movs	r1, #201
 6191 0016 0398     		ldr	r0, [sp, #12]
 6192 0018 FFF7FEFF 		bl	write_type_marker
 6193 001c 0346     		mov	r3, r0
 6194 001e 83F00103 		eor	r3, r3, #1
 6195 0022 DBB2     		uxtb	r3, r3
 6196 0024 002B     		cmp	r3, #0
 6197 0026 01D0     		beq	.L498
 6198              		.loc 1 898 0
 6199 0028 0023     		movs	r3, #0
 6200 002a 23E0     		b	.L499
 6201              	.L498:
 6202              		.loc 1 900 0
 6203 002c 019B     		ldr	r3, [sp, #4]
 6204 002e 1846     		mov	r0, r3
 6205 0030 FFF7FEFF 		bl	be32
ARM GAS  C:\Users\PCHAUT~1\AppData\Local\Temp\ccacj52E.s 			page 111


 6206 0034 0346     		mov	r3, r0
 6207 0036 0193     		str	r3, [sp, #4]
 6208              		.loc 1 902 0
 6209 0038 039B     		ldr	r3, [sp, #12]
 6210 003a DB68     		ldr	r3, [r3, #12]
 6211 003c 01A9     		add	r1, sp, #4
 6212 003e 0422     		movs	r2, #4
 6213 0040 0398     		ldr	r0, [sp, #12]
 6214 0042 9847     		blx	r3
 6215              	.LVL45:
 6216 0044 0346     		mov	r3, r0
 6217 0046 002B     		cmp	r3, #0
 6218 0048 04D1     		bne	.L500
 6219              		.loc 1 903 0
 6220 004a 039B     		ldr	r3, [sp, #12]
 6221 004c 0F22     		movs	r2, #15
 6222 004e 1A70     		strb	r2, [r3]
 6223              		.loc 1 904 0
 6224 0050 0023     		movs	r3, #0
 6225 0052 0FE0     		b	.L499
 6226              	.L500:
 6227              		.loc 1 907 0
 6228 0054 039B     		ldr	r3, [sp, #12]
 6229 0056 DB68     		ldr	r3, [r3, #12]
 6230 0058 0DF10B01 		add	r1, sp, #11
 6231 005c 0122     		movs	r2, #1
 6232 005e 0398     		ldr	r0, [sp, #12]
 6233 0060 9847     		blx	r3
 6234              	.LVL46:
 6235 0062 0346     		mov	r3, r0
 6236 0064 002B     		cmp	r3, #0
 6237 0066 01D0     		beq	.L501
 6238              		.loc 1 908 0
 6239 0068 0123     		movs	r3, #1
 6240 006a 03E0     		b	.L499
 6241              	.L501:
 6242              		.loc 1 910 0
 6243 006c 039B     		ldr	r3, [sp, #12]
 6244 006e 0C22     		movs	r2, #12
 6245 0070 1A70     		strb	r2, [r3]
 6246              		.loc 1 911 0
 6247 0072 0023     		movs	r3, #0
 6248              	.L499:
 6249              		.loc 1 912 0
 6250 0074 1846     		mov	r0, r3
 6251 0076 054B     		ldr	r3, .L503
 6252 0078 059A     		ldr	r2, [sp, #20]
 6253 007a 1B68     		ldr	r3, [r3]
 6254 007c 9A42     		cmp	r2, r3
 6255 007e 01D0     		beq	.L502
 6256 0080 FFF7FEFF 		bl	__stack_chk_fail
 6257              	.L502:
 6258 0084 07B0     		add	sp, sp, #28
 6259              		.cfi_def_cfa_offset 4
 6260              		@ sp needed
 6261 0086 5DF804FB 		ldr	pc, [sp], #4
 6262              	.L504:
ARM GAS  C:\Users\PCHAUT~1\AppData\Local\Temp\ccacj52E.s 			page 112


 6263 008a 00BF     		.align	2
 6264              	.L503:
 6265 008c 00000000 		.word	__stack_chk_guard
 6266              		.cfi_endproc
 6267              	.LFE75:
 6268              		.size	cmp_write_ext32_marker, .-cmp_write_ext32_marker
 6269              		.section	.text.cmp_write_ext32,"ax",%progbits
 6270              		.align	1
 6271              		.p2align 4,,15
 6272              		.global	cmp_write_ext32
 6273              		.syntax unified
 6274              		.thumb
 6275              		.thumb_func
 6276              		.fpu fpv4-sp-d16
 6277              		.type	cmp_write_ext32, %function
 6278              	cmp_write_ext32:
 6279              	.LFB76:
 6280              		.loc 1 914 0
 6281              		.cfi_startproc
 6282              		@ args = 0, pretend = 0, frame = 24
 6283              		@ frame_needed = 0, uses_anonymous_args = 0
 6284 0000 00B5     		push	{lr}
 6285              		.cfi_def_cfa_offset 4
 6286              		.cfi_offset 14, -4
 6287 0002 87B0     		sub	sp, sp, #28
 6288              		.cfi_def_cfa_offset 32
 6289 0004 0390     		str	r0, [sp, #12]
 6290 0006 0192     		str	r2, [sp, #4]
 6291 0008 0093     		str	r3, [sp]
 6292 000a 0B46     		mov	r3, r1
 6293 000c 8DF80B30 		strb	r3, [sp, #11]
 6294              		.loc 1 914 0
 6295 0010 154B     		ldr	r3, .L510
 6296 0012 1B68     		ldr	r3, [r3]
 6297 0014 0593     		str	r3, [sp, #20]
 6298              		.loc 1 915 0
 6299 0016 9DF90B30 		ldrsb	r3, [sp, #11]
 6300 001a 019A     		ldr	r2, [sp, #4]
 6301 001c 1946     		mov	r1, r3
 6302 001e 0398     		ldr	r0, [sp, #12]
 6303 0020 FFF7FEFF 		bl	cmp_write_ext32_marker
 6304 0024 0346     		mov	r3, r0
 6305 0026 83F00103 		eor	r3, r3, #1
 6306 002a DBB2     		uxtb	r3, r3
 6307 002c 002B     		cmp	r3, #0
 6308 002e 01D0     		beq	.L506
 6309              		.loc 1 916 0
 6310 0030 0023     		movs	r3, #0
 6311 0032 0EE0     		b	.L507
 6312              	.L506:
 6313              		.loc 1 918 0
 6314 0034 039B     		ldr	r3, [sp, #12]
 6315 0036 DB68     		ldr	r3, [r3, #12]
 6316 0038 019A     		ldr	r2, [sp, #4]
 6317 003a 0099     		ldr	r1, [sp]
 6318 003c 0398     		ldr	r0, [sp, #12]
 6319 003e 9847     		blx	r3
ARM GAS  C:\Users\PCHAUT~1\AppData\Local\Temp\ccacj52E.s 			page 113


 6320              	.LVL47:
 6321 0040 0346     		mov	r3, r0
 6322 0042 002B     		cmp	r3, #0
 6323 0044 01D0     		beq	.L508
 6324              		.loc 1 919 0
 6325 0046 0123     		movs	r3, #1
 6326 0048 03E0     		b	.L507
 6327              	.L508:
 6328              		.loc 1 921 0
 6329 004a 039B     		ldr	r3, [sp, #12]
 6330 004c 0A22     		movs	r2, #10
 6331 004e 1A70     		strb	r2, [r3]
 6332              		.loc 1 922 0
 6333 0050 0023     		movs	r3, #0
 6334              	.L507:
 6335              		.loc 1 923 0
 6336 0052 1846     		mov	r0, r3
 6337 0054 044B     		ldr	r3, .L510
 6338 0056 059A     		ldr	r2, [sp, #20]
 6339 0058 1B68     		ldr	r3, [r3]
 6340 005a 9A42     		cmp	r2, r3
 6341 005c 01D0     		beq	.L509
 6342 005e FFF7FEFF 		bl	__stack_chk_fail
 6343              	.L509:
 6344 0062 07B0     		add	sp, sp, #28
 6345              		.cfi_def_cfa_offset 4
 6346              		@ sp needed
 6347 0064 5DF804FB 		ldr	pc, [sp], #4
 6348              	.L511:
 6349              		.align	2
 6350              	.L510:
 6351 0068 00000000 		.word	__stack_chk_guard
 6352              		.cfi_endproc
 6353              	.LFE76:
 6354              		.size	cmp_write_ext32, .-cmp_write_ext32
 6355              		.section	.text.cmp_write_ext_marker,"ax",%progbits
 6356              		.align	1
 6357              		.p2align 4,,15
 6358              		.global	cmp_write_ext_marker
 6359              		.syntax unified
 6360              		.thumb
 6361              		.thumb_func
 6362              		.fpu fpv4-sp-d16
 6363              		.type	cmp_write_ext_marker, %function
 6364              	cmp_write_ext_marker:
 6365              	.LFB77:
 6366              		.loc 1 925 0
 6367              		.cfi_startproc
 6368              		@ args = 0, pretend = 0, frame = 24
 6369              		@ frame_needed = 0, uses_anonymous_args = 0
 6370 0000 00B5     		push	{lr}
 6371              		.cfi_def_cfa_offset 4
 6372              		.cfi_offset 14, -4
 6373 0002 87B0     		sub	sp, sp, #28
 6374              		.cfi_def_cfa_offset 32
 6375 0004 0390     		str	r0, [sp, #12]
 6376 0006 0B46     		mov	r3, r1
ARM GAS  C:\Users\PCHAUT~1\AppData\Local\Temp\ccacj52E.s 			page 114


 6377 0008 0192     		str	r2, [sp, #4]
 6378 000a 8DF80B30 		strb	r3, [sp, #11]
 6379              		.loc 1 925 0
 6380 000e 344B     		ldr	r3, .L522
 6381 0010 1B68     		ldr	r3, [r3]
 6382 0012 0593     		str	r3, [sp, #20]
 6383              		.loc 1 926 0
 6384 0014 019B     		ldr	r3, [sp, #4]
 6385 0016 012B     		cmp	r3, #1
 6386 0018 07D1     		bne	.L513
 6387              		.loc 1 927 0
 6388 001a 9DF90B30 		ldrsb	r3, [sp, #11]
 6389 001e 1946     		mov	r1, r3
 6390 0020 0398     		ldr	r0, [sp, #12]
 6391 0022 FFF7FEFF 		bl	cmp_write_fixext1_marker
 6392 0026 0346     		mov	r3, r0
 6393 0028 4EE0     		b	.L514
 6394              	.L513:
 6395              		.loc 1 928 0
 6396 002a 019B     		ldr	r3, [sp, #4]
 6397 002c 022B     		cmp	r3, #2
 6398 002e 07D1     		bne	.L515
 6399              		.loc 1 929 0
 6400 0030 9DF90B30 		ldrsb	r3, [sp, #11]
 6401 0034 1946     		mov	r1, r3
 6402 0036 0398     		ldr	r0, [sp, #12]
 6403 0038 FFF7FEFF 		bl	cmp_write_fixext2_marker
 6404 003c 0346     		mov	r3, r0
 6405 003e 43E0     		b	.L514
 6406              	.L515:
 6407              		.loc 1 930 0
 6408 0040 019B     		ldr	r3, [sp, #4]
 6409 0042 042B     		cmp	r3, #4
 6410 0044 07D1     		bne	.L516
 6411              		.loc 1 931 0
 6412 0046 9DF90B30 		ldrsb	r3, [sp, #11]
 6413 004a 1946     		mov	r1, r3
 6414 004c 0398     		ldr	r0, [sp, #12]
 6415 004e FFF7FEFF 		bl	cmp_write_fixext4_marker
 6416 0052 0346     		mov	r3, r0
 6417 0054 38E0     		b	.L514
 6418              	.L516:
 6419              		.loc 1 932 0
 6420 0056 019B     		ldr	r3, [sp, #4]
 6421 0058 082B     		cmp	r3, #8
 6422 005a 07D1     		bne	.L517
 6423              		.loc 1 933 0
 6424 005c 9DF90B30 		ldrsb	r3, [sp, #11]
 6425 0060 1946     		mov	r1, r3
 6426 0062 0398     		ldr	r0, [sp, #12]
 6427 0064 FFF7FEFF 		bl	cmp_write_fixext8_marker
 6428 0068 0346     		mov	r3, r0
 6429 006a 2DE0     		b	.L514
 6430              	.L517:
 6431              		.loc 1 934 0
 6432 006c 019B     		ldr	r3, [sp, #4]
 6433 006e 102B     		cmp	r3, #16
ARM GAS  C:\Users\PCHAUT~1\AppData\Local\Temp\ccacj52E.s 			page 115


 6434 0070 07D1     		bne	.L518
 6435              		.loc 1 935 0
 6436 0072 9DF90B30 		ldrsb	r3, [sp, #11]
 6437 0076 1946     		mov	r1, r3
 6438 0078 0398     		ldr	r0, [sp, #12]
 6439 007a FFF7FEFF 		bl	cmp_write_fixext16_marker
 6440 007e 0346     		mov	r3, r0
 6441 0080 22E0     		b	.L514
 6442              	.L518:
 6443              		.loc 1 936 0
 6444 0082 019B     		ldr	r3, [sp, #4]
 6445 0084 FF2B     		cmp	r3, #255
 6446 0086 09D8     		bhi	.L519
 6447              		.loc 1 937 0
 6448 0088 019B     		ldr	r3, [sp, #4]
 6449 008a DAB2     		uxtb	r2, r3
 6450 008c 9DF90B30 		ldrsb	r3, [sp, #11]
 6451 0090 1946     		mov	r1, r3
 6452 0092 0398     		ldr	r0, [sp, #12]
 6453 0094 FFF7FEFF 		bl	cmp_write_ext8_marker
 6454 0098 0346     		mov	r3, r0
 6455 009a 15E0     		b	.L514
 6456              	.L519:
 6457              		.loc 1 938 0
 6458 009c 019B     		ldr	r3, [sp, #4]
 6459 009e B3F5803F 		cmp	r3, #65536
 6460 00a2 09D2     		bcs	.L520
 6461              		.loc 1 939 0
 6462 00a4 019B     		ldr	r3, [sp, #4]
 6463 00a6 9AB2     		uxth	r2, r3
 6464 00a8 9DF90B30 		ldrsb	r3, [sp, #11]
 6465 00ac 1946     		mov	r1, r3
 6466 00ae 0398     		ldr	r0, [sp, #12]
 6467 00b0 FFF7FEFF 		bl	cmp_write_ext16_marker
 6468 00b4 0346     		mov	r3, r0
 6469 00b6 07E0     		b	.L514
 6470              	.L520:
 6471              		.loc 1 941 0
 6472 00b8 9DF90B30 		ldrsb	r3, [sp, #11]
 6473 00bc 019A     		ldr	r2, [sp, #4]
 6474 00be 1946     		mov	r1, r3
 6475 00c0 0398     		ldr	r0, [sp, #12]
 6476 00c2 FFF7FEFF 		bl	cmp_write_ext32_marker
 6477 00c6 0346     		mov	r3, r0
 6478              	.L514:
 6479              		.loc 1 942 0
 6480 00c8 1846     		mov	r0, r3
 6481 00ca 054B     		ldr	r3, .L522
 6482 00cc 059A     		ldr	r2, [sp, #20]
 6483 00ce 1B68     		ldr	r3, [r3]
 6484 00d0 9A42     		cmp	r2, r3
 6485 00d2 01D0     		beq	.L521
 6486 00d4 FFF7FEFF 		bl	__stack_chk_fail
 6487              	.L521:
 6488 00d8 07B0     		add	sp, sp, #28
 6489              		.cfi_def_cfa_offset 4
 6490              		@ sp needed
ARM GAS  C:\Users\PCHAUT~1\AppData\Local\Temp\ccacj52E.s 			page 116


 6491 00da 5DF804FB 		ldr	pc, [sp], #4
 6492              	.L523:
 6493 00de 00BF     		.align	2
 6494              	.L522:
 6495 00e0 00000000 		.word	__stack_chk_guard
 6496              		.cfi_endproc
 6497              	.LFE77:
 6498              		.size	cmp_write_ext_marker, .-cmp_write_ext_marker
 6499              		.section	.text.cmp_write_ext,"ax",%progbits
 6500              		.align	1
 6501              		.p2align 4,,15
 6502              		.global	cmp_write_ext
 6503              		.syntax unified
 6504              		.thumb
 6505              		.thumb_func
 6506              		.fpu fpv4-sp-d16
 6507              		.type	cmp_write_ext, %function
 6508              	cmp_write_ext:
 6509              	.LFB78:
 6510              		.loc 1 944 0
 6511              		.cfi_startproc
 6512              		@ args = 0, pretend = 0, frame = 24
 6513              		@ frame_needed = 0, uses_anonymous_args = 0
 6514 0000 00B5     		push	{lr}
 6515              		.cfi_def_cfa_offset 4
 6516              		.cfi_offset 14, -4
 6517 0002 87B0     		sub	sp, sp, #28
 6518              		.cfi_def_cfa_offset 32
 6519 0004 0390     		str	r0, [sp, #12]
 6520 0006 0192     		str	r2, [sp, #4]
 6521 0008 0093     		str	r3, [sp]
 6522 000a 0B46     		mov	r3, r1
 6523 000c 8DF80B30 		strb	r3, [sp, #11]
 6524              		.loc 1 944 0
 6525 0010 364B     		ldr	r3, .L534
 6526 0012 1B68     		ldr	r3, [r3]
 6527 0014 0593     		str	r3, [sp, #20]
 6528              		.loc 1 945 0
 6529 0016 019B     		ldr	r3, [sp, #4]
 6530 0018 012B     		cmp	r3, #1
 6531 001a 08D1     		bne	.L525
 6532              		.loc 1 946 0
 6533 001c 9DF90B30 		ldrsb	r3, [sp, #11]
 6534 0020 009A     		ldr	r2, [sp]
 6535 0022 1946     		mov	r1, r3
 6536 0024 0398     		ldr	r0, [sp, #12]
