ARM GAS  C:\Users\PCHAUT~1\AppData\Local\Temp\ccacj52E.s 			page 1


   1              		.cpu cortex-m4
   2              		.eabi_attribute 27, 1
   3              		.eabi_attribute 28, 1
   4              		.eabi_attribute 20, 1
   5              		.eabi_attribute 21, 1
   6              		.eabi_attribute 23, 3
   7              		.eabi_attribute 24, 1
   8              		.eabi_attribute 25, 1
   9              		.eabi_attribute 26, 1
  10              		.eabi_attribute 30, 6
  11              		.eabi_attribute 34, 1
  12              		.eabi_attribute 18, 4
  13              		.file	"cmp.c"
  14              		.text
  15              	.Ltext0:
  16              		.cfi_sections	.debug_frame
  17              		.section	.rodata.version,"a",%progbits
  18              		.align	2
  19              		.type	version, %object
  20              		.size	version, 4
  21              	version:
  22 0000 0A000000 		.word	10
  23              		.section	.rodata.mp_version,"a",%progbits
  24              		.align	2
  25              		.type	mp_version, %object
  26              		.size	mp_version, 4
  27              	mp_version:
  28 0000 05000000 		.word	5
  29              		.global	cmp_error_messages
  30              		.section	.rodata
  31              		.align	2
  32              	.LC0:
  33 0000 4E6F2045 		.ascii	"No Error\000"
  33      72726F72 
  33      00
  34 0009 000000   		.align	2
  35              	.LC1:
  36 000c 53706563 		.ascii	"Specified string data length is too long (> 0xFFFFF"
  36      69666965 
  36      64207374 
  36      72696E67 
  36      20646174 
  37 003f 46464629 		.ascii	"FFF)\000"
  37      00
  38              		.align	2
  39              	.LC2:
  40 0044 53706563 		.ascii	"Specified binary data length is too long (> 0xFFFFF"
  40      69666965 
  40      64206269 
  40      6E617279 
  40      20646174 
  41 0077 46464629 		.ascii	"FFF)\000"
  41      00
  42              		.align	2
  43              	.LC3:
  44 007c 53706563 		.ascii	"Specified array length is too long (> 0xFFFFFFFF)\000"
  44      69666965 
ARM GAS  C:\Users\PCHAUT~1\AppData\Local\Temp\ccacj52E.s 			page 2


  44      64206172 
  44      72617920 
  44      6C656E67 
  45 00ae 0000     		.align	2
  46              	.LC4:
  47 00b0 53706563 		.ascii	"Specified map length is too long (> 0xFFFFFFFF)\000"
  47      69666965 
  47      64206D61 
  47      70206C65 
  47      6E677468 
  48              		.align	2
  49              	.LC5:
  50 00e0 496E7075 		.ascii	"Input value is too large\000"
  50      74207661 
  50      6C756520 
  50      69732074 
  50      6F6F206C 
  51 00f9 000000   		.align	2
  52              	.LC6:
  53 00fc 4572726F 		.ascii	"Error writing fixed value\000"
  53      72207772 
  53      6974696E 
  53      67206669 
  53      78656420 
  54 0116 0000     		.align	2
  55              	.LC7:
  56 0118 4572726F 		.ascii	"Error reading type marker\000"
  56      72207265 
  56      6164696E 
  56      67207479 
  56      7065206D 
  57 0132 0000     		.align	2
  58              	.LC8:
  59 0134 4572726F 		.ascii	"Error writing type marker\000"
  59      72207772 
  59      6974696E 
  59      67207479 
  59      7065206D 
  60 014e 0000     		.align	2
  61              	.LC9:
  62 0150 4572726F 		.ascii	"Error reading packed data\000"
  62      72207265 
  62      6164696E 
  62      67207061 
  62      636B6564 
  63 016a 0000     		.align	2
  64              	.LC10:
  65 016c 4572726F 		.ascii	"Error writing packed data\000"
  65      72207772 
  65      6974696E 
  65      67207061 
  65      636B6564 
  66 0186 0000     		.align	2
  67              	.LC11:
  68 0188 4572726F 		.ascii	"Error reading ext type\000"
  68      72207265 
  68      6164696E 
ARM GAS  C:\Users\PCHAUT~1\AppData\Local\Temp\ccacj52E.s 			page 3


  68      67206578 
  68      74207479 
  69 019f 00       		.align	2
  70              	.LC12:
  71 01a0 4572726F 		.ascii	"Error writing ext type\000"
  71      72207772 
  71      6974696E 
  71      67206578 
  71      74207479 
  72 01b7 00       		.align	2
  73              	.LC13:
  74 01b8 496E7661 		.ascii	"Invalid type\000"
  74      6C696420 
  74      74797065 
  74      00
  75 01c5 000000   		.align	2
  76              	.LC14:
  77 01c8 4572726F 		.ascii	"Error reading size\000"
  77      72207265 
  77      6164696E 
  77      67207369 
  77      7A6500
  78 01db 00       		.align	2
  79              	.LC15:
  80 01dc 4572726F 		.ascii	"Error writing size\000"
  80      72207772 
  80      6974696E 
  80      67207369 
  80      7A6500
  81 01ef 00       		.align	2
  82              	.LC16:
  83 01f0 4D617820 		.ascii	"Max Error\000"
  83      4572726F 
  83      7200
  84              		.section	.data.cmp_error_messages,"aw",%progbits
  85              		.align	2
  86              		.type	cmp_error_messages, %object
  87              		.size	cmp_error_messages, 68
  88              	cmp_error_messages:
  89 0000 00000000 		.word	.LC0
  90 0004 0C000000 		.word	.LC1
  91 0008 44000000 		.word	.LC2
  92 000c 7C000000 		.word	.LC3
  93 0010 B0000000 		.word	.LC4
  94 0014 E0000000 		.word	.LC5
  95 0018 FC000000 		.word	.LC6
  96 001c 18010000 		.word	.LC7
  97 0020 34010000 		.word	.LC8
  98 0024 50010000 		.word	.LC9
  99 0028 6C010000 		.word	.LC10
 100 002c 88010000 		.word	.LC11
 101 0030 A0010000 		.word	.LC12
 102 0034 B8010000 		.word	.LC13
 103 0038 C8010000 		.word	.LC14
 104 003c DC010000 		.word	.LC15
 105 0040 F0010000 		.word	.LC16
 106              		.section	.rodata._i,"a",%progbits
ARM GAS  C:\Users\PCHAUT~1\AppData\Local\Temp\ccacj52E.s 			page 4


 107              		.align	2
 108              		.type	_i, %object
 109              		.size	_i, 4
 110              	_i:
 111 0000 01000000 		.word	1
 112              		.section	.text.be16,"ax",%progbits
 113              		.align	1
 114              		.p2align 4,,15
 115              		.syntax unified
 116              		.thumb
 117              		.thumb_func
 118              		.fpu fpv4-sp-d16
 119              		.type	be16, %function
 120              	be16:
 121              	.LFB0:
 122              		.file 1 "../lib/e-puck2_main-processor/src/cmp/cmp.c"
 123              		.loc 1 98 0
 124              		.cfi_startproc
 125              		@ args = 0, pretend = 0, frame = 24
 126              		@ frame_needed = 0, uses_anonymous_args = 0
 127 0000 00B5     		push	{lr}
 128              		.cfi_def_cfa_offset 4
 129              		.cfi_offset 14, -4
 130 0002 87B0     		sub	sp, sp, #28
 131              		.cfi_def_cfa_offset 32
 132 0004 0346     		mov	r3, r0
 133 0006 ADF80630 		strh	r3, [sp, #6]	@ movhi
 134              		.loc 1 98 0
 135 000a 134B     		ldr	r3, .L5
 136 000c 1B68     		ldr	r3, [r3]
 137 000e 0593     		str	r3, [sp, #20]
 138              		.loc 1 99 0
 139 0010 0DF10603 		add	r3, sp, #6
 140 0014 0493     		str	r3, [sp, #16]
 141              		.loc 1 101 0
 142 0016 114B     		ldr	r3, .L5+4
 143 0018 1B78     		ldrb	r3, [r3]	@ zero_extendqisi2
 144 001a 002B     		cmp	r3, #0
 145 001c 0FD0     		beq	.L2
 146              	.LBB2:
 147              		.loc 1 102 0
 148 001e 0023     		movs	r3, #0
 149 0020 8DF80F30 		strb	r3, [sp, #15]
 150              		.loc 1 104 0
 151 0024 049B     		ldr	r3, [sp, #16]
 152 0026 1B78     		ldrb	r3, [r3]
 153 0028 8DF80F30 		strb	r3, [sp, #15]
 154              		.loc 1 105 0
 155 002c 049B     		ldr	r3, [sp, #16]
 156 002e 5A78     		ldrb	r2, [r3, #1]	@ zero_extendqisi2
 157 0030 049B     		ldr	r3, [sp, #16]
 158 0032 1A70     		strb	r2, [r3]
 159              		.loc 1 106 0
 160 0034 049B     		ldr	r3, [sp, #16]
 161 0036 0133     		adds	r3, r3, #1
 162 0038 9DF80F20 		ldrb	r2, [sp, #15]
 163 003c 1A70     		strb	r2, [r3]
ARM GAS  C:\Users\PCHAUT~1\AppData\Local\Temp\ccacj52E.s 			page 5


 164              	.L2:
 165              	.LBE2:
 166              		.loc 1 109 0
 167 003e BDF80630 		ldrh	r3, [sp, #6]
 168              		.loc 1 110 0
 169 0042 1846     		mov	r0, r3
 170 0044 044B     		ldr	r3, .L5
 171 0046 059A     		ldr	r2, [sp, #20]
 172 0048 1B68     		ldr	r3, [r3]
 173 004a 9A42     		cmp	r2, r3
 174 004c 01D0     		beq	.L4
 175 004e FFF7FEFF 		bl	__stack_chk_fail
 176              	.L4:
 177 0052 07B0     		add	sp, sp, #28
 178              		.cfi_def_cfa_offset 4
 179              		@ sp needed
 180 0054 5DF804FB 		ldr	pc, [sp], #4
 181              	.L6:
 182              		.align	2
 183              	.L5:
 184 0058 00000000 		.word	__stack_chk_guard
 185 005c 00000000 		.word	_i
 186              		.cfi_endproc
 187              	.LFE0:
 188              		.size	be16, .-be16
 189              		.section	.text.be32,"ax",%progbits
 190              		.align	1
 191              		.p2align 4,,15
 192              		.syntax unified
 193              		.thumb
 194              		.thumb_func
 195              		.fpu fpv4-sp-d16
 196              		.type	be32, %function
 197              	be32:
 198              	.LFB1:
 199              		.loc 1 112 0
 200              		.cfi_startproc
 201              		@ args = 0, pretend = 0, frame = 24
 202              		@ frame_needed = 0, uses_anonymous_args = 0
 203 0000 00B5     		push	{lr}
 204              		.cfi_def_cfa_offset 4
 205              		.cfi_offset 14, -4
 206 0002 87B0     		sub	sp, sp, #28
 207              		.cfi_def_cfa_offset 32
 208 0004 0190     		str	r0, [sp, #4]
 209              		.loc 1 112 0
 210 0006 194B     		ldr	r3, .L11
 211 0008 1B68     		ldr	r3, [r3]
 212 000a 0593     		str	r3, [sp, #20]
 213              		.loc 1 113 0
 214 000c 01AB     		add	r3, sp, #4
 215 000e 0493     		str	r3, [sp, #16]
 216              		.loc 1 115 0
 217 0010 174B     		ldr	r3, .L11+4
 218 0012 1B78     		ldrb	r3, [r3]	@ zero_extendqisi2
 219 0014 002B     		cmp	r3, #0
 220 0016 1DD0     		beq	.L8
ARM GAS  C:\Users\PCHAUT~1\AppData\Local\Temp\ccacj52E.s 			page 6


 221              	.LBB3:
 222              		.loc 1 116 0
 223 0018 0023     		movs	r3, #0
 224 001a 8DF80F30 		strb	r3, [sp, #15]
 225              		.loc 1 118 0
 226 001e 049B     		ldr	r3, [sp, #16]
 227 0020 1B78     		ldrb	r3, [r3]
 228 0022 8DF80F30 		strb	r3, [sp, #15]
 229              		.loc 1 119 0
 230 0026 049B     		ldr	r3, [sp, #16]
 231 0028 DA78     		ldrb	r2, [r3, #3]	@ zero_extendqisi2
 232 002a 049B     		ldr	r3, [sp, #16]
 233 002c 1A70     		strb	r2, [r3]
 234              		.loc 1 120 0
 235 002e 049B     		ldr	r3, [sp, #16]
 236 0030 0333     		adds	r3, r3, #3
 237 0032 9DF80F20 		ldrb	r2, [sp, #15]
 238 0036 1A70     		strb	r2, [r3]
 239              		.loc 1 122 0
 240 0038 049B     		ldr	r3, [sp, #16]
 241 003a 5B78     		ldrb	r3, [r3, #1]
 242 003c 8DF80F30 		strb	r3, [sp, #15]
 243              		.loc 1 123 0
 244 0040 049B     		ldr	r3, [sp, #16]
 245 0042 0133     		adds	r3, r3, #1
 246 0044 049A     		ldr	r2, [sp, #16]
 247 0046 9278     		ldrb	r2, [r2, #2]	@ zero_extendqisi2
 248 0048 1A70     		strb	r2, [r3]
 249              		.loc 1 124 0
 250 004a 049B     		ldr	r3, [sp, #16]
 251 004c 0233     		adds	r3, r3, #2
 252 004e 9DF80F20 		ldrb	r2, [sp, #15]
 253 0052 1A70     		strb	r2, [r3]
 254              	.L8:
 255              	.LBE3:
 256              		.loc 1 127 0
 257 0054 019B     		ldr	r3, [sp, #4]
 258              		.loc 1 128 0
 259 0056 1846     		mov	r0, r3
 260 0058 044B     		ldr	r3, .L11
 261 005a 059A     		ldr	r2, [sp, #20]
 262 005c 1B68     		ldr	r3, [r3]
 263 005e 9A42     		cmp	r2, r3
 264 0060 01D0     		beq	.L10
 265 0062 FFF7FEFF 		bl	__stack_chk_fail
 266              	.L10:
 267 0066 07B0     		add	sp, sp, #28
 268              		.cfi_def_cfa_offset 4
 269              		@ sp needed
 270 0068 5DF804FB 		ldr	pc, [sp], #4
 271              	.L12:
 272              		.align	2
 273              	.L11:
 274 006c 00000000 		.word	__stack_chk_guard
 275 0070 00000000 		.word	_i
 276              		.cfi_endproc
 277              	.LFE1:
ARM GAS  C:\Users\PCHAUT~1\AppData\Local\Temp\ccacj52E.s 			page 7


 278              		.size	be32, .-be32
 279              		.section	.text.be64,"ax",%progbits
 280              		.align	1
 281              		.p2align 4,,15
 282              		.syntax unified
 283              		.thumb
 284              		.thumb_func
 285              		.fpu fpv4-sp-d16
 286              		.type	be64, %function
 287              	be64:
 288              	.LFB2:
 289              		.loc 1 130 0
 290              		.cfi_startproc
 291              		@ args = 0, pretend = 0, frame = 24
 292              		@ frame_needed = 0, uses_anonymous_args = 0
 293 0000 10B5     		push	{r4, lr}
 294              		.cfi_def_cfa_offset 8
 295              		.cfi_offset 4, -8
 296              		.cfi_offset 14, -4
 297 0002 86B0     		sub	sp, sp, #24
 298              		.cfi_def_cfa_offset 32
 299 0004 CDE90001 		strd	r0, [sp]
 300              		.loc 1 130 0
 301 0008 274B     		ldr	r3, .L17
 302 000a 1B68     		ldr	r3, [r3]
 303 000c 0593     		str	r3, [sp, #20]
 304              		.loc 1 131 0
 305 000e 6B46     		mov	r3, sp
 306 0010 0493     		str	r3, [sp, #16]
 307              		.loc 1 133 0
 308 0012 264B     		ldr	r3, .L17+4
 309 0014 1B78     		ldrb	r3, [r3]	@ zero_extendqisi2
 310 0016 002B     		cmp	r3, #0
 311 0018 39D0     		beq	.L14
 312              	.LBB4:
 313              		.loc 1 134 0
 314 001a 0023     		movs	r3, #0
 315 001c 8DF80F30 		strb	r3, [sp, #15]
 316              		.loc 1 136 0
 317 0020 049B     		ldr	r3, [sp, #16]
 318 0022 1B78     		ldrb	r3, [r3]
 319 0024 8DF80F30 		strb	r3, [sp, #15]
 320              		.loc 1 137 0
 321 0028 049B     		ldr	r3, [sp, #16]
 322 002a DA79     		ldrb	r2, [r3, #7]	@ zero_extendqisi2
 323 002c 049B     		ldr	r3, [sp, #16]
 324 002e 1A70     		strb	r2, [r3]
 325              		.loc 1 138 0
 326 0030 049B     		ldr	r3, [sp, #16]
 327 0032 0733     		adds	r3, r3, #7
 328 0034 9DF80F20 		ldrb	r2, [sp, #15]
 329 0038 1A70     		strb	r2, [r3]
 330              		.loc 1 140 0
 331 003a 049B     		ldr	r3, [sp, #16]
 332 003c 5B78     		ldrb	r3, [r3, #1]
 333 003e 8DF80F30 		strb	r3, [sp, #15]
 334              		.loc 1 141 0
ARM GAS  C:\Users\PCHAUT~1\AppData\Local\Temp\ccacj52E.s 			page 8


 335 0042 049B     		ldr	r3, [sp, #16]
 336 0044 0133     		adds	r3, r3, #1
 337 0046 049A     		ldr	r2, [sp, #16]
 338 0048 9279     		ldrb	r2, [r2, #6]	@ zero_extendqisi2
 339 004a 1A70     		strb	r2, [r3]
 340              		.loc 1 142 0
 341 004c 049B     		ldr	r3, [sp, #16]
 342 004e 0633     		adds	r3, r3, #6
 343 0050 9DF80F20 		ldrb	r2, [sp, #15]
 344 0054 1A70     		strb	r2, [r3]
 345              		.loc 1 144 0
 346 0056 049B     		ldr	r3, [sp, #16]
 347 0058 9B78     		ldrb	r3, [r3, #2]
 348 005a 8DF80F30 		strb	r3, [sp, #15]
 349              		.loc 1 145 0
 350 005e 049B     		ldr	r3, [sp, #16]
 351 0060 0233     		adds	r3, r3, #2
 352 0062 049A     		ldr	r2, [sp, #16]
 353 0064 5279     		ldrb	r2, [r2, #5]	@ zero_extendqisi2
 354 0066 1A70     		strb	r2, [r3]
 355              		.loc 1 146 0
 356 0068 049B     		ldr	r3, [sp, #16]
 357 006a 0533     		adds	r3, r3, #5
 358 006c 9DF80F20 		ldrb	r2, [sp, #15]
 359 0070 1A70     		strb	r2, [r3]
 360              		.loc 1 148 0
 361 0072 049B     		ldr	r3, [sp, #16]
 362 0074 DB78     		ldrb	r3, [r3, #3]
 363 0076 8DF80F30 		strb	r3, [sp, #15]
 364              		.loc 1 149 0
 365 007a 049B     		ldr	r3, [sp, #16]
 366 007c 0333     		adds	r3, r3, #3
 367 007e 049A     		ldr	r2, [sp, #16]
 368 0080 1279     		ldrb	r2, [r2, #4]	@ zero_extendqisi2
 369 0082 1A70     		strb	r2, [r3]
 370              		.loc 1 150 0
 371 0084 049B     		ldr	r3, [sp, #16]
 372 0086 0433     		adds	r3, r3, #4
 373 0088 9DF80F20 		ldrb	r2, [sp, #15]
 374 008c 1A70     		strb	r2, [r3]
 375              	.L14:
 376              	.LBE4:
 377              		.loc 1 153 0
 378 008e DDE90034 		ldrd	r3, [sp]
 379              		.loc 1 154 0
 380 0092 1846     		mov	r0, r3
 381 0094 2146     		mov	r1, r4
 382 0096 044B     		ldr	r3, .L17
 383 0098 059A     		ldr	r2, [sp, #20]
 384 009a 1B68     		ldr	r3, [r3]
 385 009c 9A42     		cmp	r2, r3
 386 009e 01D0     		beq	.L16
 387 00a0 FFF7FEFF 		bl	__stack_chk_fail
 388              	.L16:
 389 00a4 06B0     		add	sp, sp, #24
 390              		.cfi_def_cfa_offset 8
 391              		@ sp needed
ARM GAS  C:\Users\PCHAUT~1\AppData\Local\Temp\ccacj52E.s 			page 9


 392 00a6 10BD     		pop	{r4, pc}
 393              	.L18:
 394              		.align	2
 395              	.L17:
 396 00a8 00000000 		.word	__stack_chk_guard
 397 00ac 00000000 		.word	_i
 398              		.cfi_endproc
 399              	.LFE2:
 400              		.size	be64, .-be64
 401              		.section	.text.befloat,"ax",%progbits
 402              		.align	1
 403              		.p2align 4,,15
 404              		.syntax unified
 405              		.thumb
 406              		.thumb_func
 407              		.fpu fpv4-sp-d16
 408              		.type	befloat, %function
 409              	befloat:
 410              	.LFB3:
 411              		.loc 1 156 0
 412              		.cfi_startproc
 413              		@ args = 0, pretend = 0, frame = 24
 414              		@ frame_needed = 0, uses_anonymous_args = 0
 415 0000 00B5     		push	{lr}
 416              		.cfi_def_cfa_offset 4
 417              		.cfi_offset 14, -4
 418 0002 87B0     		sub	sp, sp, #28
 419              		.cfi_def_cfa_offset 32
 420 0004 8DED010A 		vstr.32	s0, [sp, #4]
 421              		.loc 1 156 0
 422 0008 1A4B     		ldr	r3, .L23
 423 000a 1B68     		ldr	r3, [r3]
 424 000c 0593     		str	r3, [sp, #20]
 425              		.loc 1 157 0
 426 000e 01AB     		add	r3, sp, #4
 427 0010 0493     		str	r3, [sp, #16]
 428              		.loc 1 159 0
 429 0012 194B     		ldr	r3, .L23+4
 430 0014 1B78     		ldrb	r3, [r3]	@ zero_extendqisi2
 431 0016 002B     		cmp	r3, #0
 432 0018 1DD0     		beq	.L20
 433              	.LBB5:
 434              		.loc 1 160 0
 435 001a 0023     		movs	r3, #0
 436 001c 8DF80F30 		strb	r3, [sp, #15]
 437              		.loc 1 162 0
 438 0020 049B     		ldr	r3, [sp, #16]
 439 0022 1B78     		ldrb	r3, [r3]
 440 0024 8DF80F30 		strb	r3, [sp, #15]
 441              		.loc 1 163 0
 442 0028 049B     		ldr	r3, [sp, #16]
 443 002a DA78     		ldrb	r2, [r3, #3]	@ zero_extendqisi2
 444 002c 049B     		ldr	r3, [sp, #16]
 445 002e 1A70     		strb	r2, [r3]
 446              		.loc 1 164 0
 447 0030 049B     		ldr	r3, [sp, #16]
 448 0032 0333     		adds	r3, r3, #3
ARM GAS  C:\Users\PCHAUT~1\AppData\Local\Temp\ccacj52E.s 			page 10


 449 0034 9DF80F20 		ldrb	r2, [sp, #15]
 450 0038 1A70     		strb	r2, [r3]
 451              		.loc 1 166 0
 452 003a 049B     		ldr	r3, [sp, #16]
 453 003c 5B78     		ldrb	r3, [r3, #1]
 454 003e 8DF80F30 		strb	r3, [sp, #15]
 455              		.loc 1 167 0
 456 0042 049B     		ldr	r3, [sp, #16]
 457 0044 0133     		adds	r3, r3, #1
 458 0046 049A     		ldr	r2, [sp, #16]
 459 0048 9278     		ldrb	r2, [r2, #2]	@ zero_extendqisi2
 460 004a 1A70     		strb	r2, [r3]
 461              		.loc 1 168 0
 462 004c 049B     		ldr	r3, [sp, #16]
 463 004e 0233     		adds	r3, r3, #2
 464 0050 9DF80F20 		ldrb	r2, [sp, #15]
 465 0054 1A70     		strb	r2, [r3]
 466              	.L20:
 467              	.LBE5:
 468              		.loc 1 171 0
 469 0056 019B     		ldr	r3, [sp, #4]	@ float
 470 0058 07EE903A 		vmov	s15, r3
 471              		.loc 1 172 0
 472 005c B0EE670A 		vmov.f32	s0, s15
 473 0060 044B     		ldr	r3, .L23
 474 0062 059A     		ldr	r2, [sp, #20]
 475 0064 1B68     		ldr	r3, [r3]
 476 0066 9A42     		cmp	r2, r3
 477 0068 01D0     		beq	.L22
 478 006a FFF7FEFF 		bl	__stack_chk_fail
 479              	.L22:
 480 006e 07B0     		add	sp, sp, #28
 481              		.cfi_def_cfa_offset 4
 482              		@ sp needed
 483 0070 5DF804FB 		ldr	pc, [sp], #4
 484              	.L24:
 485              		.align	2
 486              	.L23:
 487 0074 00000000 		.word	__stack_chk_guard
 488 0078 00000000 		.word	_i
 489              		.cfi_endproc
 490              	.LFE3:
 491              		.size	befloat, .-befloat
 492              		.section	.text.bedouble,"ax",%progbits
 493              		.align	1
 494              		.p2align 4,,15
 495              		.syntax unified
 496              		.thumb
 497              		.thumb_func
 498              		.fpu fpv4-sp-d16
 499              		.type	bedouble, %function
 500              	bedouble:
 501              	.LFB4:
 502              		.loc 1 174 0
 503              		.cfi_startproc
 504              		@ args = 0, pretend = 0, frame = 24
 505              		@ frame_needed = 0, uses_anonymous_args = 0
ARM GAS  C:\Users\PCHAUT~1\AppData\Local\Temp\ccacj52E.s 			page 11


 506 0000 10B5     		push	{r4, lr}
 507              		.cfi_def_cfa_offset 8
 508              		.cfi_offset 4, -8
 509              		.cfi_offset 14, -4
 510 0002 86B0     		sub	sp, sp, #24
 511              		.cfi_def_cfa_offset 32
 512 0004 8DED000B 		vstr.64	d0, [sp]
 513              		.loc 1 174 0
 514 0008 294B     		ldr	r3, .L29
 515 000a 1B68     		ldr	r3, [r3]
 516 000c 0593     		str	r3, [sp, #20]
 517              		.loc 1 175 0
 518 000e 6B46     		mov	r3, sp
 519 0010 0493     		str	r3, [sp, #16]
 520              		.loc 1 177 0
 521 0012 284B     		ldr	r3, .L29+4
 522 0014 1B78     		ldrb	r3, [r3]	@ zero_extendqisi2
 523 0016 002B     		cmp	r3, #0
 524 0018 39D0     		beq	.L26
 525              	.LBB6:
 526              		.loc 1 178 0
 527 001a 0023     		movs	r3, #0
 528 001c 8DF80F30 		strb	r3, [sp, #15]
 529              		.loc 1 180 0
 530 0020 049B     		ldr	r3, [sp, #16]
 531 0022 1B78     		ldrb	r3, [r3]
 532 0024 8DF80F30 		strb	r3, [sp, #15]
 533              		.loc 1 181 0
 534 0028 049B     		ldr	r3, [sp, #16]
 535 002a DA79     		ldrb	r2, [r3, #7]	@ zero_extendqisi2
 536 002c 049B     		ldr	r3, [sp, #16]
 537 002e 1A70     		strb	r2, [r3]
 538              		.loc 1 182 0
 539 0030 049B     		ldr	r3, [sp, #16]
 540 0032 0733     		adds	r3, r3, #7
 541 0034 9DF80F20 		ldrb	r2, [sp, #15]
 542 0038 1A70     		strb	r2, [r3]
 543              		.loc 1 184 0
 544 003a 049B     		ldr	r3, [sp, #16]
 545 003c 5B78     		ldrb	r3, [r3, #1]
 546 003e 8DF80F30 		strb	r3, [sp, #15]
 547              		.loc 1 185 0
 548 0042 049B     		ldr	r3, [sp, #16]
 549 0044 0133     		adds	r3, r3, #1
 550 0046 049A     		ldr	r2, [sp, #16]
 551 0048 9279     		ldrb	r2, [r2, #6]	@ zero_extendqisi2
 552 004a 1A70     		strb	r2, [r3]
 553              		.loc 1 186 0
 554 004c 049B     		ldr	r3, [sp, #16]
 555 004e 0633     		adds	r3, r3, #6
 556 0050 9DF80F20 		ldrb	r2, [sp, #15]
 557 0054 1A70     		strb	r2, [r3]
 558              		.loc 1 188 0
 559 0056 049B     		ldr	r3, [sp, #16]
 560 0058 9B78     		ldrb	r3, [r3, #2]
 561 005a 8DF80F30 		strb	r3, [sp, #15]
 562              		.loc 1 189 0
ARM GAS  C:\Users\PCHAUT~1\AppData\Local\Temp\ccacj52E.s 			page 12


 563 005e 049B     		ldr	r3, [sp, #16]
 564 0060 0233     		adds	r3, r3, #2
 565 0062 049A     		ldr	r2, [sp, #16]
 566 0064 5279     		ldrb	r2, [r2, #5]	@ zero_extendqisi2
 567 0066 1A70     		strb	r2, [r3]
 568              		.loc 1 190 0
 569 0068 049B     		ldr	r3, [sp, #16]
 570 006a 0533     		adds	r3, r3, #5
 571 006c 9DF80F20 		ldrb	r2, [sp, #15]
 572 0070 1A70     		strb	r2, [r3]
 573              		.loc 1 192 0
 574 0072 049B     		ldr	r3, [sp, #16]
 575 0074 DB78     		ldrb	r3, [r3, #3]
 576 0076 8DF80F30 		strb	r3, [sp, #15]
 577              		.loc 1 193 0
 578 007a 049B     		ldr	r3, [sp, #16]
 579 007c 0333     		adds	r3, r3, #3
 580 007e 049A     		ldr	r2, [sp, #16]
 581 0080 1279     		ldrb	r2, [r2, #4]	@ zero_extendqisi2
 582 0082 1A70     		strb	r2, [r3]
 583              		.loc 1 194 0
 584 0084 049B     		ldr	r3, [sp, #16]
 585 0086 0433     		adds	r3, r3, #4
 586 0088 9DF80F20 		ldrb	r2, [sp, #15]
 587 008c 1A70     		strb	r2, [r3]
 588              	.L26:
 589              	.LBE6:
 590              		.loc 1 197 0
 591 008e DDE90034 		ldrd	r3, [sp]
 592 0092 44EC173B 		vmov	d7, r3, r4
 593              		.loc 1 198 0
 594 0096 B0EE470A 		vmov.f32	s0, s14
 595 009a F0EE670A 		vmov.f32	s1, s15
 596 009e 044B     		ldr	r3, .L29
 597 00a0 059A     		ldr	r2, [sp, #20]
 598 00a2 1B68     		ldr	r3, [r3]
 599 00a4 9A42     		cmp	r2, r3
 600 00a6 01D0     		beq	.L28
 601 00a8 FFF7FEFF 		bl	__stack_chk_fail
 602              	.L28:
 603 00ac 06B0     		add	sp, sp, #24
 604              		.cfi_def_cfa_offset 8
 605              		@ sp needed
 606 00ae 10BD     		pop	{r4, pc}
 607              	.L30:
 608              		.align	2
 609              	.L29:
 610 00b0 00000000 		.word	__stack_chk_guard
 611 00b4 00000000 		.word	_i
 612              		.cfi_endproc
 613              	.LFE4:
 614              		.size	bedouble, .-bedouble
 615              		.section	.text.read_byte,"ax",%progbits
 616              		.align	1
 617              		.p2align 4,,15
 618              		.syntax unified
 619              		.thumb
ARM GAS  C:\Users\PCHAUT~1\AppData\Local\Temp\ccacj52E.s 			page 13


 620              		.thumb_func
 621              		.fpu fpv4-sp-d16
 622              		.type	read_byte, %function
 623              	read_byte:
 624              	.LFB5:
 625              		.loc 1 200 0
 626              		.cfi_startproc
 627              		@ args = 0, pretend = 0, frame = 16
 628              		@ frame_needed = 0, uses_anonymous_args = 0
 629 0000 00B5     		push	{lr}
 630              		.cfi_def_cfa_offset 4
 631              		.cfi_offset 14, -4
 632 0002 85B0     		sub	sp, sp, #20
 633              		.cfi_def_cfa_offset 24
 634 0004 0190     		str	r0, [sp, #4]
 635 0006 0091     		str	r1, [sp]
 636              		.loc 1 200 0
 637 0008 0A4B     		ldr	r3, .L34
 638 000a 1B68     		ldr	r3, [r3]
 639 000c 0393     		str	r3, [sp, #12]
 640              		.loc 1 201 0
 641 000e 019B     		ldr	r3, [sp, #4]
 642 0010 9B68     		ldr	r3, [r3, #8]
 643 0012 0122     		movs	r2, #1
 644 0014 0099     		ldr	r1, [sp]
 645 0016 0198     		ldr	r0, [sp, #4]
 646 0018 9847     		blx	r3
 647              	.LVL0:
 648 001a 0346     		mov	r3, r0
 649              		.loc 1 202 0
 650 001c 1846     		mov	r0, r3
 651 001e 054B     		ldr	r3, .L34
 652 0020 039A     		ldr	r2, [sp, #12]
 653 0022 1B68     		ldr	r3, [r3]
 654 0024 9A42     		cmp	r2, r3
 655 0026 01D0     		beq	.L33
 656 0028 FFF7FEFF 		bl	__stack_chk_fail
 657              	.L33:
 658 002c 05B0     		add	sp, sp, #20
 659              		.cfi_def_cfa_offset 4
 660              		@ sp needed
 661 002e 5DF804FB 		ldr	pc, [sp], #4
 662              	.L35:
 663 0032 00BF     		.align	2
 664              	.L34:
 665 0034 00000000 		.word	__stack_chk_guard
 666              		.cfi_endproc
 667              	.LFE5:
 668              		.size	read_byte, .-read_byte
 669              		.section	.text.write_byte,"ax",%progbits
 670              		.align	1
 671              		.p2align 4,,15
 672              		.syntax unified
 673              		.thumb
 674              		.thumb_func
 675              		.fpu fpv4-sp-d16
 676              		.type	write_byte, %function
ARM GAS  C:\Users\PCHAUT~1\AppData\Local\Temp\ccacj52E.s 			page 14


 677              	write_byte:
 678              	.LFB6:
 679              		.loc 1 204 0
 680              		.cfi_startproc
 681              		@ args = 0, pretend = 0, frame = 16
 682              		@ frame_needed = 0, uses_anonymous_args = 0
 683 0000 00B5     		push	{lr}
 684              		.cfi_def_cfa_offset 4
 685              		.cfi_offset 14, -4
 686 0002 85B0     		sub	sp, sp, #20
 687              		.cfi_def_cfa_offset 24
 688 0004 0190     		str	r0, [sp, #4]
 689 0006 0B46     		mov	r3, r1
 690 0008 8DF80330 		strb	r3, [sp, #3]
 691              		.loc 1 204 0
 692 000c 0D4B     		ldr	r3, .L39
 693 000e 1B68     		ldr	r3, [r3]
 694 0010 0393     		str	r3, [sp, #12]
 695              		.loc 1 205 0
 696 0012 019B     		ldr	r3, [sp, #4]
 697 0014 DB68     		ldr	r3, [r3, #12]
 698 0016 0DF10301 		add	r1, sp, #3
 699 001a 0122     		movs	r2, #1
 700 001c 0198     		ldr	r0, [sp, #4]
 701 001e 9847     		blx	r3
 702              	.LVL1:
 703 0020 0346     		mov	r3, r0
 704 0022 012B     		cmp	r3, #1
 705 0024 0CBF     		ite	eq
 706 0026 0123     		moveq	r3, #1
 707 0028 0023     		movne	r3, #0
 708 002a DBB2     		uxtb	r3, r3
 709              		.loc 1 206 0
 710 002c 1846     		mov	r0, r3
 711 002e 054B     		ldr	r3, .L39
 712 0030 039A     		ldr	r2, [sp, #12]
 713 0032 1B68     		ldr	r3, [r3]
 714 0034 9A42     		cmp	r2, r3
 715 0036 01D0     		beq	.L38
 716 0038 FFF7FEFF 		bl	__stack_chk_fail
 717              	.L38:
 718 003c 05B0     		add	sp, sp, #20
 719              		.cfi_def_cfa_offset 4
 720              		@ sp needed
 721 003e 5DF804FB 		ldr	pc, [sp], #4
 722              	.L40:
 723 0042 00BF     		.align	2
 724              	.L39:
 725 0044 00000000 		.word	__stack_chk_guard
 726              		.cfi_endproc
 727              	.LFE6:
 728              		.size	write_byte, .-write_byte
 729              		.section	.text.read_type_marker,"ax",%progbits
 730              		.align	1
 731              		.p2align 4,,15
 732              		.syntax unified
 733              		.thumb
ARM GAS  C:\Users\PCHAUT~1\AppData\Local\Temp\ccacj52E.s 			page 15


 734              		.thumb_func
 735              		.fpu fpv4-sp-d16
 736              		.type	read_type_marker, %function
 737              	read_type_marker:
 738              	.LFB7:
 739              		.loc 1 208 0
 740              		.cfi_startproc
 741              		@ args = 0, pretend = 0, frame = 16
 742              		@ frame_needed = 0, uses_anonymous_args = 0
 743 0000 00B5     		push	{lr}
 744              		.cfi_def_cfa_offset 4
 745              		.cfi_offset 14, -4
 746 0002 85B0     		sub	sp, sp, #20
 747              		.cfi_def_cfa_offset 24
 748 0004 0190     		str	r0, [sp, #4]
 749 0006 0091     		str	r1, [sp]
 750              		.loc 1 208 0
 751 0008 0D4B     		ldr	r3, .L45
 752 000a 1B68     		ldr	r3, [r3]
 753 000c 0393     		str	r3, [sp, #12]
 754              		.loc 1 209 0
 755 000e 0099     		ldr	r1, [sp]
 756 0010 0198     		ldr	r0, [sp, #4]
 757 0012 FFF7FEFF 		bl	read_byte
 758 0016 0346     		mov	r3, r0
 759 0018 002B     		cmp	r3, #0
 760 001a 01D0     		beq	.L42
 761              		.loc 1 210 0
 762 001c 0123     		movs	r3, #1
 763 001e 03E0     		b	.L43
 764              	.L42:
 765              		.loc 1 212 0
 766 0020 019B     		ldr	r3, [sp, #4]
 767 0022 0722     		movs	r2, #7
 768 0024 1A70     		strb	r2, [r3]
 769              		.loc 1 213 0
 770 0026 0023     		movs	r3, #0
 771              	.L43:
 772              		.loc 1 214 0
 773 0028 1846     		mov	r0, r3
 774 002a 054B     		ldr	r3, .L45
 775 002c 039A     		ldr	r2, [sp, #12]
 776 002e 1B68     		ldr	r3, [r3]
 777 0030 9A42     		cmp	r2, r3
 778 0032 01D0     		beq	.L44
 779 0034 FFF7FEFF 		bl	__stack_chk_fail
 780              	.L44:
 781 0038 05B0     		add	sp, sp, #20
 782              		.cfi_def_cfa_offset 4
 783              		@ sp needed
 784 003a 5DF804FB 		ldr	pc, [sp], #4
 785              	.L46:
 786 003e 00BF     		.align	2
 787              	.L45:
 788 0040 00000000 		.word	__stack_chk_guard
 789              		.cfi_endproc
 790              	.LFE7:
ARM GAS  C:\Users\PCHAUT~1\AppData\Local\Temp\ccacj52E.s 			page 16


 791              		.size	read_type_marker, .-read_type_marker
 792              		.section	.text.write_type_marker,"ax",%progbits
 793              		.align	1
 794              		.p2align 4,,15
 795              		.syntax unified
 796              		.thumb
 797              		.thumb_func
 798              		.fpu fpv4-sp-d16
 799              		.type	write_type_marker, %function
 800              	write_type_marker:
 801              	.LFB8:
 802              		.loc 1 216 0
 803              		.cfi_startproc
 804              		@ args = 0, pretend = 0, frame = 16
 805              		@ frame_needed = 0, uses_anonymous_args = 0
 806 0000 00B5     		push	{lr}
 807              		.cfi_def_cfa_offset 4
 808              		.cfi_offset 14, -4
 809 0002 85B0     		sub	sp, sp, #20
 810              		.cfi_def_cfa_offset 24
 811 0004 0190     		str	r0, [sp, #4]
 812 0006 0B46     		mov	r3, r1
 813 0008 8DF80330 		strb	r3, [sp, #3]
 814              		.loc 1 216 0
 815 000c 0E4B     		ldr	r3, .L51
 816 000e 1B68     		ldr	r3, [r3]
 817 0010 0393     		str	r3, [sp, #12]
 818              		.loc 1 217 0
 819 0012 9DF80330 		ldrb	r3, [sp, #3]	@ zero_extendqisi2
 820 0016 1946     		mov	r1, r3
 821 0018 0198     		ldr	r0, [sp, #4]
 822 001a FFF7FEFF 		bl	write_byte
 823 001e 0346     		mov	r3, r0
 824 0020 002B     		cmp	r3, #0
 825 0022 01D0     		beq	.L48
 826              		.loc 1 218 0
 827 0024 0123     		movs	r3, #1
 828 0026 03E0     		b	.L49
 829              	.L48:
 830              		.loc 1 220 0
 831 0028 019B     		ldr	r3, [sp, #4]
 832 002a 0822     		movs	r2, #8
 833 002c 1A70     		strb	r2, [r3]
 834              		.loc 1 221 0
 835 002e 0023     		movs	r3, #0
 836              	.L49:
 837              		.loc 1 222 0
 838 0030 1846     		mov	r0, r3
 839 0032 054B     		ldr	r3, .L51
 840 0034 039A     		ldr	r2, [sp, #12]
 841 0036 1B68     		ldr	r3, [r3]
 842 0038 9A42     		cmp	r2, r3
 843 003a 01D0     		beq	.L50
 844 003c FFF7FEFF 		bl	__stack_chk_fail
 845              	.L50:
 846 0040 05B0     		add	sp, sp, #20
 847              		.cfi_def_cfa_offset 4
ARM GAS  C:\Users\PCHAUT~1\AppData\Local\Temp\ccacj52E.s 			page 17


 848              		@ sp needed
 849 0042 5DF804FB 		ldr	pc, [sp], #4
 850              	.L52:
 851 0046 00BF     		.align	2
 852              	.L51:
 853 0048 00000000 		.word	__stack_chk_guard
 854              		.cfi_endproc
 855              	.LFE8:
 856              		.size	write_type_marker, .-write_type_marker
 857              		.section	.text.write_fixed_value,"ax",%progbits
 858              		.align	1
 859              		.p2align 4,,15
 860              		.syntax unified
 861              		.thumb
 862              		.thumb_func
 863              		.fpu fpv4-sp-d16
 864              		.type	write_fixed_value, %function
 865              	write_fixed_value:
 866              	.LFB9:
 867              		.loc 1 224 0
 868              		.cfi_startproc
 869              		@ args = 0, pretend = 0, frame = 16
 870              		@ frame_needed = 0, uses_anonymous_args = 0
 871 0000 00B5     		push	{lr}
 872              		.cfi_def_cfa_offset 4
 873              		.cfi_offset 14, -4
 874 0002 85B0     		sub	sp, sp, #20
 875              		.cfi_def_cfa_offset 24
 876 0004 0190     		str	r0, [sp, #4]
 877 0006 0B46     		mov	r3, r1
 878 0008 8DF80330 		strb	r3, [sp, #3]
 879              		.loc 1 224 0
 880 000c 0E4B     		ldr	r3, .L57
 881 000e 1B68     		ldr	r3, [r3]
 882 0010 0393     		str	r3, [sp, #12]
 883              		.loc 1 225 0
 884 0012 9DF80330 		ldrb	r3, [sp, #3]	@ zero_extendqisi2
 885 0016 1946     		mov	r1, r3
 886 0018 0198     		ldr	r0, [sp, #4]
 887 001a FFF7FEFF 		bl	write_byte
 888 001e 0346     		mov	r3, r0
 889 0020 002B     		cmp	r3, #0
 890 0022 01D0     		beq	.L54
 891              		.loc 1 226 0
 892 0024 0123     		movs	r3, #1
 893 0026 03E0     		b	.L55
 894              	.L54:
 895              		.loc 1 228 0
 896 0028 019B     		ldr	r3, [sp, #4]
 897 002a 0622     		movs	r2, #6
 898 002c 1A70     		strb	r2, [r3]
 899              		.loc 1 229 0
 900 002e 0023     		movs	r3, #0
 901              	.L55:
 902              		.loc 1 230 0
 903 0030 1846     		mov	r0, r3
 904 0032 054B     		ldr	r3, .L57
ARM GAS  C:\Users\PCHAUT~1\AppData\Local\Temp\ccacj52E.s 			page 18


 905 0034 039A     		ldr	r2, [sp, #12]
 906 0036 1B68     		ldr	r3, [r3]
 907 0038 9A42     		cmp	r2, r3
 908 003a 01D0     		beq	.L56
 909 003c FFF7FEFF 		bl	__stack_chk_fail
 910              	.L56:
 911 0040 05B0     		add	sp, sp, #20
 912              		.cfi_def_cfa_offset 4
 913              		@ sp needed
 914 0042 5DF804FB 		ldr	pc, [sp], #4
 915              	.L58:
 916 0046 00BF     		.align	2
 917              	.L57:
 918 0048 00000000 		.word	__stack_chk_guard
 919              		.cfi_endproc
 920              	.LFE9:
 921              		.size	write_fixed_value, .-write_fixed_value
 922              		.section	.text.cmp_init,"ax",%progbits
 923              		.align	1
 924              		.p2align 4,,15
 925              		.global	cmp_init
 926              		.syntax unified
 927              		.thumb
 928              		.thumb_func
 929              		.fpu fpv4-sp-d16
 930              		.type	cmp_init, %function
 931              	cmp_init:
 932              	.LFB10:
 933              		.loc 1 232 0
 934              		.cfi_startproc
 935              		@ args = 0, pretend = 0, frame = 24
 936              		@ frame_needed = 0, uses_anonymous_args = 0
 937 0000 00B5     		push	{lr}
 938              		.cfi_def_cfa_offset 4
 939              		.cfi_offset 14, -4
 940 0002 87B0     		sub	sp, sp, #28
 941              		.cfi_def_cfa_offset 32
 942 0004 0390     		str	r0, [sp, #12]
 943 0006 0291     		str	r1, [sp, #8]
 944 0008 0192     		str	r2, [sp, #4]
 945 000a 0093     		str	r3, [sp]
 946              		.loc 1 232 0
 947 000c 0C4B     		ldr	r3, .L61
 948 000e 1B68     		ldr	r3, [r3]
 949 0010 0593     		str	r3, [sp, #20]
 950              		.loc 1 233 0
 951 0012 039B     		ldr	r3, [sp, #12]
 952 0014 0022     		movs	r2, #0
 953 0016 1A70     		strb	r2, [r3]
 954              		.loc 1 234 0
 955 0018 039B     		ldr	r3, [sp, #12]
 956 001a 029A     		ldr	r2, [sp, #8]
 957 001c 5A60     		str	r2, [r3, #4]
 958              		.loc 1 235 0
 959 001e 039B     		ldr	r3, [sp, #12]
 960 0020 019A     		ldr	r2, [sp, #4]
 961 0022 9A60     		str	r2, [r3, #8]
ARM GAS  C:\Users\PCHAUT~1\AppData\Local\Temp\ccacj52E.s 			page 19


 962              		.loc 1 236 0
 963 0024 039B     		ldr	r3, [sp, #12]
 964 0026 009A     		ldr	r2, [sp]
 965 0028 DA60     		str	r2, [r3, #12]
 966              		.loc 1 237 0
 967 002a 00BF     		nop
 968 002c 044B     		ldr	r3, .L61
 969 002e 059A     		ldr	r2, [sp, #20]
 970 0030 1B68     		ldr	r3, [r3]
 971 0032 9A42     		cmp	r2, r3
 972 0034 01D0     		beq	.L60
 973 0036 FFF7FEFF 		bl	__stack_chk_fail
 974              	.L60:
 975 003a 07B0     		add	sp, sp, #28
 976              		.cfi_def_cfa_offset 4
 977              		@ sp needed
 978 003c 5DF804FB 		ldr	pc, [sp], #4
 979              	.L62:
 980              		.align	2
 981              	.L61:
 982 0040 00000000 		.word	__stack_chk_guard
 983              		.cfi_endproc
 984              	.LFE10:
 985              		.size	cmp_init, .-cmp_init
 986              		.section	.text.cmp_version,"ax",%progbits
 987              		.align	1
 988              		.p2align 4,,15
 989              		.global	cmp_version
 990              		.syntax unified
 991              		.thumb
 992              		.thumb_func
 993              		.fpu fpv4-sp-d16
 994              		.type	cmp_version, %function
 995              	cmp_version:
 996              	.LFB11:
 997              		.loc 1 239 0
 998              		.cfi_startproc
 999              		@ args = 0, pretend = 0, frame = 8
 1000              		@ frame_needed = 0, uses_anonymous_args = 0
 1001 0000 00B5     		push	{lr}
 1002              		.cfi_def_cfa_offset 4
 1003              		.cfi_offset 14, -4
 1004 0002 83B0     		sub	sp, sp, #12
 1005              		.cfi_def_cfa_offset 16
 1006              		.loc 1 239 0
 1007 0004 074B     		ldr	r3, .L66
 1008 0006 1B68     		ldr	r3, [r3]
 1009 0008 0193     		str	r3, [sp, #4]
 1010              		.loc 1 240 0
 1011 000a 0A23     		movs	r3, #10
 1012              		.loc 1 241 0
 1013 000c 1846     		mov	r0, r3
 1014 000e 054B     		ldr	r3, .L66
 1015 0010 019A     		ldr	r2, [sp, #4]
 1016 0012 1B68     		ldr	r3, [r3]
 1017 0014 9A42     		cmp	r2, r3
 1018 0016 01D0     		beq	.L65
ARM GAS  C:\Users\PCHAUT~1\AppData\Local\Temp\ccacj52E.s 			page 20


 1019 0018 FFF7FEFF 		bl	__stack_chk_fail
 1020              	.L65:
 1021 001c 03B0     		add	sp, sp, #12
 1022              		.cfi_def_cfa_offset 4
 1023              		@ sp needed
 1024 001e 5DF804FB 		ldr	pc, [sp], #4
 1025              	.L67:
 1026 0022 00BF     		.align	2
 1027              	.L66:
 1028 0024 00000000 		.word	__stack_chk_guard
 1029              		.cfi_endproc
 1030              	.LFE11:
 1031              		.size	cmp_version, .-cmp_version
 1032              		.section	.text.cmp_mp_version,"ax",%progbits
 1033              		.align	1
 1034              		.p2align 4,,15
 1035              		.global	cmp_mp_version
 1036              		.syntax unified
 1037              		.thumb
 1038              		.thumb_func
 1039              		.fpu fpv4-sp-d16
 1040              		.type	cmp_mp_version, %function
 1041              	cmp_mp_version:
 1042              	.LFB12:
 1043              		.loc 1 243 0
 1044              		.cfi_startproc
 1045              		@ args = 0, pretend = 0, frame = 8
 1046              		@ frame_needed = 0, uses_anonymous_args = 0
 1047 0000 00B5     		push	{lr}
 1048              		.cfi_def_cfa_offset 4
 1049              		.cfi_offset 14, -4
 1050 0002 83B0     		sub	sp, sp, #12
 1051              		.cfi_def_cfa_offset 16
 1052              		.loc 1 243 0
 1053 0004 074B     		ldr	r3, .L71
 1054 0006 1B68     		ldr	r3, [r3]
 1055 0008 0193     		str	r3, [sp, #4]
 1056              		.loc 1 244 0
 1057 000a 0523     		movs	r3, #5
 1058              		.loc 1 245 0
 1059 000c 1846     		mov	r0, r3
 1060 000e 054B     		ldr	r3, .L71
 1061 0010 019A     		ldr	r2, [sp, #4]
 1062 0012 1B68     		ldr	r3, [r3]
 1063 0014 9A42     		cmp	r2, r3
 1064 0016 01D0     		beq	.L70
 1065 0018 FFF7FEFF 		bl	__stack_chk_fail
 1066              	.L70:
 1067 001c 03B0     		add	sp, sp, #12
 1068              		.cfi_def_cfa_offset 4
 1069              		@ sp needed
 1070 001e 5DF804FB 		ldr	pc, [sp], #4
 1071              	.L72:
 1072 0022 00BF     		.align	2
 1073              	.L71:
 1074 0024 00000000 		.word	__stack_chk_guard
 1075              		.cfi_endproc
ARM GAS  C:\Users\PCHAUT~1\AppData\Local\Temp\ccacj52E.s 			page 21


 1076              	.LFE12:
 1077              		.size	cmp_mp_version, .-cmp_mp_version
 1078              		.section	.rodata
 1079 01fa 0000     		.align	2
 1080              	.LC17:
 1081 01fc 00       		.ascii	"\000"
 1082              		.section	.text.cmp_strerror,"ax",%progbits
 1083              		.align	1
 1084              		.p2align 4,,15
 1085              		.global	cmp_strerror
 1086              		.syntax unified
 1087              		.thumb
 1088              		.thumb_func
 1089              		.fpu fpv4-sp-d16
 1090              		.type	cmp_strerror, %function
 1091              	cmp_strerror:
 1092              	.LFB13:
 1093              		.loc 1 247 0
 1094              		.cfi_startproc
 1095              		@ args = 0, pretend = 0, frame = 16
 1096              		@ frame_needed = 0, uses_anonymous_args = 0
 1097 0000 00B5     		push	{lr}
 1098              		.cfi_def_cfa_offset 4
 1099              		.cfi_offset 14, -4
 1100 0002 85B0     		sub	sp, sp, #20
 1101              		.cfi_def_cfa_offset 24
 1102 0004 0190     		str	r0, [sp, #4]
 1103              		.loc 1 247 0
 1104 0006 0F4B     		ldr	r3, .L77
 1105 0008 1B68     		ldr	r3, [r3]
 1106 000a 0393     		str	r3, [sp, #12]
 1107              		.loc 1 248 0
 1108 000c 019B     		ldr	r3, [sp, #4]
 1109 000e 1B78     		ldrb	r3, [r3]	@ zero_extendqisi2
 1110 0010 002B     		cmp	r3, #0
 1111 0012 0AD0     		beq	.L74
 1112              		.loc 1 248 0 is_stmt 0 discriminator 1
 1113 0014 019B     		ldr	r3, [sp, #4]
 1114 0016 1B78     		ldrb	r3, [r3]	@ zero_extendqisi2
 1115 0018 0F2B     		cmp	r3, #15
 1116 001a 06D8     		bhi	.L74
 1117              		.loc 1 249 0 is_stmt 1
 1118 001c 019B     		ldr	r3, [sp, #4]
 1119 001e 1B78     		ldrb	r3, [r3]	@ zero_extendqisi2
 1120 0020 1A46     		mov	r2, r3
 1121 0022 094B     		ldr	r3, .L77+4
 1122 0024 53F82230 		ldr	r3, [r3, r2, lsl #2]
 1123 0028 00E0     		b	.L75
 1124              	.L74:
 1125              		.loc 1 251 0
 1126 002a 084B     		ldr	r3, .L77+8
 1127              	.L75:
 1128              		.loc 1 252 0
 1129 002c 1846     		mov	r0, r3
 1130 002e 054B     		ldr	r3, .L77
 1131 0030 039A     		ldr	r2, [sp, #12]
 1132 0032 1B68     		ldr	r3, [r3]
ARM GAS  C:\Users\PCHAUT~1\AppData\Local\Temp\ccacj52E.s 			page 22


 1133 0034 9A42     		cmp	r2, r3
 1134 0036 01D0     		beq	.L76
 1135 0038 FFF7FEFF 		bl	__stack_chk_fail
 1136              	.L76:
 1137 003c 05B0     		add	sp, sp, #20
 1138              		.cfi_def_cfa_offset 4
 1139              		@ sp needed
 1140 003e 5DF804FB 		ldr	pc, [sp], #4
 1141              	.L78:
 1142 0042 00BF     		.align	2
 1143              	.L77:
 1144 0044 00000000 		.word	__stack_chk_guard
 1145 0048 00000000 		.word	cmp_error_messages
 1146 004c FC010000 		.word	.LC17
 1147              		.cfi_endproc
 1148              	.LFE13:
 1149              		.size	cmp_strerror, .-cmp_strerror
 1150              		.section	.text.cmp_write_pfix,"ax",%progbits
 1151              		.align	1
 1152              		.p2align 4,,15
 1153              		.global	cmp_write_pfix
 1154              		.syntax unified
 1155              		.thumb
 1156              		.thumb_func
 1157              		.fpu fpv4-sp-d16
 1158              		.type	cmp_write_pfix, %function
 1159              	cmp_write_pfix:
 1160              	.LFB14:
 1161              		.loc 1 254 0
 1162              		.cfi_startproc
 1163              		@ args = 0, pretend = 0, frame = 16
 1164              		@ frame_needed = 0, uses_anonymous_args = 0
 1165 0000 00B5     		push	{lr}
 1166              		.cfi_def_cfa_offset 4
 1167              		.cfi_offset 14, -4
 1168 0002 85B0     		sub	sp, sp, #20
 1169              		.cfi_def_cfa_offset 24
 1170 0004 0190     		str	r0, [sp, #4]
 1171 0006 0B46     		mov	r3, r1
 1172 0008 8DF80330 		strb	r3, [sp, #3]
 1173              		.loc 1 254 0
 1174 000c 0E4B     		ldr	r3, .L83
 1175 000e 1B68     		ldr	r3, [r3]
 1176 0010 0393     		str	r3, [sp, #12]
 1177              		.loc 1 255 0
 1178 0012 9DF90330 		ldrsb	r3, [sp, #3]
 1179 0016 002B     		cmp	r3, #0
 1180 0018 07DB     		blt	.L80
 1181              		.loc 1 256 0
 1182 001a 9DF80330 		ldrb	r3, [sp, #3]	@ zero_extendqisi2
 1183 001e 1946     		mov	r1, r3
 1184 0020 0198     		ldr	r0, [sp, #4]
 1185 0022 FFF7FEFF 		bl	write_fixed_value
 1186 0026 0346     		mov	r3, r0
 1187 0028 03E0     		b	.L81
 1188              	.L80:
 1189              		.loc 1 258 0
ARM GAS  C:\Users\PCHAUT~1\AppData\Local\Temp\ccacj52E.s 			page 23


 1190 002a 019B     		ldr	r3, [sp, #4]
 1191 002c 0522     		movs	r2, #5
 1192 002e 1A70     		strb	r2, [r3]
 1193              		.loc 1 259 0
 1194 0030 0023     		movs	r3, #0
 1195              	.L81:
 1196              		.loc 1 260 0
 1197 0032 1846     		mov	r0, r3
 1198 0034 044B     		ldr	r3, .L83
 1199 0036 039A     		ldr	r2, [sp, #12]
 1200 0038 1B68     		ldr	r3, [r3]
 1201 003a 9A42     		cmp	r2, r3
 1202 003c 01D0     		beq	.L82
 1203 003e FFF7FEFF 		bl	__stack_chk_fail
 1204              	.L82:
 1205 0042 05B0     		add	sp, sp, #20
 1206              		.cfi_def_cfa_offset 4
 1207              		@ sp needed
 1208 0044 5DF804FB 		ldr	pc, [sp], #4
 1209              	.L84:
 1210              		.align	2
 1211              	.L83:
 1212 0048 00000000 		.word	__stack_chk_guard
 1213              		.cfi_endproc
 1214              	.LFE14:
 1215              		.size	cmp_write_pfix, .-cmp_write_pfix
 1216              		.section	.text.cmp_write_nfix,"ax",%progbits
 1217              		.align	1
 1218              		.p2align 4,,15
 1219              		.global	cmp_write_nfix
 1220              		.syntax unified
 1221              		.thumb
 1222              		.thumb_func
 1223              		.fpu fpv4-sp-d16
 1224              		.type	cmp_write_nfix, %function
 1225              	cmp_write_nfix:
 1226              	.LFB15:
 1227              		.loc 1 262 0
 1228              		.cfi_startproc
 1229              		@ args = 0, pretend = 0, frame = 16
 1230              		@ frame_needed = 0, uses_anonymous_args = 0
 1231 0000 00B5     		push	{lr}
 1232              		.cfi_def_cfa_offset 4
 1233              		.cfi_offset 14, -4
 1234 0002 85B0     		sub	sp, sp, #20
 1235              		.cfi_def_cfa_offset 24
 1236 0004 0190     		str	r0, [sp, #4]
 1237 0006 0B46     		mov	r3, r1
 1238 0008 8DF80330 		strb	r3, [sp, #3]
 1239              		.loc 1 262 0
 1240 000c 114B     		ldr	r3, .L89
 1241 000e 1B68     		ldr	r3, [r3]
 1242 0010 0393     		str	r3, [sp, #12]
 1243              		.loc 1 263 0
 1244 0012 9DF90330 		ldrsb	r3, [sp, #3]
 1245 0016 13F1200F 		cmn	r3, #32
 1246 001a 0BDB     		blt	.L86
ARM GAS  C:\Users\PCHAUT~1\AppData\Local\Temp\ccacj52E.s 			page 24


 1247              		.loc 1 263 0 is_stmt 0 discriminator 1
 1248 001c 9DF90330 		ldrsb	r3, [sp, #3]
 1249 0020 002B     		cmp	r3, #0
 1250 0022 07DA     		bge	.L86
 1251              		.loc 1 264 0 is_stmt 1
 1252 0024 9DF80330 		ldrb	r3, [sp, #3]	@ zero_extendqisi2
 1253 0028 1946     		mov	r1, r3
 1254 002a 0198     		ldr	r0, [sp, #4]
 1255 002c FFF7FEFF 		bl	write_fixed_value
 1256 0030 0346     		mov	r3, r0
 1257 0032 03E0     		b	.L87
 1258              	.L86:
 1259              		.loc 1 266 0
 1260 0034 019B     		ldr	r3, [sp, #4]
 1261 0036 0522     		movs	r2, #5
 1262 0038 1A70     		strb	r2, [r3]
 1263              		.loc 1 267 0
 1264 003a 0023     		movs	r3, #0
 1265              	.L87:
 1266              		.loc 1 268 0
 1267 003c 1846     		mov	r0, r3
 1268 003e 054B     		ldr	r3, .L89
 1269 0040 039A     		ldr	r2, [sp, #12]
 1270 0042 1B68     		ldr	r3, [r3]
 1271 0044 9A42     		cmp	r2, r3
 1272 0046 01D0     		beq	.L88
 1273 0048 FFF7FEFF 		bl	__stack_chk_fail
 1274              	.L88:
 1275 004c 05B0     		add	sp, sp, #20
 1276              		.cfi_def_cfa_offset 4
 1277              		@ sp needed
 1278 004e 5DF804FB 		ldr	pc, [sp], #4
 1279              	.L90:
 1280 0052 00BF     		.align	2
 1281              	.L89:
 1282 0054 00000000 		.word	__stack_chk_guard
 1283              		.cfi_endproc
 1284              	.LFE15:
 1285              		.size	cmp_write_nfix, .-cmp_write_nfix
 1286              		.section	.text.cmp_write_sfix,"ax",%progbits
 1287              		.align	1
 1288              		.p2align 4,,15
 1289              		.global	cmp_write_sfix
 1290              		.syntax unified
 1291              		.thumb
 1292              		.thumb_func
 1293              		.fpu fpv4-sp-d16
 1294              		.type	cmp_write_sfix, %function
 1295              	cmp_write_sfix:
 1296              	.LFB16:
 1297              		.loc 1 270 0
 1298              		.cfi_startproc
 1299              		@ args = 0, pretend = 0, frame = 16
 1300              		@ frame_needed = 0, uses_anonymous_args = 0
 1301 0000 00B5     		push	{lr}
 1302              		.cfi_def_cfa_offset 4
 1303              		.cfi_offset 14, -4
ARM GAS  C:\Users\PCHAUT~1\AppData\Local\Temp\ccacj52E.s 			page 25


 1304 0002 85B0     		sub	sp, sp, #20
 1305              		.cfi_def_cfa_offset 24
 1306 0004 0190     		str	r0, [sp, #4]
 1307 0006 0B46     		mov	r3, r1
 1308 0008 8DF80330 		strb	r3, [sp, #3]
 1309              		.loc 1 270 0
 1310 000c 174B     		ldr	r3, .L96
 1311 000e 1B68     		ldr	r3, [r3]
 1312 0010 0393     		str	r3, [sp, #12]
 1313              		.loc 1 271 0
 1314 0012 9DF90330 		ldrsb	r3, [sp, #3]
 1315 0016 002B     		cmp	r3, #0
 1316 0018 07DB     		blt	.L92
 1317              		.loc 1 272 0
 1318 001a 9DF80330 		ldrb	r3, [sp, #3]	@ zero_extendqisi2
 1319 001e 1946     		mov	r1, r3
 1320 0020 0198     		ldr	r0, [sp, #4]
 1321 0022 FFF7FEFF 		bl	cmp_write_pfix
 1322 0026 0346     		mov	r3, r0
 1323 0028 14E0     		b	.L93
 1324              	.L92:
 1325              		.loc 1 273 0
 1326 002a 9DF90330 		ldrsb	r3, [sp, #3]
 1327 002e 13F1200F 		cmn	r3, #32
 1328 0032 0BDB     		blt	.L94
 1329              		.loc 1 273 0 is_stmt 0 discriminator 1
 1330 0034 9DF90330 		ldrsb	r3, [sp, #3]
 1331 0038 002B     		cmp	r3, #0
 1332 003a 07DA     		bge	.L94
 1333              		.loc 1 274 0 is_stmt 1
 1334 003c 9DF90330 		ldrsb	r3, [sp, #3]
 1335 0040 1946     		mov	r1, r3
 1336 0042 0198     		ldr	r0, [sp, #4]
 1337 0044 FFF7FEFF 		bl	cmp_write_nfix
 1338 0048 0346     		mov	r3, r0
 1339 004a 03E0     		b	.L93
 1340              	.L94:
 1341              		.loc 1 276 0
 1342 004c 019B     		ldr	r3, [sp, #4]
 1343 004e 0522     		movs	r2, #5
 1344 0050 1A70     		strb	r2, [r3]
 1345              		.loc 1 277 0
 1346 0052 0023     		movs	r3, #0
 1347              	.L93:
 1348              		.loc 1 278 0
 1349 0054 1846     		mov	r0, r3
 1350 0056 054B     		ldr	r3, .L96
 1351 0058 039A     		ldr	r2, [sp, #12]
 1352 005a 1B68     		ldr	r3, [r3]
 1353 005c 9A42     		cmp	r2, r3
 1354 005e 01D0     		beq	.L95
 1355 0060 FFF7FEFF 		bl	__stack_chk_fail
 1356              	.L95:
 1357 0064 05B0     		add	sp, sp, #20
 1358              		.cfi_def_cfa_offset 4
 1359              		@ sp needed
 1360 0066 5DF804FB 		ldr	pc, [sp], #4
ARM GAS  C:\Users\PCHAUT~1\AppData\Local\Temp\ccacj52E.s 			page 26


 1361              	.L97:
 1362 006a 00BF     		.align	2
 1363              	.L96:
 1364 006c 00000000 		.word	__stack_chk_guard
 1365              		.cfi_endproc
 1366              	.LFE16:
 1367              		.size	cmp_write_sfix, .-cmp_write_sfix
 1368              		.section	.text.cmp_write_s8,"ax",%progbits
 1369              		.align	1
 1370              		.p2align 4,,15
 1371              		.global	cmp_write_s8
 1372              		.syntax unified
 1373              		.thumb
 1374              		.thumb_func
 1375              		.fpu fpv4-sp-d16
 1376              		.type	cmp_write_s8, %function
 1377              	cmp_write_s8:
 1378              	.LFB17:
 1379              		.loc 1 280 0
 1380              		.cfi_startproc
 1381              		@ args = 0, pretend = 0, frame = 16
 1382              		@ frame_needed = 0, uses_anonymous_args = 0
 1383 0000 00B5     		push	{lr}
 1384              		.cfi_def_cfa_offset 4
 1385              		.cfi_offset 14, -4
 1386 0002 85B0     		sub	sp, sp, #20
 1387              		.cfi_def_cfa_offset 24
 1388 0004 0190     		str	r0, [sp, #4]
 1389 0006 0B46     		mov	r3, r1
 1390 0008 8DF80330 		strb	r3, [sp, #3]
 1391              		.loc 1 280 0
 1392 000c 134B     		ldr	r3, .L102
 1393 000e 1B68     		ldr	r3, [r3]
 1394 0010 0393     		str	r3, [sp, #12]
 1395              		.loc 1 281 0
 1396 0012 D021     		movs	r1, #208
 1397 0014 0198     		ldr	r0, [sp, #4]
 1398 0016 FFF7FEFF 		bl	write_type_marker
 1399 001a 0346     		mov	r3, r0
 1400 001c 83F00103 		eor	r3, r3, #1
 1401 0020 DBB2     		uxtb	r3, r3
 1402 0022 002B     		cmp	r3, #0
 1403 0024 01D0     		beq	.L99
 1404              		.loc 1 282 0
 1405 0026 0023     		movs	r3, #0
 1406 0028 0CE0     		b	.L100
 1407              	.L99:
 1408              		.loc 1 284 0
 1409 002a 019B     		ldr	r3, [sp, #4]
 1410 002c DB68     		ldr	r3, [r3, #12]
 1411 002e 0DF10301 		add	r1, sp, #3
 1412 0032 0122     		movs	r2, #1
 1413 0034 0198     		ldr	r0, [sp, #4]
 1414 0036 9847     		blx	r3
 1415              	.LVL2:
 1416 0038 0346     		mov	r3, r0
 1417 003a 002B     		cmp	r3, #0
ARM GAS  C:\Users\PCHAUT~1\AppData\Local\Temp\ccacj52E.s 			page 27


 1418 003c 14BF     		ite	ne
 1419 003e 0123     		movne	r3, #1
 1420 0040 0023     		moveq	r3, #0
 1421 0042 DBB2     		uxtb	r3, r3
 1422              	.L100:
 1423              		.loc 1 285 0
 1424 0044 1846     		mov	r0, r3
 1425 0046 054B     		ldr	r3, .L102
 1426 0048 039A     		ldr	r2, [sp, #12]
 1427 004a 1B68     		ldr	r3, [r3]
 1428 004c 9A42     		cmp	r2, r3
 1429 004e 01D0     		beq	.L101
 1430 0050 FFF7FEFF 		bl	__stack_chk_fail
 1431              	.L101:
 1432 0054 05B0     		add	sp, sp, #20
 1433              		.cfi_def_cfa_offset 4
 1434              		@ sp needed
 1435 0056 5DF804FB 		ldr	pc, [sp], #4
 1436              	.L103:
 1437 005a 00BF     		.align	2
 1438              	.L102:
 1439 005c 00000000 		.word	__stack_chk_guard
 1440              		.cfi_endproc
 1441              	.LFE17:
 1442              		.size	cmp_write_s8, .-cmp_write_s8
 1443              		.section	.text.cmp_write_s16,"ax",%progbits
 1444              		.align	1
 1445              		.p2align 4,,15
 1446              		.global	cmp_write_s16
 1447              		.syntax unified
 1448              		.thumb
 1449              		.thumb_func
 1450              		.fpu fpv4-sp-d16
 1451              		.type	cmp_write_s16, %function
 1452              	cmp_write_s16:
 1453              	.LFB18:
 1454              		.loc 1 287 0
 1455              		.cfi_startproc
 1456              		@ args = 0, pretend = 0, frame = 16
 1457              		@ frame_needed = 0, uses_anonymous_args = 0
 1458 0000 00B5     		push	{lr}
 1459              		.cfi_def_cfa_offset 4
 1460              		.cfi_offset 14, -4
 1461 0002 85B0     		sub	sp, sp, #20
 1462              		.cfi_def_cfa_offset 24
 1463 0004 0190     		str	r0, [sp, #4]
 1464 0006 0B46     		mov	r3, r1
 1465 0008 ADF80230 		strh	r3, [sp, #2]	@ movhi
 1466              		.loc 1 287 0
 1467 000c 184B     		ldr	r3, .L108
 1468 000e 1B68     		ldr	r3, [r3]
 1469 0010 0393     		str	r3, [sp, #12]
 1470              		.loc 1 288 0
 1471 0012 D121     		movs	r1, #209
 1472 0014 0198     		ldr	r0, [sp, #4]
 1473 0016 FFF7FEFF 		bl	write_type_marker
 1474 001a 0346     		mov	r3, r0
ARM GAS  C:\Users\PCHAUT~1\AppData\Local\Temp\ccacj52E.s 			page 28


 1475 001c 83F00103 		eor	r3, r3, #1
 1476 0020 DBB2     		uxtb	r3, r3
 1477 0022 002B     		cmp	r3, #0
 1478 0024 01D0     		beq	.L105
 1479              		.loc 1 289 0
 1480 0026 0023     		movs	r3, #0
 1481 0028 16E0     		b	.L106
 1482              	.L105:
 1483              		.loc 1 291 0
 1484 002a BDF90230 		ldrsh	r3, [sp, #2]
 1485 002e 9BB2     		uxth	r3, r3
 1486 0030 1846     		mov	r0, r3
 1487 0032 FFF7FEFF 		bl	be16
 1488 0036 0346     		mov	r3, r0
 1489 0038 1BB2     		sxth	r3, r3
 1490 003a ADF80230 		strh	r3, [sp, #2]	@ movhi
 1491              		.loc 1 293 0
 1492 003e 019B     		ldr	r3, [sp, #4]
 1493 0040 DB68     		ldr	r3, [r3, #12]
 1494 0042 0DF10201 		add	r1, sp, #2
 1495 0046 0222     		movs	r2, #2
 1496 0048 0198     		ldr	r0, [sp, #4]
 1497 004a 9847     		blx	r3
 1498              	.LVL3:
 1499 004c 0346     		mov	r3, r0
 1500 004e 002B     		cmp	r3, #0
 1501 0050 14BF     		ite	ne
 1502 0052 0123     		movne	r3, #1
 1503 0054 0023     		moveq	r3, #0
 1504 0056 DBB2     		uxtb	r3, r3
 1505              	.L106:
 1506              		.loc 1 294 0
 1507 0058 1846     		mov	r0, r3
 1508 005a 054B     		ldr	r3, .L108
 1509 005c 039A     		ldr	r2, [sp, #12]
 1510 005e 1B68     		ldr	r3, [r3]
 1511 0060 9A42     		cmp	r2, r3
 1512 0062 01D0     		beq	.L107
 1513 0064 FFF7FEFF 		bl	__stack_chk_fail
 1514              	.L107:
 1515 0068 05B0     		add	sp, sp, #20
 1516              		.cfi_def_cfa_offset 4
 1517              		@ sp needed
 1518 006a 5DF804FB 		ldr	pc, [sp], #4
 1519              	.L109:
 1520 006e 00BF     		.align	2
 1521              	.L108:
 1522 0070 00000000 		.word	__stack_chk_guard
 1523              		.cfi_endproc
 1524              	.LFE18:
 1525              		.size	cmp_write_s16, .-cmp_write_s16
 1526              		.section	.text.cmp_write_s32,"ax",%progbits
 1527              		.align	1
 1528              		.p2align 4,,15
 1529              		.global	cmp_write_s32
 1530              		.syntax unified
 1531              		.thumb
ARM GAS  C:\Users\PCHAUT~1\AppData\Local\Temp\ccacj52E.s 			page 29


 1532              		.thumb_func
 1533              		.fpu fpv4-sp-d16
 1534              		.type	cmp_write_s32, %function
 1535              	cmp_write_s32:
 1536              	.LFB19:
 1537              		.loc 1 296 0
 1538              		.cfi_startproc
 1539              		@ args = 0, pretend = 0, frame = 16
 1540              		@ frame_needed = 0, uses_anonymous_args = 0
 1541 0000 00B5     		push	{lr}
 1542              		.cfi_def_cfa_offset 4
 1543              		.cfi_offset 14, -4
 1544 0002 85B0     		sub	sp, sp, #20
 1545              		.cfi_def_cfa_offset 24
 1546 0004 0190     		str	r0, [sp, #4]
 1547 0006 0091     		str	r1, [sp]
 1548              		.loc 1 296 0
 1549 0008 154B     		ldr	r3, .L114
 1550 000a 1B68     		ldr	r3, [r3]
 1551 000c 0393     		str	r3, [sp, #12]
 1552              		.loc 1 297 0
 1553 000e D221     		movs	r1, #210
 1554 0010 0198     		ldr	r0, [sp, #4]
 1555 0012 FFF7FEFF 		bl	write_type_marker
 1556 0016 0346     		mov	r3, r0
 1557 0018 83F00103 		eor	r3, r3, #1
 1558 001c DBB2     		uxtb	r3, r3
 1559 001e 002B     		cmp	r3, #0
 1560 0020 01D0     		beq	.L111
 1561              		.loc 1 298 0
 1562 0022 0023     		movs	r3, #0
 1563 0024 11E0     		b	.L112
 1564              	.L111:
 1565              		.loc 1 300 0
 1566 0026 009B     		ldr	r3, [sp]
 1567 0028 1846     		mov	r0, r3
 1568 002a FFF7FEFF 		bl	be32
 1569 002e 0346     		mov	r3, r0
 1570 0030 0093     		str	r3, [sp]
 1571              		.loc 1 302 0
 1572 0032 019B     		ldr	r3, [sp, #4]
 1573 0034 DB68     		ldr	r3, [r3, #12]
 1574 0036 6946     		mov	r1, sp
 1575 0038 0422     		movs	r2, #4
 1576 003a 0198     		ldr	r0, [sp, #4]
 1577 003c 9847     		blx	r3
 1578              	.LVL4:
 1579 003e 0346     		mov	r3, r0
 1580 0040 002B     		cmp	r3, #0
 1581 0042 14BF     		ite	ne
 1582 0044 0123     		movne	r3, #1
 1583 0046 0023     		moveq	r3, #0
 1584 0048 DBB2     		uxtb	r3, r3
 1585              	.L112:
 1586              		.loc 1 303 0
 1587 004a 1846     		mov	r0, r3
 1588 004c 044B     		ldr	r3, .L114
ARM GAS  C:\Users\PCHAUT~1\AppData\Local\Temp\ccacj52E.s 			page 30


 1589 004e 039A     		ldr	r2, [sp, #12]
 1590 0050 1B68     		ldr	r3, [r3]
 1591 0052 9A42     		cmp	r2, r3
 1592 0054 01D0     		beq	.L113
 1593 0056 FFF7FEFF 		bl	__stack_chk_fail
 1594              	.L113:
 1595 005a 05B0     		add	sp, sp, #20
 1596              		.cfi_def_cfa_offset 4
 1597              		@ sp needed
 1598 005c 5DF804FB 		ldr	pc, [sp], #4
 1599              	.L115:
 1600              		.align	2
 1601              	.L114:
 1602 0060 00000000 		.word	__stack_chk_guard
 1603              		.cfi_endproc
 1604              	.LFE19:
 1605              		.size	cmp_write_s32, .-cmp_write_s32
 1606              		.section	.text.cmp_write_s64,"ax",%progbits
 1607              		.align	1
 1608              		.p2align 4,,15
 1609              		.global	cmp_write_s64
 1610              		.syntax unified
 1611              		.thumb
 1612              		.thumb_func
 1613              		.fpu fpv4-sp-d16
 1614              		.type	cmp_write_s64, %function
 1615              	cmp_write_s64:
 1616              	.LFB20:
 1617              		.loc 1 305 0
 1618              		.cfi_startproc
 1619              		@ args = 0, pretend = 0, frame = 24
 1620              		@ frame_needed = 0, uses_anonymous_args = 0
 1621 0000 10B5     		push	{r4, lr}
 1622              		.cfi_def_cfa_offset 8
 1623              		.cfi_offset 4, -8
 1624              		.cfi_offset 14, -4
 1625 0002 86B0     		sub	sp, sp, #24
 1626              		.cfi_def_cfa_offset 32
 1627 0004 0390     		str	r0, [sp, #12]
 1628 0006 CDE90023 		strd	r2, [sp]
 1629              		.loc 1 305 0
 1630 000a 174B     		ldr	r3, .L120
 1631 000c 1B68     		ldr	r3, [r3]
 1632 000e 0593     		str	r3, [sp, #20]
 1633              		.loc 1 306 0
 1634 0010 D321     		movs	r1, #211
 1635 0012 0398     		ldr	r0, [sp, #12]
 1636 0014 FFF7FEFF 		bl	write_type_marker
 1637 0018 0346     		mov	r3, r0
 1638 001a 83F00103 		eor	r3, r3, #1
 1639 001e DBB2     		uxtb	r3, r3
 1640 0020 002B     		cmp	r3, #0
 1641 0022 01D0     		beq	.L117
 1642              		.loc 1 307 0
 1643 0024 0023     		movs	r3, #0
 1644 0026 15E0     		b	.L118
 1645              	.L117:
ARM GAS  C:\Users\PCHAUT~1\AppData\Local\Temp\ccacj52E.s 			page 31


 1646              		.loc 1 309 0
 1647 0028 DDE90034 		ldrd	r3, [sp]
 1648 002c 1846     		mov	r0, r3
 1649 002e 2146     		mov	r1, r4
 1650 0030 FFF7FEFF 		bl	be64
 1651 0034 0346     		mov	r3, r0
 1652 0036 0C46     		mov	r4, r1
 1653 0038 CDE90034 		strd	r3, [sp]
 1654              		.loc 1 311 0
 1655 003c 039B     		ldr	r3, [sp, #12]
 1656 003e DB68     		ldr	r3, [r3, #12]
 1657 0040 6946     		mov	r1, sp
 1658 0042 0822     		movs	r2, #8
 1659 0044 0398     		ldr	r0, [sp, #12]
 1660 0046 9847     		blx	r3
 1661              	.LVL5:
 1662 0048 0346     		mov	r3, r0
 1663 004a 002B     		cmp	r3, #0
 1664 004c 14BF     		ite	ne
 1665 004e 0123     		movne	r3, #1
 1666 0050 0023     		moveq	r3, #0
 1667 0052 DBB2     		uxtb	r3, r3
 1668              	.L118:
 1669              		.loc 1 312 0
 1670 0054 1846     		mov	r0, r3
 1671 0056 044B     		ldr	r3, .L120
 1672 0058 059A     		ldr	r2, [sp, #20]
 1673 005a 1B68     		ldr	r3, [r3]
 1674 005c 9A42     		cmp	r2, r3
 1675 005e 01D0     		beq	.L119
 1676 0060 FFF7FEFF 		bl	__stack_chk_fail
 1677              	.L119:
 1678 0064 06B0     		add	sp, sp, #24
 1679              		.cfi_def_cfa_offset 8
 1680              		@ sp needed
 1681 0066 10BD     		pop	{r4, pc}
 1682              	.L121:
 1683              		.align	2
 1684              	.L120:
 1685 0068 00000000 		.word	__stack_chk_guard
 1686              		.cfi_endproc
 1687              	.LFE20:
 1688              		.size	cmp_write_s64, .-cmp_write_s64
 1689              		.section	.text.cmp_write_sint,"ax",%progbits
 1690              		.align	1
 1691              		.p2align 4,,15
 1692              		.global	cmp_write_sint
 1693              		.syntax unified
 1694              		.thumb
 1695              		.thumb_func
 1696              		.fpu fpv4-sp-d16
 1697              		.type	cmp_write_sint, %function
 1698              	cmp_write_sint:
 1699              	.LFB21:
 1700              		.loc 1 314 0
 1701              		.cfi_startproc
 1702              		@ args = 0, pretend = 0, frame = 24
ARM GAS  C:\Users\PCHAUT~1\AppData\Local\Temp\ccacj52E.s 			page 32


 1703              		@ frame_needed = 0, uses_anonymous_args = 0
 1704 0000 10B5     		push	{r4, lr}
 1705              		.cfi_def_cfa_offset 8
 1706              		.cfi_offset 4, -8
 1707              		.cfi_offset 14, -4
 1708 0002 86B0     		sub	sp, sp, #24
 1709              		.cfi_def_cfa_offset 32
 1710 0004 0390     		str	r0, [sp, #12]
 1711 0006 CDE90023 		strd	r2, [sp]
 1712              		.loc 1 314 0
 1713 000a 324B     		ldr	r3, .L130
 1714 000c 1B68     		ldr	r3, [r3]
 1715 000e 0593     		str	r3, [sp, #20]
 1716              		.loc 1 315 0
 1717 0010 DDE90034 		ldrd	r3, [sp]
 1718 0014 002B     		cmp	r3, #0
 1719 0016 74F10003 		sbcs	r3, r4, #0
 1720 001a 08DB     		blt	.L123
 1721              		.loc 1 316 0
 1722 001c DDE90034 		ldrd	r3, [sp]
 1723 0020 1A46     		mov	r2, r3
 1724 0022 2346     		mov	r3, r4
 1725 0024 0398     		ldr	r0, [sp, #12]
 1726 0026 FFF7FEFF 		bl	cmp_write_uint
 1727 002a 0346     		mov	r3, r0
 1728 002c 48E0     		b	.L124
 1729              	.L123:
 1730              		.loc 1 317 0
 1731 002e DDE90034 		ldrd	r3, [sp]
 1732 0032 6FF01F01 		mvn	r1, #31
 1733 0036 4FF0FF32 		mov	r2, #-1
 1734 003a 8B42     		cmp	r3, r1
 1735 003c 74EB0203 		sbcs	r3, r4, r2
 1736 0040 07DB     		blt	.L125
 1737              		.loc 1 318 0
 1738 0042 9DF90030 		ldrsb	r3, [sp]
 1739 0046 1946     		mov	r1, r3
 1740 0048 0398     		ldr	r0, [sp, #12]
 1741 004a FFF7FEFF 		bl	cmp_write_nfix
 1742 004e 0346     		mov	r3, r0
 1743 0050 36E0     		b	.L124
 1744              	.L125:
 1745              		.loc 1 319 0
 1746 0052 DDE90034 		ldrd	r3, [sp]
 1747 0056 6FF07F01 		mvn	r1, #127
 1748 005a 4FF0FF32 		mov	r2, #-1
 1749 005e 8B42     		cmp	r3, r1
 1750 0060 74EB0203 		sbcs	r3, r4, r2
 1751 0064 07DB     		blt	.L126
 1752              		.loc 1 320 0
 1753 0066 9DF90030 		ldrsb	r3, [sp]
 1754 006a 1946     		mov	r1, r3
 1755 006c 0398     		ldr	r0, [sp, #12]
 1756 006e FFF7FEFF 		bl	cmp_write_s8
 1757 0072 0346     		mov	r3, r0
 1758 0074 24E0     		b	.L124
 1759              	.L126:
ARM GAS  C:\Users\PCHAUT~1\AppData\Local\Temp\ccacj52E.s 			page 33


 1760              		.loc 1 321 0
 1761 0076 DDE90034 		ldrd	r3, [sp]
 1762 007a 1749     		ldr	r1, .L130+4
 1763 007c 4FF0FF32 		mov	r2, #-1
 1764 0080 8B42     		cmp	r3, r1
 1765 0082 74EB0203 		sbcs	r3, r4, r2
 1766 0086 07DB     		blt	.L127
 1767              		.loc 1 322 0
 1768 0088 BDF90030 		ldrsh	r3, [sp]
 1769 008c 1946     		mov	r1, r3
 1770 008e 0398     		ldr	r0, [sp, #12]
 1771 0090 FFF7FEFF 		bl	cmp_write_s16
 1772 0094 0346     		mov	r3, r0
 1773 0096 13E0     		b	.L124
 1774              	.L127:
 1775              		.loc 1 323 0
 1776 0098 DDE90034 		ldrd	r3, [sp]
 1777 009c B3F1004F 		cmp	r3, #-2147483648
 1778 00a0 74F1FF33 		sbcs	r3, r4, #-1
 1779 00a4 06DB     		blt	.L128
 1780              		.loc 1 324 0
 1781 00a6 009B     		ldr	r3, [sp]
 1782 00a8 1946     		mov	r1, r3
 1783 00aa 0398     		ldr	r0, [sp, #12]
 1784 00ac FFF7FEFF 		bl	cmp_write_s32
 1785 00b0 0346     		mov	r3, r0
 1786 00b2 05E0     		b	.L124
 1787              	.L128:
 1788              		.loc 1 326 0
 1789 00b4 DDE90023 		ldrd	r2, [sp]
 1790 00b8 0398     		ldr	r0, [sp, #12]
 1791 00ba FFF7FEFF 		bl	cmp_write_s64
 1792 00be 0346     		mov	r3, r0
 1793              	.L124:
 1794              		.loc 1 327 0
 1795 00c0 1846     		mov	r0, r3
 1796 00c2 044B     		ldr	r3, .L130
 1797 00c4 059A     		ldr	r2, [sp, #20]
 1798 00c6 1B68     		ldr	r3, [r3]
 1799 00c8 9A42     		cmp	r2, r3
 1800 00ca 01D0     		beq	.L129
 1801 00cc FFF7FEFF 		bl	__stack_chk_fail
 1802              	.L129:
 1803 00d0 06B0     		add	sp, sp, #24
 1804              		.cfi_def_cfa_offset 8
 1805              		@ sp needed
 1806 00d2 10BD     		pop	{r4, pc}
 1807              	.L131:
 1808              		.align	2
 1809              	.L130:
 1810 00d4 00000000 		.word	__stack_chk_guard
 1811 00d8 0080FFFF 		.word	-32768
 1812              		.cfi_endproc
 1813              	.LFE21:
 1814              		.size	cmp_write_sint, .-cmp_write_sint
 1815              		.section	.text.cmp_write_ufix,"ax",%progbits
 1816              		.align	1
ARM GAS  C:\Users\PCHAUT~1\AppData\Local\Temp\ccacj52E.s 			page 34


 1817              		.p2align 4,,15
 1818              		.global	cmp_write_ufix
 1819              		.syntax unified
 1820              		.thumb
 1821              		.thumb_func
 1822              		.fpu fpv4-sp-d16
 1823              		.type	cmp_write_ufix, %function
 1824              	cmp_write_ufix:
 1825              	.LFB22:
 1826              		.loc 1 329 0
 1827              		.cfi_startproc
 1828              		@ args = 0, pretend = 0, frame = 16
 1829              		@ frame_needed = 0, uses_anonymous_args = 0
 1830 0000 00B5     		push	{lr}
 1831              		.cfi_def_cfa_offset 4
 1832              		.cfi_offset 14, -4
 1833 0002 85B0     		sub	sp, sp, #20
 1834              		.cfi_def_cfa_offset 24
 1835 0004 0190     		str	r0, [sp, #4]
 1836 0006 0B46     		mov	r3, r1
 1837 0008 8DF80330 		strb	r3, [sp, #3]
 1838              		.loc 1 329 0
 1839 000c 0A4B     		ldr	r3, .L135
 1840 000e 1B68     		ldr	r3, [r3]
 1841 0010 0393     		str	r3, [sp, #12]
 1842              		.loc 1 330 0
 1843 0012 9DF80330 		ldrb	r3, [sp, #3]	@ zero_extendqisi2
 1844 0016 1946     		mov	r1, r3
 1845 0018 0198     		ldr	r0, [sp, #4]
 1846 001a FFF7FEFF 		bl	cmp_write_pfix
 1847 001e 0346     		mov	r3, r0
 1848              		.loc 1 331 0
 1849 0020 1846     		mov	r0, r3
 1850 0022 054B     		ldr	r3, .L135
 1851 0024 039A     		ldr	r2, [sp, #12]
 1852 0026 1B68     		ldr	r3, [r3]
 1853 0028 9A42     		cmp	r2, r3
 1854 002a 01D0     		beq	.L134
 1855 002c FFF7FEFF 		bl	__stack_chk_fail
 1856              	.L134:
 1857 0030 05B0     		add	sp, sp, #20
 1858              		.cfi_def_cfa_offset 4
 1859              		@ sp needed
 1860 0032 5DF804FB 		ldr	pc, [sp], #4
 1861              	.L136:
 1862 0036 00BF     		.align	2
 1863              	.L135:
 1864 0038 00000000 		.word	__stack_chk_guard
 1865              		.cfi_endproc
 1866              	.LFE22:
 1867              		.size	cmp_write_ufix, .-cmp_write_ufix
 1868              		.section	.text.cmp_write_u8,"ax",%progbits
 1869              		.align	1
 1870              		.p2align 4,,15
 1871              		.global	cmp_write_u8
 1872              		.syntax unified
 1873              		.thumb
ARM GAS  C:\Users\PCHAUT~1\AppData\Local\Temp\ccacj52E.s 			page 35


 1874              		.thumb_func
 1875              		.fpu fpv4-sp-d16
 1876              		.type	cmp_write_u8, %function
 1877              	cmp_write_u8:
 1878              	.LFB23:
 1879              		.loc 1 333 0
 1880              		.cfi_startproc
 1881              		@ args = 0, pretend = 0, frame = 16
 1882              		@ frame_needed = 0, uses_anonymous_args = 0
 1883 0000 00B5     		push	{lr}
 1884              		.cfi_def_cfa_offset 4
 1885              		.cfi_offset 14, -4
 1886 0002 85B0     		sub	sp, sp, #20
 1887              		.cfi_def_cfa_offset 24
 1888 0004 0190     		str	r0, [sp, #4]
 1889 0006 0B46     		mov	r3, r1
 1890 0008 8DF80330 		strb	r3, [sp, #3]
 1891              		.loc 1 333 0
 1892 000c 134B     		ldr	r3, .L141
 1893 000e 1B68     		ldr	r3, [r3]
 1894 0010 0393     		str	r3, [sp, #12]
 1895              		.loc 1 334 0
 1896 0012 CC21     		movs	r1, #204
 1897 0014 0198     		ldr	r0, [sp, #4]
 1898 0016 FFF7FEFF 		bl	write_type_marker
 1899 001a 0346     		mov	r3, r0
 1900 001c 83F00103 		eor	r3, r3, #1
 1901 0020 DBB2     		uxtb	r3, r3
 1902 0022 002B     		cmp	r3, #0
 1903 0024 01D0     		beq	.L138
 1904              		.loc 1 335 0
 1905 0026 0023     		movs	r3, #0
 1906 0028 0CE0     		b	.L139
 1907              	.L138:
 1908              		.loc 1 337 0
 1909 002a 019B     		ldr	r3, [sp, #4]
 1910 002c DB68     		ldr	r3, [r3, #12]
 1911 002e 0DF10301 		add	r1, sp, #3
 1912 0032 0122     		movs	r2, #1
 1913 0034 0198     		ldr	r0, [sp, #4]
 1914 0036 9847     		blx	r3
 1915              	.LVL6:
 1916 0038 0346     		mov	r3, r0
 1917 003a 002B     		cmp	r3, #0
 1918 003c 14BF     		ite	ne
 1919 003e 0123     		movne	r3, #1
 1920 0040 0023     		moveq	r3, #0
 1921 0042 DBB2     		uxtb	r3, r3
 1922              	.L139:
 1923              		.loc 1 338 0
 1924 0044 1846     		mov	r0, r3
 1925 0046 054B     		ldr	r3, .L141
 1926 0048 039A     		ldr	r2, [sp, #12]
 1927 004a 1B68     		ldr	r3, [r3]
 1928 004c 9A42     		cmp	r2, r3
 1929 004e 01D0     		beq	.L140
 1930 0050 FFF7FEFF 		bl	__stack_chk_fail
ARM GAS  C:\Users\PCHAUT~1\AppData\Local\Temp\ccacj52E.s 			page 36


 1931              	.L140:
 1932 0054 05B0     		add	sp, sp, #20
 1933              		.cfi_def_cfa_offset 4
 1934              		@ sp needed
 1935 0056 5DF804FB 		ldr	pc, [sp], #4
 1936              	.L142:
 1937 005a 00BF     		.align	2
 1938              	.L141:
 1939 005c 00000000 		.word	__stack_chk_guard
 1940              		.cfi_endproc
 1941              	.LFE23:
 1942              		.size	cmp_write_u8, .-cmp_write_u8
 1943              		.section	.text.cmp_write_u16,"ax",%progbits
 1944              		.align	1
 1945              		.p2align 4,,15
 1946              		.global	cmp_write_u16
 1947              		.syntax unified
 1948              		.thumb
 1949              		.thumb_func
 1950              		.fpu fpv4-sp-d16
 1951              		.type	cmp_write_u16, %function
 1952              	cmp_write_u16:
 1953              	.LFB24:
 1954              		.loc 1 340 0
 1955              		.cfi_startproc
 1956              		@ args = 0, pretend = 0, frame = 16
 1957              		@ frame_needed = 0, uses_anonymous_args = 0
 1958 0000 00B5     		push	{lr}
 1959              		.cfi_def_cfa_offset 4
 1960              		.cfi_offset 14, -4
 1961 0002 85B0     		sub	sp, sp, #20
 1962              		.cfi_def_cfa_offset 24
 1963 0004 0190     		str	r0, [sp, #4]
 1964 0006 0B46     		mov	r3, r1
 1965 0008 ADF80230 		strh	r3, [sp, #2]	@ movhi
 1966              		.loc 1 340 0
 1967 000c 174B     		ldr	r3, .L147
 1968 000e 1B68     		ldr	r3, [r3]
 1969 0010 0393     		str	r3, [sp, #12]
 1970              		.loc 1 341 0
 1971 0012 CD21     		movs	r1, #205
 1972 0014 0198     		ldr	r0, [sp, #4]
 1973 0016 FFF7FEFF 		bl	write_type_marker
 1974 001a 0346     		mov	r3, r0
 1975 001c 83F00103 		eor	r3, r3, #1
 1976 0020 DBB2     		uxtb	r3, r3
 1977 0022 002B     		cmp	r3, #0
 1978 0024 01D0     		beq	.L144
 1979              		.loc 1 342 0
 1980 0026 0023     		movs	r3, #0
 1981 0028 14E0     		b	.L145
 1982              	.L144:
 1983              		.loc 1 344 0
 1984 002a BDF80230 		ldrh	r3, [sp, #2]
 1985 002e 1846     		mov	r0, r3
 1986 0030 FFF7FEFF 		bl	be16
 1987 0034 0346     		mov	r3, r0
ARM GAS  C:\Users\PCHAUT~1\AppData\Local\Temp\ccacj52E.s 			page 37


 1988 0036 ADF80230 		strh	r3, [sp, #2]	@ movhi
 1989              		.loc 1 346 0
 1990 003a 019B     		ldr	r3, [sp, #4]
 1991 003c DB68     		ldr	r3, [r3, #12]
 1992 003e 0DF10201 		add	r1, sp, #2
 1993 0042 0222     		movs	r2, #2
 1994 0044 0198     		ldr	r0, [sp, #4]
 1995 0046 9847     		blx	r3
 1996              	.LVL7:
 1997 0048 0346     		mov	r3, r0
 1998 004a 002B     		cmp	r3, #0
 1999 004c 14BF     		ite	ne
 2000 004e 0123     		movne	r3, #1
 2001 0050 0023     		moveq	r3, #0
 2002 0052 DBB2     		uxtb	r3, r3
 2003              	.L145:
 2004              		.loc 1 347 0
 2005 0054 1846     		mov	r0, r3
 2006 0056 054B     		ldr	r3, .L147
 2007 0058 039A     		ldr	r2, [sp, #12]
 2008 005a 1B68     		ldr	r3, [r3]
 2009 005c 9A42     		cmp	r2, r3
 2010 005e 01D0     		beq	.L146
 2011 0060 FFF7FEFF 		bl	__stack_chk_fail
 2012              	.L146:
 2013 0064 05B0     		add	sp, sp, #20
 2014              		.cfi_def_cfa_offset 4
 2015              		@ sp needed
 2016 0066 5DF804FB 		ldr	pc, [sp], #4
 2017              	.L148:
 2018 006a 00BF     		.align	2
 2019              	.L147:
 2020 006c 00000000 		.word	__stack_chk_guard
 2021              		.cfi_endproc
 2022              	.LFE24:
 2023              		.size	cmp_write_u16, .-cmp_write_u16
 2024              		.section	.text.cmp_write_u32,"ax",%progbits
 2025              		.align	1
 2026              		.p2align 4,,15
 2027              		.global	cmp_write_u32
 2028              		.syntax unified
 2029              		.thumb
 2030              		.thumb_func
 2031              		.fpu fpv4-sp-d16
 2032              		.type	cmp_write_u32, %function
 2033              	cmp_write_u32:
 2034              	.LFB25:
 2035              		.loc 1 349 0
 2036              		.cfi_startproc
 2037              		@ args = 0, pretend = 0, frame = 16
 2038              		@ frame_needed = 0, uses_anonymous_args = 0
 2039 0000 00B5     		push	{lr}
 2040              		.cfi_def_cfa_offset 4
 2041              		.cfi_offset 14, -4
 2042 0002 85B0     		sub	sp, sp, #20
 2043              		.cfi_def_cfa_offset 24
 2044 0004 0190     		str	r0, [sp, #4]
ARM GAS  C:\Users\PCHAUT~1\AppData\Local\Temp\ccacj52E.s 			page 38


 2045 0006 0091     		str	r1, [sp]
 2046              		.loc 1 349 0
 2047 0008 154B     		ldr	r3, .L153
 2048 000a 1B68     		ldr	r3, [r3]
 2049 000c 0393     		str	r3, [sp, #12]
 2050              		.loc 1 350 0
 2051 000e CE21     		movs	r1, #206
 2052 0010 0198     		ldr	r0, [sp, #4]
 2053 0012 FFF7FEFF 		bl	write_type_marker
 2054 0016 0346     		mov	r3, r0
 2055 0018 83F00103 		eor	r3, r3, #1
 2056 001c DBB2     		uxtb	r3, r3
 2057 001e 002B     		cmp	r3, #0
 2058 0020 01D0     		beq	.L150
 2059              		.loc 1 351 0
 2060 0022 0023     		movs	r3, #0
 2061 0024 11E0     		b	.L151
 2062              	.L150:
 2063              		.loc 1 353 0
 2064 0026 009B     		ldr	r3, [sp]
 2065 0028 1846     		mov	r0, r3
 2066 002a FFF7FEFF 		bl	be32
 2067 002e 0346     		mov	r3, r0
 2068 0030 0093     		str	r3, [sp]
 2069              		.loc 1 355 0
 2070 0032 019B     		ldr	r3, [sp, #4]
 2071 0034 DB68     		ldr	r3, [r3, #12]
 2072 0036 6946     		mov	r1, sp
 2073 0038 0422     		movs	r2, #4
 2074 003a 0198     		ldr	r0, [sp, #4]
 2075 003c 9847     		blx	r3
 2076              	.LVL8:
 2077 003e 0346     		mov	r3, r0
 2078 0040 002B     		cmp	r3, #0
 2079 0042 14BF     		ite	ne
 2080 0044 0123     		movne	r3, #1
 2081 0046 0023     		moveq	r3, #0
 2082 0048 DBB2     		uxtb	r3, r3
 2083              	.L151:
 2084              		.loc 1 356 0
 2085 004a 1846     		mov	r0, r3
 2086 004c 044B     		ldr	r3, .L153
 2087 004e 039A     		ldr	r2, [sp, #12]
 2088 0050 1B68     		ldr	r3, [r3]
 2089 0052 9A42     		cmp	r2, r3
 2090 0054 01D0     		beq	.L152
 2091 0056 FFF7FEFF 		bl	__stack_chk_fail
 2092              	.L152:
 2093 005a 05B0     		add	sp, sp, #20
 2094              		.cfi_def_cfa_offset 4
 2095              		@ sp needed
 2096 005c 5DF804FB 		ldr	pc, [sp], #4
 2097              	.L154:
 2098              		.align	2
 2099              	.L153:
 2100 0060 00000000 		.word	__stack_chk_guard
 2101              		.cfi_endproc
ARM GAS  C:\Users\PCHAUT~1\AppData\Local\Temp\ccacj52E.s 			page 39


 2102              	.LFE25:
 2103              		.size	cmp_write_u32, .-cmp_write_u32
 2104              		.section	.text.cmp_write_u64,"ax",%progbits
 2105              		.align	1
 2106              		.p2align 4,,15
 2107              		.global	cmp_write_u64
 2108              		.syntax unified
 2109              		.thumb
 2110              		.thumb_func
 2111              		.fpu fpv4-sp-d16
 2112              		.type	cmp_write_u64, %function
 2113              	cmp_write_u64:
 2114              	.LFB26:
 2115              		.loc 1 358 0
 2116              		.cfi_startproc
 2117              		@ args = 0, pretend = 0, frame = 24
 2118              		@ frame_needed = 0, uses_anonymous_args = 0
 2119 0000 10B5     		push	{r4, lr}
 2120              		.cfi_def_cfa_offset 8
 2121              		.cfi_offset 4, -8
 2122              		.cfi_offset 14, -4
 2123 0002 86B0     		sub	sp, sp, #24
 2124              		.cfi_def_cfa_offset 32
 2125 0004 0390     		str	r0, [sp, #12]
 2126 0006 CDE90023 		strd	r2, [sp]
 2127              		.loc 1 358 0
 2128 000a 174B     		ldr	r3, .L159
 2129 000c 1B68     		ldr	r3, [r3]
 2130 000e 0593     		str	r3, [sp, #20]
 2131              		.loc 1 359 0
 2132 0010 CF21     		movs	r1, #207
 2133 0012 0398     		ldr	r0, [sp, #12]
 2134 0014 FFF7FEFF 		bl	write_type_marker
 2135 0018 0346     		mov	r3, r0
 2136 001a 83F00103 		eor	r3, r3, #1
 2137 001e DBB2     		uxtb	r3, r3
 2138 0020 002B     		cmp	r3, #0
 2139 0022 01D0     		beq	.L156
 2140              		.loc 1 360 0
 2141 0024 0023     		movs	r3, #0
 2142 0026 15E0     		b	.L157
 2143              	.L156:
 2144              		.loc 1 362 0
 2145 0028 DDE90034 		ldrd	r3, [sp]
 2146 002c 1846     		mov	r0, r3
 2147 002e 2146     		mov	r1, r4
 2148 0030 FFF7FEFF 		bl	be64
 2149 0034 0346     		mov	r3, r0
 2150 0036 0C46     		mov	r4, r1
 2151 0038 CDE90034 		strd	r3, [sp]
 2152              		.loc 1 364 0
 2153 003c 039B     		ldr	r3, [sp, #12]
 2154 003e DB68     		ldr	r3, [r3, #12]
 2155 0040 6946     		mov	r1, sp
 2156 0042 0822     		movs	r2, #8
 2157 0044 0398     		ldr	r0, [sp, #12]
 2158 0046 9847     		blx	r3
ARM GAS  C:\Users\PCHAUT~1\AppData\Local\Temp\ccacj52E.s 			page 40


 2159              	.LVL9:
 2160 0048 0346     		mov	r3, r0
 2161 004a 002B     		cmp	r3, #0
 2162 004c 14BF     		ite	ne
 2163 004e 0123     		movne	r3, #1
 2164 0050 0023     		moveq	r3, #0
 2165 0052 DBB2     		uxtb	r3, r3
 2166              	.L157:
 2167              		.loc 1 365 0
 2168 0054 1846     		mov	r0, r3
 2169 0056 044B     		ldr	r3, .L159
 2170 0058 059A     		ldr	r2, [sp, #20]
 2171 005a 1B68     		ldr	r3, [r3]
 2172 005c 9A42     		cmp	r2, r3
 2173 005e 01D0     		beq	.L158
 2174 0060 FFF7FEFF 		bl	__stack_chk_fail
 2175              	.L158:
 2176 0064 06B0     		add	sp, sp, #24
 2177              		.cfi_def_cfa_offset 8
 2178              		@ sp needed
 2179 0066 10BD     		pop	{r4, pc}
 2180              	.L160:
 2181              		.align	2
 2182              	.L159:
 2183 0068 00000000 		.word	__stack_chk_guard
 2184              		.cfi_endproc
 2185              	.LFE26:
 2186              		.size	cmp_write_u64, .-cmp_write_u64
 2187              		.section	.text.cmp_write_uint,"ax",%progbits
 2188              		.align	1
 2189              		.p2align 4,,15
 2190              		.global	cmp_write_uint
 2191              		.syntax unified
 2192              		.thumb
 2193              		.thumb_func
 2194              		.fpu fpv4-sp-d16
 2195              		.type	cmp_write_uint, %function
 2196              	cmp_write_uint:
 2197              	.LFB27:
 2198              		.loc 1 367 0
 2199              		.cfi_startproc
 2200              		@ args = 0, pretend = 0, frame = 24
 2201              		@ frame_needed = 0, uses_anonymous_args = 0
 2202 0000 10B5     		push	{r4, lr}
 2203              		.cfi_def_cfa_offset 8
 2204              		.cfi_offset 4, -8
 2205              		.cfi_offset 14, -4
 2206 0002 86B0     		sub	sp, sp, #24
 2207              		.cfi_def_cfa_offset 32
 2208 0004 0390     		str	r0, [sp, #12]
 2209 0006 CDE90023 		strd	r2, [sp]
 2210              		.loc 1 367 0
 2211 000a 274B     		ldr	r3, .L168
 2212 000c 1B68     		ldr	r3, [r3]
 2213 000e 0593     		str	r3, [sp, #20]
 2214              		.loc 1 368 0
 2215 0010 DDE90034 		ldrd	r3, [sp]
ARM GAS  C:\Users\PCHAUT~1\AppData\Local\Temp\ccacj52E.s 			page 41


 2216 0014 002C     		cmp	r4, #0
 2217 0016 08BF     		it	eq
 2218 0018 802B     		cmpeq	r3, #128
 2219 001a 07D2     		bcs	.L162
 2220              		.loc 1 369 0
 2221 001c 9DF80030 		ldrb	r3, [sp]	@ zero_extendqisi2
 2222 0020 1946     		mov	r1, r3
 2223 0022 0398     		ldr	r0, [sp, #12]
 2224 0024 FFF7FEFF 		bl	cmp_write_pfix
 2225 0028 0346     		mov	r3, r0
 2226 002a 33E0     		b	.L163
 2227              	.L162:
 2228              		.loc 1 370 0
 2229 002c DDE90034 		ldrd	r3, [sp]
 2230 0030 002C     		cmp	r4, #0
 2231 0032 08BF     		it	eq
 2232 0034 B3F5807F 		cmpeq	r3, #256
 2233 0038 07D2     		bcs	.L164
 2234              		.loc 1 371 0
 2235 003a 9DF80030 		ldrb	r3, [sp]	@ zero_extendqisi2
 2236 003e 1946     		mov	r1, r3
 2237 0040 0398     		ldr	r0, [sp, #12]
 2238 0042 FFF7FEFF 		bl	cmp_write_u8
 2239 0046 0346     		mov	r3, r0
 2240 0048 24E0     		b	.L163
 2241              	.L164:
 2242              		.loc 1 372 0
 2243 004a DDE90034 		ldrd	r3, [sp]
 2244 004e 4FF6FF71 		movw	r1, #65535
 2245 0052 4FF00002 		mov	r2, #0
 2246 0056 A242     		cmp	r2, r4
 2247 0058 08BF     		it	eq
 2248 005a 9942     		cmpeq	r1, r3
 2249 005c 07D3     		bcc	.L165
 2250              		.loc 1 373 0
 2251 005e BDF80030 		ldrh	r3, [sp]
 2252 0062 1946     		mov	r1, r3
 2253 0064 0398     		ldr	r0, [sp, #12]
 2254 0066 FFF7FEFF 		bl	cmp_write_u16
 2255 006a 0346     		mov	r3, r0
 2256 006c 12E0     		b	.L163
 2257              	.L165:
 2258              		.loc 1 374 0
 2259 006e DDE90034 		ldrd	r3, [sp]
 2260 0072 012C     		cmp	r4, #1
 2261 0074 08BF     		it	eq
 2262 0076 002B     		cmpeq	r3, #0
 2263 0078 06D2     		bcs	.L166
 2264              		.loc 1 375 0
 2265 007a 009B     		ldr	r3, [sp]
 2266 007c 1946     		mov	r1, r3
 2267 007e 0398     		ldr	r0, [sp, #12]
 2268 0080 FFF7FEFF 		bl	cmp_write_u32
 2269 0084 0346     		mov	r3, r0
 2270 0086 05E0     		b	.L163
 2271              	.L166:
 2272              		.loc 1 377 0
ARM GAS  C:\Users\PCHAUT~1\AppData\Local\Temp\ccacj52E.s 			page 42


 2273 0088 DDE90023 		ldrd	r2, [sp]
 2274 008c 0398     		ldr	r0, [sp, #12]
 2275 008e FFF7FEFF 		bl	cmp_write_u64
 2276 0092 0346     		mov	r3, r0
 2277              	.L163:
 2278              		.loc 1 378 0
 2279 0094 1846     		mov	r0, r3
 2280 0096 044B     		ldr	r3, .L168
 2281 0098 059A     		ldr	r2, [sp, #20]
 2282 009a 1B68     		ldr	r3, [r3]
 2283 009c 9A42     		cmp	r2, r3
 2284 009e 01D0     		beq	.L167
 2285 00a0 FFF7FEFF 		bl	__stack_chk_fail
 2286              	.L167:
 2287 00a4 06B0     		add	sp, sp, #24
 2288              		.cfi_def_cfa_offset 8
 2289              		@ sp needed
 2290 00a6 10BD     		pop	{r4, pc}
 2291              	.L169:
 2292              		.align	2
 2293              	.L168:
 2294 00a8 00000000 		.word	__stack_chk_guard
 2295              		.cfi_endproc
 2296              	.LFE27:
 2297              		.size	cmp_write_uint, .-cmp_write_uint
 2298              		.section	.text.cmp_write_float,"ax",%progbits
 2299              		.align	1
 2300              		.p2align 4,,15
 2301              		.global	cmp_write_float
 2302              		.syntax unified
 2303              		.thumb
 2304              		.thumb_func
 2305              		.fpu fpv4-sp-d16
 2306              		.type	cmp_write_float, %function
 2307              	cmp_write_float:
 2308              	.LFB28:
 2309              		.loc 1 380 0
 2310              		.cfi_startproc
 2311              		@ args = 0, pretend = 0, frame = 16
 2312              		@ frame_needed = 0, uses_anonymous_args = 0
 2313 0000 00B5     		push	{lr}
 2314              		.cfi_def_cfa_offset 4
 2315              		.cfi_offset 14, -4
 2316 0002 85B0     		sub	sp, sp, #20
 2317              		.cfi_def_cfa_offset 24
 2318 0004 0190     		str	r0, [sp, #4]
 2319 0006 8DED000A 		vstr.32	s0, [sp]
 2320              		.loc 1 380 0
 2321 000a 184B     		ldr	r3, .L174
 2322 000c 1B68     		ldr	r3, [r3]
 2323 000e 0393     		str	r3, [sp, #12]
 2324              		.loc 1 381 0
 2325 0010 CA21     		movs	r1, #202
 2326 0012 0198     		ldr	r0, [sp, #4]
 2327 0014 FFF7FEFF 		bl	write_type_marker
 2328 0018 0346     		mov	r3, r0
 2329 001a 83F00103 		eor	r3, r3, #1
ARM GAS  C:\Users\PCHAUT~1\AppData\Local\Temp\ccacj52E.s 			page 43


 2330 001e DBB2     		uxtb	r3, r3
 2331 0020 002B     		cmp	r3, #0
 2332 0022 01D0     		beq	.L171
 2333              		.loc 1 382 0
 2334 0024 0023     		movs	r3, #0
 2335 0026 15E0     		b	.L172
 2336              	.L171:
 2337              		.loc 1 384 0
 2338 0028 DDED007A 		vldr.32	s15, [sp]
 2339 002c B0EE670A 		vmov.f32	s0, s15
 2340 0030 FFF7FEFF 		bl	befloat
 2341 0034 F0EE407A 		vmov.f32	s15, s0
 2342 0038 CDED007A 		vstr.32	s15, [sp]
 2343              		.loc 1 386 0
 2344 003c 019B     		ldr	r3, [sp, #4]
 2345 003e DB68     		ldr	r3, [r3, #12]
 2346 0040 6946     		mov	r1, sp
 2347 0042 0422     		movs	r2, #4
 2348 0044 0198     		ldr	r0, [sp, #4]
 2349 0046 9847     		blx	r3
 2350              	.LVL10:
 2351 0048 0346     		mov	r3, r0
 2352 004a 002B     		cmp	r3, #0
 2353 004c 14BF     		ite	ne
 2354 004e 0123     		movne	r3, #1
 2355 0050 0023     		moveq	r3, #0
 2356 0052 DBB2     		uxtb	r3, r3
 2357              	.L172:
 2358              		.loc 1 387 0
 2359 0054 1846     		mov	r0, r3
 2360 0056 054B     		ldr	r3, .L174
 2361 0058 039A     		ldr	r2, [sp, #12]
 2362 005a 1B68     		ldr	r3, [r3]
 2363 005c 9A42     		cmp	r2, r3
 2364 005e 01D0     		beq	.L173
 2365 0060 FFF7FEFF 		bl	__stack_chk_fail
 2366              	.L173:
 2367 0064 05B0     		add	sp, sp, #20
 2368              		.cfi_def_cfa_offset 4
 2369              		@ sp needed
 2370 0066 5DF804FB 		ldr	pc, [sp], #4
 2371              	.L175:
 2372 006a 00BF     		.align	2
 2373              	.L174:
 2374 006c 00000000 		.word	__stack_chk_guard
 2375              		.cfi_endproc
 2376              	.LFE28:
 2377              		.size	cmp_write_float, .-cmp_write_float
 2378              		.section	.text.cmp_write_double,"ax",%progbits
 2379              		.align	1
 2380              		.p2align 4,,15
 2381              		.global	cmp_write_double
 2382              		.syntax unified
 2383              		.thumb
 2384              		.thumb_func
 2385              		.fpu fpv4-sp-d16
 2386              		.type	cmp_write_double, %function
ARM GAS  C:\Users\PCHAUT~1\AppData\Local\Temp\ccacj52E.s 			page 44


 2387              	cmp_write_double:
 2388              	.LFB29:
 2389              		.loc 1 389 0
 2390              		.cfi_startproc
 2391              		@ args = 0, pretend = 0, frame = 24
 2392              		@ frame_needed = 0, uses_anonymous_args = 0
 2393 0000 00B5     		push	{lr}
 2394              		.cfi_def_cfa_offset 4
 2395              		.cfi_offset 14, -4
 2396 0002 87B0     		sub	sp, sp, #28
 2397              		.cfi_def_cfa_offset 32
 2398 0004 0390     		str	r0, [sp, #12]
 2399 0006 8DED000B 		vstr.64	d0, [sp]
 2400              		.loc 1 389 0
 2401 000a 1A4B     		ldr	r3, .L180
 2402 000c 1B68     		ldr	r3, [r3]
 2403 000e 0593     		str	r3, [sp, #20]
 2404              		.loc 1 390 0
 2405 0010 CB21     		movs	r1, #203
 2406 0012 0398     		ldr	r0, [sp, #12]
 2407 0014 FFF7FEFF 		bl	write_type_marker
 2408 0018 0346     		mov	r3, r0
 2409 001a 83F00103 		eor	r3, r3, #1
 2410 001e DBB2     		uxtb	r3, r3
 2411 0020 002B     		cmp	r3, #0
 2412 0022 01D0     		beq	.L177
 2413              		.loc 1 391 0
 2414 0024 0023     		movs	r3, #0
 2415 0026 19E0     		b	.L178
 2416              	.L177:
 2417              		.loc 1 393 0
 2418 0028 9DED007B 		vldr.64	d7, [sp]
 2419 002c B0EE470A 		vmov.f32	s0, s14
 2420 0030 F0EE670A 		vmov.f32	s1, s15
 2421 0034 FFF7FEFF 		bl	bedouble
 2422 0038 B0EE407A 		vmov.f32	s14, s0
 2423 003c F0EE607A 		vmov.f32	s15, s1
 2424 0040 8DED007B 		vstr.64	d7, [sp]
 2425              		.loc 1 395 0
 2426 0044 039B     		ldr	r3, [sp, #12]
 2427 0046 DB68     		ldr	r3, [r3, #12]
 2428 0048 6946     		mov	r1, sp
 2429 004a 0822     		movs	r2, #8
 2430 004c 0398     		ldr	r0, [sp, #12]
 2431 004e 9847     		blx	r3
 2432              	.LVL11:
 2433 0050 0346     		mov	r3, r0
 2434 0052 002B     		cmp	r3, #0
 2435 0054 14BF     		ite	ne
 2436 0056 0123     		movne	r3, #1
 2437 0058 0023     		moveq	r3, #0
 2438 005a DBB2     		uxtb	r3, r3
 2439              	.L178:
 2440              		.loc 1 396 0
 2441 005c 1846     		mov	r0, r3
 2442 005e 054B     		ldr	r3, .L180
 2443 0060 059A     		ldr	r2, [sp, #20]
ARM GAS  C:\Users\PCHAUT~1\AppData\Local\Temp\ccacj52E.s 			page 45


 2444 0062 1B68     		ldr	r3, [r3]
 2445 0064 9A42     		cmp	r2, r3
 2446 0066 01D0     		beq	.L179
 2447 0068 FFF7FEFF 		bl	__stack_chk_fail
 2448              	.L179:
 2449 006c 07B0     		add	sp, sp, #28
 2450              		.cfi_def_cfa_offset 4
 2451              		@ sp needed
 2452 006e 5DF804FB 		ldr	pc, [sp], #4
 2453              	.L181:
 2454 0072 00BF     		.align	2
 2455              	.L180:
 2456 0074 00000000 		.word	__stack_chk_guard
 2457              		.cfi_endproc
 2458              	.LFE29:
 2459              		.size	cmp_write_double, .-cmp_write_double
 2460              		.section	.text.cmp_write_nil,"ax",%progbits
 2461              		.align	1
 2462              		.p2align 4,,15
 2463              		.global	cmp_write_nil
 2464              		.syntax unified
 2465              		.thumb
 2466              		.thumb_func
 2467              		.fpu fpv4-sp-d16
 2468              		.type	cmp_write_nil, %function
 2469              	cmp_write_nil:
 2470              	.LFB30:
 2471              		.loc 1 398 0
 2472              		.cfi_startproc
 2473              		@ args = 0, pretend = 0, frame = 16
 2474              		@ frame_needed = 0, uses_anonymous_args = 0
 2475 0000 00B5     		push	{lr}
 2476              		.cfi_def_cfa_offset 4
 2477              		.cfi_offset 14, -4
 2478 0002 85B0     		sub	sp, sp, #20
 2479              		.cfi_def_cfa_offset 24
 2480 0004 0190     		str	r0, [sp, #4]
 2481              		.loc 1 398 0
 2482 0006 094B     		ldr	r3, .L185
 2483 0008 1B68     		ldr	r3, [r3]
 2484 000a 0393     		str	r3, [sp, #12]
 2485              		.loc 1 399 0
 2486 000c C021     		movs	r1, #192
 2487 000e 0198     		ldr	r0, [sp, #4]
 2488 0010 FFF7FEFF 		bl	write_type_marker
 2489 0014 0346     		mov	r3, r0
 2490              		.loc 1 400 0
 2491 0016 1846     		mov	r0, r3
 2492 0018 044B     		ldr	r3, .L185
 2493 001a 039A     		ldr	r2, [sp, #12]
 2494 001c 1B68     		ldr	r3, [r3]
 2495 001e 9A42     		cmp	r2, r3
 2496 0020 01D0     		beq	.L184
 2497 0022 FFF7FEFF 		bl	__stack_chk_fail
 2498              	.L184:
 2499 0026 05B0     		add	sp, sp, #20
 2500              		.cfi_def_cfa_offset 4
ARM GAS  C:\Users\PCHAUT~1\AppData\Local\Temp\ccacj52E.s 			page 46


 2501              		@ sp needed
 2502 0028 5DF804FB 		ldr	pc, [sp], #4
 2503              	.L186:
 2504              		.align	2
 2505              	.L185:
 2506 002c 00000000 		.word	__stack_chk_guard
 2507              		.cfi_endproc
 2508              	.LFE30:
 2509              		.size	cmp_write_nil, .-cmp_write_nil
 2510              		.section	.text.cmp_write_true,"ax",%progbits
 2511              		.align	1
 2512              		.p2align 4,,15
 2513              		.global	cmp_write_true
 2514              		.syntax unified
 2515              		.thumb
 2516              		.thumb_func
 2517              		.fpu fpv4-sp-d16
 2518              		.type	cmp_write_true, %function
 2519              	cmp_write_true:
 2520              	.LFB31:
 2521              		.loc 1 402 0
 2522              		.cfi_startproc
 2523              		@ args = 0, pretend = 0, frame = 16
 2524              		@ frame_needed = 0, uses_anonymous_args = 0
 2525 0000 00B5     		push	{lr}
 2526              		.cfi_def_cfa_offset 4
 2527              		.cfi_offset 14, -4
 2528 0002 85B0     		sub	sp, sp, #20
 2529              		.cfi_def_cfa_offset 24
 2530 0004 0190     		str	r0, [sp, #4]
 2531              		.loc 1 402 0
 2532 0006 094B     		ldr	r3, .L190
 2533 0008 1B68     		ldr	r3, [r3]
 2534 000a 0393     		str	r3, [sp, #12]
 2535              		.loc 1 403 0
 2536 000c C321     		movs	r1, #195
 2537 000e 0198     		ldr	r0, [sp, #4]
 2538 0010 FFF7FEFF 		bl	write_type_marker
 2539 0014 0346     		mov	r3, r0
 2540              		.loc 1 404 0
 2541 0016 1846     		mov	r0, r3
 2542 0018 044B     		ldr	r3, .L190
 2543 001a 039A     		ldr	r2, [sp, #12]
 2544 001c 1B68     		ldr	r3, [r3]
 2545 001e 9A42     		cmp	r2, r3
 2546 0020 01D0     		beq	.L189
 2547 0022 FFF7FEFF 		bl	__stack_chk_fail
 2548              	.L189:
 2549 0026 05B0     		add	sp, sp, #20
 2550              		.cfi_def_cfa_offset 4
 2551              		@ sp needed
 2552 0028 5DF804FB 		ldr	pc, [sp], #4
 2553              	.L191:
 2554              		.align	2
 2555              	.L190:
 2556 002c 00000000 		.word	__stack_chk_guard
 2557              		.cfi_endproc
ARM GAS  C:\Users\PCHAUT~1\AppData\Local\Temp\ccacj52E.s 			page 47


 2558              	.LFE31:
 2559              		.size	cmp_write_true, .-cmp_write_true
 2560              		.section	.text.cmp_write_false,"ax",%progbits
 2561              		.align	1
 2562              		.p2align 4,,15
 2563              		.global	cmp_write_false
 2564              		.syntax unified
 2565              		.thumb
 2566              		.thumb_func
 2567              		.fpu fpv4-sp-d16
 2568              		.type	cmp_write_false, %function
 2569              	cmp_write_false:
 2570              	.LFB32:
 2571              		.loc 1 406 0
 2572              		.cfi_startproc
 2573              		@ args = 0, pretend = 0, frame = 16
 2574              		@ frame_needed = 0, uses_anonymous_args = 0
 2575 0000 00B5     		push	{lr}
 2576              		.cfi_def_cfa_offset 4
 2577              		.cfi_offset 14, -4
 2578 0002 85B0     		sub	sp, sp, #20
 2579              		.cfi_def_cfa_offset 24
 2580 0004 0190     		str	r0, [sp, #4]
 2581              		.loc 1 406 0
 2582 0006 094B     		ldr	r3, .L195
 2583 0008 1B68     		ldr	r3, [r3]
 2584 000a 0393     		str	r3, [sp, #12]
 2585              		.loc 1 407 0
 2586 000c C221     		movs	r1, #194
 2587 000e 0198     		ldr	r0, [sp, #4]
 2588 0010 FFF7FEFF 		bl	write_type_marker
 2589 0014 0346     		mov	r3, r0
 2590              		.loc 1 408 0
 2591 0016 1846     		mov	r0, r3
 2592 0018 044B     		ldr	r3, .L195
 2593 001a 039A     		ldr	r2, [sp, #12]
 2594 001c 1B68     		ldr	r3, [r3]
 2595 001e 9A42     		cmp	r2, r3
 2596 0020 01D0     		beq	.L194
 2597 0022 FFF7FEFF 		bl	__stack_chk_fail
 2598              	.L194:
 2599 0026 05B0     		add	sp, sp, #20
 2600              		.cfi_def_cfa_offset 4
 2601              		@ sp needed
 2602 0028 5DF804FB 		ldr	pc, [sp], #4
 2603              	.L196:
 2604              		.align	2
 2605              	.L195:
 2606 002c 00000000 		.word	__stack_chk_guard
 2607              		.cfi_endproc
 2608              	.LFE32:
 2609              		.size	cmp_write_false, .-cmp_write_false
 2610              		.section	.text.cmp_write_bool,"ax",%progbits
 2611              		.align	1
 2612              		.p2align 4,,15
 2613              		.global	cmp_write_bool
 2614              		.syntax unified
ARM GAS  C:\Users\PCHAUT~1\AppData\Local\Temp\ccacj52E.s 			page 48


 2615              		.thumb
 2616              		.thumb_func
 2617              		.fpu fpv4-sp-d16
 2618              		.type	cmp_write_bool, %function
 2619              	cmp_write_bool:
 2620              	.LFB33:
 2621              		.loc 1 410 0
 2622              		.cfi_startproc
 2623              		@ args = 0, pretend = 0, frame = 16
 2624              		@ frame_needed = 0, uses_anonymous_args = 0
 2625 0000 00B5     		push	{lr}
 2626              		.cfi_def_cfa_offset 4
 2627              		.cfi_offset 14, -4
 2628 0002 85B0     		sub	sp, sp, #20
 2629              		.cfi_def_cfa_offset 24
 2630 0004 0190     		str	r0, [sp, #4]
 2631 0006 0B46     		mov	r3, r1
 2632 0008 8DF80330 		strb	r3, [sp, #3]
 2633              		.loc 1 410 0
 2634 000c 0D4B     		ldr	r3, .L201
 2635 000e 1B68     		ldr	r3, [r3]
 2636 0010 0393     		str	r3, [sp, #12]
 2637              		.loc 1 411 0
 2638 0012 9DF80330 		ldrb	r3, [sp, #3]	@ zero_extendqisi2
 2639 0016 002B     		cmp	r3, #0
 2640 0018 04D0     		beq	.L198
 2641              		.loc 1 412 0
 2642 001a 0198     		ldr	r0, [sp, #4]
 2643 001c FFF7FEFF 		bl	cmp_write_true
 2644 0020 0346     		mov	r3, r0
 2645 0022 03E0     		b	.L199
 2646              	.L198:
 2647              		.loc 1 414 0
 2648 0024 0198     		ldr	r0, [sp, #4]
 2649 0026 FFF7FEFF 		bl	cmp_write_false
 2650 002a 0346     		mov	r3, r0
 2651              	.L199:
 2652              		.loc 1 415 0
 2653 002c 1846     		mov	r0, r3
 2654 002e 054B     		ldr	r3, .L201
 2655 0030 039A     		ldr	r2, [sp, #12]
 2656 0032 1B68     		ldr	r3, [r3]
 2657 0034 9A42     		cmp	r2, r3
 2658 0036 01D0     		beq	.L200
 2659 0038 FFF7FEFF 		bl	__stack_chk_fail
 2660              	.L200:
 2661 003c 05B0     		add	sp, sp, #20
 2662              		.cfi_def_cfa_offset 4
 2663              		@ sp needed
 2664 003e 5DF804FB 		ldr	pc, [sp], #4
 2665              	.L202:
 2666 0042 00BF     		.align	2
 2667              	.L201:
 2668 0044 00000000 		.word	__stack_chk_guard
 2669              		.cfi_endproc
 2670              	.LFE33:
 2671              		.size	cmp_write_bool, .-cmp_write_bool
ARM GAS  C:\Users\PCHAUT~1\AppData\Local\Temp\ccacj52E.s 			page 49


 2672              		.section	.text.cmp_write_u8_as_bool,"ax",%progbits
 2673              		.align	1
 2674              		.p2align 4,,15
 2675              		.global	cmp_write_u8_as_bool
 2676              		.syntax unified
 2677              		.thumb
 2678              		.thumb_func
 2679              		.fpu fpv4-sp-d16
 2680              		.type	cmp_write_u8_as_bool, %function
 2681              	cmp_write_u8_as_bool:
 2682              	.LFB34:
 2683              		.loc 1 417 0
 2684              		.cfi_startproc
 2685              		@ args = 0, pretend = 0, frame = 16
 2686              		@ frame_needed = 0, uses_anonymous_args = 0
 2687 0000 00B5     		push	{lr}
 2688              		.cfi_def_cfa_offset 4
 2689              		.cfi_offset 14, -4
 2690 0002 85B0     		sub	sp, sp, #20
 2691              		.cfi_def_cfa_offset 24
 2692 0004 0190     		str	r0, [sp, #4]
 2693 0006 0B46     		mov	r3, r1
 2694 0008 8DF80330 		strb	r3, [sp, #3]
 2695              		.loc 1 417 0
 2696 000c 0D4B     		ldr	r3, .L207
 2697 000e 1B68     		ldr	r3, [r3]
 2698 0010 0393     		str	r3, [sp, #12]
 2699              		.loc 1 418 0
 2700 0012 9DF80330 		ldrb	r3, [sp, #3]	@ zero_extendqisi2
 2701 0016 002B     		cmp	r3, #0
 2702 0018 04D0     		beq	.L204
 2703              		.loc 1 419 0
 2704 001a 0198     		ldr	r0, [sp, #4]
 2705 001c FFF7FEFF 		bl	cmp_write_true
 2706 0020 0346     		mov	r3, r0
 2707 0022 03E0     		b	.L205
 2708              	.L204:
 2709              		.loc 1 421 0
 2710 0024 0198     		ldr	r0, [sp, #4]
 2711 0026 FFF7FEFF 		bl	cmp_write_false
 2712 002a 0346     		mov	r3, r0
 2713              	.L205:
 2714              		.loc 1 422 0
 2715 002c 1846     		mov	r0, r3
 2716 002e 054B     		ldr	r3, .L207
 2717 0030 039A     		ldr	r2, [sp, #12]
 2718 0032 1B68     		ldr	r3, [r3]
 2719 0034 9A42     		cmp	r2, r3
 2720 0036 01D0     		beq	.L206
 2721 0038 FFF7FEFF 		bl	__stack_chk_fail
 2722              	.L206:
 2723 003c 05B0     		add	sp, sp, #20
 2724              		.cfi_def_cfa_offset 4
 2725              		@ sp needed
 2726 003e 5DF804FB 		ldr	pc, [sp], #4
 2727              	.L208:
 2728 0042 00BF     		.align	2
ARM GAS  C:\Users\PCHAUT~1\AppData\Local\Temp\ccacj52E.s 			page 50


 2729              	.L207:
 2730 0044 00000000 		.word	__stack_chk_guard
 2731              		.cfi_endproc
 2732              	.LFE34:
 2733              		.size	cmp_write_u8_as_bool, .-cmp_write_u8_as_bool
 2734              		.section	.text.cmp_write_fixstr_marker,"ax",%progbits
 2735              		.align	1
 2736              		.p2align 4,,15
 2737              		.global	cmp_write_fixstr_marker
 2738              		.syntax unified
 2739              		.thumb
 2740              		.thumb_func
 2741              		.fpu fpv4-sp-d16
 2742              		.type	cmp_write_fixstr_marker, %function
 2743              	cmp_write_fixstr_marker:
 2744              	.LFB35:
 2745              		.loc 1 424 0
 2746              		.cfi_startproc
 2747              		@ args = 0, pretend = 0, frame = 16
 2748              		@ frame_needed = 0, uses_anonymous_args = 0
 2749 0000 00B5     		push	{lr}
 2750              		.cfi_def_cfa_offset 4
 2751              		.cfi_offset 14, -4
 2752 0002 85B0     		sub	sp, sp, #20
 2753              		.cfi_def_cfa_offset 24
 2754 0004 0190     		str	r0, [sp, #4]
 2755 0006 0B46     		mov	r3, r1
 2756 0008 8DF80330 		strb	r3, [sp, #3]
 2757              		.loc 1 424 0
 2758 000c 104B     		ldr	r3, .L213
 2759 000e 1B68     		ldr	r3, [r3]
 2760 0010 0393     		str	r3, [sp, #12]
 2761              		.loc 1 425 0
 2762 0012 9DF80330 		ldrb	r3, [sp, #3]	@ zero_extendqisi2
 2763 0016 1F2B     		cmp	r3, #31
 2764 0018 0AD8     		bhi	.L210
 2765              		.loc 1 426 0
 2766 001a 9DF80330 		ldrb	r3, [sp, #3]
 2767 001e 63F05F03 		orn	r3, r3, #95
 2768 0022 DBB2     		uxtb	r3, r3
 2769 0024 1946     		mov	r1, r3
 2770 0026 0198     		ldr	r0, [sp, #4]
 2771 0028 FFF7FEFF 		bl	write_fixed_value
 2772 002c 0346     		mov	r3, r0
 2773 002e 03E0     		b	.L211
 2774              	.L210:
 2775              		.loc 1 428 0
 2776 0030 019B     		ldr	r3, [sp, #4]
 2777 0032 0522     		movs	r2, #5
 2778 0034 1A70     		strb	r2, [r3]
 2779              		.loc 1 429 0
 2780 0036 0023     		movs	r3, #0
 2781              	.L211:
 2782              		.loc 1 430 0
 2783 0038 1846     		mov	r0, r3
 2784 003a 054B     		ldr	r3, .L213
 2785 003c 039A     		ldr	r2, [sp, #12]
ARM GAS  C:\Users\PCHAUT~1\AppData\Local\Temp\ccacj52E.s 			page 51


 2786 003e 1B68     		ldr	r3, [r3]
 2787 0040 9A42     		cmp	r2, r3
 2788 0042 01D0     		beq	.L212
 2789 0044 FFF7FEFF 		bl	__stack_chk_fail
 2790              	.L212:
 2791 0048 05B0     		add	sp, sp, #20
 2792              		.cfi_def_cfa_offset 4
 2793              		@ sp needed
 2794 004a 5DF804FB 		ldr	pc, [sp], #4
 2795              	.L214:
 2796 004e 00BF     		.align	2
 2797              	.L213:
 2798 0050 00000000 		.word	__stack_chk_guard
 2799              		.cfi_endproc
 2800              	.LFE35:
 2801              		.size	cmp_write_fixstr_marker, .-cmp_write_fixstr_marker
 2802              		.section	.text.cmp_write_fixstr,"ax",%progbits
 2803              		.align	1
 2804              		.p2align 4,,15
 2805              		.global	cmp_write_fixstr
 2806              		.syntax unified
 2807              		.thumb
 2808              		.thumb_func
 2809              		.fpu fpv4-sp-d16
 2810              		.type	cmp_write_fixstr, %function
 2811              	cmp_write_fixstr:
 2812              	.LFB36:
 2813              		.loc 1 432 0
 2814              		.cfi_startproc
 2815              		@ args = 0, pretend = 0, frame = 24
 2816              		@ frame_needed = 0, uses_anonymous_args = 0
 2817 0000 00B5     		push	{lr}
 2818              		.cfi_def_cfa_offset 4
 2819              		.cfi_offset 14, -4
 2820 0002 87B0     		sub	sp, sp, #28
 2821              		.cfi_def_cfa_offset 32
 2822 0004 0390     		str	r0, [sp, #12]
 2823 0006 0291     		str	r1, [sp, #8]
 2824 0008 1346     		mov	r3, r2
 2825 000a 8DF80730 		strb	r3, [sp, #7]
 2826              		.loc 1 432 0
 2827 000e 194B     		ldr	r3, .L221
 2828 0010 1B68     		ldr	r3, [r3]
 2829 0012 0593     		str	r3, [sp, #20]
 2830              		.loc 1 433 0
 2831 0014 9DF80730 		ldrb	r3, [sp, #7]	@ zero_extendqisi2
 2832 0018 1946     		mov	r1, r3
 2833 001a 0398     		ldr	r0, [sp, #12]
 2834 001c FFF7FEFF 		bl	cmp_write_fixstr_marker
 2835 0020 0346     		mov	r3, r0
 2836 0022 83F00103 		eor	r3, r3, #1
 2837 0026 DBB2     		uxtb	r3, r3
 2838 0028 002B     		cmp	r3, #0
 2839 002a 01D0     		beq	.L216
 2840              		.loc 1 434 0
 2841 002c 0023     		movs	r3, #0
 2842 002e 15E0     		b	.L217
ARM GAS  C:\Users\PCHAUT~1\AppData\Local\Temp\ccacj52E.s 			page 52


 2843              	.L216:
 2844              		.loc 1 436 0
 2845 0030 9DF80730 		ldrb	r3, [sp, #7]	@ zero_extendqisi2
 2846 0034 002B     		cmp	r3, #0
 2847 0036 01D1     		bne	.L218
 2848              		.loc 1 437 0
 2849 0038 0123     		movs	r3, #1
 2850 003a 0FE0     		b	.L217
 2851              	.L218:
 2852              		.loc 1 439 0
 2853 003c 039B     		ldr	r3, [sp, #12]
 2854 003e DB68     		ldr	r3, [r3, #12]
 2855 0040 9DF80720 		ldrb	r2, [sp, #7]	@ zero_extendqisi2
 2856 0044 0299     		ldr	r1, [sp, #8]
 2857 0046 0398     		ldr	r0, [sp, #12]
 2858 0048 9847     		blx	r3
 2859              	.LVL12:
 2860 004a 0346     		mov	r3, r0
 2861 004c 002B     		cmp	r3, #0
 2862 004e 01D0     		beq	.L219
 2863              		.loc 1 440 0
 2864 0050 0123     		movs	r3, #1
 2865 0052 03E0     		b	.L217
 2866              	.L219:
 2867              		.loc 1 442 0
 2868 0054 039B     		ldr	r3, [sp, #12]
 2869 0056 0A22     		movs	r2, #10
 2870 0058 1A70     		strb	r2, [r3]
 2871              		.loc 1 443 0
 2872 005a 0023     		movs	r3, #0
 2873              	.L217:
 2874              		.loc 1 444 0
 2875 005c 1846     		mov	r0, r3
 2876 005e 054B     		ldr	r3, .L221
 2877 0060 059A     		ldr	r2, [sp, #20]
 2878 0062 1B68     		ldr	r3, [r3]
 2879 0064 9A42     		cmp	r2, r3
 2880 0066 01D0     		beq	.L220
 2881 0068 FFF7FEFF 		bl	__stack_chk_fail
 2882              	.L220:
 2883 006c 07B0     		add	sp, sp, #28
 2884              		.cfi_def_cfa_offset 4
 2885              		@ sp needed
 2886 006e 5DF804FB 		ldr	pc, [sp], #4
 2887              	.L222:
 2888 0072 00BF     		.align	2
 2889              	.L221:
 2890 0074 00000000 		.word	__stack_chk_guard
 2891              		.cfi_endproc
 2892              	.LFE36:
 2893              		.size	cmp_write_fixstr, .-cmp_write_fixstr
 2894              		.section	.text.cmp_write_str8_marker,"ax",%progbits
 2895              		.align	1
 2896              		.p2align 4,,15
 2897              		.global	cmp_write_str8_marker
 2898              		.syntax unified
 2899              		.thumb
ARM GAS  C:\Users\PCHAUT~1\AppData\Local\Temp\ccacj52E.s 			page 53


 2900              		.thumb_func
 2901              		.fpu fpv4-sp-d16
 2902              		.type	cmp_write_str8_marker, %function
 2903              	cmp_write_str8_marker:
 2904              	.LFB37:
 2905              		.loc 1 446 0
 2906              		.cfi_startproc
 2907              		@ args = 0, pretend = 0, frame = 16
 2908              		@ frame_needed = 0, uses_anonymous_args = 0
 2909 0000 00B5     		push	{lr}
 2910              		.cfi_def_cfa_offset 4
 2911              		.cfi_offset 14, -4
 2912 0002 85B0     		sub	sp, sp, #20
 2913              		.cfi_def_cfa_offset 24
 2914 0004 0190     		str	r0, [sp, #4]
 2915 0006 0B46     		mov	r3, r1
 2916 0008 8DF80330 		strb	r3, [sp, #3]
 2917              		.loc 1 446 0
 2918 000c 144B     		ldr	r3, .L228
 2919 000e 1B68     		ldr	r3, [r3]
 2920 0010 0393     		str	r3, [sp, #12]
 2921              		.loc 1 447 0
 2922 0012 D921     		movs	r1, #217
 2923 0014 0198     		ldr	r0, [sp, #4]
 2924 0016 FFF7FEFF 		bl	write_type_marker
 2925 001a 0346     		mov	r3, r0
 2926 001c 83F00103 		eor	r3, r3, #1
 2927 0020 DBB2     		uxtb	r3, r3
 2928 0022 002B     		cmp	r3, #0
 2929 0024 01D0     		beq	.L224
 2930              		.loc 1 448 0
 2931 0026 0023     		movs	r3, #0
 2932 0028 0FE0     		b	.L225
 2933              	.L224:
 2934              		.loc 1 450 0
 2935 002a 019B     		ldr	r3, [sp, #4]
 2936 002c DB68     		ldr	r3, [r3, #12]
 2937 002e 0DF10301 		add	r1, sp, #3
 2938 0032 0122     		movs	r2, #1
 2939 0034 0198     		ldr	r0, [sp, #4]
 2940 0036 9847     		blx	r3
 2941              	.LVL13:
 2942 0038 0346     		mov	r3, r0
 2943 003a 002B     		cmp	r3, #0
 2944 003c 01D0     		beq	.L226
 2945              		.loc 1 451 0
 2946 003e 0123     		movs	r3, #1
 2947 0040 03E0     		b	.L225
 2948              	.L226:
 2949              		.loc 1 453 0
 2950 0042 019B     		ldr	r3, [sp, #4]
 2951 0044 0F22     		movs	r2, #15
 2952 0046 1A70     		strb	r2, [r3]
 2953              		.loc 1 454 0
 2954 0048 0023     		movs	r3, #0
 2955              	.L225:
 2956              		.loc 1 455 0
ARM GAS  C:\Users\PCHAUT~1\AppData\Local\Temp\ccacj52E.s 			page 54


 2957 004a 1846     		mov	r0, r3
 2958 004c 044B     		ldr	r3, .L228
 2959 004e 039A     		ldr	r2, [sp, #12]
 2960 0050 1B68     		ldr	r3, [r3]
 2961 0052 9A42     		cmp	r2, r3
 2962 0054 01D0     		beq	.L227
 2963 0056 FFF7FEFF 		bl	__stack_chk_fail
 2964              	.L227:
 2965 005a 05B0     		add	sp, sp, #20
 2966              		.cfi_def_cfa_offset 4
 2967              		@ sp needed
 2968 005c 5DF804FB 		ldr	pc, [sp], #4
 2969              	.L229:
 2970              		.align	2
 2971              	.L228:
 2972 0060 00000000 		.word	__stack_chk_guard
 2973              		.cfi_endproc
 2974              	.LFE37:
 2975              		.size	cmp_write_str8_marker, .-cmp_write_str8_marker
 2976              		.section	.text.cmp_write_str8,"ax",%progbits
 2977              		.align	1
 2978              		.p2align 4,,15
 2979              		.global	cmp_write_str8
 2980              		.syntax unified
 2981              		.thumb
 2982              		.thumb_func
 2983              		.fpu fpv4-sp-d16
 2984              		.type	cmp_write_str8, %function
 2985              	cmp_write_str8:
 2986              	.LFB38:
 2987              		.loc 1 457 0
 2988              		.cfi_startproc
 2989              		@ args = 0, pretend = 0, frame = 24
 2990              		@ frame_needed = 0, uses_anonymous_args = 0
 2991 0000 00B5     		push	{lr}
 2992              		.cfi_def_cfa_offset 4
 2993              		.cfi_offset 14, -4
 2994 0002 87B0     		sub	sp, sp, #28
 2995              		.cfi_def_cfa_offset 32
 2996 0004 0390     		str	r0, [sp, #12]
 2997 0006 0291     		str	r1, [sp, #8]
 2998 0008 1346     		mov	r3, r2
 2999 000a 8DF80730 		strb	r3, [sp, #7]
 3000              		.loc 1 457 0
 3001 000e 194B     		ldr	r3, .L236
 3002 0010 1B68     		ldr	r3, [r3]
 3003 0012 0593     		str	r3, [sp, #20]
 3004              		.loc 1 458 0
 3005 0014 9DF80730 		ldrb	r3, [sp, #7]	@ zero_extendqisi2
 3006 0018 1946     		mov	r1, r3
 3007 001a 0398     		ldr	r0, [sp, #12]
 3008 001c FFF7FEFF 		bl	cmp_write_str8_marker
 3009 0020 0346     		mov	r3, r0
 3010 0022 83F00103 		eor	r3, r3, #1
 3011 0026 DBB2     		uxtb	r3, r3
 3012 0028 002B     		cmp	r3, #0
 3013 002a 01D0     		beq	.L231
ARM GAS  C:\Users\PCHAUT~1\AppData\Local\Temp\ccacj52E.s 			page 55


 3014              		.loc 1 459 0
 3015 002c 0023     		movs	r3, #0
 3016 002e 15E0     		b	.L232
 3017              	.L231:
 3018              		.loc 1 461 0
 3019 0030 9DF80730 		ldrb	r3, [sp, #7]	@ zero_extendqisi2
 3020 0034 002B     		cmp	r3, #0
 3021 0036 01D1     		bne	.L233
 3022              		.loc 1 462 0
 3023 0038 0123     		movs	r3, #1
 3024 003a 0FE0     		b	.L232
 3025              	.L233:
 3026              		.loc 1 464 0
 3027 003c 039B     		ldr	r3, [sp, #12]
 3028 003e DB68     		ldr	r3, [r3, #12]
 3029 0040 9DF80720 		ldrb	r2, [sp, #7]	@ zero_extendqisi2
 3030 0044 0299     		ldr	r1, [sp, #8]
 3031 0046 0398     		ldr	r0, [sp, #12]
 3032 0048 9847     		blx	r3
 3033              	.LVL14:
 3034 004a 0346     		mov	r3, r0
 3035 004c 002B     		cmp	r3, #0
 3036 004e 01D0     		beq	.L234
 3037              		.loc 1 465 0
 3038 0050 0123     		movs	r3, #1
 3039 0052 03E0     		b	.L232
 3040              	.L234:
 3041              		.loc 1 467 0
 3042 0054 039B     		ldr	r3, [sp, #12]
 3043 0056 0A22     		movs	r2, #10
 3044 0058 1A70     		strb	r2, [r3]
 3045              		.loc 1 468 0
 3046 005a 0023     		movs	r3, #0
 3047              	.L232:
 3048              		.loc 1 469 0
 3049 005c 1846     		mov	r0, r3
 3050 005e 054B     		ldr	r3, .L236
 3051 0060 059A     		ldr	r2, [sp, #20]
 3052 0062 1B68     		ldr	r3, [r3]
 3053 0064 9A42     		cmp	r2, r3
 3054 0066 01D0     		beq	.L235
 3055 0068 FFF7FEFF 		bl	__stack_chk_fail
 3056              	.L235:
 3057 006c 07B0     		add	sp, sp, #28
 3058              		.cfi_def_cfa_offset 4
 3059              		@ sp needed
 3060 006e 5DF804FB 		ldr	pc, [sp], #4
 3061              	.L237:
 3062 0072 00BF     		.align	2
 3063              	.L236:
 3064 0074 00000000 		.word	__stack_chk_guard
 3065              		.cfi_endproc
 3066              	.LFE38:
 3067              		.size	cmp_write_str8, .-cmp_write_str8
 3068              		.section	.text.cmp_write_str16_marker,"ax",%progbits
 3069              		.align	1
 3070              		.p2align 4,,15
ARM GAS  C:\Users\PCHAUT~1\AppData\Local\Temp\ccacj52E.s 			page 56


 3071              		.global	cmp_write_str16_marker
 3072              		.syntax unified
 3073              		.thumb
 3074              		.thumb_func
 3075              		.fpu fpv4-sp-d16
 3076              		.type	cmp_write_str16_marker, %function
 3077              	cmp_write_str16_marker:
 3078              	.LFB39:
 3079              		.loc 1 471 0
 3080              		.cfi_startproc
 3081              		@ args = 0, pretend = 0, frame = 16
 3082              		@ frame_needed = 0, uses_anonymous_args = 0
 3083 0000 00B5     		push	{lr}
 3084              		.cfi_def_cfa_offset 4
 3085              		.cfi_offset 14, -4
 3086 0002 85B0     		sub	sp, sp, #20
 3087              		.cfi_def_cfa_offset 24
 3088 0004 0190     		str	r0, [sp, #4]
 3089 0006 0B46     		mov	r3, r1
 3090 0008 ADF80230 		strh	r3, [sp, #2]	@ movhi
 3091              		.loc 1 471 0
 3092 000c 184B     		ldr	r3, .L243
 3093 000e 1B68     		ldr	r3, [r3]
 3094 0010 0393     		str	r3, [sp, #12]
 3095              		.loc 1 472 0
 3096 0012 DA21     		movs	r1, #218
 3097 0014 0198     		ldr	r0, [sp, #4]
 3098 0016 FFF7FEFF 		bl	write_type_marker
 3099 001a 0346     		mov	r3, r0
 3100 001c 83F00103 		eor	r3, r3, #1
 3101 0020 DBB2     		uxtb	r3, r3
 3102 0022 002B     		cmp	r3, #0
 3103 0024 01D0     		beq	.L239
 3104              		.loc 1 473 0
 3105 0026 0023     		movs	r3, #0
 3106 0028 17E0     		b	.L240
 3107              	.L239:
 3108              		.loc 1 475 0
 3109 002a BDF80230 		ldrh	r3, [sp, #2]
 3110 002e 1846     		mov	r0, r3
 3111 0030 FFF7FEFF 		bl	be16
 3112 0034 0346     		mov	r3, r0
 3113 0036 ADF80230 		strh	r3, [sp, #2]	@ movhi
 3114              		.loc 1 477 0
 3115 003a 019B     		ldr	r3, [sp, #4]
 3116 003c DB68     		ldr	r3, [r3, #12]
 3117 003e 0DF10201 		add	r1, sp, #2
 3118 0042 0222     		movs	r2, #2
 3119 0044 0198     		ldr	r0, [sp, #4]
 3120 0046 9847     		blx	r3
 3121              	.LVL15:
 3122 0048 0346     		mov	r3, r0
 3123 004a 002B     		cmp	r3, #0
 3124 004c 01D0     		beq	.L241
 3125              		.loc 1 478 0
 3126 004e 0123     		movs	r3, #1
 3127 0050 03E0     		b	.L240
ARM GAS  C:\Users\PCHAUT~1\AppData\Local\Temp\ccacj52E.s 			page 57


 3128              	.L241:
 3129              		.loc 1 480 0
 3130 0052 019B     		ldr	r3, [sp, #4]
 3131 0054 0F22     		movs	r2, #15
 3132 0056 1A70     		strb	r2, [r3]
 3133              		.loc 1 481 0
 3134 0058 0023     		movs	r3, #0
 3135              	.L240:
 3136              		.loc 1 482 0
 3137 005a 1846     		mov	r0, r3
 3138 005c 044B     		ldr	r3, .L243
 3139 005e 039A     		ldr	r2, [sp, #12]
 3140 0060 1B68     		ldr	r3, [r3]
 3141 0062 9A42     		cmp	r2, r3
 3142 0064 01D0     		beq	.L242
 3143 0066 FFF7FEFF 		bl	__stack_chk_fail
 3144              	.L242:
 3145 006a 05B0     		add	sp, sp, #20
 3146              		.cfi_def_cfa_offset 4
 3147              		@ sp needed
 3148 006c 5DF804FB 		ldr	pc, [sp], #4
 3149              	.L244:
 3150              		.align	2
 3151              	.L243:
 3152 0070 00000000 		.word	__stack_chk_guard
 3153              		.cfi_endproc
 3154              	.LFE39:
 3155              		.size	cmp_write_str16_marker, .-cmp_write_str16_marker
 3156              		.section	.text.cmp_write_str16,"ax",%progbits
 3157              		.align	1
 3158              		.p2align 4,,15
 3159              		.global	cmp_write_str16
 3160              		.syntax unified
 3161              		.thumb
 3162              		.thumb_func
 3163              		.fpu fpv4-sp-d16
 3164              		.type	cmp_write_str16, %function
 3165              	cmp_write_str16:
 3166              	.LFB40:
 3167              		.loc 1 484 0
 3168              		.cfi_startproc
 3169              		@ args = 0, pretend = 0, frame = 24
 3170              		@ frame_needed = 0, uses_anonymous_args = 0
 3171 0000 00B5     		push	{lr}
 3172              		.cfi_def_cfa_offset 4
 3173              		.cfi_offset 14, -4
 3174 0002 87B0     		sub	sp, sp, #28
 3175              		.cfi_def_cfa_offset 32
 3176 0004 0390     		str	r0, [sp, #12]
 3177 0006 0291     		str	r1, [sp, #8]
 3178 0008 1346     		mov	r3, r2
 3179 000a ADF80630 		strh	r3, [sp, #6]	@ movhi
 3180              		.loc 1 484 0
 3181 000e 194B     		ldr	r3, .L251
 3182 0010 1B68     		ldr	r3, [r3]
 3183 0012 0593     		str	r3, [sp, #20]
 3184              		.loc 1 485 0
ARM GAS  C:\Users\PCHAUT~1\AppData\Local\Temp\ccacj52E.s 			page 58


 3185 0014 BDF80630 		ldrh	r3, [sp, #6]
 3186 0018 1946     		mov	r1, r3
 3187 001a 0398     		ldr	r0, [sp, #12]
 3188 001c FFF7FEFF 		bl	cmp_write_str16_marker
 3189 0020 0346     		mov	r3, r0
 3190 0022 83F00103 		eor	r3, r3, #1
 3191 0026 DBB2     		uxtb	r3, r3
 3192 0028 002B     		cmp	r3, #0
 3193 002a 01D0     		beq	.L246
 3194              		.loc 1 486 0
 3195 002c 0023     		movs	r3, #0
 3196 002e 15E0     		b	.L247
 3197              	.L246:
 3198              		.loc 1 488 0
 3199 0030 BDF80630 		ldrh	r3, [sp, #6]
 3200 0034 002B     		cmp	r3, #0
 3201 0036 01D1     		bne	.L248
 3202              		.loc 1 489 0
 3203 0038 0123     		movs	r3, #1
 3204 003a 0FE0     		b	.L247
 3205              	.L248:
 3206              		.loc 1 491 0
 3207 003c 039B     		ldr	r3, [sp, #12]
 3208 003e DB68     		ldr	r3, [r3, #12]
 3209 0040 BDF80620 		ldrh	r2, [sp, #6]
 3210 0044 0299     		ldr	r1, [sp, #8]
 3211 0046 0398     		ldr	r0, [sp, #12]
 3212 0048 9847     		blx	r3
 3213              	.LVL16:
 3214 004a 0346     		mov	r3, r0
 3215 004c 002B     		cmp	r3, #0
 3216 004e 01D0     		beq	.L249
 3217              		.loc 1 492 0
 3218 0050 0123     		movs	r3, #1
 3219 0052 03E0     		b	.L247
 3220              	.L249:
 3221              		.loc 1 494 0
 3222 0054 039B     		ldr	r3, [sp, #12]
 3223 0056 0A22     		movs	r2, #10
 3224 0058 1A70     		strb	r2, [r3]
 3225              		.loc 1 495 0
 3226 005a 0023     		movs	r3, #0
 3227              	.L247:
 3228              		.loc 1 496 0
 3229 005c 1846     		mov	r0, r3
 3230 005e 054B     		ldr	r3, .L251
 3231 0060 059A     		ldr	r2, [sp, #20]
 3232 0062 1B68     		ldr	r3, [r3]
 3233 0064 9A42     		cmp	r2, r3
 3234 0066 01D0     		beq	.L250
 3235 0068 FFF7FEFF 		bl	__stack_chk_fail
 3236              	.L250:
 3237 006c 07B0     		add	sp, sp, #28
 3238              		.cfi_def_cfa_offset 4
 3239              		@ sp needed
 3240 006e 5DF804FB 		ldr	pc, [sp], #4
 3241              	.L252:
ARM GAS  C:\Users\PCHAUT~1\AppData\Local\Temp\ccacj52E.s 			page 59


 3242 0072 00BF     		.align	2
 3243              	.L251:
 3244 0074 00000000 		.word	__stack_chk_guard
 3245              		.cfi_endproc
 3246              	.LFE40:
 3247              		.size	cmp_write_str16, .-cmp_write_str16
 3248              		.section	.text.cmp_write_str32_marker,"ax",%progbits
 3249              		.align	1
 3250              		.p2align 4,,15
 3251              		.global	cmp_write_str32_marker
 3252              		.syntax unified
 3253              		.thumb
 3254              		.thumb_func
 3255              		.fpu fpv4-sp-d16
 3256              		.type	cmp_write_str32_marker, %function
 3257              	cmp_write_str32_marker:
 3258              	.LFB41:
 3259              		.loc 1 498 0
 3260              		.cfi_startproc
 3261              		@ args = 0, pretend = 0, frame = 16
 3262              		@ frame_needed = 0, uses_anonymous_args = 0
 3263 0000 00B5     		push	{lr}
 3264              		.cfi_def_cfa_offset 4
 3265              		.cfi_offset 14, -4
 3266 0002 85B0     		sub	sp, sp, #20
 3267              		.cfi_def_cfa_offset 24
 3268 0004 0190     		str	r0, [sp, #4]
 3269 0006 0091     		str	r1, [sp]
 3270              		.loc 1 498 0
 3271 0008 174B     		ldr	r3, .L258
 3272 000a 1B68     		ldr	r3, [r3]
 3273 000c 0393     		str	r3, [sp, #12]
 3274              		.loc 1 499 0
 3275 000e DB21     		movs	r1, #219
 3276 0010 0198     		ldr	r0, [sp, #4]
 3277 0012 FFF7FEFF 		bl	write_type_marker
 3278 0016 0346     		mov	r3, r0
 3279 0018 83F00103 		eor	r3, r3, #1
 3280 001c DBB2     		uxtb	r3, r3
 3281 001e 002B     		cmp	r3, #0
 3282 0020 01D0     		beq	.L254
 3283              		.loc 1 500 0
 3284 0022 0023     		movs	r3, #0
 3285 0024 14E0     		b	.L255
 3286              	.L254:
 3287              		.loc 1 502 0
 3288 0026 009B     		ldr	r3, [sp]
 3289 0028 1846     		mov	r0, r3
 3290 002a FFF7FEFF 		bl	be32
 3291 002e 0346     		mov	r3, r0
 3292 0030 0093     		str	r3, [sp]
 3293              		.loc 1 504 0
 3294 0032 019B     		ldr	r3, [sp, #4]
 3295 0034 DB68     		ldr	r3, [r3, #12]
 3296 0036 6946     		mov	r1, sp
 3297 0038 0422     		movs	r2, #4
 3298 003a 0198     		ldr	r0, [sp, #4]
ARM GAS  C:\Users\PCHAUT~1\AppData\Local\Temp\ccacj52E.s 			page 60


 3299 003c 9847     		blx	r3
 3300              	.LVL17:
 3301 003e 0346     		mov	r3, r0
 3302 0040 002B     		cmp	r3, #0
 3303 0042 01D0     		beq	.L256
 3304              		.loc 1 505 0
 3305 0044 0123     		movs	r3, #1
 3306 0046 03E0     		b	.L255
 3307              	.L256:
 3308              		.loc 1 507 0
 3309 0048 019B     		ldr	r3, [sp, #4]
 3310 004a 0F22     		movs	r2, #15
 3311 004c 1A70     		strb	r2, [r3]
 3312              		.loc 1 508 0
 3313 004e 0023     		movs	r3, #0
 3314              	.L255:
 3315              		.loc 1 509 0
 3316 0050 1846     		mov	r0, r3
 3317 0052 054B     		ldr	r3, .L258
 3318 0054 039A     		ldr	r2, [sp, #12]
 3319 0056 1B68     		ldr	r3, [r3]
 3320 0058 9A42     		cmp	r2, r3
 3321 005a 01D0     		beq	.L257
 3322 005c FFF7FEFF 		bl	__stack_chk_fail
 3323              	.L257:
 3324 0060 05B0     		add	sp, sp, #20
 3325              		.cfi_def_cfa_offset 4
 3326              		@ sp needed
 3327 0062 5DF804FB 		ldr	pc, [sp], #4
 3328              	.L259:
 3329 0066 00BF     		.align	2
 3330              	.L258:
 3331 0068 00000000 		.word	__stack_chk_guard
 3332              		.cfi_endproc
 3333              	.LFE41:
 3334              		.size	cmp_write_str32_marker, .-cmp_write_str32_marker
 3335              		.section	.text.cmp_write_str32,"ax",%progbits
 3336              		.align	1
 3337              		.p2align 4,,15
 3338              		.global	cmp_write_str32
 3339              		.syntax unified
 3340              		.thumb
 3341              		.thumb_func
 3342              		.fpu fpv4-sp-d16
 3343              		.type	cmp_write_str32, %function
 3344              	cmp_write_str32:
 3345              	.LFB42:
 3346              		.loc 1 511 0
 3347              		.cfi_startproc
 3348              		@ args = 0, pretend = 0, frame = 24
 3349              		@ frame_needed = 0, uses_anonymous_args = 0
 3350 0000 00B5     		push	{lr}
 3351              		.cfi_def_cfa_offset 4
 3352              		.cfi_offset 14, -4
 3353 0002 87B0     		sub	sp, sp, #28
 3354              		.cfi_def_cfa_offset 32
 3355 0004 0390     		str	r0, [sp, #12]
ARM GAS  C:\Users\PCHAUT~1\AppData\Local\Temp\ccacj52E.s 			page 61


 3356 0006 0291     		str	r1, [sp, #8]
 3357 0008 0192     		str	r2, [sp, #4]
 3358              		.loc 1 511 0
 3359 000a 174B     		ldr	r3, .L266
 3360 000c 1B68     		ldr	r3, [r3]
 3361 000e 0593     		str	r3, [sp, #20]
 3362              		.loc 1 512 0
 3363 0010 0199     		ldr	r1, [sp, #4]
 3364 0012 0398     		ldr	r0, [sp, #12]
 3365 0014 FFF7FEFF 		bl	cmp_write_str32_marker
 3366 0018 0346     		mov	r3, r0
 3367 001a 83F00103 		eor	r3, r3, #1
 3368 001e DBB2     		uxtb	r3, r3
 3369 0020 002B     		cmp	r3, #0
 3370 0022 01D0     		beq	.L261
 3371              		.loc 1 513 0
 3372 0024 0023     		movs	r3, #0
 3373 0026 13E0     		b	.L262
 3374              	.L261:
 3375              		.loc 1 515 0
 3376 0028 019B     		ldr	r3, [sp, #4]
 3377 002a 002B     		cmp	r3, #0
 3378 002c 01D1     		bne	.L263
 3379              		.loc 1 516 0
 3380 002e 0123     		movs	r3, #1
 3381 0030 0EE0     		b	.L262
 3382              	.L263:
 3383              		.loc 1 518 0
 3384 0032 039B     		ldr	r3, [sp, #12]
 3385 0034 DB68     		ldr	r3, [r3, #12]
 3386 0036 019A     		ldr	r2, [sp, #4]
 3387 0038 0299     		ldr	r1, [sp, #8]
 3388 003a 0398     		ldr	r0, [sp, #12]
 3389 003c 9847     		blx	r3
 3390              	.LVL18:
 3391 003e 0346     		mov	r3, r0
 3392 0040 002B     		cmp	r3, #0
 3393 0042 01D0     		beq	.L264
 3394              		.loc 1 519 0
 3395 0044 0123     		movs	r3, #1
 3396 0046 03E0     		b	.L262
 3397              	.L264:
 3398              		.loc 1 521 0
 3399 0048 039B     		ldr	r3, [sp, #12]
 3400 004a 0A22     		movs	r2, #10
 3401 004c 1A70     		strb	r2, [r3]
 3402              		.loc 1 522 0
 3403 004e 0023     		movs	r3, #0
 3404              	.L262:
 3405              		.loc 1 523 0
 3406 0050 1846     		mov	r0, r3
 3407 0052 054B     		ldr	r3, .L266
 3408 0054 059A     		ldr	r2, [sp, #20]
 3409 0056 1B68     		ldr	r3, [r3]
 3410 0058 9A42     		cmp	r2, r3
 3411 005a 01D0     		beq	.L265
 3412 005c FFF7FEFF 		bl	__stack_chk_fail
ARM GAS  C:\Users\PCHAUT~1\AppData\Local\Temp\ccacj52E.s 			page 62


 3413              	.L265:
 3414 0060 07B0     		add	sp, sp, #28
 3415              		.cfi_def_cfa_offset 4
 3416              		@ sp needed
 3417 0062 5DF804FB 		ldr	pc, [sp], #4
 3418              	.L267:
 3419 0066 00BF     		.align	2
 3420              	.L266:
 3421 0068 00000000 		.word	__stack_chk_guard
 3422              		.cfi_endproc
 3423              	.LFE42:
 3424              		.size	cmp_write_str32, .-cmp_write_str32
 3425              		.section	.text.cmp_write_str_marker,"ax",%progbits
 3426              		.align	1
 3427              		.p2align 4,,15
 3428              		.global	cmp_write_str_marker
 3429              		.syntax unified
 3430              		.thumb
 3431              		.thumb_func
 3432              		.fpu fpv4-sp-d16
 3433              		.type	cmp_write_str_marker, %function
 3434              	cmp_write_str_marker:
 3435              	.LFB43:
 3436              		.loc 1 525 0
 3437              		.cfi_startproc
 3438              		@ args = 0, pretend = 0, frame = 16
 3439              		@ frame_needed = 0, uses_anonymous_args = 0
 3440 0000 00B5     		push	{lr}
 3441              		.cfi_def_cfa_offset 4
 3442              		.cfi_offset 14, -4
 3443 0002 85B0     		sub	sp, sp, #20
 3444              		.cfi_def_cfa_offset 24
 3445 0004 0190     		str	r0, [sp, #4]
 3446 0006 0091     		str	r1, [sp]
 3447              		.loc 1 525 0
 3448 0008 1A4B     		ldr	r3, .L274
 3449 000a 1B68     		ldr	r3, [r3]
 3450 000c 0393     		str	r3, [sp, #12]
 3451              		.loc 1 526 0
 3452 000e 009B     		ldr	r3, [sp]
 3453 0010 1F2B     		cmp	r3, #31
 3454 0012 07D8     		bhi	.L269
 3455              		.loc 1 527 0
 3456 0014 009B     		ldr	r3, [sp]
 3457 0016 DBB2     		uxtb	r3, r3
 3458 0018 1946     		mov	r1, r3
 3459 001a 0198     		ldr	r0, [sp, #4]
 3460 001c FFF7FEFF 		bl	cmp_write_fixstr_marker
 3461 0020 0346     		mov	r3, r0
 3462 0022 1BE0     		b	.L270
 3463              	.L269:
 3464              		.loc 1 528 0
 3465 0024 009B     		ldr	r3, [sp]
 3466 0026 FF2B     		cmp	r3, #255
 3467 0028 07D8     		bhi	.L271
 3468              		.loc 1 529 0
 3469 002a 009B     		ldr	r3, [sp]
ARM GAS  C:\Users\PCHAUT~1\AppData\Local\Temp\ccacj52E.s 			page 63


 3470 002c DBB2     		uxtb	r3, r3
 3471 002e 1946     		mov	r1, r3
 3472 0030 0198     		ldr	r0, [sp, #4]
 3473 0032 FFF7FEFF 		bl	cmp_write_str8_marker
 3474 0036 0346     		mov	r3, r0
 3475 0038 10E0     		b	.L270
 3476              	.L271:
 3477              		.loc 1 530 0
 3478 003a 009B     		ldr	r3, [sp]
 3479 003c B3F5803F 		cmp	r3, #65536
 3480 0040 07D2     		bcs	.L272
 3481              		.loc 1 531 0
 3482 0042 009B     		ldr	r3, [sp]
 3483 0044 9BB2     		uxth	r3, r3
 3484 0046 1946     		mov	r1, r3
 3485 0048 0198     		ldr	r0, [sp, #4]
 3486 004a FFF7FEFF 		bl	cmp_write_str16_marker
 3487 004e 0346     		mov	r3, r0
 3488 0050 04E0     		b	.L270
 3489              	.L272:
 3490              		.loc 1 533 0
 3491 0052 0099     		ldr	r1, [sp]
 3492 0054 0198     		ldr	r0, [sp, #4]
 3493 0056 FFF7FEFF 		bl	cmp_write_str32_marker
 3494 005a 0346     		mov	r3, r0
 3495              	.L270:
 3496              		.loc 1 534 0
 3497 005c 1846     		mov	r0, r3
 3498 005e 054B     		ldr	r3, .L274
 3499 0060 039A     		ldr	r2, [sp, #12]
 3500 0062 1B68     		ldr	r3, [r3]
 3501 0064 9A42     		cmp	r2, r3
 3502 0066 01D0     		beq	.L273
 3503 0068 FFF7FEFF 		bl	__stack_chk_fail
 3504              	.L273:
 3505 006c 05B0     		add	sp, sp, #20
 3506              		.cfi_def_cfa_offset 4
 3507              		@ sp needed
 3508 006e 5DF804FB 		ldr	pc, [sp], #4
 3509              	.L275:
 3510 0072 00BF     		.align	2
 3511              	.L274:
 3512 0074 00000000 		.word	__stack_chk_guard
 3513              		.cfi_endproc
 3514              	.LFE43:
 3515              		.size	cmp_write_str_marker, .-cmp_write_str_marker
 3516              		.section	.text.cmp_write_str,"ax",%progbits
 3517              		.align	1
 3518              		.p2align 4,,15
 3519              		.global	cmp_write_str
 3520              		.syntax unified
 3521              		.thumb
 3522              		.thumb_func
 3523              		.fpu fpv4-sp-d16
 3524              		.type	cmp_write_str, %function
 3525              	cmp_write_str:
 3526              	.LFB44:
ARM GAS  C:\Users\PCHAUT~1\AppData\Local\Temp\ccacj52E.s 			page 64


 3527              		.loc 1 536 0
 3528              		.cfi_startproc
 3529              		@ args = 0, pretend = 0, frame = 24
 3530              		@ frame_needed = 0, uses_anonymous_args = 0
 3531 0000 00B5     		push	{lr}
 3532              		.cfi_def_cfa_offset 4
 3533              		.cfi_offset 14, -4
 3534 0002 87B0     		sub	sp, sp, #28
 3535              		.cfi_def_cfa_offset 32
 3536 0004 0390     		str	r0, [sp, #12]
 3537 0006 0291     		str	r1, [sp, #8]
 3538 0008 0192     		str	r2, [sp, #4]
 3539              		.loc 1 536 0
 3540 000a 1C4B     		ldr	r3, .L282
 3541 000c 1B68     		ldr	r3, [r3]
 3542 000e 0593     		str	r3, [sp, #20]
 3543              		.loc 1 537 0
 3544 0010 019B     		ldr	r3, [sp, #4]
 3545 0012 1F2B     		cmp	r3, #31
 3546 0014 08D8     		bhi	.L277
 3547              		.loc 1 538 0
 3548 0016 019B     		ldr	r3, [sp, #4]
 3549 0018 DBB2     		uxtb	r3, r3
 3550 001a 1A46     		mov	r2, r3
 3551 001c 0299     		ldr	r1, [sp, #8]
 3552 001e 0398     		ldr	r0, [sp, #12]
 3553 0020 FFF7FEFF 		bl	cmp_write_fixstr
 3554 0024 0346     		mov	r3, r0
 3555 0026 1EE0     		b	.L278
 3556              	.L277:
 3557              		.loc 1 539 0
 3558 0028 019B     		ldr	r3, [sp, #4]
 3559 002a FF2B     		cmp	r3, #255
 3560 002c 08D8     		bhi	.L279
 3561              		.loc 1 540 0
 3562 002e 019B     		ldr	r3, [sp, #4]
 3563 0030 DBB2     		uxtb	r3, r3
 3564 0032 1A46     		mov	r2, r3
 3565 0034 0299     		ldr	r1, [sp, #8]
 3566 0036 0398     		ldr	r0, [sp, #12]
 3567 0038 FFF7FEFF 		bl	cmp_write_str8
 3568 003c 0346     		mov	r3, r0
 3569 003e 12E0     		b	.L278
 3570              	.L279:
 3571              		.loc 1 541 0
 3572 0040 019B     		ldr	r3, [sp, #4]
 3573 0042 B3F5803F 		cmp	r3, #65536
 3574 0046 08D2     		bcs	.L280
 3575              		.loc 1 542 0
 3576 0048 019B     		ldr	r3, [sp, #4]
 3577 004a 9BB2     		uxth	r3, r3
 3578 004c 1A46     		mov	r2, r3
 3579 004e 0299     		ldr	r1, [sp, #8]
 3580 0050 0398     		ldr	r0, [sp, #12]
 3581 0052 FFF7FEFF 		bl	cmp_write_str16
 3582 0056 0346     		mov	r3, r0
 3583 0058 05E0     		b	.L278
ARM GAS  C:\Users\PCHAUT~1\AppData\Local\Temp\ccacj52E.s 			page 65


 3584              	.L280:
 3585              		.loc 1 544 0
 3586 005a 019A     		ldr	r2, [sp, #4]
 3587 005c 0299     		ldr	r1, [sp, #8]
 3588 005e 0398     		ldr	r0, [sp, #12]
 3589 0060 FFF7FEFF 		bl	cmp_write_str32
 3590 0064 0346     		mov	r3, r0
 3591              	.L278:
 3592              		.loc 1 545 0
 3593 0066 1846     		mov	r0, r3
 3594 0068 044B     		ldr	r3, .L282
 3595 006a 059A     		ldr	r2, [sp, #20]
 3596 006c 1B68     		ldr	r3, [r3]
 3597 006e 9A42     		cmp	r2, r3
 3598 0070 01D0     		beq	.L281
 3599 0072 FFF7FEFF 		bl	__stack_chk_fail
 3600              	.L281:
 3601 0076 07B0     		add	sp, sp, #28
 3602              		.cfi_def_cfa_offset 4
 3603              		@ sp needed
 3604 0078 5DF804FB 		ldr	pc, [sp], #4
 3605              	.L283:
 3606              		.align	2
 3607              	.L282:
 3608 007c 00000000 		.word	__stack_chk_guard
 3609              		.cfi_endproc
 3610              	.LFE44:
 3611              		.size	cmp_write_str, .-cmp_write_str
 3612              		.section	.text.cmp_write_bin8_marker,"ax",%progbits
 3613              		.align	1
 3614              		.p2align 4,,15
 3615              		.global	cmp_write_bin8_marker
 3616              		.syntax unified
 3617              		.thumb
 3618              		.thumb_func
 3619              		.fpu fpv4-sp-d16
 3620              		.type	cmp_write_bin8_marker, %function
 3621              	cmp_write_bin8_marker:
 3622              	.LFB45:
 3623              		.loc 1 547 0
 3624              		.cfi_startproc
 3625              		@ args = 0, pretend = 0, frame = 16
 3626              		@ frame_needed = 0, uses_anonymous_args = 0
 3627 0000 00B5     		push	{lr}
 3628              		.cfi_def_cfa_offset 4
 3629              		.cfi_offset 14, -4
 3630 0002 85B0     		sub	sp, sp, #20
 3631              		.cfi_def_cfa_offset 24
 3632 0004 0190     		str	r0, [sp, #4]
 3633 0006 0B46     		mov	r3, r1
 3634 0008 8DF80330 		strb	r3, [sp, #3]
 3635              		.loc 1 547 0
 3636 000c 144B     		ldr	r3, .L289
 3637 000e 1B68     		ldr	r3, [r3]
 3638 0010 0393     		str	r3, [sp, #12]
 3639              		.loc 1 548 0
 3640 0012 C421     		movs	r1, #196
ARM GAS  C:\Users\PCHAUT~1\AppData\Local\Temp\ccacj52E.s 			page 66


 3641 0014 0198     		ldr	r0, [sp, #4]
 3642 0016 FFF7FEFF 		bl	write_type_marker
 3643 001a 0346     		mov	r3, r0
 3644 001c 83F00103 		eor	r3, r3, #1
 3645 0020 DBB2     		uxtb	r3, r3
 3646 0022 002B     		cmp	r3, #0
 3647 0024 01D0     		beq	.L285
 3648              		.loc 1 549 0
 3649 0026 0023     		movs	r3, #0
 3650 0028 0FE0     		b	.L286
 3651              	.L285:
 3652              		.loc 1 551 0
 3653 002a 019B     		ldr	r3, [sp, #4]
 3654 002c DB68     		ldr	r3, [r3, #12]
 3655 002e 0DF10301 		add	r1, sp, #3
 3656 0032 0122     		movs	r2, #1
 3657 0034 0198     		ldr	r0, [sp, #4]
 3658 0036 9847     		blx	r3
 3659              	.LVL19:
 3660 0038 0346     		mov	r3, r0
 3661 003a 002B     		cmp	r3, #0
 3662 003c 01D0     		beq	.L287
 3663              		.loc 1 552 0
 3664 003e 0123     		movs	r3, #1
 3665 0040 03E0     		b	.L286
 3666              	.L287:
 3667              		.loc 1 554 0
 3668 0042 019B     		ldr	r3, [sp, #4]
 3669 0044 0F22     		movs	r2, #15
 3670 0046 1A70     		strb	r2, [r3]
 3671              		.loc 1 555 0
 3672 0048 0023     		movs	r3, #0
 3673              	.L286:
 3674              		.loc 1 556 0
 3675 004a 1846     		mov	r0, r3
 3676 004c 044B     		ldr	r3, .L289
 3677 004e 039A     		ldr	r2, [sp, #12]
 3678 0050 1B68     		ldr	r3, [r3]
 3679 0052 9A42     		cmp	r2, r3
 3680 0054 01D0     		beq	.L288
 3681 0056 FFF7FEFF 		bl	__stack_chk_fail
 3682              	.L288:
 3683 005a 05B0     		add	sp, sp, #20
 3684              		.cfi_def_cfa_offset 4
 3685              		@ sp needed
 3686 005c 5DF804FB 		ldr	pc, [sp], #4
 3687              	.L290:
 3688              		.align	2
 3689              	.L289:
 3690 0060 00000000 		.word	__stack_chk_guard
 3691              		.cfi_endproc
 3692              	.LFE45:
 3693              		.size	cmp_write_bin8_marker, .-cmp_write_bin8_marker
 3694              		.section	.text.cmp_write_bin8,"ax",%progbits
 3695              		.align	1
 3696              		.p2align 4,,15
 3697              		.global	cmp_write_bin8
ARM GAS  C:\Users\PCHAUT~1\AppData\Local\Temp\ccacj52E.s 			page 67


 3698              		.syntax unified
 3699              		.thumb
 3700              		.thumb_func
 3701              		.fpu fpv4-sp-d16
 3702              		.type	cmp_write_bin8, %function
 3703              	cmp_write_bin8:
 3704              	.LFB46:
 3705              		.loc 1 558 0
 3706              		.cfi_startproc
 3707              		@ args = 0, pretend = 0, frame = 24
 3708              		@ frame_needed = 0, uses_anonymous_args = 0
 3709 0000 00B5     		push	{lr}
 3710              		.cfi_def_cfa_offset 4
 3711              		.cfi_offset 14, -4
 3712 0002 87B0     		sub	sp, sp, #28
 3713              		.cfi_def_cfa_offset 32
 3714 0004 0390     		str	r0, [sp, #12]
 3715 0006 0291     		str	r1, [sp, #8]
 3716 0008 1346     		mov	r3, r2
 3717 000a 8DF80730 		strb	r3, [sp, #7]
 3718              		.loc 1 558 0
 3719 000e 194B     		ldr	r3, .L297
 3720 0010 1B68     		ldr	r3, [r3]
 3721 0012 0593     		str	r3, [sp, #20]
 3722              		.loc 1 559 0
 3723 0014 9DF80730 		ldrb	r3, [sp, #7]	@ zero_extendqisi2
 3724 0018 1946     		mov	r1, r3
 3725 001a 0398     		ldr	r0, [sp, #12]
 3726 001c FFF7FEFF 		bl	cmp_write_bin8_marker
 3727 0020 0346     		mov	r3, r0
 3728 0022 83F00103 		eor	r3, r3, #1
 3729 0026 DBB2     		uxtb	r3, r3
 3730 0028 002B     		cmp	r3, #0
 3731 002a 01D0     		beq	.L292
 3732              		.loc 1 560 0
 3733 002c 0023     		movs	r3, #0
 3734 002e 15E0     		b	.L293
 3735              	.L292:
 3736              		.loc 1 562 0
 3737 0030 9DF80730 		ldrb	r3, [sp, #7]	@ zero_extendqisi2
 3738 0034 002B     		cmp	r3, #0
 3739 0036 01D1     		bne	.L294
 3740              		.loc 1 563 0
 3741 0038 0123     		movs	r3, #1
 3742 003a 0FE0     		b	.L293
 3743              	.L294:
 3744              		.loc 1 565 0
 3745 003c 039B     		ldr	r3, [sp, #12]
 3746 003e DB68     		ldr	r3, [r3, #12]
 3747 0040 9DF80720 		ldrb	r2, [sp, #7]	@ zero_extendqisi2
 3748 0044 0299     		ldr	r1, [sp, #8]
 3749 0046 0398     		ldr	r0, [sp, #12]
 3750 0048 9847     		blx	r3
 3751              	.LVL20:
 3752 004a 0346     		mov	r3, r0
 3753 004c 002B     		cmp	r3, #0
 3754 004e 01D0     		beq	.L295
ARM GAS  C:\Users\PCHAUT~1\AppData\Local\Temp\ccacj52E.s 			page 68


 3755              		.loc 1 566 0
 3756 0050 0123     		movs	r3, #1
 3757 0052 03E0     		b	.L293
 3758              	.L295:
 3759              		.loc 1 568 0
 3760 0054 039B     		ldr	r3, [sp, #12]
 3761 0056 0A22     		movs	r2, #10
 3762 0058 1A70     		strb	r2, [r3]
 3763              		.loc 1 569 0
 3764 005a 0023     		movs	r3, #0
 3765              	.L293:
 3766              		.loc 1 570 0
 3767 005c 1846     		mov	r0, r3
 3768 005e 054B     		ldr	r3, .L297
 3769 0060 059A     		ldr	r2, [sp, #20]
 3770 0062 1B68     		ldr	r3, [r3]
 3771 0064 9A42     		cmp	r2, r3
 3772 0066 01D0     		beq	.L296
 3773 0068 FFF7FEFF 		bl	__stack_chk_fail
 3774              	.L296:
 3775 006c 07B0     		add	sp, sp, #28
 3776              		.cfi_def_cfa_offset 4
 3777              		@ sp needed
 3778 006e 5DF804FB 		ldr	pc, [sp], #4
 3779              	.L298:
 3780 0072 00BF     		.align	2
 3781              	.L297:
 3782 0074 00000000 		.word	__stack_chk_guard
 3783              		.cfi_endproc
 3784              	.LFE46:
 3785              		.size	cmp_write_bin8, .-cmp_write_bin8
 3786              		.section	.text.cmp_write_bin16_marker,"ax",%progbits
 3787              		.align	1
 3788              		.p2align 4,,15
 3789              		.global	cmp_write_bin16_marker
 3790              		.syntax unified
 3791              		.thumb
 3792              		.thumb_func
 3793              		.fpu fpv4-sp-d16
 3794              		.type	cmp_write_bin16_marker, %function
 3795              	cmp_write_bin16_marker:
 3796              	.LFB47:
 3797              		.loc 1 572 0
 3798              		.cfi_startproc
 3799              		@ args = 0, pretend = 0, frame = 16
 3800              		@ frame_needed = 0, uses_anonymous_args = 0
 3801 0000 00B5     		push	{lr}
 3802              		.cfi_def_cfa_offset 4
 3803              		.cfi_offset 14, -4
 3804 0002 85B0     		sub	sp, sp, #20
 3805              		.cfi_def_cfa_offset 24
 3806 0004 0190     		str	r0, [sp, #4]
 3807 0006 0B46     		mov	r3, r1
 3808 0008 ADF80230 		strh	r3, [sp, #2]	@ movhi
 3809              		.loc 1 572 0
 3810 000c 184B     		ldr	r3, .L304
 3811 000e 1B68     		ldr	r3, [r3]
ARM GAS  C:\Users\PCHAUT~1\AppData\Local\Temp\ccacj52E.s 			page 69


 3812 0010 0393     		str	r3, [sp, #12]
 3813              		.loc 1 573 0
 3814 0012 C521     		movs	r1, #197
 3815 0014 0198     		ldr	r0, [sp, #4]
 3816 0016 FFF7FEFF 		bl	write_type_marker
 3817 001a 0346     		mov	r3, r0
 3818 001c 83F00103 		eor	r3, r3, #1
 3819 0020 DBB2     		uxtb	r3, r3
 3820 0022 002B     		cmp	r3, #0
 3821 0024 01D0     		beq	.L300
 3822              		.loc 1 574 0
 3823 0026 0023     		movs	r3, #0
 3824 0028 17E0     		b	.L301
 3825              	.L300:
 3826              		.loc 1 576 0
 3827 002a BDF80230 		ldrh	r3, [sp, #2]
 3828 002e 1846     		mov	r0, r3
 3829 0030 FFF7FEFF 		bl	be16
 3830 0034 0346     		mov	r3, r0
 3831 0036 ADF80230 		strh	r3, [sp, #2]	@ movhi
 3832              		.loc 1 578 0
 3833 003a 019B     		ldr	r3, [sp, #4]
 3834 003c DB68     		ldr	r3, [r3, #12]
 3835 003e 0DF10201 		add	r1, sp, #2
 3836 0042 0222     		movs	r2, #2
 3837 0044 0198     		ldr	r0, [sp, #4]
 3838 0046 9847     		blx	r3
 3839              	.LVL21:
 3840 0048 0346     		mov	r3, r0
 3841 004a 002B     		cmp	r3, #0
 3842 004c 01D0     		beq	.L302
 3843              		.loc 1 579 0
 3844 004e 0123     		movs	r3, #1
 3845 0050 03E0     		b	.L301
 3846              	.L302:
 3847              		.loc 1 581 0
 3848 0052 019B     		ldr	r3, [sp, #4]
 3849 0054 0F22     		movs	r2, #15
 3850 0056 1A70     		strb	r2, [r3]
 3851              		.loc 1 582 0
 3852 0058 0023     		movs	r3, #0
 3853              	.L301:
 3854              		.loc 1 583 0
 3855 005a 1846     		mov	r0, r3
 3856 005c 044B     		ldr	r3, .L304
 3857 005e 039A     		ldr	r2, [sp, #12]
 3858 0060 1B68     		ldr	r3, [r3]
 3859 0062 9A42     		cmp	r2, r3
 3860 0064 01D0     		beq	.L303
 3861 0066 FFF7FEFF 		bl	__stack_chk_fail
 3862              	.L303:
 3863 006a 05B0     		add	sp, sp, #20
 3864              		.cfi_def_cfa_offset 4
 3865              		@ sp needed
 3866 006c 5DF804FB 		ldr	pc, [sp], #4
 3867              	.L305:
 3868              		.align	2
ARM GAS  C:\Users\PCHAUT~1\AppData\Local\Temp\ccacj52E.s 			page 70


 3869              	.L304:
 3870 0070 00000000 		.word	__stack_chk_guard
 3871              		.cfi_endproc
 3872              	.LFE47:
 3873              		.size	cmp_write_bin16_marker, .-cmp_write_bin16_marker
 3874              		.section	.text.cmp_write_bin16,"ax",%progbits
 3875              		.align	1
 3876              		.p2align 4,,15
 3877              		.global	cmp_write_bin16
 3878              		.syntax unified
 3879              		.thumb
 3880              		.thumb_func
 3881              		.fpu fpv4-sp-d16
 3882              		.type	cmp_write_bin16, %function
 3883              	cmp_write_bin16:
 3884              	.LFB48:
 3885              		.loc 1 585 0
 3886              		.cfi_startproc
 3887              		@ args = 0, pretend = 0, frame = 24
 3888              		@ frame_needed = 0, uses_anonymous_args = 0
 3889 0000 00B5     		push	{lr}
 3890              		.cfi_def_cfa_offset 4
 3891              		.cfi_offset 14, -4
 3892 0002 87B0     		sub	sp, sp, #28
 3893              		.cfi_def_cfa_offset 32
 3894 0004 0390     		str	r0, [sp, #12]
 3895 0006 0291     		str	r1, [sp, #8]
 3896 0008 1346     		mov	r3, r2
 3897 000a ADF80630 		strh	r3, [sp, #6]	@ movhi
 3898              		.loc 1 585 0
 3899 000e 194B     		ldr	r3, .L312
 3900 0010 1B68     		ldr	r3, [r3]
 3901 0012 0593     		str	r3, [sp, #20]
 3902              		.loc 1 586 0
 3903 0014 BDF80630 		ldrh	r3, [sp, #6]
 3904 0018 1946     		mov	r1, r3
 3905 001a 0398     		ldr	r0, [sp, #12]
 3906 001c FFF7FEFF 		bl	cmp_write_bin16_marker
 3907 0020 0346     		mov	r3, r0
 3908 0022 83F00103 		eor	r3, r3, #1
 3909 0026 DBB2     		uxtb	r3, r3
 3910 0028 002B     		cmp	r3, #0
 3911 002a 01D0     		beq	.L307
 3912              		.loc 1 587 0
 3913 002c 0023     		movs	r3, #0
 3914 002e 15E0     		b	.L308
 3915              	.L307:
 3916              		.loc 1 589 0
 3917 0030 BDF80630 		ldrh	r3, [sp, #6]
 3918 0034 002B     		cmp	r3, #0
 3919 0036 01D1     		bne	.L309
 3920              		.loc 1 590 0
 3921 0038 0123     		movs	r3, #1
 3922 003a 0FE0     		b	.L308
 3923              	.L309:
 3924              		.loc 1 592 0
 3925 003c 039B     		ldr	r3, [sp, #12]
ARM GAS  C:\Users\PCHAUT~1\AppData\Local\Temp\ccacj52E.s 			page 71


 3926 003e DB68     		ldr	r3, [r3, #12]
 3927 0040 BDF80620 		ldrh	r2, [sp, #6]
 3928 0044 0299     		ldr	r1, [sp, #8]
 3929 0046 0398     		ldr	r0, [sp, #12]
 3930 0048 9847     		blx	r3
 3931              	.LVL22:
 3932 004a 0346     		mov	r3, r0
 3933 004c 002B     		cmp	r3, #0
 3934 004e 01D0     		beq	.L310
 3935              		.loc 1 593 0
 3936 0050 0123     		movs	r3, #1
 3937 0052 03E0     		b	.L308
 3938              	.L310:
 3939              		.loc 1 595 0
 3940 0054 039B     		ldr	r3, [sp, #12]
 3941 0056 0A22     		movs	r2, #10
 3942 0058 1A70     		strb	r2, [r3]
 3943              		.loc 1 596 0
 3944 005a 0023     		movs	r3, #0
 3945              	.L308:
 3946              		.loc 1 597 0
 3947 005c 1846     		mov	r0, r3
 3948 005e 054B     		ldr	r3, .L312
 3949 0060 059A     		ldr	r2, [sp, #20]
 3950 0062 1B68     		ldr	r3, [r3]
 3951 0064 9A42     		cmp	r2, r3
 3952 0066 01D0     		beq	.L311
 3953 0068 FFF7FEFF 		bl	__stack_chk_fail
 3954              	.L311:
 3955 006c 07B0     		add	sp, sp, #28
 3956              		.cfi_def_cfa_offset 4
 3957              		@ sp needed
 3958 006e 5DF804FB 		ldr	pc, [sp], #4
 3959              	.L313:
 3960 0072 00BF     		.align	2
 3961              	.L312:
 3962 0074 00000000 		.word	__stack_chk_guard
 3963              		.cfi_endproc
 3964              	.LFE48:
 3965              		.size	cmp_write_bin16, .-cmp_write_bin16
 3966              		.section	.text.cmp_write_bin32_marker,"ax",%progbits
 3967              		.align	1
 3968              		.p2align 4,,15
 3969              		.global	cmp_write_bin32_marker
 3970              		.syntax unified
 3971              		.thumb
 3972              		.thumb_func
 3973              		.fpu fpv4-sp-d16
 3974              		.type	cmp_write_bin32_marker, %function
 3975              	cmp_write_bin32_marker:
 3976              	.LFB49:
 3977              		.loc 1 599 0
 3978              		.cfi_startproc
 3979              		@ args = 0, pretend = 0, frame = 16
 3980              		@ frame_needed = 0, uses_anonymous_args = 0
 3981 0000 00B5     		push	{lr}
 3982              		.cfi_def_cfa_offset 4
ARM GAS  C:\Users\PCHAUT~1\AppData\Local\Temp\ccacj52E.s 			page 72


 3983              		.cfi_offset 14, -4
 3984 0002 85B0     		sub	sp, sp, #20
 3985              		.cfi_def_cfa_offset 24
 3986 0004 0190     		str	r0, [sp, #4]
 3987 0006 0091     		str	r1, [sp]
 3988              		.loc 1 599 0
 3989 0008 174B     		ldr	r3, .L319
 3990 000a 1B68     		ldr	r3, [r3]
 3991 000c 0393     		str	r3, [sp, #12]
 3992              		.loc 1 600 0
 3993 000e C621     		movs	r1, #198
 3994 0010 0198     		ldr	r0, [sp, #4]
 3995 0012 FFF7FEFF 		bl	write_type_marker
 3996 0016 0346     		mov	r3, r0
 3997 0018 83F00103 		eor	r3, r3, #1
 3998 001c DBB2     		uxtb	r3, r3
 3999 001e 002B     		cmp	r3, #0
 4000 0020 01D0     		beq	.L315
 4001              		.loc 1 601 0
 4002 0022 0023     		movs	r3, #0
 4003 0024 14E0     		b	.L316
 4004              	.L315:
 4005              		.loc 1 603 0
 4006 0026 009B     		ldr	r3, [sp]
 4007 0028 1846     		mov	r0, r3
 4008 002a FFF7FEFF 		bl	be32
 4009 002e 0346     		mov	r3, r0
 4010 0030 0093     		str	r3, [sp]
 4011              		.loc 1 605 0
 4012 0032 019B     		ldr	r3, [sp, #4]
 4013 0034 DB68     		ldr	r3, [r3, #12]
 4014 0036 6946     		mov	r1, sp
 4015 0038 0422     		movs	r2, #4
 4016 003a 0198     		ldr	r0, [sp, #4]
 4017 003c 9847     		blx	r3
 4018              	.LVL23:
 4019 003e 0346     		mov	r3, r0
 4020 0040 002B     		cmp	r3, #0
 4021 0042 01D0     		beq	.L317
 4022              		.loc 1 606 0
 4023 0044 0123     		movs	r3, #1
 4024 0046 03E0     		b	.L316
 4025              	.L317:
 4026              		.loc 1 608 0
 4027 0048 019B     		ldr	r3, [sp, #4]
 4028 004a 0F22     		movs	r2, #15
 4029 004c 1A70     		strb	r2, [r3]
 4030              		.loc 1 609 0
 4031 004e 0023     		movs	r3, #0
 4032              	.L316:
 4033              		.loc 1 610 0
 4034 0050 1846     		mov	r0, r3
 4035 0052 054B     		ldr	r3, .L319
 4036 0054 039A     		ldr	r2, [sp, #12]
 4037 0056 1B68     		ldr	r3, [r3]
 4038 0058 9A42     		cmp	r2, r3
 4039 005a 01D0     		beq	.L318
ARM GAS  C:\Users\PCHAUT~1\AppData\Local\Temp\ccacj52E.s 			page 73


 4040 005c FFF7FEFF 		bl	__stack_chk_fail
 4041              	.L318:
 4042 0060 05B0     		add	sp, sp, #20
 4043              		.cfi_def_cfa_offset 4
 4044              		@ sp needed
 4045 0062 5DF804FB 		ldr	pc, [sp], #4
 4046              	.L320:
 4047 0066 00BF     		.align	2
 4048              	.L319:
 4049 0068 00000000 		.word	__stack_chk_guard
 4050              		.cfi_endproc
 4051              	.LFE49:
 4052              		.size	cmp_write_bin32_marker, .-cmp_write_bin32_marker
 4053              		.section	.text.cmp_write_bin32,"ax",%progbits
 4054              		.align	1
 4055              		.p2align 4,,15
 4056              		.global	cmp_write_bin32
 4057              		.syntax unified
 4058              		.thumb
 4059              		.thumb_func
 4060              		.fpu fpv4-sp-d16
 4061              		.type	cmp_write_bin32, %function
 4062              	cmp_write_bin32:
 4063              	.LFB50:
 4064              		.loc 1 612 0
 4065              		.cfi_startproc
 4066              		@ args = 0, pretend = 0, frame = 24
 4067              		@ frame_needed = 0, uses_anonymous_args = 0
 4068 0000 00B5     		push	{lr}
 4069              		.cfi_def_cfa_offset 4
 4070              		.cfi_offset 14, -4
 4071 0002 87B0     		sub	sp, sp, #28
 4072              		.cfi_def_cfa_offset 32
 4073 0004 0390     		str	r0, [sp, #12]
 4074 0006 0291     		str	r1, [sp, #8]
 4075 0008 0192     		str	r2, [sp, #4]
 4076              		.loc 1 612 0
 4077 000a 174B     		ldr	r3, .L327
 4078 000c 1B68     		ldr	r3, [r3]
 4079 000e 0593     		str	r3, [sp, #20]
 4080              		.loc 1 613 0
 4081 0010 0199     		ldr	r1, [sp, #4]
 4082 0012 0398     		ldr	r0, [sp, #12]
 4083 0014 FFF7FEFF 		bl	cmp_write_bin32_marker
 4084 0018 0346     		mov	r3, r0
 4085 001a 83F00103 		eor	r3, r3, #1
 4086 001e DBB2     		uxtb	r3, r3
 4087 0020 002B     		cmp	r3, #0
 4088 0022 01D0     		beq	.L322
 4089              		.loc 1 614 0
 4090 0024 0023     		movs	r3, #0
 4091 0026 13E0     		b	.L323
 4092              	.L322:
 4093              		.loc 1 616 0
 4094 0028 019B     		ldr	r3, [sp, #4]
 4095 002a 002B     		cmp	r3, #0
 4096 002c 01D1     		bne	.L324
ARM GAS  C:\Users\PCHAUT~1\AppData\Local\Temp\ccacj52E.s 			page 74


 4097              		.loc 1 617 0
 4098 002e 0123     		movs	r3, #1
 4099 0030 0EE0     		b	.L323
 4100              	.L324:
 4101              		.loc 1 619 0
 4102 0032 039B     		ldr	r3, [sp, #12]
 4103 0034 DB68     		ldr	r3, [r3, #12]
 4104 0036 019A     		ldr	r2, [sp, #4]
 4105 0038 0299     		ldr	r1, [sp, #8]
 4106 003a 0398     		ldr	r0, [sp, #12]
 4107 003c 9847     		blx	r3
 4108              	.LVL24:
 4109 003e 0346     		mov	r3, r0
 4110 0040 002B     		cmp	r3, #0
 4111 0042 01D0     		beq	.L325
 4112              		.loc 1 620 0
 4113 0044 0123     		movs	r3, #1
 4114 0046 03E0     		b	.L323
 4115              	.L325:
 4116              		.loc 1 622 0
 4117 0048 039B     		ldr	r3, [sp, #12]
 4118 004a 0A22     		movs	r2, #10
 4119 004c 1A70     		strb	r2, [r3]
 4120              		.loc 1 623 0
 4121 004e 0023     		movs	r3, #0
 4122              	.L323:
 4123              		.loc 1 624 0
 4124 0050 1846     		mov	r0, r3
 4125 0052 054B     		ldr	r3, .L327
 4126 0054 059A     		ldr	r2, [sp, #20]
 4127 0056 1B68     		ldr	r3, [r3]
 4128 0058 9A42     		cmp	r2, r3
 4129 005a 01D0     		beq	.L326
 4130 005c FFF7FEFF 		bl	__stack_chk_fail
 4131              	.L326:
 4132 0060 07B0     		add	sp, sp, #28
 4133              		.cfi_def_cfa_offset 4
 4134              		@ sp needed
 4135 0062 5DF804FB 		ldr	pc, [sp], #4
 4136              	.L328:
 4137 0066 00BF     		.align	2
 4138              	.L327:
 4139 0068 00000000 		.word	__stack_chk_guard
 4140              		.cfi_endproc
 4141              	.LFE50:
 4142              		.size	cmp_write_bin32, .-cmp_write_bin32
 4143              		.section	.text.cmp_write_bin_marker,"ax",%progbits
 4144              		.align	1
 4145              		.p2align 4,,15
 4146              		.global	cmp_write_bin_marker
 4147              		.syntax unified
 4148              		.thumb
 4149              		.thumb_func
 4150              		.fpu fpv4-sp-d16
 4151              		.type	cmp_write_bin_marker, %function
 4152              	cmp_write_bin_marker:
 4153              	.LFB51:
ARM GAS  C:\Users\PCHAUT~1\AppData\Local\Temp\ccacj52E.s 			page 75


 4154              		.loc 1 626 0
 4155              		.cfi_startproc
 4156              		@ args = 0, pretend = 0, frame = 16
 4157              		@ frame_needed = 0, uses_anonymous_args = 0
 4158 0000 00B5     		push	{lr}
 4159              		.cfi_def_cfa_offset 4
 4160              		.cfi_offset 14, -4
 4161 0002 85B0     		sub	sp, sp, #20
 4162              		.cfi_def_cfa_offset 24
 4163 0004 0190     		str	r0, [sp, #4]
 4164 0006 0091     		str	r1, [sp]
 4165              		.loc 1 626 0
 4166 0008 144B     		ldr	r3, .L334
 4167 000a 1B68     		ldr	r3, [r3]
 4168 000c 0393     		str	r3, [sp, #12]
 4169              		.loc 1 627 0
 4170 000e 009B     		ldr	r3, [sp]
 4171 0010 FF2B     		cmp	r3, #255
 4172 0012 07D8     		bhi	.L330
 4173              		.loc 1 628 0
 4174 0014 009B     		ldr	r3, [sp]
 4175 0016 DBB2     		uxtb	r3, r3
 4176 0018 1946     		mov	r1, r3
 4177 001a 0198     		ldr	r0, [sp, #4]
 4178 001c FFF7FEFF 		bl	cmp_write_bin8_marker
 4179 0020 0346     		mov	r3, r0
 4180 0022 10E0     		b	.L331
 4181              	.L330:
 4182              		.loc 1 629 0
 4183 0024 009B     		ldr	r3, [sp]
 4184 0026 B3F5803F 		cmp	r3, #65536
 4185 002a 07D2     		bcs	.L332
 4186              		.loc 1 630 0
 4187 002c 009B     		ldr	r3, [sp]
 4188 002e 9BB2     		uxth	r3, r3
 4189 0030 1946     		mov	r1, r3
 4190 0032 0198     		ldr	r0, [sp, #4]
 4191 0034 FFF7FEFF 		bl	cmp_write_bin16_marker
 4192 0038 0346     		mov	r3, r0
 4193 003a 04E0     		b	.L331
 4194              	.L332:
 4195              		.loc 1 632 0
 4196 003c 0099     		ldr	r1, [sp]
 4197 003e 0198     		ldr	r0, [sp, #4]
 4198 0040 FFF7FEFF 		bl	cmp_write_bin32_marker
 4199 0044 0346     		mov	r3, r0
 4200              	.L331:
 4201              		.loc 1 633 0
 4202 0046 1846     		mov	r0, r3
 4203 0048 044B     		ldr	r3, .L334
 4204 004a 039A     		ldr	r2, [sp, #12]
 4205 004c 1B68     		ldr	r3, [r3]
 4206 004e 9A42     		cmp	r2, r3
 4207 0050 01D0     		beq	.L333
 4208 0052 FFF7FEFF 		bl	__stack_chk_fail
 4209              	.L333:
 4210 0056 05B0     		add	sp, sp, #20
ARM GAS  C:\Users\PCHAUT~1\AppData\Local\Temp\ccacj52E.s 			page 76


 4211              		.cfi_def_cfa_offset 4
 4212              		@ sp needed
 4213 0058 5DF804FB 		ldr	pc, [sp], #4
 4214              	.L335:
 4215              		.align	2
 4216              	.L334:
 4217 005c 00000000 		.word	__stack_chk_guard
 4218              		.cfi_endproc
 4219              	.LFE51:
 4220              		.size	cmp_write_bin_marker, .-cmp_write_bin_marker
 4221              		.section	.text.cmp_write_bin,"ax",%progbits
 4222              		.align	1
 4223              		.p2align 4,,15
 4224              		.global	cmp_write_bin
 4225              		.syntax unified
 4226              		.thumb
 4227              		.thumb_func
 4228              		.fpu fpv4-sp-d16
 4229              		.type	cmp_write_bin, %function
 4230              	cmp_write_bin:
 4231              	.LFB52:
 4232              		.loc 1 635 0
 4233              		.cfi_startproc
 4234              		@ args = 0, pretend = 0, frame = 24
 4235              		@ frame_needed = 0, uses_anonymous_args = 0
 4236 0000 00B5     		push	{lr}
 4237              		.cfi_def_cfa_offset 4
 4238              		.cfi_offset 14, -4
 4239 0002 87B0     		sub	sp, sp, #28
 4240              		.cfi_def_cfa_offset 32
 4241 0004 0390     		str	r0, [sp, #12]
 4242 0006 0291     		str	r1, [sp, #8]
 4243 0008 0192     		str	r2, [sp, #4]
 4244              		.loc 1 635 0
 4245 000a 164B     		ldr	r3, .L341
 4246 000c 1B68     		ldr	r3, [r3]
 4247 000e 0593     		str	r3, [sp, #20]
 4248              		.loc 1 636 0
 4249 0010 019B     		ldr	r3, [sp, #4]
 4250 0012 FF2B     		cmp	r3, #255
 4251 0014 08D8     		bhi	.L337
 4252              		.loc 1 637 0
 4253 0016 019B     		ldr	r3, [sp, #4]
 4254 0018 DBB2     		uxtb	r3, r3
 4255 001a 1A46     		mov	r2, r3
 4256 001c 0299     		ldr	r1, [sp, #8]
 4257 001e 0398     		ldr	r0, [sp, #12]
 4258 0020 FFF7FEFF 		bl	cmp_write_bin8
 4259 0024 0346     		mov	r3, r0
 4260 0026 12E0     		b	.L338
 4261              	.L337:
 4262              		.loc 1 638 0
 4263 0028 019B     		ldr	r3, [sp, #4]
 4264 002a B3F5803F 		cmp	r3, #65536
 4265 002e 08D2     		bcs	.L339
 4266              		.loc 1 639 0
 4267 0030 019B     		ldr	r3, [sp, #4]
ARM GAS  C:\Users\PCHAUT~1\AppData\Local\Temp\ccacj52E.s 			page 77


 4268 0032 9BB2     		uxth	r3, r3
 4269 0034 1A46     		mov	r2, r3
 4270 0036 0299     		ldr	r1, [sp, #8]
 4271 0038 0398     		ldr	r0, [sp, #12]
 4272 003a FFF7FEFF 		bl	cmp_write_bin16
 4273 003e 0346     		mov	r3, r0
 4274 0040 05E0     		b	.L338
 4275              	.L339:
 4276              		.loc 1 641 0
 4277 0042 019A     		ldr	r2, [sp, #4]
 4278 0044 0299     		ldr	r1, [sp, #8]
 4279 0046 0398     		ldr	r0, [sp, #12]
 4280 0048 FFF7FEFF 		bl	cmp_write_bin32
 4281 004c 0346     		mov	r3, r0
 4282              	.L338:
 4283              		.loc 1 642 0
 4284 004e 1846     		mov	r0, r3
 4285 0050 044B     		ldr	r3, .L341
 4286 0052 059A     		ldr	r2, [sp, #20]
 4287 0054 1B68     		ldr	r3, [r3]
 4288 0056 9A42     		cmp	r2, r3
 4289 0058 01D0     		beq	.L340
 4290 005a FFF7FEFF 		bl	__stack_chk_fail
 4291              	.L340:
 4292 005e 07B0     		add	sp, sp, #28
 4293              		.cfi_def_cfa_offset 4
 4294              		@ sp needed
 4295 0060 5DF804FB 		ldr	pc, [sp], #4
 4296              	.L342:
 4297              		.align	2
 4298              	.L341:
 4299 0064 00000000 		.word	__stack_chk_guard
 4300              		.cfi_endproc
 4301              	.LFE52:
 4302              		.size	cmp_write_bin, .-cmp_write_bin
 4303              		.section	.text.cmp_write_fixarray,"ax",%progbits
 4304              		.align	1
 4305              		.p2align 4,,15
 4306              		.global	cmp_write_fixarray
 4307              		.syntax unified
 4308              		.thumb
 4309              		.thumb_func
 4310              		.fpu fpv4-sp-d16
 4311              		.type	cmp_write_fixarray, %function
 4312              	cmp_write_fixarray:
 4313              	.LFB53:
 4314              		.loc 1 644 0
 4315              		.cfi_startproc
 4316              		@ args = 0, pretend = 0, frame = 16
 4317              		@ frame_needed = 0, uses_anonymous_args = 0
 4318 0000 00B5     		push	{lr}
 4319              		.cfi_def_cfa_offset 4
 4320              		.cfi_offset 14, -4
 4321 0002 85B0     		sub	sp, sp, #20
 4322              		.cfi_def_cfa_offset 24
 4323 0004 0190     		str	r0, [sp, #4]
 4324 0006 0B46     		mov	r3, r1
ARM GAS  C:\Users\PCHAUT~1\AppData\Local\Temp\ccacj52E.s 			page 78


 4325 0008 8DF80330 		strb	r3, [sp, #3]
 4326              		.loc 1 644 0
 4327 000c 104B     		ldr	r3, .L347
 4328 000e 1B68     		ldr	r3, [r3]
 4329 0010 0393     		str	r3, [sp, #12]
 4330              		.loc 1 645 0
 4331 0012 9DF80330 		ldrb	r3, [sp, #3]	@ zero_extendqisi2
 4332 0016 0F2B     		cmp	r3, #15
 4333 0018 0AD8     		bhi	.L344
 4334              		.loc 1 646 0
 4335 001a 9DF80330 		ldrb	r3, [sp, #3]
 4336 001e 63F06F03 		orn	r3, r3, #111
 4337 0022 DBB2     		uxtb	r3, r3
 4338 0024 1946     		mov	r1, r3
 4339 0026 0198     		ldr	r0, [sp, #4]
 4340 0028 FFF7FEFF 		bl	write_fixed_value
 4341 002c 0346     		mov	r3, r0
 4342 002e 03E0     		b	.L345
 4343              	.L344:
 4344              		.loc 1 648 0
 4345 0030 019B     		ldr	r3, [sp, #4]
 4346 0032 0522     		movs	r2, #5
 4347 0034 1A70     		strb	r2, [r3]
 4348              		.loc 1 649 0
 4349 0036 0023     		movs	r3, #0
 4350              	.L345:
 4351              		.loc 1 650 0
 4352 0038 1846     		mov	r0, r3
 4353 003a 054B     		ldr	r3, .L347
 4354 003c 039A     		ldr	r2, [sp, #12]
 4355 003e 1B68     		ldr	r3, [r3]
 4356 0040 9A42     		cmp	r2, r3
 4357 0042 01D0     		beq	.L346
 4358 0044 FFF7FEFF 		bl	__stack_chk_fail
 4359              	.L346:
 4360 0048 05B0     		add	sp, sp, #20
 4361              		.cfi_def_cfa_offset 4
 4362              		@ sp needed
 4363 004a 5DF804FB 		ldr	pc, [sp], #4
 4364              	.L348:
 4365 004e 00BF     		.align	2
 4366              	.L347:
 4367 0050 00000000 		.word	__stack_chk_guard
 4368              		.cfi_endproc
 4369              	.LFE53:
 4370              		.size	cmp_write_fixarray, .-cmp_write_fixarray
 4371              		.section	.text.cmp_write_array16,"ax",%progbits
 4372              		.align	1
 4373              		.p2align 4,,15
 4374              		.global	cmp_write_array16
 4375              		.syntax unified
 4376              		.thumb
 4377              		.thumb_func
 4378              		.fpu fpv4-sp-d16
 4379              		.type	cmp_write_array16, %function
 4380              	cmp_write_array16:
 4381              	.LFB54:
ARM GAS  C:\Users\PCHAUT~1\AppData\Local\Temp\ccacj52E.s 			page 79


 4382              		.loc 1 652 0
 4383              		.cfi_startproc
 4384              		@ args = 0, pretend = 0, frame = 16
 4385              		@ frame_needed = 0, uses_anonymous_args = 0
 4386 0000 00B5     		push	{lr}
 4387              		.cfi_def_cfa_offset 4
 4388              		.cfi_offset 14, -4
 4389 0002 85B0     		sub	sp, sp, #20
 4390              		.cfi_def_cfa_offset 24
 4391 0004 0190     		str	r0, [sp, #4]
 4392 0006 0B46     		mov	r3, r1
 4393 0008 ADF80230 		strh	r3, [sp, #2]	@ movhi
 4394              		.loc 1 652 0
 4395 000c 184B     		ldr	r3, .L354
 4396 000e 1B68     		ldr	r3, [r3]
 4397 0010 0393     		str	r3, [sp, #12]
 4398              		.loc 1 653 0
 4399 0012 DC21     		movs	r1, #220
 4400 0014 0198     		ldr	r0, [sp, #4]
 4401 0016 FFF7FEFF 		bl	write_type_marker
 4402 001a 0346     		mov	r3, r0
 4403 001c 83F00103 		eor	r3, r3, #1
 4404 0020 DBB2     		uxtb	r3, r3
 4405 0022 002B     		cmp	r3, #0
 4406 0024 01D0     		beq	.L350
 4407              		.loc 1 654 0
 4408 0026 0023     		movs	r3, #0
 4409 0028 17E0     		b	.L351
 4410              	.L350:
 4411              		.loc 1 656 0
 4412 002a BDF80230 		ldrh	r3, [sp, #2]
 4413 002e 1846     		mov	r0, r3
 4414 0030 FFF7FEFF 		bl	be16
 4415 0034 0346     		mov	r3, r0
 4416 0036 ADF80230 		strh	r3, [sp, #2]	@ movhi
 4417              		.loc 1 658 0
 4418 003a 019B     		ldr	r3, [sp, #4]
 4419 003c DB68     		ldr	r3, [r3, #12]
 4420 003e 0DF10201 		add	r1, sp, #2
 4421 0042 0222     		movs	r2, #2
 4422 0044 0198     		ldr	r0, [sp, #4]
 4423 0046 9847     		blx	r3
 4424              	.LVL25:
 4425 0048 0346     		mov	r3, r0
 4426 004a 002B     		cmp	r3, #0
 4427 004c 01D0     		beq	.L352
 4428              		.loc 1 659 0
 4429 004e 0123     		movs	r3, #1
 4430 0050 03E0     		b	.L351
 4431              	.L352:
 4432              		.loc 1 661 0
 4433 0052 019B     		ldr	r3, [sp, #4]
 4434 0054 0F22     		movs	r2, #15
 4435 0056 1A70     		strb	r2, [r3]
 4436              		.loc 1 662 0
 4437 0058 0023     		movs	r3, #0
 4438              	.L351:
ARM GAS  C:\Users\PCHAUT~1\AppData\Local\Temp\ccacj52E.s 			page 80


 4439              		.loc 1 663 0
 4440 005a 1846     		mov	r0, r3
 4441 005c 044B     		ldr	r3, .L354
 4442 005e 039A     		ldr	r2, [sp, #12]
 4443 0060 1B68     		ldr	r3, [r3]
 4444 0062 9A42     		cmp	r2, r3
 4445 0064 01D0     		beq	.L353
 4446 0066 FFF7FEFF 		bl	__stack_chk_fail
 4447              	.L353:
 4448 006a 05B0     		add	sp, sp, #20
 4449              		.cfi_def_cfa_offset 4
 4450              		@ sp needed
 4451 006c 5DF804FB 		ldr	pc, [sp], #4
 4452              	.L355:
 4453              		.align	2
 4454              	.L354:
 4455 0070 00000000 		.word	__stack_chk_guard
 4456              		.cfi_endproc
 4457              	.LFE54:
 4458              		.size	cmp_write_array16, .-cmp_write_array16
 4459              		.section	.text.cmp_write_array32,"ax",%progbits
 4460              		.align	1
 4461              		.p2align 4,,15
 4462              		.global	cmp_write_array32
 4463              		.syntax unified
 4464              		.thumb
 4465              		.thumb_func
 4466              		.fpu fpv4-sp-d16
 4467              		.type	cmp_write_array32, %function
 4468              	cmp_write_array32:
 4469              	.LFB55:
 4470              		.loc 1 665 0
 4471              		.cfi_startproc
 4472              		@ args = 0, pretend = 0, frame = 16
 4473              		@ frame_needed = 0, uses_anonymous_args = 0
 4474 0000 00B5     		push	{lr}
 4475              		.cfi_def_cfa_offset 4
 4476              		.cfi_offset 14, -4
 4477 0002 85B0     		sub	sp, sp, #20
 4478              		.cfi_def_cfa_offset 24
 4479 0004 0190     		str	r0, [sp, #4]
 4480 0006 0091     		str	r1, [sp]
 4481              		.loc 1 665 0
 4482 0008 174B     		ldr	r3, .L361
 4483 000a 1B68     		ldr	r3, [r3]
 4484 000c 0393     		str	r3, [sp, #12]
 4485              		.loc 1 666 0
 4486 000e DD21     		movs	r1, #221
 4487 0010 0198     		ldr	r0, [sp, #4]
 4488 0012 FFF7FEFF 		bl	write_type_marker
 4489 0016 0346     		mov	r3, r0
 4490 0018 83F00103 		eor	r3, r3, #1
 4491 001c DBB2     		uxtb	r3, r3
 4492 001e 002B     		cmp	r3, #0
 4493 0020 01D0     		beq	.L357
 4494              		.loc 1 667 0
 4495 0022 0023     		movs	r3, #0
ARM GAS  C:\Users\PCHAUT~1\AppData\Local\Temp\ccacj52E.s 			page 81


 4496 0024 14E0     		b	.L358
 4497              	.L357:
 4498              		.loc 1 669 0
 4499 0026 009B     		ldr	r3, [sp]
 4500 0028 1846     		mov	r0, r3
 4501 002a FFF7FEFF 		bl	be32
 4502 002e 0346     		mov	r3, r0
 4503 0030 0093     		str	r3, [sp]
 4504              		.loc 1 671 0
 4505 0032 019B     		ldr	r3, [sp, #4]
 4506 0034 DB68     		ldr	r3, [r3, #12]
 4507 0036 6946     		mov	r1, sp
 4508 0038 0422     		movs	r2, #4
 4509 003a 0198     		ldr	r0, [sp, #4]
 4510 003c 9847     		blx	r3
 4511              	.LVL26:
 4512 003e 0346     		mov	r3, r0
 4513 0040 002B     		cmp	r3, #0
 4514 0042 01D0     		beq	.L359
 4515              		.loc 1 672 0
 4516 0044 0123     		movs	r3, #1
 4517 0046 03E0     		b	.L358
 4518              	.L359:
 4519              		.loc 1 674 0
 4520 0048 019B     		ldr	r3, [sp, #4]
 4521 004a 0F22     		movs	r2, #15
 4522 004c 1A70     		strb	r2, [r3]
 4523              		.loc 1 675 0
 4524 004e 0023     		movs	r3, #0
 4525              	.L358:
 4526              		.loc 1 676 0
 4527 0050 1846     		mov	r0, r3
 4528 0052 054B     		ldr	r3, .L361
 4529 0054 039A     		ldr	r2, [sp, #12]
 4530 0056 1B68     		ldr	r3, [r3]
 4531 0058 9A42     		cmp	r2, r3
 4532 005a 01D0     		beq	.L360
 4533 005c FFF7FEFF 		bl	__stack_chk_fail
 4534              	.L360:
 4535 0060 05B0     		add	sp, sp, #20
 4536              		.cfi_def_cfa_offset 4
 4537              		@ sp needed
 4538 0062 5DF804FB 		ldr	pc, [sp], #4
 4539              	.L362:
 4540 0066 00BF     		.align	2
 4541              	.L361:
 4542 0068 00000000 		.word	__stack_chk_guard
 4543              		.cfi_endproc
 4544              	.LFE55:
 4545              		.size	cmp_write_array32, .-cmp_write_array32
 4546              		.section	.text.cmp_write_array,"ax",%progbits
 4547              		.align	1
 4548              		.p2align 4,,15
 4549              		.global	cmp_write_array
 4550              		.syntax unified
 4551              		.thumb
 4552              		.thumb_func
ARM GAS  C:\Users\PCHAUT~1\AppData\Local\Temp\ccacj52E.s 			page 82


 4553              		.fpu fpv4-sp-d16
 4554              		.type	cmp_write_array, %function
 4555              	cmp_write_array:
 4556              	.LFB56:
 4557              		.loc 1 678 0
 4558              		.cfi_startproc
 4559              		@ args = 0, pretend = 0, frame = 16
 4560              		@ frame_needed = 0, uses_anonymous_args = 0
 4561 0000 00B5     		push	{lr}
 4562              		.cfi_def_cfa_offset 4
 4563              		.cfi_offset 14, -4
 4564 0002 85B0     		sub	sp, sp, #20
 4565              		.cfi_def_cfa_offset 24
 4566 0004 0190     		str	r0, [sp, #4]
 4567 0006 0091     		str	r1, [sp]
 4568              		.loc 1 678 0
 4569 0008 144B     		ldr	r3, .L368
 4570 000a 1B68     		ldr	r3, [r3]
 4571 000c 0393     		str	r3, [sp, #12]
 4572              		.loc 1 679 0
 4573 000e 009B     		ldr	r3, [sp]
 4574 0010 0F2B     		cmp	r3, #15
 4575 0012 07D8     		bhi	.L364
 4576              		.loc 1 680 0
 4577 0014 009B     		ldr	r3, [sp]
 4578 0016 DBB2     		uxtb	r3, r3
 4579 0018 1946     		mov	r1, r3
 4580 001a 0198     		ldr	r0, [sp, #4]
 4581 001c FFF7FEFF 		bl	cmp_write_fixarray
 4582 0020 0346     		mov	r3, r0
 4583 0022 10E0     		b	.L365
 4584              	.L364:
 4585              		.loc 1 681 0
 4586 0024 009B     		ldr	r3, [sp]
 4587 0026 B3F5803F 		cmp	r3, #65536
 4588 002a 07D2     		bcs	.L366
 4589              		.loc 1 682 0
 4590 002c 009B     		ldr	r3, [sp]
 4591 002e 9BB2     		uxth	r3, r3
 4592 0030 1946     		mov	r1, r3
 4593 0032 0198     		ldr	r0, [sp, #4]
 4594 0034 FFF7FEFF 		bl	cmp_write_array16
 4595 0038 0346     		mov	r3, r0
 4596 003a 04E0     		b	.L365
 4597              	.L366:
 4598              		.loc 1 684 0
 4599 003c 0099     		ldr	r1, [sp]
 4600 003e 0198     		ldr	r0, [sp, #4]
 4601 0040 FFF7FEFF 		bl	cmp_write_array32
 4602 0044 0346     		mov	r3, r0
 4603              	.L365:
 4604              		.loc 1 685 0
 4605 0046 1846     		mov	r0, r3
 4606 0048 044B     		ldr	r3, .L368
 4607 004a 039A     		ldr	r2, [sp, #12]
 4608 004c 1B68     		ldr	r3, [r3]
 4609 004e 9A42     		cmp	r2, r3
ARM GAS  C:\Users\PCHAUT~1\AppData\Local\Temp\ccacj52E.s 			page 83


 4610 0050 01D0     		beq	.L367
 4611 0052 FFF7FEFF 		bl	__stack_chk_fail
 4612              	.L367:
 4613 0056 05B0     		add	sp, sp, #20
 4614              		.cfi_def_cfa_offset 4
 4615              		@ sp needed
 4616 0058 5DF804FB 		ldr	pc, [sp], #4
 4617              	.L369:
 4618              		.align	2
 4619              	.L368:
 4620 005c 00000000 		.word	__stack_chk_guard
 4621              		.cfi_endproc
 4622              	.LFE56:
 4623              		.size	cmp_write_array, .-cmp_write_array
 4624              		.section	.text.cmp_write_fixmap,"ax",%progbits
 4625              		.align	1
 4626              		.p2align 4,,15
 4627              		.global	cmp_write_fixmap
 4628              		.syntax unified
 4629              		.thumb
 4630              		.thumb_func
 4631              		.fpu fpv4-sp-d16
 4632              		.type	cmp_write_fixmap, %function
 4633              	cmp_write_fixmap:
 4634              	.LFB57:
 4635              		.loc 1 687 0
 4636              		.cfi_startproc
 4637              		@ args = 0, pretend = 0, frame = 16
 4638              		@ frame_needed = 0, uses_anonymous_args = 0
 4639 0000 00B5     		push	{lr}
 4640              		.cfi_def_cfa_offset 4
 4641              		.cfi_offset 14, -4
 4642 0002 85B0     		sub	sp, sp, #20
 4643              		.cfi_def_cfa_offset 24
 4644 0004 0190     		str	r0, [sp, #4]
 4645 0006 0B46     		mov	r3, r1
 4646 0008 8DF80330 		strb	r3, [sp, #3]
 4647              		.loc 1 687 0
 4648 000c 104B     		ldr	r3, .L374
 4649 000e 1B68     		ldr	r3, [r3]
 4650 0010 0393     		str	r3, [sp, #12]
 4651              		.loc 1 688 0
 4652 0012 9DF80330 		ldrb	r3, [sp, #3]	@ zero_extendqisi2
 4653 0016 0F2B     		cmp	r3, #15
 4654 0018 0AD8     		bhi	.L371
 4655              		.loc 1 689 0
 4656 001a 9DF80330 		ldrb	r3, [sp, #3]
 4657 001e 63F07F03 		orn	r3, r3, #127
 4658 0022 DBB2     		uxtb	r3, r3
 4659 0024 1946     		mov	r1, r3
 4660 0026 0198     		ldr	r0, [sp, #4]
 4661 0028 FFF7FEFF 		bl	write_fixed_value
 4662 002c 0346     		mov	r3, r0
 4663 002e 03E0     		b	.L372
 4664              	.L371:
 4665              		.loc 1 691 0
 4666 0030 019B     		ldr	r3, [sp, #4]
ARM GAS  C:\Users\PCHAUT~1\AppData\Local\Temp\ccacj52E.s 			page 84


 4667 0032 0522     		movs	r2, #5
 4668 0034 1A70     		strb	r2, [r3]
 4669              		.loc 1 692 0
 4670 0036 0023     		movs	r3, #0
 4671              	.L372:
 4672              		.loc 1 693 0
 4673 0038 1846     		mov	r0, r3
 4674 003a 054B     		ldr	r3, .L374
 4675 003c 039A     		ldr	r2, [sp, #12]
 4676 003e 1B68     		ldr	r3, [r3]
 4677 0040 9A42     		cmp	r2, r3
 4678 0042 01D0     		beq	.L373
 4679 0044 FFF7FEFF 		bl	__stack_chk_fail
 4680              	.L373:
 4681 0048 05B0     		add	sp, sp, #20
 4682              		.cfi_def_cfa_offset 4
 4683              		@ sp needed
 4684 004a 5DF804FB 		ldr	pc, [sp], #4
 4685              	.L375:
 4686 004e 00BF     		.align	2
 4687              	.L374:
 4688 0050 00000000 		.word	__stack_chk_guard
 4689              		.cfi_endproc
 4690              	.LFE57:
 4691              		.size	cmp_write_fixmap, .-cmp_write_fixmap
 4692              		.section	.text.cmp_write_map16,"ax",%progbits
 4693              		.align	1
 4694              		.p2align 4,,15
 4695              		.global	cmp_write_map16
 4696              		.syntax unified
 4697              		.thumb
 4698              		.thumb_func
 4699              		.fpu fpv4-sp-d16
 4700              		.type	cmp_write_map16, %function
 4701              	cmp_write_map16:
 4702              	.LFB58:
 4703              		.loc 1 695 0
 4704              		.cfi_startproc
 4705              		@ args = 0, pretend = 0, frame = 16
 4706              		@ frame_needed = 0, uses_anonymous_args = 0
 4707 0000 00B5     		push	{lr}
 4708              		.cfi_def_cfa_offset 4
 4709              		.cfi_offset 14, -4
 4710 0002 85B0     		sub	sp, sp, #20
 4711              		.cfi_def_cfa_offset 24
 4712 0004 0190     		str	r0, [sp, #4]
 4713 0006 0B46     		mov	r3, r1
 4714 0008 ADF80230 		strh	r3, [sp, #2]	@ movhi
 4715              		.loc 1 695 0
 4716 000c 184B     		ldr	r3, .L381
 4717 000e 1B68     		ldr	r3, [r3]
 4718 0010 0393     		str	r3, [sp, #12]
 4719              		.loc 1 696 0
 4720 0012 DE21     		movs	r1, #222
 4721 0014 0198     		ldr	r0, [sp, #4]
 4722 0016 FFF7FEFF 		bl	write_type_marker
 4723 001a 0346     		mov	r3, r0
ARM GAS  C:\Users\PCHAUT~1\AppData\Local\Temp\ccacj52E.s 			page 85


 4724 001c 83F00103 		eor	r3, r3, #1
 4725 0020 DBB2     		uxtb	r3, r3
 4726 0022 002B     		cmp	r3, #0
 4727 0024 01D0     		beq	.L377
 4728              		.loc 1 697 0
 4729 0026 0023     		movs	r3, #0
 4730 0028 17E0     		b	.L378
 4731              	.L377:
 4732              		.loc 1 699 0
 4733 002a BDF80230 		ldrh	r3, [sp, #2]
 4734 002e 1846     		mov	r0, r3
 4735 0030 FFF7FEFF 		bl	be16
 4736 0034 0346     		mov	r3, r0
 4737 0036 ADF80230 		strh	r3, [sp, #2]	@ movhi
 4738              		.loc 1 701 0
 4739 003a 019B     		ldr	r3, [sp, #4]
 4740 003c DB68     		ldr	r3, [r3, #12]
 4741 003e 0DF10201 		add	r1, sp, #2
 4742 0042 0222     		movs	r2, #2
 4743 0044 0198     		ldr	r0, [sp, #4]
 4744 0046 9847     		blx	r3
 4745              	.LVL27:
 4746 0048 0346     		mov	r3, r0
 4747 004a 002B     		cmp	r3, #0
 4748 004c 01D0     		beq	.L379
 4749              		.loc 1 702 0
 4750 004e 0123     		movs	r3, #1
 4751 0050 03E0     		b	.L378
 4752              	.L379:
 4753              		.loc 1 704 0
 4754 0052 019B     		ldr	r3, [sp, #4]
 4755 0054 0F22     		movs	r2, #15
 4756 0056 1A70     		strb	r2, [r3]
 4757              		.loc 1 705 0
 4758 0058 0023     		movs	r3, #0
 4759              	.L378:
 4760              		.loc 1 706 0
 4761 005a 1846     		mov	r0, r3
 4762 005c 044B     		ldr	r3, .L381
 4763 005e 039A     		ldr	r2, [sp, #12]
 4764 0060 1B68     		ldr	r3, [r3]
 4765 0062 9A42     		cmp	r2, r3
 4766 0064 01D0     		beq	.L380
 4767 0066 FFF7FEFF 		bl	__stack_chk_fail
 4768              	.L380:
 4769 006a 05B0     		add	sp, sp, #20
 4770              		.cfi_def_cfa_offset 4
 4771              		@ sp needed
 4772 006c 5DF804FB 		ldr	pc, [sp], #4
 4773              	.L382:
 4774              		.align	2
 4775              	.L381:
 4776 0070 00000000 		.word	__stack_chk_guard
 4777              		.cfi_endproc
 4778              	.LFE58:
 4779              		.size	cmp_write_map16, .-cmp_write_map16
 4780              		.section	.text.cmp_write_map32,"ax",%progbits
ARM GAS  C:\Users\PCHAUT~1\AppData\Local\Temp\ccacj52E.s 			page 86


 4781              		.align	1
 4782              		.p2align 4,,15
 4783              		.global	cmp_write_map32
 4784              		.syntax unified
 4785              		.thumb
 4786              		.thumb_func
 4787              		.fpu fpv4-sp-d16
 4788              		.type	cmp_write_map32, %function
 4789              	cmp_write_map32:
 4790              	.LFB59:
 4791              		.loc 1 708 0
 4792              		.cfi_startproc
 4793              		@ args = 0, pretend = 0, frame = 16
 4794              		@ frame_needed = 0, uses_anonymous_args = 0
 4795 0000 00B5     		push	{lr}
 4796              		.cfi_def_cfa_offset 4
 4797              		.cfi_offset 14, -4
 4798 0002 85B0     		sub	sp, sp, #20
 4799              		.cfi_def_cfa_offset 24
 4800 0004 0190     		str	r0, [sp, #4]
 4801 0006 0091     		str	r1, [sp]
 4802              		.loc 1 708 0
 4803 0008 174B     		ldr	r3, .L388
 4804 000a 1B68     		ldr	r3, [r3]
 4805 000c 0393     		str	r3, [sp, #12]
 4806              		.loc 1 709 0
 4807 000e DF21     		movs	r1, #223
 4808 0010 0198     		ldr	r0, [sp, #4]
 4809 0012 FFF7FEFF 		bl	write_type_marker
 4810 0016 0346     		mov	r3, r0
 4811 0018 83F00103 		eor	r3, r3, #1
 4812 001c DBB2     		uxtb	r3, r3
 4813 001e 002B     		cmp	r3, #0
 4814 0020 01D0     		beq	.L384
 4815              		.loc 1 710 0
 4816 0022 0023     		movs	r3, #0
 4817 0024 14E0     		b	.L385
 4818              	.L384:
 4819              		.loc 1 712 0
 4820 0026 009B     		ldr	r3, [sp]
 4821 0028 1846     		mov	r0, r3
 4822 002a FFF7FEFF 		bl	be32
 4823 002e 0346     		mov	r3, r0
 4824 0030 0093     		str	r3, [sp]
 4825              		.loc 1 714 0
 4826 0032 019B     		ldr	r3, [sp, #4]
 4827 0034 DB68     		ldr	r3, [r3, #12]
 4828 0036 6946     		mov	r1, sp
 4829 0038 0422     		movs	r2, #4
 4830 003a 0198     		ldr	r0, [sp, #4]
 4831 003c 9847     		blx	r3
 4832              	.LVL28:
 4833 003e 0346     		mov	r3, r0
 4834 0040 002B     		cmp	r3, #0
 4835 0042 01D0     		beq	.L386
 4836              		.loc 1 715 0
 4837 0044 0123     		movs	r3, #1
ARM GAS  C:\Users\PCHAUT~1\AppData\Local\Temp\ccacj52E.s 			page 87


 4838 0046 03E0     		b	.L385
 4839              	.L386:
 4840              		.loc 1 717 0
 4841 0048 019B     		ldr	r3, [sp, #4]
 4842 004a 0F22     		movs	r2, #15
 4843 004c 1A70     		strb	r2, [r3]
 4844              		.loc 1 718 0
 4845 004e 0023     		movs	r3, #0
 4846              	.L385:
 4847              		.loc 1 719 0
 4848 0050 1846     		mov	r0, r3
 4849 0052 054B     		ldr	r3, .L388
 4850 0054 039A     		ldr	r2, [sp, #12]
 4851 0056 1B68     		ldr	r3, [r3]
 4852 0058 9A42     		cmp	r2, r3
 4853 005a 01D0     		beq	.L387
 4854 005c FFF7FEFF 		bl	__stack_chk_fail
 4855              	.L387:
 4856 0060 05B0     		add	sp, sp, #20
 4857              		.cfi_def_cfa_offset 4
 4858              		@ sp needed
 4859 0062 5DF804FB 		ldr	pc, [sp], #4
 4860              	.L389:
 4861 0066 00BF     		.align	2
 4862              	.L388:
 4863 0068 00000000 		.word	__stack_chk_guard
 4864              		.cfi_endproc
 4865              	.LFE59:
 4866              		.size	cmp_write_map32, .-cmp_write_map32
 4867              		.section	.text.cmp_write_map,"ax",%progbits
 4868              		.align	1
 4869              		.p2align 4,,15
 4870              		.global	cmp_write_map
 4871              		.syntax unified
 4872              		.thumb
 4873              		.thumb_func
 4874              		.fpu fpv4-sp-d16
 4875              		.type	cmp_write_map, %function
 4876              	cmp_write_map:
 4877              	.LFB60:
 4878              		.loc 1 721 0
 4879              		.cfi_startproc
 4880              		@ args = 0, pretend = 0, frame = 16
 4881              		@ frame_needed = 0, uses_anonymous_args = 0
 4882 0000 00B5     		push	{lr}
 4883              		.cfi_def_cfa_offset 4
 4884              		.cfi_offset 14, -4
 4885 0002 85B0     		sub	sp, sp, #20
 4886              		.cfi_def_cfa_offset 24
 4887 0004 0190     		str	r0, [sp, #4]
 4888 0006 0091     		str	r1, [sp]
 4889              		.loc 1 721 0
 4890 0008 144B     		ldr	r3, .L395
 4891 000a 1B68     		ldr	r3, [r3]
 4892 000c 0393     		str	r3, [sp, #12]
 4893              		.loc 1 722 0
 4894 000e 009B     		ldr	r3, [sp]
ARM GAS  C:\Users\PCHAUT~1\AppData\Local\Temp\ccacj52E.s 			page 88


 4895 0010 0F2B     		cmp	r3, #15
 4896 0012 07D8     		bhi	.L391
 4897              		.loc 1 723 0
 4898 0014 009B     		ldr	r3, [sp]
 4899 0016 DBB2     		uxtb	r3, r3
 4900 0018 1946     		mov	r1, r3
 4901 001a 0198     		ldr	r0, [sp, #4]
 4902 001c FFF7FEFF 		bl	cmp_write_fixmap
 4903 0020 0346     		mov	r3, r0
 4904 0022 10E0     		b	.L392
 4905              	.L391:
 4906              		.loc 1 724 0
 4907 0024 009B     		ldr	r3, [sp]
 4908 0026 B3F5803F 		cmp	r3, #65536
 4909 002a 07D2     		bcs	.L393
 4910              		.loc 1 725 0
 4911 002c 009B     		ldr	r3, [sp]
 4912 002e 9BB2     		uxth	r3, r3
 4913 0030 1946     		mov	r1, r3
 4914 0032 0198     		ldr	r0, [sp, #4]
 4915 0034 FFF7FEFF 		bl	cmp_write_map16
 4916 0038 0346     		mov	r3, r0
 4917 003a 04E0     		b	.L392
 4918              	.L393:
 4919              		.loc 1 727 0
 4920 003c 0099     		ldr	r1, [sp]
 4921 003e 0198     		ldr	r0, [sp, #4]
 4922 0040 FFF7FEFF 		bl	cmp_write_map32
 4923 0044 0346     		mov	r3, r0
 4924              	.L392:
 4925              		.loc 1 728 0
 4926 0046 1846     		mov	r0, r3
 4927 0048 044B     		ldr	r3, .L395
 4928 004a 039A     		ldr	r2, [sp, #12]
 4929 004c 1B68     		ldr	r3, [r3]
 4930 004e 9A42     		cmp	r2, r3
 4931 0050 01D0     		beq	.L394
 4932 0052 FFF7FEFF 		bl	__stack_chk_fail
 4933              	.L394:
 4934 0056 05B0     		add	sp, sp, #20
 4935              		.cfi_def_cfa_offset 4
 4936              		@ sp needed
 4937 0058 5DF804FB 		ldr	pc, [sp], #4
 4938              	.L396:
 4939              		.align	2
 4940              	.L395:
 4941 005c 00000000 		.word	__stack_chk_guard
 4942              		.cfi_endproc
 4943              	.LFE60:
 4944              		.size	cmp_write_map, .-cmp_write_map
 4945              		.section	.text.cmp_write_fixext1_marker,"ax",%progbits
 4946              		.align	1
 4947              		.p2align 4,,15
 4948              		.global	cmp_write_fixext1_marker
 4949              		.syntax unified
 4950              		.thumb
 4951              		.thumb_func
ARM GAS  C:\Users\PCHAUT~1\AppData\Local\Temp\ccacj52E.s 			page 89


 4952              		.fpu fpv4-sp-d16
 4953              		.type	cmp_write_fixext1_marker, %function
 4954              	cmp_write_fixext1_marker:
 4955              	.LFB61:
 4956              		.loc 1 730 0
 4957              		.cfi_startproc
 4958              		@ args = 0, pretend = 0, frame = 16
 4959              		@ frame_needed = 0, uses_anonymous_args = 0
 4960 0000 00B5     		push	{lr}
 4961              		.cfi_def_cfa_offset 4
 4962              		.cfi_offset 14, -4
 4963 0002 85B0     		sub	sp, sp, #20
 4964              		.cfi_def_cfa_offset 24
 4965 0004 0190     		str	r0, [sp, #4]
 4966 0006 0B46     		mov	r3, r1
 4967 0008 8DF80330 		strb	r3, [sp, #3]
 4968              		.loc 1 730 0
 4969 000c 144B     		ldr	r3, .L402
 4970 000e 1B68     		ldr	r3, [r3]
 4971 0010 0393     		str	r3, [sp, #12]
 4972              		.loc 1 731 0
 4973 0012 D421     		movs	r1, #212
 4974 0014 0198     		ldr	r0, [sp, #4]
 4975 0016 FFF7FEFF 		bl	write_type_marker
 4976 001a 0346     		mov	r3, r0
 4977 001c 83F00103 		eor	r3, r3, #1
 4978 0020 DBB2     		uxtb	r3, r3
 4979 0022 002B     		cmp	r3, #0
 4980 0024 01D0     		beq	.L398
 4981              		.loc 1 732 0
 4982 0026 0023     		movs	r3, #0
 4983 0028 0FE0     		b	.L399
 4984              	.L398:
 4985              		.loc 1 734 0
 4986 002a 019B     		ldr	r3, [sp, #4]
 4987 002c DB68     		ldr	r3, [r3, #12]
 4988 002e 0DF10301 		add	r1, sp, #3
 4989 0032 0122     		movs	r2, #1
 4990 0034 0198     		ldr	r0, [sp, #4]
 4991 0036 9847     		blx	r3
 4992              	.LVL29:
 4993 0038 0346     		mov	r3, r0
 4994 003a 002B     		cmp	r3, #0
 4995 003c 01D0     		beq	.L400
 4996              		.loc 1 735 0
 4997 003e 0123     		movs	r3, #1
 4998 0040 03E0     		b	.L399
 4999              	.L400:
 5000              		.loc 1 737 0
 5001 0042 019B     		ldr	r3, [sp, #4]
 5002 0044 0C22     		movs	r2, #12
 5003 0046 1A70     		strb	r2, [r3]
 5004              		.loc 1 738 0
 5005 0048 0023     		movs	r3, #0
 5006              	.L399:
 5007              		.loc 1 739 0
 5008 004a 1846     		mov	r0, r3
ARM GAS  C:\Users\PCHAUT~1\AppData\Local\Temp\ccacj52E.s 			page 90


 5009 004c 044B     		ldr	r3, .L402
 5010 004e 039A     		ldr	r2, [sp, #12]
 5011 0050 1B68     		ldr	r3, [r3]
 5012 0052 9A42     		cmp	r2, r3
 5013 0054 01D0     		beq	.L401
 5014 0056 FFF7FEFF 		bl	__stack_chk_fail
 5015              	.L401:
 5016 005a 05B0     		add	sp, sp, #20
 5017              		.cfi_def_cfa_offset 4
 5018              		@ sp needed
 5019 005c 5DF804FB 		ldr	pc, [sp], #4
 5020              	.L403:
 5021              		.align	2
 5022              	.L402:
 5023 0060 00000000 		.word	__stack_chk_guard
 5024              		.cfi_endproc
 5025              	.LFE61:
 5026              		.size	cmp_write_fixext1_marker, .-cmp_write_fixext1_marker
 5027              		.section	.text.cmp_write_fixext1,"ax",%progbits
 5028              		.align	1
 5029              		.p2align 4,,15
 5030              		.global	cmp_write_fixext1
 5031              		.syntax unified
 5032              		.thumb
 5033              		.thumb_func
 5034              		.fpu fpv4-sp-d16
 5035              		.type	cmp_write_fixext1, %function
 5036              	cmp_write_fixext1:
 5037              	.LFB62:
 5038              		.loc 1 741 0
 5039              		.cfi_startproc
 5040              		@ args = 0, pretend = 0, frame = 24
 5041              		@ frame_needed = 0, uses_anonymous_args = 0
 5042 0000 00B5     		push	{lr}
 5043              		.cfi_def_cfa_offset 4
 5044              		.cfi_offset 14, -4
 5045 0002 87B0     		sub	sp, sp, #28
 5046              		.cfi_def_cfa_offset 32
 5047 0004 0390     		str	r0, [sp, #12]
 5048 0006 0B46     		mov	r3, r1
 5049 0008 0192     		str	r2, [sp, #4]
 5050 000a 8DF80B30 		strb	r3, [sp, #11]
 5051              		.loc 1 741 0
 5052 000e 154B     		ldr	r3, .L409
 5053 0010 1B68     		ldr	r3, [r3]
 5054 0012 0593     		str	r3, [sp, #20]
 5055              		.loc 1 742 0
 5056 0014 9DF90B30 		ldrsb	r3, [sp, #11]
 5057 0018 1946     		mov	r1, r3
 5058 001a 0398     		ldr	r0, [sp, #12]
 5059 001c FFF7FEFF 		bl	cmp_write_fixext1_marker
 5060 0020 0346     		mov	r3, r0
 5061 0022 83F00103 		eor	r3, r3, #1
 5062 0026 DBB2     		uxtb	r3, r3
 5063 0028 002B     		cmp	r3, #0
 5064 002a 01D0     		beq	.L405
 5065              		.loc 1 743 0
ARM GAS  C:\Users\PCHAUT~1\AppData\Local\Temp\ccacj52E.s 			page 91


 5066 002c 0023     		movs	r3, #0
 5067 002e 0EE0     		b	.L406
 5068              	.L405:
 5069              		.loc 1 745 0
 5070 0030 039B     		ldr	r3, [sp, #12]
 5071 0032 DB68     		ldr	r3, [r3, #12]
 5072 0034 0122     		movs	r2, #1
 5073 0036 0199     		ldr	r1, [sp, #4]
 5074 0038 0398     		ldr	r0, [sp, #12]
 5075 003a 9847     		blx	r3
 5076              	.LVL30:
 5077 003c 0346     		mov	r3, r0
 5078 003e 002B     		cmp	r3, #0
 5079 0040 01D0     		beq	.L407
 5080              		.loc 1 746 0
 5081 0042 0123     		movs	r3, #1
 5082 0044 03E0     		b	.L406
 5083              	.L407:
 5084              		.loc 1 748 0
 5085 0046 039B     		ldr	r3, [sp, #12]
 5086 0048 0A22     		movs	r2, #10
 5087 004a 1A70     		strb	r2, [r3]
 5088              		.loc 1 749 0
 5089 004c 0023     		movs	r3, #0
 5090              	.L406:
 5091              		.loc 1 750 0
 5092 004e 1846     		mov	r0, r3
 5093 0050 044B     		ldr	r3, .L409
 5094 0052 059A     		ldr	r2, [sp, #20]
 5095 0054 1B68     		ldr	r3, [r3]
 5096 0056 9A42     		cmp	r2, r3
 5097 0058 01D0     		beq	.L408
 5098 005a FFF7FEFF 		bl	__stack_chk_fail
 5099              	.L408:
 5100 005e 07B0     		add	sp, sp, #28
 5101              		.cfi_def_cfa_offset 4
 5102              		@ sp needed
 5103 0060 5DF804FB 		ldr	pc, [sp], #4
 5104              	.L410:
 5105              		.align	2
 5106              	.L409:
 5107 0064 00000000 		.word	__stack_chk_guard
 5108              		.cfi_endproc
 5109              	.LFE62:
 5110              		.size	cmp_write_fixext1, .-cmp_write_fixext1
 5111              		.section	.text.cmp_write_fixext2_marker,"ax",%progbits
 5112              		.align	1
 5113              		.p2align 4,,15
 5114              		.global	cmp_write_fixext2_marker
 5115              		.syntax unified
 5116              		.thumb
 5117              		.thumb_func
 5118              		.fpu fpv4-sp-d16
 5119              		.type	cmp_write_fixext2_marker, %function
 5120              	cmp_write_fixext2_marker:
 5121              	.LFB63:
 5122              		.loc 1 752 0
ARM GAS  C:\Users\PCHAUT~1\AppData\Local\Temp\ccacj52E.s 			page 92


 5123              		.cfi_startproc
 5124              		@ args = 0, pretend = 0, frame = 16
 5125              		@ frame_needed = 0, uses_anonymous_args = 0
 5126 0000 00B5     		push	{lr}
 5127              		.cfi_def_cfa_offset 4
 5128              		.cfi_offset 14, -4
 5129 0002 85B0     		sub	sp, sp, #20
 5130              		.cfi_def_cfa_offset 24
 5131 0004 0190     		str	r0, [sp, #4]
 5132 0006 0B46     		mov	r3, r1
 5133 0008 8DF80330 		strb	r3, [sp, #3]
 5134              		.loc 1 752 0
 5135 000c 144B     		ldr	r3, .L416
 5136 000e 1B68     		ldr	r3, [r3]
 5137 0010 0393     		str	r3, [sp, #12]
 5138              		.loc 1 753 0
 5139 0012 D521     		movs	r1, #213
 5140 0014 0198     		ldr	r0, [sp, #4]
 5141 0016 FFF7FEFF 		bl	write_type_marker
 5142 001a 0346     		mov	r3, r0
 5143 001c 83F00103 		eor	r3, r3, #1
 5144 0020 DBB2     		uxtb	r3, r3
 5145 0022 002B     		cmp	r3, #0
 5146 0024 01D0     		beq	.L412
 5147              		.loc 1 754 0
 5148 0026 0023     		movs	r3, #0
 5149 0028 0FE0     		b	.L413
 5150              	.L412:
 5151              		.loc 1 756 0
 5152 002a 019B     		ldr	r3, [sp, #4]
 5153 002c DB68     		ldr	r3, [r3, #12]
 5154 002e 0DF10301 		add	r1, sp, #3
 5155 0032 0122     		movs	r2, #1
 5156 0034 0198     		ldr	r0, [sp, #4]
 5157 0036 9847     		blx	r3
 5158              	.LVL31:
 5159 0038 0346     		mov	r3, r0
 5160 003a 002B     		cmp	r3, #0
 5161 003c 01D0     		beq	.L414
 5162              		.loc 1 757 0
 5163 003e 0123     		movs	r3, #1
 5164 0040 03E0     		b	.L413
 5165              	.L414:
 5166              		.loc 1 759 0
 5167 0042 019B     		ldr	r3, [sp, #4]
 5168 0044 0C22     		movs	r2, #12
 5169 0046 1A70     		strb	r2, [r3]
 5170              		.loc 1 760 0
 5171 0048 0023     		movs	r3, #0
 5172              	.L413:
 5173              		.loc 1 761 0
 5174 004a 1846     		mov	r0, r3
 5175 004c 044B     		ldr	r3, .L416
 5176 004e 039A     		ldr	r2, [sp, #12]
 5177 0050 1B68     		ldr	r3, [r3]
 5178 0052 9A42     		cmp	r2, r3
 5179 0054 01D0     		beq	.L415
ARM GAS  C:\Users\PCHAUT~1\AppData\Local\Temp\ccacj52E.s 			page 93


 5180 0056 FFF7FEFF 		bl	__stack_chk_fail
 5181              	.L415:
 5182 005a 05B0     		add	sp, sp, #20
 5183              		.cfi_def_cfa_offset 4
 5184              		@ sp needed
 5185 005c 5DF804FB 		ldr	pc, [sp], #4
 5186              	.L417:
 5187              		.align	2
 5188              	.L416:
 5189 0060 00000000 		.word	__stack_chk_guard
 5190              		.cfi_endproc
 5191              	.LFE63:
 5192              		.size	cmp_write_fixext2_marker, .-cmp_write_fixext2_marker
 5193              		.section	.text.cmp_write_fixext2,"ax",%progbits
 5194              		.align	1
 5195              		.p2align 4,,15
 5196              		.global	cmp_write_fixext2
 5197              		.syntax unified
 5198              		.thumb
 5199              		.thumb_func
 5200              		.fpu fpv4-sp-d16
 5201              		.type	cmp_write_fixext2, %function
 5202              	cmp_write_fixext2:
 5203              	.LFB64:
 5204              		.loc 1 763 0
 5205              		.cfi_startproc
 5206              		@ args = 0, pretend = 0, frame = 24
 5207              		@ frame_needed = 0, uses_anonymous_args = 0
 5208 0000 00B5     		push	{lr}
 5209              		.cfi_def_cfa_offset 4
 5210              		.cfi_offset 14, -4
 5211 0002 87B0     		sub	sp, sp, #28
 5212              		.cfi_def_cfa_offset 32
 5213 0004 0390     		str	r0, [sp, #12]
 5214 0006 0B46     		mov	r3, r1
 5215 0008 0192     		str	r2, [sp, #4]
 5216 000a 8DF80B30 		strb	r3, [sp, #11]
 5217              		.loc 1 763 0
 5218 000e 154B     		ldr	r3, .L423
 5219 0010 1B68     		ldr	r3, [r3]
 5220 0012 0593     		str	r3, [sp, #20]
 5221              		.loc 1 764 0
 5222 0014 9DF90B30 		ldrsb	r3, [sp, #11]
 5223 0018 1946     		mov	r1, r3
 5224 001a 0398     		ldr	r0, [sp, #12]
 5225 001c FFF7FEFF 		bl	cmp_write_fixext2_marker
 5226 0020 0346     		mov	r3, r0
 5227 0022 83F00103 		eor	r3, r3, #1
 5228 0026 DBB2     		uxtb	r3, r3
 5229 0028 002B     		cmp	r3, #0
 5230 002a 01D0     		beq	.L419
 5231              		.loc 1 765 0
 5232 002c 0023     		movs	r3, #0
 5233 002e 0EE0     		b	.L420
 5234              	.L419:
 5235              		.loc 1 767 0
 5236 0030 039B     		ldr	r3, [sp, #12]
ARM GAS  C:\Users\PCHAUT~1\AppData\Local\Temp\ccacj52E.s 			page 94


 5237 0032 DB68     		ldr	r3, [r3, #12]
 5238 0034 0222     		movs	r2, #2
 5239 0036 0199     		ldr	r1, [sp, #4]
 5240 0038 0398     		ldr	r0, [sp, #12]
 5241 003a 9847     		blx	r3
 5242              	.LVL32:
 5243 003c 0346     		mov	r3, r0
 5244 003e 002B     		cmp	r3, #0
 5245 0040 01D0     		beq	.L421
 5246              		.loc 1 768 0
 5247 0042 0123     		movs	r3, #1
 5248 0044 03E0     		b	.L420
 5249              	.L421:
 5250              		.loc 1 770 0
 5251 0046 039B     		ldr	r3, [sp, #12]
 5252 0048 0A22     		movs	r2, #10
 5253 004a 1A70     		strb	r2, [r3]
 5254              		.loc 1 771 0
 5255 004c 0023     		movs	r3, #0
 5256              	.L420:
 5257              		.loc 1 772 0
 5258 004e 1846     		mov	r0, r3
 5259 0050 044B     		ldr	r3, .L423
 5260 0052 059A     		ldr	r2, [sp, #20]
 5261 0054 1B68     		ldr	r3, [r3]
 5262 0056 9A42     		cmp	r2, r3
 5263 0058 01D0     		beq	.L422
 5264 005a FFF7FEFF 		bl	__stack_chk_fail
 5265              	.L422:
 5266 005e 07B0     		add	sp, sp, #28
 5267              		.cfi_def_cfa_offset 4
 5268              		@ sp needed
 5269 0060 5DF804FB 		ldr	pc, [sp], #4
 5270              	.L424:
 5271              		.align	2
 5272              	.L423:
 5273 0064 00000000 		.word	__stack_chk_guard
 5274              		.cfi_endproc
 5275              	.LFE64:
 5276              		.size	cmp_write_fixext2, .-cmp_write_fixext2
 5277              		.section	.text.cmp_write_fixext4_marker,"ax",%progbits
 5278              		.align	1
 5279              		.p2align 4,,15
 5280              		.global	cmp_write_fixext4_marker
 5281              		.syntax unified
 5282              		.thumb
 5283              		.thumb_func
 5284              		.fpu fpv4-sp-d16
 5285              		.type	cmp_write_fixext4_marker, %function
 5286              	cmp_write_fixext4_marker:
 5287              	.LFB65:
 5288              		.loc 1 774 0
 5289              		.cfi_startproc
 5290              		@ args = 0, pretend = 0, frame = 16
 5291              		@ frame_needed = 0, uses_anonymous_args = 0
 5292 0000 00B5     		push	{lr}
 5293              		.cfi_def_cfa_offset 4
ARM GAS  C:\Users\PCHAUT~1\AppData\Local\Temp\ccacj52E.s 			page 95


 5294              		.cfi_offset 14, -4
 5295 0002 85B0     		sub	sp, sp, #20
 5296              		.cfi_def_cfa_offset 24
 5297 0004 0190     		str	r0, [sp, #4]
 5298 0006 0B46     		mov	r3, r1
 5299 0008 8DF80330 		strb	r3, [sp, #3]
 5300              		.loc 1 774 0
 5301 000c 144B     		ldr	r3, .L430
 5302 000e 1B68     		ldr	r3, [r3]
 5303 0010 0393     		str	r3, [sp, #12]
 5304              		.loc 1 775 0
 5305 0012 D621     		movs	r1, #214
 5306 0014 0198     		ldr	r0, [sp, #4]
 5307 0016 FFF7FEFF 		bl	write_type_marker
 5308 001a 0346     		mov	r3, r0
 5309 001c 83F00103 		eor	r3, r3, #1
 5310 0020 DBB2     		uxtb	r3, r3
 5311 0022 002B     		cmp	r3, #0
 5312 0024 01D0     		beq	.L426
 5313              		.loc 1 776 0
 5314 0026 0023     		movs	r3, #0
 5315 0028 0FE0     		b	.L427
 5316              	.L426:
 5317              		.loc 1 778 0
 5318 002a 019B     		ldr	r3, [sp, #4]
 5319 002c DB68     		ldr	r3, [r3, #12]
 5320 002e 0DF10301 		add	r1, sp, #3
 5321 0032 0122     		movs	r2, #1
 5322 0034 0198     		ldr	r0, [sp, #4]
 5323 0036 9847     		blx	r3
 5324              	.LVL33:
 5325 0038 0346     		mov	r3, r0
 5326 003a 002B     		cmp	r3, #0
 5327 003c 01D0     		beq	.L428
 5328              		.loc 1 779 0
 5329 003e 0123     		movs	r3, #1
 5330 0040 03E0     		b	.L427
 5331              	.L428:
 5332              		.loc 1 781 0
 5333 0042 019B     		ldr	r3, [sp, #4]
 5334 0044 0C22     		movs	r2, #12
 5335 0046 1A70     		strb	r2, [r3]
 5336              		.loc 1 782 0
 5337 0048 0023     		movs	r3, #0
 5338              	.L427:
 5339              		.loc 1 783 0
 5340 004a 1846     		mov	r0, r3
 5341 004c 044B     		ldr	r3, .L430
 5342 004e 039A     		ldr	r2, [sp, #12]
 5343 0050 1B68     		ldr	r3, [r3]
 5344 0052 9A42     		cmp	r2, r3
 5345 0054 01D0     		beq	.L429
 5346 0056 FFF7FEFF 		bl	__stack_chk_fail
 5347              	.L429:
 5348 005a 05B0     		add	sp, sp, #20
 5349              		.cfi_def_cfa_offset 4
 5350              		@ sp needed
ARM GAS  C:\Users\PCHAUT~1\AppData\Local\Temp\ccacj52E.s 			page 96


 5351 005c 5DF804FB 		ldr	pc, [sp], #4
 5352              	.L431:
 5353              		.align	2
 5354              	.L430:
 5355 0060 00000000 		.word	__stack_chk_guard
 5356              		.cfi_endproc
 5357              	.LFE65:
 5358              		.size	cmp_write_fixext4_marker, .-cmp_write_fixext4_marker
 5359              		.section	.text.cmp_write_fixext4,"ax",%progbits
 5360              		.align	1
 5361              		.p2align 4,,15
 5362              		.global	cmp_write_fixext4
 5363              		.syntax unified
 5364              		.thumb
 5365              		.thumb_func
 5366              		.fpu fpv4-sp-d16
 5367              		.type	cmp_write_fixext4, %function
 5368              	cmp_write_fixext4:
 5369              	.LFB66:
 5370              		.loc 1 785 0
 5371              		.cfi_startproc
 5372              		@ args = 0, pretend = 0, frame = 24
 5373              		@ frame_needed = 0, uses_anonymous_args = 0
 5374 0000 00B5     		push	{lr}
 5375              		.cfi_def_cfa_offset 4
 5376              		.cfi_offset 14, -4
 5377 0002 87B0     		sub	sp, sp, #28
 5378              		.cfi_def_cfa_offset 32
 5379 0004 0390     		str	r0, [sp, #12]
 5380 0006 0B46     		mov	r3, r1
 5381 0008 0192     		str	r2, [sp, #4]
 5382 000a 8DF80B30 		strb	r3, [sp, #11]
 5383              		.loc 1 785 0
 5384 000e 154B     		ldr	r3, .L437
 5385 0010 1B68     		ldr	r3, [r3]
 5386 0012 0593     		str	r3, [sp, #20]
 5387              		.loc 1 786 0
 5388 0014 9DF90B30 		ldrsb	r3, [sp, #11]
 5389 0018 1946     		mov	r1, r3
 5390 001a 0398     		ldr	r0, [sp, #12]
 5391 001c FFF7FEFF 		bl	cmp_write_fixext4_marker
 5392 0020 0346     		mov	r3, r0
 5393 0022 83F00103 		eor	r3, r3, #1
 5394 0026 DBB2     		uxtb	r3, r3
 5395 0028 002B     		cmp	r3, #0
 5396 002a 01D0     		beq	.L433
 5397              		.loc 1 787 0
 5398 002c 0023     		movs	r3, #0
 5399 002e 0EE0     		b	.L434
 5400              	.L433:
 5401              		.loc 1 789 0
 5402 0030 039B     		ldr	r3, [sp, #12]
 5403 0032 DB68     		ldr	r3, [r3, #12]
 5404 0034 0422     		movs	r2, #4
 5405 0036 0199     		ldr	r1, [sp, #4]
 5406 0038 0398     		ldr	r0, [sp, #12]
 5407 003a 9847     		blx	r3
ARM GAS  C:\Users\PCHAUT~1\AppData\Local\Temp\ccacj52E.s 			page 97


 5408              	.LVL34:
 5409 003c 0346     		mov	r3, r0
 5410 003e 002B     		cmp	r3, #0
 5411 0040 01D0     		beq	.L435
 5412              		.loc 1 790 0
 5413 0042 0123     		movs	r3, #1
 5414 0044 03E0     		b	.L434
 5415              	.L435:
 5416              		.loc 1 792 0
 5417 0046 039B     		ldr	r3, [sp, #12]
 5418 0048 0A22     		movs	r2, #10
 5419 004a 1A70     		strb	r2, [r3]
 5420              		.loc 1 793 0
 5421 004c 0023     		movs	r3, #0
 5422              	.L434:
 5423              		.loc 1 794 0
 5424 004e 1846     		mov	r0, r3
 5425 0050 044B     		ldr	r3, .L437
 5426 0052 059A     		ldr	r2, [sp, #20]
 5427 0054 1B68     		ldr	r3, [r3]
 5428 0056 9A42     		cmp	r2, r3
 5429 0058 01D0     		beq	.L436
 5430 005a FFF7FEFF 		bl	__stack_chk_fail
 5431              	.L436:
 5432 005e 07B0     		add	sp, sp, #28
 5433              		.cfi_def_cfa_offset 4
 5434              		@ sp needed
 5435 0060 5DF804FB 		ldr	pc, [sp], #4
 5436              	.L438:
 5437              		.align	2
 5438              	.L437:
 5439 0064 00000000 		.word	__stack_chk_guard
 5440              		.cfi_endproc
 5441              	.LFE66:
 5442              		.size	cmp_write_fixext4, .-cmp_write_fixext4
 5443              		.section	.text.cmp_write_fixext8_marker,"ax",%progbits
 5444              		.align	1
 5445              		.p2align 4,,15
 5446              		.global	cmp_write_fixext8_marker
 5447              		.syntax unified
 5448              		.thumb
 5449              		.thumb_func
 5450              		.fpu fpv4-sp-d16
 5451              		.type	cmp_write_fixext8_marker, %function
 5452              	cmp_write_fixext8_marker:
 5453              	.LFB67:
 5454              		.loc 1 796 0
 5455              		.cfi_startproc
 5456              		@ args = 0, pretend = 0, frame = 16
 5457              		@ frame_needed = 0, uses_anonymous_args = 0
 5458 0000 00B5     		push	{lr}
 5459              		.cfi_def_cfa_offset 4
 5460              		.cfi_offset 14, -4
 5461 0002 85B0     		sub	sp, sp, #20
 5462              		.cfi_def_cfa_offset 24
 5463 0004 0190     		str	r0, [sp, #4]
 5464 0006 0B46     		mov	r3, r1
ARM GAS  C:\Users\PCHAUT~1\AppData\Local\Temp\ccacj52E.s 			page 98


 5465 0008 8DF80330 		strb	r3, [sp, #3]
 5466              		.loc 1 796 0
 5467 000c 144B     		ldr	r3, .L444
 5468 000e 1B68     		ldr	r3, [r3]
 5469 0010 0393     		str	r3, [sp, #12]
 5470              		.loc 1 797 0
 5471 0012 D721     		movs	r1, #215
 5472 0014 0198     		ldr	r0, [sp, #4]
 5473 0016 FFF7FEFF 		bl	write_type_marker
 5474 001a 0346     		mov	r3, r0
 5475 001c 83F00103 		eor	r3, r3, #1
 5476 0020 DBB2     		uxtb	r3, r3
 5477 0022 002B     		cmp	r3, #0
 5478 0024 01D0     		beq	.L440
 5479              		.loc 1 798 0
 5480 0026 0023     		movs	r3, #0
 5481 0028 0FE0     		b	.L441
 5482              	.L440:
 5483              		.loc 1 800 0
 5484 002a 019B     		ldr	r3, [sp, #4]
 5485 002c DB68     		ldr	r3, [r3, #12]
 5486 002e 0DF10301 		add	r1, sp, #3
 5487 0032 0122     		movs	r2, #1
 5488 0034 0198     		ldr	r0, [sp, #4]
 5489 0036 9847     		blx	r3
 5490              	.LVL35:
 5491 0038 0346     		mov	r3, r0
 5492 003a 002B     		cmp	r3, #0
 5493 003c 01D0     		beq	.L442
 5494              		.loc 1 801 0
 5495 003e 0123     		movs	r3, #1
 5496 0040 03E0     		b	.L441
 5497              	.L442:
 5498              		.loc 1 803 0
 5499 0042 019B     		ldr	r3, [sp, #4]
 5500 0044 0C22     		movs	r2, #12
 5501 0046 1A70     		strb	r2, [r3]
 5502              		.loc 1 804 0
 5503 0048 0023     		movs	r3, #0
 5504              	.L441:
 5505              		.loc 1 805 0
 5506 004a 1846     		mov	r0, r3
 5507 004c 044B     		ldr	r3, .L444
 5508 004e 039A     		ldr	r2, [sp, #12]
 5509 0050 1B68     		ldr	r3, [r3]
 5510 0052 9A42     		cmp	r2, r3
 5511 0054 01D0     		beq	.L443
 5512 0056 FFF7FEFF 		bl	__stack_chk_fail
 5513              	.L443:
 5514 005a 05B0     		add	sp, sp, #20
 5515              		.cfi_def_cfa_offset 4
 5516              		@ sp needed
 5517 005c 5DF804FB 		ldr	pc, [sp], #4
 5518              	.L445:
 5519              		.align	2
 5520              	.L444:
 5521 0060 00000000 		.word	__stack_chk_guard
ARM GAS  C:\Users\PCHAUT~1\AppData\Local\Temp\ccacj52E.s 			page 99


 5522              		.cfi_endproc
 5523              	.LFE67:
 5524              		.size	cmp_write_fixext8_marker, .-cmp_write_fixext8_marker
 5525              		.section	.text.cmp_write_fixext8,"ax",%progbits
 5526              		.align	1
 5527              		.p2align 4,,15
 5528              		.global	cmp_write_fixext8
 5529              		.syntax unified
 5530              		.thumb
 5531              		.thumb_func
 5532              		.fpu fpv4-sp-d16
 5533              		.type	cmp_write_fixext8, %function
 5534              	cmp_write_fixext8:
 5535              	.LFB68:
 5536              		.loc 1 807 0
 5537              		.cfi_startproc
 5538              		@ args = 0, pretend = 0, frame = 24
 5539              		@ frame_needed = 0, uses_anonymous_args = 0
 5540 0000 00B5     		push	{lr}
 5541              		.cfi_def_cfa_offset 4
 5542              		.cfi_offset 14, -4
 5543 0002 87B0     		sub	sp, sp, #28
 5544              		.cfi_def_cfa_offset 32
 5545 0004 0390     		str	r0, [sp, #12]
 5546 0006 0B46     		mov	r3, r1
 5547 0008 0192     		str	r2, [sp, #4]
 5548 000a 8DF80B30 		strb	r3, [sp, #11]
 5549              		.loc 1 807 0
 5550 000e 154B     		ldr	r3, .L451
 5551 0010 1B68     		ldr	r3, [r3]
 5552 0012 0593     		str	r3, [sp, #20]
 5553              		.loc 1 808 0
 5554 0014 9DF90B30 		ldrsb	r3, [sp, #11]
 5555 0018 1946     		mov	r1, r3
 5556 001a 0398     		ldr	r0, [sp, #12]
 5557 001c FFF7FEFF 		bl	cmp_write_fixext8_marker
 5558 0020 0346     		mov	r3, r0
 5559 0022 83F00103 		eor	r3, r3, #1
 5560 0026 DBB2     		uxtb	r3, r3
 5561 0028 002B     		cmp	r3, #0
 5562 002a 01D0     		beq	.L447
 5563              		.loc 1 809 0
 5564 002c 0023     		movs	r3, #0
 5565 002e 0EE0     		b	.L448
 5566              	.L447:
 5567              		.loc 1 811 0
 5568 0030 039B     		ldr	r3, [sp, #12]
 5569 0032 DB68     		ldr	r3, [r3, #12]
 5570 0034 0822     		movs	r2, #8
 5571 0036 0199     		ldr	r1, [sp, #4]
 5572 0038 0398     		ldr	r0, [sp, #12]
 5573 003a 9847     		blx	r3
 5574              	.LVL36:
 5575 003c 0346     		mov	r3, r0
 5576 003e 002B     		cmp	r3, #0
 5577 0040 01D0     		beq	.L449
 5578              		.loc 1 812 0
ARM GAS  C:\Users\PCHAUT~1\AppData\Local\Temp\ccacj52E.s 			page 100


 5579 0042 0123     		movs	r3, #1
 5580 0044 03E0     		b	.L448
 5581              	.L449:
 5582              		.loc 1 814 0
 5583 0046 039B     		ldr	r3, [sp, #12]
 5584 0048 0A22     		movs	r2, #10
 5585 004a 1A70     		strb	r2, [r3]
 5586              		.loc 1 815 0
 5587 004c 0023     		movs	r3, #0
 5588              	.L448:
 5589              		.loc 1 816 0
 5590 004e 1846     		mov	r0, r3
 5591 0050 044B     		ldr	r3, .L451
 5592 0052 059A     		ldr	r2, [sp, #20]
 5593 0054 1B68     		ldr	r3, [r3]
 5594 0056 9A42     		cmp	r2, r3
 5595 0058 01D0     		beq	.L450
 5596 005a FFF7FEFF 		bl	__stack_chk_fail
 5597              	.L450:
 5598 005e 07B0     		add	sp, sp, #28
 5599              		.cfi_def_cfa_offset 4
 5600              		@ sp needed
 5601 0060 5DF804FB 		ldr	pc, [sp], #4
 5602              	.L452:
 5603              		.align	2
 5604              	.L451:
 5605 0064 00000000 		.word	__stack_chk_guard
 5606              		.cfi_endproc
 5607              	.LFE68:
 5608              		.size	cmp_write_fixext8, .-cmp_write_fixext8
 5609              		.section	.text.cmp_write_fixext16_marker,"ax",%progbits
 5610              		.align	1
 5611              		.p2align 4,,15
 5612              		.global	cmp_write_fixext16_marker
 5613              		.syntax unified
 5614              		.thumb
 5615              		.thumb_func
 5616              		.fpu fpv4-sp-d16
 5617              		.type	cmp_write_fixext16_marker, %function
 5618              	cmp_write_fixext16_marker:
 5619              	.LFB69:
 5620              		.loc 1 818 0
 5621              		.cfi_startproc
 5622              		@ args = 0, pretend = 0, frame = 16
 5623              		@ frame_needed = 0, uses_anonymous_args = 0
 5624 0000 00B5     		push	{lr}
 5625              		.cfi_def_cfa_offset 4
 5626              		.cfi_offset 14, -4
 5627 0002 85B0     		sub	sp, sp, #20
 5628              		.cfi_def_cfa_offset 24
 5629 0004 0190     		str	r0, [sp, #4]
 5630 0006 0B46     		mov	r3, r1
 5631 0008 8DF80330 		strb	r3, [sp, #3]
 5632              		.loc 1 818 0
 5633 000c 144B     		ldr	r3, .L458
 5634 000e 1B68     		ldr	r3, [r3]
 5635 0010 0393     		str	r3, [sp, #12]
ARM GAS  C:\Users\PCHAUT~1\AppData\Local\Temp\ccacj52E.s 			page 101


 5636              		.loc 1 819 0
 5637 0012 D821     		movs	r1, #216
 5638 0014 0198     		ldr	r0, [sp, #4]
 5639 0016 FFF7FEFF 		bl	write_type_marker
 5640 001a 0346     		mov	r3, r0
 5641 001c 83F00103 		eor	r3, r3, #1
 5642 0020 DBB2     		uxtb	r3, r3
 5643 0022 002B     		cmp	r3, #0
 5644 0024 01D0     		beq	.L454
 5645              		.loc 1 820 0
 5646 0026 0023     		movs	r3, #0
 5647 0028 0FE0     		b	.L455
 5648              	.L454:
 5649              		.loc 1 822 0
 5650 002a 019B     		ldr	r3, [sp, #4]
 5651 002c DB68     		ldr	r3, [r3, #12]
 5652 002e 0DF10301 		add	r1, sp, #3
 5653 0032 0122     		movs	r2, #1
 5654 0034 0198     		ldr	r0, [sp, #4]
 5655 0036 9847     		blx	r3
 5656              	.LVL37:
 5657 0038 0346     		mov	r3, r0
 5658 003a 002B     		cmp	r3, #0
 5659 003c 01D0     		beq	.L456
 5660              		.loc 1 823 0
 5661 003e 0123     		movs	r3, #1
 5662 0040 03E0     		b	.L455
 5663              	.L456:
 5664              		.loc 1 825 0
 5665 0042 019B     		ldr	r3, [sp, #4]
 5666 0044 0C22     		movs	r2, #12
 5667 0046 1A70     		strb	r2, [r3]
 5668              		.loc 1 826 0
 5669 0048 0023     		movs	r3, #0
 5670              	.L455:
 5671              		.loc 1 827 0
 5672 004a 1846     		mov	r0, r3
 5673 004c 044B     		ldr	r3, .L458
 5674 004e 039A     		ldr	r2, [sp, #12]
 5675 0050 1B68     		ldr	r3, [r3]
 5676 0052 9A42     		cmp	r2, r3
 5677 0054 01D0     		beq	.L457
 5678 0056 FFF7FEFF 		bl	__stack_chk_fail
 5679              	.L457:
 5680 005a 05B0     		add	sp, sp, #20
 5681              		.cfi_def_cfa_offset 4
 5682              		@ sp needed
 5683 005c 5DF804FB 		ldr	pc, [sp], #4
 5684              	.L459:
 5685              		.align	2
 5686              	.L458:
 5687 0060 00000000 		.word	__stack_chk_guard
 5688              		.cfi_endproc
 5689              	.LFE69:
 5690              		.size	cmp_write_fixext16_marker, .-cmp_write_fixext16_marker
 5691              		.section	.text.cmp_write_fixext16,"ax",%progbits
 5692              		.align	1
ARM GAS  C:\Users\PCHAUT~1\AppData\Local\Temp\ccacj52E.s 			page 102


 5693              		.p2align 4,,15
 5694              		.global	cmp_write_fixext16
 5695              		.syntax unified
 5696              		.thumb
 5697              		.thumb_func
 5698              		.fpu fpv4-sp-d16
 5699              		.type	cmp_write_fixext16, %function
 5700              	cmp_write_fixext16:
 5701              	.LFB70:
 5702              		.loc 1 829 0
 5703              		.cfi_startproc
 5704              		@ args = 0, pretend = 0, frame = 24
 5705              		@ frame_needed = 0, uses_anonymous_args = 0
 5706 0000 00B5     		push	{lr}
 5707              		.cfi_def_cfa_offset 4
 5708              		.cfi_offset 14, -4
 5709 0002 87B0     		sub	sp, sp, #28
 5710              		.cfi_def_cfa_offset 32
 5711 0004 0390     		str	r0, [sp, #12]
 5712 0006 0B46     		mov	r3, r1
 5713 0008 0192     		str	r2, [sp, #4]
 5714 000a 8DF80B30 		strb	r3, [sp, #11]
 5715              		.loc 1 829 0
 5716 000e 154B     		ldr	r3, .L465
 5717 0010 1B68     		ldr	r3, [r3]
 5718 0012 0593     		str	r3, [sp, #20]
 5719              		.loc 1 830 0
 5720 0014 9DF90B30 		ldrsb	r3, [sp, #11]
 5721 0018 1946     		mov	r1, r3
 5722 001a 0398     		ldr	r0, [sp, #12]
 5723 001c FFF7FEFF 		bl	cmp_write_fixext16_marker
 5724 0020 0346     		mov	r3, r0
 5725 0022 83F00103 		eor	r3, r3, #1
 5726 0026 DBB2     		uxtb	r3, r3
 5727 0028 002B     		cmp	r3, #0
 5728 002a 01D0     		beq	.L461
 5729              		.loc 1 831 0
 5730 002c 0023     		movs	r3, #0
 5731 002e 0EE0     		b	.L462
 5732              	.L461:
 5733              		.loc 1 833 0
 5734 0030 039B     		ldr	r3, [sp, #12]
 5735 0032 DB68     		ldr	r3, [r3, #12]
 5736 0034 1022     		movs	r2, #16
 5737 0036 0199     		ldr	r1, [sp, #4]
 5738 0038 0398     		ldr	r0, [sp, #12]
 5739 003a 9847     		blx	r3
 5740              	.LVL38:
 5741 003c 0346     		mov	r3, r0
 5742 003e 002B     		cmp	r3, #0
 5743 0040 01D0     		beq	.L463
 5744              		.loc 1 834 0
 5745 0042 0123     		movs	r3, #1
 5746 0044 03E0     		b	.L462
 5747              	.L463:
 5748              		.loc 1 836 0
 5749 0046 039B     		ldr	r3, [sp, #12]
ARM GAS  C:\Users\PCHAUT~1\AppData\Local\Temp\ccacj52E.s 			page 103


 5750 0048 0A22     		movs	r2, #10
 5751 004a 1A70     		strb	r2, [r3]
 5752              		.loc 1 837 0
 5753 004c 0023     		movs	r3, #0
 5754              	.L462:
 5755              		.loc 1 838 0
 5756 004e 1846     		mov	r0, r3
 5757 0050 044B     		ldr	r3, .L465
 5758 0052 059A     		ldr	r2, [sp, #20]
 5759 0054 1B68     		ldr	r3, [r3]
 5760 0056 9A42     		cmp	r2, r3
 5761 0058 01D0     		beq	.L464
 5762 005a FFF7FEFF 		bl	__stack_chk_fail
 5763              	.L464:
 5764 005e 07B0     		add	sp, sp, #28
 5765              		.cfi_def_cfa_offset 4
 5766              		@ sp needed
 5767 0060 5DF804FB 		ldr	pc, [sp], #4
 5768              	.L466:
 5769              		.align	2
 5770              	.L465:
 5771 0064 00000000 		.word	__stack_chk_guard
 5772              		.cfi_endproc
 5773              	.LFE70:
 5774              		.size	cmp_write_fixext16, .-cmp_write_fixext16
 5775              		.section	.text.cmp_write_ext8_marker,"ax",%progbits
 5776              		.align	1
 5777              		.p2align 4,,15
 5778              		.global	cmp_write_ext8_marker
 5779              		.syntax unified
 5780              		.thumb
 5781              		.thumb_func
 5782              		.fpu fpv4-sp-d16
 5783              		.type	cmp_write_ext8_marker, %function
 5784              	cmp_write_ext8_marker:
 5785              	.LFB71:
 5786              		.loc 1 840 0
 5787              		.cfi_startproc
 5788              		@ args = 0, pretend = 0, frame = 16
 5789              		@ frame_needed = 0, uses_anonymous_args = 0
 5790 0000 00B5     		push	{lr}
 5791              		.cfi_def_cfa_offset 4
 5792              		.cfi_offset 14, -4
 5793 0002 85B0     		sub	sp, sp, #20
 5794              		.cfi_def_cfa_offset 24
 5795 0004 0190     		str	r0, [sp, #4]
 5796 0006 0B46     		mov	r3, r1
 5797 0008 8DF80330 		strb	r3, [sp, #3]
 5798 000c 1346     		mov	r3, r2
 5799 000e 8DF80230 		strb	r3, [sp, #2]
 5800              		.loc 1 840 0
 5801 0012 1C4B     		ldr	r3, .L473
 5802 0014 1B68     		ldr	r3, [r3]
 5803 0016 0393     		str	r3, [sp, #12]
 5804              		.loc 1 841 0
 5805 0018 C721     		movs	r1, #199
 5806 001a 0198     		ldr	r0, [sp, #4]
ARM GAS  C:\Users\PCHAUT~1\AppData\Local\Temp\ccacj52E.s 			page 104


 5807 001c FFF7FEFF 		bl	write_type_marker
 5808 0020 0346     		mov	r3, r0
 5809 0022 83F00103 		eor	r3, r3, #1
 5810 0026 DBB2     		uxtb	r3, r3
 5811 0028 002B     		cmp	r3, #0
 5812 002a 01D0     		beq	.L468
 5813              		.loc 1 842 0
 5814 002c 0023     		movs	r3, #0
 5815 002e 1EE0     		b	.L469
 5816              	.L468:
 5817              		.loc 1 844 0
 5818 0030 019B     		ldr	r3, [sp, #4]
 5819 0032 DB68     		ldr	r3, [r3, #12]
 5820 0034 0DF10201 		add	r1, sp, #2
 5821 0038 0122     		movs	r2, #1
 5822 003a 0198     		ldr	r0, [sp, #4]
 5823 003c 9847     		blx	r3
 5824              	.LVL39:
 5825 003e 0346     		mov	r3, r0
 5826 0040 002B     		cmp	r3, #0
 5827 0042 04D1     		bne	.L470
 5828              		.loc 1 845 0
 5829 0044 019B     		ldr	r3, [sp, #4]
 5830 0046 0F22     		movs	r2, #15
 5831 0048 1A70     		strb	r2, [r3]
 5832              		.loc 1 846 0
 5833 004a 0023     		movs	r3, #0
 5834 004c 0FE0     		b	.L469
 5835              	.L470:
 5836              		.loc 1 849 0
 5837 004e 019B     		ldr	r3, [sp, #4]
 5838 0050 DB68     		ldr	r3, [r3, #12]
 5839 0052 0DF10301 		add	r1, sp, #3
 5840 0056 0122     		movs	r2, #1
 5841 0058 0198     		ldr	r0, [sp, #4]
 5842 005a 9847     		blx	r3
 5843              	.LVL40:
 5844 005c 0346     		mov	r3, r0
 5845 005e 002B     		cmp	r3, #0
 5846 0060 01D0     		beq	.L471
 5847              		.loc 1 850 0
 5848 0062 0123     		movs	r3, #1
 5849 0064 03E0     		b	.L469
 5850              	.L471:
 5851              		.loc 1 852 0
 5852 0066 019B     		ldr	r3, [sp, #4]
 5853 0068 0C22     		movs	r2, #12
 5854 006a 1A70     		strb	r2, [r3]
 5855              		.loc 1 853 0
 5856 006c 0023     		movs	r3, #0
 5857              	.L469:
 5858              		.loc 1 854 0
 5859 006e 1846     		mov	r0, r3
 5860 0070 044B     		ldr	r3, .L473
 5861 0072 039A     		ldr	r2, [sp, #12]
 5862 0074 1B68     		ldr	r3, [r3]
 5863 0076 9A42     		cmp	r2, r3
ARM GAS  C:\Users\PCHAUT~1\AppData\Local\Temp\ccacj52E.s 			page 105


 5864 0078 01D0     		beq	.L472
 5865 007a FFF7FEFF 		bl	__stack_chk_fail
 5866              	.L472:
 5867 007e 05B0     		add	sp, sp, #20
 5868              		.cfi_def_cfa_offset 4
 5869              		@ sp needed
 5870 0080 5DF804FB 		ldr	pc, [sp], #4
 5871              	.L474:
 5872              		.align	2
 5873              	.L473:
 5874 0084 00000000 		.word	__stack_chk_guard
 5875              		.cfi_endproc
 5876              	.LFE71:
 5877              		.size	cmp_write_ext8_marker, .-cmp_write_ext8_marker
 5878              		.section	.text.cmp_write_ext8,"ax",%progbits
 5879              		.align	1
 5880              		.p2align 4,,15
 5881              		.global	cmp_write_ext8
 5882              		.syntax unified
 5883              		.thumb
 5884              		.thumb_func
 5885              		.fpu fpv4-sp-d16
 5886              		.type	cmp_write_ext8, %function
 5887              	cmp_write_ext8:
 5888              	.LFB72:
 5889              		.loc 1 856 0
 5890              		.cfi_startproc
 5891              		@ args = 0, pretend = 0, frame = 24
 5892              		@ frame_needed = 0, uses_anonymous_args = 0
 5893 0000 00B5     		push	{lr}
 5894              		.cfi_def_cfa_offset 4
 5895              		.cfi_offset 14, -4
 5896 0002 87B0     		sub	sp, sp, #28
 5897              		.cfi_def_cfa_offset 32
 5898 0004 0390     		str	r0, [sp, #12]
 5899 0006 0193     		str	r3, [sp, #4]
 5900 0008 0B46     		mov	r3, r1
 5901 000a 8DF80B30 		strb	r3, [sp, #11]
 5902 000e 1346     		mov	r3, r2
 5903 0010 8DF80A30 		strb	r3, [sp, #10]
 5904              		.loc 1 856 0
 5905 0014 164B     		ldr	r3, .L480
 5906 0016 1B68     		ldr	r3, [r3]
 5907 0018 0593     		str	r3, [sp, #20]
 5908              		.loc 1 857 0
 5909 001a 9DF80A20 		ldrb	r2, [sp, #10]	@ zero_extendqisi2
 5910 001e 9DF90B30 		ldrsb	r3, [sp, #11]
 5911 0022 1946     		mov	r1, r3
 5912 0024 0398     		ldr	r0, [sp, #12]
 5913 0026 FFF7FEFF 		bl	cmp_write_ext8_marker
 5914 002a 0346     		mov	r3, r0
 5915 002c 83F00103 		eor	r3, r3, #1
 5916 0030 DBB2     		uxtb	r3, r3
 5917 0032 002B     		cmp	r3, #0
 5918 0034 01D0     		beq	.L476
 5919              		.loc 1 858 0
 5920 0036 0023     		movs	r3, #0
ARM GAS  C:\Users\PCHAUT~1\AppData\Local\Temp\ccacj52E.s 			page 106


 5921 0038 0FE0     		b	.L477
 5922              	.L476:
 5923              		.loc 1 860 0
 5924 003a 039B     		ldr	r3, [sp, #12]
 5925 003c DB68     		ldr	r3, [r3, #12]
 5926 003e 9DF80A20 		ldrb	r2, [sp, #10]	@ zero_extendqisi2
 5927 0042 0199     		ldr	r1, [sp, #4]
 5928 0044 0398     		ldr	r0, [sp, #12]
 5929 0046 9847     		blx	r3
 5930              	.LVL41:
 5931 0048 0346     		mov	r3, r0
 5932 004a 002B     		cmp	r3, #0
 5933 004c 01D0     		beq	.L478
 5934              		.loc 1 861 0
 5935 004e 0123     		movs	r3, #1
 5936 0050 03E0     		b	.L477
 5937              	.L478:
 5938              		.loc 1 863 0
 5939 0052 039B     		ldr	r3, [sp, #12]
 5940 0054 0A22     		movs	r2, #10
 5941 0056 1A70     		strb	r2, [r3]
 5942              		.loc 1 864 0
 5943 0058 0023     		movs	r3, #0
 5944              	.L477:
 5945              		.loc 1 865 0
 5946 005a 1846     		mov	r0, r3
 5947 005c 044B     		ldr	r3, .L480
 5948 005e 059A     		ldr	r2, [sp, #20]
 5949 0060 1B68     		ldr	r3, [r3]
 5950 0062 9A42     		cmp	r2, r3
 5951 0064 01D0     		beq	.L479
 5952 0066 FFF7FEFF 		bl	__stack_chk_fail
 5953              	.L479:
 5954 006a 07B0     		add	sp, sp, #28
 5955              		.cfi_def_cfa_offset 4
 5956              		@ sp needed
 5957 006c 5DF804FB 		ldr	pc, [sp], #4
 5958              	.L481:
 5959              		.align	2
 5960              	.L480:
 5961 0070 00000000 		.word	__stack_chk_guard
 5962              		.cfi_endproc
 5963              	.LFE72:
 5964              		.size	cmp_write_ext8, .-cmp_write_ext8
 5965              		.section	.text.cmp_write_ext16_marker,"ax",%progbits
 5966              		.align	1
 5967              		.p2align 4,,15
 5968              		.global	cmp_write_ext16_marker
 5969              		.syntax unified
 5970              		.thumb
 5971              		.thumb_func
 5972              		.fpu fpv4-sp-d16
 5973              		.type	cmp_write_ext16_marker, %function
 5974              	cmp_write_ext16_marker:
 5975              	.LFB73:
 5976              		.loc 1 867 0
 5977              		.cfi_startproc
ARM GAS  C:\Users\PCHAUT~1\AppData\Local\Temp\ccacj52E.s 			page 107


 5978              		@ args = 0, pretend = 0, frame = 16
 5979              		@ frame_needed = 0, uses_anonymous_args = 0
 5980 0000 00B5     		push	{lr}
 5981              		.cfi_def_cfa_offset 4
 5982              		.cfi_offset 14, -4
 5983 0002 85B0     		sub	sp, sp, #20
 5984              		.cfi_def_cfa_offset 24
 5985 0004 0190     		str	r0, [sp, #4]
 5986 0006 0B46     		mov	r3, r1
 5987 0008 8DF80330 		strb	r3, [sp, #3]
 5988 000c 1346     		mov	r3, r2	@ movhi
 5989 000e ADF80030 		strh	r3, [sp]	@ movhi
 5990              		.loc 1 867 0
 5991 0012 204B     		ldr	r3, .L488
 5992 0014 1B68     		ldr	r3, [r3]
 5993 0016 0393     		str	r3, [sp, #12]
 5994              		.loc 1 868 0
 5995 0018 C821     		movs	r1, #200
 5996 001a 0198     		ldr	r0, [sp, #4]
 5997 001c FFF7FEFF 		bl	write_type_marker
 5998 0020 0346     		mov	r3, r0
 5999 0022 83F00103 		eor	r3, r3, #1
 6000 0026 DBB2     		uxtb	r3, r3
 6001 0028 002B     		cmp	r3, #0
 6002 002a 01D0     		beq	.L483
 6003              		.loc 1 869 0
 6004 002c 0023     		movs	r3, #0
 6005 002e 25E0     		b	.L484
 6006              	.L483:
 6007              		.loc 1 871 0
 6008 0030 BDF80030 		ldrh	r3, [sp]
 6009 0034 1846     		mov	r0, r3
 6010 0036 FFF7FEFF 		bl	be16
 6011 003a 0346     		mov	r3, r0
 6012 003c ADF80030 		strh	r3, [sp]	@ movhi
 6013              		.loc 1 873 0
 6014 0040 019B     		ldr	r3, [sp, #4]
 6015 0042 DB68     		ldr	r3, [r3, #12]
 6016 0044 6946     		mov	r1, sp
 6017 0046 0222     		movs	r2, #2
 6018 0048 0198     		ldr	r0, [sp, #4]
 6019 004a 9847     		blx	r3
 6020              	.LVL42:
 6021 004c 0346     		mov	r3, r0
 6022 004e 002B     		cmp	r3, #0
 6023 0050 04D1     		bne	.L485
 6024              		.loc 1 874 0
 6025 0052 019B     		ldr	r3, [sp, #4]
 6026 0054 0F22     		movs	r2, #15
 6027 0056 1A70     		strb	r2, [r3]
 6028              		.loc 1 875 0
 6029 0058 0023     		movs	r3, #0
 6030 005a 0FE0     		b	.L484
 6031              	.L485:
 6032              		.loc 1 878 0
 6033 005c 019B     		ldr	r3, [sp, #4]
 6034 005e DB68     		ldr	r3, [r3, #12]
ARM GAS  C:\Users\PCHAUT~1\AppData\Local\Temp\ccacj52E.s 			page 108


 6035 0060 0DF10301 		add	r1, sp, #3
 6036 0064 0122     		movs	r2, #1
 6037 0066 0198     		ldr	r0, [sp, #4]
 6038 0068 9847     		blx	r3
 6039              	.LVL43:
 6040 006a 0346     		mov	r3, r0
 6041 006c 002B     		cmp	r3, #0
 6042 006e 01D0     		beq	.L486
 6043              		.loc 1 879 0
 6044 0070 0123     		movs	r3, #1
 6045 0072 03E0     		b	.L484
 6046              	.L486:
 6047              		.loc 1 881 0
 6048 0074 019B     		ldr	r3, [sp, #4]
 6049 0076 0C22     		movs	r2, #12
 6050 0078 1A70     		strb	r2, [r3]
 6051              		.loc 1 882 0
 6052 007a 0023     		movs	r3, #0
 6053              	.L484:
 6054              		.loc 1 883 0
 6055 007c 1846     		mov	r0, r3
 6056 007e 054B     		ldr	r3, .L488
 6057 0080 039A     		ldr	r2, [sp, #12]
 6058 0082 1B68     		ldr	r3, [r3]
 6059 0084 9A42     		cmp	r2, r3
 6060 0086 01D0     		beq	.L487
 6061 0088 FFF7FEFF 		bl	__stack_chk_fail
 6062              	.L487:
 6063 008c 05B0     		add	sp, sp, #20
 6064              		.cfi_def_cfa_offset 4
 6065              		@ sp needed
 6066 008e 5DF804FB 		ldr	pc, [sp], #4
 6067              	.L489:
 6068 0092 00BF     		.align	2
 6069              	.L488:
 6070 0094 00000000 		.word	__stack_chk_guard
 6071              		.cfi_endproc
 6072              	.LFE73:
 6073              		.size	cmp_write_ext16_marker, .-cmp_write_ext16_marker
 6074              		.section	.text.cmp_write_ext16,"ax",%progbits
 6075              		.align	1
 6076              		.p2align 4,,15
 6077              		.global	cmp_write_ext16
 6078              		.syntax unified
 6079              		.thumb
 6080              		.thumb_func
 6081              		.fpu fpv4-sp-d16
 6082              		.type	cmp_write_ext16, %function
 6083              	cmp_write_ext16:
 6084              	.LFB74:
 6085              		.loc 1 885 0
 6086              		.cfi_startproc
 6087              		@ args = 0, pretend = 0, frame = 24
 6088              		@ frame_needed = 0, uses_anonymous_args = 0
 6089 0000 00B5     		push	{lr}
 6090              		.cfi_def_cfa_offset 4
 6091              		.cfi_offset 14, -4
ARM GAS  C:\Users\PCHAUT~1\AppData\Local\Temp\ccacj52E.s 			page 109


 6092 0002 87B0     		sub	sp, sp, #28
 6093              		.cfi_def_cfa_offset 32
 6094 0004 0390     		str	r0, [sp, #12]
 6095 0006 0193     		str	r3, [sp, #4]
 6096 0008 0B46     		mov	r3, r1
 6097 000a 8DF80B30 		strb	r3, [sp, #11]
 6098 000e 1346     		mov	r3, r2	@ movhi
 6099 0010 ADF80830 		strh	r3, [sp, #8]	@ movhi
 6100              		.loc 1 885 0
 6101 0014 164B     		ldr	r3, .L495
 6102 0016 1B68     		ldr	r3, [r3]
 6103 0018 0593     		str	r3, [sp, #20]
 6104              		.loc 1 886 0
 6105 001a BDF80820 		ldrh	r2, [sp, #8]
 6106 001e 9DF90B30 		ldrsb	r3, [sp, #11]
 6107 0022 1946     		mov	r1, r3
 6108 0024 0398     		ldr	r0, [sp, #12]
 6109 0026 FFF7FEFF 		bl	cmp_write_ext16_marker
 6110 002a 0346     		mov	r3, r0
 6111 002c 83F00103 		eor	r3, r3, #1
 6112 0030 DBB2     		uxtb	r3, r3
 6113 0032 002B     		cmp	r3, #0
 6114 0034 01D0     		beq	.L491
 6115              		.loc 1 887 0
 6116 0036 0023     		movs	r3, #0
 6117 0038 0FE0     		b	.L492
 6118              	.L491:
 6119              		.loc 1 889 0
 6120 003a 039B     		ldr	r3, [sp, #12]
 6121 003c DB68     		ldr	r3, [r3, #12]
 6122 003e BDF80820 		ldrh	r2, [sp, #8]
 6123 0042 0199     		ldr	r1, [sp, #4]
 6124 0044 0398     		ldr	r0, [sp, #12]
 6125 0046 9847     		blx	r3
 6126              	.LVL44:
 6127 0048 0346     		mov	r3, r0
 6128 004a 002B     		cmp	r3, #0
 6129 004c 01D0     		beq	.L493
 6130              		.loc 1 890 0
 6131 004e 0123     		movs	r3, #1
 6132 0050 03E0     		b	.L492
 6133              	.L493:
 6134              		.loc 1 892 0
 6135 0052 039B     		ldr	r3, [sp, #12]
 6136 0054 0A22     		movs	r2, #10
 6137 0056 1A70     		strb	r2, [r3]
 6138              		.loc 1 893 0
 6139 0058 0023     		movs	r3, #0
 6140              	.L492:
 6141              		.loc 1 894 0
 6142 005a 1846     		mov	r0, r3
 6143 005c 044B     		ldr	r3, .L495
 6144 005e 059A     		ldr	r2, [sp, #20]
 6145 0060 1B68     		ldr	r3, [r3]
 6146 0062 9A42     		cmp	r2, r3
 6147 0064 01D0     		beq	.L494
 6148 0066 FFF7FEFF 		bl	__stack_chk_fail
ARM GAS  C:\Users\PCHAUT~1\AppData\Local\Temp\ccacj52E.s 			page 110


 6149              	.L494:
 6150 006a 07B0     		add	sp, sp, #28
 6151              		.cfi_def_cfa_offset 4
 6152              		@ sp needed
 6153 006c 5DF804FB 		ldr	pc, [sp], #4
 6154              	.L496:
 6155              		.align	2
 6156              	.L495:
 6157 0070 00000000 		.word	__stack_chk_guard
 6158              		.cfi_endproc
 6159              	.LFE74:
 6160              		.size	cmp_write_ext16, .-cmp_write_ext16
 6161              		.section	.text.cmp_write_ext32_marker,"ax",%progbits
 6162              		.align	1
 6163              		.p2align 4,,15
 6164              		.global	cmp_write_ext32_marker
 6165              		.syntax unified
 6166              		.thumb
 6167              		.thumb_func
 6168              		.fpu fpv4-sp-d16
 6169              		.type	cmp_write_ext32_marker, %function
 6170              	cmp_write_ext32_marker:
 6171              	.LFB75:
 6172              		.loc 1 896 0
 6173              		.cfi_startproc
 6174              		@ args = 0, pretend = 0, frame = 24
 6175              		@ frame_needed = 0, uses_anonymous_args = 0
 6176 0000 00B5     		push	{lr}
 6177              		.cfi_def_cfa_offset 4
 6178              		.cfi_offset 14, -4
 6179 0002 87B0     		sub	sp, sp, #28
 6180              		.cfi_def_cfa_offset 32
 6181 0004 0390     		str	r0, [sp, #12]
 6182 0006 0B46     		mov	r3, r1
 6183 0008 0192     		str	r2, [sp, #4]
 6184 000a 8DF80B30 		strb	r3, [sp, #11]
 6185              		.loc 1 896 0
 6186 000e 1F4B     		ldr	r3, .L503
 6187 0010 1B68     		ldr	r3, [r3]
 6188 0012 0593     		str	r3, [sp, #20]
 6189              		.loc 1 897 0
 6190 0014 C921     		movs	r1, #201
 6191 0016 0398     		ldr	r0, [sp, #12]
 6192 0018 FFF7FEFF 		bl	write_type_marker
 6193 001c 0346     		mov	r3, r0
 6194 001e 83F00103 		eor	r3, r3, #1
 6195 0022 DBB2     		uxtb	r3, r3
 6196 0024 002B     		cmp	r3, #0
 6197 0026 01D0     		beq	.L498
 6198              		.loc 1 898 0
 6199 0028 0023     		movs	r3, #0
 6200 002a 23E0     		b	.L499
 6201              	.L498:
 6202              		.loc 1 900 0
 6203 002c 019B     		ldr	r3, [sp, #4]
 6204 002e 1846     		mov	r0, r3
 6205 0030 FFF7FEFF 		bl	be32
ARM GAS  C:\Users\PCHAUT~1\AppData\Local\Temp\ccacj52E.s 			page 111


 6206 0034 0346     		mov	r3, r0
 6207 0036 0193     		str	r3, [sp, #4]
 6208              		.loc 1 902 0
 6209 0038 039B     		ldr	r3, [sp, #12]
 6210 003a DB68     		ldr	r3, [r3, #12]
 6211 003c 01A9     		add	r1, sp, #4
 6212 003e 0422     		movs	r2, #4
 6213 0040 0398     		ldr	r0, [sp, #12]
 6214 0042 9847     		blx	r3
 6215              	.LVL45:
 6216 0044 0346     		mov	r3, r0
 6217 0046 002B     		cmp	r3, #0
 6218 0048 04D1     		bne	.L500
 6219              		.loc 1 903 0
 6220 004a 039B     		ldr	r3, [sp, #12]
 6221 004c 0F22     		movs	r2, #15
 6222 004e 1A70     		strb	r2, [r3]
 6223              		.loc 1 904 0
 6224 0050 0023     		movs	r3, #0
 6225 0052 0FE0     		b	.L499
 6226              	.L500:
 6227              		.loc 1 907 0
 6228 0054 039B     		ldr	r3, [sp, #12]
 6229 0056 DB68     		ldr	r3, [r3, #12]
 6230 0058 0DF10B01 		add	r1, sp, #11
 6231 005c 0122     		movs	r2, #1
 6232 005e 0398     		ldr	r0, [sp, #12]
 6233 0060 9847     		blx	r3
 6234              	.LVL46:
 6235 0062 0346     		mov	r3, r0
 6236 0064 002B     		cmp	r3, #0
 6237 0066 01D0     		beq	.L501
 6238              		.loc 1 908 0
 6239 0068 0123     		movs	r3, #1
 6240 006a 03E0     		b	.L499
 6241              	.L501:
 6242              		.loc 1 910 0
 6243 006c 039B     		ldr	r3, [sp, #12]
 6244 006e 0C22     		movs	r2, #12
 6245 0070 1A70     		strb	r2, [r3]
 6246              		.loc 1 911 0
 6247 0072 0023     		movs	r3, #0
 6248              	.L499:
 6249              		.loc 1 912 0
 6250 0074 1846     		mov	r0, r3
 6251 0076 054B     		ldr	r3, .L503
 6252 0078 059A     		ldr	r2, [sp, #20]
 6253 007a 1B68     		ldr	r3, [r3]
 6254 007c 9A42     		cmp	r2, r3
 6255 007e 01D0     		beq	.L502
 6256 0080 FFF7FEFF 		bl	__stack_chk_fail
 6257              	.L502:
 6258 0084 07B0     		add	sp, sp, #28
 6259              		.cfi_def_cfa_offset 4
 6260              		@ sp needed
 6261 0086 5DF804FB 		ldr	pc, [sp], #4
 6262              	.L504:
ARM GAS  C:\Users\PCHAUT~1\AppData\Local\Temp\ccacj52E.s 			page 112


 6263 008a 00BF     		.align	2
 6264              	.L503:
 6265 008c 00000000 		.word	__stack_chk_guard
 6266              		.cfi_endproc
 6267              	.LFE75:
 6268              		.size	cmp_write_ext32_marker, .-cmp_write_ext32_marker
 6269              		.section	.text.cmp_write_ext32,"ax",%progbits
 6270              		.align	1
 6271              		.p2align 4,,15
 6272              		.global	cmp_write_ext32
 6273              		.syntax unified
 6274              		.thumb
 6275              		.thumb_func
 6276              		.fpu fpv4-sp-d16
 6277              		.type	cmp_write_ext32, %function
 6278              	cmp_write_ext32:
 6279              	.LFB76:
 6280              		.loc 1 914 0
 6281              		.cfi_startproc
 6282              		@ args = 0, pretend = 0, frame = 24
 6283              		@ frame_needed = 0, uses_anonymous_args = 0
 6284 0000 00B5     		push	{lr}
 6285              		.cfi_def_cfa_offset 4
 6286              		.cfi_offset 14, -4
 6287 0002 87B0     		sub	sp, sp, #28
 6288              		.cfi_def_cfa_offset 32
 6289 0004 0390     		str	r0, [sp, #12]
 6290 0006 0192     		str	r2, [sp, #4]
 6291 0008 0093     		str	r3, [sp]
 6292 000a 0B46     		mov	r3, r1
 6293 000c 8DF80B30 		strb	r3, [sp, #11]
 6294              		.loc 1 914 0
 6295 0010 154B     		ldr	r3, .L510
 6296 0012 1B68     		ldr	r3, [r3]
 6297 0014 0593     		str	r3, [sp, #20]
 6298              		.loc 1 915 0
 6299 0016 9DF90B30 		ldrsb	r3, [sp, #11]
 6300 001a 019A     		ldr	r2, [sp, #4]
 6301 001c 1946     		mov	r1, r3
 6302 001e 0398     		ldr	r0, [sp, #12]
 6303 0020 FFF7FEFF 		bl	cmp_write_ext32_marker
 6304 0024 0346     		mov	r3, r0
 6305 0026 83F00103 		eor	r3, r3, #1
 6306 002a DBB2     		uxtb	r3, r3
 6307 002c 002B     		cmp	r3, #0
 6308 002e 01D0     		beq	.L506
 6309              		.loc 1 916 0
 6310 0030 0023     		movs	r3, #0
 6311 0032 0EE0     		b	.L507
 6312              	.L506:
 6313              		.loc 1 918 0
 6314 0034 039B     		ldr	r3, [sp, #12]
 6315 0036 DB68     		ldr	r3, [r3, #12]
 6316 0038 019A     		ldr	r2, [sp, #4]
 6317 003a 0099     		ldr	r1, [sp]
 6318 003c 0398     		ldr	r0, [sp, #12]
 6319 003e 9847     		blx	r3
ARM GAS  C:\Users\PCHAUT~1\AppData\Local\Temp\ccacj52E.s 			page 113


 6320              	.LVL47:
 6321 0040 0346     		mov	r3, r0
 6322 0042 002B     		cmp	r3, #0
 6323 0044 01D0     		beq	.L508
 6324              		.loc 1 919 0
 6325 0046 0123     		movs	r3, #1
 6326 0048 03E0     		b	.L507
 6327              	.L508:
 6328              		.loc 1 921 0
 6329 004a 039B     		ldr	r3, [sp, #12]
 6330 004c 0A22     		movs	r2, #10
 6331 004e 1A70     		strb	r2, [r3]
 6332              		.loc 1 922 0
 6333 0050 0023     		movs	r3, #0
 6334              	.L507:
 6335              		.loc 1 923 0
 6336 0052 1846     		mov	r0, r3
 6337 0054 044B     		ldr	r3, .L510
 6338 0056 059A     		ldr	r2, [sp, #20]
 6339 0058 1B68     		ldr	r3, [r3]
 6340 005a 9A42     		cmp	r2, r3
 6341 005c 01D0     		beq	.L509
 6342 005e FFF7FEFF 		bl	__stack_chk_fail
 6343              	.L509:
 6344 0062 07B0     		add	sp, sp, #28
 6345              		.cfi_def_cfa_offset 4
 6346              		@ sp needed
 6347 0064 5DF804FB 		ldr	pc, [sp], #4
 6348              	.L511:
 6349              		.align	2
 6350              	.L510:
 6351 0068 00000000 		.word	__stack_chk_guard
 6352              		.cfi_endproc
 6353              	.LFE76:
 6354              		.size	cmp_write_ext32, .-cmp_write_ext32
 6355              		.section	.text.cmp_write_ext_marker,"ax",%progbits
 6356              		.align	1
 6357              		.p2align 4,,15
 6358              		.global	cmp_write_ext_marker
 6359              		.syntax unified
 6360              		.thumb
 6361              		.thumb_func
 6362              		.fpu fpv4-sp-d16
 6363              		.type	cmp_write_ext_marker, %function
 6364              	cmp_write_ext_marker:
 6365              	.LFB77:
 6366              		.loc 1 925 0
 6367              		.cfi_startproc
 6368              		@ args = 0, pretend = 0, frame = 24
 6369              		@ frame_needed = 0, uses_anonymous_args = 0
 6370 0000 00B5     		push	{lr}
 6371              		.cfi_def_cfa_offset 4
 6372              		.cfi_offset 14, -4
 6373 0002 87B0     		sub	sp, sp, #28
 6374              		.cfi_def_cfa_offset 32
 6375 0004 0390     		str	r0, [sp, #12]
 6376 0006 0B46     		mov	r3, r1
ARM GAS  C:\Users\PCHAUT~1\AppData\Local\Temp\ccacj52E.s 			page 114


 6377 0008 0192     		str	r2, [sp, #4]
 6378 000a 8DF80B30 		strb	r3, [sp, #11]
 6379              		.loc 1 925 0
 6380 000e 344B     		ldr	r3, .L522
 6381 0010 1B68     		ldr	r3, [r3]
 6382 0012 0593     		str	r3, [sp, #20]
 6383              		.loc 1 926 0
 6384 0014 019B     		ldr	r3, [sp, #4]
 6385 0016 012B     		cmp	r3, #1
 6386 0018 07D1     		bne	.L513
 6387              		.loc 1 927 0
 6388 001a 9DF90B30 		ldrsb	r3, [sp, #11]
 6389 001e 1946     		mov	r1, r3
 6390 0020 0398     		ldr	r0, [sp, #12]
 6391 0022 FFF7FEFF 		bl	cmp_write_fixext1_marker
 6392 0026 0346     		mov	r3, r0
 6393 0028 4EE0     		b	.L514
 6394              	.L513:
 6395              		.loc 1 928 0
 6396 002a 019B     		ldr	r3, [sp, #4]
 6397 002c 022B     		cmp	r3, #2
 6398 002e 07D1     		bne	.L515
 6399              		.loc 1 929 0
 6400 0030 9DF90B30 		ldrsb	r3, [sp, #11]
 6401 0034 1946     		mov	r1, r3
 6402 0036 0398     		ldr	r0, [sp, #12]
 6403 0038 FFF7FEFF 		bl	cmp_write_fixext2_marker
 6404 003c 0346     		mov	r3, r0
 6405 003e 43E0     		b	.L514
 6406              	.L515:
 6407              		.loc 1 930 0
 6408 0040 019B     		ldr	r3, [sp, #4]
 6409 0042 042B     		cmp	r3, #4
 6410 0044 07D1     		bne	.L516
 6411              		.loc 1 931 0
 6412 0046 9DF90B30 		ldrsb	r3, [sp, #11]
 6413 004a 1946     		mov	r1, r3
 6414 004c 0398     		ldr	r0, [sp, #12]
 6415 004e FFF7FEFF 		bl	cmp_write_fixext4_marker
 6416 0052 0346     		mov	r3, r0
 6417 0054 38E0     		b	.L514
 6418              	.L516:
 6419              		.loc 1 932 0
 6420 0056 019B     		ldr	r3, [sp, #4]
 6421 0058 082B     		cmp	r3, #8
 6422 005a 07D1     		bne	.L517
 6423              		.loc 1 933 0
 6424 005c 9DF90B30 		ldrsb	r3, [sp, #11]
 6425 0060 1946     		mov	r1, r3
 6426 0062 0398     		ldr	r0, [sp, #12]
 6427 0064 FFF7FEFF 		bl	cmp_write_fixext8_marker
 6428 0068 0346     		mov	r3, r0
 6429 006a 2DE0     		b	.L514
 6430              	.L517:
 6431              		.loc 1 934 0
 6432 006c 019B     		ldr	r3, [sp, #4]
 6433 006e 102B     		cmp	r3, #16
ARM GAS  C:\Users\PCHAUT~1\AppData\Local\Temp\ccacj52E.s 			page 115


 6434 0070 07D1     		bne	.L518
 6435              		.loc 1 935 0
 6436 0072 9DF90B30 		ldrsb	r3, [sp, #11]
 6437 0076 1946     		mov	r1, r3
 6438 0078 0398     		ldr	r0, [sp, #12]
 6439 007a FFF7FEFF 		bl	cmp_write_fixext16_marker
 6440 007e 0346     		mov	r3, r0
 6441 0080 22E0     		b	.L514
 6442              	.L518:
 6443              		.loc 1 936 0
 6444 0082 019B     		ldr	r3, [sp, #4]
 6445 0084 FF2B     		cmp	r3, #255
 6446 0086 09D8     		bhi	.L519
 6447              		.loc 1 937 0
 6448 0088 019B     		ldr	r3, [sp, #4]
 6449 008a DAB2     		uxtb	r2, r3
 6450 008c 9DF90B30 		ldrsb	r3, [sp, #11]
 6451 0090 1946     		mov	r1, r3
 6452 0092 0398     		ldr	r0, [sp, #12]
 6453 0094 FFF7FEFF 		bl	cmp_write_ext8_marker
 6454 0098 0346     		mov	r3, r0
 6455 009a 15E0     		b	.L514
 6456              	.L519:
 6457              		.loc 1 938 0
 6458 009c 019B     		ldr	r3, [sp, #4]
 6459 009e B3F5803F 		cmp	r3, #65536
 6460 00a2 09D2     		bcs	.L520
 6461              		.loc 1 939 0
 6462 00a4 019B     		ldr	r3, [sp, #4]
 6463 00a6 9AB2     		uxth	r2, r3
 6464 00a8 9DF90B30 		ldrsb	r3, [sp, #11]
 6465 00ac 1946     		mov	r1, r3
 6466 00ae 0398     		ldr	r0, [sp, #12]
 6467 00b0 FFF7FEFF 		bl	cmp_write_ext16_marker
 6468 00b4 0346     		mov	r3, r0
 6469 00b6 07E0     		b	.L514
 6470              	.L520:
 6471              		.loc 1 941 0
 6472 00b8 9DF90B30 		ldrsb	r3, [sp, #11]
 6473 00bc 019A     		ldr	r2, [sp, #4]
 6474 00be 1946     		mov	r1, r3
 6475 00c0 0398     		ldr	r0, [sp, #12]
 6476 00c2 FFF7FEFF 		bl	cmp_write_ext32_marker
 6477 00c6 0346     		mov	r3, r0
 6478              	.L514:
 6479              		.loc 1 942 0
 6480 00c8 1846     		mov	r0, r3
 6481 00ca 054B     		ldr	r3, .L522
 6482 00cc 059A     		ldr	r2, [sp, #20]
 6483 00ce 1B68     		ldr	r3, [r3]
 6484 00d0 9A42     		cmp	r2, r3
 6485 00d2 01D0     		beq	.L521
 6486 00d4 FFF7FEFF 		bl	__stack_chk_fail
 6487              	.L521:
 6488 00d8 07B0     		add	sp, sp, #28
 6489              		.cfi_def_cfa_offset 4
 6490              		@ sp needed
ARM GAS  C:\Users\PCHAUT~1\AppData\Local\Temp\ccacj52E.s 			page 116


 6491 00da 5DF804FB 		ldr	pc, [sp], #4
 6492              	.L523:
 6493 00de 00BF     		.align	2
 6494              	.L522:
 6495 00e0 00000000 		.word	__stack_chk_guard
 6496              		.cfi_endproc
 6497              	.LFE77:
 6498              		.size	cmp_write_ext_marker, .-cmp_write_ext_marker
 6499              		.section	.text.cmp_write_ext,"ax",%progbits
 6500              		.align	1
 6501              		.p2align 4,,15
 6502              		.global	cmp_write_ext
 6503              		.syntax unified
 6504              		.thumb
 6505              		.thumb_func
 6506              		.fpu fpv4-sp-d16
 6507              		.type	cmp_write_ext, %function
 6508              	cmp_write_ext:
 6509              	.LFB78:
 6510              		.loc 1 944 0
 6511              		.cfi_startproc
 6512              		@ args = 0, pretend = 0, frame = 24
 6513              		@ frame_needed = 0, uses_anonymous_args = 0
 6514 0000 00B5     		push	{lr}
 6515              		.cfi_def_cfa_offset 4
 6516              		.cfi_offset 14, -4
 6517 0002 87B0     		sub	sp, sp, #28
 6518              		.cfi_def_cfa_offset 32
 6519 0004 0390     		str	r0, [sp, #12]
 6520 0006 0192     		str	r2, [sp, #4]
 6521 0008 0093     		str	r3, [sp]
 6522 000a 0B46     		mov	r3, r1
 6523 000c 8DF80B30 		strb	r3, [sp, #11]
 6524              		.loc 1 944 0
 6525 0010 364B     		ldr	r3, .L534
 6526 0012 1B68     		ldr	r3, [r3]
 6527 0014 0593     		str	r3, [sp, #20]
 6528              		.loc 1 945 0
 6529 0016 019B     		ldr	r3, [sp, #4]
 6530 0018 012B     		cmp	r3, #1
 6531 001a 08D1     		bne	.L525
 6532              		.loc 1 946 0
 6533 001c 9DF90B30 		ldrsb	r3, [sp, #11]
 6534 0020 009A     		ldr	r2, [sp]
 6535 0022 1946     		mov	r1, r3
 6536 0024 0398     		ldr	r0, [sp, #12]
 6537 0026 FFF7FEFF 		bl	cmp_write_fixext1
 6538 002a 0346     		mov	r3, r0
 6539 002c 52E0     		b	.L526
 6540              	.L525:
 6541              		.loc 1 947 0
 6542 002e 019B     		ldr	r3, [sp, #4]
 6543 0030 022B     		cmp	r3, #2
 6544 0032 08D1     		bne	.L527
 6545              		.loc 1 948 0
 6546 0034 9DF90B30 		ldrsb	r3, [sp, #11]
 6547 0038 009A     		ldr	r2, [sp]
ARM GAS  C:\Users\PCHAUT~1\AppData\Local\Temp\ccacj52E.s 			page 117


 6548 003a 1946     		mov	r1, r3
 6549 003c 0398     		ldr	r0, [sp, #12]
 6550 003e FFF7FEFF 		bl	cmp_write_fixext2
 6551 0042 0346     		mov	r3, r0
 6552 0044 46E0     		b	.L526
 6553              	.L527:
 6554              		.loc 1 949 0
 6555 0046 019B     		ldr	r3, [sp, #4]
 6556 0048 042B     		cmp	r3, #4
 6557 004a 08D1     		bne	.L528
 6558              		.loc 1 950 0
 6559 004c 9DF90B30 		ldrsb	r3, [sp, #11]
 6560 0050 009A     		ldr	r2, [sp]
 6561 0052 1946     		mov	r1, r3
 6562 0054 0398     		ldr	r0, [sp, #12]
 6563 0056 FFF7FEFF 		bl	cmp_write_fixext4
 6564 005a 0346     		mov	r3, r0
 6565 005c 3AE0     		b	.L526
 6566              	.L528:
 6567              		.loc 1 951 0
 6568 005e 019B     		ldr	r3, [sp, #4]
 6569 0060 082B     		cmp	r3, #8
 6570 0062 08D1     		bne	.L529
 6571              		.loc 1 952 0
 6572 0064 9DF90B30 		ldrsb	r3, [sp, #11]
 6573 0068 009A     		ldr	r2, [sp]
 6574 006a 1946     		mov	r1, r3
 6575 006c 0398     		ldr	r0, [sp, #12]
 6576 006e FFF7FEFF 		bl	cmp_write_fixext8
 6577 0072 0346     		mov	r3, r0
 6578 0074 2EE0     		b	.L526
 6579              	.L529:
 6580              		.loc 1 953 0
 6581 0076 019B     		ldr	r3, [sp, #4]
 6582 0078 102B     		cmp	r3, #16
 6583 007a 08D1     		bne	.L530
 6584              		.loc 1 954 0
 6585 007c 9DF90B30 		ldrsb	r3, [sp, #11]
 6586 0080 009A     		ldr	r2, [sp]
 6587 0082 1946     		mov	r1, r3
 6588 0084 0398     		ldr	r0, [sp, #12]
 6589 0086 FFF7FEFF 		bl	cmp_write_fixext16
 6590 008a 0346     		mov	r3, r0
 6591 008c 22E0     		b	.L526
 6592              	.L530:
 6593              		.loc 1 955 0
 6594 008e 019B     		ldr	r3, [sp, #4]
 6595 0090 FF2B     		cmp	r3, #255
 6596 0092 09D8     		bhi	.L531
 6597              		.loc 1 956 0
 6598 0094 019B     		ldr	r3, [sp, #4]
 6599 0096 DAB2     		uxtb	r2, r3
 6600 0098 9DF90B10 		ldrsb	r1, [sp, #11]
 6601 009c 009B     		ldr	r3, [sp]
 6602 009e 0398     		ldr	r0, [sp, #12]
 6603 00a0 FFF7FEFF 		bl	cmp_write_ext8
 6604 00a4 0346     		mov	r3, r0
ARM GAS  C:\Users\PCHAUT~1\AppData\Local\Temp\ccacj52E.s 			page 118


 6605 00a6 15E0     		b	.L526
 6606              	.L531:
 6607              		.loc 1 957 0
 6608 00a8 019B     		ldr	r3, [sp, #4]
 6609 00aa B3F5803F 		cmp	r3, #65536
 6610 00ae 09D2     		bcs	.L532
 6611              		.loc 1 958 0
 6612 00b0 019B     		ldr	r3, [sp, #4]
 6613 00b2 9AB2     		uxth	r2, r3
 6614 00b4 9DF90B10 		ldrsb	r1, [sp, #11]
 6615 00b8 009B     		ldr	r3, [sp]
 6616 00ba 0398     		ldr	r0, [sp, #12]
 6617 00bc FFF7FEFF 		bl	cmp_write_ext16
 6618 00c0 0346     		mov	r3, r0
 6619 00c2 07E0     		b	.L526
 6620              	.L532:
 6621              		.loc 1 960 0
 6622 00c4 9DF90B10 		ldrsb	r1, [sp, #11]
 6623 00c8 009B     		ldr	r3, [sp]
 6624 00ca 019A     		ldr	r2, [sp, #4]
 6625 00cc 0398     		ldr	r0, [sp, #12]
 6626 00ce FFF7FEFF 		bl	cmp_write_ext32
 6627 00d2 0346     		mov	r3, r0
 6628              	.L526:
 6629              		.loc 1 961 0
 6630 00d4 1846     		mov	r0, r3
 6631 00d6 054B     		ldr	r3, .L534
 6632 00d8 059A     		ldr	r2, [sp, #20]
 6633 00da 1B68     		ldr	r3, [r3]
 6634 00dc 9A42     		cmp	r2, r3
 6635 00de 01D0     		beq	.L533
 6636 00e0 FFF7FEFF 		bl	__stack_chk_fail
 6637              	.L533:
 6638 00e4 07B0     		add	sp, sp, #28
 6639              		.cfi_def_cfa_offset 4
 6640              		@ sp needed
 6641 00e6 5DF804FB 		ldr	pc, [sp], #4
 6642              	.L535:
 6643 00ea 00BF     		.align	2
 6644              	.L534:
 6645 00ec 00000000 		.word	__stack_chk_guard
 6646              		.cfi_endproc
 6647              	.LFE78:
 6648              		.size	cmp_write_ext, .-cmp_write_ext
 6649              		.section	.text.cmp_write_object,"ax",%progbits
 6650              		.align	1
 6651              		.p2align 4,,15
 6652              		.global	cmp_write_object
 6653              		.syntax unified
 6654              		.thumb
 6655              		.thumb_func
 6656              		.fpu fpv4-sp-d16
 6657              		.type	cmp_write_object, %function
 6658              	cmp_write_object:
 6659              	.LFB79:
 6660              		.loc 1 963 0
 6661              		.cfi_startproc
ARM GAS  C:\Users\PCHAUT~1\AppData\Local\Temp\ccacj52E.s 			page 119


 6662              		@ args = 0, pretend = 0, frame = 16
 6663              		@ frame_needed = 0, uses_anonymous_args = 0
 6664 0000 10B5     		push	{r4, lr}
 6665              		.cfi_def_cfa_offset 8
 6666              		.cfi_offset 4, -8
 6667              		.cfi_offset 14, -4
 6668 0002 84B0     		sub	sp, sp, #16
 6669              		.cfi_def_cfa_offset 24
 6670 0004 0190     		str	r0, [sp, #4]
 6671 0006 0091     		str	r1, [sp]
 6672              		.loc 1 963 0
 6673 0008 B84B     		ldr	r3, .L577
 6674 000a 1B68     		ldr	r3, [r3]
 6675 000c 0393     		str	r3, [sp, #12]
 6676              		.loc 1 964 0
 6677 000e 009B     		ldr	r3, [sp]
 6678 0010 1B78     		ldrb	r3, [r3]	@ zero_extendqisi2
 6679 0012 222B     		cmp	r3, #34
 6680 0014 00F28E81 		bhi	.L537
 6681 0018 01A2     		adr	r2, .L539
 6682 001a 52F823F0 		ldr	pc, [r2, r3, lsl #2]
 6683 001e 00BF     		.p2align 2
 6684              	.L539:
 6685 0020 AD000000 		.word	.L538+1
 6686 0024 BD000000 		.word	.L540+1
 6687 0028 CF000000 		.word	.L541+1
 6688 002c E1000000 		.word	.L542+1
 6689 0030 F3000000 		.word	.L543+1
 6690 0034 FD000000 		.word	.L544+1
 6691 0038 19010000 		.word	.L545+1
 6692 003c 2B010000 		.word	.L546+1
 6693 0040 3D010000 		.word	.L547+1
 6694 0044 4D010000 		.word	.L548+1
 6695 0048 65010000 		.word	.L549+1
 6696 004c 7D010000 		.word	.L550+1
 6697 0050 93010000 		.word	.L551+1
 6698 0054 A7010000 		.word	.L552+1
 6699 0058 BF010000 		.word	.L553+1
 6700 005c CF010000 		.word	.L554+1
 6701 0060 DF010000 		.word	.L555+1
 6702 0064 EF010000 		.word	.L556+1
 6703 0068 03020000 		.word	.L557+1
 6704 006c 15020000 		.word	.L558+1
 6705 0070 27020000 		.word	.L559+1
 6706 0074 37020000 		.word	.L560+1
 6707 0078 4B020000 		.word	.L561+1
 6708 007c 5D020000 		.word	.L562+1
 6709 0080 6F020000 		.word	.L563+1
 6710 0084 81020000 		.word	.L564+1
 6711 0088 93020000 		.word	.L565+1
 6712 008c A5020000 		.word	.L566+1
 6713 0090 B7020000 		.word	.L567+1
 6714 0094 C9020000 		.word	.L568+1
 6715 0098 D9020000 		.word	.L569+1
 6716 009c F1020000 		.word	.L570+1
 6717 00a0 01030000 		.word	.L571+1
 6718 00a4 13030000 		.word	.L572+1
ARM GAS  C:\Users\PCHAUT~1\AppData\Local\Temp\ccacj52E.s 			page 120


 6719 00a8 23030000 		.word	.L573+1
 6720              		.p2align 1
 6721              	.L538:
 6722              		.loc 1 966 0
 6723 00ac 009B     		ldr	r3, [sp]
 6724 00ae 1B7A     		ldrb	r3, [r3, #8]	@ zero_extendqisi2
 6725 00b0 1946     		mov	r1, r3
 6726 00b2 0198     		ldr	r0, [sp, #4]
 6727 00b4 FFF7FEFF 		bl	cmp_write_pfix
 6728 00b8 0346     		mov	r3, r0
 6729 00ba 3FE1     		b	.L574
 6730              	.L540:
 6731              		.loc 1 968 0
 6732 00bc 009B     		ldr	r3, [sp]
 6733 00be 9B68     		ldr	r3, [r3, #8]
 6734 00c0 DBB2     		uxtb	r3, r3
 6735 00c2 1946     		mov	r1, r3
 6736 00c4 0198     		ldr	r0, [sp, #4]
 6737 00c6 FFF7FEFF 		bl	cmp_write_fixmap
 6738 00ca 0346     		mov	r3, r0
 6739 00cc 36E1     		b	.L574
 6740              	.L541:
 6741              		.loc 1 970 0
 6742 00ce 009B     		ldr	r3, [sp]
 6743 00d0 9B68     		ldr	r3, [r3, #8]
 6744 00d2 DBB2     		uxtb	r3, r3
 6745 00d4 1946     		mov	r1, r3
 6746 00d6 0198     		ldr	r0, [sp, #4]
 6747 00d8 FFF7FEFF 		bl	cmp_write_fixarray
 6748 00dc 0346     		mov	r3, r0
 6749 00de 2DE1     		b	.L574
 6750              	.L542:
 6751              		.loc 1 972 0
 6752 00e0 009B     		ldr	r3, [sp]
 6753 00e2 9B68     		ldr	r3, [r3, #8]
 6754 00e4 DBB2     		uxtb	r3, r3
 6755 00e6 1946     		mov	r1, r3
 6756 00e8 0198     		ldr	r0, [sp, #4]
 6757 00ea FFF7FEFF 		bl	cmp_write_fixstr_marker
 6758 00ee 0346     		mov	r3, r0
 6759 00f0 24E1     		b	.L574
 6760              	.L543:
 6761              		.loc 1 974 0
 6762 00f2 0198     		ldr	r0, [sp, #4]
 6763 00f4 FFF7FEFF 		bl	cmp_write_nil
 6764 00f8 0346     		mov	r3, r0
 6765 00fa 1FE1     		b	.L574
 6766              	.L544:
 6767              		.loc 1 976 0
 6768 00fc 009B     		ldr	r3, [sp]
 6769 00fe 1B7A     		ldrb	r3, [r3, #8]	@ zero_extendqisi2
 6770 0100 002B     		cmp	r3, #0
 6771 0102 04D0     		beq	.L575
 6772              		.loc 1 977 0
 6773 0104 0198     		ldr	r0, [sp, #4]
 6774 0106 FFF7FEFF 		bl	cmp_write_true
 6775 010a 0346     		mov	r3, r0
ARM GAS  C:\Users\PCHAUT~1\AppData\Local\Temp\ccacj52E.s 			page 121


 6776 010c 16E1     		b	.L574
 6777              	.L575:
 6778              		.loc 1 978 0
 6779 010e 0198     		ldr	r0, [sp, #4]
 6780 0110 FFF7FEFF 		bl	cmp_write_false
 6781 0114 0346     		mov	r3, r0
 6782 0116 11E1     		b	.L574
 6783              	.L545:
 6784              		.loc 1 980 0
 6785 0118 009B     		ldr	r3, [sp]
 6786 011a 9B68     		ldr	r3, [r3, #8]
 6787 011c DBB2     		uxtb	r3, r3
 6788 011e 1946     		mov	r1, r3
 6789 0120 0198     		ldr	r0, [sp, #4]
 6790 0122 FFF7FEFF 		bl	cmp_write_bin8_marker
 6791 0126 0346     		mov	r3, r0
 6792 0128 08E1     		b	.L574
 6793              	.L546:
 6794              		.loc 1 982 0
 6795 012a 009B     		ldr	r3, [sp]
 6796 012c 9B68     		ldr	r3, [r3, #8]
 6797 012e 9BB2     		uxth	r3, r3
 6798 0130 1946     		mov	r1, r3
 6799 0132 0198     		ldr	r0, [sp, #4]
 6800 0134 FFF7FEFF 		bl	cmp_write_bin16_marker
 6801 0138 0346     		mov	r3, r0
 6802 013a FFE0     		b	.L574
 6803              	.L547:
 6804              		.loc 1 984 0
 6805 013c 009B     		ldr	r3, [sp]
 6806 013e 9B68     		ldr	r3, [r3, #8]
 6807 0140 1946     		mov	r1, r3
 6808 0142 0198     		ldr	r0, [sp, #4]
 6809 0144 FFF7FEFF 		bl	cmp_write_bin32_marker
 6810 0148 0346     		mov	r3, r0
 6811 014a F7E0     		b	.L574
 6812              	.L548:
 6813              		.loc 1 986 0
 6814 014c 009B     		ldr	r3, [sp]
 6815 014e 93F90810 		ldrsb	r1, [r3, #8]
 6816 0152 009B     		ldr	r3, [sp]
 6817 0154 DB68     		ldr	r3, [r3, #12]
 6818 0156 DBB2     		uxtb	r3, r3
 6819 0158 1A46     		mov	r2, r3
 6820 015a 0198     		ldr	r0, [sp, #4]
 6821 015c FFF7FEFF 		bl	cmp_write_ext8_marker
 6822 0160 0346     		mov	r3, r0
 6823 0162 EBE0     		b	.L574
 6824              	.L549:
 6825              		.loc 1 988 0
 6826 0164 009B     		ldr	r3, [sp]
 6827 0166 93F90810 		ldrsb	r1, [r3, #8]
 6828 016a 009B     		ldr	r3, [sp]
 6829 016c DB68     		ldr	r3, [r3, #12]
 6830 016e 9BB2     		uxth	r3, r3
 6831 0170 1A46     		mov	r2, r3
 6832 0172 0198     		ldr	r0, [sp, #4]
ARM GAS  C:\Users\PCHAUT~1\AppData\Local\Temp\ccacj52E.s 			page 122


 6833 0174 FFF7FEFF 		bl	cmp_write_ext16_marker
 6834 0178 0346     		mov	r3, r0
 6835 017a DFE0     		b	.L574
 6836              	.L550:
 6837              		.loc 1 990 0
 6838 017c 009B     		ldr	r3, [sp]
 6839 017e 93F90810 		ldrsb	r1, [r3, #8]
 6840 0182 009B     		ldr	r3, [sp]
 6841 0184 DB68     		ldr	r3, [r3, #12]
 6842 0186 1A46     		mov	r2, r3
 6843 0188 0198     		ldr	r0, [sp, #4]
 6844 018a FFF7FEFF 		bl	cmp_write_ext32_marker
 6845 018e 0346     		mov	r3, r0
 6846 0190 D4E0     		b	.L574
 6847              	.L551:
 6848              		.loc 1 992 0
 6849 0192 009B     		ldr	r3, [sp]
 6850 0194 D3ED027A 		vldr.32	s15, [r3, #8]
 6851 0198 B0EE670A 		vmov.f32	s0, s15
 6852 019c 0198     		ldr	r0, [sp, #4]
 6853 019e FFF7FEFF 		bl	cmp_write_float
 6854 01a2 0346     		mov	r3, r0
 6855 01a4 CAE0     		b	.L574
 6856              	.L552:
 6857              		.loc 1 994 0
 6858 01a6 009B     		ldr	r3, [sp]
 6859 01a8 93ED027B 		vldr.64	d7, [r3, #8]
 6860 01ac B0EE470A 		vmov.f32	s0, s14
 6861 01b0 F0EE670A 		vmov.f32	s1, s15
 6862 01b4 0198     		ldr	r0, [sp, #4]
 6863 01b6 FFF7FEFF 		bl	cmp_write_double
 6864 01ba 0346     		mov	r3, r0
 6865 01bc BEE0     		b	.L574
 6866              	.L553:
 6867              		.loc 1 996 0
 6868 01be 009B     		ldr	r3, [sp]
 6869 01c0 1B7A     		ldrb	r3, [r3, #8]	@ zero_extendqisi2
 6870 01c2 1946     		mov	r1, r3
 6871 01c4 0198     		ldr	r0, [sp, #4]
 6872 01c6 FFF7FEFF 		bl	cmp_write_u8
 6873 01ca 0346     		mov	r3, r0
 6874 01cc B6E0     		b	.L574
 6875              	.L554:
 6876              		.loc 1 998 0
 6877 01ce 009B     		ldr	r3, [sp]
 6878 01d0 1B89     		ldrh	r3, [r3, #8]
 6879 01d2 1946     		mov	r1, r3
 6880 01d4 0198     		ldr	r0, [sp, #4]
 6881 01d6 FFF7FEFF 		bl	cmp_write_u16
 6882 01da 0346     		mov	r3, r0
 6883 01dc AEE0     		b	.L574
 6884              	.L555:
 6885              		.loc 1 1000 0
 6886 01de 009B     		ldr	r3, [sp]
 6887 01e0 9B68     		ldr	r3, [r3, #8]
 6888 01e2 1946     		mov	r1, r3
 6889 01e4 0198     		ldr	r0, [sp, #4]
ARM GAS  C:\Users\PCHAUT~1\AppData\Local\Temp\ccacj52E.s 			page 123


 6890 01e6 FFF7FEFF 		bl	cmp_write_u32
 6891 01ea 0346     		mov	r3, r0
 6892 01ec A6E0     		b	.L574
 6893              	.L556:
 6894              		.loc 1 1002 0
 6895 01ee 009B     		ldr	r3, [sp]
 6896 01f0 D3E90234 		ldrd	r3, [r3, #8]
 6897 01f4 1A46     		mov	r2, r3
 6898 01f6 2346     		mov	r3, r4
 6899 01f8 0198     		ldr	r0, [sp, #4]
 6900 01fa FFF7FEFF 		bl	cmp_write_u64
 6901 01fe 0346     		mov	r3, r0
 6902 0200 9CE0     		b	.L574
 6903              	.L557:
 6904              		.loc 1 1004 0
 6905 0202 009B     		ldr	r3, [sp]
 6906 0204 93F90830 		ldrsb	r3, [r3, #8]
 6907 0208 1946     		mov	r1, r3
 6908 020a 0198     		ldr	r0, [sp, #4]
 6909 020c FFF7FEFF 		bl	cmp_write_s8
 6910 0210 0346     		mov	r3, r0
 6911 0212 93E0     		b	.L574
 6912              	.L558:
 6913              		.loc 1 1006 0
 6914 0214 009B     		ldr	r3, [sp]
 6915 0216 B3F90830 		ldrsh	r3, [r3, #8]
 6916 021a 1946     		mov	r1, r3
 6917 021c 0198     		ldr	r0, [sp, #4]
 6918 021e FFF7FEFF 		bl	cmp_write_s16
 6919 0222 0346     		mov	r3, r0
 6920 0224 8AE0     		b	.L574
 6921              	.L559:
 6922              		.loc 1 1008 0
 6923 0226 009B     		ldr	r3, [sp]
 6924 0228 9B68     		ldr	r3, [r3, #8]
 6925 022a 1946     		mov	r1, r3
 6926 022c 0198     		ldr	r0, [sp, #4]
 6927 022e FFF7FEFF 		bl	cmp_write_s32
 6928 0232 0346     		mov	r3, r0
 6929 0234 82E0     		b	.L574
 6930              	.L560:
 6931              		.loc 1 1010 0
 6932 0236 009B     		ldr	r3, [sp]
 6933 0238 D3E90234 		ldrd	r3, [r3, #8]
 6934 023c 1A46     		mov	r2, r3
 6935 023e 2346     		mov	r3, r4
 6936 0240 0198     		ldr	r0, [sp, #4]
 6937 0242 FFF7FEFF 		bl	cmp_write_s64
 6938 0246 0346     		mov	r3, r0
 6939 0248 78E0     		b	.L574
 6940              	.L561:
 6941              		.loc 1 1012 0
 6942 024a 009B     		ldr	r3, [sp]
 6943 024c 93F90830 		ldrsb	r3, [r3, #8]
 6944 0250 1946     		mov	r1, r3
 6945 0252 0198     		ldr	r0, [sp, #4]
 6946 0254 FFF7FEFF 		bl	cmp_write_fixext1_marker
ARM GAS  C:\Users\PCHAUT~1\AppData\Local\Temp\ccacj52E.s 			page 124


 6947 0258 0346     		mov	r3, r0
 6948 025a 6FE0     		b	.L574
 6949              	.L562:
 6950              		.loc 1 1014 0
 6951 025c 009B     		ldr	r3, [sp]
 6952 025e 93F90830 		ldrsb	r3, [r3, #8]
 6953 0262 1946     		mov	r1, r3
 6954 0264 0198     		ldr	r0, [sp, #4]
 6955 0266 FFF7FEFF 		bl	cmp_write_fixext2_marker
 6956 026a 0346     		mov	r3, r0
 6957 026c 66E0     		b	.L574
 6958              	.L563:
 6959              		.loc 1 1016 0
 6960 026e 009B     		ldr	r3, [sp]
 6961 0270 93F90830 		ldrsb	r3, [r3, #8]
 6962 0274 1946     		mov	r1, r3
 6963 0276 0198     		ldr	r0, [sp, #4]
 6964 0278 FFF7FEFF 		bl	cmp_write_fixext4_marker
 6965 027c 0346     		mov	r3, r0
 6966 027e 5DE0     		b	.L574
 6967              	.L564:
 6968              		.loc 1 1018 0
 6969 0280 009B     		ldr	r3, [sp]
 6970 0282 93F90830 		ldrsb	r3, [r3, #8]
 6971 0286 1946     		mov	r1, r3
 6972 0288 0198     		ldr	r0, [sp, #4]
 6973 028a FFF7FEFF 		bl	cmp_write_fixext8_marker
 6974 028e 0346     		mov	r3, r0
 6975 0290 54E0     		b	.L574
 6976              	.L565:
 6977              		.loc 1 1020 0
 6978 0292 009B     		ldr	r3, [sp]
 6979 0294 93F90830 		ldrsb	r3, [r3, #8]
 6980 0298 1946     		mov	r1, r3
 6981 029a 0198     		ldr	r0, [sp, #4]
 6982 029c FFF7FEFF 		bl	cmp_write_fixext16_marker
 6983 02a0 0346     		mov	r3, r0
 6984 02a2 4BE0     		b	.L574
 6985              	.L566:
 6986              		.loc 1 1022 0
 6987 02a4 009B     		ldr	r3, [sp]
 6988 02a6 9B68     		ldr	r3, [r3, #8]
 6989 02a8 DBB2     		uxtb	r3, r3
 6990 02aa 1946     		mov	r1, r3
 6991 02ac 0198     		ldr	r0, [sp, #4]
 6992 02ae FFF7FEFF 		bl	cmp_write_str8_marker
 6993 02b2 0346     		mov	r3, r0
 6994 02b4 42E0     		b	.L574
 6995              	.L567:
 6996              		.loc 1 1024 0
 6997 02b6 009B     		ldr	r3, [sp]
 6998 02b8 9B68     		ldr	r3, [r3, #8]
 6999 02ba 9BB2     		uxth	r3, r3
 7000 02bc 1946     		mov	r1, r3
 7001 02be 0198     		ldr	r0, [sp, #4]
 7002 02c0 FFF7FEFF 		bl	cmp_write_str16_marker
 7003 02c4 0346     		mov	r3, r0
ARM GAS  C:\Users\PCHAUT~1\AppData\Local\Temp\ccacj52E.s 			page 125


 7004 02c6 39E0     		b	.L574
 7005              	.L568:
 7006              		.loc 1 1026 0
 7007 02c8 009B     		ldr	r3, [sp]
 7008 02ca 9B68     		ldr	r3, [r3, #8]
 7009 02cc 1946     		mov	r1, r3
 7010 02ce 0198     		ldr	r0, [sp, #4]
 7011 02d0 FFF7FEFF 		bl	cmp_write_str32_marker
 7012 02d4 0346     		mov	r3, r0
 7013 02d6 31E0     		b	.L574
 7014              	.L569:
 7015              		.loc 1 1028 0
 7016 02d8 009B     		ldr	r3, [sp]
 7017 02da 9B68     		ldr	r3, [r3, #8]
 7018 02dc 9BB2     		uxth	r3, r3
 7019 02de 1946     		mov	r1, r3
 7020 02e0 0198     		ldr	r0, [sp, #4]
 7021 02e2 FFF7FEFF 		bl	cmp_write_array16
 7022 02e6 0346     		mov	r3, r0
 7023 02e8 28E0     		b	.L574
 7024              	.L578:
 7025 02ea 00BF     		.align	2
 7026              	.L577:
 7027 02ec 00000000 		.word	__stack_chk_guard
 7028              	.L570:
 7029              		.loc 1 1030 0
 7030 02f0 009B     		ldr	r3, [sp]
 7031 02f2 9B68     		ldr	r3, [r3, #8]
 7032 02f4 1946     		mov	r1, r3
 7033 02f6 0198     		ldr	r0, [sp, #4]
 7034 02f8 FFF7FEFF 		bl	cmp_write_array32
 7035 02fc 0346     		mov	r3, r0
 7036 02fe 1DE0     		b	.L574
 7037              	.L571:
 7038              		.loc 1 1032 0
 7039 0300 009B     		ldr	r3, [sp]
 7040 0302 9B68     		ldr	r3, [r3, #8]
 7041 0304 9BB2     		uxth	r3, r3
 7042 0306 1946     		mov	r1, r3
 7043 0308 0198     		ldr	r0, [sp, #4]
 7044 030a FFF7FEFF 		bl	cmp_write_map16
 7045 030e 0346     		mov	r3, r0
 7046 0310 14E0     		b	.L574
 7047              	.L572:
 7048              		.loc 1 1034 0
 7049 0312 009B     		ldr	r3, [sp]
 7050 0314 9B68     		ldr	r3, [r3, #8]
 7051 0316 1946     		mov	r1, r3
 7052 0318 0198     		ldr	r0, [sp, #4]
 7053 031a FFF7FEFF 		bl	cmp_write_map32
 7054 031e 0346     		mov	r3, r0
 7055 0320 0CE0     		b	.L574
 7056              	.L573:
 7057              		.loc 1 1036 0
 7058 0322 009B     		ldr	r3, [sp]
 7059 0324 93F90830 		ldrsb	r3, [r3, #8]
 7060 0328 1946     		mov	r1, r3
ARM GAS  C:\Users\PCHAUT~1\AppData\Local\Temp\ccacj52E.s 			page 126


 7061 032a 0198     		ldr	r0, [sp, #4]
 7062 032c FFF7FEFF 		bl	cmp_write_nfix
 7063 0330 0346     		mov	r3, r0
 7064 0332 03E0     		b	.L574
 7065              	.L537:
 7066              		.loc 1 1038 0
 7067 0334 019B     		ldr	r3, [sp, #4]
 7068 0336 0D22     		movs	r2, #13
 7069 0338 1A70     		strb	r2, [r3]
 7070              		.loc 1 1039 0
 7071 033a 0023     		movs	r3, #0
 7072              	.L574:
 7073              		.loc 1 1041 0
 7074 033c 1846     		mov	r0, r3
 7075 033e 044B     		ldr	r3, .L579
 7076 0340 039A     		ldr	r2, [sp, #12]
 7077 0342 1B68     		ldr	r3, [r3]
 7078 0344 9A42     		cmp	r2, r3
 7079 0346 01D0     		beq	.L576
 7080 0348 FFF7FEFF 		bl	__stack_chk_fail
 7081              	.L576:
 7082 034c 04B0     		add	sp, sp, #16
 7083              		.cfi_def_cfa_offset 8
 7084              		@ sp needed
 7085 034e 10BD     		pop	{r4, pc}
 7086              	.L580:
 7087              		.align	2
 7088              	.L579:
 7089 0350 00000000 		.word	__stack_chk_guard
 7090              		.cfi_endproc
 7091              	.LFE79:
 7092              		.size	cmp_write_object, .-cmp_write_object
 7093              		.section	.text.cmp_read_pfix,"ax",%progbits
 7094              		.align	1
 7095              		.p2align 4,,15
 7096              		.global	cmp_read_pfix
 7097              		.syntax unified
 7098              		.thumb
 7099              		.thumb_func
 7100              		.fpu fpv4-sp-d16
 7101              		.type	cmp_read_pfix, %function
 7102              	cmp_read_pfix:
 7103              	.LFB80:
 7104              		.loc 1 1043 0
 7105              		.cfi_startproc
 7106              		@ args = 0, pretend = 0, frame = 32
 7107              		@ frame_needed = 0, uses_anonymous_args = 0
 7108 0000 00B5     		push	{lr}
 7109              		.cfi_def_cfa_offset 4
 7110              		.cfi_offset 14, -4
 7111 0002 89B0     		sub	sp, sp, #36
 7112              		.cfi_def_cfa_offset 40
 7113 0004 0190     		str	r0, [sp, #4]
 7114 0006 0091     		str	r1, [sp]
 7115              		.loc 1 1043 0
 7116 0008 144B     		ldr	r3, .L587
 7117 000a 1B68     		ldr	r3, [r3]
ARM GAS  C:\Users\PCHAUT~1\AppData\Local\Temp\ccacj52E.s 			page 127


 7118 000c 0793     		str	r3, [sp, #28]
 7119              		.loc 1 1046 0
 7120 000e 02AB     		add	r3, sp, #8
 7121 0010 1946     		mov	r1, r3
 7122 0012 0198     		ldr	r0, [sp, #4]
 7123 0014 FFF7FEFF 		bl	cmp_read_object
 7124 0018 0346     		mov	r3, r0
 7125 001a 83F00103 		eor	r3, r3, #1
 7126 001e DBB2     		uxtb	r3, r3
 7127 0020 002B     		cmp	r3, #0
 7128 0022 01D0     		beq	.L582
 7129              		.loc 1 1047 0
 7130 0024 0023     		movs	r3, #0
 7131 0026 0DE0     		b	.L585
 7132              	.L582:
 7133              		.loc 1 1049 0
 7134 0028 9DF80830 		ldrb	r3, [sp, #8]	@ zero_extendqisi2
 7135 002c 002B     		cmp	r3, #0
 7136 002e 04D0     		beq	.L584
 7137              		.loc 1 1050 0
 7138 0030 019B     		ldr	r3, [sp, #4]
 7139 0032 0D22     		movs	r2, #13
 7140 0034 1A70     		strb	r2, [r3]
 7141              		.loc 1 1051 0
 7142 0036 0023     		movs	r3, #0
 7143 0038 04E0     		b	.L585
 7144              	.L584:
 7145              		.loc 1 1054 0
 7146 003a 9DF81020 		ldrb	r2, [sp, #16]	@ zero_extendqisi2
 7147 003e 009B     		ldr	r3, [sp]
 7148 0040 1A70     		strb	r2, [r3]
 7149              		.loc 1 1055 0
 7150 0042 0123     		movs	r3, #1
 7151              	.L585:
 7152              		.loc 1 1056 0 discriminator 1
 7153 0044 1846     		mov	r0, r3
 7154 0046 054B     		ldr	r3, .L587
 7155 0048 079A     		ldr	r2, [sp, #28]
 7156 004a 1B68     		ldr	r3, [r3]
 7157 004c 9A42     		cmp	r2, r3
 7158 004e 01D0     		beq	.L586
 7159              		.loc 1 1056 0 is_stmt 0
 7160 0050 FFF7FEFF 		bl	__stack_chk_fail
 7161              	.L586:
 7162 0054 09B0     		add	sp, sp, #36
 7163              		.cfi_def_cfa_offset 4
 7164              		@ sp needed
 7165 0056 5DF804FB 		ldr	pc, [sp], #4
 7166              	.L588:
 7167 005a 00BF     		.align	2
 7168              	.L587:
 7169 005c 00000000 		.word	__stack_chk_guard
 7170              		.cfi_endproc
 7171              	.LFE80:
 7172              		.size	cmp_read_pfix, .-cmp_read_pfix
 7173              		.section	.text.cmp_read_nfix,"ax",%progbits
 7174              		.align	1
ARM GAS  C:\Users\PCHAUT~1\AppData\Local\Temp\ccacj52E.s 			page 128


 7175              		.p2align 4,,15
 7176              		.global	cmp_read_nfix
 7177              		.syntax unified
 7178              		.thumb
 7179              		.thumb_func
 7180              		.fpu fpv4-sp-d16
 7181              		.type	cmp_read_nfix, %function
 7182              	cmp_read_nfix:
 7183              	.LFB81:
 7184              		.loc 1 1058 0 is_stmt 1
 7185              		.cfi_startproc
 7186              		@ args = 0, pretend = 0, frame = 32
 7187              		@ frame_needed = 0, uses_anonymous_args = 0
 7188 0000 00B5     		push	{lr}
 7189              		.cfi_def_cfa_offset 4
 7190              		.cfi_offset 14, -4
 7191 0002 89B0     		sub	sp, sp, #36
 7192              		.cfi_def_cfa_offset 40
 7193 0004 0190     		str	r0, [sp, #4]
 7194 0006 0091     		str	r1, [sp]
 7195              		.loc 1 1058 0
 7196 0008 144B     		ldr	r3, .L595
 7197 000a 1B68     		ldr	r3, [r3]
 7198 000c 0793     		str	r3, [sp, #28]
 7199              		.loc 1 1061 0
 7200 000e 02AB     		add	r3, sp, #8
 7201 0010 1946     		mov	r1, r3
 7202 0012 0198     		ldr	r0, [sp, #4]
 7203 0014 FFF7FEFF 		bl	cmp_read_object
 7204 0018 0346     		mov	r3, r0
 7205 001a 83F00103 		eor	r3, r3, #1
 7206 001e DBB2     		uxtb	r3, r3
 7207 0020 002B     		cmp	r3, #0
 7208 0022 01D0     		beq	.L590
 7209              		.loc 1 1062 0
 7210 0024 0023     		movs	r3, #0
 7211 0026 0DE0     		b	.L593
 7212              	.L590:
 7213              		.loc 1 1064 0
 7214 0028 9DF80830 		ldrb	r3, [sp, #8]	@ zero_extendqisi2
 7215 002c 222B     		cmp	r3, #34
 7216 002e 04D0     		beq	.L592
 7217              		.loc 1 1065 0
 7218 0030 019B     		ldr	r3, [sp, #4]
 7219 0032 0D22     		movs	r2, #13
 7220 0034 1A70     		strb	r2, [r3]
 7221              		.loc 1 1066 0
 7222 0036 0023     		movs	r3, #0
 7223 0038 04E0     		b	.L593
 7224              	.L592:
 7225              		.loc 1 1069 0
 7226 003a 9DF91020 		ldrsb	r2, [sp, #16]
 7227 003e 009B     		ldr	r3, [sp]
 7228 0040 1A70     		strb	r2, [r3]
 7229              		.loc 1 1070 0
 7230 0042 0123     		movs	r3, #1
 7231              	.L593:
ARM GAS  C:\Users\PCHAUT~1\AppData\Local\Temp\ccacj52E.s 			page 129


 7232              		.loc 1 1071 0 discriminator 1
 7233 0044 1846     		mov	r0, r3
 7234 0046 054B     		ldr	r3, .L595
 7235 0048 079A     		ldr	r2, [sp, #28]
 7236 004a 1B68     		ldr	r3, [r3]
 7237 004c 9A42     		cmp	r2, r3
 7238 004e 01D0     		beq	.L594
 7239              		.loc 1 1071 0 is_stmt 0
 7240 0050 FFF7FEFF 		bl	__stack_chk_fail
 7241              	.L594:
 7242 0054 09B0     		add	sp, sp, #36
 7243              		.cfi_def_cfa_offset 4
 7244              		@ sp needed
 7245 0056 5DF804FB 		ldr	pc, [sp], #4
 7246              	.L596:
 7247 005a 00BF     		.align	2
 7248              	.L595:
 7249 005c 00000000 		.word	__stack_chk_guard
 7250              		.cfi_endproc
 7251              	.LFE81:
 7252              		.size	cmp_read_nfix, .-cmp_read_nfix
 7253              		.section	.text.cmp_read_sfix,"ax",%progbits
 7254              		.align	1
 7255              		.p2align 4,,15
 7256              		.global	cmp_read_sfix
 7257              		.syntax unified
 7258              		.thumb
 7259              		.thumb_func
 7260              		.fpu fpv4-sp-d16
 7261              		.type	cmp_read_sfix, %function
 7262              	cmp_read_sfix:
 7263              	.LFB82:
 7264              		.loc 1 1073 0 is_stmt 1
 7265              		.cfi_startproc
 7266              		@ args = 0, pretend = 0, frame = 32
 7267              		@ frame_needed = 0, uses_anonymous_args = 0
 7268 0000 00B5     		push	{lr}
 7269              		.cfi_def_cfa_offset 4
 7270              		.cfi_offset 14, -4
 7271 0002 89B0     		sub	sp, sp, #36
 7272              		.cfi_def_cfa_offset 40
 7273 0004 0190     		str	r0, [sp, #4]
 7274 0006 0091     		str	r1, [sp]
 7275              		.loc 1 1073 0
 7276 0008 154B     		ldr	r3, .L605
 7277 000a 1B68     		ldr	r3, [r3]
 7278 000c 0793     		str	r3, [sp, #28]
 7279              		.loc 1 1076 0
 7280 000e 02AB     		add	r3, sp, #8
 7281 0010 1946     		mov	r1, r3
 7282 0012 0198     		ldr	r0, [sp, #4]
 7283 0014 FFF7FEFF 		bl	cmp_read_object
 7284 0018 0346     		mov	r3, r0
 7285 001a 83F00103 		eor	r3, r3, #1
 7286 001e DBB2     		uxtb	r3, r3
 7287 0020 002B     		cmp	r3, #0
 7288 0022 01D0     		beq	.L598
ARM GAS  C:\Users\PCHAUT~1\AppData\Local\Temp\ccacj52E.s 			page 130


 7289              		.loc 1 1077 0
 7290 0024 0023     		movs	r3, #0
 7291 0026 0FE0     		b	.L602
 7292              	.L598:
 7293              		.loc 1 1079 0
 7294 0028 9DF80830 		ldrb	r3, [sp, #8]	@ zero_extendqisi2
 7295 002c 002B     		cmp	r3, #0
 7296 002e 01D0     		beq	.L601
 7297 0030 222B     		cmp	r3, #34
 7298 0032 05D1     		bne	.L604
 7299              	.L601:
 7300              		.loc 1 1082 0
 7301 0034 9DF91020 		ldrsb	r2, [sp, #16]
 7302 0038 009B     		ldr	r3, [sp]
 7303 003a 1A70     		strb	r2, [r3]
 7304              		.loc 1 1083 0
 7305 003c 0123     		movs	r3, #1
 7306 003e 03E0     		b	.L602
 7307              	.L604:
 7308              		.loc 1 1085 0
 7309 0040 019B     		ldr	r3, [sp, #4]
 7310 0042 0D22     		movs	r2, #13
 7311 0044 1A70     		strb	r2, [r3]
 7312              		.loc 1 1086 0
 7313 0046 0023     		movs	r3, #0
 7314              	.L602:
 7315              		.loc 1 1088 0 discriminator 1
 7316 0048 1846     		mov	r0, r3
 7317 004a 054B     		ldr	r3, .L605
 7318 004c 079A     		ldr	r2, [sp, #28]
 7319 004e 1B68     		ldr	r3, [r3]
 7320 0050 9A42     		cmp	r2, r3
 7321 0052 01D0     		beq	.L603
 7322              		.loc 1 1088 0 is_stmt 0
 7323 0054 FFF7FEFF 		bl	__stack_chk_fail
 7324              	.L603:
 7325 0058 09B0     		add	sp, sp, #36
 7326              		.cfi_def_cfa_offset 4
 7327              		@ sp needed
 7328 005a 5DF804FB 		ldr	pc, [sp], #4
 7329              	.L606:
 7330 005e 00BF     		.align	2
 7331              	.L605:
 7332 0060 00000000 		.word	__stack_chk_guard
 7333              		.cfi_endproc
 7334              	.LFE82:
 7335              		.size	cmp_read_sfix, .-cmp_read_sfix
 7336              		.section	.text.cmp_read_s8,"ax",%progbits
 7337              		.align	1
 7338              		.p2align 4,,15
 7339              		.global	cmp_read_s8
 7340              		.syntax unified
 7341              		.thumb
 7342              		.thumb_func
 7343              		.fpu fpv4-sp-d16
 7344              		.type	cmp_read_s8, %function
 7345              	cmp_read_s8:
ARM GAS  C:\Users\PCHAUT~1\AppData\Local\Temp\ccacj52E.s 			page 131


 7346              	.LFB83:
 7347              		.loc 1 1090 0 is_stmt 1
 7348              		.cfi_startproc
 7349              		@ args = 0, pretend = 0, frame = 32
 7350              		@ frame_needed = 0, uses_anonymous_args = 0
 7351 0000 00B5     		push	{lr}
 7352              		.cfi_def_cfa_offset 4
 7353              		.cfi_offset 14, -4
 7354 0002 89B0     		sub	sp, sp, #36
 7355              		.cfi_def_cfa_offset 40
 7356 0004 0190     		str	r0, [sp, #4]
 7357 0006 0091     		str	r1, [sp]
 7358              		.loc 1 1090 0
 7359 0008 144B     		ldr	r3, .L613
 7360 000a 1B68     		ldr	r3, [r3]
 7361 000c 0793     		str	r3, [sp, #28]
 7362              		.loc 1 1093 0
 7363 000e 02AB     		add	r3, sp, #8
 7364 0010 1946     		mov	r1, r3
 7365 0012 0198     		ldr	r0, [sp, #4]
 7366 0014 FFF7FEFF 		bl	cmp_read_object
 7367 0018 0346     		mov	r3, r0
 7368 001a 83F00103 		eor	r3, r3, #1
 7369 001e DBB2     		uxtb	r3, r3
 7370 0020 002B     		cmp	r3, #0
 7371 0022 01D0     		beq	.L608
 7372              		.loc 1 1094 0
 7373 0024 0023     		movs	r3, #0
 7374 0026 0DE0     		b	.L611
 7375              	.L608:
 7376              		.loc 1 1096 0
 7377 0028 9DF80830 		ldrb	r3, [sp, #8]	@ zero_extendqisi2
 7378 002c 122B     		cmp	r3, #18
 7379 002e 04D0     		beq	.L610
 7380              		.loc 1 1097 0
 7381 0030 019B     		ldr	r3, [sp, #4]
 7382 0032 0D22     		movs	r2, #13
 7383 0034 1A70     		strb	r2, [r3]
 7384              		.loc 1 1098 0
 7385 0036 0023     		movs	r3, #0
 7386 0038 04E0     		b	.L611
 7387              	.L610:
 7388              		.loc 1 1101 0
 7389 003a 9DF91020 		ldrsb	r2, [sp, #16]
 7390 003e 009B     		ldr	r3, [sp]
 7391 0040 1A70     		strb	r2, [r3]
 7392              		.loc 1 1102 0
 7393 0042 0123     		movs	r3, #1
 7394              	.L611:
 7395              		.loc 1 1103 0 discriminator 1
 7396 0044 1846     		mov	r0, r3
 7397 0046 054B     		ldr	r3, .L613
 7398 0048 079A     		ldr	r2, [sp, #28]
 7399 004a 1B68     		ldr	r3, [r3]
 7400 004c 9A42     		cmp	r2, r3
 7401 004e 01D0     		beq	.L612
 7402              		.loc 1 1103 0 is_stmt 0
ARM GAS  C:\Users\PCHAUT~1\AppData\Local\Temp\ccacj52E.s 			page 132


 7403 0050 FFF7FEFF 		bl	__stack_chk_fail
 7404              	.L612:
 7405 0054 09B0     		add	sp, sp, #36
 7406              		.cfi_def_cfa_offset 4
 7407              		@ sp needed
 7408 0056 5DF804FB 		ldr	pc, [sp], #4
 7409              	.L614:
 7410 005a 00BF     		.align	2
 7411              	.L613:
 7412 005c 00000000 		.word	__stack_chk_guard
 7413              		.cfi_endproc
 7414              	.LFE83:
 7415              		.size	cmp_read_s8, .-cmp_read_s8
 7416              		.section	.text.cmp_read_s16,"ax",%progbits
 7417              		.align	1
 7418              		.p2align 4,,15
 7419              		.global	cmp_read_s16
 7420              		.syntax unified
 7421              		.thumb
 7422              		.thumb_func
 7423              		.fpu fpv4-sp-d16
 7424              		.type	cmp_read_s16, %function
 7425              	cmp_read_s16:
 7426              	.LFB84:
 7427              		.loc 1 1105 0 is_stmt 1
 7428              		.cfi_startproc
 7429              		@ args = 0, pretend = 0, frame = 32
 7430              		@ frame_needed = 0, uses_anonymous_args = 0
 7431 0000 00B5     		push	{lr}
 7432              		.cfi_def_cfa_offset 4
 7433              		.cfi_offset 14, -4
 7434 0002 89B0     		sub	sp, sp, #36
 7435              		.cfi_def_cfa_offset 40
 7436 0004 0190     		str	r0, [sp, #4]
 7437 0006 0091     		str	r1, [sp]
 7438              		.loc 1 1105 0
 7439 0008 144B     		ldr	r3, .L621
 7440 000a 1B68     		ldr	r3, [r3]
 7441 000c 0793     		str	r3, [sp, #28]
 7442              		.loc 1 1108 0
 7443 000e 02AB     		add	r3, sp, #8
 7444 0010 1946     		mov	r1, r3
 7445 0012 0198     		ldr	r0, [sp, #4]
 7446 0014 FFF7FEFF 		bl	cmp_read_object
 7447 0018 0346     		mov	r3, r0
 7448 001a 83F00103 		eor	r3, r3, #1
 7449 001e DBB2     		uxtb	r3, r3
 7450 0020 002B     		cmp	r3, #0
 7451 0022 01D0     		beq	.L616
 7452              		.loc 1 1109 0
 7453 0024 0023     		movs	r3, #0
 7454 0026 0DE0     		b	.L619
 7455              	.L616:
 7456              		.loc 1 1111 0
 7457 0028 9DF80830 		ldrb	r3, [sp, #8]	@ zero_extendqisi2
 7458 002c 132B     		cmp	r3, #19
 7459 002e 04D0     		beq	.L618
ARM GAS  C:\Users\PCHAUT~1\AppData\Local\Temp\ccacj52E.s 			page 133


 7460              		.loc 1 1112 0
 7461 0030 019B     		ldr	r3, [sp, #4]
 7462 0032 0D22     		movs	r2, #13
 7463 0034 1A70     		strb	r2, [r3]
 7464              		.loc 1 1113 0
 7465 0036 0023     		movs	r3, #0
 7466 0038 04E0     		b	.L619
 7467              	.L618:
 7468              		.loc 1 1116 0
 7469 003a BDF91020 		ldrsh	r2, [sp, #16]
 7470 003e 009B     		ldr	r3, [sp]
 7471 0040 1A80     		strh	r2, [r3]	@ movhi
 7472              		.loc 1 1117 0
 7473 0042 0123     		movs	r3, #1
 7474              	.L619:
 7475              		.loc 1 1118 0 discriminator 1
 7476 0044 1846     		mov	r0, r3
 7477 0046 054B     		ldr	r3, .L621
 7478 0048 079A     		ldr	r2, [sp, #28]
 7479 004a 1B68     		ldr	r3, [r3]
 7480 004c 9A42     		cmp	r2, r3
 7481 004e 01D0     		beq	.L620
 7482              		.loc 1 1118 0 is_stmt 0
 7483 0050 FFF7FEFF 		bl	__stack_chk_fail
 7484              	.L620:
 7485 0054 09B0     		add	sp, sp, #36
 7486              		.cfi_def_cfa_offset 4
 7487              		@ sp needed
 7488 0056 5DF804FB 		ldr	pc, [sp], #4
 7489              	.L622:
 7490 005a 00BF     		.align	2
 7491              	.L621:
 7492 005c 00000000 		.word	__stack_chk_guard
 7493              		.cfi_endproc
 7494              	.LFE84:
 7495              		.size	cmp_read_s16, .-cmp_read_s16
 7496              		.section	.text.cmp_read_s32,"ax",%progbits
 7497              		.align	1
 7498              		.p2align 4,,15
 7499              		.global	cmp_read_s32
 7500              		.syntax unified
 7501              		.thumb
 7502              		.thumb_func
 7503              		.fpu fpv4-sp-d16
 7504              		.type	cmp_read_s32, %function
 7505              	cmp_read_s32:
 7506              	.LFB85:
 7507              		.loc 1 1120 0 is_stmt 1
 7508              		.cfi_startproc
 7509              		@ args = 0, pretend = 0, frame = 32
 7510              		@ frame_needed = 0, uses_anonymous_args = 0
 7511 0000 00B5     		push	{lr}
 7512              		.cfi_def_cfa_offset 4
 7513              		.cfi_offset 14, -4
 7514 0002 89B0     		sub	sp, sp, #36
 7515              		.cfi_def_cfa_offset 40
 7516 0004 0190     		str	r0, [sp, #4]
ARM GAS  C:\Users\PCHAUT~1\AppData\Local\Temp\ccacj52E.s 			page 134


 7517 0006 0091     		str	r1, [sp]
 7518              		.loc 1 1120 0
 7519 0008 134B     		ldr	r3, .L629
 7520 000a 1B68     		ldr	r3, [r3]
 7521 000c 0793     		str	r3, [sp, #28]
 7522              		.loc 1 1123 0
 7523 000e 02AB     		add	r3, sp, #8
 7524 0010 1946     		mov	r1, r3
 7525 0012 0198     		ldr	r0, [sp, #4]
 7526 0014 FFF7FEFF 		bl	cmp_read_object
 7527 0018 0346     		mov	r3, r0
 7528 001a 83F00103 		eor	r3, r3, #1
 7529 001e DBB2     		uxtb	r3, r3
 7530 0020 002B     		cmp	r3, #0
 7531 0022 01D0     		beq	.L624
 7532              		.loc 1 1124 0
 7533 0024 0023     		movs	r3, #0
 7534 0026 0CE0     		b	.L627
 7535              	.L624:
 7536              		.loc 1 1126 0
 7537 0028 9DF80830 		ldrb	r3, [sp, #8]	@ zero_extendqisi2
 7538 002c 142B     		cmp	r3, #20
 7539 002e 04D0     		beq	.L626
 7540              		.loc 1 1127 0
 7541 0030 019B     		ldr	r3, [sp, #4]
 7542 0032 0D22     		movs	r2, #13
 7543 0034 1A70     		strb	r2, [r3]
 7544              		.loc 1 1128 0
 7545 0036 0023     		movs	r3, #0
 7546 0038 03E0     		b	.L627
 7547              	.L626:
 7548              		.loc 1 1131 0
 7549 003a 049A     		ldr	r2, [sp, #16]
 7550 003c 009B     		ldr	r3, [sp]
 7551 003e 1A60     		str	r2, [r3]
 7552              		.loc 1 1132 0
 7553 0040 0123     		movs	r3, #1
 7554              	.L627:
 7555              		.loc 1 1133 0 discriminator 1
 7556 0042 1846     		mov	r0, r3
 7557 0044 044B     		ldr	r3, .L629
 7558 0046 079A     		ldr	r2, [sp, #28]
 7559 0048 1B68     		ldr	r3, [r3]
 7560 004a 9A42     		cmp	r2, r3
 7561 004c 01D0     		beq	.L628
 7562              		.loc 1 1133 0 is_stmt 0
 7563 004e FFF7FEFF 		bl	__stack_chk_fail
 7564              	.L628:
 7565 0052 09B0     		add	sp, sp, #36
 7566              		.cfi_def_cfa_offset 4
 7567              		@ sp needed
 7568 0054 5DF804FB 		ldr	pc, [sp], #4
 7569              	.L630:
 7570              		.align	2
 7571              	.L629:
 7572 0058 00000000 		.word	__stack_chk_guard
 7573              		.cfi_endproc
ARM GAS  C:\Users\PCHAUT~1\AppData\Local\Temp\ccacj52E.s 			page 135


 7574              	.LFE85:
 7575              		.size	cmp_read_s32, .-cmp_read_s32
 7576              		.section	.text.cmp_read_s64,"ax",%progbits
 7577              		.align	1
 7578              		.p2align 4,,15
 7579              		.global	cmp_read_s64
 7580              		.syntax unified
 7581              		.thumb
 7582              		.thumb_func
 7583              		.fpu fpv4-sp-d16
 7584              		.type	cmp_read_s64, %function
 7585              	cmp_read_s64:
 7586              	.LFB86:
 7587              		.loc 1 1135 0 is_stmt 1
 7588              		.cfi_startproc
 7589              		@ args = 0, pretend = 0, frame = 32
 7590              		@ frame_needed = 0, uses_anonymous_args = 0
 7591 0000 10B5     		push	{r4, lr}
 7592              		.cfi_def_cfa_offset 8
 7593              		.cfi_offset 4, -8
 7594              		.cfi_offset 14, -4
 7595 0002 88B0     		sub	sp, sp, #32
 7596              		.cfi_def_cfa_offset 40
 7597 0004 0190     		str	r0, [sp, #4]
 7598 0006 0091     		str	r1, [sp]
 7599              		.loc 1 1135 0
 7600 0008 144B     		ldr	r3, .L637
 7601 000a 1B68     		ldr	r3, [r3]
 7602 000c 0793     		str	r3, [sp, #28]
 7603              		.loc 1 1138 0
 7604 000e 02AB     		add	r3, sp, #8
 7605 0010 1946     		mov	r1, r3
 7606 0012 0198     		ldr	r0, [sp, #4]
 7607 0014 FFF7FEFF 		bl	cmp_read_object
 7608 0018 0346     		mov	r3, r0
 7609 001a 83F00103 		eor	r3, r3, #1
 7610 001e DBB2     		uxtb	r3, r3
 7611 0020 002B     		cmp	r3, #0
 7612 0022 01D0     		beq	.L632
 7613              		.loc 1 1139 0
 7614 0024 0023     		movs	r3, #0
 7615 0026 0EE0     		b	.L635
 7616              	.L632:
 7617              		.loc 1 1141 0
 7618 0028 9DF80830 		ldrb	r3, [sp, #8]	@ zero_extendqisi2
 7619 002c 152B     		cmp	r3, #21
 7620 002e 04D0     		beq	.L634
 7621              		.loc 1 1142 0
 7622 0030 019B     		ldr	r3, [sp, #4]
 7623 0032 0D22     		movs	r2, #13
 7624 0034 1A70     		strb	r2, [r3]
 7625              		.loc 1 1143 0
 7626 0036 0023     		movs	r3, #0
 7627 0038 05E0     		b	.L635
 7628              	.L634:
 7629              		.loc 1 1146 0
 7630 003a DDE90434 		ldrd	r3, [sp, #16]
ARM GAS  C:\Users\PCHAUT~1\AppData\Local\Temp\ccacj52E.s 			page 136


 7631 003e 009A     		ldr	r2, [sp]
 7632 0040 C2E90034 		strd	r3, [r2]
 7633              		.loc 1 1147 0
 7634 0044 0123     		movs	r3, #1
 7635              	.L635:
 7636              		.loc 1 1148 0 discriminator 1
 7637 0046 1846     		mov	r0, r3
 7638 0048 044B     		ldr	r3, .L637
 7639 004a 079A     		ldr	r2, [sp, #28]
 7640 004c 1B68     		ldr	r3, [r3]
 7641 004e 9A42     		cmp	r2, r3
 7642 0050 01D0     		beq	.L636
 7643              		.loc 1 1148 0 is_stmt 0
 7644 0052 FFF7FEFF 		bl	__stack_chk_fail
 7645              	.L636:
 7646 0056 08B0     		add	sp, sp, #32
 7647              		.cfi_def_cfa_offset 8
 7648              		@ sp needed
 7649 0058 10BD     		pop	{r4, pc}
 7650              	.L638:
 7651 005a 00BF     		.align	2
 7652              	.L637:
 7653 005c 00000000 		.word	__stack_chk_guard
 7654              		.cfi_endproc
 7655              	.LFE86:
 7656              		.size	cmp_read_s64, .-cmp_read_s64
 7657              		.section	.text.cmp_read_char,"ax",%progbits
 7658              		.align	1
 7659              		.p2align 4,,15
 7660              		.global	cmp_read_char
 7661              		.syntax unified
 7662              		.thumb
 7663              		.thumb_func
 7664              		.fpu fpv4-sp-d16
 7665              		.type	cmp_read_char, %function
 7666              	cmp_read_char:
 7667              	.LFB87:
 7668              		.loc 1 1150 0 is_stmt 1
 7669              		.cfi_startproc
 7670              		@ args = 0, pretend = 0, frame = 32
 7671              		@ frame_needed = 0, uses_anonymous_args = 0
 7672 0000 00B5     		push	{lr}
 7673              		.cfi_def_cfa_offset 4
 7674              		.cfi_offset 14, -4
 7675 0002 89B0     		sub	sp, sp, #36
 7676              		.cfi_def_cfa_offset 40
 7677 0004 0190     		str	r0, [sp, #4]
 7678 0006 0091     		str	r1, [sp]
 7679              		.loc 1 1150 0
 7680 0008 3F4B     		ldr	r3, .L648
 7681 000a 1B68     		ldr	r3, [r3]
 7682 000c 0793     		str	r3, [sp, #28]
 7683              		.loc 1 1153 0
 7684 000e 02AB     		add	r3, sp, #8
 7685 0010 1946     		mov	r1, r3
 7686 0012 0198     		ldr	r0, [sp, #4]
 7687 0014 FFF7FEFF 		bl	cmp_read_object
ARM GAS  C:\Users\PCHAUT~1\AppData\Local\Temp\ccacj52E.s 			page 137


 7688 0018 0346     		mov	r3, r0
 7689 001a 83F00103 		eor	r3, r3, #1
 7690 001e DBB2     		uxtb	r3, r3
 7691 0020 002B     		cmp	r3, #0
 7692 0022 01D0     		beq	.L640
 7693              		.loc 1 1154 0
 7694 0024 0023     		movs	r3, #0
 7695 0026 63E0     		b	.L646
 7696              	.L640:
 7697              		.loc 1 1156 0
 7698 0028 9DF80830 		ldrb	r3, [sp, #8]	@ zero_extendqisi2
 7699 002c 222B     		cmp	r3, #34
 7700 002e 5BD8     		bhi	.L642
 7701 0030 01A2     		adr	r2, .L644
 7702 0032 52F823F0 		ldr	pc, [r2, r3, lsl #2]
 7703 0036 00BF     		.p2align 2
 7704              	.L644:
 7705 0038 C5000000 		.word	.L643+1
 7706 003c E9000000 		.word	.L642+1
 7707 0040 E9000000 		.word	.L642+1
 7708 0044 E9000000 		.word	.L642+1
 7709 0048 E9000000 		.word	.L642+1
 7710 004c E9000000 		.word	.L642+1
 7711 0050 E9000000 		.word	.L642+1
 7712 0054 E9000000 		.word	.L642+1
 7713 0058 E9000000 		.word	.L642+1
 7714 005c E9000000 		.word	.L642+1
 7715 0060 E9000000 		.word	.L642+1
 7716 0064 E9000000 		.word	.L642+1
 7717 0068 E9000000 		.word	.L642+1
 7718 006c E9000000 		.word	.L642+1
 7719 0070 D1000000 		.word	.L645+1
 7720 0074 E9000000 		.word	.L642+1
 7721 0078 E9000000 		.word	.L642+1
 7722 007c E9000000 		.word	.L642+1
 7723 0080 C5000000 		.word	.L643+1
 7724 0084 E9000000 		.word	.L642+1
 7725 0088 E9000000 		.word	.L642+1
 7726 008c E9000000 		.word	.L642+1
 7727 0090 E9000000 		.word	.L642+1
 7728 0094 E9000000 		.word	.L642+1
 7729 0098 E9000000 		.word	.L642+1
 7730 009c E9000000 		.word	.L642+1
 7731 00a0 E9000000 		.word	.L642+1
 7732 00a4 E9000000 		.word	.L642+1
 7733 00a8 E9000000 		.word	.L642+1
 7734 00ac E9000000 		.word	.L642+1
 7735 00b0 E9000000 		.word	.L642+1
 7736 00b4 E9000000 		.word	.L642+1
 7737 00b8 E9000000 		.word	.L642+1
 7738 00bc E9000000 		.word	.L642+1
 7739 00c0 C5000000 		.word	.L643+1
 7740              		.p2align 1
 7741              	.L643:
 7742              		.loc 1 1160 0
 7743 00c4 9DF91020 		ldrsb	r2, [sp, #16]
 7744 00c8 009B     		ldr	r3, [sp]
ARM GAS  C:\Users\PCHAUT~1\AppData\Local\Temp\ccacj52E.s 			page 138


 7745 00ca 1A70     		strb	r2, [r3]
 7746              		.loc 1 1161 0
 7747 00cc 0123     		movs	r3, #1
 7748 00ce 0FE0     		b	.L646
 7749              	.L645:
 7750              		.loc 1 1163 0
 7751 00d0 9DF81030 		ldrb	r3, [sp, #16]	@ zero_extendqisi2
 7752 00d4 5BB2     		sxtb	r3, r3
 7753 00d6 002B     		cmp	r3, #0
 7754 00d8 06DB     		blt	.L642
 7755              		.loc 1 1164 0
 7756 00da 9DF81030 		ldrb	r3, [sp, #16]	@ zero_extendqisi2
 7757 00de 5AB2     		sxtb	r2, r3
 7758 00e0 009B     		ldr	r3, [sp]
 7759 00e2 1A70     		strb	r2, [r3]
 7760              		.loc 1 1165 0
 7761 00e4 0123     		movs	r3, #1
 7762 00e6 03E0     		b	.L646
 7763              	.L642:
 7764              		.loc 1 1168 0
 7765 00e8 019B     		ldr	r3, [sp, #4]
 7766 00ea 0D22     		movs	r2, #13
 7767 00ec 1A70     		strb	r2, [r3]
 7768              		.loc 1 1169 0
 7769 00ee 0023     		movs	r3, #0
 7770              	.L646:
 7771              		.loc 1 1171 0 discriminator 1
 7772 00f0 1846     		mov	r0, r3
 7773 00f2 054B     		ldr	r3, .L648
 7774 00f4 079A     		ldr	r2, [sp, #28]
 7775 00f6 1B68     		ldr	r3, [r3]
 7776 00f8 9A42     		cmp	r2, r3
 7777 00fa 01D0     		beq	.L647
 7778              		.loc 1 1171 0 is_stmt 0
 7779 00fc FFF7FEFF 		bl	__stack_chk_fail
 7780              	.L647:
 7781 0100 09B0     		add	sp, sp, #36
 7782              		.cfi_def_cfa_offset 4
 7783              		@ sp needed
 7784 0102 5DF804FB 		ldr	pc, [sp], #4
 7785              	.L649:
 7786 0106 00BF     		.align	2
 7787              	.L648:
 7788 0108 00000000 		.word	__stack_chk_guard
 7789              		.cfi_endproc
 7790              	.LFE87:
 7791              		.size	cmp_read_char, .-cmp_read_char
 7792              		.section	.text.cmp_read_short,"ax",%progbits
 7793              		.align	1
 7794              		.p2align 4,,15
 7795              		.global	cmp_read_short
 7796              		.syntax unified
 7797              		.thumb
 7798              		.thumb_func
 7799              		.fpu fpv4-sp-d16
 7800              		.type	cmp_read_short, %function
 7801              	cmp_read_short:
ARM GAS  C:\Users\PCHAUT~1\AppData\Local\Temp\ccacj52E.s 			page 139


 7802              	.LFB88:
 7803              		.loc 1 1173 0 is_stmt 1
 7804              		.cfi_startproc
 7805              		@ args = 0, pretend = 0, frame = 32
 7806              		@ frame_needed = 0, uses_anonymous_args = 0
 7807 0000 00B5     		push	{lr}
 7808              		.cfi_def_cfa_offset 4
 7809              		.cfi_offset 14, -4
 7810 0002 89B0     		sub	sp, sp, #36
 7811              		.cfi_def_cfa_offset 40
 7812 0004 0190     		str	r0, [sp, #4]
 7813 0006 0091     		str	r1, [sp]
 7814              		.loc 1 1173 0
 7815 0008 464B     		ldr	r3, .L661
 7816 000a 1B68     		ldr	r3, [r3]
 7817 000c 0793     		str	r3, [sp, #28]
 7818              		.loc 1 1176 0
 7819 000e 02AB     		add	r3, sp, #8
 7820 0010 1946     		mov	r1, r3
 7821 0012 0198     		ldr	r0, [sp, #4]
 7822 0014 FFF7FEFF 		bl	cmp_read_object
 7823 0018 0346     		mov	r3, r0
 7824 001a 83F00103 		eor	r3, r3, #1
 7825 001e DBB2     		uxtb	r3, r3
 7826 0020 002B     		cmp	r3, #0
 7827 0022 01D0     		beq	.L651
 7828              		.loc 1 1177 0
 7829 0024 0023     		movs	r3, #0
 7830 0026 71E0     		b	.L659
 7831              	.L651:
 7832              		.loc 1 1179 0
 7833 0028 9DF80830 		ldrb	r3, [sp, #8]	@ zero_extendqisi2
 7834 002c 222B     		cmp	r3, #34
 7835 002e 69D8     		bhi	.L653
 7836 0030 01A2     		adr	r2, .L655
 7837 0032 52F823F0 		ldr	pc, [r2, r3, lsl #2]
 7838 0036 00BF     		.p2align 2
 7839              	.L655:
 7840 0038 C5000000 		.word	.L654+1
 7841 003c 05010000 		.word	.L653+1
 7842 0040 05010000 		.word	.L653+1
 7843 0044 05010000 		.word	.L653+1
 7844 0048 05010000 		.word	.L653+1
 7845 004c 05010000 		.word	.L653+1
 7846 0050 05010000 		.word	.L653+1
 7847 0054 05010000 		.word	.L653+1
 7848 0058 05010000 		.word	.L653+1
 7849 005c 05010000 		.word	.L653+1
 7850 0060 05010000 		.word	.L653+1
 7851 0064 05010000 		.word	.L653+1
 7852 0068 05010000 		.word	.L653+1
 7853 006c 05010000 		.word	.L653+1
 7854 0070 D3000000 		.word	.L656+1
 7855 0074 ED000000 		.word	.L657+1
 7856 0078 05010000 		.word	.L653+1
 7857 007c 05010000 		.word	.L653+1
 7858 0080 C5000000 		.word	.L654+1
ARM GAS  C:\Users\PCHAUT~1\AppData\Local\Temp\ccacj52E.s 			page 140


 7859 0084 E1000000 		.word	.L658+1
 7860 0088 05010000 		.word	.L653+1
 7861 008c 05010000 		.word	.L653+1
 7862 0090 05010000 		.word	.L653+1
 7863 0094 05010000 		.word	.L653+1
 7864 0098 05010000 		.word	.L653+1
 7865 009c 05010000 		.word	.L653+1
 7866 00a0 05010000 		.word	.L653+1
 7867 00a4 05010000 		.word	.L653+1
 7868 00a8 05010000 		.word	.L653+1
 7869 00ac 05010000 		.word	.L653+1
 7870 00b0 05010000 		.word	.L653+1
 7871 00b4 05010000 		.word	.L653+1
 7872 00b8 05010000 		.word	.L653+1
 7873 00bc 05010000 		.word	.L653+1
 7874 00c0 C5000000 		.word	.L654+1
 7875              		.p2align 1
 7876              	.L654:
 7877              		.loc 1 1183 0
 7878 00c4 9DF91030 		ldrsb	r3, [sp, #16]
 7879 00c8 1AB2     		sxth	r2, r3
 7880 00ca 009B     		ldr	r3, [sp]
 7881 00cc 1A80     		strh	r2, [r3]	@ movhi
 7882              		.loc 1 1184 0
 7883 00ce 0123     		movs	r3, #1
 7884 00d0 1CE0     		b	.L659
 7885              	.L656:
 7886              		.loc 1 1186 0
 7887 00d2 9DF81030 		ldrb	r3, [sp, #16]	@ zero_extendqisi2
 7888 00d6 1AB2     		sxth	r2, r3
 7889 00d8 009B     		ldr	r3, [sp]
 7890 00da 1A80     		strh	r2, [r3]	@ movhi
 7891              		.loc 1 1187 0
 7892 00dc 0123     		movs	r3, #1
 7893 00de 15E0     		b	.L659
 7894              	.L658:
 7895              		.loc 1 1189 0
 7896 00e0 BDF91020 		ldrsh	r2, [sp, #16]
 7897 00e4 009B     		ldr	r3, [sp]
 7898 00e6 1A80     		strh	r2, [r3]	@ movhi
 7899              		.loc 1 1190 0
 7900 00e8 0123     		movs	r3, #1
 7901 00ea 0FE0     		b	.L659
 7902              	.L657:
 7903              		.loc 1 1192 0
 7904 00ec BDF81030 		ldrh	r3, [sp, #16]
 7905 00f0 1BB2     		sxth	r3, r3
 7906 00f2 002B     		cmp	r3, #0
 7907 00f4 06DB     		blt	.L653
 7908              		.loc 1 1193 0
 7909 00f6 BDF81030 		ldrh	r3, [sp, #16]
 7910 00fa 1AB2     		sxth	r2, r3
 7911 00fc 009B     		ldr	r3, [sp]
 7912 00fe 1A80     		strh	r2, [r3]	@ movhi
 7913              		.loc 1 1194 0
 7914 0100 0123     		movs	r3, #1
 7915 0102 03E0     		b	.L659
ARM GAS  C:\Users\PCHAUT~1\AppData\Local\Temp\ccacj52E.s 			page 141


 7916              	.L653:
 7917              		.loc 1 1197 0
 7918 0104 019B     		ldr	r3, [sp, #4]
 7919 0106 0D22     		movs	r2, #13
 7920 0108 1A70     		strb	r2, [r3]
 7921              		.loc 1 1198 0
 7922 010a 0023     		movs	r3, #0
 7923              	.L659:
 7924              		.loc 1 1200 0 discriminator 1
 7925 010c 1846     		mov	r0, r3
 7926 010e 054B     		ldr	r3, .L661
 7927 0110 079A     		ldr	r2, [sp, #28]
 7928 0112 1B68     		ldr	r3, [r3]
 7929 0114 9A42     		cmp	r2, r3
 7930 0116 01D0     		beq	.L660
 7931              		.loc 1 1200 0 is_stmt 0
 7932 0118 FFF7FEFF 		bl	__stack_chk_fail
 7933              	.L660:
 7934 011c 09B0     		add	sp, sp, #36
 7935              		.cfi_def_cfa_offset 4
 7936              		@ sp needed
 7937 011e 5DF804FB 		ldr	pc, [sp], #4
 7938              	.L662:
 7939 0122 00BF     		.align	2
 7940              	.L661:
 7941 0124 00000000 		.word	__stack_chk_guard
 7942              		.cfi_endproc
 7943              	.LFE88:
 7944              		.size	cmp_read_short, .-cmp_read_short
 7945              		.section	.text.cmp_read_int,"ax",%progbits
 7946              		.align	1
 7947              		.p2align 4,,15
 7948              		.global	cmp_read_int
 7949              		.syntax unified
 7950              		.thumb
 7951              		.thumb_func
 7952              		.fpu fpv4-sp-d16
 7953              		.type	cmp_read_int, %function
 7954              	cmp_read_int:
 7955              	.LFB89:
 7956              		.loc 1 1202 0 is_stmt 1
 7957              		.cfi_startproc
 7958              		@ args = 0, pretend = 0, frame = 32
 7959              		@ frame_needed = 0, uses_anonymous_args = 0
 7960 0000 00B5     		push	{lr}
 7961              		.cfi_def_cfa_offset 4
 7962              		.cfi_offset 14, -4
 7963 0002 89B0     		sub	sp, sp, #36
 7964              		.cfi_def_cfa_offset 40
 7965 0004 0190     		str	r0, [sp, #4]
 7966 0006 0091     		str	r1, [sp]
 7967              		.loc 1 1202 0
 7968 0008 4B4B     		ldr	r3, .L676
 7969 000a 1B68     		ldr	r3, [r3]
 7970 000c 0793     		str	r3, [sp, #28]
 7971              		.loc 1 1205 0
 7972 000e 02AB     		add	r3, sp, #8
ARM GAS  C:\Users\PCHAUT~1\AppData\Local\Temp\ccacj52E.s 			page 142


 7973 0010 1946     		mov	r1, r3
 7974 0012 0198     		ldr	r0, [sp, #4]
 7975 0014 FFF7FEFF 		bl	cmp_read_object
 7976 0018 0346     		mov	r3, r0
 7977 001a 83F00103 		eor	r3, r3, #1
 7978 001e DBB2     		uxtb	r3, r3
 7979 0020 002B     		cmp	r3, #0
 7980 0022 01D0     		beq	.L664
 7981              		.loc 1 1206 0
 7982 0024 0023     		movs	r3, #0
 7983 0026 7BE0     		b	.L674
 7984              	.L664:
 7985              		.loc 1 1208 0
 7986 0028 9DF80830 		ldrb	r3, [sp, #8]	@ zero_extendqisi2
 7987 002c 222B     		cmp	r3, #34
 7988 002e 73D8     		bhi	.L666
 7989 0030 01A2     		adr	r2, .L668
 7990 0032 52F823F0 		ldr	pc, [r2, r3, lsl #2]
 7991 0036 00BF     		.p2align 2
 7992              	.L668:
 7993 0038 C5000000 		.word	.L667+1
 7994 003c 19010000 		.word	.L666+1
 7995 0040 19010000 		.word	.L666+1
 7996 0044 19010000 		.word	.L666+1
 7997 0048 19010000 		.word	.L666+1
 7998 004c 19010000 		.word	.L666+1
 7999 0050 19010000 		.word	.L666+1
 8000 0054 19010000 		.word	.L666+1
 8001 0058 19010000 		.word	.L666+1
 8002 005c 19010000 		.word	.L666+1
 8003 0060 19010000 		.word	.L666+1
 8004 0064 19010000 		.word	.L666+1
 8005 0068 19010000 		.word	.L666+1
 8006 006c 19010000 		.word	.L666+1
 8007 0070 D3000000 		.word	.L669+1
 8008 0074 EF000000 		.word	.L670+1
 8009 0078 07010000 		.word	.L671+1
 8010 007c 19010000 		.word	.L666+1
 8011 0080 C5000000 		.word	.L667+1
 8012 0084 E1000000 		.word	.L672+1
 8013 0088 FD000000 		.word	.L673+1
 8014 008c 19010000 		.word	.L666+1
 8015 0090 19010000 		.word	.L666+1
 8016 0094 19010000 		.word	.L666+1
 8017 0098 19010000 		.word	.L666+1
 8018 009c 19010000 		.word	.L666+1
 8019 00a0 19010000 		.word	.L666+1
 8020 00a4 19010000 		.word	.L666+1
 8021 00a8 19010000 		.word	.L666+1
 8022 00ac 19010000 		.word	.L666+1
 8023 00b0 19010000 		.word	.L666+1
 8024 00b4 19010000 		.word	.L666+1
 8025 00b8 19010000 		.word	.L666+1
 8026 00bc 19010000 		.word	.L666+1
 8027 00c0 C5000000 		.word	.L667+1
 8028              		.p2align 1
 8029              	.L667:
ARM GAS  C:\Users\PCHAUT~1\AppData\Local\Temp\ccacj52E.s 			page 143


 8030              		.loc 1 1212 0
 8031 00c4 9DF91030 		ldrsb	r3, [sp, #16]
 8032 00c8 1A46     		mov	r2, r3
 8033 00ca 009B     		ldr	r3, [sp]
 8034 00cc 1A60     		str	r2, [r3]
 8035              		.loc 1 1213 0
 8036 00ce 0123     		movs	r3, #1
 8037 00d0 26E0     		b	.L674
 8038              	.L669:
 8039              		.loc 1 1215 0
 8040 00d2 9DF81030 		ldrb	r3, [sp, #16]	@ zero_extendqisi2
 8041 00d6 1A46     		mov	r2, r3
 8042 00d8 009B     		ldr	r3, [sp]
 8043 00da 1A60     		str	r2, [r3]
 8044              		.loc 1 1216 0
 8045 00dc 0123     		movs	r3, #1
 8046 00de 1FE0     		b	.L674
 8047              	.L672:
 8048              		.loc 1 1218 0
 8049 00e0 BDF91030 		ldrsh	r3, [sp, #16]
 8050 00e4 1A46     		mov	r2, r3
 8051 00e6 009B     		ldr	r3, [sp]
 8052 00e8 1A60     		str	r2, [r3]
 8053              		.loc 1 1219 0
 8054 00ea 0123     		movs	r3, #1
 8055 00ec 18E0     		b	.L674
 8056              	.L670:
 8057              		.loc 1 1221 0
 8058 00ee BDF81030 		ldrh	r3, [sp, #16]
 8059 00f2 1A46     		mov	r2, r3
 8060 00f4 009B     		ldr	r3, [sp]
 8061 00f6 1A60     		str	r2, [r3]
 8062              		.loc 1 1222 0
 8063 00f8 0123     		movs	r3, #1
 8064 00fa 11E0     		b	.L674
 8065              	.L673:
 8066              		.loc 1 1224 0
 8067 00fc 049A     		ldr	r2, [sp, #16]
 8068 00fe 009B     		ldr	r3, [sp]
 8069 0100 1A60     		str	r2, [r3]
 8070              		.loc 1 1225 0
 8071 0102 0123     		movs	r3, #1
 8072 0104 0CE0     		b	.L674
 8073              	.L671:
 8074              		.loc 1 1227 0
 8075 0106 049B     		ldr	r3, [sp, #16]
 8076 0108 002B     		cmp	r3, #0
 8077 010a 05DB     		blt	.L666
 8078              		.loc 1 1228 0
 8079 010c 049B     		ldr	r3, [sp, #16]
 8080 010e 1A46     		mov	r2, r3
 8081 0110 009B     		ldr	r3, [sp]
 8082 0112 1A60     		str	r2, [r3]
 8083              		.loc 1 1229 0
 8084 0114 0123     		movs	r3, #1
 8085 0116 03E0     		b	.L674
 8086              	.L666:
ARM GAS  C:\Users\PCHAUT~1\AppData\Local\Temp\ccacj52E.s 			page 144


 8087              		.loc 1 1232 0
 8088 0118 019B     		ldr	r3, [sp, #4]
 8089 011a 0D22     		movs	r2, #13
 8090 011c 1A70     		strb	r2, [r3]
 8091              		.loc 1 1233 0
 8092 011e 0023     		movs	r3, #0
 8093              	.L674:
 8094              		.loc 1 1235 0 discriminator 1
 8095 0120 1846     		mov	r0, r3
 8096 0122 054B     		ldr	r3, .L676
 8097 0124 079A     		ldr	r2, [sp, #28]
 8098 0126 1B68     		ldr	r3, [r3]
 8099 0128 9A42     		cmp	r2, r3
 8100 012a 01D0     		beq	.L675
 8101              		.loc 1 1235 0 is_stmt 0
 8102 012c FFF7FEFF 		bl	__stack_chk_fail
 8103              	.L675:
 8104 0130 09B0     		add	sp, sp, #36
 8105              		.cfi_def_cfa_offset 4
 8106              		@ sp needed
 8107 0132 5DF804FB 		ldr	pc, [sp], #4
 8108              	.L677:
 8109 0136 00BF     		.align	2
 8110              	.L676:
 8111 0138 00000000 		.word	__stack_chk_guard
 8112              		.cfi_endproc
 8113              	.LFE89:
 8114              		.size	cmp_read_int, .-cmp_read_int
 8115              		.section	.text.cmp_read_long,"ax",%progbits
 8116              		.align	1
 8117              		.p2align 4,,15
 8118              		.global	cmp_read_long
 8119              		.syntax unified
 8120              		.thumb
 8121              		.thumb_func
 8122              		.fpu fpv4-sp-d16
 8123              		.type	cmp_read_long, %function
 8124              	cmp_read_long:
 8125              	.LFB90:
 8126              		.loc 1 1237 0 is_stmt 1
 8127              		.cfi_startproc
 8128              		@ args = 0, pretend = 0, frame = 32
 8129              		@ frame_needed = 0, uses_anonymous_args = 0
 8130 0000 10B5     		push	{r4, lr}
 8131              		.cfi_def_cfa_offset 8
 8132              		.cfi_offset 4, -8
 8133              		.cfi_offset 14, -4
 8134 0002 88B0     		sub	sp, sp, #32
 8135              		.cfi_def_cfa_offset 40
 8136 0004 0190     		str	r0, [sp, #4]
 8137 0006 0091     		str	r1, [sp]
 8138              		.loc 1 1237 0
 8139 0008 5B4B     		ldr	r3, .L693
 8140 000a 1B68     		ldr	r3, [r3]
 8141 000c 0793     		str	r3, [sp, #28]
 8142              		.loc 1 1240 0
 8143 000e 02AB     		add	r3, sp, #8
ARM GAS  C:\Users\PCHAUT~1\AppData\Local\Temp\ccacj52E.s 			page 145


 8144 0010 1946     		mov	r1, r3
 8145 0012 0198     		ldr	r0, [sp, #4]
 8146 0014 FFF7FEFF 		bl	cmp_read_object
 8147 0018 0346     		mov	r3, r0
 8148 001a 83F00103 		eor	r3, r3, #1
 8149 001e DBB2     		uxtb	r3, r3
 8150 0020 002B     		cmp	r3, #0
 8151 0022 01D0     		beq	.L679
 8152              		.loc 1 1241 0
 8153 0024 0023     		movs	r3, #0
 8154 0026 9DE0     		b	.L691
 8155              	.L679:
 8156              		.loc 1 1243 0
 8157 0028 9DF80830 		ldrb	r3, [sp, #8]	@ zero_extendqisi2
 8158 002c 222B     		cmp	r3, #34
 8159 002e 00F29580 		bhi	.L681
 8160 0032 01A2     		adr	r2, .L683
 8161 0034 52F823F0 		ldr	pc, [r2, r3, lsl #2]
 8162              		.p2align 2
 8163              	.L683:
 8164 0038 C5000000 		.word	.L682+1
 8165 003c 5D010000 		.word	.L681+1
 8166 0040 5D010000 		.word	.L681+1
 8167 0044 5D010000 		.word	.L681+1
 8168 0048 5D010000 		.word	.L681+1
 8169 004c 5D010000 		.word	.L681+1
 8170 0050 5D010000 		.word	.L681+1
 8171 0054 5D010000 		.word	.L681+1
 8172 0058 5D010000 		.word	.L681+1
 8173 005c 5D010000 		.word	.L681+1
 8174 0060 5D010000 		.word	.L681+1
 8175 0064 5D010000 		.word	.L681+1
 8176 0068 5D010000 		.word	.L681+1
 8177 006c 5D010000 		.word	.L681+1
 8178 0070 D9000000 		.word	.L684+1
 8179 0074 01010000 		.word	.L685+1
 8180 0078 25010000 		.word	.L686+1
 8181 007c 43010000 		.word	.L687+1
 8182 0080 C5000000 		.word	.L682+1
 8183 0084 ED000000 		.word	.L688+1
 8184 0088 15010000 		.word	.L689+1
 8185 008c 35010000 		.word	.L690+1
 8186 0090 5D010000 		.word	.L681+1
 8187 0094 5D010000 		.word	.L681+1
 8188 0098 5D010000 		.word	.L681+1
 8189 009c 5D010000 		.word	.L681+1
 8190 00a0 5D010000 		.word	.L681+1
 8191 00a4 5D010000 		.word	.L681+1
 8192 00a8 5D010000 		.word	.L681+1
 8193 00ac 5D010000 		.word	.L681+1
 8194 00b0 5D010000 		.word	.L681+1
 8195 00b4 5D010000 		.word	.L681+1
 8196 00b8 5D010000 		.word	.L681+1
 8197 00bc 5D010000 		.word	.L681+1
 8198 00c0 C5000000 		.word	.L682+1
 8199              		.p2align 1
 8200              	.L682:
ARM GAS  C:\Users\PCHAUT~1\AppData\Local\Temp\ccacj52E.s 			page 146


 8201              		.loc 1 1247 0
 8202 00c4 9DF91030 		ldrsb	r3, [sp, #16]
 8203 00c8 5BB2     		sxtb	r3, r3
 8204 00ca 4FEAE374 		asr	r4, r3, #31
 8205 00ce 009A     		ldr	r2, [sp]
 8206 00d0 C2E90034 		strd	r3, [r2]
 8207              		.loc 1 1248 0
 8208 00d4 0123     		movs	r3, #1
 8209 00d6 45E0     		b	.L691
 8210              	.L684:
 8211              		.loc 1 1250 0
 8212 00d8 9DF81030 		ldrb	r3, [sp, #16]	@ zero_extendqisi2
 8213 00dc DBB2     		uxtb	r3, r3
 8214 00de 4FF00004 		mov	r4, #0
 8215 00e2 009A     		ldr	r2, [sp]
 8216 00e4 C2E90034 		strd	r3, [r2]
 8217              		.loc 1 1251 0
 8218 00e8 0123     		movs	r3, #1
 8219 00ea 3BE0     		b	.L691
 8220              	.L688:
 8221              		.loc 1 1253 0
 8222 00ec BDF91030 		ldrsh	r3, [sp, #16]
 8223 00f0 1BB2     		sxth	r3, r3
 8224 00f2 4FEAE374 		asr	r4, r3, #31
 8225 00f6 009A     		ldr	r2, [sp]
 8226 00f8 C2E90034 		strd	r3, [r2]
 8227              		.loc 1 1254 0
 8228 00fc 0123     		movs	r3, #1
 8229 00fe 31E0     		b	.L691
 8230              	.L685:
 8231              		.loc 1 1256 0
 8232 0100 BDF81030 		ldrh	r3, [sp, #16]
 8233 0104 9BB2     		uxth	r3, r3
 8234 0106 4FF00004 		mov	r4, #0
 8235 010a 009A     		ldr	r2, [sp]
 8236 010c C2E90034 		strd	r3, [r2]
 8237              		.loc 1 1257 0
 8238 0110 0123     		movs	r3, #1
 8239 0112 27E0     		b	.L691
 8240              	.L689:
 8241              		.loc 1 1259 0
 8242 0114 049B     		ldr	r3, [sp, #16]
 8243 0116 4FEAE374 		asr	r4, r3, #31
 8244 011a 009A     		ldr	r2, [sp]
 8245 011c C2E90034 		strd	r3, [r2]
 8246              		.loc 1 1260 0
 8247 0120 0123     		movs	r3, #1
 8248 0122 1FE0     		b	.L691
 8249              	.L686:
 8250              		.loc 1 1262 0
 8251 0124 049B     		ldr	r3, [sp, #16]
 8252 0126 4FF00004 		mov	r4, #0
 8253 012a 009A     		ldr	r2, [sp]
 8254 012c C2E90034 		strd	r3, [r2]
 8255              		.loc 1 1263 0
 8256 0130 0123     		movs	r3, #1
 8257 0132 17E0     		b	.L691
ARM GAS  C:\Users\PCHAUT~1\AppData\Local\Temp\ccacj52E.s 			page 147


 8258              	.L690:
 8259              		.loc 1 1265 0
 8260 0134 DDE90434 		ldrd	r3, [sp, #16]
 8261 0138 009A     		ldr	r2, [sp]
 8262 013a C2E90034 		strd	r3, [r2]
 8263              		.loc 1 1266 0
 8264 013e 0123     		movs	r3, #1
 8265 0140 10E0     		b	.L691
 8266              	.L687:
 8267              		.loc 1 1268 0
 8268 0142 DDE90434 		ldrd	r3, [sp, #16]
 8269 0146 002B     		cmp	r3, #0
 8270 0148 74F10003 		sbcs	r3, r4, #0
 8271 014c 06DB     		blt	.L681
 8272              		.loc 1 1269 0
 8273 014e DDE90434 		ldrd	r3, [sp, #16]
 8274 0152 009A     		ldr	r2, [sp]
 8275 0154 C2E90034 		strd	r3, [r2]
 8276              		.loc 1 1270 0
 8277 0158 0123     		movs	r3, #1
 8278 015a 03E0     		b	.L691
 8279              	.L681:
 8280              		.loc 1 1273 0
 8281 015c 019B     		ldr	r3, [sp, #4]
 8282 015e 0D22     		movs	r2, #13
 8283 0160 1A70     		strb	r2, [r3]
 8284              		.loc 1 1274 0
 8285 0162 0023     		movs	r3, #0
 8286              	.L691:
 8287              		.loc 1 1276 0 discriminator 1
 8288 0164 1846     		mov	r0, r3
 8289 0166 044B     		ldr	r3, .L693
 8290 0168 079A     		ldr	r2, [sp, #28]
 8291 016a 1B68     		ldr	r3, [r3]
 8292 016c 9A42     		cmp	r2, r3
 8293 016e 01D0     		beq	.L692
 8294              		.loc 1 1276 0 is_stmt 0
 8295 0170 FFF7FEFF 		bl	__stack_chk_fail
 8296              	.L692:
 8297 0174 08B0     		add	sp, sp, #32
 8298              		.cfi_def_cfa_offset 8
 8299              		@ sp needed
 8300 0176 10BD     		pop	{r4, pc}
 8301              	.L694:
 8302              		.align	2
 8303              	.L693:
 8304 0178 00000000 		.word	__stack_chk_guard
 8305              		.cfi_endproc
 8306              	.LFE90:
 8307              		.size	cmp_read_long, .-cmp_read_long
 8308              		.section	.text.cmp_read_sinteger,"ax",%progbits
 8309              		.align	1
 8310              		.p2align 4,,15
 8311              		.global	cmp_read_sinteger
 8312              		.syntax unified
 8313              		.thumb
 8314              		.thumb_func
ARM GAS  C:\Users\PCHAUT~1\AppData\Local\Temp\ccacj52E.s 			page 148


 8315              		.fpu fpv4-sp-d16
 8316              		.type	cmp_read_sinteger, %function
 8317              	cmp_read_sinteger:
 8318              	.LFB91:
 8319              		.loc 1 1278 0 is_stmt 1
 8320              		.cfi_startproc
 8321              		@ args = 0, pretend = 0, frame = 16
 8322              		@ frame_needed = 0, uses_anonymous_args = 0
 8323 0000 00B5     		push	{lr}
 8324              		.cfi_def_cfa_offset 4
 8325              		.cfi_offset 14, -4
 8326 0002 85B0     		sub	sp, sp, #20
 8327              		.cfi_def_cfa_offset 24
 8328 0004 0190     		str	r0, [sp, #4]
 8329 0006 0091     		str	r1, [sp]
 8330              		.loc 1 1278 0
 8331 0008 094B     		ldr	r3, .L698
 8332 000a 1B68     		ldr	r3, [r3]
 8333 000c 0393     		str	r3, [sp, #12]
 8334              		.loc 1 1279 0
 8335 000e 0099     		ldr	r1, [sp]
 8336 0010 0198     		ldr	r0, [sp, #4]
 8337 0012 FFF7FEFF 		bl	cmp_read_long
 8338 0016 0346     		mov	r3, r0
 8339              		.loc 1 1280 0
 8340 0018 1846     		mov	r0, r3
 8341 001a 054B     		ldr	r3, .L698
 8342 001c 039A     		ldr	r2, [sp, #12]
 8343 001e 1B68     		ldr	r3, [r3]
 8344 0020 9A42     		cmp	r2, r3
 8345 0022 01D0     		beq	.L697
 8346 0024 FFF7FEFF 		bl	__stack_chk_fail
 8347              	.L697:
 8348 0028 05B0     		add	sp, sp, #20
 8349              		.cfi_def_cfa_offset 4
 8350              		@ sp needed
 8351 002a 5DF804FB 		ldr	pc, [sp], #4
 8352              	.L699:
 8353 002e 00BF     		.align	2
 8354              	.L698:
 8355 0030 00000000 		.word	__stack_chk_guard
 8356              		.cfi_endproc
 8357              	.LFE91:
 8358              		.size	cmp_read_sinteger, .-cmp_read_sinteger
 8359              		.section	.text.cmp_read_ufix,"ax",%progbits
 8360              		.align	1
 8361              		.p2align 4,,15
 8362              		.global	cmp_read_ufix
 8363              		.syntax unified
 8364              		.thumb
 8365              		.thumb_func
 8366              		.fpu fpv4-sp-d16
 8367              		.type	cmp_read_ufix, %function
 8368              	cmp_read_ufix:
 8369              	.LFB92:
 8370              		.loc 1 1282 0
 8371              		.cfi_startproc
ARM GAS  C:\Users\PCHAUT~1\AppData\Local\Temp\ccacj52E.s 			page 149


 8372              		@ args = 0, pretend = 0, frame = 32
 8373              		@ frame_needed = 0, uses_anonymous_args = 0
 8374 0000 00B5     		push	{lr}
 8375              		.cfi_def_cfa_offset 4
 8376              		.cfi_offset 14, -4
 8377 0002 89B0     		sub	sp, sp, #36
 8378              		.cfi_def_cfa_offset 40
 8379 0004 0190     		str	r0, [sp, #4]
 8380 0006 0091     		str	r1, [sp]
 8381              		.loc 1 1282 0
 8382 0008 144B     		ldr	r3, .L706
 8383 000a 1B68     		ldr	r3, [r3]
 8384 000c 0793     		str	r3, [sp, #28]
 8385              		.loc 1 1285 0
 8386 000e 02AB     		add	r3, sp, #8
 8387 0010 1946     		mov	r1, r3
 8388 0012 0198     		ldr	r0, [sp, #4]
 8389 0014 FFF7FEFF 		bl	cmp_read_object
 8390 0018 0346     		mov	r3, r0
 8391 001a 83F00103 		eor	r3, r3, #1
 8392 001e DBB2     		uxtb	r3, r3
 8393 0020 002B     		cmp	r3, #0
 8394 0022 01D0     		beq	.L701
 8395              		.loc 1 1286 0
 8396 0024 0023     		movs	r3, #0
 8397 0026 0DE0     		b	.L704
 8398              	.L701:
 8399              		.loc 1 1288 0
 8400 0028 9DF80830 		ldrb	r3, [sp, #8]	@ zero_extendqisi2
 8401 002c 222B     		cmp	r3, #34
 8402 002e 04D0     		beq	.L703
 8403              		.loc 1 1289 0
 8404 0030 019B     		ldr	r3, [sp, #4]
 8405 0032 0D22     		movs	r2, #13
 8406 0034 1A70     		strb	r2, [r3]
 8407              		.loc 1 1290 0
 8408 0036 0023     		movs	r3, #0
 8409 0038 04E0     		b	.L704
 8410              	.L703:
 8411              		.loc 1 1293 0
 8412 003a 9DF81020 		ldrb	r2, [sp, #16]	@ zero_extendqisi2
 8413 003e 009B     		ldr	r3, [sp]
 8414 0040 1A70     		strb	r2, [r3]
 8415              		.loc 1 1294 0
 8416 0042 0123     		movs	r3, #1
 8417              	.L704:
 8418              		.loc 1 1295 0 discriminator 1
 8419 0044 1846     		mov	r0, r3
 8420 0046 054B     		ldr	r3, .L706
 8421 0048 079A     		ldr	r2, [sp, #28]
 8422 004a 1B68     		ldr	r3, [r3]
 8423 004c 9A42     		cmp	r2, r3
 8424 004e 01D0     		beq	.L705
 8425              		.loc 1 1295 0 is_stmt 0
 8426 0050 FFF7FEFF 		bl	__stack_chk_fail
 8427              	.L705:
 8428 0054 09B0     		add	sp, sp, #36
ARM GAS  C:\Users\PCHAUT~1\AppData\Local\Temp\ccacj52E.s 			page 150


 8429              		.cfi_def_cfa_offset 4
 8430              		@ sp needed
 8431 0056 5DF804FB 		ldr	pc, [sp], #4
 8432              	.L707:
 8433 005a 00BF     		.align	2
 8434              	.L706:
 8435 005c 00000000 		.word	__stack_chk_guard
 8436              		.cfi_endproc
 8437              	.LFE92:
 8438              		.size	cmp_read_ufix, .-cmp_read_ufix
 8439              		.section	.text.cmp_read_u8,"ax",%progbits
 8440              		.align	1
 8441              		.p2align 4,,15
 8442              		.global	cmp_read_u8
 8443              		.syntax unified
 8444              		.thumb
 8445              		.thumb_func
 8446              		.fpu fpv4-sp-d16
 8447              		.type	cmp_read_u8, %function
 8448              	cmp_read_u8:
 8449              	.LFB93:
 8450              		.loc 1 1297 0 is_stmt 1
 8451              		.cfi_startproc
 8452              		@ args = 0, pretend = 0, frame = 32
 8453              		@ frame_needed = 0, uses_anonymous_args = 0
 8454 0000 00B5     		push	{lr}
 8455              		.cfi_def_cfa_offset 4
 8456              		.cfi_offset 14, -4
 8457 0002 89B0     		sub	sp, sp, #36
 8458              		.cfi_def_cfa_offset 40
 8459 0004 0190     		str	r0, [sp, #4]
 8460 0006 0091     		str	r1, [sp]
 8461              		.loc 1 1297 0
 8462 0008 144B     		ldr	r3, .L714
 8463 000a 1B68     		ldr	r3, [r3]
 8464 000c 0793     		str	r3, [sp, #28]
 8465              		.loc 1 1300 0
 8466 000e 02AB     		add	r3, sp, #8
 8467 0010 1946     		mov	r1, r3
 8468 0012 0198     		ldr	r0, [sp, #4]
 8469 0014 FFF7FEFF 		bl	cmp_read_object
 8470 0018 0346     		mov	r3, r0
 8471 001a 83F00103 		eor	r3, r3, #1
 8472 001e DBB2     		uxtb	r3, r3
 8473 0020 002B     		cmp	r3, #0
 8474 0022 01D0     		beq	.L709
 8475              		.loc 1 1301 0
 8476 0024 0023     		movs	r3, #0
 8477 0026 0DE0     		b	.L712
 8478              	.L709:
 8479              		.loc 1 1303 0
 8480 0028 9DF80830 		ldrb	r3, [sp, #8]	@ zero_extendqisi2
 8481 002c 0E2B     		cmp	r3, #14
 8482 002e 04D0     		beq	.L711
 8483              		.loc 1 1304 0
 8484 0030 019B     		ldr	r3, [sp, #4]
 8485 0032 0D22     		movs	r2, #13
ARM GAS  C:\Users\PCHAUT~1\AppData\Local\Temp\ccacj52E.s 			page 151


 8486 0034 1A70     		strb	r2, [r3]
 8487              		.loc 1 1305 0
 8488 0036 0023     		movs	r3, #0
 8489 0038 04E0     		b	.L712
 8490              	.L711:
 8491              		.loc 1 1308 0
 8492 003a 9DF81020 		ldrb	r2, [sp, #16]	@ zero_extendqisi2
 8493 003e 009B     		ldr	r3, [sp]
 8494 0040 1A70     		strb	r2, [r3]
 8495              		.loc 1 1309 0
 8496 0042 0123     		movs	r3, #1
 8497              	.L712:
 8498              		.loc 1 1310 0 discriminator 1
 8499 0044 1846     		mov	r0, r3
 8500 0046 054B     		ldr	r3, .L714
 8501 0048 079A     		ldr	r2, [sp, #28]
 8502 004a 1B68     		ldr	r3, [r3]
 8503 004c 9A42     		cmp	r2, r3
 8504 004e 01D0     		beq	.L713
 8505              		.loc 1 1310 0 is_stmt 0
 8506 0050 FFF7FEFF 		bl	__stack_chk_fail
 8507              	.L713:
 8508 0054 09B0     		add	sp, sp, #36
 8509              		.cfi_def_cfa_offset 4
 8510              		@ sp needed
 8511 0056 5DF804FB 		ldr	pc, [sp], #4
 8512              	.L715:
 8513 005a 00BF     		.align	2
 8514              	.L714:
 8515 005c 00000000 		.word	__stack_chk_guard
 8516              		.cfi_endproc
 8517              	.LFE93:
 8518              		.size	cmp_read_u8, .-cmp_read_u8
 8519              		.section	.text.cmp_read_u16,"ax",%progbits
 8520              		.align	1
 8521              		.p2align 4,,15
 8522              		.global	cmp_read_u16
 8523              		.syntax unified
 8524              		.thumb
 8525              		.thumb_func
 8526              		.fpu fpv4-sp-d16
 8527              		.type	cmp_read_u16, %function
 8528              	cmp_read_u16:
 8529              	.LFB94:
 8530              		.loc 1 1312 0 is_stmt 1
 8531              		.cfi_startproc
 8532              		@ args = 0, pretend = 0, frame = 32
 8533              		@ frame_needed = 0, uses_anonymous_args = 0
 8534 0000 00B5     		push	{lr}
 8535              		.cfi_def_cfa_offset 4
 8536              		.cfi_offset 14, -4
 8537 0002 89B0     		sub	sp, sp, #36
 8538              		.cfi_def_cfa_offset 40
 8539 0004 0190     		str	r0, [sp, #4]
 8540 0006 0091     		str	r1, [sp]
 8541              		.loc 1 1312 0
 8542 0008 144B     		ldr	r3, .L722
ARM GAS  C:\Users\PCHAUT~1\AppData\Local\Temp\ccacj52E.s 			page 152


 8543 000a 1B68     		ldr	r3, [r3]
 8544 000c 0793     		str	r3, [sp, #28]
 8545              		.loc 1 1315 0
 8546 000e 02AB     		add	r3, sp, #8
 8547 0010 1946     		mov	r1, r3
 8548 0012 0198     		ldr	r0, [sp, #4]
 8549 0014 FFF7FEFF 		bl	cmp_read_object
 8550 0018 0346     		mov	r3, r0
 8551 001a 83F00103 		eor	r3, r3, #1
 8552 001e DBB2     		uxtb	r3, r3
 8553 0020 002B     		cmp	r3, #0
 8554 0022 01D0     		beq	.L717
 8555              		.loc 1 1316 0
 8556 0024 0023     		movs	r3, #0
 8557 0026 0DE0     		b	.L720
 8558              	.L717:
 8559              		.loc 1 1318 0
 8560 0028 9DF80830 		ldrb	r3, [sp, #8]	@ zero_extendqisi2
 8561 002c 0F2B     		cmp	r3, #15
 8562 002e 04D0     		beq	.L719
 8563              		.loc 1 1319 0
 8564 0030 019B     		ldr	r3, [sp, #4]
 8565 0032 0D22     		movs	r2, #13
 8566 0034 1A70     		strb	r2, [r3]
 8567              		.loc 1 1320 0
 8568 0036 0023     		movs	r3, #0
 8569 0038 04E0     		b	.L720
 8570              	.L719:
 8571              		.loc 1 1323 0
 8572 003a BDF81020 		ldrh	r2, [sp, #16]
 8573 003e 009B     		ldr	r3, [sp]
 8574 0040 1A80     		strh	r2, [r3]	@ movhi
 8575              		.loc 1 1324 0
 8576 0042 0123     		movs	r3, #1
 8577              	.L720:
 8578              		.loc 1 1325 0 discriminator 1
 8579 0044 1846     		mov	r0, r3
 8580 0046 054B     		ldr	r3, .L722
 8581 0048 079A     		ldr	r2, [sp, #28]
 8582 004a 1B68     		ldr	r3, [r3]
 8583 004c 9A42     		cmp	r2, r3
 8584 004e 01D0     		beq	.L721
 8585              		.loc 1 1325 0 is_stmt 0
 8586 0050 FFF7FEFF 		bl	__stack_chk_fail
 8587              	.L721:
 8588 0054 09B0     		add	sp, sp, #36
 8589              		.cfi_def_cfa_offset 4
 8590              		@ sp needed
 8591 0056 5DF804FB 		ldr	pc, [sp], #4
 8592              	.L723:
 8593 005a 00BF     		.align	2
 8594              	.L722:
 8595 005c 00000000 		.word	__stack_chk_guard
 8596              		.cfi_endproc
 8597              	.LFE94:
 8598              		.size	cmp_read_u16, .-cmp_read_u16
 8599              		.section	.text.cmp_read_u32,"ax",%progbits
ARM GAS  C:\Users\PCHAUT~1\AppData\Local\Temp\ccacj52E.s 			page 153


 8600              		.align	1
 8601              		.p2align 4,,15
 8602              		.global	cmp_read_u32
 8603              		.syntax unified
 8604              		.thumb
 8605              		.thumb_func
 8606              		.fpu fpv4-sp-d16
 8607              		.type	cmp_read_u32, %function
 8608              	cmp_read_u32:
 8609              	.LFB95:
 8610              		.loc 1 1327 0 is_stmt 1
 8611              		.cfi_startproc
 8612              		@ args = 0, pretend = 0, frame = 32
 8613              		@ frame_needed = 0, uses_anonymous_args = 0
 8614 0000 00B5     		push	{lr}
 8615              		.cfi_def_cfa_offset 4
 8616              		.cfi_offset 14, -4
 8617 0002 89B0     		sub	sp, sp, #36
 8618              		.cfi_def_cfa_offset 40
 8619 0004 0190     		str	r0, [sp, #4]
 8620 0006 0091     		str	r1, [sp]
 8621              		.loc 1 1327 0
 8622 0008 134B     		ldr	r3, .L730
 8623 000a 1B68     		ldr	r3, [r3]
 8624 000c 0793     		str	r3, [sp, #28]
 8625              		.loc 1 1330 0
 8626 000e 02AB     		add	r3, sp, #8
 8627 0010 1946     		mov	r1, r3
 8628 0012 0198     		ldr	r0, [sp, #4]
 8629 0014 FFF7FEFF 		bl	cmp_read_object
 8630 0018 0346     		mov	r3, r0
 8631 001a 83F00103 		eor	r3, r3, #1
 8632 001e DBB2     		uxtb	r3, r3
 8633 0020 002B     		cmp	r3, #0
 8634 0022 01D0     		beq	.L725
 8635              		.loc 1 1331 0
 8636 0024 0023     		movs	r3, #0
 8637 0026 0CE0     		b	.L728
 8638              	.L725:
 8639              		.loc 1 1333 0
 8640 0028 9DF80830 		ldrb	r3, [sp, #8]	@ zero_extendqisi2
 8641 002c 102B     		cmp	r3, #16
 8642 002e 04D0     		beq	.L727
 8643              		.loc 1 1334 0
 8644 0030 019B     		ldr	r3, [sp, #4]
 8645 0032 0D22     		movs	r2, #13
 8646 0034 1A70     		strb	r2, [r3]
 8647              		.loc 1 1335 0
 8648 0036 0023     		movs	r3, #0
 8649 0038 03E0     		b	.L728
 8650              	.L727:
 8651              		.loc 1 1338 0
 8652 003a 049A     		ldr	r2, [sp, #16]
 8653 003c 009B     		ldr	r3, [sp]
 8654 003e 1A60     		str	r2, [r3]
 8655              		.loc 1 1339 0
 8656 0040 0123     		movs	r3, #1
ARM GAS  C:\Users\PCHAUT~1\AppData\Local\Temp\ccacj52E.s 			page 154


 8657              	.L728:
 8658              		.loc 1 1340 0 discriminator 1
 8659 0042 1846     		mov	r0, r3
 8660 0044 044B     		ldr	r3, .L730
 8661 0046 079A     		ldr	r2, [sp, #28]
 8662 0048 1B68     		ldr	r3, [r3]
 8663 004a 9A42     		cmp	r2, r3
 8664 004c 01D0     		beq	.L729
 8665              		.loc 1 1340 0 is_stmt 0
 8666 004e FFF7FEFF 		bl	__stack_chk_fail
 8667              	.L729:
 8668 0052 09B0     		add	sp, sp, #36
 8669              		.cfi_def_cfa_offset 4
 8670              		@ sp needed
 8671 0054 5DF804FB 		ldr	pc, [sp], #4
 8672              	.L731:
 8673              		.align	2
 8674              	.L730:
 8675 0058 00000000 		.word	__stack_chk_guard
 8676              		.cfi_endproc
 8677              	.LFE95:
 8678              		.size	cmp_read_u32, .-cmp_read_u32
 8679              		.section	.text.cmp_read_u64,"ax",%progbits
 8680              		.align	1
 8681              		.p2align 4,,15
 8682              		.global	cmp_read_u64
 8683              		.syntax unified
 8684              		.thumb
 8685              		.thumb_func
 8686              		.fpu fpv4-sp-d16
 8687              		.type	cmp_read_u64, %function
 8688              	cmp_read_u64:
 8689              	.LFB96:
 8690              		.loc 1 1342 0 is_stmt 1
 8691              		.cfi_startproc
 8692              		@ args = 0, pretend = 0, frame = 32
 8693              		@ frame_needed = 0, uses_anonymous_args = 0
 8694 0000 10B5     		push	{r4, lr}
 8695              		.cfi_def_cfa_offset 8
 8696              		.cfi_offset 4, -8
 8697              		.cfi_offset 14, -4
 8698 0002 88B0     		sub	sp, sp, #32
 8699              		.cfi_def_cfa_offset 40
 8700 0004 0190     		str	r0, [sp, #4]
 8701 0006 0091     		str	r1, [sp]
 8702              		.loc 1 1342 0
 8703 0008 144B     		ldr	r3, .L738
 8704 000a 1B68     		ldr	r3, [r3]
 8705 000c 0793     		str	r3, [sp, #28]
 8706              		.loc 1 1345 0
 8707 000e 02AB     		add	r3, sp, #8
 8708 0010 1946     		mov	r1, r3
 8709 0012 0198     		ldr	r0, [sp, #4]
 8710 0014 FFF7FEFF 		bl	cmp_read_object
 8711 0018 0346     		mov	r3, r0
 8712 001a 83F00103 		eor	r3, r3, #1
 8713 001e DBB2     		uxtb	r3, r3
ARM GAS  C:\Users\PCHAUT~1\AppData\Local\Temp\ccacj52E.s 			page 155


 8714 0020 002B     		cmp	r3, #0
 8715 0022 01D0     		beq	.L733
 8716              		.loc 1 1346 0
 8717 0024 0023     		movs	r3, #0
 8718 0026 0EE0     		b	.L736
 8719              	.L733:
 8720              		.loc 1 1348 0
 8721 0028 9DF80830 		ldrb	r3, [sp, #8]	@ zero_extendqisi2
 8722 002c 112B     		cmp	r3, #17
 8723 002e 04D0     		beq	.L735
 8724              		.loc 1 1349 0
 8725 0030 019B     		ldr	r3, [sp, #4]
 8726 0032 0D22     		movs	r2, #13
 8727 0034 1A70     		strb	r2, [r3]
 8728              		.loc 1 1350 0
 8729 0036 0023     		movs	r3, #0
 8730 0038 05E0     		b	.L736
 8731              	.L735:
 8732              		.loc 1 1353 0
 8733 003a DDE90434 		ldrd	r3, [sp, #16]
 8734 003e 009A     		ldr	r2, [sp]
 8735 0040 C2E90034 		strd	r3, [r2]
 8736              		.loc 1 1354 0
 8737 0044 0123     		movs	r3, #1
 8738              	.L736:
 8739              		.loc 1 1355 0 discriminator 1
 8740 0046 1846     		mov	r0, r3
 8741 0048 044B     		ldr	r3, .L738
 8742 004a 079A     		ldr	r2, [sp, #28]
 8743 004c 1B68     		ldr	r3, [r3]
 8744 004e 9A42     		cmp	r2, r3
 8745 0050 01D0     		beq	.L737
 8746              		.loc 1 1355 0 is_stmt 0
 8747 0052 FFF7FEFF 		bl	__stack_chk_fail
 8748              	.L737:
 8749 0056 08B0     		add	sp, sp, #32
 8750              		.cfi_def_cfa_offset 8
 8751              		@ sp needed
 8752 0058 10BD     		pop	{r4, pc}
 8753              	.L739:
 8754 005a 00BF     		.align	2
 8755              	.L738:
 8756 005c 00000000 		.word	__stack_chk_guard
 8757              		.cfi_endproc
 8758              	.LFE96:
 8759              		.size	cmp_read_u64, .-cmp_read_u64
 8760              		.section	.text.cmp_read_uchar,"ax",%progbits
 8761              		.align	1
 8762              		.p2align 4,,15
 8763              		.global	cmp_read_uchar
 8764              		.syntax unified
 8765              		.thumb
 8766              		.thumb_func
 8767              		.fpu fpv4-sp-d16
 8768              		.type	cmp_read_uchar, %function
 8769              	cmp_read_uchar:
 8770              	.LFB97:
ARM GAS  C:\Users\PCHAUT~1\AppData\Local\Temp\ccacj52E.s 			page 156


 8771              		.loc 1 1357 0 is_stmt 1
 8772              		.cfi_startproc
 8773              		@ args = 0, pretend = 0, frame = 32
 8774              		@ frame_needed = 0, uses_anonymous_args = 0
 8775 0000 00B5     		push	{lr}
 8776              		.cfi_def_cfa_offset 4
 8777              		.cfi_offset 14, -4
 8778 0002 89B0     		sub	sp, sp, #36
 8779              		.cfi_def_cfa_offset 40
 8780 0004 0190     		str	r0, [sp, #4]
 8781 0006 0091     		str	r1, [sp]
 8782              		.loc 1 1357 0
 8783 0008 154B     		ldr	r3, .L748
 8784 000a 1B68     		ldr	r3, [r3]
 8785 000c 0793     		str	r3, [sp, #28]
 8786              		.loc 1 1360 0
 8787 000e 02AB     		add	r3, sp, #8
 8788 0010 1946     		mov	r1, r3
 8789 0012 0198     		ldr	r0, [sp, #4]
 8790 0014 FFF7FEFF 		bl	cmp_read_object
 8791 0018 0346     		mov	r3, r0
 8792 001a 83F00103 		eor	r3, r3, #1
 8793 001e DBB2     		uxtb	r3, r3
 8794 0020 002B     		cmp	r3, #0
 8795 0022 01D0     		beq	.L741
 8796              		.loc 1 1361 0
 8797 0024 0023     		movs	r3, #0
 8798 0026 0FE0     		b	.L745
 8799              	.L741:
 8800              		.loc 1 1363 0
 8801 0028 9DF80830 		ldrb	r3, [sp, #8]	@ zero_extendqisi2
 8802 002c 002B     		cmp	r3, #0
 8803 002e 01D0     		beq	.L744
 8804 0030 0E2B     		cmp	r3, #14
 8805 0032 05D1     		bne	.L747
 8806              	.L744:
 8807              		.loc 1 1366 0
 8808 0034 9DF81020 		ldrb	r2, [sp, #16]	@ zero_extendqisi2
 8809 0038 009B     		ldr	r3, [sp]
 8810 003a 1A70     		strb	r2, [r3]
 8811              		.loc 1 1367 0
 8812 003c 0123     		movs	r3, #1
 8813 003e 03E0     		b	.L745
 8814              	.L747:
 8815              		.loc 1 1369 0
 8816 0040 019B     		ldr	r3, [sp, #4]
 8817 0042 0D22     		movs	r2, #13
 8818 0044 1A70     		strb	r2, [r3]
 8819              		.loc 1 1370 0
 8820 0046 0023     		movs	r3, #0
 8821              	.L745:
 8822              		.loc 1 1372 0 discriminator 1
 8823 0048 1846     		mov	r0, r3
 8824 004a 054B     		ldr	r3, .L748
 8825 004c 079A     		ldr	r2, [sp, #28]
 8826 004e 1B68     		ldr	r3, [r3]
 8827 0050 9A42     		cmp	r2, r3
ARM GAS  C:\Users\PCHAUT~1\AppData\Local\Temp\ccacj52E.s 			page 157


 8828 0052 01D0     		beq	.L746
 8829              		.loc 1 1372 0 is_stmt 0
 8830 0054 FFF7FEFF 		bl	__stack_chk_fail
 8831              	.L746:
 8832 0058 09B0     		add	sp, sp, #36
 8833              		.cfi_def_cfa_offset 4
 8834              		@ sp needed
 8835 005a 5DF804FB 		ldr	pc, [sp], #4
 8836              	.L749:
 8837 005e 00BF     		.align	2
 8838              	.L748:
 8839 0060 00000000 		.word	__stack_chk_guard
 8840              		.cfi_endproc
 8841              	.LFE97:
 8842              		.size	cmp_read_uchar, .-cmp_read_uchar
 8843              		.section	.text.cmp_read_ushort,"ax",%progbits
 8844              		.align	1
 8845              		.p2align 4,,15
 8846              		.global	cmp_read_ushort
 8847              		.syntax unified
 8848              		.thumb
 8849              		.thumb_func
 8850              		.fpu fpv4-sp-d16
 8851              		.type	cmp_read_ushort, %function
 8852              	cmp_read_ushort:
 8853              	.LFB98:
 8854              		.loc 1 1374 0 is_stmt 1
 8855              		.cfi_startproc
 8856              		@ args = 0, pretend = 0, frame = 32
 8857              		@ frame_needed = 0, uses_anonymous_args = 0
 8858 0000 00B5     		push	{lr}
 8859              		.cfi_def_cfa_offset 4
 8860              		.cfi_offset 14, -4
 8861 0002 89B0     		sub	sp, sp, #36
 8862              		.cfi_def_cfa_offset 40
 8863 0004 0190     		str	r0, [sp, #4]
 8864 0006 0091     		str	r1, [sp]
 8865              		.loc 1 1374 0
 8866 0008 194B     		ldr	r3, .L759
 8867 000a 1B68     		ldr	r3, [r3]
 8868 000c 0793     		str	r3, [sp, #28]
 8869              		.loc 1 1377 0
 8870 000e 02AB     		add	r3, sp, #8
 8871 0010 1946     		mov	r1, r3
 8872 0012 0198     		ldr	r0, [sp, #4]
 8873 0014 FFF7FEFF 		bl	cmp_read_object
 8874 0018 0346     		mov	r3, r0
 8875 001a 83F00103 		eor	r3, r3, #1
 8876 001e DBB2     		uxtb	r3, r3
 8877 0020 002B     		cmp	r3, #0
 8878 0022 01D0     		beq	.L751
 8879              		.loc 1 1378 0
 8880 0024 0023     		movs	r3, #0
 8881 0026 18E0     		b	.L756
 8882              	.L751:
 8883              		.loc 1 1380 0
 8884 0028 9DF80830 		ldrb	r3, [sp, #8]	@ zero_extendqisi2
ARM GAS  C:\Users\PCHAUT~1\AppData\Local\Temp\ccacj52E.s 			page 158


 8885 002c 0E2B     		cmp	r3, #14
 8886 002e 03D0     		beq	.L754
 8887 0030 0F2B     		cmp	r3, #15
 8888 0032 08D0     		beq	.L755
 8889 0034 002B     		cmp	r3, #0
 8890 0036 0CD1     		bne	.L758
 8891              	.L754:
 8892              		.loc 1 1383 0
 8893 0038 9DF81030 		ldrb	r3, [sp, #16]	@ zero_extendqisi2
 8894 003c 9AB2     		uxth	r2, r3
 8895 003e 009B     		ldr	r3, [sp]
 8896 0040 1A80     		strh	r2, [r3]	@ movhi
 8897              		.loc 1 1384 0
 8898 0042 0123     		movs	r3, #1
 8899 0044 09E0     		b	.L756
 8900              	.L755:
 8901              		.loc 1 1386 0
 8902 0046 BDF81020 		ldrh	r2, [sp, #16]
 8903 004a 009B     		ldr	r3, [sp]
 8904 004c 1A80     		strh	r2, [r3]	@ movhi
 8905              		.loc 1 1387 0
 8906 004e 0123     		movs	r3, #1
 8907 0050 03E0     		b	.L756
 8908              	.L758:
 8909              		.loc 1 1389 0
 8910 0052 019B     		ldr	r3, [sp, #4]
 8911 0054 0D22     		movs	r2, #13
 8912 0056 1A70     		strb	r2, [r3]
 8913              		.loc 1 1390 0
 8914 0058 0023     		movs	r3, #0
 8915              	.L756:
 8916              		.loc 1 1392 0 discriminator 1
 8917 005a 1846     		mov	r0, r3
 8918 005c 044B     		ldr	r3, .L759
 8919 005e 079A     		ldr	r2, [sp, #28]
 8920 0060 1B68     		ldr	r3, [r3]
 8921 0062 9A42     		cmp	r2, r3
 8922 0064 01D0     		beq	.L757
 8923              		.loc 1 1392 0 is_stmt 0
 8924 0066 FFF7FEFF 		bl	__stack_chk_fail
 8925              	.L757:
 8926 006a 09B0     		add	sp, sp, #36
 8927              		.cfi_def_cfa_offset 4
 8928              		@ sp needed
 8929 006c 5DF804FB 		ldr	pc, [sp], #4
 8930              	.L760:
 8931              		.align	2
 8932              	.L759:
 8933 0070 00000000 		.word	__stack_chk_guard
 8934              		.cfi_endproc
 8935              	.LFE98:
 8936              		.size	cmp_read_ushort, .-cmp_read_ushort
 8937              		.section	.text.cmp_read_uint,"ax",%progbits
 8938              		.align	1
 8939              		.p2align 4,,15
 8940              		.global	cmp_read_uint
 8941              		.syntax unified
ARM GAS  C:\Users\PCHAUT~1\AppData\Local\Temp\ccacj52E.s 			page 159


 8942              		.thumb
 8943              		.thumb_func
 8944              		.fpu fpv4-sp-d16
 8945              		.type	cmp_read_uint, %function
 8946              	cmp_read_uint:
 8947              	.LFB99:
 8948              		.loc 1 1394 0 is_stmt 1
 8949              		.cfi_startproc
 8950              		@ args = 0, pretend = 0, frame = 32
 8951              		@ frame_needed = 0, uses_anonymous_args = 0
 8952 0000 00B5     		push	{lr}
 8953              		.cfi_def_cfa_offset 4
 8954              		.cfi_offset 14, -4
 8955 0002 89B0     		sub	sp, sp, #36
 8956              		.cfi_def_cfa_offset 40
 8957 0004 0190     		str	r0, [sp, #4]
 8958 0006 0091     		str	r1, [sp]
 8959              		.loc 1 1394 0
 8960 0008 2D4B     		ldr	r3, .L771
 8961 000a 1B68     		ldr	r3, [r3]
 8962 000c 0793     		str	r3, [sp, #28]
 8963              		.loc 1 1397 0
 8964 000e 02AB     		add	r3, sp, #8
 8965 0010 1946     		mov	r1, r3
 8966 0012 0198     		ldr	r0, [sp, #4]
 8967 0014 FFF7FEFF 		bl	cmp_read_object
 8968 0018 0346     		mov	r3, r0
 8969 001a 83F00103 		eor	r3, r3, #1
 8970 001e DBB2     		uxtb	r3, r3
 8971 0020 002B     		cmp	r3, #0
 8972 0022 01D0     		beq	.L762
 8973              		.loc 1 1398 0
 8974 0024 0023     		movs	r3, #0
 8975 0026 40E0     		b	.L769
 8976              	.L762:
 8977              		.loc 1 1400 0
 8978 0028 9DF80830 		ldrb	r3, [sp, #8]	@ zero_extendqisi2
 8979 002c 102B     		cmp	r3, #16
 8980 002e 38D8     		bhi	.L764
 8981 0030 01A2     		adr	r2, .L766
 8982 0032 52F823F0 		ldr	pc, [r2, r3, lsl #2]
 8983 0036 00BF     		.p2align 2
 8984              	.L766:
 8985 0038 7D000000 		.word	.L765+1
 8986 003c A3000000 		.word	.L764+1
 8987 0040 A3000000 		.word	.L764+1
 8988 0044 A3000000 		.word	.L764+1
 8989 0048 A3000000 		.word	.L764+1
 8990 004c A3000000 		.word	.L764+1
 8991 0050 A3000000 		.word	.L764+1
 8992 0054 A3000000 		.word	.L764+1
 8993 0058 A3000000 		.word	.L764+1
 8994 005c A3000000 		.word	.L764+1
 8995 0060 A3000000 		.word	.L764+1
 8996 0064 A3000000 		.word	.L764+1
 8997 0068 A3000000 		.word	.L764+1
 8998 006c A3000000 		.word	.L764+1
ARM GAS  C:\Users\PCHAUT~1\AppData\Local\Temp\ccacj52E.s 			page 160


 8999 0070 7D000000 		.word	.L765+1
 9000 0074 8B000000 		.word	.L767+1
 9001 0078 99000000 		.word	.L768+1
 9002              		.p2align 1
 9003              	.L765:
 9004              		.loc 1 1403 0
 9005 007c 9DF81030 		ldrb	r3, [sp, #16]	@ zero_extendqisi2
 9006 0080 1A46     		mov	r2, r3
 9007 0082 009B     		ldr	r3, [sp]
 9008 0084 1A60     		str	r2, [r3]
 9009              		.loc 1 1404 0
 9010 0086 0123     		movs	r3, #1
 9011 0088 0FE0     		b	.L769
 9012              	.L767:
 9013              		.loc 1 1406 0
 9014 008a BDF81030 		ldrh	r3, [sp, #16]
 9015 008e 1A46     		mov	r2, r3
 9016 0090 009B     		ldr	r3, [sp]
 9017 0092 1A60     		str	r2, [r3]
 9018              		.loc 1 1407 0
 9019 0094 0123     		movs	r3, #1
 9020 0096 08E0     		b	.L769
 9021              	.L768:
 9022              		.loc 1 1409 0
 9023 0098 049A     		ldr	r2, [sp, #16]
 9024 009a 009B     		ldr	r3, [sp]
 9025 009c 1A60     		str	r2, [r3]
 9026              		.loc 1 1410 0
 9027 009e 0123     		movs	r3, #1
 9028 00a0 03E0     		b	.L769
 9029              	.L764:
 9030              		.loc 1 1412 0
 9031 00a2 019B     		ldr	r3, [sp, #4]
 9032 00a4 0D22     		movs	r2, #13
 9033 00a6 1A70     		strb	r2, [r3]
 9034              		.loc 1 1413 0
 9035 00a8 0023     		movs	r3, #0
 9036              	.L769:
 9037              		.loc 1 1415 0 discriminator 1
 9038 00aa 1846     		mov	r0, r3
 9039 00ac 044B     		ldr	r3, .L771
 9040 00ae 079A     		ldr	r2, [sp, #28]
 9041 00b0 1B68     		ldr	r3, [r3]
 9042 00b2 9A42     		cmp	r2, r3
 9043 00b4 01D0     		beq	.L770
 9044              		.loc 1 1415 0 is_stmt 0
 9045 00b6 FFF7FEFF 		bl	__stack_chk_fail
 9046              	.L770:
 9047 00ba 09B0     		add	sp, sp, #36
 9048              		.cfi_def_cfa_offset 4
 9049              		@ sp needed
 9050 00bc 5DF804FB 		ldr	pc, [sp], #4
 9051              	.L772:
 9052              		.align	2
 9053              	.L771:
 9054 00c0 00000000 		.word	__stack_chk_guard
 9055              		.cfi_endproc
ARM GAS  C:\Users\PCHAUT~1\AppData\Local\Temp\ccacj52E.s 			page 161


 9056              	.LFE99:
 9057              		.size	cmp_read_uint, .-cmp_read_uint
 9058              		.section	.text.cmp_read_ulong,"ax",%progbits
 9059              		.align	1
 9060              		.p2align 4,,15
 9061              		.global	cmp_read_ulong
 9062              		.syntax unified
 9063              		.thumb
 9064              		.thumb_func
 9065              		.fpu fpv4-sp-d16
 9066              		.type	cmp_read_ulong, %function
 9067              	cmp_read_ulong:
 9068              	.LFB100:
 9069              		.loc 1 1417 0 is_stmt 1
 9070              		.cfi_startproc
 9071              		@ args = 0, pretend = 0, frame = 32
 9072              		@ frame_needed = 0, uses_anonymous_args = 0
 9073 0000 10B5     		push	{r4, lr}
 9074              		.cfi_def_cfa_offset 8
 9075              		.cfi_offset 4, -8
 9076              		.cfi_offset 14, -4
 9077 0002 88B0     		sub	sp, sp, #32
 9078              		.cfi_def_cfa_offset 40
 9079 0004 0190     		str	r0, [sp, #4]
 9080 0006 0091     		str	r1, [sp]
 9081              		.loc 1 1417 0
 9082 0008 364B     		ldr	r3, .L784
 9083 000a 1B68     		ldr	r3, [r3]
 9084 000c 0793     		str	r3, [sp, #28]
 9085              		.loc 1 1420 0
 9086 000e 02AB     		add	r3, sp, #8
 9087 0010 1946     		mov	r1, r3
 9088 0012 0198     		ldr	r0, [sp, #4]
 9089 0014 FFF7FEFF 		bl	cmp_read_object
 9090 0018 0346     		mov	r3, r0
 9091 001a 83F00103 		eor	r3, r3, #1
 9092 001e DBB2     		uxtb	r3, r3
 9093 0020 002B     		cmp	r3, #0
 9094 0022 01D0     		beq	.L774
 9095              		.loc 1 1421 0
 9096 0024 0023     		movs	r3, #0
 9097 0026 52E0     		b	.L782
 9098              	.L774:
 9099              		.loc 1 1423 0
 9100 0028 9DF80830 		ldrb	r3, [sp, #8]	@ zero_extendqisi2
 9101 002c 112B     		cmp	r3, #17
 9102 002e 4AD8     		bhi	.L776
 9103 0030 01A2     		adr	r2, .L778
 9104 0032 52F823F0 		ldr	pc, [r2, r3, lsl #2]
 9105 0036 00BF     		.p2align 2
 9106              	.L778:
 9107 0038 81000000 		.word	.L777+1
 9108 003c C7000000 		.word	.L776+1
 9109 0040 C7000000 		.word	.L776+1
 9110 0044 C7000000 		.word	.L776+1
 9111 0048 C7000000 		.word	.L776+1
 9112 004c C7000000 		.word	.L776+1
ARM GAS  C:\Users\PCHAUT~1\AppData\Local\Temp\ccacj52E.s 			page 162


 9113 0050 C7000000 		.word	.L776+1
 9114 0054 C7000000 		.word	.L776+1
 9115 0058 C7000000 		.word	.L776+1
 9116 005c C7000000 		.word	.L776+1
 9117 0060 C7000000 		.word	.L776+1
 9118 0064 C7000000 		.word	.L776+1
 9119 0068 C7000000 		.word	.L776+1
 9120 006c C7000000 		.word	.L776+1
 9121 0070 81000000 		.word	.L777+1
 9122 0074 95000000 		.word	.L779+1
 9123 0078 A9000000 		.word	.L780+1
 9124 007c B9000000 		.word	.L781+1
 9125              		.p2align 1
 9126              	.L777:
 9127              		.loc 1 1426 0
 9128 0080 9DF81030 		ldrb	r3, [sp, #16]	@ zero_extendqisi2
 9129 0084 DBB2     		uxtb	r3, r3
 9130 0086 4FF00004 		mov	r4, #0
 9131 008a 009A     		ldr	r2, [sp]
 9132 008c C2E90034 		strd	r3, [r2]
 9133              		.loc 1 1427 0
 9134 0090 0123     		movs	r3, #1
 9135 0092 1CE0     		b	.L782
 9136              	.L779:
 9137              		.loc 1 1429 0
 9138 0094 BDF81030 		ldrh	r3, [sp, #16]
 9139 0098 9BB2     		uxth	r3, r3
 9140 009a 4FF00004 		mov	r4, #0
 9141 009e 009A     		ldr	r2, [sp]
 9142 00a0 C2E90034 		strd	r3, [r2]
 9143              		.loc 1 1430 0
 9144 00a4 0123     		movs	r3, #1
 9145 00a6 12E0     		b	.L782
 9146              	.L780:
 9147              		.loc 1 1432 0
 9148 00a8 049B     		ldr	r3, [sp, #16]
 9149 00aa 4FF00004 		mov	r4, #0
 9150 00ae 009A     		ldr	r2, [sp]
 9151 00b0 C2E90034 		strd	r3, [r2]
 9152              		.loc 1 1433 0
 9153 00b4 0123     		movs	r3, #1
 9154 00b6 0AE0     		b	.L782
 9155              	.L781:
 9156              		.loc 1 1435 0
 9157 00b8 DDE90434 		ldrd	r3, [sp, #16]
 9158 00bc 009A     		ldr	r2, [sp]
 9159 00be C2E90034 		strd	r3, [r2]
 9160              		.loc 1 1436 0
 9161 00c2 0123     		movs	r3, #1
 9162 00c4 03E0     		b	.L782
 9163              	.L776:
 9164              		.loc 1 1438 0
 9165 00c6 019B     		ldr	r3, [sp, #4]
 9166 00c8 0D22     		movs	r2, #13
 9167 00ca 1A70     		strb	r2, [r3]
 9168              		.loc 1 1439 0
 9169 00cc 0023     		movs	r3, #0
ARM GAS  C:\Users\PCHAUT~1\AppData\Local\Temp\ccacj52E.s 			page 163


 9170              	.L782:
 9171              		.loc 1 1441 0 discriminator 1
 9172 00ce 1846     		mov	r0, r3
 9173 00d0 044B     		ldr	r3, .L784
 9174 00d2 079A     		ldr	r2, [sp, #28]
 9175 00d4 1B68     		ldr	r3, [r3]
 9176 00d6 9A42     		cmp	r2, r3
 9177 00d8 01D0     		beq	.L783
 9178              		.loc 1 1441 0 is_stmt 0
 9179 00da FFF7FEFF 		bl	__stack_chk_fail
 9180              	.L783:
 9181 00de 08B0     		add	sp, sp, #32
 9182              		.cfi_def_cfa_offset 8
 9183              		@ sp needed
 9184 00e0 10BD     		pop	{r4, pc}
 9185              	.L785:
 9186 00e2 00BF     		.align	2
 9187              	.L784:
 9188 00e4 00000000 		.word	__stack_chk_guard
 9189              		.cfi_endproc
 9190              	.LFE100:
 9191              		.size	cmp_read_ulong, .-cmp_read_ulong
 9192              		.section	.text.cmp_read_uinteger,"ax",%progbits
 9193              		.align	1
 9194              		.p2align 4,,15
 9195              		.global	cmp_read_uinteger
 9196              		.syntax unified
 9197              		.thumb
 9198              		.thumb_func
 9199              		.fpu fpv4-sp-d16
 9200              		.type	cmp_read_uinteger, %function
 9201              	cmp_read_uinteger:
 9202              	.LFB101:
 9203              		.loc 1 1443 0 is_stmt 1
 9204              		.cfi_startproc
 9205              		@ args = 0, pretend = 0, frame = 16
 9206              		@ frame_needed = 0, uses_anonymous_args = 0
 9207 0000 00B5     		push	{lr}
 9208              		.cfi_def_cfa_offset 4
 9209              		.cfi_offset 14, -4
 9210 0002 85B0     		sub	sp, sp, #20
 9211              		.cfi_def_cfa_offset 24
 9212 0004 0190     		str	r0, [sp, #4]
 9213 0006 0091     		str	r1, [sp]
 9214              		.loc 1 1443 0
 9215 0008 094B     		ldr	r3, .L789
 9216 000a 1B68     		ldr	r3, [r3]
 9217 000c 0393     		str	r3, [sp, #12]
 9218              		.loc 1 1444 0
 9219 000e 0099     		ldr	r1, [sp]
 9220 0010 0198     		ldr	r0, [sp, #4]
 9221 0012 FFF7FEFF 		bl	cmp_read_ulong
 9222 0016 0346     		mov	r3, r0
 9223              		.loc 1 1445 0
 9224 0018 1846     		mov	r0, r3
 9225 001a 054B     		ldr	r3, .L789
 9226 001c 039A     		ldr	r2, [sp, #12]
ARM GAS  C:\Users\PCHAUT~1\AppData\Local\Temp\ccacj52E.s 			page 164


 9227 001e 1B68     		ldr	r3, [r3]
 9228 0020 9A42     		cmp	r2, r3
 9229 0022 01D0     		beq	.L788
 9230 0024 FFF7FEFF 		bl	__stack_chk_fail
 9231              	.L788:
 9232 0028 05B0     		add	sp, sp, #20
 9233              		.cfi_def_cfa_offset 4
 9234              		@ sp needed
 9235 002a 5DF804FB 		ldr	pc, [sp], #4
 9236              	.L790:
 9237 002e 00BF     		.align	2
 9238              	.L789:
 9239 0030 00000000 		.word	__stack_chk_guard
 9240              		.cfi_endproc
 9241              	.LFE101:
 9242              		.size	cmp_read_uinteger, .-cmp_read_uinteger
 9243              		.global	__aeabi_d2f
 9244              		.section	.text.cmp_read_float,"ax",%progbits
 9245              		.align	1
 9246              		.p2align 4,,15
 9247              		.global	cmp_read_float
 9248              		.syntax unified
 9249              		.thumb
 9250              		.thumb_func
 9251              		.fpu fpv4-sp-d16
 9252              		.type	cmp_read_float, %function
 9253              	cmp_read_float:
 9254              	.LFB102:
 9255              		.loc 1 1447 0
 9256              		.cfi_startproc
 9257              		@ args = 0, pretend = 0, frame = 32
 9258              		@ frame_needed = 0, uses_anonymous_args = 0
 9259 0000 10B5     		push	{r4, lr}
 9260              		.cfi_def_cfa_offset 8
 9261              		.cfi_offset 4, -8
 9262              		.cfi_offset 14, -4
 9263 0002 88B0     		sub	sp, sp, #32
 9264              		.cfi_def_cfa_offset 40
 9265 0004 0190     		str	r0, [sp, #4]
 9266 0006 0091     		str	r1, [sp]
 9267              		.loc 1 1447 0
 9268 0008 1A4B     		ldr	r3, .L798
 9269 000a 1B68     		ldr	r3, [r3]
 9270 000c 0793     		str	r3, [sp, #28]
 9271              		.loc 1 1450 0
 9272 000e 02AB     		add	r3, sp, #8
 9273 0010 1946     		mov	r1, r3
 9274 0012 0198     		ldr	r0, [sp, #4]
 9275 0014 FFF7FEFF 		bl	cmp_read_object
 9276 0018 0346     		mov	r3, r0
 9277 001a 83F00103 		eor	r3, r3, #1
 9278 001e DBB2     		uxtb	r3, r3
 9279 0020 002B     		cmp	r3, #0
 9280 0022 01D0     		beq	.L792
 9281              		.loc 1 1451 0
 9282 0024 0023     		movs	r3, #0
 9283 0026 1BE0     		b	.L796
ARM GAS  C:\Users\PCHAUT~1\AppData\Local\Temp\ccacj52E.s 			page 165


 9284              	.L792:
 9285              		.loc 1 1453 0
 9286 0028 9DF80830 		ldrb	r3, [sp, #8]	@ zero_extendqisi2
 9287 002c 0C2B     		cmp	r3, #12
 9288 002e 04D1     		bne	.L794
 9289              		.loc 1 1454 0
 9290 0030 049A     		ldr	r2, [sp, #16]	@ float
 9291 0032 009B     		ldr	r3, [sp]
 9292 0034 1A60     		str	r2, [r3]	@ float
 9293              		.loc 1 1455 0
 9294 0036 0123     		movs	r3, #1
 9295 0038 12E0     		b	.L796
 9296              	.L794:
 9297              		.loc 1 1458 0
 9298 003a 9DF80830 		ldrb	r3, [sp, #8]	@ zero_extendqisi2
 9299 003e 0D2B     		cmp	r3, #13
 9300 0040 0AD1     		bne	.L795
 9301              		.loc 1 1459 0
 9302 0042 DDE90434 		ldrd	r3, [sp, #16]
 9303 0046 1846     		mov	r0, r3
 9304 0048 2146     		mov	r1, r4
 9305 004a FFF7FEFF 		bl	__aeabi_d2f
 9306              	.LVL48:
 9307 004e 0246     		mov	r2, r0	@ float
 9308 0050 009B     		ldr	r3, [sp]
 9309 0052 1A60     		str	r2, [r3]	@ float
 9310              		.loc 1 1460 0
 9311 0054 0123     		movs	r3, #1
 9312 0056 03E0     		b	.L796
 9313              	.L795:
 9314              		.loc 1 1463 0
 9315 0058 019B     		ldr	r3, [sp, #4]
 9316 005a 0D22     		movs	r2, #13
 9317 005c 1A70     		strb	r2, [r3]
 9318              		.loc 1 1464 0
 9319 005e 0023     		movs	r3, #0
 9320              	.L796:
 9321              		.loc 1 1465 0 discriminator 1
 9322 0060 1846     		mov	r0, r3
 9323 0062 044B     		ldr	r3, .L798
 9324 0064 079A     		ldr	r2, [sp, #28]
 9325 0066 1B68     		ldr	r3, [r3]
 9326 0068 9A42     		cmp	r2, r3
 9327 006a 01D0     		beq	.L797
 9328              		.loc 1 1465 0 is_stmt 0
 9329 006c FFF7FEFF 		bl	__stack_chk_fail
 9330              	.L797:
 9331 0070 08B0     		add	sp, sp, #32
 9332              		.cfi_def_cfa_offset 8
 9333              		@ sp needed
 9334 0072 10BD     		pop	{r4, pc}
 9335              	.L799:
 9336              		.align	2
 9337              	.L798:
 9338 0074 00000000 		.word	__stack_chk_guard
 9339              		.cfi_endproc
 9340              	.LFE102:
ARM GAS  C:\Users\PCHAUT~1\AppData\Local\Temp\ccacj52E.s 			page 166


 9341              		.size	cmp_read_float, .-cmp_read_float
 9342              		.global	__aeabi_f2d
 9343              		.section	.text.cmp_read_double,"ax",%progbits
 9344              		.align	1
 9345              		.p2align 4,,15
 9346              		.global	cmp_read_double
 9347              		.syntax unified
 9348              		.thumb
 9349              		.thumb_func
 9350              		.fpu fpv4-sp-d16
 9351              		.type	cmp_read_double, %function
 9352              	cmp_read_double:
 9353              	.LFB103:
 9354              		.loc 1 1467 0 is_stmt 1
 9355              		.cfi_startproc
 9356              		@ args = 0, pretend = 0, frame = 32
 9357              		@ frame_needed = 0, uses_anonymous_args = 0
 9358 0000 10B5     		push	{r4, lr}
 9359              		.cfi_def_cfa_offset 8
 9360              		.cfi_offset 4, -8
 9361              		.cfi_offset 14, -4
 9362 0002 88B0     		sub	sp, sp, #32
 9363              		.cfi_def_cfa_offset 40
 9364 0004 0190     		str	r0, [sp, #4]
 9365 0006 0091     		str	r1, [sp]
 9366              		.loc 1 1467 0
 9367 0008 1B4B     		ldr	r3, .L807
 9368 000a 1B68     		ldr	r3, [r3]
 9369 000c 0793     		str	r3, [sp, #28]
 9370              		.loc 1 1470 0
 9371 000e 02AB     		add	r3, sp, #8
 9372 0010 1946     		mov	r1, r3
 9373 0012 0198     		ldr	r0, [sp, #4]
 9374 0014 FFF7FEFF 		bl	cmp_read_object
 9375 0018 0346     		mov	r3, r0
 9376 001a 83F00103 		eor	r3, r3, #1
 9377 001e DBB2     		uxtb	r3, r3
 9378 0020 002B     		cmp	r3, #0
 9379 0022 01D0     		beq	.L801
 9380              		.loc 1 1471 0
 9381 0024 0023     		movs	r3, #0
 9382 0026 1DE0     		b	.L805
 9383              	.L801:
 9384              		.loc 1 1473 0
 9385 0028 9DF80830 		ldrb	r3, [sp, #8]	@ zero_extendqisi2
 9386 002c 0C2B     		cmp	r3, #12
 9387 002e 0AD1     		bne	.L803
 9388              		.loc 1 1474 0
 9389 0030 049B     		ldr	r3, [sp, #16]	@ float
 9390 0032 1846     		mov	r0, r3	@ float
 9391 0034 FFF7FEFF 		bl	__aeabi_f2d
 9392              	.LVL49:
 9393 0038 0346     		mov	r3, r0
 9394 003a 0C46     		mov	r4, r1
 9395 003c 009A     		ldr	r2, [sp]
 9396 003e C2E90034 		strd	r3, [r2]
 9397              		.loc 1 1475 0
ARM GAS  C:\Users\PCHAUT~1\AppData\Local\Temp\ccacj52E.s 			page 167


 9398 0042 0123     		movs	r3, #1
 9399 0044 0EE0     		b	.L805
 9400              	.L803:
 9401              		.loc 1 1478 0
 9402 0046 9DF80830 		ldrb	r3, [sp, #8]	@ zero_extendqisi2
 9403 004a 0D2B     		cmp	r3, #13
 9404 004c 06D1     		bne	.L804
 9405              		.loc 1 1479 0
 9406 004e DDE90434 		ldrd	r3, [sp, #16]
 9407 0052 009A     		ldr	r2, [sp]
 9408 0054 C2E90034 		strd	r3, [r2]
 9409              		.loc 1 1480 0
 9410 0058 0123     		movs	r3, #1
 9411 005a 03E0     		b	.L805
 9412              	.L804:
 9413              		.loc 1 1483 0
 9414 005c 019B     		ldr	r3, [sp, #4]
 9415 005e 0D22     		movs	r2, #13
 9416 0060 1A70     		strb	r2, [r3]
 9417              		.loc 1 1484 0
 9418 0062 0023     		movs	r3, #0
 9419              	.L805:
 9420              		.loc 1 1485 0 discriminator 1
 9421 0064 1846     		mov	r0, r3
 9422 0066 044B     		ldr	r3, .L807
 9423 0068 079A     		ldr	r2, [sp, #28]
 9424 006a 1B68     		ldr	r3, [r3]
 9425 006c 9A42     		cmp	r2, r3
 9426 006e 01D0     		beq	.L806
 9427              		.loc 1 1485 0 is_stmt 0
 9428 0070 FFF7FEFF 		bl	__stack_chk_fail
 9429              	.L806:
 9430 0074 08B0     		add	sp, sp, #32
 9431              		.cfi_def_cfa_offset 8
 9432              		@ sp needed
 9433 0076 10BD     		pop	{r4, pc}
 9434              	.L808:
 9435              		.align	2
 9436              	.L807:
 9437 0078 00000000 		.word	__stack_chk_guard
 9438              		.cfi_endproc
 9439              	.LFE103:
 9440              		.size	cmp_read_double, .-cmp_read_double
 9441              		.section	.text.cmp_read_nil,"ax",%progbits
 9442              		.align	1
 9443              		.p2align 4,,15
 9444              		.global	cmp_read_nil
 9445              		.syntax unified
 9446              		.thumb
 9447              		.thumb_func
 9448              		.fpu fpv4-sp-d16
 9449              		.type	cmp_read_nil, %function
 9450              	cmp_read_nil:
 9451              	.LFB104:
 9452              		.loc 1 1487 0 is_stmt 1
 9453              		.cfi_startproc
 9454              		@ args = 0, pretend = 0, frame = 32
ARM GAS  C:\Users\PCHAUT~1\AppData\Local\Temp\ccacj52E.s 			page 168


 9455              		@ frame_needed = 0, uses_anonymous_args = 0
 9456 0000 00B5     		push	{lr}
 9457              		.cfi_def_cfa_offset 4
 9458              		.cfi_offset 14, -4
 9459 0002 89B0     		sub	sp, sp, #36
 9460              		.cfi_def_cfa_offset 40
 9461 0004 0190     		str	r0, [sp, #4]
 9462              		.loc 1 1487 0
 9463 0006 124B     		ldr	r3, .L815
 9464 0008 1B68     		ldr	r3, [r3]
 9465 000a 0793     		str	r3, [sp, #28]
 9466              		.loc 1 1490 0
 9467 000c 02AB     		add	r3, sp, #8
 9468 000e 1946     		mov	r1, r3
 9469 0010 0198     		ldr	r0, [sp, #4]
 9470 0012 FFF7FEFF 		bl	cmp_read_object
 9471 0016 0346     		mov	r3, r0
 9472 0018 83F00103 		eor	r3, r3, #1
 9473 001c DBB2     		uxtb	r3, r3
 9474 001e 002B     		cmp	r3, #0
 9475 0020 01D0     		beq	.L810
 9476              		.loc 1 1491 0
 9477 0022 0023     		movs	r3, #0
 9478 0024 09E0     		b	.L813
 9479              	.L810:
 9480              		.loc 1 1493 0
 9481 0026 9DF80830 		ldrb	r3, [sp, #8]	@ zero_extendqisi2
 9482 002a 042B     		cmp	r3, #4
 9483 002c 01D1     		bne	.L812
 9484              		.loc 1 1494 0
 9485 002e 0123     		movs	r3, #1
 9486 0030 03E0     		b	.L813
 9487              	.L812:
 9488              		.loc 1 1496 0
 9489 0032 019B     		ldr	r3, [sp, #4]
 9490 0034 0D22     		movs	r2, #13
 9491 0036 1A70     		strb	r2, [r3]
 9492              		.loc 1 1497 0
 9493 0038 0023     		movs	r3, #0
 9494              	.L813:
 9495              		.loc 1 1498 0 discriminator 1
 9496 003a 1846     		mov	r0, r3
 9497 003c 044B     		ldr	r3, .L815
 9498 003e 079A     		ldr	r2, [sp, #28]
 9499 0040 1B68     		ldr	r3, [r3]
 9500 0042 9A42     		cmp	r2, r3
 9501 0044 01D0     		beq	.L814
 9502              		.loc 1 1498 0 is_stmt 0
 9503 0046 FFF7FEFF 		bl	__stack_chk_fail
 9504              	.L814:
 9505 004a 09B0     		add	sp, sp, #36
 9506              		.cfi_def_cfa_offset 4
 9507              		@ sp needed
 9508 004c 5DF804FB 		ldr	pc, [sp], #4
 9509              	.L816:
 9510              		.align	2
 9511              	.L815:
ARM GAS  C:\Users\PCHAUT~1\AppData\Local\Temp\ccacj52E.s 			page 169


 9512 0050 00000000 		.word	__stack_chk_guard
 9513              		.cfi_endproc
 9514              	.LFE104:
 9515              		.size	cmp_read_nil, .-cmp_read_nil
 9516              		.section	.text.cmp_read_bool,"ax",%progbits
 9517              		.align	1
 9518              		.p2align 4,,15
 9519              		.global	cmp_read_bool
 9520              		.syntax unified
 9521              		.thumb
 9522              		.thumb_func
 9523              		.fpu fpv4-sp-d16
 9524              		.type	cmp_read_bool, %function
 9525              	cmp_read_bool:
 9526              	.LFB105:
 9527              		.loc 1 1500 0 is_stmt 1
 9528              		.cfi_startproc
 9529              		@ args = 0, pretend = 0, frame = 32
 9530              		@ frame_needed = 0, uses_anonymous_args = 0
 9531 0000 00B5     		push	{lr}
 9532              		.cfi_def_cfa_offset 4
 9533              		.cfi_offset 14, -4
 9534 0002 89B0     		sub	sp, sp, #36
 9535              		.cfi_def_cfa_offset 40
 9536 0004 0190     		str	r0, [sp, #4]
 9537 0006 0091     		str	r1, [sp]
 9538              		.loc 1 1500 0
 9539 0008 174B     		ldr	r3, .L825
 9540 000a 1B68     		ldr	r3, [r3]
 9541 000c 0793     		str	r3, [sp, #28]
 9542              		.loc 1 1503 0
 9543 000e 02AB     		add	r3, sp, #8
 9544 0010 1946     		mov	r1, r3
 9545 0012 0198     		ldr	r0, [sp, #4]
 9546 0014 FFF7FEFF 		bl	cmp_read_object
 9547 0018 0346     		mov	r3, r0
 9548 001a 83F00103 		eor	r3, r3, #1
 9549 001e DBB2     		uxtb	r3, r3
 9550 0020 002B     		cmp	r3, #0
 9551 0022 01D0     		beq	.L818
 9552              		.loc 1 1504 0
 9553 0024 0023     		movs	r3, #0
 9554 0026 14E0     		b	.L823
 9555              	.L818:
 9556              		.loc 1 1506 0
 9557 0028 9DF80830 		ldrb	r3, [sp, #8]	@ zero_extendqisi2
 9558 002c 052B     		cmp	r3, #5
 9559 002e 04D0     		beq	.L820
 9560              		.loc 1 1507 0
 9561 0030 019B     		ldr	r3, [sp, #4]
 9562 0032 0D22     		movs	r2, #13
 9563 0034 1A70     		strb	r2, [r3]
 9564              		.loc 1 1508 0
 9565 0036 0023     		movs	r3, #0
 9566 0038 0BE0     		b	.L823
 9567              	.L820:
 9568              		.loc 1 1511 0
ARM GAS  C:\Users\PCHAUT~1\AppData\Local\Temp\ccacj52E.s 			page 170


 9569 003a 9DF81030 		ldrb	r3, [sp, #16]	@ zero_extendqisi2
 9570 003e 002B     		cmp	r3, #0
 9571 0040 03D0     		beq	.L821
 9572              		.loc 1 1512 0
 9573 0042 009B     		ldr	r3, [sp]
 9574 0044 0122     		movs	r2, #1
 9575 0046 1A70     		strb	r2, [r3]
 9576 0048 02E0     		b	.L822
 9577              	.L821:
 9578              		.loc 1 1514 0
 9579 004a 009B     		ldr	r3, [sp]
 9580 004c 0022     		movs	r2, #0
 9581 004e 1A70     		strb	r2, [r3]
 9582              	.L822:
 9583              		.loc 1 1516 0
 9584 0050 0123     		movs	r3, #1
 9585              	.L823:
 9586              		.loc 1 1517 0 discriminator 1
 9587 0052 1846     		mov	r0, r3
 9588 0054 044B     		ldr	r3, .L825
 9589 0056 079A     		ldr	r2, [sp, #28]
 9590 0058 1B68     		ldr	r3, [r3]
 9591 005a 9A42     		cmp	r2, r3
 9592 005c 01D0     		beq	.L824
 9593              		.loc 1 1517 0 is_stmt 0
 9594 005e FFF7FEFF 		bl	__stack_chk_fail
 9595              	.L824:
 9596 0062 09B0     		add	sp, sp, #36
 9597              		.cfi_def_cfa_offset 4
 9598              		@ sp needed
 9599 0064 5DF804FB 		ldr	pc, [sp], #4
 9600              	.L826:
 9601              		.align	2
 9602              	.L825:
 9603 0068 00000000 		.word	__stack_chk_guard
 9604              		.cfi_endproc
 9605              	.LFE105:
 9606              		.size	cmp_read_bool, .-cmp_read_bool
 9607              		.section	.text.cmp_read_bool_as_u8,"ax",%progbits
 9608              		.align	1
 9609              		.p2align 4,,15
 9610              		.global	cmp_read_bool_as_u8
 9611              		.syntax unified
 9612              		.thumb
 9613              		.thumb_func
 9614              		.fpu fpv4-sp-d16
 9615              		.type	cmp_read_bool_as_u8, %function
 9616              	cmp_read_bool_as_u8:
 9617              	.LFB106:
 9618              		.loc 1 1519 0 is_stmt 1
 9619              		.cfi_startproc
 9620              		@ args = 0, pretend = 0, frame = 32
 9621              		@ frame_needed = 0, uses_anonymous_args = 0
 9622 0000 00B5     		push	{lr}
 9623              		.cfi_def_cfa_offset 4
 9624              		.cfi_offset 14, -4
 9625 0002 89B0     		sub	sp, sp, #36
ARM GAS  C:\Users\PCHAUT~1\AppData\Local\Temp\ccacj52E.s 			page 171


 9626              		.cfi_def_cfa_offset 40
 9627 0004 0190     		str	r0, [sp, #4]
 9628 0006 0091     		str	r1, [sp]
 9629              		.loc 1 1519 0
 9630 0008 174B     		ldr	r3, .L835
 9631 000a 1B68     		ldr	r3, [r3]
 9632 000c 0793     		str	r3, [sp, #28]
 9633              		.loc 1 1522 0
 9634 000e 02AB     		add	r3, sp, #8
 9635 0010 1946     		mov	r1, r3
 9636 0012 0198     		ldr	r0, [sp, #4]
 9637 0014 FFF7FEFF 		bl	cmp_read_object
 9638 0018 0346     		mov	r3, r0
 9639 001a 83F00103 		eor	r3, r3, #1
 9640 001e DBB2     		uxtb	r3, r3
 9641 0020 002B     		cmp	r3, #0
 9642 0022 01D0     		beq	.L828
 9643              		.loc 1 1523 0
 9644 0024 0023     		movs	r3, #0
 9645 0026 14E0     		b	.L833
 9646              	.L828:
 9647              		.loc 1 1525 0
 9648 0028 9DF80830 		ldrb	r3, [sp, #8]	@ zero_extendqisi2
 9649 002c 052B     		cmp	r3, #5
 9650 002e 04D0     		beq	.L830
 9651              		.loc 1 1526 0
 9652 0030 019B     		ldr	r3, [sp, #4]
 9653 0032 0D22     		movs	r2, #13
 9654 0034 1A70     		strb	r2, [r3]
 9655              		.loc 1 1527 0
 9656 0036 0023     		movs	r3, #0
 9657 0038 0BE0     		b	.L833
 9658              	.L830:
 9659              		.loc 1 1530 0
 9660 003a 9DF81030 		ldrb	r3, [sp, #16]	@ zero_extendqisi2
 9661 003e 002B     		cmp	r3, #0
 9662 0040 03D0     		beq	.L831
 9663              		.loc 1 1531 0
 9664 0042 009B     		ldr	r3, [sp]
 9665 0044 0122     		movs	r2, #1
 9666 0046 1A70     		strb	r2, [r3]
 9667 0048 02E0     		b	.L832
 9668              	.L831:
 9669              		.loc 1 1533 0
 9670 004a 009B     		ldr	r3, [sp]
 9671 004c 0022     		movs	r2, #0
 9672 004e 1A70     		strb	r2, [r3]
 9673              	.L832:
 9674              		.loc 1 1535 0
 9675 0050 0123     		movs	r3, #1
 9676              	.L833:
 9677              		.loc 1 1536 0 discriminator 1
 9678 0052 1846     		mov	r0, r3
 9679 0054 044B     		ldr	r3, .L835
 9680 0056 079A     		ldr	r2, [sp, #28]
 9681 0058 1B68     		ldr	r3, [r3]
 9682 005a 9A42     		cmp	r2, r3
ARM GAS  C:\Users\PCHAUT~1\AppData\Local\Temp\ccacj52E.s 			page 172


 9683 005c 01D0     		beq	.L834
 9684              		.loc 1 1536 0 is_stmt 0
 9685 005e FFF7FEFF 		bl	__stack_chk_fail
 9686              	.L834:
 9687 0062 09B0     		add	sp, sp, #36
 9688              		.cfi_def_cfa_offset 4
 9689              		@ sp needed
 9690 0064 5DF804FB 		ldr	pc, [sp], #4
 9691              	.L836:
 9692              		.align	2
 9693              	.L835:
 9694 0068 00000000 		.word	__stack_chk_guard
 9695              		.cfi_endproc
 9696              	.LFE106:
 9697              		.size	cmp_read_bool_as_u8, .-cmp_read_bool_as_u8
 9698              		.section	.text.cmp_read_str_size,"ax",%progbits
 9699              		.align	1
 9700              		.p2align 4,,15
 9701              		.global	cmp_read_str_size
 9702              		.syntax unified
 9703              		.thumb
 9704              		.thumb_func
 9705              		.fpu fpv4-sp-d16
 9706              		.type	cmp_read_str_size, %function
 9707              	cmp_read_str_size:
 9708              	.LFB107:
 9709              		.loc 1 1538 0 is_stmt 1
 9710              		.cfi_startproc
 9711              		@ args = 0, pretend = 0, frame = 32
 9712              		@ frame_needed = 0, uses_anonymous_args = 0
 9713 0000 00B5     		push	{lr}
 9714              		.cfi_def_cfa_offset 4
 9715              		.cfi_offset 14, -4
 9716 0002 89B0     		sub	sp, sp, #36
 9717              		.cfi_def_cfa_offset 40
 9718 0004 0190     		str	r0, [sp, #4]
 9719 0006 0091     		str	r1, [sp]
 9720              		.loc 1 1538 0
 9721 0008 164B     		ldr	r3, .L844
 9722 000a 1B68     		ldr	r3, [r3]
 9723 000c 0793     		str	r3, [sp, #28]
 9724              		.loc 1 1541 0
 9725 000e 02AB     		add	r3, sp, #8
 9726 0010 1946     		mov	r1, r3
 9727 0012 0198     		ldr	r0, [sp, #4]
 9728 0014 FFF7FEFF 		bl	cmp_read_object
 9729 0018 0346     		mov	r3, r0
 9730 001a 83F00103 		eor	r3, r3, #1
 9731 001e DBB2     		uxtb	r3, r3
 9732 0020 002B     		cmp	r3, #0
 9733 0022 01D0     		beq	.L838
 9734              		.loc 1 1542 0
 9735 0024 0023     		movs	r3, #0
 9736 0026 11E0     		b	.L842
 9737              	.L838:
 9738              		.loc 1 1544 0
 9739 0028 9DF80830 		ldrb	r3, [sp, #8]	@ zero_extendqisi2
ARM GAS  C:\Users\PCHAUT~1\AppData\Local\Temp\ccacj52E.s 			page 173


 9740 002c 032B     		cmp	r3, #3
 9741 002e 04D0     		beq	.L841
 9742 0030 032B     		cmp	r3, #3
 9743 0032 07DB     		blt	.L840
 9744 0034 1B3B     		subs	r3, r3, #27
 9745 0036 022B     		cmp	r3, #2
 9746 0038 04D8     		bhi	.L840
 9747              	.L841:
 9748              		.loc 1 1549 0
 9749 003a 049A     		ldr	r2, [sp, #16]
 9750 003c 009B     		ldr	r3, [sp]
 9751 003e 1A60     		str	r2, [r3]
 9752              		.loc 1 1550 0
 9753 0040 0123     		movs	r3, #1
 9754 0042 03E0     		b	.L842
 9755              	.L840:
 9756              		.loc 1 1552 0
 9757 0044 019B     		ldr	r3, [sp, #4]
 9758 0046 0D22     		movs	r2, #13
 9759 0048 1A70     		strb	r2, [r3]
 9760              		.loc 1 1553 0
 9761 004a 0023     		movs	r3, #0
 9762              	.L842:
 9763              		.loc 1 1555 0 discriminator 1
 9764 004c 1846     		mov	r0, r3
 9765 004e 054B     		ldr	r3, .L844
 9766 0050 079A     		ldr	r2, [sp, #28]
 9767 0052 1B68     		ldr	r3, [r3]
 9768 0054 9A42     		cmp	r2, r3
 9769 0056 01D0     		beq	.L843
 9770              		.loc 1 1555 0 is_stmt 0
 9771 0058 FFF7FEFF 		bl	__stack_chk_fail
 9772              	.L843:
 9773 005c 09B0     		add	sp, sp, #36
 9774              		.cfi_def_cfa_offset 4
 9775              		@ sp needed
 9776 005e 5DF804FB 		ldr	pc, [sp], #4
 9777              	.L845:
 9778 0062 00BF     		.align	2
 9779              	.L844:
 9780 0064 00000000 		.word	__stack_chk_guard
 9781              		.cfi_endproc
 9782              	.LFE107:
 9783              		.size	cmp_read_str_size, .-cmp_read_str_size
 9784              		.section	.text.cmp_read_str,"ax",%progbits
 9785              		.align	1
 9786              		.p2align 4,,15
 9787              		.global	cmp_read_str
 9788              		.syntax unified
 9789              		.thumb
 9790              		.thumb_func
 9791              		.fpu fpv4-sp-d16
 9792              		.type	cmp_read_str, %function
 9793              	cmp_read_str:
 9794              	.LFB108:
 9795              		.loc 1 1557 0 is_stmt 1
 9796              		.cfi_startproc
ARM GAS  C:\Users\PCHAUT~1\AppData\Local\Temp\ccacj52E.s 			page 174


 9797              		@ args = 0, pretend = 0, frame = 24
 9798              		@ frame_needed = 0, uses_anonymous_args = 0
 9799 0000 00B5     		push	{lr}
 9800              		.cfi_def_cfa_offset 4
 9801              		.cfi_offset 14, -4
 9802 0002 87B0     		sub	sp, sp, #28
 9803              		.cfi_def_cfa_offset 32
 9804 0004 0390     		str	r0, [sp, #12]
 9805 0006 0291     		str	r1, [sp, #8]
 9806 0008 0192     		str	r2, [sp, #4]
 9807              		.loc 1 1557 0
 9808 000a 224B     		ldr	r3, .L853
 9809 000c 1B68     		ldr	r3, [r3]
 9810 000e 0593     		str	r3, [sp, #20]
 9811              		.loc 1 1558 0
 9812 0010 0023     		movs	r3, #0
 9813 0012 0493     		str	r3, [sp, #16]
 9814              		.loc 1 1560 0
 9815 0014 04AB     		add	r3, sp, #16
 9816 0016 1946     		mov	r1, r3
 9817 0018 0398     		ldr	r0, [sp, #12]
 9818 001a FFF7FEFF 		bl	cmp_read_str_size
 9819 001e 0346     		mov	r3, r0
 9820 0020 83F00103 		eor	r3, r3, #1
 9821 0024 DBB2     		uxtb	r3, r3
 9822 0026 002B     		cmp	r3, #0
 9823 0028 01D0     		beq	.L847
 9824              		.loc 1 1561 0
 9825 002a 0023     		movs	r3, #0
 9826 002c 27E0     		b	.L851
 9827              	.L847:
 9828              		.loc 1 1563 0
 9829 002e 049B     		ldr	r3, [sp, #16]
 9830 0030 5A1C     		adds	r2, r3, #1
 9831 0032 019B     		ldr	r3, [sp, #4]
 9832 0034 1B68     		ldr	r3, [r3]
 9833 0036 9A42     		cmp	r2, r3
 9834 0038 07D9     		bls	.L849
 9835              		.loc 1 1564 0
 9836 003a 049A     		ldr	r2, [sp, #16]
 9837 003c 019B     		ldr	r3, [sp, #4]
 9838 003e 1A60     		str	r2, [r3]
 9839              		.loc 1 1565 0
 9840 0040 039B     		ldr	r3, [sp, #12]
 9841 0042 0122     		movs	r2, #1
 9842 0044 1A70     		strb	r2, [r3]
 9843              		.loc 1 1566 0
 9844 0046 0023     		movs	r3, #0
 9845 0048 19E0     		b	.L851
 9846              	.L849:
 9847              		.loc 1 1569 0
 9848 004a 039B     		ldr	r3, [sp, #12]
 9849 004c 9B68     		ldr	r3, [r3, #8]
 9850 004e 049A     		ldr	r2, [sp, #16]
 9851 0050 0299     		ldr	r1, [sp, #8]
 9852 0052 0398     		ldr	r0, [sp, #12]
 9853 0054 9847     		blx	r3
ARM GAS  C:\Users\PCHAUT~1\AppData\Local\Temp\ccacj52E.s 			page 175


 9854              	.LVL50:
 9855 0056 0346     		mov	r3, r0
 9856 0058 83F00103 		eor	r3, r3, #1
 9857 005c DBB2     		uxtb	r3, r3
 9858 005e 002B     		cmp	r3, #0
 9859 0060 04D0     		beq	.L850
 9860              		.loc 1 1570 0
 9861 0062 039B     		ldr	r3, [sp, #12]
 9862 0064 0922     		movs	r2, #9
 9863 0066 1A70     		strb	r2, [r3]
 9864              		.loc 1 1571 0
 9865 0068 0023     		movs	r3, #0
 9866 006a 08E0     		b	.L851
 9867              	.L850:
 9868              		.loc 1 1574 0
 9869 006c 049B     		ldr	r3, [sp, #16]
 9870 006e 029A     		ldr	r2, [sp, #8]
 9871 0070 1344     		add	r3, r3, r2
 9872 0072 0022     		movs	r2, #0
 9873 0074 1A70     		strb	r2, [r3]
 9874              		.loc 1 1576 0
 9875 0076 049A     		ldr	r2, [sp, #16]
 9876 0078 019B     		ldr	r3, [sp, #4]
 9877 007a 1A60     		str	r2, [r3]
 9878              		.loc 1 1577 0
 9879 007c 0123     		movs	r3, #1
 9880              	.L851:
 9881              		.loc 1 1578 0 discriminator 1
 9882 007e 1846     		mov	r0, r3
 9883 0080 044B     		ldr	r3, .L853
 9884 0082 059A     		ldr	r2, [sp, #20]
 9885 0084 1B68     		ldr	r3, [r3]
 9886 0086 9A42     		cmp	r2, r3
 9887 0088 01D0     		beq	.L852
 9888              		.loc 1 1578 0 is_stmt 0
 9889 008a FFF7FEFF 		bl	__stack_chk_fail
 9890              	.L852:
 9891 008e 07B0     		add	sp, sp, #28
 9892              		.cfi_def_cfa_offset 4
 9893              		@ sp needed
 9894 0090 5DF804FB 		ldr	pc, [sp], #4
 9895              	.L854:
 9896              		.align	2
 9897              	.L853:
 9898 0094 00000000 		.word	__stack_chk_guard
 9899              		.cfi_endproc
 9900              	.LFE108:
 9901              		.size	cmp_read_str, .-cmp_read_str
 9902              		.section	.text.cmp_read_bin_size,"ax",%progbits
 9903              		.align	1
 9904              		.p2align 4,,15
 9905              		.global	cmp_read_bin_size
 9906              		.syntax unified
 9907              		.thumb
 9908              		.thumb_func
 9909              		.fpu fpv4-sp-d16
 9910              		.type	cmp_read_bin_size, %function
ARM GAS  C:\Users\PCHAUT~1\AppData\Local\Temp\ccacj52E.s 			page 176


 9911              	cmp_read_bin_size:
 9912              	.LFB109:
 9913              		.loc 1 1580 0 is_stmt 1
 9914              		.cfi_startproc
 9915              		@ args = 0, pretend = 0, frame = 32
 9916              		@ frame_needed = 0, uses_anonymous_args = 0
 9917 0000 00B5     		push	{lr}
 9918              		.cfi_def_cfa_offset 4
 9919              		.cfi_offset 14, -4
 9920 0002 89B0     		sub	sp, sp, #36
 9921              		.cfi_def_cfa_offset 40
 9922 0004 0190     		str	r0, [sp, #4]
 9923 0006 0091     		str	r1, [sp]
 9924              		.loc 1 1580 0
 9925 0008 144B     		ldr	r3, .L862
 9926 000a 1B68     		ldr	r3, [r3]
 9927 000c 0793     		str	r3, [sp, #28]
 9928              		.loc 1 1583 0
 9929 000e 02AB     		add	r3, sp, #8
 9930 0010 1946     		mov	r1, r3
 9931 0012 0198     		ldr	r0, [sp, #4]
 9932 0014 FFF7FEFF 		bl	cmp_read_object
 9933 0018 0346     		mov	r3, r0
 9934 001a 83F00103 		eor	r3, r3, #1
 9935 001e DBB2     		uxtb	r3, r3
 9936 0020 002B     		cmp	r3, #0
 9937 0022 01D0     		beq	.L856
 9938              		.loc 1 1584 0
 9939 0024 0023     		movs	r3, #0
 9940 0026 0DE0     		b	.L860
 9941              	.L856:
 9942              		.loc 1 1586 0
 9943 0028 9DF80830 		ldrb	r3, [sp, #8]	@ zero_extendqisi2
 9944 002c 063B     		subs	r3, r3, #6
 9945 002e 022B     		cmp	r3, #2
 9946 0030 04D8     		bhi	.L858
 9947              		.loc 1 1590 0
 9948 0032 049A     		ldr	r2, [sp, #16]
 9949 0034 009B     		ldr	r3, [sp]
 9950 0036 1A60     		str	r2, [r3]
 9951              		.loc 1 1591 0
 9952 0038 0123     		movs	r3, #1
 9953 003a 03E0     		b	.L860
 9954              	.L858:
 9955              		.loc 1 1593 0
 9956 003c 019B     		ldr	r3, [sp, #4]
 9957 003e 0D22     		movs	r2, #13
 9958 0040 1A70     		strb	r2, [r3]
 9959              		.loc 1 1594 0
 9960 0042 0023     		movs	r3, #0
 9961              	.L860:
 9962              		.loc 1 1596 0 discriminator 1
 9963 0044 1846     		mov	r0, r3
 9964 0046 054B     		ldr	r3, .L862
 9965 0048 079A     		ldr	r2, [sp, #28]
 9966 004a 1B68     		ldr	r3, [r3]
 9967 004c 9A42     		cmp	r2, r3
ARM GAS  C:\Users\PCHAUT~1\AppData\Local\Temp\ccacj52E.s 			page 177


 9968 004e 01D0     		beq	.L861
 9969              		.loc 1 1596 0 is_stmt 0
 9970 0050 FFF7FEFF 		bl	__stack_chk_fail
 9971              	.L861:
 9972 0054 09B0     		add	sp, sp, #36
 9973              		.cfi_def_cfa_offset 4
 9974              		@ sp needed
 9975 0056 5DF804FB 		ldr	pc, [sp], #4
 9976              	.L863:
 9977 005a 00BF     		.align	2
 9978              	.L862:
 9979 005c 00000000 		.word	__stack_chk_guard
 9980              		.cfi_endproc
 9981              	.LFE109:
 9982              		.size	cmp_read_bin_size, .-cmp_read_bin_size
 9983              		.section	.text.cmp_read_bin,"ax",%progbits
 9984              		.align	1
 9985              		.p2align 4,,15
 9986              		.global	cmp_read_bin
 9987              		.syntax unified
 9988              		.thumb
 9989              		.thumb_func
 9990              		.fpu fpv4-sp-d16
 9991              		.type	cmp_read_bin, %function
 9992              	cmp_read_bin:
 9993              	.LFB110:
 9994              		.loc 1 1598 0 is_stmt 1
 9995              		.cfi_startproc
 9996              		@ args = 0, pretend = 0, frame = 24
 9997              		@ frame_needed = 0, uses_anonymous_args = 0
 9998 0000 00B5     		push	{lr}
 9999              		.cfi_def_cfa_offset 4
 10000              		.cfi_offset 14, -4
 10001 0002 87B0     		sub	sp, sp, #28
 10002              		.cfi_def_cfa_offset 32
 10003 0004 0390     		str	r0, [sp, #12]
 10004 0006 0291     		str	r1, [sp, #8]
 10005 0008 0192     		str	r2, [sp, #4]
 10006              		.loc 1 1598 0
 10007 000a 1E4B     		ldr	r3, .L871
 10008 000c 1B68     		ldr	r3, [r3]
 10009 000e 0593     		str	r3, [sp, #20]
 10010              		.loc 1 1599 0
 10011 0010 0023     		movs	r3, #0
 10012 0012 0493     		str	r3, [sp, #16]
 10013              		.loc 1 1601 0
 10014 0014 04AB     		add	r3, sp, #16
 10015 0016 1946     		mov	r1, r3
 10016 0018 0398     		ldr	r0, [sp, #12]
 10017 001a FFF7FEFF 		bl	cmp_read_bin_size
 10018 001e 0346     		mov	r3, r0
 10019 0020 83F00103 		eor	r3, r3, #1
 10020 0024 DBB2     		uxtb	r3, r3
 10021 0026 002B     		cmp	r3, #0
 10022 0028 01D0     		beq	.L865
 10023              		.loc 1 1602 0
 10024 002a 0023     		movs	r3, #0
ARM GAS  C:\Users\PCHAUT~1\AppData\Local\Temp\ccacj52E.s 			page 178


 10025 002c 1EE0     		b	.L869
 10026              	.L865:
 10027              		.loc 1 1604 0
 10028 002e 019B     		ldr	r3, [sp, #4]
 10029 0030 1A68     		ldr	r2, [r3]
 10030 0032 049B     		ldr	r3, [sp, #16]
 10031 0034 9A42     		cmp	r2, r3
 10032 0036 04D2     		bcs	.L867
 10033              		.loc 1 1605 0
 10034 0038 039B     		ldr	r3, [sp, #12]
 10035 003a 0222     		movs	r2, #2
 10036 003c 1A70     		strb	r2, [r3]
 10037              		.loc 1 1606 0
 10038 003e 0023     		movs	r3, #0
 10039 0040 14E0     		b	.L869
 10040              	.L867:
 10041              		.loc 1 1609 0
 10042 0042 039B     		ldr	r3, [sp, #12]
 10043 0044 9B68     		ldr	r3, [r3, #8]
 10044 0046 049A     		ldr	r2, [sp, #16]
 10045 0048 0299     		ldr	r1, [sp, #8]
 10046 004a 0398     		ldr	r0, [sp, #12]
 10047 004c 9847     		blx	r3
 10048              	.LVL51:
 10049 004e 0346     		mov	r3, r0
 10050 0050 83F00103 		eor	r3, r3, #1
 10051 0054 DBB2     		uxtb	r3, r3
 10052 0056 002B     		cmp	r3, #0
 10053 0058 04D0     		beq	.L868
 10054              		.loc 1 1610 0
 10055 005a 039B     		ldr	r3, [sp, #12]
 10056 005c 0922     		movs	r2, #9
 10057 005e 1A70     		strb	r2, [r3]
 10058              		.loc 1 1611 0
 10059 0060 0023     		movs	r3, #0
 10060 0062 03E0     		b	.L869
 10061              	.L868:
 10062              		.loc 1 1614 0
 10063 0064 049A     		ldr	r2, [sp, #16]
 10064 0066 019B     		ldr	r3, [sp, #4]
 10065 0068 1A60     		str	r2, [r3]
 10066              		.loc 1 1615 0
 10067 006a 0123     		movs	r3, #1
 10068              	.L869:
 10069              		.loc 1 1616 0 discriminator 1
 10070 006c 1846     		mov	r0, r3
 10071 006e 054B     		ldr	r3, .L871
 10072 0070 059A     		ldr	r2, [sp, #20]
 10073 0072 1B68     		ldr	r3, [r3]
 10074 0074 9A42     		cmp	r2, r3
 10075 0076 01D0     		beq	.L870
 10076              		.loc 1 1616 0 is_stmt 0
 10077 0078 FFF7FEFF 		bl	__stack_chk_fail
 10078              	.L870:
 10079 007c 07B0     		add	sp, sp, #28
 10080              		.cfi_def_cfa_offset 4
 10081              		@ sp needed
ARM GAS  C:\Users\PCHAUT~1\AppData\Local\Temp\ccacj52E.s 			page 179


 10082 007e 5DF804FB 		ldr	pc, [sp], #4
 10083              	.L872:
 10084 0082 00BF     		.align	2
 10085              	.L871:
 10086 0084 00000000 		.word	__stack_chk_guard
 10087              		.cfi_endproc
 10088              	.LFE110:
 10089              		.size	cmp_read_bin, .-cmp_read_bin
 10090              		.section	.text.cmp_read_array,"ax",%progbits
 10091              		.align	1
 10092              		.p2align 4,,15
 10093              		.global	cmp_read_array
 10094              		.syntax unified
 10095              		.thumb
 10096              		.thumb_func
 10097              		.fpu fpv4-sp-d16
 10098              		.type	cmp_read_array, %function
 10099              	cmp_read_array:
 10100              	.LFB111:
 10101              		.loc 1 1618 0 is_stmt 1
 10102              		.cfi_startproc
 10103              		@ args = 0, pretend = 0, frame = 32
 10104              		@ frame_needed = 0, uses_anonymous_args = 0
 10105 0000 00B5     		push	{lr}
 10106              		.cfi_def_cfa_offset 4
 10107              		.cfi_offset 14, -4
 10108 0002 89B0     		sub	sp, sp, #36
 10109              		.cfi_def_cfa_offset 40
 10110 0004 0190     		str	r0, [sp, #4]
 10111 0006 0091     		str	r1, [sp]
 10112              		.loc 1 1618 0
 10113 0008 164B     		ldr	r3, .L880
 10114 000a 1B68     		ldr	r3, [r3]
 10115 000c 0793     		str	r3, [sp, #28]
 10116              		.loc 1 1621 0
 10117 000e 02AB     		add	r3, sp, #8
 10118 0010 1946     		mov	r1, r3
 10119 0012 0198     		ldr	r0, [sp, #4]
 10120 0014 FFF7FEFF 		bl	cmp_read_object
 10121 0018 0346     		mov	r3, r0
 10122 001a 83F00103 		eor	r3, r3, #1
 10123 001e DBB2     		uxtb	r3, r3
 10124 0020 002B     		cmp	r3, #0
 10125 0022 01D0     		beq	.L874
 10126              		.loc 1 1622 0
 10127 0024 0023     		movs	r3, #0
 10128 0026 11E0     		b	.L878
 10129              	.L874:
 10130              		.loc 1 1624 0
 10131 0028 9DF80830 		ldrb	r3, [sp, #8]	@ zero_extendqisi2
 10132 002c 022B     		cmp	r3, #2
 10133 002e 04D0     		beq	.L877
 10134 0030 022B     		cmp	r3, #2
 10135 0032 07DB     		blt	.L876
 10136 0034 1E3B     		subs	r3, r3, #30
 10137 0036 012B     		cmp	r3, #1
 10138 0038 04D8     		bhi	.L876
ARM GAS  C:\Users\PCHAUT~1\AppData\Local\Temp\ccacj52E.s 			page 180


 10139              	.L877:
 10140              		.loc 1 1628 0
 10141 003a 049A     		ldr	r2, [sp, #16]
 10142 003c 009B     		ldr	r3, [sp]
 10143 003e 1A60     		str	r2, [r3]
 10144              		.loc 1 1629 0
 10145 0040 0123     		movs	r3, #1
 10146 0042 03E0     		b	.L878
 10147              	.L876:
 10148              		.loc 1 1631 0
 10149 0044 019B     		ldr	r3, [sp, #4]
 10150 0046 0D22     		movs	r2, #13
 10151 0048 1A70     		strb	r2, [r3]
 10152              		.loc 1 1632 0
 10153 004a 0023     		movs	r3, #0
 10154              	.L878:
 10155              		.loc 1 1634 0 discriminator 1
 10156 004c 1846     		mov	r0, r3
 10157 004e 054B     		ldr	r3, .L880
 10158 0050 079A     		ldr	r2, [sp, #28]
 10159 0052 1B68     		ldr	r3, [r3]
 10160 0054 9A42     		cmp	r2, r3
 10161 0056 01D0     		beq	.L879
 10162              		.loc 1 1634 0 is_stmt 0
 10163 0058 FFF7FEFF 		bl	__stack_chk_fail
 10164              	.L879:
 10165 005c 09B0     		add	sp, sp, #36
 10166              		.cfi_def_cfa_offset 4
 10167              		@ sp needed
 10168 005e 5DF804FB 		ldr	pc, [sp], #4
 10169              	.L881:
 10170 0062 00BF     		.align	2
 10171              	.L880:
 10172 0064 00000000 		.word	__stack_chk_guard
 10173              		.cfi_endproc
 10174              	.LFE111:
 10175              		.size	cmp_read_array, .-cmp_read_array
 10176              		.section	.text.cmp_read_map,"ax",%progbits
 10177              		.align	1
 10178              		.p2align 4,,15
 10179              		.global	cmp_read_map
 10180              		.syntax unified
 10181              		.thumb
 10182              		.thumb_func
 10183              		.fpu fpv4-sp-d16
 10184              		.type	cmp_read_map, %function
 10185              	cmp_read_map:
 10186              	.LFB112:
 10187              		.loc 1 1636 0 is_stmt 1
 10188              		.cfi_startproc
 10189              		@ args = 0, pretend = 0, frame = 32
 10190              		@ frame_needed = 0, uses_anonymous_args = 0
 10191 0000 00B5     		push	{lr}
 10192              		.cfi_def_cfa_offset 4
 10193              		.cfi_offset 14, -4
 10194 0002 89B0     		sub	sp, sp, #36
 10195              		.cfi_def_cfa_offset 40
ARM GAS  C:\Users\PCHAUT~1\AppData\Local\Temp\ccacj52E.s 			page 181


 10196 0004 0190     		str	r0, [sp, #4]
 10197 0006 0091     		str	r1, [sp]
 10198              		.loc 1 1636 0
 10199 0008 164B     		ldr	r3, .L889
 10200 000a 1B68     		ldr	r3, [r3]
 10201 000c 0793     		str	r3, [sp, #28]
 10202              		.loc 1 1639 0
 10203 000e 02AB     		add	r3, sp, #8
 10204 0010 1946     		mov	r1, r3
 10205 0012 0198     		ldr	r0, [sp, #4]
 10206 0014 FFF7FEFF 		bl	cmp_read_object
 10207 0018 0346     		mov	r3, r0
 10208 001a 83F00103 		eor	r3, r3, #1
 10209 001e DBB2     		uxtb	r3, r3
 10210 0020 002B     		cmp	r3, #0
 10211 0022 01D0     		beq	.L883
 10212              		.loc 1 1640 0
 10213 0024 0023     		movs	r3, #0
 10214 0026 11E0     		b	.L887
 10215              	.L883:
 10216              		.loc 1 1642 0
 10217 0028 9DF80830 		ldrb	r3, [sp, #8]	@ zero_extendqisi2
 10218 002c 012B     		cmp	r3, #1
 10219 002e 04D0     		beq	.L886
 10220 0030 012B     		cmp	r3, #1
 10221 0032 07DB     		blt	.L885
 10222 0034 203B     		subs	r3, r3, #32
 10223 0036 012B     		cmp	r3, #1
 10224 0038 04D8     		bhi	.L885
 10225              	.L886:
 10226              		.loc 1 1646 0
 10227 003a 049A     		ldr	r2, [sp, #16]
 10228 003c 009B     		ldr	r3, [sp]
 10229 003e 1A60     		str	r2, [r3]
 10230              		.loc 1 1647 0
 10231 0040 0123     		movs	r3, #1
 10232 0042 03E0     		b	.L887
 10233              	.L885:
 10234              		.loc 1 1649 0
 10235 0044 019B     		ldr	r3, [sp, #4]
 10236 0046 0D22     		movs	r2, #13
 10237 0048 1A70     		strb	r2, [r3]
 10238              		.loc 1 1650 0
 10239 004a 0023     		movs	r3, #0
 10240              	.L887:
 10241              		.loc 1 1652 0 discriminator 1
 10242 004c 1846     		mov	r0, r3
 10243 004e 054B     		ldr	r3, .L889
 10244 0050 079A     		ldr	r2, [sp, #28]
 10245 0052 1B68     		ldr	r3, [r3]
 10246 0054 9A42     		cmp	r2, r3
 10247 0056 01D0     		beq	.L888
 10248              		.loc 1 1652 0 is_stmt 0
 10249 0058 FFF7FEFF 		bl	__stack_chk_fail
 10250              	.L888:
 10251 005c 09B0     		add	sp, sp, #36
 10252              		.cfi_def_cfa_offset 4
ARM GAS  C:\Users\PCHAUT~1\AppData\Local\Temp\ccacj52E.s 			page 182


 10253              		@ sp needed
 10254 005e 5DF804FB 		ldr	pc, [sp], #4
 10255              	.L890:
 10256 0062 00BF     		.align	2
 10257              	.L889:
 10258 0064 00000000 		.word	__stack_chk_guard
 10259              		.cfi_endproc
 10260              	.LFE112:
 10261              		.size	cmp_read_map, .-cmp_read_map
 10262              		.section	.text.cmp_read_fixext1_marker,"ax",%progbits
 10263              		.align	1
 10264              		.p2align 4,,15
 10265              		.global	cmp_read_fixext1_marker
 10266              		.syntax unified
 10267              		.thumb
 10268              		.thumb_func
 10269              		.fpu fpv4-sp-d16
 10270              		.type	cmp_read_fixext1_marker, %function
 10271              	cmp_read_fixext1_marker:
 10272              	.LFB113:
 10273              		.loc 1 1654 0 is_stmt 1
 10274              		.cfi_startproc
 10275              		@ args = 0, pretend = 0, frame = 32
 10276              		@ frame_needed = 0, uses_anonymous_args = 0
 10277 0000 00B5     		push	{lr}
 10278              		.cfi_def_cfa_offset 4
 10279              		.cfi_offset 14, -4
 10280 0002 89B0     		sub	sp, sp, #36
 10281              		.cfi_def_cfa_offset 40
 10282 0004 0190     		str	r0, [sp, #4]
 10283 0006 0091     		str	r1, [sp]
 10284              		.loc 1 1654 0
 10285 0008 144B     		ldr	r3, .L897
 10286 000a 1B68     		ldr	r3, [r3]
 10287 000c 0793     		str	r3, [sp, #28]
 10288              		.loc 1 1657 0
 10289 000e 02AB     		add	r3, sp, #8
 10290 0010 1946     		mov	r1, r3
 10291 0012 0198     		ldr	r0, [sp, #4]
 10292 0014 FFF7FEFF 		bl	cmp_read_object
 10293 0018 0346     		mov	r3, r0
 10294 001a 83F00103 		eor	r3, r3, #1
 10295 001e DBB2     		uxtb	r3, r3
 10296 0020 002B     		cmp	r3, #0
 10297 0022 01D0     		beq	.L892
 10298              		.loc 1 1658 0
 10299 0024 0023     		movs	r3, #0
 10300 0026 0DE0     		b	.L895
 10301              	.L892:
 10302              		.loc 1 1660 0
 10303 0028 9DF80830 		ldrb	r3, [sp, #8]	@ zero_extendqisi2
 10304 002c 162B     		cmp	r3, #22
 10305 002e 04D0     		beq	.L894
 10306              		.loc 1 1661 0
 10307 0030 019B     		ldr	r3, [sp, #4]
 10308 0032 0D22     		movs	r2, #13
 10309 0034 1A70     		strb	r2, [r3]
ARM GAS  C:\Users\PCHAUT~1\AppData\Local\Temp\ccacj52E.s 			page 183


 10310              		.loc 1 1662 0
 10311 0036 0023     		movs	r3, #0
 10312 0038 04E0     		b	.L895
 10313              	.L894:
 10314              		.loc 1 1665 0
 10315 003a 9DF91020 		ldrsb	r2, [sp, #16]
 10316 003e 009B     		ldr	r3, [sp]
 10317 0040 1A70     		strb	r2, [r3]
 10318              		.loc 1 1666 0
 10319 0042 0123     		movs	r3, #1
 10320              	.L895:
 10321              		.loc 1 1667 0 discriminator 1
 10322 0044 1846     		mov	r0, r3
 10323 0046 054B     		ldr	r3, .L897
 10324 0048 079A     		ldr	r2, [sp, #28]
 10325 004a 1B68     		ldr	r3, [r3]
 10326 004c 9A42     		cmp	r2, r3
 10327 004e 01D0     		beq	.L896
 10328              		.loc 1 1667 0 is_stmt 0
 10329 0050 FFF7FEFF 		bl	__stack_chk_fail
 10330              	.L896:
 10331 0054 09B0     		add	sp, sp, #36
 10332              		.cfi_def_cfa_offset 4
 10333              		@ sp needed
 10334 0056 5DF804FB 		ldr	pc, [sp], #4
 10335              	.L898:
 10336 005a 00BF     		.align	2
 10337              	.L897:
 10338 005c 00000000 		.word	__stack_chk_guard
 10339              		.cfi_endproc
 10340              	.LFE113:
 10341              		.size	cmp_read_fixext1_marker, .-cmp_read_fixext1_marker
 10342              		.section	.text.cmp_read_fixext1,"ax",%progbits
 10343              		.align	1
 10344              		.p2align 4,,15
 10345              		.global	cmp_read_fixext1
 10346              		.syntax unified
 10347              		.thumb
 10348              		.thumb_func
 10349              		.fpu fpv4-sp-d16
 10350              		.type	cmp_read_fixext1, %function
 10351              	cmp_read_fixext1:
 10352              	.LFB114:
 10353              		.loc 1 1669 0 is_stmt 1
 10354              		.cfi_startproc
 10355              		@ args = 0, pretend = 0, frame = 24
 10356              		@ frame_needed = 0, uses_anonymous_args = 0
 10357 0000 00B5     		push	{lr}
 10358              		.cfi_def_cfa_offset 4
 10359              		.cfi_offset 14, -4
 10360 0002 87B0     		sub	sp, sp, #28
 10361              		.cfi_def_cfa_offset 32
 10362 0004 0390     		str	r0, [sp, #12]
 10363 0006 0291     		str	r1, [sp, #8]
 10364 0008 0192     		str	r2, [sp, #4]
 10365              		.loc 1 1669 0
 10366 000a 144B     		ldr	r3, .L904
ARM GAS  C:\Users\PCHAUT~1\AppData\Local\Temp\ccacj52E.s 			page 184


 10367 000c 1B68     		ldr	r3, [r3]
 10368 000e 0593     		str	r3, [sp, #20]
 10369              		.loc 1 1670 0
 10370 0010 0299     		ldr	r1, [sp, #8]
 10371 0012 0398     		ldr	r0, [sp, #12]
 10372 0014 FFF7FEFF 		bl	cmp_read_fixext1_marker
 10373 0018 0346     		mov	r3, r0
 10374 001a 83F00103 		eor	r3, r3, #1
 10375 001e DBB2     		uxtb	r3, r3
 10376 0020 002B     		cmp	r3, #0
 10377 0022 01D0     		beq	.L900
 10378              		.loc 1 1671 0
 10379 0024 0023     		movs	r3, #0
 10380 0026 0EE0     		b	.L901
 10381              	.L900:
 10382              		.loc 1 1673 0
 10383 0028 039B     		ldr	r3, [sp, #12]
 10384 002a 9B68     		ldr	r3, [r3, #8]
 10385 002c 0122     		movs	r2, #1
 10386 002e 0199     		ldr	r1, [sp, #4]
 10387 0030 0398     		ldr	r0, [sp, #12]
 10388 0032 9847     		blx	r3
 10389              	.LVL52:
 10390 0034 0346     		mov	r3, r0
 10391 0036 002B     		cmp	r3, #0
 10392 0038 01D0     		beq	.L902
 10393              		.loc 1 1674 0
 10394 003a 0123     		movs	r3, #1
 10395 003c 03E0     		b	.L901
 10396              	.L902:
 10397              		.loc 1 1676 0
 10398 003e 039B     		ldr	r3, [sp, #12]
 10399 0040 0922     		movs	r2, #9
 10400 0042 1A70     		strb	r2, [r3]
 10401              		.loc 1 1677 0
 10402 0044 0023     		movs	r3, #0
 10403              	.L901:
 10404              		.loc 1 1678 0
 10405 0046 1846     		mov	r0, r3
 10406 0048 044B     		ldr	r3, .L904
 10407 004a 059A     		ldr	r2, [sp, #20]
 10408 004c 1B68     		ldr	r3, [r3]
 10409 004e 9A42     		cmp	r2, r3
 10410 0050 01D0     		beq	.L903
 10411 0052 FFF7FEFF 		bl	__stack_chk_fail
 10412              	.L903:
 10413 0056 07B0     		add	sp, sp, #28
 10414              		.cfi_def_cfa_offset 4
 10415              		@ sp needed
 10416 0058 5DF804FB 		ldr	pc, [sp], #4
 10417              	.L905:
 10418              		.align	2
 10419              	.L904:
 10420 005c 00000000 		.word	__stack_chk_guard
 10421              		.cfi_endproc
 10422              	.LFE114:
 10423              		.size	cmp_read_fixext1, .-cmp_read_fixext1
ARM GAS  C:\Users\PCHAUT~1\AppData\Local\Temp\ccacj52E.s 			page 185


 10424              		.section	.text.cmp_read_fixext2_marker,"ax",%progbits
 10425              		.align	1
 10426              		.p2align 4,,15
 10427              		.global	cmp_read_fixext2_marker
 10428              		.syntax unified
 10429              		.thumb
 10430              		.thumb_func
 10431              		.fpu fpv4-sp-d16
 10432              		.type	cmp_read_fixext2_marker, %function
 10433              	cmp_read_fixext2_marker:
 10434              	.LFB115:
 10435              		.loc 1 1680 0
 10436              		.cfi_startproc
 10437              		@ args = 0, pretend = 0, frame = 32
 10438              		@ frame_needed = 0, uses_anonymous_args = 0
 10439 0000 00B5     		push	{lr}
 10440              		.cfi_def_cfa_offset 4
 10441              		.cfi_offset 14, -4
 10442 0002 89B0     		sub	sp, sp, #36
 10443              		.cfi_def_cfa_offset 40
 10444 0004 0190     		str	r0, [sp, #4]
 10445 0006 0091     		str	r1, [sp]
 10446              		.loc 1 1680 0
 10447 0008 144B     		ldr	r3, .L912
 10448 000a 1B68     		ldr	r3, [r3]
 10449 000c 0793     		str	r3, [sp, #28]
 10450              		.loc 1 1683 0
 10451 000e 02AB     		add	r3, sp, #8
 10452 0010 1946     		mov	r1, r3
 10453 0012 0198     		ldr	r0, [sp, #4]
 10454 0014 FFF7FEFF 		bl	cmp_read_object
 10455 0018 0346     		mov	r3, r0
 10456 001a 83F00103 		eor	r3, r3, #1
 10457 001e DBB2     		uxtb	r3, r3
 10458 0020 002B     		cmp	r3, #0
 10459 0022 01D0     		beq	.L907
 10460              		.loc 1 1684 0
 10461 0024 0023     		movs	r3, #0
 10462 0026 0DE0     		b	.L910
 10463              	.L907:
 10464              		.loc 1 1686 0
 10465 0028 9DF80830 		ldrb	r3, [sp, #8]	@ zero_extendqisi2
 10466 002c 172B     		cmp	r3, #23
 10467 002e 04D0     		beq	.L909
 10468              		.loc 1 1687 0
 10469 0030 019B     		ldr	r3, [sp, #4]
 10470 0032 0D22     		movs	r2, #13
 10471 0034 1A70     		strb	r2, [r3]
 10472              		.loc 1 1688 0
 10473 0036 0023     		movs	r3, #0
 10474 0038 04E0     		b	.L910
 10475              	.L909:
 10476              		.loc 1 1691 0
 10477 003a 9DF91020 		ldrsb	r2, [sp, #16]
 10478 003e 009B     		ldr	r3, [sp]
 10479 0040 1A70     		strb	r2, [r3]
 10480              		.loc 1 1692 0
ARM GAS  C:\Users\PCHAUT~1\AppData\Local\Temp\ccacj52E.s 			page 186


 10481 0042 0123     		movs	r3, #1
 10482              	.L910:
 10483              		.loc 1 1693 0 discriminator 1
 10484 0044 1846     		mov	r0, r3
 10485 0046 054B     		ldr	r3, .L912
 10486 0048 079A     		ldr	r2, [sp, #28]
 10487 004a 1B68     		ldr	r3, [r3]
 10488 004c 9A42     		cmp	r2, r3
 10489 004e 01D0     		beq	.L911
 10490              		.loc 1 1693 0 is_stmt 0
 10491 0050 FFF7FEFF 		bl	__stack_chk_fail
 10492              	.L911:
 10493 0054 09B0     		add	sp, sp, #36
 10494              		.cfi_def_cfa_offset 4
 10495              		@ sp needed
 10496 0056 5DF804FB 		ldr	pc, [sp], #4
 10497              	.L913:
 10498 005a 00BF     		.align	2
 10499              	.L912:
 10500 005c 00000000 		.word	__stack_chk_guard
 10501              		.cfi_endproc
 10502              	.LFE115:
 10503              		.size	cmp_read_fixext2_marker, .-cmp_read_fixext2_marker
 10504              		.section	.text.cmp_read_fixext2,"ax",%progbits
 10505              		.align	1
 10506              		.p2align 4,,15
 10507              		.global	cmp_read_fixext2
 10508              		.syntax unified
 10509              		.thumb
 10510              		.thumb_func
 10511              		.fpu fpv4-sp-d16
 10512              		.type	cmp_read_fixext2, %function
 10513              	cmp_read_fixext2:
 10514              	.LFB116:
 10515              		.loc 1 1695 0 is_stmt 1
 10516              		.cfi_startproc
 10517              		@ args = 0, pretend = 0, frame = 24
 10518              		@ frame_needed = 0, uses_anonymous_args = 0
 10519 0000 00B5     		push	{lr}
 10520              		.cfi_def_cfa_offset 4
 10521              		.cfi_offset 14, -4
 10522 0002 87B0     		sub	sp, sp, #28
 10523              		.cfi_def_cfa_offset 32
 10524 0004 0390     		str	r0, [sp, #12]
 10525 0006 0291     		str	r1, [sp, #8]
 10526 0008 0192     		str	r2, [sp, #4]
 10527              		.loc 1 1695 0
 10528 000a 144B     		ldr	r3, .L919
 10529 000c 1B68     		ldr	r3, [r3]
 10530 000e 0593     		str	r3, [sp, #20]
 10531              		.loc 1 1696 0
 10532 0010 0299     		ldr	r1, [sp, #8]
 10533 0012 0398     		ldr	r0, [sp, #12]
 10534 0014 FFF7FEFF 		bl	cmp_read_fixext2_marker
 10535 0018 0346     		mov	r3, r0
 10536 001a 83F00103 		eor	r3, r3, #1
 10537 001e DBB2     		uxtb	r3, r3
ARM GAS  C:\Users\PCHAUT~1\AppData\Local\Temp\ccacj52E.s 			page 187


 10538 0020 002B     		cmp	r3, #0
 10539 0022 01D0     		beq	.L915
 10540              		.loc 1 1697 0
 10541 0024 0023     		movs	r3, #0
 10542 0026 0EE0     		b	.L916
 10543              	.L915:
 10544              		.loc 1 1699 0
 10545 0028 039B     		ldr	r3, [sp, #12]
 10546 002a 9B68     		ldr	r3, [r3, #8]
 10547 002c 0222     		movs	r2, #2
 10548 002e 0199     		ldr	r1, [sp, #4]
 10549 0030 0398     		ldr	r0, [sp, #12]
 10550 0032 9847     		blx	r3
 10551              	.LVL53:
 10552 0034 0346     		mov	r3, r0
 10553 0036 002B     		cmp	r3, #0
 10554 0038 01D0     		beq	.L917
 10555              		.loc 1 1700 0
 10556 003a 0123     		movs	r3, #1
 10557 003c 03E0     		b	.L916
 10558              	.L917:
 10559              		.loc 1 1702 0
 10560 003e 039B     		ldr	r3, [sp, #12]
 10561 0040 0922     		movs	r2, #9
 10562 0042 1A70     		strb	r2, [r3]
 10563              		.loc 1 1703 0
 10564 0044 0023     		movs	r3, #0
 10565              	.L916:
 10566              		.loc 1 1704 0
 10567 0046 1846     		mov	r0, r3
 10568 0048 044B     		ldr	r3, .L919
 10569 004a 059A     		ldr	r2, [sp, #20]
 10570 004c 1B68     		ldr	r3, [r3]
 10571 004e 9A42     		cmp	r2, r3
 10572 0050 01D0     		beq	.L918
 10573 0052 FFF7FEFF 		bl	__stack_chk_fail
 10574              	.L918:
 10575 0056 07B0     		add	sp, sp, #28
 10576              		.cfi_def_cfa_offset 4
 10577              		@ sp needed
 10578 0058 5DF804FB 		ldr	pc, [sp], #4
 10579              	.L920:
 10580              		.align	2
 10581              	.L919:
 10582 005c 00000000 		.word	__stack_chk_guard
 10583              		.cfi_endproc
 10584              	.LFE116:
 10585              		.size	cmp_read_fixext2, .-cmp_read_fixext2
 10586              		.section	.text.cmp_read_fixext4_marker,"ax",%progbits
 10587              		.align	1
 10588              		.p2align 4,,15
 10589              		.global	cmp_read_fixext4_marker
 10590              		.syntax unified
 10591              		.thumb
 10592              		.thumb_func
 10593              		.fpu fpv4-sp-d16
 10594              		.type	cmp_read_fixext4_marker, %function
ARM GAS  C:\Users\PCHAUT~1\AppData\Local\Temp\ccacj52E.s 			page 188


 10595              	cmp_read_fixext4_marker:
 10596              	.LFB117:
 10597              		.loc 1 1706 0
 10598              		.cfi_startproc
 10599              		@ args = 0, pretend = 0, frame = 32
 10600              		@ frame_needed = 0, uses_anonymous_args = 0
 10601 0000 00B5     		push	{lr}
 10602              		.cfi_def_cfa_offset 4
 10603              		.cfi_offset 14, -4
 10604 0002 89B0     		sub	sp, sp, #36
 10605              		.cfi_def_cfa_offset 40
 10606 0004 0190     		str	r0, [sp, #4]
 10607 0006 0091     		str	r1, [sp]
 10608              		.loc 1 1706 0
 10609 0008 144B     		ldr	r3, .L927
 10610 000a 1B68     		ldr	r3, [r3]
 10611 000c 0793     		str	r3, [sp, #28]
 10612              		.loc 1 1709 0
 10613 000e 02AB     		add	r3, sp, #8
 10614 0010 1946     		mov	r1, r3
 10615 0012 0198     		ldr	r0, [sp, #4]
 10616 0014 FFF7FEFF 		bl	cmp_read_object
 10617 0018 0346     		mov	r3, r0
 10618 001a 83F00103 		eor	r3, r3, #1
 10619 001e DBB2     		uxtb	r3, r3
 10620 0020 002B     		cmp	r3, #0
 10621 0022 01D0     		beq	.L922
 10622              		.loc 1 1710 0
 10623 0024 0023     		movs	r3, #0
 10624 0026 0DE0     		b	.L925
 10625              	.L922:
 10626              		.loc 1 1712 0
 10627 0028 9DF80830 		ldrb	r3, [sp, #8]	@ zero_extendqisi2
 10628 002c 182B     		cmp	r3, #24
 10629 002e 04D0     		beq	.L924
 10630              		.loc 1 1713 0
 10631 0030 019B     		ldr	r3, [sp, #4]
 10632 0032 0D22     		movs	r2, #13
 10633 0034 1A70     		strb	r2, [r3]
 10634              		.loc 1 1714 0
 10635 0036 0023     		movs	r3, #0
 10636 0038 04E0     		b	.L925
 10637              	.L924:
 10638              		.loc 1 1717 0
 10639 003a 9DF91020 		ldrsb	r2, [sp, #16]
 10640 003e 009B     		ldr	r3, [sp]
 10641 0040 1A70     		strb	r2, [r3]
 10642              		.loc 1 1718 0
 10643 0042 0123     		movs	r3, #1
 10644              	.L925:
 10645              		.loc 1 1719 0 discriminator 1
 10646 0044 1846     		mov	r0, r3
 10647 0046 054B     		ldr	r3, .L927
 10648 0048 079A     		ldr	r2, [sp, #28]
 10649 004a 1B68     		ldr	r3, [r3]
 10650 004c 9A42     		cmp	r2, r3
 10651 004e 01D0     		beq	.L926
ARM GAS  C:\Users\PCHAUT~1\AppData\Local\Temp\ccacj52E.s 			page 189


 10652              		.loc 1 1719 0 is_stmt 0
 10653 0050 FFF7FEFF 		bl	__stack_chk_fail
 10654              	.L926:
 10655 0054 09B0     		add	sp, sp, #36
 10656              		.cfi_def_cfa_offset 4
 10657              		@ sp needed
 10658 0056 5DF804FB 		ldr	pc, [sp], #4
 10659              	.L928:
 10660 005a 00BF     		.align	2
 10661              	.L927:
 10662 005c 00000000 		.word	__stack_chk_guard
 10663              		.cfi_endproc
 10664              	.LFE117:
 10665              		.size	cmp_read_fixext4_marker, .-cmp_read_fixext4_marker
 10666              		.section	.text.cmp_read_fixext4,"ax",%progbits
 10667              		.align	1
 10668              		.p2align 4,,15
 10669              		.global	cmp_read_fixext4
 10670              		.syntax unified
 10671              		.thumb
 10672              		.thumb_func
 10673              		.fpu fpv4-sp-d16
 10674              		.type	cmp_read_fixext4, %function
 10675              	cmp_read_fixext4:
 10676              	.LFB118:
 10677              		.loc 1 1721 0 is_stmt 1
 10678              		.cfi_startproc
 10679              		@ args = 0, pretend = 0, frame = 24
 10680              		@ frame_needed = 0, uses_anonymous_args = 0
 10681 0000 00B5     		push	{lr}
 10682              		.cfi_def_cfa_offset 4
 10683              		.cfi_offset 14, -4
 10684 0002 87B0     		sub	sp, sp, #28
 10685              		.cfi_def_cfa_offset 32
 10686 0004 0390     		str	r0, [sp, #12]
 10687 0006 0291     		str	r1, [sp, #8]
 10688 0008 0192     		str	r2, [sp, #4]
 10689              		.loc 1 1721 0
 10690 000a 144B     		ldr	r3, .L934
 10691 000c 1B68     		ldr	r3, [r3]
 10692 000e 0593     		str	r3, [sp, #20]
 10693              		.loc 1 1722 0
 10694 0010 0299     		ldr	r1, [sp, #8]
 10695 0012 0398     		ldr	r0, [sp, #12]
 10696 0014 FFF7FEFF 		bl	cmp_read_fixext4_marker
 10697 0018 0346     		mov	r3, r0
 10698 001a 83F00103 		eor	r3, r3, #1
 10699 001e DBB2     		uxtb	r3, r3
 10700 0020 002B     		cmp	r3, #0
 10701 0022 01D0     		beq	.L930
 10702              		.loc 1 1723 0
 10703 0024 0023     		movs	r3, #0
 10704 0026 0EE0     		b	.L931
 10705              	.L930:
 10706              		.loc 1 1725 0
 10707 0028 039B     		ldr	r3, [sp, #12]
 10708 002a 9B68     		ldr	r3, [r3, #8]
ARM GAS  C:\Users\PCHAUT~1\AppData\Local\Temp\ccacj52E.s 			page 190


 10709 002c 0422     		movs	r2, #4
 10710 002e 0199     		ldr	r1, [sp, #4]
 10711 0030 0398     		ldr	r0, [sp, #12]
 10712 0032 9847     		blx	r3
 10713              	.LVL54:
 10714 0034 0346     		mov	r3, r0
 10715 0036 002B     		cmp	r3, #0
 10716 0038 01D0     		beq	.L932
 10717              		.loc 1 1726 0
 10718 003a 0123     		movs	r3, #1
 10719 003c 03E0     		b	.L931
 10720              	.L932:
 10721              		.loc 1 1728 0
 10722 003e 039B     		ldr	r3, [sp, #12]
 10723 0040 0922     		movs	r2, #9
 10724 0042 1A70     		strb	r2, [r3]
 10725              		.loc 1 1729 0
 10726 0044 0023     		movs	r3, #0
 10727              	.L931:
 10728              		.loc 1 1730 0
 10729 0046 1846     		mov	r0, r3
 10730 0048 044B     		ldr	r3, .L934
 10731 004a 059A     		ldr	r2, [sp, #20]
 10732 004c 1B68     		ldr	r3, [r3]
 10733 004e 9A42     		cmp	r2, r3
 10734 0050 01D0     		beq	.L933
 10735 0052 FFF7FEFF 		bl	__stack_chk_fail
 10736              	.L933:
 10737 0056 07B0     		add	sp, sp, #28
 10738              		.cfi_def_cfa_offset 4
 10739              		@ sp needed
 10740 0058 5DF804FB 		ldr	pc, [sp], #4
 10741              	.L935:
 10742              		.align	2
 10743              	.L934:
 10744 005c 00000000 		.word	__stack_chk_guard
 10745              		.cfi_endproc
 10746              	.LFE118:
 10747              		.size	cmp_read_fixext4, .-cmp_read_fixext4
 10748              		.section	.text.cmp_read_fixext8_marker,"ax",%progbits
 10749              		.align	1
 10750              		.p2align 4,,15
 10751              		.global	cmp_read_fixext8_marker
 10752              		.syntax unified
 10753              		.thumb
 10754              		.thumb_func
 10755              		.fpu fpv4-sp-d16
 10756              		.type	cmp_read_fixext8_marker, %function
 10757              	cmp_read_fixext8_marker:
 10758              	.LFB119:
 10759              		.loc 1 1732 0
 10760              		.cfi_startproc
 10761              		@ args = 0, pretend = 0, frame = 32
 10762              		@ frame_needed = 0, uses_anonymous_args = 0
 10763 0000 00B5     		push	{lr}
 10764              		.cfi_def_cfa_offset 4
 10765              		.cfi_offset 14, -4
ARM GAS  C:\Users\PCHAUT~1\AppData\Local\Temp\ccacj52E.s 			page 191


 10766 0002 89B0     		sub	sp, sp, #36
 10767              		.cfi_def_cfa_offset 40
 10768 0004 0190     		str	r0, [sp, #4]
 10769 0006 0091     		str	r1, [sp]
 10770              		.loc 1 1732 0
 10771 0008 144B     		ldr	r3, .L942
 10772 000a 1B68     		ldr	r3, [r3]
 10773 000c 0793     		str	r3, [sp, #28]
 10774              		.loc 1 1735 0
 10775 000e 02AB     		add	r3, sp, #8
 10776 0010 1946     		mov	r1, r3
 10777 0012 0198     		ldr	r0, [sp, #4]
 10778 0014 FFF7FEFF 		bl	cmp_read_object
 10779 0018 0346     		mov	r3, r0
 10780 001a 83F00103 		eor	r3, r3, #1
 10781 001e DBB2     		uxtb	r3, r3
 10782 0020 002B     		cmp	r3, #0
 10783 0022 01D0     		beq	.L937
 10784              		.loc 1 1736 0
 10785 0024 0023     		movs	r3, #0
 10786 0026 0DE0     		b	.L940
 10787              	.L937:
 10788              		.loc 1 1738 0
 10789 0028 9DF80830 		ldrb	r3, [sp, #8]	@ zero_extendqisi2
 10790 002c 192B     		cmp	r3, #25
 10791 002e 04D0     		beq	.L939
 10792              		.loc 1 1739 0
 10793 0030 019B     		ldr	r3, [sp, #4]
 10794 0032 0D22     		movs	r2, #13
 10795 0034 1A70     		strb	r2, [r3]
 10796              		.loc 1 1740 0
 10797 0036 0023     		movs	r3, #0
 10798 0038 04E0     		b	.L940
 10799              	.L939:
 10800              		.loc 1 1743 0
 10801 003a 9DF91020 		ldrsb	r2, [sp, #16]
 10802 003e 009B     		ldr	r3, [sp]
 10803 0040 1A70     		strb	r2, [r3]
 10804              		.loc 1 1744 0
 10805 0042 0123     		movs	r3, #1
 10806              	.L940:
 10807              		.loc 1 1745 0 discriminator 1
 10808 0044 1846     		mov	r0, r3
 10809 0046 054B     		ldr	r3, .L942
 10810 0048 079A     		ldr	r2, [sp, #28]
 10811 004a 1B68     		ldr	r3, [r3]
 10812 004c 9A42     		cmp	r2, r3
 10813 004e 01D0     		beq	.L941
 10814              		.loc 1 1745 0 is_stmt 0
 10815 0050 FFF7FEFF 		bl	__stack_chk_fail
 10816              	.L941:
 10817 0054 09B0     		add	sp, sp, #36
 10818              		.cfi_def_cfa_offset 4
 10819              		@ sp needed
 10820 0056 5DF804FB 		ldr	pc, [sp], #4
 10821              	.L943:
 10822 005a 00BF     		.align	2
ARM GAS  C:\Users\PCHAUT~1\AppData\Local\Temp\ccacj52E.s 			page 192


 10823              	.L942:
 10824 005c 00000000 		.word	__stack_chk_guard
 10825              		.cfi_endproc
 10826              	.LFE119:
 10827              		.size	cmp_read_fixext8_marker, .-cmp_read_fixext8_marker
 10828              		.section	.text.cmp_read_fixext8,"ax",%progbits
 10829              		.align	1
 10830              		.p2align 4,,15
 10831              		.global	cmp_read_fixext8
 10832              		.syntax unified
 10833              		.thumb
 10834              		.thumb_func
 10835              		.fpu fpv4-sp-d16
 10836              		.type	cmp_read_fixext8, %function
 10837              	cmp_read_fixext8:
 10838              	.LFB120:
 10839              		.loc 1 1747 0 is_stmt 1
 10840              		.cfi_startproc
 10841              		@ args = 0, pretend = 0, frame = 24
 10842              		@ frame_needed = 0, uses_anonymous_args = 0
 10843 0000 00B5     		push	{lr}
 10844              		.cfi_def_cfa_offset 4
 10845              		.cfi_offset 14, -4
 10846 0002 87B0     		sub	sp, sp, #28
 10847              		.cfi_def_cfa_offset 32
 10848 0004 0390     		str	r0, [sp, #12]
 10849 0006 0291     		str	r1, [sp, #8]
 10850 0008 0192     		str	r2, [sp, #4]
 10851              		.loc 1 1747 0
 10852 000a 144B     		ldr	r3, .L949
 10853 000c 1B68     		ldr	r3, [r3]
 10854 000e 0593     		str	r3, [sp, #20]
 10855              		.loc 1 1748 0
 10856 0010 0299     		ldr	r1, [sp, #8]
 10857 0012 0398     		ldr	r0, [sp, #12]
 10858 0014 FFF7FEFF 		bl	cmp_read_fixext8_marker
 10859 0018 0346     		mov	r3, r0
 10860 001a 83F00103 		eor	r3, r3, #1
 10861 001e DBB2     		uxtb	r3, r3
 10862 0020 002B     		cmp	r3, #0
 10863 0022 01D0     		beq	.L945
 10864              		.loc 1 1749 0
 10865 0024 0023     		movs	r3, #0
 10866 0026 0EE0     		b	.L946
 10867              	.L945:
 10868              		.loc 1 1751 0
 10869 0028 039B     		ldr	r3, [sp, #12]
 10870 002a 9B68     		ldr	r3, [r3, #8]
 10871 002c 0822     		movs	r2, #8
 10872 002e 0199     		ldr	r1, [sp, #4]
 10873 0030 0398     		ldr	r0, [sp, #12]
 10874 0032 9847     		blx	r3
 10875              	.LVL55:
 10876 0034 0346     		mov	r3, r0
 10877 0036 002B     		cmp	r3, #0
 10878 0038 01D0     		beq	.L947
 10879              		.loc 1 1752 0
ARM GAS  C:\Users\PCHAUT~1\AppData\Local\Temp\ccacj52E.s 			page 193


 10880 003a 0123     		movs	r3, #1
 10881 003c 03E0     		b	.L946
 10882              	.L947:
 10883              		.loc 1 1754 0
 10884 003e 039B     		ldr	r3, [sp, #12]
 10885 0040 0922     		movs	r2, #9
 10886 0042 1A70     		strb	r2, [r3]
 10887              		.loc 1 1755 0
 10888 0044 0023     		movs	r3, #0
 10889              	.L946:
 10890              		.loc 1 1756 0
 10891 0046 1846     		mov	r0, r3
 10892 0048 044B     		ldr	r3, .L949
 10893 004a 059A     		ldr	r2, [sp, #20]
 10894 004c 1B68     		ldr	r3, [r3]
 10895 004e 9A42     		cmp	r2, r3
 10896 0050 01D0     		beq	.L948
 10897 0052 FFF7FEFF 		bl	__stack_chk_fail
 10898              	.L948:
 10899 0056 07B0     		add	sp, sp, #28
 10900              		.cfi_def_cfa_offset 4
 10901              		@ sp needed
 10902 0058 5DF804FB 		ldr	pc, [sp], #4
 10903              	.L950:
 10904              		.align	2
 10905              	.L949:
 10906 005c 00000000 		.word	__stack_chk_guard
 10907              		.cfi_endproc
 10908              	.LFE120:
 10909              		.size	cmp_read_fixext8, .-cmp_read_fixext8
 10910              		.section	.text.cmp_read_fixext16_marker,"ax",%progbits
 10911              		.align	1
 10912              		.p2align 4,,15
 10913              		.global	cmp_read_fixext16_marker
 10914              		.syntax unified
 10915              		.thumb
 10916              		.thumb_func
 10917              		.fpu fpv4-sp-d16
 10918              		.type	cmp_read_fixext16_marker, %function
 10919              	cmp_read_fixext16_marker:
 10920              	.LFB121:
 10921              		.loc 1 1758 0
 10922              		.cfi_startproc
 10923              		@ args = 0, pretend = 0, frame = 32
 10924              		@ frame_needed = 0, uses_anonymous_args = 0
 10925 0000 00B5     		push	{lr}
 10926              		.cfi_def_cfa_offset 4
 10927              		.cfi_offset 14, -4
 10928 0002 89B0     		sub	sp, sp, #36
 10929              		.cfi_def_cfa_offset 40
 10930 0004 0190     		str	r0, [sp, #4]
 10931 0006 0091     		str	r1, [sp]
 10932              		.loc 1 1758 0
 10933 0008 144B     		ldr	r3, .L957
 10934 000a 1B68     		ldr	r3, [r3]
 10935 000c 0793     		str	r3, [sp, #28]
 10936              		.loc 1 1761 0
ARM GAS  C:\Users\PCHAUT~1\AppData\Local\Temp\ccacj52E.s 			page 194


 10937 000e 02AB     		add	r3, sp, #8
 10938 0010 1946     		mov	r1, r3
 10939 0012 0198     		ldr	r0, [sp, #4]
 10940 0014 FFF7FEFF 		bl	cmp_read_object
 10941 0018 0346     		mov	r3, r0
 10942 001a 83F00103 		eor	r3, r3, #1
 10943 001e DBB2     		uxtb	r3, r3
 10944 0020 002B     		cmp	r3, #0
 10945 0022 01D0     		beq	.L952
 10946              		.loc 1 1762 0
 10947 0024 0023     		movs	r3, #0
 10948 0026 0DE0     		b	.L955
 10949              	.L952:
 10950              		.loc 1 1764 0
 10951 0028 9DF80830 		ldrb	r3, [sp, #8]	@ zero_extendqisi2
 10952 002c 1A2B     		cmp	r3, #26
 10953 002e 04D0     		beq	.L954
 10954              		.loc 1 1765 0
 10955 0030 019B     		ldr	r3, [sp, #4]
 10956 0032 0D22     		movs	r2, #13
 10957 0034 1A70     		strb	r2, [r3]
 10958              		.loc 1 1766 0
 10959 0036 0023     		movs	r3, #0
 10960 0038 04E0     		b	.L955
 10961              	.L954:
 10962              		.loc 1 1769 0
 10963 003a 9DF91020 		ldrsb	r2, [sp, #16]
 10964 003e 009B     		ldr	r3, [sp]
 10965 0040 1A70     		strb	r2, [r3]
 10966              		.loc 1 1770 0
 10967 0042 0123     		movs	r3, #1
 10968              	.L955:
 10969              		.loc 1 1771 0 discriminator 1
 10970 0044 1846     		mov	r0, r3
 10971 0046 054B     		ldr	r3, .L957
 10972 0048 079A     		ldr	r2, [sp, #28]
 10973 004a 1B68     		ldr	r3, [r3]
 10974 004c 9A42     		cmp	r2, r3
 10975 004e 01D0     		beq	.L956
 10976              		.loc 1 1771 0 is_stmt 0
 10977 0050 FFF7FEFF 		bl	__stack_chk_fail
 10978              	.L956:
 10979 0054 09B0     		add	sp, sp, #36
 10980              		.cfi_def_cfa_offset 4
 10981              		@ sp needed
 10982 0056 5DF804FB 		ldr	pc, [sp], #4
 10983              	.L958:
 10984 005a 00BF     		.align	2
 10985              	.L957:
 10986 005c 00000000 		.word	__stack_chk_guard
 10987              		.cfi_endproc
 10988              	.LFE121:
 10989              		.size	cmp_read_fixext16_marker, .-cmp_read_fixext16_marker
 10990              		.section	.text.cmp_read_fixext16,"ax",%progbits
 10991              		.align	1
 10992              		.p2align 4,,15
 10993              		.global	cmp_read_fixext16
ARM GAS  C:\Users\PCHAUT~1\AppData\Local\Temp\ccacj52E.s 			page 195


 10994              		.syntax unified
 10995              		.thumb
 10996              		.thumb_func
 10997              		.fpu fpv4-sp-d16
 10998              		.type	cmp_read_fixext16, %function
 10999              	cmp_read_fixext16:
 11000              	.LFB122:
 11001              		.loc 1 1773 0 is_stmt 1
 11002              		.cfi_startproc
 11003              		@ args = 0, pretend = 0, frame = 24
 11004              		@ frame_needed = 0, uses_anonymous_args = 0
 11005 0000 00B5     		push	{lr}
 11006              		.cfi_def_cfa_offset 4
 11007              		.cfi_offset 14, -4
 11008 0002 87B0     		sub	sp, sp, #28
 11009              		.cfi_def_cfa_offset 32
 11010 0004 0390     		str	r0, [sp, #12]
 11011 0006 0291     		str	r1, [sp, #8]
 11012 0008 0192     		str	r2, [sp, #4]
 11013              		.loc 1 1773 0
 11014 000a 144B     		ldr	r3, .L964
 11015 000c 1B68     		ldr	r3, [r3]
 11016 000e 0593     		str	r3, [sp, #20]
 11017              		.loc 1 1774 0
 11018 0010 0299     		ldr	r1, [sp, #8]
 11019 0012 0398     		ldr	r0, [sp, #12]
 11020 0014 FFF7FEFF 		bl	cmp_read_fixext16_marker
 11021 0018 0346     		mov	r3, r0
 11022 001a 83F00103 		eor	r3, r3, #1
 11023 001e DBB2     		uxtb	r3, r3
 11024 0020 002B     		cmp	r3, #0
 11025 0022 01D0     		beq	.L960
 11026              		.loc 1 1775 0
 11027 0024 0023     		movs	r3, #0
 11028 0026 0EE0     		b	.L961
 11029              	.L960:
 11030              		.loc 1 1777 0
 11031 0028 039B     		ldr	r3, [sp, #12]
 11032 002a 9B68     		ldr	r3, [r3, #8]
 11033 002c 1022     		movs	r2, #16
 11034 002e 0199     		ldr	r1, [sp, #4]
 11035 0030 0398     		ldr	r0, [sp, #12]
 11036 0032 9847     		blx	r3
 11037              	.LVL56:
 11038 0034 0346     		mov	r3, r0
 11039 0036 002B     		cmp	r3, #0
 11040 0038 01D0     		beq	.L962
 11041              		.loc 1 1778 0
 11042 003a 0123     		movs	r3, #1
 11043 003c 03E0     		b	.L961
 11044              	.L962:
 11045              		.loc 1 1780 0
 11046 003e 039B     		ldr	r3, [sp, #12]
 11047 0040 0922     		movs	r2, #9
 11048 0042 1A70     		strb	r2, [r3]
 11049              		.loc 1 1781 0
 11050 0044 0023     		movs	r3, #0
ARM GAS  C:\Users\PCHAUT~1\AppData\Local\Temp\ccacj52E.s 			page 196


 11051              	.L961:
 11052              		.loc 1 1782 0
 11053 0046 1846     		mov	r0, r3
 11054 0048 044B     		ldr	r3, .L964
 11055 004a 059A     		ldr	r2, [sp, #20]
 11056 004c 1B68     		ldr	r3, [r3]
 11057 004e 9A42     		cmp	r2, r3
 11058 0050 01D0     		beq	.L963
 11059 0052 FFF7FEFF 		bl	__stack_chk_fail
 11060              	.L963:
 11061 0056 07B0     		add	sp, sp, #28
 11062              		.cfi_def_cfa_offset 4
 11063              		@ sp needed
 11064 0058 5DF804FB 		ldr	pc, [sp], #4
 11065              	.L965:
 11066              		.align	2
 11067              	.L964:
 11068 005c 00000000 		.word	__stack_chk_guard
 11069              		.cfi_endproc
 11070              	.LFE122:
 11071              		.size	cmp_read_fixext16, .-cmp_read_fixext16
 11072              		.section	.text.cmp_read_ext8_marker,"ax",%progbits
 11073              		.align	1
 11074              		.p2align 4,,15
 11075              		.global	cmp_read_ext8_marker
 11076              		.syntax unified
 11077              		.thumb
 11078              		.thumb_func
 11079              		.fpu fpv4-sp-d16
 11080              		.type	cmp_read_ext8_marker, %function
 11081              	cmp_read_ext8_marker:
 11082              	.LFB123:
 11083              		.loc 1 1784 0
 11084              		.cfi_startproc
 11085              		@ args = 0, pretend = 0, frame = 40
 11086              		@ frame_needed = 0, uses_anonymous_args = 0
 11087 0000 00B5     		push	{lr}
 11088              		.cfi_def_cfa_offset 4
 11089              		.cfi_offset 14, -4
 11090 0002 8BB0     		sub	sp, sp, #44
 11091              		.cfi_def_cfa_offset 48
 11092 0004 0390     		str	r0, [sp, #12]
 11093 0006 0291     		str	r1, [sp, #8]
 11094 0008 0192     		str	r2, [sp, #4]
 11095              		.loc 1 1784 0
 11096 000a 164B     		ldr	r3, .L972
 11097 000c 1B68     		ldr	r3, [r3]
 11098 000e 0993     		str	r3, [sp, #36]
 11099              		.loc 1 1787 0
 11100 0010 04AB     		add	r3, sp, #16
 11101 0012 1946     		mov	r1, r3
 11102 0014 0398     		ldr	r0, [sp, #12]
 11103 0016 FFF7FEFF 		bl	cmp_read_object
 11104 001a 0346     		mov	r3, r0
 11105 001c 83F00103 		eor	r3, r3, #1
 11106 0020 DBB2     		uxtb	r3, r3
 11107 0022 002B     		cmp	r3, #0
ARM GAS  C:\Users\PCHAUT~1\AppData\Local\Temp\ccacj52E.s 			page 197


 11108 0024 01D0     		beq	.L967
 11109              		.loc 1 1788 0
 11110 0026 0023     		movs	r3, #0
 11111 0028 11E0     		b	.L970
 11112              	.L967:
 11113              		.loc 1 1790 0
 11114 002a 9DF81030 		ldrb	r3, [sp, #16]	@ zero_extendqisi2
 11115 002e 092B     		cmp	r3, #9
 11116 0030 04D0     		beq	.L969
 11117              		.loc 1 1791 0
 11118 0032 039B     		ldr	r3, [sp, #12]
 11119 0034 0D22     		movs	r2, #13
 11120 0036 1A70     		strb	r2, [r3]
 11121              		.loc 1 1792 0
 11122 0038 0023     		movs	r3, #0
 11123 003a 08E0     		b	.L970
 11124              	.L969:
 11125              		.loc 1 1795 0
 11126 003c 9DF91820 		ldrsb	r2, [sp, #24]
 11127 0040 029B     		ldr	r3, [sp, #8]
 11128 0042 1A70     		strb	r2, [r3]
 11129              		.loc 1 1796 0
 11130 0044 079B     		ldr	r3, [sp, #28]
 11131 0046 DAB2     		uxtb	r2, r3
 11132 0048 019B     		ldr	r3, [sp, #4]
 11133 004a 1A70     		strb	r2, [r3]
 11134              		.loc 1 1798 0
 11135 004c 0123     		movs	r3, #1
 11136              	.L970:
 11137              		.loc 1 1799 0 discriminator 1
 11138 004e 1846     		mov	r0, r3
 11139 0050 044B     		ldr	r3, .L972
 11140 0052 099A     		ldr	r2, [sp, #36]
 11141 0054 1B68     		ldr	r3, [r3]
 11142 0056 9A42     		cmp	r2, r3
 11143 0058 01D0     		beq	.L971
 11144              		.loc 1 1799 0 is_stmt 0
 11145 005a FFF7FEFF 		bl	__stack_chk_fail
 11146              	.L971:
 11147 005e 0BB0     		add	sp, sp, #44
 11148              		.cfi_def_cfa_offset 4
 11149              		@ sp needed
 11150 0060 5DF804FB 		ldr	pc, [sp], #4
 11151              	.L973:
 11152              		.align	2
 11153              	.L972:
 11154 0064 00000000 		.word	__stack_chk_guard
 11155              		.cfi_endproc
 11156              	.LFE123:
 11157              		.size	cmp_read_ext8_marker, .-cmp_read_ext8_marker
 11158              		.section	.text.cmp_read_ext8,"ax",%progbits
 11159              		.align	1
 11160              		.p2align 4,,15
 11161              		.global	cmp_read_ext8
 11162              		.syntax unified
 11163              		.thumb
 11164              		.thumb_func
ARM GAS  C:\Users\PCHAUT~1\AppData\Local\Temp\ccacj52E.s 			page 198


 11165              		.fpu fpv4-sp-d16
 11166              		.type	cmp_read_ext8, %function
 11167              	cmp_read_ext8:
 11168              	.LFB124:
 11169              		.loc 1 1801 0 is_stmt 1
 11170              		.cfi_startproc
 11171              		@ args = 0, pretend = 0, frame = 24
 11172              		@ frame_needed = 0, uses_anonymous_args = 0
 11173 0000 00B5     		push	{lr}
 11174              		.cfi_def_cfa_offset 4
 11175              		.cfi_offset 14, -4
 11176 0002 87B0     		sub	sp, sp, #28
 11177              		.cfi_def_cfa_offset 32
 11178 0004 0390     		str	r0, [sp, #12]
 11179 0006 0291     		str	r1, [sp, #8]
 11180 0008 0192     		str	r2, [sp, #4]
 11181 000a 0093     		str	r3, [sp]
 11182              		.loc 1 1801 0
 11183 000c 154B     		ldr	r3, .L979
 11184 000e 1B68     		ldr	r3, [r3]
 11185 0010 0593     		str	r3, [sp, #20]
 11186              		.loc 1 1802 0
 11187 0012 019A     		ldr	r2, [sp, #4]
 11188 0014 0299     		ldr	r1, [sp, #8]
 11189 0016 0398     		ldr	r0, [sp, #12]
 11190 0018 FFF7FEFF 		bl	cmp_read_ext8_marker
 11191 001c 0346     		mov	r3, r0
 11192 001e 83F00103 		eor	r3, r3, #1
 11193 0022 DBB2     		uxtb	r3, r3
 11194 0024 002B     		cmp	r3, #0
 11195 0026 01D0     		beq	.L975
 11196              		.loc 1 1803 0
 11197 0028 0023     		movs	r3, #0
 11198 002a 0FE0     		b	.L976
 11199              	.L975:
 11200              		.loc 1 1805 0
 11201 002c 039B     		ldr	r3, [sp, #12]
 11202 002e 9B68     		ldr	r3, [r3, #8]
 11203 0030 019A     		ldr	r2, [sp, #4]
 11204 0032 1278     		ldrb	r2, [r2]	@ zero_extendqisi2
 11205 0034 0099     		ldr	r1, [sp]
 11206 0036 0398     		ldr	r0, [sp, #12]
 11207 0038 9847     		blx	r3
 11208              	.LVL57:
 11209 003a 0346     		mov	r3, r0
 11210 003c 002B     		cmp	r3, #0
 11211 003e 01D0     		beq	.L977
 11212              		.loc 1 1806 0
 11213 0040 0123     		movs	r3, #1
 11214 0042 03E0     		b	.L976
 11215              	.L977:
 11216              		.loc 1 1808 0
 11217 0044 039B     		ldr	r3, [sp, #12]
 11218 0046 0922     		movs	r2, #9
 11219 0048 1A70     		strb	r2, [r3]
 11220              		.loc 1 1809 0
 11221 004a 0023     		movs	r3, #0
ARM GAS  C:\Users\PCHAUT~1\AppData\Local\Temp\ccacj52E.s 			page 199


 11222              	.L976:
 11223              		.loc 1 1810 0
 11224 004c 1846     		mov	r0, r3
 11225 004e 054B     		ldr	r3, .L979
 11226 0050 059A     		ldr	r2, [sp, #20]
 11227 0052 1B68     		ldr	r3, [r3]
 11228 0054 9A42     		cmp	r2, r3
 11229 0056 01D0     		beq	.L978
 11230 0058 FFF7FEFF 		bl	__stack_chk_fail
 11231              	.L978:
 11232 005c 07B0     		add	sp, sp, #28
 11233              		.cfi_def_cfa_offset 4
 11234              		@ sp needed
 11235 005e 5DF804FB 		ldr	pc, [sp], #4
 11236              	.L980:
 11237 0062 00BF     		.align	2
 11238              	.L979:
 11239 0064 00000000 		.word	__stack_chk_guard
 11240              		.cfi_endproc
 11241              	.LFE124:
 11242              		.size	cmp_read_ext8, .-cmp_read_ext8
 11243              		.section	.text.cmp_read_ext16_marker,"ax",%progbits
 11244              		.align	1
 11245              		.p2align 4,,15
 11246              		.global	cmp_read_ext16_marker
 11247              		.syntax unified
 11248              		.thumb
 11249              		.thumb_func
 11250              		.fpu fpv4-sp-d16
 11251              		.type	cmp_read_ext16_marker, %function
 11252              	cmp_read_ext16_marker:
 11253              	.LFB125:
 11254              		.loc 1 1812 0
 11255              		.cfi_startproc
 11256              		@ args = 0, pretend = 0, frame = 40
 11257              		@ frame_needed = 0, uses_anonymous_args = 0
 11258 0000 00B5     		push	{lr}
 11259              		.cfi_def_cfa_offset 4
 11260              		.cfi_offset 14, -4
 11261 0002 8BB0     		sub	sp, sp, #44
 11262              		.cfi_def_cfa_offset 48
 11263 0004 0390     		str	r0, [sp, #12]
 11264 0006 0291     		str	r1, [sp, #8]
 11265 0008 0192     		str	r2, [sp, #4]
 11266              		.loc 1 1812 0
 11267 000a 164B     		ldr	r3, .L987
 11268 000c 1B68     		ldr	r3, [r3]
 11269 000e 0993     		str	r3, [sp, #36]
 11270              		.loc 1 1815 0
 11271 0010 04AB     		add	r3, sp, #16
 11272 0012 1946     		mov	r1, r3
 11273 0014 0398     		ldr	r0, [sp, #12]
 11274 0016 FFF7FEFF 		bl	cmp_read_object
 11275 001a 0346     		mov	r3, r0
 11276 001c 83F00103 		eor	r3, r3, #1
 11277 0020 DBB2     		uxtb	r3, r3
 11278 0022 002B     		cmp	r3, #0
ARM GAS  C:\Users\PCHAUT~1\AppData\Local\Temp\ccacj52E.s 			page 200


 11279 0024 01D0     		beq	.L982
 11280              		.loc 1 1816 0
 11281 0026 0023     		movs	r3, #0
 11282 0028 11E0     		b	.L985
 11283              	.L982:
 11284              		.loc 1 1818 0
 11285 002a 9DF81030 		ldrb	r3, [sp, #16]	@ zero_extendqisi2
 11286 002e 0A2B     		cmp	r3, #10
 11287 0030 04D0     		beq	.L984
 11288              		.loc 1 1819 0
 11289 0032 039B     		ldr	r3, [sp, #12]
 11290 0034 0D22     		movs	r2, #13
 11291 0036 1A70     		strb	r2, [r3]
 11292              		.loc 1 1820 0
 11293 0038 0023     		movs	r3, #0
 11294 003a 08E0     		b	.L985
 11295              	.L984:
 11296              		.loc 1 1823 0
 11297 003c 9DF91820 		ldrsb	r2, [sp, #24]
 11298 0040 029B     		ldr	r3, [sp, #8]
 11299 0042 1A70     		strb	r2, [r3]
 11300              		.loc 1 1824 0
 11301 0044 079B     		ldr	r3, [sp, #28]
 11302 0046 9AB2     		uxth	r2, r3
 11303 0048 019B     		ldr	r3, [sp, #4]
 11304 004a 1A80     		strh	r2, [r3]	@ movhi
 11305              		.loc 1 1826 0
 11306 004c 0123     		movs	r3, #1
 11307              	.L985:
 11308              		.loc 1 1827 0 discriminator 1
 11309 004e 1846     		mov	r0, r3
 11310 0050 044B     		ldr	r3, .L987
 11311 0052 099A     		ldr	r2, [sp, #36]
 11312 0054 1B68     		ldr	r3, [r3]
 11313 0056 9A42     		cmp	r2, r3
 11314 0058 01D0     		beq	.L986
 11315              		.loc 1 1827 0 is_stmt 0
 11316 005a FFF7FEFF 		bl	__stack_chk_fail
 11317              	.L986:
 11318 005e 0BB0     		add	sp, sp, #44
 11319              		.cfi_def_cfa_offset 4
 11320              		@ sp needed
 11321 0060 5DF804FB 		ldr	pc, [sp], #4
 11322              	.L988:
 11323              		.align	2
 11324              	.L987:
 11325 0064 00000000 		.word	__stack_chk_guard
 11326              		.cfi_endproc
 11327              	.LFE125:
 11328              		.size	cmp_read_ext16_marker, .-cmp_read_ext16_marker
 11329              		.section	.text.cmp_read_ext16,"ax",%progbits
 11330              		.align	1
 11331              		.p2align 4,,15
 11332              		.global	cmp_read_ext16
 11333              		.syntax unified
 11334              		.thumb
 11335              		.thumb_func
ARM GAS  C:\Users\PCHAUT~1\AppData\Local\Temp\ccacj52E.s 			page 201


 11336              		.fpu fpv4-sp-d16
 11337              		.type	cmp_read_ext16, %function
 11338              	cmp_read_ext16:
 11339              	.LFB126:
 11340              		.loc 1 1829 0 is_stmt 1
 11341              		.cfi_startproc
 11342              		@ args = 0, pretend = 0, frame = 24
 11343              		@ frame_needed = 0, uses_anonymous_args = 0
 11344 0000 00B5     		push	{lr}
 11345              		.cfi_def_cfa_offset 4
 11346              		.cfi_offset 14, -4
 11347 0002 87B0     		sub	sp, sp, #28
 11348              		.cfi_def_cfa_offset 32
 11349 0004 0390     		str	r0, [sp, #12]
 11350 0006 0291     		str	r1, [sp, #8]
 11351 0008 0192     		str	r2, [sp, #4]
 11352 000a 0093     		str	r3, [sp]
 11353              		.loc 1 1829 0
 11354 000c 154B     		ldr	r3, .L994
 11355 000e 1B68     		ldr	r3, [r3]
 11356 0010 0593     		str	r3, [sp, #20]
 11357              		.loc 1 1830 0
 11358 0012 019A     		ldr	r2, [sp, #4]
 11359 0014 0299     		ldr	r1, [sp, #8]
 11360 0016 0398     		ldr	r0, [sp, #12]
 11361 0018 FFF7FEFF 		bl	cmp_read_ext16_marker
 11362 001c 0346     		mov	r3, r0
 11363 001e 83F00103 		eor	r3, r3, #1
 11364 0022 DBB2     		uxtb	r3, r3
 11365 0024 002B     		cmp	r3, #0
 11366 0026 01D0     		beq	.L990
 11367              		.loc 1 1831 0
 11368 0028 0023     		movs	r3, #0
 11369 002a 0FE0     		b	.L991
 11370              	.L990:
 11371              		.loc 1 1833 0
 11372 002c 039B     		ldr	r3, [sp, #12]
 11373 002e 9B68     		ldr	r3, [r3, #8]
 11374 0030 019A     		ldr	r2, [sp, #4]
 11375 0032 1288     		ldrh	r2, [r2]
 11376 0034 0099     		ldr	r1, [sp]
 11377 0036 0398     		ldr	r0, [sp, #12]
 11378 0038 9847     		blx	r3
 11379              	.LVL58:
 11380 003a 0346     		mov	r3, r0
 11381 003c 002B     		cmp	r3, #0
 11382 003e 01D0     		beq	.L992
 11383              		.loc 1 1834 0
 11384 0040 0123     		movs	r3, #1
 11385 0042 03E0     		b	.L991
 11386              	.L992:
 11387              		.loc 1 1836 0
 11388 0044 039B     		ldr	r3, [sp, #12]
 11389 0046 0922     		movs	r2, #9
 11390 0048 1A70     		strb	r2, [r3]
 11391              		.loc 1 1837 0
 11392 004a 0023     		movs	r3, #0
ARM GAS  C:\Users\PCHAUT~1\AppData\Local\Temp\ccacj52E.s 			page 202


 11393              	.L991:
 11394              		.loc 1 1838 0
 11395 004c 1846     		mov	r0, r3
 11396 004e 054B     		ldr	r3, .L994
 11397 0050 059A     		ldr	r2, [sp, #20]
 11398 0052 1B68     		ldr	r3, [r3]
 11399 0054 9A42     		cmp	r2, r3
 11400 0056 01D0     		beq	.L993
 11401 0058 FFF7FEFF 		bl	__stack_chk_fail
 11402              	.L993:
 11403 005c 07B0     		add	sp, sp, #28
 11404              		.cfi_def_cfa_offset 4
 11405              		@ sp needed
 11406 005e 5DF804FB 		ldr	pc, [sp], #4
 11407              	.L995:
 11408 0062 00BF     		.align	2
 11409              	.L994:
 11410 0064 00000000 		.word	__stack_chk_guard
 11411              		.cfi_endproc
 11412              	.LFE126:
 11413              		.size	cmp_read_ext16, .-cmp_read_ext16
 11414              		.section	.text.cmp_read_ext32_marker,"ax",%progbits
 11415              		.align	1
 11416              		.p2align 4,,15
 11417              		.global	cmp_read_ext32_marker
 11418              		.syntax unified
 11419              		.thumb
 11420              		.thumb_func
 11421              		.fpu fpv4-sp-d16
 11422              		.type	cmp_read_ext32_marker, %function
 11423              	cmp_read_ext32_marker:
 11424              	.LFB127:
 11425              		.loc 1 1840 0
 11426              		.cfi_startproc
 11427              		@ args = 0, pretend = 0, frame = 40
 11428              		@ frame_needed = 0, uses_anonymous_args = 0
 11429 0000 00B5     		push	{lr}
 11430              		.cfi_def_cfa_offset 4
 11431              		.cfi_offset 14, -4
 11432 0002 8BB0     		sub	sp, sp, #44
 11433              		.cfi_def_cfa_offset 48
 11434 0004 0390     		str	r0, [sp, #12]
 11435 0006 0291     		str	r1, [sp, #8]
 11436 0008 0192     		str	r2, [sp, #4]
 11437              		.loc 1 1840 0
 11438 000a 164B     		ldr	r3, .L1002
 11439 000c 1B68     		ldr	r3, [r3]
 11440 000e 0993     		str	r3, [sp, #36]
 11441              		.loc 1 1843 0
 11442 0010 04AB     		add	r3, sp, #16
 11443 0012 1946     		mov	r1, r3
 11444 0014 0398     		ldr	r0, [sp, #12]
 11445 0016 FFF7FEFF 		bl	cmp_read_object
 11446 001a 0346     		mov	r3, r0
 11447 001c 83F00103 		eor	r3, r3, #1
 11448 0020 DBB2     		uxtb	r3, r3
 11449 0022 002B     		cmp	r3, #0
ARM GAS  C:\Users\PCHAUT~1\AppData\Local\Temp\ccacj52E.s 			page 203


 11450 0024 01D0     		beq	.L997
 11451              		.loc 1 1844 0
 11452 0026 0023     		movs	r3, #0
 11453 0028 10E0     		b	.L1000
 11454              	.L997:
 11455              		.loc 1 1846 0
 11456 002a 9DF81030 		ldrb	r3, [sp, #16]	@ zero_extendqisi2
 11457 002e 0B2B     		cmp	r3, #11
 11458 0030 04D0     		beq	.L999
 11459              		.loc 1 1847 0
 11460 0032 039B     		ldr	r3, [sp, #12]
 11461 0034 0D22     		movs	r2, #13
 11462 0036 1A70     		strb	r2, [r3]
 11463              		.loc 1 1848 0
 11464 0038 0023     		movs	r3, #0
 11465 003a 07E0     		b	.L1000
 11466              	.L999:
 11467              		.loc 1 1851 0
 11468 003c 9DF91820 		ldrsb	r2, [sp, #24]
 11469 0040 029B     		ldr	r3, [sp, #8]
 11470 0042 1A70     		strb	r2, [r3]
 11471              		.loc 1 1852 0
 11472 0044 079A     		ldr	r2, [sp, #28]
 11473 0046 019B     		ldr	r3, [sp, #4]
 11474 0048 1A60     		str	r2, [r3]
 11475              		.loc 1 1854 0
 11476 004a 0123     		movs	r3, #1
 11477              	.L1000:
 11478              		.loc 1 1855 0 discriminator 1
 11479 004c 1846     		mov	r0, r3
 11480 004e 054B     		ldr	r3, .L1002
 11481 0050 099A     		ldr	r2, [sp, #36]
 11482 0052 1B68     		ldr	r3, [r3]
 11483 0054 9A42     		cmp	r2, r3
 11484 0056 01D0     		beq	.L1001
 11485              		.loc 1 1855 0 is_stmt 0
 11486 0058 FFF7FEFF 		bl	__stack_chk_fail
 11487              	.L1001:
 11488 005c 0BB0     		add	sp, sp, #44
 11489              		.cfi_def_cfa_offset 4
 11490              		@ sp needed
 11491 005e 5DF804FB 		ldr	pc, [sp], #4
 11492              	.L1003:
 11493 0062 00BF     		.align	2
 11494              	.L1002:
 11495 0064 00000000 		.word	__stack_chk_guard
 11496              		.cfi_endproc
 11497              	.LFE127:
 11498              		.size	cmp_read_ext32_marker, .-cmp_read_ext32_marker
 11499              		.section	.text.cmp_read_ext32,"ax",%progbits
 11500              		.align	1
 11501              		.p2align 4,,15
 11502              		.global	cmp_read_ext32
 11503              		.syntax unified
 11504              		.thumb
 11505              		.thumb_func
 11506              		.fpu fpv4-sp-d16
ARM GAS  C:\Users\PCHAUT~1\AppData\Local\Temp\ccacj52E.s 			page 204


 11507              		.type	cmp_read_ext32, %function
 11508              	cmp_read_ext32:
 11509              	.LFB128:
 11510              		.loc 1 1857 0 is_stmt 1
 11511              		.cfi_startproc
 11512              		@ args = 0, pretend = 0, frame = 24
 11513              		@ frame_needed = 0, uses_anonymous_args = 0
 11514 0000 00B5     		push	{lr}
 11515              		.cfi_def_cfa_offset 4
 11516              		.cfi_offset 14, -4
 11517 0002 87B0     		sub	sp, sp, #28
 11518              		.cfi_def_cfa_offset 32
 11519 0004 0390     		str	r0, [sp, #12]
 11520 0006 0291     		str	r1, [sp, #8]
 11521 0008 0192     		str	r2, [sp, #4]
 11522 000a 0093     		str	r3, [sp]
 11523              		.loc 1 1857 0
 11524 000c 154B     		ldr	r3, .L1009
 11525 000e 1B68     		ldr	r3, [r3]
 11526 0010 0593     		str	r3, [sp, #20]
 11527              		.loc 1 1858 0
 11528 0012 019A     		ldr	r2, [sp, #4]
 11529 0014 0299     		ldr	r1, [sp, #8]
 11530 0016 0398     		ldr	r0, [sp, #12]
 11531 0018 FFF7FEFF 		bl	cmp_read_ext32_marker
 11532 001c 0346     		mov	r3, r0
 11533 001e 83F00103 		eor	r3, r3, #1
 11534 0022 DBB2     		uxtb	r3, r3
 11535 0024 002B     		cmp	r3, #0
 11536 0026 01D0     		beq	.L1005
 11537              		.loc 1 1859 0
 11538 0028 0023     		movs	r3, #0
 11539 002a 0FE0     		b	.L1006
 11540              	.L1005:
 11541              		.loc 1 1861 0
 11542 002c 039B     		ldr	r3, [sp, #12]
 11543 002e 9B68     		ldr	r3, [r3, #8]
 11544 0030 019A     		ldr	r2, [sp, #4]
 11545 0032 1268     		ldr	r2, [r2]
 11546 0034 0099     		ldr	r1, [sp]
 11547 0036 0398     		ldr	r0, [sp, #12]
 11548 0038 9847     		blx	r3
 11549              	.LVL59:
 11550 003a 0346     		mov	r3, r0
 11551 003c 002B     		cmp	r3, #0
 11552 003e 01D0     		beq	.L1007
 11553              		.loc 1 1862 0
 11554 0040 0123     		movs	r3, #1
 11555 0042 03E0     		b	.L1006
 11556              	.L1007:
 11557              		.loc 1 1864 0
 11558 0044 039B     		ldr	r3, [sp, #12]
 11559 0046 0922     		movs	r2, #9
 11560 0048 1A70     		strb	r2, [r3]
 11561              		.loc 1 1865 0
 11562 004a 0023     		movs	r3, #0
 11563              	.L1006:
ARM GAS  C:\Users\PCHAUT~1\AppData\Local\Temp\ccacj52E.s 			page 205


 11564              		.loc 1 1866 0
 11565 004c 1846     		mov	r0, r3
 11566 004e 054B     		ldr	r3, .L1009
 11567 0050 059A     		ldr	r2, [sp, #20]
 11568 0052 1B68     		ldr	r3, [r3]
 11569 0054 9A42     		cmp	r2, r3
 11570 0056 01D0     		beq	.L1008
 11571 0058 FFF7FEFF 		bl	__stack_chk_fail
 11572              	.L1008:
 11573 005c 07B0     		add	sp, sp, #28
 11574              		.cfi_def_cfa_offset 4
 11575              		@ sp needed
 11576 005e 5DF804FB 		ldr	pc, [sp], #4
 11577              	.L1010:
 11578 0062 00BF     		.align	2
 11579              	.L1009:
 11580 0064 00000000 		.word	__stack_chk_guard
 11581              		.cfi_endproc
 11582              	.LFE128:
 11583              		.size	cmp_read_ext32, .-cmp_read_ext32
 11584              		.section	.text.cmp_read_ext_marker,"ax",%progbits
 11585              		.align	1
 11586              		.p2align 4,,15
 11587              		.global	cmp_read_ext_marker
 11588              		.syntax unified
 11589              		.thumb
 11590              		.thumb_func
 11591              		.fpu fpv4-sp-d16
 11592              		.type	cmp_read_ext_marker, %function
 11593              	cmp_read_ext_marker:
 11594              	.LFB129:
 11595              		.loc 1 1868 0
 11596              		.cfi_startproc
 11597              		@ args = 0, pretend = 0, frame = 40
 11598              		@ frame_needed = 0, uses_anonymous_args = 0
 11599 0000 00B5     		push	{lr}
 11600              		.cfi_def_cfa_offset 4
 11601              		.cfi_offset 14, -4
 11602 0002 8BB0     		sub	sp, sp, #44
 11603              		.cfi_def_cfa_offset 48
 11604 0004 0390     		str	r0, [sp, #12]
 11605 0006 0291     		str	r1, [sp, #8]
 11606 0008 0192     		str	r2, [sp, #4]
 11607              		.loc 1 1868 0
 11608 000a 2A4B     		ldr	r3, .L1019
 11609 000c 1B68     		ldr	r3, [r3]
 11610 000e 0993     		str	r3, [sp, #36]
 11611              		.loc 1 1871 0
 11612 0010 04AB     		add	r3, sp, #16
 11613 0012 1946     		mov	r1, r3
 11614 0014 0398     		ldr	r0, [sp, #12]
 11615 0016 FFF7FEFF 		bl	cmp_read_object
 11616 001a 0346     		mov	r3, r0
 11617 001c 83F00103 		eor	r3, r3, #1
 11618 0020 DBB2     		uxtb	r3, r3
 11619 0022 002B     		cmp	r3, #0
 11620 0024 01D0     		beq	.L1012
ARM GAS  C:\Users\PCHAUT~1\AppData\Local\Temp\ccacj52E.s 			page 206


 11621              		.loc 1 1872 0
 11622 0026 0023     		movs	r3, #0
 11623 0028 39E0     		b	.L1017
 11624              	.L1012:
 11625              		.loc 1 1874 0
 11626 002a 9DF81030 		ldrb	r3, [sp, #16]	@ zero_extendqisi2
 11627 002e 093B     		subs	r3, r3, #9
 11628 0030 112B     		cmp	r3, #17
 11629 0032 30D8     		bhi	.L1014
 11630 0034 01A2     		adr	r2, .L1016
 11631 0036 52F823F0 		ldr	pc, [r2, r3, lsl #2]
 11632 003a 00BF     		.p2align 2
 11633              	.L1016:
 11634 003c 85000000 		.word	.L1015+1
 11635 0040 85000000 		.word	.L1015+1
 11636 0044 85000000 		.word	.L1015+1
 11637 0048 97000000 		.word	.L1014+1
 11638 004c 97000000 		.word	.L1014+1
 11639 0050 97000000 		.word	.L1014+1
 11640 0054 97000000 		.word	.L1014+1
 11641 0058 97000000 		.word	.L1014+1
 11642 005c 97000000 		.word	.L1014+1
 11643 0060 97000000 		.word	.L1014+1
 11644 0064 97000000 		.word	.L1014+1
 11645 0068 97000000 		.word	.L1014+1
 11646 006c 97000000 		.word	.L1014+1
 11647 0070 85000000 		.word	.L1015+1
 11648 0074 85000000 		.word	.L1015+1
 11649 0078 85000000 		.word	.L1015+1
 11650 007c 85000000 		.word	.L1015+1
 11651 0080 85000000 		.word	.L1015+1
 11652              		.p2align 1
 11653              	.L1015:
 11654              		.loc 1 1883 0
 11655 0084 9DF91820 		ldrsb	r2, [sp, #24]
 11656 0088 029B     		ldr	r3, [sp, #8]
 11657 008a 1A70     		strb	r2, [r3]
 11658              		.loc 1 1884 0
 11659 008c 079A     		ldr	r2, [sp, #28]
 11660 008e 019B     		ldr	r3, [sp, #4]
 11661 0090 1A60     		str	r2, [r3]
 11662              		.loc 1 1885 0
 11663 0092 0123     		movs	r3, #1
 11664 0094 03E0     		b	.L1017
 11665              	.L1014:
 11666              		.loc 1 1887 0
 11667 0096 039B     		ldr	r3, [sp, #12]
 11668 0098 0D22     		movs	r2, #13
 11669 009a 1A70     		strb	r2, [r3]
 11670              		.loc 1 1888 0
 11671 009c 0023     		movs	r3, #0
 11672              	.L1017:
 11673              		.loc 1 1890 0 discriminator 1
 11674 009e 1846     		mov	r0, r3
 11675 00a0 044B     		ldr	r3, .L1019
 11676 00a2 099A     		ldr	r2, [sp, #36]
 11677 00a4 1B68     		ldr	r3, [r3]
ARM GAS  C:\Users\PCHAUT~1\AppData\Local\Temp\ccacj52E.s 			page 207


 11678 00a6 9A42     		cmp	r2, r3
 11679 00a8 01D0     		beq	.L1018
 11680              		.loc 1 1890 0 is_stmt 0
 11681 00aa FFF7FEFF 		bl	__stack_chk_fail
 11682              	.L1018:
 11683 00ae 0BB0     		add	sp, sp, #44
 11684              		.cfi_def_cfa_offset 4
 11685              		@ sp needed
 11686 00b0 5DF804FB 		ldr	pc, [sp], #4
 11687              	.L1020:
 11688              		.align	2
 11689              	.L1019:
 11690 00b4 00000000 		.word	__stack_chk_guard
 11691              		.cfi_endproc
 11692              	.LFE129:
 11693              		.size	cmp_read_ext_marker, .-cmp_read_ext_marker
 11694              		.section	.text.cmp_read_ext,"ax",%progbits
 11695              		.align	1
 11696              		.p2align 4,,15
 11697              		.global	cmp_read_ext
 11698              		.syntax unified
 11699              		.thumb
 11700              		.thumb_func
 11701              		.fpu fpv4-sp-d16
 11702              		.type	cmp_read_ext, %function
 11703              	cmp_read_ext:
 11704              	.LFB130:
 11705              		.loc 1 1892 0 is_stmt 1
 11706              		.cfi_startproc
 11707              		@ args = 0, pretend = 0, frame = 24
 11708              		@ frame_needed = 0, uses_anonymous_args = 0
 11709 0000 00B5     		push	{lr}
 11710              		.cfi_def_cfa_offset 4
 11711              		.cfi_offset 14, -4
 11712 0002 87B0     		sub	sp, sp, #28
 11713              		.cfi_def_cfa_offset 32
 11714 0004 0390     		str	r0, [sp, #12]
 11715 0006 0291     		str	r1, [sp, #8]
 11716 0008 0192     		str	r2, [sp, #4]
 11717 000a 0093     		str	r3, [sp]
 11718              		.loc 1 1892 0
 11719 000c 154B     		ldr	r3, .L1026
 11720 000e 1B68     		ldr	r3, [r3]
 11721 0010 0593     		str	r3, [sp, #20]
 11722              		.loc 1 1893 0
 11723 0012 019A     		ldr	r2, [sp, #4]
 11724 0014 0299     		ldr	r1, [sp, #8]
 11725 0016 0398     		ldr	r0, [sp, #12]
 11726 0018 FFF7FEFF 		bl	cmp_read_ext_marker
 11727 001c 0346     		mov	r3, r0
 11728 001e 83F00103 		eor	r3, r3, #1
 11729 0022 DBB2     		uxtb	r3, r3
 11730 0024 002B     		cmp	r3, #0
 11731 0026 01D0     		beq	.L1022
 11732              		.loc 1 1894 0
 11733 0028 0023     		movs	r3, #0
 11734 002a 0FE0     		b	.L1023
ARM GAS  C:\Users\PCHAUT~1\AppData\Local\Temp\ccacj52E.s 			page 208


 11735              	.L1022:
 11736              		.loc 1 1896 0
 11737 002c 039B     		ldr	r3, [sp, #12]
 11738 002e 9B68     		ldr	r3, [r3, #8]
 11739 0030 019A     		ldr	r2, [sp, #4]
 11740 0032 1268     		ldr	r2, [r2]
 11741 0034 0099     		ldr	r1, [sp]
 11742 0036 0398     		ldr	r0, [sp, #12]
 11743 0038 9847     		blx	r3
 11744              	.LVL60:
 11745 003a 0346     		mov	r3, r0
 11746 003c 002B     		cmp	r3, #0
 11747 003e 01D0     		beq	.L1024
 11748              		.loc 1 1897 0
 11749 0040 0123     		movs	r3, #1
 11750 0042 03E0     		b	.L1023
 11751              	.L1024:
 11752              		.loc 1 1899 0
 11753 0044 039B     		ldr	r3, [sp, #12]
 11754 0046 0922     		movs	r2, #9
 11755 0048 1A70     		strb	r2, [r3]
 11756              		.loc 1 1900 0
 11757 004a 0023     		movs	r3, #0
 11758              	.L1023:
 11759              		.loc 1 1901 0
 11760 004c 1846     		mov	r0, r3
 11761 004e 054B     		ldr	r3, .L1026
 11762 0050 059A     		ldr	r2, [sp, #20]
 11763 0052 1B68     		ldr	r3, [r3]
 11764 0054 9A42     		cmp	r2, r3
 11765 0056 01D0     		beq	.L1025
 11766 0058 FFF7FEFF 		bl	__stack_chk_fail
 11767              	.L1025:
 11768 005c 07B0     		add	sp, sp, #28
 11769              		.cfi_def_cfa_offset 4
 11770              		@ sp needed
 11771 005e 5DF804FB 		ldr	pc, [sp], #4
 11772              	.L1027:
 11773 0062 00BF     		.align	2
 11774              	.L1026:
 11775 0064 00000000 		.word	__stack_chk_guard
 11776              		.cfi_endproc
 11777              	.LFE130:
 11778              		.size	cmp_read_ext, .-cmp_read_ext
 11779              		.section	.text.cmp_read_object,"ax",%progbits
 11780              		.align	1
 11781              		.p2align 4,,15
 11782              		.global	cmp_read_object
 11783              		.syntax unified
 11784              		.thumb
 11785              		.thumb_func
 11786              		.fpu fpv4-sp-d16
 11787              		.type	cmp_read_object, %function
 11788              	cmp_read_object:
 11789              	.LFB131:
 11790              		.loc 1 1903 0
 11791              		.cfi_startproc
ARM GAS  C:\Users\PCHAUT~1\AppData\Local\Temp\ccacj52E.s 			page 209


 11792              		@ args = 0, pretend = 0, frame = 24
 11793              		@ frame_needed = 0, uses_anonymous_args = 0
 11794 0000 10B5     		push	{r4, lr}
 11795              		.cfi_def_cfa_offset 8
 11796              		.cfi_offset 4, -8
 11797              		.cfi_offset 14, -4
 11798 0002 86B0     		sub	sp, sp, #24
 11799              		.cfi_def_cfa_offset 32
 11800 0004 0190     		str	r0, [sp, #4]
 11801 0006 0091     		str	r1, [sp]
 11802              		.loc 1 1903 0
 11803 0008 AF4B     		ldr	r3, .L1102
 11804 000a 1B68     		ldr	r3, [r3]
 11805 000c 0593     		str	r3, [sp, #20]
 11806              		.loc 1 1904 0
 11807 000e 0023     		movs	r3, #0
 11808 0010 8DF80E30 		strb	r3, [sp, #14]
 11809              		.loc 1 1906 0
 11810 0014 0DF10E03 		add	r3, sp, #14
 11811 0018 1946     		mov	r1, r3
 11812 001a 0198     		ldr	r0, [sp, #4]
 11813 001c FFF7FEFF 		bl	read_type_marker
 11814 0020 0346     		mov	r3, r0
 11815 0022 83F00103 		eor	r3, r3, #1
 11816 0026 DBB2     		uxtb	r3, r3
 11817 0028 002B     		cmp	r3, #0
 11818 002a 02D0     		beq	.L1029
 11819              		.loc 1 1907 0
 11820 002c 0023     		movs	r3, #0
 11821 002e 00F070BC 		b	.L1100
 11822              	.L1029:
 11823              		.loc 1 1909 0
 11824 0032 9DF80E30 		ldrb	r3, [sp, #14]	@ zero_extendqisi2
 11825 0036 5BB2     		sxtb	r3, r3
 11826 0038 002B     		cmp	r3, #0
 11827 003a 08DB     		blt	.L1031
 11828              		.loc 1 1910 0
 11829 003c 009B     		ldr	r3, [sp]
 11830 003e 0022     		movs	r2, #0
 11831 0040 1A70     		strb	r2, [r3]
 11832              		.loc 1 1911 0
 11833 0042 9DF80E20 		ldrb	r2, [sp, #14]	@ zero_extendqisi2
 11834 0046 009B     		ldr	r3, [sp]
 11835 0048 1A72     		strb	r2, [r3, #8]
 11836 004a 00F061BC 		b	.L1032
 11837              	.L1031:
 11838              		.loc 1 1913 0
 11839 004e 9DF80E30 		ldrb	r3, [sp, #14]	@ zero_extendqisi2
 11840 0052 8F2B     		cmp	r3, #143
 11841 0054 0AD8     		bhi	.L1033
 11842              		.loc 1 1914 0
 11843 0056 009B     		ldr	r3, [sp]
 11844 0058 0122     		movs	r2, #1
 11845 005a 1A70     		strb	r2, [r3]
 11846              		.loc 1 1915 0
 11847 005c 9DF80E30 		ldrb	r3, [sp, #14]	@ zero_extendqisi2
 11848 0060 03F00F02 		and	r2, r3, #15
ARM GAS  C:\Users\PCHAUT~1\AppData\Local\Temp\ccacj52E.s 			page 210


 11849 0064 009B     		ldr	r3, [sp]
 11850 0066 9A60     		str	r2, [r3, #8]
 11851 0068 00F052BC 		b	.L1032
 11852              	.L1033:
 11853              		.loc 1 1917 0
 11854 006c 9DF80E30 		ldrb	r3, [sp, #14]	@ zero_extendqisi2
 11855 0070 9F2B     		cmp	r3, #159
 11856 0072 0AD8     		bhi	.L1034
 11857              		.loc 1 1918 0
 11858 0074 009B     		ldr	r3, [sp]
 11859 0076 0222     		movs	r2, #2
 11860 0078 1A70     		strb	r2, [r3]
 11861              		.loc 1 1919 0
 11862 007a 9DF80E30 		ldrb	r3, [sp, #14]	@ zero_extendqisi2
 11863 007e 03F00F02 		and	r2, r3, #15
 11864 0082 009B     		ldr	r3, [sp]
 11865 0084 9A60     		str	r2, [r3, #8]
 11866 0086 00F043BC 		b	.L1032
 11867              	.L1034:
 11868              		.loc 1 1921 0
 11869 008a 9DF80E30 		ldrb	r3, [sp, #14]	@ zero_extendqisi2
 11870 008e BF2B     		cmp	r3, #191
 11871 0090 0AD8     		bhi	.L1035
 11872              		.loc 1 1922 0
 11873 0092 009B     		ldr	r3, [sp]
 11874 0094 0322     		movs	r2, #3
 11875 0096 1A70     		strb	r2, [r3]
 11876              		.loc 1 1923 0
 11877 0098 9DF80E30 		ldrb	r3, [sp, #14]	@ zero_extendqisi2
 11878 009c 03F01F02 		and	r2, r3, #31
 11879 00a0 009B     		ldr	r3, [sp]
 11880 00a2 9A60     		str	r2, [r3, #8]
 11881 00a4 00F034BC 		b	.L1032
 11882              	.L1035:
 11883              		.loc 1 1925 0
 11884 00a8 9DF80E30 		ldrb	r3, [sp, #14]	@ zero_extendqisi2
 11885 00ac C02B     		cmp	r3, #192
 11886 00ae 07D1     		bne	.L1036
 11887              		.loc 1 1926 0
 11888 00b0 009B     		ldr	r3, [sp]
 11889 00b2 0422     		movs	r2, #4
 11890 00b4 1A70     		strb	r2, [r3]
 11891              		.loc 1 1927 0
 11892 00b6 009B     		ldr	r3, [sp]
 11893 00b8 0022     		movs	r2, #0
 11894 00ba 1A72     		strb	r2, [r3, #8]
 11895 00bc 00F028BC 		b	.L1032
 11896              	.L1036:
 11897              		.loc 1 1929 0
 11898 00c0 9DF80E30 		ldrb	r3, [sp, #14]	@ zero_extendqisi2
 11899 00c4 C22B     		cmp	r3, #194
 11900 00c6 07D1     		bne	.L1037
 11901              		.loc 1 1930 0
 11902 00c8 009B     		ldr	r3, [sp]
 11903 00ca 0522     		movs	r2, #5
 11904 00cc 1A70     		strb	r2, [r3]
 11905              		.loc 1 1931 0
ARM GAS  C:\Users\PCHAUT~1\AppData\Local\Temp\ccacj52E.s 			page 211


 11906 00ce 009B     		ldr	r3, [sp]
 11907 00d0 0022     		movs	r2, #0
 11908 00d2 1A72     		strb	r2, [r3, #8]
 11909 00d4 00F01CBC 		b	.L1032
 11910              	.L1037:
 11911              		.loc 1 1933 0
 11912 00d8 9DF80E30 		ldrb	r3, [sp, #14]	@ zero_extendqisi2
 11913 00dc C32B     		cmp	r3, #195
 11914 00de 07D1     		bne	.L1038
 11915              		.loc 1 1934 0
 11916 00e0 009B     		ldr	r3, [sp]
 11917 00e2 0522     		movs	r2, #5
 11918 00e4 1A70     		strb	r2, [r3]
 11919              		.loc 1 1935 0
 11920 00e6 009B     		ldr	r3, [sp]
 11921 00e8 0122     		movs	r2, #1
 11922 00ea 1A72     		strb	r2, [r3, #8]
 11923 00ec 00F010BC 		b	.L1032
 11924              	.L1038:
 11925              		.loc 1 1937 0
 11926 00f0 9DF80E30 		ldrb	r3, [sp, #14]	@ zero_extendqisi2
 11927 00f4 C42B     		cmp	r3, #196
 11928 00f6 1BD1     		bne	.L1039
 11929              		.loc 1 1938 0
 11930 00f8 009B     		ldr	r3, [sp]
 11931 00fa 0622     		movs	r2, #6
 11932 00fc 1A70     		strb	r2, [r3]
 11933              		.loc 1 1939 0
 11934 00fe 019B     		ldr	r3, [sp, #4]
 11935 0100 9B68     		ldr	r3, [r3, #8]
 11936 0102 009A     		ldr	r2, [sp]
 11937 0104 02F10801 		add	r1, r2, #8
 11938 0108 0122     		movs	r2, #1
 11939 010a 0198     		ldr	r0, [sp, #4]
 11940 010c 9847     		blx	r3
 11941              	.LVL61:
 11942 010e 0346     		mov	r3, r0
 11943 0110 83F00103 		eor	r3, r3, #1
 11944 0114 DBB2     		uxtb	r3, r3
 11945 0116 002B     		cmp	r3, #0
 11946 0118 04D0     		beq	.L1040
 11947              		.loc 1 1940 0
 11948 011a 019B     		ldr	r3, [sp, #4]
 11949 011c 0E22     		movs	r2, #14
 11950 011e 1A70     		strb	r2, [r3]
 11951              		.loc 1 1941 0
 11952 0120 0023     		movs	r3, #0
 11953 0122 F6E3     		b	.L1100
 11954              	.L1040:
 11955              		.loc 1 1943 0
 11956 0124 009B     		ldr	r3, [sp]
 11957 0126 1B7A     		ldrb	r3, [r3, #8]	@ zero_extendqisi2
 11958 0128 1A46     		mov	r2, r3
 11959 012a 009B     		ldr	r3, [sp]
 11960 012c 9A60     		str	r2, [r3, #8]
 11961 012e EFE3     		b	.L1032
 11962              	.L1039:
ARM GAS  C:\Users\PCHAUT~1\AppData\Local\Temp\ccacj52E.s 			page 212


 11963              		.loc 1 1945 0
 11964 0130 9DF80E30 		ldrb	r3, [sp, #14]	@ zero_extendqisi2
 11965 0134 C52B     		cmp	r3, #197
 11966 0136 1FD1     		bne	.L1041
 11967              		.loc 1 1946 0
 11968 0138 009B     		ldr	r3, [sp]
 11969 013a 0722     		movs	r2, #7
 11970 013c 1A70     		strb	r2, [r3]
 11971              		.loc 1 1947 0
 11972 013e 019B     		ldr	r3, [sp, #4]
 11973 0140 9B68     		ldr	r3, [r3, #8]
 11974 0142 009A     		ldr	r2, [sp]
 11975 0144 02F10801 		add	r1, r2, #8
 11976 0148 0222     		movs	r2, #2
 11977 014a 0198     		ldr	r0, [sp, #4]
 11978 014c 9847     		blx	r3
 11979              	.LVL62:
 11980 014e 0346     		mov	r3, r0
 11981 0150 83F00103 		eor	r3, r3, #1
 11982 0154 DBB2     		uxtb	r3, r3
 11983 0156 002B     		cmp	r3, #0
 11984 0158 04D0     		beq	.L1042
 11985              		.loc 1 1948 0
 11986 015a 019B     		ldr	r3, [sp, #4]
 11987 015c 0E22     		movs	r2, #14
 11988 015e 1A70     		strb	r2, [r3]
 11989              		.loc 1 1949 0
 11990 0160 0023     		movs	r3, #0
 11991 0162 D6E3     		b	.L1100
 11992              	.L1042:
 11993              		.loc 1 1951 0
 11994 0164 009B     		ldr	r3, [sp]
 11995 0166 1B89     		ldrh	r3, [r3, #8]
 11996 0168 1846     		mov	r0, r3
 11997 016a FFF7FEFF 		bl	be16
 11998 016e 0346     		mov	r3, r0
 11999 0170 1A46     		mov	r2, r3
 12000 0172 009B     		ldr	r3, [sp]
 12001 0174 9A60     		str	r2, [r3, #8]
 12002 0176 CBE3     		b	.L1032
 12003              	.L1041:
 12004              		.loc 1 1953 0
 12005 0178 9DF80E30 		ldrb	r3, [sp, #14]	@ zero_extendqisi2
 12006 017c C62B     		cmp	r3, #198
 12007 017e 1ED1     		bne	.L1043
 12008              		.loc 1 1954 0
 12009 0180 009B     		ldr	r3, [sp]
 12010 0182 0822     		movs	r2, #8
 12011 0184 1A70     		strb	r2, [r3]
 12012              		.loc 1 1955 0
 12013 0186 019B     		ldr	r3, [sp, #4]
 12014 0188 9B68     		ldr	r3, [r3, #8]
 12015 018a 009A     		ldr	r2, [sp]
 12016 018c 02F10801 		add	r1, r2, #8
 12017 0190 0422     		movs	r2, #4
 12018 0192 0198     		ldr	r0, [sp, #4]
 12019 0194 9847     		blx	r3
ARM GAS  C:\Users\PCHAUT~1\AppData\Local\Temp\ccacj52E.s 			page 213


 12020              	.LVL63:
 12021 0196 0346     		mov	r3, r0
 12022 0198 83F00103 		eor	r3, r3, #1
 12023 019c DBB2     		uxtb	r3, r3
 12024 019e 002B     		cmp	r3, #0
 12025 01a0 04D0     		beq	.L1044
 12026              		.loc 1 1956 0
 12027 01a2 019B     		ldr	r3, [sp, #4]
 12028 01a4 0E22     		movs	r2, #14
 12029 01a6 1A70     		strb	r2, [r3]
 12030              		.loc 1 1957 0
 12031 01a8 0023     		movs	r3, #0
 12032 01aa B2E3     		b	.L1100
 12033              	.L1044:
 12034              		.loc 1 1959 0
 12035 01ac 009B     		ldr	r3, [sp]
 12036 01ae 9B68     		ldr	r3, [r3, #8]
 12037 01b0 1846     		mov	r0, r3
 12038 01b2 FFF7FEFF 		bl	be32
 12039 01b6 0246     		mov	r2, r0
 12040 01b8 009B     		ldr	r3, [sp]
 12041 01ba 9A60     		str	r2, [r3, #8]
 12042 01bc A8E3     		b	.L1032
 12043              	.L1043:
 12044              		.loc 1 1961 0
 12045 01be 9DF80E30 		ldrb	r3, [sp, #14]	@ zero_extendqisi2
 12046 01c2 C72B     		cmp	r3, #199
 12047 01c4 2FD1     		bne	.L1045
 12048              	.LBB7:
 12049              		.loc 1 1965 0
 12050 01c6 009B     		ldr	r3, [sp]
 12051 01c8 0922     		movs	r2, #9
 12052 01ca 1A70     		strb	r2, [r3]
 12053              		.loc 1 1966 0
 12054 01cc 019B     		ldr	r3, [sp, #4]
 12055 01ce 9B68     		ldr	r3, [r3, #8]
 12056 01d0 0DF10F01 		add	r1, sp, #15
 12057 01d4 0122     		movs	r2, #1
 12058 01d6 0198     		ldr	r0, [sp, #4]
 12059 01d8 9847     		blx	r3
 12060              	.LVL64:
 12061 01da 0346     		mov	r3, r0
 12062 01dc 83F00103 		eor	r3, r3, #1
 12063 01e0 DBB2     		uxtb	r3, r3
 12064 01e2 002B     		cmp	r3, #0
 12065 01e4 04D0     		beq	.L1046
 12066              		.loc 1 1967 0
 12067 01e6 019B     		ldr	r3, [sp, #4]
 12068 01e8 0E22     		movs	r2, #14
 12069 01ea 1A70     		strb	r2, [r3]
 12070              		.loc 1 1968 0
 12071 01ec 0023     		movs	r3, #0
 12072 01ee 90E3     		b	.L1100
 12073              	.L1046:
 12074              		.loc 1 1970 0
 12075 01f0 019B     		ldr	r3, [sp, #4]
 12076 01f2 9B68     		ldr	r3, [r3, #8]
ARM GAS  C:\Users\PCHAUT~1\AppData\Local\Temp\ccacj52E.s 			page 214


 12077 01f4 04A9     		add	r1, sp, #16
 12078 01f6 0122     		movs	r2, #1
 12079 01f8 0198     		ldr	r0, [sp, #4]
 12080 01fa 9847     		blx	r3
 12081              	.LVL65:
 12082 01fc 0346     		mov	r3, r0
 12083 01fe 83F00103 		eor	r3, r3, #1
 12084 0202 DBB2     		uxtb	r3, r3
 12085 0204 002B     		cmp	r3, #0
 12086 0206 04D0     		beq	.L1048
 12087              		.loc 1 1971 0
 12088 0208 019B     		ldr	r3, [sp, #4]
 12089 020a 0B22     		movs	r2, #11
 12090 020c 1A70     		strb	r2, [r3]
 12091              		.loc 1 1972 0
 12092 020e 0023     		movs	r3, #0
 12093 0210 7FE3     		b	.L1100
 12094              	.L1048:
 12095              		.loc 1 1974 0
 12096 0212 9DF80F30 		ldrb	r3, [sp, #15]	@ zero_extendqisi2
 12097 0216 1A46     		mov	r2, r3
 12098 0218 009B     		ldr	r3, [sp]
 12099 021a DA60     		str	r2, [r3, #12]
 12100              		.loc 1 1975 0
 12101 021c 9DF91020 		ldrsb	r2, [sp, #16]
 12102 0220 009B     		ldr	r3, [sp]
 12103 0222 1A72     		strb	r2, [r3, #8]
 12104              	.LBE7:
 12105 0224 74E3     		b	.L1032
 12106              	.L1045:
 12107              		.loc 1 1977 0
 12108 0226 9DF80E30 		ldrb	r3, [sp, #14]	@ zero_extendqisi2
 12109 022a C82B     		cmp	r3, #200
 12110 022c 33D1     		bne	.L1049
 12111              	.LBB8:
 12112              		.loc 1 1981 0
 12113 022e 009B     		ldr	r3, [sp]
 12114 0230 0A22     		movs	r2, #10
 12115 0232 1A70     		strb	r2, [r3]
 12116              		.loc 1 1982 0
 12117 0234 019B     		ldr	r3, [sp, #4]
 12118 0236 9B68     		ldr	r3, [r3, #8]
 12119 0238 04A9     		add	r1, sp, #16
 12120 023a 0222     		movs	r2, #2
 12121 023c 0198     		ldr	r0, [sp, #4]
 12122 023e 9847     		blx	r3
 12123              	.LVL66:
 12124 0240 0346     		mov	r3, r0
 12125 0242 83F00103 		eor	r3, r3, #1
 12126 0246 DBB2     		uxtb	r3, r3
 12127 0248 002B     		cmp	r3, #0
 12128 024a 04D0     		beq	.L1050
 12129              		.loc 1 1983 0
 12130 024c 019B     		ldr	r3, [sp, #4]
 12131 024e 0E22     		movs	r2, #14
 12132 0250 1A70     		strb	r2, [r3]
 12133              		.loc 1 1984 0
ARM GAS  C:\Users\PCHAUT~1\AppData\Local\Temp\ccacj52E.s 			page 215


 12134 0252 0023     		movs	r3, #0
 12135 0254 5DE3     		b	.L1100
 12136              	.L1050:
 12137              		.loc 1 1986 0
 12138 0256 019B     		ldr	r3, [sp, #4]
 12139 0258 9B68     		ldr	r3, [r3, #8]
 12140 025a 0DF10F01 		add	r1, sp, #15
 12141 025e 0122     		movs	r2, #1
 12142 0260 0198     		ldr	r0, [sp, #4]
 12143 0262 9847     		blx	r3
 12144              	.LVL67:
 12145 0264 0346     		mov	r3, r0
 12146 0266 83F00103 		eor	r3, r3, #1
 12147 026a DBB2     		uxtb	r3, r3
 12148 026c 002B     		cmp	r3, #0
 12149 026e 04D0     		beq	.L1052
 12150              		.loc 1 1987 0
 12151 0270 019B     		ldr	r3, [sp, #4]
 12152 0272 0B22     		movs	r2, #11
 12153 0274 1A70     		strb	r2, [r3]
 12154              		.loc 1 1988 0
 12155 0276 0023     		movs	r3, #0
 12156 0278 4BE3     		b	.L1100
 12157              	.L1052:
 12158              		.loc 1 1990 0
 12159 027a BDF81030 		ldrh	r3, [sp, #16]
 12160 027e 1846     		mov	r0, r3
 12161 0280 FFF7FEFF 		bl	be16
 12162 0284 0346     		mov	r3, r0
 12163 0286 1A46     		mov	r2, r3
 12164 0288 009B     		ldr	r3, [sp]
 12165 028a DA60     		str	r2, [r3, #12]
 12166              		.loc 1 1991 0
 12167 028c 9DF90F20 		ldrsb	r2, [sp, #15]
 12168 0290 009B     		ldr	r3, [sp]
 12169 0292 1A72     		strb	r2, [r3, #8]
 12170              	.LBE8:
 12171 0294 3CE3     		b	.L1032
 12172              	.L1049:
 12173              		.loc 1 1993 0
 12174 0296 9DF80E30 		ldrb	r3, [sp, #14]	@ zero_extendqisi2
 12175 029a C92B     		cmp	r3, #201
 12176 029c 34D1     		bne	.L1053
 12177              	.LBB9:
 12178              		.loc 1 1997 0
 12179 029e 009B     		ldr	r3, [sp]
 12180 02a0 0B22     		movs	r2, #11
 12181 02a2 1A70     		strb	r2, [r3]
 12182              		.loc 1 1998 0
 12183 02a4 019B     		ldr	r3, [sp, #4]
 12184 02a6 9B68     		ldr	r3, [r3, #8]
 12185 02a8 04A9     		add	r1, sp, #16
 12186 02aa 0422     		movs	r2, #4
 12187 02ac 0198     		ldr	r0, [sp, #4]
 12188 02ae 9847     		blx	r3
 12189              	.LVL68:
 12190 02b0 0346     		mov	r3, r0
ARM GAS  C:\Users\PCHAUT~1\AppData\Local\Temp\ccacj52E.s 			page 216


 12191 02b2 83F00103 		eor	r3, r3, #1
 12192 02b6 DBB2     		uxtb	r3, r3
 12193 02b8 002B     		cmp	r3, #0
 12194 02ba 07D0     		beq	.L1054
 12195              		.loc 1 1999 0
 12196 02bc 019B     		ldr	r3, [sp, #4]
 12197 02be 0E22     		movs	r2, #14
 12198 02c0 1A70     		strb	r2, [r3]
 12199              		.loc 1 2000 0
 12200 02c2 0023     		movs	r3, #0
 12201 02c4 25E3     		b	.L1100
 12202              	.L1103:
 12203 02c6 00BF     		.align	2
 12204              	.L1102:
 12205 02c8 00000000 		.word	__stack_chk_guard
 12206              	.L1054:
 12207              		.loc 1 2002 0
 12208 02cc 019B     		ldr	r3, [sp, #4]
 12209 02ce 9B68     		ldr	r3, [r3, #8]
 12210 02d0 0DF10F01 		add	r1, sp, #15
 12211 02d4 0122     		movs	r2, #1
 12212 02d6 0198     		ldr	r0, [sp, #4]
 12213 02d8 9847     		blx	r3
 12214              	.LVL69:
 12215 02da 0346     		mov	r3, r0
 12216 02dc 83F00103 		eor	r3, r3, #1
 12217 02e0 DBB2     		uxtb	r3, r3
 12218 02e2 002B     		cmp	r3, #0
 12219 02e4 04D0     		beq	.L1056
 12220              		.loc 1 2003 0
 12221 02e6 019B     		ldr	r3, [sp, #4]
 12222 02e8 0B22     		movs	r2, #11
 12223 02ea 1A70     		strb	r2, [r3]
 12224              		.loc 1 2004 0
 12225 02ec 0023     		movs	r3, #0
 12226 02ee 10E3     		b	.L1100
 12227              	.L1056:
 12228              		.loc 1 2006 0
 12229 02f0 049B     		ldr	r3, [sp, #16]
 12230 02f2 1846     		mov	r0, r3
 12231 02f4 FFF7FEFF 		bl	be32
 12232 02f8 0246     		mov	r2, r0
 12233 02fa 009B     		ldr	r3, [sp]
 12234 02fc DA60     		str	r2, [r3, #12]
 12235              		.loc 1 2007 0
 12236 02fe 9DF90F20 		ldrsb	r2, [sp, #15]
 12237 0302 009B     		ldr	r3, [sp]
 12238 0304 1A72     		strb	r2, [r3, #8]
 12239              	.LBE9:
 12240 0306 03E3     		b	.L1032
 12241              	.L1053:
 12242              		.loc 1 2009 0
 12243 0308 9DF80E30 		ldrb	r3, [sp, #14]	@ zero_extendqisi2
 12244 030c CA2B     		cmp	r3, #202
 12245 030e 22D1     		bne	.L1057
 12246              		.loc 1 2010 0
 12247 0310 009B     		ldr	r3, [sp]
ARM GAS  C:\Users\PCHAUT~1\AppData\Local\Temp\ccacj52E.s 			page 217


 12248 0312 0C22     		movs	r2, #12
 12249 0314 1A70     		strb	r2, [r3]
 12250              		.loc 1 2011 0
 12251 0316 019B     		ldr	r3, [sp, #4]
 12252 0318 9B68     		ldr	r3, [r3, #8]
 12253 031a 009A     		ldr	r2, [sp]
 12254 031c 02F10801 		add	r1, r2, #8
 12255 0320 0422     		movs	r2, #4
 12256 0322 0198     		ldr	r0, [sp, #4]
 12257 0324 9847     		blx	r3
 12258              	.LVL70:
 12259 0326 0346     		mov	r3, r0
 12260 0328 83F00103 		eor	r3, r3, #1
 12261 032c DBB2     		uxtb	r3, r3
 12262 032e 002B     		cmp	r3, #0
 12263 0330 04D0     		beq	.L1058
 12264              		.loc 1 2012 0
 12265 0332 019B     		ldr	r3, [sp, #4]
 12266 0334 0922     		movs	r2, #9
 12267 0336 1A70     		strb	r2, [r3]
 12268              		.loc 1 2013 0
 12269 0338 0023     		movs	r3, #0
 12270 033a EAE2     		b	.L1100
 12271              	.L1058:
 12272              		.loc 1 2015 0
 12273 033c 009B     		ldr	r3, [sp]
 12274 033e D3ED027A 		vldr.32	s15, [r3, #8]
 12275 0342 B0EE670A 		vmov.f32	s0, s15
 12276 0346 FFF7FEFF 		bl	befloat
 12277 034a F0EE407A 		vmov.f32	s15, s0
 12278 034e 009B     		ldr	r3, [sp]
 12279 0350 C3ED027A 		vstr.32	s15, [r3, #8]
 12280 0354 DCE2     		b	.L1032
 12281              	.L1057:
 12282              		.loc 1 2017 0
 12283 0356 9DF80E30 		ldrb	r3, [sp, #14]	@ zero_extendqisi2
 12284 035a CB2B     		cmp	r3, #203
 12285 035c 26D1     		bne	.L1059
 12286              		.loc 1 2018 0
 12287 035e 009B     		ldr	r3, [sp]
 12288 0360 0D22     		movs	r2, #13
 12289 0362 1A70     		strb	r2, [r3]
 12290              		.loc 1 2019 0
 12291 0364 019B     		ldr	r3, [sp, #4]
 12292 0366 9B68     		ldr	r3, [r3, #8]
 12293 0368 009A     		ldr	r2, [sp]
 12294 036a 02F10801 		add	r1, r2, #8
 12295 036e 0822     		movs	r2, #8
 12296 0370 0198     		ldr	r0, [sp, #4]
 12297 0372 9847     		blx	r3
 12298              	.LVL71:
 12299 0374 0346     		mov	r3, r0
 12300 0376 83F00103 		eor	r3, r3, #1
 12301 037a DBB2     		uxtb	r3, r3
 12302 037c 002B     		cmp	r3, #0
 12303 037e 04D0     		beq	.L1060
 12304              		.loc 1 2020 0
ARM GAS  C:\Users\PCHAUT~1\AppData\Local\Temp\ccacj52E.s 			page 218


 12305 0380 019B     		ldr	r3, [sp, #4]
 12306 0382 0922     		movs	r2, #9
 12307 0384 1A70     		strb	r2, [r3]
 12308              		.loc 1 2021 0
 12309 0386 0023     		movs	r3, #0
 12310 0388 C3E2     		b	.L1100
 12311              	.L1060:
 12312              		.loc 1 2023 0
 12313 038a 009B     		ldr	r3, [sp]
 12314 038c 93ED027B 		vldr.64	d7, [r3, #8]
 12315 0390 B0EE470A 		vmov.f32	s0, s14
 12316 0394 F0EE670A 		vmov.f32	s1, s15
 12317 0398 FFF7FEFF 		bl	bedouble
 12318 039c B0EE407A 		vmov.f32	s14, s0
 12319 03a0 F0EE607A 		vmov.f32	s15, s1
 12320 03a4 009B     		ldr	r3, [sp]
 12321 03a6 83ED027B 		vstr.64	d7, [r3, #8]
 12322 03aa B1E2     		b	.L1032
 12323              	.L1059:
 12324              		.loc 1 2025 0
 12325 03ac 9DF80E30 		ldrb	r3, [sp, #14]	@ zero_extendqisi2
 12326 03b0 CC2B     		cmp	r3, #204
 12327 03b2 16D1     		bne	.L1061
 12328              		.loc 1 2026 0
 12329 03b4 009B     		ldr	r3, [sp]
 12330 03b6 0E22     		movs	r2, #14
 12331 03b8 1A70     		strb	r2, [r3]
 12332              		.loc 1 2027 0
 12333 03ba 019B     		ldr	r3, [sp, #4]
 12334 03bc 9B68     		ldr	r3, [r3, #8]
 12335 03be 009A     		ldr	r2, [sp]
 12336 03c0 02F10801 		add	r1, r2, #8
 12337 03c4 0122     		movs	r2, #1
 12338 03c6 0198     		ldr	r0, [sp, #4]
 12339 03c8 9847     		blx	r3
 12340              	.LVL72:
 12341 03ca 0346     		mov	r3, r0
 12342 03cc 83F00103 		eor	r3, r3, #1
 12343 03d0 DBB2     		uxtb	r3, r3
 12344 03d2 002B     		cmp	r3, #0
 12345 03d4 00F09C82 		beq	.L1032
 12346              		.loc 1 2028 0
 12347 03d8 019B     		ldr	r3, [sp, #4]
 12348 03da 0922     		movs	r2, #9
 12349 03dc 1A70     		strb	r2, [r3]
 12350              		.loc 1 2029 0
 12351 03de 0023     		movs	r3, #0
 12352 03e0 97E2     		b	.L1100
 12353              	.L1061:
 12354              		.loc 1 2032 0
 12355 03e2 9DF80E30 		ldrb	r3, [sp, #14]	@ zero_extendqisi2
 12356 03e6 CD2B     		cmp	r3, #205
 12357 03e8 1FD1     		bne	.L1062
 12358              		.loc 1 2033 0
 12359 03ea 009B     		ldr	r3, [sp]
 12360 03ec 0F22     		movs	r2, #15
 12361 03ee 1A70     		strb	r2, [r3]
ARM GAS  C:\Users\PCHAUT~1\AppData\Local\Temp\ccacj52E.s 			page 219


 12362              		.loc 1 2034 0
 12363 03f0 019B     		ldr	r3, [sp, #4]
 12364 03f2 9B68     		ldr	r3, [r3, #8]
 12365 03f4 009A     		ldr	r2, [sp]
 12366 03f6 02F10801 		add	r1, r2, #8
 12367 03fa 0222     		movs	r2, #2
 12368 03fc 0198     		ldr	r0, [sp, #4]
 12369 03fe 9847     		blx	r3
 12370              	.LVL73:
 12371 0400 0346     		mov	r3, r0
 12372 0402 83F00103 		eor	r3, r3, #1
 12373 0406 DBB2     		uxtb	r3, r3
 12374 0408 002B     		cmp	r3, #0
 12375 040a 04D0     		beq	.L1063
 12376              		.loc 1 2035 0
 12377 040c 019B     		ldr	r3, [sp, #4]
 12378 040e 0922     		movs	r2, #9
 12379 0410 1A70     		strb	r2, [r3]
 12380              		.loc 1 2036 0
 12381 0412 0023     		movs	r3, #0
 12382 0414 7DE2     		b	.L1100
 12383              	.L1063:
 12384              		.loc 1 2038 0
 12385 0416 009B     		ldr	r3, [sp]
 12386 0418 1B89     		ldrh	r3, [r3, #8]
 12387 041a 1846     		mov	r0, r3
 12388 041c FFF7FEFF 		bl	be16
 12389 0420 0346     		mov	r3, r0
 12390 0422 1A46     		mov	r2, r3
 12391 0424 009B     		ldr	r3, [sp]
 12392 0426 1A81     		strh	r2, [r3, #8]	@ movhi
 12393 0428 72E2     		b	.L1032
 12394              	.L1062:
 12395              		.loc 1 2040 0
 12396 042a 9DF80E30 		ldrb	r3, [sp, #14]	@ zero_extendqisi2
 12397 042e CE2B     		cmp	r3, #206
 12398 0430 1ED1     		bne	.L1064
 12399              		.loc 1 2041 0
 12400 0432 009B     		ldr	r3, [sp]
 12401 0434 1022     		movs	r2, #16
 12402 0436 1A70     		strb	r2, [r3]
 12403              		.loc 1 2042 0
 12404 0438 019B     		ldr	r3, [sp, #4]
 12405 043a 9B68     		ldr	r3, [r3, #8]
 12406 043c 009A     		ldr	r2, [sp]
 12407 043e 02F10801 		add	r1, r2, #8
 12408 0442 0422     		movs	r2, #4
 12409 0444 0198     		ldr	r0, [sp, #4]
 12410 0446 9847     		blx	r3
 12411              	.LVL74:
 12412 0448 0346     		mov	r3, r0
 12413 044a 83F00103 		eor	r3, r3, #1
 12414 044e DBB2     		uxtb	r3, r3
 12415 0450 002B     		cmp	r3, #0
 12416 0452 04D0     		beq	.L1065
 12417              		.loc 1 2043 0
 12418 0454 019B     		ldr	r3, [sp, #4]
ARM GAS  C:\Users\PCHAUT~1\AppData\Local\Temp\ccacj52E.s 			page 220


 12419 0456 0922     		movs	r2, #9
 12420 0458 1A70     		strb	r2, [r3]
 12421              		.loc 1 2044 0
 12422 045a 0023     		movs	r3, #0
 12423 045c 59E2     		b	.L1100
 12424              	.L1065:
 12425              		.loc 1 2046 0
 12426 045e 009B     		ldr	r3, [sp]
 12427 0460 9B68     		ldr	r3, [r3, #8]
 12428 0462 1846     		mov	r0, r3
 12429 0464 FFF7FEFF 		bl	be32
 12430 0468 0246     		mov	r2, r0
 12431 046a 009B     		ldr	r3, [sp]
 12432 046c 9A60     		str	r2, [r3, #8]
 12433 046e 4FE2     		b	.L1032
 12434              	.L1064:
 12435              		.loc 1 2048 0
 12436 0470 9DF80E30 		ldrb	r3, [sp, #14]	@ zero_extendqisi2
 12437 0474 CF2B     		cmp	r3, #207
 12438 0476 22D1     		bne	.L1066
 12439              		.loc 1 2049 0
 12440 0478 009B     		ldr	r3, [sp]
 12441 047a 1122     		movs	r2, #17
 12442 047c 1A70     		strb	r2, [r3]
 12443              		.loc 1 2050 0
 12444 047e 019B     		ldr	r3, [sp, #4]
 12445 0480 9B68     		ldr	r3, [r3, #8]
 12446 0482 009A     		ldr	r2, [sp]
 12447 0484 02F10801 		add	r1, r2, #8
 12448 0488 0822     		movs	r2, #8
 12449 048a 0198     		ldr	r0, [sp, #4]
 12450 048c 9847     		blx	r3
 12451              	.LVL75:
 12452 048e 0346     		mov	r3, r0
 12453 0490 83F00103 		eor	r3, r3, #1
 12454 0494 DBB2     		uxtb	r3, r3
 12455 0496 002B     		cmp	r3, #0
 12456 0498 04D0     		beq	.L1067
 12457              		.loc 1 2051 0
 12458 049a 019B     		ldr	r3, [sp, #4]
 12459 049c 0922     		movs	r2, #9
 12460 049e 1A70     		strb	r2, [r3]
 12461              		.loc 1 2052 0
 12462 04a0 0023     		movs	r3, #0
 12463 04a2 36E2     		b	.L1100
 12464              	.L1067:
 12465              		.loc 1 2054 0
 12466 04a4 009B     		ldr	r3, [sp]
 12467 04a6 D3E90234 		ldrd	r3, [r3, #8]
 12468 04aa 1846     		mov	r0, r3
 12469 04ac 2146     		mov	r1, r4
 12470 04ae FFF7FEFF 		bl	be64
 12471 04b2 0346     		mov	r3, r0
 12472 04b4 0C46     		mov	r4, r1
 12473 04b6 009A     		ldr	r2, [sp]
 12474 04b8 C2E90234 		strd	r3, [r2, #8]
 12475 04bc 28E2     		b	.L1032
ARM GAS  C:\Users\PCHAUT~1\AppData\Local\Temp\ccacj52E.s 			page 221


 12476              	.L1066:
 12477              		.loc 1 2056 0
 12478 04be 9DF80E30 		ldrb	r3, [sp, #14]	@ zero_extendqisi2
 12479 04c2 D02B     		cmp	r3, #208
 12480 04c4 16D1     		bne	.L1068
 12481              		.loc 1 2057 0
 12482 04c6 009B     		ldr	r3, [sp]
 12483 04c8 1222     		movs	r2, #18
 12484 04ca 1A70     		strb	r2, [r3]
 12485              		.loc 1 2058 0
 12486 04cc 019B     		ldr	r3, [sp, #4]
 12487 04ce 9B68     		ldr	r3, [r3, #8]
 12488 04d0 009A     		ldr	r2, [sp]
 12489 04d2 02F10801 		add	r1, r2, #8
 12490 04d6 0122     		movs	r2, #1
 12491 04d8 0198     		ldr	r0, [sp, #4]
 12492 04da 9847     		blx	r3
 12493              	.LVL76:
 12494 04dc 0346     		mov	r3, r0
 12495 04de 83F00103 		eor	r3, r3, #1
 12496 04e2 DBB2     		uxtb	r3, r3
 12497 04e4 002B     		cmp	r3, #0
 12498 04e6 00F01382 		beq	.L1032
 12499              		.loc 1 2059 0
 12500 04ea 019B     		ldr	r3, [sp, #4]
 12501 04ec 0922     		movs	r2, #9
 12502 04ee 1A70     		strb	r2, [r3]
 12503              		.loc 1 2060 0
 12504 04f0 0023     		movs	r3, #0
 12505 04f2 0EE2     		b	.L1100
 12506              	.L1068:
 12507              		.loc 1 2063 0
 12508 04f4 9DF80E30 		ldrb	r3, [sp, #14]	@ zero_extendqisi2
 12509 04f8 D12B     		cmp	r3, #209
 12510 04fa 21D1     		bne	.L1069
 12511              		.loc 1 2064 0
 12512 04fc 009B     		ldr	r3, [sp]
 12513 04fe 1322     		movs	r2, #19
 12514 0500 1A70     		strb	r2, [r3]
 12515              		.loc 1 2065 0
 12516 0502 019B     		ldr	r3, [sp, #4]
 12517 0504 9B68     		ldr	r3, [r3, #8]
 12518 0506 009A     		ldr	r2, [sp]
 12519 0508 02F10801 		add	r1, r2, #8
 12520 050c 0222     		movs	r2, #2
 12521 050e 0198     		ldr	r0, [sp, #4]
 12522 0510 9847     		blx	r3
 12523              	.LVL77:
 12524 0512 0346     		mov	r3, r0
 12525 0514 83F00103 		eor	r3, r3, #1
 12526 0518 DBB2     		uxtb	r3, r3
 12527 051a 002B     		cmp	r3, #0
 12528 051c 04D0     		beq	.L1070
 12529              		.loc 1 2066 0
 12530 051e 019B     		ldr	r3, [sp, #4]
 12531 0520 0922     		movs	r2, #9
 12532 0522 1A70     		strb	r2, [r3]
ARM GAS  C:\Users\PCHAUT~1\AppData\Local\Temp\ccacj52E.s 			page 222


 12533              		.loc 1 2067 0
 12534 0524 0023     		movs	r3, #0
 12535 0526 F4E1     		b	.L1100
 12536              	.L1070:
 12537              		.loc 1 2069 0
 12538 0528 009B     		ldr	r3, [sp]
 12539 052a B3F90830 		ldrsh	r3, [r3, #8]
 12540 052e 9BB2     		uxth	r3, r3
 12541 0530 1846     		mov	r0, r3
 12542 0532 FFF7FEFF 		bl	be16
 12543 0536 0346     		mov	r3, r0
 12544 0538 1AB2     		sxth	r2, r3
 12545 053a 009B     		ldr	r3, [sp]
 12546 053c 1A81     		strh	r2, [r3, #8]	@ movhi
 12547 053e E7E1     		b	.L1032
 12548              	.L1069:
 12549              		.loc 1 2071 0
 12550 0540 9DF80E30 		ldrb	r3, [sp, #14]	@ zero_extendqisi2
 12551 0544 D22B     		cmp	r3, #210
 12552 0546 1FD1     		bne	.L1071
 12553              		.loc 1 2072 0
 12554 0548 009B     		ldr	r3, [sp]
 12555 054a 1422     		movs	r2, #20
 12556 054c 1A70     		strb	r2, [r3]
 12557              		.loc 1 2073 0
 12558 054e 019B     		ldr	r3, [sp, #4]
 12559 0550 9B68     		ldr	r3, [r3, #8]
 12560 0552 009A     		ldr	r2, [sp]
 12561 0554 02F10801 		add	r1, r2, #8
 12562 0558 0422     		movs	r2, #4
 12563 055a 0198     		ldr	r0, [sp, #4]
 12564 055c 9847     		blx	r3
 12565              	.LVL78:
 12566 055e 0346     		mov	r3, r0
 12567 0560 83F00103 		eor	r3, r3, #1
 12568 0564 DBB2     		uxtb	r3, r3
 12569 0566 002B     		cmp	r3, #0
 12570 0568 04D0     		beq	.L1072
 12571              		.loc 1 2074 0
 12572 056a 019B     		ldr	r3, [sp, #4]
 12573 056c 0922     		movs	r2, #9
 12574 056e 1A70     		strb	r2, [r3]
 12575              		.loc 1 2075 0
 12576 0570 0023     		movs	r3, #0
 12577 0572 CEE1     		b	.L1100
 12578              	.L1072:
 12579              		.loc 1 2077 0
 12580 0574 009B     		ldr	r3, [sp]
 12581 0576 9B68     		ldr	r3, [r3, #8]
 12582 0578 1846     		mov	r0, r3
 12583 057a FFF7FEFF 		bl	be32
 12584 057e 0346     		mov	r3, r0
 12585 0580 1A46     		mov	r2, r3
 12586 0582 009B     		ldr	r3, [sp]
 12587 0584 9A60     		str	r2, [r3, #8]
 12588 0586 C3E1     		b	.L1032
 12589              	.L1071:
ARM GAS  C:\Users\PCHAUT~1\AppData\Local\Temp\ccacj52E.s 			page 223


 12590              		.loc 1 2079 0
 12591 0588 9DF80E30 		ldrb	r3, [sp, #14]	@ zero_extendqisi2
 12592 058c D32B     		cmp	r3, #211
 12593 058e 22D1     		bne	.L1073
 12594              		.loc 1 2080 0
 12595 0590 009B     		ldr	r3, [sp]
 12596 0592 1522     		movs	r2, #21
 12597 0594 1A70     		strb	r2, [r3]
 12598              		.loc 1 2081 0
 12599 0596 019B     		ldr	r3, [sp, #4]
 12600 0598 9B68     		ldr	r3, [r3, #8]
 12601 059a 009A     		ldr	r2, [sp]
 12602 059c 02F10801 		add	r1, r2, #8
 12603 05a0 0822     		movs	r2, #8
 12604 05a2 0198     		ldr	r0, [sp, #4]
 12605 05a4 9847     		blx	r3
 12606              	.LVL79:
 12607 05a6 0346     		mov	r3, r0
 12608 05a8 83F00103 		eor	r3, r3, #1
 12609 05ac DBB2     		uxtb	r3, r3
 12610 05ae 002B     		cmp	r3, #0
 12611 05b0 04D0     		beq	.L1074
 12612              		.loc 1 2082 0
 12613 05b2 019B     		ldr	r3, [sp, #4]
 12614 05b4 0922     		movs	r2, #9
 12615 05b6 1A70     		strb	r2, [r3]
 12616              		.loc 1 2083 0
 12617 05b8 0023     		movs	r3, #0
 12618 05ba AAE1     		b	.L1100
 12619              	.L1074:
 12620              		.loc 1 2085 0
 12621 05bc 009B     		ldr	r3, [sp]
 12622 05be D3E90234 		ldrd	r3, [r3, #8]
 12623 05c2 1846     		mov	r0, r3
 12624 05c4 2146     		mov	r1, r4
 12625 05c6 FFF7FEFF 		bl	be64
 12626 05ca 0346     		mov	r3, r0
 12627 05cc 0C46     		mov	r4, r1
 12628 05ce 009A     		ldr	r2, [sp]
 12629 05d0 C2E90234 		strd	r3, [r2, #8]
 12630 05d4 9CE1     		b	.L1032
 12631              	.L1073:
 12632              		.loc 1 2087 0
 12633 05d6 9DF80E30 		ldrb	r3, [sp, #14]	@ zero_extendqisi2
 12634 05da D42B     		cmp	r3, #212
 12635 05dc 19D1     		bne	.L1075
 12636              		.loc 1 2088 0
 12637 05de 009B     		ldr	r3, [sp]
 12638 05e0 1622     		movs	r2, #22
 12639 05e2 1A70     		strb	r2, [r3]
 12640              		.loc 1 2089 0
 12641 05e4 019B     		ldr	r3, [sp, #4]
 12642 05e6 9B68     		ldr	r3, [r3, #8]
 12643 05e8 009A     		ldr	r2, [sp]
 12644 05ea 02F10801 		add	r1, r2, #8
 12645 05ee 0122     		movs	r2, #1
 12646 05f0 0198     		ldr	r0, [sp, #4]
ARM GAS  C:\Users\PCHAUT~1\AppData\Local\Temp\ccacj52E.s 			page 224


 12647 05f2 9847     		blx	r3
 12648              	.LVL80:
 12649 05f4 0346     		mov	r3, r0
 12650 05f6 83F00103 		eor	r3, r3, #1
 12651 05fa DBB2     		uxtb	r3, r3
 12652 05fc 002B     		cmp	r3, #0
 12653 05fe 04D0     		beq	.L1076
 12654              		.loc 1 2090 0
 12655 0600 019B     		ldr	r3, [sp, #4]
 12656 0602 0B22     		movs	r2, #11
 12657 0604 1A70     		strb	r2, [r3]
 12658              		.loc 1 2091 0
 12659 0606 0023     		movs	r3, #0
 12660 0608 83E1     		b	.L1100
 12661              	.L1076:
 12662              		.loc 1 2093 0
 12663 060a 009B     		ldr	r3, [sp]
 12664 060c 0122     		movs	r2, #1
 12665 060e DA60     		str	r2, [r3, #12]
 12666 0610 7EE1     		b	.L1032
 12667              	.L1075:
 12668              		.loc 1 2095 0
 12669 0612 9DF80E30 		ldrb	r3, [sp, #14]	@ zero_extendqisi2
 12670 0616 D52B     		cmp	r3, #213
 12671 0618 19D1     		bne	.L1077
 12672              		.loc 1 2096 0
 12673 061a 009B     		ldr	r3, [sp]
 12674 061c 1722     		movs	r2, #23
 12675 061e 1A70     		strb	r2, [r3]
 12676              		.loc 1 2097 0
 12677 0620 019B     		ldr	r3, [sp, #4]
 12678 0622 9B68     		ldr	r3, [r3, #8]
 12679 0624 009A     		ldr	r2, [sp]
 12680 0626 02F10801 		add	r1, r2, #8
 12681 062a 0122     		movs	r2, #1
 12682 062c 0198     		ldr	r0, [sp, #4]
 12683 062e 9847     		blx	r3
 12684              	.LVL81:
 12685 0630 0346     		mov	r3, r0
 12686 0632 83F00103 		eor	r3, r3, #1
 12687 0636 DBB2     		uxtb	r3, r3
 12688 0638 002B     		cmp	r3, #0
 12689 063a 04D0     		beq	.L1078
 12690              		.loc 1 2098 0
 12691 063c 019B     		ldr	r3, [sp, #4]
 12692 063e 0B22     		movs	r2, #11
 12693 0640 1A70     		strb	r2, [r3]
 12694              		.loc 1 2099 0
 12695 0642 0023     		movs	r3, #0
 12696 0644 65E1     		b	.L1100
 12697              	.L1078:
 12698              		.loc 1 2101 0
 12699 0646 009B     		ldr	r3, [sp]
 12700 0648 0222     		movs	r2, #2
 12701 064a DA60     		str	r2, [r3, #12]
 12702 064c 60E1     		b	.L1032
 12703              	.L1077:
ARM GAS  C:\Users\PCHAUT~1\AppData\Local\Temp\ccacj52E.s 			page 225


 12704              		.loc 1 2103 0
 12705 064e 9DF80E30 		ldrb	r3, [sp, #14]	@ zero_extendqisi2
 12706 0652 D62B     		cmp	r3, #214
 12707 0654 19D1     		bne	.L1079
 12708              		.loc 1 2104 0
 12709 0656 009B     		ldr	r3, [sp]
 12710 0658 1822     		movs	r2, #24
 12711 065a 1A70     		strb	r2, [r3]
 12712              		.loc 1 2105 0
 12713 065c 019B     		ldr	r3, [sp, #4]
 12714 065e 9B68     		ldr	r3, [r3, #8]
 12715 0660 009A     		ldr	r2, [sp]
 12716 0662 02F10801 		add	r1, r2, #8
 12717 0666 0122     		movs	r2, #1
 12718 0668 0198     		ldr	r0, [sp, #4]
 12719 066a 9847     		blx	r3
 12720              	.LVL82:
 12721 066c 0346     		mov	r3, r0
 12722 066e 83F00103 		eor	r3, r3, #1
 12723 0672 DBB2     		uxtb	r3, r3
 12724 0674 002B     		cmp	r3, #0
 12725 0676 04D0     		beq	.L1080
 12726              		.loc 1 2106 0
 12727 0678 019B     		ldr	r3, [sp, #4]
 12728 067a 0B22     		movs	r2, #11
 12729 067c 1A70     		strb	r2, [r3]
 12730              		.loc 1 2107 0
 12731 067e 0023     		movs	r3, #0
 12732 0680 47E1     		b	.L1100
 12733              	.L1080:
 12734              		.loc 1 2109 0
 12735 0682 009B     		ldr	r3, [sp]
 12736 0684 0422     		movs	r2, #4
 12737 0686 DA60     		str	r2, [r3, #12]
 12738 0688 42E1     		b	.L1032
 12739              	.L1079:
 12740              		.loc 1 2111 0
 12741 068a 9DF80E30 		ldrb	r3, [sp, #14]	@ zero_extendqisi2
 12742 068e D72B     		cmp	r3, #215
 12743 0690 19D1     		bne	.L1081
 12744              		.loc 1 2112 0
 12745 0692 009B     		ldr	r3, [sp]
 12746 0694 1922     		movs	r2, #25
 12747 0696 1A70     		strb	r2, [r3]
 12748              		.loc 1 2113 0
 12749 0698 019B     		ldr	r3, [sp, #4]
 12750 069a 9B68     		ldr	r3, [r3, #8]
 12751 069c 009A     		ldr	r2, [sp]
 12752 069e 02F10801 		add	r1, r2, #8
 12753 06a2 0122     		movs	r2, #1
 12754 06a4 0198     		ldr	r0, [sp, #4]
 12755 06a6 9847     		blx	r3
 12756              	.LVL83:
 12757 06a8 0346     		mov	r3, r0
 12758 06aa 83F00103 		eor	r3, r3, #1
 12759 06ae DBB2     		uxtb	r3, r3
 12760 06b0 002B     		cmp	r3, #0
ARM GAS  C:\Users\PCHAUT~1\AppData\Local\Temp\ccacj52E.s 			page 226


 12761 06b2 04D0     		beq	.L1082
 12762              		.loc 1 2114 0
 12763 06b4 019B     		ldr	r3, [sp, #4]
 12764 06b6 0B22     		movs	r2, #11
 12765 06b8 1A70     		strb	r2, [r3]
 12766              		.loc 1 2115 0
 12767 06ba 0023     		movs	r3, #0
 12768 06bc 29E1     		b	.L1100
 12769              	.L1082:
 12770              		.loc 1 2117 0
 12771 06be 009B     		ldr	r3, [sp]
 12772 06c0 0822     		movs	r2, #8
 12773 06c2 DA60     		str	r2, [r3, #12]
 12774 06c4 24E1     		b	.L1032
 12775              	.L1081:
 12776              		.loc 1 2119 0
 12777 06c6 9DF80E30 		ldrb	r3, [sp, #14]	@ zero_extendqisi2
 12778 06ca D82B     		cmp	r3, #216
 12779 06cc 19D1     		bne	.L1083
 12780              		.loc 1 2120 0
 12781 06ce 009B     		ldr	r3, [sp]
 12782 06d0 1A22     		movs	r2, #26
 12783 06d2 1A70     		strb	r2, [r3]
 12784              		.loc 1 2121 0
 12785 06d4 019B     		ldr	r3, [sp, #4]
 12786 06d6 9B68     		ldr	r3, [r3, #8]
 12787 06d8 009A     		ldr	r2, [sp]
 12788 06da 02F10801 		add	r1, r2, #8
 12789 06de 0122     		movs	r2, #1
 12790 06e0 0198     		ldr	r0, [sp, #4]
 12791 06e2 9847     		blx	r3
 12792              	.LVL84:
 12793 06e4 0346     		mov	r3, r0
 12794 06e6 83F00103 		eor	r3, r3, #1
 12795 06ea DBB2     		uxtb	r3, r3
 12796 06ec 002B     		cmp	r3, #0
 12797 06ee 04D0     		beq	.L1084
 12798              		.loc 1 2122 0
 12799 06f0 019B     		ldr	r3, [sp, #4]
 12800 06f2 0B22     		movs	r2, #11
 12801 06f4 1A70     		strb	r2, [r3]
 12802              		.loc 1 2123 0
 12803 06f6 0023     		movs	r3, #0
 12804 06f8 0BE1     		b	.L1100
 12805              	.L1084:
 12806              		.loc 1 2125 0
 12807 06fa 009B     		ldr	r3, [sp]
 12808 06fc 1022     		movs	r2, #16
 12809 06fe DA60     		str	r2, [r3, #12]
 12810 0700 06E1     		b	.L1032
 12811              	.L1083:
 12812              		.loc 1 2127 0
 12813 0702 9DF80E30 		ldrb	r3, [sp, #14]	@ zero_extendqisi2
 12814 0706 D92B     		cmp	r3, #217
 12815 0708 1BD1     		bne	.L1085
 12816              		.loc 1 2128 0
 12817 070a 009B     		ldr	r3, [sp]
ARM GAS  C:\Users\PCHAUT~1\AppData\Local\Temp\ccacj52E.s 			page 227


 12818 070c 1B22     		movs	r2, #27
 12819 070e 1A70     		strb	r2, [r3]
 12820              		.loc 1 2129 0
 12821 0710 019B     		ldr	r3, [sp, #4]
 12822 0712 9B68     		ldr	r3, [r3, #8]
 12823 0714 009A     		ldr	r2, [sp]
 12824 0716 02F10801 		add	r1, r2, #8
 12825 071a 0122     		movs	r2, #1
 12826 071c 0198     		ldr	r0, [sp, #4]
 12827 071e 9847     		blx	r3
 12828              	.LVL85:
 12829 0720 0346     		mov	r3, r0
 12830 0722 83F00103 		eor	r3, r3, #1
 12831 0726 DBB2     		uxtb	r3, r3
 12832 0728 002B     		cmp	r3, #0
 12833 072a 04D0     		beq	.L1086
 12834              		.loc 1 2130 0
 12835 072c 019B     		ldr	r3, [sp, #4]
 12836 072e 0922     		movs	r2, #9
 12837 0730 1A70     		strb	r2, [r3]
 12838              		.loc 1 2131 0
 12839 0732 0023     		movs	r3, #0
 12840 0734 EDE0     		b	.L1100
 12841              	.L1086:
 12842              		.loc 1 2133 0
 12843 0736 009B     		ldr	r3, [sp]
 12844 0738 1B7A     		ldrb	r3, [r3, #8]	@ zero_extendqisi2
 12845 073a 1A46     		mov	r2, r3
 12846 073c 009B     		ldr	r3, [sp]
 12847 073e 9A60     		str	r2, [r3, #8]
 12848 0740 E6E0     		b	.L1032
 12849              	.L1085:
 12850              		.loc 1 2135 0
 12851 0742 9DF80E30 		ldrb	r3, [sp, #14]	@ zero_extendqisi2
 12852 0746 DA2B     		cmp	r3, #218
 12853 0748 1FD1     		bne	.L1087
 12854              		.loc 1 2136 0
 12855 074a 009B     		ldr	r3, [sp]
 12856 074c 1C22     		movs	r2, #28
 12857 074e 1A70     		strb	r2, [r3]
 12858              		.loc 1 2137 0
 12859 0750 019B     		ldr	r3, [sp, #4]
 12860 0752 9B68     		ldr	r3, [r3, #8]
 12861 0754 009A     		ldr	r2, [sp]
 12862 0756 02F10801 		add	r1, r2, #8
 12863 075a 0222     		movs	r2, #2
 12864 075c 0198     		ldr	r0, [sp, #4]
 12865 075e 9847     		blx	r3
 12866              	.LVL86:
 12867 0760 0346     		mov	r3, r0
 12868 0762 83F00103 		eor	r3, r3, #1
 12869 0766 DBB2     		uxtb	r3, r3
 12870 0768 002B     		cmp	r3, #0
 12871 076a 04D0     		beq	.L1088
 12872              		.loc 1 2138 0
 12873 076c 019B     		ldr	r3, [sp, #4]
 12874 076e 0922     		movs	r2, #9
ARM GAS  C:\Users\PCHAUT~1\AppData\Local\Temp\ccacj52E.s 			page 228


 12875 0770 1A70     		strb	r2, [r3]
 12876              		.loc 1 2139 0
 12877 0772 0023     		movs	r3, #0
 12878 0774 CDE0     		b	.L1100
 12879              	.L1088:
 12880              		.loc 1 2141 0
 12881 0776 009B     		ldr	r3, [sp]
 12882 0778 1B89     		ldrh	r3, [r3, #8]
 12883 077a 1846     		mov	r0, r3
 12884 077c FFF7FEFF 		bl	be16
 12885 0780 0346     		mov	r3, r0
 12886 0782 1A46     		mov	r2, r3
 12887 0784 009B     		ldr	r3, [sp]
 12888 0786 9A60     		str	r2, [r3, #8]
 12889 0788 C2E0     		b	.L1032
 12890              	.L1087:
 12891              		.loc 1 2143 0
 12892 078a 9DF80E30 		ldrb	r3, [sp, #14]	@ zero_extendqisi2
 12893 078e DB2B     		cmp	r3, #219
 12894 0790 1ED1     		bne	.L1089
 12895              		.loc 1 2144 0
 12896 0792 009B     		ldr	r3, [sp]
 12897 0794 1D22     		movs	r2, #29
 12898 0796 1A70     		strb	r2, [r3]
 12899              		.loc 1 2145 0
 12900 0798 019B     		ldr	r3, [sp, #4]
 12901 079a 9B68     		ldr	r3, [r3, #8]
 12902 079c 009A     		ldr	r2, [sp]
 12903 079e 02F10801 		add	r1, r2, #8
 12904 07a2 0422     		movs	r2, #4
 12905 07a4 0198     		ldr	r0, [sp, #4]
 12906 07a6 9847     		blx	r3
 12907              	.LVL87:
 12908 07a8 0346     		mov	r3, r0
 12909 07aa 83F00103 		eor	r3, r3, #1
 12910 07ae DBB2     		uxtb	r3, r3
 12911 07b0 002B     		cmp	r3, #0
 12912 07b2 04D0     		beq	.L1090
 12913              		.loc 1 2146 0
 12914 07b4 019B     		ldr	r3, [sp, #4]
 12915 07b6 0922     		movs	r2, #9
 12916 07b8 1A70     		strb	r2, [r3]
 12917              		.loc 1 2147 0
 12918 07ba 0023     		movs	r3, #0
 12919 07bc A9E0     		b	.L1100
 12920              	.L1090:
 12921              		.loc 1 2149 0
 12922 07be 009B     		ldr	r3, [sp]
 12923 07c0 9B68     		ldr	r3, [r3, #8]
 12924 07c2 1846     		mov	r0, r3
 12925 07c4 FFF7FEFF 		bl	be32
 12926 07c8 0246     		mov	r2, r0
 12927 07ca 009B     		ldr	r3, [sp]
 12928 07cc 9A60     		str	r2, [r3, #8]
 12929 07ce 9FE0     		b	.L1032
 12930              	.L1089:
 12931              		.loc 1 2151 0
ARM GAS  C:\Users\PCHAUT~1\AppData\Local\Temp\ccacj52E.s 			page 229


 12932 07d0 9DF80E30 		ldrb	r3, [sp, #14]	@ zero_extendqisi2
 12933 07d4 DC2B     		cmp	r3, #220
 12934 07d6 1FD1     		bne	.L1091
 12935              		.loc 1 2152 0
 12936 07d8 009B     		ldr	r3, [sp]
 12937 07da 1E22     		movs	r2, #30
 12938 07dc 1A70     		strb	r2, [r3]
 12939              		.loc 1 2153 0
 12940 07de 019B     		ldr	r3, [sp, #4]
 12941 07e0 9B68     		ldr	r3, [r3, #8]
 12942 07e2 009A     		ldr	r2, [sp]
 12943 07e4 02F10801 		add	r1, r2, #8
 12944 07e8 0222     		movs	r2, #2
 12945 07ea 0198     		ldr	r0, [sp, #4]
 12946 07ec 9847     		blx	r3
 12947              	.LVL88:
 12948 07ee 0346     		mov	r3, r0
 12949 07f0 83F00103 		eor	r3, r3, #1
 12950 07f4 DBB2     		uxtb	r3, r3
 12951 07f6 002B     		cmp	r3, #0
 12952 07f8 04D0     		beq	.L1092
 12953              		.loc 1 2154 0
 12954 07fa 019B     		ldr	r3, [sp, #4]
 12955 07fc 0922     		movs	r2, #9
 12956 07fe 1A70     		strb	r2, [r3]
 12957              		.loc 1 2155 0
 12958 0800 0023     		movs	r3, #0
 12959 0802 86E0     		b	.L1100
 12960              	.L1092:
 12961              		.loc 1 2157 0
 12962 0804 009B     		ldr	r3, [sp]
 12963 0806 1B89     		ldrh	r3, [r3, #8]
 12964 0808 1846     		mov	r0, r3
 12965 080a FFF7FEFF 		bl	be16
 12966 080e 0346     		mov	r3, r0
 12967 0810 1A46     		mov	r2, r3
 12968 0812 009B     		ldr	r3, [sp]
 12969 0814 9A60     		str	r2, [r3, #8]
 12970 0816 7BE0     		b	.L1032
 12971              	.L1091:
 12972              		.loc 1 2159 0
 12973 0818 9DF80E30 		ldrb	r3, [sp, #14]	@ zero_extendqisi2
 12974 081c DD2B     		cmp	r3, #221
 12975 081e 1ED1     		bne	.L1093
 12976              		.loc 1 2160 0
 12977 0820 009B     		ldr	r3, [sp]
 12978 0822 1F22     		movs	r2, #31
 12979 0824 1A70     		strb	r2, [r3]
 12980              		.loc 1 2161 0
 12981 0826 019B     		ldr	r3, [sp, #4]
 12982 0828 9B68     		ldr	r3, [r3, #8]
 12983 082a 009A     		ldr	r2, [sp]
 12984 082c 02F10801 		add	r1, r2, #8
 12985 0830 0422     		movs	r2, #4
 12986 0832 0198     		ldr	r0, [sp, #4]
 12987 0834 9847     		blx	r3
 12988              	.LVL89:
ARM GAS  C:\Users\PCHAUT~1\AppData\Local\Temp\ccacj52E.s 			page 230


 12989 0836 0346     		mov	r3, r0
 12990 0838 83F00103 		eor	r3, r3, #1
 12991 083c DBB2     		uxtb	r3, r3
 12992 083e 002B     		cmp	r3, #0
 12993 0840 04D0     		beq	.L1094
 12994              		.loc 1 2162 0
 12995 0842 019B     		ldr	r3, [sp, #4]
 12996 0844 0922     		movs	r2, #9
 12997 0846 1A70     		strb	r2, [r3]
 12998              		.loc 1 2163 0
 12999 0848 0023     		movs	r3, #0
 13000 084a 62E0     		b	.L1100
 13001              	.L1094:
 13002              		.loc 1 2165 0
 13003 084c 009B     		ldr	r3, [sp]
 13004 084e 9B68     		ldr	r3, [r3, #8]
 13005 0850 1846     		mov	r0, r3
 13006 0852 FFF7FEFF 		bl	be32
 13007 0856 0246     		mov	r2, r0
 13008 0858 009B     		ldr	r3, [sp]
 13009 085a 9A60     		str	r2, [r3, #8]
 13010 085c 58E0     		b	.L1032
 13011              	.L1093:
 13012              		.loc 1 2167 0
 13013 085e 9DF80E30 		ldrb	r3, [sp, #14]	@ zero_extendqisi2
 13014 0862 DE2B     		cmp	r3, #222
 13015 0864 1FD1     		bne	.L1095
 13016              		.loc 1 2168 0
 13017 0866 009B     		ldr	r3, [sp]
 13018 0868 2022     		movs	r2, #32
 13019 086a 1A70     		strb	r2, [r3]
 13020              		.loc 1 2169 0
 13021 086c 019B     		ldr	r3, [sp, #4]
 13022 086e 9B68     		ldr	r3, [r3, #8]
 13023 0870 009A     		ldr	r2, [sp]
 13024 0872 02F10801 		add	r1, r2, #8
 13025 0876 0222     		movs	r2, #2
 13026 0878 0198     		ldr	r0, [sp, #4]
 13027 087a 9847     		blx	r3
 13028              	.LVL90:
 13029 087c 0346     		mov	r3, r0
 13030 087e 83F00103 		eor	r3, r3, #1
 13031 0882 DBB2     		uxtb	r3, r3
 13032 0884 002B     		cmp	r3, #0
 13033 0886 04D0     		beq	.L1096
 13034              		.loc 1 2170 0
 13035 0888 019B     		ldr	r3, [sp, #4]
 13036 088a 0922     		movs	r2, #9
 13037 088c 1A70     		strb	r2, [r3]
 13038              		.loc 1 2171 0
 13039 088e 0023     		movs	r3, #0
 13040 0890 3FE0     		b	.L1100
 13041              	.L1096:
 13042              		.loc 1 2173 0
 13043 0892 009B     		ldr	r3, [sp]
 13044 0894 1B89     		ldrh	r3, [r3, #8]
 13045 0896 1846     		mov	r0, r3
ARM GAS  C:\Users\PCHAUT~1\AppData\Local\Temp\ccacj52E.s 			page 231


 13046 0898 FFF7FEFF 		bl	be16
 13047 089c 0346     		mov	r3, r0
 13048 089e 1A46     		mov	r2, r3
 13049 08a0 009B     		ldr	r3, [sp]
 13050 08a2 9A60     		str	r2, [r3, #8]
 13051 08a4 34E0     		b	.L1032
 13052              	.L1095:
 13053              		.loc 1 2175 0
 13054 08a6 9DF80E30 		ldrb	r3, [sp, #14]	@ zero_extendqisi2
 13055 08aa DF2B     		cmp	r3, #223
 13056 08ac 1ED1     		bne	.L1097
 13057              		.loc 1 2176 0
 13058 08ae 009B     		ldr	r3, [sp]
 13059 08b0 2122     		movs	r2, #33
 13060 08b2 1A70     		strb	r2, [r3]
 13061              		.loc 1 2177 0
 13062 08b4 019B     		ldr	r3, [sp, #4]
 13063 08b6 9B68     		ldr	r3, [r3, #8]
 13064 08b8 009A     		ldr	r2, [sp]
 13065 08ba 02F10801 		add	r1, r2, #8
 13066 08be 0422     		movs	r2, #4
 13067 08c0 0198     		ldr	r0, [sp, #4]
 13068 08c2 9847     		blx	r3
 13069              	.LVL91:
 13070 08c4 0346     		mov	r3, r0
 13071 08c6 83F00103 		eor	r3, r3, #1
 13072 08ca DBB2     		uxtb	r3, r3
 13073 08cc 002B     		cmp	r3, #0
 13074 08ce 04D0     		beq	.L1098
 13075              		.loc 1 2178 0
 13076 08d0 019B     		ldr	r3, [sp, #4]
 13077 08d2 0922     		movs	r2, #9
 13078 08d4 1A70     		strb	r2, [r3]
 13079              		.loc 1 2179 0
 13080 08d6 0023     		movs	r3, #0
 13081 08d8 1BE0     		b	.L1100
 13082              	.L1098:
 13083              		.loc 1 2181 0
 13084 08da 009B     		ldr	r3, [sp]
 13085 08dc 9B68     		ldr	r3, [r3, #8]
 13086 08de 1846     		mov	r0, r3
 13087 08e0 FFF7FEFF 		bl	be32
 13088 08e4 0246     		mov	r2, r0
 13089 08e6 009B     		ldr	r3, [sp]
 13090 08e8 9A60     		str	r2, [r3, #8]
 13091 08ea 11E0     		b	.L1032
 13092              	.L1097:
 13093              		.loc 1 2183 0
 13094 08ec 9DF80E30 		ldrb	r3, [sp, #14]	@ zero_extendqisi2
 13095 08f0 DF2B     		cmp	r3, #223
 13096 08f2 08D9     		bls	.L1099
 13097              		.loc 1 2184 0
 13098 08f4 009B     		ldr	r3, [sp]
 13099 08f6 2222     		movs	r2, #34
 13100 08f8 1A70     		strb	r2, [r3]
 13101              		.loc 1 2185 0
 13102 08fa 9DF80E30 		ldrb	r3, [sp, #14]	@ zero_extendqisi2
ARM GAS  C:\Users\PCHAUT~1\AppData\Local\Temp\ccacj52E.s 			page 232


 13103 08fe 5AB2     		sxtb	r2, r3
 13104 0900 009B     		ldr	r3, [sp]
 13105 0902 1A72     		strb	r2, [r3, #8]
 13106 0904 04E0     		b	.L1032
 13107              	.L1099:
 13108              		.loc 1 2188 0
 13109 0906 019B     		ldr	r3, [sp, #4]
 13110 0908 0D22     		movs	r2, #13
 13111 090a 1A70     		strb	r2, [r3]
 13112              		.loc 1 2189 0
 13113 090c 0023     		movs	r3, #0
 13114 090e 00E0     		b	.L1100
 13115              	.L1032:
 13116              		.loc 1 2192 0
 13117 0910 0123     		movs	r3, #1
 13118              	.L1100:
 13119              		.loc 1 2193 0 discriminator 4
 13120 0912 1846     		mov	r0, r3
 13121 0914 044B     		ldr	r3, .L1104
 13122 0916 059A     		ldr	r2, [sp, #20]
 13123 0918 1B68     		ldr	r3, [r3]
 13124 091a 9A42     		cmp	r2, r3
 13125 091c 01D0     		beq	.L1101
 13126              		.loc 1 2193 0 is_stmt 0
 13127 091e FFF7FEFF 		bl	__stack_chk_fail
 13128              	.L1101:
 13129 0922 06B0     		add	sp, sp, #24
 13130              		.cfi_def_cfa_offset 8
 13131              		@ sp needed
 13132 0924 10BD     		pop	{r4, pc}
 13133              	.L1105:
 13134 0926 00BF     		.align	2
 13135              	.L1104:
 13136 0928 00000000 		.word	__stack_chk_guard
 13137              		.cfi_endproc
 13138              	.LFE131:
 13139              		.size	cmp_read_object, .-cmp_read_object
 13140              		.section	.text.cmp_object_is_char,"ax",%progbits
 13141              		.align	1
 13142              		.p2align 4,,15
 13143              		.global	cmp_object_is_char
 13144              		.syntax unified
 13145              		.thumb
 13146              		.thumb_func
 13147              		.fpu fpv4-sp-d16
 13148              		.type	cmp_object_is_char, %function
 13149              	cmp_object_is_char:
 13150              	.LFB132:
 13151              		.loc 1 2195 0 is_stmt 1
 13152              		.cfi_startproc
 13153              		@ args = 0, pretend = 0, frame = 16
 13154              		@ frame_needed = 0, uses_anonymous_args = 0
 13155 0000 00B5     		push	{lr}
 13156              		.cfi_def_cfa_offset 4
 13157              		.cfi_offset 14, -4
 13158 0002 85B0     		sub	sp, sp, #20
 13159              		.cfi_def_cfa_offset 24
ARM GAS  C:\Users\PCHAUT~1\AppData\Local\Temp\ccacj52E.s 			page 233


 13160 0004 0190     		str	r0, [sp, #4]
 13161              		.loc 1 2195 0
 13162 0006 0B4B     		ldr	r3, .L1112
 13163 0008 1B68     		ldr	r3, [r3]
 13164 000a 0393     		str	r3, [sp, #12]
 13165              		.loc 1 2196 0
 13166 000c 019B     		ldr	r3, [sp, #4]
 13167 000e 1B78     		ldrb	r3, [r3]	@ zero_extendqisi2
 13168 0010 122B     		cmp	r3, #18
 13169 0012 01D0     		beq	.L1108
 13170 0014 222B     		cmp	r3, #34
 13171 0016 01D1     		bne	.L1111
 13172              	.L1108:
 13173              		.loc 1 2199 0
 13174 0018 0123     		movs	r3, #1
 13175 001a 00E0     		b	.L1109
 13176              	.L1111:
 13177              		.loc 1 2201 0
 13178 001c 0023     		movs	r3, #0
 13179              	.L1109:
 13180              		.loc 1 2203 0
 13181 001e 1846     		mov	r0, r3
 13182 0020 044B     		ldr	r3, .L1112
 13183 0022 039A     		ldr	r2, [sp, #12]
 13184 0024 1B68     		ldr	r3, [r3]
 13185 0026 9A42     		cmp	r2, r3
 13186 0028 01D0     		beq	.L1110
 13187 002a FFF7FEFF 		bl	__stack_chk_fail
 13188              	.L1110:
 13189 002e 05B0     		add	sp, sp, #20
 13190              		.cfi_def_cfa_offset 4
 13191              		@ sp needed
 13192 0030 5DF804FB 		ldr	pc, [sp], #4
 13193              	.L1113:
 13194              		.align	2
 13195              	.L1112:
 13196 0034 00000000 		.word	__stack_chk_guard
 13197              		.cfi_endproc
 13198              	.LFE132:
 13199              		.size	cmp_object_is_char, .-cmp_object_is_char
 13200              		.section	.text.cmp_object_is_short,"ax",%progbits
 13201              		.align	1
 13202              		.p2align 4,,15
 13203              		.global	cmp_object_is_short
 13204              		.syntax unified
 13205              		.thumb
 13206              		.thumb_func
 13207              		.fpu fpv4-sp-d16
 13208              		.type	cmp_object_is_short, %function
 13209              	cmp_object_is_short:
 13210              	.LFB133:
 13211              		.loc 1 2205 0
 13212              		.cfi_startproc
 13213              		@ args = 0, pretend = 0, frame = 16
 13214              		@ frame_needed = 0, uses_anonymous_args = 0
 13215 0000 00B5     		push	{lr}
 13216              		.cfi_def_cfa_offset 4
ARM GAS  C:\Users\PCHAUT~1\AppData\Local\Temp\ccacj52E.s 			page 234


 13217              		.cfi_offset 14, -4
 13218 0002 85B0     		sub	sp, sp, #20
 13219              		.cfi_def_cfa_offset 24
 13220 0004 0190     		str	r0, [sp, #4]
 13221              		.loc 1 2205 0
 13222 0006 0C4B     		ldr	r3, .L1119
 13223 0008 1B68     		ldr	r3, [r3]
 13224 000a 0393     		str	r3, [sp, #12]
 13225              		.loc 1 2206 0
 13226 000c 019B     		ldr	r3, [sp, #4]
 13227 000e 1B78     		ldrb	r3, [r3]	@ zero_extendqisi2
 13228 0010 122B     		cmp	r3, #18
 13229 0012 05DB     		blt	.L1115
 13230 0014 132B     		cmp	r3, #19
 13231 0016 01DD     		ble	.L1116
 13232 0018 222B     		cmp	r3, #34
 13233 001a 01D1     		bne	.L1115
 13234              	.L1116:
 13235              		.loc 1 2210 0
 13236 001c 0123     		movs	r3, #1
 13237 001e 00E0     		b	.L1117
 13238              	.L1115:
 13239              		.loc 1 2212 0
 13240 0020 0023     		movs	r3, #0
 13241              	.L1117:
 13242              		.loc 1 2214 0
 13243 0022 1846     		mov	r0, r3
 13244 0024 044B     		ldr	r3, .L1119
 13245 0026 039A     		ldr	r2, [sp, #12]
 13246 0028 1B68     		ldr	r3, [r3]
 13247 002a 9A42     		cmp	r2, r3
 13248 002c 01D0     		beq	.L1118
 13249 002e FFF7FEFF 		bl	__stack_chk_fail
 13250              	.L1118:
 13251 0032 05B0     		add	sp, sp, #20
 13252              		.cfi_def_cfa_offset 4
 13253              		@ sp needed
 13254 0034 5DF804FB 		ldr	pc, [sp], #4
 13255              	.L1120:
 13256              		.align	2
 13257              	.L1119:
 13258 0038 00000000 		.word	__stack_chk_guard
 13259              		.cfi_endproc
 13260              	.LFE133:
 13261              		.size	cmp_object_is_short, .-cmp_object_is_short
 13262              		.section	.text.cmp_object_is_int,"ax",%progbits
 13263              		.align	1
 13264              		.p2align 4,,15
 13265              		.global	cmp_object_is_int
 13266              		.syntax unified
 13267              		.thumb
 13268              		.thumb_func
 13269              		.fpu fpv4-sp-d16
 13270              		.type	cmp_object_is_int, %function
 13271              	cmp_object_is_int:
 13272              	.LFB134:
 13273              		.loc 1 2216 0
ARM GAS  C:\Users\PCHAUT~1\AppData\Local\Temp\ccacj52E.s 			page 235


 13274              		.cfi_startproc
 13275              		@ args = 0, pretend = 0, frame = 16
 13276              		@ frame_needed = 0, uses_anonymous_args = 0
 13277 0000 00B5     		push	{lr}
 13278              		.cfi_def_cfa_offset 4
 13279              		.cfi_offset 14, -4
 13280 0002 85B0     		sub	sp, sp, #20
 13281              		.cfi_def_cfa_offset 24
 13282 0004 0190     		str	r0, [sp, #4]
 13283              		.loc 1 2216 0
 13284 0006 0C4B     		ldr	r3, .L1126
 13285 0008 1B68     		ldr	r3, [r3]
 13286 000a 0393     		str	r3, [sp, #12]
 13287              		.loc 1 2217 0
 13288 000c 019B     		ldr	r3, [sp, #4]
 13289 000e 1B78     		ldrb	r3, [r3]	@ zero_extendqisi2
 13290 0010 122B     		cmp	r3, #18
 13291 0012 05DB     		blt	.L1122
 13292 0014 142B     		cmp	r3, #20
 13293 0016 01DD     		ble	.L1123
 13294 0018 222B     		cmp	r3, #34
 13295 001a 01D1     		bne	.L1122
 13296              	.L1123:
 13297              		.loc 1 2222 0
 13298 001c 0123     		movs	r3, #1
 13299 001e 00E0     		b	.L1124
 13300              	.L1122:
 13301              		.loc 1 2224 0
 13302 0020 0023     		movs	r3, #0
 13303              	.L1124:
 13304              		.loc 1 2226 0
 13305 0022 1846     		mov	r0, r3
 13306 0024 044B     		ldr	r3, .L1126
 13307 0026 039A     		ldr	r2, [sp, #12]
 13308 0028 1B68     		ldr	r3, [r3]
 13309 002a 9A42     		cmp	r2, r3
 13310 002c 01D0     		beq	.L1125
 13311 002e FFF7FEFF 		bl	__stack_chk_fail
 13312              	.L1125:
 13313 0032 05B0     		add	sp, sp, #20
 13314              		.cfi_def_cfa_offset 4
 13315              		@ sp needed
 13316 0034 5DF804FB 		ldr	pc, [sp], #4
 13317              	.L1127:
 13318              		.align	2
 13319              	.L1126:
 13320 0038 00000000 		.word	__stack_chk_guard
 13321              		.cfi_endproc
 13322              	.LFE134:
 13323              		.size	cmp_object_is_int, .-cmp_object_is_int
 13324              		.section	.text.cmp_object_is_long,"ax",%progbits
 13325              		.align	1
 13326              		.p2align 4,,15
 13327              		.global	cmp_object_is_long
 13328              		.syntax unified
 13329              		.thumb
 13330              		.thumb_func
ARM GAS  C:\Users\PCHAUT~1\AppData\Local\Temp\ccacj52E.s 			page 236


 13331              		.fpu fpv4-sp-d16
 13332              		.type	cmp_object_is_long, %function
 13333              	cmp_object_is_long:
 13334              	.LFB135:
 13335              		.loc 1 2228 0
 13336              		.cfi_startproc
 13337              		@ args = 0, pretend = 0, frame = 16
 13338              		@ frame_needed = 0, uses_anonymous_args = 0
 13339 0000 00B5     		push	{lr}
 13340              		.cfi_def_cfa_offset 4
 13341              		.cfi_offset 14, -4
 13342 0002 85B0     		sub	sp, sp, #20
 13343              		.cfi_def_cfa_offset 24
 13344 0004 0190     		str	r0, [sp, #4]
 13345              		.loc 1 2228 0
 13346 0006 0C4B     		ldr	r3, .L1133
 13347 0008 1B68     		ldr	r3, [r3]
 13348 000a 0393     		str	r3, [sp, #12]
 13349              		.loc 1 2229 0
 13350 000c 019B     		ldr	r3, [sp, #4]
 13351 000e 1B78     		ldrb	r3, [r3]	@ zero_extendqisi2
 13352 0010 122B     		cmp	r3, #18
 13353 0012 05DB     		blt	.L1129
 13354 0014 152B     		cmp	r3, #21
 13355 0016 01DD     		ble	.L1130
 13356 0018 222B     		cmp	r3, #34
 13357 001a 01D1     		bne	.L1129
 13358              	.L1130:
 13359              		.loc 1 2235 0
 13360 001c 0123     		movs	r3, #1
 13361 001e 00E0     		b	.L1131
 13362              	.L1129:
 13363              		.loc 1 2237 0
 13364 0020 0023     		movs	r3, #0
 13365              	.L1131:
 13366              		.loc 1 2239 0
 13367 0022 1846     		mov	r0, r3
 13368 0024 044B     		ldr	r3, .L1133
 13369 0026 039A     		ldr	r2, [sp, #12]
 13370 0028 1B68     		ldr	r3, [r3]
 13371 002a 9A42     		cmp	r2, r3
 13372 002c 01D0     		beq	.L1132
 13373 002e FFF7FEFF 		bl	__stack_chk_fail
 13374              	.L1132:
 13375 0032 05B0     		add	sp, sp, #20
 13376              		.cfi_def_cfa_offset 4
 13377              		@ sp needed
 13378 0034 5DF804FB 		ldr	pc, [sp], #4
 13379              	.L1134:
 13380              		.align	2
 13381              	.L1133:
 13382 0038 00000000 		.word	__stack_chk_guard
 13383              		.cfi_endproc
 13384              	.LFE135:
 13385              		.size	cmp_object_is_long, .-cmp_object_is_long
 13386              		.section	.text.cmp_object_is_sinteger,"ax",%progbits
 13387              		.align	1
ARM GAS  C:\Users\PCHAUT~1\AppData\Local\Temp\ccacj52E.s 			page 237


 13388              		.p2align 4,,15
 13389              		.global	cmp_object_is_sinteger
 13390              		.syntax unified
 13391              		.thumb
 13392              		.thumb_func
 13393              		.fpu fpv4-sp-d16
 13394              		.type	cmp_object_is_sinteger, %function
 13395              	cmp_object_is_sinteger:
 13396              	.LFB136:
 13397              		.loc 1 2241 0
 13398              		.cfi_startproc
 13399              		@ args = 0, pretend = 0, frame = 16
 13400              		@ frame_needed = 0, uses_anonymous_args = 0
 13401 0000 00B5     		push	{lr}
 13402              		.cfi_def_cfa_offset 4
 13403              		.cfi_offset 14, -4
 13404 0002 85B0     		sub	sp, sp, #20
 13405              		.cfi_def_cfa_offset 24
 13406 0004 0190     		str	r0, [sp, #4]
 13407              		.loc 1 2241 0
 13408 0006 094B     		ldr	r3, .L1138
 13409 0008 1B68     		ldr	r3, [r3]
 13410 000a 0393     		str	r3, [sp, #12]
 13411              		.loc 1 2242 0
 13412 000c 0198     		ldr	r0, [sp, #4]
 13413 000e FFF7FEFF 		bl	cmp_object_is_long
 13414 0012 0346     		mov	r3, r0
 13415              		.loc 1 2243 0
 13416 0014 1846     		mov	r0, r3
 13417 0016 054B     		ldr	r3, .L1138
 13418 0018 039A     		ldr	r2, [sp, #12]
 13419 001a 1B68     		ldr	r3, [r3]
 13420 001c 9A42     		cmp	r2, r3
 13421 001e 01D0     		beq	.L1137
 13422 0020 FFF7FEFF 		bl	__stack_chk_fail
 13423              	.L1137:
 13424 0024 05B0     		add	sp, sp, #20
 13425              		.cfi_def_cfa_offset 4
 13426              		@ sp needed
 13427 0026 5DF804FB 		ldr	pc, [sp], #4
 13428              	.L1139:
 13429 002a 00BF     		.align	2
 13430              	.L1138:
 13431 002c 00000000 		.word	__stack_chk_guard
 13432              		.cfi_endproc
 13433              	.LFE136:
 13434              		.size	cmp_object_is_sinteger, .-cmp_object_is_sinteger
 13435              		.section	.text.cmp_object_is_uchar,"ax",%progbits
 13436              		.align	1
 13437              		.p2align 4,,15
 13438              		.global	cmp_object_is_uchar
 13439              		.syntax unified
 13440              		.thumb
 13441              		.thumb_func
 13442              		.fpu fpv4-sp-d16
 13443              		.type	cmp_object_is_uchar, %function
 13444              	cmp_object_is_uchar:
ARM GAS  C:\Users\PCHAUT~1\AppData\Local\Temp\ccacj52E.s 			page 238


 13445              	.LFB137:
 13446              		.loc 1 2245 0
 13447              		.cfi_startproc
 13448              		@ args = 0, pretend = 0, frame = 16
 13449              		@ frame_needed = 0, uses_anonymous_args = 0
 13450 0000 00B5     		push	{lr}
 13451              		.cfi_def_cfa_offset 4
 13452              		.cfi_offset 14, -4
 13453 0002 85B0     		sub	sp, sp, #20
 13454              		.cfi_def_cfa_offset 24
 13455 0004 0190     		str	r0, [sp, #4]
 13456              		.loc 1 2245 0
 13457 0006 0B4B     		ldr	r3, .L1146
 13458 0008 1B68     		ldr	r3, [r3]
 13459 000a 0393     		str	r3, [sp, #12]
 13460              		.loc 1 2246 0
 13461 000c 019B     		ldr	r3, [sp, #4]
 13462 000e 1B78     		ldrb	r3, [r3]	@ zero_extendqisi2
 13463 0010 002B     		cmp	r3, #0
 13464 0012 01D0     		beq	.L1142
 13465 0014 0E2B     		cmp	r3, #14
 13466 0016 01D1     		bne	.L1145
 13467              	.L1142:
 13468              		.loc 1 2249 0
 13469 0018 0123     		movs	r3, #1
 13470 001a 00E0     		b	.L1143
 13471              	.L1145:
 13472              		.loc 1 2251 0
 13473 001c 0023     		movs	r3, #0
 13474              	.L1143:
 13475              		.loc 1 2253 0
 13476 001e 1846     		mov	r0, r3
 13477 0020 044B     		ldr	r3, .L1146
 13478 0022 039A     		ldr	r2, [sp, #12]
 13479 0024 1B68     		ldr	r3, [r3]
 13480 0026 9A42     		cmp	r2, r3
 13481 0028 01D0     		beq	.L1144
 13482 002a FFF7FEFF 		bl	__stack_chk_fail
 13483              	.L1144:
 13484 002e 05B0     		add	sp, sp, #20
 13485              		.cfi_def_cfa_offset 4
 13486              		@ sp needed
 13487 0030 5DF804FB 		ldr	pc, [sp], #4
 13488              	.L1147:
 13489              		.align	2
 13490              	.L1146:
 13491 0034 00000000 		.word	__stack_chk_guard
 13492              		.cfi_endproc
 13493              	.LFE137:
 13494              		.size	cmp_object_is_uchar, .-cmp_object_is_uchar
 13495              		.section	.text.cmp_object_is_ushort,"ax",%progbits
 13496              		.align	1
 13497              		.p2align 4,,15
 13498              		.global	cmp_object_is_ushort
 13499              		.syntax unified
 13500              		.thumb
 13501              		.thumb_func
ARM GAS  C:\Users\PCHAUT~1\AppData\Local\Temp\ccacj52E.s 			page 239


 13502              		.fpu fpv4-sp-d16
 13503              		.type	cmp_object_is_ushort, %function
 13504              	cmp_object_is_ushort:
 13505              	.LFB138:
 13506              		.loc 1 2255 0
 13507              		.cfi_startproc
 13508              		@ args = 0, pretend = 0, frame = 16
 13509              		@ frame_needed = 0, uses_anonymous_args = 0
 13510 0000 00B5     		push	{lr}
 13511              		.cfi_def_cfa_offset 4
 13512              		.cfi_offset 14, -4
 13513 0002 85B0     		sub	sp, sp, #20
 13514              		.cfi_def_cfa_offset 24
 13515 0004 0190     		str	r0, [sp, #4]
 13516              		.loc 1 2255 0
 13517 0006 0D4B     		ldr	r3, .L1155
 13518 0008 1B68     		ldr	r3, [r3]
 13519 000a 0393     		str	r3, [sp, #12]
 13520              		.loc 1 2256 0
 13521 000c 019B     		ldr	r3, [sp, #4]
 13522 000e 1B78     		ldrb	r3, [r3]	@ zero_extendqisi2
 13523 0010 0E2B     		cmp	r3, #14
 13524 0012 03D0     		beq	.L1150
 13525 0014 0F2B     		cmp	r3, #15
 13526 0016 03D0     		beq	.L1151
 13527 0018 002B     		cmp	r3, #0
 13528 001a 03D1     		bne	.L1154
 13529              	.L1150:
 13530              		.loc 1 2259 0
 13531 001c 0123     		movs	r3, #1
 13532 001e 02E0     		b	.L1152
 13533              	.L1151:
 13534              		.loc 1 2261 0
 13535 0020 0123     		movs	r3, #1
 13536 0022 00E0     		b	.L1152
 13537              	.L1154:
 13538              		.loc 1 2263 0
 13539 0024 0023     		movs	r3, #0
 13540              	.L1152:
 13541              		.loc 1 2265 0
 13542 0026 1846     		mov	r0, r3
 13543 0028 044B     		ldr	r3, .L1155
 13544 002a 039A     		ldr	r2, [sp, #12]
 13545 002c 1B68     		ldr	r3, [r3]
 13546 002e 9A42     		cmp	r2, r3
 13547 0030 01D0     		beq	.L1153
 13548 0032 FFF7FEFF 		bl	__stack_chk_fail
 13549              	.L1153:
 13550 0036 05B0     		add	sp, sp, #20
 13551              		.cfi_def_cfa_offset 4
 13552              		@ sp needed
 13553 0038 5DF804FB 		ldr	pc, [sp], #4
 13554              	.L1156:
 13555              		.align	2
 13556              	.L1155:
 13557 003c 00000000 		.word	__stack_chk_guard
 13558              		.cfi_endproc
ARM GAS  C:\Users\PCHAUT~1\AppData\Local\Temp\ccacj52E.s 			page 240


 13559              	.LFE138:
 13560              		.size	cmp_object_is_ushort, .-cmp_object_is_ushort
 13561              		.section	.text.cmp_object_is_uint,"ax",%progbits
 13562              		.align	1
 13563              		.p2align 4,,15
 13564              		.global	cmp_object_is_uint
 13565              		.syntax unified
 13566              		.thumb
 13567              		.thumb_func
 13568              		.fpu fpv4-sp-d16
 13569              		.type	cmp_object_is_uint, %function
 13570              	cmp_object_is_uint:
 13571              	.LFB139:
 13572              		.loc 1 2267 0
 13573              		.cfi_startproc
 13574              		@ args = 0, pretend = 0, frame = 16
 13575              		@ frame_needed = 0, uses_anonymous_args = 0
 13576 0000 00B5     		push	{lr}
 13577              		.cfi_def_cfa_offset 4
 13578              		.cfi_offset 14, -4
 13579 0002 85B0     		sub	sp, sp, #20
 13580              		.cfi_def_cfa_offset 24
 13581 0004 0190     		str	r0, [sp, #4]
 13582              		.loc 1 2267 0
 13583 0006 0D4B     		ldr	r3, .L1162
 13584 0008 1B68     		ldr	r3, [r3]
 13585 000a 0393     		str	r3, [sp, #12]
 13586              		.loc 1 2268 0
 13587 000c 019B     		ldr	r3, [sp, #4]
 13588 000e 1B78     		ldrb	r3, [r3]	@ zero_extendqisi2
 13589 0010 002B     		cmp	r3, #0
 13590 0012 04D0     		beq	.L1159
 13591 0014 002B     		cmp	r3, #0
 13592 0016 04DB     		blt	.L1158
 13593 0018 0E3B     		subs	r3, r3, #14
 13594 001a 022B     		cmp	r3, #2
 13595 001c 01D8     		bhi	.L1158
 13596              	.L1159:
 13597              		.loc 1 2273 0
 13598 001e 0123     		movs	r3, #1
 13599 0020 00E0     		b	.L1160
 13600              	.L1158:
 13601              		.loc 1 2275 0
 13602 0022 0023     		movs	r3, #0
 13603              	.L1160:
 13604              		.loc 1 2277 0
 13605 0024 1846     		mov	r0, r3
 13606 0026 054B     		ldr	r3, .L1162
 13607 0028 039A     		ldr	r2, [sp, #12]
 13608 002a 1B68     		ldr	r3, [r3]
 13609 002c 9A42     		cmp	r2, r3
 13610 002e 01D0     		beq	.L1161
 13611 0030 FFF7FEFF 		bl	__stack_chk_fail
 13612              	.L1161:
 13613 0034 05B0     		add	sp, sp, #20
 13614              		.cfi_def_cfa_offset 4
 13615              		@ sp needed
ARM GAS  C:\Users\PCHAUT~1\AppData\Local\Temp\ccacj52E.s 			page 241


 13616 0036 5DF804FB 		ldr	pc, [sp], #4
 13617              	.L1163:
 13618 003a 00BF     		.align	2
 13619              	.L1162:
 13620 003c 00000000 		.word	__stack_chk_guard
 13621              		.cfi_endproc
 13622              	.LFE139:
 13623              		.size	cmp_object_is_uint, .-cmp_object_is_uint
 13624              		.section	.text.cmp_object_is_ulong,"ax",%progbits
 13625              		.align	1
 13626              		.p2align 4,,15
 13627              		.global	cmp_object_is_ulong
 13628              		.syntax unified
 13629              		.thumb
 13630              		.thumb_func
 13631              		.fpu fpv4-sp-d16
 13632              		.type	cmp_object_is_ulong, %function
 13633              	cmp_object_is_ulong:
 13634              	.LFB140:
 13635              		.loc 1 2279 0
 13636              		.cfi_startproc
 13637              		@ args = 0, pretend = 0, frame = 16
 13638              		@ frame_needed = 0, uses_anonymous_args = 0
 13639 0000 00B5     		push	{lr}
 13640              		.cfi_def_cfa_offset 4
 13641              		.cfi_offset 14, -4
 13642 0002 85B0     		sub	sp, sp, #20
 13643              		.cfi_def_cfa_offset 24
 13644 0004 0190     		str	r0, [sp, #4]
 13645              		.loc 1 2279 0
 13646 0006 0D4B     		ldr	r3, .L1169
 13647 0008 1B68     		ldr	r3, [r3]
 13648 000a 0393     		str	r3, [sp, #12]
 13649              		.loc 1 2280 0
 13650 000c 019B     		ldr	r3, [sp, #4]
 13651 000e 1B78     		ldrb	r3, [r3]	@ zero_extendqisi2
 13652 0010 002B     		cmp	r3, #0
 13653 0012 04D0     		beq	.L1166
 13654 0014 002B     		cmp	r3, #0
 13655 0016 04DB     		blt	.L1165
 13656 0018 0E3B     		subs	r3, r3, #14
 13657 001a 032B     		cmp	r3, #3
 13658 001c 01D8     		bhi	.L1165
 13659              	.L1166:
 13660              		.loc 1 2286 0
 13661 001e 0123     		movs	r3, #1
 13662 0020 00E0     		b	.L1167
 13663              	.L1165:
 13664              		.loc 1 2288 0
 13665 0022 0023     		movs	r3, #0
 13666              	.L1167:
 13667              		.loc 1 2290 0
 13668 0024 1846     		mov	r0, r3
 13669 0026 054B     		ldr	r3, .L1169
 13670 0028 039A     		ldr	r2, [sp, #12]
 13671 002a 1B68     		ldr	r3, [r3]
 13672 002c 9A42     		cmp	r2, r3
ARM GAS  C:\Users\PCHAUT~1\AppData\Local\Temp\ccacj52E.s 			page 242


 13673 002e 01D0     		beq	.L1168
 13674 0030 FFF7FEFF 		bl	__stack_chk_fail
 13675              	.L1168:
 13676 0034 05B0     		add	sp, sp, #20
 13677              		.cfi_def_cfa_offset 4
 13678              		@ sp needed
 13679 0036 5DF804FB 		ldr	pc, [sp], #4
 13680              	.L1170:
 13681 003a 00BF     		.align	2
 13682              	.L1169:
 13683 003c 00000000 		.word	__stack_chk_guard
 13684              		.cfi_endproc
 13685              	.LFE140:
 13686              		.size	cmp_object_is_ulong, .-cmp_object_is_ulong
 13687              		.section	.text.cmp_object_is_uinteger,"ax",%progbits
 13688              		.align	1
 13689              		.p2align 4,,15
 13690              		.global	cmp_object_is_uinteger
 13691              		.syntax unified
 13692              		.thumb
 13693              		.thumb_func
 13694              		.fpu fpv4-sp-d16
 13695              		.type	cmp_object_is_uinteger, %function
 13696              	cmp_object_is_uinteger:
 13697              	.LFB141:
 13698              		.loc 1 2292 0
 13699              		.cfi_startproc
 13700              		@ args = 0, pretend = 0, frame = 16
 13701              		@ frame_needed = 0, uses_anonymous_args = 0
 13702 0000 00B5     		push	{lr}
 13703              		.cfi_def_cfa_offset 4
 13704              		.cfi_offset 14, -4
 13705 0002 85B0     		sub	sp, sp, #20
 13706              		.cfi_def_cfa_offset 24
 13707 0004 0190     		str	r0, [sp, #4]
 13708              		.loc 1 2292 0
 13709 0006 094B     		ldr	r3, .L1174
 13710 0008 1B68     		ldr	r3, [r3]
 13711 000a 0393     		str	r3, [sp, #12]
 13712              		.loc 1 2293 0
 13713 000c 0198     		ldr	r0, [sp, #4]
 13714 000e FFF7FEFF 		bl	cmp_object_is_ulong
 13715 0012 0346     		mov	r3, r0
 13716              		.loc 1 2294 0
 13717 0014 1846     		mov	r0, r3
 13718 0016 054B     		ldr	r3, .L1174
 13719 0018 039A     		ldr	r2, [sp, #12]
 13720 001a 1B68     		ldr	r3, [r3]
 13721 001c 9A42     		cmp	r2, r3
 13722 001e 01D0     		beq	.L1173
 13723 0020 FFF7FEFF 		bl	__stack_chk_fail
 13724              	.L1173:
 13725 0024 05B0     		add	sp, sp, #20
 13726              		.cfi_def_cfa_offset 4
 13727              		@ sp needed
 13728 0026 5DF804FB 		ldr	pc, [sp], #4
 13729              	.L1175:
ARM GAS  C:\Users\PCHAUT~1\AppData\Local\Temp\ccacj52E.s 			page 243


 13730 002a 00BF     		.align	2
 13731              	.L1174:
 13732 002c 00000000 		.word	__stack_chk_guard
 13733              		.cfi_endproc
 13734              	.LFE141:
 13735              		.size	cmp_object_is_uinteger, .-cmp_object_is_uinteger
 13736              		.section	.text.cmp_object_is_float,"ax",%progbits
 13737              		.align	1
 13738              		.p2align 4,,15
 13739              		.global	cmp_object_is_float
 13740              		.syntax unified
 13741              		.thumb
 13742              		.thumb_func
 13743              		.fpu fpv4-sp-d16
 13744              		.type	cmp_object_is_float, %function
 13745              	cmp_object_is_float:
 13746              	.LFB142:
 13747              		.loc 1 2296 0
 13748              		.cfi_startproc
 13749              		@ args = 0, pretend = 0, frame = 16
 13750              		@ frame_needed = 0, uses_anonymous_args = 0
 13751 0000 00B5     		push	{lr}
 13752              		.cfi_def_cfa_offset 4
 13753              		.cfi_offset 14, -4
 13754 0002 85B0     		sub	sp, sp, #20
 13755              		.cfi_def_cfa_offset 24
 13756 0004 0190     		str	r0, [sp, #4]
 13757              		.loc 1 2296 0
 13758 0006 0A4B     		ldr	r3, .L1180
 13759 0008 1B68     		ldr	r3, [r3]
 13760 000a 0393     		str	r3, [sp, #12]
 13761              		.loc 1 2297 0
 13762 000c 019B     		ldr	r3, [sp, #4]
 13763 000e 1B78     		ldrb	r3, [r3]	@ zero_extendqisi2
 13764 0010 0C2B     		cmp	r3, #12
 13765 0012 01D1     		bne	.L1177
 13766              		.loc 1 2298 0
 13767 0014 0123     		movs	r3, #1
 13768 0016 00E0     		b	.L1178
 13769              	.L1177:
 13770              		.loc 1 2300 0
 13771 0018 0023     		movs	r3, #0
 13772              	.L1178:
 13773              		.loc 1 2301 0
 13774 001a 1846     		mov	r0, r3
 13775 001c 044B     		ldr	r3, .L1180
 13776 001e 039A     		ldr	r2, [sp, #12]
 13777 0020 1B68     		ldr	r3, [r3]
 13778 0022 9A42     		cmp	r2, r3
 13779 0024 01D0     		beq	.L1179
 13780 0026 FFF7FEFF 		bl	__stack_chk_fail
 13781              	.L1179:
 13782 002a 05B0     		add	sp, sp, #20
 13783              		.cfi_def_cfa_offset 4
 13784              		@ sp needed
 13785 002c 5DF804FB 		ldr	pc, [sp], #4
 13786              	.L1181:
ARM GAS  C:\Users\PCHAUT~1\AppData\Local\Temp\ccacj52E.s 			page 244


 13787              		.align	2
 13788              	.L1180:
 13789 0030 00000000 		.word	__stack_chk_guard
 13790              		.cfi_endproc
 13791              	.LFE142:
 13792              		.size	cmp_object_is_float, .-cmp_object_is_float
 13793              		.section	.text.cmp_object_is_double,"ax",%progbits
 13794              		.align	1
 13795              		.p2align 4,,15
 13796              		.global	cmp_object_is_double
 13797              		.syntax unified
 13798              		.thumb
 13799              		.thumb_func
 13800              		.fpu fpv4-sp-d16
 13801              		.type	cmp_object_is_double, %function
 13802              	cmp_object_is_double:
 13803              	.LFB143:
 13804              		.loc 1 2303 0
 13805              		.cfi_startproc
 13806              		@ args = 0, pretend = 0, frame = 16
 13807              		@ frame_needed = 0, uses_anonymous_args = 0
 13808 0000 00B5     		push	{lr}
 13809              		.cfi_def_cfa_offset 4
 13810              		.cfi_offset 14, -4
 13811 0002 85B0     		sub	sp, sp, #20
 13812              		.cfi_def_cfa_offset 24
 13813 0004 0190     		str	r0, [sp, #4]
 13814              		.loc 1 2303 0
 13815 0006 0A4B     		ldr	r3, .L1186
 13816 0008 1B68     		ldr	r3, [r3]
 13817 000a 0393     		str	r3, [sp, #12]
 13818              		.loc 1 2304 0
 13819 000c 019B     		ldr	r3, [sp, #4]
 13820 000e 1B78     		ldrb	r3, [r3]	@ zero_extendqisi2
 13821 0010 0D2B     		cmp	r3, #13
 13822 0012 01D1     		bne	.L1183
 13823              		.loc 1 2305 0
 13824 0014 0123     		movs	r3, #1
 13825 0016 00E0     		b	.L1184
 13826              	.L1183:
 13827              		.loc 1 2307 0
 13828 0018 0023     		movs	r3, #0
 13829              	.L1184:
 13830              		.loc 1 2308 0
 13831 001a 1846     		mov	r0, r3
 13832 001c 044B     		ldr	r3, .L1186
 13833 001e 039A     		ldr	r2, [sp, #12]
 13834 0020 1B68     		ldr	r3, [r3]
 13835 0022 9A42     		cmp	r2, r3
 13836 0024 01D0     		beq	.L1185
 13837 0026 FFF7FEFF 		bl	__stack_chk_fail
 13838              	.L1185:
 13839 002a 05B0     		add	sp, sp, #20
 13840              		.cfi_def_cfa_offset 4
 13841              		@ sp needed
 13842 002c 5DF804FB 		ldr	pc, [sp], #4
 13843              	.L1187:
ARM GAS  C:\Users\PCHAUT~1\AppData\Local\Temp\ccacj52E.s 			page 245


 13844              		.align	2
 13845              	.L1186:
 13846 0030 00000000 		.word	__stack_chk_guard
 13847              		.cfi_endproc
 13848              	.LFE143:
 13849              		.size	cmp_object_is_double, .-cmp_object_is_double
 13850              		.section	.text.cmp_object_is_nil,"ax",%progbits
 13851              		.align	1
 13852              		.p2align 4,,15
 13853              		.global	cmp_object_is_nil
 13854              		.syntax unified
 13855              		.thumb
 13856              		.thumb_func
 13857              		.fpu fpv4-sp-d16
 13858              		.type	cmp_object_is_nil, %function
 13859              	cmp_object_is_nil:
 13860              	.LFB144:
 13861              		.loc 1 2310 0
 13862              		.cfi_startproc
 13863              		@ args = 0, pretend = 0, frame = 16
 13864              		@ frame_needed = 0, uses_anonymous_args = 0
 13865 0000 00B5     		push	{lr}
 13866              		.cfi_def_cfa_offset 4
 13867              		.cfi_offset 14, -4
 13868 0002 85B0     		sub	sp, sp, #20
 13869              		.cfi_def_cfa_offset 24
 13870 0004 0190     		str	r0, [sp, #4]
 13871              		.loc 1 2310 0
 13872 0006 0A4B     		ldr	r3, .L1192
 13873 0008 1B68     		ldr	r3, [r3]
 13874 000a 0393     		str	r3, [sp, #12]
 13875              		.loc 1 2311 0
 13876 000c 019B     		ldr	r3, [sp, #4]
 13877 000e 1B78     		ldrb	r3, [r3]	@ zero_extendqisi2
 13878 0010 042B     		cmp	r3, #4
 13879 0012 01D1     		bne	.L1189
 13880              		.loc 1 2312 0
 13881 0014 0123     		movs	r3, #1
 13882 0016 00E0     		b	.L1190
 13883              	.L1189:
 13884              		.loc 1 2314 0
 13885 0018 0023     		movs	r3, #0
 13886              	.L1190:
 13887              		.loc 1 2315 0
 13888 001a 1846     		mov	r0, r3
 13889 001c 044B     		ldr	r3, .L1192
 13890 001e 039A     		ldr	r2, [sp, #12]
 13891 0020 1B68     		ldr	r3, [r3]
 13892 0022 9A42     		cmp	r2, r3
 13893 0024 01D0     		beq	.L1191
 13894 0026 FFF7FEFF 		bl	__stack_chk_fail
 13895              	.L1191:
 13896 002a 05B0     		add	sp, sp, #20
 13897              		.cfi_def_cfa_offset 4
 13898              		@ sp needed
 13899 002c 5DF804FB 		ldr	pc, [sp], #4
 13900              	.L1193:
ARM GAS  C:\Users\PCHAUT~1\AppData\Local\Temp\ccacj52E.s 			page 246


 13901              		.align	2
 13902              	.L1192:
 13903 0030 00000000 		.word	__stack_chk_guard
 13904              		.cfi_endproc
 13905              	.LFE144:
 13906              		.size	cmp_object_is_nil, .-cmp_object_is_nil
 13907              		.section	.text.cmp_object_is_bool,"ax",%progbits
 13908              		.align	1
 13909              		.p2align 4,,15
 13910              		.global	cmp_object_is_bool
 13911              		.syntax unified
 13912              		.thumb
 13913              		.thumb_func
 13914              		.fpu fpv4-sp-d16
 13915              		.type	cmp_object_is_bool, %function
 13916              	cmp_object_is_bool:
 13917              	.LFB145:
 13918              		.loc 1 2317 0
 13919              		.cfi_startproc
 13920              		@ args = 0, pretend = 0, frame = 16
 13921              		@ frame_needed = 0, uses_anonymous_args = 0
 13922 0000 00B5     		push	{lr}
 13923              		.cfi_def_cfa_offset 4
 13924              		.cfi_offset 14, -4
 13925 0002 85B0     		sub	sp, sp, #20
 13926              		.cfi_def_cfa_offset 24
 13927 0004 0190     		str	r0, [sp, #4]
 13928              		.loc 1 2317 0
 13929 0006 0A4B     		ldr	r3, .L1198
 13930 0008 1B68     		ldr	r3, [r3]
 13931 000a 0393     		str	r3, [sp, #12]
 13932              		.loc 1 2318 0
 13933 000c 019B     		ldr	r3, [sp, #4]
 13934 000e 1B78     		ldrb	r3, [r3]	@ zero_extendqisi2
 13935 0010 052B     		cmp	r3, #5
 13936 0012 01D1     		bne	.L1195
 13937              		.loc 1 2319 0
 13938 0014 0123     		movs	r3, #1
 13939 0016 00E0     		b	.L1196
 13940              	.L1195:
 13941              		.loc 1 2321 0
 13942 0018 0023     		movs	r3, #0
 13943              	.L1196:
 13944              		.loc 1 2322 0
 13945 001a 1846     		mov	r0, r3
 13946 001c 044B     		ldr	r3, .L1198
 13947 001e 039A     		ldr	r2, [sp, #12]
 13948 0020 1B68     		ldr	r3, [r3]
 13949 0022 9A42     		cmp	r2, r3
 13950 0024 01D0     		beq	.L1197
 13951 0026 FFF7FEFF 		bl	__stack_chk_fail
 13952              	.L1197:
 13953 002a 05B0     		add	sp, sp, #20
 13954              		.cfi_def_cfa_offset 4
 13955              		@ sp needed
 13956 002c 5DF804FB 		ldr	pc, [sp], #4
 13957              	.L1199:
ARM GAS  C:\Users\PCHAUT~1\AppData\Local\Temp\ccacj52E.s 			page 247


 13958              		.align	2
 13959              	.L1198:
 13960 0030 00000000 		.word	__stack_chk_guard
 13961              		.cfi_endproc
 13962              	.LFE145:
 13963              		.size	cmp_object_is_bool, .-cmp_object_is_bool
 13964              		.section	.text.cmp_object_is_str,"ax",%progbits
 13965              		.align	1
 13966              		.p2align 4,,15
 13967              		.global	cmp_object_is_str
 13968              		.syntax unified
 13969              		.thumb
 13970              		.thumb_func
 13971              		.fpu fpv4-sp-d16
 13972              		.type	cmp_object_is_str, %function
 13973              	cmp_object_is_str:
 13974              	.LFB146:
 13975              		.loc 1 2324 0
 13976              		.cfi_startproc
 13977              		@ args = 0, pretend = 0, frame = 16
 13978              		@ frame_needed = 0, uses_anonymous_args = 0
 13979 0000 00B5     		push	{lr}
 13980              		.cfi_def_cfa_offset 4
 13981              		.cfi_offset 14, -4
 13982 0002 85B0     		sub	sp, sp, #20
 13983              		.cfi_def_cfa_offset 24
 13984 0004 0190     		str	r0, [sp, #4]
 13985              		.loc 1 2324 0
 13986 0006 0D4B     		ldr	r3, .L1205
 13987 0008 1B68     		ldr	r3, [r3]
 13988 000a 0393     		str	r3, [sp, #12]
 13989              		.loc 1 2325 0
 13990 000c 019B     		ldr	r3, [sp, #4]
 13991 000e 1B78     		ldrb	r3, [r3]	@ zero_extendqisi2
 13992 0010 032B     		cmp	r3, #3
 13993 0012 04D0     		beq	.L1202
 13994 0014 032B     		cmp	r3, #3
 13995 0016 04DB     		blt	.L1201
 13996 0018 1B3B     		subs	r3, r3, #27
 13997 001a 022B     		cmp	r3, #2
 13998 001c 01D8     		bhi	.L1201
 13999              	.L1202:
 14000              		.loc 1 2330 0
 14001 001e 0123     		movs	r3, #1
 14002 0020 00E0     		b	.L1203
 14003              	.L1201:
 14004              		.loc 1 2332 0
 14005 0022 0023     		movs	r3, #0
 14006              	.L1203:
 14007              		.loc 1 2334 0
 14008 0024 1846     		mov	r0, r3
 14009 0026 054B     		ldr	r3, .L1205
 14010 0028 039A     		ldr	r2, [sp, #12]
 14011 002a 1B68     		ldr	r3, [r3]
 14012 002c 9A42     		cmp	r2, r3
 14013 002e 01D0     		beq	.L1204
 14014 0030 FFF7FEFF 		bl	__stack_chk_fail
ARM GAS  C:\Users\PCHAUT~1\AppData\Local\Temp\ccacj52E.s 			page 248


 14015              	.L1204:
 14016 0034 05B0     		add	sp, sp, #20
 14017              		.cfi_def_cfa_offset 4
 14018              		@ sp needed
 14019 0036 5DF804FB 		ldr	pc, [sp], #4
 14020              	.L1206:
 14021 003a 00BF     		.align	2
 14022              	.L1205:
 14023 003c 00000000 		.word	__stack_chk_guard
 14024              		.cfi_endproc
 14025              	.LFE146:
 14026              		.size	cmp_object_is_str, .-cmp_object_is_str
 14027              		.section	.text.cmp_object_is_bin,"ax",%progbits
 14028              		.align	1
 14029              		.p2align 4,,15
 14030              		.global	cmp_object_is_bin
 14031              		.syntax unified
 14032              		.thumb
 14033              		.thumb_func
 14034              		.fpu fpv4-sp-d16
 14035              		.type	cmp_object_is_bin, %function
 14036              	cmp_object_is_bin:
 14037              	.LFB147:
 14038              		.loc 1 2336 0
 14039              		.cfi_startproc
 14040              		@ args = 0, pretend = 0, frame = 16
 14041              		@ frame_needed = 0, uses_anonymous_args = 0
 14042 0000 00B5     		push	{lr}
 14043              		.cfi_def_cfa_offset 4
 14044              		.cfi_offset 14, -4
 14045 0002 85B0     		sub	sp, sp, #20
 14046              		.cfi_def_cfa_offset 24
 14047 0004 0190     		str	r0, [sp, #4]
 14048              		.loc 1 2336 0
 14049 0006 0B4B     		ldr	r3, .L1212
 14050 0008 1B68     		ldr	r3, [r3]
 14051 000a 0393     		str	r3, [sp, #12]
 14052              		.loc 1 2337 0
 14053 000c 019B     		ldr	r3, [sp, #4]
 14054 000e 1B78     		ldrb	r3, [r3]	@ zero_extendqisi2
 14055 0010 063B     		subs	r3, r3, #6
 14056 0012 022B     		cmp	r3, #2
 14057 0014 01D8     		bhi	.L1208
 14058              		.loc 1 2341 0
 14059 0016 0123     		movs	r3, #1
 14060 0018 00E0     		b	.L1210
 14061              	.L1208:
 14062              		.loc 1 2343 0
 14063 001a 0023     		movs	r3, #0
 14064              	.L1210:
 14065              		.loc 1 2345 0
 14066 001c 1846     		mov	r0, r3
 14067 001e 054B     		ldr	r3, .L1212
 14068 0020 039A     		ldr	r2, [sp, #12]
 14069 0022 1B68     		ldr	r3, [r3]
 14070 0024 9A42     		cmp	r2, r3
 14071 0026 01D0     		beq	.L1211
ARM GAS  C:\Users\PCHAUT~1\AppData\Local\Temp\ccacj52E.s 			page 249


 14072 0028 FFF7FEFF 		bl	__stack_chk_fail
 14073              	.L1211:
 14074 002c 05B0     		add	sp, sp, #20
 14075              		.cfi_def_cfa_offset 4
 14076              		@ sp needed
 14077 002e 5DF804FB 		ldr	pc, [sp], #4
 14078              	.L1213:
 14079 0032 00BF     		.align	2
 14080              	.L1212:
 14081 0034 00000000 		.word	__stack_chk_guard
 14082              		.cfi_endproc
 14083              	.LFE147:
 14084              		.size	cmp_object_is_bin, .-cmp_object_is_bin
 14085              		.section	.text.cmp_object_is_array,"ax",%progbits
 14086              		.align	1
 14087              		.p2align 4,,15
 14088              		.global	cmp_object_is_array
 14089              		.syntax unified
 14090              		.thumb
 14091              		.thumb_func
 14092              		.fpu fpv4-sp-d16
 14093              		.type	cmp_object_is_array, %function
 14094              	cmp_object_is_array:
 14095              	.LFB148:
 14096              		.loc 1 2347 0
 14097              		.cfi_startproc
 14098              		@ args = 0, pretend = 0, frame = 16
 14099              		@ frame_needed = 0, uses_anonymous_args = 0
 14100 0000 00B5     		push	{lr}
 14101              		.cfi_def_cfa_offset 4
 14102              		.cfi_offset 14, -4
 14103 0002 85B0     		sub	sp, sp, #20
 14104              		.cfi_def_cfa_offset 24
 14105 0004 0190     		str	r0, [sp, #4]
 14106              		.loc 1 2347 0
 14107 0006 0D4B     		ldr	r3, .L1219
 14108 0008 1B68     		ldr	r3, [r3]
 14109 000a 0393     		str	r3, [sp, #12]
 14110              		.loc 1 2348 0
 14111 000c 019B     		ldr	r3, [sp, #4]
 14112 000e 1B78     		ldrb	r3, [r3]	@ zero_extendqisi2
 14113 0010 022B     		cmp	r3, #2
 14114 0012 04D0     		beq	.L1216
 14115 0014 022B     		cmp	r3, #2
 14116 0016 04DB     		blt	.L1215
 14117 0018 1E3B     		subs	r3, r3, #30
 14118 001a 012B     		cmp	r3, #1
 14119 001c 01D8     		bhi	.L1215
 14120              	.L1216:
 14121              		.loc 1 2352 0
 14122 001e 0123     		movs	r3, #1
 14123 0020 00E0     		b	.L1217
 14124              	.L1215:
 14125              		.loc 1 2354 0
 14126 0022 0023     		movs	r3, #0
 14127              	.L1217:
 14128              		.loc 1 2356 0
ARM GAS  C:\Users\PCHAUT~1\AppData\Local\Temp\ccacj52E.s 			page 250


 14129 0024 1846     		mov	r0, r3
 14130 0026 054B     		ldr	r3, .L1219
 14131 0028 039A     		ldr	r2, [sp, #12]
 14132 002a 1B68     		ldr	r3, [r3]
 14133 002c 9A42     		cmp	r2, r3
 14134 002e 01D0     		beq	.L1218
 14135 0030 FFF7FEFF 		bl	__stack_chk_fail
 14136              	.L1218:
 14137 0034 05B0     		add	sp, sp, #20
 14138              		.cfi_def_cfa_offset 4
 14139              		@ sp needed
 14140 0036 5DF804FB 		ldr	pc, [sp], #4
 14141              	.L1220:
 14142 003a 00BF     		.align	2
 14143              	.L1219:
 14144 003c 00000000 		.word	__stack_chk_guard
 14145              		.cfi_endproc
 14146              	.LFE148:
 14147              		.size	cmp_object_is_array, .-cmp_object_is_array
 14148              		.section	.text.cmp_object_is_map,"ax",%progbits
 14149              		.align	1
 14150              		.p2align 4,,15
 14151              		.global	cmp_object_is_map
 14152              		.syntax unified
 14153              		.thumb
 14154              		.thumb_func
 14155              		.fpu fpv4-sp-d16
 14156              		.type	cmp_object_is_map, %function
 14157              	cmp_object_is_map:
 14158              	.LFB149:
 14159              		.loc 1 2358 0
 14160              		.cfi_startproc
 14161              		@ args = 0, pretend = 0, frame = 16
 14162              		@ frame_needed = 0, uses_anonymous_args = 0
 14163 0000 00B5     		push	{lr}
 14164              		.cfi_def_cfa_offset 4
 14165              		.cfi_offset 14, -4
 14166 0002 85B0     		sub	sp, sp, #20
 14167              		.cfi_def_cfa_offset 24
 14168 0004 0190     		str	r0, [sp, #4]
 14169              		.loc 1 2358 0
 14170 0006 0D4B     		ldr	r3, .L1226
 14171 0008 1B68     		ldr	r3, [r3]
 14172 000a 0393     		str	r3, [sp, #12]
 14173              		.loc 1 2359 0
 14174 000c 019B     		ldr	r3, [sp, #4]
 14175 000e 1B78     		ldrb	r3, [r3]	@ zero_extendqisi2
 14176 0010 012B     		cmp	r3, #1
 14177 0012 04D0     		beq	.L1223
 14178 0014 012B     		cmp	r3, #1
 14179 0016 04DB     		blt	.L1222
 14180 0018 203B     		subs	r3, r3, #32
 14181 001a 012B     		cmp	r3, #1
 14182 001c 01D8     		bhi	.L1222
 14183              	.L1223:
 14184              		.loc 1 2363 0
 14185 001e 0123     		movs	r3, #1
ARM GAS  C:\Users\PCHAUT~1\AppData\Local\Temp\ccacj52E.s 			page 251


 14186 0020 00E0     		b	.L1224
 14187              	.L1222:
 14188              		.loc 1 2365 0
 14189 0022 0023     		movs	r3, #0
 14190              	.L1224:
 14191              		.loc 1 2367 0
 14192 0024 1846     		mov	r0, r3
 14193 0026 054B     		ldr	r3, .L1226
 14194 0028 039A     		ldr	r2, [sp, #12]
 14195 002a 1B68     		ldr	r3, [r3]
 14196 002c 9A42     		cmp	r2, r3
 14197 002e 01D0     		beq	.L1225
 14198 0030 FFF7FEFF 		bl	__stack_chk_fail
 14199              	.L1225:
 14200 0034 05B0     		add	sp, sp, #20
 14201              		.cfi_def_cfa_offset 4
 14202              		@ sp needed
 14203 0036 5DF804FB 		ldr	pc, [sp], #4
 14204              	.L1227:
 14205 003a 00BF     		.align	2
 14206              	.L1226:
 14207 003c 00000000 		.word	__stack_chk_guard
 14208              		.cfi_endproc
 14209              	.LFE149:
 14210              		.size	cmp_object_is_map, .-cmp_object_is_map
 14211              		.section	.text.cmp_object_is_ext,"ax",%progbits
 14212              		.align	1
 14213              		.p2align 4,,15
 14214              		.global	cmp_object_is_ext
 14215              		.syntax unified
 14216              		.thumb
 14217              		.thumb_func
 14218              		.fpu fpv4-sp-d16
 14219              		.type	cmp_object_is_ext, %function
 14220              	cmp_object_is_ext:
 14221              	.LFB150:
 14222              		.loc 1 2369 0
 14223              		.cfi_startproc
 14224              		@ args = 0, pretend = 0, frame = 16
 14225              		@ frame_needed = 0, uses_anonymous_args = 0
 14226 0000 00B5     		push	{lr}
 14227              		.cfi_def_cfa_offset 4
 14228              		.cfi_offset 14, -4
 14229 0002 85B0     		sub	sp, sp, #20
 14230              		.cfi_def_cfa_offset 24
 14231 0004 0190     		str	r0, [sp, #4]
 14232              		.loc 1 2369 0
 14233 0006 1E4B     		ldr	r3, .L1234
 14234 0008 1B68     		ldr	r3, [r3]
 14235 000a 0393     		str	r3, [sp, #12]
 14236              		.loc 1 2370 0
 14237 000c 019B     		ldr	r3, [sp, #4]
 14238 000e 1B78     		ldrb	r3, [r3]	@ zero_extendqisi2
 14239 0010 093B     		subs	r3, r3, #9
 14240 0012 112B     		cmp	r3, #17
 14241 0014 28D8     		bhi	.L1229
 14242 0016 01A2     		adr	r2, .L1231
ARM GAS  C:\Users\PCHAUT~1\AppData\Local\Temp\ccacj52E.s 			page 252


 14243 0018 52F823F0 		ldr	pc, [r2, r3, lsl #2]
 14244              		.p2align 2
 14245              	.L1231:
 14246 001c 65000000 		.word	.L1230+1
 14247 0020 65000000 		.word	.L1230+1
 14248 0024 65000000 		.word	.L1230+1
 14249 0028 69000000 		.word	.L1229+1
 14250 002c 69000000 		.word	.L1229+1
 14251 0030 69000000 		.word	.L1229+1
 14252 0034 69000000 		.word	.L1229+1
 14253 0038 69000000 		.word	.L1229+1
 14254 003c 69000000 		.word	.L1229+1
 14255 0040 69000000 		.word	.L1229+1
 14256 0044 69000000 		.word	.L1229+1
 14257 0048 69000000 		.word	.L1229+1
 14258 004c 69000000 		.word	.L1229+1
 14259 0050 65000000 		.word	.L1230+1
 14260 0054 65000000 		.word	.L1230+1
 14261 0058 65000000 		.word	.L1230+1
 14262 005c 65000000 		.word	.L1230+1
 14263 0060 65000000 		.word	.L1230+1
 14264              		.p2align 1
 14265              	.L1230:
 14266              		.loc 1 2379 0
 14267 0064 0123     		movs	r3, #1
 14268 0066 00E0     		b	.L1232
 14269              	.L1229:
 14270              		.loc 1 2381 0
 14271 0068 0023     		movs	r3, #0
 14272              	.L1232:
 14273              		.loc 1 2383 0
 14274 006a 1846     		mov	r0, r3
 14275 006c 044B     		ldr	r3, .L1234
 14276 006e 039A     		ldr	r2, [sp, #12]
 14277 0070 1B68     		ldr	r3, [r3]
 14278 0072 9A42     		cmp	r2, r3
 14279 0074 01D0     		beq	.L1233
 14280 0076 FFF7FEFF 		bl	__stack_chk_fail
 14281              	.L1233:
 14282 007a 05B0     		add	sp, sp, #20
 14283              		.cfi_def_cfa_offset 4
 14284              		@ sp needed
 14285 007c 5DF804FB 		ldr	pc, [sp], #4
 14286              	.L1235:
 14287              		.align	2
 14288              	.L1234:
 14289 0080 00000000 		.word	__stack_chk_guard
 14290              		.cfi_endproc
 14291              	.LFE150:
 14292              		.size	cmp_object_is_ext, .-cmp_object_is_ext
 14293              		.section	.text.cmp_object_as_char,"ax",%progbits
 14294              		.align	1
 14295              		.p2align 4,,15
 14296              		.global	cmp_object_as_char
 14297              		.syntax unified
 14298              		.thumb
 14299              		.thumb_func
ARM GAS  C:\Users\PCHAUT~1\AppData\Local\Temp\ccacj52E.s 			page 253


 14300              		.fpu fpv4-sp-d16
 14301              		.type	cmp_object_as_char, %function
 14302              	cmp_object_as_char:
 14303              	.LFB151:
 14304              		.loc 1 2385 0
 14305              		.cfi_startproc
 14306              		@ args = 0, pretend = 0, frame = 16
 14307              		@ frame_needed = 0, uses_anonymous_args = 0
 14308 0000 00B5     		push	{lr}
 14309              		.cfi_def_cfa_offset 4
 14310              		.cfi_offset 14, -4
 14311 0002 85B0     		sub	sp, sp, #20
 14312              		.cfi_def_cfa_offset 24
 14313 0004 0190     		str	r0, [sp, #4]
 14314 0006 0091     		str	r1, [sp]
 14315              		.loc 1 2385 0
 14316 0008 374B     		ldr	r3, .L1243
 14317 000a 1B68     		ldr	r3, [r3]
 14318 000c 0393     		str	r3, [sp, #12]
 14319              		.loc 1 2386 0
 14320 000e 019B     		ldr	r3, [sp, #4]
 14321 0010 1B78     		ldrb	r3, [r3]	@ zero_extendqisi2
 14322 0012 222B     		cmp	r3, #34
 14323 0014 5BD8     		bhi	.L1237
 14324 0016 01A2     		adr	r2, .L1239
 14325 0018 52F823F0 		ldr	pc, [r2, r3, lsl #2]
 14326              		.p2align 2
 14327              	.L1239:
 14328 001c A9000000 		.word	.L1238+1
 14329 0020 CF000000 		.word	.L1237+1
 14330 0024 CF000000 		.word	.L1237+1
 14331 0028 CF000000 		.word	.L1237+1
 14332 002c CF000000 		.word	.L1237+1
 14333 0030 CF000000 		.word	.L1237+1
 14334 0034 CF000000 		.word	.L1237+1
 14335 0038 CF000000 		.word	.L1237+1
 14336 003c CF000000 		.word	.L1237+1
 14337 0040 CF000000 		.word	.L1237+1
 14338 0044 CF000000 		.word	.L1237+1
 14339 0048 CF000000 		.word	.L1237+1
 14340 004c CF000000 		.word	.L1237+1
 14341 0050 CF000000 		.word	.L1237+1
 14342 0054 B7000000 		.word	.L1240+1
 14343 0058 CF000000 		.word	.L1237+1
 14344 005c CF000000 		.word	.L1237+1
 14345 0060 CF000000 		.word	.L1237+1
 14346 0064 A9000000 		.word	.L1238+1
 14347 0068 CF000000 		.word	.L1237+1
 14348 006c CF000000 		.word	.L1237+1
 14349 0070 CF000000 		.word	.L1237+1
 14350 0074 CF000000 		.word	.L1237+1
 14351 0078 CF000000 		.word	.L1237+1
 14352 007c CF000000 		.word	.L1237+1
 14353 0080 CF000000 		.word	.L1237+1
 14354 0084 CF000000 		.word	.L1237+1
 14355 0088 CF000000 		.word	.L1237+1
 14356 008c CF000000 		.word	.L1237+1
ARM GAS  C:\Users\PCHAUT~1\AppData\Local\Temp\ccacj52E.s 			page 254


 14357 0090 CF000000 		.word	.L1237+1
 14358 0094 CF000000 		.word	.L1237+1
 14359 0098 CF000000 		.word	.L1237+1
 14360 009c CF000000 		.word	.L1237+1
 14361 00a0 CF000000 		.word	.L1237+1
 14362 00a4 A9000000 		.word	.L1238+1
 14363              		.p2align 1
 14364              	.L1238:
 14365              		.loc 1 2390 0
 14366 00a8 019B     		ldr	r3, [sp, #4]
 14367 00aa 93F90820 		ldrsb	r2, [r3, #8]
 14368 00ae 009B     		ldr	r3, [sp]
 14369 00b0 1A70     		strb	r2, [r3]
 14370              		.loc 1 2391 0
 14371 00b2 0123     		movs	r3, #1
 14372 00b4 0CE0     		b	.L1241
 14373              	.L1240:
 14374              		.loc 1 2393 0
 14375 00b6 019B     		ldr	r3, [sp, #4]
 14376 00b8 1B7A     		ldrb	r3, [r3, #8]	@ zero_extendqisi2
 14377 00ba 5BB2     		sxtb	r3, r3
 14378 00bc 002B     		cmp	r3, #0
 14379 00be 06DB     		blt	.L1237
 14380              		.loc 1 2394 0
 14381 00c0 019B     		ldr	r3, [sp, #4]
 14382 00c2 93F90820 		ldrsb	r2, [r3, #8]
 14383 00c6 009B     		ldr	r3, [sp]
 14384 00c8 1A70     		strb	r2, [r3]
 14385              		.loc 1 2395 0
 14386 00ca 0123     		movs	r3, #1
 14387 00cc 00E0     		b	.L1241
 14388              	.L1237:
 14389              		.loc 1 2398 0
 14390 00ce 0023     		movs	r3, #0
 14391              	.L1241:
 14392              		.loc 1 2400 0
 14393 00d0 1846     		mov	r0, r3
 14394 00d2 054B     		ldr	r3, .L1243
 14395 00d4 039A     		ldr	r2, [sp, #12]
 14396 00d6 1B68     		ldr	r3, [r3]
 14397 00d8 9A42     		cmp	r2, r3
 14398 00da 01D0     		beq	.L1242
 14399 00dc FFF7FEFF 		bl	__stack_chk_fail
 14400              	.L1242:
 14401 00e0 05B0     		add	sp, sp, #20
 14402              		.cfi_def_cfa_offset 4
 14403              		@ sp needed
 14404 00e2 5DF804FB 		ldr	pc, [sp], #4
 14405              	.L1244:
 14406 00e6 00BF     		.align	2
 14407              	.L1243:
 14408 00e8 00000000 		.word	__stack_chk_guard
 14409              		.cfi_endproc
 14410              	.LFE151:
 14411              		.size	cmp_object_as_char, .-cmp_object_as_char
 14412              		.section	.text.cmp_object_as_short,"ax",%progbits
 14413              		.align	1
ARM GAS  C:\Users\PCHAUT~1\AppData\Local\Temp\ccacj52E.s 			page 255


 14414              		.p2align 4,,15
 14415              		.global	cmp_object_as_short
 14416              		.syntax unified
 14417              		.thumb
 14418              		.thumb_func
 14419              		.fpu fpv4-sp-d16
 14420              		.type	cmp_object_as_short, %function
 14421              	cmp_object_as_short:
 14422              	.LFB152:
 14423              		.loc 1 2402 0
 14424              		.cfi_startproc
 14425              		@ args = 0, pretend = 0, frame = 16
 14426              		@ frame_needed = 0, uses_anonymous_args = 0
 14427 0000 00B5     		push	{lr}
 14428              		.cfi_def_cfa_offset 4
 14429              		.cfi_offset 14, -4
 14430 0002 85B0     		sub	sp, sp, #20
 14431              		.cfi_def_cfa_offset 24
 14432 0004 0190     		str	r0, [sp, #4]
 14433 0006 0091     		str	r1, [sp]
 14434              		.loc 1 2402 0
 14435 0008 3E4B     		ldr	r3, .L1254
 14436 000a 1B68     		ldr	r3, [r3]
 14437 000c 0393     		str	r3, [sp, #12]
 14438              		.loc 1 2403 0
 14439 000e 019B     		ldr	r3, [sp, #4]
 14440 0010 1B78     		ldrb	r3, [r3]	@ zero_extendqisi2
 14441 0012 222B     		cmp	r3, #34
 14442 0014 6AD8     		bhi	.L1246
 14443 0016 01A2     		adr	r2, .L1248
 14444 0018 52F823F0 		ldr	pc, [r2, r3, lsl #2]
 14445              		.p2align 2
 14446              	.L1248:
 14447 001c A9000000 		.word	.L1247+1
 14448 0020 ED000000 		.word	.L1246+1
 14449 0024 ED000000 		.word	.L1246+1
 14450 0028 ED000000 		.word	.L1246+1
 14451 002c ED000000 		.word	.L1246+1
 14452 0030 ED000000 		.word	.L1246+1
 14453 0034 ED000000 		.word	.L1246+1
 14454 0038 ED000000 		.word	.L1246+1
 14455 003c ED000000 		.word	.L1246+1
 14456 0040 ED000000 		.word	.L1246+1
 14457 0044 ED000000 		.word	.L1246+1
 14458 0048 ED000000 		.word	.L1246+1
 14459 004c ED000000 		.word	.L1246+1
 14460 0050 ED000000 		.word	.L1246+1
 14461 0054 B9000000 		.word	.L1249+1
 14462 0058 D5000000 		.word	.L1250+1
 14463 005c ED000000 		.word	.L1246+1
 14464 0060 ED000000 		.word	.L1246+1
 14465 0064 A9000000 		.word	.L1247+1
 14466 0068 C7000000 		.word	.L1251+1
 14467 006c ED000000 		.word	.L1246+1
 14468 0070 ED000000 		.word	.L1246+1
 14469 0074 ED000000 		.word	.L1246+1
 14470 0078 ED000000 		.word	.L1246+1
ARM GAS  C:\Users\PCHAUT~1\AppData\Local\Temp\ccacj52E.s 			page 256


 14471 007c ED000000 		.word	.L1246+1
 14472 0080 ED000000 		.word	.L1246+1
 14473 0084 ED000000 		.word	.L1246+1
 14474 0088 ED000000 		.word	.L1246+1
 14475 008c ED000000 		.word	.L1246+1
 14476 0090 ED000000 		.word	.L1246+1
 14477 0094 ED000000 		.word	.L1246+1
 14478 0098 ED000000 		.word	.L1246+1
 14479 009c ED000000 		.word	.L1246+1
 14480 00a0 ED000000 		.word	.L1246+1
 14481 00a4 A9000000 		.word	.L1247+1
 14482              		.p2align 1
 14483              	.L1247:
 14484              		.loc 1 2407 0
 14485 00a8 019B     		ldr	r3, [sp, #4]
 14486 00aa 93F90830 		ldrsb	r3, [r3, #8]
 14487 00ae 1AB2     		sxth	r2, r3
 14488 00b0 009B     		ldr	r3, [sp]
 14489 00b2 1A80     		strh	r2, [r3]	@ movhi
 14490              		.loc 1 2408 0
 14491 00b4 0123     		movs	r3, #1
 14492 00b6 1AE0     		b	.L1252
 14493              	.L1249:
 14494              		.loc 1 2410 0
 14495 00b8 019B     		ldr	r3, [sp, #4]
 14496 00ba 1B7A     		ldrb	r3, [r3, #8]	@ zero_extendqisi2
 14497 00bc 1AB2     		sxth	r2, r3
 14498 00be 009B     		ldr	r3, [sp]
 14499 00c0 1A80     		strh	r2, [r3]	@ movhi
 14500              		.loc 1 2411 0
 14501 00c2 0123     		movs	r3, #1
 14502 00c4 13E0     		b	.L1252
 14503              	.L1251:
 14504              		.loc 1 2413 0
 14505 00c6 019B     		ldr	r3, [sp, #4]
 14506 00c8 B3F90820 		ldrsh	r2, [r3, #8]
 14507 00cc 009B     		ldr	r3, [sp]
 14508 00ce 1A80     		strh	r2, [r3]	@ movhi
 14509              		.loc 1 2414 0
 14510 00d0 0123     		movs	r3, #1
 14511 00d2 0CE0     		b	.L1252
 14512              	.L1250:
 14513              		.loc 1 2416 0
 14514 00d4 019B     		ldr	r3, [sp, #4]
 14515 00d6 1B89     		ldrh	r3, [r3, #8]
 14516 00d8 1BB2     		sxth	r3, r3
 14517 00da 002B     		cmp	r3, #0
 14518 00dc 06DB     		blt	.L1246
 14519              		.loc 1 2417 0
 14520 00de 019B     		ldr	r3, [sp, #4]
 14521 00e0 1B89     		ldrh	r3, [r3, #8]
 14522 00e2 1AB2     		sxth	r2, r3
 14523 00e4 009B     		ldr	r3, [sp]
 14524 00e6 1A80     		strh	r2, [r3]	@ movhi
 14525              		.loc 1 2418 0
 14526 00e8 0123     		movs	r3, #1
 14527 00ea 00E0     		b	.L1252
ARM GAS  C:\Users\PCHAUT~1\AppData\Local\Temp\ccacj52E.s 			page 257


 14528              	.L1246:
 14529              		.loc 1 2421 0
 14530 00ec 0023     		movs	r3, #0
 14531              	.L1252:
 14532              		.loc 1 2423 0
 14533 00ee 1846     		mov	r0, r3
 14534 00f0 044B     		ldr	r3, .L1254
 14535 00f2 039A     		ldr	r2, [sp, #12]
 14536 00f4 1B68     		ldr	r3, [r3]
 14537 00f6 9A42     		cmp	r2, r3
 14538 00f8 01D0     		beq	.L1253
 14539 00fa FFF7FEFF 		bl	__stack_chk_fail
 14540              	.L1253:
 14541 00fe 05B0     		add	sp, sp, #20
 14542              		.cfi_def_cfa_offset 4
 14543              		@ sp needed
 14544 0100 5DF804FB 		ldr	pc, [sp], #4
 14545              	.L1255:
 14546              		.align	2
 14547              	.L1254:
 14548 0104 00000000 		.word	__stack_chk_guard
 14549              		.cfi_endproc
 14550              	.LFE152:
 14551              		.size	cmp_object_as_short, .-cmp_object_as_short
 14552              		.section	.text.cmp_object_as_int,"ax",%progbits
 14553              		.align	1
 14554              		.p2align 4,,15
 14555              		.global	cmp_object_as_int
 14556              		.syntax unified
 14557              		.thumb
 14558              		.thumb_func
 14559              		.fpu fpv4-sp-d16
 14560              		.type	cmp_object_as_int, %function
 14561              	cmp_object_as_int:
 14562              	.LFB153:
 14563              		.loc 1 2425 0
 14564              		.cfi_startproc
 14565              		@ args = 0, pretend = 0, frame = 16
 14566              		@ frame_needed = 0, uses_anonymous_args = 0
 14567 0000 00B5     		push	{lr}
 14568              		.cfi_def_cfa_offset 4
 14569              		.cfi_offset 14, -4
 14570 0002 85B0     		sub	sp, sp, #20
 14571              		.cfi_def_cfa_offset 24
 14572 0004 0190     		str	r0, [sp, #4]
 14573 0006 0091     		str	r1, [sp]
 14574              		.loc 1 2425 0
 14575 0008 454B     		ldr	r3, .L1267
 14576 000a 1B68     		ldr	r3, [r3]
 14577 000c 0393     		str	r3, [sp, #12]
 14578              		.loc 1 2426 0
 14579 000e 019B     		ldr	r3, [sp, #4]
 14580 0010 1B78     		ldrb	r3, [r3]	@ zero_extendqisi2
 14581 0012 222B     		cmp	r3, #34
 14582 0014 77D8     		bhi	.L1257
 14583 0016 01A2     		adr	r2, .L1259
 14584 0018 52F823F0 		ldr	pc, [r2, r3, lsl #2]
ARM GAS  C:\Users\PCHAUT~1\AppData\Local\Temp\ccacj52E.s 			page 258


 14585              		.p2align 2
 14586              	.L1259:
 14587 001c A9000000 		.word	.L1258+1
 14588 0020 07010000 		.word	.L1257+1
 14589 0024 07010000 		.word	.L1257+1
 14590 0028 07010000 		.word	.L1257+1
 14591 002c 07010000 		.word	.L1257+1
 14592 0030 07010000 		.word	.L1257+1
 14593 0034 07010000 		.word	.L1257+1
 14594 0038 07010000 		.word	.L1257+1
 14595 003c 07010000 		.word	.L1257+1
 14596 0040 07010000 		.word	.L1257+1
 14597 0044 07010000 		.word	.L1257+1
 14598 0048 07010000 		.word	.L1257+1
 14599 004c 07010000 		.word	.L1257+1
 14600 0050 07010000 		.word	.L1257+1
 14601 0054 B9000000 		.word	.L1260+1
 14602 0058 D7000000 		.word	.L1261+1
 14603 005c F1000000 		.word	.L1262+1
 14604 0060 07010000 		.word	.L1257+1
 14605 0064 A9000000 		.word	.L1258+1
 14606 0068 C7000000 		.word	.L1263+1
 14607 006c E5000000 		.word	.L1264+1
 14608 0070 07010000 		.word	.L1257+1
 14609 0074 07010000 		.word	.L1257+1
 14610 0078 07010000 		.word	.L1257+1
 14611 007c 07010000 		.word	.L1257+1
 14612 0080 07010000 		.word	.L1257+1
 14613 0084 07010000 		.word	.L1257+1
 14614 0088 07010000 		.word	.L1257+1
 14615 008c 07010000 		.word	.L1257+1
 14616 0090 07010000 		.word	.L1257+1
 14617 0094 07010000 		.word	.L1257+1
 14618 0098 07010000 		.word	.L1257+1
 14619 009c 07010000 		.word	.L1257+1
 14620 00a0 07010000 		.word	.L1257+1
 14621 00a4 A9000000 		.word	.L1258+1
 14622              		.p2align 1
 14623              	.L1258:
 14624              		.loc 1 2430 0
 14625 00a8 019B     		ldr	r3, [sp, #4]
 14626 00aa 93F90830 		ldrsb	r3, [r3, #8]
 14627 00ae 1A46     		mov	r2, r3
 14628 00b0 009B     		ldr	r3, [sp]
 14629 00b2 1A60     		str	r2, [r3]
 14630              		.loc 1 2431 0
 14631 00b4 0123     		movs	r3, #1
 14632 00b6 27E0     		b	.L1265
 14633              	.L1260:
 14634              		.loc 1 2433 0
 14635 00b8 019B     		ldr	r3, [sp, #4]
 14636 00ba 1B7A     		ldrb	r3, [r3, #8]	@ zero_extendqisi2
 14637 00bc 1A46     		mov	r2, r3
 14638 00be 009B     		ldr	r3, [sp]
 14639 00c0 1A60     		str	r2, [r3]
 14640              		.loc 1 2434 0
 14641 00c2 0123     		movs	r3, #1
ARM GAS  C:\Users\PCHAUT~1\AppData\Local\Temp\ccacj52E.s 			page 259


 14642 00c4 20E0     		b	.L1265
 14643              	.L1263:
 14644              		.loc 1 2436 0
 14645 00c6 019B     		ldr	r3, [sp, #4]
 14646 00c8 B3F90830 		ldrsh	r3, [r3, #8]
 14647 00cc 1A46     		mov	r2, r3
 14648 00ce 009B     		ldr	r3, [sp]
 14649 00d0 1A60     		str	r2, [r3]
 14650              		.loc 1 2437 0
 14651 00d2 0123     		movs	r3, #1
 14652 00d4 18E0     		b	.L1265
 14653              	.L1261:
 14654              		.loc 1 2439 0
 14655 00d6 019B     		ldr	r3, [sp, #4]
 14656 00d8 1B89     		ldrh	r3, [r3, #8]
 14657 00da 1A46     		mov	r2, r3
 14658 00dc 009B     		ldr	r3, [sp]
 14659 00de 1A60     		str	r2, [r3]
 14660              		.loc 1 2440 0
 14661 00e0 0123     		movs	r3, #1
 14662 00e2 11E0     		b	.L1265
 14663              	.L1264:
 14664              		.loc 1 2442 0
 14665 00e4 019B     		ldr	r3, [sp, #4]
 14666 00e6 9A68     		ldr	r2, [r3, #8]
 14667 00e8 009B     		ldr	r3, [sp]
 14668 00ea 1A60     		str	r2, [r3]
 14669              		.loc 1 2443 0
 14670 00ec 0123     		movs	r3, #1
 14671 00ee 0BE0     		b	.L1265
 14672              	.L1262:
 14673              		.loc 1 2445 0
 14674 00f0 019B     		ldr	r3, [sp, #4]
 14675 00f2 9B68     		ldr	r3, [r3, #8]
 14676 00f4 002B     		cmp	r3, #0
 14677 00f6 06DB     		blt	.L1257
 14678              		.loc 1 2446 0
 14679 00f8 019B     		ldr	r3, [sp, #4]
 14680 00fa 9B68     		ldr	r3, [r3, #8]
 14681 00fc 1A46     		mov	r2, r3
 14682 00fe 009B     		ldr	r3, [sp]
 14683 0100 1A60     		str	r2, [r3]
 14684              		.loc 1 2447 0
 14685 0102 0123     		movs	r3, #1
 14686 0104 00E0     		b	.L1265
 14687              	.L1257:
 14688              		.loc 1 2450 0
 14689 0106 0023     		movs	r3, #0
 14690              	.L1265:
 14691              		.loc 1 2452 0
 14692 0108 1846     		mov	r0, r3
 14693 010a 054B     		ldr	r3, .L1267
 14694 010c 039A     		ldr	r2, [sp, #12]
 14695 010e 1B68     		ldr	r3, [r3]
 14696 0110 9A42     		cmp	r2, r3
 14697 0112 01D0     		beq	.L1266
 14698 0114 FFF7FEFF 		bl	__stack_chk_fail
ARM GAS  C:\Users\PCHAUT~1\AppData\Local\Temp\ccacj52E.s 			page 260


 14699              	.L1266:
 14700 0118 05B0     		add	sp, sp, #20
 14701              		.cfi_def_cfa_offset 4
 14702              		@ sp needed
 14703 011a 5DF804FB 		ldr	pc, [sp], #4
 14704              	.L1268:
 14705 011e 00BF     		.align	2
 14706              	.L1267:
 14707 0120 00000000 		.word	__stack_chk_guard
 14708              		.cfi_endproc
 14709              	.LFE153:
 14710              		.size	cmp_object_as_int, .-cmp_object_as_int
 14711              		.section	.text.cmp_object_as_long,"ax",%progbits
 14712              		.align	1
 14713              		.p2align 4,,15
 14714              		.global	cmp_object_as_long
 14715              		.syntax unified
 14716              		.thumb
 14717              		.thumb_func
 14718              		.fpu fpv4-sp-d16
 14719              		.type	cmp_object_as_long, %function
 14720              	cmp_object_as_long:
 14721              	.LFB154:
 14722              		.loc 1 2454 0
 14723              		.cfi_startproc
 14724              		@ args = 0, pretend = 0, frame = 16
 14725              		@ frame_needed = 0, uses_anonymous_args = 0
 14726 0000 10B5     		push	{r4, lr}
 14727              		.cfi_def_cfa_offset 8
 14728              		.cfi_offset 4, -8
 14729              		.cfi_offset 14, -4
 14730 0002 84B0     		sub	sp, sp, #16
 14731              		.cfi_def_cfa_offset 24
 14732 0004 0190     		str	r0, [sp, #4]
 14733 0006 0091     		str	r1, [sp]
 14734              		.loc 1 2454 0
 14735 0008 574B     		ldr	r3, .L1282
 14736 000a 1B68     		ldr	r3, [r3]
 14737 000c 0393     		str	r3, [sp, #12]
 14738              		.loc 1 2455 0
 14739 000e 019B     		ldr	r3, [sp, #4]
 14740 0010 1B78     		ldrb	r3, [r3]	@ zero_extendqisi2
 14741 0012 222B     		cmp	r3, #34
 14742 0014 00F29D80 		bhi	.L1270
 14743 0018 01A2     		adr	r2, .L1272
 14744 001a 52F823F0 		ldr	pc, [r2, r3, lsl #2]
 14745 001e 00BF     		.p2align 2
 14746              	.L1272:
 14747 0020 AD000000 		.word	.L1271+1
 14748 0024 53010000 		.word	.L1270+1
 14749 0028 53010000 		.word	.L1270+1
 14750 002c 53010000 		.word	.L1270+1
 14751 0030 53010000 		.word	.L1270+1
 14752 0034 53010000 		.word	.L1270+1
 14753 0038 53010000 		.word	.L1270+1
 14754 003c 53010000 		.word	.L1270+1
 14755 0040 53010000 		.word	.L1270+1
ARM GAS  C:\Users\PCHAUT~1\AppData\Local\Temp\ccacj52E.s 			page 261


 14756 0044 53010000 		.word	.L1270+1
 14757 0048 53010000 		.word	.L1270+1
 14758 004c 53010000 		.word	.L1270+1
 14759 0050 53010000 		.word	.L1270+1
 14760 0054 53010000 		.word	.L1270+1
 14761 0058 C3000000 		.word	.L1273+1
 14762 005c ED000000 		.word	.L1274+1
 14763 0060 13010000 		.word	.L1275+1
 14764 0064 35010000 		.word	.L1276+1
 14765 0068 AD000000 		.word	.L1271+1
 14766 006c D7000000 		.word	.L1277+1
 14767 0070 01010000 		.word	.L1278+1
 14768 0074 25010000 		.word	.L1279+1
 14769 0078 53010000 		.word	.L1270+1
 14770 007c 53010000 		.word	.L1270+1
 14771 0080 53010000 		.word	.L1270+1
 14772 0084 53010000 		.word	.L1270+1
 14773 0088 53010000 		.word	.L1270+1
 14774 008c 53010000 		.word	.L1270+1
 14775 0090 53010000 		.word	.L1270+1
 14776 0094 53010000 		.word	.L1270+1
 14777 0098 53010000 		.word	.L1270+1
 14778 009c 53010000 		.word	.L1270+1
 14779 00a0 53010000 		.word	.L1270+1
 14780 00a4 53010000 		.word	.L1270+1
 14781 00a8 AD000000 		.word	.L1271+1
 14782              		.p2align 1
 14783              	.L1271:
 14784              		.loc 1 2459 0
 14785 00ac 019B     		ldr	r3, [sp, #4]
 14786 00ae 93F90830 		ldrsb	r3, [r3, #8]
 14787 00b2 5BB2     		sxtb	r3, r3
 14788 00b4 4FEAE374 		asr	r4, r3, #31
 14789 00b8 009A     		ldr	r2, [sp]
 14790 00ba C2E90034 		strd	r3, [r2]
 14791              		.loc 1 2460 0
 14792 00be 0123     		movs	r3, #1
 14793 00c0 48E0     		b	.L1280
 14794              	.L1273:
 14795              		.loc 1 2462 0
 14796 00c2 019B     		ldr	r3, [sp, #4]
 14797 00c4 1B7A     		ldrb	r3, [r3, #8]	@ zero_extendqisi2
 14798 00c6 DBB2     		uxtb	r3, r3
 14799 00c8 4FF00004 		mov	r4, #0
 14800 00cc 009A     		ldr	r2, [sp]
 14801 00ce C2E90034 		strd	r3, [r2]
 14802              		.loc 1 2463 0
 14803 00d2 0123     		movs	r3, #1
 14804 00d4 3EE0     		b	.L1280
 14805              	.L1277:
 14806              		.loc 1 2465 0
 14807 00d6 019B     		ldr	r3, [sp, #4]
 14808 00d8 B3F90830 		ldrsh	r3, [r3, #8]
 14809 00dc 1BB2     		sxth	r3, r3
 14810 00de 4FEAE374 		asr	r4, r3, #31
 14811 00e2 009A     		ldr	r2, [sp]
 14812 00e4 C2E90034 		strd	r3, [r2]
ARM GAS  C:\Users\PCHAUT~1\AppData\Local\Temp\ccacj52E.s 			page 262


 14813              		.loc 1 2466 0
 14814 00e8 0123     		movs	r3, #1
 14815 00ea 33E0     		b	.L1280
 14816              	.L1274:
 14817              		.loc 1 2468 0
 14818 00ec 019B     		ldr	r3, [sp, #4]
 14819 00ee 1B89     		ldrh	r3, [r3, #8]
 14820 00f0 9BB2     		uxth	r3, r3
 14821 00f2 4FF00004 		mov	r4, #0
 14822 00f6 009A     		ldr	r2, [sp]
 14823 00f8 C2E90034 		strd	r3, [r2]
 14824              		.loc 1 2469 0
 14825 00fc 0123     		movs	r3, #1
 14826 00fe 29E0     		b	.L1280
 14827              	.L1278:
 14828              		.loc 1 2471 0
 14829 0100 019B     		ldr	r3, [sp, #4]
 14830 0102 9B68     		ldr	r3, [r3, #8]
 14831 0104 4FEAE374 		asr	r4, r3, #31
 14832 0108 009A     		ldr	r2, [sp]
 14833 010a C2E90034 		strd	r3, [r2]
 14834              		.loc 1 2472 0
 14835 010e 0123     		movs	r3, #1
 14836 0110 20E0     		b	.L1280
 14837              	.L1275:
 14838              		.loc 1 2474 0
 14839 0112 019B     		ldr	r3, [sp, #4]
 14840 0114 9B68     		ldr	r3, [r3, #8]
 14841 0116 4FF00004 		mov	r4, #0
 14842 011a 009A     		ldr	r2, [sp]
 14843 011c C2E90034 		strd	r3, [r2]
 14844              		.loc 1 2475 0
 14845 0120 0123     		movs	r3, #1
 14846 0122 17E0     		b	.L1280
 14847              	.L1279:
 14848              		.loc 1 2477 0
 14849 0124 019B     		ldr	r3, [sp, #4]
 14850 0126 D3E90234 		ldrd	r3, [r3, #8]
 14851 012a 009A     		ldr	r2, [sp]
 14852 012c C2E90034 		strd	r3, [r2]
 14853              		.loc 1 2478 0
 14854 0130 0123     		movs	r3, #1
 14855 0132 0FE0     		b	.L1280
 14856              	.L1276:
 14857              		.loc 1 2480 0
 14858 0134 019B     		ldr	r3, [sp, #4]
 14859 0136 D3E90234 		ldrd	r3, [r3, #8]
 14860 013a 002B     		cmp	r3, #0
 14861 013c 74F10003 		sbcs	r3, r4, #0
 14862 0140 07DB     		blt	.L1270
 14863              		.loc 1 2481 0
 14864 0142 019B     		ldr	r3, [sp, #4]
 14865 0144 D3E90234 		ldrd	r3, [r3, #8]
 14866 0148 009A     		ldr	r2, [sp]
 14867 014a C2E90034 		strd	r3, [r2]
 14868              		.loc 1 2482 0
 14869 014e 0123     		movs	r3, #1
ARM GAS  C:\Users\PCHAUT~1\AppData\Local\Temp\ccacj52E.s 			page 263


 14870 0150 00E0     		b	.L1280
 14871              	.L1270:
 14872              		.loc 1 2485 0
 14873 0152 0023     		movs	r3, #0
 14874              	.L1280:
 14875              		.loc 1 2487 0
 14876 0154 1846     		mov	r0, r3
 14877 0156 044B     		ldr	r3, .L1282
 14878 0158 039A     		ldr	r2, [sp, #12]
 14879 015a 1B68     		ldr	r3, [r3]
 14880 015c 9A42     		cmp	r2, r3
 14881 015e 01D0     		beq	.L1281
 14882 0160 FFF7FEFF 		bl	__stack_chk_fail
 14883              	.L1281:
 14884 0164 04B0     		add	sp, sp, #16
 14885              		.cfi_def_cfa_offset 8
 14886              		@ sp needed
 14887 0166 10BD     		pop	{r4, pc}
 14888              	.L1283:
 14889              		.align	2
 14890              	.L1282:
 14891 0168 00000000 		.word	__stack_chk_guard
 14892              		.cfi_endproc
 14893              	.LFE154:
 14894              		.size	cmp_object_as_long, .-cmp_object_as_long
 14895              		.section	.text.cmp_object_as_sinteger,"ax",%progbits
 14896              		.align	1
 14897              		.p2align 4,,15
 14898              		.global	cmp_object_as_sinteger
 14899              		.syntax unified
 14900              		.thumb
 14901              		.thumb_func
 14902              		.fpu fpv4-sp-d16
 14903              		.type	cmp_object_as_sinteger, %function
 14904              	cmp_object_as_sinteger:
 14905              	.LFB155:
 14906              		.loc 1 2489 0
 14907              		.cfi_startproc
 14908              		@ args = 0, pretend = 0, frame = 16
 14909              		@ frame_needed = 0, uses_anonymous_args = 0
 14910 0000 00B5     		push	{lr}
 14911              		.cfi_def_cfa_offset 4
 14912              		.cfi_offset 14, -4
 14913 0002 85B0     		sub	sp, sp, #20
 14914              		.cfi_def_cfa_offset 24
 14915 0004 0190     		str	r0, [sp, #4]
 14916 0006 0091     		str	r1, [sp]
 14917              		.loc 1 2489 0
 14918 0008 094B     		ldr	r3, .L1287
 14919 000a 1B68     		ldr	r3, [r3]
 14920 000c 0393     		str	r3, [sp, #12]
 14921              		.loc 1 2490 0
 14922 000e 0099     		ldr	r1, [sp]
 14923 0010 0198     		ldr	r0, [sp, #4]
 14924 0012 FFF7FEFF 		bl	cmp_object_as_long
 14925 0016 0346     		mov	r3, r0
 14926              		.loc 1 2491 0
ARM GAS  C:\Users\PCHAUT~1\AppData\Local\Temp\ccacj52E.s 			page 264


 14927 0018 1846     		mov	r0, r3
 14928 001a 054B     		ldr	r3, .L1287
 14929 001c 039A     		ldr	r2, [sp, #12]
 14930 001e 1B68     		ldr	r3, [r3]
 14931 0020 9A42     		cmp	r2, r3
 14932 0022 01D0     		beq	.L1286
 14933 0024 FFF7FEFF 		bl	__stack_chk_fail
 14934              	.L1286:
 14935 0028 05B0     		add	sp, sp, #20
 14936              		.cfi_def_cfa_offset 4
 14937              		@ sp needed
 14938 002a 5DF804FB 		ldr	pc, [sp], #4
 14939              	.L1288:
 14940 002e 00BF     		.align	2
 14941              	.L1287:
 14942 0030 00000000 		.word	__stack_chk_guard
 14943              		.cfi_endproc
 14944              	.LFE155:
 14945              		.size	cmp_object_as_sinteger, .-cmp_object_as_sinteger
 14946              		.section	.text.cmp_object_as_uchar,"ax",%progbits
 14947              		.align	1
 14948              		.p2align 4,,15
 14949              		.global	cmp_object_as_uchar
 14950              		.syntax unified
 14951              		.thumb
 14952              		.thumb_func
 14953              		.fpu fpv4-sp-d16
 14954              		.type	cmp_object_as_uchar, %function
 14955              	cmp_object_as_uchar:
 14956              	.LFB156:
 14957              		.loc 1 2493 0
 14958              		.cfi_startproc
 14959              		@ args = 0, pretend = 0, frame = 16
 14960              		@ frame_needed = 0, uses_anonymous_args = 0
 14961 0000 00B5     		push	{lr}
 14962              		.cfi_def_cfa_offset 4
 14963              		.cfi_offset 14, -4
 14964 0002 85B0     		sub	sp, sp, #20
 14965              		.cfi_def_cfa_offset 24
 14966 0004 0190     		str	r0, [sp, #4]
 14967 0006 0091     		str	r1, [sp]
 14968              		.loc 1 2493 0
 14969 0008 0D4B     		ldr	r3, .L1295
 14970 000a 1B68     		ldr	r3, [r3]
 14971 000c 0393     		str	r3, [sp, #12]
 14972              		.loc 1 2494 0
 14973 000e 019B     		ldr	r3, [sp, #4]
 14974 0010 1B78     		ldrb	r3, [r3]	@ zero_extendqisi2
 14975 0012 002B     		cmp	r3, #0
 14976 0014 01D0     		beq	.L1291
 14977 0016 0E2B     		cmp	r3, #14
 14978 0018 05D1     		bne	.L1294
 14979              	.L1291:
 14980              		.loc 1 2497 0
 14981 001a 019B     		ldr	r3, [sp, #4]
 14982 001c 1A7A     		ldrb	r2, [r3, #8]	@ zero_extendqisi2
 14983 001e 009B     		ldr	r3, [sp]
ARM GAS  C:\Users\PCHAUT~1\AppData\Local\Temp\ccacj52E.s 			page 265


 14984 0020 1A70     		strb	r2, [r3]
 14985              		.loc 1 2498 0
 14986 0022 0123     		movs	r3, #1
 14987 0024 00E0     		b	.L1292
 14988              	.L1294:
 14989              		.loc 1 2500 0
 14990 0026 0023     		movs	r3, #0
 14991              	.L1292:
 14992              		.loc 1 2502 0
 14993 0028 1846     		mov	r0, r3
 14994 002a 054B     		ldr	r3, .L1295
 14995 002c 039A     		ldr	r2, [sp, #12]
 14996 002e 1B68     		ldr	r3, [r3]
 14997 0030 9A42     		cmp	r2, r3
 14998 0032 01D0     		beq	.L1293
 14999 0034 FFF7FEFF 		bl	__stack_chk_fail
 15000              	.L1293:
 15001 0038 05B0     		add	sp, sp, #20
 15002              		.cfi_def_cfa_offset 4
 15003              		@ sp needed
 15004 003a 5DF804FB 		ldr	pc, [sp], #4
 15005              	.L1296:
 15006 003e 00BF     		.align	2
 15007              	.L1295:
 15008 0040 00000000 		.word	__stack_chk_guard
 15009              		.cfi_endproc
 15010              	.LFE156:
 15011              		.size	cmp_object_as_uchar, .-cmp_object_as_uchar
 15012              		.section	.text.cmp_object_as_ushort,"ax",%progbits
 15013              		.align	1
 15014              		.p2align 4,,15
 15015              		.global	cmp_object_as_ushort
 15016              		.syntax unified
 15017              		.thumb
 15018              		.thumb_func
 15019              		.fpu fpv4-sp-d16
 15020              		.type	cmp_object_as_ushort, %function
 15021              	cmp_object_as_ushort:
 15022              	.LFB157:
 15023              		.loc 1 2504 0
 15024              		.cfi_startproc
 15025              		@ args = 0, pretend = 0, frame = 16
 15026              		@ frame_needed = 0, uses_anonymous_args = 0
 15027 0000 00B5     		push	{lr}
 15028              		.cfi_def_cfa_offset 4
 15029              		.cfi_offset 14, -4
 15030 0002 85B0     		sub	sp, sp, #20
 15031              		.cfi_def_cfa_offset 24
 15032 0004 0190     		str	r0, [sp, #4]
 15033 0006 0091     		str	r1, [sp]
 15034              		.loc 1 2504 0
 15035 0008 114B     		ldr	r3, .L1304
 15036 000a 1B68     		ldr	r3, [r3]
 15037 000c 0393     		str	r3, [sp, #12]
 15038              		.loc 1 2505 0
 15039 000e 019B     		ldr	r3, [sp, #4]
 15040 0010 1B78     		ldrb	r3, [r3]	@ zero_extendqisi2
ARM GAS  C:\Users\PCHAUT~1\AppData\Local\Temp\ccacj52E.s 			page 266


 15041 0012 0E2B     		cmp	r3, #14
 15042 0014 03D0     		beq	.L1299
 15043 0016 0F2B     		cmp	r3, #15
 15044 0018 08D0     		beq	.L1300
 15045 001a 002B     		cmp	r3, #0
 15046 001c 0CD1     		bne	.L1303
 15047              	.L1299:
 15048              		.loc 1 2508 0
 15049 001e 019B     		ldr	r3, [sp, #4]
 15050 0020 1B7A     		ldrb	r3, [r3, #8]	@ zero_extendqisi2
 15051 0022 9AB2     		uxth	r2, r3
 15052 0024 009B     		ldr	r3, [sp]
 15053 0026 1A80     		strh	r2, [r3]	@ movhi
 15054              		.loc 1 2509 0
 15055 0028 0123     		movs	r3, #1
 15056 002a 06E0     		b	.L1301
 15057              	.L1300:
 15058              		.loc 1 2511 0
 15059 002c 019B     		ldr	r3, [sp, #4]
 15060 002e 1A89     		ldrh	r2, [r3, #8]
 15061 0030 009B     		ldr	r3, [sp]
 15062 0032 1A80     		strh	r2, [r3]	@ movhi
 15063              		.loc 1 2512 0
 15064 0034 0123     		movs	r3, #1
 15065 0036 00E0     		b	.L1301
 15066              	.L1303:
 15067              		.loc 1 2514 0
 15068 0038 0023     		movs	r3, #0
 15069              	.L1301:
 15070              		.loc 1 2516 0
 15071 003a 1846     		mov	r0, r3
 15072 003c 044B     		ldr	r3, .L1304
 15073 003e 039A     		ldr	r2, [sp, #12]
 15074 0040 1B68     		ldr	r3, [r3]
 15075 0042 9A42     		cmp	r2, r3
 15076 0044 01D0     		beq	.L1302
 15077 0046 FFF7FEFF 		bl	__stack_chk_fail
 15078              	.L1302:
 15079 004a 05B0     		add	sp, sp, #20
 15080              		.cfi_def_cfa_offset 4
 15081              		@ sp needed
 15082 004c 5DF804FB 		ldr	pc, [sp], #4
 15083              	.L1305:
 15084              		.align	2
 15085              	.L1304:
 15086 0050 00000000 		.word	__stack_chk_guard
 15087              		.cfi_endproc
 15088              	.LFE157:
 15089              		.size	cmp_object_as_ushort, .-cmp_object_as_ushort
 15090              		.section	.text.cmp_object_as_uint,"ax",%progbits
 15091              		.align	1
 15092              		.p2align 4,,15
 15093              		.global	cmp_object_as_uint
 15094              		.syntax unified
 15095              		.thumb
 15096              		.thumb_func
 15097              		.fpu fpv4-sp-d16
ARM GAS  C:\Users\PCHAUT~1\AppData\Local\Temp\ccacj52E.s 			page 267


 15098              		.type	cmp_object_as_uint, %function
 15099              	cmp_object_as_uint:
 15100              	.LFB158:
 15101              		.loc 1 2518 0
 15102              		.cfi_startproc
 15103              		@ args = 0, pretend = 0, frame = 16
 15104              		@ frame_needed = 0, uses_anonymous_args = 0
 15105 0000 00B5     		push	{lr}
 15106              		.cfi_def_cfa_offset 4
 15107              		.cfi_offset 14, -4
 15108 0002 85B0     		sub	sp, sp, #20
 15109              		.cfi_def_cfa_offset 24
 15110 0004 0190     		str	r0, [sp, #4]
 15111 0006 0091     		str	r1, [sp]
 15112              		.loc 1 2518 0
 15113 0008 254B     		ldr	r3, .L1314
 15114 000a 1B68     		ldr	r3, [r3]
 15115 000c 0393     		str	r3, [sp, #12]
 15116              		.loc 1 2519 0
 15117 000e 019B     		ldr	r3, [sp, #4]
 15118 0010 1B78     		ldrb	r3, [r3]	@ zero_extendqisi2
 15119 0012 102B     		cmp	r3, #16
 15120 0014 38D8     		bhi	.L1307
 15121 0016 01A2     		adr	r2, .L1309
 15122 0018 52F823F0 		ldr	pc, [r2, r3, lsl #2]
 15123              		.p2align 2
 15124              	.L1309:
 15125 001c 61000000 		.word	.L1308+1
 15126 0020 89000000 		.word	.L1307+1
 15127 0024 89000000 		.word	.L1307+1
 15128 0028 89000000 		.word	.L1307+1
 15129 002c 89000000 		.word	.L1307+1
 15130 0030 89000000 		.word	.L1307+1
 15131 0034 89000000 		.word	.L1307+1
 15132 0038 89000000 		.word	.L1307+1
 15133 003c 89000000 		.word	.L1307+1
 15134 0040 89000000 		.word	.L1307+1
 15135 0044 89000000 		.word	.L1307+1
 15136 0048 89000000 		.word	.L1307+1
 15137 004c 89000000 		.word	.L1307+1
 15138 0050 89000000 		.word	.L1307+1
 15139 0054 61000000 		.word	.L1308+1
 15140 0058 6F000000 		.word	.L1310+1
 15141 005c 7D000000 		.word	.L1311+1
 15142              		.p2align 1
 15143              	.L1308:
 15144              		.loc 1 2522 0
 15145 0060 019B     		ldr	r3, [sp, #4]
 15146 0062 1B7A     		ldrb	r3, [r3, #8]	@ zero_extendqisi2
 15147 0064 1A46     		mov	r2, r3
 15148 0066 009B     		ldr	r3, [sp]
 15149 0068 1A60     		str	r2, [r3]
 15150              		.loc 1 2523 0
 15151 006a 0123     		movs	r3, #1
 15152 006c 0DE0     		b	.L1312
 15153              	.L1310:
 15154              		.loc 1 2525 0
ARM GAS  C:\Users\PCHAUT~1\AppData\Local\Temp\ccacj52E.s 			page 268


 15155 006e 019B     		ldr	r3, [sp, #4]
 15156 0070 1B89     		ldrh	r3, [r3, #8]
 15157 0072 1A46     		mov	r2, r3
 15158 0074 009B     		ldr	r3, [sp]
 15159 0076 1A60     		str	r2, [r3]
 15160              		.loc 1 2526 0
 15161 0078 0123     		movs	r3, #1
 15162 007a 06E0     		b	.L1312
 15163              	.L1311:
 15164              		.loc 1 2528 0
 15165 007c 019B     		ldr	r3, [sp, #4]
 15166 007e 9A68     		ldr	r2, [r3, #8]
 15167 0080 009B     		ldr	r3, [sp]
 15168 0082 1A60     		str	r2, [r3]
 15169              		.loc 1 2529 0
 15170 0084 0123     		movs	r3, #1
 15171 0086 00E0     		b	.L1312
 15172              	.L1307:
 15173              		.loc 1 2531 0
 15174 0088 0023     		movs	r3, #0
 15175              	.L1312:
 15176              		.loc 1 2533 0
 15177 008a 1846     		mov	r0, r3
 15178 008c 044B     		ldr	r3, .L1314
 15179 008e 039A     		ldr	r2, [sp, #12]
 15180 0090 1B68     		ldr	r3, [r3]
 15181 0092 9A42     		cmp	r2, r3
 15182 0094 01D0     		beq	.L1313
 15183 0096 FFF7FEFF 		bl	__stack_chk_fail
 15184              	.L1313:
 15185 009a 05B0     		add	sp, sp, #20
 15186              		.cfi_def_cfa_offset 4
 15187              		@ sp needed
 15188 009c 5DF804FB 		ldr	pc, [sp], #4
 15189              	.L1315:
 15190              		.align	2
 15191              	.L1314:
 15192 00a0 00000000 		.word	__stack_chk_guard
 15193              		.cfi_endproc
 15194              	.LFE158:
 15195              		.size	cmp_object_as_uint, .-cmp_object_as_uint
 15196              		.section	.text.cmp_object_as_ulong,"ax",%progbits
 15197              		.align	1
 15198              		.p2align 4,,15
 15199              		.global	cmp_object_as_ulong
 15200              		.syntax unified
 15201              		.thumb
 15202              		.thumb_func
 15203              		.fpu fpv4-sp-d16
 15204              		.type	cmp_object_as_ulong, %function
 15205              	cmp_object_as_ulong:
 15206              	.LFB159:
 15207              		.loc 1 2535 0
 15208              		.cfi_startproc
 15209              		@ args = 0, pretend = 0, frame = 16
 15210              		@ frame_needed = 0, uses_anonymous_args = 0
 15211 0000 10B5     		push	{r4, lr}
ARM GAS  C:\Users\PCHAUT~1\AppData\Local\Temp\ccacj52E.s 			page 269


 15212              		.cfi_def_cfa_offset 8
 15213              		.cfi_offset 4, -8
 15214              		.cfi_offset 14, -4
 15215 0002 84B0     		sub	sp, sp, #16
 15216              		.cfi_def_cfa_offset 24
 15217 0004 0190     		str	r0, [sp, #4]
 15218 0006 0091     		str	r1, [sp]
 15219              		.loc 1 2535 0
 15220 0008 2E4B     		ldr	r3, .L1325
 15221 000a 1B68     		ldr	r3, [r3]
 15222 000c 0393     		str	r3, [sp, #12]
 15223              		.loc 1 2536 0
 15224 000e 019B     		ldr	r3, [sp, #4]
 15225 0010 1B78     		ldrb	r3, [r3]	@ zero_extendqisi2
 15226 0012 112B     		cmp	r3, #17
 15227 0014 4BD8     		bhi	.L1317
 15228 0016 01A2     		adr	r2, .L1319
 15229 0018 52F823F0 		ldr	pc, [r2, r3, lsl #2]
 15230              		.p2align 2
 15231              	.L1319:
 15232 001c 65000000 		.word	.L1318+1
 15233 0020 AF000000 		.word	.L1317+1
 15234 0024 AF000000 		.word	.L1317+1
 15235 0028 AF000000 		.word	.L1317+1
 15236 002c AF000000 		.word	.L1317+1
 15237 0030 AF000000 		.word	.L1317+1
 15238 0034 AF000000 		.word	.L1317+1
 15239 0038 AF000000 		.word	.L1317+1
 15240 003c AF000000 		.word	.L1317+1
 15241 0040 AF000000 		.word	.L1317+1
 15242 0044 AF000000 		.word	.L1317+1
 15243 0048 AF000000 		.word	.L1317+1
 15244 004c AF000000 		.word	.L1317+1
 15245 0050 AF000000 		.word	.L1317+1
 15246 0054 65000000 		.word	.L1318+1
 15247 0058 79000000 		.word	.L1320+1
 15248 005c 8D000000 		.word	.L1321+1
 15249 0060 9F000000 		.word	.L1322+1
 15250              		.p2align 1
 15251              	.L1318:
 15252              		.loc 1 2539 0
 15253 0064 019B     		ldr	r3, [sp, #4]
 15254 0066 1B7A     		ldrb	r3, [r3, #8]	@ zero_extendqisi2
 15255 0068 DBB2     		uxtb	r3, r3
 15256 006a 4FF00004 		mov	r4, #0
 15257 006e 009A     		ldr	r2, [sp]
 15258 0070 C2E90034 		strd	r3, [r2]
 15259              		.loc 1 2540 0
 15260 0074 0123     		movs	r3, #1
 15261 0076 1BE0     		b	.L1323
 15262              	.L1320:
 15263              		.loc 1 2542 0
 15264 0078 019B     		ldr	r3, [sp, #4]
 15265 007a 1B89     		ldrh	r3, [r3, #8]
 15266 007c 9BB2     		uxth	r3, r3
 15267 007e 4FF00004 		mov	r4, #0
 15268 0082 009A     		ldr	r2, [sp]
ARM GAS  C:\Users\PCHAUT~1\AppData\Local\Temp\ccacj52E.s 			page 270


 15269 0084 C2E90034 		strd	r3, [r2]
 15270              		.loc 1 2543 0
 15271 0088 0123     		movs	r3, #1
 15272 008a 11E0     		b	.L1323
 15273              	.L1321:
 15274              		.loc 1 2545 0
 15275 008c 019B     		ldr	r3, [sp, #4]
 15276 008e 9B68     		ldr	r3, [r3, #8]
 15277 0090 4FF00004 		mov	r4, #0
 15278 0094 009A     		ldr	r2, [sp]
 15279 0096 C2E90034 		strd	r3, [r2]
 15280              		.loc 1 2546 0
 15281 009a 0123     		movs	r3, #1
 15282 009c 08E0     		b	.L1323
 15283              	.L1322:
 15284              		.loc 1 2548 0
 15285 009e 019B     		ldr	r3, [sp, #4]
 15286 00a0 D3E90234 		ldrd	r3, [r3, #8]
 15287 00a4 009A     		ldr	r2, [sp]
 15288 00a6 C2E90034 		strd	r3, [r2]
 15289              		.loc 1 2549 0
 15290 00aa 0123     		movs	r3, #1
 15291 00ac 00E0     		b	.L1323
 15292              	.L1317:
 15293              		.loc 1 2551 0
 15294 00ae 0023     		movs	r3, #0
 15295              	.L1323:
 15296              		.loc 1 2553 0
 15297 00b0 1846     		mov	r0, r3
 15298 00b2 044B     		ldr	r3, .L1325
 15299 00b4 039A     		ldr	r2, [sp, #12]
 15300 00b6 1B68     		ldr	r3, [r3]
 15301 00b8 9A42     		cmp	r2, r3
 15302 00ba 01D0     		beq	.L1324
 15303 00bc FFF7FEFF 		bl	__stack_chk_fail
 15304              	.L1324:
 15305 00c0 04B0     		add	sp, sp, #16
 15306              		.cfi_def_cfa_offset 8
 15307              		@ sp needed
 15308 00c2 10BD     		pop	{r4, pc}
 15309              	.L1326:
 15310              		.align	2
 15311              	.L1325:
 15312 00c4 00000000 		.word	__stack_chk_guard
 15313              		.cfi_endproc
 15314              	.LFE159:
 15315              		.size	cmp_object_as_ulong, .-cmp_object_as_ulong
 15316              		.section	.text.cmp_object_as_uinteger,"ax",%progbits
 15317              		.align	1
 15318              		.p2align 4,,15
 15319              		.global	cmp_object_as_uinteger
 15320              		.syntax unified
 15321              		.thumb
 15322              		.thumb_func
 15323              		.fpu fpv4-sp-d16
 15324              		.type	cmp_object_as_uinteger, %function
 15325              	cmp_object_as_uinteger:
ARM GAS  C:\Users\PCHAUT~1\AppData\Local\Temp\ccacj52E.s 			page 271


 15326              	.LFB160:
 15327              		.loc 1 2555 0
 15328              		.cfi_startproc
 15329              		@ args = 0, pretend = 0, frame = 16
 15330              		@ frame_needed = 0, uses_anonymous_args = 0
 15331 0000 00B5     		push	{lr}
 15332              		.cfi_def_cfa_offset 4
 15333              		.cfi_offset 14, -4
 15334 0002 85B0     		sub	sp, sp, #20
 15335              		.cfi_def_cfa_offset 24
 15336 0004 0190     		str	r0, [sp, #4]
 15337 0006 0091     		str	r1, [sp]
 15338              		.loc 1 2555 0
 15339 0008 094B     		ldr	r3, .L1330
 15340 000a 1B68     		ldr	r3, [r3]
 15341 000c 0393     		str	r3, [sp, #12]
 15342              		.loc 1 2556 0
 15343 000e 0099     		ldr	r1, [sp]
 15344 0010 0198     		ldr	r0, [sp, #4]
 15345 0012 FFF7FEFF 		bl	cmp_object_as_ulong
 15346 0016 0346     		mov	r3, r0
 15347              		.loc 1 2557 0
 15348 0018 1846     		mov	r0, r3
 15349 001a 054B     		ldr	r3, .L1330
 15350 001c 039A     		ldr	r2, [sp, #12]
 15351 001e 1B68     		ldr	r3, [r3]
 15352 0020 9A42     		cmp	r2, r3
 15353 0022 01D0     		beq	.L1329
 15354 0024 FFF7FEFF 		bl	__stack_chk_fail
 15355              	.L1329:
 15356 0028 05B0     		add	sp, sp, #20
 15357              		.cfi_def_cfa_offset 4
 15358              		@ sp needed
 15359 002a 5DF804FB 		ldr	pc, [sp], #4
 15360              	.L1331:
 15361 002e 00BF     		.align	2
 15362              	.L1330:
 15363 0030 00000000 		.word	__stack_chk_guard
 15364              		.cfi_endproc
 15365              	.LFE160:
 15366              		.size	cmp_object_as_uinteger, .-cmp_object_as_uinteger
 15367              		.section	.text.cmp_object_as_float,"ax",%progbits
 15368              		.align	1
 15369              		.p2align 4,,15
 15370              		.global	cmp_object_as_float
 15371              		.syntax unified
 15372              		.thumb
 15373              		.thumb_func
 15374              		.fpu fpv4-sp-d16
 15375              		.type	cmp_object_as_float, %function
 15376              	cmp_object_as_float:
 15377              	.LFB161:
 15378              		.loc 1 2559 0
 15379              		.cfi_startproc
 15380              		@ args = 0, pretend = 0, frame = 16
 15381              		@ frame_needed = 0, uses_anonymous_args = 0
 15382 0000 00B5     		push	{lr}
ARM GAS  C:\Users\PCHAUT~1\AppData\Local\Temp\ccacj52E.s 			page 272


 15383              		.cfi_def_cfa_offset 4
 15384              		.cfi_offset 14, -4
 15385 0002 85B0     		sub	sp, sp, #20
 15386              		.cfi_def_cfa_offset 24
 15387 0004 0190     		str	r0, [sp, #4]
 15388 0006 0091     		str	r1, [sp]
 15389              		.loc 1 2559 0
 15390 0008 0C4B     		ldr	r3, .L1336
 15391 000a 1B68     		ldr	r3, [r3]
 15392 000c 0393     		str	r3, [sp, #12]
 15393              		.loc 1 2560 0
 15394 000e 019B     		ldr	r3, [sp, #4]
 15395 0010 1B78     		ldrb	r3, [r3]	@ zero_extendqisi2
 15396 0012 0C2B     		cmp	r3, #12
 15397 0014 05D1     		bne	.L1333
 15398              		.loc 1 2561 0
 15399 0016 019B     		ldr	r3, [sp, #4]
 15400 0018 9A68     		ldr	r2, [r3, #8]	@ float
 15401 001a 009B     		ldr	r3, [sp]
 15402 001c 1A60     		str	r2, [r3]	@ float
 15403              		.loc 1 2562 0
 15404 001e 0123     		movs	r3, #1
 15405 0020 00E0     		b	.L1334
 15406              	.L1333:
 15407              		.loc 1 2565 0
 15408 0022 0023     		movs	r3, #0
 15409              	.L1334:
 15410              		.loc 1 2566 0
 15411 0024 1846     		mov	r0, r3
 15412 0026 054B     		ldr	r3, .L1336
 15413 0028 039A     		ldr	r2, [sp, #12]
 15414 002a 1B68     		ldr	r3, [r3]
 15415 002c 9A42     		cmp	r2, r3
 15416 002e 01D0     		beq	.L1335
 15417 0030 FFF7FEFF 		bl	__stack_chk_fail
 15418              	.L1335:
 15419 0034 05B0     		add	sp, sp, #20
 15420              		.cfi_def_cfa_offset 4
 15421              		@ sp needed
 15422 0036 5DF804FB 		ldr	pc, [sp], #4
 15423              	.L1337:
 15424 003a 00BF     		.align	2
 15425              	.L1336:
 15426 003c 00000000 		.word	__stack_chk_guard
 15427              		.cfi_endproc
 15428              	.LFE161:
 15429              		.size	cmp_object_as_float, .-cmp_object_as_float
 15430              		.section	.text.cmp_object_as_double,"ax",%progbits
 15431              		.align	1
 15432              		.p2align 4,,15
 15433              		.global	cmp_object_as_double
 15434              		.syntax unified
 15435              		.thumb
 15436              		.thumb_func
 15437              		.fpu fpv4-sp-d16
 15438              		.type	cmp_object_as_double, %function
 15439              	cmp_object_as_double:
ARM GAS  C:\Users\PCHAUT~1\AppData\Local\Temp\ccacj52E.s 			page 273


 15440              	.LFB162:
 15441              		.loc 1 2568 0
 15442              		.cfi_startproc
 15443              		@ args = 0, pretend = 0, frame = 16
 15444              		@ frame_needed = 0, uses_anonymous_args = 0
 15445 0000 10B5     		push	{r4, lr}
 15446              		.cfi_def_cfa_offset 8
 15447              		.cfi_offset 4, -8
 15448              		.cfi_offset 14, -4
 15449 0002 84B0     		sub	sp, sp, #16
 15450              		.cfi_def_cfa_offset 24
 15451 0004 0190     		str	r0, [sp, #4]
 15452 0006 0091     		str	r1, [sp]
 15453              		.loc 1 2568 0
 15454 0008 0C4B     		ldr	r3, .L1342
 15455 000a 1B68     		ldr	r3, [r3]
 15456 000c 0393     		str	r3, [sp, #12]
 15457              		.loc 1 2569 0
 15458 000e 019B     		ldr	r3, [sp, #4]
 15459 0010 1B78     		ldrb	r3, [r3]	@ zero_extendqisi2
 15460 0012 0D2B     		cmp	r3, #13
 15461 0014 07D1     		bne	.L1339
 15462              		.loc 1 2570 0
 15463 0016 019B     		ldr	r3, [sp, #4]
 15464 0018 D3E90234 		ldrd	r3, [r3, #8]
 15465 001c 009A     		ldr	r2, [sp]
 15466 001e C2E90034 		strd	r3, [r2]
 15467              		.loc 1 2571 0
 15468 0022 0123     		movs	r3, #1
 15469 0024 00E0     		b	.L1340
 15470              	.L1339:
 15471              		.loc 1 2574 0
 15472 0026 0023     		movs	r3, #0
 15473              	.L1340:
 15474              		.loc 1 2575 0
 15475 0028 1846     		mov	r0, r3
 15476 002a 044B     		ldr	r3, .L1342
 15477 002c 039A     		ldr	r2, [sp, #12]
 15478 002e 1B68     		ldr	r3, [r3]
 15479 0030 9A42     		cmp	r2, r3
 15480 0032 01D0     		beq	.L1341
 15481 0034 FFF7FEFF 		bl	__stack_chk_fail
 15482              	.L1341:
 15483 0038 04B0     		add	sp, sp, #16
 15484              		.cfi_def_cfa_offset 8
 15485              		@ sp needed
 15486 003a 10BD     		pop	{r4, pc}
 15487              	.L1343:
 15488              		.align	2
 15489              	.L1342:
 15490 003c 00000000 		.word	__stack_chk_guard
 15491              		.cfi_endproc
 15492              	.LFE162:
 15493              		.size	cmp_object_as_double, .-cmp_object_as_double
 15494              		.section	.text.cmp_object_as_bool,"ax",%progbits
 15495              		.align	1
 15496              		.p2align 4,,15
ARM GAS  C:\Users\PCHAUT~1\AppData\Local\Temp\ccacj52E.s 			page 274


 15497              		.global	cmp_object_as_bool
 15498              		.syntax unified
 15499              		.thumb
 15500              		.thumb_func
 15501              		.fpu fpv4-sp-d16
 15502              		.type	cmp_object_as_bool, %function
 15503              	cmp_object_as_bool:
 15504              	.LFB163:
 15505              		.loc 1 2577 0
 15506              		.cfi_startproc
 15507              		@ args = 0, pretend = 0, frame = 16
 15508              		@ frame_needed = 0, uses_anonymous_args = 0
 15509 0000 00B5     		push	{lr}
 15510              		.cfi_def_cfa_offset 4
 15511              		.cfi_offset 14, -4
 15512 0002 85B0     		sub	sp, sp, #20
 15513              		.cfi_def_cfa_offset 24
 15514 0004 0190     		str	r0, [sp, #4]
 15515 0006 0091     		str	r1, [sp]
 15516              		.loc 1 2577 0
 15517 0008 0F4B     		ldr	r3, .L1350
 15518 000a 1B68     		ldr	r3, [r3]
 15519 000c 0393     		str	r3, [sp, #12]
 15520              		.loc 1 2578 0
 15521 000e 019B     		ldr	r3, [sp, #4]
 15522 0010 1B78     		ldrb	r3, [r3]	@ zero_extendqisi2
 15523 0012 052B     		cmp	r3, #5
 15524 0014 0CD1     		bne	.L1345
 15525              		.loc 1 2579 0
 15526 0016 019B     		ldr	r3, [sp, #4]
 15527 0018 1B7A     		ldrb	r3, [r3, #8]	@ zero_extendqisi2
 15528 001a 002B     		cmp	r3, #0
 15529 001c 03D0     		beq	.L1346
 15530              		.loc 1 2580 0
 15531 001e 009B     		ldr	r3, [sp]
 15532 0020 0122     		movs	r2, #1
 15533 0022 1A70     		strb	r2, [r3]
 15534 0024 02E0     		b	.L1347
 15535              	.L1346:
 15536              		.loc 1 2582 0
 15537 0026 009B     		ldr	r3, [sp]
 15538 0028 0022     		movs	r2, #0
 15539 002a 1A70     		strb	r2, [r3]
 15540              	.L1347:
 15541              		.loc 1 2584 0
 15542 002c 0123     		movs	r3, #1
 15543 002e 00E0     		b	.L1348
 15544              	.L1345:
 15545              		.loc 1 2587 0
 15546 0030 0023     		movs	r3, #0
 15547              	.L1348:
 15548              		.loc 1 2588 0
 15549 0032 1846     		mov	r0, r3
 15550 0034 044B     		ldr	r3, .L1350
 15551 0036 039A     		ldr	r2, [sp, #12]
 15552 0038 1B68     		ldr	r3, [r3]
 15553 003a 9A42     		cmp	r2, r3
ARM GAS  C:\Users\PCHAUT~1\AppData\Local\Temp\ccacj52E.s 			page 275


 15554 003c 01D0     		beq	.L1349
 15555 003e FFF7FEFF 		bl	__stack_chk_fail
 15556              	.L1349:
 15557 0042 05B0     		add	sp, sp, #20
 15558              		.cfi_def_cfa_offset 4
 15559              		@ sp needed
 15560 0044 5DF804FB 		ldr	pc, [sp], #4
 15561              	.L1351:
 15562              		.align	2
 15563              	.L1350:
 15564 0048 00000000 		.word	__stack_chk_guard
 15565              		.cfi_endproc
 15566              	.LFE163:
 15567              		.size	cmp_object_as_bool, .-cmp_object_as_bool
 15568              		.section	.text.cmp_object_as_str,"ax",%progbits
 15569              		.align	1
 15570              		.p2align 4,,15
 15571              		.global	cmp_object_as_str
 15572              		.syntax unified
 15573              		.thumb
 15574              		.thumb_func
 15575              		.fpu fpv4-sp-d16
 15576              		.type	cmp_object_as_str, %function
 15577              	cmp_object_as_str:
 15578              	.LFB164:
 15579              		.loc 1 2590 0
 15580              		.cfi_startproc
 15581              		@ args = 0, pretend = 0, frame = 16
 15582              		@ frame_needed = 0, uses_anonymous_args = 0
 15583 0000 00B5     		push	{lr}
 15584              		.cfi_def_cfa_offset 4
 15585              		.cfi_offset 14, -4
 15586 0002 85B0     		sub	sp, sp, #20
 15587              		.cfi_def_cfa_offset 24
 15588 0004 0190     		str	r0, [sp, #4]
 15589 0006 0091     		str	r1, [sp]
 15590              		.loc 1 2590 0
 15591 0008 0E4B     		ldr	r3, .L1357
 15592 000a 1B68     		ldr	r3, [r3]
 15593 000c 0393     		str	r3, [sp, #12]
 15594              		.loc 1 2591 0
 15595 000e 019B     		ldr	r3, [sp, #4]
 15596 0010 1B78     		ldrb	r3, [r3]	@ zero_extendqisi2
 15597 0012 032B     		cmp	r3, #3
 15598 0014 04D0     		beq	.L1354
 15599 0016 032B     		cmp	r3, #3
 15600 0018 08DB     		blt	.L1353
 15601 001a 1B3B     		subs	r3, r3, #27
 15602 001c 022B     		cmp	r3, #2
 15603 001e 05D8     		bhi	.L1353
 15604              	.L1354:
 15605              		.loc 1 2596 0
 15606 0020 019B     		ldr	r3, [sp, #4]
 15607 0022 9A68     		ldr	r2, [r3, #8]
 15608 0024 009B     		ldr	r3, [sp]
 15609 0026 1A60     		str	r2, [r3]
 15610              		.loc 1 2597 0
ARM GAS  C:\Users\PCHAUT~1\AppData\Local\Temp\ccacj52E.s 			page 276


 15611 0028 0123     		movs	r3, #1
 15612 002a 00E0     		b	.L1355
 15613              	.L1353:
 15614              		.loc 1 2599 0
 15615 002c 0023     		movs	r3, #0
 15616              	.L1355:
 15617              		.loc 1 2601 0
 15618 002e 1846     		mov	r0, r3
 15619 0030 044B     		ldr	r3, .L1357
 15620 0032 039A     		ldr	r2, [sp, #12]
 15621 0034 1B68     		ldr	r3, [r3]
 15622 0036 9A42     		cmp	r2, r3
 15623 0038 01D0     		beq	.L1356
 15624 003a FFF7FEFF 		bl	__stack_chk_fail
 15625              	.L1356:
 15626 003e 05B0     		add	sp, sp, #20
 15627              		.cfi_def_cfa_offset 4
 15628              		@ sp needed
 15629 0040 5DF804FB 		ldr	pc, [sp], #4
 15630              	.L1358:
 15631              		.align	2
 15632              	.L1357:
 15633 0044 00000000 		.word	__stack_chk_guard
 15634              		.cfi_endproc
 15635              	.LFE164:
 15636              		.size	cmp_object_as_str, .-cmp_object_as_str
 15637              		.section	.text.cmp_object_as_bin,"ax",%progbits
 15638              		.align	1
 15639              		.p2align 4,,15
 15640              		.global	cmp_object_as_bin
 15641              		.syntax unified
 15642              		.thumb
 15643              		.thumb_func
 15644              		.fpu fpv4-sp-d16
 15645              		.type	cmp_object_as_bin, %function
 15646              	cmp_object_as_bin:
 15647              	.LFB165:
 15648              		.loc 1 2603 0
 15649              		.cfi_startproc
 15650              		@ args = 0, pretend = 0, frame = 16
 15651              		@ frame_needed = 0, uses_anonymous_args = 0
 15652 0000 00B5     		push	{lr}
 15653              		.cfi_def_cfa_offset 4
 15654              		.cfi_offset 14, -4
 15655 0002 85B0     		sub	sp, sp, #20
 15656              		.cfi_def_cfa_offset 24
 15657 0004 0190     		str	r0, [sp, #4]
 15658 0006 0091     		str	r1, [sp]
 15659              		.loc 1 2603 0
 15660 0008 0C4B     		ldr	r3, .L1364
 15661 000a 1B68     		ldr	r3, [r3]
 15662 000c 0393     		str	r3, [sp, #12]
 15663              		.loc 1 2604 0
 15664 000e 019B     		ldr	r3, [sp, #4]
 15665 0010 1B78     		ldrb	r3, [r3]	@ zero_extendqisi2
 15666 0012 063B     		subs	r3, r3, #6
 15667 0014 022B     		cmp	r3, #2
ARM GAS  C:\Users\PCHAUT~1\AppData\Local\Temp\ccacj52E.s 			page 277


 15668 0016 05D8     		bhi	.L1360
 15669              		.loc 1 2608 0
 15670 0018 019B     		ldr	r3, [sp, #4]
 15671 001a 9A68     		ldr	r2, [r3, #8]
 15672 001c 009B     		ldr	r3, [sp]
 15673 001e 1A60     		str	r2, [r3]
 15674              		.loc 1 2609 0
 15675 0020 0123     		movs	r3, #1
 15676 0022 00E0     		b	.L1362
 15677              	.L1360:
 15678              		.loc 1 2611 0
 15679 0024 0023     		movs	r3, #0
 15680              	.L1362:
 15681              		.loc 1 2613 0
 15682 0026 1846     		mov	r0, r3
 15683 0028 044B     		ldr	r3, .L1364
 15684 002a 039A     		ldr	r2, [sp, #12]
 15685 002c 1B68     		ldr	r3, [r3]
 15686 002e 9A42     		cmp	r2, r3
 15687 0030 01D0     		beq	.L1363
 15688 0032 FFF7FEFF 		bl	__stack_chk_fail
 15689              	.L1363:
 15690 0036 05B0     		add	sp, sp, #20
 15691              		.cfi_def_cfa_offset 4
 15692              		@ sp needed
 15693 0038 5DF804FB 		ldr	pc, [sp], #4
 15694              	.L1365:
 15695              		.align	2
 15696              	.L1364:
 15697 003c 00000000 		.word	__stack_chk_guard
 15698              		.cfi_endproc
 15699              	.LFE165:
 15700              		.size	cmp_object_as_bin, .-cmp_object_as_bin
 15701              		.section	.text.cmp_object_as_array,"ax",%progbits
 15702              		.align	1
 15703              		.p2align 4,,15
 15704              		.global	cmp_object_as_array
 15705              		.syntax unified
 15706              		.thumb
 15707              		.thumb_func
 15708              		.fpu fpv4-sp-d16
 15709              		.type	cmp_object_as_array, %function
 15710              	cmp_object_as_array:
 15711              	.LFB166:
 15712              		.loc 1 2615 0
 15713              		.cfi_startproc
 15714              		@ args = 0, pretend = 0, frame = 16
 15715              		@ frame_needed = 0, uses_anonymous_args = 0
 15716 0000 00B5     		push	{lr}
 15717              		.cfi_def_cfa_offset 4
 15718              		.cfi_offset 14, -4
 15719 0002 85B0     		sub	sp, sp, #20
 15720              		.cfi_def_cfa_offset 24
 15721 0004 0190     		str	r0, [sp, #4]
 15722 0006 0091     		str	r1, [sp]
 15723              		.loc 1 2615 0
 15724 0008 0E4B     		ldr	r3, .L1371
ARM GAS  C:\Users\PCHAUT~1\AppData\Local\Temp\ccacj52E.s 			page 278


 15725 000a 1B68     		ldr	r3, [r3]
 15726 000c 0393     		str	r3, [sp, #12]
 15727              		.loc 1 2616 0
 15728 000e 019B     		ldr	r3, [sp, #4]
 15729 0010 1B78     		ldrb	r3, [r3]	@ zero_extendqisi2
 15730 0012 022B     		cmp	r3, #2
 15731 0014 04D0     		beq	.L1368
 15732 0016 022B     		cmp	r3, #2
 15733 0018 08DB     		blt	.L1367
 15734 001a 1E3B     		subs	r3, r3, #30
 15735 001c 012B     		cmp	r3, #1
 15736 001e 05D8     		bhi	.L1367
 15737              	.L1368:
 15738              		.loc 1 2620 0
 15739 0020 019B     		ldr	r3, [sp, #4]
 15740 0022 9A68     		ldr	r2, [r3, #8]
 15741 0024 009B     		ldr	r3, [sp]
 15742 0026 1A60     		str	r2, [r3]
 15743              		.loc 1 2621 0
 15744 0028 0123     		movs	r3, #1
 15745 002a 00E0     		b	.L1369
 15746              	.L1367:
 15747              		.loc 1 2623 0
 15748 002c 0023     		movs	r3, #0
 15749              	.L1369:
 15750              		.loc 1 2625 0
 15751 002e 1846     		mov	r0, r3
 15752 0030 044B     		ldr	r3, .L1371
 15753 0032 039A     		ldr	r2, [sp, #12]
 15754 0034 1B68     		ldr	r3, [r3]
 15755 0036 9A42     		cmp	r2, r3
 15756 0038 01D0     		beq	.L1370
 15757 003a FFF7FEFF 		bl	__stack_chk_fail
 15758              	.L1370:
 15759 003e 05B0     		add	sp, sp, #20
 15760              		.cfi_def_cfa_offset 4
 15761              		@ sp needed
 15762 0040 5DF804FB 		ldr	pc, [sp], #4
 15763              	.L1372:
 15764              		.align	2
 15765              	.L1371:
 15766 0044 00000000 		.word	__stack_chk_guard
 15767              		.cfi_endproc
 15768              	.LFE166:
 15769              		.size	cmp_object_as_array, .-cmp_object_as_array
 15770              		.section	.text.cmp_object_as_map,"ax",%progbits
 15771              		.align	1
 15772              		.p2align 4,,15
 15773              		.global	cmp_object_as_map
 15774              		.syntax unified
 15775              		.thumb
 15776              		.thumb_func
 15777              		.fpu fpv4-sp-d16
 15778              		.type	cmp_object_as_map, %function
 15779              	cmp_object_as_map:
 15780              	.LFB167:
 15781              		.loc 1 2627 0
ARM GAS  C:\Users\PCHAUT~1\AppData\Local\Temp\ccacj52E.s 			page 279


 15782              		.cfi_startproc
 15783              		@ args = 0, pretend = 0, frame = 16
 15784              		@ frame_needed = 0, uses_anonymous_args = 0
 15785 0000 00B5     		push	{lr}
 15786              		.cfi_def_cfa_offset 4
 15787              		.cfi_offset 14, -4
 15788 0002 85B0     		sub	sp, sp, #20
 15789              		.cfi_def_cfa_offset 24
 15790 0004 0190     		str	r0, [sp, #4]
 15791 0006 0091     		str	r1, [sp]
 15792              		.loc 1 2627 0
 15793 0008 0E4B     		ldr	r3, .L1378
 15794 000a 1B68     		ldr	r3, [r3]
 15795 000c 0393     		str	r3, [sp, #12]
 15796              		.loc 1 2628 0
 15797 000e 019B     		ldr	r3, [sp, #4]
 15798 0010 1B78     		ldrb	r3, [r3]	@ zero_extendqisi2
 15799 0012 012B     		cmp	r3, #1
 15800 0014 04D0     		beq	.L1375
 15801 0016 012B     		cmp	r3, #1
 15802 0018 08DB     		blt	.L1374
 15803 001a 203B     		subs	r3, r3, #32
 15804 001c 012B     		cmp	r3, #1
 15805 001e 05D8     		bhi	.L1374
 15806              	.L1375:
 15807              		.loc 1 2632 0
 15808 0020 019B     		ldr	r3, [sp, #4]
 15809 0022 9A68     		ldr	r2, [r3, #8]
 15810 0024 009B     		ldr	r3, [sp]
 15811 0026 1A60     		str	r2, [r3]
 15812              		.loc 1 2633 0
 15813 0028 0123     		movs	r3, #1
 15814 002a 00E0     		b	.L1376
 15815              	.L1374:
 15816              		.loc 1 2635 0
 15817 002c 0023     		movs	r3, #0
 15818              	.L1376:
 15819              		.loc 1 2637 0
 15820 002e 1846     		mov	r0, r3
 15821 0030 044B     		ldr	r3, .L1378
 15822 0032 039A     		ldr	r2, [sp, #12]
 15823 0034 1B68     		ldr	r3, [r3]
 15824 0036 9A42     		cmp	r2, r3
 15825 0038 01D0     		beq	.L1377
 15826 003a FFF7FEFF 		bl	__stack_chk_fail
 15827              	.L1377:
 15828 003e 05B0     		add	sp, sp, #20
 15829              		.cfi_def_cfa_offset 4
 15830              		@ sp needed
 15831 0040 5DF804FB 		ldr	pc, [sp], #4
 15832              	.L1379:
 15833              		.align	2
 15834              	.L1378:
 15835 0044 00000000 		.word	__stack_chk_guard
 15836              		.cfi_endproc
 15837              	.LFE167:
 15838              		.size	cmp_object_as_map, .-cmp_object_as_map
ARM GAS  C:\Users\PCHAUT~1\AppData\Local\Temp\ccacj52E.s 			page 280


 15839              		.section	.text.cmp_object_as_ext,"ax",%progbits
 15840              		.align	1
 15841              		.p2align 4,,15
 15842              		.global	cmp_object_as_ext
 15843              		.syntax unified
 15844              		.thumb
 15845              		.thumb_func
 15846              		.fpu fpv4-sp-d16
 15847              		.type	cmp_object_as_ext, %function
 15848              	cmp_object_as_ext:
 15849              	.LFB168:
 15850              		.loc 1 2639 0
 15851              		.cfi_startproc
 15852              		@ args = 0, pretend = 0, frame = 24
 15853              		@ frame_needed = 0, uses_anonymous_args = 0
 15854 0000 00B5     		push	{lr}
 15855              		.cfi_def_cfa_offset 4
 15856              		.cfi_offset 14, -4
 15857 0002 87B0     		sub	sp, sp, #28
 15858              		.cfi_def_cfa_offset 32
 15859 0004 0390     		str	r0, [sp, #12]
 15860 0006 0291     		str	r1, [sp, #8]
 15861 0008 0192     		str	r2, [sp, #4]
 15862              		.loc 1 2639 0
 15863 000a 234B     		ldr	r3, .L1386
 15864 000c 1B68     		ldr	r3, [r3]
 15865 000e 0593     		str	r3, [sp, #20]
 15866              		.loc 1 2640 0
 15867 0010 039B     		ldr	r3, [sp, #12]
 15868 0012 1B78     		ldrb	r3, [r3]	@ zero_extendqisi2
 15869 0014 093B     		subs	r3, r3, #9
 15870 0016 112B     		cmp	r3, #17
 15871 0018 31D8     		bhi	.L1381
 15872 001a 01A2     		adr	r2, .L1383
 15873 001c 52F823F0 		ldr	pc, [r2, r3, lsl #2]
 15874              		.p2align 2
 15875              	.L1383:
 15876 0020 69000000 		.word	.L1382+1
 15877 0024 69000000 		.word	.L1382+1
 15878 0028 69000000 		.word	.L1382+1
 15879 002c 7F000000 		.word	.L1381+1
 15880 0030 7F000000 		.word	.L1381+1
 15881 0034 7F000000 		.word	.L1381+1
 15882 0038 7F000000 		.word	.L1381+1
 15883 003c 7F000000 		.word	.L1381+1
 15884 0040 7F000000 		.word	.L1381+1
 15885 0044 7F000000 		.word	.L1381+1
 15886 0048 7F000000 		.word	.L1381+1
 15887 004c 7F000000 		.word	.L1381+1
 15888 0050 7F000000 		.word	.L1381+1
 15889 0054 69000000 		.word	.L1382+1
 15890 0058 69000000 		.word	.L1382+1
 15891 005c 69000000 		.word	.L1382+1
 15892 0060 69000000 		.word	.L1382+1
 15893 0064 69000000 		.word	.L1382+1
 15894              		.p2align 1
 15895              	.L1382:
ARM GAS  C:\Users\PCHAUT~1\AppData\Local\Temp\ccacj52E.s 			page 281


 15896              		.loc 1 2649 0
 15897 0068 039B     		ldr	r3, [sp, #12]
 15898 006a 93F90820 		ldrsb	r2, [r3, #8]
 15899 006e 029B     		ldr	r3, [sp, #8]
 15900 0070 1A70     		strb	r2, [r3]
 15901              		.loc 1 2650 0
 15902 0072 039B     		ldr	r3, [sp, #12]
 15903 0074 DA68     		ldr	r2, [r3, #12]
 15904 0076 019B     		ldr	r3, [sp, #4]
 15905 0078 1A60     		str	r2, [r3]
 15906              		.loc 1 2651 0
 15907 007a 0123     		movs	r3, #1
 15908 007c 00E0     		b	.L1384
 15909              	.L1381:
 15910              		.loc 1 2653 0
 15911 007e 0023     		movs	r3, #0
 15912              	.L1384:
 15913              		.loc 1 2655 0
 15914 0080 1846     		mov	r0, r3
 15915 0082 054B     		ldr	r3, .L1386
 15916 0084 059A     		ldr	r2, [sp, #20]
 15917 0086 1B68     		ldr	r3, [r3]
 15918 0088 9A42     		cmp	r2, r3
 15919 008a 01D0     		beq	.L1385
 15920 008c FFF7FEFF 		bl	__stack_chk_fail
 15921              	.L1385:
 15922 0090 07B0     		add	sp, sp, #28
 15923              		.cfi_def_cfa_offset 4
 15924              		@ sp needed
 15925 0092 5DF804FB 		ldr	pc, [sp], #4
 15926              	.L1387:
 15927 0096 00BF     		.align	2
 15928              	.L1386:
 15929 0098 00000000 		.word	__stack_chk_guard
 15930              		.cfi_endproc
 15931              	.LFE168:
 15932              		.size	cmp_object_as_ext, .-cmp_object_as_ext
 15933              		.text
 15934              	.Letext0:
 15935              		.file 2 "c:\\users\\pchautems\\documents\\robotiquetp\\eclipse_e-puck2\\tools\\gcc-arm-none-eabi-7
 15936              		.file 3 "c:\\users\\pchautems\\documents\\robotiquetp\\eclipse_e-puck2\\tools\\gcc-arm-none-eabi-7
 15937              		.file 4 "c:\\users\\pchautems\\documents\\robotiquetp\\eclipse_e-puck2\\tools\\gcc-arm-none-eabi-7
 15938              		.file 5 "../lib/e-puck2_main-processor/src/cmp/cmp.h"
 15939              		.section	.debug_info,"",%progbits
 15940              	.Ldebug_info0:
 15941 0000 7D2F0000 		.4byte	0x2f7d
 15942 0004 0400     		.2byte	0x4
 15943 0006 00000000 		.4byte	.Ldebug_abbrev0
 15944 000a 04       		.byte	0x4
 15945 000b 01       		.uleb128 0x1
 15946 000c D00F0000 		.4byte	.LASF316
 15947 0010 0C       		.byte	0xc
 15948 0011 D3130000 		.4byte	.LASF317
 15949 0015 F7020000 		.4byte	.LASF318
 15950 0019 00000000 		.4byte	.Ldebug_ranges0+0
 15951 001d 00000000 		.4byte	0
 15952 0021 00000000 		.4byte	.Ldebug_line0
ARM GAS  C:\Users\PCHAUT~1\AppData\Local\Temp\ccacj52E.s 			page 282


 15953 0025 02       		.uleb128 0x2
 15954 0026 04       		.byte	0x4
 15955 0027 05       		.byte	0x5
 15956 0028 696E7400 		.ascii	"int\000"
 15957 002c 03       		.uleb128 0x3
 15958 002d 71060000 		.4byte	.LASF3
 15959 0031 02       		.byte	0x2
 15960 0032 D8       		.byte	0xd8
 15961 0033 37000000 		.4byte	0x37
 15962 0037 04       		.uleb128 0x4
 15963 0038 04       		.byte	0x4
 15964 0039 07       		.byte	0x7
 15965 003a 4E010000 		.4byte	.LASF0
 15966 003e 04       		.uleb128 0x4
 15967 003f 08       		.byte	0x8
 15968 0040 05       		.byte	0x5
 15969 0041 AA090000 		.4byte	.LASF1
 15970 0045 04       		.uleb128 0x4
 15971 0046 08       		.byte	0x8
 15972 0047 04       		.byte	0x4
 15973 0048 4B0C0000 		.4byte	.LASF2
 15974 004c 03       		.uleb128 0x3
 15975 004d EE0B0000 		.4byte	.LASF4
 15976 0051 03       		.byte	0x3
 15977 0052 29       		.byte	0x29
 15978 0053 57000000 		.4byte	0x57
 15979 0057 04       		.uleb128 0x4
 15980 0058 01       		.byte	0x1
 15981 0059 06       		.byte	0x6
 15982 005a 53130000 		.4byte	.LASF5
 15983 005e 03       		.uleb128 0x3
 15984 005f CC0E0000 		.4byte	.LASF6
 15985 0063 03       		.byte	0x3
 15986 0064 2B       		.byte	0x2b
 15987 0065 69000000 		.4byte	0x69
 15988 0069 04       		.uleb128 0x4
 15989 006a 01       		.byte	0x1
 15990 006b 08       		.byte	0x8
 15991 006c CD110000 		.4byte	.LASF7
 15992 0070 03       		.uleb128 0x3
 15993 0071 630A0000 		.4byte	.LASF8
 15994 0075 03       		.byte	0x3
 15995 0076 37       		.byte	0x37
 15996 0077 7B000000 		.4byte	0x7b
 15997 007b 04       		.uleb128 0x4
 15998 007c 02       		.byte	0x2
 15999 007d 05       		.byte	0x5
 16000 007e 4D0D0000 		.4byte	.LASF9
 16001 0082 03       		.uleb128 0x3
 16002 0083 39050000 		.4byte	.LASF10
 16003 0087 03       		.byte	0x3
 16004 0088 39       		.byte	0x39
 16005 0089 8D000000 		.4byte	0x8d
 16006 008d 04       		.uleb128 0x4
 16007 008e 02       		.byte	0x2
 16008 008f 07       		.byte	0x7
 16009 0090 71130000 		.4byte	.LASF11
ARM GAS  C:\Users\PCHAUT~1\AppData\Local\Temp\ccacj52E.s 			page 283


 16010 0094 03       		.uleb128 0x3
 16011 0095 98010000 		.4byte	.LASF12
 16012 0099 03       		.byte	0x3
 16013 009a 4D       		.byte	0x4d
 16014 009b 9F000000 		.4byte	0x9f
 16015 009f 04       		.uleb128 0x4
 16016 00a0 04       		.byte	0x4
 16017 00a1 05       		.byte	0x5
 16018 00a2 710D0000 		.4byte	.LASF13
 16019 00a6 03       		.uleb128 0x3
 16020 00a7 DB110000 		.4byte	.LASF14
 16021 00ab 03       		.byte	0x3
 16022 00ac 4F       		.byte	0x4f
 16023 00ad B1000000 		.4byte	0xb1
 16024 00b1 04       		.uleb128 0x4
 16025 00b2 04       		.byte	0x4
 16026 00b3 07       		.byte	0x7
 16027 00b4 B30F0000 		.4byte	.LASF15
 16028 00b8 03       		.uleb128 0x3
 16029 00b9 230C0000 		.4byte	.LASF16
 16030 00bd 03       		.byte	0x3
 16031 00be 67       		.byte	0x67
 16032 00bf 3E000000 		.4byte	0x3e
 16033 00c3 03       		.uleb128 0x3
 16034 00c4 FD060000 		.4byte	.LASF17
 16035 00c8 03       		.byte	0x3
 16036 00c9 69       		.byte	0x69
 16037 00ca CE000000 		.4byte	0xce
 16038 00ce 04       		.uleb128 0x4
 16039 00cf 08       		.byte	0x8
 16040 00d0 07       		.byte	0x7
 16041 00d1 9B040000 		.4byte	.LASF18
 16042 00d5 03       		.uleb128 0x3
 16043 00d6 D2030000 		.4byte	.LASF19
 16044 00da 04       		.byte	0x4
 16045 00db 14       		.byte	0x14
 16046 00dc 4C000000 		.4byte	0x4c
 16047 00e0 03       		.uleb128 0x3
 16048 00e1 CF080000 		.4byte	.LASF20
 16049 00e5 04       		.byte	0x4
 16050 00e6 18       		.byte	0x18
 16051 00e7 5E000000 		.4byte	0x5e
 16052 00eb 03       		.uleb128 0x3
 16053 00ec 93040000 		.4byte	.LASF21
 16054 00f0 04       		.byte	0x4
 16055 00f1 20       		.byte	0x20
 16056 00f2 70000000 		.4byte	0x70
 16057 00f6 03       		.uleb128 0x3
 16058 00f7 670C0000 		.4byte	.LASF22
 16059 00fb 04       		.byte	0x4
 16060 00fc 24       		.byte	0x24
 16061 00fd 82000000 		.4byte	0x82
 16062 0101 03       		.uleb128 0x3
 16063 0102 46110000 		.4byte	.LASF23
 16064 0106 04       		.byte	0x4
 16065 0107 2C       		.byte	0x2c
 16066 0108 94000000 		.4byte	0x94
ARM GAS  C:\Users\PCHAUT~1\AppData\Local\Temp\ccacj52E.s 			page 284


 16067 010c 05       		.uleb128 0x5
 16068 010d 01010000 		.4byte	0x101
 16069 0111 03       		.uleb128 0x3
 16070 0112 C9030000 		.4byte	.LASF24
 16071 0116 04       		.byte	0x4
 16072 0117 30       		.byte	0x30
 16073 0118 A6000000 		.4byte	0xa6
 16074 011c 05       		.uleb128 0x5
 16075 011d 11010000 		.4byte	0x111
 16076 0121 03       		.uleb128 0x3
 16077 0122 78060000 		.4byte	.LASF25
 16078 0126 04       		.byte	0x4
 16079 0127 38       		.byte	0x38
 16080 0128 B8000000 		.4byte	0xb8
 16081 012c 03       		.uleb128 0x3
 16082 012d 440E0000 		.4byte	.LASF26
 16083 0131 04       		.byte	0x4
 16084 0132 3C       		.byte	0x3c
 16085 0133 C3000000 		.4byte	0xc3
 16086 0137 03       		.uleb128 0x3
 16087 0138 C50F0000 		.4byte	.LASF27
 16088 013c 05       		.byte	0x5
 16089 013d 06       		.byte	0x6
 16090 013e 42010000 		.4byte	0x142
 16091 0142 06       		.uleb128 0x6
 16092 0143 04       		.byte	0x4
 16093 0144 48010000 		.4byte	0x148
 16094 0148 07       		.uleb128 0x7
 16095 0149 61010000 		.4byte	0x161
 16096 014d 61010000 		.4byte	0x161
 16097 0151 08       		.uleb128 0x8
 16098 0152 68010000 		.4byte	0x168
 16099 0156 08       		.uleb128 0x8
 16100 0157 AB010000 		.4byte	0x1ab
 16101 015b 08       		.uleb128 0x8
 16102 015c 2C000000 		.4byte	0x2c
 16103 0160 00       		.byte	0
 16104 0161 04       		.uleb128 0x4
 16105 0162 01       		.byte	0x1
 16106 0163 02       		.byte	0x2
 16107 0164 C3060000 		.4byte	.LASF28
 16108 0168 06       		.uleb128 0x6
 16109 0169 04       		.byte	0x4
 16110 016a 6E010000 		.4byte	0x16e
 16111 016e 09       		.uleb128 0x9
 16112 016f 31070000 		.4byte	.LASF68
 16113 0173 10       		.byte	0x10
 16114 0174 05       		.byte	0x5
 16115 0175 48       		.byte	0x48
 16116 0176 AB010000 		.4byte	0x1ab
 16117 017a 0A       		.uleb128 0xa
 16118 017b 98020000 		.4byte	.LASF29
 16119 017f 05       		.byte	0x5
 16120 0180 49       		.byte	0x49
 16121 0181 E0000000 		.4byte	0xe0
 16122 0185 00       		.byte	0
 16123 0186 0B       		.uleb128 0xb
ARM GAS  C:\Users\PCHAUT~1\AppData\Local\Temp\ccacj52E.s 			page 285


 16124 0187 62756600 		.ascii	"buf\000"
 16125 018b 05       		.byte	0x5
 16126 018c 4A       		.byte	0x4a
 16127 018d AB010000 		.4byte	0x1ab
 16128 0191 04       		.byte	0x4
 16129 0192 0A       		.uleb128 0xa
 16130 0193 F70E0000 		.4byte	.LASF30
 16131 0197 05       		.byte	0x5
 16132 0198 4B       		.byte	0x4b
 16133 0199 37010000 		.4byte	0x137
 16134 019d 08       		.byte	0x8
 16135 019e 0A       		.uleb128 0xa
 16136 019f C6090000 		.4byte	.LASF31
 16137 01a3 05       		.byte	0x5
 16138 01a4 4C       		.byte	0x4c
 16139 01a5 AD010000 		.4byte	0x1ad
 16140 01a9 0C       		.byte	0xc
 16141 01aa 00       		.byte	0
 16142 01ab 0C       		.uleb128 0xc
 16143 01ac 04       		.byte	0x4
 16144 01ad 03       		.uleb128 0x3
 16145 01ae 50060000 		.4byte	.LASF32
 16146 01b2 05       		.byte	0x5
 16147 01b3 07       		.byte	0x7
 16148 01b4 B8010000 		.4byte	0x1b8
 16149 01b8 06       		.uleb128 0x6
 16150 01b9 04       		.byte	0x4
 16151 01ba BE010000 		.4byte	0x1be
 16152 01be 07       		.uleb128 0x7
 16153 01bf 2C000000 		.4byte	0x2c
 16154 01c3 D7010000 		.4byte	0x1d7
 16155 01c7 08       		.uleb128 0x8
 16156 01c8 68010000 		.4byte	0x168
 16157 01cc 08       		.uleb128 0x8
 16158 01cd D7010000 		.4byte	0x1d7
 16159 01d1 08       		.uleb128 0x8
 16160 01d2 2C000000 		.4byte	0x2c
 16161 01d6 00       		.byte	0
 16162 01d7 06       		.uleb128 0x6
 16163 01d8 04       		.byte	0x4
 16164 01d9 DD010000 		.4byte	0x1dd
 16165 01dd 0D       		.uleb128 0xd
 16166 01de 0E       		.uleb128 0xe
 16167 01df 07       		.byte	0x7
 16168 01e0 01       		.byte	0x1
 16169 01e1 69000000 		.4byte	0x69
 16170 01e5 05       		.byte	0x5
 16171 01e6 0A       		.byte	0xa
 16172 01e7 BE020000 		.4byte	0x2be
 16173 01eb 0F       		.uleb128 0xf
 16174 01ec 96130000 		.4byte	.LASF33
 16175 01f0 00       		.byte	0
 16176 01f1 0F       		.uleb128 0xf
 16177 01f2 CF0B0000 		.4byte	.LASF34
 16178 01f6 01       		.byte	0x1
 16179 01f7 0F       		.uleb128 0xf
 16180 01f8 14110000 		.4byte	.LASF35
ARM GAS  C:\Users\PCHAUT~1\AppData\Local\Temp\ccacj52E.s 			page 286


 16181 01fc 02       		.byte	0x2
 16182 01fd 0F       		.uleb128 0xf
 16183 01fe 65040000 		.4byte	.LASF36
 16184 0202 03       		.byte	0x3
 16185 0203 0F       		.uleb128 0xf
 16186 0204 A60F0000 		.4byte	.LASF37
 16187 0208 04       		.byte	0x4
 16188 0209 0F       		.uleb128 0xf
 16189 020a 570F0000 		.4byte	.LASF38
 16190 020e 05       		.byte	0x5
 16191 020f 0F       		.uleb128 0xf
 16192 0210 DA020000 		.4byte	.LASF39
 16193 0214 06       		.byte	0x6
 16194 0215 0F       		.uleb128 0xf
 16195 0216 9B0D0000 		.4byte	.LASF40
 16196 021a 07       		.byte	0x7
 16197 021b 0F       		.uleb128 0xf
 16198 021c 7E110000 		.4byte	.LASF41
 16199 0220 08       		.byte	0x8
 16200 0221 0F       		.uleb128 0xf
 16201 0222 69050000 		.4byte	.LASF42
 16202 0226 09       		.byte	0x9
 16203 0227 0F       		.uleb128 0xf
 16204 0228 620D0000 		.4byte	.LASF43
 16205 022c 0A       		.byte	0xa
 16206 022d 0F       		.uleb128 0xf
 16207 022e 4E110000 		.4byte	.LASF44
 16208 0232 0B       		.byte	0xb
 16209 0233 0F       		.uleb128 0xf
 16210 0234 E1090000 		.4byte	.LASF45
 16211 0238 0C       		.byte	0xc
 16212 0239 0F       		.uleb128 0xf
 16213 023a 4C140000 		.4byte	.LASF46
 16214 023e 0D       		.byte	0xd
 16215 023f 0F       		.uleb128 0xf
 16216 0240 15070000 		.4byte	.LASF47
 16217 0244 0E       		.byte	0xe
 16218 0245 0F       		.uleb128 0xf
 16219 0246 3F0B0000 		.4byte	.LASF48
 16220 024a 0F       		.byte	0xf
 16221 024b 0F       		.uleb128 0xf
 16222 024c 020E0000 		.4byte	.LASF49
 16223 0250 10       		.byte	0x10
 16224 0251 0F       		.uleb128 0xf
 16225 0252 43130000 		.4byte	.LASF50
 16226 0256 11       		.byte	0x11
 16227 0257 0F       		.uleb128 0xf
 16228 0258 30010000 		.4byte	.LASF51
 16229 025c 12       		.byte	0x12
 16230 025d 0F       		.uleb128 0xf
 16231 025e CB070000 		.4byte	.LASF52
 16232 0262 13       		.byte	0x13
 16233 0263 0F       		.uleb128 0xf
 16234 0264 8B0A0000 		.4byte	.LASF53
 16235 0268 14       		.byte	0x14
 16236 0269 0F       		.uleb128 0xf
 16237 026a 750E0000 		.4byte	.LASF54
ARM GAS  C:\Users\PCHAUT~1\AppData\Local\Temp\ccacj52E.s 			page 287


 16238 026e 15       		.byte	0x15
 16239 026f 0F       		.uleb128 0xf
 16240 0270 D0120000 		.4byte	.LASF55
 16241 0274 16       		.byte	0x16
 16242 0275 0F       		.uleb128 0xf
 16243 0276 E1120000 		.4byte	.LASF56
 16244 027a 17       		.byte	0x17
 16245 027b 0F       		.uleb128 0xf
 16246 027c F2120000 		.4byte	.LASF57
 16247 0280 18       		.byte	0x18
 16248 0281 0F       		.uleb128 0xf
 16249 0282 10130000 		.4byte	.LASF58
 16250 0286 19       		.byte	0x19
 16251 0287 0F       		.uleb128 0xf
 16252 0288 FF0A0000 		.4byte	.LASF59
 16253 028c 1A       		.byte	0x1a
 16254 028d 0F       		.uleb128 0xf
 16255 028e A50B0000 		.4byte	.LASF60
 16256 0292 1B       		.byte	0x1b
 16257 0293 0F       		.uleb128 0xf
 16258 0294 B60D0000 		.4byte	.LASF61
 16259 0298 1C       		.byte	0x1c
 16260 0299 0F       		.uleb128 0xf
 16261 029a AA110000 		.4byte	.LASF62
 16262 029e 1D       		.byte	0x1d
 16263 029f 0F       		.uleb128 0xf
 16264 02a0 99090000 		.4byte	.LASF63
 16265 02a4 1E       		.byte	0x1e
 16266 02a5 0F       		.uleb128 0xf
 16267 02a6 120C0000 		.4byte	.LASF64
 16268 02aa 1F       		.byte	0x1f
 16269 02ab 0F       		.uleb128 0xf
 16270 02ac 7E000000 		.4byte	.LASF65
 16271 02b0 20       		.byte	0x20
 16272 02b1 0F       		.uleb128 0xf
 16273 02b2 CB020000 		.4byte	.LASF66
 16274 02b6 21       		.byte	0x21
 16275 02b7 0F       		.uleb128 0xf
 16276 02b8 60080000 		.4byte	.LASF67
 16277 02bc 22       		.byte	0x22
 16278 02bd 00       		.byte	0
 16279 02be 09       		.uleb128 0x9
 16280 02bf 90070000 		.4byte	.LASF69
 16281 02c3 08       		.byte	0x8
 16282 02c4 05       		.byte	0x5
 16283 02c5 30       		.byte	0x30
 16284 02c6 E3020000 		.4byte	0x2e3
 16285 02ca 0A       		.uleb128 0xa
 16286 02cb C8110000 		.4byte	.LASF70
 16287 02cf 05       		.byte	0x5
 16288 02d0 31       		.byte	0x31
 16289 02d1 D5000000 		.4byte	0xd5
 16290 02d5 00       		.byte	0
 16291 02d6 0A       		.uleb128 0xa
 16292 02d7 D60A0000 		.4byte	.LASF71
 16293 02db 05       		.byte	0x5
 16294 02dc 32       		.byte	0x32
ARM GAS  C:\Users\PCHAUT~1\AppData\Local\Temp\ccacj52E.s 			page 288


 16295 02dd 11010000 		.4byte	0x111
 16296 02e1 04       		.byte	0x4
 16297 02e2 00       		.byte	0
 16298 02e3 03       		.uleb128 0x3
 16299 02e4 9A070000 		.4byte	.LASF72
 16300 02e8 05       		.byte	0x5
 16301 02e9 33       		.byte	0x33
 16302 02ea BE020000 		.4byte	0x2be
 16303 02ee 10       		.uleb128 0x10
 16304 02ef 5C140000 		.4byte	.LASF319
 16305 02f3 08       		.byte	0x8
 16306 02f4 05       		.byte	0x5
 16307 02f5 35       		.byte	0x35
 16308 02f6 A9030000 		.4byte	0x3a9
 16309 02fa 11       		.uleb128 0x11
 16310 02fb 40090000 		.4byte	.LASF73
 16311 02ff 05       		.byte	0x5
 16312 0300 36       		.byte	0x36
 16313 0301 61010000 		.4byte	0x161
 16314 0305 12       		.uleb128 0x12
 16315 0306 753800   		.ascii	"u8\000"
 16316 0309 05       		.byte	0x5
 16317 030a 37       		.byte	0x37
 16318 030b E0000000 		.4byte	0xe0
 16319 030f 12       		.uleb128 0x12
 16320 0310 75313600 		.ascii	"u16\000"
 16321 0314 05       		.byte	0x5
 16322 0315 38       		.byte	0x38
 16323 0316 F6000000 		.4byte	0xf6
 16324 031a 12       		.uleb128 0x12
 16325 031b 75333200 		.ascii	"u32\000"
 16326 031f 05       		.byte	0x5
 16327 0320 39       		.byte	0x39
 16328 0321 11010000 		.4byte	0x111
 16329 0325 12       		.uleb128 0x12
 16330 0326 75363400 		.ascii	"u64\000"
 16331 032a 05       		.byte	0x5
 16332 032b 3A       		.byte	0x3a
 16333 032c 2C010000 		.4byte	0x12c
 16334 0330 12       		.uleb128 0x12
 16335 0331 733800   		.ascii	"s8\000"
 16336 0334 05       		.byte	0x5
 16337 0335 3B       		.byte	0x3b
 16338 0336 D5000000 		.4byte	0xd5
 16339 033a 12       		.uleb128 0x12
 16340 033b 73313600 		.ascii	"s16\000"
 16341 033f 05       		.byte	0x5
 16342 0340 3C       		.byte	0x3c
 16343 0341 EB000000 		.4byte	0xeb
 16344 0345 12       		.uleb128 0x12
 16345 0346 73333200 		.ascii	"s32\000"
 16346 034a 05       		.byte	0x5
 16347 034b 3D       		.byte	0x3d
 16348 034c 01010000 		.4byte	0x101
 16349 0350 12       		.uleb128 0x12
 16350 0351 73363400 		.ascii	"s64\000"
 16351 0355 05       		.byte	0x5
ARM GAS  C:\Users\PCHAUT~1\AppData\Local\Temp\ccacj52E.s 			page 289


 16352 0356 3E       		.byte	0x3e
 16353 0357 21010000 		.4byte	0x121
 16354 035b 12       		.uleb128 0x12
 16355 035c 666C7400 		.ascii	"flt\000"
 16356 0360 05       		.byte	0x5
 16357 0361 3F       		.byte	0x3f
 16358 0362 A9030000 		.4byte	0x3a9
 16359 0366 12       		.uleb128 0x12
 16360 0367 64626C00 		.ascii	"dbl\000"
 16361 036b 05       		.byte	0x5
 16362 036c 40       		.byte	0x40
 16363 036d B0030000 		.4byte	0x3b0
 16364 0371 11       		.uleb128 0x11
 16365 0372 6A0E0000 		.4byte	.LASF74
 16366 0376 05       		.byte	0x5
 16367 0377 41       		.byte	0x41
 16368 0378 11010000 		.4byte	0x111
 16369 037c 11       		.uleb128 0x11
 16370 037d 9E020000 		.4byte	.LASF75
 16371 0381 05       		.byte	0x5
 16372 0382 42       		.byte	0x42
 16373 0383 11010000 		.4byte	0x111
 16374 0387 11       		.uleb128 0x11
 16375 0388 24060000 		.4byte	.LASF76
 16376 038c 05       		.byte	0x5
 16377 038d 43       		.byte	0x43
 16378 038e 11010000 		.4byte	0x111
 16379 0392 11       		.uleb128 0x11
 16380 0393 D9030000 		.4byte	.LASF77
 16381 0397 05       		.byte	0x5
 16382 0398 44       		.byte	0x44
 16383 0399 11010000 		.4byte	0x111
 16384 039d 12       		.uleb128 0x12
 16385 039e 65787400 		.ascii	"ext\000"
 16386 03a2 05       		.byte	0x5
 16387 03a3 45       		.byte	0x45
 16388 03a4 E3020000 		.4byte	0x2e3
 16389 03a8 00       		.byte	0
 16390 03a9 04       		.uleb128 0x4
 16391 03aa 04       		.byte	0x4
 16392 03ab 04       		.byte	0x4
 16393 03ac 42040000 		.4byte	.LASF78
 16394 03b0 04       		.uleb128 0x4
 16395 03b1 08       		.byte	0x8
 16396 03b2 04       		.byte	0x4
 16397 03b3 45140000 		.4byte	.LASF79
 16398 03b7 03       		.uleb128 0x3
 16399 03b8 3B070000 		.4byte	.LASF80
 16400 03bc 05       		.byte	0x5
 16401 03bd 4D       		.byte	0x4d
 16402 03be 6E010000 		.4byte	0x16e
 16403 03c2 09       		.uleb128 0x9
 16404 03c3 0C040000 		.4byte	.LASF81
 16405 03c7 10       		.byte	0x10
 16406 03c8 05       		.byte	0x5
 16407 03c9 4F       		.byte	0x4f
 16408 03ca E6030000 		.4byte	0x3e6
ARM GAS  C:\Users\PCHAUT~1\AppData\Local\Temp\ccacj52E.s 			page 290


 16409 03ce 0A       		.uleb128 0xa
 16410 03cf C8110000 		.4byte	.LASF70
 16411 03d3 05       		.byte	0x5
 16412 03d4 50       		.byte	0x50
 16413 03d5 E0000000 		.4byte	0xe0
 16414 03d9 00       		.byte	0
 16415 03da 0B       		.uleb128 0xb
 16416 03db 617300   		.ascii	"as\000"
 16417 03de 05       		.byte	0x5
 16418 03df 51       		.byte	0x51
 16419 03e0 EE020000 		.4byte	0x2ee
 16420 03e4 08       		.byte	0x8
 16421 03e5 00       		.byte	0
 16422 03e6 03       		.uleb128 0x3
 16423 03e7 19040000 		.4byte	.LASF82
 16424 03eb 05       		.byte	0x5
 16425 03ec 52       		.byte	0x52
 16426 03ed C2030000 		.4byte	0x3c2
 16427 03f1 13       		.uleb128 0x13
 16428 03f2 5B010000 		.4byte	.LASF83
 16429 03f6 01       		.byte	0x1
 16430 03f7 07       		.byte	0x7
 16431 03f8 1C010000 		.4byte	0x11c
 16432 03fc 05       		.uleb128 0x5
 16433 03fd 03       		.byte	0x3
 16434 03fe 00000000 		.4byte	version
 16435 0402 13       		.uleb128 0x13
 16436 0403 C9060000 		.4byte	.LASF84
 16437 0407 01       		.byte	0x1
 16438 0408 08       		.byte	0x8
 16439 0409 1C010000 		.4byte	0x11c
 16440 040d 05       		.uleb128 0x5
 16441 040e 03       		.byte	0x3
 16442 040f 00000000 		.4byte	mp_version
 16443 0413 0E       		.uleb128 0xe
 16444 0414 07       		.byte	0x7
 16445 0415 01       		.byte	0x1
 16446 0416 69000000 		.4byte	0x69
 16447 041a 01       		.byte	0x1
 16448 041b 0A       		.byte	0xa
 16449 041c F9040000 		.4byte	0x4f9
 16450 0420 0F       		.uleb128 0xf
 16451 0421 D70D0000 		.4byte	.LASF85
 16452 0425 00       		.byte	0
 16453 0426 0F       		.uleb128 0xf
 16454 0427 70000000 		.4byte	.LASF86
 16455 042b 80       		.byte	0x80
 16456 042c 0F       		.uleb128 0xf
 16457 042d D50C0000 		.4byte	.LASF87
 16458 0431 90       		.byte	0x90
 16459 0432 0F       		.uleb128 0xf
 16460 0433 B30B0000 		.4byte	.LASF88
 16461 0437 A0       		.byte	0xa0
 16462 0438 0F       		.uleb128 0xf
 16463 0439 F7140000 		.4byte	.LASF89
 16464 043d C0       		.byte	0xc0
 16465 043e 0F       		.uleb128 0xf
ARM GAS  C:\Users\PCHAUT~1\AppData\Local\Temp\ccacj52E.s 			page 291


 16466 043f 8D000000 		.4byte	.LASF90
 16467 0443 C2       		.byte	0xc2
 16468 0444 0F       		.uleb128 0xf
 16469 0445 8F120000 		.4byte	.LASF91
 16470 0449 C3       		.byte	0xc3
 16471 044a 0F       		.uleb128 0xf
 16472 044b 12020000 		.4byte	.LASF92
 16473 044f C4       		.byte	0xc4
 16474 0450 0F       		.uleb128 0xf
 16475 0451 C90A0000 		.4byte	.LASF93
 16476 0455 C5       		.byte	0xc5
 16477 0456 0F       		.uleb128 0xf
 16478 0457 700C0000 		.4byte	.LASF94
 16479 045b C6       		.byte	0xc6
 16480 045c 0F       		.uleb128 0xf
 16481 045d 9E110000 		.4byte	.LASF95
 16482 0461 C7       		.byte	0xc7
 16483 0462 0F       		.uleb128 0xf
 16484 0463 24070000 		.4byte	.LASF96
 16485 0467 C8       		.byte	0xc8
 16486 0468 0F       		.uleb128 0xf
 16487 0469 BC0A0000 		.4byte	.LASF97
 16488 046d C9       		.byte	0xc9
 16489 046e 0F       		.uleb128 0xf
 16490 046f A2010000 		.4byte	.LASF98
 16491 0473 CA       		.byte	0xca
 16492 0474 0F       		.uleb128 0xf
 16493 0475 34040000 		.4byte	.LASF99
 16494 0479 CB       		.byte	0xcb
 16495 047a 0F       		.uleb128 0xf
 16496 047b 24080000 		.4byte	.LASF100
 16497 047f CC       		.byte	0xcc
 16498 0480 0F       		.uleb128 0xf
 16499 0481 1B0F0000 		.4byte	.LASF101
 16500 0485 CD       		.byte	0xcd
 16501 0486 0F       		.uleb128 0xf
 16502 0487 570D0000 		.4byte	.LASF102
 16503 048b CE       		.byte	0xce
 16504 048c 0F       		.uleb128 0xf
 16505 048d 98080000 		.4byte	.LASF103
 16506 0491 CF       		.byte	0xcf
 16507 0492 0F       		.uleb128 0xf
 16508 0493 3B120000 		.4byte	.LASF104
 16509 0497 D0       		.byte	0xd0
 16510 0498 0F       		.uleb128 0xf
 16511 0499 F70B0000 		.4byte	.LASF105
 16512 049d D1       		.byte	0xd1
 16513 049e 0F       		.uleb128 0xf
 16514 049f 6A070000 		.4byte	.LASF106
 16515 04a3 D2       		.byte	0xd2
 16516 04a4 0F       		.uleb128 0xf
 16517 04a5 EC140000 		.4byte	.LASF107
 16518 04a9 D3       		.byte	0xd3
 16519 04aa 0F       		.uleb128 0xf
 16520 04ab 610B0000 		.4byte	.LASF108
 16521 04af D4       		.byte	0xd4
 16522 04b0 0F       		.uleb128 0xf
ARM GAS  C:\Users\PCHAUT~1\AppData\Local\Temp\ccacj52E.s 			page 292


 16523 04b1 6E140000 		.4byte	.LASF109
 16524 04b5 D5       		.byte	0xd5
 16525 04b6 0F       		.uleb128 0xf
 16526 04b7 DF0B0000 		.4byte	.LASF110
 16527 04bb D6       		.byte	0xd6
 16528 04bc 0F       		.uleb128 0xf
 16529 04bd AF010000 		.4byte	.LASF111
 16530 04c1 D7       		.byte	0xd7
 16531 04c2 0F       		.uleb128 0xf
 16532 04c3 32030000 		.4byte	.LASF112
 16533 04c7 D8       		.byte	0xd8
 16534 04c8 0F       		.uleb128 0xf
 16535 04c9 39140000 		.4byte	.LASF113
 16536 04cd D9       		.byte	0xd9
 16537 04ce 0F       		.uleb128 0xf
 16538 04cf 200A0000 		.4byte	.LASF114
 16539 04d3 DA       		.byte	0xda
 16540 04d4 0F       		.uleb128 0xf
 16541 04d5 8E0D0000 		.4byte	.LASF115
 16542 04d9 DB       		.byte	0xdb
 16543 04da 0F       		.uleb128 0xf
 16544 04db 2F0D0000 		.4byte	.LASF116
 16545 04df DC       		.byte	0xdc
 16546 04e0 0F       		.uleb128 0xf
 16547 04e1 5B0E0000 		.4byte	.LASF117
 16548 04e5 DD       		.byte	0xdd
 16549 04e6 0F       		.uleb128 0xf
 16550 04e7 CA050000 		.4byte	.LASF118
 16551 04eb DE       		.byte	0xde
 16552 04ec 0F       		.uleb128 0xf
 16553 04ed 08070000 		.4byte	.LASF119
 16554 04f1 DF       		.byte	0xdf
 16555 04f2 0F       		.uleb128 0xf
 16556 04f3 37020000 		.4byte	.LASF120
 16557 04f7 E0       		.byte	0xe0
 16558 04f8 00       		.byte	0
 16559 04f9 0E       		.uleb128 0xe
 16560 04fa 07       		.byte	0x7
 16561 04fb 01       		.byte	0x1
 16562 04fc 69000000 		.4byte	0x69
 16563 0500 01       		.byte	0x1
 16564 0501 31       		.byte	0x31
 16565 0502 19050000 		.4byte	0x519
 16566 0506 0F       		.uleb128 0xf
 16567 0507 B1000000 		.4byte	.LASF121
 16568 050b 0F       		.byte	0xf
 16569 050c 0F       		.uleb128 0xf
 16570 050d 850E0000 		.4byte	.LASF122
 16571 0511 0F       		.byte	0xf
 16572 0512 0F       		.uleb128 0xf
 16573 0513 AA0D0000 		.4byte	.LASF123
 16574 0517 1F       		.byte	0x1f
 16575 0518 00       		.byte	0
 16576 0519 0E       		.uleb128 0xe
 16577 051a 07       		.byte	0x7
 16578 051b 01       		.byte	0x1
 16579 051c 69000000 		.4byte	0x69
ARM GAS  C:\Users\PCHAUT~1\AppData\Local\Temp\ccacj52E.s 			page 293


 16580 0520 01       		.byte	0x1
 16581 0521 37       		.byte	0x37
 16582 0522 8D050000 		.4byte	0x58d
 16583 0526 0F       		.uleb128 0xf
 16584 0527 65000000 		.4byte	.LASF124
 16585 052b 00       		.byte	0
 16586 052c 0F       		.uleb128 0xf
 16587 052d 260F0000 		.4byte	.LASF125
 16588 0531 01       		.byte	0x1
 16589 0532 0F       		.uleb128 0xf
 16590 0533 D7040000 		.4byte	.LASF126
 16591 0537 02       		.byte	0x2
 16592 0538 0F       		.uleb128 0xf
 16593 0539 54120000 		.4byte	.LASF127
 16594 053d 03       		.byte	0x3
 16595 053e 0F       		.uleb128 0xf
 16596 053f 7F090000 		.4byte	.LASF128
 16597 0543 04       		.byte	0x4
 16598 0544 0F       		.uleb128 0xf
 16599 0545 E1060000 		.4byte	.LASF129
 16600 0549 05       		.byte	0x5
 16601 054a 0F       		.uleb128 0xf
 16602 054b AB0E0000 		.4byte	.LASF130
 16603 054f 06       		.byte	0x6
 16604 0550 0F       		.uleb128 0xf
 16605 0551 2D060000 		.4byte	.LASF131
 16606 0555 07       		.byte	0x7
 16607 0556 0F       		.uleb128 0xf
 16608 0557 910E0000 		.4byte	.LASF132
 16609 055b 08       		.byte	0x8
 16610 055c 0F       		.uleb128 0xf
 16611 055d 77050000 		.4byte	.LASF133
 16612 0561 09       		.byte	0x9
 16613 0562 0F       		.uleb128 0xf
 16614 0563 A9050000 		.4byte	.LASF134
 16615 0567 0A       		.byte	0xa
 16616 0568 0F       		.uleb128 0xf
 16617 0569 F0090000 		.4byte	.LASF135
 16618 056d 0B       		.byte	0xb
 16619 056e 0F       		.uleb128 0xf
 16620 056f E6110000 		.4byte	.LASF136
 16621 0573 0C       		.byte	0xc
 16622 0574 0F       		.uleb128 0xf
 16623 0575 56050000 		.4byte	.LASF137
 16624 0579 0D       		.byte	0xd
 16625 057a 0F       		.uleb128 0xf
 16626 057b E50C0000 		.4byte	.LASF138
 16627 057f 0E       		.byte	0xe
 16628 0580 0F       		.uleb128 0xf
 16629 0581 63010000 		.4byte	.LASF139
 16630 0585 0F       		.byte	0xf
 16631 0586 0F       		.uleb128 0xf
 16632 0587 67060000 		.4byte	.LASF140
 16633 058b 10       		.byte	0x10
 16634 058c 00       		.byte	0
 16635 058d 14       		.uleb128 0x14
 16636 058e 9D050000 		.4byte	0x59d
ARM GAS  C:\Users\PCHAUT~1\AppData\Local\Temp\ccacj52E.s 			page 294


 16637 0592 9D050000 		.4byte	0x59d
 16638 0596 15       		.uleb128 0x15
 16639 0597 37000000 		.4byte	0x37
 16640 059b 10       		.byte	0x10
 16641 059c 00       		.byte	0
 16642 059d 06       		.uleb128 0x6
 16643 059e 04       		.byte	0x4
 16644 059f AA050000 		.4byte	0x5aa
 16645 05a3 04       		.uleb128 0x4
 16646 05a4 01       		.byte	0x1
 16647 05a5 08       		.byte	0x8
 16648 05a6 DB070000 		.4byte	.LASF141
 16649 05aa 05       		.uleb128 0x5
 16650 05ab A3050000 		.4byte	0x5a3
 16651 05af 16       		.uleb128 0x16
 16652 05b0 2E080000 		.4byte	.LASF320
 16653 05b4 01       		.byte	0x1
 16654 05b5 4B       		.byte	0x4b
 16655 05b6 8D050000 		.4byte	0x58d
 16656 05ba 05       		.uleb128 0x5
 16657 05bb 03       		.byte	0x3
 16658 05bc 00000000 		.4byte	cmp_error_messages
 16659 05c0 17       		.uleb128 0x17
 16660 05c1 5F6900   		.ascii	"_i\000"
 16661 05c4 01       		.byte	0x1
 16662 05c5 5F       		.byte	0x5f
 16663 05c6 0C010000 		.4byte	0x10c
 16664 05ca 05       		.uleb128 0x5
 16665 05cb 03       		.byte	0x3
 16666 05cc 00000000 		.4byte	_i
 16667 05d0 18       		.uleb128 0x18
 16668 05d1 AA140000 		.4byte	.LASF142
 16669 05d5 01       		.byte	0x1
 16670 05d6 4F0A     		.2byte	0xa4f
 16671 05d8 61010000 		.4byte	0x161
 16672 05dc 00000000 		.4byte	.LFB168
 16673 05e0 9C000000 		.4byte	.LFE168-.LFB168
 16674 05e4 01       		.uleb128 0x1
 16675 05e5 9C       		.byte	0x9c
 16676 05e6 18060000 		.4byte	0x618
 16677 05ea 19       		.uleb128 0x19
 16678 05eb 6F626A00 		.ascii	"obj\000"
 16679 05ef 01       		.byte	0x1
 16680 05f0 4F0A     		.2byte	0xa4f
 16681 05f2 18060000 		.4byte	0x618
 16682 05f6 02       		.uleb128 0x2
 16683 05f7 91       		.byte	0x91
 16684 05f8 6C       		.sleb128 -20
 16685 05f9 1A       		.uleb128 0x1a
 16686 05fa C8110000 		.4byte	.LASF70
 16687 05fe 01       		.byte	0x1
 16688 05ff 4F0A     		.2byte	0xa4f
 16689 0601 1E060000 		.4byte	0x61e
 16690 0605 02       		.uleb128 0x2
 16691 0606 91       		.byte	0x91
 16692 0607 68       		.sleb128 -24
 16693 0608 1A       		.uleb128 0x1a
ARM GAS  C:\Users\PCHAUT~1\AppData\Local\Temp\ccacj52E.s 			page 295


 16694 0609 D60A0000 		.4byte	.LASF71
 16695 060d 01       		.byte	0x1
 16696 060e 4F0A     		.2byte	0xa4f
 16697 0610 24060000 		.4byte	0x624
 16698 0614 02       		.uleb128 0x2
 16699 0615 91       		.byte	0x91
 16700 0616 64       		.sleb128 -28
 16701 0617 00       		.byte	0
 16702 0618 06       		.uleb128 0x6
 16703 0619 04       		.byte	0x4
 16704 061a E6030000 		.4byte	0x3e6
 16705 061e 06       		.uleb128 0x6
 16706 061f 04       		.byte	0x4
 16707 0620 D5000000 		.4byte	0xd5
 16708 0624 06       		.uleb128 0x6
 16709 0625 04       		.byte	0x4
 16710 0626 11010000 		.4byte	0x111
 16711 062a 18       		.uleb128 0x18
 16712 062b 9D0C0000 		.4byte	.LASF143
 16713 062f 01       		.byte	0x1
 16714 0630 430A     		.2byte	0xa43
 16715 0632 61010000 		.4byte	0x161
 16716 0636 00000000 		.4byte	.LFB167
 16717 063a 48000000 		.4byte	.LFE167-.LFB167
 16718 063e 01       		.uleb128 0x1
 16719 063f 9C       		.byte	0x9c
 16720 0640 63060000 		.4byte	0x663
 16721 0644 19       		.uleb128 0x19
 16722 0645 6F626A00 		.ascii	"obj\000"
 16723 0649 01       		.byte	0x1
 16724 064a 430A     		.2byte	0xa43
 16725 064c 18060000 		.4byte	0x618
 16726 0650 02       		.uleb128 0x2
 16727 0651 91       		.byte	0x91
 16728 0652 6C       		.sleb128 -20
 16729 0653 1A       		.uleb128 0x1a
 16730 0654 D60A0000 		.4byte	.LASF71
 16731 0658 01       		.byte	0x1
 16732 0659 430A     		.2byte	0xa43
 16733 065b 24060000 		.4byte	0x624
 16734 065f 02       		.uleb128 0x2
 16735 0660 91       		.byte	0x91
 16736 0661 68       		.sleb128 -24
 16737 0662 00       		.byte	0
 16738 0663 18       		.uleb128 0x18
 16739 0664 6A110000 		.4byte	.LASF144
 16740 0668 01       		.byte	0x1
 16741 0669 370A     		.2byte	0xa37
 16742 066b 61010000 		.4byte	0x161
 16743 066f 00000000 		.4byte	.LFB166
 16744 0673 48000000 		.4byte	.LFE166-.LFB166
 16745 0677 01       		.uleb128 0x1
 16746 0678 9C       		.byte	0x9c
 16747 0679 9C060000 		.4byte	0x69c
 16748 067d 19       		.uleb128 0x19
 16749 067e 6F626A00 		.ascii	"obj\000"
 16750 0682 01       		.byte	0x1
ARM GAS  C:\Users\PCHAUT~1\AppData\Local\Temp\ccacj52E.s 			page 296


 16751 0683 370A     		.2byte	0xa37
 16752 0685 18060000 		.4byte	0x618
 16753 0689 02       		.uleb128 0x2
 16754 068a 91       		.byte	0x91
 16755 068b 6C       		.sleb128 -20
 16756 068c 1A       		.uleb128 0x1a
 16757 068d D60A0000 		.4byte	.LASF71
 16758 0691 01       		.byte	0x1
 16759 0692 370A     		.2byte	0xa37
 16760 0694 24060000 		.4byte	0x624
 16761 0698 02       		.uleb128 0x2
 16762 0699 91       		.byte	0x91
 16763 069a 68       		.sleb128 -24
 16764 069b 00       		.byte	0
 16765 069c 18       		.uleb128 0x18
 16766 069d 34110000 		.4byte	.LASF145
 16767 06a1 01       		.byte	0x1
 16768 06a2 2B0A     		.2byte	0xa2b
 16769 06a4 61010000 		.4byte	0x161
 16770 06a8 00000000 		.4byte	.LFB165
 16771 06ac 40000000 		.4byte	.LFE165-.LFB165
 16772 06b0 01       		.uleb128 0x1
 16773 06b1 9C       		.byte	0x9c
 16774 06b2 D5060000 		.4byte	0x6d5
 16775 06b6 19       		.uleb128 0x19
 16776 06b7 6F626A00 		.ascii	"obj\000"
 16777 06bb 01       		.byte	0x1
 16778 06bc 2B0A     		.2byte	0xa2b
 16779 06be 18060000 		.4byte	0x618
 16780 06c2 02       		.uleb128 0x2
 16781 06c3 91       		.byte	0x91
 16782 06c4 6C       		.sleb128 -20
 16783 06c5 1A       		.uleb128 0x1a
 16784 06c6 D60A0000 		.4byte	.LASF71
 16785 06ca 01       		.byte	0x1
 16786 06cb 2B0A     		.2byte	0xa2b
 16787 06cd 24060000 		.4byte	0x624
 16788 06d1 02       		.uleb128 0x2
 16789 06d2 91       		.byte	0x91
 16790 06d3 68       		.sleb128 -24
 16791 06d4 00       		.byte	0
 16792 06d5 18       		.uleb128 0x18
 16793 06d6 44050000 		.4byte	.LASF146
 16794 06da 01       		.byte	0x1
 16795 06db 1E0A     		.2byte	0xa1e
 16796 06dd 61010000 		.4byte	0x161
 16797 06e1 00000000 		.4byte	.LFB164
 16798 06e5 48000000 		.4byte	.LFE164-.LFB164
 16799 06e9 01       		.uleb128 0x1
 16800 06ea 9C       		.byte	0x9c
 16801 06eb 0E070000 		.4byte	0x70e
 16802 06ef 19       		.uleb128 0x19
 16803 06f0 6F626A00 		.ascii	"obj\000"
 16804 06f4 01       		.byte	0x1
 16805 06f5 1E0A     		.2byte	0xa1e
 16806 06f7 18060000 		.4byte	0x618
 16807 06fb 02       		.uleb128 0x2
ARM GAS  C:\Users\PCHAUT~1\AppData\Local\Temp\ccacj52E.s 			page 297


 16808 06fc 91       		.byte	0x91
 16809 06fd 6C       		.sleb128 -20
 16810 06fe 1A       		.uleb128 0x1a
 16811 06ff D60A0000 		.4byte	.LASF71
 16812 0703 01       		.byte	0x1
 16813 0704 1E0A     		.2byte	0xa1e
 16814 0706 24060000 		.4byte	0x624
 16815 070a 02       		.uleb128 0x2
 16816 070b 91       		.byte	0x91
 16817 070c 68       		.sleb128 -24
 16818 070d 00       		.byte	0
 16819 070e 18       		.uleb128 0x18
 16820 070f 21130000 		.4byte	.LASF147
 16821 0713 01       		.byte	0x1
 16822 0714 110A     		.2byte	0xa11
 16823 0716 61010000 		.4byte	0x161
 16824 071a 00000000 		.4byte	.LFB163
 16825 071e 4C000000 		.4byte	.LFE163-.LFB163
 16826 0722 01       		.uleb128 0x1
 16827 0723 9C       		.byte	0x9c
 16828 0724 45070000 		.4byte	0x745
 16829 0728 19       		.uleb128 0x19
 16830 0729 6F626A00 		.ascii	"obj\000"
 16831 072d 01       		.byte	0x1
 16832 072e 110A     		.2byte	0xa11
 16833 0730 18060000 		.4byte	0x618
 16834 0734 02       		.uleb128 0x2
 16835 0735 91       		.byte	0x91
 16836 0736 6C       		.sleb128 -20
 16837 0737 19       		.uleb128 0x19
 16838 0738 6200     		.ascii	"b\000"
 16839 073a 01       		.byte	0x1
 16840 073b 110A     		.2byte	0xa11
 16841 073d 45070000 		.4byte	0x745
 16842 0741 02       		.uleb128 0x2
 16843 0742 91       		.byte	0x91
 16844 0743 68       		.sleb128 -24
 16845 0744 00       		.byte	0
 16846 0745 06       		.uleb128 0x6
 16847 0746 04       		.byte	0x4
 16848 0747 61010000 		.4byte	0x161
 16849 074b 18       		.uleb128 0x18
 16850 074c 94030000 		.4byte	.LASF148
 16851 0750 01       		.byte	0x1
 16852 0751 080A     		.2byte	0xa08
 16853 0753 61010000 		.4byte	0x161
 16854 0757 00000000 		.4byte	.LFB162
 16855 075b 40000000 		.4byte	.LFE162-.LFB162
 16856 075f 01       		.uleb128 0x1
 16857 0760 9C       		.byte	0x9c
 16858 0761 82070000 		.4byte	0x782
 16859 0765 19       		.uleb128 0x19
 16860 0766 6F626A00 		.ascii	"obj\000"
 16861 076a 01       		.byte	0x1
 16862 076b 080A     		.2byte	0xa08
 16863 076d 18060000 		.4byte	0x618
 16864 0771 02       		.uleb128 0x2
ARM GAS  C:\Users\PCHAUT~1\AppData\Local\Temp\ccacj52E.s 			page 298


 16865 0772 91       		.byte	0x91
 16866 0773 6C       		.sleb128 -20
 16867 0774 19       		.uleb128 0x19
 16868 0775 6400     		.ascii	"d\000"
 16869 0777 01       		.byte	0x1
 16870 0778 080A     		.2byte	0xa08
 16871 077a 82070000 		.4byte	0x782
 16872 077e 02       		.uleb128 0x2
 16873 077f 91       		.byte	0x91
 16874 0780 68       		.sleb128 -24
 16875 0781 00       		.byte	0
 16876 0782 06       		.uleb128 0x6
 16877 0783 04       		.byte	0x4
 16878 0784 B0030000 		.4byte	0x3b0
 16879 0788 18       		.uleb128 0x18
 16880 0789 E0070000 		.4byte	.LASF149
 16881 078d 01       		.byte	0x1
 16882 078e FF09     		.2byte	0x9ff
 16883 0790 61010000 		.4byte	0x161
 16884 0794 00000000 		.4byte	.LFB161
 16885 0798 40000000 		.4byte	.LFE161-.LFB161
 16886 079c 01       		.uleb128 0x1
 16887 079d 9C       		.byte	0x9c
 16888 079e BF070000 		.4byte	0x7bf
 16889 07a2 19       		.uleb128 0x19
 16890 07a3 6F626A00 		.ascii	"obj\000"
 16891 07a7 01       		.byte	0x1
 16892 07a8 FF09     		.2byte	0x9ff
 16893 07aa 18060000 		.4byte	0x618
 16894 07ae 02       		.uleb128 0x2
 16895 07af 91       		.byte	0x91
 16896 07b0 6C       		.sleb128 -20
 16897 07b1 19       		.uleb128 0x19
 16898 07b2 6600     		.ascii	"f\000"
 16899 07b4 01       		.byte	0x1
 16900 07b5 FF09     		.2byte	0x9ff
 16901 07b7 BF070000 		.4byte	0x7bf
 16902 07bb 02       		.uleb128 0x2
 16903 07bc 91       		.byte	0x91
 16904 07bd 68       		.sleb128 -24
 16905 07be 00       		.byte	0
 16906 07bf 06       		.uleb128 0x6
 16907 07c0 04       		.byte	0x4
 16908 07c1 A9030000 		.4byte	0x3a9
 16909 07c5 18       		.uleb128 0x18
 16910 07c6 A4070000 		.4byte	.LASF150
 16911 07ca 01       		.byte	0x1
 16912 07cb FB09     		.2byte	0x9fb
 16913 07cd 61010000 		.4byte	0x161
 16914 07d1 00000000 		.4byte	.LFB160
 16915 07d5 34000000 		.4byte	.LFE160-.LFB160
 16916 07d9 01       		.uleb128 0x1
 16917 07da 9C       		.byte	0x9c
 16918 07db FC070000 		.4byte	0x7fc
 16919 07df 19       		.uleb128 0x19
 16920 07e0 6F626A00 		.ascii	"obj\000"
 16921 07e4 01       		.byte	0x1
ARM GAS  C:\Users\PCHAUT~1\AppData\Local\Temp\ccacj52E.s 			page 299


 16922 07e5 FB09     		.2byte	0x9fb
 16923 07e7 18060000 		.4byte	0x618
 16924 07eb 02       		.uleb128 0x2
 16925 07ec 91       		.byte	0x91
 16926 07ed 6C       		.sleb128 -20
 16927 07ee 19       		.uleb128 0x19
 16928 07ef 6400     		.ascii	"d\000"
 16929 07f1 01       		.byte	0x1
 16930 07f2 FB09     		.2byte	0x9fb
 16931 07f4 FC070000 		.4byte	0x7fc
 16932 07f8 02       		.uleb128 0x2
 16933 07f9 91       		.byte	0x91
 16934 07fa 68       		.sleb128 -24
 16935 07fb 00       		.byte	0
 16936 07fc 06       		.uleb128 0x6
 16937 07fd 04       		.byte	0x4
 16938 07fe 2C010000 		.4byte	0x12c
 16939 0802 18       		.uleb128 0x18
 16940 0803 3F000000 		.4byte	.LASF151
 16941 0807 01       		.byte	0x1
 16942 0808 E709     		.2byte	0x9e7
 16943 080a 61010000 		.4byte	0x161
 16944 080e 00000000 		.4byte	.LFB159
 16945 0812 C8000000 		.4byte	.LFE159-.LFB159
 16946 0816 01       		.uleb128 0x1
 16947 0817 9C       		.byte	0x9c
 16948 0818 39080000 		.4byte	0x839
 16949 081c 19       		.uleb128 0x19
 16950 081d 6F626A00 		.ascii	"obj\000"
 16951 0821 01       		.byte	0x1
 16952 0822 E709     		.2byte	0x9e7
 16953 0824 18060000 		.4byte	0x618
 16954 0828 02       		.uleb128 0x2
 16955 0829 91       		.byte	0x91
 16956 082a 6C       		.sleb128 -20
 16957 082b 19       		.uleb128 0x19
 16958 082c 7500     		.ascii	"u\000"
 16959 082e 01       		.byte	0x1
 16960 082f E709     		.2byte	0x9e7
 16961 0831 FC070000 		.4byte	0x7fc
 16962 0835 02       		.uleb128 0x2
 16963 0836 91       		.byte	0x91
 16964 0837 68       		.sleb128 -24
 16965 0838 00       		.byte	0
 16966 0839 18       		.uleb128 0x18
 16967 083a 02080000 		.4byte	.LASF152
 16968 083e 01       		.byte	0x1
 16969 083f D609     		.2byte	0x9d6
 16970 0841 61010000 		.4byte	0x161
 16971 0845 00000000 		.4byte	.LFB158
 16972 0849 A4000000 		.4byte	.LFE158-.LFB158
 16973 084d 01       		.uleb128 0x1
 16974 084e 9C       		.byte	0x9c
 16975 084f 70080000 		.4byte	0x870
 16976 0853 19       		.uleb128 0x19
 16977 0854 6F626A00 		.ascii	"obj\000"
 16978 0858 01       		.byte	0x1
ARM GAS  C:\Users\PCHAUT~1\AppData\Local\Temp\ccacj52E.s 			page 300


 16979 0859 D609     		.2byte	0x9d6
 16980 085b 18060000 		.4byte	0x618
 16981 085f 02       		.uleb128 0x2
 16982 0860 91       		.byte	0x91
 16983 0861 6C       		.sleb128 -20
 16984 0862 19       		.uleb128 0x19
 16985 0863 6900     		.ascii	"i\000"
 16986 0865 01       		.byte	0x1
 16987 0866 D609     		.2byte	0x9d6
 16988 0868 24060000 		.4byte	0x624
 16989 086c 02       		.uleb128 0x2
 16990 086d 91       		.byte	0x91
 16991 086e 68       		.sleb128 -24
 16992 086f 00       		.byte	0
 16993 0870 18       		.uleb128 0x18
 16994 0871 7F030000 		.4byte	.LASF153
 16995 0875 01       		.byte	0x1
 16996 0876 C809     		.2byte	0x9c8
 16997 0878 61010000 		.4byte	0x161
 16998 087c 00000000 		.4byte	.LFB157
 16999 0880 54000000 		.4byte	.LFE157-.LFB157
 17000 0884 01       		.uleb128 0x1
 17001 0885 9C       		.byte	0x9c
 17002 0886 A7080000 		.4byte	0x8a7
 17003 088a 19       		.uleb128 0x19
 17004 088b 6F626A00 		.ascii	"obj\000"
 17005 088f 01       		.byte	0x1
 17006 0890 C809     		.2byte	0x9c8
 17007 0892 18060000 		.4byte	0x618
 17008 0896 02       		.uleb128 0x2
 17009 0897 91       		.byte	0x91
 17010 0898 6C       		.sleb128 -20
 17011 0899 19       		.uleb128 0x19
 17012 089a 7300     		.ascii	"s\000"
 17013 089c 01       		.byte	0x1
 17014 089d C809     		.2byte	0x9c8
 17015 089f A7080000 		.4byte	0x8a7
 17016 08a3 02       		.uleb128 0x2
 17017 08a4 91       		.byte	0x91
 17018 08a5 68       		.sleb128 -24
 17019 08a6 00       		.byte	0
 17020 08a7 06       		.uleb128 0x6
 17021 08a8 04       		.byte	0x4
 17022 08a9 F6000000 		.4byte	0xf6
 17023 08ad 18       		.uleb128 0x18
 17024 08ae F8030000 		.4byte	.LASF154
 17025 08b2 01       		.byte	0x1
 17026 08b3 BD09     		.2byte	0x9bd
 17027 08b5 61010000 		.4byte	0x161
 17028 08b9 00000000 		.4byte	.LFB156
 17029 08bd 44000000 		.4byte	.LFE156-.LFB156
 17030 08c1 01       		.uleb128 0x1
 17031 08c2 9C       		.byte	0x9c
 17032 08c3 E4080000 		.4byte	0x8e4
 17033 08c7 19       		.uleb128 0x19
 17034 08c8 6F626A00 		.ascii	"obj\000"
 17035 08cc 01       		.byte	0x1
ARM GAS  C:\Users\PCHAUT~1\AppData\Local\Temp\ccacj52E.s 			page 301


 17036 08cd BD09     		.2byte	0x9bd
 17037 08cf 18060000 		.4byte	0x618
 17038 08d3 02       		.uleb128 0x2
 17039 08d4 91       		.byte	0x91
 17040 08d5 6C       		.sleb128 -20
 17041 08d6 19       		.uleb128 0x19
 17042 08d7 6300     		.ascii	"c\000"
 17043 08d9 01       		.byte	0x1
 17044 08da BD09     		.2byte	0x9bd
 17045 08dc E4080000 		.4byte	0x8e4
 17046 08e0 02       		.uleb128 0x2
 17047 08e1 91       		.byte	0x91
 17048 08e2 68       		.sleb128 -24
 17049 08e3 00       		.byte	0
 17050 08e4 06       		.uleb128 0x6
 17051 08e5 04       		.byte	0x4
 17052 08e6 E0000000 		.4byte	0xe0
 17053 08ea 18       		.uleb128 0x18
 17054 08eb 080D0000 		.4byte	.LASF155
 17055 08ef 01       		.byte	0x1
 17056 08f0 B909     		.2byte	0x9b9
 17057 08f2 61010000 		.4byte	0x161
 17058 08f6 00000000 		.4byte	.LFB155
 17059 08fa 34000000 		.4byte	.LFE155-.LFB155
 17060 08fe 01       		.uleb128 0x1
 17061 08ff 9C       		.byte	0x9c
 17062 0900 21090000 		.4byte	0x921
 17063 0904 19       		.uleb128 0x19
 17064 0905 6F626A00 		.ascii	"obj\000"
 17065 0909 01       		.byte	0x1
 17066 090a B909     		.2byte	0x9b9
 17067 090c 18060000 		.4byte	0x618
 17068 0910 02       		.uleb128 0x2
 17069 0911 91       		.byte	0x91
 17070 0912 6C       		.sleb128 -20
 17071 0913 19       		.uleb128 0x19
 17072 0914 6400     		.ascii	"d\000"
 17073 0916 01       		.byte	0x1
 17074 0917 B909     		.2byte	0x9b9
 17075 0919 21090000 		.4byte	0x921
 17076 091d 02       		.uleb128 0x2
 17077 091e 91       		.byte	0x91
 17078 091f 68       		.sleb128 -24
 17079 0920 00       		.byte	0
 17080 0921 06       		.uleb128 0x6
 17081 0922 04       		.byte	0x4
 17082 0923 21010000 		.4byte	0x121
 17083 0927 18       		.uleb128 0x18
 17084 0928 830B0000 		.4byte	.LASF156
 17085 092c 01       		.byte	0x1
 17086 092d 9609     		.2byte	0x996
 17087 092f 61010000 		.4byte	0x161
 17088 0933 00000000 		.4byte	.LFB154
 17089 0937 6C010000 		.4byte	.LFE154-.LFB154
 17090 093b 01       		.uleb128 0x1
 17091 093c 9C       		.byte	0x9c
 17092 093d 5E090000 		.4byte	0x95e
ARM GAS  C:\Users\PCHAUT~1\AppData\Local\Temp\ccacj52E.s 			page 302


 17093 0941 19       		.uleb128 0x19
 17094 0942 6F626A00 		.ascii	"obj\000"
 17095 0946 01       		.byte	0x1
 17096 0947 9609     		.2byte	0x996
 17097 0949 18060000 		.4byte	0x618
 17098 094d 02       		.uleb128 0x2
 17099 094e 91       		.byte	0x91
 17100 094f 6C       		.sleb128 -20
 17101 0950 19       		.uleb128 0x19
 17102 0951 6400     		.ascii	"d\000"
 17103 0953 01       		.byte	0x1
 17104 0954 9609     		.2byte	0x996
 17105 0956 21090000 		.4byte	0x921
 17106 095a 02       		.uleb128 0x2
 17107 095b 91       		.byte	0x91
 17108 095c 68       		.sleb128 -24
 17109 095d 00       		.byte	0
 17110 095e 18       		.uleb128 0x18
 17111 095f 5F130000 		.4byte	.LASF157
 17112 0963 01       		.byte	0x1
 17113 0964 7909     		.2byte	0x979
 17114 0966 61010000 		.4byte	0x161
 17115 096a 00000000 		.4byte	.LFB153
 17116 096e 24010000 		.4byte	.LFE153-.LFB153
 17117 0972 01       		.uleb128 0x1
 17118 0973 9C       		.byte	0x9c
 17119 0974 95090000 		.4byte	0x995
 17120 0978 19       		.uleb128 0x19
 17121 0979 6F626A00 		.ascii	"obj\000"
 17122 097d 01       		.byte	0x1
 17123 097e 7909     		.2byte	0x979
 17124 0980 18060000 		.4byte	0x618
 17125 0984 02       		.uleb128 0x2
 17126 0985 91       		.byte	0x91
 17127 0986 6C       		.sleb128 -20
 17128 0987 19       		.uleb128 0x19
 17129 0988 6900     		.ascii	"i\000"
 17130 098a 01       		.byte	0x1
 17131 098b 7909     		.2byte	0x979
 17132 098d 95090000 		.4byte	0x995
 17133 0991 02       		.uleb128 0x2
 17134 0992 91       		.byte	0x91
 17135 0993 68       		.sleb128 -24
 17136 0994 00       		.byte	0
 17137 0995 06       		.uleb128 0x6
 17138 0996 04       		.byte	0x4
 17139 0997 01010000 		.4byte	0x101
 17140 099b 18       		.uleb128 0x18
 17141 099c 7A0D0000 		.4byte	.LASF158
 17142 09a0 01       		.byte	0x1
 17143 09a1 6209     		.2byte	0x962
 17144 09a3 61010000 		.4byte	0x161
 17145 09a7 00000000 		.4byte	.LFB152
 17146 09ab 08010000 		.4byte	.LFE152-.LFB152
 17147 09af 01       		.uleb128 0x1
 17148 09b0 9C       		.byte	0x9c
 17149 09b1 D2090000 		.4byte	0x9d2
ARM GAS  C:\Users\PCHAUT~1\AppData\Local\Temp\ccacj52E.s 			page 303


 17150 09b5 19       		.uleb128 0x19
 17151 09b6 6F626A00 		.ascii	"obj\000"
 17152 09ba 01       		.byte	0x1
 17153 09bb 6209     		.2byte	0x962
 17154 09bd 18060000 		.4byte	0x618
 17155 09c1 02       		.uleb128 0x2
 17156 09c2 91       		.byte	0x91
 17157 09c3 6C       		.sleb128 -20
 17158 09c4 19       		.uleb128 0x19
 17159 09c5 7300     		.ascii	"s\000"
 17160 09c7 01       		.byte	0x1
 17161 09c8 6209     		.2byte	0x962
 17162 09ca D2090000 		.4byte	0x9d2
 17163 09ce 02       		.uleb128 0x2
 17164 09cf 91       		.byte	0x91
 17165 09d0 68       		.sleb128 -24
 17166 09d1 00       		.byte	0
 17167 09d2 06       		.uleb128 0x6
 17168 09d3 04       		.byte	0x4
 17169 09d4 EB000000 		.4byte	0xeb
 17170 09d8 18       		.uleb128 0x18
 17171 09d9 7A0F0000 		.4byte	.LASF159
 17172 09dd 01       		.byte	0x1
 17173 09de 5109     		.2byte	0x951
 17174 09e0 61010000 		.4byte	0x161
 17175 09e4 00000000 		.4byte	.LFB151
 17176 09e8 EC000000 		.4byte	.LFE151-.LFB151
 17177 09ec 01       		.uleb128 0x1
 17178 09ed 9C       		.byte	0x9c
 17179 09ee 0F0A0000 		.4byte	0xa0f
 17180 09f2 19       		.uleb128 0x19
 17181 09f3 6F626A00 		.ascii	"obj\000"
 17182 09f7 01       		.byte	0x1
 17183 09f8 5109     		.2byte	0x951
 17184 09fa 18060000 		.4byte	0x618
 17185 09fe 02       		.uleb128 0x2
 17186 09ff 91       		.byte	0x91
 17187 0a00 6C       		.sleb128 -20
 17188 0a01 19       		.uleb128 0x19
 17189 0a02 6300     		.ascii	"c\000"
 17190 0a04 01       		.byte	0x1
 17191 0a05 5109     		.2byte	0x951
 17192 0a07 1E060000 		.4byte	0x61e
 17193 0a0b 02       		.uleb128 0x2
 17194 0a0c 91       		.byte	0x91
 17195 0a0d 68       		.sleb128 -24
 17196 0a0e 00       		.byte	0
 17197 0a0f 18       		.uleb128 0x18
 17198 0a10 B0120000 		.4byte	.LASF160
 17199 0a14 01       		.byte	0x1
 17200 0a15 4109     		.2byte	0x941
 17201 0a17 61010000 		.4byte	0x161
 17202 0a1b 00000000 		.4byte	.LFB150
 17203 0a1f 84000000 		.4byte	.LFE150-.LFB150
 17204 0a23 01       		.uleb128 0x1
 17205 0a24 9C       		.byte	0x9c
 17206 0a25 390A0000 		.4byte	0xa39
ARM GAS  C:\Users\PCHAUT~1\AppData\Local\Temp\ccacj52E.s 			page 304


 17207 0a29 19       		.uleb128 0x19
 17208 0a2a 6F626A00 		.ascii	"obj\000"
 17209 0a2e 01       		.byte	0x1
 17210 0a2f 4109     		.2byte	0x941
 17211 0a31 18060000 		.4byte	0x618
 17212 0a35 02       		.uleb128 0x2
 17213 0a36 91       		.byte	0x91
 17214 0a37 6C       		.sleb128 -20
 17215 0a38 00       		.byte	0
 17216 0a39 18       		.uleb128 0x18
 17217 0a3a 9B0A0000 		.4byte	.LASF161
 17218 0a3e 01       		.byte	0x1
 17219 0a3f 3609     		.2byte	0x936
 17220 0a41 61010000 		.4byte	0x161
 17221 0a45 00000000 		.4byte	.LFB149
 17222 0a49 40000000 		.4byte	.LFE149-.LFB149
 17223 0a4d 01       		.uleb128 0x1
 17224 0a4e 9C       		.byte	0x9c
 17225 0a4f 630A0000 		.4byte	0xa63
 17226 0a53 19       		.uleb128 0x19
 17227 0a54 6F626A00 		.ascii	"obj\000"
 17228 0a58 01       		.byte	0x1
 17229 0a59 3609     		.2byte	0x936
 17230 0a5b 18060000 		.4byte	0x618
 17231 0a5f 02       		.uleb128 0x2
 17232 0a60 91       		.byte	0x91
 17233 0a61 6C       		.sleb128 -20
 17234 0a62 00       		.byte	0
 17235 0a63 18       		.uleb128 0x18
 17236 0a64 EE0D0000 		.4byte	.LASF162
 17237 0a68 01       		.byte	0x1
 17238 0a69 2B09     		.2byte	0x92b
 17239 0a6b 61010000 		.4byte	0x161
 17240 0a6f 00000000 		.4byte	.LFB148
 17241 0a73 40000000 		.4byte	.LFE148-.LFB148
 17242 0a77 01       		.uleb128 0x1
 17243 0a78 9C       		.byte	0x9c
 17244 0a79 8D0A0000 		.4byte	0xa8d
 17245 0a7d 19       		.uleb128 0x19
 17246 0a7e 6F626A00 		.ascii	"obj\000"
 17247 0a82 01       		.byte	0x1
 17248 0a83 2B09     		.2byte	0x92b
 17249 0a85 18060000 		.4byte	0x618
 17250 0a89 02       		.uleb128 0x2
 17251 0a8a 91       		.byte	0x91
 17252 0a8b 6C       		.sleb128 -20
 17253 0a8c 00       		.byte	0
 17254 0a8d 18       		.uleb128 0x18
 17255 0a8e C50D0000 		.4byte	.LASF163
 17256 0a92 01       		.byte	0x1
 17257 0a93 2009     		.2byte	0x920
 17258 0a95 61010000 		.4byte	0x161
 17259 0a99 00000000 		.4byte	.LFB147
 17260 0a9d 38000000 		.4byte	.LFE147-.LFB147
 17261 0aa1 01       		.uleb128 0x1
 17262 0aa2 9C       		.byte	0x9c
 17263 0aa3 B70A0000 		.4byte	0xab7
ARM GAS  C:\Users\PCHAUT~1\AppData\Local\Temp\ccacj52E.s 			page 305


 17264 0aa7 19       		.uleb128 0x19
 17265 0aa8 6F626A00 		.ascii	"obj\000"
 17266 0aac 01       		.byte	0x1
 17267 0aad 2009     		.2byte	0x920
 17268 0aaf 18060000 		.4byte	0x618
 17269 0ab3 02       		.uleb128 0x2
 17270 0ab4 91       		.byte	0x91
 17271 0ab5 6C       		.sleb128 -20
 17272 0ab6 00       		.byte	0
 17273 0ab7 18       		.uleb128 0x18
 17274 0ab8 4F0B0000 		.4byte	.LASF164
 17275 0abc 01       		.byte	0x1
 17276 0abd 1409     		.2byte	0x914
 17277 0abf 61010000 		.4byte	0x161
 17278 0ac3 00000000 		.4byte	.LFB146
 17279 0ac7 40000000 		.4byte	.LFE146-.LFB146
 17280 0acb 01       		.uleb128 0x1
 17281 0acc 9C       		.byte	0x9c
 17282 0acd E10A0000 		.4byte	0xae1
 17283 0ad1 19       		.uleb128 0x19
 17284 0ad2 6F626A00 		.ascii	"obj\000"
 17285 0ad6 01       		.byte	0x1
 17286 0ad7 1409     		.2byte	0x914
 17287 0ad9 18060000 		.4byte	0x618
 17288 0add 02       		.uleb128 0x2
 17289 0ade 91       		.byte	0x91
 17290 0adf 6C       		.sleb128 -20
 17291 0ae0 00       		.byte	0
 17292 0ae1 18       		.uleb128 0x18
 17293 0ae2 11060000 		.4byte	.LASF165
 17294 0ae6 01       		.byte	0x1
 17295 0ae7 0D09     		.2byte	0x90d
 17296 0ae9 61010000 		.4byte	0x161
 17297 0aed 00000000 		.4byte	.LFB145
 17298 0af1 34000000 		.4byte	.LFE145-.LFB145
 17299 0af5 01       		.uleb128 0x1
 17300 0af6 9C       		.byte	0x9c
 17301 0af7 0B0B0000 		.4byte	0xb0b
 17302 0afb 19       		.uleb128 0x19
 17303 0afc 6F626A00 		.ascii	"obj\000"
 17304 0b00 01       		.byte	0x1
 17305 0b01 0D09     		.2byte	0x90d
 17306 0b03 18060000 		.4byte	0x618
 17307 0b07 02       		.uleb128 0x2
 17308 0b08 91       		.byte	0x91
 17309 0b09 6C       		.sleb128 -20
 17310 0b0a 00       		.byte	0
 17311 0b0b 18       		.uleb128 0x18
 17312 0b0c D7080000 		.4byte	.LASF166
 17313 0b10 01       		.byte	0x1
 17314 0b11 0609     		.2byte	0x906
 17315 0b13 61010000 		.4byte	0x161
 17316 0b17 00000000 		.4byte	.LFB144
 17317 0b1b 34000000 		.4byte	.LFE144-.LFB144
 17318 0b1f 01       		.uleb128 0x1
 17319 0b20 9C       		.byte	0x9c
 17320 0b21 350B0000 		.4byte	0xb35
ARM GAS  C:\Users\PCHAUT~1\AppData\Local\Temp\ccacj52E.s 			page 306


 17321 0b25 19       		.uleb128 0x19
 17322 0b26 6F626A00 		.ascii	"obj\000"
 17323 0b2a 01       		.byte	0x1
 17324 0b2b 0609     		.2byte	0x906
 17325 0b2d 18060000 		.4byte	0x618
 17326 0b31 02       		.uleb128 0x2
 17327 0b32 91       		.byte	0x91
 17328 0b33 6C       		.sleb128 -20
 17329 0b34 00       		.byte	0
 17330 0b35 18       		.uleb128 0x18
 17331 0b36 6A090000 		.4byte	.LASF167
 17332 0b3a 01       		.byte	0x1
 17333 0b3b FF08     		.2byte	0x8ff
 17334 0b3d 61010000 		.4byte	0x161
 17335 0b41 00000000 		.4byte	.LFB143
 17336 0b45 34000000 		.4byte	.LFE143-.LFB143
 17337 0b49 01       		.uleb128 0x1
 17338 0b4a 9C       		.byte	0x9c
 17339 0b4b 5F0B0000 		.4byte	0xb5f
 17340 0b4f 19       		.uleb128 0x19
 17341 0b50 6F626A00 		.ascii	"obj\000"
 17342 0b54 01       		.byte	0x1
 17343 0b55 FF08     		.2byte	0x8ff
 17344 0b57 18060000 		.4byte	0x618
 17345 0b5b 02       		.uleb128 0x2
 17346 0b5c 91       		.byte	0x91
 17347 0b5d 6C       		.sleb128 -20
 17348 0b5e 00       		.byte	0
 17349 0b5f 18       		.uleb128 0x18
 17350 0b60 5E030000 		.4byte	.LASF168
 17351 0b64 01       		.byte	0x1
 17352 0b65 F808     		.2byte	0x8f8
 17353 0b67 61010000 		.4byte	0x161
 17354 0b6b 00000000 		.4byte	.LFB142
 17355 0b6f 34000000 		.4byte	.LFE142-.LFB142
 17356 0b73 01       		.uleb128 0x1
 17357 0b74 9C       		.byte	0x9c
 17358 0b75 890B0000 		.4byte	0xb89
 17359 0b79 19       		.uleb128 0x19
 17360 0b7a 6F626A00 		.ascii	"obj\000"
 17361 0b7e 01       		.byte	0x1
 17362 0b7f F808     		.2byte	0x8f8
 17363 0b81 18060000 		.4byte	0x618
 17364 0b85 02       		.uleb128 0x2
 17365 0b86 91       		.byte	0x91
 17366 0b87 6C       		.sleb128 -20
 17367 0b88 00       		.byte	0
 17368 0b89 18       		.uleb128 0x18
 17369 0b8a 9A000000 		.4byte	.LASF169
 17370 0b8e 01       		.byte	0x1
 17371 0b8f F408     		.2byte	0x8f4
 17372 0b91 61010000 		.4byte	0x161
 17373 0b95 00000000 		.4byte	.LFB141
 17374 0b99 30000000 		.4byte	.LFE141-.LFB141
 17375 0b9d 01       		.uleb128 0x1
 17376 0b9e 9C       		.byte	0x9c
 17377 0b9f B30B0000 		.4byte	0xbb3
ARM GAS  C:\Users\PCHAUT~1\AppData\Local\Temp\ccacj52E.s 			page 307


 17378 0ba3 19       		.uleb128 0x19
 17379 0ba4 6F626A00 		.ascii	"obj\000"
 17380 0ba8 01       		.byte	0x1
 17381 0ba9 F408     		.2byte	0x8f4
 17382 0bab 18060000 		.4byte	0x618
 17383 0baf 02       		.uleb128 0x2
 17384 0bb0 91       		.byte	0x91
 17385 0bb1 6C       		.sleb128 -20
 17386 0bb2 00       		.byte	0
 17387 0bb3 18       		.uleb128 0x18
 17388 0bb4 E9080000 		.4byte	.LASF170
 17389 0bb8 01       		.byte	0x1
 17390 0bb9 E708     		.2byte	0x8e7
 17391 0bbb 61010000 		.4byte	0x161
 17392 0bbf 00000000 		.4byte	.LFB140
 17393 0bc3 40000000 		.4byte	.LFE140-.LFB140
 17394 0bc7 01       		.uleb128 0x1
 17395 0bc8 9C       		.byte	0x9c
 17396 0bc9 DD0B0000 		.4byte	0xbdd
 17397 0bcd 19       		.uleb128 0x19
 17398 0bce 6F626A00 		.ascii	"obj\000"
 17399 0bd2 01       		.byte	0x1
 17400 0bd3 E708     		.2byte	0x8e7
 17401 0bd5 18060000 		.4byte	0x618
 17402 0bd9 02       		.uleb128 0x2
 17403 0bda 91       		.byte	0x91
 17404 0bdb 6C       		.sleb128 -20
 17405 0bdc 00       		.byte	0
 17406 0bdd 18       		.uleb128 0x18
 17407 0bde 700B0000 		.4byte	.LASF171
 17408 0be2 01       		.byte	0x1
 17409 0be3 DB08     		.2byte	0x8db
 17410 0be5 61010000 		.4byte	0x161
 17411 0be9 00000000 		.4byte	.LFB139
 17412 0bed 40000000 		.4byte	.LFE139-.LFB139
 17413 0bf1 01       		.uleb128 0x1
 17414 0bf2 9C       		.byte	0x9c
 17415 0bf3 070C0000 		.4byte	0xc07
 17416 0bf7 19       		.uleb128 0x19
 17417 0bf8 6F626A00 		.ascii	"obj\000"
 17418 0bfc 01       		.byte	0x1
 17419 0bfd DB08     		.2byte	0x8db
 17420 0bff 18060000 		.4byte	0x618
 17421 0c03 02       		.uleb128 0x2
 17422 0c04 91       		.byte	0x91
 17423 0c05 6C       		.sleb128 -20
 17424 0c06 00       		.byte	0
 17425 0c07 18       		.uleb128 0x18
 17426 0c08 55090000 		.4byte	.LASF172
 17427 0c0c 01       		.byte	0x1
 17428 0c0d CF08     		.2byte	0x8cf
 17429 0c0f 61010000 		.4byte	0x161
 17430 0c13 00000000 		.4byte	.LFB138
 17431 0c17 40000000 		.4byte	.LFE138-.LFB138
 17432 0c1b 01       		.uleb128 0x1
 17433 0c1c 9C       		.byte	0x9c
 17434 0c1d 310C0000 		.4byte	0xc31
ARM GAS  C:\Users\PCHAUT~1\AppData\Local\Temp\ccacj52E.s 			page 308


 17435 0c21 19       		.uleb128 0x19
 17436 0c22 6F626A00 		.ascii	"obj\000"
 17437 0c26 01       		.byte	0x1
 17438 0c27 CF08     		.2byte	0x8cf
 17439 0c29 18060000 		.4byte	0x618
 17440 0c2d 02       		.uleb128 0x2
 17441 0c2e 91       		.byte	0x91
 17442 0c2f 6C       		.sleb128 -20
 17443 0c30 00       		.byte	0
 17444 0c31 18       		.uleb128 0x18
 17445 0c32 D9010000 		.4byte	.LASF173
 17446 0c36 01       		.byte	0x1
 17447 0c37 C508     		.2byte	0x8c5
 17448 0c39 61010000 		.4byte	0x161
 17449 0c3d 00000000 		.4byte	.LFB137
 17450 0c41 38000000 		.4byte	.LFE137-.LFB137
 17451 0c45 01       		.uleb128 0x1
 17452 0c46 9C       		.byte	0x9c
 17453 0c47 5B0C0000 		.4byte	0xc5b
 17454 0c4b 19       		.uleb128 0x19
 17455 0c4c 6F626A00 		.ascii	"obj\000"
 17456 0c50 01       		.byte	0x1
 17457 0c51 C508     		.2byte	0x8c5
 17458 0c53 18060000 		.4byte	0x618
 17459 0c57 02       		.uleb128 0x2
 17460 0c58 91       		.byte	0x91
 17461 0c59 6C       		.sleb128 -20
 17462 0c5a 00       		.byte	0
 17463 0c5b 18       		.uleb128 0x18
 17464 0c5c 47030000 		.4byte	.LASF174
 17465 0c60 01       		.byte	0x1
 17466 0c61 C108     		.2byte	0x8c1
 17467 0c63 61010000 		.4byte	0x161
 17468 0c67 00000000 		.4byte	.LFB136
 17469 0c6b 30000000 		.4byte	.LFE136-.LFB136
 17470 0c6f 01       		.uleb128 0x1
 17471 0c70 9C       		.byte	0x9c
 17472 0c71 850C0000 		.4byte	0xc85
 17473 0c75 19       		.uleb128 0x19
 17474 0c76 6F626A00 		.ascii	"obj\000"
 17475 0c7a 01       		.byte	0x1
 17476 0c7b C108     		.2byte	0x8c1
 17477 0c7d 18060000 		.4byte	0x618
 17478 0c81 02       		.uleb128 0x2
 17479 0c82 91       		.byte	0x91
 17480 0c83 6C       		.sleb128 -20
 17481 0c84 00       		.byte	0
 17482 0c85 18       		.uleb128 0x18
 17483 0c86 02150000 		.4byte	.LASF175
 17484 0c8a 01       		.byte	0x1
 17485 0c8b B408     		.2byte	0x8b4
 17486 0c8d 61010000 		.4byte	0x161
 17487 0c91 00000000 		.4byte	.LFB135
 17488 0c95 3C000000 		.4byte	.LFE135-.LFB135
 17489 0c99 01       		.uleb128 0x1
 17490 0c9a 9C       		.byte	0x9c
 17491 0c9b AF0C0000 		.4byte	0xcaf
ARM GAS  C:\Users\PCHAUT~1\AppData\Local\Temp\ccacj52E.s 			page 309


 17492 0c9f 19       		.uleb128 0x19
 17493 0ca0 6F626A00 		.ascii	"obj\000"
 17494 0ca4 01       		.byte	0x1
 17495 0ca5 B408     		.2byte	0x8b4
 17496 0ca7 18060000 		.4byte	0x618
 17497 0cab 02       		.uleb128 0x2
 17498 0cac 91       		.byte	0x91
 17499 0cad 6C       		.sleb128 -20
 17500 0cae 00       		.byte	0
 17501 0caf 18       		.uleb128 0x18
 17502 0cb0 680F0000 		.4byte	.LASF176
 17503 0cb4 01       		.byte	0x1
 17504 0cb5 A808     		.2byte	0x8a8
 17505 0cb7 61010000 		.4byte	0x161
 17506 0cbb 00000000 		.4byte	.LFB134
 17507 0cbf 3C000000 		.4byte	.LFE134-.LFB134
 17508 0cc3 01       		.uleb128 0x1
 17509 0cc4 9C       		.byte	0x9c
 17510 0cc5 D90C0000 		.4byte	0xcd9
 17511 0cc9 19       		.uleb128 0x19
 17512 0cca 6F626A00 		.ascii	"obj\000"
 17513 0cce 01       		.byte	0x1
 17514 0ccf A808     		.2byte	0x8a8
 17515 0cd1 18060000 		.4byte	0x618
 17516 0cd5 02       		.uleb128 0x2
 17517 0cd6 91       		.byte	0x91
 17518 0cd7 6C       		.sleb128 -20
 17519 0cd8 00       		.byte	0
 17520 0cd9 18       		.uleb128 0x18
 17521 0cda F6040000 		.4byte	.LASF177
 17522 0cde 01       		.byte	0x1
 17523 0cdf 9D08     		.2byte	0x89d
 17524 0ce1 61010000 		.4byte	0x161
 17525 0ce5 00000000 		.4byte	.LFB133
 17526 0ce9 3C000000 		.4byte	.LFE133-.LFB133
 17527 0ced 01       		.uleb128 0x1
 17528 0cee 9C       		.byte	0x9c
 17529 0cef 030D0000 		.4byte	0xd03
 17530 0cf3 19       		.uleb128 0x19
 17531 0cf4 6F626A00 		.ascii	"obj\000"
 17532 0cf8 01       		.byte	0x1
 17533 0cf9 9D08     		.2byte	0x89d
 17534 0cfb 18060000 		.4byte	0x618
 17535 0cff 02       		.uleb128 0x2
 17536 0d00 91       		.byte	0x91
 17537 0d01 6C       		.sleb128 -20
 17538 0d02 00       		.byte	0
 17539 0d03 18       		.uleb128 0x18
 17540 0d04 A9030000 		.4byte	.LASF178
 17541 0d08 01       		.byte	0x1
 17542 0d09 9308     		.2byte	0x893
 17543 0d0b 61010000 		.4byte	0x161
 17544 0d0f 00000000 		.4byte	.LFB132
 17545 0d13 38000000 		.4byte	.LFE132-.LFB132
 17546 0d17 01       		.uleb128 0x1
 17547 0d18 9C       		.byte	0x9c
 17548 0d19 2D0D0000 		.4byte	0xd2d
ARM GAS  C:\Users\PCHAUT~1\AppData\Local\Temp\ccacj52E.s 			page 310


 17549 0d1d 19       		.uleb128 0x19
 17550 0d1e 6F626A00 		.ascii	"obj\000"
 17551 0d22 01       		.byte	0x1
 17552 0d23 9308     		.2byte	0x893
 17553 0d25 18060000 		.4byte	0x618
 17554 0d29 02       		.uleb128 0x2
 17555 0d2a 91       		.byte	0x91
 17556 0d2b 6C       		.sleb128 -20
 17557 0d2c 00       		.byte	0
 17558 0d2d 18       		.uleb128 0x18
 17559 0d2e BF000000 		.4byte	.LASF179
 17560 0d32 01       		.byte	0x1
 17561 0d33 6F07     		.2byte	0x76f
 17562 0d35 61010000 		.4byte	0x161
 17563 0d39 00000000 		.4byte	.LFB131
 17564 0d3d 2C090000 		.4byte	.LFE131-.LFB131
 17565 0d41 01       		.uleb128 0x1
 17566 0d42 9C       		.byte	0x9c
 17567 0d43 F50D0000 		.4byte	0xdf5
 17568 0d47 19       		.uleb128 0x19
 17569 0d48 63747800 		.ascii	"ctx\000"
 17570 0d4c 01       		.byte	0x1
 17571 0d4d 6F07     		.2byte	0x76f
 17572 0d4f F50D0000 		.4byte	0xdf5
 17573 0d53 02       		.uleb128 0x2
 17574 0d54 91       		.byte	0x91
 17575 0d55 64       		.sleb128 -28
 17576 0d56 19       		.uleb128 0x19
 17577 0d57 6F626A00 		.ascii	"obj\000"
 17578 0d5b 01       		.byte	0x1
 17579 0d5c 6F07     		.2byte	0x76f
 17580 0d5e 18060000 		.4byte	0x618
 17581 0d62 02       		.uleb128 0x2
 17582 0d63 91       		.byte	0x91
 17583 0d64 60       		.sleb128 -32
 17584 0d65 1B       		.uleb128 0x1b
 17585 0d66 5B060000 		.4byte	.LASF180
 17586 0d6a 01       		.byte	0x1
 17587 0d6b 7007     		.2byte	0x770
 17588 0d6d E0000000 		.4byte	0xe0
 17589 0d71 02       		.uleb128 0x2
 17590 0d72 91       		.byte	0x91
 17591 0d73 6E       		.sleb128 -18
 17592 0d74 1C       		.uleb128 0x1c
 17593 0d75 C6010000 		.4byte	.LBB7
 17594 0d79 5E000000 		.4byte	.LBE7-.LBB7
 17595 0d7d A00D0000 		.4byte	0xda0
 17596 0d81 1B       		.uleb128 0x1b
 17597 0d82 47060000 		.4byte	.LASF181
 17598 0d86 01       		.byte	0x1
 17599 0d87 AA07     		.2byte	0x7aa
 17600 0d89 E0000000 		.4byte	0xe0
 17601 0d8d 02       		.uleb128 0x2
 17602 0d8e 91       		.byte	0x91
 17603 0d8f 6F       		.sleb128 -17
 17604 0d90 1B       		.uleb128 0x1b
 17605 0d91 230B0000 		.4byte	.LASF182
ARM GAS  C:\Users\PCHAUT~1\AppData\Local\Temp\ccacj52E.s 			page 311


 17606 0d95 01       		.byte	0x1
 17607 0d96 AB07     		.2byte	0x7ab
 17608 0d98 D5000000 		.4byte	0xd5
 17609 0d9c 02       		.uleb128 0x2
 17610 0d9d 91       		.byte	0x91
 17611 0d9e 70       		.sleb128 -16
 17612 0d9f 00       		.byte	0
 17613 0da0 1C       		.uleb128 0x1c
 17614 0da1 2E020000 		.4byte	.LBB8
 17615 0da5 66000000 		.4byte	.LBE8-.LBB8
 17616 0da9 CC0D0000 		.4byte	0xdcc
 17617 0dad 1B       		.uleb128 0x1b
 17618 0dae 230B0000 		.4byte	.LASF182
 17619 0db2 01       		.byte	0x1
 17620 0db3 BA07     		.2byte	0x7ba
 17621 0db5 D5000000 		.4byte	0xd5
 17622 0db9 02       		.uleb128 0x2
 17623 0dba 91       		.byte	0x91
 17624 0dbb 6F       		.sleb128 -17
 17625 0dbc 1B       		.uleb128 0x1b
 17626 0dbd 47060000 		.4byte	.LASF181
 17627 0dc1 01       		.byte	0x1
 17628 0dc2 BB07     		.2byte	0x7bb
 17629 0dc4 F6000000 		.4byte	0xf6
 17630 0dc8 02       		.uleb128 0x2
 17631 0dc9 91       		.byte	0x91
 17632 0dca 70       		.sleb128 -16
 17633 0dcb 00       		.byte	0
 17634 0dcc 1D       		.uleb128 0x1d
 17635 0dcd 9E020000 		.4byte	.LBB9
 17636 0dd1 68000000 		.4byte	.LBE9-.LBB9
 17637 0dd5 1B       		.uleb128 0x1b
 17638 0dd6 230B0000 		.4byte	.LASF182
 17639 0dda 01       		.byte	0x1
 17640 0ddb CA07     		.2byte	0x7ca
 17641 0ddd D5000000 		.4byte	0xd5
 17642 0de1 02       		.uleb128 0x2
 17643 0de2 91       		.byte	0x91
 17644 0de3 6F       		.sleb128 -17
 17645 0de4 1B       		.uleb128 0x1b
 17646 0de5 47060000 		.4byte	.LASF181
 17647 0de9 01       		.byte	0x1
 17648 0dea CB07     		.2byte	0x7cb
 17649 0dec 11010000 		.4byte	0x111
 17650 0df0 02       		.uleb128 0x2
 17651 0df1 91       		.byte	0x91
 17652 0df2 70       		.sleb128 -16
 17653 0df3 00       		.byte	0
 17654 0df4 00       		.byte	0
 17655 0df5 06       		.uleb128 0x6
 17656 0df6 04       		.byte	0x4
 17657 0df7 B7030000 		.4byte	0x3b7
 17658 0dfb 18       		.uleb128 0x18
 17659 0dfc 1C090000 		.4byte	.LASF183
 17660 0e00 01       		.byte	0x1
 17661 0e01 6407     		.2byte	0x764
 17662 0e03 61010000 		.4byte	0x161
ARM GAS  C:\Users\PCHAUT~1\AppData\Local\Temp\ccacj52E.s 			page 312


 17663 0e07 00000000 		.4byte	.LFB130
 17664 0e0b 68000000 		.4byte	.LFE130-.LFB130
 17665 0e0f 01       		.uleb128 0x1
 17666 0e10 9C       		.byte	0x9c
 17667 0e11 520E0000 		.4byte	0xe52
 17668 0e15 19       		.uleb128 0x19
 17669 0e16 63747800 		.ascii	"ctx\000"
 17670 0e1a 01       		.byte	0x1
 17671 0e1b 6407     		.2byte	0x764
 17672 0e1d F50D0000 		.4byte	0xdf5
 17673 0e21 02       		.uleb128 0x2
 17674 0e22 91       		.byte	0x91
 17675 0e23 6C       		.sleb128 -20
 17676 0e24 1A       		.uleb128 0x1a
 17677 0e25 C8110000 		.4byte	.LASF70
 17678 0e29 01       		.byte	0x1
 17679 0e2a 6407     		.2byte	0x764
 17680 0e2c 1E060000 		.4byte	0x61e
 17681 0e30 02       		.uleb128 0x2
 17682 0e31 91       		.byte	0x91
 17683 0e32 68       		.sleb128 -24
 17684 0e33 1A       		.uleb128 0x1a
 17685 0e34 D60A0000 		.4byte	.LASF71
 17686 0e38 01       		.byte	0x1
 17687 0e39 6407     		.2byte	0x764
 17688 0e3b 24060000 		.4byte	0x624
 17689 0e3f 02       		.uleb128 0x2
 17690 0e40 91       		.byte	0x91
 17691 0e41 64       		.sleb128 -28
 17692 0e42 1A       		.uleb128 0x1a
 17693 0e43 93080000 		.4byte	.LASF184
 17694 0e47 01       		.byte	0x1
 17695 0e48 6407     		.2byte	0x764
 17696 0e4a AB010000 		.4byte	0x1ab
 17697 0e4e 02       		.uleb128 0x2
 17698 0e4f 91       		.byte	0x91
 17699 0e50 60       		.sleb128 -32
 17700 0e51 00       		.byte	0
 17701 0e52 18       		.uleb128 0x18
 17702 0e53 16120000 		.4byte	.LASF185
 17703 0e57 01       		.byte	0x1
 17704 0e58 4C07     		.2byte	0x74c
 17705 0e5a 61010000 		.4byte	0x161
 17706 0e5e 00000000 		.4byte	.LFB129
 17707 0e62 B8000000 		.4byte	.LFE129-.LFB129
 17708 0e66 01       		.uleb128 0x1
 17709 0e67 9C       		.byte	0x9c
 17710 0e68 A90E0000 		.4byte	0xea9
 17711 0e6c 19       		.uleb128 0x19
 17712 0e6d 63747800 		.ascii	"ctx\000"
 17713 0e71 01       		.byte	0x1
 17714 0e72 4C07     		.2byte	0x74c
 17715 0e74 F50D0000 		.4byte	0xdf5
 17716 0e78 02       		.uleb128 0x2
 17717 0e79 91       		.byte	0x91
 17718 0e7a 5C       		.sleb128 -36
 17719 0e7b 1A       		.uleb128 0x1a
ARM GAS  C:\Users\PCHAUT~1\AppData\Local\Temp\ccacj52E.s 			page 313


 17720 0e7c C8110000 		.4byte	.LASF70
 17721 0e80 01       		.byte	0x1
 17722 0e81 4C07     		.2byte	0x74c
 17723 0e83 1E060000 		.4byte	0x61e
 17724 0e87 02       		.uleb128 0x2
 17725 0e88 91       		.byte	0x91
 17726 0e89 58       		.sleb128 -40
 17727 0e8a 1A       		.uleb128 0x1a
 17728 0e8b D60A0000 		.4byte	.LASF71
 17729 0e8f 01       		.byte	0x1
 17730 0e90 4C07     		.2byte	0x74c
 17731 0e92 24060000 		.4byte	0x624
 17732 0e96 02       		.uleb128 0x2
 17733 0e97 91       		.byte	0x91
 17734 0e98 54       		.sleb128 -44
 17735 0e99 1E       		.uleb128 0x1e
 17736 0e9a 6F626A00 		.ascii	"obj\000"
 17737 0e9e 01       		.byte	0x1
 17738 0e9f 4D07     		.2byte	0x74d
 17739 0ea1 E6030000 		.4byte	0x3e6
 17740 0ea5 02       		.uleb128 0x2
 17741 0ea6 91       		.byte	0x91
 17742 0ea7 60       		.sleb128 -32
 17743 0ea8 00       		.byte	0
 17744 0ea9 18       		.uleb128 0x18
 17745 0eaa 48040000 		.4byte	.LASF186
 17746 0eae 01       		.byte	0x1
 17747 0eaf 4107     		.2byte	0x741
 17748 0eb1 61010000 		.4byte	0x161
 17749 0eb5 00000000 		.4byte	.LFB128
 17750 0eb9 68000000 		.4byte	.LFE128-.LFB128
 17751 0ebd 01       		.uleb128 0x1
 17752 0ebe 9C       		.byte	0x9c
 17753 0ebf 000F0000 		.4byte	0xf00
 17754 0ec3 19       		.uleb128 0x19
 17755 0ec4 63747800 		.ascii	"ctx\000"
 17756 0ec8 01       		.byte	0x1
 17757 0ec9 4107     		.2byte	0x741
 17758 0ecb F50D0000 		.4byte	0xdf5
 17759 0ecf 02       		.uleb128 0x2
 17760 0ed0 91       		.byte	0x91
 17761 0ed1 6C       		.sleb128 -20
 17762 0ed2 1A       		.uleb128 0x1a
 17763 0ed3 C8110000 		.4byte	.LASF70
 17764 0ed7 01       		.byte	0x1
 17765 0ed8 4107     		.2byte	0x741
 17766 0eda 1E060000 		.4byte	0x61e
 17767 0ede 02       		.uleb128 0x2
 17768 0edf 91       		.byte	0x91
 17769 0ee0 68       		.sleb128 -24
 17770 0ee1 1A       		.uleb128 0x1a
 17771 0ee2 D60A0000 		.4byte	.LASF71
 17772 0ee6 01       		.byte	0x1
 17773 0ee7 4107     		.2byte	0x741
 17774 0ee9 24060000 		.4byte	0x624
 17775 0eed 02       		.uleb128 0x2
 17776 0eee 91       		.byte	0x91
ARM GAS  C:\Users\PCHAUT~1\AppData\Local\Temp\ccacj52E.s 			page 314


 17777 0eef 64       		.sleb128 -28
 17778 0ef0 1A       		.uleb128 0x1a
 17779 0ef1 93080000 		.4byte	.LASF184
 17780 0ef5 01       		.byte	0x1
 17781 0ef6 4107     		.2byte	0x741
 17782 0ef8 AB010000 		.4byte	0x1ab
 17783 0efc 02       		.uleb128 0x2
 17784 0efd 91       		.byte	0x91
 17785 0efe 60       		.sleb128 -32
 17786 0eff 00       		.byte	0
 17787 0f00 18       		.uleb128 0x18
 17788 0f01 29000000 		.4byte	.LASF187
 17789 0f05 01       		.byte	0x1
 17790 0f06 3007     		.2byte	0x730
 17791 0f08 61010000 		.4byte	0x161
 17792 0f0c 00000000 		.4byte	.LFB127
 17793 0f10 68000000 		.4byte	.LFE127-.LFB127
 17794 0f14 01       		.uleb128 0x1
 17795 0f15 9C       		.byte	0x9c
 17796 0f16 570F0000 		.4byte	0xf57
 17797 0f1a 19       		.uleb128 0x19
 17798 0f1b 63747800 		.ascii	"ctx\000"
 17799 0f1f 01       		.byte	0x1
 17800 0f20 3007     		.2byte	0x730
 17801 0f22 F50D0000 		.4byte	0xdf5
 17802 0f26 02       		.uleb128 0x2
 17803 0f27 91       		.byte	0x91
 17804 0f28 5C       		.sleb128 -36
 17805 0f29 1A       		.uleb128 0x1a
 17806 0f2a C8110000 		.4byte	.LASF70
 17807 0f2e 01       		.byte	0x1
 17808 0f2f 3007     		.2byte	0x730
 17809 0f31 1E060000 		.4byte	0x61e
 17810 0f35 02       		.uleb128 0x2
 17811 0f36 91       		.byte	0x91
 17812 0f37 58       		.sleb128 -40
 17813 0f38 1A       		.uleb128 0x1a
 17814 0f39 D60A0000 		.4byte	.LASF71
 17815 0f3d 01       		.byte	0x1
 17816 0f3e 3007     		.2byte	0x730
 17817 0f40 24060000 		.4byte	0x624
 17818 0f44 02       		.uleb128 0x2
 17819 0f45 91       		.byte	0x91
 17820 0f46 54       		.sleb128 -44
 17821 0f47 1E       		.uleb128 0x1e
 17822 0f48 6F626A00 		.ascii	"obj\000"
 17823 0f4c 01       		.byte	0x1
 17824 0f4d 3107     		.2byte	0x731
 17825 0f4f E6030000 		.4byte	0x3e6
 17826 0f53 02       		.uleb128 0x2
 17827 0f54 91       		.byte	0x91
 17828 0f55 60       		.sleb128 -32
 17829 0f56 00       		.byte	0
 17830 0f57 18       		.uleb128 0x18
 17831 0f58 89010000 		.4byte	.LASF188
 17832 0f5c 01       		.byte	0x1
 17833 0f5d 2507     		.2byte	0x725
ARM GAS  C:\Users\PCHAUT~1\AppData\Local\Temp\ccacj52E.s 			page 315


 17834 0f5f 61010000 		.4byte	0x161
 17835 0f63 00000000 		.4byte	.LFB126
 17836 0f67 68000000 		.4byte	.LFE126-.LFB126
 17837 0f6b 01       		.uleb128 0x1
 17838 0f6c 9C       		.byte	0x9c
 17839 0f6d AE0F0000 		.4byte	0xfae
 17840 0f71 19       		.uleb128 0x19
 17841 0f72 63747800 		.ascii	"ctx\000"
 17842 0f76 01       		.byte	0x1
 17843 0f77 2507     		.2byte	0x725
 17844 0f79 F50D0000 		.4byte	0xdf5
 17845 0f7d 02       		.uleb128 0x2
 17846 0f7e 91       		.byte	0x91
 17847 0f7f 6C       		.sleb128 -20
 17848 0f80 1A       		.uleb128 0x1a
 17849 0f81 C8110000 		.4byte	.LASF70
 17850 0f85 01       		.byte	0x1
 17851 0f86 2507     		.2byte	0x725
 17852 0f88 1E060000 		.4byte	0x61e
 17853 0f8c 02       		.uleb128 0x2
 17854 0f8d 91       		.byte	0x91
 17855 0f8e 68       		.sleb128 -24
 17856 0f8f 1A       		.uleb128 0x1a
 17857 0f90 D60A0000 		.4byte	.LASF71
 17858 0f94 01       		.byte	0x1
 17859 0f95 2507     		.2byte	0x725
 17860 0f97 A7080000 		.4byte	0x8a7
 17861 0f9b 02       		.uleb128 0x2
 17862 0f9c 91       		.byte	0x91
 17863 0f9d 64       		.sleb128 -28
 17864 0f9e 1A       		.uleb128 0x1a
 17865 0f9f 93080000 		.4byte	.LASF184
 17866 0fa3 01       		.byte	0x1
 17867 0fa4 2507     		.2byte	0x725
 17868 0fa6 AB010000 		.4byte	0x1ab
 17869 0faa 02       		.uleb128 0x2
 17870 0fab 91       		.byte	0x91
 17871 0fac 60       		.sleb128 -32
 17872 0fad 00       		.byte	0
 17873 0fae 18       		.uleb128 0x18
 17874 0faf E2030000 		.4byte	.LASF189
 17875 0fb3 01       		.byte	0x1
 17876 0fb4 1407     		.2byte	0x714
 17877 0fb6 61010000 		.4byte	0x161
 17878 0fba 00000000 		.4byte	.LFB125
 17879 0fbe 68000000 		.4byte	.LFE125-.LFB125
 17880 0fc2 01       		.uleb128 0x1
 17881 0fc3 9C       		.byte	0x9c
 17882 0fc4 05100000 		.4byte	0x1005
 17883 0fc8 19       		.uleb128 0x19
 17884 0fc9 63747800 		.ascii	"ctx\000"
 17885 0fcd 01       		.byte	0x1
 17886 0fce 1407     		.2byte	0x714
 17887 0fd0 F50D0000 		.4byte	0xdf5
 17888 0fd4 02       		.uleb128 0x2
 17889 0fd5 91       		.byte	0x91
 17890 0fd6 5C       		.sleb128 -36
ARM GAS  C:\Users\PCHAUT~1\AppData\Local\Temp\ccacj52E.s 			page 316


 17891 0fd7 1A       		.uleb128 0x1a
 17892 0fd8 C8110000 		.4byte	.LASF70
 17893 0fdc 01       		.byte	0x1
 17894 0fdd 1407     		.2byte	0x714
 17895 0fdf 1E060000 		.4byte	0x61e
 17896 0fe3 02       		.uleb128 0x2
 17897 0fe4 91       		.byte	0x91
 17898 0fe5 58       		.sleb128 -40
 17899 0fe6 1A       		.uleb128 0x1a
 17900 0fe7 D60A0000 		.4byte	.LASF71
 17901 0feb 01       		.byte	0x1
 17902 0fec 1407     		.2byte	0x714
 17903 0fee A7080000 		.4byte	0x8a7
 17904 0ff2 02       		.uleb128 0x2
 17905 0ff3 91       		.byte	0x91
 17906 0ff4 54       		.sleb128 -44
 17907 0ff5 1E       		.uleb128 0x1e
 17908 0ff6 6F626A00 		.ascii	"obj\000"
 17909 0ffa 01       		.byte	0x1
 17910 0ffb 1507     		.2byte	0x715
 17911 0ffd E6030000 		.4byte	0x3e6
 17912 1001 02       		.uleb128 0x2
 17913 1002 91       		.byte	0x91
 17914 1003 60       		.sleb128 -32
 17915 1004 00       		.byte	0
 17916 1005 18       		.uleb128 0x18
 17917 1006 BE010000 		.4byte	.LASF190
 17918 100a 01       		.byte	0x1
 17919 100b 0907     		.2byte	0x709
 17920 100d 61010000 		.4byte	0x161
 17921 1011 00000000 		.4byte	.LFB124
 17922 1015 68000000 		.4byte	.LFE124-.LFB124
 17923 1019 01       		.uleb128 0x1
 17924 101a 9C       		.byte	0x9c
 17925 101b 5C100000 		.4byte	0x105c
 17926 101f 19       		.uleb128 0x19
 17927 1020 63747800 		.ascii	"ctx\000"
 17928 1024 01       		.byte	0x1
 17929 1025 0907     		.2byte	0x709
 17930 1027 F50D0000 		.4byte	0xdf5
 17931 102b 02       		.uleb128 0x2
 17932 102c 91       		.byte	0x91
 17933 102d 6C       		.sleb128 -20
 17934 102e 1A       		.uleb128 0x1a
 17935 102f C8110000 		.4byte	.LASF70
 17936 1033 01       		.byte	0x1
 17937 1034 0907     		.2byte	0x709
 17938 1036 1E060000 		.4byte	0x61e
 17939 103a 02       		.uleb128 0x2
 17940 103b 91       		.byte	0x91
 17941 103c 68       		.sleb128 -24
 17942 103d 1A       		.uleb128 0x1a
 17943 103e D60A0000 		.4byte	.LASF71
 17944 1042 01       		.byte	0x1
 17945 1043 0907     		.2byte	0x709
 17946 1045 E4080000 		.4byte	0x8e4
 17947 1049 02       		.uleb128 0x2
ARM GAS  C:\Users\PCHAUT~1\AppData\Local\Temp\ccacj52E.s 			page 317


 17948 104a 91       		.byte	0x91
 17949 104b 64       		.sleb128 -28
 17950 104c 1A       		.uleb128 0x1a
 17951 104d 93080000 		.4byte	.LASF184
 17952 1051 01       		.byte	0x1
 17953 1052 0907     		.2byte	0x709
 17954 1054 AB010000 		.4byte	0x1ab
 17955 1058 02       		.uleb128 0x2
 17956 1059 91       		.byte	0x91
 17957 105a 60       		.sleb128 -32
 17958 105b 00       		.byte	0
 17959 105c 18       		.uleb128 0x18
 17960 105d 94050000 		.4byte	.LASF191
 17961 1061 01       		.byte	0x1
 17962 1062 F806     		.2byte	0x6f8
 17963 1064 61010000 		.4byte	0x161
 17964 1068 00000000 		.4byte	.LFB123
 17965 106c 68000000 		.4byte	.LFE123-.LFB123
 17966 1070 01       		.uleb128 0x1
 17967 1071 9C       		.byte	0x9c
 17968 1072 B3100000 		.4byte	0x10b3
 17969 1076 19       		.uleb128 0x19
 17970 1077 63747800 		.ascii	"ctx\000"
 17971 107b 01       		.byte	0x1
 17972 107c F806     		.2byte	0x6f8
 17973 107e F50D0000 		.4byte	0xdf5
 17974 1082 02       		.uleb128 0x2
 17975 1083 91       		.byte	0x91
 17976 1084 5C       		.sleb128 -36
 17977 1085 1A       		.uleb128 0x1a
 17978 1086 C8110000 		.4byte	.LASF70
 17979 108a 01       		.byte	0x1
 17980 108b F806     		.2byte	0x6f8
 17981 108d 1E060000 		.4byte	0x61e
 17982 1091 02       		.uleb128 0x2
 17983 1092 91       		.byte	0x91
 17984 1093 58       		.sleb128 -40
 17985 1094 1A       		.uleb128 0x1a
 17986 1095 D60A0000 		.4byte	.LASF71
 17987 1099 01       		.byte	0x1
 17988 109a F806     		.2byte	0x6f8
 17989 109c E4080000 		.4byte	0x8e4
 17990 10a0 02       		.uleb128 0x2
 17991 10a1 91       		.byte	0x91
 17992 10a2 54       		.sleb128 -44
 17993 10a3 1E       		.uleb128 0x1e
 17994 10a4 6F626A00 		.ascii	"obj\000"
 17995 10a8 01       		.byte	0x1
 17996 10a9 F906     		.2byte	0x6f9
 17997 10ab E6030000 		.4byte	0x3e6
 17998 10af 02       		.uleb128 0x2
 17999 10b0 91       		.byte	0x91
 18000 10b1 60       		.sleb128 -32
 18001 10b2 00       		.byte	0
 18002 10b3 18       		.uleb128 0x18
 18003 10b4 8B0C0000 		.4byte	.LASF192
 18004 10b8 01       		.byte	0x1
ARM GAS  C:\Users\PCHAUT~1\AppData\Local\Temp\ccacj52E.s 			page 318


 18005 10b9 ED06     		.2byte	0x6ed
 18006 10bb 61010000 		.4byte	0x161
 18007 10bf 00000000 		.4byte	.LFB122
 18008 10c3 60000000 		.4byte	.LFE122-.LFB122
 18009 10c7 01       		.uleb128 0x1
 18010 10c8 9C       		.byte	0x9c
 18011 10c9 FB100000 		.4byte	0x10fb
 18012 10cd 19       		.uleb128 0x19
 18013 10ce 63747800 		.ascii	"ctx\000"
 18014 10d2 01       		.byte	0x1
 18015 10d3 ED06     		.2byte	0x6ed
 18016 10d5 F50D0000 		.4byte	0xdf5
 18017 10d9 02       		.uleb128 0x2
 18018 10da 91       		.byte	0x91
 18019 10db 6C       		.sleb128 -20
 18020 10dc 1A       		.uleb128 0x1a
 18021 10dd C8110000 		.4byte	.LASF70
 18022 10e1 01       		.byte	0x1
 18023 10e2 ED06     		.2byte	0x6ed
 18024 10e4 1E060000 		.4byte	0x61e
 18025 10e8 02       		.uleb128 0x2
 18026 10e9 91       		.byte	0x91
 18027 10ea 68       		.sleb128 -24
 18028 10eb 1A       		.uleb128 0x1a
 18029 10ec 93080000 		.4byte	.LASF184
 18030 10f0 01       		.byte	0x1
 18031 10f1 ED06     		.2byte	0x6ed
 18032 10f3 AB010000 		.4byte	0x1ab
 18033 10f7 02       		.uleb128 0x2
 18034 10f8 91       		.byte	0x91
 18035 10f9 64       		.sleb128 -28
 18036 10fa 00       		.byte	0
 18037 10fb 18       		.uleb128 0x18
 18038 10fc FD110000 		.4byte	.LASF193
 18039 1100 01       		.byte	0x1
 18040 1101 DE06     		.2byte	0x6de
 18041 1103 61010000 		.4byte	0x161
 18042 1107 00000000 		.4byte	.LFB121
 18043 110b 60000000 		.4byte	.LFE121-.LFB121
 18044 110f 01       		.uleb128 0x1
 18045 1110 9C       		.byte	0x9c
 18046 1111 43110000 		.4byte	0x1143
 18047 1115 19       		.uleb128 0x19
 18048 1116 63747800 		.ascii	"ctx\000"
 18049 111a 01       		.byte	0x1
 18050 111b DE06     		.2byte	0x6de
 18051 111d F50D0000 		.4byte	0xdf5
 18052 1121 02       		.uleb128 0x2
 18053 1122 91       		.byte	0x91
 18054 1123 5C       		.sleb128 -36
 18055 1124 1A       		.uleb128 0x1a
 18056 1125 C8110000 		.4byte	.LASF70
 18057 1129 01       		.byte	0x1
 18058 112a DE06     		.2byte	0x6de
 18059 112c 1E060000 		.4byte	0x61e
 18060 1130 02       		.uleb128 0x2
 18061 1131 91       		.byte	0x91
ARM GAS  C:\Users\PCHAUT~1\AppData\Local\Temp\ccacj52E.s 			page 319


 18062 1132 58       		.sleb128 -40
 18063 1133 1E       		.uleb128 0x1e
 18064 1134 6F626A00 		.ascii	"obj\000"
 18065 1138 01       		.byte	0x1
 18066 1139 DF06     		.2byte	0x6df
 18067 113b E6030000 		.4byte	0x3e6
 18068 113f 02       		.uleb128 0x2
 18069 1140 91       		.byte	0x91
 18070 1141 60       		.sleb128 -32
 18071 1142 00       		.byte	0
 18072 1143 18       		.uleb128 0x18
 18073 1144 1F010000 		.4byte	.LASF194
 18074 1148 01       		.byte	0x1
 18075 1149 D306     		.2byte	0x6d3
 18076 114b 61010000 		.4byte	0x161
 18077 114f 00000000 		.4byte	.LFB120
 18078 1153 60000000 		.4byte	.LFE120-.LFB120
 18079 1157 01       		.uleb128 0x1
 18080 1158 9C       		.byte	0x9c
 18081 1159 8B110000 		.4byte	0x118b
 18082 115d 19       		.uleb128 0x19
 18083 115e 63747800 		.ascii	"ctx\000"
 18084 1162 01       		.byte	0x1
 18085 1163 D306     		.2byte	0x6d3
 18086 1165 F50D0000 		.4byte	0xdf5
 18087 1169 02       		.uleb128 0x2
 18088 116a 91       		.byte	0x91
 18089 116b 6C       		.sleb128 -20
 18090 116c 1A       		.uleb128 0x1a
 18091 116d C8110000 		.4byte	.LASF70
 18092 1171 01       		.byte	0x1
 18093 1172 D306     		.2byte	0x6d3
 18094 1174 1E060000 		.4byte	0x61e
 18095 1178 02       		.uleb128 0x2
 18096 1179 91       		.byte	0x91
 18097 117a 68       		.sleb128 -24
 18098 117b 1A       		.uleb128 0x1a
 18099 117c 93080000 		.4byte	.LASF184
 18100 1180 01       		.byte	0x1
 18101 1181 D306     		.2byte	0x6d3
 18102 1183 AB010000 		.4byte	0x1ab
 18103 1187 02       		.uleb128 0x2
 18104 1188 91       		.byte	0x91
 18105 1189 64       		.sleb128 -28
 18106 118a 00       		.byte	0
 18107 118b 18       		.uleb128 0x18
 18108 118c BF040000 		.4byte	.LASF195
 18109 1190 01       		.byte	0x1
 18110 1191 C406     		.2byte	0x6c4
 18111 1193 61010000 		.4byte	0x161
 18112 1197 00000000 		.4byte	.LFB119
 18113 119b 60000000 		.4byte	.LFE119-.LFB119
 18114 119f 01       		.uleb128 0x1
 18115 11a0 9C       		.byte	0x9c
 18116 11a1 D3110000 		.4byte	0x11d3
 18117 11a5 19       		.uleb128 0x19
 18118 11a6 63747800 		.ascii	"ctx\000"
ARM GAS  C:\Users\PCHAUT~1\AppData\Local\Temp\ccacj52E.s 			page 320


 18119 11aa 01       		.byte	0x1
 18120 11ab C406     		.2byte	0x6c4
 18121 11ad F50D0000 		.4byte	0xdf5
 18122 11b1 02       		.uleb128 0x2
 18123 11b2 91       		.byte	0x91
 18124 11b3 5C       		.sleb128 -36
 18125 11b4 1A       		.uleb128 0x1a
 18126 11b5 C8110000 		.4byte	.LASF70
 18127 11b9 01       		.byte	0x1
 18128 11ba C406     		.2byte	0x6c4
 18129 11bc 1E060000 		.4byte	0x61e
 18130 11c0 02       		.uleb128 0x2
 18131 11c1 91       		.byte	0x91
 18132 11c2 58       		.sleb128 -40
 18133 11c3 1E       		.uleb128 0x1e
 18134 11c4 6F626A00 		.ascii	"obj\000"
 18135 11c8 01       		.byte	0x1
 18136 11c9 C506     		.2byte	0x6c5
 18137 11cb E6030000 		.4byte	0x3e6
 18138 11cf 02       		.uleb128 0x2
 18139 11d0 91       		.byte	0x91
 18140 11d1 60       		.sleb128 -32
 18141 11d2 00       		.byte	0
 18142 11d3 18       		.uleb128 0x18
 18143 11d4 FE000000 		.4byte	.LASF196
 18144 11d8 01       		.byte	0x1
 18145 11d9 B906     		.2byte	0x6b9
 18146 11db 61010000 		.4byte	0x161
 18147 11df 00000000 		.4byte	.LFB118
 18148 11e3 60000000 		.4byte	.LFE118-.LFB118
 18149 11e7 01       		.uleb128 0x1
 18150 11e8 9C       		.byte	0x9c
 18151 11e9 1B120000 		.4byte	0x121b
 18152 11ed 19       		.uleb128 0x19
 18153 11ee 63747800 		.ascii	"ctx\000"
 18154 11f2 01       		.byte	0x1
 18155 11f3 B906     		.2byte	0x6b9
 18156 11f5 F50D0000 		.4byte	0xdf5
 18157 11f9 02       		.uleb128 0x2
 18158 11fa 91       		.byte	0x91
 18159 11fb 6C       		.sleb128 -20
 18160 11fc 1A       		.uleb128 0x1a
 18161 11fd C8110000 		.4byte	.LASF70
 18162 1201 01       		.byte	0x1
 18163 1202 B906     		.2byte	0x6b9
 18164 1204 1E060000 		.4byte	0x61e
 18165 1208 02       		.uleb128 0x2
 18166 1209 91       		.byte	0x91
 18167 120a 68       		.sleb128 -24
 18168 120b 1A       		.uleb128 0x1a
 18169 120c 93080000 		.4byte	.LASF184
 18170 1210 01       		.byte	0x1
 18171 1211 B906     		.2byte	0x6b9
 18172 1213 AB010000 		.4byte	0x1ab
 18173 1217 02       		.uleb128 0x2
 18174 1218 91       		.byte	0x91
 18175 1219 64       		.sleb128 -28
ARM GAS  C:\Users\PCHAUT~1\AppData\Local\Temp\ccacj52E.s 			page 321


 18176 121a 00       		.byte	0
 18177 121b 18       		.uleb128 0x18
 18178 121c 5C020000 		.4byte	.LASF197
 18179 1220 01       		.byte	0x1
 18180 1221 AA06     		.2byte	0x6aa
 18181 1223 61010000 		.4byte	0x161
 18182 1227 00000000 		.4byte	.LFB117
 18183 122b 60000000 		.4byte	.LFE117-.LFB117
 18184 122f 01       		.uleb128 0x1
 18185 1230 9C       		.byte	0x9c
 18186 1231 63120000 		.4byte	0x1263
 18187 1235 19       		.uleb128 0x19
 18188 1236 63747800 		.ascii	"ctx\000"
 18189 123a 01       		.byte	0x1
 18190 123b AA06     		.2byte	0x6aa
 18191 123d F50D0000 		.4byte	0xdf5
 18192 1241 02       		.uleb128 0x2
 18193 1242 91       		.byte	0x91
 18194 1243 5C       		.sleb128 -36
 18195 1244 1A       		.uleb128 0x1a
 18196 1245 C8110000 		.4byte	.LASF70
 18197 1249 01       		.byte	0x1
 18198 124a AA06     		.2byte	0x6aa
 18199 124c 1E060000 		.4byte	0x61e
 18200 1250 02       		.uleb128 0x2
 18201 1251 91       		.byte	0x91
 18202 1252 58       		.sleb128 -40
 18203 1253 1E       		.uleb128 0x1e
 18204 1254 6F626A00 		.ascii	"obj\000"
 18205 1258 01       		.byte	0x1
 18206 1259 AB06     		.2byte	0x6ab
 18207 125b E6030000 		.4byte	0x3e6
 18208 125f 02       		.uleb128 0x2
 18209 1260 91       		.byte	0x91
 18210 1261 60       		.sleb128 -32
 18211 1262 00       		.byte	0
 18212 1263 18       		.uleb128 0x18
 18213 1264 ED000000 		.4byte	.LASF198
 18214 1268 01       		.byte	0x1
 18215 1269 9F06     		.2byte	0x69f
 18216 126b 61010000 		.4byte	0x161
 18217 126f 00000000 		.4byte	.LFB116
 18218 1273 60000000 		.4byte	.LFE116-.LFB116
 18219 1277 01       		.uleb128 0x1
 18220 1278 9C       		.byte	0x9c
 18221 1279 AB120000 		.4byte	0x12ab
 18222 127d 19       		.uleb128 0x19
 18223 127e 63747800 		.ascii	"ctx\000"
 18224 1282 01       		.byte	0x1
 18225 1283 9F06     		.2byte	0x69f
 18226 1285 F50D0000 		.4byte	0xdf5
 18227 1289 02       		.uleb128 0x2
 18228 128a 91       		.byte	0x91
 18229 128b 6C       		.sleb128 -20
 18230 128c 1A       		.uleb128 0x1a
 18231 128d C8110000 		.4byte	.LASF70
 18232 1291 01       		.byte	0x1
ARM GAS  C:\Users\PCHAUT~1\AppData\Local\Temp\ccacj52E.s 			page 322


 18233 1292 9F06     		.2byte	0x69f
 18234 1294 1E060000 		.4byte	0x61e
 18235 1298 02       		.uleb128 0x2
 18236 1299 91       		.byte	0x91
 18237 129a 68       		.sleb128 -24
 18238 129b 1A       		.uleb128 0x1a
 18239 129c 93080000 		.4byte	.LASF184
 18240 12a0 01       		.byte	0x1
 18241 12a1 9F06     		.2byte	0x69f
 18242 12a3 AB010000 		.4byte	0x1ab
 18243 12a7 02       		.uleb128 0x2
 18244 12a8 91       		.byte	0x91
 18245 12a9 64       		.sleb128 -28
 18246 12aa 00       		.byte	0
 18247 12ab 18       		.uleb128 0x18
 18248 12ac 0A050000 		.4byte	.LASF199
 18249 12b0 01       		.byte	0x1
 18250 12b1 9006     		.2byte	0x690
 18251 12b3 61010000 		.4byte	0x161
 18252 12b7 00000000 		.4byte	.LFB115
 18253 12bb 60000000 		.4byte	.LFE115-.LFB115
 18254 12bf 01       		.uleb128 0x1
 18255 12c0 9C       		.byte	0x9c
 18256 12c1 F3120000 		.4byte	0x12f3
 18257 12c5 19       		.uleb128 0x19
 18258 12c6 63747800 		.ascii	"ctx\000"
 18259 12ca 01       		.byte	0x1
 18260 12cb 9006     		.2byte	0x690
 18261 12cd F50D0000 		.4byte	0xdf5
 18262 12d1 02       		.uleb128 0x2
 18263 12d2 91       		.byte	0x91
 18264 12d3 5C       		.sleb128 -36
 18265 12d4 1A       		.uleb128 0x1a
 18266 12d5 C8110000 		.4byte	.LASF70
 18267 12d9 01       		.byte	0x1
 18268 12da 9006     		.2byte	0x690
 18269 12dc 1E060000 		.4byte	0x61e
 18270 12e0 02       		.uleb128 0x2
 18271 12e1 91       		.byte	0x91
 18272 12e2 58       		.sleb128 -40
 18273 12e3 1E       		.uleb128 0x1e
 18274 12e4 6F626A00 		.ascii	"obj\000"
 18275 12e8 01       		.byte	0x1
 18276 12e9 9106     		.2byte	0x691
 18277 12eb E6030000 		.4byte	0x3e6
 18278 12ef 02       		.uleb128 0x2
 18279 12f0 91       		.byte	0x91
 18280 12f1 60       		.sleb128 -32
 18281 12f2 00       		.byte	0
 18282 12f3 18       		.uleb128 0x18
 18283 12f4 DC000000 		.4byte	.LASF200
 18284 12f8 01       		.byte	0x1
 18285 12f9 8506     		.2byte	0x685
 18286 12fb 61010000 		.4byte	0x161
 18287 12ff 00000000 		.4byte	.LFB114
 18288 1303 60000000 		.4byte	.LFE114-.LFB114
 18289 1307 01       		.uleb128 0x1
ARM GAS  C:\Users\PCHAUT~1\AppData\Local\Temp\ccacj52E.s 			page 323


 18290 1308 9C       		.byte	0x9c
 18291 1309 3B130000 		.4byte	0x133b
 18292 130d 19       		.uleb128 0x19
 18293 130e 63747800 		.ascii	"ctx\000"
 18294 1312 01       		.byte	0x1
 18295 1313 8506     		.2byte	0x685
 18296 1315 F50D0000 		.4byte	0xdf5
 18297 1319 02       		.uleb128 0x2
 18298 131a 91       		.byte	0x91
 18299 131b 6C       		.sleb128 -20
 18300 131c 1A       		.uleb128 0x1a
 18301 131d C8110000 		.4byte	.LASF70
 18302 1321 01       		.byte	0x1
 18303 1322 8506     		.2byte	0x685
 18304 1324 1E060000 		.4byte	0x61e
 18305 1328 02       		.uleb128 0x2
 18306 1329 91       		.byte	0x91
 18307 132a 68       		.sleb128 -24
 18308 132b 1A       		.uleb128 0x1a
 18309 132c 93080000 		.4byte	.LASF184
 18310 1330 01       		.byte	0x1
 18311 1331 8506     		.2byte	0x685
 18312 1333 AB010000 		.4byte	0x1ab
 18313 1337 02       		.uleb128 0x2
 18314 1338 91       		.byte	0x91
 18315 1339 64       		.sleb128 -28
 18316 133a 00       		.byte	0
 18317 133b 18       		.uleb128 0x18
 18318 133c 94060000 		.4byte	.LASF201
 18319 1340 01       		.byte	0x1
 18320 1341 7606     		.2byte	0x676
 18321 1343 61010000 		.4byte	0x161
 18322 1347 00000000 		.4byte	.LFB113
 18323 134b 60000000 		.4byte	.LFE113-.LFB113
 18324 134f 01       		.uleb128 0x1
 18325 1350 9C       		.byte	0x9c
 18326 1351 83130000 		.4byte	0x1383
 18327 1355 19       		.uleb128 0x19
 18328 1356 63747800 		.ascii	"ctx\000"
 18329 135a 01       		.byte	0x1
 18330 135b 7606     		.2byte	0x676
 18331 135d F50D0000 		.4byte	0xdf5
 18332 1361 02       		.uleb128 0x2
 18333 1362 91       		.byte	0x91
 18334 1363 5C       		.sleb128 -36
 18335 1364 1A       		.uleb128 0x1a
 18336 1365 C8110000 		.4byte	.LASF70
 18337 1369 01       		.byte	0x1
 18338 136a 7606     		.2byte	0x676
 18339 136c 1E060000 		.4byte	0x61e
 18340 1370 02       		.uleb128 0x2
 18341 1371 91       		.byte	0x91
 18342 1372 58       		.sleb128 -40
 18343 1373 1E       		.uleb128 0x1e
 18344 1374 6F626A00 		.ascii	"obj\000"
 18345 1378 01       		.byte	0x1
 18346 1379 7706     		.2byte	0x677
ARM GAS  C:\Users\PCHAUT~1\AppData\Local\Temp\ccacj52E.s 			page 324


 18347 137b E6030000 		.4byte	0x3e6
 18348 137f 02       		.uleb128 0x2
 18349 1380 91       		.byte	0x91
 18350 1381 60       		.sleb128 -32
 18351 1382 00       		.byte	0
 18352 1383 18       		.uleb128 0x18
 18353 1384 03130000 		.4byte	.LASF202
 18354 1388 01       		.byte	0x1
 18355 1389 6406     		.2byte	0x664
 18356 138b 61010000 		.4byte	0x161
 18357 138f 00000000 		.4byte	.LFB112
 18358 1393 68000000 		.4byte	.LFE112-.LFB112
 18359 1397 01       		.uleb128 0x1
 18360 1398 9C       		.byte	0x9c
 18361 1399 CB130000 		.4byte	0x13cb
 18362 139d 19       		.uleb128 0x19
 18363 139e 63747800 		.ascii	"ctx\000"
 18364 13a2 01       		.byte	0x1
 18365 13a3 6406     		.2byte	0x664
 18366 13a5 F50D0000 		.4byte	0xdf5
 18367 13a9 02       		.uleb128 0x2
 18368 13aa 91       		.byte	0x91
 18369 13ab 5C       		.sleb128 -36
 18370 13ac 1A       		.uleb128 0x1a
 18371 13ad D60A0000 		.4byte	.LASF71
 18372 13b1 01       		.byte	0x1
 18373 13b2 6406     		.2byte	0x664
 18374 13b4 24060000 		.4byte	0x624
 18375 13b8 02       		.uleb128 0x2
 18376 13b9 91       		.byte	0x91
 18377 13ba 58       		.sleb128 -40
 18378 13bb 1E       		.uleb128 0x1e
 18379 13bc 6F626A00 		.ascii	"obj\000"
 18380 13c0 01       		.byte	0x1
 18381 13c1 6506     		.2byte	0x665
 18382 13c3 E6030000 		.4byte	0x3e6
 18383 13c7 02       		.uleb128 0x2
 18384 13c8 91       		.byte	0x91
 18385 13c9 60       		.sleb128 -32
 18386 13ca 00       		.byte	0
 18387 13cb 18       		.uleb128 0x18
 18388 13cc A3080000 		.4byte	.LASF203
 18389 13d0 01       		.byte	0x1
 18390 13d1 5206     		.2byte	0x652
 18391 13d3 61010000 		.4byte	0x161
 18392 13d7 00000000 		.4byte	.LFB111
 18393 13db 68000000 		.4byte	.LFE111-.LFB111
 18394 13df 01       		.uleb128 0x1
 18395 13e0 9C       		.byte	0x9c
 18396 13e1 13140000 		.4byte	0x1413
 18397 13e5 19       		.uleb128 0x19
 18398 13e6 63747800 		.ascii	"ctx\000"
 18399 13ea 01       		.byte	0x1
 18400 13eb 5206     		.2byte	0x652
 18401 13ed F50D0000 		.4byte	0xdf5
 18402 13f1 02       		.uleb128 0x2
 18403 13f2 91       		.byte	0x91
ARM GAS  C:\Users\PCHAUT~1\AppData\Local\Temp\ccacj52E.s 			page 325


 18404 13f3 5C       		.sleb128 -36
 18405 13f4 1A       		.uleb128 0x1a
 18406 13f5 D60A0000 		.4byte	.LASF71
 18407 13f9 01       		.byte	0x1
 18408 13fa 5206     		.2byte	0x652
 18409 13fc 24060000 		.4byte	0x624
 18410 1400 02       		.uleb128 0x2
 18411 1401 91       		.byte	0x91
 18412 1402 58       		.sleb128 -40
 18413 1403 1E       		.uleb128 0x1e
 18414 1404 6F626A00 		.ascii	"obj\000"
 18415 1408 01       		.byte	0x1
 18416 1409 5306     		.2byte	0x653
 18417 140b E6030000 		.4byte	0x3e6
 18418 140f 02       		.uleb128 0x2
 18419 1410 91       		.byte	0x91
 18420 1411 60       		.sleb128 -32
 18421 1412 00       		.byte	0
 18422 1413 18       		.uleb128 0x18
 18423 1414 CF000000 		.4byte	.LASF204
 18424 1418 01       		.byte	0x1
 18425 1419 3E06     		.2byte	0x63e
 18426 141b 61010000 		.4byte	0x161
 18427 141f 00000000 		.4byte	.LFB110
 18428 1423 88000000 		.4byte	.LFE110-.LFB110
 18429 1427 01       		.uleb128 0x1
 18430 1428 9C       		.byte	0x9c
 18431 1429 6A140000 		.4byte	0x146a
 18432 142d 19       		.uleb128 0x19
 18433 142e 63747800 		.ascii	"ctx\000"
 18434 1432 01       		.byte	0x1
 18435 1433 3E06     		.2byte	0x63e
 18436 1435 F50D0000 		.4byte	0xdf5
 18437 1439 02       		.uleb128 0x2
 18438 143a 91       		.byte	0x91
 18439 143b 6C       		.sleb128 -20
 18440 143c 1A       		.uleb128 0x1a
 18441 143d 93080000 		.4byte	.LASF184
 18442 1441 01       		.byte	0x1
 18443 1442 3E06     		.2byte	0x63e
 18444 1444 AB010000 		.4byte	0x1ab
 18445 1448 02       		.uleb128 0x2
 18446 1449 91       		.byte	0x91
 18447 144a 68       		.sleb128 -24
 18448 144b 1A       		.uleb128 0x1a
 18449 144c D60A0000 		.4byte	.LASF71
 18450 1450 01       		.byte	0x1
 18451 1451 3E06     		.2byte	0x63e
 18452 1453 24060000 		.4byte	0x624
 18453 1457 02       		.uleb128 0x2
 18454 1458 91       		.byte	0x91
 18455 1459 64       		.sleb128 -28
 18456 145a 1B       		.uleb128 0x1b
 18457 145b D9030000 		.4byte	.LASF77
 18458 145f 01       		.byte	0x1
 18459 1460 3F06     		.2byte	0x63f
 18460 1462 11010000 		.4byte	0x111
ARM GAS  C:\Users\PCHAUT~1\AppData\Local\Temp\ccacj52E.s 			page 326


 18461 1466 02       		.uleb128 0x2
 18462 1467 91       		.byte	0x91
 18463 1468 70       		.sleb128 -16
 18464 1469 00       		.byte	0
 18465 146a 18       		.uleb128 0x18
 18466 146b 7D120000 		.4byte	.LASF205
 18467 146f 01       		.byte	0x1
 18468 1470 2C06     		.2byte	0x62c
 18469 1472 61010000 		.4byte	0x161
 18470 1476 00000000 		.4byte	.LFB109
 18471 147a 60000000 		.4byte	.LFE109-.LFB109
 18472 147e 01       		.uleb128 0x1
 18473 147f 9C       		.byte	0x9c
 18474 1480 B2140000 		.4byte	0x14b2
 18475 1484 19       		.uleb128 0x19
 18476 1485 63747800 		.ascii	"ctx\000"
 18477 1489 01       		.byte	0x1
 18478 148a 2C06     		.2byte	0x62c
 18479 148c F50D0000 		.4byte	0xdf5
 18480 1490 02       		.uleb128 0x2
 18481 1491 91       		.byte	0x91
 18482 1492 5C       		.sleb128 -36
 18483 1493 1A       		.uleb128 0x1a
 18484 1494 D60A0000 		.4byte	.LASF71
 18485 1498 01       		.byte	0x1
 18486 1499 2C06     		.2byte	0x62c
 18487 149b 24060000 		.4byte	0x624
 18488 149f 02       		.uleb128 0x2
 18489 14a0 91       		.byte	0x91
 18490 14a1 58       		.sleb128 -40
 18491 14a2 1E       		.uleb128 0x1e
 18492 14a3 6F626A00 		.ascii	"obj\000"
 18493 14a7 01       		.byte	0x1
 18494 14a8 2D06     		.2byte	0x62d
 18495 14aa E6030000 		.4byte	0x3e6
 18496 14ae 02       		.uleb128 0x2
 18497 14af 91       		.byte	0x91
 18498 14b0 60       		.sleb128 -32
 18499 14b1 00       		.byte	0
 18500 14b2 18       		.uleb128 0x18
 18501 14b3 350A0000 		.4byte	.LASF206
 18502 14b7 01       		.byte	0x1
 18503 14b8 1506     		.2byte	0x615
 18504 14ba 61010000 		.4byte	0x161
 18505 14be 00000000 		.4byte	.LFB108
 18506 14c2 98000000 		.4byte	.LFE108-.LFB108
 18507 14c6 01       		.uleb128 0x1
 18508 14c7 9C       		.byte	0x9c
 18509 14c8 09150000 		.4byte	0x1509
 18510 14cc 19       		.uleb128 0x19
 18511 14cd 63747800 		.ascii	"ctx\000"
 18512 14d1 01       		.byte	0x1
 18513 14d2 1506     		.2byte	0x615
 18514 14d4 F50D0000 		.4byte	0xdf5
 18515 14d8 02       		.uleb128 0x2
 18516 14d9 91       		.byte	0x91
 18517 14da 6C       		.sleb128 -20
ARM GAS  C:\Users\PCHAUT~1\AppData\Local\Temp\ccacj52E.s 			page 327


 18518 14db 1A       		.uleb128 0x1a
 18519 14dc 93080000 		.4byte	.LASF184
 18520 14e0 01       		.byte	0x1
 18521 14e1 1506     		.2byte	0x615
 18522 14e3 09150000 		.4byte	0x1509
 18523 14e7 02       		.uleb128 0x2
 18524 14e8 91       		.byte	0x91
 18525 14e9 68       		.sleb128 -24
 18526 14ea 1A       		.uleb128 0x1a
 18527 14eb D60A0000 		.4byte	.LASF71
 18528 14ef 01       		.byte	0x1
 18529 14f0 1506     		.2byte	0x615
 18530 14f2 24060000 		.4byte	0x624
 18531 14f6 02       		.uleb128 0x2
 18532 14f7 91       		.byte	0x91
 18533 14f8 64       		.sleb128 -28
 18534 14f9 1B       		.uleb128 0x1b
 18535 14fa 24060000 		.4byte	.LASF76
 18536 14fe 01       		.byte	0x1
 18537 14ff 1606     		.2byte	0x616
 18538 1501 11010000 		.4byte	0x111
 18539 1505 02       		.uleb128 0x2
 18540 1506 91       		.byte	0x91
 18541 1507 70       		.sleb128 -16
 18542 1508 00       		.byte	0
 18543 1509 06       		.uleb128 0x6
 18544 150a 04       		.byte	0x4
 18545 150b A3050000 		.4byte	0x5a3
 18546 150f 18       		.uleb128 0x18
 18547 1510 110B0000 		.4byte	.LASF207
 18548 1514 01       		.byte	0x1
 18549 1515 0206     		.2byte	0x602
 18550 1517 61010000 		.4byte	0x161
 18551 151b 00000000 		.4byte	.LFB107
 18552 151f 68000000 		.4byte	.LFE107-.LFB107
 18553 1523 01       		.uleb128 0x1
 18554 1524 9C       		.byte	0x9c
 18555 1525 57150000 		.4byte	0x1557
 18556 1529 19       		.uleb128 0x19
 18557 152a 63747800 		.ascii	"ctx\000"
 18558 152e 01       		.byte	0x1
 18559 152f 0206     		.2byte	0x602
 18560 1531 F50D0000 		.4byte	0xdf5
 18561 1535 02       		.uleb128 0x2
 18562 1536 91       		.byte	0x91
 18563 1537 5C       		.sleb128 -36
 18564 1538 1A       		.uleb128 0x1a
 18565 1539 D60A0000 		.4byte	.LASF71
 18566 153d 01       		.byte	0x1
 18567 153e 0206     		.2byte	0x602
 18568 1540 24060000 		.4byte	0x624
 18569 1544 02       		.uleb128 0x2
 18570 1545 91       		.byte	0x91
 18571 1546 58       		.sleb128 -40
 18572 1547 1E       		.uleb128 0x1e
 18573 1548 6F626A00 		.ascii	"obj\000"
 18574 154c 01       		.byte	0x1
ARM GAS  C:\Users\PCHAUT~1\AppData\Local\Temp\ccacj52E.s 			page 328


 18575 154d 0306     		.2byte	0x603
 18576 154f E6030000 		.4byte	0x3e6
 18577 1553 02       		.uleb128 0x2
 18578 1554 91       		.byte	0x91
 18579 1555 60       		.sleb128 -32
 18580 1556 00       		.byte	0
 18581 1557 18       		.uleb128 0x18
 18582 1558 80060000 		.4byte	.LASF208
 18583 155c 01       		.byte	0x1
 18584 155d EF05     		.2byte	0x5ef
 18585 155f 61010000 		.4byte	0x161
 18586 1563 00000000 		.4byte	.LFB106
 18587 1567 6C000000 		.4byte	.LFE106-.LFB106
 18588 156b 01       		.uleb128 0x1
 18589 156c 9C       		.byte	0x9c
 18590 156d 9D150000 		.4byte	0x159d
 18591 1571 19       		.uleb128 0x19
 18592 1572 63747800 		.ascii	"ctx\000"
 18593 1576 01       		.byte	0x1
 18594 1577 EF05     		.2byte	0x5ef
 18595 1579 F50D0000 		.4byte	0xdf5
 18596 157d 02       		.uleb128 0x2
 18597 157e 91       		.byte	0x91
 18598 157f 5C       		.sleb128 -36
 18599 1580 19       		.uleb128 0x19
 18600 1581 6200     		.ascii	"b\000"
 18601 1583 01       		.byte	0x1
 18602 1584 EF05     		.2byte	0x5ef
 18603 1586 E4080000 		.4byte	0x8e4
 18604 158a 02       		.uleb128 0x2
 18605 158b 91       		.byte	0x91
 18606 158c 58       		.sleb128 -40
 18607 158d 1E       		.uleb128 0x1e
 18608 158e 6F626A00 		.ascii	"obj\000"
 18609 1592 01       		.byte	0x1
 18610 1593 F005     		.2byte	0x5f0
 18611 1595 E6030000 		.4byte	0x3e6
 18612 1599 02       		.uleb128 0x2
 18613 159a 91       		.byte	0x91
 18614 159b 60       		.sleb128 -32
 18615 159c 00       		.byte	0
 18616 159d 18       		.uleb128 0x18
 18617 159e 550A0000 		.4byte	.LASF209
 18618 15a2 01       		.byte	0x1
 18619 15a3 DC05     		.2byte	0x5dc
 18620 15a5 61010000 		.4byte	0x161
 18621 15a9 00000000 		.4byte	.LFB105
 18622 15ad 6C000000 		.4byte	.LFE105-.LFB105
 18623 15b1 01       		.uleb128 0x1
 18624 15b2 9C       		.byte	0x9c
 18625 15b3 E3150000 		.4byte	0x15e3
 18626 15b7 19       		.uleb128 0x19
 18627 15b8 63747800 		.ascii	"ctx\000"
 18628 15bc 01       		.byte	0x1
 18629 15bd DC05     		.2byte	0x5dc
 18630 15bf F50D0000 		.4byte	0xdf5
 18631 15c3 02       		.uleb128 0x2
ARM GAS  C:\Users\PCHAUT~1\AppData\Local\Temp\ccacj52E.s 			page 329


 18632 15c4 91       		.byte	0x91
 18633 15c5 5C       		.sleb128 -36
 18634 15c6 19       		.uleb128 0x19
 18635 15c7 6200     		.ascii	"b\000"
 18636 15c9 01       		.byte	0x1
 18637 15ca DC05     		.2byte	0x5dc
 18638 15cc 45070000 		.4byte	0x745
 18639 15d0 02       		.uleb128 0x2
 18640 15d1 91       		.byte	0x91
 18641 15d2 58       		.sleb128 -40
 18642 15d3 1E       		.uleb128 0x1e
 18643 15d4 6F626A00 		.ascii	"obj\000"
 18644 15d8 01       		.byte	0x1
 18645 15d9 DD05     		.2byte	0x5dd
 18646 15db E6030000 		.4byte	0x3e6
 18647 15df 02       		.uleb128 0x2
 18648 15e0 91       		.byte	0x91
 18649 15e1 60       		.sleb128 -32
 18650 15e2 00       		.byte	0
 18651 15e3 18       		.uleb128 0x18
 18652 15e4 5D110000 		.4byte	.LASF210
 18653 15e8 01       		.byte	0x1
 18654 15e9 CF05     		.2byte	0x5cf
 18655 15eb 61010000 		.4byte	0x161
 18656 15ef 00000000 		.4byte	.LFB104
 18657 15f3 54000000 		.4byte	.LFE104-.LFB104
 18658 15f7 01       		.uleb128 0x1
 18659 15f8 9C       		.byte	0x9c
 18660 15f9 1C160000 		.4byte	0x161c
 18661 15fd 19       		.uleb128 0x19
 18662 15fe 63747800 		.ascii	"ctx\000"
 18663 1602 01       		.byte	0x1
 18664 1603 CF05     		.2byte	0x5cf
 18665 1605 F50D0000 		.4byte	0xdf5
 18666 1609 02       		.uleb128 0x2
 18667 160a 91       		.byte	0x91
 18668 160b 5C       		.sleb128 -36
 18669 160c 1E       		.uleb128 0x1e
 18670 160d 6F626A00 		.ascii	"obj\000"
 18671 1611 01       		.byte	0x1
 18672 1612 D005     		.2byte	0x5d0
 18673 1614 E6030000 		.4byte	0x3e6
 18674 1618 02       		.uleb128 0x2
 18675 1619 91       		.byte	0x91
 18676 161a 60       		.sleb128 -32
 18677 161b 00       		.byte	0
 18678 161c 18       		.uleb128 0x18
 18679 161d C50C0000 		.4byte	.LASF211
 18680 1621 01       		.byte	0x1
 18681 1622 BB05     		.2byte	0x5bb
 18682 1624 61010000 		.4byte	0x161
 18683 1628 00000000 		.4byte	.LFB103
 18684 162c 7C000000 		.4byte	.LFE103-.LFB103
 18685 1630 01       		.uleb128 0x1
 18686 1631 9C       		.byte	0x9c
 18687 1632 62160000 		.4byte	0x1662
 18688 1636 19       		.uleb128 0x19
ARM GAS  C:\Users\PCHAUT~1\AppData\Local\Temp\ccacj52E.s 			page 330


 18689 1637 63747800 		.ascii	"ctx\000"
 18690 163b 01       		.byte	0x1
 18691 163c BB05     		.2byte	0x5bb
 18692 163e F50D0000 		.4byte	0xdf5
 18693 1642 02       		.uleb128 0x2
 18694 1643 91       		.byte	0x91
 18695 1644 5C       		.sleb128 -36
 18696 1645 19       		.uleb128 0x19
 18697 1646 6400     		.ascii	"d\000"
 18698 1648 01       		.byte	0x1
 18699 1649 BB05     		.2byte	0x5bb
 18700 164b 82070000 		.4byte	0x782
 18701 164f 02       		.uleb128 0x2
 18702 1650 91       		.byte	0x91
 18703 1651 58       		.sleb128 -40
 18704 1652 1E       		.uleb128 0x1e
 18705 1653 6F626A00 		.ascii	"obj\000"
 18706 1657 01       		.byte	0x1
 18707 1658 BC05     		.2byte	0x5bc
 18708 165a E6030000 		.4byte	0x3e6
 18709 165e 02       		.uleb128 0x2
 18710 165f 91       		.byte	0x91
 18711 1660 60       		.sleb128 -32
 18712 1661 00       		.byte	0
 18713 1662 18       		.uleb128 0x18
 18714 1663 960B0000 		.4byte	.LASF212
 18715 1667 01       		.byte	0x1
 18716 1668 A705     		.2byte	0x5a7
 18717 166a 61010000 		.4byte	0x161
 18718 166e 00000000 		.4byte	.LFB102
 18719 1672 78000000 		.4byte	.LFE102-.LFB102
 18720 1676 01       		.uleb128 0x1
 18721 1677 9C       		.byte	0x9c
 18722 1678 A8160000 		.4byte	0x16a8
 18723 167c 19       		.uleb128 0x19
 18724 167d 63747800 		.ascii	"ctx\000"
 18725 1681 01       		.byte	0x1
 18726 1682 A705     		.2byte	0x5a7
 18727 1684 F50D0000 		.4byte	0xdf5
 18728 1688 02       		.uleb128 0x2
 18729 1689 91       		.byte	0x91
 18730 168a 5C       		.sleb128 -36
 18731 168b 19       		.uleb128 0x19
 18732 168c 6600     		.ascii	"f\000"
 18733 168e 01       		.byte	0x1
 18734 168f A705     		.2byte	0x5a7
 18735 1691 BF070000 		.4byte	0x7bf
 18736 1695 02       		.uleb128 0x2
 18737 1696 91       		.byte	0x91
 18738 1697 58       		.sleb128 -40
 18739 1698 1E       		.uleb128 0x1e
 18740 1699 6F626A00 		.ascii	"obj\000"
 18741 169d 01       		.byte	0x1
 18742 169e A805     		.2byte	0x5a8
 18743 16a0 E6030000 		.4byte	0x3e6
 18744 16a4 02       		.uleb128 0x2
 18745 16a5 91       		.byte	0x91
ARM GAS  C:\Users\PCHAUT~1\AppData\Local\Temp\ccacj52E.s 			page 331


 18746 16a6 60       		.sleb128 -32
 18747 16a7 00       		.byte	0
 18748 16a8 18       		.uleb128 0x18
 18749 16a9 53000000 		.4byte	.LASF213
 18750 16ad 01       		.byte	0x1
 18751 16ae A305     		.2byte	0x5a3
 18752 16b0 61010000 		.4byte	0x161
 18753 16b4 00000000 		.4byte	.LFB101
 18754 16b8 34000000 		.4byte	.LFE101-.LFB101
 18755 16bc 01       		.uleb128 0x1
 18756 16bd 9C       		.byte	0x9c
 18757 16be DF160000 		.4byte	0x16df
 18758 16c2 19       		.uleb128 0x19
 18759 16c3 63747800 		.ascii	"ctx\000"
 18760 16c7 01       		.byte	0x1
 18761 16c8 A305     		.2byte	0x5a3
 18762 16ca F50D0000 		.4byte	0xdf5
 18763 16ce 02       		.uleb128 0x2
 18764 16cf 91       		.byte	0x91
 18765 16d0 6C       		.sleb128 -20
 18766 16d1 19       		.uleb128 0x19
 18767 16d2 6400     		.ascii	"d\000"
 18768 16d4 01       		.byte	0x1
 18769 16d5 A305     		.2byte	0x5a3
 18770 16d7 FC070000 		.4byte	0x7fc
 18771 16db 02       		.uleb128 0x2
 18772 16dc 91       		.byte	0x91
 18773 16dd 68       		.sleb128 -24
 18774 16de 00       		.byte	0
 18775 16df 18       		.uleb128 0x18
 18776 16e0 3E0D0000 		.4byte	.LASF214
 18777 16e4 01       		.byte	0x1
 18778 16e5 8905     		.2byte	0x589
 18779 16e7 61010000 		.4byte	0x161
 18780 16eb 00000000 		.4byte	.LFB100
 18781 16ef E8000000 		.4byte	.LFE100-.LFB100
 18782 16f3 01       		.uleb128 0x1
 18783 16f4 9C       		.byte	0x9c
 18784 16f5 25170000 		.4byte	0x1725
 18785 16f9 19       		.uleb128 0x19
 18786 16fa 63747800 		.ascii	"ctx\000"
 18787 16fe 01       		.byte	0x1
 18788 16ff 8905     		.2byte	0x589
 18789 1701 F50D0000 		.4byte	0xdf5
 18790 1705 02       		.uleb128 0x2
 18791 1706 91       		.byte	0x91
 18792 1707 5C       		.sleb128 -36
 18793 1708 19       		.uleb128 0x19
 18794 1709 7500     		.ascii	"u\000"
 18795 170b 01       		.byte	0x1
 18796 170c 8905     		.2byte	0x589
 18797 170e FC070000 		.4byte	0x7fc
 18798 1712 02       		.uleb128 0x2
 18799 1713 91       		.byte	0x91
 18800 1714 58       		.sleb128 -40
 18801 1715 1E       		.uleb128 0x1e
 18802 1716 6F626A00 		.ascii	"obj\000"
ARM GAS  C:\Users\PCHAUT~1\AppData\Local\Temp\ccacj52E.s 			page 332


 18803 171a 01       		.byte	0x1
 18804 171b 8A05     		.2byte	0x58a
 18805 171d E6030000 		.4byte	0x3e6
 18806 1721 02       		.uleb128 0x2
 18807 1722 91       		.byte	0x91
 18808 1723 60       		.sleb128 -32
 18809 1724 00       		.byte	0
 18810 1725 18       		.uleb128 0x18
 18811 1726 BC050000 		.4byte	.LASF215
 18812 172a 01       		.byte	0x1
 18813 172b 7205     		.2byte	0x572
 18814 172d 61010000 		.4byte	0x161
 18815 1731 00000000 		.4byte	.LFB99
 18816 1735 C4000000 		.4byte	.LFE99-.LFB99
 18817 1739 01       		.uleb128 0x1
 18818 173a 9C       		.byte	0x9c
 18819 173b 6B170000 		.4byte	0x176b
 18820 173f 19       		.uleb128 0x19
 18821 1740 63747800 		.ascii	"ctx\000"
 18822 1744 01       		.byte	0x1
 18823 1745 7205     		.2byte	0x572
 18824 1747 F50D0000 		.4byte	0xdf5
 18825 174b 02       		.uleb128 0x2
 18826 174c 91       		.byte	0x91
 18827 174d 5C       		.sleb128 -36
 18828 174e 19       		.uleb128 0x19
 18829 174f 6900     		.ascii	"i\000"
 18830 1751 01       		.byte	0x1
 18831 1752 7205     		.2byte	0x572
 18832 1754 24060000 		.4byte	0x624
 18833 1758 02       		.uleb128 0x2
 18834 1759 91       		.byte	0x91
 18835 175a 58       		.sleb128 -40
 18836 175b 1E       		.uleb128 0x1e
 18837 175c 6F626A00 		.ascii	"obj\000"
 18838 1760 01       		.byte	0x1
 18839 1761 7305     		.2byte	0x573
 18840 1763 E6030000 		.4byte	0x3e6
 18841 1767 02       		.uleb128 0x2
 18842 1768 91       		.byte	0x91
 18843 1769 60       		.sleb128 -32
 18844 176a 00       		.byte	0
 18845 176b 18       		.uleb128 0x18
 18846 176c 7B0A0000 		.4byte	.LASF216
 18847 1770 01       		.byte	0x1
 18848 1771 5E05     		.2byte	0x55e
 18849 1773 61010000 		.4byte	0x161
 18850 1777 00000000 		.4byte	.LFB98
 18851 177b 74000000 		.4byte	.LFE98-.LFB98
 18852 177f 01       		.uleb128 0x1
 18853 1780 9C       		.byte	0x9c
 18854 1781 B1170000 		.4byte	0x17b1
 18855 1785 19       		.uleb128 0x19
 18856 1786 63747800 		.ascii	"ctx\000"
 18857 178a 01       		.byte	0x1
 18858 178b 5E05     		.2byte	0x55e
 18859 178d F50D0000 		.4byte	0xdf5
ARM GAS  C:\Users\PCHAUT~1\AppData\Local\Temp\ccacj52E.s 			page 333


 18860 1791 02       		.uleb128 0x2
 18861 1792 91       		.byte	0x91
 18862 1793 5C       		.sleb128 -36
 18863 1794 19       		.uleb128 0x19
 18864 1795 7300     		.ascii	"s\000"
 18865 1797 01       		.byte	0x1
 18866 1798 5E05     		.2byte	0x55e
 18867 179a A7080000 		.4byte	0x8a7
 18868 179e 02       		.uleb128 0x2
 18869 179f 91       		.byte	0x91
 18870 17a0 58       		.sleb128 -40
 18871 17a1 1E       		.uleb128 0x1e
 18872 17a2 6F626A00 		.ascii	"obj\000"
 18873 17a6 01       		.byte	0x1
 18874 17a7 5F05     		.2byte	0x55f
 18875 17a9 E6030000 		.4byte	0x3e6
 18876 17ad 02       		.uleb128 0x2
 18877 17ae 91       		.byte	0x91
 18878 17af 60       		.sleb128 -32
 18879 17b0 00       		.byte	0
 18880 17b1 18       		.uleb128 0x18
 18881 17b2 45120000 		.4byte	.LASF217
 18882 17b6 01       		.byte	0x1
 18883 17b7 4D05     		.2byte	0x54d
 18884 17b9 61010000 		.4byte	0x161
 18885 17bd 00000000 		.4byte	.LFB97
 18886 17c1 64000000 		.4byte	.LFE97-.LFB97
 18887 17c5 01       		.uleb128 0x1
 18888 17c6 9C       		.byte	0x9c
 18889 17c7 F7170000 		.4byte	0x17f7
 18890 17cb 19       		.uleb128 0x19
 18891 17cc 63747800 		.ascii	"ctx\000"
 18892 17d0 01       		.byte	0x1
 18893 17d1 4D05     		.2byte	0x54d
 18894 17d3 F50D0000 		.4byte	0xdf5
 18895 17d7 02       		.uleb128 0x2
 18896 17d8 91       		.byte	0x91
 18897 17d9 5C       		.sleb128 -36
 18898 17da 19       		.uleb128 0x19
 18899 17db 6300     		.ascii	"c\000"
 18900 17dd 01       		.byte	0x1
 18901 17de 4D05     		.2byte	0x54d
 18902 17e0 E4080000 		.4byte	0x8e4
 18903 17e4 02       		.uleb128 0x2
 18904 17e5 91       		.byte	0x91
 18905 17e6 58       		.sleb128 -40
 18906 17e7 1E       		.uleb128 0x1e
 18907 17e8 6F626A00 		.ascii	"obj\000"
 18908 17ec 01       		.byte	0x1
 18909 17ed 4E05     		.2byte	0x54e
 18910 17ef E6030000 		.4byte	0x3e6
 18911 17f3 02       		.uleb128 0x2
 18912 17f4 91       		.byte	0x91
 18913 17f5 60       		.sleb128 -32
 18914 17f6 00       		.byte	0
 18915 17f7 18       		.uleb128 0x18
 18916 17f8 72030000 		.4byte	.LASF218
ARM GAS  C:\Users\PCHAUT~1\AppData\Local\Temp\ccacj52E.s 			page 334


 18917 17fc 01       		.byte	0x1
 18918 17fd 3E05     		.2byte	0x53e
 18919 17ff 61010000 		.4byte	0x161
 18920 1803 00000000 		.4byte	.LFB96
 18921 1807 60000000 		.4byte	.LFE96-.LFB96
 18922 180b 01       		.uleb128 0x1
 18923 180c 9C       		.byte	0x9c
 18924 180d 3D180000 		.4byte	0x183d
 18925 1811 19       		.uleb128 0x19
 18926 1812 63747800 		.ascii	"ctx\000"
 18927 1816 01       		.byte	0x1
 18928 1817 3E05     		.2byte	0x53e
 18929 1819 F50D0000 		.4byte	0xdf5
 18930 181d 02       		.uleb128 0x2
 18931 181e 91       		.byte	0x91
 18932 181f 5C       		.sleb128 -36
 18933 1820 19       		.uleb128 0x19
 18934 1821 6C00     		.ascii	"l\000"
 18935 1823 01       		.byte	0x1
 18936 1824 3E05     		.2byte	0x53e
 18937 1826 FC070000 		.4byte	0x7fc
 18938 182a 02       		.uleb128 0x2
 18939 182b 91       		.byte	0x91
 18940 182c 58       		.sleb128 -40
 18941 182d 1E       		.uleb128 0x1e
 18942 182e 6F626A00 		.ascii	"obj\000"
 18943 1832 01       		.byte	0x1
 18944 1833 3F05     		.2byte	0x53f
 18945 1835 E6030000 		.4byte	0x3e6
 18946 1839 02       		.uleb128 0x2
 18947 183a 91       		.byte	0x91
 18948 183b 60       		.sleb128 -32
 18949 183c 00       		.byte	0
 18950 183d 18       		.uleb128 0x18
 18951 183e CC010000 		.4byte	.LASF219
 18952 1842 01       		.byte	0x1
 18953 1843 2F05     		.2byte	0x52f
 18954 1845 61010000 		.4byte	0x161
 18955 1849 00000000 		.4byte	.LFB95
 18956 184d 5C000000 		.4byte	.LFE95-.LFB95
 18957 1851 01       		.uleb128 0x1
 18958 1852 9C       		.byte	0x9c
 18959 1853 83180000 		.4byte	0x1883
 18960 1857 19       		.uleb128 0x19
 18961 1858 63747800 		.ascii	"ctx\000"
 18962 185c 01       		.byte	0x1
 18963 185d 2F05     		.2byte	0x52f
 18964 185f F50D0000 		.4byte	0xdf5
 18965 1863 02       		.uleb128 0x2
 18966 1864 91       		.byte	0x91
 18967 1865 5C       		.sleb128 -36
 18968 1866 19       		.uleb128 0x19
 18969 1867 6900     		.ascii	"i\000"
 18970 1869 01       		.byte	0x1
 18971 186a 2F05     		.2byte	0x52f
 18972 186c 24060000 		.4byte	0x624
 18973 1870 02       		.uleb128 0x2
ARM GAS  C:\Users\PCHAUT~1\AppData\Local\Temp\ccacj52E.s 			page 335


 18974 1871 91       		.byte	0x91
 18975 1872 58       		.sleb128 -40
 18976 1873 1E       		.uleb128 0x1e
 18977 1874 6F626A00 		.ascii	"obj\000"
 18978 1878 01       		.byte	0x1
 18979 1879 3005     		.2byte	0x530
 18980 187b E6030000 		.4byte	0x3e6
 18981 187f 02       		.uleb128 0x2
 18982 1880 91       		.byte	0x91
 18983 1881 60       		.sleb128 -32
 18984 1882 00       		.byte	0
 18985 1883 18       		.uleb128 0x18
 18986 1884 70120000 		.4byte	.LASF220
 18987 1888 01       		.byte	0x1
 18988 1889 2005     		.2byte	0x520
 18989 188b 61010000 		.4byte	0x161
 18990 188f 00000000 		.4byte	.LFB94
 18991 1893 60000000 		.4byte	.LFE94-.LFB94
 18992 1897 01       		.uleb128 0x1
 18993 1898 9C       		.byte	0x9c
 18994 1899 C9180000 		.4byte	0x18c9
 18995 189d 19       		.uleb128 0x19
 18996 189e 63747800 		.ascii	"ctx\000"
 18997 18a2 01       		.byte	0x1
 18998 18a3 2005     		.2byte	0x520
 18999 18a5 F50D0000 		.4byte	0xdf5
 19000 18a9 02       		.uleb128 0x2
 19001 18aa 91       		.byte	0x91
 19002 18ab 5C       		.sleb128 -36
 19003 18ac 19       		.uleb128 0x19
 19004 18ad 7300     		.ascii	"s\000"
 19005 18af 01       		.byte	0x1
 19006 18b0 2005     		.2byte	0x520
 19007 18b2 A7080000 		.4byte	0x8a7
 19008 18b6 02       		.uleb128 0x2
 19009 18b7 91       		.byte	0x91
 19010 18b8 58       		.sleb128 -40
 19011 18b9 1E       		.uleb128 0x1e
 19012 18ba 6F626A00 		.ascii	"obj\000"
 19013 18be 01       		.byte	0x1
 19014 18bf 2105     		.2byte	0x521
 19015 18c1 E6030000 		.4byte	0x3e6
 19016 18c5 02       		.uleb128 0x2
 19017 18c6 91       		.byte	0x91
 19018 18c7 60       		.sleb128 -32
 19019 18c8 00       		.byte	0
 19020 18c9 18       		.uleb128 0x18
 19021 18ca 8C020000 		.4byte	.LASF221
 19022 18ce 01       		.byte	0x1
 19023 18cf 1105     		.2byte	0x511
 19024 18d1 61010000 		.4byte	0x161
 19025 18d5 00000000 		.4byte	.LFB93
 19026 18d9 60000000 		.4byte	.LFE93-.LFB93
 19027 18dd 01       		.uleb128 0x1
 19028 18de 9C       		.byte	0x9c
 19029 18df 0F190000 		.4byte	0x190f
 19030 18e3 19       		.uleb128 0x19
ARM GAS  C:\Users\PCHAUT~1\AppData\Local\Temp\ccacj52E.s 			page 336


 19031 18e4 63747800 		.ascii	"ctx\000"
 19032 18e8 01       		.byte	0x1
 19033 18e9 1105     		.2byte	0x511
 19034 18eb F50D0000 		.4byte	0xdf5
 19035 18ef 02       		.uleb128 0x2
 19036 18f0 91       		.byte	0x91
 19037 18f1 5C       		.sleb128 -36
 19038 18f2 19       		.uleb128 0x19
 19039 18f3 6300     		.ascii	"c\000"
 19040 18f5 01       		.byte	0x1
 19041 18f6 1105     		.2byte	0x511
 19042 18f8 E4080000 		.4byte	0x8e4
 19043 18fc 02       		.uleb128 0x2
 19044 18fd 91       		.byte	0x91
 19045 18fe 58       		.sleb128 -40
 19046 18ff 1E       		.uleb128 0x1e
 19047 1900 6F626A00 		.ascii	"obj\000"
 19048 1904 01       		.byte	0x1
 19049 1905 1205     		.2byte	0x512
 19050 1907 E6030000 		.4byte	0x3e6
 19051 190b 02       		.uleb128 0x2
 19052 190c 91       		.byte	0x91
 19053 190d 60       		.sleb128 -32
 19054 190e 00       		.byte	0
 19055 190f 18       		.uleb128 0x18
 19056 1910 6D0A0000 		.4byte	.LASF222
 19057 1914 01       		.byte	0x1
 19058 1915 0205     		.2byte	0x502
 19059 1917 61010000 		.4byte	0x161
 19060 191b 00000000 		.4byte	.LFB92
 19061 191f 60000000 		.4byte	.LFE92-.LFB92
 19062 1923 01       		.uleb128 0x1
 19063 1924 9C       		.byte	0x9c
 19064 1925 55190000 		.4byte	0x1955
 19065 1929 19       		.uleb128 0x19
 19066 192a 63747800 		.ascii	"ctx\000"
 19067 192e 01       		.byte	0x1
 19068 192f 0205     		.2byte	0x502
 19069 1931 F50D0000 		.4byte	0xdf5
 19070 1935 02       		.uleb128 0x2
 19071 1936 91       		.byte	0x91
 19072 1937 5C       		.sleb128 -36
 19073 1938 19       		.uleb128 0x19
 19074 1939 6300     		.ascii	"c\000"
 19075 193b 01       		.byte	0x1
 19076 193c 0205     		.2byte	0x502
 19077 193e E4080000 		.4byte	0x8e4
 19078 1942 02       		.uleb128 0x2
 19079 1943 91       		.byte	0x91
 19080 1944 58       		.sleb128 -40
 19081 1945 1E       		.uleb128 0x1e
 19082 1946 6F626A00 		.ascii	"obj\000"
 19083 194a 01       		.byte	0x1
 19084 194b 0305     		.2byte	0x503
 19085 194d E6030000 		.4byte	0x3e6
 19086 1951 02       		.uleb128 0x2
 19087 1952 91       		.byte	0x91
ARM GAS  C:\Users\PCHAUT~1\AppData\Local\Temp\ccacj52E.s 			page 337


 19088 1953 60       		.sleb128 -32
 19089 1954 00       		.byte	0
 19090 1955 18       		.uleb128 0x18
 19091 1956 0A090000 		.4byte	.LASF223
 19092 195a 01       		.byte	0x1
 19093 195b FE04     		.2byte	0x4fe
 19094 195d 61010000 		.4byte	0x161
 19095 1961 00000000 		.4byte	.LFB91
 19096 1965 34000000 		.4byte	.LFE91-.LFB91
 19097 1969 01       		.uleb128 0x1
 19098 196a 9C       		.byte	0x9c
 19099 196b 8C190000 		.4byte	0x198c
 19100 196f 19       		.uleb128 0x19
 19101 1970 63747800 		.ascii	"ctx\000"
 19102 1974 01       		.byte	0x1
 19103 1975 FE04     		.2byte	0x4fe
 19104 1977 F50D0000 		.4byte	0xdf5
 19105 197b 02       		.uleb128 0x2
 19106 197c 91       		.byte	0x91
 19107 197d 6C       		.sleb128 -20
 19108 197e 19       		.uleb128 0x19
 19109 197f 6400     		.ascii	"d\000"
 19110 1981 01       		.byte	0x1
 19111 1982 FE04     		.2byte	0x4fe
 19112 1984 21090000 		.4byte	0x921
 19113 1988 02       		.uleb128 0x2
 19114 1989 91       		.byte	0x91
 19115 198a 68       		.sleb128 -24
 19116 198b 00       		.byte	0
 19117 198c 18       		.uleb128 0x18
 19118 198d 57040000 		.4byte	.LASF224
 19119 1991 01       		.byte	0x1
 19120 1992 D504     		.2byte	0x4d5
 19121 1994 61010000 		.4byte	0x161
 19122 1998 00000000 		.4byte	.LFB90
 19123 199c 7C010000 		.4byte	.LFE90-.LFB90
 19124 19a0 01       		.uleb128 0x1
 19125 19a1 9C       		.byte	0x9c
 19126 19a2 D2190000 		.4byte	0x19d2
 19127 19a6 19       		.uleb128 0x19
 19128 19a7 63747800 		.ascii	"ctx\000"
 19129 19ab 01       		.byte	0x1
 19130 19ac D504     		.2byte	0x4d5
 19131 19ae F50D0000 		.4byte	0xdf5
 19132 19b2 02       		.uleb128 0x2
 19133 19b3 91       		.byte	0x91
 19134 19b4 5C       		.sleb128 -36
 19135 19b5 19       		.uleb128 0x19
 19136 19b6 6400     		.ascii	"d\000"
 19137 19b8 01       		.byte	0x1
 19138 19b9 D504     		.2byte	0x4d5
 19139 19bb 21090000 		.4byte	0x921
 19140 19bf 02       		.uleb128 0x2
 19141 19c0 91       		.byte	0x91
 19142 19c1 58       		.sleb128 -40
 19143 19c2 1E       		.uleb128 0x1e
 19144 19c3 6F626A00 		.ascii	"obj\000"
ARM GAS  C:\Users\PCHAUT~1\AppData\Local\Temp\ccacj52E.s 			page 338


 19145 19c7 01       		.byte	0x1
 19146 19c8 D604     		.2byte	0x4d6
 19147 19ca E6030000 		.4byte	0x3e6
 19148 19ce 02       		.uleb128 0x2
 19149 19cf 91       		.byte	0x91
 19150 19d0 60       		.sleb128 -32
 19151 19d1 00       		.byte	0
 19152 19d2 18       		.uleb128 0x18
 19153 19d3 BE020000 		.4byte	.LASF225
 19154 19d7 01       		.byte	0x1
 19155 19d8 B204     		.2byte	0x4b2
 19156 19da 61010000 		.4byte	0x161
 19157 19de 00000000 		.4byte	.LFB89
 19158 19e2 3C010000 		.4byte	.LFE89-.LFB89
 19159 19e6 01       		.uleb128 0x1
 19160 19e7 9C       		.byte	0x9c
 19161 19e8 181A0000 		.4byte	0x1a18
 19162 19ec 19       		.uleb128 0x19
 19163 19ed 63747800 		.ascii	"ctx\000"
 19164 19f1 01       		.byte	0x1
 19165 19f2 B204     		.2byte	0x4b2
 19166 19f4 F50D0000 		.4byte	0xdf5
 19167 19f8 02       		.uleb128 0x2
 19168 19f9 91       		.byte	0x91
 19169 19fa 5C       		.sleb128 -36
 19170 19fb 19       		.uleb128 0x19
 19171 19fc 6900     		.ascii	"i\000"
 19172 19fe 01       		.byte	0x1
 19173 19ff B204     		.2byte	0x4b2
 19174 1a01 95090000 		.4byte	0x995
 19175 1a05 02       		.uleb128 0x2
 19176 1a06 91       		.byte	0x91
 19177 1a07 58       		.sleb128 -40
 19178 1a08 1E       		.uleb128 0x1e
 19179 1a09 6F626A00 		.ascii	"obj\000"
 19180 1a0d 01       		.byte	0x1
 19181 1a0e B304     		.2byte	0x4b3
 19182 1a10 E6030000 		.4byte	0x3e6
 19183 1a14 02       		.uleb128 0x2
 19184 1a15 91       		.byte	0x91
 19185 1a16 60       		.sleb128 -32
 19186 1a17 00       		.byte	0
 19187 1a18 18       		.uleb128 0x18
 19188 1a19 15080000 		.4byte	.LASF226
 19189 1a1d 01       		.byte	0x1
 19190 1a1e 9504     		.2byte	0x495
 19191 1a20 61010000 		.4byte	0x161
 19192 1a24 00000000 		.4byte	.LFB88
 19193 1a28 28010000 		.4byte	.LFE88-.LFB88
 19194 1a2c 01       		.uleb128 0x1
 19195 1a2d 9C       		.byte	0x9c
 19196 1a2e 5E1A0000 		.4byte	0x1a5e
 19197 1a32 19       		.uleb128 0x19
 19198 1a33 63747800 		.ascii	"ctx\000"
 19199 1a37 01       		.byte	0x1
 19200 1a38 9504     		.2byte	0x495
 19201 1a3a F50D0000 		.4byte	0xdf5
ARM GAS  C:\Users\PCHAUT~1\AppData\Local\Temp\ccacj52E.s 			page 339


 19202 1a3e 02       		.uleb128 0x2
 19203 1a3f 91       		.byte	0x91
 19204 1a40 5C       		.sleb128 -36
 19205 1a41 19       		.uleb128 0x19
 19206 1a42 7300     		.ascii	"s\000"
 19207 1a44 01       		.byte	0x1
 19208 1a45 9504     		.2byte	0x495
 19209 1a47 D2090000 		.4byte	0x9d2
 19210 1a4b 02       		.uleb128 0x2
 19211 1a4c 91       		.byte	0x91
 19212 1a4d 58       		.sleb128 -40
 19213 1a4e 1E       		.uleb128 0x1e
 19214 1a4f 6F626A00 		.ascii	"obj\000"
 19215 1a53 01       		.byte	0x1
 19216 1a54 9604     		.2byte	0x496
 19217 1a56 E6030000 		.4byte	0x3e6
 19218 1a5a 02       		.uleb128 0x2
 19219 1a5b 91       		.byte	0x91
 19220 1a5c 60       		.sleb128 -32
 19221 1a5d 00       		.byte	0
 19222 1a5e 18       		.uleb128 0x18
 19223 1a5f F4070000 		.4byte	.LASF227
 19224 1a63 01       		.byte	0x1
 19225 1a64 7E04     		.2byte	0x47e
 19226 1a66 61010000 		.4byte	0x161
 19227 1a6a 00000000 		.4byte	.LFB87
 19228 1a6e 0C010000 		.4byte	.LFE87-.LFB87
 19229 1a72 01       		.uleb128 0x1
 19230 1a73 9C       		.byte	0x9c
 19231 1a74 A41A0000 		.4byte	0x1aa4
 19232 1a78 19       		.uleb128 0x19
 19233 1a79 63747800 		.ascii	"ctx\000"
 19234 1a7d 01       		.byte	0x1
 19235 1a7e 7E04     		.2byte	0x47e
 19236 1a80 F50D0000 		.4byte	0xdf5
 19237 1a84 02       		.uleb128 0x2
 19238 1a85 91       		.byte	0x91
 19239 1a86 5C       		.sleb128 -36
 19240 1a87 19       		.uleb128 0x19
 19241 1a88 6300     		.ascii	"c\000"
 19242 1a8a 01       		.byte	0x1
 19243 1a8b 7E04     		.2byte	0x47e
 19244 1a8d 1E060000 		.4byte	0x61e
 19245 1a91 02       		.uleb128 0x2
 19246 1a92 91       		.byte	0x91
 19247 1a93 58       		.sleb128 -40
 19248 1a94 1E       		.uleb128 0x1e
 19249 1a95 6F626A00 		.ascii	"obj\000"
 19250 1a99 01       		.byte	0x1
 19251 1a9a 7F04     		.2byte	0x47f
 19252 1a9c E6030000 		.4byte	0x3e6
 19253 1aa0 02       		.uleb128 0x2
 19254 1aa1 91       		.byte	0x91
 19255 1aa2 60       		.sleb128 -32
 19256 1aa3 00       		.byte	0
 19257 1aa4 18       		.uleb128 0x18
 19258 1aa5 75070000 		.4byte	.LASF228
ARM GAS  C:\Users\PCHAUT~1\AppData\Local\Temp\ccacj52E.s 			page 340


 19259 1aa9 01       		.byte	0x1
 19260 1aaa 6F04     		.2byte	0x46f
 19261 1aac 61010000 		.4byte	0x161
 19262 1ab0 00000000 		.4byte	.LFB86
 19263 1ab4 60000000 		.4byte	.LFE86-.LFB86
 19264 1ab8 01       		.uleb128 0x1
 19265 1ab9 9C       		.byte	0x9c
 19266 1aba EA1A0000 		.4byte	0x1aea
 19267 1abe 19       		.uleb128 0x19
 19268 1abf 63747800 		.ascii	"ctx\000"
 19269 1ac3 01       		.byte	0x1
 19270 1ac4 6F04     		.2byte	0x46f
 19271 1ac6 F50D0000 		.4byte	0xdf5
 19272 1aca 02       		.uleb128 0x2
 19273 1acb 91       		.byte	0x91
 19274 1acc 5C       		.sleb128 -36
 19275 1acd 19       		.uleb128 0x19
 19276 1ace 6C00     		.ascii	"l\000"
 19277 1ad0 01       		.byte	0x1
 19278 1ad1 6F04     		.2byte	0x46f
 19279 1ad3 21090000 		.4byte	0x921
 19280 1ad7 02       		.uleb128 0x2
 19281 1ad8 91       		.byte	0x91
 19282 1ad9 58       		.sleb128 -40
 19283 1ada 1E       		.uleb128 0x1e
 19284 1adb 6F626A00 		.ascii	"obj\000"
 19285 1adf 01       		.byte	0x1
 19286 1ae0 7004     		.2byte	0x470
 19287 1ae2 E6030000 		.4byte	0x3e6
 19288 1ae6 02       		.uleb128 0x2
 19289 1ae7 91       		.byte	0x91
 19290 1ae8 60       		.sleb128 -32
 19291 1ae9 00       		.byte	0
 19292 1aea 18       		.uleb128 0x18
 19293 1aeb BC030000 		.4byte	.LASF229
 19294 1aef 01       		.byte	0x1
 19295 1af0 6004     		.2byte	0x460
 19296 1af2 61010000 		.4byte	0x161
 19297 1af6 00000000 		.4byte	.LFB85
 19298 1afa 5C000000 		.4byte	.LFE85-.LFB85
 19299 1afe 01       		.uleb128 0x1
 19300 1aff 9C       		.byte	0x9c
 19301 1b00 301B0000 		.4byte	0x1b30
 19302 1b04 19       		.uleb128 0x19
 19303 1b05 63747800 		.ascii	"ctx\000"
 19304 1b09 01       		.byte	0x1
 19305 1b0a 6004     		.2byte	0x460
 19306 1b0c F50D0000 		.4byte	0xdf5
 19307 1b10 02       		.uleb128 0x2
 19308 1b11 91       		.byte	0x91
 19309 1b12 5C       		.sleb128 -36
 19310 1b13 19       		.uleb128 0x19
 19311 1b14 6900     		.ascii	"i\000"
 19312 1b16 01       		.byte	0x1
 19313 1b17 6004     		.2byte	0x460
 19314 1b19 95090000 		.4byte	0x995
 19315 1b1d 02       		.uleb128 0x2
ARM GAS  C:\Users\PCHAUT~1\AppData\Local\Temp\ccacj52E.s 			page 341


 19316 1b1e 91       		.byte	0x91
 19317 1b1f 58       		.sleb128 -40
 19318 1b20 1E       		.uleb128 0x1e
 19319 1b21 6F626A00 		.ascii	"obj\000"
 19320 1b25 01       		.byte	0x1
 19321 1b26 6104     		.2byte	0x461
 19322 1b28 E6030000 		.4byte	0x3e6
 19323 1b2c 02       		.uleb128 0x2
 19324 1b2d 91       		.byte	0x91
 19325 1b2e 60       		.sleb128 -32
 19326 1b2f 00       		.byte	0
 19327 1b30 18       		.uleb128 0x18
 19328 1b31 B2040000 		.4byte	.LASF230
 19329 1b35 01       		.byte	0x1
 19330 1b36 5104     		.2byte	0x451
 19331 1b38 61010000 		.4byte	0x161
 19332 1b3c 00000000 		.4byte	.LFB84
 19333 1b40 60000000 		.4byte	.LFE84-.LFB84
 19334 1b44 01       		.uleb128 0x1
 19335 1b45 9C       		.byte	0x9c
 19336 1b46 761B0000 		.4byte	0x1b76
 19337 1b4a 19       		.uleb128 0x19
 19338 1b4b 63747800 		.ascii	"ctx\000"
 19339 1b4f 01       		.byte	0x1
 19340 1b50 5104     		.2byte	0x451
 19341 1b52 F50D0000 		.4byte	0xdf5
 19342 1b56 02       		.uleb128 0x2
 19343 1b57 91       		.byte	0x91
 19344 1b58 5C       		.sleb128 -36
 19345 1b59 19       		.uleb128 0x19
 19346 1b5a 7300     		.ascii	"s\000"
 19347 1b5c 01       		.byte	0x1
 19348 1b5d 5104     		.2byte	0x451
 19349 1b5f D2090000 		.4byte	0x9d2
 19350 1b63 02       		.uleb128 0x2
 19351 1b64 91       		.byte	0x91
 19352 1b65 58       		.sleb128 -40
 19353 1b66 1E       		.uleb128 0x1e
 19354 1b67 6F626A00 		.ascii	"obj\000"
 19355 1b6b 01       		.byte	0x1
 19356 1b6c 5204     		.2byte	0x452
 19357 1b6e E6030000 		.4byte	0x3e6
 19358 1b72 02       		.uleb128 0x2
 19359 1b73 91       		.byte	0x91
 19360 1b74 60       		.sleb128 -32
 19361 1b75 00       		.byte	0
 19362 1b76 18       		.uleb128 0x18
 19363 1b77 00000000 		.4byte	.LASF231
 19364 1b7b 01       		.byte	0x1
 19365 1b7c 4204     		.2byte	0x442
 19366 1b7e 61010000 		.4byte	0x161
 19367 1b82 00000000 		.4byte	.LFB83
 19368 1b86 60000000 		.4byte	.LFE83-.LFB83
 19369 1b8a 01       		.uleb128 0x1
 19370 1b8b 9C       		.byte	0x9c
 19371 1b8c BC1B0000 		.4byte	0x1bbc
 19372 1b90 19       		.uleb128 0x19
ARM GAS  C:\Users\PCHAUT~1\AppData\Local\Temp\ccacj52E.s 			page 342


 19373 1b91 63747800 		.ascii	"ctx\000"
 19374 1b95 01       		.byte	0x1
 19375 1b96 4204     		.2byte	0x442
 19376 1b98 F50D0000 		.4byte	0xdf5
 19377 1b9c 02       		.uleb128 0x2
 19378 1b9d 91       		.byte	0x91
 19379 1b9e 5C       		.sleb128 -36
 19380 1b9f 19       		.uleb128 0x19
 19381 1ba0 6300     		.ascii	"c\000"
 19382 1ba2 01       		.byte	0x1
 19383 1ba3 4204     		.2byte	0x442
 19384 1ba5 1E060000 		.4byte	0x61e
 19385 1ba9 02       		.uleb128 0x2
 19386 1baa 91       		.byte	0x91
 19387 1bab 58       		.sleb128 -40
 19388 1bac 1E       		.uleb128 0x1e
 19389 1bad 6F626A00 		.ascii	"obj\000"
 19390 1bb1 01       		.byte	0x1
 19391 1bb2 4304     		.2byte	0x443
 19392 1bb4 E6030000 		.4byte	0x3e6
 19393 1bb8 02       		.uleb128 0x2
 19394 1bb9 91       		.byte	0x91
 19395 1bba 60       		.sleb128 -32
 19396 1bbb 00       		.byte	0
 19397 1bbc 18       		.uleb128 0x18
 19398 1bbd 4D0E0000 		.4byte	.LASF232
 19399 1bc1 01       		.byte	0x1
 19400 1bc2 3104     		.2byte	0x431
 19401 1bc4 61010000 		.4byte	0x161
 19402 1bc8 00000000 		.4byte	.LFB82
 19403 1bcc 64000000 		.4byte	.LFE82-.LFB82
 19404 1bd0 01       		.uleb128 0x1
 19405 1bd1 9C       		.byte	0x9c
 19406 1bd2 021C0000 		.4byte	0x1c02
 19407 1bd6 19       		.uleb128 0x19
 19408 1bd7 63747800 		.ascii	"ctx\000"
 19409 1bdb 01       		.byte	0x1
 19410 1bdc 3104     		.2byte	0x431
 19411 1bde F50D0000 		.4byte	0xdf5
 19412 1be2 02       		.uleb128 0x2
 19413 1be3 91       		.byte	0x91
 19414 1be4 5C       		.sleb128 -36
 19415 1be5 19       		.uleb128 0x19
 19416 1be6 6300     		.ascii	"c\000"
 19417 1be8 01       		.byte	0x1
 19418 1be9 3104     		.2byte	0x431
 19419 1beb 1E060000 		.4byte	0x61e
 19420 1bef 02       		.uleb128 0x2
 19421 1bf0 91       		.byte	0x91
 19422 1bf1 58       		.sleb128 -40
 19423 1bf2 1E       		.uleb128 0x1e
 19424 1bf3 6F626A00 		.ascii	"obj\000"
 19425 1bf7 01       		.byte	0x1
 19426 1bf8 3204     		.2byte	0x432
 19427 1bfa E6030000 		.4byte	0x3e6
 19428 1bfe 02       		.uleb128 0x2
 19429 1bff 91       		.byte	0x91
ARM GAS  C:\Users\PCHAUT~1\AppData\Local\Temp\ccacj52E.s 			page 343


 19430 1c00 60       		.sleb128 -32
 19431 1c01 00       		.byte	0
 19432 1c02 18       		.uleb128 0x18
 19433 1c03 B8090000 		.4byte	.LASF233
 19434 1c07 01       		.byte	0x1
 19435 1c08 2204     		.2byte	0x422
 19436 1c0a 61010000 		.4byte	0x161
 19437 1c0e 00000000 		.4byte	.LFB81
 19438 1c12 60000000 		.4byte	.LFE81-.LFB81
 19439 1c16 01       		.uleb128 0x1
 19440 1c17 9C       		.byte	0x9c
 19441 1c18 481C0000 		.4byte	0x1c48
 19442 1c1c 19       		.uleb128 0x19
 19443 1c1d 63747800 		.ascii	"ctx\000"
 19444 1c21 01       		.byte	0x1
 19445 1c22 2204     		.2byte	0x422
 19446 1c24 F50D0000 		.4byte	0xdf5
 19447 1c28 02       		.uleb128 0x2
 19448 1c29 91       		.byte	0x91
 19449 1c2a 5C       		.sleb128 -36
 19450 1c2b 19       		.uleb128 0x19
 19451 1c2c 6300     		.ascii	"c\000"
 19452 1c2e 01       		.byte	0x1
 19453 1c2f 2204     		.2byte	0x422
 19454 1c31 1E060000 		.4byte	0x61e
 19455 1c35 02       		.uleb128 0x2
 19456 1c36 91       		.byte	0x91
 19457 1c37 58       		.sleb128 -40
 19458 1c38 1E       		.uleb128 0x1e
 19459 1c39 6F626A00 		.ascii	"obj\000"
 19460 1c3d 01       		.byte	0x1
 19461 1c3e 2304     		.2byte	0x423
 19462 1c40 E6030000 		.4byte	0x3e6
 19463 1c44 02       		.uleb128 0x2
 19464 1c45 91       		.byte	0x91
 19465 1c46 60       		.sleb128 -32
 19466 1c47 00       		.byte	0
 19467 1c48 18       		.uleb128 0x18
 19468 1c49 FA0C0000 		.4byte	.LASF234
 19469 1c4d 01       		.byte	0x1
 19470 1c4e 1304     		.2byte	0x413
 19471 1c50 61010000 		.4byte	0x161
 19472 1c54 00000000 		.4byte	.LFB80
 19473 1c58 60000000 		.4byte	.LFE80-.LFB80
 19474 1c5c 01       		.uleb128 0x1
 19475 1c5d 9C       		.byte	0x9c
 19476 1c5e 8E1C0000 		.4byte	0x1c8e
 19477 1c62 19       		.uleb128 0x19
 19478 1c63 63747800 		.ascii	"ctx\000"
 19479 1c67 01       		.byte	0x1
 19480 1c68 1304     		.2byte	0x413
 19481 1c6a F50D0000 		.4byte	0xdf5
 19482 1c6e 02       		.uleb128 0x2
 19483 1c6f 91       		.byte	0x91
 19484 1c70 5C       		.sleb128 -36
 19485 1c71 19       		.uleb128 0x19
 19486 1c72 6300     		.ascii	"c\000"
ARM GAS  C:\Users\PCHAUT~1\AppData\Local\Temp\ccacj52E.s 			page 344


 19487 1c74 01       		.byte	0x1
 19488 1c75 1304     		.2byte	0x413
 19489 1c77 E4080000 		.4byte	0x8e4
 19490 1c7b 02       		.uleb128 0x2
 19491 1c7c 91       		.byte	0x91
 19492 1c7d 58       		.sleb128 -40
 19493 1c7e 1E       		.uleb128 0x1e
 19494 1c7f 6F626A00 		.ascii	"obj\000"
 19495 1c83 01       		.byte	0x1
 19496 1c84 1404     		.2byte	0x414
 19497 1c86 E6030000 		.4byte	0x3e6
 19498 1c8a 02       		.uleb128 0x2
 19499 1c8b 91       		.byte	0x91
 19500 1c8c 60       		.sleb128 -32
 19501 1c8d 00       		.byte	0
 19502 1c8e 18       		.uleb128 0x18
 19503 1c8f 2A120000 		.4byte	.LASF235
 19504 1c93 01       		.byte	0x1
 19505 1c94 C303     		.2byte	0x3c3
 19506 1c96 61010000 		.4byte	0x161
 19507 1c9a 00000000 		.4byte	.LFB79
 19508 1c9e 54030000 		.4byte	.LFE79-.LFB79
 19509 1ca2 01       		.uleb128 0x1
 19510 1ca3 9C       		.byte	0x9c
 19511 1ca4 C71C0000 		.4byte	0x1cc7
 19512 1ca8 19       		.uleb128 0x19
 19513 1ca9 63747800 		.ascii	"ctx\000"
 19514 1cad 01       		.byte	0x1
 19515 1cae C303     		.2byte	0x3c3
 19516 1cb0 F50D0000 		.4byte	0xdf5
 19517 1cb4 02       		.uleb128 0x2
 19518 1cb5 91       		.byte	0x91
 19519 1cb6 6C       		.sleb128 -20
 19520 1cb7 19       		.uleb128 0x19
 19521 1cb8 6F626A00 		.ascii	"obj\000"
 19522 1cbc 01       		.byte	0x1
 19523 1cbd C303     		.2byte	0x3c3
 19524 1cbf 18060000 		.4byte	0x618
 19525 1cc3 02       		.uleb128 0x2
 19526 1cc4 91       		.byte	0x91
 19527 1cc5 68       		.sleb128 -24
 19528 1cc6 00       		.byte	0
 19529 1cc7 18       		.uleb128 0x18
 19530 1cc8 7D0C0000 		.4byte	.LASF236
 19531 1ccc 01       		.byte	0x1
 19532 1ccd B003     		.2byte	0x3b0
 19533 1ccf 61010000 		.4byte	0x161
 19534 1cd3 00000000 		.4byte	.LFB78
 19535 1cd7 F0000000 		.4byte	.LFE78-.LFB78
 19536 1cdb 01       		.uleb128 0x1
 19537 1cdc 9C       		.byte	0x9c
 19538 1cdd 1C1D0000 		.4byte	0x1d1c
 19539 1ce1 19       		.uleb128 0x19
 19540 1ce2 63747800 		.ascii	"ctx\000"
 19541 1ce6 01       		.byte	0x1
 19542 1ce7 B003     		.2byte	0x3b0
 19543 1ce9 F50D0000 		.4byte	0xdf5
ARM GAS  C:\Users\PCHAUT~1\AppData\Local\Temp\ccacj52E.s 			page 345


 19544 1ced 02       		.uleb128 0x2
 19545 1cee 91       		.byte	0x91
 19546 1cef 6C       		.sleb128 -20
 19547 1cf0 19       		.uleb128 0x19
 19548 1cf1 747000   		.ascii	"tp\000"
 19549 1cf4 01       		.byte	0x1
 19550 1cf5 B003     		.2byte	0x3b0
 19551 1cf7 D5000000 		.4byte	0xd5
 19552 1cfb 02       		.uleb128 0x2
 19553 1cfc 91       		.byte	0x91
 19554 1cfd 6B       		.sleb128 -21
 19555 1cfe 19       		.uleb128 0x19
 19556 1cff 737A00   		.ascii	"sz\000"
 19557 1d02 01       		.byte	0x1
 19558 1d03 B003     		.2byte	0x3b0
 19559 1d05 11010000 		.4byte	0x111
 19560 1d09 02       		.uleb128 0x2
 19561 1d0a 91       		.byte	0x91
 19562 1d0b 64       		.sleb128 -28
 19563 1d0c 1A       		.uleb128 0x1a
 19564 1d0d 93080000 		.4byte	.LASF184
 19565 1d11 01       		.byte	0x1
 19566 1d12 B003     		.2byte	0x3b0
 19567 1d14 D7010000 		.4byte	0x1d7
 19568 1d18 02       		.uleb128 0x2
 19569 1d19 91       		.byte	0x91
 19570 1d1a 60       		.sleb128 -32
 19571 1d1b 00       		.byte	0
 19572 1d1c 18       		.uleb128 0x18
 19573 1d1d FD010000 		.4byte	.LASF237
 19574 1d21 01       		.byte	0x1
 19575 1d22 9D03     		.2byte	0x39d
 19576 1d24 61010000 		.4byte	0x161
 19577 1d28 00000000 		.4byte	.LFB77
 19578 1d2c E4000000 		.4byte	.LFE77-.LFB77
 19579 1d30 01       		.uleb128 0x1
 19580 1d31 9C       		.byte	0x9c
 19581 1d32 621D0000 		.4byte	0x1d62
 19582 1d36 19       		.uleb128 0x19
 19583 1d37 63747800 		.ascii	"ctx\000"
 19584 1d3b 01       		.byte	0x1
 19585 1d3c 9D03     		.2byte	0x39d
 19586 1d3e F50D0000 		.4byte	0xdf5
 19587 1d42 02       		.uleb128 0x2
 19588 1d43 91       		.byte	0x91
 19589 1d44 6C       		.sleb128 -20
 19590 1d45 19       		.uleb128 0x19
 19591 1d46 747000   		.ascii	"tp\000"
 19592 1d49 01       		.byte	0x1
 19593 1d4a 9D03     		.2byte	0x39d
 19594 1d4c D5000000 		.4byte	0xd5
 19595 1d50 02       		.uleb128 0x2
 19596 1d51 91       		.byte	0x91
 19597 1d52 6B       		.sleb128 -21
 19598 1d53 19       		.uleb128 0x19
 19599 1d54 737A00   		.ascii	"sz\000"
 19600 1d57 01       		.byte	0x1
ARM GAS  C:\Users\PCHAUT~1\AppData\Local\Temp\ccacj52E.s 			page 346


 19601 1d58 9D03     		.2byte	0x39d
 19602 1d5a 11010000 		.4byte	0x111
 19603 1d5e 02       		.uleb128 0x2
 19604 1d5f 91       		.byte	0x91
 19605 1d60 64       		.sleb128 -28
 19606 1d61 00       		.byte	0
 19607 1d62 18       		.uleb128 0x18
 19608 1d63 45070000 		.4byte	.LASF238
 19609 1d67 01       		.byte	0x1
 19610 1d68 9203     		.2byte	0x392
 19611 1d6a 61010000 		.4byte	0x161
 19612 1d6e 00000000 		.4byte	.LFB76
 19613 1d72 6C000000 		.4byte	.LFE76-.LFB76
 19614 1d76 01       		.uleb128 0x1
 19615 1d77 9C       		.byte	0x9c
 19616 1d78 B71D0000 		.4byte	0x1db7
 19617 1d7c 19       		.uleb128 0x19
 19618 1d7d 63747800 		.ascii	"ctx\000"
 19619 1d81 01       		.byte	0x1
 19620 1d82 9203     		.2byte	0x392
 19621 1d84 F50D0000 		.4byte	0xdf5
 19622 1d88 02       		.uleb128 0x2
 19623 1d89 91       		.byte	0x91
 19624 1d8a 6C       		.sleb128 -20
 19625 1d8b 19       		.uleb128 0x19
 19626 1d8c 747000   		.ascii	"tp\000"
 19627 1d8f 01       		.byte	0x1
 19628 1d90 9203     		.2byte	0x392
 19629 1d92 D5000000 		.4byte	0xd5
 19630 1d96 02       		.uleb128 0x2
 19631 1d97 91       		.byte	0x91
 19632 1d98 6B       		.sleb128 -21
 19633 1d99 19       		.uleb128 0x19
 19634 1d9a 737A00   		.ascii	"sz\000"
 19635 1d9d 01       		.byte	0x1
 19636 1d9e 9203     		.2byte	0x392
 19637 1da0 11010000 		.4byte	0x111
 19638 1da4 02       		.uleb128 0x2
 19639 1da5 91       		.byte	0x91
 19640 1da6 64       		.sleb128 -28
 19641 1da7 1A       		.uleb128 0x1a
 19642 1da8 93080000 		.4byte	.LASF184
 19643 1dac 01       		.byte	0x1
 19644 1dad 9203     		.2byte	0x392
 19645 1daf D7010000 		.4byte	0x1d7
 19646 1db3 02       		.uleb128 0x2
 19647 1db4 91       		.byte	0x91
 19648 1db5 60       		.sleb128 -32
 19649 1db6 00       		.byte	0
 19650 1db7 18       		.uleb128 0x18
 19651 1db8 22050000 		.4byte	.LASF239
 19652 1dbc 01       		.byte	0x1
 19653 1dbd 8003     		.2byte	0x380
 19654 1dbf 61010000 		.4byte	0x161
 19655 1dc3 00000000 		.4byte	.LFB75
 19656 1dc7 90000000 		.4byte	.LFE75-.LFB75
 19657 1dcb 01       		.uleb128 0x1
ARM GAS  C:\Users\PCHAUT~1\AppData\Local\Temp\ccacj52E.s 			page 347


 19658 1dcc 9C       		.byte	0x9c
 19659 1dcd FF1D0000 		.4byte	0x1dff
 19660 1dd1 19       		.uleb128 0x19
 19661 1dd2 63747800 		.ascii	"ctx\000"
 19662 1dd6 01       		.byte	0x1
 19663 1dd7 8003     		.2byte	0x380
 19664 1dd9 F50D0000 		.4byte	0xdf5
 19665 1ddd 02       		.uleb128 0x2
 19666 1dde 91       		.byte	0x91
 19667 1ddf 6C       		.sleb128 -20
 19668 1de0 1A       		.uleb128 0x1a
 19669 1de1 C8110000 		.4byte	.LASF70
 19670 1de5 01       		.byte	0x1
 19671 1de6 8003     		.2byte	0x380
 19672 1de8 D5000000 		.4byte	0xd5
 19673 1dec 02       		.uleb128 0x2
 19674 1ded 91       		.byte	0x91
 19675 1dee 6B       		.sleb128 -21
 19676 1def 1A       		.uleb128 0x1a
 19677 1df0 D60A0000 		.4byte	.LASF71
 19678 1df4 01       		.byte	0x1
 19679 1df5 8003     		.2byte	0x380
 19680 1df7 11010000 		.4byte	0x111
 19681 1dfb 02       		.uleb128 0x2
 19682 1dfc 91       		.byte	0x91
 19683 1dfd 64       		.sleb128 -28
 19684 1dfe 00       		.byte	0
 19685 1dff 18       		.uleb128 0x18
 19686 1e00 020C0000 		.4byte	.LASF240
 19687 1e04 01       		.byte	0x1
 19688 1e05 7503     		.2byte	0x375
 19689 1e07 61010000 		.4byte	0x161
 19690 1e0b 00000000 		.4byte	.LFB74
 19691 1e0f 74000000 		.4byte	.LFE74-.LFB74
 19692 1e13 01       		.uleb128 0x1
 19693 1e14 9C       		.byte	0x9c
 19694 1e15 541E0000 		.4byte	0x1e54
 19695 1e19 19       		.uleb128 0x19
 19696 1e1a 63747800 		.ascii	"ctx\000"
 19697 1e1e 01       		.byte	0x1
 19698 1e1f 7503     		.2byte	0x375
 19699 1e21 F50D0000 		.4byte	0xdf5
 19700 1e25 02       		.uleb128 0x2
 19701 1e26 91       		.byte	0x91
 19702 1e27 6C       		.sleb128 -20
 19703 1e28 19       		.uleb128 0x19
 19704 1e29 747000   		.ascii	"tp\000"
 19705 1e2c 01       		.byte	0x1
 19706 1e2d 7503     		.2byte	0x375
 19707 1e2f D5000000 		.4byte	0xd5
 19708 1e33 02       		.uleb128 0x2
 19709 1e34 91       		.byte	0x91
 19710 1e35 6B       		.sleb128 -21
 19711 1e36 19       		.uleb128 0x19
 19712 1e37 737A00   		.ascii	"sz\000"
 19713 1e3a 01       		.byte	0x1
 19714 1e3b 7503     		.2byte	0x375
ARM GAS  C:\Users\PCHAUT~1\AppData\Local\Temp\ccacj52E.s 			page 348


 19715 1e3d F6000000 		.4byte	0xf6
 19716 1e41 02       		.uleb128 0x2
 19717 1e42 91       		.byte	0x91
 19718 1e43 68       		.sleb128 -24
 19719 1e44 1A       		.uleb128 0x1a
 19720 1e45 93080000 		.4byte	.LASF184
 19721 1e49 01       		.byte	0x1
 19722 1e4a 7503     		.2byte	0x375
 19723 1e4c D7010000 		.4byte	0x1d7
 19724 1e50 02       		.uleb128 0x2
 19725 1e51 91       		.byte	0x91
 19726 1e52 64       		.sleb128 -28
 19727 1e53 00       		.byte	0
 19728 1e54 18       		.uleb128 0x18
 19729 1e55 A7020000 		.4byte	.LASF241
 19730 1e59 01       		.byte	0x1
 19731 1e5a 6303     		.2byte	0x363
 19732 1e5c 61010000 		.4byte	0x161
 19733 1e60 00000000 		.4byte	.LFB73
 19734 1e64 98000000 		.4byte	.LFE73-.LFB73
 19735 1e68 01       		.uleb128 0x1
 19736 1e69 9C       		.byte	0x9c
 19737 1e6a 9C1E0000 		.4byte	0x1e9c
 19738 1e6e 19       		.uleb128 0x19
 19739 1e6f 63747800 		.ascii	"ctx\000"
 19740 1e73 01       		.byte	0x1
 19741 1e74 6303     		.2byte	0x363
 19742 1e76 F50D0000 		.4byte	0xdf5
 19743 1e7a 02       		.uleb128 0x2
 19744 1e7b 91       		.byte	0x91
 19745 1e7c 6C       		.sleb128 -20
 19746 1e7d 1A       		.uleb128 0x1a
 19747 1e7e C8110000 		.4byte	.LASF70
 19748 1e82 01       		.byte	0x1
 19749 1e83 6303     		.2byte	0x363
 19750 1e85 D5000000 		.4byte	0xd5
 19751 1e89 02       		.uleb128 0x2
 19752 1e8a 91       		.byte	0x91
 19753 1e8b 6B       		.sleb128 -21
 19754 1e8c 1A       		.uleb128 0x1a
 19755 1e8d D60A0000 		.4byte	.LASF71
 19756 1e91 01       		.byte	0x1
 19757 1e92 6303     		.2byte	0x363
 19758 1e94 F6000000 		.4byte	0xf6
 19759 1e98 02       		.uleb128 0x2
 19760 1e99 91       		.byte	0x91
 19761 1e9a 68       		.sleb128 -24
 19762 1e9b 00       		.byte	0
 19763 1e9c 18       		.uleb128 0x18
 19764 1e9d B9110000 		.4byte	.LASF242
 19765 1ea1 01       		.byte	0x1
 19766 1ea2 5803     		.2byte	0x358
 19767 1ea4 61010000 		.4byte	0x161
 19768 1ea8 00000000 		.4byte	.LFB72
 19769 1eac 74000000 		.4byte	.LFE72-.LFB72
 19770 1eb0 01       		.uleb128 0x1
 19771 1eb1 9C       		.byte	0x9c
ARM GAS  C:\Users\PCHAUT~1\AppData\Local\Temp\ccacj52E.s 			page 349


 19772 1eb2 F11E0000 		.4byte	0x1ef1
 19773 1eb6 19       		.uleb128 0x19
 19774 1eb7 63747800 		.ascii	"ctx\000"
 19775 1ebb 01       		.byte	0x1
 19776 1ebc 5803     		.2byte	0x358
 19777 1ebe F50D0000 		.4byte	0xdf5
 19778 1ec2 02       		.uleb128 0x2
 19779 1ec3 91       		.byte	0x91
 19780 1ec4 6C       		.sleb128 -20
 19781 1ec5 19       		.uleb128 0x19
 19782 1ec6 747000   		.ascii	"tp\000"
 19783 1ec9 01       		.byte	0x1
 19784 1eca 5803     		.2byte	0x358
 19785 1ecc D5000000 		.4byte	0xd5
 19786 1ed0 02       		.uleb128 0x2
 19787 1ed1 91       		.byte	0x91
 19788 1ed2 6B       		.sleb128 -21
 19789 1ed3 19       		.uleb128 0x19
 19790 1ed4 737A00   		.ascii	"sz\000"
 19791 1ed7 01       		.byte	0x1
 19792 1ed8 5803     		.2byte	0x358
 19793 1eda E0000000 		.4byte	0xe0
 19794 1ede 02       		.uleb128 0x2
 19795 1edf 91       		.byte	0x91
 19796 1ee0 6A       		.sleb128 -22
 19797 1ee1 1A       		.uleb128 0x1a
 19798 1ee2 93080000 		.4byte	.LASF184
 19799 1ee6 01       		.byte	0x1
 19800 1ee7 5803     		.2byte	0x358
 19801 1ee9 D7010000 		.4byte	0x1d7
 19802 1eed 02       		.uleb128 0x2
 19803 1eee 91       		.byte	0x91
 19804 1eef 64       		.sleb128 -28
 19805 1ef0 00       		.byte	0
 19806 1ef1 18       		.uleb128 0x18
 19807 1ef2 AF0C0000 		.4byte	.LASF243
 19808 1ef6 01       		.byte	0x1
 19809 1ef7 4803     		.2byte	0x348
 19810 1ef9 61010000 		.4byte	0x161
 19811 1efd 00000000 		.4byte	.LFB71
 19812 1f01 88000000 		.4byte	.LFE71-.LFB71
 19813 1f05 01       		.uleb128 0x1
 19814 1f06 9C       		.byte	0x9c
 19815 1f07 391F0000 		.4byte	0x1f39
 19816 1f0b 19       		.uleb128 0x19
 19817 1f0c 63747800 		.ascii	"ctx\000"
 19818 1f10 01       		.byte	0x1
 19819 1f11 4803     		.2byte	0x348
 19820 1f13 F50D0000 		.4byte	0xdf5
 19821 1f17 02       		.uleb128 0x2
 19822 1f18 91       		.byte	0x91
 19823 1f19 6C       		.sleb128 -20
 19824 1f1a 1A       		.uleb128 0x1a
 19825 1f1b C8110000 		.4byte	.LASF70
 19826 1f1f 01       		.byte	0x1
 19827 1f20 4803     		.2byte	0x348
 19828 1f22 D5000000 		.4byte	0xd5
ARM GAS  C:\Users\PCHAUT~1\AppData\Local\Temp\ccacj52E.s 			page 350


 19829 1f26 02       		.uleb128 0x2
 19830 1f27 91       		.byte	0x91
 19831 1f28 6B       		.sleb128 -21
 19832 1f29 1A       		.uleb128 0x1a
 19833 1f2a D60A0000 		.4byte	.LASF71
 19834 1f2e 01       		.byte	0x1
 19835 1f2f 4803     		.2byte	0x348
 19836 1f31 E0000000 		.4byte	0xe0
 19837 1f35 02       		.uleb128 0x2
 19838 1f36 91       		.byte	0x91
 19839 1f37 6A       		.sleb128 -22
 19840 1f38 00       		.byte	0
 19841 1f39 18       		.uleb128 0x18
 19842 1f3a 2C0B0000 		.4byte	.LASF244
 19843 1f3e 01       		.byte	0x1
 19844 1f3f 3D03     		.2byte	0x33d
 19845 1f41 61010000 		.4byte	0x161
 19846 1f45 00000000 		.4byte	.LFB70
 19847 1f49 68000000 		.4byte	.LFE70-.LFB70
 19848 1f4d 01       		.uleb128 0x1
 19849 1f4e 9C       		.byte	0x9c
 19850 1f4f 811F0000 		.4byte	0x1f81
 19851 1f53 19       		.uleb128 0x19
 19852 1f54 63747800 		.ascii	"ctx\000"
 19853 1f58 01       		.byte	0x1
 19854 1f59 3D03     		.2byte	0x33d
 19855 1f5b F50D0000 		.4byte	0xdf5
 19856 1f5f 02       		.uleb128 0x2
 19857 1f60 91       		.byte	0x91
 19858 1f61 6C       		.sleb128 -20
 19859 1f62 1A       		.uleb128 0x1a
 19860 1f63 C8110000 		.4byte	.LASF70
 19861 1f67 01       		.byte	0x1
 19862 1f68 3D03     		.2byte	0x33d
 19863 1f6a D5000000 		.4byte	0xd5
 19864 1f6e 02       		.uleb128 0x2
 19865 1f6f 91       		.byte	0x91
 19866 1f70 6B       		.sleb128 -21
 19867 1f71 1A       		.uleb128 0x1a
 19868 1f72 93080000 		.4byte	.LASF184
 19869 1f76 01       		.byte	0x1
 19870 1f77 3D03     		.2byte	0x33d
 19871 1f79 D7010000 		.4byte	0x1d7
 19872 1f7d 02       		.uleb128 0x2
 19873 1f7e 91       		.byte	0x91
 19874 1f7f 64       		.sleb128 -28
 19875 1f80 00       		.byte	0
 19876 1f81 18       		.uleb128 0x18
 19877 1f82 79080000 		.4byte	.LASF245
 19878 1f86 01       		.byte	0x1
 19879 1f87 3203     		.2byte	0x332
 19880 1f89 61010000 		.4byte	0x161
 19881 1f8d 00000000 		.4byte	.LFB69
 19882 1f91 64000000 		.4byte	.LFE69-.LFB69
 19883 1f95 01       		.uleb128 0x1
 19884 1f96 9C       		.byte	0x9c
 19885 1f97 BA1F0000 		.4byte	0x1fba
ARM GAS  C:\Users\PCHAUT~1\AppData\Local\Temp\ccacj52E.s 			page 351


 19886 1f9b 19       		.uleb128 0x19
 19887 1f9c 63747800 		.ascii	"ctx\000"
 19888 1fa0 01       		.byte	0x1
 19889 1fa1 3203     		.2byte	0x332
 19890 1fa3 F50D0000 		.4byte	0xdf5
 19891 1fa7 02       		.uleb128 0x2
 19892 1fa8 91       		.byte	0x91
 19893 1fa9 6C       		.sleb128 -20
 19894 1faa 1A       		.uleb128 0x1a
 19895 1fab C8110000 		.4byte	.LASF70
 19896 1faf 01       		.byte	0x1
 19897 1fb0 3203     		.2byte	0x332
 19898 1fb2 D5000000 		.4byte	0xd5
 19899 1fb6 02       		.uleb128 0x2
 19900 1fb7 91       		.byte	0x91
 19901 1fb8 6B       		.sleb128 -21
 19902 1fb9 00       		.byte	0
 19903 1fba 18       		.uleb128 0x18
 19904 1fbb 11140000 		.4byte	.LASF246
 19905 1fbf 01       		.byte	0x1
 19906 1fc0 2703     		.2byte	0x327
 19907 1fc2 61010000 		.4byte	0x161
 19908 1fc6 00000000 		.4byte	.LFB68
 19909 1fca 68000000 		.4byte	.LFE68-.LFB68
 19910 1fce 01       		.uleb128 0x1
 19911 1fcf 9C       		.byte	0x9c
 19912 1fd0 02200000 		.4byte	0x2002
 19913 1fd4 19       		.uleb128 0x19
 19914 1fd5 63747800 		.ascii	"ctx\000"
 19915 1fd9 01       		.byte	0x1
 19916 1fda 2703     		.2byte	0x327
 19917 1fdc F50D0000 		.4byte	0xdf5
 19918 1fe0 02       		.uleb128 0x2
 19919 1fe1 91       		.byte	0x91
 19920 1fe2 6C       		.sleb128 -20
 19921 1fe3 1A       		.uleb128 0x1a
 19922 1fe4 C8110000 		.4byte	.LASF70
 19923 1fe8 01       		.byte	0x1
 19924 1fe9 2703     		.2byte	0x327
 19925 1feb D5000000 		.4byte	0xd5
 19926 1fef 02       		.uleb128 0x2
 19927 1ff0 91       		.byte	0x91
 19928 1ff1 6B       		.sleb128 -21
 19929 1ff2 1A       		.uleb128 0x1a
 19930 1ff3 93080000 		.4byte	.LASF184
 19931 1ff7 01       		.byte	0x1
 19932 1ff8 2703     		.2byte	0x327
 19933 1ffa D7010000 		.4byte	0x1d7
 19934 1ffe 02       		.uleb128 0x2
 19935 1fff 91       		.byte	0x91
 19936 2000 64       		.sleb128 -28
 19937 2001 00       		.byte	0
 19938 2002 18       		.uleb128 0x18
 19939 2003 070A0000 		.4byte	.LASF247
 19940 2007 01       		.byte	0x1
 19941 2008 1C03     		.2byte	0x31c
 19942 200a 61010000 		.4byte	0x161
ARM GAS  C:\Users\PCHAUT~1\AppData\Local\Temp\ccacj52E.s 			page 352


 19943 200e 00000000 		.4byte	.LFB67
 19944 2012 64000000 		.4byte	.LFE67-.LFB67
 19945 2016 01       		.uleb128 0x1
 19946 2017 9C       		.byte	0x9c
 19947 2018 3B200000 		.4byte	0x203b
 19948 201c 19       		.uleb128 0x19
 19949 201d 63747800 		.ascii	"ctx\000"
 19950 2021 01       		.byte	0x1
 19951 2022 1C03     		.2byte	0x31c
 19952 2024 F50D0000 		.4byte	0xdf5
 19953 2028 02       		.uleb128 0x2
 19954 2029 91       		.byte	0x91
 19955 202a 6C       		.sleb128 -20
 19956 202b 1A       		.uleb128 0x1a
 19957 202c C8110000 		.4byte	.LASF70
 19958 2030 01       		.byte	0x1
 19959 2031 1C03     		.2byte	0x31c
 19960 2033 D5000000 		.4byte	0xd5
 19961 2037 02       		.uleb128 0x2
 19962 2038 91       		.byte	0x91
 19963 2039 6B       		.sleb128 -21
 19964 203a 00       		.byte	0
 19965 203b 18       		.uleb128 0x18
 19966 203c FF130000 		.4byte	.LASF248
 19967 2040 01       		.byte	0x1
 19968 2041 1103     		.2byte	0x311
 19969 2043 61010000 		.4byte	0x161
 19970 2047 00000000 		.4byte	.LFB66
 19971 204b 68000000 		.4byte	.LFE66-.LFB66
 19972 204f 01       		.uleb128 0x1
 19973 2050 9C       		.byte	0x9c
 19974 2051 83200000 		.4byte	0x2083
 19975 2055 19       		.uleb128 0x19
 19976 2056 63747800 		.ascii	"ctx\000"
 19977 205a 01       		.byte	0x1
 19978 205b 1103     		.2byte	0x311
 19979 205d F50D0000 		.4byte	0xdf5
 19980 2061 02       		.uleb128 0x2
 19981 2062 91       		.byte	0x91
 19982 2063 6C       		.sleb128 -20
 19983 2064 1A       		.uleb128 0x1a
 19984 2065 C8110000 		.4byte	.LASF70
 19985 2069 01       		.byte	0x1
 19986 206a 1103     		.2byte	0x311
 19987 206c D5000000 		.4byte	0xd5
 19988 2070 02       		.uleb128 0x2
 19989 2071 91       		.byte	0x91
 19990 2072 6B       		.sleb128 -21
 19991 2073 1A       		.uleb128 0x1a
 19992 2074 93080000 		.4byte	.LASF184
 19993 2078 01       		.byte	0x1
 19994 2079 1103     		.2byte	0x311
 19995 207b D7010000 		.4byte	0x1d7
 19996 207f 02       		.uleb128 0x2
 19997 2080 91       		.byte	0x91
 19998 2081 64       		.sleb128 -28
 19999 2082 00       		.byte	0
ARM GAS  C:\Users\PCHAUT~1\AppData\Local\Temp\ccacj52E.s 			page 353


 20000 2083 18       		.uleb128 0x18
 20001 2084 1E020000 		.4byte	.LASF249
 20002 2088 01       		.byte	0x1
 20003 2089 0603     		.2byte	0x306
 20004 208b 61010000 		.4byte	0x161
 20005 208f 00000000 		.4byte	.LFB65
 20006 2093 64000000 		.4byte	.LFE65-.LFB65
 20007 2097 01       		.uleb128 0x1
 20008 2098 9C       		.byte	0x9c
 20009 2099 BC200000 		.4byte	0x20bc
 20010 209d 19       		.uleb128 0x19
 20011 209e 63747800 		.ascii	"ctx\000"
 20012 20a2 01       		.byte	0x1
 20013 20a3 0603     		.2byte	0x306
 20014 20a5 F50D0000 		.4byte	0xdf5
 20015 20a9 02       		.uleb128 0x2
 20016 20aa 91       		.byte	0x91
 20017 20ab 6C       		.sleb128 -20
 20018 20ac 1A       		.uleb128 0x1a
 20019 20ad C8110000 		.4byte	.LASF70
 20020 20b1 01       		.byte	0x1
 20021 20b2 0603     		.2byte	0x306
 20022 20b4 D5000000 		.4byte	0xd5
 20023 20b8 02       		.uleb128 0x2
 20024 20b9 91       		.byte	0x91
 20025 20ba 6B       		.sleb128 -21
 20026 20bb 00       		.byte	0
 20027 20bc 18       		.uleb128 0x18
 20028 20bd C1130000 		.4byte	.LASF250
 20029 20c1 01       		.byte	0x1
 20030 20c2 FB02     		.2byte	0x2fb
 20031 20c4 61010000 		.4byte	0x161
 20032 20c8 00000000 		.4byte	.LFB64
 20033 20cc 68000000 		.4byte	.LFE64-.LFB64
 20034 20d0 01       		.uleb128 0x1
 20035 20d1 9C       		.byte	0x9c
 20036 20d2 04210000 		.4byte	0x2104
 20037 20d6 19       		.uleb128 0x19
 20038 20d7 63747800 		.ascii	"ctx\000"
 20039 20db 01       		.byte	0x1
 20040 20dc FB02     		.2byte	0x2fb
 20041 20de F50D0000 		.4byte	0xdf5
 20042 20e2 02       		.uleb128 0x2
 20043 20e3 91       		.byte	0x91
 20044 20e4 6C       		.sleb128 -20
 20045 20e5 1A       		.uleb128 0x1a
 20046 20e6 C8110000 		.4byte	.LASF70
 20047 20ea 01       		.byte	0x1
 20048 20eb FB02     		.2byte	0x2fb
 20049 20ed D5000000 		.4byte	0xd5
 20050 20f1 02       		.uleb128 0x2
 20051 20f2 91       		.byte	0x91
 20052 20f3 6B       		.sleb128 -21
 20053 20f4 1A       		.uleb128 0x1a
 20054 20f5 93080000 		.4byte	.LASF184
 20055 20f9 01       		.byte	0x1
 20056 20fa FB02     		.2byte	0x2fb
ARM GAS  C:\Users\PCHAUT~1\AppData\Local\Temp\ccacj52E.s 			page 354


 20057 20fc D7010000 		.4byte	0x1d7
 20058 2100 02       		.uleb128 0x2
 20059 2101 91       		.byte	0x91
 20060 2102 64       		.sleb128 -28
 20061 2103 00       		.byte	0
 20062 2104 18       		.uleb128 0x18
 20063 2105 8D0F0000 		.4byte	.LASF251
 20064 2109 01       		.byte	0x1
 20065 210a F002     		.2byte	0x2f0
 20066 210c 61010000 		.4byte	0x161
 20067 2110 00000000 		.4byte	.LFB63
 20068 2114 64000000 		.4byte	.LFE63-.LFB63
 20069 2118 01       		.uleb128 0x1
 20070 2119 9C       		.byte	0x9c
 20071 211a 3D210000 		.4byte	0x213d
 20072 211e 19       		.uleb128 0x19
 20073 211f 63747800 		.ascii	"ctx\000"
 20074 2123 01       		.byte	0x1
 20075 2124 F002     		.2byte	0x2f0
 20076 2126 F50D0000 		.4byte	0xdf5
 20077 212a 02       		.uleb128 0x2
 20078 212b 91       		.byte	0x91
 20079 212c 6C       		.sleb128 -20
 20080 212d 1A       		.uleb128 0x1a
 20081 212e C8110000 		.4byte	.LASF70
 20082 2132 01       		.byte	0x1
 20083 2133 F002     		.2byte	0x2f0
 20084 2135 D5000000 		.4byte	0xd5
 20085 2139 02       		.uleb128 0x2
 20086 213a 91       		.byte	0x91
 20087 213b 6B       		.sleb128 -21
 20088 213c 00       		.byte	0
 20089 213d 18       		.uleb128 0x18
 20090 213e AF130000 		.4byte	.LASF252
 20091 2142 01       		.byte	0x1
 20092 2143 E502     		.2byte	0x2e5
 20093 2145 61010000 		.4byte	0x161
 20094 2149 00000000 		.4byte	.LFB62
 20095 214d 68000000 		.4byte	.LFE62-.LFB62
 20096 2151 01       		.uleb128 0x1
 20097 2152 9C       		.byte	0x9c
 20098 2153 85210000 		.4byte	0x2185
 20099 2157 19       		.uleb128 0x19
 20100 2158 63747800 		.ascii	"ctx\000"
 20101 215c 01       		.byte	0x1
 20102 215d E502     		.2byte	0x2e5
 20103 215f F50D0000 		.4byte	0xdf5
 20104 2163 02       		.uleb128 0x2
 20105 2164 91       		.byte	0x91
 20106 2165 6C       		.sleb128 -20
 20107 2166 1A       		.uleb128 0x1a
 20108 2167 C8110000 		.4byte	.LASF70
 20109 216b 01       		.byte	0x1
 20110 216c E502     		.2byte	0x2e5
 20111 216e D5000000 		.4byte	0xd5
 20112 2172 02       		.uleb128 0x2
 20113 2173 91       		.byte	0x91
ARM GAS  C:\Users\PCHAUT~1\AppData\Local\Temp\ccacj52E.s 			page 355


 20114 2174 6B       		.sleb128 -21
 20115 2175 1A       		.uleb128 0x1a
 20116 2176 93080000 		.4byte	.LASF184
 20117 217a 01       		.byte	0x1
 20118 217b E502     		.2byte	0x2e5
 20119 217d D7010000 		.4byte	0x1d7
 20120 2181 02       		.uleb128 0x2
 20121 2182 91       		.byte	0x91
 20122 2183 64       		.sleb128 -28
 20123 2184 00       		.byte	0
 20124 2185 18       		.uleb128 0x18
 20125 2186 D3140000 		.4byte	.LASF253
 20126 218a 01       		.byte	0x1
 20127 218b DA02     		.2byte	0x2da
 20128 218d 61010000 		.4byte	0x161
 20129 2191 00000000 		.4byte	.LFB61
 20130 2195 64000000 		.4byte	.LFE61-.LFB61
 20131 2199 01       		.uleb128 0x1
 20132 219a 9C       		.byte	0x9c
 20133 219b BE210000 		.4byte	0x21be
 20134 219f 19       		.uleb128 0x19
 20135 21a0 63747800 		.ascii	"ctx\000"
 20136 21a4 01       		.byte	0x1
 20137 21a5 DA02     		.2byte	0x2da
 20138 21a7 F50D0000 		.4byte	0xdf5
 20139 21ab 02       		.uleb128 0x2
 20140 21ac 91       		.byte	0x91
 20141 21ad 6C       		.sleb128 -20
 20142 21ae 1A       		.uleb128 0x1a
 20143 21af C8110000 		.4byte	.LASF70
 20144 21b3 01       		.byte	0x1
 20145 21b4 DA02     		.2byte	0x2da
 20146 21b6 D5000000 		.4byte	0xd5
 20147 21ba 02       		.uleb128 0x2
 20148 21bb 91       		.byte	0x91
 20149 21bc 6B       		.sleb128 -21
 20150 21bd 00       		.byte	0
 20151 21be 18       		.uleb128 0x18
 20152 21bf 03060000 		.4byte	.LASF254
 20153 21c3 01       		.byte	0x1
 20154 21c4 D102     		.2byte	0x2d1
 20155 21c6 61010000 		.4byte	0x161
 20156 21ca 00000000 		.4byte	.LFB60
 20157 21ce 60000000 		.4byte	.LFE60-.LFB60
 20158 21d2 01       		.uleb128 0x1
 20159 21d3 9C       		.byte	0x9c
 20160 21d4 F7210000 		.4byte	0x21f7
 20161 21d8 19       		.uleb128 0x19
 20162 21d9 63747800 		.ascii	"ctx\000"
 20163 21dd 01       		.byte	0x1
 20164 21de D102     		.2byte	0x2d1
 20165 21e0 F50D0000 		.4byte	0xdf5
 20166 21e4 02       		.uleb128 0x2
 20167 21e5 91       		.byte	0x91
 20168 21e6 6C       		.sleb128 -20
 20169 21e7 1A       		.uleb128 0x1a
 20170 21e8 D60A0000 		.4byte	.LASF71
ARM GAS  C:\Users\PCHAUT~1\AppData\Local\Temp\ccacj52E.s 			page 356


 20171 21ec 01       		.byte	0x1
 20172 21ed D102     		.2byte	0x2d1
 20173 21ef 11010000 		.4byte	0x111
 20174 21f3 02       		.uleb128 0x2
 20175 21f4 91       		.byte	0x91
 20176 21f5 68       		.sleb128 -24
 20177 21f6 00       		.byte	0
 20178 21f7 18       		.uleb128 0x18
 20179 21f8 1F0D0000 		.4byte	.LASF255
 20180 21fc 01       		.byte	0x1
 20181 21fd C402     		.2byte	0x2c4
 20182 21ff 61010000 		.4byte	0x161
 20183 2203 00000000 		.4byte	.LFB59
 20184 2207 6C000000 		.4byte	.LFE59-.LFB59
 20185 220b 01       		.uleb128 0x1
 20186 220c 9C       		.byte	0x9c
 20187 220d 30220000 		.4byte	0x2230
 20188 2211 19       		.uleb128 0x19
 20189 2212 63747800 		.ascii	"ctx\000"
 20190 2216 01       		.byte	0x1
 20191 2217 C402     		.2byte	0x2c4
 20192 2219 F50D0000 		.4byte	0xdf5
 20193 221d 02       		.uleb128 0x2
 20194 221e 91       		.byte	0x91
 20195 221f 6C       		.sleb128 -20
 20196 2220 1A       		.uleb128 0x1a
 20197 2221 D60A0000 		.4byte	.LASF71
 20198 2225 01       		.byte	0x1
 20199 2226 C402     		.2byte	0x2c4
 20200 2228 11010000 		.4byte	0x111
 20201 222c 02       		.uleb128 0x2
 20202 222d 91       		.byte	0x91
 20203 222e 68       		.sleb128 -24
 20204 222f 00       		.byte	0
 20205 2230 18       		.uleb128 0x18
 20206 2231 7D140000 		.4byte	.LASF256
 20207 2235 01       		.byte	0x1
 20208 2236 B702     		.2byte	0x2b7
 20209 2238 61010000 		.4byte	0x161
 20210 223c 00000000 		.4byte	.LFB58
 20211 2240 74000000 		.4byte	.LFE58-.LFB58
 20212 2244 01       		.uleb128 0x1
 20213 2245 9C       		.byte	0x9c
 20214 2246 69220000 		.4byte	0x2269
 20215 224a 19       		.uleb128 0x19
 20216 224b 63747800 		.ascii	"ctx\000"
 20217 224f 01       		.byte	0x1
 20218 2250 B702     		.2byte	0x2b7
 20219 2252 F50D0000 		.4byte	0xdf5
 20220 2256 02       		.uleb128 0x2
 20221 2257 91       		.byte	0x91
 20222 2258 6C       		.sleb128 -20
 20223 2259 1A       		.uleb128 0x1a
 20224 225a D60A0000 		.4byte	.LASF71
 20225 225e 01       		.byte	0x1
 20226 225f B702     		.2byte	0x2b7
 20227 2261 F6000000 		.4byte	0xf6
ARM GAS  C:\Users\PCHAUT~1\AppData\Local\Temp\ccacj52E.s 			page 357


 20228 2265 02       		.uleb128 0x2
 20229 2266 91       		.byte	0x91
 20230 2267 6A       		.sleb128 -22
 20231 2268 00       		.byte	0
 20232 2269 18       		.uleb128 0x18
 20233 226a 78010000 		.4byte	.LASF257
 20234 226e 01       		.byte	0x1
 20235 226f AF02     		.2byte	0x2af
 20236 2271 61010000 		.4byte	0x161
 20237 2275 00000000 		.4byte	.LFB57
 20238 2279 54000000 		.4byte	.LFE57-.LFB57
 20239 227d 01       		.uleb128 0x1
 20240 227e 9C       		.byte	0x9c
 20241 227f A2220000 		.4byte	0x22a2
 20242 2283 19       		.uleb128 0x19
 20243 2284 63747800 		.ascii	"ctx\000"
 20244 2288 01       		.byte	0x1
 20245 2289 AF02     		.2byte	0x2af
 20246 228b F50D0000 		.4byte	0xdf5
 20247 228f 02       		.uleb128 0x2
 20248 2290 91       		.byte	0x91
 20249 2291 6C       		.sleb128 -20
 20250 2292 1A       		.uleb128 0x1a
 20251 2293 D60A0000 		.4byte	.LASF71
 20252 2297 01       		.byte	0x1
 20253 2298 AF02     		.2byte	0x2af
 20254 229a E0000000 		.4byte	0xe0
 20255 229e 02       		.uleb128 0x2
 20256 229f 91       		.byte	0x91
 20257 22a0 6B       		.sleb128 -21
 20258 22a1 00       		.byte	0
 20259 22a2 18       		.uleb128 0x18
 20260 22a3 BB070000 		.4byte	.LASF258
 20261 22a7 01       		.byte	0x1
 20262 22a8 A602     		.2byte	0x2a6
 20263 22aa 61010000 		.4byte	0x161
 20264 22ae 00000000 		.4byte	.LFB56
 20265 22b2 60000000 		.4byte	.LFE56-.LFB56
 20266 22b6 01       		.uleb128 0x1
 20267 22b7 9C       		.byte	0x9c
 20268 22b8 DB220000 		.4byte	0x22db
 20269 22bc 19       		.uleb128 0x19
 20270 22bd 63747800 		.ascii	"ctx\000"
 20271 22c1 01       		.byte	0x1
 20272 22c2 A602     		.2byte	0x2a6
 20273 22c4 F50D0000 		.4byte	0xdf5
 20274 22c8 02       		.uleb128 0x2
 20275 22c9 91       		.byte	0x91
 20276 22ca 6C       		.sleb128 -20
 20277 22cb 1A       		.uleb128 0x1a
 20278 22cc D60A0000 		.4byte	.LASF71
 20279 22d0 01       		.byte	0x1
 20280 22d1 A602     		.2byte	0x2a6
 20281 22d3 11010000 		.4byte	0x111
 20282 22d7 02       		.uleb128 0x2
 20283 22d8 91       		.byte	0x91
 20284 22d9 68       		.sleb128 -24
ARM GAS  C:\Users\PCHAUT~1\AppData\Local\Temp\ccacj52E.s 			page 358


 20285 22da 00       		.byte	0
 20286 22db 18       		.uleb128 0x18
 20287 22dc BD080000 		.4byte	.LASF259
 20288 22e0 01       		.byte	0x1
 20289 22e1 9902     		.2byte	0x299
 20290 22e3 61010000 		.4byte	0x161
 20291 22e7 00000000 		.4byte	.LFB55
 20292 22eb 6C000000 		.4byte	.LFE55-.LFB55
 20293 22ef 01       		.uleb128 0x1
 20294 22f0 9C       		.byte	0x9c
 20295 22f1 14230000 		.4byte	0x2314
 20296 22f5 19       		.uleb128 0x19
 20297 22f6 63747800 		.ascii	"ctx\000"
 20298 22fa 01       		.byte	0x1
 20299 22fb 9902     		.2byte	0x299
 20300 22fd F50D0000 		.4byte	0xdf5
 20301 2301 02       		.uleb128 0x2
 20302 2302 91       		.byte	0x91
 20303 2303 6C       		.sleb128 -20
 20304 2304 1A       		.uleb128 0x1a
 20305 2305 D60A0000 		.4byte	.LASF71
 20306 2309 01       		.byte	0x1
 20307 230a 9902     		.2byte	0x299
 20308 230c 11010000 		.4byte	0x111
 20309 2310 02       		.uleb128 0x2
 20310 2311 91       		.byte	0x91
 20311 2312 68       		.sleb128 -24
 20312 2313 00       		.byte	0
 20313 2314 18       		.uleb128 0x18
 20314 2315 120E0000 		.4byte	.LASF260
 20315 2319 01       		.byte	0x1
 20316 231a 8C02     		.2byte	0x28c
 20317 231c 61010000 		.4byte	0x161
 20318 2320 00000000 		.4byte	.LFB54
 20319 2324 74000000 		.4byte	.LFE54-.LFB54
 20320 2328 01       		.uleb128 0x1
 20321 2329 9C       		.byte	0x9c
 20322 232a 4D230000 		.4byte	0x234d
 20323 232e 19       		.uleb128 0x19
 20324 232f 63747800 		.ascii	"ctx\000"
 20325 2333 01       		.byte	0x1
 20326 2334 8C02     		.2byte	0x28c
 20327 2336 F50D0000 		.4byte	0xdf5
 20328 233a 02       		.uleb128 0x2
 20329 233b 91       		.byte	0x91
 20330 233c 6C       		.sleb128 -20
 20331 233d 1A       		.uleb128 0x1a
 20332 233e D60A0000 		.4byte	.LASF71
 20333 2342 01       		.byte	0x1
 20334 2343 8C02     		.2byte	0x28c
 20335 2345 F6000000 		.4byte	0xf6
 20336 2349 02       		.uleb128 0x2
 20337 234a 91       		.byte	0x91
 20338 234b 6A       		.sleb128 -22
 20339 234c 00       		.byte	0
 20340 234d 18       		.uleb128 0x18
 20341 234e 420A0000 		.4byte	.LASF261
ARM GAS  C:\Users\PCHAUT~1\AppData\Local\Temp\ccacj52E.s 			page 359


 20342 2352 01       		.byte	0x1
 20343 2353 8402     		.2byte	0x284
 20344 2355 61010000 		.4byte	0x161
 20345 2359 00000000 		.4byte	.LFB53
 20346 235d 54000000 		.4byte	.LFE53-.LFB53
 20347 2361 01       		.uleb128 0x1
 20348 2362 9C       		.byte	0x9c
 20349 2363 86230000 		.4byte	0x2386
 20350 2367 19       		.uleb128 0x19
 20351 2368 63747800 		.ascii	"ctx\000"
 20352 236c 01       		.byte	0x1
 20353 236d 8402     		.2byte	0x284
 20354 236f F50D0000 		.4byte	0xdf5
 20355 2373 02       		.uleb128 0x2
 20356 2374 91       		.byte	0x91
 20357 2375 6C       		.sleb128 -20
 20358 2376 1A       		.uleb128 0x1a
 20359 2377 D60A0000 		.4byte	.LASF71
 20360 237b 01       		.byte	0x1
 20361 237c 8402     		.2byte	0x284
 20362 237e E0000000 		.4byte	0xe0
 20363 2382 02       		.uleb128 0x2
 20364 2383 91       		.byte	0x91
 20365 2384 6B       		.sleb128 -21
 20366 2385 00       		.byte	0
 20367 2386 18       		.uleb128 0x18
 20368 2387 C2120000 		.4byte	.LASF262
 20369 238b 01       		.byte	0x1
 20370 238c 7B02     		.2byte	0x27b
 20371 238e 61010000 		.4byte	0x161
 20372 2392 00000000 		.4byte	.LFB52
 20373 2396 68000000 		.4byte	.LFE52-.LFB52
 20374 239a 01       		.uleb128 0x1
 20375 239b 9C       		.byte	0x9c
 20376 239c CE230000 		.4byte	0x23ce
 20377 23a0 19       		.uleb128 0x19
 20378 23a1 63747800 		.ascii	"ctx\000"
 20379 23a5 01       		.byte	0x1
 20380 23a6 7B02     		.2byte	0x27b
 20381 23a8 F50D0000 		.4byte	0xdf5
 20382 23ac 02       		.uleb128 0x2
 20383 23ad 91       		.byte	0x91
 20384 23ae 6C       		.sleb128 -20
 20385 23af 1A       		.uleb128 0x1a
 20386 23b0 93080000 		.4byte	.LASF184
 20387 23b4 01       		.byte	0x1
 20388 23b5 7B02     		.2byte	0x27b
 20389 23b7 D7010000 		.4byte	0x1d7
 20390 23bb 02       		.uleb128 0x2
 20391 23bc 91       		.byte	0x91
 20392 23bd 68       		.sleb128 -24
 20393 23be 1A       		.uleb128 0x1a
 20394 23bf D60A0000 		.4byte	.LASF71
 20395 23c3 01       		.byte	0x1
 20396 23c4 7B02     		.2byte	0x27b
 20397 23c6 11010000 		.4byte	0x111
 20398 23ca 02       		.uleb128 0x2
ARM GAS  C:\Users\PCHAUT~1\AppData\Local\Temp\ccacj52E.s 			page 360


 20399 23cb 91       		.byte	0x91
 20400 23cc 64       		.sleb128 -28
 20401 23cd 00       		.byte	0
 20402 23ce 18       		.uleb128 0x18
 20403 23cf 9B120000 		.4byte	.LASF263
 20404 23d3 01       		.byte	0x1
 20405 23d4 7202     		.2byte	0x272
 20406 23d6 61010000 		.4byte	0x161
 20407 23da 00000000 		.4byte	.LFB51
 20408 23de 60000000 		.4byte	.LFE51-.LFB51
 20409 23e2 01       		.uleb128 0x1
 20410 23e3 9C       		.byte	0x9c
 20411 23e4 07240000 		.4byte	0x2407
 20412 23e8 19       		.uleb128 0x19
 20413 23e9 63747800 		.ascii	"ctx\000"
 20414 23ed 01       		.byte	0x1
 20415 23ee 7202     		.2byte	0x272
 20416 23f0 F50D0000 		.4byte	0xdf5
 20417 23f4 02       		.uleb128 0x2
 20418 23f5 91       		.byte	0x91
 20419 23f6 6C       		.sleb128 -20
 20420 23f7 1A       		.uleb128 0x1a
 20421 23f8 D60A0000 		.4byte	.LASF71
 20422 23fc 01       		.byte	0x1
 20423 23fd 7202     		.2byte	0x272
 20424 23ff 11010000 		.4byte	0x111
 20425 2403 02       		.uleb128 0x2
 20426 2404 91       		.byte	0x91
 20427 2405 68       		.sleb128 -24
 20428 2406 00       		.byte	0
 20429 2407 18       		.uleb128 0x18
 20430 2408 E70E0000 		.4byte	.LASF264
 20431 240c 01       		.byte	0x1
 20432 240d 6402     		.2byte	0x264
 20433 240f 61010000 		.4byte	0x161
 20434 2413 00000000 		.4byte	.LFB50
 20435 2417 6C000000 		.4byte	.LFE50-.LFB50
 20436 241b 01       		.uleb128 0x1
 20437 241c 9C       		.byte	0x9c
 20438 241d 4F240000 		.4byte	0x244f
 20439 2421 19       		.uleb128 0x19
 20440 2422 63747800 		.ascii	"ctx\000"
 20441 2426 01       		.byte	0x1
 20442 2427 6402     		.2byte	0x264
 20443 2429 F50D0000 		.4byte	0xdf5
 20444 242d 02       		.uleb128 0x2
 20445 242e 91       		.byte	0x91
 20446 242f 6C       		.sleb128 -20
 20447 2430 1A       		.uleb128 0x1a
 20448 2431 93080000 		.4byte	.LASF184
 20449 2435 01       		.byte	0x1
 20450 2436 6402     		.2byte	0x264
 20451 2438 D7010000 		.4byte	0x1d7
 20452 243c 02       		.uleb128 0x2
 20453 243d 91       		.byte	0x91
 20454 243e 68       		.sleb128 -24
 20455 243f 1A       		.uleb128 0x1a
ARM GAS  C:\Users\PCHAUT~1\AppData\Local\Temp\ccacj52E.s 			page 361


 20456 2440 D60A0000 		.4byte	.LASF71
 20457 2444 01       		.byte	0x1
 20458 2445 6402     		.2byte	0x264
 20459 2447 11010000 		.4byte	0x111
 20460 244b 02       		.uleb128 0x2
 20461 244c 91       		.byte	0x91
 20462 244d 64       		.sleb128 -28
 20463 244e 00       		.byte	0
 20464 244f 18       		.uleb128 0x18
 20465 2450 BC140000 		.4byte	.LASF265
 20466 2454 01       		.byte	0x1
 20467 2455 5702     		.2byte	0x257
 20468 2457 61010000 		.4byte	0x161
 20469 245b 00000000 		.4byte	.LFB49
 20470 245f 6C000000 		.4byte	.LFE49-.LFB49
 20471 2463 01       		.uleb128 0x1
 20472 2464 9C       		.byte	0x9c
 20473 2465 88240000 		.4byte	0x2488
 20474 2469 19       		.uleb128 0x19
 20475 246a 63747800 		.ascii	"ctx\000"
 20476 246e 01       		.byte	0x1
 20477 246f 5702     		.2byte	0x257
 20478 2471 F50D0000 		.4byte	0xdf5
 20479 2475 02       		.uleb128 0x2
 20480 2476 91       		.byte	0x91
 20481 2477 6C       		.sleb128 -20
 20482 2478 1A       		.uleb128 0x1a
 20483 2479 D60A0000 		.4byte	.LASF71
 20484 247d 01       		.byte	0x1
 20485 247e 5702     		.2byte	0x257
 20486 2480 11010000 		.4byte	0x111
 20487 2484 02       		.uleb128 0x2
 20488 2485 91       		.byte	0x91
 20489 2486 68       		.sleb128 -24
 20490 2487 00       		.byte	0
 20491 2488 18       		.uleb128 0x18
 20492 2489 3B0C0000 		.4byte	.LASF266
 20493 248d 01       		.byte	0x1
 20494 248e 4902     		.2byte	0x249
 20495 2490 61010000 		.4byte	0x161
 20496 2494 00000000 		.4byte	.LFB48
 20497 2498 78000000 		.4byte	.LFE48-.LFB48
 20498 249c 01       		.uleb128 0x1
 20499 249d 9C       		.byte	0x9c
 20500 249e D0240000 		.4byte	0x24d0
 20501 24a2 19       		.uleb128 0x19
 20502 24a3 63747800 		.ascii	"ctx\000"
 20503 24a7 01       		.byte	0x1
 20504 24a8 4902     		.2byte	0x249
 20505 24aa F50D0000 		.4byte	0xdf5
 20506 24ae 02       		.uleb128 0x2
 20507 24af 91       		.byte	0x91
 20508 24b0 6C       		.sleb128 -20
 20509 24b1 1A       		.uleb128 0x1a
 20510 24b2 93080000 		.4byte	.LASF184
 20511 24b6 01       		.byte	0x1
 20512 24b7 4902     		.2byte	0x249
ARM GAS  C:\Users\PCHAUT~1\AppData\Local\Temp\ccacj52E.s 			page 362


 20513 24b9 D7010000 		.4byte	0x1d7
 20514 24bd 02       		.uleb128 0x2
 20515 24be 91       		.byte	0x91
 20516 24bf 68       		.sleb128 -24
 20517 24c0 1A       		.uleb128 0x1a
 20518 24c1 D60A0000 		.4byte	.LASF71
 20519 24c5 01       		.byte	0x1
 20520 24c6 4902     		.2byte	0x249
 20521 24c8 F6000000 		.4byte	0xf6
 20522 24cc 02       		.uleb128 0x2
 20523 24cd 91       		.byte	0x91
 20524 24ce 66       		.sleb128 -26
 20525 24cf 00       		.byte	0
 20526 24d0 18       		.uleb128 0x18
 20527 24d1 AC060000 		.4byte	.LASF267
 20528 24d5 01       		.byte	0x1
 20529 24d6 3C02     		.2byte	0x23c
 20530 24d8 61010000 		.4byte	0x161
 20531 24dc 00000000 		.4byte	.LFB47
 20532 24e0 74000000 		.4byte	.LFE47-.LFB47
 20533 24e4 01       		.uleb128 0x1
 20534 24e5 9C       		.byte	0x9c
 20535 24e6 09250000 		.4byte	0x2509
 20536 24ea 19       		.uleb128 0x19
 20537 24eb 63747800 		.ascii	"ctx\000"
 20538 24ef 01       		.byte	0x1
 20539 24f0 3C02     		.2byte	0x23c
 20540 24f2 F50D0000 		.4byte	0xdf5
 20541 24f6 02       		.uleb128 0x2
 20542 24f7 91       		.byte	0x91
 20543 24f8 6C       		.sleb128 -20
 20544 24f9 1A       		.uleb128 0x1a
 20545 24fa D60A0000 		.4byte	.LASF71
 20546 24fe 01       		.byte	0x1
 20547 24ff 3C02     		.2byte	0x23c
 20548 2501 F6000000 		.4byte	0xf6
 20549 2505 02       		.uleb128 0x2
 20550 2506 91       		.byte	0x91
 20551 2507 6A       		.sleb128 -22
 20552 2508 00       		.byte	0
 20553 2509 18       		.uleb128 0x18
 20554 250a AD0A0000 		.4byte	.LASF268
 20555 250e 01       		.byte	0x1
 20556 250f 2E02     		.2byte	0x22e
 20557 2511 61010000 		.4byte	0x161
 20558 2515 00000000 		.4byte	.LFB46
 20559 2519 78000000 		.4byte	.LFE46-.LFB46
 20560 251d 01       		.uleb128 0x1
 20561 251e 9C       		.byte	0x9c
 20562 251f 51250000 		.4byte	0x2551
 20563 2523 19       		.uleb128 0x19
 20564 2524 63747800 		.ascii	"ctx\000"
 20565 2528 01       		.byte	0x1
 20566 2529 2E02     		.2byte	0x22e
 20567 252b F50D0000 		.4byte	0xdf5
 20568 252f 02       		.uleb128 0x2
 20569 2530 91       		.byte	0x91
ARM GAS  C:\Users\PCHAUT~1\AppData\Local\Temp\ccacj52E.s 			page 363


 20570 2531 6C       		.sleb128 -20
 20571 2532 1A       		.uleb128 0x1a
 20572 2533 93080000 		.4byte	.LASF184
 20573 2537 01       		.byte	0x1
 20574 2538 2E02     		.2byte	0x22e
 20575 253a D7010000 		.4byte	0x1d7
 20576 253e 02       		.uleb128 0x2
 20577 253f 91       		.byte	0x91
 20578 2540 68       		.sleb128 -24
 20579 2541 1A       		.uleb128 0x1a
 20580 2542 D60A0000 		.4byte	.LASF71
 20581 2546 01       		.byte	0x1
 20582 2547 2E02     		.2byte	0x22e
 20583 2549 E0000000 		.4byte	0xe0
 20584 254d 02       		.uleb128 0x2
 20585 254e 91       		.byte	0x91
 20586 254f 67       		.sleb128 -25
 20587 2550 00       		.byte	0
 20588 2551 18       		.uleb128 0x18
 20589 2552 23140000 		.4byte	.LASF269
 20590 2556 01       		.byte	0x1
 20591 2557 2302     		.2byte	0x223
 20592 2559 61010000 		.4byte	0x161
 20593 255d 00000000 		.4byte	.LFB45
 20594 2561 64000000 		.4byte	.LFE45-.LFB45
 20595 2565 01       		.uleb128 0x1
 20596 2566 9C       		.byte	0x9c
 20597 2567 8A250000 		.4byte	0x258a
 20598 256b 19       		.uleb128 0x19
 20599 256c 63747800 		.ascii	"ctx\000"
 20600 2570 01       		.byte	0x1
 20601 2571 2302     		.2byte	0x223
 20602 2573 F50D0000 		.4byte	0xdf5
 20603 2577 02       		.uleb128 0x2
 20604 2578 91       		.byte	0x91
 20605 2579 6C       		.sleb128 -20
 20606 257a 1A       		.uleb128 0x1a
 20607 257b D60A0000 		.4byte	.LASF71
 20608 257f 01       		.byte	0x1
 20609 2580 2302     		.2byte	0x223
 20610 2582 E0000000 		.4byte	0xe0
 20611 2586 02       		.uleb128 0x2
 20612 2587 91       		.byte	0x91
 20613 2588 6B       		.sleb128 -21
 20614 2589 00       		.byte	0
 20615 258a 18       		.uleb128 0x18
 20616 258b 8D140000 		.4byte	.LASF270
 20617 258f 01       		.byte	0x1
 20618 2590 1802     		.2byte	0x218
 20619 2592 61010000 		.4byte	0x161
 20620 2596 00000000 		.4byte	.LFB44
 20621 259a 80000000 		.4byte	.LFE44-.LFB44
 20622 259e 01       		.uleb128 0x1
 20623 259f 9C       		.byte	0x9c
 20624 25a0 D2250000 		.4byte	0x25d2
 20625 25a4 19       		.uleb128 0x19
 20626 25a5 63747800 		.ascii	"ctx\000"
ARM GAS  C:\Users\PCHAUT~1\AppData\Local\Temp\ccacj52E.s 			page 364


 20627 25a9 01       		.byte	0x1
 20628 25aa 1802     		.2byte	0x218
 20629 25ac F50D0000 		.4byte	0xdf5
 20630 25b0 02       		.uleb128 0x2
 20631 25b1 91       		.byte	0x91
 20632 25b2 6C       		.sleb128 -20
 20633 25b3 1A       		.uleb128 0x1a
 20634 25b4 93080000 		.4byte	.LASF184
 20635 25b8 01       		.byte	0x1
 20636 25b9 1802     		.2byte	0x218
 20637 25bb 9D050000 		.4byte	0x59d
 20638 25bf 02       		.uleb128 0x2
 20639 25c0 91       		.byte	0x91
 20640 25c1 68       		.sleb128 -24
 20641 25c2 1A       		.uleb128 0x1a
 20642 25c3 D60A0000 		.4byte	.LASF71
 20643 25c7 01       		.byte	0x1
 20644 25c8 1802     		.2byte	0x218
 20645 25ca 11010000 		.4byte	0x111
 20646 25ce 02       		.uleb128 0x2
 20647 25cf 91       		.byte	0x91
 20648 25d0 64       		.sleb128 -28
 20649 25d1 00       		.byte	0
 20650 25d2 18       		.uleb128 0x18
 20651 25d3 CC090000 		.4byte	.LASF271
 20652 25d7 01       		.byte	0x1
 20653 25d8 0D02     		.2byte	0x20d
 20654 25da 61010000 		.4byte	0x161
 20655 25de 00000000 		.4byte	.LFB43
 20656 25e2 78000000 		.4byte	.LFE43-.LFB43
 20657 25e6 01       		.uleb128 0x1
 20658 25e7 9C       		.byte	0x9c
 20659 25e8 0B260000 		.4byte	0x260b
 20660 25ec 19       		.uleb128 0x19
 20661 25ed 63747800 		.ascii	"ctx\000"
 20662 25f1 01       		.byte	0x1
 20663 25f2 0D02     		.2byte	0x20d
 20664 25f4 F50D0000 		.4byte	0xdf5
 20665 25f8 02       		.uleb128 0x2
 20666 25f9 91       		.byte	0x91
 20667 25fa 6C       		.sleb128 -20
 20668 25fb 1A       		.uleb128 0x1a
 20669 25fc D60A0000 		.4byte	.LASF71
 20670 2600 01       		.byte	0x1
 20671 2601 0D02     		.2byte	0x20d
 20672 2603 11010000 		.4byte	0x111
 20673 2607 02       		.uleb128 0x2
 20674 2608 91       		.byte	0x91
 20675 2609 68       		.sleb128 -24
 20676 260a 00       		.byte	0
 20677 260b 18       		.uleb128 0x18
 20678 260c 0F010000 		.4byte	.LASF272
 20679 2610 01       		.byte	0x1
 20680 2611 FF01     		.2byte	0x1ff
 20681 2613 61010000 		.4byte	0x161
 20682 2617 00000000 		.4byte	.LFB42
 20683 261b 6C000000 		.4byte	.LFE42-.LFB42
ARM GAS  C:\Users\PCHAUT~1\AppData\Local\Temp\ccacj52E.s 			page 365


 20684 261f 01       		.uleb128 0x1
 20685 2620 9C       		.byte	0x9c
 20686 2621 53260000 		.4byte	0x2653
 20687 2625 19       		.uleb128 0x19
 20688 2626 63747800 		.ascii	"ctx\000"
 20689 262a 01       		.byte	0x1
 20690 262b FF01     		.2byte	0x1ff
 20691 262d F50D0000 		.4byte	0xdf5
 20692 2631 02       		.uleb128 0x2
 20693 2632 91       		.byte	0x91
 20694 2633 6C       		.sleb128 -20
 20695 2634 1A       		.uleb128 0x1a
 20696 2635 93080000 		.4byte	.LASF184
 20697 2639 01       		.byte	0x1
 20698 263a FF01     		.2byte	0x1ff
 20699 263c 9D050000 		.4byte	0x59d
 20700 2640 02       		.uleb128 0x2
 20701 2641 91       		.byte	0x91
 20702 2642 68       		.sleb128 -24
 20703 2643 1A       		.uleb128 0x1a
 20704 2644 D60A0000 		.4byte	.LASF71
 20705 2648 01       		.byte	0x1
 20706 2649 FF01     		.2byte	0x1ff
 20707 264b 11010000 		.4byte	0x111
 20708 264f 02       		.uleb128 0x2
 20709 2650 91       		.byte	0x91
 20710 2651 64       		.sleb128 -28
 20711 2652 00       		.byte	0
 20712 2653 18       		.uleb128 0x18
 20713 2654 29090000 		.4byte	.LASF273
 20714 2658 01       		.byte	0x1
 20715 2659 F201     		.2byte	0x1f2
 20716 265b 61010000 		.4byte	0x161
 20717 265f 00000000 		.4byte	.LFB41
 20718 2663 6C000000 		.4byte	.LFE41-.LFB41
 20719 2667 01       		.uleb128 0x1
 20720 2668 9C       		.byte	0x9c
 20721 2669 8C260000 		.4byte	0x268c
 20722 266d 19       		.uleb128 0x19
 20723 266e 63747800 		.ascii	"ctx\000"
 20724 2672 01       		.byte	0x1
 20725 2673 F201     		.2byte	0x1f2
 20726 2675 F50D0000 		.4byte	0xdf5
 20727 2679 02       		.uleb128 0x2
 20728 267a 91       		.byte	0x91
 20729 267b 6C       		.sleb128 -20
 20730 267c 1A       		.uleb128 0x1a
 20731 267d D60A0000 		.4byte	.LASF71
 20732 2681 01       		.byte	0x1
 20733 2682 F201     		.2byte	0x1f2
 20734 2684 11010000 		.4byte	0x111
 20735 2688 02       		.uleb128 0x2
 20736 2689 91       		.byte	0x91
 20737 268a 68       		.sleb128 -24
 20738 268b 00       		.byte	0
 20739 268c 18       		.uleb128 0x18
 20740 268d 570C0000 		.4byte	.LASF274
ARM GAS  C:\Users\PCHAUT~1\AppData\Local\Temp\ccacj52E.s 			page 366


 20741 2691 01       		.byte	0x1
 20742 2692 E401     		.2byte	0x1e4
 20743 2694 61010000 		.4byte	0x161
 20744 2698 00000000 		.4byte	.LFB40
 20745 269c 78000000 		.4byte	.LFE40-.LFB40
 20746 26a0 01       		.uleb128 0x1
 20747 26a1 9C       		.byte	0x9c
 20748 26a2 D4260000 		.4byte	0x26d4
 20749 26a6 19       		.uleb128 0x19
 20750 26a7 63747800 		.ascii	"ctx\000"
 20751 26ab 01       		.byte	0x1
 20752 26ac E401     		.2byte	0x1e4
 20753 26ae F50D0000 		.4byte	0xdf5
 20754 26b2 02       		.uleb128 0x2
 20755 26b3 91       		.byte	0x91
 20756 26b4 6C       		.sleb128 -20
 20757 26b5 1A       		.uleb128 0x1a
 20758 26b6 93080000 		.4byte	.LASF184
 20759 26ba 01       		.byte	0x1
 20760 26bb E401     		.2byte	0x1e4
 20761 26bd 9D050000 		.4byte	0x59d
 20762 26c1 02       		.uleb128 0x2
 20763 26c2 91       		.byte	0x91
 20764 26c3 68       		.sleb128 -24
 20765 26c4 1A       		.uleb128 0x1a
 20766 26c5 D60A0000 		.4byte	.LASF71
 20767 26c9 01       		.byte	0x1
 20768 26ca E401     		.2byte	0x1e4
 20769 26cc F6000000 		.4byte	0xf6
 20770 26d0 02       		.uleb128 0x2
 20771 26d1 91       		.byte	0x91
 20772 26d2 66       		.sleb128 -26
 20773 26d3 00       		.byte	0
 20774 26d4 18       		.uleb128 0x18
 20775 26d5 D7050000 		.4byte	.LASF275
 20776 26d9 01       		.byte	0x1
 20777 26da D701     		.2byte	0x1d7
 20778 26dc 61010000 		.4byte	0x161
 20779 26e0 00000000 		.4byte	.LFB39
 20780 26e4 74000000 		.4byte	.LFE39-.LFB39
 20781 26e8 01       		.uleb128 0x1
 20782 26e9 9C       		.byte	0x9c
 20783 26ea 0D270000 		.4byte	0x270d
 20784 26ee 19       		.uleb128 0x19
 20785 26ef 63747800 		.ascii	"ctx\000"
 20786 26f3 01       		.byte	0x1
 20787 26f4 D701     		.2byte	0x1d7
 20788 26f6 F50D0000 		.4byte	0xdf5
 20789 26fa 02       		.uleb128 0x2
 20790 26fb 91       		.byte	0x91
 20791 26fc 6C       		.sleb128 -20
 20792 26fd 1A       		.uleb128 0x1a
 20793 26fe D60A0000 		.4byte	.LASF71
 20794 2702 01       		.byte	0x1
 20795 2703 D701     		.2byte	0x1d7
 20796 2705 F6000000 		.4byte	0xf6
 20797 2709 02       		.uleb128 0x2
ARM GAS  C:\Users\PCHAUT~1\AppData\Local\Temp\ccacj52E.s 			page 367


 20798 270a 91       		.byte	0x91
 20799 270b 6A       		.sleb128 -22
 20800 270c 00       		.byte	0
 20801 270d 18       		.uleb128 0x18
 20802 270e 9B140000 		.4byte	.LASF276
 20803 2712 01       		.byte	0x1
 20804 2713 C901     		.2byte	0x1c9
 20805 2715 61010000 		.4byte	0x161
 20806 2719 00000000 		.4byte	.LFB38
 20807 271d 78000000 		.4byte	.LFE38-.LFB38
 20808 2721 01       		.uleb128 0x1
 20809 2722 9C       		.byte	0x9c
 20810 2723 55270000 		.4byte	0x2755
 20811 2727 19       		.uleb128 0x19
 20812 2728 63747800 		.ascii	"ctx\000"
 20813 272c 01       		.byte	0x1
 20814 272d C901     		.2byte	0x1c9
 20815 272f F50D0000 		.4byte	0xdf5
 20816 2733 02       		.uleb128 0x2
 20817 2734 91       		.byte	0x91
 20818 2735 6C       		.sleb128 -20
 20819 2736 1A       		.uleb128 0x1a
 20820 2737 93080000 		.4byte	.LASF184
 20821 273b 01       		.byte	0x1
 20822 273c C901     		.2byte	0x1c9
 20823 273e 9D050000 		.4byte	0x59d
 20824 2742 02       		.uleb128 0x2
 20825 2743 91       		.byte	0x91
 20826 2744 68       		.sleb128 -24
 20827 2745 1A       		.uleb128 0x1a
 20828 2746 D60A0000 		.4byte	.LASF71
 20829 274a 01       		.byte	0x1
 20830 274b C901     		.2byte	0x1c9
 20831 274d E0000000 		.4byte	0xe0
 20832 2751 02       		.uleb128 0x2
 20833 2752 91       		.byte	0x91
 20834 2753 67       		.sleb128 -25
 20835 2754 00       		.byte	0
 20836 2755 18       		.uleb128 0x18
 20837 2756 050F0000 		.4byte	.LASF277
 20838 275a 01       		.byte	0x1
 20839 275b BE01     		.2byte	0x1be
 20840 275d 61010000 		.4byte	0x161
 20841 2761 00000000 		.4byte	.LFB37
 20842 2765 64000000 		.4byte	.LFE37-.LFB37
 20843 2769 01       		.uleb128 0x1
 20844 276a 9C       		.byte	0x9c
 20845 276b 8E270000 		.4byte	0x278e
 20846 276f 19       		.uleb128 0x19
 20847 2770 63747800 		.ascii	"ctx\000"
 20848 2774 01       		.byte	0x1
 20849 2775 BE01     		.2byte	0x1be
 20850 2777 F50D0000 		.4byte	0xdf5
 20851 277b 02       		.uleb128 0x2
 20852 277c 91       		.byte	0x91
 20853 277d 6C       		.sleb128 -20
 20854 277e 1A       		.uleb128 0x1a
ARM GAS  C:\Users\PCHAUT~1\AppData\Local\Temp\ccacj52E.s 			page 368


 20855 277f D60A0000 		.4byte	.LASF71
 20856 2783 01       		.byte	0x1
 20857 2784 BE01     		.2byte	0x1be
 20858 2786 E0000000 		.4byte	0xe0
 20859 278a 02       		.uleb128 0x2
 20860 278b 91       		.byte	0x91
 20861 278c 6B       		.sleb128 -21
 20862 278d 00       		.byte	0
 20863 278e 18       		.uleb128 0x18
 20864 278f 240E0000 		.4byte	.LASF278
 20865 2793 01       		.byte	0x1
 20866 2794 B001     		.2byte	0x1b0
 20867 2796 61010000 		.4byte	0x161
 20868 279a 00000000 		.4byte	.LFB36
 20869 279e 78000000 		.4byte	.LFE36-.LFB36
 20870 27a2 01       		.uleb128 0x1
 20871 27a3 9C       		.byte	0x9c
 20872 27a4 D6270000 		.4byte	0x27d6
 20873 27a8 19       		.uleb128 0x19
 20874 27a9 63747800 		.ascii	"ctx\000"
 20875 27ad 01       		.byte	0x1
 20876 27ae B001     		.2byte	0x1b0
 20877 27b0 F50D0000 		.4byte	0xdf5
 20878 27b4 02       		.uleb128 0x2
 20879 27b5 91       		.byte	0x91
 20880 27b6 6C       		.sleb128 -20
 20881 27b7 1A       		.uleb128 0x1a
 20882 27b8 93080000 		.4byte	.LASF184
 20883 27bc 01       		.byte	0x1
 20884 27bd B001     		.2byte	0x1b0
 20885 27bf 9D050000 		.4byte	0x59d
 20886 27c3 02       		.uleb128 0x2
 20887 27c4 91       		.byte	0x91
 20888 27c5 68       		.sleb128 -24
 20889 27c6 1A       		.uleb128 0x1a
 20890 27c7 D60A0000 		.4byte	.LASF71
 20891 27cb 01       		.byte	0x1
 20892 27cc B001     		.2byte	0x1b0
 20893 27ce E0000000 		.4byte	0xe0
 20894 27d2 02       		.uleb128 0x2
 20895 27d3 91       		.byte	0x91
 20896 27d4 67       		.sleb128 -25
 20897 27d5 00       		.byte	0
 20898 27d6 18       		.uleb128 0x18
 20899 27d7 74020000 		.4byte	.LASF279
 20900 27db 01       		.byte	0x1
 20901 27dc A801     		.2byte	0x1a8
 20902 27de 61010000 		.4byte	0x161
 20903 27e2 00000000 		.4byte	.LFB35
 20904 27e6 54000000 		.4byte	.LFE35-.LFB35
 20905 27ea 01       		.uleb128 0x1
 20906 27eb 9C       		.byte	0x9c
 20907 27ec 0F280000 		.4byte	0x280f
 20908 27f0 19       		.uleb128 0x19
 20909 27f1 63747800 		.ascii	"ctx\000"
 20910 27f5 01       		.byte	0x1
 20911 27f6 A801     		.2byte	0x1a8
ARM GAS  C:\Users\PCHAUT~1\AppData\Local\Temp\ccacj52E.s 			page 369


 20912 27f8 F50D0000 		.4byte	0xdf5
 20913 27fc 02       		.uleb128 0x2
 20914 27fd 91       		.byte	0x91
 20915 27fe 6C       		.sleb128 -20
 20916 27ff 1A       		.uleb128 0x1a
 20917 2800 D60A0000 		.4byte	.LASF71
 20918 2804 01       		.byte	0x1
 20919 2805 A801     		.2byte	0x1a8
 20920 2807 E0000000 		.4byte	0xe0
 20921 280b 02       		.uleb128 0x2
 20922 280c 91       		.byte	0x91
 20923 280d 6B       		.sleb128 -21
 20924 280e 00       		.byte	0
 20925 280f 18       		.uleb128 0x18
 20926 2810 55070000 		.4byte	.LASF280
 20927 2814 01       		.byte	0x1
 20928 2815 A101     		.2byte	0x1a1
 20929 2817 61010000 		.4byte	0x161
 20930 281b 00000000 		.4byte	.LFB34
 20931 281f 48000000 		.4byte	.LFE34-.LFB34
 20932 2823 01       		.uleb128 0x1
 20933 2824 9C       		.byte	0x9c
 20934 2825 46280000 		.4byte	0x2846
 20935 2829 19       		.uleb128 0x19
 20936 282a 63747800 		.ascii	"ctx\000"
 20937 282e 01       		.byte	0x1
 20938 282f A101     		.2byte	0x1a1
 20939 2831 F50D0000 		.4byte	0xdf5
 20940 2835 02       		.uleb128 0x2
 20941 2836 91       		.byte	0x91
 20942 2837 6C       		.sleb128 -20
 20943 2838 19       		.uleb128 0x19
 20944 2839 6200     		.ascii	"b\000"
 20945 283b 01       		.byte	0x1
 20946 283c A101     		.2byte	0x1a1
 20947 283e E0000000 		.4byte	0xe0
 20948 2842 02       		.uleb128 0x2
 20949 2843 91       		.byte	0x91
 20950 2844 6B       		.sleb128 -21
 20951 2845 00       		.byte	0
 20952 2846 18       		.uleb128 0x18
 20953 2847 350E0000 		.4byte	.LASF281
 20954 284b 01       		.byte	0x1
 20955 284c 9A01     		.2byte	0x19a
 20956 284e 61010000 		.4byte	0x161
 20957 2852 00000000 		.4byte	.LFB33
 20958 2856 48000000 		.4byte	.LFE33-.LFB33
 20959 285a 01       		.uleb128 0x1
 20960 285b 9C       		.byte	0x9c
 20961 285c 7D280000 		.4byte	0x287d
 20962 2860 19       		.uleb128 0x19
 20963 2861 63747800 		.ascii	"ctx\000"
 20964 2865 01       		.byte	0x1
 20965 2866 9A01     		.2byte	0x19a
 20966 2868 F50D0000 		.4byte	0xdf5
 20967 286c 02       		.uleb128 0x2
 20968 286d 91       		.byte	0x91
ARM GAS  C:\Users\PCHAUT~1\AppData\Local\Temp\ccacj52E.s 			page 370


 20969 286e 6C       		.sleb128 -20
 20970 286f 19       		.uleb128 0x19
 20971 2870 6200     		.ascii	"b\000"
 20972 2872 01       		.byte	0x1
 20973 2873 9A01     		.2byte	0x19a
 20974 2875 61010000 		.4byte	0x161
 20975 2879 02       		.uleb128 0x2
 20976 287a 91       		.byte	0x91
 20977 287b 6B       		.sleb128 -21
 20978 287c 00       		.byte	0
 20979 287d 18       		.uleb128 0x18
 20980 287e ED010000 		.4byte	.LASF282
 20981 2882 01       		.byte	0x1
 20982 2883 9601     		.2byte	0x196
 20983 2885 61010000 		.4byte	0x161
 20984 2889 00000000 		.4byte	.LFB32
 20985 288d 30000000 		.4byte	.LFE32-.LFB32
 20986 2891 01       		.uleb128 0x1
 20987 2892 9C       		.byte	0x9c
 20988 2893 A7280000 		.4byte	0x28a7
 20989 2897 19       		.uleb128 0x19
 20990 2898 63747800 		.ascii	"ctx\000"
 20991 289c 01       		.byte	0x1
 20992 289d 9601     		.2byte	0x196
 20993 289f F50D0000 		.4byte	0xdf5
 20994 28a3 02       		.uleb128 0x2
 20995 28a4 91       		.byte	0x91
 20996 28a5 6C       		.sleb128 -20
 20997 28a6 00       		.byte	0
 20998 28a7 18       		.uleb128 0x18
 20999 28a8 3F010000 		.4byte	.LASF283
 21000 28ac 01       		.byte	0x1
 21001 28ad 9201     		.2byte	0x192
 21002 28af 61010000 		.4byte	0x161
 21003 28b3 00000000 		.4byte	.LFB31
 21004 28b7 30000000 		.4byte	.LFE31-.LFB31
 21005 28bb 01       		.uleb128 0x1
 21006 28bc 9C       		.byte	0x9c
 21007 28bd D1280000 		.4byte	0x28d1
 21008 28c1 19       		.uleb128 0x19
 21009 28c2 63747800 		.ascii	"ctx\000"
 21010 28c6 01       		.byte	0x1
 21011 28c7 9201     		.2byte	0x192
 21012 28c9 F50D0000 		.4byte	0xdf5
 21013 28cd 02       		.uleb128 0x2
 21014 28ce 91       		.byte	0x91
 21015 28cf 6C       		.sleb128 -20
 21016 28d0 00       		.byte	0
 21017 28d1 18       		.uleb128 0x18
 21018 28d2 26040000 		.4byte	.LASF284
 21019 28d6 01       		.byte	0x1
 21020 28d7 8E01     		.2byte	0x18e
 21021 28d9 61010000 		.4byte	0x161
 21022 28dd 00000000 		.4byte	.LFB30
 21023 28e1 30000000 		.4byte	.LFE30-.LFB30
 21024 28e5 01       		.uleb128 0x1
 21025 28e6 9C       		.byte	0x9c
ARM GAS  C:\Users\PCHAUT~1\AppData\Local\Temp\ccacj52E.s 			page 371


 21026 28e7 FB280000 		.4byte	0x28fb
 21027 28eb 19       		.uleb128 0x19
 21028 28ec 63747800 		.ascii	"ctx\000"
 21029 28f0 01       		.byte	0x1
 21030 28f1 8E01     		.2byte	0x18e
 21031 28f3 F50D0000 		.4byte	0xdf5
 21032 28f7 02       		.uleb128 0x2
 21033 28f8 91       		.byte	0x91
 21034 28f9 6C       		.sleb128 -20
 21035 28fa 00       		.byte	0
 21036 28fb 18       		.uleb128 0x18
 21037 28fc 8D110000 		.4byte	.LASF285
 21038 2900 01       		.byte	0x1
 21039 2901 8501     		.2byte	0x185
 21040 2903 61010000 		.4byte	0x161
 21041 2907 00000000 		.4byte	.LFB29
 21042 290b 78000000 		.4byte	.LFE29-.LFB29
 21043 290f 01       		.uleb128 0x1
 21044 2910 9C       		.byte	0x9c
 21045 2911 32290000 		.4byte	0x2932
 21046 2915 19       		.uleb128 0x19
 21047 2916 63747800 		.ascii	"ctx\000"
 21048 291a 01       		.byte	0x1
 21049 291b 8501     		.2byte	0x185
 21050 291d F50D0000 		.4byte	0xdf5
 21051 2921 02       		.uleb128 0x2
 21052 2922 91       		.byte	0x91
 21053 2923 6C       		.sleb128 -20
 21054 2924 19       		.uleb128 0x19
 21055 2925 6400     		.ascii	"d\000"
 21056 2927 01       		.byte	0x1
 21057 2928 8501     		.2byte	0x185
 21058 292a B0030000 		.4byte	0x3b0
 21059 292e 02       		.uleb128 0x2
 21060 292f 91       		.byte	0x91
 21061 2930 60       		.sleb128 -32
 21062 2931 00       		.byte	0
 21063 2932 18       		.uleb128 0x18
 21064 2933 EF0A0000 		.4byte	.LASF286
 21065 2937 01       		.byte	0x1
 21066 2938 7C01     		.2byte	0x17c
 21067 293a 61010000 		.4byte	0x161
 21068 293e 00000000 		.4byte	.LFB28
 21069 2942 70000000 		.4byte	.LFE28-.LFB28
 21070 2946 01       		.uleb128 0x1
 21071 2947 9C       		.byte	0x9c
 21072 2948 69290000 		.4byte	0x2969
 21073 294c 19       		.uleb128 0x19
 21074 294d 63747800 		.ascii	"ctx\000"
 21075 2951 01       		.byte	0x1
 21076 2952 7C01     		.2byte	0x17c
 21077 2954 F50D0000 		.4byte	0xdf5
 21078 2958 02       		.uleb128 0x2
 21079 2959 91       		.byte	0x91
 21080 295a 6C       		.sleb128 -20
 21081 295b 19       		.uleb128 0x19
 21082 295c 6600     		.ascii	"f\000"
ARM GAS  C:\Users\PCHAUT~1\AppData\Local\Temp\ccacj52E.s 			page 372


 21083 295e 01       		.byte	0x1
 21084 295f 7C01     		.2byte	0x17c
 21085 2961 A9030000 		.4byte	0x3a9
 21086 2965 02       		.uleb128 0x2
 21087 2966 91       		.byte	0x91
 21088 2967 68       		.sleb128 -24
 21089 2968 00       		.byte	0
 21090 2969 18       		.uleb128 0x18
 21091 296a E00A0000 		.4byte	.LASF287
 21092 296e 01       		.byte	0x1
 21093 296f 6F01     		.2byte	0x16f
 21094 2971 61010000 		.4byte	0x161
 21095 2975 00000000 		.4byte	.LFB27
 21096 2979 AC000000 		.4byte	.LFE27-.LFB27
 21097 297d 01       		.uleb128 0x1
 21098 297e 9C       		.byte	0x9c
 21099 297f A0290000 		.4byte	0x29a0
 21100 2983 19       		.uleb128 0x19
 21101 2984 63747800 		.ascii	"ctx\000"
 21102 2988 01       		.byte	0x1
 21103 2989 6F01     		.2byte	0x16f
 21104 298b F50D0000 		.4byte	0xdf5
 21105 298f 02       		.uleb128 0x2
 21106 2990 91       		.byte	0x91
 21107 2991 6C       		.sleb128 -20
 21108 2992 19       		.uleb128 0x19
 21109 2993 7500     		.ascii	"u\000"
 21110 2995 01       		.byte	0x1
 21111 2996 6F01     		.2byte	0x16f
 21112 2998 2C010000 		.4byte	0x12c
 21113 299c 02       		.uleb128 0x2
 21114 299d 91       		.byte	0x91
 21115 299e 60       		.sleb128 -32
 21116 299f 00       		.byte	0
 21117 29a0 18       		.uleb128 0x18
 21118 29a1 1B000000 		.4byte	.LASF288
 21119 29a5 01       		.byte	0x1
 21120 29a6 6601     		.2byte	0x166
 21121 29a8 61010000 		.4byte	0x161
 21122 29ac 00000000 		.4byte	.LFB26
 21123 29b0 6C000000 		.4byte	.LFE26-.LFB26
 21124 29b4 01       		.uleb128 0x1
 21125 29b5 9C       		.byte	0x9c
 21126 29b6 D7290000 		.4byte	0x29d7
 21127 29ba 19       		.uleb128 0x19
 21128 29bb 63747800 		.ascii	"ctx\000"
 21129 29bf 01       		.byte	0x1
 21130 29c0 6601     		.2byte	0x166
 21131 29c2 F50D0000 		.4byte	0xdf5
 21132 29c6 02       		.uleb128 0x2
 21133 29c7 91       		.byte	0x91
 21134 29c8 6C       		.sleb128 -20
 21135 29c9 19       		.uleb128 0x19
 21136 29ca 6C00     		.ascii	"l\000"
 21137 29cc 01       		.byte	0x1
 21138 29cd 6601     		.2byte	0x166
 21139 29cf 2C010000 		.4byte	0x12c
ARM GAS  C:\Users\PCHAUT~1\AppData\Local\Temp\ccacj52E.s 			page 373


 21140 29d3 02       		.uleb128 0x2
 21141 29d4 91       		.byte	0x91
 21142 29d5 60       		.sleb128 -32
 21143 29d6 00       		.byte	0
 21144 29d7 18       		.uleb128 0x18
 21145 29d8 82070000 		.4byte	.LASF289
 21146 29dc 01       		.byte	0x1
 21147 29dd 5D01     		.2byte	0x15d
 21148 29df 61010000 		.4byte	0x161
 21149 29e3 00000000 		.4byte	.LFB25
 21150 29e7 64000000 		.4byte	.LFE25-.LFB25
 21151 29eb 01       		.uleb128 0x1
 21152 29ec 9C       		.byte	0x9c
 21153 29ed 0E2A0000 		.4byte	0x2a0e
 21154 29f1 19       		.uleb128 0x19
 21155 29f2 63747800 		.ascii	"ctx\000"
 21156 29f6 01       		.byte	0x1
 21157 29f7 5D01     		.2byte	0x15d
 21158 29f9 F50D0000 		.4byte	0xdf5
 21159 29fd 02       		.uleb128 0x2
 21160 29fe 91       		.byte	0x91
 21161 29ff 6C       		.sleb128 -20
 21162 2a00 19       		.uleb128 0x19
 21163 2a01 6900     		.ascii	"i\000"
 21164 2a03 01       		.byte	0x1
 21165 2a04 5D01     		.2byte	0x15d
 21166 2a06 11010000 		.4byte	0x111
 21167 2a0a 02       		.uleb128 0x2
 21168 2a0b 91       		.byte	0x91
 21169 2a0c 68       		.sleb128 -24
 21170 2a0d 00       		.byte	0
 21171 2a0e 18       		.uleb128 0x18
 21172 2a0f 41080000 		.4byte	.LASF290
 21173 2a13 01       		.byte	0x1
 21174 2a14 5401     		.2byte	0x154
 21175 2a16 61010000 		.4byte	0x161
 21176 2a1a 00000000 		.4byte	.LFB24
 21177 2a1e 70000000 		.4byte	.LFE24-.LFB24
 21178 2a22 01       		.uleb128 0x1
 21179 2a23 9C       		.byte	0x9c
 21180 2a24 452A0000 		.4byte	0x2a45
 21181 2a28 19       		.uleb128 0x19
 21182 2a29 63747800 		.ascii	"ctx\000"
 21183 2a2d 01       		.byte	0x1
 21184 2a2e 5401     		.2byte	0x154
 21185 2a30 F50D0000 		.4byte	0xdf5
 21186 2a34 02       		.uleb128 0x2
 21187 2a35 91       		.byte	0x91
 21188 2a36 6C       		.sleb128 -20
 21189 2a37 19       		.uleb128 0x19
 21190 2a38 7300     		.ascii	"s\000"
 21191 2a3a 01       		.byte	0x1
 21192 2a3b 5401     		.2byte	0x154
 21193 2a3d F6000000 		.4byte	0xf6
 21194 2a41 02       		.uleb128 0x2
 21195 2a42 91       		.byte	0x91
 21196 2a43 6A       		.sleb128 -22
ARM GAS  C:\Users\PCHAUT~1\AppData\Local\Temp\ccacj52E.s 			page 374


 21197 2a44 00       		.byte	0
 21198 2a45 18       		.uleb128 0x18
 21199 2a46 48090000 		.4byte	.LASF291
 21200 2a4a 01       		.byte	0x1
 21201 2a4b 4D01     		.2byte	0x14d
 21202 2a4d 61010000 		.4byte	0x161
 21203 2a51 00000000 		.4byte	.LFB23
 21204 2a55 60000000 		.4byte	.LFE23-.LFB23
 21205 2a59 01       		.uleb128 0x1
 21206 2a5a 9C       		.byte	0x9c
 21207 2a5b 7C2A0000 		.4byte	0x2a7c
 21208 2a5f 19       		.uleb128 0x19
 21209 2a60 63747800 		.ascii	"ctx\000"
 21210 2a64 01       		.byte	0x1
 21211 2a65 4D01     		.2byte	0x14d
 21212 2a67 F50D0000 		.4byte	0xdf5
 21213 2a6b 02       		.uleb128 0x2
 21214 2a6c 91       		.byte	0x91
 21215 2a6d 6C       		.sleb128 -20
 21216 2a6e 19       		.uleb128 0x19
 21217 2a6f 6300     		.ascii	"c\000"
 21218 2a71 01       		.byte	0x1
 21219 2a72 4D01     		.2byte	0x14d
 21220 2a74 E0000000 		.4byte	0xe0
 21221 2a78 02       		.uleb128 0x2
 21222 2a79 91       		.byte	0x91
 21223 2a7a 6B       		.sleb128 -21
 21224 2a7b 00       		.byte	0
 21225 2a7c 18       		.uleb128 0x18
 21226 2a7d 84040000 		.4byte	.LASF292
 21227 2a81 01       		.byte	0x1
 21228 2a82 4901     		.2byte	0x149
 21229 2a84 61010000 		.4byte	0x161
 21230 2a88 00000000 		.4byte	.LFB22
 21231 2a8c 3C000000 		.4byte	.LFE22-.LFB22
 21232 2a90 01       		.uleb128 0x1
 21233 2a91 9C       		.byte	0x9c
 21234 2a92 B32A0000 		.4byte	0x2ab3
 21235 2a96 19       		.uleb128 0x19
 21236 2a97 63747800 		.ascii	"ctx\000"
 21237 2a9b 01       		.byte	0x1
 21238 2a9c 4901     		.2byte	0x149
 21239 2a9e F50D0000 		.4byte	0xdf5
 21240 2aa2 02       		.uleb128 0x2
 21241 2aa3 91       		.byte	0x91
 21242 2aa4 6C       		.sleb128 -20
 21243 2aa5 19       		.uleb128 0x19
 21244 2aa6 6300     		.ascii	"c\000"
 21245 2aa8 01       		.byte	0x1
 21246 2aa9 4901     		.2byte	0x149
 21247 2aab E0000000 		.4byte	0xe0
 21248 2aaf 02       		.uleb128 0x2
 21249 2ab0 91       		.byte	0x91
 21250 2ab1 6B       		.sleb128 -21
 21251 2ab2 00       		.byte	0
 21252 2ab3 18       		.uleb128 0x18
 21253 2ab4 75040000 		.4byte	.LASF293
ARM GAS  C:\Users\PCHAUT~1\AppData\Local\Temp\ccacj52E.s 			page 375


 21254 2ab8 01       		.byte	0x1
 21255 2ab9 3A01     		.2byte	0x13a
 21256 2abb 61010000 		.4byte	0x161
 21257 2abf 00000000 		.4byte	.LFB21
 21258 2ac3 DC000000 		.4byte	.LFE21-.LFB21
 21259 2ac7 01       		.uleb128 0x1
 21260 2ac8 9C       		.byte	0x9c
 21261 2ac9 EA2A0000 		.4byte	0x2aea
 21262 2acd 19       		.uleb128 0x19
 21263 2ace 63747800 		.ascii	"ctx\000"
 21264 2ad2 01       		.byte	0x1
 21265 2ad3 3A01     		.2byte	0x13a
 21266 2ad5 F50D0000 		.4byte	0xdf5
 21267 2ad9 02       		.uleb128 0x2
 21268 2ada 91       		.byte	0x91
 21269 2adb 6C       		.sleb128 -20
 21270 2adc 19       		.uleb128 0x19
 21271 2add 6400     		.ascii	"d\000"
 21272 2adf 01       		.byte	0x1
 21273 2ae0 3A01     		.2byte	0x13a
 21274 2ae2 21010000 		.4byte	0x121
 21275 2ae6 02       		.uleb128 0x2
 21276 2ae7 91       		.byte	0x91
 21277 2ae8 60       		.sleb128 -32
 21278 2ae9 00       		.byte	0
 21279 2aea 18       		.uleb128 0x18
 21280 2aeb 26110000 		.4byte	.LASF294
 21281 2aef 01       		.byte	0x1
 21282 2af0 3101     		.2byte	0x131
 21283 2af2 61010000 		.4byte	0x161
 21284 2af6 00000000 		.4byte	.LFB20
 21285 2afa 6C000000 		.4byte	.LFE20-.LFB20
 21286 2afe 01       		.uleb128 0x1
 21287 2aff 9C       		.byte	0x9c
 21288 2b00 212B0000 		.4byte	0x2b21
 21289 2b04 19       		.uleb128 0x19
 21290 2b05 63747800 		.ascii	"ctx\000"
 21291 2b09 01       		.byte	0x1
 21292 2b0a 3101     		.2byte	0x131
 21293 2b0c F50D0000 		.4byte	0xdf5
 21294 2b10 02       		.uleb128 0x2
 21295 2b11 91       		.byte	0x91
 21296 2b12 6C       		.sleb128 -20
 21297 2b13 19       		.uleb128 0x19
 21298 2b14 6C00     		.ascii	"l\000"
 21299 2b16 01       		.byte	0x1
 21300 2b17 3101     		.2byte	0x131
 21301 2b19 21010000 		.4byte	0x121
 21302 2b1d 02       		.uleb128 0x2
 21303 2b1e 91       		.byte	0x91
 21304 2b1f 60       		.sleb128 -32
 21305 2b20 00       		.byte	0
 21306 2b21 18       		.uleb128 0x18
 21307 2b22 C10B0000 		.4byte	.LASF295
 21308 2b26 01       		.byte	0x1
 21309 2b27 2801     		.2byte	0x128
 21310 2b29 61010000 		.4byte	0x161
ARM GAS  C:\Users\PCHAUT~1\AppData\Local\Temp\ccacj52E.s 			page 376


 21311 2b2d 00000000 		.4byte	.LFB19
 21312 2b31 64000000 		.4byte	.LFE19-.LFB19
 21313 2b35 01       		.uleb128 0x1
 21314 2b36 9C       		.byte	0x9c
 21315 2b37 582B0000 		.4byte	0x2b58
 21316 2b3b 19       		.uleb128 0x19
 21317 2b3c 63747800 		.ascii	"ctx\000"
 21318 2b40 01       		.byte	0x1
 21319 2b41 2801     		.2byte	0x128
 21320 2b43 F50D0000 		.4byte	0xdf5
 21321 2b47 02       		.uleb128 0x2
 21322 2b48 91       		.byte	0x91
 21323 2b49 6C       		.sleb128 -20
 21324 2b4a 19       		.uleb128 0x19
 21325 2b4b 6900     		.ascii	"i\000"
 21326 2b4d 01       		.byte	0x1
 21327 2b4e 2801     		.2byte	0x128
 21328 2b50 01010000 		.4byte	0x101
 21329 2b54 02       		.uleb128 0x2
 21330 2b55 91       		.byte	0x91
 21331 2b56 68       		.sleb128 -24
 21332 2b57 00       		.byte	0
 21333 2b58 18       		.uleb128 0x18
 21334 2b59 2D0C0000 		.4byte	.LASF296
 21335 2b5d 01       		.byte	0x1
 21336 2b5e 1F01     		.2byte	0x11f
 21337 2b60 61010000 		.4byte	0x161
 21338 2b64 00000000 		.4byte	.LFB18
 21339 2b68 74000000 		.4byte	.LFE18-.LFB18
 21340 2b6c 01       		.uleb128 0x1
 21341 2b6d 9C       		.byte	0x9c
 21342 2b6e 8F2B0000 		.4byte	0x2b8f
 21343 2b72 19       		.uleb128 0x19
 21344 2b73 63747800 		.ascii	"ctx\000"
 21345 2b77 01       		.byte	0x1
 21346 2b78 1F01     		.2byte	0x11f
 21347 2b7a F50D0000 		.4byte	0xdf5
 21348 2b7e 02       		.uleb128 0x2
 21349 2b7f 91       		.byte	0x91
 21350 2b80 6C       		.sleb128 -20
 21351 2b81 19       		.uleb128 0x19
 21352 2b82 7300     		.ascii	"s\000"
 21353 2b84 01       		.byte	0x1
 21354 2b85 1F01     		.2byte	0x11f
 21355 2b87 EB000000 		.4byte	0xeb
 21356 2b8b 02       		.uleb128 0x2
 21357 2b8c 91       		.byte	0x91
 21358 2b8d 6A       		.sleb128 -22
 21359 2b8e 00       		.byte	0
 21360 2b8f 18       		.uleb128 0x18
 21361 2b90 D4060000 		.4byte	.LASF297
 21362 2b94 01       		.byte	0x1
 21363 2b95 1801     		.2byte	0x118
 21364 2b97 61010000 		.4byte	0x161
 21365 2b9b 00000000 		.4byte	.LFB17
 21366 2b9f 60000000 		.4byte	.LFE17-.LFB17
 21367 2ba3 01       		.uleb128 0x1
ARM GAS  C:\Users\PCHAUT~1\AppData\Local\Temp\ccacj52E.s 			page 377


 21368 2ba4 9C       		.byte	0x9c
 21369 2ba5 C62B0000 		.4byte	0x2bc6
 21370 2ba9 19       		.uleb128 0x19
 21371 2baa 63747800 		.ascii	"ctx\000"
 21372 2bae 01       		.byte	0x1
 21373 2baf 1801     		.2byte	0x118
 21374 2bb1 F50D0000 		.4byte	0xdf5
 21375 2bb5 02       		.uleb128 0x2
 21376 2bb6 91       		.byte	0x91
 21377 2bb7 6C       		.sleb128 -20
 21378 2bb8 19       		.uleb128 0x19
 21379 2bb9 6300     		.ascii	"c\000"
 21380 2bbb 01       		.byte	0x1
 21381 2bbc 1801     		.2byte	0x118
 21382 2bbe D5000000 		.4byte	0xd5
 21383 2bc2 02       		.uleb128 0x2
 21384 2bc3 91       		.byte	0x91
 21385 2bc4 6B       		.sleb128 -21
 21386 2bc5 00       		.byte	0
 21387 2bc6 18       		.uleb128 0x18
 21388 2bc7 34130000 		.4byte	.LASF298
 21389 2bcb 01       		.byte	0x1
 21390 2bcc 0E01     		.2byte	0x10e
 21391 2bce 61010000 		.4byte	0x161
 21392 2bd2 00000000 		.4byte	.LFB16
 21393 2bd6 70000000 		.4byte	.LFE16-.LFB16
 21394 2bda 01       		.uleb128 0x1
 21395 2bdb 9C       		.byte	0x9c
 21396 2bdc FD2B0000 		.4byte	0x2bfd
 21397 2be0 19       		.uleb128 0x19
 21398 2be1 63747800 		.ascii	"ctx\000"
 21399 2be5 01       		.byte	0x1
 21400 2be6 0E01     		.2byte	0x10e
 21401 2be8 F50D0000 		.4byte	0xdf5
 21402 2bec 02       		.uleb128 0x2
 21403 2bed 91       		.byte	0x91
 21404 2bee 6C       		.sleb128 -20
 21405 2bef 19       		.uleb128 0x19
 21406 2bf0 6300     		.ascii	"c\000"
 21407 2bf2 01       		.byte	0x1
 21408 2bf3 0E01     		.2byte	0x10e
 21409 2bf5 D5000000 		.4byte	0xd5
 21410 2bf9 02       		.uleb128 0x2
 21411 2bfa 91       		.byte	0x91
 21412 2bfb 6B       		.sleb128 -21
 21413 2bfc 00       		.byte	0
 21414 2bfd 18       		.uleb128 0x18
 21415 2bfe 0C000000 		.4byte	.LASF299
 21416 2c02 01       		.byte	0x1
 21417 2c03 0601     		.2byte	0x106
 21418 2c05 61010000 		.4byte	0x161
 21419 2c09 00000000 		.4byte	.LFB15
 21420 2c0d 58000000 		.4byte	.LFE15-.LFB15
 21421 2c11 01       		.uleb128 0x1
 21422 2c12 9C       		.byte	0x9c
 21423 2c13 342C0000 		.4byte	0x2c34
 21424 2c17 19       		.uleb128 0x19
ARM GAS  C:\Users\PCHAUT~1\AppData\Local\Temp\ccacj52E.s 			page 378


 21425 2c18 63747800 		.ascii	"ctx\000"
 21426 2c1c 01       		.byte	0x1
 21427 2c1d 0601     		.2byte	0x106
 21428 2c1f F50D0000 		.4byte	0xdf5
 21429 2c23 02       		.uleb128 0x2
 21430 2c24 91       		.byte	0x91
 21431 2c25 6C       		.sleb128 -20
 21432 2c26 19       		.uleb128 0x19
 21433 2c27 6300     		.ascii	"c\000"
 21434 2c29 01       		.byte	0x1
 21435 2c2a 0601     		.2byte	0x106
 21436 2c2c D5000000 		.4byte	0xd5
 21437 2c30 02       		.uleb128 0x2
 21438 2c31 91       		.byte	0x91
 21439 2c32 6B       		.sleb128 -21
 21440 2c33 00       		.byte	0
 21441 2c34 1F       		.uleb128 0x1f
 21442 2c35 E8020000 		.4byte	.LASF300
 21443 2c39 01       		.byte	0x1
 21444 2c3a FE       		.byte	0xfe
 21445 2c3b 61010000 		.4byte	0x161
 21446 2c3f 00000000 		.4byte	.LFB14
 21447 2c43 4C000000 		.4byte	.LFE14-.LFB14
 21448 2c47 01       		.uleb128 0x1
 21449 2c48 9C       		.byte	0x9c
 21450 2c49 682C0000 		.4byte	0x2c68
 21451 2c4d 20       		.uleb128 0x20
 21452 2c4e 63747800 		.ascii	"ctx\000"
 21453 2c52 01       		.byte	0x1
 21454 2c53 FE       		.byte	0xfe
 21455 2c54 F50D0000 		.4byte	0xdf5
 21456 2c58 02       		.uleb128 0x2
 21457 2c59 91       		.byte	0x91
 21458 2c5a 6C       		.sleb128 -20
 21459 2c5b 20       		.uleb128 0x20
 21460 2c5c 6300     		.ascii	"c\000"
 21461 2c5e 01       		.byte	0x1
 21462 2c5f FE       		.byte	0xfe
 21463 2c60 E0000000 		.4byte	0xe0
 21464 2c64 02       		.uleb128 0x2
 21465 2c65 91       		.byte	0x91
 21466 2c66 6B       		.sleb128 -21
 21467 2c67 00       		.byte	0
 21468 2c68 1F       		.uleb128 0x1f
 21469 2c69 FD080000 		.4byte	.LASF301
 21470 2c6d 01       		.byte	0x1
 21471 2c6e F7       		.byte	0xf7
 21472 2c6f 9D050000 		.4byte	0x59d
 21473 2c73 00000000 		.4byte	.LFB13
 21474 2c77 50000000 		.4byte	.LFE13-.LFB13
 21475 2c7b 01       		.uleb128 0x1
 21476 2c7c 9C       		.byte	0x9c
 21477 2c7d 902C0000 		.4byte	0x2c90
 21478 2c81 20       		.uleb128 0x20
 21479 2c82 63747800 		.ascii	"ctx\000"
 21480 2c86 01       		.byte	0x1
 21481 2c87 F7       		.byte	0xf7
ARM GAS  C:\Users\PCHAUT~1\AppData\Local\Temp\ccacj52E.s 			page 379


 21482 2c88 F50D0000 		.4byte	0xdf5
 21483 2c8c 02       		.uleb128 0x2
 21484 2c8d 91       		.byte	0x91
 21485 2c8e 6C       		.sleb128 -20
 21486 2c8f 00       		.byte	0
 21487 2c90 21       		.uleb128 0x21
 21488 2c91 F4050000 		.4byte	.LASF302
 21489 2c95 01       		.byte	0x1
 21490 2c96 F3       		.byte	0xf3
 21491 2c97 11010000 		.4byte	0x111
 21492 2c9b 00000000 		.4byte	.LFB12
 21493 2c9f 28000000 		.4byte	.LFE12-.LFB12
 21494 2ca3 01       		.uleb128 0x1
 21495 2ca4 9C       		.byte	0x9c
 21496 2ca5 21       		.uleb128 0x21
 21497 2ca6 4F080000 		.4byte	.LASF303
 21498 2caa 01       		.byte	0x1
 21499 2cab EF       		.byte	0xef
 21500 2cac 11010000 		.4byte	0x111
 21501 2cb0 00000000 		.4byte	.LFB11
 21502 2cb4 28000000 		.4byte	.LFE11-.LFB11
 21503 2cb8 01       		.uleb128 0x1
 21504 2cb9 9C       		.byte	0x9c
 21505 2cba 22       		.uleb128 0x22
 21506 2cbb 4E020000 		.4byte	.LASF321
 21507 2cbf 01       		.byte	0x1
 21508 2cc0 E8       		.byte	0xe8
 21509 2cc1 00000000 		.4byte	.LFB10
 21510 2cc5 44000000 		.4byte	.LFE10-.LFB10
 21511 2cc9 01       		.uleb128 0x1
 21512 2cca 9C       		.byte	0x9c
 21513 2ccb 082D0000 		.4byte	0x2d08
 21514 2ccf 20       		.uleb128 0x20
 21515 2cd0 63747800 		.ascii	"ctx\000"
 21516 2cd4 01       		.byte	0x1
 21517 2cd5 E8       		.byte	0xe8
 21518 2cd6 F50D0000 		.4byte	0xdf5
 21519 2cda 02       		.uleb128 0x2
 21520 2cdb 91       		.byte	0x91
 21521 2cdc 6C       		.sleb128 -20
 21522 2cdd 20       		.uleb128 0x20
 21523 2cde 62756600 		.ascii	"buf\000"
 21524 2ce2 01       		.byte	0x1
 21525 2ce3 E8       		.byte	0xe8
 21526 2ce4 AB010000 		.4byte	0x1ab
 21527 2ce8 02       		.uleb128 0x2
 21528 2ce9 91       		.byte	0x91
 21529 2cea 68       		.sleb128 -24
 21530 2ceb 23       		.uleb128 0x23
 21531 2cec F70E0000 		.4byte	.LASF30
 21532 2cf0 01       		.byte	0x1
 21533 2cf1 E8       		.byte	0xe8
 21534 2cf2 37010000 		.4byte	0x137
 21535 2cf6 02       		.uleb128 0x2
 21536 2cf7 91       		.byte	0x91
 21537 2cf8 64       		.sleb128 -28
 21538 2cf9 23       		.uleb128 0x23
ARM GAS  C:\Users\PCHAUT~1\AppData\Local\Temp\ccacj52E.s 			page 380


 21539 2cfa C6090000 		.4byte	.LASF31
 21540 2cfe 01       		.byte	0x1
 21541 2cff E8       		.byte	0xe8
 21542 2d00 AD010000 		.4byte	0x1ad
 21543 2d04 02       		.uleb128 0x2
 21544 2d05 91       		.byte	0x91
 21545 2d06 60       		.sleb128 -32
 21546 2d07 00       		.byte	0
 21547 2d08 24       		.uleb128 0x24
 21548 2d09 450F0000 		.4byte	.LASF305
 21549 2d0d 01       		.byte	0x1
 21550 2d0e E0       		.byte	0xe0
 21551 2d0f 61010000 		.4byte	0x161
 21552 2d13 00000000 		.4byte	.LFB9
 21553 2d17 4C000000 		.4byte	.LFE9-.LFB9
 21554 2d1b 01       		.uleb128 0x1
 21555 2d1c 9C       		.byte	0x9c
 21556 2d1d 3E2D0000 		.4byte	0x2d3e
 21557 2d21 20       		.uleb128 0x20
 21558 2d22 63747800 		.ascii	"ctx\000"
 21559 2d26 01       		.byte	0x1
 21560 2d27 E0       		.byte	0xe0
 21561 2d28 F50D0000 		.4byte	0xdf5
 21562 2d2c 02       		.uleb128 0x2
 21563 2d2d 91       		.byte	0x91
 21564 2d2e 6C       		.sleb128 -20
 21565 2d2f 23       		.uleb128 0x23
 21566 2d30 EE050000 		.4byte	.LASF304
 21567 2d34 01       		.byte	0x1
 21568 2d35 E0       		.byte	0xe0
 21569 2d36 E0000000 		.4byte	0xe0
 21570 2d3a 02       		.uleb128 0x2
 21571 2d3b 91       		.byte	0x91
 21572 2d3c 6B       		.sleb128 -21
 21573 2d3d 00       		.byte	0
 21574 2d3e 24       		.uleb128 0x24
 21575 2d3f 84130000 		.4byte	.LASF306
 21576 2d43 01       		.byte	0x1
 21577 2d44 D8       		.byte	0xd8
 21578 2d45 61010000 		.4byte	0x161
 21579 2d49 00000000 		.4byte	.LFB8
 21580 2d4d 4C000000 		.4byte	.LFE8-.LFB8
 21581 2d51 01       		.uleb128 0x1
 21582 2d52 9C       		.byte	0x9c
 21583 2d53 742D0000 		.4byte	0x2d74
 21584 2d57 20       		.uleb128 0x20
 21585 2d58 63747800 		.ascii	"ctx\000"
 21586 2d5c 01       		.byte	0x1
 21587 2d5d D8       		.byte	0xd8
 21588 2d5e F50D0000 		.4byte	0xdf5
 21589 2d62 02       		.uleb128 0x2
 21590 2d63 91       		.byte	0x91
 21591 2d64 6C       		.sleb128 -20
 21592 2d65 23       		.uleb128 0x23
 21593 2d66 C50E0000 		.4byte	.LASF307
 21594 2d6a 01       		.byte	0x1
 21595 2d6b D8       		.byte	0xd8
ARM GAS  C:\Users\PCHAUT~1\AppData\Local\Temp\ccacj52E.s 			page 381


 21596 2d6c E0000000 		.4byte	0xe0
 21597 2d70 02       		.uleb128 0x2
 21598 2d71 91       		.byte	0x91
 21599 2d72 6B       		.sleb128 -21
 21600 2d73 00       		.byte	0
 21601 2d74 24       		.uleb128 0x24
 21602 2d75 D60E0000 		.4byte	.LASF308
 21603 2d79 01       		.byte	0x1
 21604 2d7a D0       		.byte	0xd0
 21605 2d7b 61010000 		.4byte	0x161
 21606 2d7f 00000000 		.4byte	.LFB7
 21607 2d83 44000000 		.4byte	.LFE7-.LFB7
 21608 2d87 01       		.uleb128 0x1
 21609 2d88 9C       		.byte	0x9c
 21610 2d89 AA2D0000 		.4byte	0x2daa
 21611 2d8d 20       		.uleb128 0x20
 21612 2d8e 63747800 		.ascii	"ctx\000"
 21613 2d92 01       		.byte	0x1
 21614 2d93 D0       		.byte	0xd0
 21615 2d94 F50D0000 		.4byte	0xdf5
 21616 2d98 02       		.uleb128 0x2
 21617 2d99 91       		.byte	0x91
 21618 2d9a 6C       		.sleb128 -20
 21619 2d9b 23       		.uleb128 0x23
 21620 2d9c C50E0000 		.4byte	.LASF307
 21621 2da0 01       		.byte	0x1
 21622 2da1 D0       		.byte	0xd0
 21623 2da2 E4080000 		.4byte	0x8e4
 21624 2da6 02       		.uleb128 0x2
 21625 2da7 91       		.byte	0x91
 21626 2da8 68       		.sleb128 -24
 21627 2da9 00       		.byte	0
 21628 2daa 24       		.uleb128 0x24
 21629 2dab B2080000 		.4byte	.LASF309
 21630 2daf 01       		.byte	0x1
 21631 2db0 CC       		.byte	0xcc
 21632 2db1 61010000 		.4byte	0x161
 21633 2db5 00000000 		.4byte	.LFB6
 21634 2db9 48000000 		.4byte	.LFE6-.LFB6
 21635 2dbd 01       		.uleb128 0x1
 21636 2dbe 9C       		.byte	0x9c
 21637 2dbf DE2D0000 		.4byte	0x2dde
 21638 2dc3 20       		.uleb128 0x20
 21639 2dc4 63747800 		.ascii	"ctx\000"
 21640 2dc8 01       		.byte	0x1
 21641 2dc9 CC       		.byte	0xcc
 21642 2dca F50D0000 		.4byte	0xdf5
 21643 2dce 02       		.uleb128 0x2
 21644 2dcf 91       		.byte	0x91
 21645 2dd0 6C       		.sleb128 -20
 21646 2dd1 20       		.uleb128 0x20
 21647 2dd2 7800     		.ascii	"x\000"
 21648 2dd4 01       		.byte	0x1
 21649 2dd5 CC       		.byte	0xcc
 21650 2dd6 E0000000 		.4byte	0xe0
 21651 2dda 02       		.uleb128 0x2
 21652 2ddb 91       		.byte	0x91
ARM GAS  C:\Users\PCHAUT~1\AppData\Local\Temp\ccacj52E.s 			page 382


 21653 2ddc 6B       		.sleb128 -21
 21654 2ddd 00       		.byte	0
 21655 2dde 24       		.uleb128 0x24
 21656 2ddf 8A050000 		.4byte	.LASF310
 21657 2de3 01       		.byte	0x1
 21658 2de4 C8       		.byte	0xc8
 21659 2de5 61010000 		.4byte	0x161
 21660 2de9 00000000 		.4byte	.LFB5
 21661 2ded 38000000 		.4byte	.LFE5-.LFB5
 21662 2df1 01       		.uleb128 0x1
 21663 2df2 9C       		.byte	0x9c
 21664 2df3 122E0000 		.4byte	0x2e12
 21665 2df7 20       		.uleb128 0x20
 21666 2df8 63747800 		.ascii	"ctx\000"
 21667 2dfc 01       		.byte	0x1
 21668 2dfd C8       		.byte	0xc8
 21669 2dfe F50D0000 		.4byte	0xdf5
 21670 2e02 02       		.uleb128 0x2
 21671 2e03 91       		.byte	0x91
 21672 2e04 6C       		.sleb128 -20
 21673 2e05 20       		.uleb128 0x20
 21674 2e06 7800     		.ascii	"x\000"
 21675 2e08 01       		.byte	0x1
 21676 2e09 C8       		.byte	0xc8
 21677 2e0a E4080000 		.4byte	0x8e4
 21678 2e0e 02       		.uleb128 0x2
 21679 2e0f 91       		.byte	0x91
 21680 2e10 68       		.sleb128 -24
 21681 2e11 00       		.byte	0
 21682 2e12 24       		.uleb128 0x24
 21683 2e13 FC0E0000 		.4byte	.LASF311
 21684 2e17 01       		.byte	0x1
 21685 2e18 AE       		.byte	0xae
 21686 2e19 B0030000 		.4byte	0x3b0
 21687 2e1d 00000000 		.4byte	.LFB4
 21688 2e21 B8000000 		.4byte	.LFE4-.LFB4
 21689 2e25 01       		.uleb128 0x1
 21690 2e26 9C       		.byte	0x9c
 21691 2e27 5C2E0000 		.4byte	0x2e5c
 21692 2e2b 20       		.uleb128 0x20
 21693 2e2c 7800     		.ascii	"x\000"
 21694 2e2e 01       		.byte	0x1
 21695 2e2f AE       		.byte	0xae
 21696 2e30 B0030000 		.4byte	0x3b0
 21697 2e34 02       		.uleb128 0x2
 21698 2e35 91       		.byte	0x91
 21699 2e36 60       		.sleb128 -32
 21700 2e37 17       		.uleb128 0x17
 21701 2e38 6200     		.ascii	"b\000"
 21702 2e3a 01       		.byte	0x1
 21703 2e3b AF       		.byte	0xaf
 21704 2e3c 09150000 		.4byte	0x1509
 21705 2e40 02       		.uleb128 0x2
 21706 2e41 91       		.byte	0x91
 21707 2e42 70       		.sleb128 -16
 21708 2e43 1D       		.uleb128 0x1d
 21709 2e44 1A000000 		.4byte	.LBB6
ARM GAS  C:\Users\PCHAUT~1\AppData\Local\Temp\ccacj52E.s 			page 383


 21710 2e48 74000000 		.4byte	.LBE6-.LBB6
 21711 2e4c 13       		.uleb128 0x13
 21712 2e4d 42030000 		.4byte	.LASF312
 21713 2e51 01       		.byte	0x1
 21714 2e52 B2       		.byte	0xb2
 21715 2e53 A3050000 		.4byte	0x5a3
 21716 2e57 02       		.uleb128 0x2
 21717 2e58 91       		.byte	0x91
 21718 2e59 6F       		.sleb128 -17
 21719 2e5a 00       		.byte	0
 21720 2e5b 00       		.byte	0
 21721 2e5c 24       		.uleb128 0x24
 21722 2e5d 2D0A0000 		.4byte	.LASF313
 21723 2e61 01       		.byte	0x1
 21724 2e62 9C       		.byte	0x9c
 21725 2e63 A9030000 		.4byte	0x3a9
 21726 2e67 00000000 		.4byte	.LFB3
 21727 2e6b 7C000000 		.4byte	.LFE3-.LFB3
 21728 2e6f 01       		.uleb128 0x1
 21729 2e70 9C       		.byte	0x9c
 21730 2e71 A62E0000 		.4byte	0x2ea6
 21731 2e75 20       		.uleb128 0x20
 21732 2e76 7800     		.ascii	"x\000"
 21733 2e78 01       		.byte	0x1
 21734 2e79 9C       		.byte	0x9c
 21735 2e7a A9030000 		.4byte	0x3a9
 21736 2e7e 02       		.uleb128 0x2
 21737 2e7f 91       		.byte	0x91
 21738 2e80 64       		.sleb128 -28
 21739 2e81 17       		.uleb128 0x17
 21740 2e82 6200     		.ascii	"b\000"
 21741 2e84 01       		.byte	0x1
 21742 2e85 9D       		.byte	0x9d
 21743 2e86 09150000 		.4byte	0x1509
 21744 2e8a 02       		.uleb128 0x2
 21745 2e8b 91       		.byte	0x91
 21746 2e8c 70       		.sleb128 -16
 21747 2e8d 1D       		.uleb128 0x1d
 21748 2e8e 1A000000 		.4byte	.LBB5
 21749 2e92 3C000000 		.4byte	.LBE5-.LBB5
 21750 2e96 13       		.uleb128 0x13
 21751 2e97 42030000 		.4byte	.LASF312
 21752 2e9b 01       		.byte	0x1
 21753 2e9c A0       		.byte	0xa0
 21754 2e9d A3050000 		.4byte	0x5a3
 21755 2ea1 02       		.uleb128 0x2
 21756 2ea2 91       		.byte	0x91
 21757 2ea3 6F       		.sleb128 -17
 21758 2ea4 00       		.byte	0
 21759 2ea5 00       		.byte	0
 21760 2ea6 24       		.uleb128 0x24
 21761 2ea7 57020000 		.4byte	.LASF314
 21762 2eab 01       		.byte	0x1
 21763 2eac 82       		.byte	0x82
 21764 2ead 2C010000 		.4byte	0x12c
 21765 2eb1 00000000 		.4byte	.LFB2
 21766 2eb5 B0000000 		.4byte	.LFE2-.LFB2
ARM GAS  C:\Users\PCHAUT~1\AppData\Local\Temp\ccacj52E.s 			page 384


 21767 2eb9 01       		.uleb128 0x1
 21768 2eba 9C       		.byte	0x9c
 21769 2ebb F02E0000 		.4byte	0x2ef0
 21770 2ebf 20       		.uleb128 0x20
 21771 2ec0 7800     		.ascii	"x\000"
 21772 2ec2 01       		.byte	0x1
 21773 2ec3 82       		.byte	0x82
 21774 2ec4 2C010000 		.4byte	0x12c
 21775 2ec8 02       		.uleb128 0x2
 21776 2ec9 91       		.byte	0x91
 21777 2eca 60       		.sleb128 -32
 21778 2ecb 17       		.uleb128 0x17
 21779 2ecc 6200     		.ascii	"b\000"
 21780 2ece 01       		.byte	0x1
 21781 2ecf 83       		.byte	0x83
 21782 2ed0 09150000 		.4byte	0x1509
 21783 2ed4 02       		.uleb128 0x2
 21784 2ed5 91       		.byte	0x91
 21785 2ed6 70       		.sleb128 -16
 21786 2ed7 1D       		.uleb128 0x1d
 21787 2ed8 1A000000 		.4byte	.LBB4
 21788 2edc 74000000 		.4byte	.LBE4-.LBB4
 21789 2ee0 13       		.uleb128 0x13
 21790 2ee1 42030000 		.4byte	.LASF312
 21791 2ee5 01       		.byte	0x1
 21792 2ee6 86       		.byte	0x86
 21793 2ee7 A3050000 		.4byte	0x5a3
 21794 2eeb 02       		.uleb128 0x2
 21795 2eec 91       		.byte	0x91
 21796 2eed 6F       		.sleb128 -17
 21797 2eee 00       		.byte	0
 21798 2eef 00       		.byte	0
 21799 2ef0 24       		.uleb128 0x24
 21800 2ef1 DB0A0000 		.4byte	.LASF315
 21801 2ef5 01       		.byte	0x1
 21802 2ef6 70       		.byte	0x70
 21803 2ef7 11010000 		.4byte	0x111
 21804 2efb 00000000 		.4byte	.LFB1
 21805 2eff 74000000 		.4byte	.LFE1-.LFB1
 21806 2f03 01       		.uleb128 0x1
 21807 2f04 9C       		.byte	0x9c
 21808 2f05 3A2F0000 		.4byte	0x2f3a
 21809 2f09 20       		.uleb128 0x20
 21810 2f0a 7800     		.ascii	"x\000"
 21811 2f0c 01       		.byte	0x1
 21812 2f0d 70       		.byte	0x70
 21813 2f0e 11010000 		.4byte	0x111
 21814 2f12 02       		.uleb128 0x2
 21815 2f13 91       		.byte	0x91
 21816 2f14 64       		.sleb128 -28
 21817 2f15 17       		.uleb128 0x17
 21818 2f16 6200     		.ascii	"b\000"
 21819 2f18 01       		.byte	0x1
 21820 2f19 71       		.byte	0x71
 21821 2f1a 09150000 		.4byte	0x1509
 21822 2f1e 02       		.uleb128 0x2
 21823 2f1f 91       		.byte	0x91
ARM GAS  C:\Users\PCHAUT~1\AppData\Local\Temp\ccacj52E.s 			page 385


 21824 2f20 70       		.sleb128 -16
 21825 2f21 1D       		.uleb128 0x1d
 21826 2f22 18000000 		.4byte	.LBB3
 21827 2f26 3C000000 		.4byte	.LBE3-.LBB3
 21828 2f2a 13       		.uleb128 0x13
 21829 2f2b 42030000 		.4byte	.LASF312
 21830 2f2f 01       		.byte	0x1
 21831 2f30 74       		.byte	0x74
 21832 2f31 A3050000 		.4byte	0x5a3
 21833 2f35 02       		.uleb128 0x2
 21834 2f36 91       		.byte	0x91
 21835 2f37 6F       		.sleb128 -17
 21836 2f38 00       		.byte	0
 21837 2f39 00       		.byte	0
 21838 2f3a 25       		.uleb128 0x25
 21839 2f3b 5B080000 		.4byte	.LASF322
 21840 2f3f 01       		.byte	0x1
 21841 2f40 62       		.byte	0x62
 21842 2f41 F6000000 		.4byte	0xf6
 21843 2f45 00000000 		.4byte	.LFB0
 21844 2f49 60000000 		.4byte	.LFE0-.LFB0
 21845 2f4d 01       		.uleb128 0x1
 21846 2f4e 9C       		.byte	0x9c
 21847 2f4f 20       		.uleb128 0x20
 21848 2f50 7800     		.ascii	"x\000"
 21849 2f52 01       		.byte	0x1
 21850 2f53 62       		.byte	0x62
 21851 2f54 F6000000 		.4byte	0xf6
 21852 2f58 02       		.uleb128 0x2
 21853 2f59 91       		.byte	0x91
 21854 2f5a 66       		.sleb128 -26
 21855 2f5b 17       		.uleb128 0x17
 21856 2f5c 6200     		.ascii	"b\000"
 21857 2f5e 01       		.byte	0x1
 21858 2f5f 63       		.byte	0x63
 21859 2f60 09150000 		.4byte	0x1509
 21860 2f64 02       		.uleb128 0x2
 21861 2f65 91       		.byte	0x91
 21862 2f66 70       		.sleb128 -16
 21863 2f67 1D       		.uleb128 0x1d
 21864 2f68 1E000000 		.4byte	.LBB2
 21865 2f6c 20000000 		.4byte	.LBE2-.LBB2
 21866 2f70 13       		.uleb128 0x13
 21867 2f71 42030000 		.4byte	.LASF312
 21868 2f75 01       		.byte	0x1
 21869 2f76 66       		.byte	0x66
 21870 2f77 A3050000 		.4byte	0x5a3
 21871 2f7b 02       		.uleb128 0x2
 21872 2f7c 91       		.byte	0x91
 21873 2f7d 6F       		.sleb128 -17
 21874 2f7e 00       		.byte	0
 21875 2f7f 00       		.byte	0
 21876 2f80 00       		.byte	0
 21877              		.section	.debug_abbrev,"",%progbits
 21878              	.Ldebug_abbrev0:
 21879 0000 01       		.uleb128 0x1
 21880 0001 11       		.uleb128 0x11
ARM GAS  C:\Users\PCHAUT~1\AppData\Local\Temp\ccacj52E.s 			page 386


 21881 0002 01       		.byte	0x1
 21882 0003 25       		.uleb128 0x25
 21883 0004 0E       		.uleb128 0xe
 21884 0005 13       		.uleb128 0x13
 21885 0006 0B       		.uleb128 0xb
 21886 0007 03       		.uleb128 0x3
 21887 0008 0E       		.uleb128 0xe
 21888 0009 1B       		.uleb128 0x1b
 21889 000a 0E       		.uleb128 0xe
 21890 000b 55       		.uleb128 0x55
 21891 000c 17       		.uleb128 0x17
 21892 000d 11       		.uleb128 0x11
 21893 000e 01       		.uleb128 0x1
 21894 000f 10       		.uleb128 0x10
 21895 0010 17       		.uleb128 0x17
 21896 0011 00       		.byte	0
 21897 0012 00       		.byte	0
 21898 0013 02       		.uleb128 0x2
 21899 0014 24       		.uleb128 0x24
 21900 0015 00       		.byte	0
 21901 0016 0B       		.uleb128 0xb
 21902 0017 0B       		.uleb128 0xb
 21903 0018 3E       		.uleb128 0x3e
 21904 0019 0B       		.uleb128 0xb
 21905 001a 03       		.uleb128 0x3
 21906 001b 08       		.uleb128 0x8
 21907 001c 00       		.byte	0
 21908 001d 00       		.byte	0
 21909 001e 03       		.uleb128 0x3
 21910 001f 16       		.uleb128 0x16
 21911 0020 00       		.byte	0
 21912 0021 03       		.uleb128 0x3
 21913 0022 0E       		.uleb128 0xe
 21914 0023 3A       		.uleb128 0x3a
 21915 0024 0B       		.uleb128 0xb
 21916 0025 3B       		.uleb128 0x3b
 21917 0026 0B       		.uleb128 0xb
 21918 0027 49       		.uleb128 0x49
 21919 0028 13       		.uleb128 0x13
 21920 0029 00       		.byte	0
 21921 002a 00       		.byte	0
 21922 002b 04       		.uleb128 0x4
 21923 002c 24       		.uleb128 0x24
 21924 002d 00       		.byte	0
 21925 002e 0B       		.uleb128 0xb
 21926 002f 0B       		.uleb128 0xb
 21927 0030 3E       		.uleb128 0x3e
 21928 0031 0B       		.uleb128 0xb
 21929 0032 03       		.uleb128 0x3
 21930 0033 0E       		.uleb128 0xe
 21931 0034 00       		.byte	0
 21932 0035 00       		.byte	0
 21933 0036 05       		.uleb128 0x5
 21934 0037 26       		.uleb128 0x26
 21935 0038 00       		.byte	0
 21936 0039 49       		.uleb128 0x49
 21937 003a 13       		.uleb128 0x13
ARM GAS  C:\Users\PCHAUT~1\AppData\Local\Temp\ccacj52E.s 			page 387


 21938 003b 00       		.byte	0
 21939 003c 00       		.byte	0
 21940 003d 06       		.uleb128 0x6
 21941 003e 0F       		.uleb128 0xf
 21942 003f 00       		.byte	0
 21943 0040 0B       		.uleb128 0xb
 21944 0041 0B       		.uleb128 0xb
 21945 0042 49       		.uleb128 0x49
 21946 0043 13       		.uleb128 0x13
 21947 0044 00       		.byte	0
 21948 0045 00       		.byte	0
 21949 0046 07       		.uleb128 0x7
 21950 0047 15       		.uleb128 0x15
 21951 0048 01       		.byte	0x1
 21952 0049 27       		.uleb128 0x27
 21953 004a 19       		.uleb128 0x19
 21954 004b 49       		.uleb128 0x49
 21955 004c 13       		.uleb128 0x13
 21956 004d 01       		.uleb128 0x1
 21957 004e 13       		.uleb128 0x13
 21958 004f 00       		.byte	0
 21959 0050 00       		.byte	0
 21960 0051 08       		.uleb128 0x8
 21961 0052 05       		.uleb128 0x5
 21962 0053 00       		.byte	0
 21963 0054 49       		.uleb128 0x49
 21964 0055 13       		.uleb128 0x13
 21965 0056 00       		.byte	0
 21966 0057 00       		.byte	0
 21967 0058 09       		.uleb128 0x9
 21968 0059 13       		.uleb128 0x13
 21969 005a 01       		.byte	0x1
 21970 005b 03       		.uleb128 0x3
 21971 005c 0E       		.uleb128 0xe
 21972 005d 0B       		.uleb128 0xb
 21973 005e 0B       		.uleb128 0xb
 21974 005f 3A       		.uleb128 0x3a
 21975 0060 0B       		.uleb128 0xb
 21976 0061 3B       		.uleb128 0x3b
 21977 0062 0B       		.uleb128 0xb
 21978 0063 01       		.uleb128 0x1
 21979 0064 13       		.uleb128 0x13
 21980 0065 00       		.byte	0
 21981 0066 00       		.byte	0
 21982 0067 0A       		.uleb128 0xa
 21983 0068 0D       		.uleb128 0xd
 21984 0069 00       		.byte	0
 21985 006a 03       		.uleb128 0x3
 21986 006b 0E       		.uleb128 0xe
 21987 006c 3A       		.uleb128 0x3a
 21988 006d 0B       		.uleb128 0xb
 21989 006e 3B       		.uleb128 0x3b
 21990 006f 0B       		.uleb128 0xb
 21991 0070 49       		.uleb128 0x49
 21992 0071 13       		.uleb128 0x13
 21993 0072 38       		.uleb128 0x38
 21994 0073 0B       		.uleb128 0xb
ARM GAS  C:\Users\PCHAUT~1\AppData\Local\Temp\ccacj52E.s 			page 388


 21995 0074 00       		.byte	0
 21996 0075 00       		.byte	0
 21997 0076 0B       		.uleb128 0xb
 21998 0077 0D       		.uleb128 0xd
 21999 0078 00       		.byte	0
 22000 0079 03       		.uleb128 0x3
 22001 007a 08       		.uleb128 0x8
 22002 007b 3A       		.uleb128 0x3a
 22003 007c 0B       		.uleb128 0xb
 22004 007d 3B       		.uleb128 0x3b
 22005 007e 0B       		.uleb128 0xb
 22006 007f 49       		.uleb128 0x49
 22007 0080 13       		.uleb128 0x13
 22008 0081 38       		.uleb128 0x38
 22009 0082 0B       		.uleb128 0xb
 22010 0083 00       		.byte	0
 22011 0084 00       		.byte	0
 22012 0085 0C       		.uleb128 0xc
 22013 0086 0F       		.uleb128 0xf
 22014 0087 00       		.byte	0
 22015 0088 0B       		.uleb128 0xb
 22016 0089 0B       		.uleb128 0xb
 22017 008a 00       		.byte	0
 22018 008b 00       		.byte	0
 22019 008c 0D       		.uleb128 0xd
 22020 008d 26       		.uleb128 0x26
 22021 008e 00       		.byte	0
 22022 008f 00       		.byte	0
 22023 0090 00       		.byte	0
 22024 0091 0E       		.uleb128 0xe
 22025 0092 04       		.uleb128 0x4
 22026 0093 01       		.byte	0x1
 22027 0094 3E       		.uleb128 0x3e
 22028 0095 0B       		.uleb128 0xb
 22029 0096 0B       		.uleb128 0xb
 22030 0097 0B       		.uleb128 0xb
 22031 0098 49       		.uleb128 0x49
 22032 0099 13       		.uleb128 0x13
 22033 009a 3A       		.uleb128 0x3a
 22034 009b 0B       		.uleb128 0xb
 22035 009c 3B       		.uleb128 0x3b
 22036 009d 0B       		.uleb128 0xb
 22037 009e 01       		.uleb128 0x1
 22038 009f 13       		.uleb128 0x13
 22039 00a0 00       		.byte	0
 22040 00a1 00       		.byte	0
 22041 00a2 0F       		.uleb128 0xf
 22042 00a3 28       		.uleb128 0x28
 22043 00a4 00       		.byte	0
 22044 00a5 03       		.uleb128 0x3
 22045 00a6 0E       		.uleb128 0xe
 22046 00a7 1C       		.uleb128 0x1c
 22047 00a8 0B       		.uleb128 0xb
 22048 00a9 00       		.byte	0
 22049 00aa 00       		.byte	0
 22050 00ab 10       		.uleb128 0x10
 22051 00ac 17       		.uleb128 0x17
ARM GAS  C:\Users\PCHAUT~1\AppData\Local\Temp\ccacj52E.s 			page 389


 22052 00ad 01       		.byte	0x1
 22053 00ae 03       		.uleb128 0x3
 22054 00af 0E       		.uleb128 0xe
 22055 00b0 0B       		.uleb128 0xb
 22056 00b1 0B       		.uleb128 0xb
 22057 00b2 3A       		.uleb128 0x3a
 22058 00b3 0B       		.uleb128 0xb
 22059 00b4 3B       		.uleb128 0x3b
 22060 00b5 0B       		.uleb128 0xb
 22061 00b6 01       		.uleb128 0x1
 22062 00b7 13       		.uleb128 0x13
 22063 00b8 00       		.byte	0
 22064 00b9 00       		.byte	0
 22065 00ba 11       		.uleb128 0x11
 22066 00bb 0D       		.uleb128 0xd
 22067 00bc 00       		.byte	0
 22068 00bd 03       		.uleb128 0x3
 22069 00be 0E       		.uleb128 0xe
 22070 00bf 3A       		.uleb128 0x3a
 22071 00c0 0B       		.uleb128 0xb
 22072 00c1 3B       		.uleb128 0x3b
 22073 00c2 0B       		.uleb128 0xb
 22074 00c3 49       		.uleb128 0x49
 22075 00c4 13       		.uleb128 0x13
 22076 00c5 00       		.byte	0
 22077 00c6 00       		.byte	0
 22078 00c7 12       		.uleb128 0x12
 22079 00c8 0D       		.uleb128 0xd
 22080 00c9 00       		.byte	0
 22081 00ca 03       		.uleb128 0x3
 22082 00cb 08       		.uleb128 0x8
 22083 00cc 3A       		.uleb128 0x3a
 22084 00cd 0B       		.uleb128 0xb
 22085 00ce 3B       		.uleb128 0x3b
 22086 00cf 0B       		.uleb128 0xb
 22087 00d0 49       		.uleb128 0x49
 22088 00d1 13       		.uleb128 0x13
 22089 00d2 00       		.byte	0
 22090 00d3 00       		.byte	0
 22091 00d4 13       		.uleb128 0x13
 22092 00d5 34       		.uleb128 0x34
 22093 00d6 00       		.byte	0
 22094 00d7 03       		.uleb128 0x3
 22095 00d8 0E       		.uleb128 0xe
 22096 00d9 3A       		.uleb128 0x3a
 22097 00da 0B       		.uleb128 0xb
 22098 00db 3B       		.uleb128 0x3b
 22099 00dc 0B       		.uleb128 0xb
 22100 00dd 49       		.uleb128 0x49
 22101 00de 13       		.uleb128 0x13
 22102 00df 02       		.uleb128 0x2
 22103 00e0 18       		.uleb128 0x18
 22104 00e1 00       		.byte	0
 22105 00e2 00       		.byte	0
 22106 00e3 14       		.uleb128 0x14
 22107 00e4 01       		.uleb128 0x1
 22108 00e5 01       		.byte	0x1
ARM GAS  C:\Users\PCHAUT~1\AppData\Local\Temp\ccacj52E.s 			page 390


 22109 00e6 49       		.uleb128 0x49
 22110 00e7 13       		.uleb128 0x13
 22111 00e8 01       		.uleb128 0x1
 22112 00e9 13       		.uleb128 0x13
 22113 00ea 00       		.byte	0
 22114 00eb 00       		.byte	0
 22115 00ec 15       		.uleb128 0x15
 22116 00ed 21       		.uleb128 0x21
 22117 00ee 00       		.byte	0
 22118 00ef 49       		.uleb128 0x49
 22119 00f0 13       		.uleb128 0x13
 22120 00f1 2F       		.uleb128 0x2f
 22121 00f2 0B       		.uleb128 0xb
 22122 00f3 00       		.byte	0
 22123 00f4 00       		.byte	0
 22124 00f5 16       		.uleb128 0x16
 22125 00f6 34       		.uleb128 0x34
 22126 00f7 00       		.byte	0
 22127 00f8 03       		.uleb128 0x3
 22128 00f9 0E       		.uleb128 0xe
 22129 00fa 3A       		.uleb128 0x3a
 22130 00fb 0B       		.uleb128 0xb
 22131 00fc 3B       		.uleb128 0x3b
 22132 00fd 0B       		.uleb128 0xb
 22133 00fe 49       		.uleb128 0x49
 22134 00ff 13       		.uleb128 0x13
 22135 0100 3F       		.uleb128 0x3f
 22136 0101 19       		.uleb128 0x19
 22137 0102 02       		.uleb128 0x2
 22138 0103 18       		.uleb128 0x18
 22139 0104 00       		.byte	0
 22140 0105 00       		.byte	0
 22141 0106 17       		.uleb128 0x17
 22142 0107 34       		.uleb128 0x34
 22143 0108 00       		.byte	0
 22144 0109 03       		.uleb128 0x3
 22145 010a 08       		.uleb128 0x8
 22146 010b 3A       		.uleb128 0x3a
 22147 010c 0B       		.uleb128 0xb
 22148 010d 3B       		.uleb128 0x3b
 22149 010e 0B       		.uleb128 0xb
 22150 010f 49       		.uleb128 0x49
 22151 0110 13       		.uleb128 0x13
 22152 0111 02       		.uleb128 0x2
 22153 0112 18       		.uleb128 0x18
 22154 0113 00       		.byte	0
 22155 0114 00       		.byte	0
 22156 0115 18       		.uleb128 0x18
 22157 0116 2E       		.uleb128 0x2e
 22158 0117 01       		.byte	0x1
 22159 0118 3F       		.uleb128 0x3f
 22160 0119 19       		.uleb128 0x19
 22161 011a 03       		.uleb128 0x3
 22162 011b 0E       		.uleb128 0xe
 22163 011c 3A       		.uleb128 0x3a
 22164 011d 0B       		.uleb128 0xb
 22165 011e 3B       		.uleb128 0x3b
ARM GAS  C:\Users\PCHAUT~1\AppData\Local\Temp\ccacj52E.s 			page 391


 22166 011f 05       		.uleb128 0x5
 22167 0120 27       		.uleb128 0x27
 22168 0121 19       		.uleb128 0x19
 22169 0122 49       		.uleb128 0x49
 22170 0123 13       		.uleb128 0x13
 22171 0124 11       		.uleb128 0x11
 22172 0125 01       		.uleb128 0x1
 22173 0126 12       		.uleb128 0x12
 22174 0127 06       		.uleb128 0x6
 22175 0128 40       		.uleb128 0x40
 22176 0129 18       		.uleb128 0x18
 22177 012a 9642     		.uleb128 0x2116
 22178 012c 19       		.uleb128 0x19
 22179 012d 01       		.uleb128 0x1
 22180 012e 13       		.uleb128 0x13
 22181 012f 00       		.byte	0
 22182 0130 00       		.byte	0
 22183 0131 19       		.uleb128 0x19
 22184 0132 05       		.uleb128 0x5
 22185 0133 00       		.byte	0
 22186 0134 03       		.uleb128 0x3
 22187 0135 08       		.uleb128 0x8
 22188 0136 3A       		.uleb128 0x3a
 22189 0137 0B       		.uleb128 0xb
 22190 0138 3B       		.uleb128 0x3b
 22191 0139 05       		.uleb128 0x5
 22192 013a 49       		.uleb128 0x49
 22193 013b 13       		.uleb128 0x13
 22194 013c 02       		.uleb128 0x2
 22195 013d 18       		.uleb128 0x18
 22196 013e 00       		.byte	0
 22197 013f 00       		.byte	0
 22198 0140 1A       		.uleb128 0x1a
 22199 0141 05       		.uleb128 0x5
 22200 0142 00       		.byte	0
 22201 0143 03       		.uleb128 0x3
 22202 0144 0E       		.uleb128 0xe
 22203 0145 3A       		.uleb128 0x3a
 22204 0146 0B       		.uleb128 0xb
 22205 0147 3B       		.uleb128 0x3b
 22206 0148 05       		.uleb128 0x5
 22207 0149 49       		.uleb128 0x49
 22208 014a 13       		.uleb128 0x13
 22209 014b 02       		.uleb128 0x2
 22210 014c 18       		.uleb128 0x18
 22211 014d 00       		.byte	0
 22212 014e 00       		.byte	0
 22213 014f 1B       		.uleb128 0x1b
 22214 0150 34       		.uleb128 0x34
 22215 0151 00       		.byte	0
 22216 0152 03       		.uleb128 0x3
 22217 0153 0E       		.uleb128 0xe
 22218 0154 3A       		.uleb128 0x3a
 22219 0155 0B       		.uleb128 0xb
 22220 0156 3B       		.uleb128 0x3b
 22221 0157 05       		.uleb128 0x5
 22222 0158 49       		.uleb128 0x49
ARM GAS  C:\Users\PCHAUT~1\AppData\Local\Temp\ccacj52E.s 			page 392


 22223 0159 13       		.uleb128 0x13
 22224 015a 02       		.uleb128 0x2
 22225 015b 18       		.uleb128 0x18
 22226 015c 00       		.byte	0
 22227 015d 00       		.byte	0
 22228 015e 1C       		.uleb128 0x1c
 22229 015f 0B       		.uleb128 0xb
 22230 0160 01       		.byte	0x1
 22231 0161 11       		.uleb128 0x11
 22232 0162 01       		.uleb128 0x1
 22233 0163 12       		.uleb128 0x12
 22234 0164 06       		.uleb128 0x6
 22235 0165 01       		.uleb128 0x1
 22236 0166 13       		.uleb128 0x13
 22237 0167 00       		.byte	0
 22238 0168 00       		.byte	0
 22239 0169 1D       		.uleb128 0x1d
 22240 016a 0B       		.uleb128 0xb
 22241 016b 01       		.byte	0x1
 22242 016c 11       		.uleb128 0x11
 22243 016d 01       		.uleb128 0x1
 22244 016e 12       		.uleb128 0x12
 22245 016f 06       		.uleb128 0x6
 22246 0170 00       		.byte	0
 22247 0171 00       		.byte	0
 22248 0172 1E       		.uleb128 0x1e
 22249 0173 34       		.uleb128 0x34
 22250 0174 00       		.byte	0
 22251 0175 03       		.uleb128 0x3
 22252 0176 08       		.uleb128 0x8
 22253 0177 3A       		.uleb128 0x3a
 22254 0178 0B       		.uleb128 0xb
 22255 0179 3B       		.uleb128 0x3b
 22256 017a 05       		.uleb128 0x5
 22257 017b 49       		.uleb128 0x49
 22258 017c 13       		.uleb128 0x13
 22259 017d 02       		.uleb128 0x2
 22260 017e 18       		.uleb128 0x18
 22261 017f 00       		.byte	0
 22262 0180 00       		.byte	0
 22263 0181 1F       		.uleb128 0x1f
 22264 0182 2E       		.uleb128 0x2e
 22265 0183 01       		.byte	0x1
 22266 0184 3F       		.uleb128 0x3f
 22267 0185 19       		.uleb128 0x19
 22268 0186 03       		.uleb128 0x3
 22269 0187 0E       		.uleb128 0xe
 22270 0188 3A       		.uleb128 0x3a
 22271 0189 0B       		.uleb128 0xb
 22272 018a 3B       		.uleb128 0x3b
 22273 018b 0B       		.uleb128 0xb
 22274 018c 27       		.uleb128 0x27
 22275 018d 19       		.uleb128 0x19
 22276 018e 49       		.uleb128 0x49
 22277 018f 13       		.uleb128 0x13
 22278 0190 11       		.uleb128 0x11
 22279 0191 01       		.uleb128 0x1
ARM GAS  C:\Users\PCHAUT~1\AppData\Local\Temp\ccacj52E.s 			page 393


 22280 0192 12       		.uleb128 0x12
 22281 0193 06       		.uleb128 0x6
 22282 0194 40       		.uleb128 0x40
 22283 0195 18       		.uleb128 0x18
 22284 0196 9642     		.uleb128 0x2116
 22285 0198 19       		.uleb128 0x19
 22286 0199 01       		.uleb128 0x1
 22287 019a 13       		.uleb128 0x13
 22288 019b 00       		.byte	0
 22289 019c 00       		.byte	0
 22290 019d 20       		.uleb128 0x20
 22291 019e 05       		.uleb128 0x5
 22292 019f 00       		.byte	0
 22293 01a0 03       		.uleb128 0x3
 22294 01a1 08       		.uleb128 0x8
 22295 01a2 3A       		.uleb128 0x3a
 22296 01a3 0B       		.uleb128 0xb
 22297 01a4 3B       		.uleb128 0x3b
 22298 01a5 0B       		.uleb128 0xb
 22299 01a6 49       		.uleb128 0x49
 22300 01a7 13       		.uleb128 0x13
 22301 01a8 02       		.uleb128 0x2
 22302 01a9 18       		.uleb128 0x18
 22303 01aa 00       		.byte	0
 22304 01ab 00       		.byte	0
 22305 01ac 21       		.uleb128 0x21
 22306 01ad 2E       		.uleb128 0x2e
 22307 01ae 00       		.byte	0
 22308 01af 3F       		.uleb128 0x3f
 22309 01b0 19       		.uleb128 0x19
 22310 01b1 03       		.uleb128 0x3
 22311 01b2 0E       		.uleb128 0xe
 22312 01b3 3A       		.uleb128 0x3a
 22313 01b4 0B       		.uleb128 0xb
 22314 01b5 3B       		.uleb128 0x3b
 22315 01b6 0B       		.uleb128 0xb
 22316 01b7 27       		.uleb128 0x27
 22317 01b8 19       		.uleb128 0x19
 22318 01b9 49       		.uleb128 0x49
 22319 01ba 13       		.uleb128 0x13
 22320 01bb 11       		.uleb128 0x11
 22321 01bc 01       		.uleb128 0x1
 22322 01bd 12       		.uleb128 0x12
 22323 01be 06       		.uleb128 0x6
 22324 01bf 40       		.uleb128 0x40
 22325 01c0 18       		.uleb128 0x18
 22326 01c1 9642     		.uleb128 0x2116
 22327 01c3 19       		.uleb128 0x19
 22328 01c4 00       		.byte	0
 22329 01c5 00       		.byte	0
 22330 01c6 22       		.uleb128 0x22
 22331 01c7 2E       		.uleb128 0x2e
 22332 01c8 01       		.byte	0x1
 22333 01c9 3F       		.uleb128 0x3f
 22334 01ca 19       		.uleb128 0x19
 22335 01cb 03       		.uleb128 0x3
 22336 01cc 0E       		.uleb128 0xe
ARM GAS  C:\Users\PCHAUT~1\AppData\Local\Temp\ccacj52E.s 			page 394


 22337 01cd 3A       		.uleb128 0x3a
 22338 01ce 0B       		.uleb128 0xb
 22339 01cf 3B       		.uleb128 0x3b
 22340 01d0 0B       		.uleb128 0xb
 22341 01d1 27       		.uleb128 0x27
 22342 01d2 19       		.uleb128 0x19
 22343 01d3 11       		.uleb128 0x11
 22344 01d4 01       		.uleb128 0x1
 22345 01d5 12       		.uleb128 0x12
 22346 01d6 06       		.uleb128 0x6
 22347 01d7 40       		.uleb128 0x40
 22348 01d8 18       		.uleb128 0x18
 22349 01d9 9642     		.uleb128 0x2116
 22350 01db 19       		.uleb128 0x19
 22351 01dc 01       		.uleb128 0x1
 22352 01dd 13       		.uleb128 0x13
 22353 01de 00       		.byte	0
 22354 01df 00       		.byte	0
 22355 01e0 23       		.uleb128 0x23
 22356 01e1 05       		.uleb128 0x5
 22357 01e2 00       		.byte	0
 22358 01e3 03       		.uleb128 0x3
 22359 01e4 0E       		.uleb128 0xe
 22360 01e5 3A       		.uleb128 0x3a
 22361 01e6 0B       		.uleb128 0xb
 22362 01e7 3B       		.uleb128 0x3b
 22363 01e8 0B       		.uleb128 0xb
 22364 01e9 49       		.uleb128 0x49
 22365 01ea 13       		.uleb128 0x13
 22366 01eb 02       		.uleb128 0x2
 22367 01ec 18       		.uleb128 0x18
 22368 01ed 00       		.byte	0
 22369 01ee 00       		.byte	0
 22370 01ef 24       		.uleb128 0x24
 22371 01f0 2E       		.uleb128 0x2e
 22372 01f1 01       		.byte	0x1
 22373 01f2 03       		.uleb128 0x3
 22374 01f3 0E       		.uleb128 0xe
 22375 01f4 3A       		.uleb128 0x3a
 22376 01f5 0B       		.uleb128 0xb
 22377 01f6 3B       		.uleb128 0x3b
 22378 01f7 0B       		.uleb128 0xb
 22379 01f8 27       		.uleb128 0x27
 22380 01f9 19       		.uleb128 0x19
 22381 01fa 49       		.uleb128 0x49
 22382 01fb 13       		.uleb128 0x13
 22383 01fc 11       		.uleb128 0x11
 22384 01fd 01       		.uleb128 0x1
 22385 01fe 12       		.uleb128 0x12
 22386 01ff 06       		.uleb128 0x6
 22387 0200 40       		.uleb128 0x40
 22388 0201 18       		.uleb128 0x18
 22389 0202 9642     		.uleb128 0x2116
 22390 0204 19       		.uleb128 0x19
 22391 0205 01       		.uleb128 0x1
 22392 0206 13       		.uleb128 0x13
 22393 0207 00       		.byte	0
ARM GAS  C:\Users\PCHAUT~1\AppData\Local\Temp\ccacj52E.s 			page 395


 22394 0208 00       		.byte	0
 22395 0209 25       		.uleb128 0x25
 22396 020a 2E       		.uleb128 0x2e
 22397 020b 01       		.byte	0x1
 22398 020c 03       		.uleb128 0x3
 22399 020d 0E       		.uleb128 0xe
 22400 020e 3A       		.uleb128 0x3a
 22401 020f 0B       		.uleb128 0xb
 22402 0210 3B       		.uleb128 0x3b
 22403 0211 0B       		.uleb128 0xb
 22404 0212 27       		.uleb128 0x27
 22405 0213 19       		.uleb128 0x19
 22406 0214 49       		.uleb128 0x49
 22407 0215 13       		.uleb128 0x13
 22408 0216 11       		.uleb128 0x11
 22409 0217 01       		.uleb128 0x1
 22410 0218 12       		.uleb128 0x12
 22411 0219 06       		.uleb128 0x6
 22412 021a 40       		.uleb128 0x40
 22413 021b 18       		.uleb128 0x18
 22414 021c 9642     		.uleb128 0x2116
 22415 021e 19       		.uleb128 0x19
 22416 021f 00       		.byte	0
 22417 0220 00       		.byte	0
 22418 0221 00       		.byte	0
 22419              		.section	.debug_aranges,"",%progbits
 22420 0000 5C050000 		.4byte	0x55c
 22421 0004 0200     		.2byte	0x2
 22422 0006 00000000 		.4byte	.Ldebug_info0
 22423 000a 04       		.byte	0x4
 22424 000b 00       		.byte	0
 22425 000c 0000     		.2byte	0
 22426 000e 0000     		.2byte	0
 22427 0010 00000000 		.4byte	.LFB0
 22428 0014 60000000 		.4byte	.LFE0-.LFB0
 22429 0018 00000000 		.4byte	.LFB1
 22430 001c 74000000 		.4byte	.LFE1-.LFB1
 22431 0020 00000000 		.4byte	.LFB2
 22432 0024 B0000000 		.4byte	.LFE2-.LFB2
 22433 0028 00000000 		.4byte	.LFB3
 22434 002c 7C000000 		.4byte	.LFE3-.LFB3
 22435 0030 00000000 		.4byte	.LFB4
 22436 0034 B8000000 		.4byte	.LFE4-.LFB4
 22437 0038 00000000 		.4byte	.LFB5
 22438 003c 38000000 		.4byte	.LFE5-.LFB5
 22439 0040 00000000 		.4byte	.LFB6
 22440 0044 48000000 		.4byte	.LFE6-.LFB6
 22441 0048 00000000 		.4byte	.LFB7
 22442 004c 44000000 		.4byte	.LFE7-.LFB7
 22443 0050 00000000 		.4byte	.LFB8
 22444 0054 4C000000 		.4byte	.LFE8-.LFB8
 22445 0058 00000000 		.4byte	.LFB9
 22446 005c 4C000000 		.4byte	.LFE9-.LFB9
 22447 0060 00000000 		.4byte	.LFB10
 22448 0064 44000000 		.4byte	.LFE10-.LFB10
 22449 0068 00000000 		.4byte	.LFB11
 22450 006c 28000000 		.4byte	.LFE11-.LFB11
ARM GAS  C:\Users\PCHAUT~1\AppData\Local\Temp\ccacj52E.s 			page 396


 22451 0070 00000000 		.4byte	.LFB12
 22452 0074 28000000 		.4byte	.LFE12-.LFB12
 22453 0078 00000000 		.4byte	.LFB13
 22454 007c 50000000 		.4byte	.LFE13-.LFB13
 22455 0080 00000000 		.4byte	.LFB14
 22456 0084 4C000000 		.4byte	.LFE14-.LFB14
 22457 0088 00000000 		.4byte	.LFB15
 22458 008c 58000000 		.4byte	.LFE15-.LFB15
 22459 0090 00000000 		.4byte	.LFB16
 22460 0094 70000000 		.4byte	.LFE16-.LFB16
 22461 0098 00000000 		.4byte	.LFB17
 22462 009c 60000000 		.4byte	.LFE17-.LFB17
 22463 00a0 00000000 		.4byte	.LFB18
 22464 00a4 74000000 		.4byte	.LFE18-.LFB18
 22465 00a8 00000000 		.4byte	.LFB19
 22466 00ac 64000000 		.4byte	.LFE19-.LFB19
 22467 00b0 00000000 		.4byte	.LFB20
 22468 00b4 6C000000 		.4byte	.LFE20-.LFB20
 22469 00b8 00000000 		.4byte	.LFB21
 22470 00bc DC000000 		.4byte	.LFE21-.LFB21
 22471 00c0 00000000 		.4byte	.LFB22
 22472 00c4 3C000000 		.4byte	.LFE22-.LFB22
 22473 00c8 00000000 		.4byte	.LFB23
 22474 00cc 60000000 		.4byte	.LFE23-.LFB23
 22475 00d0 00000000 		.4byte	.LFB24
 22476 00d4 70000000 		.4byte	.LFE24-.LFB24
 22477 00d8 00000000 		.4byte	.LFB25
 22478 00dc 64000000 		.4byte	.LFE25-.LFB25
 22479 00e0 00000000 		.4byte	.LFB26
 22480 00e4 6C000000 		.4byte	.LFE26-.LFB26
 22481 00e8 00000000 		.4byte	.LFB27
 22482 00ec AC000000 		.4byte	.LFE27-.LFB27
 22483 00f0 00000000 		.4byte	.LFB28
 22484 00f4 70000000 		.4byte	.LFE28-.LFB28
 22485 00f8 00000000 		.4byte	.LFB29
 22486 00fc 78000000 		.4byte	.LFE29-.LFB29
 22487 0100 00000000 		.4byte	.LFB30
 22488 0104 30000000 		.4byte	.LFE30-.LFB30
 22489 0108 00000000 		.4byte	.LFB31
 22490 010c 30000000 		.4byte	.LFE31-.LFB31
 22491 0110 00000000 		.4byte	.LFB32
 22492 0114 30000000 		.4byte	.LFE32-.LFB32
 22493 0118 00000000 		.4byte	.LFB33
 22494 011c 48000000 		.4byte	.LFE33-.LFB33
 22495 0120 00000000 		.4byte	.LFB34
 22496 0124 48000000 		.4byte	.LFE34-.LFB34
 22497 0128 00000000 		.4byte	.LFB35
 22498 012c 54000000 		.4byte	.LFE35-.LFB35
 22499 0130 00000000 		.4byte	.LFB36
 22500 0134 78000000 		.4byte	.LFE36-.LFB36
 22501 0138 00000000 		.4byte	.LFB37
 22502 013c 64000000 		.4byte	.LFE37-.LFB37
 22503 0140 00000000 		.4byte	.LFB38
 22504 0144 78000000 		.4byte	.LFE38-.LFB38
 22505 0148 00000000 		.4byte	.LFB39
 22506 014c 74000000 		.4byte	.LFE39-.LFB39
 22507 0150 00000000 		.4byte	.LFB40
ARM GAS  C:\Users\PCHAUT~1\AppData\Local\Temp\ccacj52E.s 			page 397


 22508 0154 78000000 		.4byte	.LFE40-.LFB40
 22509 0158 00000000 		.4byte	.LFB41
 22510 015c 6C000000 		.4byte	.LFE41-.LFB41
 22511 0160 00000000 		.4byte	.LFB42
 22512 0164 6C000000 		.4byte	.LFE42-.LFB42
 22513 0168 00000000 		.4byte	.LFB43
 22514 016c 78000000 		.4byte	.LFE43-.LFB43
 22515 0170 00000000 		.4byte	.LFB44
 22516 0174 80000000 		.4byte	.LFE44-.LFB44
 22517 0178 00000000 		.4byte	.LFB45
 22518 017c 64000000 		.4byte	.LFE45-.LFB45
 22519 0180 00000000 		.4byte	.LFB46
 22520 0184 78000000 		.4byte	.LFE46-.LFB46
 22521 0188 00000000 		.4byte	.LFB47
 22522 018c 74000000 		.4byte	.LFE47-.LFB47
 22523 0190 00000000 		.4byte	.LFB48
 22524 0194 78000000 		.4byte	.LFE48-.LFB48
 22525 0198 00000000 		.4byte	.LFB49
 22526 019c 6C000000 		.4byte	.LFE49-.LFB49
 22527 01a0 00000000 		.4byte	.LFB50
 22528 01a4 6C000000 		.4byte	.LFE50-.LFB50
 22529 01a8 00000000 		.4byte	.LFB51
 22530 01ac 60000000 		.4byte	.LFE51-.LFB51
 22531 01b0 00000000 		.4byte	.LFB52
 22532 01b4 68000000 		.4byte	.LFE52-.LFB52
 22533 01b8 00000000 		.4byte	.LFB53
 22534 01bc 54000000 		.4byte	.LFE53-.LFB53
 22535 01c0 00000000 		.4byte	.LFB54
 22536 01c4 74000000 		.4byte	.LFE54-.LFB54
 22537 01c8 00000000 		.4byte	.LFB55
 22538 01cc 6C000000 		.4byte	.LFE55-.LFB55
 22539 01d0 00000000 		.4byte	.LFB56
 22540 01d4 60000000 		.4byte	.LFE56-.LFB56
 22541 01d8 00000000 		.4byte	.LFB57
 22542 01dc 54000000 		.4byte	.LFE57-.LFB57
 22543 01e0 00000000 		.4byte	.LFB58
 22544 01e4 74000000 		.4byte	.LFE58-.LFB58
 22545 01e8 00000000 		.4byte	.LFB59
 22546 01ec 6C000000 		.4byte	.LFE59-.LFB59
 22547 01f0 00000000 		.4byte	.LFB60
 22548 01f4 60000000 		.4byte	.LFE60-.LFB60
 22549 01f8 00000000 		.4byte	.LFB61
 22550 01fc 64000000 		.4byte	.LFE61-.LFB61
 22551 0200 00000000 		.4byte	.LFB62
 22552 0204 68000000 		.4byte	.LFE62-.LFB62
 22553 0208 00000000 		.4byte	.LFB63
 22554 020c 64000000 		.4byte	.LFE63-.LFB63
 22555 0210 00000000 		.4byte	.LFB64
 22556 0214 68000000 		.4byte	.LFE64-.LFB64
 22557 0218 00000000 		.4byte	.LFB65
 22558 021c 64000000 		.4byte	.LFE65-.LFB65
 22559 0220 00000000 		.4byte	.LFB66
 22560 0224 68000000 		.4byte	.LFE66-.LFB66
 22561 0228 00000000 		.4byte	.LFB67
 22562 022c 64000000 		.4byte	.LFE67-.LFB67
 22563 0230 00000000 		.4byte	.LFB68
 22564 0234 68000000 		.4byte	.LFE68-.LFB68
ARM GAS  C:\Users\PCHAUT~1\AppData\Local\Temp\ccacj52E.s 			page 398


 22565 0238 00000000 		.4byte	.LFB69
 22566 023c 64000000 		.4byte	.LFE69-.LFB69
 22567 0240 00000000 		.4byte	.LFB70
 22568 0244 68000000 		.4byte	.LFE70-.LFB70
 22569 0248 00000000 		.4byte	.LFB71
 22570 024c 88000000 		.4byte	.LFE71-.LFB71
 22571 0250 00000000 		.4byte	.LFB72
 22572 0254 74000000 		.4byte	.LFE72-.LFB72
 22573 0258 00000000 		.4byte	.LFB73
 22574 025c 98000000 		.4byte	.LFE73-.LFB73
 22575 0260 00000000 		.4byte	.LFB74
 22576 0264 74000000 		.4byte	.LFE74-.LFB74
 22577 0268 00000000 		.4byte	.LFB75
 22578 026c 90000000 		.4byte	.LFE75-.LFB75
 22579 0270 00000000 		.4byte	.LFB76
 22580 0274 6C000000 		.4byte	.LFE76-.LFB76
 22581 0278 00000000 		.4byte	.LFB77
 22582 027c E4000000 		.4byte	.LFE77-.LFB77
 22583 0280 00000000 		.4byte	.LFB78
 22584 0284 F0000000 		.4byte	.LFE78-.LFB78
 22585 0288 00000000 		.4byte	.LFB79
 22586 028c 54030000 		.4byte	.LFE79-.LFB79
 22587 0290 00000000 		.4byte	.LFB80
 22588 0294 60000000 		.4byte	.LFE80-.LFB80
 22589 0298 00000000 		.4byte	.LFB81
 22590 029c 60000000 		.4byte	.LFE81-.LFB81
 22591 02a0 00000000 		.4byte	.LFB82
 22592 02a4 64000000 		.4byte	.LFE82-.LFB82
 22593 02a8 00000000 		.4byte	.LFB83
 22594 02ac 60000000 		.4byte	.LFE83-.LFB83
 22595 02b0 00000000 		.4byte	.LFB84
 22596 02b4 60000000 		.4byte	.LFE84-.LFB84
 22597 02b8 00000000 		.4byte	.LFB85
 22598 02bc 5C000000 		.4byte	.LFE85-.LFB85
 22599 02c0 00000000 		.4byte	.LFB86
 22600 02c4 60000000 		.4byte	.LFE86-.LFB86
 22601 02c8 00000000 		.4byte	.LFB87
 22602 02cc 0C010000 		.4byte	.LFE87-.LFB87
 22603 02d0 00000000 		.4byte	.LFB88
 22604 02d4 28010000 		.4byte	.LFE88-.LFB88
 22605 02d8 00000000 		.4byte	.LFB89
 22606 02dc 3C010000 		.4byte	.LFE89-.LFB89
 22607 02e0 00000000 		.4byte	.LFB90
 22608 02e4 7C010000 		.4byte	.LFE90-.LFB90
 22609 02e8 00000000 		.4byte	.LFB91
 22610 02ec 34000000 		.4byte	.LFE91-.LFB91
 22611 02f0 00000000 		.4byte	.LFB92
 22612 02f4 60000000 		.4byte	.LFE92-.LFB92
 22613 02f8 00000000 		.4byte	.LFB93
 22614 02fc 60000000 		.4byte	.LFE93-.LFB93
 22615 0300 00000000 		.4byte	.LFB94
 22616 0304 60000000 		.4byte	.LFE94-.LFB94
 22617 0308 00000000 		.4byte	.LFB95
 22618 030c 5C000000 		.4byte	.LFE95-.LFB95
 22619 0310 00000000 		.4byte	.LFB96
 22620 0314 60000000 		.4byte	.LFE96-.LFB96
 22621 0318 00000000 		.4byte	.LFB97
ARM GAS  C:\Users\PCHAUT~1\AppData\Local\Temp\ccacj52E.s 			page 399


 22622 031c 64000000 		.4byte	.LFE97-.LFB97
 22623 0320 00000000 		.4byte	.LFB98
 22624 0324 74000000 		.4byte	.LFE98-.LFB98
 22625 0328 00000000 		.4byte	.LFB99
 22626 032c C4000000 		.4byte	.LFE99-.LFB99
 22627 0330 00000000 		.4byte	.LFB100
 22628 0334 E8000000 		.4byte	.LFE100-.LFB100
 22629 0338 00000000 		.4byte	.LFB101
 22630 033c 34000000 		.4byte	.LFE101-.LFB101
 22631 0340 00000000 		.4byte	.LFB102
 22632 0344 78000000 		.4byte	.LFE102-.LFB102
 22633 0348 00000000 		.4byte	.LFB103
 22634 034c 7C000000 		.4byte	.LFE103-.LFB103
 22635 0350 00000000 		.4byte	.LFB104
 22636 0354 54000000 		.4byte	.LFE104-.LFB104
 22637 0358 00000000 		.4byte	.LFB105
 22638 035c 6C000000 		.4byte	.LFE105-.LFB105
 22639 0360 00000000 		.4byte	.LFB106
 22640 0364 6C000000 		.4byte	.LFE106-.LFB106
 22641 0368 00000000 		.4byte	.LFB107
 22642 036c 68000000 		.4byte	.LFE107-.LFB107
 22643 0370 00000000 		.4byte	.LFB108
 22644 0374 98000000 		.4byte	.LFE108-.LFB108
 22645 0378 00000000 		.4byte	.LFB109
 22646 037c 60000000 		.4byte	.LFE109-.LFB109
 22647 0380 00000000 		.4byte	.LFB110
 22648 0384 88000000 		.4byte	.LFE110-.LFB110
 22649 0388 00000000 		.4byte	.LFB111
 22650 038c 68000000 		.4byte	.LFE111-.LFB111
 22651 0390 00000000 		.4byte	.LFB112
 22652 0394 68000000 		.4byte	.LFE112-.LFB112
 22653 0398 00000000 		.4byte	.LFB113
 22654 039c 60000000 		.4byte	.LFE113-.LFB113
 22655 03a0 00000000 		.4byte	.LFB114
 22656 03a4 60000000 		.4byte	.LFE114-.LFB114
 22657 03a8 00000000 		.4byte	.LFB115
 22658 03ac 60000000 		.4byte	.LFE115-.LFB115
 22659 03b0 00000000 		.4byte	.LFB116
 22660 03b4 60000000 		.4byte	.LFE116-.LFB116
 22661 03b8 00000000 		.4byte	.LFB117
 22662 03bc 60000000 		.4byte	.LFE117-.LFB117
 22663 03c0 00000000 		.4byte	.LFB118
 22664 03c4 60000000 		.4byte	.LFE118-.LFB118
 22665 03c8 00000000 		.4byte	.LFB119
 22666 03cc 60000000 		.4byte	.LFE119-.LFB119
 22667 03d0 00000000 		.4byte	.LFB120
 22668 03d4 60000000 		.4byte	.LFE120-.LFB120
 22669 03d8 00000000 		.4byte	.LFB121
 22670 03dc 60000000 		.4byte	.LFE121-.LFB121
 22671 03e0 00000000 		.4byte	.LFB122
 22672 03e4 60000000 		.4byte	.LFE122-.LFB122
 22673 03e8 00000000 		.4byte	.LFB123
 22674 03ec 68000000 		.4byte	.LFE123-.LFB123
 22675 03f0 00000000 		.4byte	.LFB124
 22676 03f4 68000000 		.4byte	.LFE124-.LFB124
 22677 03f8 00000000 		.4byte	.LFB125
 22678 03fc 68000000 		.4byte	.LFE125-.LFB125
ARM GAS  C:\Users\PCHAUT~1\AppData\Local\Temp\ccacj52E.s 			page 400


 22679 0400 00000000 		.4byte	.LFB126
 22680 0404 68000000 		.4byte	.LFE126-.LFB126
 22681 0408 00000000 		.4byte	.LFB127
 22682 040c 68000000 		.4byte	.LFE127-.LFB127
 22683 0410 00000000 		.4byte	.LFB128
 22684 0414 68000000 		.4byte	.LFE128-.LFB128
 22685 0418 00000000 		.4byte	.LFB129
 22686 041c B8000000 		.4byte	.LFE129-.LFB129
 22687 0420 00000000 		.4byte	.LFB130
 22688 0424 68000000 		.4byte	.LFE130-.LFB130
 22689 0428 00000000 		.4byte	.LFB131
 22690 042c 2C090000 		.4byte	.LFE131-.LFB131
 22691 0430 00000000 		.4byte	.LFB132
 22692 0434 38000000 		.4byte	.LFE132-.LFB132
 22693 0438 00000000 		.4byte	.LFB133
 22694 043c 3C000000 		.4byte	.LFE133-.LFB133
 22695 0440 00000000 		.4byte	.LFB134
 22696 0444 3C000000 		.4byte	.LFE134-.LFB134
 22697 0448 00000000 		.4byte	.LFB135
 22698 044c 3C000000 		.4byte	.LFE135-.LFB135
 22699 0450 00000000 		.4byte	.LFB136
 22700 0454 30000000 		.4byte	.LFE136-.LFB136
 22701 0458 00000000 		.4byte	.LFB137
 22702 045c 38000000 		.4byte	.LFE137-.LFB137
 22703 0460 00000000 		.4byte	.LFB138
 22704 0464 40000000 		.4byte	.LFE138-.LFB138
 22705 0468 00000000 		.4byte	.LFB139
 22706 046c 40000000 		.4byte	.LFE139-.LFB139
 22707 0470 00000000 		.4byte	.LFB140
 22708 0474 40000000 		.4byte	.LFE140-.LFB140
 22709 0478 00000000 		.4byte	.LFB141
 22710 047c 30000000 		.4byte	.LFE141-.LFB141
 22711 0480 00000000 		.4byte	.LFB142
 22712 0484 34000000 		.4byte	.LFE142-.LFB142
 22713 0488 00000000 		.4byte	.LFB143
 22714 048c 34000000 		.4byte	.LFE143-.LFB143
 22715 0490 00000000 		.4byte	.LFB144
 22716 0494 34000000 		.4byte	.LFE144-.LFB144
 22717 0498 00000000 		.4byte	.LFB145
 22718 049c 34000000 		.4byte	.LFE145-.LFB145
 22719 04a0 00000000 		.4byte	.LFB146
 22720 04a4 40000000 		.4byte	.LFE146-.LFB146
 22721 04a8 00000000 		.4byte	.LFB147
 22722 04ac 38000000 		.4byte	.LFE147-.LFB147
 22723 04b0 00000000 		.4byte	.LFB148
 22724 04b4 40000000 		.4byte	.LFE148-.LFB148
 22725 04b8 00000000 		.4byte	.LFB149
 22726 04bc 40000000 		.4byte	.LFE149-.LFB149
 22727 04c0 00000000 		.4byte	.LFB150
 22728 04c4 84000000 		.4byte	.LFE150-.LFB150
 22729 04c8 00000000 		.4byte	.LFB151
 22730 04cc EC000000 		.4byte	.LFE151-.LFB151
 22731 04d0 00000000 		.4byte	.LFB152
 22732 04d4 08010000 		.4byte	.LFE152-.LFB152
 22733 04d8 00000000 		.4byte	.LFB153
 22734 04dc 24010000 		.4byte	.LFE153-.LFB153
 22735 04e0 00000000 		.4byte	.LFB154
ARM GAS  C:\Users\PCHAUT~1\AppData\Local\Temp\ccacj52E.s 			page 401


 22736 04e4 6C010000 		.4byte	.LFE154-.LFB154
 22737 04e8 00000000 		.4byte	.LFB155
 22738 04ec 34000000 		.4byte	.LFE155-.LFB155
 22739 04f0 00000000 		.4byte	.LFB156
 22740 04f4 44000000 		.4byte	.LFE156-.LFB156
 22741 04f8 00000000 		.4byte	.LFB157
 22742 04fc 54000000 		.4byte	.LFE157-.LFB157
 22743 0500 00000000 		.4byte	.LFB158
 22744 0504 A4000000 		.4byte	.LFE158-.LFB158
 22745 0508 00000000 		.4byte	.LFB159
 22746 050c C8000000 		.4byte	.LFE159-.LFB159
 22747 0510 00000000 		.4byte	.LFB160
 22748 0514 34000000 		.4byte	.LFE160-.LFB160
 22749 0518 00000000 		.4byte	.LFB161
 22750 051c 40000000 		.4byte	.LFE161-.LFB161
 22751 0520 00000000 		.4byte	.LFB162
 22752 0524 40000000 		.4byte	.LFE162-.LFB162
 22753 0528 00000000 		.4byte	.LFB163
 22754 052c 4C000000 		.4byte	.LFE163-.LFB163
 22755 0530 00000000 		.4byte	.LFB164
 22756 0534 48000000 		.4byte	.LFE164-.LFB164
 22757 0538 00000000 		.4byte	.LFB165
 22758 053c 40000000 		.4byte	.LFE165-.LFB165
 22759 0540 00000000 		.4byte	.LFB166
 22760 0544 48000000 		.4byte	.LFE166-.LFB166
 22761 0548 00000000 		.4byte	.LFB167
 22762 054c 48000000 		.4byte	.LFE167-.LFB167
 22763 0550 00000000 		.4byte	.LFB168
 22764 0554 9C000000 		.4byte	.LFE168-.LFB168
 22765 0558 00000000 		.4byte	0
 22766 055c 00000000 		.4byte	0
 22767              		.section	.debug_ranges,"",%progbits
 22768              	.Ldebug_ranges0:
 22769 0000 00000000 		.4byte	.LFB0
 22770 0004 60000000 		.4byte	.LFE0
 22771 0008 00000000 		.4byte	.LFB1
 22772 000c 74000000 		.4byte	.LFE1
 22773 0010 00000000 		.4byte	.LFB2
 22774 0014 B0000000 		.4byte	.LFE2
 22775 0018 00000000 		.4byte	.LFB3
 22776 001c 7C000000 		.4byte	.LFE3
 22777 0020 00000000 		.4byte	.LFB4
 22778 0024 B8000000 		.4byte	.LFE4
 22779 0028 00000000 		.4byte	.LFB5
 22780 002c 38000000 		.4byte	.LFE5
 22781 0030 00000000 		.4byte	.LFB6
 22782 0034 48000000 		.4byte	.LFE6
 22783 0038 00000000 		.4byte	.LFB7
 22784 003c 44000000 		.4byte	.LFE7
 22785 0040 00000000 		.4byte	.LFB8
 22786 0044 4C000000 		.4byte	.LFE8
 22787 0048 00000000 		.4byte	.LFB9
 22788 004c 4C000000 		.4byte	.LFE9
 22789 0050 00000000 		.4byte	.LFB10
 22790 0054 44000000 		.4byte	.LFE10
 22791 0058 00000000 		.4byte	.LFB11
 22792 005c 28000000 		.4byte	.LFE11
ARM GAS  C:\Users\PCHAUT~1\AppData\Local\Temp\ccacj52E.s 			page 402


 22793 0060 00000000 		.4byte	.LFB12
 22794 0064 28000000 		.4byte	.LFE12
 22795 0068 00000000 		.4byte	.LFB13
 22796 006c 50000000 		.4byte	.LFE13
 22797 0070 00000000 		.4byte	.LFB14
 22798 0074 4C000000 		.4byte	.LFE14
 22799 0078 00000000 		.4byte	.LFB15
 22800 007c 58000000 		.4byte	.LFE15
 22801 0080 00000000 		.4byte	.LFB16
 22802 0084 70000000 		.4byte	.LFE16
 22803 0088 00000000 		.4byte	.LFB17
 22804 008c 60000000 		.4byte	.LFE17
 22805 0090 00000000 		.4byte	.LFB18
 22806 0094 74000000 		.4byte	.LFE18
 22807 0098 00000000 		.4byte	.LFB19
 22808 009c 64000000 		.4byte	.LFE19
 22809 00a0 00000000 		.4byte	.LFB20
 22810 00a4 6C000000 		.4byte	.LFE20
 22811 00a8 00000000 		.4byte	.LFB21
 22812 00ac DC000000 		.4byte	.LFE21
 22813 00b0 00000000 		.4byte	.LFB22
 22814 00b4 3C000000 		.4byte	.LFE22
 22815 00b8 00000000 		.4byte	.LFB23
 22816 00bc 60000000 		.4byte	.LFE23
 22817 00c0 00000000 		.4byte	.LFB24
 22818 00c4 70000000 		.4byte	.LFE24
 22819 00c8 00000000 		.4byte	.LFB25
 22820 00cc 64000000 		.4byte	.LFE25
 22821 00d0 00000000 		.4byte	.LFB26
 22822 00d4 6C000000 		.4byte	.LFE26
 22823 00d8 00000000 		.4byte	.LFB27
 22824 00dc AC000000 		.4byte	.LFE27
 22825 00e0 00000000 		.4byte	.LFB28
 22826 00e4 70000000 		.4byte	.LFE28
 22827 00e8 00000000 		.4byte	.LFB29
 22828 00ec 78000000 		.4byte	.LFE29
 22829 00f0 00000000 		.4byte	.LFB30
 22830 00f4 30000000 		.4byte	.LFE30
 22831 00f8 00000000 		.4byte	.LFB31
 22832 00fc 30000000 		.4byte	.LFE31
 22833 0100 00000000 		.4byte	.LFB32
 22834 0104 30000000 		.4byte	.LFE32
 22835 0108 00000000 		.4byte	.LFB33
 22836 010c 48000000 		.4byte	.LFE33
 22837 0110 00000000 		.4byte	.LFB34
 22838 0114 48000000 		.4byte	.LFE34
 22839 0118 00000000 		.4byte	.LFB35
 22840 011c 54000000 		.4byte	.LFE35
 22841 0120 00000000 		.4byte	.LFB36
 22842 0124 78000000 		.4byte	.LFE36
 22843 0128 00000000 		.4byte	.LFB37
 22844 012c 64000000 		.4byte	.LFE37
 22845 0130 00000000 		.4byte	.LFB38
 22846 0134 78000000 		.4byte	.LFE38
 22847 0138 00000000 		.4byte	.LFB39
 22848 013c 74000000 		.4byte	.LFE39
 22849 0140 00000000 		.4byte	.LFB40
ARM GAS  C:\Users\PCHAUT~1\AppData\Local\Temp\ccacj52E.s 			page 403


 22850 0144 78000000 		.4byte	.LFE40
 22851 0148 00000000 		.4byte	.LFB41
 22852 014c 6C000000 		.4byte	.LFE41
 22853 0150 00000000 		.4byte	.LFB42
 22854 0154 6C000000 		.4byte	.LFE42
 22855 0158 00000000 		.4byte	.LFB43
 22856 015c 78000000 		.4byte	.LFE43
 22857 0160 00000000 		.4byte	.LFB44
 22858 0164 80000000 		.4byte	.LFE44
 22859 0168 00000000 		.4byte	.LFB45
 22860 016c 64000000 		.4byte	.LFE45
 22861 0170 00000000 		.4byte	.LFB46
 22862 0174 78000000 		.4byte	.LFE46
 22863 0178 00000000 		.4byte	.LFB47
 22864 017c 74000000 		.4byte	.LFE47
 22865 0180 00000000 		.4byte	.LFB48
 22866 0184 78000000 		.4byte	.LFE48
 22867 0188 00000000 		.4byte	.LFB49
 22868 018c 6C000000 		.4byte	.LFE49
 22869 0190 00000000 		.4byte	.LFB50
 22870 0194 6C000000 		.4byte	.LFE50
 22871 0198 00000000 		.4byte	.LFB51
 22872 019c 60000000 		.4byte	.LFE51
 22873 01a0 00000000 		.4byte	.LFB52
 22874 01a4 68000000 		.4byte	.LFE52
 22875 01a8 00000000 		.4byte	.LFB53
 22876 01ac 54000000 		.4byte	.LFE53
 22877 01b0 00000000 		.4byte	.LFB54
 22878 01b4 74000000 		.4byte	.LFE54
 22879 01b8 00000000 		.4byte	.LFB55
 22880 01bc 6C000000 		.4byte	.LFE55
 22881 01c0 00000000 		.4byte	.LFB56
 22882 01c4 60000000 		.4byte	.LFE56
 22883 01c8 00000000 		.4byte	.LFB57
 22884 01cc 54000000 		.4byte	.LFE57
 22885 01d0 00000000 		.4byte	.LFB58
 22886 01d4 74000000 		.4byte	.LFE58
 22887 01d8 00000000 		.4byte	.LFB59
 22888 01dc 6C000000 		.4byte	.LFE59
 22889 01e0 00000000 		.4byte	.LFB60
 22890 01e4 60000000 		.4byte	.LFE60
 22891 01e8 00000000 		.4byte	.LFB61
 22892 01ec 64000000 		.4byte	.LFE61
 22893 01f0 00000000 		.4byte	.LFB62
 22894 01f4 68000000 		.4byte	.LFE62
 22895 01f8 00000000 		.4byte	.LFB63
 22896 01fc 64000000 		.4byte	.LFE63
 22897 0200 00000000 		.4byte	.LFB64
 22898 0204 68000000 		.4byte	.LFE64
 22899 0208 00000000 		.4byte	.LFB65
 22900 020c 64000000 		.4byte	.LFE65
 22901 0210 00000000 		.4byte	.LFB66
 22902 0214 68000000 		.4byte	.LFE66
 22903 0218 00000000 		.4byte	.LFB67
 22904 021c 64000000 		.4byte	.LFE67
 22905 0220 00000000 		.4byte	.LFB68
 22906 0224 68000000 		.4byte	.LFE68
ARM GAS  C:\Users\PCHAUT~1\AppData\Local\Temp\ccacj52E.s 			page 404


 22907 0228 00000000 		.4byte	.LFB69
 22908 022c 64000000 		.4byte	.LFE69
 22909 0230 00000000 		.4byte	.LFB70
 22910 0234 68000000 		.4byte	.LFE70
 22911 0238 00000000 		.4byte	.LFB71
 22912 023c 88000000 		.4byte	.LFE71
 22913 0240 00000000 		.4byte	.LFB72
 22914 0244 74000000 		.4byte	.LFE72
 22915 0248 00000000 		.4byte	.LFB73
 22916 024c 98000000 		.4byte	.LFE73
 22917 0250 00000000 		.4byte	.LFB74
 22918 0254 74000000 		.4byte	.LFE74
 22919 0258 00000000 		.4byte	.LFB75
 22920 025c 90000000 		.4byte	.LFE75
 22921 0260 00000000 		.4byte	.LFB76
 22922 0264 6C000000 		.4byte	.LFE76
 22923 0268 00000000 		.4byte	.LFB77
 22924 026c E4000000 		.4byte	.LFE77
 22925 0270 00000000 		.4byte	.LFB78
 22926 0274 F0000000 		.4byte	.LFE78
 22927 0278 00000000 		.4byte	.LFB79
 22928 027c 54030000 		.4byte	.LFE79
 22929 0280 00000000 		.4byte	.LFB80
 22930 0284 60000000 		.4byte	.LFE80
 22931 0288 00000000 		.4byte	.LFB81
 22932 028c 60000000 		.4byte	.LFE81
 22933 0290 00000000 		.4byte	.LFB82
 22934 0294 64000000 		.4byte	.LFE82
 22935 0298 00000000 		.4byte	.LFB83
 22936 029c 60000000 		.4byte	.LFE83
 22937 02a0 00000000 		.4byte	.LFB84
 22938 02a4 60000000 		.4byte	.LFE84
 22939 02a8 00000000 		.4byte	.LFB85
 22940 02ac 5C000000 		.4byte	.LFE85
 22941 02b0 00000000 		.4byte	.LFB86
 22942 02b4 60000000 		.4byte	.LFE86
 22943 02b8 00000000 		.4byte	.LFB87
 22944 02bc 0C010000 		.4byte	.LFE87
 22945 02c0 00000000 		.4byte	.LFB88
 22946 02c4 28010000 		.4byte	.LFE88
 22947 02c8 00000000 		.4byte	.LFB89
 22948 02cc 3C010000 		.4byte	.LFE89
 22949 02d0 00000000 		.4byte	.LFB90
 22950 02d4 7C010000 		.4byte	.LFE90
 22951 02d8 00000000 		.4byte	.LFB91
 22952 02dc 34000000 		.4byte	.LFE91
 22953 02e0 00000000 		.4byte	.LFB92
 22954 02e4 60000000 		.4byte	.LFE92
 22955 02e8 00000000 		.4byte	.LFB93
 22956 02ec 60000000 		.4byte	.LFE93
 22957 02f0 00000000 		.4byte	.LFB94
 22958 02f4 60000000 		.4byte	.LFE94
 22959 02f8 00000000 		.4byte	.LFB95
 22960 02fc 5C000000 		.4byte	.LFE95
 22961 0300 00000000 		.4byte	.LFB96
 22962 0304 60000000 		.4byte	.LFE96
 22963 0308 00000000 		.4byte	.LFB97
ARM GAS  C:\Users\PCHAUT~1\AppData\Local\Temp\ccacj52E.s 			page 405


 22964 030c 64000000 		.4byte	.LFE97
 22965 0310 00000000 		.4byte	.LFB98
 22966 0314 74000000 		.4byte	.LFE98
 22967 0318 00000000 		.4byte	.LFB99
 22968 031c C4000000 		.4byte	.LFE99
 22969 0320 00000000 		.4byte	.LFB100
 22970 0324 E8000000 		.4byte	.LFE100
 22971 0328 00000000 		.4byte	.LFB101
 22972 032c 34000000 		.4byte	.LFE101
 22973 0330 00000000 		.4byte	.LFB102
 22974 0334 78000000 		.4byte	.LFE102
 22975 0338 00000000 		.4byte	.LFB103
 22976 033c 7C000000 		.4byte	.LFE103
 22977 0340 00000000 		.4byte	.LFB104
 22978 0344 54000000 		.4byte	.LFE104
 22979 0348 00000000 		.4byte	.LFB105
 22980 034c 6C000000 		.4byte	.LFE105
 22981 0350 00000000 		.4byte	.LFB106
 22982 0354 6C000000 		.4byte	.LFE106
 22983 0358 00000000 		.4byte	.LFB107
 22984 035c 68000000 		.4byte	.LFE107
 22985 0360 00000000 		.4byte	.LFB108
 22986 0364 98000000 		.4byte	.LFE108
 22987 0368 00000000 		.4byte	.LFB109
 22988 036c 60000000 		.4byte	.LFE109
 22989 0370 00000000 		.4byte	.LFB110
 22990 0374 88000000 		.4byte	.LFE110
 22991 0378 00000000 		.4byte	.LFB111
 22992 037c 68000000 		.4byte	.LFE111
 22993 0380 00000000 		.4byte	.LFB112
 22994 0384 68000000 		.4byte	.LFE112
 22995 0388 00000000 		.4byte	.LFB113
 22996 038c 60000000 		.4byte	.LFE113
 22997 0390 00000000 		.4byte	.LFB114
 22998 0394 60000000 		.4byte	.LFE114
 22999 0398 00000000 		.4byte	.LFB115
 23000 039c 60000000 		.4byte	.LFE115
 23001 03a0 00000000 		.4byte	.LFB116
 23002 03a4 60000000 		.4byte	.LFE116
 23003 03a8 00000000 		.4byte	.LFB117
 23004 03ac 60000000 		.4byte	.LFE117
 23005 03b0 00000000 		.4byte	.LFB118
 23006 03b4 60000000 		.4byte	.LFE118
 23007 03b8 00000000 		.4byte	.LFB119
 23008 03bc 60000000 		.4byte	.LFE119
 23009 03c0 00000000 		.4byte	.LFB120
 23010 03c4 60000000 		.4byte	.LFE120
 23011 03c8 00000000 		.4byte	.LFB121
 23012 03cc 60000000 		.4byte	.LFE121
 23013 03d0 00000000 		.4byte	.LFB122
 23014 03d4 60000000 		.4byte	.LFE122
 23015 03d8 00000000 		.4byte	.LFB123
 23016 03dc 68000000 		.4byte	.LFE123
 23017 03e0 00000000 		.4byte	.LFB124
 23018 03e4 68000000 		.4byte	.LFE124
 23019 03e8 00000000 		.4byte	.LFB125
 23020 03ec 68000000 		.4byte	.LFE125
ARM GAS  C:\Users\PCHAUT~1\AppData\Local\Temp\ccacj52E.s 			page 406


 23021 03f0 00000000 		.4byte	.LFB126
 23022 03f4 68000000 		.4byte	.LFE126
 23023 03f8 00000000 		.4byte	.LFB127
 23024 03fc 68000000 		.4byte	.LFE127
 23025 0400 00000000 		.4byte	.LFB128
 23026 0404 68000000 		.4byte	.LFE128
 23027 0408 00000000 		.4byte	.LFB129
 23028 040c B8000000 		.4byte	.LFE129
 23029 0410 00000000 		.4byte	.LFB130
 23030 0414 68000000 		.4byte	.LFE130
 23031 0418 00000000 		.4byte	.LFB131
 23032 041c 2C090000 		.4byte	.LFE131
 23033 0420 00000000 		.4byte	.LFB132
 23034 0424 38000000 		.4byte	.LFE132
 23035 0428 00000000 		.4byte	.LFB133
 23036 042c 3C000000 		.4byte	.LFE133
 23037 0430 00000000 		.4byte	.LFB134
 23038 0434 3C000000 		.4byte	.LFE134
 23039 0438 00000000 		.4byte	.LFB135
 23040 043c 3C000000 		.4byte	.LFE135
 23041 0440 00000000 		.4byte	.LFB136
 23042 0444 30000000 		.4byte	.LFE136
 23043 0448 00000000 		.4byte	.LFB137
 23044 044c 38000000 		.4byte	.LFE137
 23045 0450 00000000 		.4byte	.LFB138
 23046 0454 40000000 		.4byte	.LFE138
 23047 0458 00000000 		.4byte	.LFB139
 23048 045c 40000000 		.4byte	.LFE139
 23049 0460 00000000 		.4byte	.LFB140
 23050 0464 40000000 		.4byte	.LFE140
 23051 0468 00000000 		.4byte	.LFB141
 23052 046c 30000000 		.4byte	.LFE141
 23053 0470 00000000 		.4byte	.LFB142
 23054 0474 34000000 		.4byte	.LFE142
 23055 0478 00000000 		.4byte	.LFB143
 23056 047c 34000000 		.4byte	.LFE143
 23057 0480 00000000 		.4byte	.LFB144
 23058 0484 34000000 		.4byte	.LFE144
 23059 0488 00000000 		.4byte	.LFB145
 23060 048c 34000000 		.4byte	.LFE145
 23061 0490 00000000 		.4byte	.LFB146
 23062 0494 40000000 		.4byte	.LFE146
 23063 0498 00000000 		.4byte	.LFB147
 23064 049c 38000000 		.4byte	.LFE147
 23065 04a0 00000000 		.4byte	.LFB148
 23066 04a4 40000000 		.4byte	.LFE148
 23067 04a8 00000000 		.4byte	.LFB149
 23068 04ac 40000000 		.4byte	.LFE149
 23069 04b0 00000000 		.4byte	.LFB150
 23070 04b4 84000000 		.4byte	.LFE150
 23071 04b8 00000000 		.4byte	.LFB151
 23072 04bc EC000000 		.4byte	.LFE151
 23073 04c0 00000000 		.4byte	.LFB152
 23074 04c4 08010000 		.4byte	.LFE152
 23075 04c8 00000000 		.4byte	.LFB153
 23076 04cc 24010000 		.4byte	.LFE153
 23077 04d0 00000000 		.4byte	.LFB154
ARM GAS  C:\Users\PCHAUT~1\AppData\Local\Temp\ccacj52E.s 			page 407


 23078 04d4 6C010000 		.4byte	.LFE154
 23079 04d8 00000000 		.4byte	.LFB155
 23080 04dc 34000000 		.4byte	.LFE155
 23081 04e0 00000000 		.4byte	.LFB156
 23082 04e4 44000000 		.4byte	.LFE156
 23083 04e8 00000000 		.4byte	.LFB157
 23084 04ec 54000000 		.4byte	.LFE157
 23085 04f0 00000000 		.4byte	.LFB158
 23086 04f4 A4000000 		.4byte	.LFE158
 23087 04f8 00000000 		.4byte	.LFB159
 23088 04fc C8000000 		.4byte	.LFE159
 23089 0500 00000000 		.4byte	.LFB160
 23090 0504 34000000 		.4byte	.LFE160
 23091 0508 00000000 		.4byte	.LFB161
 23092 050c 40000000 		.4byte	.LFE161
 23093 0510 00000000 		.4byte	.LFB162
 23094 0514 40000000 		.4byte	.LFE162
 23095 0518 00000000 		.4byte	.LFB163
 23096 051c 4C000000 		.4byte	.LFE163
 23097 0520 00000000 		.4byte	.LFB164
 23098 0524 48000000 		.4byte	.LFE164
 23099 0528 00000000 		.4byte	.LFB165
 23100 052c 40000000 		.4byte	.LFE165
 23101 0530 00000000 		.4byte	.LFB166
 23102 0534 48000000 		.4byte	.LFE166
 23103 0538 00000000 		.4byte	.LFB167
 23104 053c 48000000 		.4byte	.LFE167
 23105 0540 00000000 		.4byte	.LFB168
 23106 0544 9C000000 		.4byte	.LFE168
 23107 0548 00000000 		.4byte	0
 23108 054c 00000000 		.4byte	0
 23109              		.section	.debug_line,"",%progbits
 23110              	.Ldebug_line0:
 23111 0000 33140000 		.section	.debug_str,"MS",%progbits,1
 23111      02000902 
 23111      00000201 
 23111      FB0E0D00 
 23111      01010101 
 23112              	.LASF231:
 23113 0000 636D705F 		.ascii	"cmp_read_s8\000"
 23113      72656164 
 23113      5F733800 
 23114              	.LASF299:
 23115 000c 636D705F 		.ascii	"cmp_write_nfix\000"
 23115      77726974 
 23115      655F6E66 
 23115      697800
 23116              	.LASF288:
 23117 001b 636D705F 		.ascii	"cmp_write_u64\000"
 23117      77726974 
 23117      655F7536 
 23117      3400
 23118              	.LASF187:
 23119 0029 636D705F 		.ascii	"cmp_read_ext32_marker\000"
 23119      72656164 
 23119      5F657874 
 23119      33325F6D 
ARM GAS  C:\Users\PCHAUT~1\AppData\Local\Temp\ccacj52E.s 			page 408


 23119      61726B65 
 23120              	.LASF151:
 23121 003f 636D705F 		.ascii	"cmp_object_as_ulong\000"
 23121      6F626A65 
 23121      63745F61 
 23121      735F756C 
 23121      6F6E6700 
 23122              	.LASF213:
 23123 0053 636D705F 		.ascii	"cmp_read_uinteger\000"
 23123      72656164 
 23123      5F75696E 
 23123      74656765 
 23123      7200
 23124              	.LASF124:
 23125 0065 4552524F 		.ascii	"ERROR_NONE\000"
 23125      525F4E4F 
 23125      4E4500
 23126              	.LASF86:
 23127 0070 4649584D 		.ascii	"FIXMAP_MARKER\000"
 23127      41505F4D 
 23127      41524B45 
 23127      5200
 23128              	.LASF65:
 23129 007e 434D505F 		.ascii	"CMP_TYPE_MAP16\000"
 23129      54595045 
 23129      5F4D4150 
 23129      313600
 23130              	.LASF90:
 23131 008d 46414C53 		.ascii	"FALSE_MARKER\000"
 23131      455F4D41 
 23131      524B4552 
 23131      00
 23132              	.LASF169:
 23133 009a 636D705F 		.ascii	"cmp_object_is_uinteger\000"
 23133      6F626A65 
 23133      63745F69 
 23133      735F7569 
 23133      6E746567 
 23134              	.LASF121:
 23135 00b1 46495841 		.ascii	"FIXARRAY_SIZE\000"
 23135      52524159 
 23135      5F53495A 
 23135      4500
 23136              	.LASF179:
 23137 00bf 636D705F 		.ascii	"cmp_read_object\000"
 23137      72656164 
 23137      5F6F626A 
 23137      65637400 
 23138              	.LASF204:
 23139 00cf 636D705F 		.ascii	"cmp_read_bin\000"
 23139      72656164 
 23139      5F62696E 
 23139      00
 23140              	.LASF200:
 23141 00dc 636D705F 		.ascii	"cmp_read_fixext1\000"
 23141      72656164 
 23141      5F666978 
ARM GAS  C:\Users\PCHAUT~1\AppData\Local\Temp\ccacj52E.s 			page 409


 23141      65787431 
 23141      00
 23142              	.LASF198:
 23143 00ed 636D705F 		.ascii	"cmp_read_fixext2\000"
 23143      72656164 
 23143      5F666978 
 23143      65787432 
 23143      00
 23144              	.LASF196:
 23145 00fe 636D705F 		.ascii	"cmp_read_fixext4\000"
 23145      72656164 
 23145      5F666978 
 23145      65787434 
 23145      00
 23146              	.LASF272:
 23147 010f 636D705F 		.ascii	"cmp_write_str32\000"
 23147      77726974 
 23147      655F7374 
 23147      72333200 
 23148              	.LASF194:
 23149 011f 636D705F 		.ascii	"cmp_read_fixext8\000"
 23149      72656164 
 23149      5F666978 
 23149      65787438 
 23149      00
 23150              	.LASF51:
 23151 0130 434D505F 		.ascii	"CMP_TYPE_SINT8\000"
 23151      54595045 
 23151      5F53494E 
 23151      543800
 23152              	.LASF283:
 23153 013f 636D705F 		.ascii	"cmp_write_true\000"
 23153      77726974 
 23153      655F7472 
 23153      756500
 23154              	.LASF0:
 23155 014e 756E7369 		.ascii	"unsigned int\000"
 23155      676E6564 
 23155      20696E74 
 23155      00
 23156              	.LASF83:
 23157 015b 76657273 		.ascii	"version\000"
 23157      696F6E00 
 23158              	.LASF139:
 23159 0163 4C454E47 		.ascii	"LENGTH_WRITING_ERROR\000"
 23159      54485F57 
 23159      52495449 
 23159      4E475F45 
 23159      52524F52 
 23160              	.LASF257:
 23161 0178 636D705F 		.ascii	"cmp_write_fixmap\000"
 23161      77726974 
 23161      655F6669 
 23161      786D6170 
 23161      00
 23162              	.LASF188:
 23163 0189 636D705F 		.ascii	"cmp_read_ext16\000"
ARM GAS  C:\Users\PCHAUT~1\AppData\Local\Temp\ccacj52E.s 			page 410


 23163      72656164 
 23163      5F657874 
 23163      313600
 23164              	.LASF12:
 23165 0198 5F5F696E 		.ascii	"__int32_t\000"
 23165      7433325F 
 23165      7400
 23166              	.LASF98:
 23167 01a2 464C4F41 		.ascii	"FLOAT_MARKER\000"
 23167      545F4D41 
 23167      524B4552 
 23167      00
 23168              	.LASF111:
 23169 01af 46495845 		.ascii	"FIXEXT8_MARKER\000"
 23169      5854385F 
 23169      4D41524B 
 23169      455200
 23170              	.LASF190:
 23171 01be 636D705F 		.ascii	"cmp_read_ext8\000"
 23171      72656164 
 23171      5F657874 
 23171      3800
 23172              	.LASF219:
 23173 01cc 636D705F 		.ascii	"cmp_read_u32\000"
 23173      72656164 
 23173      5F753332 
 23173      00
 23174              	.LASF173:
 23175 01d9 636D705F 		.ascii	"cmp_object_is_uchar\000"
 23175      6F626A65 
 23175      63745F69 
 23175      735F7563 
 23175      68617200 
 23176              	.LASF282:
 23177 01ed 636D705F 		.ascii	"cmp_write_false\000"
 23177      77726974 
 23177      655F6661 
 23177      6C736500 
 23178              	.LASF237:
 23179 01fd 636D705F 		.ascii	"cmp_write_ext_marker\000"
 23179      77726974 
 23179      655F6578 
 23179      745F6D61 
 23179      726B6572 
 23180              	.LASF92:
 23181 0212 42494E38 		.ascii	"BIN8_MARKER\000"
 23181      5F4D4152 
 23181      4B455200 
 23182              	.LASF249:
 23183 021e 636D705F 		.ascii	"cmp_write_fixext4_marker\000"
 23183      77726974 
 23183      655F6669 
 23183      78657874 
 23183      345F6D61 
 23184              	.LASF120:
 23185 0237 4E454741 		.ascii	"NEGATIVE_FIXNUM_MARKER\000"
 23185      54495645 
ARM GAS  C:\Users\PCHAUT~1\AppData\Local\Temp\ccacj52E.s 			page 411


 23185      5F464958 
 23185      4E554D5F 
 23185      4D41524B 
 23186              	.LASF321:
 23187 024e 636D705F 		.ascii	"cmp_init\000"
 23187      696E6974 
 23187      00
 23188              	.LASF314:
 23189 0257 62653634 		.ascii	"be64\000"
 23189      00
 23190              	.LASF197:
 23191 025c 636D705F 		.ascii	"cmp_read_fixext4_marker\000"
 23191      72656164 
 23191      5F666978 
 23191      65787434 
 23191      5F6D6172 
 23192              	.LASF279:
 23193 0274 636D705F 		.ascii	"cmp_write_fixstr_marker\000"
 23193      77726974 
 23193      655F6669 
 23193      78737472 
 23193      5F6D6172 
 23194              	.LASF221:
 23195 028c 636D705F 		.ascii	"cmp_read_u8\000"
 23195      72656164 
 23195      5F753800 
 23196              	.LASF29:
 23197 0298 6572726F 		.ascii	"error\000"
 23197      7200
 23198              	.LASF75:
 23199 029e 6D61705F 		.ascii	"map_size\000"
 23199      73697A65 
 23199      00
 23200              	.LASF241:
 23201 02a7 636D705F 		.ascii	"cmp_write_ext16_marker\000"
 23201      77726974 
 23201      655F6578 
 23201      7431365F 
 23201      6D61726B 
 23202              	.LASF225:
 23203 02be 636D705F 		.ascii	"cmp_read_int\000"
 23203      72656164 
 23203      5F696E74 
 23203      00
 23204              	.LASF66:
 23205 02cb 434D505F 		.ascii	"CMP_TYPE_MAP32\000"
 23205      54595045 
 23205      5F4D4150 
 23205      333200
 23206              	.LASF39:
 23207 02da 434D505F 		.ascii	"CMP_TYPE_BIN8\000"
 23207      54595045 
 23207      5F42494E 
 23207      3800
 23208              	.LASF300:
 23209 02e8 636D705F 		.ascii	"cmp_write_pfix\000"
 23209      77726974 
ARM GAS  C:\Users\PCHAUT~1\AppData\Local\Temp\ccacj52E.s 			page 412


 23209      655F7066 
 23209      697800
 23210              	.LASF318:
 23211 02f7 433A5C55 		.ascii	"C:\\Users\\Pchautems\\Documents\\RobotiqueTP\\Proje"
 23211      73657273 
 23211      5C506368 
 23211      61757465 
 23211      6D735C44 
 23212 0325 745C6D69 		.ascii	"t\\miniprojet\000"
 23212      6E697072 
 23212      6F6A6574 
 23212      00
 23213              	.LASF112:
 23214 0332 46495845 		.ascii	"FIXEXT16_MARKER\000"
 23214      58543136 
 23214      5F4D4152 
 23214      4B455200 
 23215              	.LASF312:
 23216 0342 73776170 		.ascii	"swap\000"
 23216      00
 23217              	.LASF174:
 23218 0347 636D705F 		.ascii	"cmp_object_is_sinteger\000"
 23218      6F626A65 
 23218      63745F69 
 23218      735F7369 
 23218      6E746567 
 23219              	.LASF168:
 23220 035e 636D705F 		.ascii	"cmp_object_is_float\000"
 23220      6F626A65 
 23220      63745F69 
 23220      735F666C 
 23220      6F617400 
 23221              	.LASF218:
 23222 0372 636D705F 		.ascii	"cmp_read_u64\000"
 23222      72656164 
 23222      5F753634 
 23222      00
 23223              	.LASF153:
 23224 037f 636D705F 		.ascii	"cmp_object_as_ushort\000"
 23224      6F626A65 
 23224      63745F61 
 23224      735F7573 
 23224      686F7274 
 23225              	.LASF148:
 23226 0394 636D705F 		.ascii	"cmp_object_as_double\000"
 23226      6F626A65 
 23226      63745F61 
 23226      735F646F 
 23226      75626C65 
 23227              	.LASF178:
 23228 03a9 636D705F 		.ascii	"cmp_object_is_char\000"
 23228      6F626A65 
 23228      63745F69 
 23228      735F6368 
 23228      617200
 23229              	.LASF229:
 23230 03bc 636D705F 		.ascii	"cmp_read_s32\000"
ARM GAS  C:\Users\PCHAUT~1\AppData\Local\Temp\ccacj52E.s 			page 413


 23230      72656164 
 23230      5F733332 
 23230      00
 23231              	.LASF24:
 23232 03c9 75696E74 		.ascii	"uint32_t\000"
 23232      33325F74 
 23232      00
 23233              	.LASF19:
 23234 03d2 696E7438 		.ascii	"int8_t\000"
 23234      5F7400
 23235              	.LASF77:
 23236 03d9 62696E5F 		.ascii	"bin_size\000"
 23236      73697A65 
 23236      00
 23237              	.LASF189:
 23238 03e2 636D705F 		.ascii	"cmp_read_ext16_marker\000"
 23238      72656164 
 23238      5F657874 
 23238      31365F6D 
 23238      61726B65 
 23239              	.LASF154:
 23240 03f8 636D705F 		.ascii	"cmp_object_as_uchar\000"
 23240      6F626A65 
 23240      63745F61 
 23240      735F7563 
 23240      68617200 
 23241              	.LASF81:
 23242 040c 636D705F 		.ascii	"cmp_object_s\000"
 23242      6F626A65 
 23242      63745F73 
 23242      00
 23243              	.LASF82:
 23244 0419 636D705F 		.ascii	"cmp_object_t\000"
 23244      6F626A65 
 23244      63745F74 
 23244      00
 23245              	.LASF284:
 23246 0426 636D705F 		.ascii	"cmp_write_nil\000"
 23246      77726974 
 23246      655F6E69 
 23246      6C00
 23247              	.LASF99:
 23248 0434 444F5542 		.ascii	"DOUBLE_MARKER\000"
 23248      4C455F4D 
 23248      41524B45 
 23248      5200
 23249              	.LASF78:
 23250 0442 666C6F61 		.ascii	"float\000"
 23250      7400
 23251              	.LASF186:
 23252 0448 636D705F 		.ascii	"cmp_read_ext32\000"
 23252      72656164 
 23252      5F657874 
 23252      333200
 23253              	.LASF224:
 23254 0457 636D705F 		.ascii	"cmp_read_long\000"
 23254      72656164 
ARM GAS  C:\Users\PCHAUT~1\AppData\Local\Temp\ccacj52E.s 			page 414


 23254      5F6C6F6E 
 23254      6700
 23255              	.LASF36:
 23256 0465 434D505F 		.ascii	"CMP_TYPE_FIXSTR\000"
 23256      54595045 
 23256      5F464958 
 23256      53545200 
 23257              	.LASF293:
 23258 0475 636D705F 		.ascii	"cmp_write_sint\000"
 23258      77726974 
 23258      655F7369 
 23258      6E7400
 23259              	.LASF292:
 23260 0484 636D705F 		.ascii	"cmp_write_ufix\000"
 23260      77726974 
 23260      655F7566 
 23260      697800
 23261              	.LASF21:
 23262 0493 696E7431 		.ascii	"int16_t\000"
 23262      365F7400 
 23263              	.LASF18:
 23264 049b 6C6F6E67 		.ascii	"long long unsigned int\000"
 23264      206C6F6E 
 23264      6720756E 
 23264      7369676E 
 23264      65642069 
 23265              	.LASF230:
 23266 04b2 636D705F 		.ascii	"cmp_read_s16\000"
 23266      72656164 
 23266      5F733136 
 23266      00
 23267              	.LASF195:
 23268 04bf 636D705F 		.ascii	"cmp_read_fixext8_marker\000"
 23268      72656164 
 23268      5F666978 
 23268      65787438 
 23268      5F6D6172 
 23269              	.LASF126:
 23270 04d7 42494E5F 		.ascii	"BIN_DATA_LENGTH_TOO_LONG_ERROR\000"
 23270      44415441 
 23270      5F4C454E 
 23270      4754485F 
 23270      544F4F5F 
 23271              	.LASF177:
 23272 04f6 636D705F 		.ascii	"cmp_object_is_short\000"
 23272      6F626A65 
 23272      63745F69 
 23272      735F7368 
 23272      6F727400 
 23273              	.LASF199:
 23274 050a 636D705F 		.ascii	"cmp_read_fixext2_marker\000"
 23274      72656164 
 23274      5F666978 
 23274      65787432 
 23274      5F6D6172 
 23275              	.LASF239:
 23276 0522 636D705F 		.ascii	"cmp_write_ext32_marker\000"
ARM GAS  C:\Users\PCHAUT~1\AppData\Local\Temp\ccacj52E.s 			page 415


 23276      77726974 
 23276      655F6578 
 23276      7433325F 
 23276      6D61726B 
 23277              	.LASF10:
 23278 0539 5F5F7569 		.ascii	"__uint16_t\000"
 23278      6E743136 
 23278      5F7400
 23279              	.LASF146:
 23280 0544 636D705F 		.ascii	"cmp_object_as_str\000"
 23280      6F626A65 
 23280      63745F61 
 23280      735F7374 
 23280      7200
 23281              	.LASF137:
 23282 0556 494E5641 		.ascii	"INVALID_TYPE_ERROR\000"
 23282      4C49445F 
 23282      54595045 
 23282      5F455252 
 23282      4F5200
 23283              	.LASF42:
 23284 0569 434D505F 		.ascii	"CMP_TYPE_EXT8\000"
 23284      54595045 
 23284      5F455854 
 23284      3800
 23285              	.LASF133:
 23286 0577 44415441 		.ascii	"DATA_READING_ERROR\000"
 23286      5F524541 
 23286      44494E47 
 23286      5F455252 
 23286      4F5200
 23287              	.LASF310:
 23288 058a 72656164 		.ascii	"read_byte\000"
 23288      5F627974 
 23288      6500
 23289              	.LASF191:
 23290 0594 636D705F 		.ascii	"cmp_read_ext8_marker\000"
 23290      72656164 
 23290      5F657874 
 23290      385F6D61 
 23290      726B6572 
 23291              	.LASF134:
 23292 05a9 44415441 		.ascii	"DATA_WRITING_ERROR\000"
 23292      5F575249 
 23292      54494E47 
 23292      5F455252 
 23292      4F5200
 23293              	.LASF215:
 23294 05bc 636D705F 		.ascii	"cmp_read_uint\000"
 23294      72656164 
 23294      5F75696E 
 23294      7400
 23295              	.LASF118:
 23296 05ca 4D415031 		.ascii	"MAP16_MARKER\000"
 23296      365F4D41 
 23296      524B4552 
 23296      00
ARM GAS  C:\Users\PCHAUT~1\AppData\Local\Temp\ccacj52E.s 			page 416


 23297              	.LASF275:
 23298 05d7 636D705F 		.ascii	"cmp_write_str16_marker\000"
 23298      77726974 
 23298      655F7374 
 23298      7231365F 
 23298      6D61726B 
 23299              	.LASF304:
 23300 05ee 76616C75 		.ascii	"value\000"
 23300      6500
 23301              	.LASF302:
 23302 05f4 636D705F 		.ascii	"cmp_mp_version\000"
 23302      6D705F76 
 23302      65727369 
 23302      6F6E00
 23303              	.LASF254:
 23304 0603 636D705F 		.ascii	"cmp_write_map\000"
 23304      77726974 
 23304      655F6D61 
 23304      7000
 23305              	.LASF165:
 23306 0611 636D705F 		.ascii	"cmp_object_is_bool\000"
 23306      6F626A65 
 23306      63745F69 
 23306      735F626F 
 23306      6F6C00
 23307              	.LASF76:
 23308 0624 7374725F 		.ascii	"str_size\000"
 23308      73697A65 
 23308      00
 23309              	.LASF131:
 23310 062d 54595045 		.ascii	"TYPE_MARKER_READING_ERROR\000"
 23310      5F4D4152 
 23310      4B45525F 
 23310      52454144 
 23310      494E475F 
 23311              	.LASF181:
 23312 0647 6578745F 		.ascii	"ext_size\000"
 23312      73697A65 
 23312      00
 23313              	.LASF32:
 23314 0650 636D705F 		.ascii	"cmp_writer\000"
 23314      77726974 
 23314      657200
 23315              	.LASF180:
 23316 065b 74797065 		.ascii	"type_marker\000"
 23316      5F6D6172 
 23316      6B657200 
 23317              	.LASF140:
 23318 0667 4552524F 		.ascii	"ERROR_MAX\000"
 23318      525F4D41 
 23318      5800
 23319              	.LASF3:
 23320 0671 73697A65 		.ascii	"size_t\000"
 23320      5F7400
 23321              	.LASF25:
 23322 0678 696E7436 		.ascii	"int64_t\000"
 23322      345F7400 
ARM GAS  C:\Users\PCHAUT~1\AppData\Local\Temp\ccacj52E.s 			page 417


 23323              	.LASF208:
 23324 0680 636D705F 		.ascii	"cmp_read_bool_as_u8\000"
 23324      72656164 
 23324      5F626F6F 
 23324      6C5F6173 
 23324      5F753800 
 23325              	.LASF201:
 23326 0694 636D705F 		.ascii	"cmp_read_fixext1_marker\000"
 23326      72656164 
 23326      5F666978 
 23326      65787431 
 23326      5F6D6172 
 23327              	.LASF267:
 23328 06ac 636D705F 		.ascii	"cmp_write_bin16_marker\000"
 23328      77726974 
 23328      655F6269 
 23328      6E31365F 
 23328      6D61726B 
 23329              	.LASF28:
 23330 06c3 5F426F6F 		.ascii	"_Bool\000"
 23330      6C00
 23331              	.LASF84:
 23332 06c9 6D705F76 		.ascii	"mp_version\000"
 23332      65727369 
 23332      6F6E00
 23333              	.LASF297:
 23334 06d4 636D705F 		.ascii	"cmp_write_s8\000"
 23334      77726974 
 23334      655F7338 
 23334      00
 23335              	.LASF129:
 23336 06e1 494E5055 		.ascii	"INPUT_VALUE_TOO_LARGE_ERROR\000"
 23336      545F5641 
 23336      4C55455F 
 23336      544F4F5F 
 23336      4C415247 
 23337              	.LASF17:
 23338 06fd 5F5F7569 		.ascii	"__uint64_t\000"
 23338      6E743634 
 23338      5F7400
 23339              	.LASF119:
 23340 0708 4D415033 		.ascii	"MAP32_MARKER\000"
 23340      325F4D41 
 23340      524B4552 
 23340      00
 23341              	.LASF47:
 23342 0715 434D505F 		.ascii	"CMP_TYPE_UINT8\000"
 23342      54595045 
 23342      5F55494E 
 23342      543800
 23343              	.LASF96:
 23344 0724 45585431 		.ascii	"EXT16_MARKER\000"
 23344      365F4D41 
 23344      524B4552 
 23344      00
 23345              	.LASF68:
 23346 0731 636D705F 		.ascii	"cmp_ctx_s\000"
ARM GAS  C:\Users\PCHAUT~1\AppData\Local\Temp\ccacj52E.s 			page 418


 23346      6374785F 
 23346      7300
 23347              	.LASF80:
 23348 073b 636D705F 		.ascii	"cmp_ctx_t\000"
 23348      6374785F 
 23348      7400
 23349              	.LASF238:
 23350 0745 636D705F 		.ascii	"cmp_write_ext32\000"
 23350      77726974 
 23350      655F6578 
 23350      74333200 
 23351              	.LASF280:
 23352 0755 636D705F 		.ascii	"cmp_write_u8_as_bool\000"
 23352      77726974 
 23352      655F7538 
 23352      5F61735F 
 23352      626F6F6C 
 23353              	.LASF106:
 23354 076a 5333325F 		.ascii	"S32_MARKER\000"
 23354      4D41524B 
 23354      455200
 23355              	.LASF228:
 23356 0775 636D705F 		.ascii	"cmp_read_s64\000"
 23356      72656164 
 23356      5F733634 
 23356      00
 23357              	.LASF289:
 23358 0782 636D705F 		.ascii	"cmp_write_u32\000"
 23358      77726974 
 23358      655F7533 
 23358      3200
 23359              	.LASF69:
 23360 0790 636D705F 		.ascii	"cmp_ext_s\000"
 23360      6578745F 
 23360      7300
 23361              	.LASF72:
 23362 079a 636D705F 		.ascii	"cmp_ext_t\000"
 23362      6578745F 
 23362      7400
 23363              	.LASF150:
 23364 07a4 636D705F 		.ascii	"cmp_object_as_uinteger\000"
 23364      6F626A65 
 23364      63745F61 
 23364      735F7569 
 23364      6E746567 
 23365              	.LASF258:
 23366 07bb 636D705F 		.ascii	"cmp_write_array\000"
 23366      77726974 
 23366      655F6172 
 23366      72617900 
 23367              	.LASF52:
 23368 07cb 434D505F 		.ascii	"CMP_TYPE_SINT16\000"
 23368      54595045 
 23368      5F53494E 
 23368      54313600 
 23369              	.LASF141:
 23370 07db 63686172 		.ascii	"char\000"
ARM GAS  C:\Users\PCHAUT~1\AppData\Local\Temp\ccacj52E.s 			page 419


 23370      00
 23371              	.LASF149:
 23372 07e0 636D705F 		.ascii	"cmp_object_as_float\000"
 23372      6F626A65 
 23372      63745F61 
 23372      735F666C 
 23372      6F617400 
 23373              	.LASF227:
 23374 07f4 636D705F 		.ascii	"cmp_read_char\000"
 23374      72656164 
 23374      5F636861 
 23374      7200
 23375              	.LASF152:
 23376 0802 636D705F 		.ascii	"cmp_object_as_uint\000"
 23376      6F626A65 
 23376      63745F61 
 23376      735F7569 
 23376      6E7400
 23377              	.LASF226:
 23378 0815 636D705F 		.ascii	"cmp_read_short\000"
 23378      72656164 
 23378      5F73686F 
 23378      727400
 23379              	.LASF100:
 23380 0824 55385F4D 		.ascii	"U8_MARKER\000"
 23380      41524B45 
 23380      5200
 23381              	.LASF320:
 23382 082e 636D705F 		.ascii	"cmp_error_messages\000"
 23382      6572726F 
 23382      725F6D65 
 23382      73736167 
 23382      657300
 23383              	.LASF290:
 23384 0841 636D705F 		.ascii	"cmp_write_u16\000"
 23384      77726974 
 23384      655F7531 
 23384      3600
 23385              	.LASF303:
 23386 084f 636D705F 		.ascii	"cmp_version\000"
 23386      76657273 
 23386      696F6E00 
 23387              	.LASF322:
 23388 085b 62653136 		.ascii	"be16\000"
 23388      00
 23389              	.LASF67:
 23390 0860 434D505F 		.ascii	"CMP_TYPE_NEGATIVE_FIXNUM\000"
 23390      54595045 
 23390      5F4E4547 
 23390      41544956 
 23390      455F4649 
 23391              	.LASF245:
 23392 0879 636D705F 		.ascii	"cmp_write_fixext16_marker\000"
 23392      77726974 
 23392      655F6669 
 23392      78657874 
 23392      31365F6D 
ARM GAS  C:\Users\PCHAUT~1\AppData\Local\Temp\ccacj52E.s 			page 420


 23393              	.LASF184:
 23394 0893 64617461 		.ascii	"data\000"
 23394      00
 23395              	.LASF103:
 23396 0898 5536345F 		.ascii	"U64_MARKER\000"
 23396      4D41524B 
 23396      455200
 23397              	.LASF203:
 23398 08a3 636D705F 		.ascii	"cmp_read_array\000"
 23398      72656164 
 23398      5F617272 
 23398      617900
 23399              	.LASF309:
 23400 08b2 77726974 		.ascii	"write_byte\000"
 23400      655F6279 
 23400      746500
 23401              	.LASF259:
 23402 08bd 636D705F 		.ascii	"cmp_write_array32\000"
 23402      77726974 
 23402      655F6172 
 23402      72617933 
 23402      3200
 23403              	.LASF20:
 23404 08cf 75696E74 		.ascii	"uint8_t\000"
 23404      385F7400 
 23405              	.LASF166:
 23406 08d7 636D705F 		.ascii	"cmp_object_is_nil\000"
 23406      6F626A65 
 23406      63745F69 
 23406      735F6E69 
 23406      6C00
 23407              	.LASF170:
 23408 08e9 636D705F 		.ascii	"cmp_object_is_ulong\000"
 23408      6F626A65 
 23408      63745F69 
 23408      735F756C 
 23408      6F6E6700 
 23409              	.LASF301:
 23410 08fd 636D705F 		.ascii	"cmp_strerror\000"
 23410      73747265 
 23410      72726F72 
 23410      00
 23411              	.LASF223:
 23412 090a 636D705F 		.ascii	"cmp_read_sinteger\000"
 23412      72656164 
 23412      5F73696E 
 23412      74656765 
 23412      7200
 23413              	.LASF183:
 23414 091c 636D705F 		.ascii	"cmp_read_ext\000"
 23414      72656164 
 23414      5F657874 
 23414      00
 23415              	.LASF273:
 23416 0929 636D705F 		.ascii	"cmp_write_str32_marker\000"
 23416      77726974 
 23416      655F7374 
ARM GAS  C:\Users\PCHAUT~1\AppData\Local\Temp\ccacj52E.s 			page 421


 23416      7233325F 
 23416      6D61726B 
 23417              	.LASF73:
 23418 0940 626F6F6C 		.ascii	"boolean\000"
 23418      65616E00 
 23419              	.LASF291:
 23420 0948 636D705F 		.ascii	"cmp_write_u8\000"
 23420      77726974 
 23420      655F7538 
 23420      00
 23421              	.LASF172:
 23422 0955 636D705F 		.ascii	"cmp_object_is_ushort\000"
 23422      6F626A65 
 23422      63745F69 
 23422      735F7573 
 23422      686F7274 
 23423              	.LASF167:
 23424 096a 636D705F 		.ascii	"cmp_object_is_double\000"
 23424      6F626A65 
 23424      63745F69 
 23424      735F646F 
 23424      75626C65 
 23425              	.LASF128:
 23426 097f 4D41505F 		.ascii	"MAP_LENGTH_TOO_LONG_ERROR\000"
 23426      4C454E47 
 23426      54485F54 
 23426      4F4F5F4C 
 23426      4F4E475F 
 23427              	.LASF63:
 23428 0999 434D505F 		.ascii	"CMP_TYPE_ARRAY16\000"
 23428      54595045 
 23428      5F415252 
 23428      41593136 
 23428      00
 23429              	.LASF1:
 23430 09aa 6C6F6E67 		.ascii	"long long int\000"
 23430      206C6F6E 
 23430      6720696E 
 23430      7400
 23431              	.LASF233:
 23432 09b8 636D705F 		.ascii	"cmp_read_nfix\000"
 23432      72656164 
 23432      5F6E6669 
 23432      7800
 23433              	.LASF31:
 23434 09c6 77726974 		.ascii	"write\000"
 23434      6500
 23435              	.LASF271:
 23436 09cc 636D705F 		.ascii	"cmp_write_str_marker\000"
 23436      77726974 
 23436      655F7374 
 23436      725F6D61 
 23436      726B6572 
 23437              	.LASF45:
 23438 09e1 434D505F 		.ascii	"CMP_TYPE_FLOAT\000"
 23438      54595045 
 23438      5F464C4F 
ARM GAS  C:\Users\PCHAUT~1\AppData\Local\Temp\ccacj52E.s 			page 422


 23438      415400
 23439              	.LASF135:
 23440 09f0 4558545F 		.ascii	"EXT_TYPE_READING_ERROR\000"
 23440      54595045 
 23440      5F524541 
 23440      44494E47 
 23440      5F455252 
 23441              	.LASF247:
 23442 0a07 636D705F 		.ascii	"cmp_write_fixext8_marker\000"
 23442      77726974 
 23442      655F6669 
 23442      78657874 
 23442      385F6D61 
 23443              	.LASF114:
 23444 0a20 53545231 		.ascii	"STR16_MARKER\000"
 23444      365F4D41 
 23444      524B4552 
 23444      00
 23445              	.LASF313:
 23446 0a2d 6265666C 		.ascii	"befloat\000"
 23446      6F617400 
 23447              	.LASF206:
 23448 0a35 636D705F 		.ascii	"cmp_read_str\000"
 23448      72656164 
 23448      5F737472 
 23448      00
 23449              	.LASF261:
 23450 0a42 636D705F 		.ascii	"cmp_write_fixarray\000"
 23450      77726974 
 23450      655F6669 
 23450      78617272 
 23450      617900
 23451              	.LASF209:
 23452 0a55 636D705F 		.ascii	"cmp_read_bool\000"
 23452      72656164 
 23452      5F626F6F 
 23452      6C00
 23453              	.LASF8:
 23454 0a63 5F5F696E 		.ascii	"__int16_t\000"
 23454      7431365F 
 23454      7400
 23455              	.LASF222:
 23456 0a6d 636D705F 		.ascii	"cmp_read_ufix\000"
 23456      72656164 
 23456      5F756669 
 23456      7800
 23457              	.LASF216:
 23458 0a7b 636D705F 		.ascii	"cmp_read_ushort\000"
 23458      72656164 
 23458      5F757368 
 23458      6F727400 
 23459              	.LASF53:
 23460 0a8b 434D505F 		.ascii	"CMP_TYPE_SINT32\000"
 23460      54595045 
 23460      5F53494E 
 23460      54333200 
 23461              	.LASF161:
ARM GAS  C:\Users\PCHAUT~1\AppData\Local\Temp\ccacj52E.s 			page 423


 23462 0a9b 636D705F 		.ascii	"cmp_object_is_map\000"
 23462      6F626A65 
 23462      63745F69 
 23462      735F6D61 
 23462      7000
 23463              	.LASF268:
 23464 0aad 636D705F 		.ascii	"cmp_write_bin8\000"
 23464      77726974 
 23464      655F6269 
 23464      6E3800
 23465              	.LASF97:
 23466 0abc 45585433 		.ascii	"EXT32_MARKER\000"
 23466      325F4D41 
 23466      524B4552 
 23466      00
 23467              	.LASF93:
 23468 0ac9 42494E31 		.ascii	"BIN16_MARKER\000"
 23468      365F4D41 
 23468      524B4552 
 23468      00
 23469              	.LASF71:
 23470 0ad6 73697A65 		.ascii	"size\000"
 23470      00
 23471              	.LASF315:
 23472 0adb 62653332 		.ascii	"be32\000"
 23472      00
 23473              	.LASF287:
 23474 0ae0 636D705F 		.ascii	"cmp_write_uint\000"
 23474      77726974 
 23474      655F7569 
 23474      6E7400
 23475              	.LASF286:
 23476 0aef 636D705F 		.ascii	"cmp_write_float\000"
 23476      77726974 
 23476      655F666C 
 23476      6F617400 
 23477              	.LASF59:
 23478 0aff 434D505F 		.ascii	"CMP_TYPE_FIXEXT16\000"
 23478      54595045 
 23478      5F464958 
 23478      45585431 
 23478      3600
 23479              	.LASF207:
 23480 0b11 636D705F 		.ascii	"cmp_read_str_size\000"
 23480      72656164 
 23480      5F737472 
 23480      5F73697A 
 23480      6500
 23481              	.LASF182:
 23482 0b23 6578745F 		.ascii	"ext_type\000"
 23482      74797065 
 23482      00
 23483              	.LASF244:
 23484 0b2c 636D705F 		.ascii	"cmp_write_fixext16\000"
 23484      77726974 
 23484      655F6669 
 23484      78657874 
ARM GAS  C:\Users\PCHAUT~1\AppData\Local\Temp\ccacj52E.s 			page 424


 23484      313600
 23485              	.LASF48:
 23486 0b3f 434D505F 		.ascii	"CMP_TYPE_UINT16\000"
 23486      54595045 
 23486      5F55494E 
 23486      54313600 
 23487              	.LASF164:
 23488 0b4f 636D705F 		.ascii	"cmp_object_is_str\000"
 23488      6F626A65 
 23488      63745F69 
 23488      735F7374 
 23488      7200
 23489              	.LASF108:
 23490 0b61 46495845 		.ascii	"FIXEXT1_MARKER\000"
 23490      5854315F 
 23490      4D41524B 
 23490      455200
 23491              	.LASF171:
 23492 0b70 636D705F 		.ascii	"cmp_object_is_uint\000"
 23492      6F626A65 
 23492      63745F69 
 23492      735F7569 
 23492      6E7400
 23493              	.LASF156:
 23494 0b83 636D705F 		.ascii	"cmp_object_as_long\000"
 23494      6F626A65 
 23494      63745F61 
 23494      735F6C6F 
 23494      6E6700
 23495              	.LASF212:
 23496 0b96 636D705F 		.ascii	"cmp_read_float\000"
 23496      72656164 
 23496      5F666C6F 
 23496      617400
 23497              	.LASF60:
 23498 0ba5 434D505F 		.ascii	"CMP_TYPE_STR8\000"
 23498      54595045 
 23498      5F535452 
 23498      3800
 23499              	.LASF88:
 23500 0bb3 46495853 		.ascii	"FIXSTR_MARKER\000"
 23500      54525F4D 
 23500      41524B45 
 23500      5200
 23501              	.LASF295:
 23502 0bc1 636D705F 		.ascii	"cmp_write_s32\000"
 23502      77726974 
 23502      655F7333 
 23502      3200
 23503              	.LASF34:
 23504 0bcf 434D505F 		.ascii	"CMP_TYPE_FIXMAP\000"
 23504      54595045 
 23504      5F464958 
 23504      4D415000 
 23505              	.LASF110:
 23506 0bdf 46495845 		.ascii	"FIXEXT4_MARKER\000"
 23506      5854345F 
ARM GAS  C:\Users\PCHAUT~1\AppData\Local\Temp\ccacj52E.s 			page 425


 23506      4D41524B 
 23506      455200
 23507              	.LASF4:
 23508 0bee 5F5F696E 		.ascii	"__int8_t\000"
 23508      74385F74 
 23508      00
 23509              	.LASF105:
 23510 0bf7 5331365F 		.ascii	"S16_MARKER\000"
 23510      4D41524B 
 23510      455200
 23511              	.LASF240:
 23512 0c02 636D705F 		.ascii	"cmp_write_ext16\000"
 23512      77726974 
 23512      655F6578 
 23512      74313600 
 23513              	.LASF64:
 23514 0c12 434D505F 		.ascii	"CMP_TYPE_ARRAY32\000"
 23514      54595045 
 23514      5F415252 
 23514      41593332 
 23514      00
 23515              	.LASF16:
 23516 0c23 5F5F696E 		.ascii	"__int64_t\000"
 23516      7436345F 
 23516      7400
 23517              	.LASF296:
 23518 0c2d 636D705F 		.ascii	"cmp_write_s16\000"
 23518      77726974 
 23518      655F7331 
 23518      3600
 23519              	.LASF266:
 23520 0c3b 636D705F 		.ascii	"cmp_write_bin16\000"
 23520      77726974 
 23520      655F6269 
 23520      6E313600 
 23521              	.LASF2:
 23522 0c4b 6C6F6E67 		.ascii	"long double\000"
 23522      20646F75 
 23522      626C6500 
 23523              	.LASF274:
 23524 0c57 636D705F 		.ascii	"cmp_write_str16\000"
 23524      77726974 
 23524      655F7374 
 23524      72313600 
 23525              	.LASF22:
 23526 0c67 75696E74 		.ascii	"uint16_t\000"
 23526      31365F74 
 23526      00
 23527              	.LASF94:
 23528 0c70 42494E33 		.ascii	"BIN32_MARKER\000"
 23528      325F4D41 
 23528      524B4552 
 23528      00
 23529              	.LASF236:
 23530 0c7d 636D705F 		.ascii	"cmp_write_ext\000"
 23530      77726974 
 23530      655F6578 
ARM GAS  C:\Users\PCHAUT~1\AppData\Local\Temp\ccacj52E.s 			page 426


 23530      7400
 23531              	.LASF192:
 23532 0c8b 636D705F 		.ascii	"cmp_read_fixext16\000"
 23532      72656164 
 23532      5F666978 
 23532      65787431 
 23532      3600
 23533              	.LASF143:
 23534 0c9d 636D705F 		.ascii	"cmp_object_as_map\000"
 23534      6F626A65 
 23534      63745F61 
 23534      735F6D61 
 23534      7000
 23535              	.LASF243:
 23536 0caf 636D705F 		.ascii	"cmp_write_ext8_marker\000"
 23536      77726974 
 23536      655F6578 
 23536      74385F6D 
 23536      61726B65 
 23537              	.LASF211:
 23538 0cc5 636D705F 		.ascii	"cmp_read_double\000"
 23538      72656164 
 23538      5F646F75 
 23538      626C6500 
 23539              	.LASF87:
 23540 0cd5 46495841 		.ascii	"FIXARRAY_MARKER\000"
 23540      52524159 
 23540      5F4D4152 
 23540      4B455200 
 23541              	.LASF138:
 23542 0ce5 4C454E47 		.ascii	"LENGTH_READING_ERROR\000"
 23542      54485F52 
 23542      45414449 
 23542      4E475F45 
 23542      52524F52 
 23543              	.LASF234:
 23544 0cfa 636D705F 		.ascii	"cmp_read_pfix\000"
 23544      72656164 
 23544      5F706669 
 23544      7800
 23545              	.LASF155:
 23546 0d08 636D705F 		.ascii	"cmp_object_as_sinteger\000"
 23546      6F626A65 
 23546      63745F61 
 23546      735F7369 
 23546      6E746567 
 23547              	.LASF255:
 23548 0d1f 636D705F 		.ascii	"cmp_write_map32\000"
 23548      77726974 
 23548      655F6D61 
 23548      70333200 
 23549              	.LASF116:
 23550 0d2f 41525241 		.ascii	"ARRAY16_MARKER\000"
 23550      5931365F 
 23550      4D41524B 
 23550      455200
 23551              	.LASF214:
ARM GAS  C:\Users\PCHAUT~1\AppData\Local\Temp\ccacj52E.s 			page 427


 23552 0d3e 636D705F 		.ascii	"cmp_read_ulong\000"
 23552      72656164 
 23552      5F756C6F 
 23552      6E6700
 23553              	.LASF9:
 23554 0d4d 73686F72 		.ascii	"short int\000"
 23554      7420696E 
 23554      7400
 23555              	.LASF102:
 23556 0d57 5533325F 		.ascii	"U32_MARKER\000"
 23556      4D41524B 
 23556      455200
 23557              	.LASF43:
 23558 0d62 434D505F 		.ascii	"CMP_TYPE_EXT16\000"
 23558      54595045 
 23558      5F455854 
 23558      313600
 23559              	.LASF13:
 23560 0d71 6C6F6E67 		.ascii	"long int\000"
 23560      20696E74 
 23560      00
 23561              	.LASF158:
 23562 0d7a 636D705F 		.ascii	"cmp_object_as_short\000"
 23562      6F626A65 
 23562      63745F61 
 23562      735F7368 
 23562      6F727400 
 23563              	.LASF115:
 23564 0d8e 53545233 		.ascii	"STR32_MARKER\000"
 23564      325F4D41 
 23564      524B4552 
 23564      00
 23565              	.LASF40:
 23566 0d9b 434D505F 		.ascii	"CMP_TYPE_BIN16\000"
 23566      54595045 
 23566      5F42494E 
 23566      313600
 23567              	.LASF123:
 23568 0daa 46495853 		.ascii	"FIXSTR_SIZE\000"
 23568      54525F53 
 23568      495A4500 
 23569              	.LASF61:
 23570 0db6 434D505F 		.ascii	"CMP_TYPE_STR16\000"
 23570      54595045 
 23570      5F535452 
 23570      313600
 23571              	.LASF163:
 23572 0dc5 636D705F 		.ascii	"cmp_object_is_bin\000"
 23572      6F626A65 
 23572      63745F69 
 23572      735F6269 
 23572      6E00
 23573              	.LASF85:
 23574 0dd7 504F5349 		.ascii	"POSITIVE_FIXNUM_MARKER\000"
 23574      54495645 
 23574      5F464958 
 23574      4E554D5F 
ARM GAS  C:\Users\PCHAUT~1\AppData\Local\Temp\ccacj52E.s 			page 428


 23574      4D41524B 
 23575              	.LASF162:
 23576 0dee 636D705F 		.ascii	"cmp_object_is_array\000"
 23576      6F626A65 
 23576      63745F69 
 23576      735F6172 
 23576      72617900 
 23577              	.LASF49:
 23578 0e02 434D505F 		.ascii	"CMP_TYPE_UINT32\000"
 23578      54595045 
 23578      5F55494E 
 23578      54333200 
 23579              	.LASF260:
 23580 0e12 636D705F 		.ascii	"cmp_write_array16\000"
 23580      77726974 
 23580      655F6172 
 23580      72617931 
 23580      3600
 23581              	.LASF278:
 23582 0e24 636D705F 		.ascii	"cmp_write_fixstr\000"
 23582      77726974 
 23582      655F6669 
 23582      78737472 
 23582      00
 23583              	.LASF281:
 23584 0e35 636D705F 		.ascii	"cmp_write_bool\000"
 23584      77726974 
 23584      655F626F 
 23584      6F6C00
 23585              	.LASF26:
 23586 0e44 75696E74 		.ascii	"uint64_t\000"
 23586      36345F74 
 23586      00
 23587              	.LASF232:
 23588 0e4d 636D705F 		.ascii	"cmp_read_sfix\000"
 23588      72656164 
 23588      5F736669 
 23588      7800
 23589              	.LASF117:
 23590 0e5b 41525241 		.ascii	"ARRAY32_MARKER\000"
 23590      5933325F 
 23590      4D41524B 
 23590      455200
 23591              	.LASF74:
 23592 0e6a 61727261 		.ascii	"array_size\000"
 23592      795F7369 
 23592      7A6500
 23593              	.LASF54:
 23594 0e75 434D505F 		.ascii	"CMP_TYPE_SINT64\000"
 23594      54595045 
 23594      5F53494E 
 23594      54363400 
 23595              	.LASF122:
 23596 0e85 4649584D 		.ascii	"FIXMAP_SIZE\000"
 23596      41505F53 
 23596      495A4500 
 23597              	.LASF132:
ARM GAS  C:\Users\PCHAUT~1\AppData\Local\Temp\ccacj52E.s 			page 429


 23598 0e91 54595045 		.ascii	"TYPE_MARKER_WRITING_ERROR\000"
 23598      5F4D4152 
 23598      4B45525F 
 23598      57524954 
 23598      494E475F 
 23599              	.LASF130:
 23600 0eab 46495845 		.ascii	"FIXED_VALUE_WRITING_ERROR\000"
 23600      445F5641 
 23600      4C55455F 
 23600      57524954 
 23600      494E475F 
 23601              	.LASF307:
 23602 0ec5 6D61726B 		.ascii	"marker\000"
 23602      657200
 23603              	.LASF6:
 23604 0ecc 5F5F7569 		.ascii	"__uint8_t\000"
 23604      6E74385F 
 23604      7400
 23605              	.LASF308:
 23606 0ed6 72656164 		.ascii	"read_type_marker\000"
 23606      5F747970 
 23606      655F6D61 
 23606      726B6572 
 23606      00
 23607              	.LASF264:
 23608 0ee7 636D705F 		.ascii	"cmp_write_bin32\000"
 23608      77726974 
 23608      655F6269 
 23608      6E333200 
 23609              	.LASF30:
 23610 0ef7 72656164 		.ascii	"read\000"
 23610      00
 23611              	.LASF311:
 23612 0efc 6265646F 		.ascii	"bedouble\000"
 23612      75626C65 
 23612      00
 23613              	.LASF277:
 23614 0f05 636D705F 		.ascii	"cmp_write_str8_marker\000"
 23614      77726974 
 23614      655F7374 
 23614      72385F6D 
 23614      61726B65 
 23615              	.LASF101:
 23616 0f1b 5531365F 		.ascii	"U16_MARKER\000"
 23616      4D41524B 
 23616      455200
 23617              	.LASF125:
 23618 0f26 5354525F 		.ascii	"STR_DATA_LENGTH_TOO_LONG_ERROR\000"
 23618      44415441 
 23618      5F4C454E 
 23618      4754485F 
 23618      544F4F5F 
 23619              	.LASF305:
 23620 0f45 77726974 		.ascii	"write_fixed_value\000"
 23620      655F6669 
 23620      7865645F 
 23620      76616C75 
ARM GAS  C:\Users\PCHAUT~1\AppData\Local\Temp\ccacj52E.s 			page 430


 23620      6500
 23621              	.LASF38:
 23622 0f57 434D505F 		.ascii	"CMP_TYPE_BOOLEAN\000"
 23622      54595045 
 23622      5F424F4F 
 23622      4C45414E 
 23622      00
 23623              	.LASF176:
 23624 0f68 636D705F 		.ascii	"cmp_object_is_int\000"
 23624      6F626A65 
 23624      63745F69 
 23624      735F696E 
 23624      7400
 23625              	.LASF159:
 23626 0f7a 636D705F 		.ascii	"cmp_object_as_char\000"
 23626      6F626A65 
 23626      63745F61 
 23626      735F6368 
 23626      617200
 23627              	.LASF251:
 23628 0f8d 636D705F 		.ascii	"cmp_write_fixext2_marker\000"
 23628      77726974 
 23628      655F6669 
 23628      78657874 
 23628      325F6D61 
 23629              	.LASF37:
 23630 0fa6 434D505F 		.ascii	"CMP_TYPE_NIL\000"
 23630      54595045 
 23630      5F4E494C 
 23630      00
 23631              	.LASF15:
 23632 0fb3 6C6F6E67 		.ascii	"long unsigned int\000"
 23632      20756E73 
 23632      69676E65 
 23632      6420696E 
 23632      7400
 23633              	.LASF27:
 23634 0fc5 636D705F 		.ascii	"cmp_reader\000"
 23634      72656164 
 23634      657200
 23635              	.LASF316:
 23636 0fd0 474E5520 		.ascii	"GNU C11 7.2.1 20170904 (release) [ARM/embedded-7-br"
 23636      43313120 
 23636      372E322E 
 23636      31203230 
 23636      31373039 
 23637 1003 616E6368 		.ascii	"anch revision 255204] -mcpu=cortex-m4 -mfloat-abi=h"
 23637      20726576 
 23637      6973696F 
 23637      6E203235 
 23637      35323034 
 23638 1036 61726420 		.ascii	"ard -mfpu=fpv4-sp-d16 -mno-thumb-interwork -mthumb "
 23638      2D6D6670 
 23638      753D6670 
 23638      76342D73 
 23638      702D6431 
 23639 1069 2D676764 		.ascii	"-ggdb -O0 -fomit-frame-pointer -falign-functions=16"
ARM GAS  C:\Users\PCHAUT~1\AppData\Local\Temp\ccacj52E.s 			page 431


 23639      62202D4F 
 23639      30202D66 
 23639      6F6D6974 
 23639      2D667261 
 23640 109c 202D666E 		.ascii	" -fno-strict-aliasing -fstack-protector-all -ffunct"
 23640      6F2D7374 
 23640      72696374 
 23640      2D616C69 
 23640      6173696E 
 23641 10cf 696F6E2D 		.ascii	"ion-sections -fdata-sections -fno-common -fsingle-p"
 23641      73656374 
 23641      696F6E73 
 23641      202D6664 
 23641      6174612D 
 23642 1102 72656369 		.ascii	"recision-constant\000"
 23642      73696F6E 
 23642      2D636F6E 
 23642      7374616E 
 23642      7400
 23643              	.LASF35:
 23644 1114 434D505F 		.ascii	"CMP_TYPE_FIXARRAY\000"
 23644      54595045 
 23644      5F464958 
 23644      41525241 
 23644      5900
 23645              	.LASF294:
 23646 1126 636D705F 		.ascii	"cmp_write_s64\000"
 23646      77726974 
 23646      655F7336 
 23646      3400
 23647              	.LASF145:
 23648 1134 636D705F 		.ascii	"cmp_object_as_bin\000"
 23648      6F626A65 
 23648      63745F61 
 23648      735F6269 
 23648      6E00
 23649              	.LASF23:
 23650 1146 696E7433 		.ascii	"int32_t\000"
 23650      325F7400 
 23651              	.LASF44:
 23652 114e 434D505F 		.ascii	"CMP_TYPE_EXT32\000"
 23652      54595045 
 23652      5F455854 
 23652      333200
 23653              	.LASF210:
 23654 115d 636D705F 		.ascii	"cmp_read_nil\000"
 23654      72656164 
 23654      5F6E696C 
 23654      00
 23655              	.LASF144:
 23656 116a 636D705F 		.ascii	"cmp_object_as_array\000"
 23656      6F626A65 
 23656      63745F61 
 23656      735F6172 
 23656      72617900 
 23657              	.LASF41:
 23658 117e 434D505F 		.ascii	"CMP_TYPE_BIN32\000"
ARM GAS  C:\Users\PCHAUT~1\AppData\Local\Temp\ccacj52E.s 			page 432


 23658      54595045 
 23658      5F42494E 
 23658      333200
 23659              	.LASF285:
 23660 118d 636D705F 		.ascii	"cmp_write_double\000"
 23660      77726974 
 23660      655F646F 
 23660      75626C65 
 23660      00
 23661              	.LASF95:
 23662 119e 45585438 		.ascii	"EXT8_MARKER\000"
 23662      5F4D4152 
 23662      4B455200 
 23663              	.LASF62:
 23664 11aa 434D505F 		.ascii	"CMP_TYPE_STR32\000"
 23664      54595045 
 23664      5F535452 
 23664      333200
 23665              	.LASF242:
 23666 11b9 636D705F 		.ascii	"cmp_write_ext8\000"
 23666      77726974 
 23666      655F6578 
 23666      743800
 23667              	.LASF70:
 23668 11c8 74797065 		.ascii	"type\000"
 23668      00
 23669              	.LASF7:
 23670 11cd 756E7369 		.ascii	"unsigned char\000"
 23670      676E6564 
 23670      20636861 
 23670      7200
 23671              	.LASF14:
 23672 11db 5F5F7569 		.ascii	"__uint32_t\000"
 23672      6E743332 
 23672      5F7400
 23673              	.LASF136:
 23674 11e6 4558545F 		.ascii	"EXT_TYPE_WRITING_ERROR\000"
 23674      54595045 
 23674      5F575249 
 23674      54494E47 
 23674      5F455252 
 23675              	.LASF193:
 23676 11fd 636D705F 		.ascii	"cmp_read_fixext16_marker\000"
 23676      72656164 
 23676      5F666978 
 23676      65787431 
 23676      365F6D61 
 23677              	.LASF185:
 23678 1216 636D705F 		.ascii	"cmp_read_ext_marker\000"
 23678      72656164 
 23678      5F657874 
 23678      5F6D6172 
 23678      6B657200 
 23679              	.LASF235:
 23680 122a 636D705F 		.ascii	"cmp_write_object\000"
 23680      77726974 
 23680      655F6F62 
ARM GAS  C:\Users\PCHAUT~1\AppData\Local\Temp\ccacj52E.s 			page 433


 23680      6A656374 
 23680      00
 23681              	.LASF104:
 23682 123b 53385F4D 		.ascii	"S8_MARKER\000"
 23682      41524B45 
 23682      5200
 23683              	.LASF217:
 23684 1245 636D705F 		.ascii	"cmp_read_uchar\000"
 23684      72656164 
 23684      5F756368 
 23684      617200
 23685              	.LASF127:
 23686 1254 41525241 		.ascii	"ARRAY_LENGTH_TOO_LONG_ERROR\000"
 23686      595F4C45 
 23686      4E475448 
 23686      5F544F4F 
 23686      5F4C4F4E 
 23687              	.LASF220:
 23688 1270 636D705F 		.ascii	"cmp_read_u16\000"
 23688      72656164 
 23688      5F753136 
 23688      00
 23689              	.LASF205:
 23690 127d 636D705F 		.ascii	"cmp_read_bin_size\000"
 23690      72656164 
 23690      5F62696E 
 23690      5F73697A 
 23690      6500
 23691              	.LASF91:
 23692 128f 54525545 		.ascii	"TRUE_MARKER\000"
 23692      5F4D4152 
 23692      4B455200 
 23693              	.LASF263:
 23694 129b 636D705F 		.ascii	"cmp_write_bin_marker\000"
 23694      77726974 
 23694      655F6269 
 23694      6E5F6D61 
 23694      726B6572 
 23695              	.LASF160:
 23696 12b0 636D705F 		.ascii	"cmp_object_is_ext\000"
 23696      6F626A65 
 23696      63745F69 
 23696      735F6578 
 23696      7400
 23697              	.LASF262:
 23698 12c2 636D705F 		.ascii	"cmp_write_bin\000"
 23698      77726974 
 23698      655F6269 
 23698      6E00
 23699              	.LASF55:
 23700 12d0 434D505F 		.ascii	"CMP_TYPE_FIXEXT1\000"
 23700      54595045 
 23700      5F464958 
 23700      45585431 
 23700      00
 23701              	.LASF56:
 23702 12e1 434D505F 		.ascii	"CMP_TYPE_FIXEXT2\000"
ARM GAS  C:\Users\PCHAUT~1\AppData\Local\Temp\ccacj52E.s 			page 434


 23702      54595045 
 23702      5F464958 
 23702      45585432 
 23702      00
 23703              	.LASF57:
 23704 12f2 434D505F 		.ascii	"CMP_TYPE_FIXEXT4\000"
 23704      54595045 
 23704      5F464958 
 23704      45585434 
 23704      00
 23705              	.LASF202:
 23706 1303 636D705F 		.ascii	"cmp_read_map\000"
 23706      72656164 
 23706      5F6D6170 
 23706      00
 23707              	.LASF58:
 23708 1310 434D505F 		.ascii	"CMP_TYPE_FIXEXT8\000"
 23708      54595045 
 23708      5F464958 
 23708      45585438 
 23708      00
 23709              	.LASF147:
 23710 1321 636D705F 		.ascii	"cmp_object_as_bool\000"
 23710      6F626A65 
 23710      63745F61 
 23710      735F626F 
 23710      6F6C00
 23711              	.LASF298:
 23712 1334 636D705F 		.ascii	"cmp_write_sfix\000"
 23712      77726974 
 23712      655F7366 
 23712      697800
 23713              	.LASF50:
 23714 1343 434D505F 		.ascii	"CMP_TYPE_UINT64\000"
 23714      54595045 
 23714      5F55494E 
 23714      54363400 
 23715              	.LASF5:
 23716 1353 7369676E 		.ascii	"signed char\000"
 23716      65642063 
 23716      68617200 
 23717              	.LASF157:
 23718 135f 636D705F 		.ascii	"cmp_object_as_int\000"
 23718      6F626A65 
 23718      63745F61 
 23718      735F696E 
 23718      7400
 23719              	.LASF11:
 23720 1371 73686F72 		.ascii	"short unsigned int\000"
 23720      7420756E 
 23720      7369676E 
 23720      65642069 
 23720      6E7400
 23721              	.LASF306:
 23722 1384 77726974 		.ascii	"write_type_marker\000"
 23722      655F7479 
 23722      70655F6D 
ARM GAS  C:\Users\PCHAUT~1\AppData\Local\Temp\ccacj52E.s 			page 435


 23722      61726B65 
 23722      7200
 23723              	.LASF33:
 23724 1396 434D505F 		.ascii	"CMP_TYPE_POSITIVE_FIXNUM\000"
 23724      54595045 
 23724      5F504F53 
 23724      49544956 
 23724      455F4649 
 23725              	.LASF252:
 23726 13af 636D705F 		.ascii	"cmp_write_fixext1\000"
 23726      77726974 
 23726      655F6669 
 23726      78657874 
 23726      3100
 23727              	.LASF250:
 23728 13c1 636D705F 		.ascii	"cmp_write_fixext2\000"
 23728      77726974 
 23728      655F6669 
 23728      78657874 
 23728      3200
 23729              	.LASF317:
 23730 13d3 2E2E2F6C 		.ascii	"../lib/e-puck2_main-processor/src/cmp/cmp.c\000"
 23730      69622F65 
 23730      2D707563 
 23730      6B325F6D 
 23730      61696E2D 
 23731              	.LASF248:
 23732 13ff 636D705F 		.ascii	"cmp_write_fixext4\000"
 23732      77726974 
 23732      655F6669 
 23732      78657874 
 23732      3400
 23733              	.LASF246:
 23734 1411 636D705F 		.ascii	"cmp_write_fixext8\000"
 23734      77726974 
 23734      655F6669 
 23734      78657874 
 23734      3800
 23735              	.LASF269:
 23736 1423 636D705F 		.ascii	"cmp_write_bin8_marker\000"
 23736      77726974 
 23736      655F6269 
 23736      6E385F6D 
 23736      61726B65 
 23737              	.LASF113:
 23738 1439 53545238 		.ascii	"STR8_MARKER\000"
 23738      5F4D4152 
 23738      4B455200 
 23739              	.LASF79:
 23740 1445 646F7562 		.ascii	"double\000"
 23740      6C6500
 23741              	.LASF46:
 23742 144c 434D505F 		.ascii	"CMP_TYPE_DOUBLE\000"
 23742      54595045 
 23742      5F444F55 
 23742      424C4500 
 23743              	.LASF319:
ARM GAS  C:\Users\PCHAUT~1\AppData\Local\Temp\ccacj52E.s 			page 436


 23744 145c 636D705F 		.ascii	"cmp_object_data_u\000"
 23744      6F626A65 
 23744      63745F64 
 23744      6174615F 
 23744      7500
 23745              	.LASF109:
 23746 146e 46495845 		.ascii	"FIXEXT2_MARKER\000"
 23746      5854325F 
 23746      4D41524B 
 23746      455200
 23747              	.LASF256:
 23748 147d 636D705F 		.ascii	"cmp_write_map16\000"
 23748      77726974 
 23748      655F6D61 
 23748      70313600 
 23749              	.LASF270:
 23750 148d 636D705F 		.ascii	"cmp_write_str\000"
 23750      77726974 
 23750      655F7374 
 23750      7200
 23751              	.LASF276:
 23752 149b 636D705F 		.ascii	"cmp_write_str8\000"
 23752      77726974 
 23752      655F7374 
 23752      723800
 23753              	.LASF142:
 23754 14aa 636D705F 		.ascii	"cmp_object_as_ext\000"
 23754      6F626A65 
 23754      63745F61 
 23754      735F6578 
 23754      7400
 23755              	.LASF265:
 23756 14bc 636D705F 		.ascii	"cmp_write_bin32_marker\000"
 23756      77726974 
 23756      655F6269 
 23756      6E33325F 
 23756      6D61726B 
 23757              	.LASF253:
 23758 14d3 636D705F 		.ascii	"cmp_write_fixext1_marker\000"
 23758      77726974 
 23758      655F6669 
 23758      78657874 
 23758      315F6D61 
 23759              	.LASF107:
 23760 14ec 5336345F 		.ascii	"S64_MARKER\000"
 23760      4D41524B 
 23760      455200
 23761              	.LASF89:
 23762 14f7 4E494C5F 		.ascii	"NIL_MARKER\000"
 23762      4D41524B 
 23762      455200
 23763              	.LASF175:
 23764 1502 636D705F 		.ascii	"cmp_object_is_long\000"
 23764      6F626A65 
 23764      63745F69 
 23764      735F6C6F 
 23764      6E6700
ARM GAS  C:\Users\PCHAUT~1\AppData\Local\Temp\ccacj52E.s 			page 437


 23765              		.ident	"GCC: (GNU Tools for Arm Embedded Processors 7-2017-q4-major) 7.2.1 20170904 (release) [ARM
ARM GAS  C:\Users\PCHAUT~1\AppData\Local\Temp\ccacj52E.s 			page 438


DEFINED SYMBOLS
                            *ABS*:00000000 cmp.c
C:\Users\PCHAUT~1\AppData\Local\Temp\ccacj52E.s:18     .rodata.version:00000000 $d
C:\Users\PCHAUT~1\AppData\Local\Temp\ccacj52E.s:21     .rodata.version:00000000 version
C:\Users\PCHAUT~1\AppData\Local\Temp\ccacj52E.s:24     .rodata.mp_version:00000000 $d
C:\Users\PCHAUT~1\AppData\Local\Temp\ccacj52E.s:27     .rodata.mp_version:00000000 mp_version
C:\Users\PCHAUT~1\AppData\Local\Temp\ccacj52E.s:88     .data.cmp_error_messages:00000000 cmp_error_messages
C:\Users\PCHAUT~1\AppData\Local\Temp\ccacj52E.s:31     .rodata:00000000 $d
C:\Users\PCHAUT~1\AppData\Local\Temp\ccacj52E.s:85     .data.cmp_error_messages:00000000 $d
C:\Users\PCHAUT~1\AppData\Local\Temp\ccacj52E.s:107    .rodata._i:00000000 $d
C:\Users\PCHAUT~1\AppData\Local\Temp\ccacj52E.s:110    .rodata._i:00000000 _i
C:\Users\PCHAUT~1\AppData\Local\Temp\ccacj52E.s:113    .text.be16:00000000 $t
C:\Users\PCHAUT~1\AppData\Local\Temp\ccacj52E.s:120    .text.be16:00000000 be16
C:\Users\PCHAUT~1\AppData\Local\Temp\ccacj52E.s:184    .text.be16:00000058 $d
C:\Users\PCHAUT~1\AppData\Local\Temp\ccacj52E.s:190    .text.be32:00000000 $t
C:\Users\PCHAUT~1\AppData\Local\Temp\ccacj52E.s:197    .text.be32:00000000 be32
C:\Users\PCHAUT~1\AppData\Local\Temp\ccacj52E.s:274    .text.be32:0000006c $d
C:\Users\PCHAUT~1\AppData\Local\Temp\ccacj52E.s:280    .text.be64:00000000 $t
C:\Users\PCHAUT~1\AppData\Local\Temp\ccacj52E.s:287    .text.be64:00000000 be64
C:\Users\PCHAUT~1\AppData\Local\Temp\ccacj52E.s:396    .text.be64:000000a8 $d
C:\Users\PCHAUT~1\AppData\Local\Temp\ccacj52E.s:402    .text.befloat:00000000 $t
C:\Users\PCHAUT~1\AppData\Local\Temp\ccacj52E.s:409    .text.befloat:00000000 befloat
C:\Users\PCHAUT~1\AppData\Local\Temp\ccacj52E.s:487    .text.befloat:00000074 $d
C:\Users\PCHAUT~1\AppData\Local\Temp\ccacj52E.s:493    .text.bedouble:00000000 $t
C:\Users\PCHAUT~1\AppData\Local\Temp\ccacj52E.s:500    .text.bedouble:00000000 bedouble
C:\Users\PCHAUT~1\AppData\Local\Temp\ccacj52E.s:610    .text.bedouble:000000b0 $d
C:\Users\PCHAUT~1\AppData\Local\Temp\ccacj52E.s:616    .text.read_byte:00000000 $t
C:\Users\PCHAUT~1\AppData\Local\Temp\ccacj52E.s:623    .text.read_byte:00000000 read_byte
C:\Users\PCHAUT~1\AppData\Local\Temp\ccacj52E.s:665    .text.read_byte:00000034 $d
C:\Users\PCHAUT~1\AppData\Local\Temp\ccacj52E.s:670    .text.write_byte:00000000 $t
C:\Users\PCHAUT~1\AppData\Local\Temp\ccacj52E.s:677    .text.write_byte:00000000 write_byte
C:\Users\PCHAUT~1\AppData\Local\Temp\ccacj52E.s:725    .text.write_byte:00000044 $d
C:\Users\PCHAUT~1\AppData\Local\Temp\ccacj52E.s:730    .text.read_type_marker:00000000 $t
C:\Users\PCHAUT~1\AppData\Local\Temp\ccacj52E.s:737    .text.read_type_marker:00000000 read_type_marker
C:\Users\PCHAUT~1\AppData\Local\Temp\ccacj52E.s:788    .text.read_type_marker:00000040 $d
C:\Users\PCHAUT~1\AppData\Local\Temp\ccacj52E.s:793    .text.write_type_marker:00000000 $t
C:\Users\PCHAUT~1\AppData\Local\Temp\ccacj52E.s:800    .text.write_type_marker:00000000 write_type_marker
C:\Users\PCHAUT~1\AppData\Local\Temp\ccacj52E.s:853    .text.write_type_marker:00000048 $d
C:\Users\PCHAUT~1\AppData\Local\Temp\ccacj52E.s:858    .text.write_fixed_value:00000000 $t
C:\Users\PCHAUT~1\AppData\Local\Temp\ccacj52E.s:865    .text.write_fixed_value:00000000 write_fixed_value
C:\Users\PCHAUT~1\AppData\Local\Temp\ccacj52E.s:918    .text.write_fixed_value:00000048 $d
C:\Users\PCHAUT~1\AppData\Local\Temp\ccacj52E.s:923    .text.cmp_init:00000000 $t
C:\Users\PCHAUT~1\AppData\Local\Temp\ccacj52E.s:931    .text.cmp_init:00000000 cmp_init
C:\Users\PCHAUT~1\AppData\Local\Temp\ccacj52E.s:982    .text.cmp_init:00000040 $d
C:\Users\PCHAUT~1\AppData\Local\Temp\ccacj52E.s:987    .text.cmp_version:00000000 $t
C:\Users\PCHAUT~1\AppData\Local\Temp\ccacj52E.s:995    .text.cmp_version:00000000 cmp_version
C:\Users\PCHAUT~1\AppData\Local\Temp\ccacj52E.s:1028   .text.cmp_version:00000024 $d
C:\Users\PCHAUT~1\AppData\Local\Temp\ccacj52E.s:1033   .text.cmp_mp_version:00000000 $t
C:\Users\PCHAUT~1\AppData\Local\Temp\ccacj52E.s:1041   .text.cmp_mp_version:00000000 cmp_mp_version
C:\Users\PCHAUT~1\AppData\Local\Temp\ccacj52E.s:1074   .text.cmp_mp_version:00000024 $d
C:\Users\PCHAUT~1\AppData\Local\Temp\ccacj52E.s:1083   .text.cmp_strerror:00000000 $t
C:\Users\PCHAUT~1\AppData\Local\Temp\ccacj52E.s:1091   .text.cmp_strerror:00000000 cmp_strerror
C:\Users\PCHAUT~1\AppData\Local\Temp\ccacj52E.s:1144   .text.cmp_strerror:00000044 $d
C:\Users\PCHAUT~1\AppData\Local\Temp\ccacj52E.s:1151   .text.cmp_write_pfix:00000000 $t
C:\Users\PCHAUT~1\AppData\Local\Temp\ccacj52E.s:1159   .text.cmp_write_pfix:00000000 cmp_write_pfix
C:\Users\PCHAUT~1\AppData\Local\Temp\ccacj52E.s:1212   .text.cmp_write_pfix:00000048 $d
C:\Users\PCHAUT~1\AppData\Local\Temp\ccacj52E.s:1217   .text.cmp_write_nfix:00000000 $t
ARM GAS  C:\Users\PCHAUT~1\AppData\Local\Temp\ccacj52E.s 			page 439


C:\Users\PCHAUT~1\AppData\Local\Temp\ccacj52E.s:1225   .text.cmp_write_nfix:00000000 cmp_write_nfix
C:\Users\PCHAUT~1\AppData\Local\Temp\ccacj52E.s:1282   .text.cmp_write_nfix:00000054 $d
C:\Users\PCHAUT~1\AppData\Local\Temp\ccacj52E.s:1287   .text.cmp_write_sfix:00000000 $t
C:\Users\PCHAUT~1\AppData\Local\Temp\ccacj52E.s:1295   .text.cmp_write_sfix:00000000 cmp_write_sfix
C:\Users\PCHAUT~1\AppData\Local\Temp\ccacj52E.s:1364   .text.cmp_write_sfix:0000006c $d
C:\Users\PCHAUT~1\AppData\Local\Temp\ccacj52E.s:1369   .text.cmp_write_s8:00000000 $t
C:\Users\PCHAUT~1\AppData\Local\Temp\ccacj52E.s:1377   .text.cmp_write_s8:00000000 cmp_write_s8
C:\Users\PCHAUT~1\AppData\Local\Temp\ccacj52E.s:1439   .text.cmp_write_s8:0000005c $d
C:\Users\PCHAUT~1\AppData\Local\Temp\ccacj52E.s:1444   .text.cmp_write_s16:00000000 $t
C:\Users\PCHAUT~1\AppData\Local\Temp\ccacj52E.s:1452   .text.cmp_write_s16:00000000 cmp_write_s16
C:\Users\PCHAUT~1\AppData\Local\Temp\ccacj52E.s:1522   .text.cmp_write_s16:00000070 $d
C:\Users\PCHAUT~1\AppData\Local\Temp\ccacj52E.s:1527   .text.cmp_write_s32:00000000 $t
C:\Users\PCHAUT~1\AppData\Local\Temp\ccacj52E.s:1535   .text.cmp_write_s32:00000000 cmp_write_s32
C:\Users\PCHAUT~1\AppData\Local\Temp\ccacj52E.s:1602   .text.cmp_write_s32:00000060 $d
C:\Users\PCHAUT~1\AppData\Local\Temp\ccacj52E.s:1607   .text.cmp_write_s64:00000000 $t
C:\Users\PCHAUT~1\AppData\Local\Temp\ccacj52E.s:1615   .text.cmp_write_s64:00000000 cmp_write_s64
C:\Users\PCHAUT~1\AppData\Local\Temp\ccacj52E.s:1685   .text.cmp_write_s64:00000068 $d
C:\Users\PCHAUT~1\AppData\Local\Temp\ccacj52E.s:1690   .text.cmp_write_sint:00000000 $t
C:\Users\PCHAUT~1\AppData\Local\Temp\ccacj52E.s:1698   .text.cmp_write_sint:00000000 cmp_write_sint
C:\Users\PCHAUT~1\AppData\Local\Temp\ccacj52E.s:2196   .text.cmp_write_uint:00000000 cmp_write_uint
C:\Users\PCHAUT~1\AppData\Local\Temp\ccacj52E.s:1810   .text.cmp_write_sint:000000d4 $d
C:\Users\PCHAUT~1\AppData\Local\Temp\ccacj52E.s:1816   .text.cmp_write_ufix:00000000 $t
C:\Users\PCHAUT~1\AppData\Local\Temp\ccacj52E.s:1824   .text.cmp_write_ufix:00000000 cmp_write_ufix
C:\Users\PCHAUT~1\AppData\Local\Temp\ccacj52E.s:1864   .text.cmp_write_ufix:00000038 $d
C:\Users\PCHAUT~1\AppData\Local\Temp\ccacj52E.s:1869   .text.cmp_write_u8:00000000 $t
C:\Users\PCHAUT~1\AppData\Local\Temp\ccacj52E.s:1877   .text.cmp_write_u8:00000000 cmp_write_u8
C:\Users\PCHAUT~1\AppData\Local\Temp\ccacj52E.s:1939   .text.cmp_write_u8:0000005c $d
C:\Users\PCHAUT~1\AppData\Local\Temp\ccacj52E.s:1944   .text.cmp_write_u16:00000000 $t
C:\Users\PCHAUT~1\AppData\Local\Temp\ccacj52E.s:1952   .text.cmp_write_u16:00000000 cmp_write_u16
C:\Users\PCHAUT~1\AppData\Local\Temp\ccacj52E.s:2020   .text.cmp_write_u16:0000006c $d
C:\Users\PCHAUT~1\AppData\Local\Temp\ccacj52E.s:2025   .text.cmp_write_u32:00000000 $t
C:\Users\PCHAUT~1\AppData\Local\Temp\ccacj52E.s:2033   .text.cmp_write_u32:00000000 cmp_write_u32
C:\Users\PCHAUT~1\AppData\Local\Temp\ccacj52E.s:2100   .text.cmp_write_u32:00000060 $d
C:\Users\PCHAUT~1\AppData\Local\Temp\ccacj52E.s:2105   .text.cmp_write_u64:00000000 $t
C:\Users\PCHAUT~1\AppData\Local\Temp\ccacj52E.s:2113   .text.cmp_write_u64:00000000 cmp_write_u64
C:\Users\PCHAUT~1\AppData\Local\Temp\ccacj52E.s:2183   .text.cmp_write_u64:00000068 $d
C:\Users\PCHAUT~1\AppData\Local\Temp\ccacj52E.s:2188   .text.cmp_write_uint:00000000 $t
C:\Users\PCHAUT~1\AppData\Local\Temp\ccacj52E.s:2294   .text.cmp_write_uint:000000a8 $d
C:\Users\PCHAUT~1\AppData\Local\Temp\ccacj52E.s:2299   .text.cmp_write_float:00000000 $t
C:\Users\PCHAUT~1\AppData\Local\Temp\ccacj52E.s:2307   .text.cmp_write_float:00000000 cmp_write_float
C:\Users\PCHAUT~1\AppData\Local\Temp\ccacj52E.s:2374   .text.cmp_write_float:0000006c $d
C:\Users\PCHAUT~1\AppData\Local\Temp\ccacj52E.s:2379   .text.cmp_write_double:00000000 $t
C:\Users\PCHAUT~1\AppData\Local\Temp\ccacj52E.s:2387   .text.cmp_write_double:00000000 cmp_write_double
C:\Users\PCHAUT~1\AppData\Local\Temp\ccacj52E.s:2456   .text.cmp_write_double:00000074 $d
C:\Users\PCHAUT~1\AppData\Local\Temp\ccacj52E.s:2461   .text.cmp_write_nil:00000000 $t
C:\Users\PCHAUT~1\AppData\Local\Temp\ccacj52E.s:2469   .text.cmp_write_nil:00000000 cmp_write_nil
C:\Users\PCHAUT~1\AppData\Local\Temp\ccacj52E.s:2506   .text.cmp_write_nil:0000002c $d
C:\Users\PCHAUT~1\AppData\Local\Temp\ccacj52E.s:2511   .text.cmp_write_true:00000000 $t
C:\Users\PCHAUT~1\AppData\Local\Temp\ccacj52E.s:2519   .text.cmp_write_true:00000000 cmp_write_true
C:\Users\PCHAUT~1\AppData\Local\Temp\ccacj52E.s:2556   .text.cmp_write_true:0000002c $d
C:\Users\PCHAUT~1\AppData\Local\Temp\ccacj52E.s:2561   .text.cmp_write_false:00000000 $t
C:\Users\PCHAUT~1\AppData\Local\Temp\ccacj52E.s:2569   .text.cmp_write_false:00000000 cmp_write_false
C:\Users\PCHAUT~1\AppData\Local\Temp\ccacj52E.s:2606   .text.cmp_write_false:0000002c $d
C:\Users\PCHAUT~1\AppData\Local\Temp\ccacj52E.s:2611   .text.cmp_write_bool:00000000 $t
C:\Users\PCHAUT~1\AppData\Local\Temp\ccacj52E.s:2619   .text.cmp_write_bool:00000000 cmp_write_bool
C:\Users\PCHAUT~1\AppData\Local\Temp\ccacj52E.s:2668   .text.cmp_write_bool:00000044 $d
C:\Users\PCHAUT~1\AppData\Local\Temp\ccacj52E.s:2673   .text.cmp_write_u8_as_bool:00000000 $t
ARM GAS  C:\Users\PCHAUT~1\AppData\Local\Temp\ccacj52E.s 			page 440


C:\Users\PCHAUT~1\AppData\Local\Temp\ccacj52E.s:2681   .text.cmp_write_u8_as_bool:00000000 cmp_write_u8_as_bool
C:\Users\PCHAUT~1\AppData\Local\Temp\ccacj52E.s:2730   .text.cmp_write_u8_as_bool:00000044 $d
C:\Users\PCHAUT~1\AppData\Local\Temp\ccacj52E.s:2735   .text.cmp_write_fixstr_marker:00000000 $t
C:\Users\PCHAUT~1\AppData\Local\Temp\ccacj52E.s:2743   .text.cmp_write_fixstr_marker:00000000 cmp_write_fixstr_marker
C:\Users\PCHAUT~1\AppData\Local\Temp\ccacj52E.s:2798   .text.cmp_write_fixstr_marker:00000050 $d
C:\Users\PCHAUT~1\AppData\Local\Temp\ccacj52E.s:2803   .text.cmp_write_fixstr:00000000 $t
C:\Users\PCHAUT~1\AppData\Local\Temp\ccacj52E.s:2811   .text.cmp_write_fixstr:00000000 cmp_write_fixstr
C:\Users\PCHAUT~1\AppData\Local\Temp\ccacj52E.s:2890   .text.cmp_write_fixstr:00000074 $d
C:\Users\PCHAUT~1\AppData\Local\Temp\ccacj52E.s:2895   .text.cmp_write_str8_marker:00000000 $t
C:\Users\PCHAUT~1\AppData\Local\Temp\ccacj52E.s:2903   .text.cmp_write_str8_marker:00000000 cmp_write_str8_marker
C:\Users\PCHAUT~1\AppData\Local\Temp\ccacj52E.s:2972   .text.cmp_write_str8_marker:00000060 $d
C:\Users\PCHAUT~1\AppData\Local\Temp\ccacj52E.s:2977   .text.cmp_write_str8:00000000 $t
C:\Users\PCHAUT~1\AppData\Local\Temp\ccacj52E.s:2985   .text.cmp_write_str8:00000000 cmp_write_str8
C:\Users\PCHAUT~1\AppData\Local\Temp\ccacj52E.s:3064   .text.cmp_write_str8:00000074 $d
C:\Users\PCHAUT~1\AppData\Local\Temp\ccacj52E.s:3069   .text.cmp_write_str16_marker:00000000 $t
C:\Users\PCHAUT~1\AppData\Local\Temp\ccacj52E.s:3077   .text.cmp_write_str16_marker:00000000 cmp_write_str16_marker
C:\Users\PCHAUT~1\AppData\Local\Temp\ccacj52E.s:3152   .text.cmp_write_str16_marker:00000070 $d
C:\Users\PCHAUT~1\AppData\Local\Temp\ccacj52E.s:3157   .text.cmp_write_str16:00000000 $t
C:\Users\PCHAUT~1\AppData\Local\Temp\ccacj52E.s:3165   .text.cmp_write_str16:00000000 cmp_write_str16
C:\Users\PCHAUT~1\AppData\Local\Temp\ccacj52E.s:3244   .text.cmp_write_str16:00000074 $d
C:\Users\PCHAUT~1\AppData\Local\Temp\ccacj52E.s:3249   .text.cmp_write_str32_marker:00000000 $t
C:\Users\PCHAUT~1\AppData\Local\Temp\ccacj52E.s:3257   .text.cmp_write_str32_marker:00000000 cmp_write_str32_marker
C:\Users\PCHAUT~1\AppData\Local\Temp\ccacj52E.s:3331   .text.cmp_write_str32_marker:00000068 $d
C:\Users\PCHAUT~1\AppData\Local\Temp\ccacj52E.s:3336   .text.cmp_write_str32:00000000 $t
C:\Users\PCHAUT~1\AppData\Local\Temp\ccacj52E.s:3344   .text.cmp_write_str32:00000000 cmp_write_str32
C:\Users\PCHAUT~1\AppData\Local\Temp\ccacj52E.s:3421   .text.cmp_write_str32:00000068 $d
C:\Users\PCHAUT~1\AppData\Local\Temp\ccacj52E.s:3426   .text.cmp_write_str_marker:00000000 $t
C:\Users\PCHAUT~1\AppData\Local\Temp\ccacj52E.s:3434   .text.cmp_write_str_marker:00000000 cmp_write_str_marker
C:\Users\PCHAUT~1\AppData\Local\Temp\ccacj52E.s:3512   .text.cmp_write_str_marker:00000074 $d
C:\Users\PCHAUT~1\AppData\Local\Temp\ccacj52E.s:3517   .text.cmp_write_str:00000000 $t
C:\Users\PCHAUT~1\AppData\Local\Temp\ccacj52E.s:3525   .text.cmp_write_str:00000000 cmp_write_str
C:\Users\PCHAUT~1\AppData\Local\Temp\ccacj52E.s:3608   .text.cmp_write_str:0000007c $d
C:\Users\PCHAUT~1\AppData\Local\Temp\ccacj52E.s:3613   .text.cmp_write_bin8_marker:00000000 $t
C:\Users\PCHAUT~1\AppData\Local\Temp\ccacj52E.s:3621   .text.cmp_write_bin8_marker:00000000 cmp_write_bin8_marker
C:\Users\PCHAUT~1\AppData\Local\Temp\ccacj52E.s:3690   .text.cmp_write_bin8_marker:00000060 $d
C:\Users\PCHAUT~1\AppData\Local\Temp\ccacj52E.s:3695   .text.cmp_write_bin8:00000000 $t
C:\Users\PCHAUT~1\AppData\Local\Temp\ccacj52E.s:3703   .text.cmp_write_bin8:00000000 cmp_write_bin8
C:\Users\PCHAUT~1\AppData\Local\Temp\ccacj52E.s:3782   .text.cmp_write_bin8:00000074 $d
C:\Users\PCHAUT~1\AppData\Local\Temp\ccacj52E.s:3787   .text.cmp_write_bin16_marker:00000000 $t
C:\Users\PCHAUT~1\AppData\Local\Temp\ccacj52E.s:3795   .text.cmp_write_bin16_marker:00000000 cmp_write_bin16_marker
C:\Users\PCHAUT~1\AppData\Local\Temp\ccacj52E.s:3870   .text.cmp_write_bin16_marker:00000070 $d
C:\Users\PCHAUT~1\AppData\Local\Temp\ccacj52E.s:3875   .text.cmp_write_bin16:00000000 $t
C:\Users\PCHAUT~1\AppData\Local\Temp\ccacj52E.s:3883   .text.cmp_write_bin16:00000000 cmp_write_bin16
C:\Users\PCHAUT~1\AppData\Local\Temp\ccacj52E.s:3962   .text.cmp_write_bin16:00000074 $d
C:\Users\PCHAUT~1\AppData\Local\Temp\ccacj52E.s:3967   .text.cmp_write_bin32_marker:00000000 $t
C:\Users\PCHAUT~1\AppData\Local\Temp\ccacj52E.s:3975   .text.cmp_write_bin32_marker:00000000 cmp_write_bin32_marker
C:\Users\PCHAUT~1\AppData\Local\Temp\ccacj52E.s:4049   .text.cmp_write_bin32_marker:00000068 $d
C:\Users\PCHAUT~1\AppData\Local\Temp\ccacj52E.s:4054   .text.cmp_write_bin32:00000000 $t
C:\Users\PCHAUT~1\AppData\Local\Temp\ccacj52E.s:4062   .text.cmp_write_bin32:00000000 cmp_write_bin32
C:\Users\PCHAUT~1\AppData\Local\Temp\ccacj52E.s:4139   .text.cmp_write_bin32:00000068 $d
C:\Users\PCHAUT~1\AppData\Local\Temp\ccacj52E.s:4144   .text.cmp_write_bin_marker:00000000 $t
C:\Users\PCHAUT~1\AppData\Local\Temp\ccacj52E.s:4152   .text.cmp_write_bin_marker:00000000 cmp_write_bin_marker
C:\Users\PCHAUT~1\AppData\Local\Temp\ccacj52E.s:4217   .text.cmp_write_bin_marker:0000005c $d
C:\Users\PCHAUT~1\AppData\Local\Temp\ccacj52E.s:4222   .text.cmp_write_bin:00000000 $t
C:\Users\PCHAUT~1\AppData\Local\Temp\ccacj52E.s:4230   .text.cmp_write_bin:00000000 cmp_write_bin
C:\Users\PCHAUT~1\AppData\Local\Temp\ccacj52E.s:4299   .text.cmp_write_bin:00000064 $d
C:\Users\PCHAUT~1\AppData\Local\Temp\ccacj52E.s:4304   .text.cmp_write_fixarray:00000000 $t
ARM GAS  C:\Users\PCHAUT~1\AppData\Local\Temp\ccacj52E.s 			page 441


C:\Users\PCHAUT~1\AppData\Local\Temp\ccacj52E.s:4312   .text.cmp_write_fixarray:00000000 cmp_write_fixarray
C:\Users\PCHAUT~1\AppData\Local\Temp\ccacj52E.s:4367   .text.cmp_write_fixarray:00000050 $d
C:\Users\PCHAUT~1\AppData\Local\Temp\ccacj52E.s:4372   .text.cmp_write_array16:00000000 $t
C:\Users\PCHAUT~1\AppData\Local\Temp\ccacj52E.s:4380   .text.cmp_write_array16:00000000 cmp_write_array16
C:\Users\PCHAUT~1\AppData\Local\Temp\ccacj52E.s:4455   .text.cmp_write_array16:00000070 $d
C:\Users\PCHAUT~1\AppData\Local\Temp\ccacj52E.s:4460   .text.cmp_write_array32:00000000 $t
C:\Users\PCHAUT~1\AppData\Local\Temp\ccacj52E.s:4468   .text.cmp_write_array32:00000000 cmp_write_array32
C:\Users\PCHAUT~1\AppData\Local\Temp\ccacj52E.s:4542   .text.cmp_write_array32:00000068 $d
C:\Users\PCHAUT~1\AppData\Local\Temp\ccacj52E.s:4547   .text.cmp_write_array:00000000 $t
C:\Users\PCHAUT~1\AppData\Local\Temp\ccacj52E.s:4555   .text.cmp_write_array:00000000 cmp_write_array
C:\Users\PCHAUT~1\AppData\Local\Temp\ccacj52E.s:4620   .text.cmp_write_array:0000005c $d
C:\Users\PCHAUT~1\AppData\Local\Temp\ccacj52E.s:4625   .text.cmp_write_fixmap:00000000 $t
C:\Users\PCHAUT~1\AppData\Local\Temp\ccacj52E.s:4633   .text.cmp_write_fixmap:00000000 cmp_write_fixmap
C:\Users\PCHAUT~1\AppData\Local\Temp\ccacj52E.s:4688   .text.cmp_write_fixmap:00000050 $d
C:\Users\PCHAUT~1\AppData\Local\Temp\ccacj52E.s:4693   .text.cmp_write_map16:00000000 $t
C:\Users\PCHAUT~1\AppData\Local\Temp\ccacj52E.s:4701   .text.cmp_write_map16:00000000 cmp_write_map16
C:\Users\PCHAUT~1\AppData\Local\Temp\ccacj52E.s:4776   .text.cmp_write_map16:00000070 $d
C:\Users\PCHAUT~1\AppData\Local\Temp\ccacj52E.s:4781   .text.cmp_write_map32:00000000 $t
C:\Users\PCHAUT~1\AppData\Local\Temp\ccacj52E.s:4789   .text.cmp_write_map32:00000000 cmp_write_map32
C:\Users\PCHAUT~1\AppData\Local\Temp\ccacj52E.s:4863   .text.cmp_write_map32:00000068 $d
C:\Users\PCHAUT~1\AppData\Local\Temp\ccacj52E.s:4868   .text.cmp_write_map:00000000 $t
C:\Users\PCHAUT~1\AppData\Local\Temp\ccacj52E.s:4876   .text.cmp_write_map:00000000 cmp_write_map
C:\Users\PCHAUT~1\AppData\Local\Temp\ccacj52E.s:4941   .text.cmp_write_map:0000005c $d
C:\Users\PCHAUT~1\AppData\Local\Temp\ccacj52E.s:4946   .text.cmp_write_fixext1_marker:00000000 $t
C:\Users\PCHAUT~1\AppData\Local\Temp\ccacj52E.s:4954   .text.cmp_write_fixext1_marker:00000000 cmp_write_fixext1_marker
C:\Users\PCHAUT~1\AppData\Local\Temp\ccacj52E.s:5023   .text.cmp_write_fixext1_marker:00000060 $d
C:\Users\PCHAUT~1\AppData\Local\Temp\ccacj52E.s:5028   .text.cmp_write_fixext1:00000000 $t
C:\Users\PCHAUT~1\AppData\Local\Temp\ccacj52E.s:5036   .text.cmp_write_fixext1:00000000 cmp_write_fixext1
C:\Users\PCHAUT~1\AppData\Local\Temp\ccacj52E.s:5107   .text.cmp_write_fixext1:00000064 $d
C:\Users\PCHAUT~1\AppData\Local\Temp\ccacj52E.s:5112   .text.cmp_write_fixext2_marker:00000000 $t
C:\Users\PCHAUT~1\AppData\Local\Temp\ccacj52E.s:5120   .text.cmp_write_fixext2_marker:00000000 cmp_write_fixext2_marker
C:\Users\PCHAUT~1\AppData\Local\Temp\ccacj52E.s:5189   .text.cmp_write_fixext2_marker:00000060 $d
C:\Users\PCHAUT~1\AppData\Local\Temp\ccacj52E.s:5194   .text.cmp_write_fixext2:00000000 $t
C:\Users\PCHAUT~1\AppData\Local\Temp\ccacj52E.s:5202   .text.cmp_write_fixext2:00000000 cmp_write_fixext2
C:\Users\PCHAUT~1\AppData\Local\Temp\ccacj52E.s:5273   .text.cmp_write_fixext2:00000064 $d
C:\Users\PCHAUT~1\AppData\Local\Temp\ccacj52E.s:5278   .text.cmp_write_fixext4_marker:00000000 $t
C:\Users\PCHAUT~1\AppData\Local\Temp\ccacj52E.s:5286   .text.cmp_write_fixext4_marker:00000000 cmp_write_fixext4_marker
C:\Users\PCHAUT~1\AppData\Local\Temp\ccacj52E.s:5355   .text.cmp_write_fixext4_marker:00000060 $d
C:\Users\PCHAUT~1\AppData\Local\Temp\ccacj52E.s:5360   .text.cmp_write_fixext4:00000000 $t
C:\Users\PCHAUT~1\AppData\Local\Temp\ccacj52E.s:5368   .text.cmp_write_fixext4:00000000 cmp_write_fixext4
C:\Users\PCHAUT~1\AppData\Local\Temp\ccacj52E.s:5439   .text.cmp_write_fixext4:00000064 $d
C:\Users\PCHAUT~1\AppData\Local\Temp\ccacj52E.s:5444   .text.cmp_write_fixext8_marker:00000000 $t
C:\Users\PCHAUT~1\AppData\Local\Temp\ccacj52E.s:5452   .text.cmp_write_fixext8_marker:00000000 cmp_write_fixext8_marker
C:\Users\PCHAUT~1\AppData\Local\Temp\ccacj52E.s:5521   .text.cmp_write_fixext8_marker:00000060 $d
C:\Users\PCHAUT~1\AppData\Local\Temp\ccacj52E.s:5526   .text.cmp_write_fixext8:00000000 $t
C:\Users\PCHAUT~1\AppData\Local\Temp\ccacj52E.s:5534   .text.cmp_write_fixext8:00000000 cmp_write_fixext8
C:\Users\PCHAUT~1\AppData\Local\Temp\ccacj52E.s:5605   .text.cmp_write_fixext8:00000064 $d
C:\Users\PCHAUT~1\AppData\Local\Temp\ccacj52E.s:5610   .text.cmp_write_fixext16_marker:00000000 $t
C:\Users\PCHAUT~1\AppData\Local\Temp\ccacj52E.s:5618   .text.cmp_write_fixext16_marker:00000000 cmp_write_fixext16_marker
C:\Users\PCHAUT~1\AppData\Local\Temp\ccacj52E.s:5687   .text.cmp_write_fixext16_marker:00000060 $d
C:\Users\PCHAUT~1\AppData\Local\Temp\ccacj52E.s:5692   .text.cmp_write_fixext16:00000000 $t
C:\Users\PCHAUT~1\AppData\Local\Temp\ccacj52E.s:5700   .text.cmp_write_fixext16:00000000 cmp_write_fixext16
C:\Users\PCHAUT~1\AppData\Local\Temp\ccacj52E.s:5771   .text.cmp_write_fixext16:00000064 $d
C:\Users\PCHAUT~1\AppData\Local\Temp\ccacj52E.s:5776   .text.cmp_write_ext8_marker:00000000 $t
C:\Users\PCHAUT~1\AppData\Local\Temp\ccacj52E.s:5784   .text.cmp_write_ext8_marker:00000000 cmp_write_ext8_marker
C:\Users\PCHAUT~1\AppData\Local\Temp\ccacj52E.s:5874   .text.cmp_write_ext8_marker:00000084 $d
C:\Users\PCHAUT~1\AppData\Local\Temp\ccacj52E.s:5879   .text.cmp_write_ext8:00000000 $t
ARM GAS  C:\Users\PCHAUT~1\AppData\Local\Temp\ccacj52E.s 			page 442


C:\Users\PCHAUT~1\AppData\Local\Temp\ccacj52E.s:5887   .text.cmp_write_ext8:00000000 cmp_write_ext8
C:\Users\PCHAUT~1\AppData\Local\Temp\ccacj52E.s:5961   .text.cmp_write_ext8:00000070 $d
C:\Users\PCHAUT~1\AppData\Local\Temp\ccacj52E.s:5966   .text.cmp_write_ext16_marker:00000000 $t
C:\Users\PCHAUT~1\AppData\Local\Temp\ccacj52E.s:5974   .text.cmp_write_ext16_marker:00000000 cmp_write_ext16_marker
C:\Users\PCHAUT~1\AppData\Local\Temp\ccacj52E.s:6070   .text.cmp_write_ext16_marker:00000094 $d
C:\Users\PCHAUT~1\AppData\Local\Temp\ccacj52E.s:6075   .text.cmp_write_ext16:00000000 $t
C:\Users\PCHAUT~1\AppData\Local\Temp\ccacj52E.s:6083   .text.cmp_write_ext16:00000000 cmp_write_ext16
C:\Users\PCHAUT~1\AppData\Local\Temp\ccacj52E.s:6157   .text.cmp_write_ext16:00000070 $d
C:\Users\PCHAUT~1\AppData\Local\Temp\ccacj52E.s:6162   .text.cmp_write_ext32_marker:00000000 $t
C:\Users\PCHAUT~1\AppData\Local\Temp\ccacj52E.s:6170   .text.cmp_write_ext32_marker:00000000 cmp_write_ext32_marker
C:\Users\PCHAUT~1\AppData\Local\Temp\ccacj52E.s:6265   .text.cmp_write_ext32_marker:0000008c $d
C:\Users\PCHAUT~1\AppData\Local\Temp\ccacj52E.s:6270   .text.cmp_write_ext32:00000000 $t
C:\Users\PCHAUT~1\AppData\Local\Temp\ccacj52E.s:6278   .text.cmp_write_ext32:00000000 cmp_write_ext32
C:\Users\PCHAUT~1\AppData\Local\Temp\ccacj52E.s:6351   .text.cmp_write_ext32:00000068 $d
C:\Users\PCHAUT~1\AppData\Local\Temp\ccacj52E.s:6356   .text.cmp_write_ext_marker:00000000 $t
C:\Users\PCHAUT~1\AppData\Local\Temp\ccacj52E.s:6364   .text.cmp_write_ext_marker:00000000 cmp_write_ext_marker
C:\Users\PCHAUT~1\AppData\Local\Temp\ccacj52E.s:6495   .text.cmp_write_ext_marker:000000e0 $d
C:\Users\PCHAUT~1\AppData\Local\Temp\ccacj52E.s:6500   .text.cmp_write_ext:00000000 $t
C:\Users\PCHAUT~1\AppData\Local\Temp\ccacj52E.s:6508   .text.cmp_write_ext:00000000 cmp_write_ext
C:\Users\PCHAUT~1\AppData\Local\Temp\ccacj52E.s:6645   .text.cmp_write_ext:000000ec $d
C:\Users\PCHAUT~1\AppData\Local\Temp\ccacj52E.s:6650   .text.cmp_write_object:00000000 $t
C:\Users\PCHAUT~1\AppData\Local\Temp\ccacj52E.s:6658   .text.cmp_write_object:00000000 cmp_write_object
C:\Users\PCHAUT~1\AppData\Local\Temp\ccacj52E.s:6685   .text.cmp_write_object:00000020 $d
C:\Users\PCHAUT~1\AppData\Local\Temp\ccacj52E.s:6720   .text.cmp_write_object:000000ac $t
C:\Users\PCHAUT~1\AppData\Local\Temp\ccacj52E.s:7027   .text.cmp_write_object:000002ec $d
C:\Users\PCHAUT~1\AppData\Local\Temp\ccacj52E.s:7030   .text.cmp_write_object:000002f0 $t
C:\Users\PCHAUT~1\AppData\Local\Temp\ccacj52E.s:7089   .text.cmp_write_object:00000350 $d
C:\Users\PCHAUT~1\AppData\Local\Temp\ccacj52E.s:7094   .text.cmp_read_pfix:00000000 $t
C:\Users\PCHAUT~1\AppData\Local\Temp\ccacj52E.s:7102   .text.cmp_read_pfix:00000000 cmp_read_pfix
C:\Users\PCHAUT~1\AppData\Local\Temp\ccacj52E.s:11788  .text.cmp_read_object:00000000 cmp_read_object
C:\Users\PCHAUT~1\AppData\Local\Temp\ccacj52E.s:7169   .text.cmp_read_pfix:0000005c $d
C:\Users\PCHAUT~1\AppData\Local\Temp\ccacj52E.s:7174   .text.cmp_read_nfix:00000000 $t
C:\Users\PCHAUT~1\AppData\Local\Temp\ccacj52E.s:7182   .text.cmp_read_nfix:00000000 cmp_read_nfix
C:\Users\PCHAUT~1\AppData\Local\Temp\ccacj52E.s:7249   .text.cmp_read_nfix:0000005c $d
C:\Users\PCHAUT~1\AppData\Local\Temp\ccacj52E.s:7254   .text.cmp_read_sfix:00000000 $t
C:\Users\PCHAUT~1\AppData\Local\Temp\ccacj52E.s:7262   .text.cmp_read_sfix:00000000 cmp_read_sfix
C:\Users\PCHAUT~1\AppData\Local\Temp\ccacj52E.s:7332   .text.cmp_read_sfix:00000060 $d
C:\Users\PCHAUT~1\AppData\Local\Temp\ccacj52E.s:7337   .text.cmp_read_s8:00000000 $t
C:\Users\PCHAUT~1\AppData\Local\Temp\ccacj52E.s:7345   .text.cmp_read_s8:00000000 cmp_read_s8
C:\Users\PCHAUT~1\AppData\Local\Temp\ccacj52E.s:7412   .text.cmp_read_s8:0000005c $d
C:\Users\PCHAUT~1\AppData\Local\Temp\ccacj52E.s:7417   .text.cmp_read_s16:00000000 $t
C:\Users\PCHAUT~1\AppData\Local\Temp\ccacj52E.s:7425   .text.cmp_read_s16:00000000 cmp_read_s16
C:\Users\PCHAUT~1\AppData\Local\Temp\ccacj52E.s:7492   .text.cmp_read_s16:0000005c $d
C:\Users\PCHAUT~1\AppData\Local\Temp\ccacj52E.s:7497   .text.cmp_read_s32:00000000 $t
C:\Users\PCHAUT~1\AppData\Local\Temp\ccacj52E.s:7505   .text.cmp_read_s32:00000000 cmp_read_s32
C:\Users\PCHAUT~1\AppData\Local\Temp\ccacj52E.s:7572   .text.cmp_read_s32:00000058 $d
C:\Users\PCHAUT~1\AppData\Local\Temp\ccacj52E.s:7577   .text.cmp_read_s64:00000000 $t
C:\Users\PCHAUT~1\AppData\Local\Temp\ccacj52E.s:7585   .text.cmp_read_s64:00000000 cmp_read_s64
C:\Users\PCHAUT~1\AppData\Local\Temp\ccacj52E.s:7653   .text.cmp_read_s64:0000005c $d
C:\Users\PCHAUT~1\AppData\Local\Temp\ccacj52E.s:7658   .text.cmp_read_char:00000000 $t
C:\Users\PCHAUT~1\AppData\Local\Temp\ccacj52E.s:7666   .text.cmp_read_char:00000000 cmp_read_char
C:\Users\PCHAUT~1\AppData\Local\Temp\ccacj52E.s:7705   .text.cmp_read_char:00000038 $d
C:\Users\PCHAUT~1\AppData\Local\Temp\ccacj52E.s:7740   .text.cmp_read_char:000000c4 $t
C:\Users\PCHAUT~1\AppData\Local\Temp\ccacj52E.s:7788   .text.cmp_read_char:00000108 $d
C:\Users\PCHAUT~1\AppData\Local\Temp\ccacj52E.s:7793   .text.cmp_read_short:00000000 $t
C:\Users\PCHAUT~1\AppData\Local\Temp\ccacj52E.s:7801   .text.cmp_read_short:00000000 cmp_read_short
C:\Users\PCHAUT~1\AppData\Local\Temp\ccacj52E.s:7840   .text.cmp_read_short:00000038 $d
ARM GAS  C:\Users\PCHAUT~1\AppData\Local\Temp\ccacj52E.s 			page 443


C:\Users\PCHAUT~1\AppData\Local\Temp\ccacj52E.s:7875   .text.cmp_read_short:000000c4 $t
C:\Users\PCHAUT~1\AppData\Local\Temp\ccacj52E.s:7941   .text.cmp_read_short:00000124 $d
C:\Users\PCHAUT~1\AppData\Local\Temp\ccacj52E.s:7946   .text.cmp_read_int:00000000 $t
C:\Users\PCHAUT~1\AppData\Local\Temp\ccacj52E.s:7954   .text.cmp_read_int:00000000 cmp_read_int
C:\Users\PCHAUT~1\AppData\Local\Temp\ccacj52E.s:7993   .text.cmp_read_int:00000038 $d
C:\Users\PCHAUT~1\AppData\Local\Temp\ccacj52E.s:8028   .text.cmp_read_int:000000c4 $t
C:\Users\PCHAUT~1\AppData\Local\Temp\ccacj52E.s:8111   .text.cmp_read_int:00000138 $d
C:\Users\PCHAUT~1\AppData\Local\Temp\ccacj52E.s:8116   .text.cmp_read_long:00000000 $t
C:\Users\PCHAUT~1\AppData\Local\Temp\ccacj52E.s:8124   .text.cmp_read_long:00000000 cmp_read_long
C:\Users\PCHAUT~1\AppData\Local\Temp\ccacj52E.s:8164   .text.cmp_read_long:00000038 $d
C:\Users\PCHAUT~1\AppData\Local\Temp\ccacj52E.s:8199   .text.cmp_read_long:000000c4 $t
C:\Users\PCHAUT~1\AppData\Local\Temp\ccacj52E.s:8304   .text.cmp_read_long:00000178 $d
C:\Users\PCHAUT~1\AppData\Local\Temp\ccacj52E.s:8309   .text.cmp_read_sinteger:00000000 $t
C:\Users\PCHAUT~1\AppData\Local\Temp\ccacj52E.s:8317   .text.cmp_read_sinteger:00000000 cmp_read_sinteger
C:\Users\PCHAUT~1\AppData\Local\Temp\ccacj52E.s:8355   .text.cmp_read_sinteger:00000030 $d
C:\Users\PCHAUT~1\AppData\Local\Temp\ccacj52E.s:8360   .text.cmp_read_ufix:00000000 $t
C:\Users\PCHAUT~1\AppData\Local\Temp\ccacj52E.s:8368   .text.cmp_read_ufix:00000000 cmp_read_ufix
C:\Users\PCHAUT~1\AppData\Local\Temp\ccacj52E.s:8435   .text.cmp_read_ufix:0000005c $d
C:\Users\PCHAUT~1\AppData\Local\Temp\ccacj52E.s:8440   .text.cmp_read_u8:00000000 $t
C:\Users\PCHAUT~1\AppData\Local\Temp\ccacj52E.s:8448   .text.cmp_read_u8:00000000 cmp_read_u8
C:\Users\PCHAUT~1\AppData\Local\Temp\ccacj52E.s:8515   .text.cmp_read_u8:0000005c $d
C:\Users\PCHAUT~1\AppData\Local\Temp\ccacj52E.s:8520   .text.cmp_read_u16:00000000 $t
C:\Users\PCHAUT~1\AppData\Local\Temp\ccacj52E.s:8528   .text.cmp_read_u16:00000000 cmp_read_u16
C:\Users\PCHAUT~1\AppData\Local\Temp\ccacj52E.s:8595   .text.cmp_read_u16:0000005c $d
C:\Users\PCHAUT~1\AppData\Local\Temp\ccacj52E.s:8600   .text.cmp_read_u32:00000000 $t
C:\Users\PCHAUT~1\AppData\Local\Temp\ccacj52E.s:8608   .text.cmp_read_u32:00000000 cmp_read_u32
C:\Users\PCHAUT~1\AppData\Local\Temp\ccacj52E.s:8675   .text.cmp_read_u32:00000058 $d
C:\Users\PCHAUT~1\AppData\Local\Temp\ccacj52E.s:8680   .text.cmp_read_u64:00000000 $t
C:\Users\PCHAUT~1\AppData\Local\Temp\ccacj52E.s:8688   .text.cmp_read_u64:00000000 cmp_read_u64
C:\Users\PCHAUT~1\AppData\Local\Temp\ccacj52E.s:8756   .text.cmp_read_u64:0000005c $d
C:\Users\PCHAUT~1\AppData\Local\Temp\ccacj52E.s:8761   .text.cmp_read_uchar:00000000 $t
C:\Users\PCHAUT~1\AppData\Local\Temp\ccacj52E.s:8769   .text.cmp_read_uchar:00000000 cmp_read_uchar
C:\Users\PCHAUT~1\AppData\Local\Temp\ccacj52E.s:8839   .text.cmp_read_uchar:00000060 $d
C:\Users\PCHAUT~1\AppData\Local\Temp\ccacj52E.s:8844   .text.cmp_read_ushort:00000000 $t
C:\Users\PCHAUT~1\AppData\Local\Temp\ccacj52E.s:8852   .text.cmp_read_ushort:00000000 cmp_read_ushort
C:\Users\PCHAUT~1\AppData\Local\Temp\ccacj52E.s:8933   .text.cmp_read_ushort:00000070 $d
C:\Users\PCHAUT~1\AppData\Local\Temp\ccacj52E.s:8938   .text.cmp_read_uint:00000000 $t
C:\Users\PCHAUT~1\AppData\Local\Temp\ccacj52E.s:8946   .text.cmp_read_uint:00000000 cmp_read_uint
C:\Users\PCHAUT~1\AppData\Local\Temp\ccacj52E.s:8985   .text.cmp_read_uint:00000038 $d
C:\Users\PCHAUT~1\AppData\Local\Temp\ccacj52E.s:9002   .text.cmp_read_uint:0000007c $t
C:\Users\PCHAUT~1\AppData\Local\Temp\ccacj52E.s:9054   .text.cmp_read_uint:000000c0 $d
C:\Users\PCHAUT~1\AppData\Local\Temp\ccacj52E.s:9059   .text.cmp_read_ulong:00000000 $t
C:\Users\PCHAUT~1\AppData\Local\Temp\ccacj52E.s:9067   .text.cmp_read_ulong:00000000 cmp_read_ulong
C:\Users\PCHAUT~1\AppData\Local\Temp\ccacj52E.s:9107   .text.cmp_read_ulong:00000038 $d
C:\Users\PCHAUT~1\AppData\Local\Temp\ccacj52E.s:9125   .text.cmp_read_ulong:00000080 $t
C:\Users\PCHAUT~1\AppData\Local\Temp\ccacj52E.s:9188   .text.cmp_read_ulong:000000e4 $d
C:\Users\PCHAUT~1\AppData\Local\Temp\ccacj52E.s:9193   .text.cmp_read_uinteger:00000000 $t
C:\Users\PCHAUT~1\AppData\Local\Temp\ccacj52E.s:9201   .text.cmp_read_uinteger:00000000 cmp_read_uinteger
C:\Users\PCHAUT~1\AppData\Local\Temp\ccacj52E.s:9239   .text.cmp_read_uinteger:00000030 $d
C:\Users\PCHAUT~1\AppData\Local\Temp\ccacj52E.s:9245   .text.cmp_read_float:00000000 $t
C:\Users\PCHAUT~1\AppData\Local\Temp\ccacj52E.s:9253   .text.cmp_read_float:00000000 cmp_read_float
C:\Users\PCHAUT~1\AppData\Local\Temp\ccacj52E.s:9338   .text.cmp_read_float:00000074 $d
C:\Users\PCHAUT~1\AppData\Local\Temp\ccacj52E.s:9344   .text.cmp_read_double:00000000 $t
C:\Users\PCHAUT~1\AppData\Local\Temp\ccacj52E.s:9352   .text.cmp_read_double:00000000 cmp_read_double
C:\Users\PCHAUT~1\AppData\Local\Temp\ccacj52E.s:9437   .text.cmp_read_double:00000078 $d
C:\Users\PCHAUT~1\AppData\Local\Temp\ccacj52E.s:9442   .text.cmp_read_nil:00000000 $t
C:\Users\PCHAUT~1\AppData\Local\Temp\ccacj52E.s:9450   .text.cmp_read_nil:00000000 cmp_read_nil
ARM GAS  C:\Users\PCHAUT~1\AppData\Local\Temp\ccacj52E.s 			page 444


C:\Users\PCHAUT~1\AppData\Local\Temp\ccacj52E.s:9512   .text.cmp_read_nil:00000050 $d
C:\Users\PCHAUT~1\AppData\Local\Temp\ccacj52E.s:9517   .text.cmp_read_bool:00000000 $t
C:\Users\PCHAUT~1\AppData\Local\Temp\ccacj52E.s:9525   .text.cmp_read_bool:00000000 cmp_read_bool
C:\Users\PCHAUT~1\AppData\Local\Temp\ccacj52E.s:9603   .text.cmp_read_bool:00000068 $d
C:\Users\PCHAUT~1\AppData\Local\Temp\ccacj52E.s:9608   .text.cmp_read_bool_as_u8:00000000 $t
C:\Users\PCHAUT~1\AppData\Local\Temp\ccacj52E.s:9616   .text.cmp_read_bool_as_u8:00000000 cmp_read_bool_as_u8
C:\Users\PCHAUT~1\AppData\Local\Temp\ccacj52E.s:9694   .text.cmp_read_bool_as_u8:00000068 $d
C:\Users\PCHAUT~1\AppData\Local\Temp\ccacj52E.s:9699   .text.cmp_read_str_size:00000000 $t
C:\Users\PCHAUT~1\AppData\Local\Temp\ccacj52E.s:9707   .text.cmp_read_str_size:00000000 cmp_read_str_size
C:\Users\PCHAUT~1\AppData\Local\Temp\ccacj52E.s:9780   .text.cmp_read_str_size:00000064 $d
C:\Users\PCHAUT~1\AppData\Local\Temp\ccacj52E.s:9785   .text.cmp_read_str:00000000 $t
C:\Users\PCHAUT~1\AppData\Local\Temp\ccacj52E.s:9793   .text.cmp_read_str:00000000 cmp_read_str
C:\Users\PCHAUT~1\AppData\Local\Temp\ccacj52E.s:9898   .text.cmp_read_str:00000094 $d
C:\Users\PCHAUT~1\AppData\Local\Temp\ccacj52E.s:9903   .text.cmp_read_bin_size:00000000 $t
C:\Users\PCHAUT~1\AppData\Local\Temp\ccacj52E.s:9911   .text.cmp_read_bin_size:00000000 cmp_read_bin_size
C:\Users\PCHAUT~1\AppData\Local\Temp\ccacj52E.s:9979   .text.cmp_read_bin_size:0000005c $d
C:\Users\PCHAUT~1\AppData\Local\Temp\ccacj52E.s:9984   .text.cmp_read_bin:00000000 $t
C:\Users\PCHAUT~1\AppData\Local\Temp\ccacj52E.s:9992   .text.cmp_read_bin:00000000 cmp_read_bin
C:\Users\PCHAUT~1\AppData\Local\Temp\ccacj52E.s:10086  .text.cmp_read_bin:00000084 $d
C:\Users\PCHAUT~1\AppData\Local\Temp\ccacj52E.s:10091  .text.cmp_read_array:00000000 $t
C:\Users\PCHAUT~1\AppData\Local\Temp\ccacj52E.s:10099  .text.cmp_read_array:00000000 cmp_read_array
C:\Users\PCHAUT~1\AppData\Local\Temp\ccacj52E.s:10172  .text.cmp_read_array:00000064 $d
C:\Users\PCHAUT~1\AppData\Local\Temp\ccacj52E.s:10177  .text.cmp_read_map:00000000 $t
C:\Users\PCHAUT~1\AppData\Local\Temp\ccacj52E.s:10185  .text.cmp_read_map:00000000 cmp_read_map
C:\Users\PCHAUT~1\AppData\Local\Temp\ccacj52E.s:10258  .text.cmp_read_map:00000064 $d
C:\Users\PCHAUT~1\AppData\Local\Temp\ccacj52E.s:10263  .text.cmp_read_fixext1_marker:00000000 $t
C:\Users\PCHAUT~1\AppData\Local\Temp\ccacj52E.s:10271  .text.cmp_read_fixext1_marker:00000000 cmp_read_fixext1_marker
C:\Users\PCHAUT~1\AppData\Local\Temp\ccacj52E.s:10338  .text.cmp_read_fixext1_marker:0000005c $d
C:\Users\PCHAUT~1\AppData\Local\Temp\ccacj52E.s:10343  .text.cmp_read_fixext1:00000000 $t
C:\Users\PCHAUT~1\AppData\Local\Temp\ccacj52E.s:10351  .text.cmp_read_fixext1:00000000 cmp_read_fixext1
C:\Users\PCHAUT~1\AppData\Local\Temp\ccacj52E.s:10420  .text.cmp_read_fixext1:0000005c $d
C:\Users\PCHAUT~1\AppData\Local\Temp\ccacj52E.s:10425  .text.cmp_read_fixext2_marker:00000000 $t
C:\Users\PCHAUT~1\AppData\Local\Temp\ccacj52E.s:10433  .text.cmp_read_fixext2_marker:00000000 cmp_read_fixext2_marker
C:\Users\PCHAUT~1\AppData\Local\Temp\ccacj52E.s:10500  .text.cmp_read_fixext2_marker:0000005c $d
C:\Users\PCHAUT~1\AppData\Local\Temp\ccacj52E.s:10505  .text.cmp_read_fixext2:00000000 $t
C:\Users\PCHAUT~1\AppData\Local\Temp\ccacj52E.s:10513  .text.cmp_read_fixext2:00000000 cmp_read_fixext2
C:\Users\PCHAUT~1\AppData\Local\Temp\ccacj52E.s:10582  .text.cmp_read_fixext2:0000005c $d
C:\Users\PCHAUT~1\AppData\Local\Temp\ccacj52E.s:10587  .text.cmp_read_fixext4_marker:00000000 $t
C:\Users\PCHAUT~1\AppData\Local\Temp\ccacj52E.s:10595  .text.cmp_read_fixext4_marker:00000000 cmp_read_fixext4_marker
C:\Users\PCHAUT~1\AppData\Local\Temp\ccacj52E.s:10662  .text.cmp_read_fixext4_marker:0000005c $d
C:\Users\PCHAUT~1\AppData\Local\Temp\ccacj52E.s:10667  .text.cmp_read_fixext4:00000000 $t
C:\Users\PCHAUT~1\AppData\Local\Temp\ccacj52E.s:10675  .text.cmp_read_fixext4:00000000 cmp_read_fixext4
C:\Users\PCHAUT~1\AppData\Local\Temp\ccacj52E.s:10744  .text.cmp_read_fixext4:0000005c $d
C:\Users\PCHAUT~1\AppData\Local\Temp\ccacj52E.s:10749  .text.cmp_read_fixext8_marker:00000000 $t
C:\Users\PCHAUT~1\AppData\Local\Temp\ccacj52E.s:10757  .text.cmp_read_fixext8_marker:00000000 cmp_read_fixext8_marker
C:\Users\PCHAUT~1\AppData\Local\Temp\ccacj52E.s:10824  .text.cmp_read_fixext8_marker:0000005c $d
C:\Users\PCHAUT~1\AppData\Local\Temp\ccacj52E.s:10829  .text.cmp_read_fixext8:00000000 $t
C:\Users\PCHAUT~1\AppData\Local\Temp\ccacj52E.s:10837  .text.cmp_read_fixext8:00000000 cmp_read_fixext8
C:\Users\PCHAUT~1\AppData\Local\Temp\ccacj52E.s:10906  .text.cmp_read_fixext8:0000005c $d
C:\Users\PCHAUT~1\AppData\Local\Temp\ccacj52E.s:10911  .text.cmp_read_fixext16_marker:00000000 $t
C:\Users\PCHAUT~1\AppData\Local\Temp\ccacj52E.s:10919  .text.cmp_read_fixext16_marker:00000000 cmp_read_fixext16_marker
C:\Users\PCHAUT~1\AppData\Local\Temp\ccacj52E.s:10986  .text.cmp_read_fixext16_marker:0000005c $d
C:\Users\PCHAUT~1\AppData\Local\Temp\ccacj52E.s:10991  .text.cmp_read_fixext16:00000000 $t
C:\Users\PCHAUT~1\AppData\Local\Temp\ccacj52E.s:10999  .text.cmp_read_fixext16:00000000 cmp_read_fixext16
C:\Users\PCHAUT~1\AppData\Local\Temp\ccacj52E.s:11068  .text.cmp_read_fixext16:0000005c $d
C:\Users\PCHAUT~1\AppData\Local\Temp\ccacj52E.s:11073  .text.cmp_read_ext8_marker:00000000 $t
C:\Users\PCHAUT~1\AppData\Local\Temp\ccacj52E.s:11081  .text.cmp_read_ext8_marker:00000000 cmp_read_ext8_marker
ARM GAS  C:\Users\PCHAUT~1\AppData\Local\Temp\ccacj52E.s 			page 445


C:\Users\PCHAUT~1\AppData\Local\Temp\ccacj52E.s:11154  .text.cmp_read_ext8_marker:00000064 $d
C:\Users\PCHAUT~1\AppData\Local\Temp\ccacj52E.s:11159  .text.cmp_read_ext8:00000000 $t
C:\Users\PCHAUT~1\AppData\Local\Temp\ccacj52E.s:11167  .text.cmp_read_ext8:00000000 cmp_read_ext8
C:\Users\PCHAUT~1\AppData\Local\Temp\ccacj52E.s:11239  .text.cmp_read_ext8:00000064 $d
C:\Users\PCHAUT~1\AppData\Local\Temp\ccacj52E.s:11244  .text.cmp_read_ext16_marker:00000000 $t
C:\Users\PCHAUT~1\AppData\Local\Temp\ccacj52E.s:11252  .text.cmp_read_ext16_marker:00000000 cmp_read_ext16_marker
C:\Users\PCHAUT~1\AppData\Local\Temp\ccacj52E.s:11325  .text.cmp_read_ext16_marker:00000064 $d
C:\Users\PCHAUT~1\AppData\Local\Temp\ccacj52E.s:11330  .text.cmp_read_ext16:00000000 $t
C:\Users\PCHAUT~1\AppData\Local\Temp\ccacj52E.s:11338  .text.cmp_read_ext16:00000000 cmp_read_ext16
C:\Users\PCHAUT~1\AppData\Local\Temp\ccacj52E.s:11410  .text.cmp_read_ext16:00000064 $d
C:\Users\PCHAUT~1\AppData\Local\Temp\ccacj52E.s:11415  .text.cmp_read_ext32_marker:00000000 $t
C:\Users\PCHAUT~1\AppData\Local\Temp\ccacj52E.s:11423  .text.cmp_read_ext32_marker:00000000 cmp_read_ext32_marker
C:\Users\PCHAUT~1\AppData\Local\Temp\ccacj52E.s:11495  .text.cmp_read_ext32_marker:00000064 $d
C:\Users\PCHAUT~1\AppData\Local\Temp\ccacj52E.s:11500  .text.cmp_read_ext32:00000000 $t
C:\Users\PCHAUT~1\AppData\Local\Temp\ccacj52E.s:11508  .text.cmp_read_ext32:00000000 cmp_read_ext32
C:\Users\PCHAUT~1\AppData\Local\Temp\ccacj52E.s:11580  .text.cmp_read_ext32:00000064 $d
C:\Users\PCHAUT~1\AppData\Local\Temp\ccacj52E.s:11585  .text.cmp_read_ext_marker:00000000 $t
C:\Users\PCHAUT~1\AppData\Local\Temp\ccacj52E.s:11593  .text.cmp_read_ext_marker:00000000 cmp_read_ext_marker
C:\Users\PCHAUT~1\AppData\Local\Temp\ccacj52E.s:11634  .text.cmp_read_ext_marker:0000003c $d
C:\Users\PCHAUT~1\AppData\Local\Temp\ccacj52E.s:11652  .text.cmp_read_ext_marker:00000084 $t
C:\Users\PCHAUT~1\AppData\Local\Temp\ccacj52E.s:11690  .text.cmp_read_ext_marker:000000b4 $d
C:\Users\PCHAUT~1\AppData\Local\Temp\ccacj52E.s:11695  .text.cmp_read_ext:00000000 $t
C:\Users\PCHAUT~1\AppData\Local\Temp\ccacj52E.s:11703  .text.cmp_read_ext:00000000 cmp_read_ext
C:\Users\PCHAUT~1\AppData\Local\Temp\ccacj52E.s:11775  .text.cmp_read_ext:00000064 $d
C:\Users\PCHAUT~1\AppData\Local\Temp\ccacj52E.s:11780  .text.cmp_read_object:00000000 $t
C:\Users\PCHAUT~1\AppData\Local\Temp\ccacj52E.s:12205  .text.cmp_read_object:000002c8 $d
C:\Users\PCHAUT~1\AppData\Local\Temp\ccacj52E.s:12208  .text.cmp_read_object:000002cc $t
C:\Users\PCHAUT~1\AppData\Local\Temp\ccacj52E.s:13136  .text.cmp_read_object:00000928 $d
C:\Users\PCHAUT~1\AppData\Local\Temp\ccacj52E.s:13141  .text.cmp_object_is_char:00000000 $t
C:\Users\PCHAUT~1\AppData\Local\Temp\ccacj52E.s:13149  .text.cmp_object_is_char:00000000 cmp_object_is_char
C:\Users\PCHAUT~1\AppData\Local\Temp\ccacj52E.s:13196  .text.cmp_object_is_char:00000034 $d
C:\Users\PCHAUT~1\AppData\Local\Temp\ccacj52E.s:13201  .text.cmp_object_is_short:00000000 $t
C:\Users\PCHAUT~1\AppData\Local\Temp\ccacj52E.s:13209  .text.cmp_object_is_short:00000000 cmp_object_is_short
C:\Users\PCHAUT~1\AppData\Local\Temp\ccacj52E.s:13258  .text.cmp_object_is_short:00000038 $d
C:\Users\PCHAUT~1\AppData\Local\Temp\ccacj52E.s:13263  .text.cmp_object_is_int:00000000 $t
C:\Users\PCHAUT~1\AppData\Local\Temp\ccacj52E.s:13271  .text.cmp_object_is_int:00000000 cmp_object_is_int
C:\Users\PCHAUT~1\AppData\Local\Temp\ccacj52E.s:13320  .text.cmp_object_is_int:00000038 $d
C:\Users\PCHAUT~1\AppData\Local\Temp\ccacj52E.s:13325  .text.cmp_object_is_long:00000000 $t
C:\Users\PCHAUT~1\AppData\Local\Temp\ccacj52E.s:13333  .text.cmp_object_is_long:00000000 cmp_object_is_long
C:\Users\PCHAUT~1\AppData\Local\Temp\ccacj52E.s:13382  .text.cmp_object_is_long:00000038 $d
C:\Users\PCHAUT~1\AppData\Local\Temp\ccacj52E.s:13387  .text.cmp_object_is_sinteger:00000000 $t
C:\Users\PCHAUT~1\AppData\Local\Temp\ccacj52E.s:13395  .text.cmp_object_is_sinteger:00000000 cmp_object_is_sinteger
C:\Users\PCHAUT~1\AppData\Local\Temp\ccacj52E.s:13431  .text.cmp_object_is_sinteger:0000002c $d
C:\Users\PCHAUT~1\AppData\Local\Temp\ccacj52E.s:13436  .text.cmp_object_is_uchar:00000000 $t
C:\Users\PCHAUT~1\AppData\Local\Temp\ccacj52E.s:13444  .text.cmp_object_is_uchar:00000000 cmp_object_is_uchar
C:\Users\PCHAUT~1\AppData\Local\Temp\ccacj52E.s:13491  .text.cmp_object_is_uchar:00000034 $d
C:\Users\PCHAUT~1\AppData\Local\Temp\ccacj52E.s:13496  .text.cmp_object_is_ushort:00000000 $t
C:\Users\PCHAUT~1\AppData\Local\Temp\ccacj52E.s:13504  .text.cmp_object_is_ushort:00000000 cmp_object_is_ushort
C:\Users\PCHAUT~1\AppData\Local\Temp\ccacj52E.s:13557  .text.cmp_object_is_ushort:0000003c $d
C:\Users\PCHAUT~1\AppData\Local\Temp\ccacj52E.s:13562  .text.cmp_object_is_uint:00000000 $t
C:\Users\PCHAUT~1\AppData\Local\Temp\ccacj52E.s:13570  .text.cmp_object_is_uint:00000000 cmp_object_is_uint
C:\Users\PCHAUT~1\AppData\Local\Temp\ccacj52E.s:13620  .text.cmp_object_is_uint:0000003c $d
C:\Users\PCHAUT~1\AppData\Local\Temp\ccacj52E.s:13625  .text.cmp_object_is_ulong:00000000 $t
C:\Users\PCHAUT~1\AppData\Local\Temp\ccacj52E.s:13633  .text.cmp_object_is_ulong:00000000 cmp_object_is_ulong
C:\Users\PCHAUT~1\AppData\Local\Temp\ccacj52E.s:13683  .text.cmp_object_is_ulong:0000003c $d
C:\Users\PCHAUT~1\AppData\Local\Temp\ccacj52E.s:13688  .text.cmp_object_is_uinteger:00000000 $t
C:\Users\PCHAUT~1\AppData\Local\Temp\ccacj52E.s:13696  .text.cmp_object_is_uinteger:00000000 cmp_object_is_uinteger
ARM GAS  C:\Users\PCHAUT~1\AppData\Local\Temp\ccacj52E.s 			page 446


C:\Users\PCHAUT~1\AppData\Local\Temp\ccacj52E.s:13732  .text.cmp_object_is_uinteger:0000002c $d
C:\Users\PCHAUT~1\AppData\Local\Temp\ccacj52E.s:13737  .text.cmp_object_is_float:00000000 $t
C:\Users\PCHAUT~1\AppData\Local\Temp\ccacj52E.s:13745  .text.cmp_object_is_float:00000000 cmp_object_is_float
C:\Users\PCHAUT~1\AppData\Local\Temp\ccacj52E.s:13789  .text.cmp_object_is_float:00000030 $d
C:\Users\PCHAUT~1\AppData\Local\Temp\ccacj52E.s:13794  .text.cmp_object_is_double:00000000 $t
C:\Users\PCHAUT~1\AppData\Local\Temp\ccacj52E.s:13802  .text.cmp_object_is_double:00000000 cmp_object_is_double
C:\Users\PCHAUT~1\AppData\Local\Temp\ccacj52E.s:13846  .text.cmp_object_is_double:00000030 $d
C:\Users\PCHAUT~1\AppData\Local\Temp\ccacj52E.s:13851  .text.cmp_object_is_nil:00000000 $t
C:\Users\PCHAUT~1\AppData\Local\Temp\ccacj52E.s:13859  .text.cmp_object_is_nil:00000000 cmp_object_is_nil
C:\Users\PCHAUT~1\AppData\Local\Temp\ccacj52E.s:13903  .text.cmp_object_is_nil:00000030 $d
C:\Users\PCHAUT~1\AppData\Local\Temp\ccacj52E.s:13908  .text.cmp_object_is_bool:00000000 $t
C:\Users\PCHAUT~1\AppData\Local\Temp\ccacj52E.s:13916  .text.cmp_object_is_bool:00000000 cmp_object_is_bool
C:\Users\PCHAUT~1\AppData\Local\Temp\ccacj52E.s:13960  .text.cmp_object_is_bool:00000030 $d
C:\Users\PCHAUT~1\AppData\Local\Temp\ccacj52E.s:13965  .text.cmp_object_is_str:00000000 $t
C:\Users\PCHAUT~1\AppData\Local\Temp\ccacj52E.s:13973  .text.cmp_object_is_str:00000000 cmp_object_is_str
C:\Users\PCHAUT~1\AppData\Local\Temp\ccacj52E.s:14023  .text.cmp_object_is_str:0000003c $d
C:\Users\PCHAUT~1\AppData\Local\Temp\ccacj52E.s:14028  .text.cmp_object_is_bin:00000000 $t
C:\Users\PCHAUT~1\AppData\Local\Temp\ccacj52E.s:14036  .text.cmp_object_is_bin:00000000 cmp_object_is_bin
C:\Users\PCHAUT~1\AppData\Local\Temp\ccacj52E.s:14081  .text.cmp_object_is_bin:00000034 $d
C:\Users\PCHAUT~1\AppData\Local\Temp\ccacj52E.s:14086  .text.cmp_object_is_array:00000000 $t
C:\Users\PCHAUT~1\AppData\Local\Temp\ccacj52E.s:14094  .text.cmp_object_is_array:00000000 cmp_object_is_array
C:\Users\PCHAUT~1\AppData\Local\Temp\ccacj52E.s:14144  .text.cmp_object_is_array:0000003c $d
C:\Users\PCHAUT~1\AppData\Local\Temp\ccacj52E.s:14149  .text.cmp_object_is_map:00000000 $t
C:\Users\PCHAUT~1\AppData\Local\Temp\ccacj52E.s:14157  .text.cmp_object_is_map:00000000 cmp_object_is_map
C:\Users\PCHAUT~1\AppData\Local\Temp\ccacj52E.s:14207  .text.cmp_object_is_map:0000003c $d
C:\Users\PCHAUT~1\AppData\Local\Temp\ccacj52E.s:14212  .text.cmp_object_is_ext:00000000 $t
C:\Users\PCHAUT~1\AppData\Local\Temp\ccacj52E.s:14220  .text.cmp_object_is_ext:00000000 cmp_object_is_ext
C:\Users\PCHAUT~1\AppData\Local\Temp\ccacj52E.s:14246  .text.cmp_object_is_ext:0000001c $d
C:\Users\PCHAUT~1\AppData\Local\Temp\ccacj52E.s:14264  .text.cmp_object_is_ext:00000064 $t
C:\Users\PCHAUT~1\AppData\Local\Temp\ccacj52E.s:14289  .text.cmp_object_is_ext:00000080 $d
C:\Users\PCHAUT~1\AppData\Local\Temp\ccacj52E.s:14294  .text.cmp_object_as_char:00000000 $t
C:\Users\PCHAUT~1\AppData\Local\Temp\ccacj52E.s:14302  .text.cmp_object_as_char:00000000 cmp_object_as_char
C:\Users\PCHAUT~1\AppData\Local\Temp\ccacj52E.s:14328  .text.cmp_object_as_char:0000001c $d
C:\Users\PCHAUT~1\AppData\Local\Temp\ccacj52E.s:14363  .text.cmp_object_as_char:000000a8 $t
C:\Users\PCHAUT~1\AppData\Local\Temp\ccacj52E.s:14408  .text.cmp_object_as_char:000000e8 $d
C:\Users\PCHAUT~1\AppData\Local\Temp\ccacj52E.s:14413  .text.cmp_object_as_short:00000000 $t
C:\Users\PCHAUT~1\AppData\Local\Temp\ccacj52E.s:14421  .text.cmp_object_as_short:00000000 cmp_object_as_short
C:\Users\PCHAUT~1\AppData\Local\Temp\ccacj52E.s:14447  .text.cmp_object_as_short:0000001c $d
C:\Users\PCHAUT~1\AppData\Local\Temp\ccacj52E.s:14482  .text.cmp_object_as_short:000000a8 $t
C:\Users\PCHAUT~1\AppData\Local\Temp\ccacj52E.s:14548  .text.cmp_object_as_short:00000104 $d
C:\Users\PCHAUT~1\AppData\Local\Temp\ccacj52E.s:14553  .text.cmp_object_as_int:00000000 $t
C:\Users\PCHAUT~1\AppData\Local\Temp\ccacj52E.s:14561  .text.cmp_object_as_int:00000000 cmp_object_as_int
C:\Users\PCHAUT~1\AppData\Local\Temp\ccacj52E.s:14587  .text.cmp_object_as_int:0000001c $d
C:\Users\PCHAUT~1\AppData\Local\Temp\ccacj52E.s:14622  .text.cmp_object_as_int:000000a8 $t
C:\Users\PCHAUT~1\AppData\Local\Temp\ccacj52E.s:14707  .text.cmp_object_as_int:00000120 $d
C:\Users\PCHAUT~1\AppData\Local\Temp\ccacj52E.s:14712  .text.cmp_object_as_long:00000000 $t
C:\Users\PCHAUT~1\AppData\Local\Temp\ccacj52E.s:14720  .text.cmp_object_as_long:00000000 cmp_object_as_long
C:\Users\PCHAUT~1\AppData\Local\Temp\ccacj52E.s:14747  .text.cmp_object_as_long:00000020 $d
C:\Users\PCHAUT~1\AppData\Local\Temp\ccacj52E.s:14782  .text.cmp_object_as_long:000000ac $t
C:\Users\PCHAUT~1\AppData\Local\Temp\ccacj52E.s:14891  .text.cmp_object_as_long:00000168 $d
C:\Users\PCHAUT~1\AppData\Local\Temp\ccacj52E.s:14896  .text.cmp_object_as_sinteger:00000000 $t
C:\Users\PCHAUT~1\AppData\Local\Temp\ccacj52E.s:14904  .text.cmp_object_as_sinteger:00000000 cmp_object_as_sinteger
C:\Users\PCHAUT~1\AppData\Local\Temp\ccacj52E.s:14942  .text.cmp_object_as_sinteger:00000030 $d
C:\Users\PCHAUT~1\AppData\Local\Temp\ccacj52E.s:14947  .text.cmp_object_as_uchar:00000000 $t
C:\Users\PCHAUT~1\AppData\Local\Temp\ccacj52E.s:14955  .text.cmp_object_as_uchar:00000000 cmp_object_as_uchar
C:\Users\PCHAUT~1\AppData\Local\Temp\ccacj52E.s:15008  .text.cmp_object_as_uchar:00000040 $d
C:\Users\PCHAUT~1\AppData\Local\Temp\ccacj52E.s:15013  .text.cmp_object_as_ushort:00000000 $t
ARM GAS  C:\Users\PCHAUT~1\AppData\Local\Temp\ccacj52E.s 			page 447


C:\Users\PCHAUT~1\AppData\Local\Temp\ccacj52E.s:15021  .text.cmp_object_as_ushort:00000000 cmp_object_as_ushort
C:\Users\PCHAUT~1\AppData\Local\Temp\ccacj52E.s:15086  .text.cmp_object_as_ushort:00000050 $d
C:\Users\PCHAUT~1\AppData\Local\Temp\ccacj52E.s:15091  .text.cmp_object_as_uint:00000000 $t
C:\Users\PCHAUT~1\AppData\Local\Temp\ccacj52E.s:15099  .text.cmp_object_as_uint:00000000 cmp_object_as_uint
C:\Users\PCHAUT~1\AppData\Local\Temp\ccacj52E.s:15125  .text.cmp_object_as_uint:0000001c $d
C:\Users\PCHAUT~1\AppData\Local\Temp\ccacj52E.s:15142  .text.cmp_object_as_uint:00000060 $t
C:\Users\PCHAUT~1\AppData\Local\Temp\ccacj52E.s:15192  .text.cmp_object_as_uint:000000a0 $d
C:\Users\PCHAUT~1\AppData\Local\Temp\ccacj52E.s:15197  .text.cmp_object_as_ulong:00000000 $t
C:\Users\PCHAUT~1\AppData\Local\Temp\ccacj52E.s:15205  .text.cmp_object_as_ulong:00000000 cmp_object_as_ulong
C:\Users\PCHAUT~1\AppData\Local\Temp\ccacj52E.s:15232  .text.cmp_object_as_ulong:0000001c $d
C:\Users\PCHAUT~1\AppData\Local\Temp\ccacj52E.s:15250  .text.cmp_object_as_ulong:00000064 $t
C:\Users\PCHAUT~1\AppData\Local\Temp\ccacj52E.s:15312  .text.cmp_object_as_ulong:000000c4 $d
C:\Users\PCHAUT~1\AppData\Local\Temp\ccacj52E.s:15317  .text.cmp_object_as_uinteger:00000000 $t
C:\Users\PCHAUT~1\AppData\Local\Temp\ccacj52E.s:15325  .text.cmp_object_as_uinteger:00000000 cmp_object_as_uinteger
C:\Users\PCHAUT~1\AppData\Local\Temp\ccacj52E.s:15363  .text.cmp_object_as_uinteger:00000030 $d
C:\Users\PCHAUT~1\AppData\Local\Temp\ccacj52E.s:15368  .text.cmp_object_as_float:00000000 $t
C:\Users\PCHAUT~1\AppData\Local\Temp\ccacj52E.s:15376  .text.cmp_object_as_float:00000000 cmp_object_as_float
C:\Users\PCHAUT~1\AppData\Local\Temp\ccacj52E.s:15426  .text.cmp_object_as_float:0000003c $d
C:\Users\PCHAUT~1\AppData\Local\Temp\ccacj52E.s:15431  .text.cmp_object_as_double:00000000 $t
C:\Users\PCHAUT~1\AppData\Local\Temp\ccacj52E.s:15439  .text.cmp_object_as_double:00000000 cmp_object_as_double
C:\Users\PCHAUT~1\AppData\Local\Temp\ccacj52E.s:15490  .text.cmp_object_as_double:0000003c $d
C:\Users\PCHAUT~1\AppData\Local\Temp\ccacj52E.s:15495  .text.cmp_object_as_bool:00000000 $t
C:\Users\PCHAUT~1\AppData\Local\Temp\ccacj52E.s:15503  .text.cmp_object_as_bool:00000000 cmp_object_as_bool
C:\Users\PCHAUT~1\AppData\Local\Temp\ccacj52E.s:15564  .text.cmp_object_as_bool:00000048 $d
C:\Users\PCHAUT~1\AppData\Local\Temp\ccacj52E.s:15569  .text.cmp_object_as_str:00000000 $t
C:\Users\PCHAUT~1\AppData\Local\Temp\ccacj52E.s:15577  .text.cmp_object_as_str:00000000 cmp_object_as_str
C:\Users\PCHAUT~1\AppData\Local\Temp\ccacj52E.s:15633  .text.cmp_object_as_str:00000044 $d
C:\Users\PCHAUT~1\AppData\Local\Temp\ccacj52E.s:15638  .text.cmp_object_as_bin:00000000 $t
C:\Users\PCHAUT~1\AppData\Local\Temp\ccacj52E.s:15646  .text.cmp_object_as_bin:00000000 cmp_object_as_bin
C:\Users\PCHAUT~1\AppData\Local\Temp\ccacj52E.s:15697  .text.cmp_object_as_bin:0000003c $d
C:\Users\PCHAUT~1\AppData\Local\Temp\ccacj52E.s:15702  .text.cmp_object_as_array:00000000 $t
C:\Users\PCHAUT~1\AppData\Local\Temp\ccacj52E.s:15710  .text.cmp_object_as_array:00000000 cmp_object_as_array
C:\Users\PCHAUT~1\AppData\Local\Temp\ccacj52E.s:15766  .text.cmp_object_as_array:00000044 $d
C:\Users\PCHAUT~1\AppData\Local\Temp\ccacj52E.s:15771  .text.cmp_object_as_map:00000000 $t
C:\Users\PCHAUT~1\AppData\Local\Temp\ccacj52E.s:15779  .text.cmp_object_as_map:00000000 cmp_object_as_map
C:\Users\PCHAUT~1\AppData\Local\Temp\ccacj52E.s:15835  .text.cmp_object_as_map:00000044 $d
C:\Users\PCHAUT~1\AppData\Local\Temp\ccacj52E.s:15840  .text.cmp_object_as_ext:00000000 $t
C:\Users\PCHAUT~1\AppData\Local\Temp\ccacj52E.s:15848  .text.cmp_object_as_ext:00000000 cmp_object_as_ext
C:\Users\PCHAUT~1\AppData\Local\Temp\ccacj52E.s:15876  .text.cmp_object_as_ext:00000020 $d
C:\Users\PCHAUT~1\AppData\Local\Temp\ccacj52E.s:15894  .text.cmp_object_as_ext:00000068 $t
C:\Users\PCHAUT~1\AppData\Local\Temp\ccacj52E.s:15929  .text.cmp_object_as_ext:00000098 $d

UNDEFINED SYMBOLS
__stack_chk_fail
__stack_chk_guard
__aeabi_d2f
__aeabi_f2d
