ARM GAS  C:\Users\PCHAUT~1\AppData\Local\Temp\ccPgTkyc.s 			page 1


   1              		.cpu cortex-m4
   2              		.eabi_attribute 27, 1
   3              		.eabi_attribute 28, 1
   4              		.eabi_attribute 20, 1
   5              		.eabi_attribute 21, 1
   6              		.eabi_attribute 23, 3
   7              		.eabi_attribute 24, 1
   8              		.eabi_attribute 25, 1
   9              		.eabi_attribute 26, 1
  10              		.eabi_attribute 30, 6
  11              		.eabi_attribute 34, 1
  12              		.eabi_attribute 18, 4
  13              		.file	"cmp_mem_access.c"
  14              		.text
  15              	.Ltext0:
  16              		.cfi_sections	.debug_frame
  17              		.section	.text.cmp_mem_reader,"ax",%progbits
  18              		.align	1
  19              		.p2align 4,,15
  20              		.syntax unified
  21              		.thumb
  22              		.thumb_func
  23              		.fpu fpv4-sp-d16
  24              		.type	cmp_mem_reader, %function
  25              	cmp_mem_reader:
  26              	.LFB0:
  27              		.file 1 "../lib/e-puck2_main-processor/src/cmp_mem_access/cmp_mem_access.c"
  28              		.loc 1 5 0
  29              		.cfi_startproc
  30              		@ args = 0, pretend = 0, frame = 24
  31              		@ frame_needed = 0, uses_anonymous_args = 0
  32 0000 00B5     		push	{lr}
  33              		.cfi_def_cfa_offset 4
  34              		.cfi_offset 14, -4
  35 0002 87B0     		sub	sp, sp, #28
  36              		.cfi_def_cfa_offset 32
  37 0004 0390     		str	r0, [sp, #12]
  38 0006 0291     		str	r1, [sp, #8]
  39 0008 0192     		str	r2, [sp, #4]
  40              		.loc 1 5 0
  41 000a 164B     		ldr	r3, .L5
  42 000c 1B68     		ldr	r3, [r3]
  43 000e 0593     		str	r3, [sp, #20]
  44              		.loc 1 6 0
  45 0010 039B     		ldr	r3, [sp, #12]
  46 0012 5B68     		ldr	r3, [r3, #4]
  47 0014 0493     		str	r3, [sp, #16]
  48              		.loc 1 7 0
  49 0016 049B     		ldr	r3, [sp, #16]
  50 0018 5A68     		ldr	r2, [r3, #4]
  51 001a 019B     		ldr	r3, [sp, #4]
  52 001c 1A44     		add	r2, r2, r3
  53 001e 049B     		ldr	r3, [sp, #16]
  54 0020 9B68     		ldr	r3, [r3, #8]
  55 0022 9A42     		cmp	r2, r3
  56 0024 11D8     		bhi	.L2
  57              		.loc 1 8 0
ARM GAS  C:\Users\PCHAUT~1\AppData\Local\Temp\ccPgTkyc.s 			page 2


  58 0026 049B     		ldr	r3, [sp, #16]
  59 0028 1A68     		ldr	r2, [r3]
  60 002a 049B     		ldr	r3, [sp, #16]
  61 002c 5B68     		ldr	r3, [r3, #4]
  62 002e 1344     		add	r3, r3, r2
  63 0030 019A     		ldr	r2, [sp, #4]
  64 0032 1946     		mov	r1, r3
  65 0034 0298     		ldr	r0, [sp, #8]
  66 0036 FFF7FEFF 		bl	memcpy
  67              		.loc 1 9 0
  68 003a 049B     		ldr	r3, [sp, #16]
  69 003c 5A68     		ldr	r2, [r3, #4]
  70 003e 019B     		ldr	r3, [sp, #4]
  71 0040 1A44     		add	r2, r2, r3
  72 0042 049B     		ldr	r3, [sp, #16]
  73 0044 5A60     		str	r2, [r3, #4]
  74              		.loc 1 10 0
  75 0046 0123     		movs	r3, #1
  76 0048 00E0     		b	.L3
  77              	.L2:
  78              		.loc 1 12 0
  79 004a 0023     		movs	r3, #0
  80              	.L3:
  81              		.loc 1 14 0
  82 004c 1846     		mov	r0, r3
  83 004e 054B     		ldr	r3, .L5
  84 0050 059A     		ldr	r2, [sp, #20]
  85 0052 1B68     		ldr	r3, [r3]
  86 0054 9A42     		cmp	r2, r3
  87 0056 01D0     		beq	.L4
  88 0058 FFF7FEFF 		bl	__stack_chk_fail
  89              	.L4:
  90 005c 07B0     		add	sp, sp, #28
  91              		.cfi_def_cfa_offset 4
  92              		@ sp needed
  93 005e 5DF804FB 		ldr	pc, [sp], #4
  94              	.L6:
  95 0062 00BF     		.align	2
  96              	.L5:
  97 0064 00000000 		.word	__stack_chk_guard
  98              		.cfi_endproc
  99              	.LFE0:
 100              		.size	cmp_mem_reader, .-cmp_mem_reader
 101              		.section	.text.cmp_mem_writer,"ax",%progbits
 102              		.align	1
 103              		.p2align 4,,15
 104              		.syntax unified
 105              		.thumb
 106              		.thumb_func
 107              		.fpu fpv4-sp-d16
 108              		.type	cmp_mem_writer, %function
 109              	cmp_mem_writer:
 110              	.LFB1:
 111              		.loc 1 17 0
 112              		.cfi_startproc
 113              		@ args = 0, pretend = 0, frame = 24
 114              		@ frame_needed = 0, uses_anonymous_args = 0
ARM GAS  C:\Users\PCHAUT~1\AppData\Local\Temp\ccPgTkyc.s 			page 3


 115 0000 00B5     		push	{lr}
 116              		.cfi_def_cfa_offset 4
 117              		.cfi_offset 14, -4
 118 0002 87B0     		sub	sp, sp, #28
 119              		.cfi_def_cfa_offset 32
 120 0004 0390     		str	r0, [sp, #12]
 121 0006 0291     		str	r1, [sp, #8]
 122 0008 0192     		str	r2, [sp, #4]
 123              		.loc 1 17 0
 124 000a 164B     		ldr	r3, .L11
 125 000c 1B68     		ldr	r3, [r3]
 126 000e 0593     		str	r3, [sp, #20]
 127              		.loc 1 18 0
 128 0010 039B     		ldr	r3, [sp, #12]
 129 0012 5B68     		ldr	r3, [r3, #4]
 130 0014 0493     		str	r3, [sp, #16]
 131              		.loc 1 19 0
 132 0016 049B     		ldr	r3, [sp, #16]
 133 0018 5A68     		ldr	r2, [r3, #4]
 134 001a 019B     		ldr	r3, [sp, #4]
 135 001c 1A44     		add	r2, r2, r3
 136 001e 049B     		ldr	r3, [sp, #16]
 137 0020 9B68     		ldr	r3, [r3, #8]
 138 0022 9A42     		cmp	r2, r3
 139 0024 11D8     		bhi	.L8
 140              		.loc 1 20 0
 141 0026 049B     		ldr	r3, [sp, #16]
 142 0028 1A68     		ldr	r2, [r3]
 143 002a 049B     		ldr	r3, [sp, #16]
 144 002c 5B68     		ldr	r3, [r3, #4]
 145 002e 1344     		add	r3, r3, r2
 146 0030 019A     		ldr	r2, [sp, #4]
 147 0032 0299     		ldr	r1, [sp, #8]
 148 0034 1846     		mov	r0, r3
 149 0036 FFF7FEFF 		bl	memcpy
 150              		.loc 1 21 0
 151 003a 049B     		ldr	r3, [sp, #16]
 152 003c 5A68     		ldr	r2, [r3, #4]
 153 003e 019B     		ldr	r3, [sp, #4]
 154 0040 1A44     		add	r2, r2, r3
 155 0042 049B     		ldr	r3, [sp, #16]
 156 0044 5A60     		str	r2, [r3, #4]
 157              		.loc 1 22 0
 158 0046 019B     		ldr	r3, [sp, #4]
 159 0048 00E0     		b	.L9
 160              	.L8:
 161              		.loc 1 24 0
 162 004a 0023     		movs	r3, #0
 163              	.L9:
 164              		.loc 1 26 0
 165 004c 1846     		mov	r0, r3
 166 004e 054B     		ldr	r3, .L11
 167 0050 059A     		ldr	r2, [sp, #20]
 168 0052 1B68     		ldr	r3, [r3]
 169 0054 9A42     		cmp	r2, r3
 170 0056 01D0     		beq	.L10
 171 0058 FFF7FEFF 		bl	__stack_chk_fail
ARM GAS  C:\Users\PCHAUT~1\AppData\Local\Temp\ccPgTkyc.s 			page 4


 172              	.L10:
 173 005c 07B0     		add	sp, sp, #28
 174              		.cfi_def_cfa_offset 4
 175              		@ sp needed
 176 005e 5DF804FB 		ldr	pc, [sp], #4
 177              	.L12:
 178 0062 00BF     		.align	2
 179              	.L11:
 180 0064 00000000 		.word	__stack_chk_guard
 181              		.cfi_endproc
 182              	.LFE1:
 183              		.size	cmp_mem_writer, .-cmp_mem_writer
 184              		.section	.text.cmp_mem_writer_ro,"ax",%progbits
 185              		.align	1
 186              		.p2align 4,,15
 187              		.syntax unified
 188              		.thumb
 189              		.thumb_func
 190              		.fpu fpv4-sp-d16
 191              		.type	cmp_mem_writer_ro, %function
 192              	cmp_mem_writer_ro:
 193              	.LFB2:
 194              		.loc 1 29 0
 195              		.cfi_startproc
 196              		@ args = 0, pretend = 0, frame = 24
 197              		@ frame_needed = 0, uses_anonymous_args = 0
 198 0000 00B5     		push	{lr}
 199              		.cfi_def_cfa_offset 4
 200              		.cfi_offset 14, -4
 201 0002 87B0     		sub	sp, sp, #28
 202              		.cfi_def_cfa_offset 32
 203 0004 0390     		str	r0, [sp, #12]
 204 0006 0291     		str	r1, [sp, #8]
 205 0008 0192     		str	r2, [sp, #4]
 206              		.loc 1 29 0
 207 000a 074B     		ldr	r3, .L16
 208 000c 1B68     		ldr	r3, [r3]
 209 000e 0593     		str	r3, [sp, #20]
 210              		.loc 1 33 0
 211 0010 0023     		movs	r3, #0
 212              		.loc 1 34 0
 213 0012 1846     		mov	r0, r3
 214 0014 044B     		ldr	r3, .L16
 215 0016 059A     		ldr	r2, [sp, #20]
 216 0018 1B68     		ldr	r3, [r3]
 217 001a 9A42     		cmp	r2, r3
 218 001c 01D0     		beq	.L15
 219 001e FFF7FEFF 		bl	__stack_chk_fail
 220              	.L15:
 221 0022 07B0     		add	sp, sp, #28
 222              		.cfi_def_cfa_offset 4
 223              		@ sp needed
 224 0024 5DF804FB 		ldr	pc, [sp], #4
 225              	.L17:
 226              		.align	2
 227              	.L16:
 228 0028 00000000 		.word	__stack_chk_guard
ARM GAS  C:\Users\PCHAUT~1\AppData\Local\Temp\ccPgTkyc.s 			page 5


 229              		.cfi_endproc
 230              	.LFE2:
 231              		.size	cmp_mem_writer_ro, .-cmp_mem_writer_ro
 232              		.section	.text.cmp_mem_access_init,"ax",%progbits
 233              		.align	1
 234              		.p2align 4,,15
 235              		.global	cmp_mem_access_init
 236              		.syntax unified
 237              		.thumb
 238              		.thumb_func
 239              		.fpu fpv4-sp-d16
 240              		.type	cmp_mem_access_init, %function
 241              	cmp_mem_access_init:
 242              	.LFB3:
 243              		.loc 1 37 0
 244              		.cfi_startproc
 245              		@ args = 0, pretend = 0, frame = 24
 246              		@ frame_needed = 0, uses_anonymous_args = 0
 247 0000 00B5     		push	{lr}
 248              		.cfi_def_cfa_offset 4
 249              		.cfi_offset 14, -4
 250 0002 87B0     		sub	sp, sp, #28
 251              		.cfi_def_cfa_offset 32
 252 0004 0390     		str	r0, [sp, #12]
 253 0006 0291     		str	r1, [sp, #8]
 254 0008 0192     		str	r2, [sp, #4]
 255 000a 0093     		str	r3, [sp]
 256              		.loc 1 37 0
 257 000c 0E4B     		ldr	r3, .L20
 258 000e 1B68     		ldr	r3, [r3]
 259 0010 0593     		str	r3, [sp, #20]
 260              		.loc 1 38 0
 261 0012 029B     		ldr	r3, [sp, #8]
 262 0014 019A     		ldr	r2, [sp, #4]
 263 0016 1A60     		str	r2, [r3]
 264              		.loc 1 39 0
 265 0018 029B     		ldr	r3, [sp, #8]
 266 001a 009A     		ldr	r2, [sp]
 267 001c 9A60     		str	r2, [r3, #8]
 268              		.loc 1 40 0
 269 001e 029B     		ldr	r3, [sp, #8]
 270 0020 0022     		movs	r2, #0
 271 0022 5A60     		str	r2, [r3, #4]
 272              		.loc 1 41 0
 273 0024 094B     		ldr	r3, .L20+4
 274 0026 0A4A     		ldr	r2, .L20+8
 275 0028 0299     		ldr	r1, [sp, #8]
 276 002a 0398     		ldr	r0, [sp, #12]
 277 002c FFF7FEFF 		bl	cmp_init
 278              		.loc 1 42 0
 279 0030 00BF     		nop
 280 0032 054B     		ldr	r3, .L20
 281 0034 059A     		ldr	r2, [sp, #20]
 282 0036 1B68     		ldr	r3, [r3]
 283 0038 9A42     		cmp	r2, r3
 284 003a 01D0     		beq	.L19
 285 003c FFF7FEFF 		bl	__stack_chk_fail
ARM GAS  C:\Users\PCHAUT~1\AppData\Local\Temp\ccPgTkyc.s 			page 6


 286              	.L19:
 287 0040 07B0     		add	sp, sp, #28
 288              		.cfi_def_cfa_offset 4
 289              		@ sp needed
 290 0042 5DF804FB 		ldr	pc, [sp], #4
 291              	.L21:
 292 0046 00BF     		.align	2
 293              	.L20:
 294 0048 00000000 		.word	__stack_chk_guard
 295 004c 00000000 		.word	cmp_mem_writer
 296 0050 00000000 		.word	cmp_mem_reader
 297              		.cfi_endproc
 298              	.LFE3:
 299              		.size	cmp_mem_access_init, .-cmp_mem_access_init
 300              		.section	.text.cmp_mem_access_ro_init,"ax",%progbits
 301              		.align	1
 302              		.p2align 4,,15
 303              		.global	cmp_mem_access_ro_init
 304              		.syntax unified
 305              		.thumb
 306              		.thumb_func
 307              		.fpu fpv4-sp-d16
 308              		.type	cmp_mem_access_ro_init, %function
 309              	cmp_mem_access_ro_init:
 310              	.LFB4:
 311              		.loc 1 45 0
 312              		.cfi_startproc
 313              		@ args = 0, pretend = 0, frame = 24
 314              		@ frame_needed = 0, uses_anonymous_args = 0
 315 0000 00B5     		push	{lr}
 316              		.cfi_def_cfa_offset 4
 317              		.cfi_offset 14, -4
 318 0002 87B0     		sub	sp, sp, #28
 319              		.cfi_def_cfa_offset 32
 320 0004 0390     		str	r0, [sp, #12]
 321 0006 0291     		str	r1, [sp, #8]
 322 0008 0192     		str	r2, [sp, #4]
 323 000a 0093     		str	r3, [sp]
 324              		.loc 1 45 0
 325 000c 0E4B     		ldr	r3, .L24
 326 000e 1B68     		ldr	r3, [r3]
 327 0010 0593     		str	r3, [sp, #20]
 328              		.loc 1 46 0
 329 0012 029B     		ldr	r3, [sp, #8]
 330 0014 019A     		ldr	r2, [sp, #4]
 331 0016 1A60     		str	r2, [r3]
 332              		.loc 1 47 0
 333 0018 029B     		ldr	r3, [sp, #8]
 334 001a 009A     		ldr	r2, [sp]
 335 001c 9A60     		str	r2, [r3, #8]
 336              		.loc 1 48 0
 337 001e 029B     		ldr	r3, [sp, #8]
 338 0020 0022     		movs	r2, #0
 339 0022 5A60     		str	r2, [r3, #4]
 340              		.loc 1 49 0
 341 0024 094B     		ldr	r3, .L24+4
 342 0026 0A4A     		ldr	r2, .L24+8
ARM GAS  C:\Users\PCHAUT~1\AppData\Local\Temp\ccPgTkyc.s 			page 7


 343 0028 0299     		ldr	r1, [sp, #8]
 344 002a 0398     		ldr	r0, [sp, #12]
 345 002c FFF7FEFF 		bl	cmp_init
 346              		.loc 1 50 0
 347 0030 00BF     		nop
 348 0032 054B     		ldr	r3, .L24
 349 0034 059A     		ldr	r2, [sp, #20]
 350 0036 1B68     		ldr	r3, [r3]
 351 0038 9A42     		cmp	r2, r3
 352 003a 01D0     		beq	.L23
 353 003c FFF7FEFF 		bl	__stack_chk_fail
 354              	.L23:
 355 0040 07B0     		add	sp, sp, #28
 356              		.cfi_def_cfa_offset 4
 357              		@ sp needed
 358 0042 5DF804FB 		ldr	pc, [sp], #4
 359              	.L25:
 360 0046 00BF     		.align	2
 361              	.L24:
 362 0048 00000000 		.word	__stack_chk_guard
 363 004c 00000000 		.word	cmp_mem_writer_ro
 364 0050 00000000 		.word	cmp_mem_reader
 365              		.cfi_endproc
 366              	.LFE4:
 367              		.size	cmp_mem_access_ro_init, .-cmp_mem_access_ro_init
 368              		.section	.text.cmp_mem_access_get_pos,"ax",%progbits
 369              		.align	1
 370              		.p2align 4,,15
 371              		.global	cmp_mem_access_get_pos
 372              		.syntax unified
 373              		.thumb
 374              		.thumb_func
 375              		.fpu fpv4-sp-d16
 376              		.type	cmp_mem_access_get_pos, %function
 377              	cmp_mem_access_get_pos:
 378              	.LFB5:
 379              		.loc 1 53 0
 380              		.cfi_startproc
 381              		@ args = 0, pretend = 0, frame = 16
 382              		@ frame_needed = 0, uses_anonymous_args = 0
 383 0000 00B5     		push	{lr}
 384              		.cfi_def_cfa_offset 4
 385              		.cfi_offset 14, -4
 386 0002 85B0     		sub	sp, sp, #20
 387              		.cfi_def_cfa_offset 24
 388 0004 0190     		str	r0, [sp, #4]
 389              		.loc 1 53 0
 390 0006 084B     		ldr	r3, .L29
 391 0008 1B68     		ldr	r3, [r3]
 392 000a 0393     		str	r3, [sp, #12]
 393              		.loc 1 54 0
 394 000c 019B     		ldr	r3, [sp, #4]
 395 000e 5B68     		ldr	r3, [r3, #4]
 396              		.loc 1 55 0
 397 0010 1846     		mov	r0, r3
 398 0012 054B     		ldr	r3, .L29
 399 0014 039A     		ldr	r2, [sp, #12]
ARM GAS  C:\Users\PCHAUT~1\AppData\Local\Temp\ccPgTkyc.s 			page 8


 400 0016 1B68     		ldr	r3, [r3]
 401 0018 9A42     		cmp	r2, r3
 402 001a 01D0     		beq	.L28
 403 001c FFF7FEFF 		bl	__stack_chk_fail
 404              	.L28:
 405 0020 05B0     		add	sp, sp, #20
 406              		.cfi_def_cfa_offset 4
 407              		@ sp needed
 408 0022 5DF804FB 		ldr	pc, [sp], #4
 409              	.L30:
 410 0026 00BF     		.align	2
 411              	.L29:
 412 0028 00000000 		.word	__stack_chk_guard
 413              		.cfi_endproc
 414              	.LFE5:
 415              		.size	cmp_mem_access_get_pos, .-cmp_mem_access_get_pos
 416              		.section	.text.cmp_mem_access_set_pos,"ax",%progbits
 417              		.align	1
 418              		.p2align 4,,15
 419              		.global	cmp_mem_access_set_pos
 420              		.syntax unified
 421              		.thumb
 422              		.thumb_func
 423              		.fpu fpv4-sp-d16
 424              		.type	cmp_mem_access_set_pos, %function
 425              	cmp_mem_access_set_pos:
 426              	.LFB6:
 427              		.loc 1 58 0
 428              		.cfi_startproc
 429              		@ args = 0, pretend = 0, frame = 16
 430              		@ frame_needed = 0, uses_anonymous_args = 0
 431 0000 00B5     		push	{lr}
 432              		.cfi_def_cfa_offset 4
 433              		.cfi_offset 14, -4
 434 0002 85B0     		sub	sp, sp, #20
 435              		.cfi_def_cfa_offset 24
 436 0004 0190     		str	r0, [sp, #4]
 437 0006 0091     		str	r1, [sp]
 438              		.loc 1 58 0
 439 0008 084B     		ldr	r3, .L33
 440 000a 1B68     		ldr	r3, [r3]
 441 000c 0393     		str	r3, [sp, #12]
 442              		.loc 1 59 0
 443 000e 019B     		ldr	r3, [sp, #4]
 444 0010 009A     		ldr	r2, [sp]
 445 0012 5A60     		str	r2, [r3, #4]
 446              		.loc 1 60 0
 447 0014 00BF     		nop
 448 0016 054B     		ldr	r3, .L33
 449 0018 039A     		ldr	r2, [sp, #12]
 450 001a 1B68     		ldr	r3, [r3]
 451 001c 9A42     		cmp	r2, r3
 452 001e 01D0     		beq	.L32
 453 0020 FFF7FEFF 		bl	__stack_chk_fail
 454              	.L32:
 455 0024 05B0     		add	sp, sp, #20
 456              		.cfi_def_cfa_offset 4
ARM GAS  C:\Users\PCHAUT~1\AppData\Local\Temp\ccPgTkyc.s 			page 9


 457              		@ sp needed
 458 0026 5DF804FB 		ldr	pc, [sp], #4
 459              	.L34:
 460 002a 00BF     		.align	2
 461              	.L33:
 462 002c 00000000 		.word	__stack_chk_guard
 463              		.cfi_endproc
 464              	.LFE6:
 465              		.size	cmp_mem_access_set_pos, .-cmp_mem_access_set_pos
 466              		.section	.text.cmp_mem_access_get_ptr_at_pos,"ax",%progbits
 467              		.align	1
 468              		.p2align 4,,15
 469              		.global	cmp_mem_access_get_ptr_at_pos
 470              		.syntax unified
 471              		.thumb
 472              		.thumb_func
 473              		.fpu fpv4-sp-d16
 474              		.type	cmp_mem_access_get_ptr_at_pos, %function
 475              	cmp_mem_access_get_ptr_at_pos:
 476              	.LFB7:
 477              		.loc 1 63 0
 478              		.cfi_startproc
 479              		@ args = 0, pretend = 0, frame = 16
 480              		@ frame_needed = 0, uses_anonymous_args = 0
 481 0000 00B5     		push	{lr}
 482              		.cfi_def_cfa_offset 4
 483              		.cfi_offset 14, -4
 484 0002 85B0     		sub	sp, sp, #20
 485              		.cfi_def_cfa_offset 24
 486 0004 0190     		str	r0, [sp, #4]
 487 0006 0091     		str	r1, [sp]
 488              		.loc 1 63 0
 489 0008 084B     		ldr	r3, .L38
 490 000a 1B68     		ldr	r3, [r3]
 491 000c 0393     		str	r3, [sp, #12]
 492              		.loc 1 64 0
 493 000e 019B     		ldr	r3, [sp, #4]
 494 0010 1A68     		ldr	r2, [r3]
 495 0012 009B     		ldr	r3, [sp]
 496 0014 1344     		add	r3, r3, r2
 497              		.loc 1 65 0
 498 0016 1846     		mov	r0, r3
 499 0018 044B     		ldr	r3, .L38
 500 001a 039A     		ldr	r2, [sp, #12]
 501 001c 1B68     		ldr	r3, [r3]
 502 001e 9A42     		cmp	r2, r3
 503 0020 01D0     		beq	.L37
 504 0022 FFF7FEFF 		bl	__stack_chk_fail
 505              	.L37:
 506 0026 05B0     		add	sp, sp, #20
 507              		.cfi_def_cfa_offset 4
 508              		@ sp needed
 509 0028 5DF804FB 		ldr	pc, [sp], #4
 510              	.L39:
 511              		.align	2
 512              	.L38:
 513 002c 00000000 		.word	__stack_chk_guard
ARM GAS  C:\Users\PCHAUT~1\AppData\Local\Temp\ccPgTkyc.s 			page 10


 514              		.cfi_endproc
 515              	.LFE7:
 516              		.size	cmp_mem_access_get_ptr_at_pos, .-cmp_mem_access_get_ptr_at_pos
 517              		.section	.text.cmp_mem_access_pos_is_valid,"ax",%progbits
 518              		.align	1
 519              		.p2align 4,,15
 520              		.global	cmp_mem_access_pos_is_valid
 521              		.syntax unified
 522              		.thumb
 523              		.thumb_func
 524              		.fpu fpv4-sp-d16
 525              		.type	cmp_mem_access_pos_is_valid, %function
 526              	cmp_mem_access_pos_is_valid:
 527              	.LFB8:
 528              		.loc 1 68 0
 529              		.cfi_startproc
 530              		@ args = 0, pretend = 0, frame = 16
 531              		@ frame_needed = 0, uses_anonymous_args = 0
 532 0000 00B5     		push	{lr}
 533              		.cfi_def_cfa_offset 4
 534              		.cfi_offset 14, -4
 535 0002 85B0     		sub	sp, sp, #20
 536              		.cfi_def_cfa_offset 24
 537 0004 0190     		str	r0, [sp, #4]
 538 0006 0091     		str	r1, [sp]
 539              		.loc 1 68 0
 540 0008 0A4B     		ldr	r3, .L44
 541 000a 1B68     		ldr	r3, [r3]
 542 000c 0393     		str	r3, [sp, #12]
 543              		.loc 1 69 0
 544 000e 019B     		ldr	r3, [sp, #4]
 545 0010 9B68     		ldr	r3, [r3, #8]
 546 0012 009A     		ldr	r2, [sp]
 547 0014 9A42     		cmp	r2, r3
 548 0016 01D3     		bcc	.L41
 549              		.loc 1 70 0
 550 0018 0023     		movs	r3, #0
 551 001a 00E0     		b	.L42
 552              	.L41:
 553              		.loc 1 72 0
 554 001c 0123     		movs	r3, #1
 555              	.L42:
 556              		.loc 1 74 0
 557 001e 1846     		mov	r0, r3
 558 0020 044B     		ldr	r3, .L44
 559 0022 039A     		ldr	r2, [sp, #12]
 560 0024 1B68     		ldr	r3, [r3]
 561 0026 9A42     		cmp	r2, r3
 562 0028 01D0     		beq	.L43
 563 002a FFF7FEFF 		bl	__stack_chk_fail
 564              	.L43:
 565 002e 05B0     		add	sp, sp, #20
 566              		.cfi_def_cfa_offset 4
 567              		@ sp needed
 568 0030 5DF804FB 		ldr	pc, [sp], #4
 569              	.L45:
 570              		.align	2
ARM GAS  C:\Users\PCHAUT~1\AppData\Local\Temp\ccPgTkyc.s 			page 11


 571              	.L44:
 572 0034 00000000 		.word	__stack_chk_guard
 573              		.cfi_endproc
 574              	.LFE8:
 575              		.size	cmp_mem_access_pos_is_valid, .-cmp_mem_access_pos_is_valid
 576              		.text
 577              	.Letext0:
 578              		.file 2 "c:\\users\\pchautems\\documents\\robotiquetp\\eclipse_e-puck2\\tools\\gcc-arm-none-eabi-7
 579              		.file 3 "c:\\users\\pchautems\\documents\\robotiquetp\\eclipse_e-puck2\\tools\\gcc-arm-none-eabi-7
 580              		.file 4 "c:\\users\\pchautems\\documents\\robotiquetp\\eclipse_e-puck2\\tools\\gcc-arm-none-eabi-7
 581              		.file 5 "c:\\users\\pchautems\\documents\\robotiquetp\\eclipse_e-puck2\\tools\\gcc-arm-none-eabi-7
 582              		.file 6 "c:\\users\\pchautems\\documents\\robotiquetp\\eclipse_e-puck2\\tools\\gcc-arm-none-eabi-7
 583              		.file 7 "c:\\users\\pchautems\\documents\\robotiquetp\\eclipse_e-puck2\\tools\\gcc-arm-none-eabi-7
 584              		.file 8 "c:\\users\\pchautems\\documents\\robotiquetp\\eclipse_e-puck2\\tools\\gcc-arm-none-eabi-7
 585              		.file 9 "../lib/e-puck2_main-processor/src/cmp/cmp.h"
 586              		.file 10 "../lib/e-puck2_main-processor/src/cmp_mem_access/cmp_mem_access.h"