ARM GAS  C:\Users\PCHAUT~1\AppData\Local\Temp\ccPgTkyc.s 			page 1


   1              		.cpu cortex-m4
   2              		.eabi_attribute 27, 1
   3              		.eabi_attribute 28, 1
   4              		.eabi_attribute 20, 1
   5              		.eabi_attribute 21, 1
   6              		.eabi_attribute 23, 3
   7              		.eabi_attribute 24, 1
   8              		.eabi_attribute 25, 1
   9              		.eabi_attribute 26, 1
  10              		.eabi_attribute 30, 6
  11              		.eabi_attribute 34, 1
  12              		.eabi_attribute 18, 4
  13              		.file	"cmp_mem_access.c"
  14              		.text
  15              	.Ltext0:
  16              		.cfi_sections	.debug_frame
  17              		.section	.text.cmp_mem_reader,"ax",%progbits
  18              		.align	1
  19              		.p2align 4,,15
  20              		.syntax unified
  21              		.thumb
  22              		.thumb_func
  23              		.fpu fpv4-sp-d16
  24              		.type	cmp_mem_reader, %function
  25              	cmp_mem_reader:
  26              	.LFB0:
  27              		.file 1 "../lib/e-puck2_main-processor/src/cmp_mem_access/cmp_mem_access.c"
  28              		.loc 1 5 0
  29              		.cfi_startproc
  30              		@ args = 0, pretend = 0, frame = 24
  31              		@ frame_needed = 0, uses_anonymous_args = 0
  32 0000 00B5     		push	{lr}
  33              		.cfi_def_cfa_offset 4
  34              		.cfi_offset 14, -4
  35 0002 87B0     		sub	sp, sp, #28
  36              		.cfi_def_cfa_offset 32
  37 0004 0390     		str	r0, [sp, #12]
  38 0006 0291     		str	r1, [sp, #8]
  39 0008 0192     		str	r2, [sp, #4]
  40              		.loc 1 5 0
  41 000a 164B     		ldr	r3, .L5
  42 000c 1B68     		ldr	r3, [r3]
  43 000e 0593     		str	r3, [sp, #20]
  44              		.loc 1 6 0
  45 0010 039B     		ldr	r3, [sp, #12]
  46 0012 5B68     		ldr	r3, [r3, #4]
  47 0014 0493     		str	r3, [sp, #16]
  48              		.loc 1 7 0
  49 0016 049B     		ldr	r3, [sp, #16]
  50 0018 5A68     		ldr	r2, [r3, #4]
  51 001a 019B     		ldr	r3, [sp, #4]
  52 001c 1A44     		add	r2, r2, r3
  53 001e 049B     		ldr	r3, [sp, #16]
  54 0020 9B68     		ldr	r3, [r3, #8]
  55 0022 9A42     		cmp	r2, r3
  56 0024 11D8     		bhi	.L2
  57              		.loc 1 8 0
ARM GAS  C:\Users\PCHAUT~1\AppData\Local\Temp\ccPgTkyc.s 			page 2


  58 0026 049B     		ldr	r3, [sp, #16]
  59 0028 1A68     		ldr	r2, [r3]
  60 002a 049B     		ldr	r3, [sp, #16]
  61 002c 5B68     		ldr	r3, [r3, #4]
  62 002e 1344     		add	r3, r3, r2
  63 0030 019A     		ldr	r2, [sp, #4]
  64 0032 1946     		mov	r1, r3
  65 0034 0298     		ldr	r0, [sp, #8]
  66 0036 FFF7FEFF 		bl	memcpy
  67              		.loc 1 9 0
  68 003a 049B     		ldr	r3, [sp, #16]
  69 003c 5A68     		ldr	r2, [r3, #4]
  70 003e 019B     		ldr	r3, [sp, #4]
  71 0040 1A44     		add	r2, r2, r3
  72 0042 049B     		ldr	r3, [sp, #16]
  73 0044 5A60     		str	r2, [r3, #4]
  74              		.loc 1 10 0
  75 0046 0123     		movs	r3, #1
  76 0048 00E0     		b	.L3
  77              	.L2:
  78              		.loc 1 12 0
  79 004a 0023     		movs	r3, #0
  80              	.L3:
  81              		.loc 1 14 0
  82 004c 1846     		mov	r0, r3
  83 004e 054B     		ldr	r3, .L5
  84 0050 059A     		ldr	r2, [sp, #20]
  85 0052 1B68     		ldr	r3, [r3]
  86 0054 9A42     		cmp	r2, r3
  87 0056 01D0     		beq	.L4
  88 0058 FFF7FEFF 		bl	__stack_chk_fail
  89              	.L4:
  90 005c 07B0     		add	sp, sp, #28
  91              		.cfi_def_cfa_offset 4
  92              		@ sp needed
  93 005e 5DF804FB 		ldr	pc, [sp], #4
  94              	.L6:
  95 0062 00BF     		.align	2
  96              	.L5:
  97 0064 00000000 		.word	__stack_chk_guard
  98              		.cfi_endproc
  99              	.LFE0:
 100              		.size	cmp_mem_reader, .-cmp_mem_reader
 101              		.section	.text.cmp_mem_writer,"ax",%progbits
 102              		.align	1
 103              		.p2align 4,,15
 104              		.syntax unified
 105              		.thumb
 106              		.thumb_func
 107              		.fpu fpv4-sp-d16
 108              		.type	cmp_mem_writer, %function
 109              	cmp_mem_writer:
 110              	.LFB1:
 111              		.loc 1 17 0
 112              		.cfi_startproc
 113              		@ args = 0, pretend = 0, frame = 24
 114              		@ frame_needed = 0, uses_anonymous_args = 0
ARM GAS  C:\Users\PCHAUT~1\AppData\Local\Temp\ccPgTkyc.s 			page 3


 115 0000 00B5     		push	{lr}
 116              		.cfi_def_cfa_offset 4
 117              		.cfi_offset 14, -4
 118 0002 87B0     		sub	sp, sp, #28
 119              		.cfi_def_cfa_offset 32
 120 0004 0390     		str	r0, [sp, #12]
 121 0006 0291     		str	r1, [sp, #8]
 122 0008 0192     		str	r2, [sp, #4]
 123              		.loc 1 17 0
 124 000a 164B     		ldr	r3, .L11
 125 000c 1B68     		ldr	r3, [r3]
 126 000e 0593     		str	r3, [sp, #20]
 127              		.loc 1 18 0
 128 0010 039B     		ldr	r3, [sp, #12]
 129 0012 5B68     		ldr	r3, [r3, #4]
 130 0014 0493     		str	r3, [sp, #16]
 131              		.loc 1 19 0
 132 0016 049B     		ldr	r3, [sp, #16]
 133 0018 5A68     		ldr	r2, [r3, #4]
 134 001a 019B     		ldr	r3, [sp, #4]
 135 001c 1A44     		add	r2, r2, r3
 136 001e 049B     		ldr	r3, [sp, #16]
 137 0020 9B68     		ldr	r3, [r3, #8]
 138 0022 9A42     		cmp	r2, r3
 139 0024 11D8     		bhi	.L8
 140              		.loc 1 20 0
 141 0026 049B     		ldr	r3, [sp, #16]
 142 0028 1A68     		ldr	r2, [r3]
 143 002a 049B     		ldr	r3, [sp, #16]
 144 002c 5B68     		ldr	r3, [r3, #4]
 145 002e 1344     		add	r3, r3, r2
 146 0030 019A     		ldr	r2, [sp, #4]
 147 0032 0299     		ldr	r1, [sp, #8]
 148 0034 1846     		mov	r0, r3
 149 0036 FFF7FEFF 		bl	memcpy
 150              		.loc 1 21 0
 151 003a 049B     		ldr	r3, [sp, #16]
 152 003c 5A68     		ldr	r2, [r3, #4]
 153 003e 019B     		ldr	r3, [sp, #4]
 154 0040 1A44     		add	r2, r2, r3
 155 0042 049B     		ldr	r3, [sp, #16]
 156 0044 5A60     		str	r2, [r3, #4]
 157              		.loc 1 22 0
 158 0046 019B     		ldr	r3, [sp, #4]
 159 0048 00E0     		b	.L9
 160              	.L8:
 161              		.loc 1 24 0
 162 004a 0023     		movs	r3, #0
 163              	.L9:
 164              		.loc 1 26 0
 165 004c 1846     		mov	r0, r3
 166 004e 054B     		ldr	r3, .L11
 167 0050 059A     		ldr	r2, [sp, #20]
 168 0052 1B68     		ldr	r3, [r3]
 169 0054 9A42     		cmp	r2, r3
 170 0056 01D0     		beq	.L10
 171 0058 FFF7FEFF 		bl	__stack_chk_fail
ARM GAS  C:\Users\PCHAUT~1\AppData\Local\Temp\ccPgTkyc.s 			page 4


 172              	.L10:
 173 005c 07B0     		add	sp, sp, #28
 174              		.cfi_def_cfa_offset 4
 175              		@ sp needed
 176 005e 5DF804FB 		ldr	pc, [sp], #4
 177              	.L12:
 178 0062 00BF     		.align	2
 179              	.L11:
 180 0064 00000000 		.word	__stack_chk_guard
 181              		.cfi_endproc
 182              	.LFE1:
 183              		.size	cmp_mem_writer, .-cmp_mem_writer
 184              		.section	.text.cmp_mem_writer_ro,"ax",%progbits
 185              		.align	1
 186              		.p2align 4,,15
 187              		.syntax unified
 188              		.thumb
 189              		.thumb_func
 190              		.fpu fpv4-sp-d16
 191              		.type	cmp_mem_writer_ro, %function
 192              	cmp_mem_writer_ro:
 193              	.LFB2:
 194              		.loc 1 29 0
 195              		.cfi_startproc
 196              		@ args = 0, pretend = 0, frame = 24
 197              		@ frame_needed = 0, uses_anonymous_args = 0
 198 0000 00B5     		push	{lr}
 199              		.cfi_def_cfa_offset 4
 200              		.cfi_offset 14, -4
 201 0002 87B0     		sub	sp, sp, #28
 202              		.cfi_def_cfa_offset 32
 203 0004 0390     		str	r0, [sp, #12]
 204 0006 0291     		str	r1, [sp, #8]
 205 0008 0192     		str	r2, [sp, #4]
 206              		.loc 1 29 0
 207 000a 074B     		ldr	r3, .L16
 208 000c 1B68     		ldr	r3, [r3]
 209 000e 0593     		str	r3, [sp, #20]
 210              		.loc 1 33 0
 211 0010 0023     		movs	r3, #0
 212              		.loc 1 34 0
 213 0012 1846     		mov	r0, r3
 214 0014 044B     		ldr	r3, .L16
 215 0016 059A     		ldr	r2, [sp, #20]
 216 0018 1B68     		ldr	r3, [r3]
 217 001a 9A42     		cmp	r2, r3
 218 001c 01D0     		beq	.L15
 219 001e FFF7FEFF 		bl	__stack_chk_fail
 220              	.L15:
 221 0022 07B0     		add	sp, sp, #28
 222              		.cfi_def_cfa_offset 4
 223              		@ sp needed
 224 0024 5DF804FB 		ldr	pc, [sp], #4
 225              	.L17:
 226              		.align	2
 227              	.L16:
 228 0028 00000000 		.word	__stack_chk_guard
ARM GAS  C:\Users\PCHAUT~1\AppData\Local\Temp\ccPgTkyc.s 			page 5


 229              		.cfi_endproc
 230              	.LFE2:
 231              		.size	cmp_mem_writer_ro, .-cmp_mem_writer_ro
 232              		.section	.text.cmp_mem_access_init,"ax",%progbits
 233              		.align	1
 234              		.p2align 4,,15
 235              		.global	cmp_mem_access_init
 236              		.syntax unified
 237              		.thumb
 238              		.thumb_func
 239              		.fpu fpv4-sp-d16
 240              		.type	cmp_mem_access_init, %function
 241              	cmp_mem_access_init:
 242              	.LFB3:
 243              		.loc 1 37 0
 244              		.cfi_startproc
 245              		@ args = 0, pretend = 0, frame = 24
 246              		@ frame_needed = 0, uses_anonymous_args = 0
 247 0000 00B5     		push	{lr}
 248              		.cfi_def_cfa_offset 4
 249              		.cfi_offset 14, -4
 250 0002 87B0     		sub	sp, sp, #28
 251              		.cfi_def_cfa_offset 32
 252 0004 0390     		str	r0, [sp, #12]
 253 0006 0291     		str	r1, [sp, #8]
 254 0008 0192     		str	r2, [sp, #4]
 255 000a 0093     		str	r3, [sp]
 256              		.loc 1 37 0
 257 000c 0E4B     		ldr	r3, .L20
 258 000e 1B68     		ldr	r3, [r3]
 259 0010 0593     		str	r3, [sp, #20]
 260              		.loc 1 38 0
 261 0012 029B     		ldr	r3, [sp, #8]
 262 0014 019A     		ldr	r2, [sp, #4]
 263 0016 1A60     		str	r2, [r3]
 264              		.loc 1 39 0
 265 0018 029B     		ldr	r3, [sp, #8]
 266 001a 009A     		ldr	r2, [sp]
 267 001c 9A60     		str	r2, [r3, #8]
 268              		.loc 1 40 0
 269 001e 029B     		ldr	r3, [sp, #8]
 270 0020 0022     		movs	r2, #0
 271 0022 5A60     		str	r2, [r3, #4]
 272              		.loc 1 41 0
 273 0024 094B     		ldr	r3, .L20+4
 274 0026 0A4A     		ldr	r2, .L20+8
 275 0028 0299     		ldr	r1, [sp, #8]
 276 002a 0398     		ldr	r0, [sp, #12]
 277 002c FFF7FEFF 		bl	cmp_init
 278              		.loc 1 42 0
 279 0030 00BF     		nop
 280 0032 054B     		ldr	r3, .L20
 281 0034 059A     		ldr	r2, [sp, #20]
 282 0036 1B68     		ldr	r3, [r3]
 283 0038 9A42     		cmp	r2, r3
 284 003a 01D0     		beq	.L19
 285 003c FFF7FEFF 		bl	__stack_chk_fail
ARM GAS  C:\Users\PCHAUT~1\AppData\Local\Temp\ccPgTkyc.s 			page 6


 286              	.L19:
 287 0040 07B0     		add	sp, sp, #28
 288              		.cfi_def_cfa_offset 4
 289              		@ sp needed
 290 0042 5DF804FB 		ldr	pc, [sp], #4
 291              	.L21:
 292 0046 00BF     		.align	2
 293              	.L20:
 294 0048 00000000 		.word	__stack_chk_guard
 295 004c 00000000 		.word	cmp_mem_writer
 296 0050 00000000 		.word	cmp_mem_reader
 297              		.cfi_endproc
 298              	.LFE3:
 299              		.size	cmp_mem_access_init, .-cmp_mem_access_init
 300              		.section	.text.cmp_mem_access_ro_init,"ax",%progbits
 301              		.align	1
 302              		.p2align 4,,15
 303              		.global	cmp_mem_access_ro_init
 304              		.syntax unified
 305              		.thumb
 306              		.thumb_func
 307              		.fpu fpv4-sp-d16
 308              		.type	cmp_mem_access_ro_init, %function
 309              	cmp_mem_access_ro_init:
 310              	.LFB4:
 311              		.loc 1 45 0
 312              		.cfi_startproc
 313              		@ args = 0, pretend = 0, frame = 24
 314              		@ frame_needed = 0, uses_anonymous_args = 0
 315 0000 00B5     		push	{lr}
 316              		.cfi_def_cfa_offset 4
 317              		.cfi_offset 14, -4
 318 0002 87B0     		sub	sp, sp, #28
 319              		.cfi_def_cfa_offset 32
 320 0004 0390     		str	r0, [sp, #12]
 321 0006 0291     		str	r1, [sp, #8]
 322 0008 0192     		str	r2, [sp, #4]
 323 000a 0093     		str	r3, [sp]
 324              		.loc 1 45 0
 325 000c 0E4B     		ldr	r3, .L24
 326 000e 1B68     		ldr	r3, [r3]
 327 0010 0593     		str	r3, [sp, #20]
 328              		.loc 1 46 0
 329 0012 029B     		ldr	r3, [sp, #8]
 330 0014 019A     		ldr	r2, [sp, #4]
 331 0016 1A60     		str	r2, [r3]
 332              		.loc 1 47 0
 333 0018 029B     		ldr	r3, [sp, #8]
 334 001a 009A     		ldr	r2, [sp]
 335 001c 9A60     		str	r2, [r3, #8]
 336              		.loc 1 48 0
 337 001e 029B     		ldr	r3, [sp, #8]
 338 0020 0022     		movs	r2, #0
 339 0022 5A60     		str	r2, [r3, #4]
 340              		.loc 1 49 0
 341 0024 094B     		ldr	r3, .L24+4
 342 0026 0A4A     		ldr	r2, .L24+8
ARM GAS  C:\Users\PCHAUT~1\AppData\Local\Temp\ccPgTkyc.s 			page 7


 343 0028 0299     		ldr	r1, [sp, #8]
 344 002a 0398     		ldr	r0, [sp, #12]
 345 002c FFF7FEFF 		bl	cmp_init
 346              		.loc 1 50 0
 347 0030 00BF     		nop
 348 0032 054B     		ldr	r3, .L24
 349 0034 059A     		ldr	r2, [sp, #20]
 350 0036 1B68     		ldr	r3, [r3]
 351 0038 9A42     		cmp	r2, r3
 352 003a 01D0     		beq	.L23
 353 003c FFF7FEFF 		bl	__stack_chk_fail
 354              	.L23:
 355 0040 07B0     		add	sp, sp, #28
 356              		.cfi_def_cfa_offset 4
 357              		@ sp needed
 358 0042 5DF804FB 		ldr	pc, [sp], #4
 359              	.L25:
 360 0046 00BF     		.align	2
 361              	.L24:
 362 0048 00000000 		.word	__stack_chk_guard
 363 004c 00000000 		.word	cmp_mem_writer_ro
 364 0050 00000000 		.word	cmp_mem_reader
 365              		.cfi_endproc
 366              	.LFE4:
 367              		.size	cmp_mem_access_ro_init, .-cmp_mem_access_ro_init
 368              		.section	.text.cmp_mem_access_get_pos,"ax",%progbits
 369              		.align	1
 370              		.p2align 4,,15
 371              		.global	cmp_mem_access_get_pos
 372              		.syntax unified
 373              		.thumb
 374              		.thumb_func
 375              		.fpu fpv4-sp-d16
 376              		.type	cmp_mem_access_get_pos, %function
 377              	cmp_mem_access_get_pos:
 378              	.LFB5:
 379              		.loc 1 53 0
 380              		.cfi_startproc
 381              		@ args = 0, pretend = 0, frame = 16
 382              		@ frame_needed = 0, uses_anonymous_args = 0
 383 0000 00B5     		push	{lr}
 384              		.cfi_def_cfa_offset 4
 385              		.cfi_offset 14, -4
 386 0002 85B0     		sub	sp, sp, #20
 387              		.cfi_def_cfa_offset 24
 388 0004 0190     		str	r0, [sp, #4]
 389              		.loc 1 53 0
 390 0006 084B     		ldr	r3, .L29
 391 0008 1B68     		ldr	r3, [r3]
 392 000a 0393     		str	r3, [sp, #12]
 393              		.loc 1 54 0
 394 000c 019B     		ldr	r3, [sp, #4]
 395 000e 5B68     		ldr	r3, [r3, #4]
 396              		.loc 1 55 0
 397 0010 1846     		mov	r0, r3
 398 0012 054B     		ldr	r3, .L29
 399 0014 039A     		ldr	r2, [sp, #12]
ARM GAS  C:\Users\PCHAUT~1\AppData\Local\Temp\ccPgTkyc.s 			page 8


 400 0016 1B68     		ldr	r3, [r3]
 401 0018 9A42     		cmp	r2, r3
 402 001a 01D0     		beq	.L28
 403 001c FFF7FEFF 		bl	__stack_chk_fail
 404              	.L28:
 405 0020 05B0     		add	sp, sp, #20
 406              		.cfi_def_cfa_offset 4
 407              		@ sp needed
 408 0022 5DF804FB 		ldr	pc, [sp], #4
 409              	.L30:
 410 0026 00BF     		.align	2
 411              	.L29:
 412 0028 00000000 		.word	__stack_chk_guard
 413              		.cfi_endproc
 414              	.LFE5:
 415              		.size	cmp_mem_access_get_pos, .-cmp_mem_access_get_pos
 416              		.section	.text.cmp_mem_access_set_pos,"ax",%progbits
 417              		.align	1
 418              		.p2align 4,,15
 419              		.global	cmp_mem_access_set_pos
 420              		.syntax unified
 421              		.thumb
 422              		.thumb_func
 423              		.fpu fpv4-sp-d16
 424              		.type	cmp_mem_access_set_pos, %function
 425              	cmp_mem_access_set_pos:
 426              	.LFB6:
 427              		.loc 1 58 0
 428              		.cfi_startproc
 429              		@ args = 0, pretend = 0, frame = 16
 430              		@ frame_needed = 0, uses_anonymous_args = 0
 431 0000 00B5     		push	{lr}
 432              		.cfi_def_cfa_offset 4
 433              		.cfi_offset 14, -4
 434 0002 85B0     		sub	sp, sp, #20
 435              		.cfi_def_cfa_offset 24
 436 0004 0190     		str	r0, [sp, #4]
 437 0006 0091     		str	r1, [sp]
 438              		.loc 1 58 0
 439 0008 084B     		ldr	r3, .L33
 440 000a 1B68     		ldr	r3, [r3]
 441 000c 0393     		str	r3, [sp, #12]
 442              		.loc 1 59 0
 443 000e 019B     		ldr	r3, [sp, #4]
 444 0010 009A     		ldr	r2, [sp]
 445 0012 5A60     		str	r2, [r3, #4]
 446              		.loc 1 60 0
 447 0014 00BF     		nop
 448 0016 054B     		ldr	r3, .L33
 449 0018 039A     		ldr	r2, [sp, #12]
 450 001a 1B68     		ldr	r3, [r3]
 451 001c 9A42     		cmp	r2, r3
 452 001e 01D0     		beq	.L32
 453 0020 FFF7FEFF 		bl	__stack_chk_fail
 454              	.L32:
 455 0024 05B0     		add	sp, sp, #20
 456              		.cfi_def_cfa_offset 4
ARM GAS  C:\Users\PCHAUT~1\AppData\Local\Temp\ccPgTkyc.s 			page 9


 457              		@ sp needed
 458 0026 5DF804FB 		ldr	pc, [sp], #4
 459              	.L34:
 460 002a 00BF     		.align	2
 461              	.L33:
 462 002c 00000000 		.word	__stack_chk_guard
 463              		.cfi_endproc
 464              	.LFE6:
 465              		.size	cmp_mem_access_set_pos, .-cmp_mem_access_set_pos
 466              		.section	.text.cmp_mem_access_get_ptr_at_pos,"ax",%progbits
 467              		.align	1
 468              		.p2align 4,,15
 469              		.global	cmp_mem_access_get_ptr_at_pos
 470              		.syntax unified
 471              		.thumb
 472              		.thumb_func
 473              		.fpu fpv4-sp-d16
 474              		.type	cmp_mem_access_get_ptr_at_pos, %function
 475              	cmp_mem_access_get_ptr_at_pos:
 476              	.LFB7:
 477              		.loc 1 63 0
 478              		.cfi_startproc
 479              		@ args = 0, pretend = 0, frame = 16
 480              		@ frame_needed = 0, uses_anonymous_args = 0
 481 0000 00B5     		push	{lr}
 482              		.cfi_def_cfa_offset 4
 483              		.cfi_offset 14, -4
 484 0002 85B0     		sub	sp, sp, #20
 485              		.cfi_def_cfa_offset 24
 486 0004 0190     		str	r0, [sp, #4]
 487 0006 0091     		str	r1, [sp]
 488              		.loc 1 63 0
 489 0008 084B     		ldr	r3, .L38
 490 000a 1B68     		ldr	r3, [r3]
 491 000c 0393     		str	r3, [sp, #12]
 492              		.loc 1 64 0
 493 000e 019B     		ldr	r3, [sp, #4]
 494 0010 1A68     		ldr	r2, [r3]
 495 0012 009B     		ldr	r3, [sp]
 496 0014 1344     		add	r3, r3, r2
 497              		.loc 1 65 0
 498 0016 1846     		mov	r0, r3
 499 0018 044B     		ldr	r3, .L38
 500 001a 039A     		ldr	r2, [sp, #12]
 501 001c 1B68     		ldr	r3, [r3]
 502 001e 9A42     		cmp	r2, r3
 503 0020 01D0     		beq	.L37
 504 0022 FFF7FEFF 		bl	__stack_chk_fail
 505              	.L37:
 506 0026 05B0     		add	sp, sp, #20
 507              		.cfi_def_cfa_offset 4
 508              		@ sp needed
 509 0028 5DF804FB 		ldr	pc, [sp], #4
 510              	.L39:
 511              		.align	2
 512              	.L38:
 513 002c 00000000 		.word	__stack_chk_guard
ARM GAS  C:\Users\PCHAUT~1\AppData\Local\Temp\ccPgTkyc.s 			page 10


 514              		.cfi_endproc
 515              	.LFE7:
 516              		.size	cmp_mem_access_get_ptr_at_pos, .-cmp_mem_access_get_ptr_at_pos
 517              		.section	.text.cmp_mem_access_pos_is_valid,"ax",%progbits
 518              		.align	1
 519              		.p2align 4,,15
 520              		.global	cmp_mem_access_pos_is_valid
 521              		.syntax unified
 522              		.thumb
 523              		.thumb_func
 524              		.fpu fpv4-sp-d16
 525              		.type	cmp_mem_access_pos_is_valid, %function
 526              	cmp_mem_access_pos_is_valid:
 527              	.LFB8:
 528              		.loc 1 68 0
 529              		.cfi_startproc
 530              		@ args = 0, pretend = 0, frame = 16
 531              		@ frame_needed = 0, uses_anonymous_args = 0
 532 0000 00B5     		push	{lr}
 533              		.cfi_def_cfa_offset 4
 534              		.cfi_offset 14, -4
 535 0002 85B0     		sub	sp, sp, #20
 536              		.cfi_def_cfa_offset 24
 537 0004 0190     		str	r0, [sp, #4]
 538 0006 0091     		str	r1, [sp]
 539              		.loc 1 68 0
 540 0008 0A4B     		ldr	r3, .L44
 541 000a 1B68     		ldr	r3, [r3]
 542 000c 0393     		str	r3, [sp, #12]
 543              		.loc 1 69 0
 544 000e 019B     		ldr	r3, [sp, #4]
 545 0010 9B68     		ldr	r3, [r3, #8]
 546 0012 009A     		ldr	r2, [sp]
 547 0014 9A42     		cmp	r2, r3
 548 0016 01D3     		bcc	.L41
 549              		.loc 1 70 0
 550 0018 0023     		movs	r3, #0
 551 001a 00E0     		b	.L42
 552              	.L41:
 553              		.loc 1 72 0
 554 001c 0123     		movs	r3, #1
 555              	.L42:
 556              		.loc 1 74 0
 557 001e 1846     		mov	r0, r3
 558 0020 044B     		ldr	r3, .L44
 559 0022 039A     		ldr	r2, [sp, #12]
 560 0024 1B68     		ldr	r3, [r3]
 561 0026 9A42     		cmp	r2, r3
 562 0028 01D0     		beq	.L43
 563 002a FFF7FEFF 		bl	__stack_chk_fail
 564              	.L43:
 565 002e 05B0     		add	sp, sp, #20
 566              		.cfi_def_cfa_offset 4
 567              		@ sp needed
 568 0030 5DF804FB 		ldr	pc, [sp], #4
 569              	.L45:
 570              		.align	2
ARM GAS  C:\Users\PCHAUT~1\AppData\Local\Temp\ccPgTkyc.s 			page 11


 571              	.L44:
 572 0034 00000000 		.word	__stack_chk_guard
 573              		.cfi_endproc
 574              	.LFE8:
 575              		.size	cmp_mem_access_pos_is_valid, .-cmp_mem_access_pos_is_valid
 576              		.text
 577              	.Letext0:
 578              		.file 2 "c:\\users\\pchautems\\documents\\robotiquetp\\eclipse_e-puck2\\tools\\gcc-arm-none-eabi-7
 579              		.file 3 "c:\\users\\pchautems\\documents\\robotiquetp\\eclipse_e-puck2\\tools\\gcc-arm-none-eabi-7
 580              		.file 4 "c:\\users\\pchautems\\documents\\robotiquetp\\eclipse_e-puck2\\tools\\gcc-arm-none-eabi-7
 581              		.file 5 "c:\\users\\pchautems\\documents\\robotiquetp\\eclipse_e-puck2\\tools\\gcc-arm-none-eabi-7
 582              		.file 6 "c:\\users\\pchautems\\documents\\robotiquetp\\eclipse_e-puck2\\tools\\gcc-arm-none-eabi-7
 583              		.file 7 "c:\\users\\pchautems\\documents\\robotiquetp\\eclipse_e-puck2\\tools\\gcc-arm-none-eabi-7
 584              		.file 8 "c:\\users\\pchautems\\documents\\robotiquetp\\eclipse_e-puck2\\tools\\gcc-arm-none-eabi-7
 585              		.file 9 "../lib/e-puck2_main-processor/src/cmp/cmp.h"
 586              		.file 10 "../lib/e-puck2_main-processor/src/cmp_mem_access/cmp_mem_access.h"
 587              		.section	.debug_info,"",%progbits
 588              	.Ldebug_info0:
 589 0000 F90B0000 		.4byte	0xbf9
 590 0004 0400     		.2byte	0x4
 591 0006 00000000 		.4byte	.Ldebug_abbrev0
 592 000a 04       		.byte	0x4
 593 000b 01       		.uleb128 0x1
 594 000c 43010000 		.4byte	.LASF147
 595 0010 0C       		.byte	0xc
 596 0011 0C000000 		.4byte	.LASF148
 597 0015 6C050000 		.4byte	.LASF149
 598 0019 00000000 		.4byte	.Ldebug_ranges0+0
 599 001d 00000000 		.4byte	0
 600 0021 00000000 		.4byte	.Ldebug_line0
 601 0025 02       		.uleb128 0x2
 602 0026 04       		.byte	0x4
 603 0027 05       		.byte	0x5
 604 0028 696E7400 		.ascii	"int\000"
 605 002c 03       		.uleb128 0x3
 606 002d 54000000 		.4byte	.LASF4
 607 0031 02       		.byte	0x2
 608 0032 D8       		.byte	0xd8
 609 0033 37000000 		.4byte	0x37
 610 0037 04       		.uleb128 0x4
 611 0038 04       		.byte	0x4
 612 0039 07       		.byte	0x7
 613 003a 4D030000 		.4byte	.LASF0
 614 003e 04       		.uleb128 0x4
 615 003f 08       		.byte	0x8
 616 0040 05       		.byte	0x5
 617 0041 E7000000 		.4byte	.LASF1
 618 0045 04       		.uleb128 0x4
 619 0046 08       		.byte	0x8
 620 0047 04       		.byte	0x4
 621 0048 5F040000 		.4byte	.LASF2
 622 004c 04       		.uleb128 0x4
 623 004d 01       		.byte	0x1
 624 004e 06       		.byte	0x6
 625 004f F5000000 		.4byte	.LASF3
 626 0053 03       		.uleb128 0x3
 627 0054 74000000 		.4byte	.LASF5
ARM GAS  C:\Users\PCHAUT~1\AppData\Local\Temp\ccPgTkyc.s 			page 12


 628 0058 03       		.byte	0x3
 629 0059 2B       		.byte	0x2b
 630 005a 5E000000 		.4byte	0x5e
 631 005e 04       		.uleb128 0x4
 632 005f 01       		.byte	0x1
 633 0060 08       		.byte	0x8
 634 0061 EA040000 		.4byte	.LASF6
 635 0065 04       		.uleb128 0x4
 636 0066 02       		.byte	0x2
 637 0067 05       		.byte	0x5
 638 0068 06050000 		.4byte	.LASF7
 639 006c 04       		.uleb128 0x4
 640 006d 02       		.byte	0x2
 641 006e 07       		.byte	0x7
 642 006f A5030000 		.4byte	.LASF8
 643 0073 04       		.uleb128 0x4
 644 0074 04       		.byte	0x4
 645 0075 05       		.byte	0x5
 646 0076 3A010000 		.4byte	.LASF9
 647 007a 04       		.uleb128 0x4
 648 007b 04       		.byte	0x4
 649 007c 07       		.byte	0x7
 650 007d 71030000 		.4byte	.LASF10
 651 0081 04       		.uleb128 0x4
 652 0082 08       		.byte	0x8
 653 0083 07       		.byte	0x7
 654 0084 A4000000 		.4byte	.LASF11
 655 0088 03       		.uleb128 0x3
 656 0089 E8030000 		.4byte	.LASF12
 657 008d 04       		.byte	0x4
 658 008e 22       		.byte	0x22
 659 008f 93000000 		.4byte	0x93
 660 0093 05       		.uleb128 0x5
 661 0094 04       		.byte	0x4
 662 0095 99000000 		.4byte	0x99
 663 0099 06       		.uleb128 0x6
 664 009a EF050000 		.4byte	.LASF119
 665 009e 03       		.uleb128 0x3
 666 009f B4040000 		.4byte	.LASF13
 667 00a3 05       		.byte	0x5
 668 00a4 2C       		.byte	0x2c
 669 00a5 73000000 		.4byte	0x73
 670 00a9 03       		.uleb128 0x3
 671 00aa 10060000 		.4byte	.LASF14
 672 00ae 05       		.byte	0x5
 673 00af 72       		.byte	0x72
 674 00b0 73000000 		.4byte	0x73
 675 00b4 07       		.uleb128 0x7
 676 00b5 F0030000 		.4byte	.LASF15
 677 00b9 02       		.byte	0x2
 678 00ba 6501     		.2byte	0x165
 679 00bc 37000000 		.4byte	0x37
 680 00c0 08       		.uleb128 0x8
 681 00c1 04       		.byte	0x4
 682 00c2 05       		.byte	0x5
 683 00c3 A6       		.byte	0xa6
 684 00c4 DF000000 		.4byte	0xdf
ARM GAS  C:\Users\PCHAUT~1\AppData\Local\Temp\ccPgTkyc.s 			page 13


 685 00c8 09       		.uleb128 0x9
 686 00c9 E2030000 		.4byte	.LASF16
 687 00cd 05       		.byte	0x5
 688 00ce A8       		.byte	0xa8
 689 00cf B4000000 		.4byte	0xb4
 690 00d3 09       		.uleb128 0x9
 691 00d4 5A030000 		.4byte	.LASF17
 692 00d8 05       		.byte	0x5
 693 00d9 A9       		.byte	0xa9
 694 00da DF000000 		.4byte	0xdf
 695 00de 00       		.byte	0
 696 00df 0A       		.uleb128 0xa
 697 00e0 5E000000 		.4byte	0x5e
 698 00e4 EF000000 		.4byte	0xef
 699 00e8 0B       		.uleb128 0xb
 700 00e9 37000000 		.4byte	0x37
 701 00ed 03       		.byte	0x3
 702 00ee 00       		.byte	0
 703 00ef 0C       		.uleb128 0xc
 704 00f0 08       		.byte	0x8
 705 00f1 05       		.byte	0x5
 706 00f2 A3       		.byte	0xa3
 707 00f3 10010000 		.4byte	0x110
 708 00f7 0D       		.uleb128 0xd
 709 00f8 E7050000 		.4byte	.LASF18
 710 00fc 05       		.byte	0x5
 711 00fd A5       		.byte	0xa5
 712 00fe 25000000 		.4byte	0x25
 713 0102 00       		.byte	0
 714 0103 0D       		.uleb128 0xd
 715 0104 F6050000 		.4byte	.LASF19
 716 0108 05       		.byte	0x5
 717 0109 AA       		.byte	0xaa
 718 010a C0000000 		.4byte	0xc0
 719 010e 04       		.byte	0x4
 720 010f 00       		.byte	0
 721 0110 03       		.uleb128 0x3
 722 0111 2E050000 		.4byte	.LASF20
 723 0115 05       		.byte	0x5
 724 0116 AB       		.byte	0xab
 725 0117 EF000000 		.4byte	0xef
 726 011b 03       		.uleb128 0x3
 727 011c 10030000 		.4byte	.LASF21
 728 0120 05       		.byte	0x5
 729 0121 AF       		.byte	0xaf
 730 0122 88000000 		.4byte	0x88
 731 0126 0E       		.uleb128 0xe
 732 0127 04       		.byte	0x4
 733 0128 05       		.uleb128 0x5
 734 0129 04       		.byte	0x4
 735 012a 2E010000 		.4byte	0x12e
 736 012e 04       		.uleb128 0x4
 737 012f 01       		.byte	0x1
 738 0130 08       		.byte	0x8
 739 0131 1F060000 		.4byte	.LASF22
 740 0135 0F       		.uleb128 0xf
 741 0136 2E010000 		.4byte	0x12e
ARM GAS  C:\Users\PCHAUT~1\AppData\Local\Temp\ccPgTkyc.s 			page 14


 742 013a 03       		.uleb128 0x3
 743 013b 88060000 		.4byte	.LASF23
 744 013f 06       		.byte	0x6
 745 0140 16       		.byte	0x16
 746 0141 7A000000 		.4byte	0x7a
 747 0145 10       		.uleb128 0x10
 748 0146 21030000 		.4byte	.LASF28
 749 014a 18       		.byte	0x18
 750 014b 06       		.byte	0x6
 751 014c 2F       		.byte	0x2f
 752 014d 98010000 		.4byte	0x198
 753 0151 0D       		.uleb128 0xd
 754 0152 67060000 		.4byte	.LASF24
 755 0156 06       		.byte	0x6
 756 0157 31       		.byte	0x31
 757 0158 98010000 		.4byte	0x198
 758 015c 00       		.byte	0
 759 015d 11       		.uleb128 0x11
 760 015e 5F6B00   		.ascii	"_k\000"
 761 0161 06       		.byte	0x6
 762 0162 32       		.byte	0x32
 763 0163 25000000 		.4byte	0x25
 764 0167 04       		.byte	0x4
 765 0168 0D       		.uleb128 0xd
 766 0169 D2050000 		.4byte	.LASF25
 767 016d 06       		.byte	0x6
 768 016e 32       		.byte	0x32
 769 016f 25000000 		.4byte	0x25
 770 0173 08       		.byte	0x8
 771 0174 0D       		.uleb128 0xd
 772 0175 F3020000 		.4byte	.LASF26
 773 0179 06       		.byte	0x6
 774 017a 32       		.byte	0x32
 775 017b 25000000 		.4byte	0x25
 776 017f 0C       		.byte	0xc
 777 0180 0D       		.uleb128 0xd
 778 0181 D4060000 		.4byte	.LASF27
 779 0185 06       		.byte	0x6
 780 0186 32       		.byte	0x32
 781 0187 25000000 		.4byte	0x25
 782 018b 10       		.byte	0x10
 783 018c 11       		.uleb128 0x11
 784 018d 5F7800   		.ascii	"_x\000"
 785 0190 06       		.byte	0x6
 786 0191 33       		.byte	0x33
 787 0192 9E010000 		.4byte	0x19e
 788 0196 14       		.byte	0x14
 789 0197 00       		.byte	0
 790 0198 05       		.uleb128 0x5
 791 0199 04       		.byte	0x4
 792 019a 45010000 		.4byte	0x145
 793 019e 0A       		.uleb128 0xa
 794 019f 3A010000 		.4byte	0x13a
 795 01a3 AE010000 		.4byte	0x1ae
 796 01a7 0B       		.uleb128 0xb
 797 01a8 37000000 		.4byte	0x37
 798 01ac 00       		.byte	0
ARM GAS  C:\Users\PCHAUT~1\AppData\Local\Temp\ccPgTkyc.s 			page 15


 799 01ad 00       		.byte	0
 800 01ae 10       		.uleb128 0x10
 801 01af 48030000 		.4byte	.LASF29
 802 01b3 24       		.byte	0x24
 803 01b4 06       		.byte	0x6
 804 01b5 37       		.byte	0x37
 805 01b6 27020000 		.4byte	0x227
 806 01ba 0D       		.uleb128 0xd
 807 01bb DE000000 		.4byte	.LASF30
 808 01bf 06       		.byte	0x6
 809 01c0 39       		.byte	0x39
 810 01c1 25000000 		.4byte	0x25
 811 01c5 00       		.byte	0
 812 01c6 0D       		.uleb128 0xd
 813 01c7 24060000 		.4byte	.LASF31
 814 01cb 06       		.byte	0x6
 815 01cc 3A       		.byte	0x3a
 816 01cd 25000000 		.4byte	0x25
 817 01d1 04       		.byte	0x4
 818 01d2 0D       		.uleb128 0xd
 819 01d3 0D010000 		.4byte	.LASF32
 820 01d7 06       		.byte	0x6
 821 01d8 3B       		.byte	0x3b
 822 01d9 25000000 		.4byte	0x25
 823 01dd 08       		.byte	0x8
 824 01de 0D       		.uleb128 0xd
 825 01df 69070000 		.4byte	.LASF33
 826 01e3 06       		.byte	0x6
 827 01e4 3C       		.byte	0x3c
 828 01e5 25000000 		.4byte	0x25
 829 01e9 0C       		.byte	0xc
 830 01ea 0D       		.uleb128 0xd
 831 01eb 8E040000 		.4byte	.LASF34
 832 01ef 06       		.byte	0x6
 833 01f0 3D       		.byte	0x3d
 834 01f1 25000000 		.4byte	0x25
 835 01f5 10       		.byte	0x10
 836 01f6 0D       		.uleb128 0xd
 837 01f7 4A040000 		.4byte	.LASF35
 838 01fb 06       		.byte	0x6
 839 01fc 3E       		.byte	0x3e
 840 01fd 25000000 		.4byte	0x25
 841 0201 14       		.byte	0x14
 842 0202 0D       		.uleb128 0xd
 843 0203 D9060000 		.4byte	.LASF36
 844 0207 06       		.byte	0x6
 845 0208 3F       		.byte	0x3f
 846 0209 25000000 		.4byte	0x25
 847 020d 18       		.byte	0x18
 848 020e 0D       		.uleb128 0xd
 849 020f 10050000 		.4byte	.LASF37
 850 0213 06       		.byte	0x6
 851 0214 40       		.byte	0x40
 852 0215 25000000 		.4byte	0x25
 853 0219 1C       		.byte	0x1c
 854 021a 0D       		.uleb128 0xd
 855 021b 14070000 		.4byte	.LASF38
ARM GAS  C:\Users\PCHAUT~1\AppData\Local\Temp\ccPgTkyc.s 			page 16


 856 021f 06       		.byte	0x6
 857 0220 41       		.byte	0x41
 858 0221 25000000 		.4byte	0x25
 859 0225 20       		.byte	0x20
 860 0226 00       		.byte	0
 861 0227 12       		.uleb128 0x12
 862 0228 1C010000 		.4byte	.LASF39
 863 022c 0801     		.2byte	0x108
 864 022e 06       		.byte	0x6
 865 022f 4A       		.byte	0x4a
 866 0230 67020000 		.4byte	0x267
 867 0234 0D       		.uleb128 0xd
 868 0235 DC020000 		.4byte	.LASF40
 869 0239 06       		.byte	0x6
 870 023a 4B       		.byte	0x4b
 871 023b 67020000 		.4byte	0x267
 872 023f 00       		.byte	0
 873 0240 0D       		.uleb128 0xd
 874 0241 00000000 		.4byte	.LASF41
 875 0245 06       		.byte	0x6
 876 0246 4C       		.byte	0x4c
 877 0247 67020000 		.4byte	0x267
 878 024b 80       		.byte	0x80
 879 024c 13       		.uleb128 0x13
 880 024d 7A060000 		.4byte	.LASF42
 881 0251 06       		.byte	0x6
 882 0252 4E       		.byte	0x4e
 883 0253 3A010000 		.4byte	0x13a
 884 0257 0001     		.2byte	0x100
 885 0259 13       		.uleb128 0x13
 886 025a 8E020000 		.4byte	.LASF43
 887 025e 06       		.byte	0x6
 888 025f 51       		.byte	0x51
 889 0260 3A010000 		.4byte	0x13a
 890 0264 0401     		.2byte	0x104
 891 0266 00       		.byte	0
 892 0267 0A       		.uleb128 0xa
 893 0268 26010000 		.4byte	0x126
 894 026c 77020000 		.4byte	0x277
 895 0270 0B       		.uleb128 0xb
 896 0271 37000000 		.4byte	0x37
 897 0275 1F       		.byte	0x1f
 898 0276 00       		.byte	0
 899 0277 12       		.uleb128 0x12
 900 0278 97040000 		.4byte	.LASF44
 901 027c 9001     		.2byte	0x190
 902 027e 06       		.byte	0x6
 903 027f 5D       		.byte	0x5d
 904 0280 B5020000 		.4byte	0x2b5
 905 0284 0D       		.uleb128 0xd
 906 0285 67060000 		.4byte	.LASF24
 907 0289 06       		.byte	0x6
 908 028a 5E       		.byte	0x5e
 909 028b B5020000 		.4byte	0x2b5
 910 028f 00       		.byte	0
 911 0290 0D       		.uleb128 0xd
 912 0291 67050000 		.4byte	.LASF45
ARM GAS  C:\Users\PCHAUT~1\AppData\Local\Temp\ccPgTkyc.s 			page 17


 913 0295 06       		.byte	0x6
 914 0296 5F       		.byte	0x5f
 915 0297 25000000 		.4byte	0x25
 916 029b 04       		.byte	0x4
 917 029c 0D       		.uleb128 0xd
 918 029d EE020000 		.4byte	.LASF46
 919 02a1 06       		.byte	0x6
 920 02a2 61       		.byte	0x61
 921 02a3 BB020000 		.4byte	0x2bb
 922 02a7 08       		.byte	0x8
 923 02a8 0D       		.uleb128 0xd
 924 02a9 1C010000 		.4byte	.LASF39
 925 02ad 06       		.byte	0x6
 926 02ae 62       		.byte	0x62
 927 02af 27020000 		.4byte	0x227
 928 02b3 88       		.byte	0x88
 929 02b4 00       		.byte	0
 930 02b5 05       		.uleb128 0x5
 931 02b6 04       		.byte	0x4
 932 02b7 77020000 		.4byte	0x277
 933 02bb 0A       		.uleb128 0xa
 934 02bc CB020000 		.4byte	0x2cb
 935 02c0 CB020000 		.4byte	0x2cb
 936 02c4 0B       		.uleb128 0xb
 937 02c5 37000000 		.4byte	0x37
 938 02c9 1F       		.byte	0x1f
 939 02ca 00       		.byte	0
 940 02cb 05       		.uleb128 0x5
 941 02cc 04       		.byte	0x4
 942 02cd D1020000 		.4byte	0x2d1
 943 02d1 14       		.uleb128 0x14
 944 02d2 10       		.uleb128 0x10
 945 02d3 1A050000 		.4byte	.LASF47
 946 02d7 08       		.byte	0x8
 947 02d8 06       		.byte	0x6
 948 02d9 75       		.byte	0x75
 949 02da F7020000 		.4byte	0x2f7
 950 02de 0D       		.uleb128 0xd
 951 02df 07010000 		.4byte	.LASF48
 952 02e3 06       		.byte	0x6
 953 02e4 76       		.byte	0x76
 954 02e5 F7020000 		.4byte	0x2f7
 955 02e9 00       		.byte	0
 956 02ea 0D       		.uleb128 0xd
 957 02eb 4E000000 		.4byte	.LASF49
 958 02ef 06       		.byte	0x6
 959 02f0 77       		.byte	0x77
 960 02f1 25000000 		.4byte	0x25
 961 02f5 04       		.byte	0x4
 962 02f6 00       		.byte	0
 963 02f7 05       		.uleb128 0x5
 964 02f8 04       		.byte	0x4
 965 02f9 5E000000 		.4byte	0x5e
 966 02fd 10       		.uleb128 0x10
 967 02fe 39050000 		.4byte	.LASF50
 968 0302 68       		.byte	0x68
 969 0303 06       		.byte	0x6
ARM GAS  C:\Users\PCHAUT~1\AppData\Local\Temp\ccPgTkyc.s 			page 18


 970 0304 B5       		.byte	0xb5
 971 0305 27040000 		.4byte	0x427
 972 0309 11       		.uleb128 0x11
 973 030a 5F7000   		.ascii	"_p\000"
 974 030d 06       		.byte	0x6
 975 030e B6       		.byte	0xb6
 976 030f F7020000 		.4byte	0x2f7
 977 0313 00       		.byte	0
 978 0314 11       		.uleb128 0x11
 979 0315 5F7200   		.ascii	"_r\000"
 980 0318 06       		.byte	0x6
 981 0319 B7       		.byte	0xb7
 982 031a 25000000 		.4byte	0x25
 983 031e 04       		.byte	0x4
 984 031f 11       		.uleb128 0x11
 985 0320 5F7700   		.ascii	"_w\000"
 986 0323 06       		.byte	0x6
 987 0324 B8       		.byte	0xb8
 988 0325 25000000 		.4byte	0x25
 989 0329 08       		.byte	0x8
 990 032a 0D       		.uleb128 0xd
 991 032b 87020000 		.4byte	.LASF51
 992 032f 06       		.byte	0x6
 993 0330 B9       		.byte	0xb9
 994 0331 65000000 		.4byte	0x65
 995 0335 0C       		.byte	0xc
 996 0336 0D       		.uleb128 0xd
 997 0337 83030000 		.4byte	.LASF52
 998 033b 06       		.byte	0x6
 999 033c BA       		.byte	0xba
 1000 033d 65000000 		.4byte	0x65
 1001 0341 0E       		.byte	0xe
 1002 0342 11       		.uleb128 0x11
 1003 0343 5F626600 		.ascii	"_bf\000"
 1004 0347 06       		.byte	0x6
 1005 0348 BB       		.byte	0xbb
 1006 0349 D2020000 		.4byte	0x2d2
 1007 034d 10       		.byte	0x10
 1008 034e 0D       		.uleb128 0xd
 1009 034f BB000000 		.4byte	.LASF53
 1010 0353 06       		.byte	0x6
 1011 0354 BC       		.byte	0xbc
 1012 0355 25000000 		.4byte	0x25
 1013 0359 18       		.byte	0x18
 1014 035a 0D       		.uleb128 0xd
 1015 035b 2A010000 		.4byte	.LASF54
 1016 035f 06       		.byte	0x6
 1017 0360 C3       		.byte	0xc3
 1018 0361 26010000 		.4byte	0x126
 1019 0365 1C       		.byte	0x1c
 1020 0366 0D       		.uleb128 0xd
 1021 0367 38030000 		.4byte	.LASF55
 1022 036b 06       		.byte	0x6
 1023 036c C5       		.byte	0xc5
 1024 036d 82050000 		.4byte	0x582
 1025 0371 20       		.byte	0x20
 1026 0372 0D       		.uleb128 0xd
ARM GAS  C:\Users\PCHAUT~1\AppData\Local\Temp\ccPgTkyc.s 			page 19


 1027 0373 43040000 		.4byte	.LASF56
 1028 0377 06       		.byte	0x6
 1029 0378 C7       		.byte	0xc7
 1030 0379 AC050000 		.4byte	0x5ac
 1031 037d 24       		.byte	0x24
 1032 037e 0D       		.uleb128 0xd
 1033 037f FE050000 		.4byte	.LASF57
 1034 0383 06       		.byte	0x6
 1035 0384 CA       		.byte	0xca
 1036 0385 D0050000 		.4byte	0x5d0
 1037 0389 28       		.byte	0x28
 1038 038a 0D       		.uleb128 0xd
 1039 038b 2E070000 		.4byte	.LASF58
 1040 038f 06       		.byte	0x6
 1041 0390 CB       		.byte	0xcb
 1042 0391 EA050000 		.4byte	0x5ea
 1043 0395 2C       		.byte	0x2c
 1044 0396 11       		.uleb128 0x11
 1045 0397 5F756200 		.ascii	"_ub\000"
 1046 039b 06       		.byte	0x6
 1047 039c CE       		.byte	0xce
 1048 039d D2020000 		.4byte	0x2d2
 1049 03a1 30       		.byte	0x30
 1050 03a2 11       		.uleb128 0x11
 1051 03a3 5F757000 		.ascii	"_up\000"
 1052 03a7 06       		.byte	0x6
 1053 03a8 CF       		.byte	0xcf
 1054 03a9 F7020000 		.4byte	0x2f7
 1055 03ad 38       		.byte	0x38
 1056 03ae 11       		.uleb128 0x11
 1057 03af 5F757200 		.ascii	"_ur\000"
 1058 03b3 06       		.byte	0x6
 1059 03b4 D0       		.byte	0xd0
 1060 03b5 25000000 		.4byte	0x25
 1061 03b9 3C       		.byte	0x3c
 1062 03ba 0D       		.uleb128 0xd
 1063 03bb 01010000 		.4byte	.LASF59
 1064 03bf 06       		.byte	0x6
 1065 03c0 D3       		.byte	0xd3
 1066 03c1 F0050000 		.4byte	0x5f0
 1067 03c5 40       		.byte	0x40
 1068 03c6 0D       		.uleb128 0xd
 1069 03c7 06070000 		.4byte	.LASF60
 1070 03cb 06       		.byte	0x6
 1071 03cc D4       		.byte	0xd4
 1072 03cd 00060000 		.4byte	0x600
 1073 03d1 43       		.byte	0x43
 1074 03d2 11       		.uleb128 0x11
 1075 03d3 5F6C6200 		.ascii	"_lb\000"
 1076 03d7 06       		.byte	0x6
 1077 03d8 D7       		.byte	0xd7
 1078 03d9 D2020000 		.4byte	0x2d2
 1079 03dd 44       		.byte	0x44
 1080 03de 0D       		.uleb128 0xd
 1081 03df 9D020000 		.4byte	.LASF61
 1082 03e3 06       		.byte	0x6
 1083 03e4 DA       		.byte	0xda
ARM GAS  C:\Users\PCHAUT~1\AppData\Local\Temp\ccPgTkyc.s 			page 20


 1084 03e5 25000000 		.4byte	0x25
 1085 03e9 4C       		.byte	0x4c
 1086 03ea 0D       		.uleb128 0xd
 1087 03eb B5020000 		.4byte	.LASF62
 1088 03ef 06       		.byte	0x6
 1089 03f0 DB       		.byte	0xdb
 1090 03f1 9E000000 		.4byte	0x9e
 1091 03f5 50       		.byte	0x50
 1092 03f6 0D       		.uleb128 0xd
 1093 03f7 7E000000 		.4byte	.LASF63
 1094 03fb 06       		.byte	0x6
 1095 03fc DE       		.byte	0xde
 1096 03fd 45040000 		.4byte	0x445
 1097 0401 54       		.byte	0x54
 1098 0402 0D       		.uleb128 0xd
 1099 0403 15040000 		.4byte	.LASF64
 1100 0407 06       		.byte	0x6
 1101 0408 E2       		.byte	0xe2
 1102 0409 1B010000 		.4byte	0x11b
 1103 040d 58       		.byte	0x58
 1104 040e 0D       		.uleb128 0xd
 1105 040f 41050000 		.4byte	.LASF65
 1106 0413 06       		.byte	0x6
 1107 0414 E4       		.byte	0xe4
 1108 0415 10010000 		.4byte	0x110
 1109 0419 5C       		.byte	0x5c
 1110 041a 0D       		.uleb128 0xd
 1111 041b 2C040000 		.4byte	.LASF66
 1112 041f 06       		.byte	0x6
 1113 0420 E5       		.byte	0xe5
 1114 0421 25000000 		.4byte	0x25
 1115 0425 64       		.byte	0x64
 1116 0426 00       		.byte	0
 1117 0427 15       		.uleb128 0x15
 1118 0428 25000000 		.4byte	0x25
 1119 042c 45040000 		.4byte	0x445
 1120 0430 16       		.uleb128 0x16
 1121 0431 45040000 		.4byte	0x445
 1122 0435 16       		.uleb128 0x16
 1123 0436 26010000 		.4byte	0x126
 1124 043a 16       		.uleb128 0x16
 1125 043b 28010000 		.4byte	0x128
 1126 043f 16       		.uleb128 0x16
 1127 0440 25000000 		.4byte	0x25
 1128 0444 00       		.byte	0
 1129 0445 05       		.uleb128 0x5
 1130 0446 04       		.byte	0x4
 1131 0447 50040000 		.4byte	0x450
 1132 044b 0F       		.uleb128 0xf
 1133 044c 45040000 		.4byte	0x445
 1134 0450 17       		.uleb128 0x17
 1135 0451 DA050000 		.4byte	.LASF67
 1136 0455 2804     		.2byte	0x428
 1137 0457 06       		.byte	0x6
 1138 0458 3902     		.2byte	0x239
 1139 045a 82050000 		.4byte	0x582
 1140 045e 18       		.uleb128 0x18
ARM GAS  C:\Users\PCHAUT~1\AppData\Local\Temp\ccPgTkyc.s 			page 21


 1141 045f 18060000 		.4byte	.LASF68
 1142 0463 06       		.byte	0x6
 1143 0464 3B02     		.2byte	0x23b
 1144 0466 25000000 		.4byte	0x25
 1145 046a 00       		.byte	0
 1146 046b 18       		.uleb128 0x18
 1147 046c 96020000 		.4byte	.LASF69
 1148 0470 06       		.byte	0x6
 1149 0471 4002     		.2byte	0x240
 1150 0473 57060000 		.4byte	0x657
 1151 0477 04       		.byte	0x4
 1152 0478 18       		.uleb128 0x18
 1153 0479 61030000 		.4byte	.LASF70
 1154 047d 06       		.byte	0x6
 1155 047e 4002     		.2byte	0x240
 1156 0480 57060000 		.4byte	0x657
 1157 0484 08       		.byte	0x8
 1158 0485 18       		.uleb128 0x18
 1159 0486 19030000 		.4byte	.LASF71
 1160 048a 06       		.byte	0x6
 1161 048b 4002     		.2byte	0x240
 1162 048d 57060000 		.4byte	0x657
 1163 0491 0C       		.byte	0xc
 1164 0492 18       		.uleb128 0x18
 1165 0493 62050000 		.4byte	.LASF72
 1166 0497 06       		.byte	0x6
 1167 0498 4202     		.2byte	0x242
 1168 049a 25000000 		.4byte	0x25
 1169 049e 10       		.byte	0x10
 1170 049f 18       		.uleb128 0x18
 1171 04a0 63000000 		.4byte	.LASF73
 1172 04a4 06       		.byte	0x6
 1173 04a5 4302     		.2byte	0x243
 1174 04a7 39080000 		.4byte	0x839
 1175 04ab 14       		.byte	0x14
 1176 04ac 18       		.uleb128 0x18
 1177 04ad B9050000 		.4byte	.LASF74
 1178 04b1 06       		.byte	0x6
 1179 04b2 4602     		.2byte	0x246
 1180 04b4 25000000 		.4byte	0x25
 1181 04b8 30       		.byte	0x30
 1182 04b9 18       		.uleb128 0x18
 1183 04ba A7050000 		.4byte	.LASF75
 1184 04be 06       		.byte	0x6
 1185 04bf 4702     		.2byte	0x247
 1186 04c1 4E080000 		.4byte	0x84e
 1187 04c5 34       		.byte	0x34
 1188 04c6 18       		.uleb128 0x18
 1189 04c7 A9040000 		.4byte	.LASF76
 1190 04cb 06       		.byte	0x6
 1191 04cc 4902     		.2byte	0x249
 1192 04ce 25000000 		.4byte	0x25
 1193 04d2 38       		.byte	0x38
 1194 04d3 18       		.uleb128 0x18
 1195 04d4 AF050000 		.4byte	.LASF77
 1196 04d8 06       		.byte	0x6
 1197 04d9 4B02     		.2byte	0x24b
ARM GAS  C:\Users\PCHAUT~1\AppData\Local\Temp\ccPgTkyc.s 			page 22


 1198 04db 5F080000 		.4byte	0x85f
 1199 04df 3C       		.byte	0x3c
 1200 04e0 18       		.uleb128 0x18
 1201 04e1 DA030000 		.4byte	.LASF78
 1202 04e5 06       		.byte	0x6
 1203 04e6 4E02     		.2byte	0x24e
 1204 04e8 98010000 		.4byte	0x198
 1205 04ec 40       		.byte	0x40
 1206 04ed 18       		.uleb128 0x18
 1207 04ee 3E030000 		.4byte	.LASF79
 1208 04f2 06       		.byte	0x6
 1209 04f3 4F02     		.2byte	0x24f
 1210 04f5 25000000 		.4byte	0x25
 1211 04f9 44       		.byte	0x44
 1212 04fa 18       		.uleb128 0x18
 1213 04fb 64070000 		.4byte	.LASF80
 1214 04ff 06       		.byte	0x6
 1215 0500 5002     		.2byte	0x250
 1216 0502 98010000 		.4byte	0x198
 1217 0506 48       		.byte	0x48
 1218 0507 18       		.uleb128 0x18
 1219 0508 C6040000 		.4byte	.LASF81
 1220 050c 06       		.byte	0x6
 1221 050d 5102     		.2byte	0x251
 1222 050f 65080000 		.4byte	0x865
 1223 0513 4C       		.byte	0x4c
 1224 0514 18       		.uleb128 0x18
 1225 0515 69030000 		.4byte	.LASF82
 1226 0519 06       		.byte	0x6
 1227 051a 5402     		.2byte	0x254
 1228 051c 25000000 		.4byte	0x25
 1229 0520 50       		.byte	0x50
 1230 0521 18       		.uleb128 0x18
 1231 0522 AD020000 		.4byte	.LASF83
 1232 0526 06       		.byte	0x6
 1233 0527 5502     		.2byte	0x255
 1234 0529 28010000 		.4byte	0x128
 1235 052d 54       		.byte	0x54
 1236 052e 18       		.uleb128 0x18
 1237 052f F8040000 		.4byte	.LASF84
 1238 0533 06       		.byte	0x6
 1239 0534 7802     		.2byte	0x278
 1240 0536 17080000 		.4byte	0x817
 1241 053a 58       		.byte	0x58
 1242 053b 19       		.uleb128 0x19
 1243 053c 97040000 		.4byte	.LASF44
 1244 0540 06       		.byte	0x6
 1245 0541 7C02     		.2byte	0x27c
 1246 0543 B5020000 		.4byte	0x2b5
 1247 0547 4801     		.2byte	0x148
 1248 0549 19       		.uleb128 0x19
 1249 054a B8030000 		.4byte	.LASF85
 1250 054e 06       		.byte	0x6
 1251 054f 7D02     		.2byte	0x27d
 1252 0551 77020000 		.4byte	0x277
 1253 0555 4C01     		.2byte	0x14c
 1254 0557 19       		.uleb128 0x19
ARM GAS  C:\Users\PCHAUT~1\AppData\Local\Temp\ccPgTkyc.s 			page 23


 1255 0558 FC060000 		.4byte	.LASF86
 1256 055c 06       		.byte	0x6
 1257 055d 8102     		.2byte	0x281
 1258 055f 76080000 		.4byte	0x876
 1259 0563 DC02     		.2byte	0x2dc
 1260 0565 19       		.uleb128 0x19
 1261 0566 32010000 		.4byte	.LASF87
 1262 056a 06       		.byte	0x6
 1263 056b 8602     		.2byte	0x286
 1264 056d 1C060000 		.4byte	0x61c
 1265 0571 E002     		.2byte	0x2e0
 1266 0573 19       		.uleb128 0x19
 1267 0574 17010000 		.4byte	.LASF88
 1268 0578 06       		.byte	0x6
 1269 0579 8802     		.2byte	0x288
 1270 057b 82080000 		.4byte	0x882
 1271 057f EC02     		.2byte	0x2ec
 1272 0581 00       		.byte	0
 1273 0582 05       		.uleb128 0x5
 1274 0583 04       		.byte	0x4
 1275 0584 27040000 		.4byte	0x427
 1276 0588 15       		.uleb128 0x15
 1277 0589 25000000 		.4byte	0x25
 1278 058d A6050000 		.4byte	0x5a6
 1279 0591 16       		.uleb128 0x16
 1280 0592 45040000 		.4byte	0x445
 1281 0596 16       		.uleb128 0x16
 1282 0597 26010000 		.4byte	0x126
 1283 059b 16       		.uleb128 0x16
 1284 059c A6050000 		.4byte	0x5a6
 1285 05a0 16       		.uleb128 0x16
 1286 05a1 25000000 		.4byte	0x25
 1287 05a5 00       		.byte	0
 1288 05a6 05       		.uleb128 0x5
 1289 05a7 04       		.byte	0x4
 1290 05a8 35010000 		.4byte	0x135
 1291 05ac 05       		.uleb128 0x5
 1292 05ad 04       		.byte	0x4
 1293 05ae 88050000 		.4byte	0x588
 1294 05b2 15       		.uleb128 0x15
 1295 05b3 A9000000 		.4byte	0xa9
 1296 05b7 D0050000 		.4byte	0x5d0
 1297 05bb 16       		.uleb128 0x16
 1298 05bc 45040000 		.4byte	0x445
 1299 05c0 16       		.uleb128 0x16
 1300 05c1 26010000 		.4byte	0x126
 1301 05c5 16       		.uleb128 0x16
 1302 05c6 A9000000 		.4byte	0xa9
 1303 05ca 16       		.uleb128 0x16
 1304 05cb 25000000 		.4byte	0x25
 1305 05cf 00       		.byte	0
 1306 05d0 05       		.uleb128 0x5
 1307 05d1 04       		.byte	0x4
 1308 05d2 B2050000 		.4byte	0x5b2
 1309 05d6 15       		.uleb128 0x15
 1310 05d7 25000000 		.4byte	0x25
 1311 05db EA050000 		.4byte	0x5ea
ARM GAS  C:\Users\PCHAUT~1\AppData\Local\Temp\ccPgTkyc.s 			page 24


 1312 05df 16       		.uleb128 0x16
 1313 05e0 45040000 		.4byte	0x445
 1314 05e4 16       		.uleb128 0x16
 1315 05e5 26010000 		.4byte	0x126
 1316 05e9 00       		.byte	0
 1317 05ea 05       		.uleb128 0x5
 1318 05eb 04       		.byte	0x4
 1319 05ec D6050000 		.4byte	0x5d6
 1320 05f0 0A       		.uleb128 0xa
 1321 05f1 5E000000 		.4byte	0x5e
 1322 05f5 00060000 		.4byte	0x600
 1323 05f9 0B       		.uleb128 0xb
 1324 05fa 37000000 		.4byte	0x37
 1325 05fe 02       		.byte	0x2
 1326 05ff 00       		.byte	0
 1327 0600 0A       		.uleb128 0xa
 1328 0601 5E000000 		.4byte	0x5e
 1329 0605 10060000 		.4byte	0x610
 1330 0609 0B       		.uleb128 0xb
 1331 060a 37000000 		.4byte	0x37
 1332 060e 00       		.byte	0
 1333 060f 00       		.byte	0
 1334 0610 07       		.uleb128 0x7
 1335 0611 27050000 		.4byte	.LASF89
 1336 0615 06       		.byte	0x6
 1337 0616 1F01     		.2byte	0x11f
 1338 0618 FD020000 		.4byte	0x2fd
 1339 061c 1A       		.uleb128 0x1a
 1340 061d E3060000 		.4byte	.LASF90
 1341 0621 0C       		.byte	0xc
 1342 0622 06       		.byte	0x6
 1343 0623 2301     		.2byte	0x123
 1344 0625 51060000 		.4byte	0x651
 1345 0629 18       		.uleb128 0x18
 1346 062a 67060000 		.4byte	.LASF24
 1347 062e 06       		.byte	0x6
 1348 062f 2501     		.2byte	0x125
 1349 0631 51060000 		.4byte	0x651
 1350 0635 00       		.byte	0
 1351 0636 18       		.uleb128 0x18
 1352 0637 94030000 		.4byte	.LASF91
 1353 063b 06       		.byte	0x6
 1354 063c 2601     		.2byte	0x126
 1355 063e 25000000 		.4byte	0x25
 1356 0642 04       		.byte	0x4
 1357 0643 18       		.uleb128 0x18
 1358 0644 21050000 		.4byte	.LASF92
 1359 0648 06       		.byte	0x6
 1360 0649 2701     		.2byte	0x127
 1361 064b 57060000 		.4byte	0x657
 1362 064f 08       		.byte	0x8
 1363 0650 00       		.byte	0
 1364 0651 05       		.uleb128 0x5
 1365 0652 04       		.byte	0x4
 1366 0653 1C060000 		.4byte	0x61c
 1367 0657 05       		.uleb128 0x5
 1368 0658 04       		.byte	0x4
ARM GAS  C:\Users\PCHAUT~1\AppData\Local\Temp\ccPgTkyc.s 			page 25


 1369 0659 10060000 		.4byte	0x610
 1370 065d 1A       		.uleb128 0x1a
 1371 065e 5B000000 		.4byte	.LASF93
 1372 0662 0E       		.byte	0xe
 1373 0663 06       		.byte	0x6
 1374 0664 3F01     		.2byte	0x13f
 1375 0666 92060000 		.4byte	0x692
 1376 066a 18       		.uleb128 0x18
 1377 066b E1050000 		.4byte	.LASF94
 1378 066f 06       		.byte	0x6
 1379 0670 4001     		.2byte	0x140
 1380 0672 92060000 		.4byte	0x692
 1381 0676 00       		.byte	0
 1382 0677 18       		.uleb128 0x18
 1383 0678 61060000 		.4byte	.LASF95
 1384 067c 06       		.byte	0x6
 1385 067d 4101     		.2byte	0x141
 1386 067f 92060000 		.4byte	0x692
 1387 0683 06       		.byte	0x6
 1388 0684 18       		.uleb128 0x18
 1389 0685 83060000 		.4byte	.LASF96
 1390 0689 06       		.byte	0x6
 1391 068a 4201     		.2byte	0x142
 1392 068c 6C000000 		.4byte	0x6c
 1393 0690 0C       		.byte	0xc
 1394 0691 00       		.byte	0
 1395 0692 0A       		.uleb128 0xa
 1396 0693 6C000000 		.4byte	0x6c
 1397 0697 A2060000 		.4byte	0x6a2
 1398 069b 0B       		.uleb128 0xb
 1399 069c 37000000 		.4byte	0x37
 1400 06a0 02       		.byte	0x2
 1401 06a1 00       		.byte	0
 1402 06a2 1B       		.uleb128 0x1b
 1403 06a3 D0       		.byte	0xd0
 1404 06a4 06       		.byte	0x6
 1405 06a5 5902     		.2byte	0x259
 1406 06a7 A3070000 		.4byte	0x7a3
 1407 06ab 18       		.uleb128 0x18
 1408 06ac B0060000 		.4byte	.LASF97
 1409 06b0 06       		.byte	0x6
 1410 06b1 5B02     		.2byte	0x25b
 1411 06b3 37000000 		.4byte	0x37
 1412 06b7 00       		.byte	0
 1413 06b8 18       		.uleb128 0x18
 1414 06b9 6D060000 		.4byte	.LASF98
 1415 06bd 06       		.byte	0x6
 1416 06be 5C02     		.2byte	0x25c
 1417 06c0 28010000 		.4byte	0x128
 1418 06c4 04       		.byte	0x4
 1419 06c5 18       		.uleb128 0x18
 1420 06c6 CD030000 		.4byte	.LASF99
 1421 06ca 06       		.byte	0x6
 1422 06cb 5D02     		.2byte	0x25d
 1423 06cd A3070000 		.4byte	0x7a3
 1424 06d1 08       		.byte	0x8
 1425 06d2 18       		.uleb128 0x18
ARM GAS  C:\Users\PCHAUT~1\AppData\Local\Temp\ccPgTkyc.s 			page 26


 1426 06d3 1F070000 		.4byte	.LASF100
 1427 06d7 06       		.byte	0x6
 1428 06d8 5E02     		.2byte	0x25e
 1429 06da AE010000 		.4byte	0x1ae
 1430 06de 24       		.byte	0x24
 1431 06df 18       		.uleb128 0x18
 1432 06e0 29030000 		.4byte	.LASF101
 1433 06e4 06       		.byte	0x6
 1434 06e5 5F02     		.2byte	0x25f
 1435 06e7 25000000 		.4byte	0x25
 1436 06eb 48       		.byte	0x48
 1437 06ec 18       		.uleb128 0x18
 1438 06ed 4A050000 		.4byte	.LASF102
 1439 06f1 06       		.byte	0x6
 1440 06f2 6002     		.2byte	0x260
 1441 06f4 81000000 		.4byte	0x81
 1442 06f8 50       		.byte	0x50
 1443 06f9 18       		.uleb128 0x18
 1444 06fa 35070000 		.4byte	.LASF103
 1445 06fe 06       		.byte	0x6
 1446 06ff 6102     		.2byte	0x261
 1447 0701 5D060000 		.4byte	0x65d
 1448 0705 58       		.byte	0x58
 1449 0706 18       		.uleb128 0x18
 1450 0707 55050000 		.4byte	.LASF104
 1451 070b 06       		.byte	0x6
 1452 070c 6202     		.2byte	0x262
 1453 070e 10010000 		.4byte	0x110
 1454 0712 68       		.byte	0x68
 1455 0713 18       		.uleb128 0x18
 1456 0714 56070000 		.4byte	.LASF105
 1457 0718 06       		.byte	0x6
 1458 0719 6302     		.2byte	0x263
 1459 071b 10010000 		.4byte	0x110
 1460 071f 70       		.byte	0x70
 1461 0720 18       		.uleb128 0x18
 1462 0721 D6040000 		.4byte	.LASF106
 1463 0725 06       		.byte	0x6
 1464 0726 6402     		.2byte	0x264
 1465 0728 10010000 		.4byte	0x110
 1466 072c 78       		.byte	0x78
 1467 072d 18       		.uleb128 0x18
 1468 072e F2060000 		.4byte	.LASF107
 1469 0732 06       		.byte	0x6
 1470 0733 6502     		.2byte	0x265
 1471 0735 B3070000 		.4byte	0x7b3
 1472 0739 80       		.byte	0x80
 1473 073a 18       		.uleb128 0x18
 1474 073b C1030000 		.4byte	.LASF108
 1475 073f 06       		.byte	0x6
 1476 0740 6602     		.2byte	0x266
 1477 0742 C3070000 		.4byte	0x7c3
 1478 0746 88       		.byte	0x88
 1479 0747 18       		.uleb128 0x18
 1480 0748 90060000 		.4byte	.LASF109
 1481 074c 06       		.byte	0x6
 1482 074d 6702     		.2byte	0x267
ARM GAS  C:\Users\PCHAUT~1\AppData\Local\Temp\ccPgTkyc.s 			page 27


 1483 074f 25000000 		.4byte	0x25
 1484 0753 A0       		.byte	0xa0
 1485 0754 18       		.uleb128 0x18
 1486 0755 CE020000 		.4byte	.LASF110
 1487 0759 06       		.byte	0x6
 1488 075a 6802     		.2byte	0x268
 1489 075c 10010000 		.4byte	0x110
 1490 0760 A4       		.byte	0xa4
 1491 0761 18       		.uleb128 0x18
 1492 0762 CF000000 		.4byte	.LASF111
 1493 0766 06       		.byte	0x6
 1494 0767 6902     		.2byte	0x269
 1495 0769 10010000 		.4byte	0x110
 1496 076d AC       		.byte	0xac
 1497 076e 18       		.uleb128 0x18
 1498 076f BD020000 		.4byte	.LASF112
 1499 0773 06       		.byte	0x6
 1500 0774 6A02     		.2byte	0x26a
 1501 0776 10010000 		.4byte	0x110
 1502 077a B4       		.byte	0xb4
 1503 077b 18       		.uleb128 0x18
 1504 077c 84000000 		.4byte	.LASF113
 1505 0780 06       		.byte	0x6
 1506 0781 6B02     		.2byte	0x26b
 1507 0783 10010000 		.4byte	0x110
 1508 0787 BC       		.byte	0xbc
 1509 0788 18       		.uleb128 0x18
 1510 0789 93000000 		.4byte	.LASF114
 1511 078d 06       		.byte	0x6
 1512 078e 6C02     		.2byte	0x26c
 1513 0790 10010000 		.4byte	0x110
 1514 0794 C4       		.byte	0xc4
 1515 0795 18       		.uleb128 0x18
 1516 0796 FD040000 		.4byte	.LASF115
 1517 079a 06       		.byte	0x6
 1518 079b 6D02     		.2byte	0x26d
 1519 079d 25000000 		.4byte	0x25
 1520 07a1 CC       		.byte	0xcc
 1521 07a2 00       		.byte	0
 1522 07a3 0A       		.uleb128 0xa
 1523 07a4 2E010000 		.4byte	0x12e
 1524 07a8 B3070000 		.4byte	0x7b3
 1525 07ac 0B       		.uleb128 0xb
 1526 07ad 37000000 		.4byte	0x37
 1527 07b1 19       		.byte	0x19
 1528 07b2 00       		.byte	0
 1529 07b3 0A       		.uleb128 0xa
 1530 07b4 2E010000 		.4byte	0x12e
 1531 07b8 C3070000 		.4byte	0x7c3
 1532 07bc 0B       		.uleb128 0xb
 1533 07bd 37000000 		.4byte	0x37
 1534 07c1 07       		.byte	0x7
 1535 07c2 00       		.byte	0
 1536 07c3 0A       		.uleb128 0xa
 1537 07c4 2E010000 		.4byte	0x12e
 1538 07c8 D3070000 		.4byte	0x7d3
 1539 07cc 0B       		.uleb128 0xb
ARM GAS  C:\Users\PCHAUT~1\AppData\Local\Temp\ccPgTkyc.s 			page 28


 1540 07cd 37000000 		.4byte	0x37
 1541 07d1 17       		.byte	0x17
 1542 07d2 00       		.byte	0
 1543 07d3 1B       		.uleb128 0x1b
 1544 07d4 F0       		.byte	0xf0
 1545 07d5 06       		.byte	0x6
 1546 07d6 7202     		.2byte	0x272
 1547 07d8 F7070000 		.4byte	0x7f7
 1548 07dc 18       		.uleb128 0x18
 1549 07dd 75040000 		.4byte	.LASF116
 1550 07e1 06       		.byte	0x6
 1551 07e2 7502     		.2byte	0x275
 1552 07e4 F7070000 		.4byte	0x7f7
 1553 07e8 00       		.byte	0
 1554 07e9 18       		.uleb128 0x18
 1555 07ea E9060000 		.4byte	.LASF117
 1556 07ee 06       		.byte	0x6
 1557 07ef 7602     		.2byte	0x276
 1558 07f1 07080000 		.4byte	0x807
 1559 07f5 78       		.byte	0x78
 1560 07f6 00       		.byte	0
 1561 07f7 0A       		.uleb128 0xa
 1562 07f8 F7020000 		.4byte	0x2f7
 1563 07fc 07080000 		.4byte	0x807
 1564 0800 0B       		.uleb128 0xb
 1565 0801 37000000 		.4byte	0x37
 1566 0805 1D       		.byte	0x1d
 1567 0806 00       		.byte	0
 1568 0807 0A       		.uleb128 0xa
 1569 0808 37000000 		.4byte	0x37
 1570 080c 17080000 		.4byte	0x817
 1571 0810 0B       		.uleb128 0xb
 1572 0811 37000000 		.4byte	0x37
 1573 0815 1D       		.byte	0x1d
 1574 0816 00       		.byte	0
 1575 0817 1C       		.uleb128 0x1c
 1576 0818 F0       		.byte	0xf0
 1577 0819 06       		.byte	0x6
 1578 081a 5702     		.2byte	0x257
 1579 081c 39080000 		.4byte	0x839
 1580 0820 1D       		.uleb128 0x1d
 1581 0821 DA050000 		.4byte	.LASF67
 1582 0825 06       		.byte	0x6
 1583 0826 6E02     		.2byte	0x26e
 1584 0828 A2060000 		.4byte	0x6a2
 1585 082c 1D       		.uleb128 0x1d
 1586 082d 0C070000 		.4byte	.LASF118
 1587 0831 06       		.byte	0x6
 1588 0832 7702     		.2byte	0x277
 1589 0834 D3070000 		.4byte	0x7d3
 1590 0838 00       		.byte	0
 1591 0839 0A       		.uleb128 0xa
 1592 083a 2E010000 		.4byte	0x12e
 1593 083e 49080000 		.4byte	0x849
 1594 0842 0B       		.uleb128 0xb
 1595 0843 37000000 		.4byte	0x37
 1596 0847 18       		.byte	0x18
ARM GAS  C:\Users\PCHAUT~1\AppData\Local\Temp\ccPgTkyc.s 			page 29


 1597 0848 00       		.byte	0
 1598 0849 06       		.uleb128 0x6
 1599 084a C4000000 		.4byte	.LASF120
 1600 084e 05       		.uleb128 0x5
 1601 084f 04       		.byte	0x4
 1602 0850 49080000 		.4byte	0x849
 1603 0854 1E       		.uleb128 0x1e
 1604 0855 5F080000 		.4byte	0x85f
 1605 0859 16       		.uleb128 0x16
 1606 085a 45040000 		.4byte	0x445
 1607 085e 00       		.byte	0
 1608 085f 05       		.uleb128 0x5
 1609 0860 04       		.byte	0x4
 1610 0861 54080000 		.4byte	0x854
 1611 0865 05       		.uleb128 0x5
 1612 0866 04       		.byte	0x4
 1613 0867 98010000 		.4byte	0x198
 1614 086b 1E       		.uleb128 0x1e
 1615 086c 76080000 		.4byte	0x876
 1616 0870 16       		.uleb128 0x16
 1617 0871 25000000 		.4byte	0x25
 1618 0875 00       		.byte	0
 1619 0876 05       		.uleb128 0x5
 1620 0877 04       		.byte	0x4
 1621 0878 7C080000 		.4byte	0x87c
 1622 087c 05       		.uleb128 0x5
 1623 087d 04       		.byte	0x4
 1624 087e 6B080000 		.4byte	0x86b
 1625 0882 0A       		.uleb128 0xa
 1626 0883 10060000 		.4byte	0x610
 1627 0887 92080000 		.4byte	0x892
 1628 088b 0B       		.uleb128 0xb
 1629 088c 37000000 		.4byte	0x37
 1630 0890 02       		.byte	0x2
 1631 0891 00       		.byte	0
 1632 0892 1F       		.uleb128 0x1f
 1633 0893 04060000 		.4byte	.LASF121
 1634 0897 06       		.byte	0x6
 1635 0898 0703     		.2byte	0x307
 1636 089a 45040000 		.4byte	0x445
 1637 089e 1F       		.uleb128 0x1f
 1638 089f 9D060000 		.4byte	.LASF122
 1639 08a3 06       		.byte	0x6
 1640 08a4 0803     		.2byte	0x308
 1641 08a6 4B040000 		.4byte	0x44b
 1642 08aa 05       		.uleb128 0x5
 1643 08ab 04       		.byte	0x4
 1644 08ac B0080000 		.4byte	0x8b0
 1645 08b0 20       		.uleb128 0x20
 1646 08b1 21       		.uleb128 0x21
 1647 08b2 9F040000 		.4byte	.LASF123
 1648 08b6 07       		.byte	0x7
 1649 08b7 63       		.byte	0x63
 1650 08b8 28010000 		.4byte	0x128
 1651 08bc 03       		.uleb128 0x3
 1652 08bd 59060000 		.4byte	.LASF124
 1653 08c1 08       		.byte	0x8
ARM GAS  C:\Users\PCHAUT~1\AppData\Local\Temp\ccPgTkyc.s 			page 30


 1654 08c2 18       		.byte	0x18
 1655 08c3 53000000 		.4byte	0x53
 1656 08c7 03       		.uleb128 0x3
 1657 08c8 54040000 		.4byte	.LASF125
 1658 08cc 09       		.byte	0x9
 1659 08cd 06       		.byte	0x6
 1660 08ce D2080000 		.4byte	0x8d2
 1661 08d2 05       		.uleb128 0x5
 1662 08d3 04       		.byte	0x4
 1663 08d4 D8080000 		.4byte	0x8d8
 1664 08d8 15       		.uleb128 0x15
 1665 08d9 F1080000 		.4byte	0x8f1
 1666 08dd F1080000 		.4byte	0x8f1
 1667 08e1 16       		.uleb128 0x16
 1668 08e2 F8080000 		.4byte	0x8f8
 1669 08e6 16       		.uleb128 0x16
 1670 08e7 26010000 		.4byte	0x126
 1671 08eb 16       		.uleb128 0x16
 1672 08ec 2C000000 		.4byte	0x2c
 1673 08f0 00       		.byte	0
 1674 08f1 04       		.uleb128 0x4
 1675 08f2 01       		.byte	0x1
 1676 08f3 02       		.byte	0x2
 1677 08f4 E4040000 		.4byte	.LASF126
 1678 08f8 05       		.uleb128 0x5
 1679 08f9 04       		.byte	0x4
 1680 08fa FE080000 		.4byte	0x8fe
 1681 08fe 10       		.uleb128 0x10
 1682 08ff 6B040000 		.4byte	.LASF127
 1683 0903 10       		.byte	0x10
 1684 0904 09       		.byte	0x9
 1685 0905 48       		.byte	0x48
 1686 0906 3B090000 		.4byte	0x93b
 1687 090a 0D       		.uleb128 0xd
 1688 090b D0040000 		.4byte	.LASF128
 1689 090f 09       		.byte	0x9
 1690 0910 49       		.byte	0x49
 1691 0911 BC080000 		.4byte	0x8bc
 1692 0915 00       		.byte	0
 1693 0916 11       		.uleb128 0x11
 1694 0917 62756600 		.ascii	"buf\000"
 1695 091b 09       		.byte	0x9
 1696 091c 4A       		.byte	0x4a
 1697 091d 26010000 		.4byte	0x126
 1698 0921 04       		.byte	0x4
 1699 0922 0D       		.uleb128 0xd
 1700 0923 BB040000 		.4byte	.LASF129
 1701 0927 09       		.byte	0x9
 1702 0928 4B       		.byte	0x4b
 1703 0929 C7080000 		.4byte	0x8c7
 1704 092d 08       		.byte	0x8
 1705 092e 0D       		.uleb128 0xd
 1706 092f 6E000000 		.4byte	.LASF130
 1707 0933 09       		.byte	0x9
 1708 0934 4C       		.byte	0x4c
 1709 0935 3B090000 		.4byte	0x93b
 1710 0939 0C       		.byte	0xc
ARM GAS  C:\Users\PCHAUT~1\AppData\Local\Temp\ccPgTkyc.s 			page 31


 1711 093a 00       		.byte	0
 1712 093b 03       		.uleb128 0x3
 1713 093c 89030000 		.4byte	.LASF131
 1714 0940 09       		.byte	0x9
 1715 0941 07       		.byte	0x7
 1716 0942 46090000 		.4byte	0x946
 1717 0946 05       		.uleb128 0x5
 1718 0947 04       		.byte	0x4
 1719 0948 4C090000 		.4byte	0x94c
 1720 094c 15       		.uleb128 0x15
 1721 094d 2C000000 		.4byte	0x2c
 1722 0951 65090000 		.4byte	0x965
 1723 0955 16       		.uleb128 0x16
 1724 0956 F8080000 		.4byte	0x8f8
 1725 095a 16       		.uleb128 0x16
 1726 095b AA080000 		.4byte	0x8aa
 1727 095f 16       		.uleb128 0x16
 1728 0960 2C000000 		.4byte	0x2c
 1729 0964 00       		.byte	0
 1730 0965 04       		.uleb128 0x4
 1731 0966 04       		.byte	0x4
 1732 0967 04       		.byte	0x4
 1733 0968 C0040000 		.4byte	.LASF132
 1734 096c 04       		.uleb128 0x4
 1735 096d 08       		.byte	0x8
 1736 096e 04       		.byte	0x4
 1737 096f A6020000 		.4byte	.LASF133
 1738 0973 03       		.uleb128 0x3
 1739 0974 E4020000 		.4byte	.LASF134
 1740 0978 09       		.byte	0x9
 1741 0979 4D       		.byte	0x4d
 1742 097a FE080000 		.4byte	0x8fe
 1743 097e 0C       		.uleb128 0xc
 1744 097f 0C       		.byte	0xc
 1745 0980 0A       		.byte	0xa
 1746 0981 0D       		.byte	0xd
 1747 0982 AB090000 		.4byte	0x9ab
 1748 0986 11       		.uleb128 0x11
 1749 0987 62756600 		.ascii	"buf\000"
 1750 098b 0A       		.byte	0xa
 1751 098c 0E       		.byte	0xe
 1752 098d 28010000 		.4byte	0x128
 1753 0991 00       		.byte	0
 1754 0992 0D       		.uleb128 0xd
 1755 0993 53060000 		.4byte	.LASF135
 1756 0997 0A       		.byte	0xa
 1757 0998 0F       		.byte	0xf
 1758 0999 2C000000 		.4byte	0x2c
 1759 099d 04       		.byte	0x4
 1760 099e 0D       		.uleb128 0xd
 1761 099f A0030000 		.4byte	.LASF136
 1762 09a3 0A       		.byte	0xa
 1763 09a4 10       		.byte	0x10
 1764 09a5 2C000000 		.4byte	0x2c
 1765 09a9 08       		.byte	0x8
 1766 09aa 00       		.byte	0
 1767 09ab 03       		.uleb128 0x3
ARM GAS  C:\Users\PCHAUT~1\AppData\Local\Temp\ccPgTkyc.s 			page 32


 1768 09ac 1B040000 		.4byte	.LASF137
 1769 09b0 0A       		.byte	0xa
 1770 09b1 11       		.byte	0x11
 1771 09b2 7E090000 		.4byte	0x97e
 1772 09b6 22       		.uleb128 0x22
 1773 09b7 3A070000 		.4byte	.LASF138
 1774 09bb 01       		.byte	0x1
 1775 09bc 43       		.byte	0x43
 1776 09bd F1080000 		.4byte	0x8f1
 1777 09c1 00000000 		.4byte	.LFB8
 1778 09c5 38000000 		.4byte	.LFE8-.LFB8
 1779 09c9 01       		.uleb128 0x1
 1780 09ca 9C       		.byte	0x9c
 1781 09cb EA090000 		.4byte	0x9ea
 1782 09cf 23       		.uleb128 0x23
 1783 09d0 6D00     		.ascii	"m\000"
 1784 09d2 01       		.byte	0x1
 1785 09d3 43       		.byte	0x43
 1786 09d4 EA090000 		.4byte	0x9ea
 1787 09d8 02       		.uleb128 0x2
 1788 09d9 91       		.byte	0x91
 1789 09da 6C       		.sleb128 -20
 1790 09db 23       		.uleb128 0x23
 1791 09dc 706F7300 		.ascii	"pos\000"
 1792 09e0 01       		.byte	0x1
 1793 09e1 43       		.byte	0x43
 1794 09e2 2C000000 		.4byte	0x2c
 1795 09e6 02       		.uleb128 0x2
 1796 09e7 91       		.byte	0x91
 1797 09e8 68       		.sleb128 -24
 1798 09e9 00       		.byte	0
 1799 09ea 05       		.uleb128 0x5
 1800 09eb 04       		.byte	0x4
 1801 09ec AB090000 		.4byte	0x9ab
 1802 09f0 22       		.uleb128 0x22
 1803 09f1 F7030000 		.4byte	.LASF139
 1804 09f5 01       		.byte	0x1
 1805 09f6 3E       		.byte	0x3e
 1806 09f7 26010000 		.4byte	0x126
 1807 09fb 00000000 		.4byte	.LFB7
 1808 09ff 30000000 		.4byte	.LFE7-.LFB7
 1809 0a03 01       		.uleb128 0x1
 1810 0a04 9C       		.byte	0x9c
 1811 0a05 240A0000 		.4byte	0xa24
 1812 0a09 23       		.uleb128 0x23
 1813 0a0a 6D00     		.ascii	"m\000"
 1814 0a0c 01       		.byte	0x1
 1815 0a0d 3E       		.byte	0x3e
 1816 0a0e EA090000 		.4byte	0x9ea
 1817 0a12 02       		.uleb128 0x2
 1818 0a13 91       		.byte	0x91
 1819 0a14 6C       		.sleb128 -20
 1820 0a15 23       		.uleb128 0x23
 1821 0a16 706F7300 		.ascii	"pos\000"
 1822 0a1a 01       		.byte	0x1
 1823 0a1b 3E       		.byte	0x3e
 1824 0a1c 2C000000 		.4byte	0x2c
ARM GAS  C:\Users\PCHAUT~1\AppData\Local\Temp\ccPgTkyc.s 			page 33


 1825 0a20 02       		.uleb128 0x2
 1826 0a21 91       		.byte	0x91
 1827 0a22 68       		.sleb128 -24
 1828 0a23 00       		.byte	0
 1829 0a24 24       		.uleb128 0x24
 1830 0a25 2D060000 		.4byte	.LASF141
 1831 0a29 01       		.byte	0x1
 1832 0a2a 39       		.byte	0x39
 1833 0a2b 00000000 		.4byte	.LFB6
 1834 0a2f 30000000 		.4byte	.LFE6-.LFB6
 1835 0a33 01       		.uleb128 0x1
 1836 0a34 9C       		.byte	0x9c
 1837 0a35 540A0000 		.4byte	0xa54
 1838 0a39 23       		.uleb128 0x23
 1839 0a3a 6D00     		.ascii	"m\000"
 1840 0a3c 01       		.byte	0x1
 1841 0a3d 39       		.byte	0x39
 1842 0a3e EA090000 		.4byte	0x9ea
 1843 0a42 02       		.uleb128 0x2
 1844 0a43 91       		.byte	0x91
 1845 0a44 6C       		.sleb128 -20
 1846 0a45 23       		.uleb128 0x23
 1847 0a46 706F7300 		.ascii	"pos\000"
 1848 0a4a 01       		.byte	0x1
 1849 0a4b 39       		.byte	0x39
 1850 0a4c 2C000000 		.4byte	0x2c
 1851 0a50 02       		.uleb128 0x2
 1852 0a51 91       		.byte	0x91
 1853 0a52 68       		.sleb128 -24
 1854 0a53 00       		.byte	0
 1855 0a54 22       		.uleb128 0x22
 1856 0a55 F9020000 		.4byte	.LASF140
 1857 0a59 01       		.byte	0x1
 1858 0a5a 34       		.byte	0x34
 1859 0a5b 2C000000 		.4byte	0x2c
 1860 0a5f 00000000 		.4byte	.LFB5
 1861 0a63 2C000000 		.4byte	.LFE5-.LFB5
 1862 0a67 01       		.uleb128 0x1
 1863 0a68 9C       		.byte	0x9c
 1864 0a69 7A0A0000 		.4byte	0xa7a
 1865 0a6d 23       		.uleb128 0x23
 1866 0a6e 6D00     		.ascii	"m\000"
 1867 0a70 01       		.byte	0x1
 1868 0a71 34       		.byte	0x34
 1869 0a72 EA090000 		.4byte	0x9ea
 1870 0a76 02       		.uleb128 0x2
 1871 0a77 91       		.byte	0x91
 1872 0a78 6C       		.sleb128 -20
 1873 0a79 00       		.byte	0
 1874 0a7a 24       		.uleb128 0x24
 1875 0a7b BD060000 		.4byte	.LASF142
 1876 0a7f 01       		.byte	0x1
 1877 0a80 2C       		.byte	0x2c
 1878 0a81 00000000 		.4byte	.LFB4
 1879 0a85 54000000 		.4byte	.LFE4-.LFB4
 1880 0a89 01       		.uleb128 0x1
 1881 0a8a 9C       		.byte	0x9c
ARM GAS  C:\Users\PCHAUT~1\AppData\Local\Temp\ccPgTkyc.s 			page 34


 1882 0a8b C60A0000 		.4byte	0xac6
 1883 0a8f 23       		.uleb128 0x23
 1884 0a90 636D7000 		.ascii	"cmp\000"
 1885 0a94 01       		.byte	0x1
 1886 0a95 2C       		.byte	0x2c
 1887 0a96 C60A0000 		.4byte	0xac6
 1888 0a9a 02       		.uleb128 0x2
 1889 0a9b 91       		.byte	0x91
 1890 0a9c 6C       		.sleb128 -20
 1891 0a9d 23       		.uleb128 0x23
 1892 0a9e 6D00     		.ascii	"m\000"
 1893 0aa0 01       		.byte	0x1
 1894 0aa1 2C       		.byte	0x2c
 1895 0aa2 EA090000 		.4byte	0x9ea
 1896 0aa6 02       		.uleb128 0x2
 1897 0aa7 91       		.byte	0x91
 1898 0aa8 68       		.sleb128 -24
 1899 0aa9 23       		.uleb128 0x23
 1900 0aaa 62756600 		.ascii	"buf\000"
 1901 0aae 01       		.byte	0x1
 1902 0aaf 2C       		.byte	0x2c
 1903 0ab0 AA080000 		.4byte	0x8aa
 1904 0ab4 02       		.uleb128 0x2
 1905 0ab5 91       		.byte	0x91
 1906 0ab6 64       		.sleb128 -28
 1907 0ab7 25       		.uleb128 0x25
 1908 0ab8 A0030000 		.4byte	.LASF136
 1909 0abc 01       		.byte	0x1
 1910 0abd 2C       		.byte	0x2c
 1911 0abe 2C000000 		.4byte	0x2c
 1912 0ac2 02       		.uleb128 0x2
 1913 0ac3 91       		.byte	0x91
 1914 0ac4 60       		.sleb128 -32
 1915 0ac5 00       		.byte	0
 1916 0ac6 05       		.uleb128 0x5
 1917 0ac7 04       		.byte	0x4
 1918 0ac8 73090000 		.4byte	0x973
 1919 0acc 24       		.uleb128 0x24
 1920 0acd 73070000 		.4byte	.LASF143
 1921 0ad1 01       		.byte	0x1
 1922 0ad2 24       		.byte	0x24
 1923 0ad3 00000000 		.4byte	.LFB3
 1924 0ad7 54000000 		.4byte	.LFE3-.LFB3
 1925 0adb 01       		.uleb128 0x1
 1926 0adc 9C       		.byte	0x9c
 1927 0add 180B0000 		.4byte	0xb18
 1928 0ae1 23       		.uleb128 0x23
 1929 0ae2 636D7000 		.ascii	"cmp\000"
 1930 0ae6 01       		.byte	0x1
 1931 0ae7 24       		.byte	0x24
 1932 0ae8 C60A0000 		.4byte	0xac6
 1933 0aec 02       		.uleb128 0x2
 1934 0aed 91       		.byte	0x91
 1935 0aee 6C       		.sleb128 -20
 1936 0aef 23       		.uleb128 0x23
 1937 0af0 6D00     		.ascii	"m\000"
 1938 0af2 01       		.byte	0x1
ARM GAS  C:\Users\PCHAUT~1\AppData\Local\Temp\ccPgTkyc.s 			page 35


 1939 0af3 24       		.byte	0x24
 1940 0af4 EA090000 		.4byte	0x9ea
 1941 0af8 02       		.uleb128 0x2
 1942 0af9 91       		.byte	0x91
 1943 0afa 68       		.sleb128 -24
 1944 0afb 23       		.uleb128 0x23
 1945 0afc 62756600 		.ascii	"buf\000"
 1946 0b00 01       		.byte	0x1
 1947 0b01 24       		.byte	0x24
 1948 0b02 26010000 		.4byte	0x126
 1949 0b06 02       		.uleb128 0x2
 1950 0b07 91       		.byte	0x91
 1951 0b08 64       		.sleb128 -28
 1952 0b09 25       		.uleb128 0x25
 1953 0b0a A0030000 		.4byte	.LASF136
 1954 0b0e 01       		.byte	0x1
 1955 0b0f 24       		.byte	0x24
 1956 0b10 2C000000 		.4byte	0x2c
 1957 0b14 02       		.uleb128 0x2
 1958 0b15 91       		.byte	0x91
 1959 0b16 60       		.sleb128 -32
 1960 0b17 00       		.byte	0
 1961 0b18 26       		.uleb128 0x26
 1962 0b19 7C040000 		.4byte	.LASF145
 1963 0b1d 01       		.byte	0x1
 1964 0b1e 1C       		.byte	0x1c
 1965 0b1f 2C000000 		.4byte	0x2c
 1966 0b23 00000000 		.4byte	.LFB2
 1967 0b27 2C000000 		.4byte	.LFE2-.LFB2
 1968 0b2b 01       		.uleb128 0x1
 1969 0b2c 9C       		.byte	0x9c
 1970 0b2d 5C0B0000 		.4byte	0xb5c
 1971 0b31 23       		.uleb128 0x23
 1972 0b32 63747800 		.ascii	"ctx\000"
 1973 0b36 01       		.byte	0x1
 1974 0b37 1C       		.byte	0x1c
 1975 0b38 F8080000 		.4byte	0x8f8
 1976 0b3c 02       		.uleb128 0x2
 1977 0b3d 91       		.byte	0x91
 1978 0b3e 6C       		.sleb128 -20
 1979 0b3f 25       		.uleb128 0x25
 1980 0b40 9B030000 		.4byte	.LASF144
 1981 0b44 01       		.byte	0x1
 1982 0b45 1C       		.byte	0x1c
 1983 0b46 AA080000 		.4byte	0x8aa
 1984 0b4a 02       		.uleb128 0x2
 1985 0b4b 91       		.byte	0x91
 1986 0b4c 68       		.sleb128 -24
 1987 0b4d 23       		.uleb128 0x23
 1988 0b4e 6C656E00 		.ascii	"len\000"
 1989 0b52 01       		.byte	0x1
 1990 0b53 1C       		.byte	0x1c
 1991 0b54 2C000000 		.4byte	0x2c
 1992 0b58 02       		.uleb128 0x2
 1993 0b59 91       		.byte	0x91
 1994 0b5a 64       		.sleb128 -28
 1995 0b5b 00       		.byte	0
ARM GAS  C:\Users\PCHAUT~1\AppData\Local\Temp\ccPgTkyc.s 			page 36


 1996 0b5c 26       		.uleb128 0x26
 1997 0b5d 44060000 		.4byte	.LASF146
 1998 0b61 01       		.byte	0x1
 1999 0b62 10       		.byte	0x10
 2000 0b63 2C000000 		.4byte	0x2c
 2001 0b67 00000000 		.4byte	.LFB1
 2002 0b6b 68000000 		.4byte	.LFE1-.LFB1
 2003 0b6f 01       		.uleb128 0x1
 2004 0b70 9C       		.byte	0x9c
 2005 0b71 AE0B0000 		.4byte	0xbae
 2006 0b75 23       		.uleb128 0x23
 2007 0b76 63747800 		.ascii	"ctx\000"
 2008 0b7a 01       		.byte	0x1
 2009 0b7b 10       		.byte	0x10
 2010 0b7c F8080000 		.4byte	0x8f8
 2011 0b80 02       		.uleb128 0x2
 2012 0b81 91       		.byte	0x91
 2013 0b82 6C       		.sleb128 -20
 2014 0b83 25       		.uleb128 0x25
 2015 0b84 9B030000 		.4byte	.LASF144
 2016 0b88 01       		.byte	0x1
 2017 0b89 10       		.byte	0x10
 2018 0b8a AA080000 		.4byte	0x8aa
 2019 0b8e 02       		.uleb128 0x2
 2020 0b8f 91       		.byte	0x91
 2021 0b90 68       		.sleb128 -24
 2022 0b91 23       		.uleb128 0x23
 2023 0b92 6C656E00 		.ascii	"len\000"
 2024 0b96 01       		.byte	0x1
 2025 0b97 10       		.byte	0x10
 2026 0b98 2C000000 		.4byte	0x2c
 2027 0b9c 02       		.uleb128 0x2
 2028 0b9d 91       		.byte	0x91
 2029 0b9e 64       		.sleb128 -28
 2030 0b9f 27       		.uleb128 0x27
 2031 0ba0 6D656D00 		.ascii	"mem\000"
 2032 0ba4 01       		.byte	0x1
 2033 0ba5 12       		.byte	0x12
 2034 0ba6 EA090000 		.4byte	0x9ea
 2035 0baa 02       		.uleb128 0x2
 2036 0bab 91       		.byte	0x91
 2037 0bac 70       		.sleb128 -16
 2038 0bad 00       		.byte	0
 2039 0bae 28       		.uleb128 0x28
 2040 0baf 34040000 		.4byte	.LASF150
 2041 0bb3 01       		.byte	0x1
 2042 0bb4 04       		.byte	0x4
 2043 0bb5 F1080000 		.4byte	0x8f1
 2044 0bb9 00000000 		.4byte	.LFB0
 2045 0bbd 68000000 		.4byte	.LFE0-.LFB0
 2046 0bc1 01       		.uleb128 0x1
 2047 0bc2 9C       		.byte	0x9c
 2048 0bc3 23       		.uleb128 0x23
 2049 0bc4 63747800 		.ascii	"ctx\000"
 2050 0bc8 01       		.byte	0x1
 2051 0bc9 04       		.byte	0x4
 2052 0bca F8080000 		.4byte	0x8f8
ARM GAS  C:\Users\PCHAUT~1\AppData\Local\Temp\ccPgTkyc.s 			page 37


 2053 0bce 02       		.uleb128 0x2
 2054 0bcf 91       		.byte	0x91
 2055 0bd0 6C       		.sleb128 -20
 2056 0bd1 25       		.uleb128 0x25
 2057 0bd2 9B030000 		.4byte	.LASF144
 2058 0bd6 01       		.byte	0x1
 2059 0bd7 04       		.byte	0x4
 2060 0bd8 26010000 		.4byte	0x126
 2061 0bdc 02       		.uleb128 0x2
 2062 0bdd 91       		.byte	0x91
 2063 0bde 68       		.sleb128 -24
 2064 0bdf 23       		.uleb128 0x23
 2065 0be0 6C656E00 		.ascii	"len\000"
 2066 0be4 01       		.byte	0x1
 2067 0be5 04       		.byte	0x4
 2068 0be6 2C000000 		.4byte	0x2c
 2069 0bea 02       		.uleb128 0x2
 2070 0beb 91       		.byte	0x91
 2071 0bec 64       		.sleb128 -28
 2072 0bed 27       		.uleb128 0x27
 2073 0bee 6D656D00 		.ascii	"mem\000"
 2074 0bf2 01       		.byte	0x1
 2075 0bf3 06       		.byte	0x6
 2076 0bf4 EA090000 		.4byte	0x9ea
 2077 0bf8 02       		.uleb128 0x2
 2078 0bf9 91       		.byte	0x91
 2079 0bfa 70       		.sleb128 -16
 2080 0bfb 00       		.byte	0
 2081 0bfc 00       		.byte	0
 2082              		.section	.debug_abbrev,"",%progbits
 2083              	.Ldebug_abbrev0:
 2084 0000 01       		.uleb128 0x1
 2085 0001 11       		.uleb128 0x11
 2086 0002 01       		.byte	0x1
 2087 0003 25       		.uleb128 0x25
 2088 0004 0E       		.uleb128 0xe
 2089 0005 13       		.uleb128 0x13
 2090 0006 0B       		.uleb128 0xb
 2091 0007 03       		.uleb128 0x3
 2092 0008 0E       		.uleb128 0xe
 2093 0009 1B       		.uleb128 0x1b
 2094 000a 0E       		.uleb128 0xe
 2095 000b 55       		.uleb128 0x55
 2096 000c 17       		.uleb128 0x17
 2097 000d 11       		.uleb128 0x11
 2098 000e 01       		.uleb128 0x1
 2099 000f 10       		.uleb128 0x10
 2100 0010 17       		.uleb128 0x17
 2101 0011 00       		.byte	0
 2102 0012 00       		.byte	0
 2103 0013 02       		.uleb128 0x2
 2104 0014 24       		.uleb128 0x24
 2105 0015 00       		.byte	0
 2106 0016 0B       		.uleb128 0xb
 2107 0017 0B       		.uleb128 0xb
 2108 0018 3E       		.uleb128 0x3e
 2109 0019 0B       		.uleb128 0xb
ARM GAS  C:\Users\PCHAUT~1\AppData\Local\Temp\ccPgTkyc.s 			page 38


 2110 001a 03       		.uleb128 0x3
 2111 001b 08       		.uleb128 0x8
 2112 001c 00       		.byte	0
 2113 001d 00       		.byte	0
 2114 001e 03       		.uleb128 0x3
 2115 001f 16       		.uleb128 0x16
 2116 0020 00       		.byte	0
 2117 0021 03       		.uleb128 0x3
 2118 0022 0E       		.uleb128 0xe
 2119 0023 3A       		.uleb128 0x3a
 2120 0024 0B       		.uleb128 0xb
 2121 0025 3B       		.uleb128 0x3b
 2122 0026 0B       		.uleb128 0xb
 2123 0027 49       		.uleb128 0x49
 2124 0028 13       		.uleb128 0x13
 2125 0029 00       		.byte	0
 2126 002a 00       		.byte	0
 2127 002b 04       		.uleb128 0x4
 2128 002c 24       		.uleb128 0x24
 2129 002d 00       		.byte	0
 2130 002e 0B       		.uleb128 0xb
 2131 002f 0B       		.uleb128 0xb
 2132 0030 3E       		.uleb128 0x3e
 2133 0031 0B       		.uleb128 0xb
 2134 0032 03       		.uleb128 0x3
 2135 0033 0E       		.uleb128 0xe
 2136 0034 00       		.byte	0
 2137 0035 00       		.byte	0
 2138 0036 05       		.uleb128 0x5
 2139 0037 0F       		.uleb128 0xf
 2140 0038 00       		.byte	0
 2141 0039 0B       		.uleb128 0xb
 2142 003a 0B       		.uleb128 0xb
 2143 003b 49       		.uleb128 0x49
 2144 003c 13       		.uleb128 0x13
 2145 003d 00       		.byte	0
 2146 003e 00       		.byte	0
 2147 003f 06       		.uleb128 0x6
 2148 0040 13       		.uleb128 0x13
 2149 0041 00       		.byte	0
 2150 0042 03       		.uleb128 0x3
 2151 0043 0E       		.uleb128 0xe
 2152 0044 3C       		.uleb128 0x3c
 2153 0045 19       		.uleb128 0x19
 2154 0046 00       		.byte	0
 2155 0047 00       		.byte	0
 2156 0048 07       		.uleb128 0x7
 2157 0049 16       		.uleb128 0x16
 2158 004a 00       		.byte	0
 2159 004b 03       		.uleb128 0x3
 2160 004c 0E       		.uleb128 0xe
 2161 004d 3A       		.uleb128 0x3a
 2162 004e 0B       		.uleb128 0xb
 2163 004f 3B       		.uleb128 0x3b
 2164 0050 05       		.uleb128 0x5
 2165 0051 49       		.uleb128 0x49
 2166 0052 13       		.uleb128 0x13
ARM GAS  C:\Users\PCHAUT~1\AppData\Local\Temp\ccPgTkyc.s 			page 39


 2167 0053 00       		.byte	0
 2168 0054 00       		.byte	0
 2169 0055 08       		.uleb128 0x8
 2170 0056 17       		.uleb128 0x17
 2171 0057 01       		.byte	0x1
 2172 0058 0B       		.uleb128 0xb
 2173 0059 0B       		.uleb128 0xb
 2174 005a 3A       		.uleb128 0x3a
 2175 005b 0B       		.uleb128 0xb
 2176 005c 3B       		.uleb128 0x3b
 2177 005d 0B       		.uleb128 0xb
 2178 005e 01       		.uleb128 0x1
 2179 005f 13       		.uleb128 0x13
 2180 0060 00       		.byte	0
 2181 0061 00       		.byte	0
 2182 0062 09       		.uleb128 0x9
 2183 0063 0D       		.uleb128 0xd
 2184 0064 00       		.byte	0
 2185 0065 03       		.uleb128 0x3
 2186 0066 0E       		.uleb128 0xe
 2187 0067 3A       		.uleb128 0x3a
 2188 0068 0B       		.uleb128 0xb
 2189 0069 3B       		.uleb128 0x3b
 2190 006a 0B       		.uleb128 0xb
 2191 006b 49       		.uleb128 0x49
 2192 006c 13       		.uleb128 0x13
 2193 006d 00       		.byte	0
 2194 006e 00       		.byte	0
 2195 006f 0A       		.uleb128 0xa
 2196 0070 01       		.uleb128 0x1
 2197 0071 01       		.byte	0x1
 2198 0072 49       		.uleb128 0x49
 2199 0073 13       		.uleb128 0x13
 2200 0074 01       		.uleb128 0x1
 2201 0075 13       		.uleb128 0x13
 2202 0076 00       		.byte	0
 2203 0077 00       		.byte	0
 2204 0078 0B       		.uleb128 0xb
 2205 0079 21       		.uleb128 0x21
 2206 007a 00       		.byte	0
 2207 007b 49       		.uleb128 0x49
 2208 007c 13       		.uleb128 0x13
 2209 007d 2F       		.uleb128 0x2f
 2210 007e 0B       		.uleb128 0xb
 2211 007f 00       		.byte	0
 2212 0080 00       		.byte	0
 2213 0081 0C       		.uleb128 0xc
 2214 0082 13       		.uleb128 0x13
 2215 0083 01       		.byte	0x1
 2216 0084 0B       		.uleb128 0xb
 2217 0085 0B       		.uleb128 0xb
 2218 0086 3A       		.uleb128 0x3a
 2219 0087 0B       		.uleb128 0xb
 2220 0088 3B       		.uleb128 0x3b
 2221 0089 0B       		.uleb128 0xb
 2222 008a 01       		.uleb128 0x1
 2223 008b 13       		.uleb128 0x13
ARM GAS  C:\Users\PCHAUT~1\AppData\Local\Temp\ccPgTkyc.s 			page 40


 2224 008c 00       		.byte	0
 2225 008d 00       		.byte	0
 2226 008e 0D       		.uleb128 0xd
 2227 008f 0D       		.uleb128 0xd
 2228 0090 00       		.byte	0
 2229 0091 03       		.uleb128 0x3
 2230 0092 0E       		.uleb128 0xe
 2231 0093 3A       		.uleb128 0x3a
 2232 0094 0B       		.uleb128 0xb
 2233 0095 3B       		.uleb128 0x3b
 2234 0096 0B       		.uleb128 0xb
 2235 0097 49       		.uleb128 0x49
 2236 0098 13       		.uleb128 0x13
 2237 0099 38       		.uleb128 0x38
 2238 009a 0B       		.uleb128 0xb
 2239 009b 00       		.byte	0
 2240 009c 00       		.byte	0
 2241 009d 0E       		.uleb128 0xe
 2242 009e 0F       		.uleb128 0xf
 2243 009f 00       		.byte	0
 2244 00a0 0B       		.uleb128 0xb
 2245 00a1 0B       		.uleb128 0xb
 2246 00a2 00       		.byte	0
 2247 00a3 00       		.byte	0
 2248 00a4 0F       		.uleb128 0xf
 2249 00a5 26       		.uleb128 0x26
 2250 00a6 00       		.byte	0
 2251 00a7 49       		.uleb128 0x49
 2252 00a8 13       		.uleb128 0x13
 2253 00a9 00       		.byte	0
 2254 00aa 00       		.byte	0
 2255 00ab 10       		.uleb128 0x10
 2256 00ac 13       		.uleb128 0x13
 2257 00ad 01       		.byte	0x1
 2258 00ae 03       		.uleb128 0x3
 2259 00af 0E       		.uleb128 0xe
 2260 00b0 0B       		.uleb128 0xb
 2261 00b1 0B       		.uleb128 0xb
 2262 00b2 3A       		.uleb128 0x3a
 2263 00b3 0B       		.uleb128 0xb
 2264 00b4 3B       		.uleb128 0x3b
 2265 00b5 0B       		.uleb128 0xb
 2266 00b6 01       		.uleb128 0x1
 2267 00b7 13       		.uleb128 0x13
 2268 00b8 00       		.byte	0
 2269 00b9 00       		.byte	0
 2270 00ba 11       		.uleb128 0x11
 2271 00bb 0D       		.uleb128 0xd
 2272 00bc 00       		.byte	0
 2273 00bd 03       		.uleb128 0x3
 2274 00be 08       		.uleb128 0x8
 2275 00bf 3A       		.uleb128 0x3a
 2276 00c0 0B       		.uleb128 0xb
 2277 00c1 3B       		.uleb128 0x3b
 2278 00c2 0B       		.uleb128 0xb
 2279 00c3 49       		.uleb128 0x49
 2280 00c4 13       		.uleb128 0x13
ARM GAS  C:\Users\PCHAUT~1\AppData\Local\Temp\ccPgTkyc.s 			page 41


 2281 00c5 38       		.uleb128 0x38
 2282 00c6 0B       		.uleb128 0xb
 2283 00c7 00       		.byte	0
 2284 00c8 00       		.byte	0
 2285 00c9 12       		.uleb128 0x12
 2286 00ca 13       		.uleb128 0x13
 2287 00cb 01       		.byte	0x1
 2288 00cc 03       		.uleb128 0x3
 2289 00cd 0E       		.uleb128 0xe
 2290 00ce 0B       		.uleb128 0xb
 2291 00cf 05       		.uleb128 0x5
 2292 00d0 3A       		.uleb128 0x3a
 2293 00d1 0B       		.uleb128 0xb
 2294 00d2 3B       		.uleb128 0x3b
 2295 00d3 0B       		.uleb128 0xb
 2296 00d4 01       		.uleb128 0x1
 2297 00d5 13       		.uleb128 0x13
 2298 00d6 00       		.byte	0
 2299 00d7 00       		.byte	0
 2300 00d8 13       		.uleb128 0x13
 2301 00d9 0D       		.uleb128 0xd
 2302 00da 00       		.byte	0
 2303 00db 03       		.uleb128 0x3
 2304 00dc 0E       		.uleb128 0xe
 2305 00dd 3A       		.uleb128 0x3a
 2306 00de 0B       		.uleb128 0xb
 2307 00df 3B       		.uleb128 0x3b
 2308 00e0 0B       		.uleb128 0xb
 2309 00e1 49       		.uleb128 0x49
 2310 00e2 13       		.uleb128 0x13
 2311 00e3 38       		.uleb128 0x38
 2312 00e4 05       		.uleb128 0x5
 2313 00e5 00       		.byte	0
 2314 00e6 00       		.byte	0
 2315 00e7 14       		.uleb128 0x14
 2316 00e8 15       		.uleb128 0x15
 2317 00e9 00       		.byte	0
 2318 00ea 27       		.uleb128 0x27
 2319 00eb 19       		.uleb128 0x19
 2320 00ec 00       		.byte	0
 2321 00ed 00       		.byte	0
 2322 00ee 15       		.uleb128 0x15
 2323 00ef 15       		.uleb128 0x15
 2324 00f0 01       		.byte	0x1
 2325 00f1 27       		.uleb128 0x27
 2326 00f2 19       		.uleb128 0x19
 2327 00f3 49       		.uleb128 0x49
 2328 00f4 13       		.uleb128 0x13
 2329 00f5 01       		.uleb128 0x1
 2330 00f6 13       		.uleb128 0x13
 2331 00f7 00       		.byte	0
 2332 00f8 00       		.byte	0
 2333 00f9 16       		.uleb128 0x16
 2334 00fa 05       		.uleb128 0x5
 2335 00fb 00       		.byte	0
 2336 00fc 49       		.uleb128 0x49
 2337 00fd 13       		.uleb128 0x13
ARM GAS  C:\Users\PCHAUT~1\AppData\Local\Temp\ccPgTkyc.s 			page 42


 2338 00fe 00       		.byte	0
 2339 00ff 00       		.byte	0
 2340 0100 17       		.uleb128 0x17
 2341 0101 13       		.uleb128 0x13
 2342 0102 01       		.byte	0x1
 2343 0103 03       		.uleb128 0x3
 2344 0104 0E       		.uleb128 0xe
 2345 0105 0B       		.uleb128 0xb
 2346 0106 05       		.uleb128 0x5
 2347 0107 3A       		.uleb128 0x3a
 2348 0108 0B       		.uleb128 0xb
 2349 0109 3B       		.uleb128 0x3b
 2350 010a 05       		.uleb128 0x5
 2351 010b 01       		.uleb128 0x1
 2352 010c 13       		.uleb128 0x13
 2353 010d 00       		.byte	0
 2354 010e 00       		.byte	0
 2355 010f 18       		.uleb128 0x18
 2356 0110 0D       		.uleb128 0xd
 2357 0111 00       		.byte	0
 2358 0112 03       		.uleb128 0x3
 2359 0113 0E       		.uleb128 0xe
 2360 0114 3A       		.uleb128 0x3a
 2361 0115 0B       		.uleb128 0xb
 2362 0116 3B       		.uleb128 0x3b
 2363 0117 05       		.uleb128 0x5
 2364 0118 49       		.uleb128 0x49
 2365 0119 13       		.uleb128 0x13
 2366 011a 38       		.uleb128 0x38
 2367 011b 0B       		.uleb128 0xb
 2368 011c 00       		.byte	0
 2369 011d 00       		.byte	0
 2370 011e 19       		.uleb128 0x19
 2371 011f 0D       		.uleb128 0xd
 2372 0120 00       		.byte	0
 2373 0121 03       		.uleb128 0x3
 2374 0122 0E       		.uleb128 0xe
 2375 0123 3A       		.uleb128 0x3a
 2376 0124 0B       		.uleb128 0xb
 2377 0125 3B       		.uleb128 0x3b
 2378 0126 05       		.uleb128 0x5
 2379 0127 49       		.uleb128 0x49
 2380 0128 13       		.uleb128 0x13
 2381 0129 38       		.uleb128 0x38
 2382 012a 05       		.uleb128 0x5
 2383 012b 00       		.byte	0
 2384 012c 00       		.byte	0
 2385 012d 1A       		.uleb128 0x1a
 2386 012e 13       		.uleb128 0x13
 2387 012f 01       		.byte	0x1
 2388 0130 03       		.uleb128 0x3
 2389 0131 0E       		.uleb128 0xe
 2390 0132 0B       		.uleb128 0xb
 2391 0133 0B       		.uleb128 0xb
 2392 0134 3A       		.uleb128 0x3a
 2393 0135 0B       		.uleb128 0xb
 2394 0136 3B       		.uleb128 0x3b
ARM GAS  C:\Users\PCHAUT~1\AppData\Local\Temp\ccPgTkyc.s 			page 43


 2395 0137 05       		.uleb128 0x5
 2396 0138 01       		.uleb128 0x1
 2397 0139 13       		.uleb128 0x13
 2398 013a 00       		.byte	0
 2399 013b 00       		.byte	0
 2400 013c 1B       		.uleb128 0x1b
 2401 013d 13       		.uleb128 0x13
 2402 013e 01       		.byte	0x1
 2403 013f 0B       		.uleb128 0xb
 2404 0140 0B       		.uleb128 0xb
 2405 0141 3A       		.uleb128 0x3a
 2406 0142 0B       		.uleb128 0xb
 2407 0143 3B       		.uleb128 0x3b
 2408 0144 05       		.uleb128 0x5
 2409 0145 01       		.uleb128 0x1
 2410 0146 13       		.uleb128 0x13
 2411 0147 00       		.byte	0
 2412 0148 00       		.byte	0
 2413 0149 1C       		.uleb128 0x1c
 2414 014a 17       		.uleb128 0x17
 2415 014b 01       		.byte	0x1
 2416 014c 0B       		.uleb128 0xb
 2417 014d 0B       		.uleb128 0xb
 2418 014e 3A       		.uleb128 0x3a
 2419 014f 0B       		.uleb128 0xb
 2420 0150 3B       		.uleb128 0x3b
 2421 0151 05       		.uleb128 0x5
 2422 0152 01       		.uleb128 0x1
 2423 0153 13       		.uleb128 0x13
 2424 0154 00       		.byte	0
 2425 0155 00       		.byte	0
 2426 0156 1D       		.uleb128 0x1d
 2427 0157 0D       		.uleb128 0xd
 2428 0158 00       		.byte	0
 2429 0159 03       		.uleb128 0x3
 2430 015a 0E       		.uleb128 0xe
 2431 015b 3A       		.uleb128 0x3a
 2432 015c 0B       		.uleb128 0xb
 2433 015d 3B       		.uleb128 0x3b
 2434 015e 05       		.uleb128 0x5
 2435 015f 49       		.uleb128 0x49
 2436 0160 13       		.uleb128 0x13
 2437 0161 00       		.byte	0
 2438 0162 00       		.byte	0
 2439 0163 1E       		.uleb128 0x1e
 2440 0164 15       		.uleb128 0x15
 2441 0165 01       		.byte	0x1
 2442 0166 27       		.uleb128 0x27
 2443 0167 19       		.uleb128 0x19
 2444 0168 01       		.uleb128 0x1
 2445 0169 13       		.uleb128 0x13
 2446 016a 00       		.byte	0
 2447 016b 00       		.byte	0
 2448 016c 1F       		.uleb128 0x1f
 2449 016d 34       		.uleb128 0x34
 2450 016e 00       		.byte	0
 2451 016f 03       		.uleb128 0x3
ARM GAS  C:\Users\PCHAUT~1\AppData\Local\Temp\ccPgTkyc.s 			page 44


 2452 0170 0E       		.uleb128 0xe
 2453 0171 3A       		.uleb128 0x3a
 2454 0172 0B       		.uleb128 0xb
 2455 0173 3B       		.uleb128 0x3b
 2456 0174 05       		.uleb128 0x5
 2457 0175 49       		.uleb128 0x49
 2458 0176 13       		.uleb128 0x13
 2459 0177 3F       		.uleb128 0x3f
 2460 0178 19       		.uleb128 0x19
 2461 0179 3C       		.uleb128 0x3c
 2462 017a 19       		.uleb128 0x19
 2463 017b 00       		.byte	0
 2464 017c 00       		.byte	0
 2465 017d 20       		.uleb128 0x20
 2466 017e 26       		.uleb128 0x26
 2467 017f 00       		.byte	0
 2468 0180 00       		.byte	0
 2469 0181 00       		.byte	0
 2470 0182 21       		.uleb128 0x21
 2471 0183 34       		.uleb128 0x34
 2472 0184 00       		.byte	0
 2473 0185 03       		.uleb128 0x3
 2474 0186 0E       		.uleb128 0xe
 2475 0187 3A       		.uleb128 0x3a
 2476 0188 0B       		.uleb128 0xb
 2477 0189 3B       		.uleb128 0x3b
 2478 018a 0B       		.uleb128 0xb
 2479 018b 49       		.uleb128 0x49
 2480 018c 13       		.uleb128 0x13
 2481 018d 3F       		.uleb128 0x3f
 2482 018e 19       		.uleb128 0x19
 2483 018f 3C       		.uleb128 0x3c
 2484 0190 19       		.uleb128 0x19
 2485 0191 00       		.byte	0
 2486 0192 00       		.byte	0
 2487 0193 22       		.uleb128 0x22
 2488 0194 2E       		.uleb128 0x2e
 2489 0195 01       		.byte	0x1
 2490 0196 3F       		.uleb128 0x3f
 2491 0197 19       		.uleb128 0x19
 2492 0198 03       		.uleb128 0x3
 2493 0199 0E       		.uleb128 0xe
 2494 019a 3A       		.uleb128 0x3a
 2495 019b 0B       		.uleb128 0xb
 2496 019c 3B       		.uleb128 0x3b
 2497 019d 0B       		.uleb128 0xb
 2498 019e 27       		.uleb128 0x27
 2499 019f 19       		.uleb128 0x19
 2500 01a0 49       		.uleb128 0x49
 2501 01a1 13       		.uleb128 0x13
 2502 01a2 11       		.uleb128 0x11
 2503 01a3 01       		.uleb128 0x1
 2504 01a4 12       		.uleb128 0x12
 2505 01a5 06       		.uleb128 0x6
 2506 01a6 40       		.uleb128 0x40
 2507 01a7 18       		.uleb128 0x18
 2508 01a8 9642     		.uleb128 0x2116
ARM GAS  C:\Users\PCHAUT~1\AppData\Local\Temp\ccPgTkyc.s 			page 45


 2509 01aa 19       		.uleb128 0x19
 2510 01ab 01       		.uleb128 0x1
 2511 01ac 13       		.uleb128 0x13
 2512 01ad 00       		.byte	0
 2513 01ae 00       		.byte	0
 2514 01af 23       		.uleb128 0x23
 2515 01b0 05       		.uleb128 0x5
 2516 01b1 00       		.byte	0
 2517 01b2 03       		.uleb128 0x3
 2518 01b3 08       		.uleb128 0x8
 2519 01b4 3A       		.uleb128 0x3a
 2520 01b5 0B       		.uleb128 0xb
 2521 01b6 3B       		.uleb128 0x3b
 2522 01b7 0B       		.uleb128 0xb
 2523 01b8 49       		.uleb128 0x49
 2524 01b9 13       		.uleb128 0x13
 2525 01ba 02       		.uleb128 0x2
 2526 01bb 18       		.uleb128 0x18
 2527 01bc 00       		.byte	0
 2528 01bd 00       		.byte	0
 2529 01be 24       		.uleb128 0x24
 2530 01bf 2E       		.uleb128 0x2e
 2531 01c0 01       		.byte	0x1
 2532 01c1 3F       		.uleb128 0x3f
 2533 01c2 19       		.uleb128 0x19
 2534 01c3 03       		.uleb128 0x3
 2535 01c4 0E       		.uleb128 0xe
 2536 01c5 3A       		.uleb128 0x3a
 2537 01c6 0B       		.uleb128 0xb
 2538 01c7 3B       		.uleb128 0x3b
 2539 01c8 0B       		.uleb128 0xb
 2540 01c9 27       		.uleb128 0x27
 2541 01ca 19       		.uleb128 0x19
 2542 01cb 11       		.uleb128 0x11
 2543 01cc 01       		.uleb128 0x1
 2544 01cd 12       		.uleb128 0x12
 2545 01ce 06       		.uleb128 0x6
 2546 01cf 40       		.uleb128 0x40
 2547 01d0 18       		.uleb128 0x18
 2548 01d1 9642     		.uleb128 0x2116
 2549 01d3 19       		.uleb128 0x19
 2550 01d4 01       		.uleb128 0x1
 2551 01d5 13       		.uleb128 0x13
 2552 01d6 00       		.byte	0
 2553 01d7 00       		.byte	0
 2554 01d8 25       		.uleb128 0x25
 2555 01d9 05       		.uleb128 0x5
 2556 01da 00       		.byte	0
 2557 01db 03       		.uleb128 0x3
 2558 01dc 0E       		.uleb128 0xe
 2559 01dd 3A       		.uleb128 0x3a
 2560 01de 0B       		.uleb128 0xb
 2561 01df 3B       		.uleb128 0x3b
 2562 01e0 0B       		.uleb128 0xb
 2563 01e1 49       		.uleb128 0x49
 2564 01e2 13       		.uleb128 0x13
 2565 01e3 02       		.uleb128 0x2
ARM GAS  C:\Users\PCHAUT~1\AppData\Local\Temp\ccPgTkyc.s 			page 46


 2566 01e4 18       		.uleb128 0x18
 2567 01e5 00       		.byte	0
 2568 01e6 00       		.byte	0
 2569 01e7 26       		.uleb128 0x26
 2570 01e8 2E       		.uleb128 0x2e
 2571 01e9 01       		.byte	0x1
 2572 01ea 03       		.uleb128 0x3
 2573 01eb 0E       		.uleb128 0xe
 2574 01ec 3A       		.uleb128 0x3a
 2575 01ed 0B       		.uleb128 0xb
 2576 01ee 3B       		.uleb128 0x3b
 2577 01ef 0B       		.uleb128 0xb
 2578 01f0 27       		.uleb128 0x27
 2579 01f1 19       		.uleb128 0x19
 2580 01f2 49       		.uleb128 0x49
 2581 01f3 13       		.uleb128 0x13
 2582 01f4 11       		.uleb128 0x11
 2583 01f5 01       		.uleb128 0x1
 2584 01f6 12       		.uleb128 0x12
 2585 01f7 06       		.uleb128 0x6
 2586 01f8 40       		.uleb128 0x40
 2587 01f9 18       		.uleb128 0x18
 2588 01fa 9642     		.uleb128 0x2116
 2589 01fc 19       		.uleb128 0x19
 2590 01fd 01       		.uleb128 0x1
 2591 01fe 13       		.uleb128 0x13
 2592 01ff 00       		.byte	0
 2593 0200 00       		.byte	0
 2594 0201 27       		.uleb128 0x27
 2595 0202 34       		.uleb128 0x34
 2596 0203 00       		.byte	0
 2597 0204 03       		.uleb128 0x3
 2598 0205 08       		.uleb128 0x8
 2599 0206 3A       		.uleb128 0x3a
 2600 0207 0B       		.uleb128 0xb
 2601 0208 3B       		.uleb128 0x3b
 2602 0209 0B       		.uleb128 0xb
 2603 020a 49       		.uleb128 0x49
 2604 020b 13       		.uleb128 0x13
 2605 020c 02       		.uleb128 0x2
 2606 020d 18       		.uleb128 0x18
 2607 020e 00       		.byte	0
 2608 020f 00       		.byte	0
 2609 0210 28       		.uleb128 0x28
 2610 0211 2E       		.uleb128 0x2e
 2611 0212 01       		.byte	0x1
 2612 0213 03       		.uleb128 0x3
 2613 0214 0E       		.uleb128 0xe
 2614 0215 3A       		.uleb128 0x3a
 2615 0216 0B       		.uleb128 0xb
 2616 0217 3B       		.uleb128 0x3b
 2617 0218 0B       		.uleb128 0xb
 2618 0219 27       		.uleb128 0x27
 2619 021a 19       		.uleb128 0x19
 2620 021b 49       		.uleb128 0x49
 2621 021c 13       		.uleb128 0x13
 2622 021d 11       		.uleb128 0x11
ARM GAS  C:\Users\PCHAUT~1\AppData\Local\Temp\ccPgTkyc.s 			page 47


 2623 021e 01       		.uleb128 0x1
 2624 021f 12       		.uleb128 0x12
 2625 0220 06       		.uleb128 0x6
 2626 0221 40       		.uleb128 0x40
 2627 0222 18       		.uleb128 0x18
 2628 0223 9642     		.uleb128 0x2116
 2629 0225 19       		.uleb128 0x19
 2630 0226 00       		.byte	0
 2631 0227 00       		.byte	0
 2632 0228 00       		.byte	0
 2633              		.section	.debug_aranges,"",%progbits
 2634 0000 5C000000 		.4byte	0x5c
 2635 0004 0200     		.2byte	0x2
 2636 0006 00000000 		.4byte	.Ldebug_info0
 2637 000a 04       		.byte	0x4
 2638 000b 00       		.byte	0
 2639 000c 0000     		.2byte	0
 2640 000e 0000     		.2byte	0
 2641 0010 00000000 		.4byte	.LFB0
 2642 0014 68000000 		.4byte	.LFE0-.LFB0
 2643 0018 00000000 		.4byte	.LFB1
 2644 001c 68000000 		.4byte	.LFE1-.LFB1
 2645 0020 00000000 		.4byte	.LFB2
 2646 0024 2C000000 		.4byte	.LFE2-.LFB2
 2647 0028 00000000 		.4byte	.LFB3
 2648 002c 54000000 		.4byte	.LFE3-.LFB3
 2649 0030 00000000 		.4byte	.LFB4
 2650 0034 54000000 		.4byte	.LFE4-.LFB4
 2651 0038 00000000 		.4byte	.LFB5
 2652 003c 2C000000 		.4byte	.LFE5-.LFB5
 2653 0040 00000000 		.4byte	.LFB6
 2654 0044 30000000 		.4byte	.LFE6-.LFB6
 2655 0048 00000000 		.4byte	.LFB7
 2656 004c 30000000 		.4byte	.LFE7-.LFB7
 2657 0050 00000000 		.4byte	.LFB8
 2658 0054 38000000 		.4byte	.LFE8-.LFB8
 2659 0058 00000000 		.4byte	0
 2660 005c 00000000 		.4byte	0
 2661              		.section	.debug_ranges,"",%progbits
 2662              	.Ldebug_ranges0:
 2663 0000 00000000 		.4byte	.LFB0
 2664 0004 68000000 		.4byte	.LFE0
 2665 0008 00000000 		.4byte	.LFB1
 2666 000c 68000000 		.4byte	.LFE1
 2667 0010 00000000 		.4byte	.LFB2
 2668 0014 2C000000 		.4byte	.LFE2
 2669 0018 00000000 		.4byte	.LFB3
 2670 001c 54000000 		.4byte	.LFE3
 2671 0020 00000000 		.4byte	.LFB4
 2672 0024 54000000 		.4byte	.LFE4
 2673 0028 00000000 		.4byte	.LFB5
 2674 002c 2C000000 		.4byte	.LFE5
 2675 0030 00000000 		.4byte	.LFB6
 2676 0034 30000000 		.4byte	.LFE6
 2677 0038 00000000 		.4byte	.LFB7
 2678 003c 30000000 		.4byte	.LFE7
 2679 0040 00000000 		.4byte	.LFB8
ARM GAS  C:\Users\PCHAUT~1\AppData\Local\Temp\ccPgTkyc.s 			page 48


 2680 0044 38000000 		.4byte	.LFE8
 2681 0048 00000000 		.4byte	0
 2682 004c 00000000 		.4byte	0
 2683              		.section	.debug_line,"",%progbits
 2684              	.Ldebug_line0:
 2685 0000 BC030000 		.section	.debug_str,"MS",%progbits,1
 2685      02000303 
 2685      00000201 
 2685      FB0E0D00 
 2685      01010101 
 2686              	.LASF41:
 2687 0000 5F64736F 		.ascii	"_dso_handle\000"
 2687      5F68616E 
 2687      646C6500 
 2688              	.LASF148:
 2689 000c 2E2E2F6C 		.ascii	"../lib/e-puck2_main-processor/src/cmp_mem_access/cm"
 2689      69622F65 
 2689      2D707563 
 2689      6B325F6D 
 2689      61696E2D 
 2690 003f 705F6D65 		.ascii	"p_mem_access.c\000"
 2690      6D5F6163 
 2690      63657373 
 2690      2E6300
 2691              	.LASF49:
 2692 004e 5F73697A 		.ascii	"_size\000"
 2692      6500
 2693              	.LASF4:
 2694 0054 73697A65 		.ascii	"size_t\000"
 2694      5F7400
 2695              	.LASF93:
 2696 005b 5F72616E 		.ascii	"_rand48\000"
 2696      64343800 
 2697              	.LASF73:
 2698 0063 5F656D65 		.ascii	"_emergency\000"
 2698      7267656E 
 2698      637900
 2699              	.LASF130:
 2700 006e 77726974 		.ascii	"write\000"
 2700      6500
 2701              	.LASF5:
 2702 0074 5F5F7569 		.ascii	"__uint8_t\000"
 2702      6E74385F 
 2702      7400
 2703              	.LASF63:
 2704 007e 5F646174 		.ascii	"_data\000"
 2704      6100
 2705              	.LASF113:
 2706 0084 5F776372 		.ascii	"_wcrtomb_state\000"
 2706      746F6D62 
 2706      5F737461 
 2706      746500
 2707              	.LASF114:
 2708 0093 5F776373 		.ascii	"_wcsrtombs_state\000"
 2708      72746F6D 
 2708      62735F73 
 2708      74617465 
ARM GAS  C:\Users\PCHAUT~1\AppData\Local\Temp\ccPgTkyc.s 			page 49


 2708      00
 2709              	.LASF11:
 2710 00a4 6C6F6E67 		.ascii	"long long unsigned int\000"
 2710      206C6F6E 
 2710      6720756E 
 2710      7369676E 
 2710      65642069 
 2711              	.LASF53:
 2712 00bb 5F6C6266 		.ascii	"_lbfsize\000"
 2712      73697A65 
 2712      00
 2713              	.LASF120:
 2714 00c4 5F5F6C6F 		.ascii	"__locale_t\000"
 2714      63616C65 
 2714      5F7400
 2715              	.LASF111:
 2716 00cf 5F6D6272 		.ascii	"_mbrtowc_state\000"
 2716      746F7763 
 2716      5F737461 
 2716      746500
 2717              	.LASF30:
 2718 00de 5F5F746D 		.ascii	"__tm_sec\000"
 2718      5F736563 
 2718      00
 2719              	.LASF1:
 2720 00e7 6C6F6E67 		.ascii	"long long int\000"
 2720      206C6F6E 
 2720      6720696E 
 2720      7400
 2721              	.LASF3:
 2722 00f5 7369676E 		.ascii	"signed char\000"
 2722      65642063 
 2722      68617200 
 2723              	.LASF59:
 2724 0101 5F756275 		.ascii	"_ubuf\000"
 2724      6600
 2725              	.LASF48:
 2726 0107 5F626173 		.ascii	"_base\000"
 2726      6500
 2727              	.LASF32:
 2728 010d 5F5F746D 		.ascii	"__tm_hour\000"
 2728      5F686F75 
 2728      7200
 2729              	.LASF88:
 2730 0117 5F5F7366 		.ascii	"__sf\000"
 2730      00
 2731              	.LASF39:
 2732 011c 5F6F6E5F 		.ascii	"_on_exit_args\000"
 2732      65786974 
 2732      5F617267 
 2732      7300
 2733              	.LASF54:
 2734 012a 5F636F6F 		.ascii	"_cookie\000"
 2734      6B696500 
 2735              	.LASF87:
 2736 0132 5F5F7367 		.ascii	"__sglue\000"
 2736      6C756500 
ARM GAS  C:\Users\PCHAUT~1\AppData\Local\Temp\ccPgTkyc.s 			page 50


 2737              	.LASF9:
 2738 013a 6C6F6E67 		.ascii	"long int\000"
 2738      20696E74 
 2738      00
 2739              	.LASF147:
 2740 0143 474E5520 		.ascii	"GNU C11 7.2.1 20170904 (release) [ARM/embedded-7-br"
 2740      43313120 
 2740      372E322E 
 2740      31203230 
 2740      31373039 
 2741 0176 616E6368 		.ascii	"anch revision 255204] -mcpu=cortex-m4 -mfloat-abi=h"
 2741      20726576 
 2741      6973696F 
 2741      6E203235 
 2741      35323034 
 2742 01a9 61726420 		.ascii	"ard -mfpu=fpv4-sp-d16 -mno-thumb-interwork -mthumb "
 2742      2D6D6670 
 2742      753D6670 
 2742      76342D73 
 2742      702D6431 
 2743 01dc 2D676764 		.ascii	"-ggdb -O0 -fomit-frame-pointer -falign-functions=16"
 2743      62202D4F 
 2743      30202D66 
 2743      6F6D6974 
 2743      2D667261 
 2744 020f 202D666E 		.ascii	" -fno-strict-aliasing -fstack-protector-all -ffunct"
 2744      6F2D7374 
 2744      72696374 
 2744      2D616C69 
 2744      6173696E 
 2745 0242 696F6E2D 		.ascii	"ion-sections -fdata-sections -fno-common -fsingle-p"
 2745      73656374 
 2745      696F6E73 
 2745      202D6664 
 2745      6174612D 
 2746 0275 72656369 		.ascii	"recision-constant\000"
 2746      73696F6E 
 2746      2D636F6E 
 2746      7374616E 
 2746      7400
 2747              	.LASF51:
 2748 0287 5F666C61 		.ascii	"_flags\000"
 2748      677300
 2749              	.LASF43:
 2750 028e 5F69735F 		.ascii	"_is_cxa\000"
 2750      63786100 
 2751              	.LASF69:
 2752 0296 5F737464 		.ascii	"_stdin\000"
 2752      696E00
 2753              	.LASF61:
 2754 029d 5F626C6B 		.ascii	"_blksize\000"
 2754      73697A65 
 2754      00
 2755              	.LASF133:
 2756 02a6 646F7562 		.ascii	"double\000"
 2756      6C6500
 2757              	.LASF83:
ARM GAS  C:\Users\PCHAUT~1\AppData\Local\Temp\ccPgTkyc.s 			page 51


 2758 02ad 5F637674 		.ascii	"_cvtbuf\000"
 2758      62756600 
 2759              	.LASF62:
 2760 02b5 5F6F6666 		.ascii	"_offset\000"
 2760      73657400 
 2761              	.LASF112:
 2762 02bd 5F6D6273 		.ascii	"_mbsrtowcs_state\000"
 2762      72746F77 
 2762      63735F73 
 2762      74617465 
 2762      00
 2763              	.LASF110:
 2764 02ce 5F6D6272 		.ascii	"_mbrlen_state\000"
 2764      6C656E5F 
 2764      73746174 
 2764      6500
 2765              	.LASF40:
 2766 02dc 5F666E61 		.ascii	"_fnargs\000"
 2766      72677300 
 2767              	.LASF134:
 2768 02e4 636D705F 		.ascii	"cmp_ctx_t\000"
 2768      6374785F 
 2768      7400
 2769              	.LASF46:
 2770 02ee 5F666E73 		.ascii	"_fns\000"
 2770      00
 2771              	.LASF26:
 2772 02f3 5F736967 		.ascii	"_sign\000"
 2772      6E00
 2773              	.LASF140:
 2774 02f9 636D705F 		.ascii	"cmp_mem_access_get_pos\000"
 2774      6D656D5F 
 2774      61636365 
 2774      73735F67 
 2774      65745F70 
 2775              	.LASF21:
 2776 0310 5F666C6F 		.ascii	"_flock_t\000"
 2776      636B5F74 
 2776      00
 2777              	.LASF71:
 2778 0319 5F737464 		.ascii	"_stderr\000"
 2778      65727200 
 2779              	.LASF28:
 2780 0321 5F426967 		.ascii	"_Bigint\000"
 2780      696E7400 
 2781              	.LASF101:
 2782 0329 5F67616D 		.ascii	"_gamma_signgam\000"
 2782      6D615F73 
 2782      69676E67 
 2782      616D00
 2783              	.LASF55:
 2784 0338 5F726561 		.ascii	"_read\000"
 2784      6400
 2785              	.LASF79:
 2786 033e 5F726573 		.ascii	"_result_k\000"
 2786      756C745F 
 2786      6B00
ARM GAS  C:\Users\PCHAUT~1\AppData\Local\Temp\ccPgTkyc.s 			page 52


 2787              	.LASF29:
 2788 0348 5F5F746D 		.ascii	"__tm\000"
 2788      00
 2789              	.LASF0:
 2790 034d 756E7369 		.ascii	"unsigned int\000"
 2790      676E6564 
 2790      20696E74 
 2790      00
 2791              	.LASF17:
 2792 035a 5F5F7763 		.ascii	"__wchb\000"
 2792      686200
 2793              	.LASF70:
 2794 0361 5F737464 		.ascii	"_stdout\000"
 2794      6F757400 
 2795              	.LASF82:
 2796 0369 5F637674 		.ascii	"_cvtlen\000"
 2796      6C656E00 
 2797              	.LASF10:
 2798 0371 6C6F6E67 		.ascii	"long unsigned int\000"
 2798      20756E73 
 2798      69676E65 
 2798      6420696E 
 2798      7400
 2799              	.LASF52:
 2800 0383 5F66696C 		.ascii	"_file\000"
 2800      6500
 2801              	.LASF131:
 2802 0389 636D705F 		.ascii	"cmp_writer\000"
 2802      77726974 
 2802      657200
 2803              	.LASF91:
 2804 0394 5F6E696F 		.ascii	"_niobs\000"
 2804      627300
 2805              	.LASF144:
 2806 039b 64617461 		.ascii	"data\000"
 2806      00
 2807              	.LASF136:
 2808 03a0 73697A65 		.ascii	"size\000"
 2808      00
 2809              	.LASF8:
 2810 03a5 73686F72 		.ascii	"short unsigned int\000"
 2810      7420756E 
 2810      7369676E 
 2810      65642069 
 2810      6E7400
 2811              	.LASF85:
 2812 03b8 5F617465 		.ascii	"_atexit0\000"
 2812      78697430 
 2812      00
 2813              	.LASF108:
 2814 03c1 5F736967 		.ascii	"_signal_buf\000"
 2814      6E616C5F 
 2814      62756600 
 2815              	.LASF99:
 2816 03cd 5F617363 		.ascii	"_asctime_buf\000"
 2816      74696D65 
 2816      5F627566 
ARM GAS  C:\Users\PCHAUT~1\AppData\Local\Temp\ccPgTkyc.s 			page 53


 2816      00
 2817              	.LASF78:
 2818 03da 5F726573 		.ascii	"_result\000"
 2818      756C7400 
 2819              	.LASF16:
 2820 03e2 5F5F7763 		.ascii	"__wch\000"
 2820      6800
 2821              	.LASF12:
 2822 03e8 5F4C4F43 		.ascii	"_LOCK_T\000"
 2822      4B5F5400 
 2823              	.LASF15:
 2824 03f0 77696E74 		.ascii	"wint_t\000"
 2824      5F7400
 2825              	.LASF139:
 2826 03f7 636D705F 		.ascii	"cmp_mem_access_get_ptr_at_pos\000"
 2826      6D656D5F 
 2826      61636365 
 2826      73735F67 
 2826      65745F70 
 2827              	.LASF64:
 2828 0415 5F6C6F63 		.ascii	"_lock\000"
 2828      6B00
 2829              	.LASF137:
 2830 041b 636D705F 		.ascii	"cmp_mem_access_t\000"
 2830      6D656D5F 
 2830      61636365 
 2830      73735F74 
 2830      00
 2831              	.LASF66:
 2832 042c 5F666C61 		.ascii	"_flags2\000"
 2832      67733200 
 2833              	.LASF150:
 2834 0434 636D705F 		.ascii	"cmp_mem_reader\000"
 2834      6D656D5F 
 2834      72656164 
 2834      657200
 2835              	.LASF56:
 2836 0443 5F777269 		.ascii	"_write\000"
 2836      746500
 2837              	.LASF35:
 2838 044a 5F5F746D 		.ascii	"__tm_year\000"
 2838      5F796561 
 2838      7200
 2839              	.LASF125:
 2840 0454 636D705F 		.ascii	"cmp_reader\000"
 2840      72656164 
 2840      657200
 2841              	.LASF2:
 2842 045f 6C6F6E67 		.ascii	"long double\000"
 2842      20646F75 
 2842      626C6500 
 2843              	.LASF127:
 2844 046b 636D705F 		.ascii	"cmp_ctx_s\000"
 2844      6374785F 
 2844      7300
 2845              	.LASF116:
 2846 0475 5F6E6578 		.ascii	"_nextf\000"
ARM GAS  C:\Users\PCHAUT~1\AppData\Local\Temp\ccPgTkyc.s 			page 54


 2846      746600
 2847              	.LASF145:
 2848 047c 636D705F 		.ascii	"cmp_mem_writer_ro\000"
 2848      6D656D5F 
 2848      77726974 
 2848      65725F72 
 2848      6F00
 2849              	.LASF34:
 2850 048e 5F5F746D 		.ascii	"__tm_mon\000"
 2850      5F6D6F6E 
 2850      00
 2851              	.LASF44:
 2852 0497 5F617465 		.ascii	"_atexit\000"
 2852      78697400 
 2853              	.LASF123:
 2854 049f 7375626F 		.ascii	"suboptarg\000"
 2854      70746172 
 2854      6700
 2855              	.LASF76:
 2856 04a9 5F5F7364 		.ascii	"__sdidinit\000"
 2856      6964696E 
 2856      697400
 2857              	.LASF13:
 2858 04b4 5F6F6666 		.ascii	"_off_t\000"
 2858      5F7400
 2859              	.LASF129:
 2860 04bb 72656164 		.ascii	"read\000"
 2860      00
 2861              	.LASF132:
 2862 04c0 666C6F61 		.ascii	"float\000"
 2862      7400
 2863              	.LASF81:
 2864 04c6 5F667265 		.ascii	"_freelist\000"
 2864      656C6973 
 2864      7400
 2865              	.LASF128:
 2866 04d0 6572726F 		.ascii	"error\000"
 2866      7200
 2867              	.LASF106:
 2868 04d6 5F776374 		.ascii	"_wctomb_state\000"
 2868      6F6D625F 
 2868      73746174 
 2868      6500
 2869              	.LASF126:
 2870 04e4 5F426F6F 		.ascii	"_Bool\000"
 2870      6C00
 2871              	.LASF6:
 2872 04ea 756E7369 		.ascii	"unsigned char\000"
 2872      676E6564 
 2872      20636861 
 2872      7200
 2873              	.LASF84:
 2874 04f8 5F6E6577 		.ascii	"_new\000"
 2874      00
 2875              	.LASF115:
 2876 04fd 5F685F65 		.ascii	"_h_errno\000"
 2876      72726E6F 
ARM GAS  C:\Users\PCHAUT~1\AppData\Local\Temp\ccPgTkyc.s 			page 55


 2876      00
 2877              	.LASF7:
 2878 0506 73686F72 		.ascii	"short int\000"
 2878      7420696E 
 2878      7400
 2879              	.LASF37:
 2880 0510 5F5F746D 		.ascii	"__tm_yday\000"
 2880      5F796461 
 2880      7900
 2881              	.LASF47:
 2882 051a 5F5F7362 		.ascii	"__sbuf\000"
 2882      756600
 2883              	.LASF92:
 2884 0521 5F696F62 		.ascii	"_iobs\000"
 2884      7300
 2885              	.LASF89:
 2886 0527 5F5F4649 		.ascii	"__FILE\000"
 2886      4C4500
 2887              	.LASF20:
 2888 052e 5F6D6273 		.ascii	"_mbstate_t\000"
 2888      74617465 
 2888      5F7400
 2889              	.LASF50:
 2890 0539 5F5F7346 		.ascii	"__sFILE\000"
 2890      494C4500 
 2891              	.LASF65:
 2892 0541 5F6D6273 		.ascii	"_mbstate\000"
 2892      74617465 
 2892      00
 2893              	.LASF102:
 2894 054a 5F72616E 		.ascii	"_rand_next\000"
 2894      645F6E65 
 2894      787400
 2895              	.LASF104:
 2896 0555 5F6D626C 		.ascii	"_mblen_state\000"
 2896      656E5F73 
 2896      74617465 
 2896      00
 2897              	.LASF72:
 2898 0562 5F696E63 		.ascii	"_inc\000"
 2898      00
 2899              	.LASF45:
 2900 0567 5F696E64 		.ascii	"_ind\000"
 2900      00
 2901              	.LASF149:
 2902 056c 433A5C55 		.ascii	"C:\\Users\\Pchautems\\Documents\\RobotiqueTP\\Proje"
 2902      73657273 
 2902      5C506368 
 2902      61757465 
 2902      6D735C44 
 2903 059a 745C6D69 		.ascii	"t\\miniprojet\000"
 2903      6E697072 
 2903      6F6A6574 
 2903      00
 2904              	.LASF75:
 2905 05a7 5F6C6F63 		.ascii	"_locale\000"
 2905      616C6500 
ARM GAS  C:\Users\PCHAUT~1\AppData\Local\Temp\ccPgTkyc.s 			page 56


 2906              	.LASF77:
 2907 05af 5F5F636C 		.ascii	"__cleanup\000"
 2907      65616E75 
 2907      7000
 2908              	.LASF74:
 2909 05b9 5F756E73 		.ascii	"_unspecified_locale_info\000"
 2909      70656369 
 2909      66696564 
 2909      5F6C6F63 
 2909      616C655F 
 2910              	.LASF25:
 2911 05d2 5F6D6178 		.ascii	"_maxwds\000"
 2911      77647300 
 2912              	.LASF67:
 2913 05da 5F726565 		.ascii	"_reent\000"
 2913      6E7400
 2914              	.LASF94:
 2915 05e1 5F736565 		.ascii	"_seed\000"
 2915      6400
 2916              	.LASF18:
 2917 05e7 5F5F636F 		.ascii	"__count\000"
 2917      756E7400 
 2918              	.LASF119:
 2919 05ef 5F5F6C6F 		.ascii	"__lock\000"
 2919      636B00
 2920              	.LASF19:
 2921 05f6 5F5F7661 		.ascii	"__value\000"
 2921      6C756500 
 2922              	.LASF57:
 2923 05fe 5F736565 		.ascii	"_seek\000"
 2923      6B00
 2924              	.LASF121:
 2925 0604 5F696D70 		.ascii	"_impure_ptr\000"
 2925      7572655F 
 2925      70747200 
 2926              	.LASF14:
 2927 0610 5F66706F 		.ascii	"_fpos_t\000"
 2927      735F7400 
 2928              	.LASF68:
 2929 0618 5F657272 		.ascii	"_errno\000"
 2929      6E6F00
 2930              	.LASF22:
 2931 061f 63686172 		.ascii	"char\000"
 2931      00
 2932              	.LASF31:
 2933 0624 5F5F746D 		.ascii	"__tm_min\000"
 2933      5F6D696E 
 2933      00
 2934              	.LASF141:
 2935 062d 636D705F 		.ascii	"cmp_mem_access_set_pos\000"
 2935      6D656D5F 
 2935      61636365 
 2935      73735F73 
 2935      65745F70 
 2936              	.LASF146:
 2937 0644 636D705F 		.ascii	"cmp_mem_writer\000"
 2937      6D656D5F 
ARM GAS  C:\Users\PCHAUT~1\AppData\Local\Temp\ccPgTkyc.s 			page 57


 2937      77726974 
 2937      657200
 2938              	.LASF135:
 2939 0653 696E6465 		.ascii	"index\000"
 2939      7800
 2940              	.LASF124:
 2941 0659 75696E74 		.ascii	"uint8_t\000"
 2941      385F7400 
 2942              	.LASF95:
 2943 0661 5F6D756C 		.ascii	"_mult\000"
 2943      7400
 2944              	.LASF24:
 2945 0667 5F6E6578 		.ascii	"_next\000"
 2945      7400
 2946              	.LASF98:
 2947 066d 5F737472 		.ascii	"_strtok_last\000"
 2947      746F6B5F 
 2947      6C617374 
 2947      00
 2948              	.LASF42:
 2949 067a 5F666E74 		.ascii	"_fntypes\000"
 2949      79706573 
 2949      00
 2950              	.LASF96:
 2951 0683 5F616464 		.ascii	"_add\000"
 2951      00
 2952              	.LASF23:
 2953 0688 5F5F554C 		.ascii	"__ULong\000"
 2953      6F6E6700 
 2954              	.LASF109:
 2955 0690 5F676574 		.ascii	"_getdate_err\000"
 2955      64617465 
 2955      5F657272 
 2955      00
 2956              	.LASF122:
 2957 069d 5F676C6F 		.ascii	"_global_impure_ptr\000"
 2957      62616C5F 
 2957      696D7075 
 2957      72655F70 
 2957      747200
 2958              	.LASF97:
 2959 06b0 5F756E75 		.ascii	"_unused_rand\000"
 2959      7365645F 
 2959      72616E64 
 2959      00
 2960              	.LASF142:
 2961 06bd 636D705F 		.ascii	"cmp_mem_access_ro_init\000"
 2961      6D656D5F 
 2961      61636365 
 2961      73735F72 
 2961      6F5F696E 
 2962              	.LASF27:
 2963 06d4 5F776473 		.ascii	"_wds\000"
 2963      00
 2964              	.LASF36:
 2965 06d9 5F5F746D 		.ascii	"__tm_wday\000"
 2965      5F776461 
ARM GAS  C:\Users\PCHAUT~1\AppData\Local\Temp\ccPgTkyc.s 			page 58


 2965      7900
 2966              	.LASF90:
 2967 06e3 5F676C75 		.ascii	"_glue\000"
 2967      6500
 2968              	.LASF117:
 2969 06e9 5F6E6D61 		.ascii	"_nmalloc\000"
 2969      6C6C6F63 
 2969      00
 2970              	.LASF107:
 2971 06f2 5F6C3634 		.ascii	"_l64a_buf\000"
 2971      615F6275 
 2971      6600
 2972              	.LASF86:
 2973 06fc 5F736967 		.ascii	"_sig_func\000"
 2973      5F66756E 
 2973      6300
 2974              	.LASF60:
 2975 0706 5F6E6275 		.ascii	"_nbuf\000"
 2975      6600
 2976              	.LASF118:
 2977 070c 5F756E75 		.ascii	"_unused\000"
 2977      73656400 
 2978              	.LASF38:
 2979 0714 5F5F746D 		.ascii	"__tm_isdst\000"
 2979      5F697364 
 2979      737400
 2980              	.LASF100:
 2981 071f 5F6C6F63 		.ascii	"_localtime_buf\000"
 2981      616C7469 
 2981      6D655F62 
 2981      756600
 2982              	.LASF58:
 2983 072e 5F636C6F 		.ascii	"_close\000"
 2983      736500
 2984              	.LASF103:
 2985 0735 5F723438 		.ascii	"_r48\000"
 2985      00
 2986              	.LASF138:
 2987 073a 636D705F 		.ascii	"cmp_mem_access_pos_is_valid\000"
 2987      6D656D5F 
 2987      61636365 
 2987      73735F70 
 2987      6F735F69 
 2988              	.LASF105:
 2989 0756 5F6D6274 		.ascii	"_mbtowc_state\000"
 2989      6F77635F 
 2989      73746174 
 2989      6500
 2990              	.LASF80:
 2991 0764 5F703573 		.ascii	"_p5s\000"
 2991      00
 2992              	.LASF33:
 2993 0769 5F5F746D 		.ascii	"__tm_mday\000"
 2993      5F6D6461 
 2993      7900
 2994              	.LASF143:
 2995 0773 636D705F 		.ascii	"cmp_mem_access_init\000"
ARM GAS  C:\Users\PCHAUT~1\AppData\Local\Temp\ccPgTkyc.s 			page 59


 2995      6D656D5F 
 2995      61636365 
 2995      73735F69 
 2995      6E697400 
 2996              		.ident	"GCC: (GNU Tools for Arm Embedded Processors 7-2017-q4-major) 7.2.1 20170904 (release) [ARM
ARM GAS  C:\Users\PCHAUT~1\AppData\Local\Temp\ccPgTkyc.s 			page 60


DEFINED SYMBOLS
                            *ABS*:00000000 cmp_mem_access.c
C:\Users\PCHAUT~1\AppData\Local\Temp\ccPgTkyc.s:18     .text.cmp_mem_reader:00000000 $t
C:\Users\PCHAUT~1\AppData\Local\Temp\ccPgTkyc.s:25     .text.cmp_mem_reader:00000000 cmp_mem_reader
C:\Users\PCHAUT~1\AppData\Local\Temp\ccPgTkyc.s:97     .text.cmp_mem_reader:00000064 $d
C:\Users\PCHAUT~1\AppData\Local\Temp\ccPgTkyc.s:102    .text.cmp_mem_writer:00000000 $t
C:\Users\PCHAUT~1\AppData\Local\Temp\ccPgTkyc.s:109    .text.cmp_mem_writer:00000000 cmp_mem_writer
C:\Users\PCHAUT~1\AppData\Local\Temp\ccPgTkyc.s:180    .text.cmp_mem_writer:00000064 $d
C:\Users\PCHAUT~1\AppData\Local\Temp\ccPgTkyc.s:185    .text.cmp_mem_writer_ro:00000000 $t
C:\Users\PCHAUT~1\AppData\Local\Temp\ccPgTkyc.s:192    .text.cmp_mem_writer_ro:00000000 cmp_mem_writer_ro
C:\Users\PCHAUT~1\AppData\Local\Temp\ccPgTkyc.s:228    .text.cmp_mem_writer_ro:00000028 $d
C:\Users\PCHAUT~1\AppData\Local\Temp\ccPgTkyc.s:233    .text.cmp_mem_access_init:00000000 $t
C:\Users\PCHAUT~1\AppData\Local\Temp\ccPgTkyc.s:241    .text.cmp_mem_access_init:00000000 cmp_mem_access_init
C:\Users\PCHAUT~1\AppData\Local\Temp\ccPgTkyc.s:294    .text.cmp_mem_access_init:00000048 $d
C:\Users\PCHAUT~1\AppData\Local\Temp\ccPgTkyc.s:301    .text.cmp_mem_access_ro_init:00000000 $t
C:\Users\PCHAUT~1\AppData\Local\Temp\ccPgTkyc.s:309    .text.cmp_mem_access_ro_init:00000000 cmp_mem_access_ro_init
C:\Users\PCHAUT~1\AppData\Local\Temp\ccPgTkyc.s:362    .text.cmp_mem_access_ro_init:00000048 $d
C:\Users\PCHAUT~1\AppData\Local\Temp\ccPgTkyc.s:369    .text.cmp_mem_access_get_pos:00000000 $t
C:\Users\PCHAUT~1\AppData\Local\Temp\ccPgTkyc.s:377    .text.cmp_mem_access_get_pos:00000000 cmp_mem_access_get_pos
C:\Users\PCHAUT~1\AppData\Local\Temp\ccPgTkyc.s:412    .text.cmp_mem_access_get_pos:00000028 $d
C:\Users\PCHAUT~1\AppData\Local\Temp\ccPgTkyc.s:417    .text.cmp_mem_access_set_pos:00000000 $t
C:\Users\PCHAUT~1\AppData\Local\Temp\ccPgTkyc.s:425    .text.cmp_mem_access_set_pos:00000000 cmp_mem_access_set_pos
C:\Users\PCHAUT~1\AppData\Local\Temp\ccPgTkyc.s:462    .text.cmp_mem_access_set_pos:0000002c $d
C:\Users\PCHAUT~1\AppData\Local\Temp\ccPgTkyc.s:467    .text.cmp_mem_access_get_ptr_at_pos:00000000 $t
C:\Users\PCHAUT~1\AppData\Local\Temp\ccPgTkyc.s:475    .text.cmp_mem_access_get_ptr_at_pos:00000000 cmp_mem_access_get_ptr_at_pos
C:\Users\PCHAUT~1\AppData\Local\Temp\ccPgTkyc.s:513    .text.cmp_mem_access_get_ptr_at_pos:0000002c $d
C:\Users\PCHAUT~1\AppData\Local\Temp\ccPgTkyc.s:518    .text.cmp_mem_access_pos_is_valid:00000000 $t
C:\Users\PCHAUT~1\AppData\Local\Temp\ccPgTkyc.s:526    .text.cmp_mem_access_pos_is_valid:00000000 cmp_mem_access_pos_is_valid
C:\Users\PCHAUT~1\AppData\Local\Temp\ccPgTkyc.s:572    .text.cmp_mem_access_pos_is_valid:00000034 $d

UNDEFINED SYMBOLS
memcpy
__stack_chk_fail
__stack_chk_guard
cmp_init
