ARM GAS  C:\Users\PCHAUT~1\AppData\Local\Temp\ccUlxcvb.s 			page 1


   1              		.cpu cortex-m4
   2              		.eabi_attribute 27, 1
   3              		.eabi_attribute 28, 1
   4              		.eabi_attribute 20, 1
   5              		.eabi_attribute 21, 1
   6              		.eabi_attribute 23, 3
   7              		.eabi_attribute 24, 1
   8              		.eabi_attribute 25, 1
   9              		.eabi_attribute 26, 1
  10              		.eabi_attribute 30, 6
  11              		.eabi_attribute 34, 1
  12              		.eabi_attribute 18, 4
  13              		.file	"communication.c"
  14              		.text
  15              	.Ltext0:
  16              		.cfi_sections	.debug_frame
  17              		.section	.text.chVTGetSystemTimeX,"ax",%progbits
  18              		.align	1
  19              		.p2align 4,,15
  20              		.syntax unified
  21              		.thumb
  22              		.thumb_func
  23              		.fpu fpv4-sp-d16
  24              		.type	chVTGetSystemTimeX, %function
  25              	chVTGetSystemTimeX:
  26              	.LFB153:
  27              		.file 1 "../lib/e-puck2_main-processor/ChibiOS//os/rt/include/chvt.h"
  28              		.loc 1 228 0
  29              		.cfi_startproc
  30              		@ args = 0, pretend = 0, frame = 8
  31              		@ frame_needed = 0, uses_anonymous_args = 0
  32 0000 00B5     		push	{lr}
  33              		.cfi_def_cfa_offset 4
  34              		.cfi_offset 14, -4
  35 0002 83B0     		sub	sp, sp, #12
  36              		.cfi_def_cfa_offset 16
  37              		.loc 1 228 0
  38 0004 074B     		ldr	r3, .L4
  39 0006 1B68     		ldr	r3, [r3]
  40 0008 0193     		str	r3, [sp, #4]
  41              		.loc 1 231 0
  42 000a 074B     		ldr	r3, .L4+4
  43 000c 9B6A     		ldr	r3, [r3, #40]
  44              		.loc 1 235 0
  45 000e 1846     		mov	r0, r3
  46 0010 044B     		ldr	r3, .L4
  47 0012 019A     		ldr	r2, [sp, #4]
  48 0014 1B68     		ldr	r3, [r3]
  49 0016 9A42     		cmp	r2, r3
  50 0018 01D0     		beq	.L3
  51 001a FFF7FEFF 		bl	__stack_chk_fail
  52              	.L3:
  53 001e 03B0     		add	sp, sp, #12
  54              		.cfi_def_cfa_offset 4
  55              		@ sp needed
  56 0020 5DF804FB 		ldr	pc, [sp], #4
  57              	.L5:
ARM GAS  C:\Users\PCHAUT~1\AppData\Local\Temp\ccUlxcvb.s 			page 2


  58              		.align	2
  59              	.L4:
  60 0024 00000000 		.word	__stack_chk_guard
  61 0028 00000000 		.word	ch
  62              		.cfi_endproc
  63              	.LFE153:
  64              		.size	chVTGetSystemTimeX, .-chVTGetSystemTimeX
  65              		.section	.text.chRegSetThreadName,"ax",%progbits
  66              		.align	1
  67              		.p2align 4,,15
  68              		.syntax unified
  69              		.thumb
  70              		.thumb_func
  71              		.fpu fpv4-sp-d16
  72              		.type	chRegSetThreadName, %function
  73              	chRegSetThreadName:
  74              	.LFB176:
  75              		.file 2 "../lib/e-puck2_main-processor/ChibiOS//os/rt/include/chregistry.h"
  76              		.loc 2 132 0
  77              		.cfi_startproc
  78              		@ args = 0, pretend = 0, frame = 16
  79              		@ frame_needed = 0, uses_anonymous_args = 0
  80 0000 00B5     		push	{lr}
  81              		.cfi_def_cfa_offset 4
  82              		.cfi_offset 14, -4
  83 0002 85B0     		sub	sp, sp, #20
  84              		.cfi_def_cfa_offset 24
  85 0004 0190     		str	r0, [sp, #4]
  86              		.loc 2 132 0
  87 0006 094B     		ldr	r3, .L8
  88 0008 1B68     		ldr	r3, [r3]
  89 000a 0393     		str	r3, [sp, #12]
  90              		.loc 2 135 0
  91 000c 084B     		ldr	r3, .L8+4
  92 000e 9B69     		ldr	r3, [r3, #24]
  93 0010 019A     		ldr	r2, [sp, #4]
  94 0012 9A61     		str	r2, [r3, #24]
  95              		.loc 2 139 0
  96 0014 00BF     		nop
  97 0016 054B     		ldr	r3, .L8
  98 0018 039A     		ldr	r2, [sp, #12]
  99 001a 1B68     		ldr	r3, [r3]
 100 001c 9A42     		cmp	r2, r3
 101 001e 01D0     		beq	.L7
 102 0020 FFF7FEFF 		bl	__stack_chk_fail
 103              	.L7:
 104 0024 05B0     		add	sp, sp, #20
 105              		.cfi_def_cfa_offset 4
 106              		@ sp needed
 107 0026 5DF804FB 		ldr	pc, [sp], #4
 108              	.L9:
 109 002a 00BF     		.align	2
 110              	.L8:
 111 002c 00000000 		.word	__stack_chk_guard
 112 0030 00000000 		.word	ch
 113              		.cfi_endproc
 114              	.LFE176:
ARM GAS  C:\Users\PCHAUT~1\AppData\Local\Temp\ccUlxcvb.s 			page 3


 115              		.size	chRegSetThreadName, .-chRegSetThreadName
 116              		.section	.bss.send_lock,"aw",%nobits
 117              		.align	2
 118              		.type	send_lock, %object
 119              		.size	send_lock, 20
 120              	send_lock:
 121 0000 00000000 		.space	20
 121      00000000 
 121      00000000 
 121      00000000 
 121      00000000 
 122              		.global	messagebus
 123              		.section	.bss.messagebus,"aw",%nobits
 124              		.align	2
 125              		.type	messagebus, %object
 126              		.size	messagebus, 12
 127              	messagebus:
 128 0000 00000000 		.space	12
 128      00000000 
 128      00000000 
 129              		.section	.text._stream_values_sndfn,"ax",%progbits
 130              		.align	1
 131              		.p2align 4,,15
 132              		.syntax unified
 133              		.thumb
 134              		.thumb_func
 135              		.fpu fpv4-sp-d16
 136              		.type	_stream_values_sndfn, %function
 137              	_stream_values_sndfn:
 138              	.LFB259:
 139              		.file 3 "../lib/e-puck2_main-processor/src/communication.c"
 140              		.loc 3 67 0
 141              		.cfi_startproc
 142              		@ args = 0, pretend = 0, frame = 24
 143              		@ frame_needed = 0, uses_anonymous_args = 0
 144 0000 00B5     		push	{lr}
 145              		.cfi_def_cfa_offset 4
 146              		.cfi_offset 14, -4
 147 0002 87B0     		sub	sp, sp, #28
 148              		.cfi_def_cfa_offset 32
 149 0004 0390     		str	r0, [sp, #12]
 150 0006 0291     		str	r1, [sp, #8]
 151 0008 0192     		str	r2, [sp, #4]
 152              		.loc 3 67 0
 153 000a 0C4B     		ldr	r3, .L14
 154 000c 1B68     		ldr	r3, [r3]
 155 000e 0593     		str	r3, [sp, #20]
 156              		.loc 3 68 0
 157 0010 019B     		ldr	r3, [sp, #4]
 158 0012 002B     		cmp	r3, #0
 159 0014 06D0     		beq	.L13
 160              		.loc 3 69 0
 161 0016 039B     		ldr	r3, [sp, #12]
 162 0018 1B68     		ldr	r3, [r3]
 163 001a 1B68     		ldr	r3, [r3]
 164 001c 019A     		ldr	r2, [sp, #4]
 165 001e 0299     		ldr	r1, [sp, #8]
ARM GAS  C:\Users\PCHAUT~1\AppData\Local\Temp\ccUlxcvb.s 			page 4


 166 0020 0398     		ldr	r0, [sp, #12]
 167 0022 9847     		blx	r3
 168              	.LVL0:
 169              	.L13:
 170              		.loc 3 71 0
 171 0024 00BF     		nop
 172 0026 054B     		ldr	r3, .L14
 173 0028 059A     		ldr	r2, [sp, #20]
 174 002a 1B68     		ldr	r3, [r3]
 175 002c 9A42     		cmp	r2, r3
 176 002e 01D0     		beq	.L12
 177 0030 FFF7FEFF 		bl	__stack_chk_fail
 178              	.L12:
 179 0034 07B0     		add	sp, sp, #28
 180              		.cfi_def_cfa_offset 4
 181              		@ sp needed
 182 0036 5DF804FB 		ldr	pc, [sp], #4
 183              	.L15:
 184 003a 00BF     		.align	2
 185              	.L14:
 186 003c 00000000 		.word	__stack_chk_guard
 187              		.cfi_endproc
 188              	.LFE259:
 189              		.size	_stream_values_sndfn, .-_stream_values_sndfn
 190              		.section	.rodata
 191              		.align	2
 192              	.LC0:
 193 0000 64697374 		.ascii	"dist\000"
 193      00
 194              		.section	.text.send_distance_sensor,"ax",%progbits
 195              		.align	1
 196              		.p2align 4,,15
 197              		.syntax unified
 198              		.thumb
 199              		.thumb_func
 200              		.fpu fpv4-sp-d16
 201              		.type	send_distance_sensor, %function
 202              	send_distance_sensor:
 203              	.LFB260:
 204              		.loc 3 77 0
 205              		.cfi_startproc
 206              		@ args = 0, pretend = 0, frame = 24
 207              		@ frame_needed = 0, uses_anonymous_args = 0
 208 0000 00B5     		push	{lr}
 209              		.cfi_def_cfa_offset 4
 210              		.cfi_offset 14, -4
 211 0002 87B0     		sub	sp, sp, #28
 212              		.cfi_def_cfa_offset 32
 213 0004 0190     		str	r0, [sp, #4]
 214              		.loc 3 77 0
 215 0006 344B     		ldr	r3, .L28
 216 0008 1B68     		ldr	r3, [r3]
 217 000a 0593     		str	r3, [sp, #20]
 218              		.loc 3 79 0
 219 000c 0023     		movs	r3, #0
 220 000e 8DF80F30 		strb	r3, [sp, #15]
 221              		.loc 3 81 0
ARM GAS  C:\Users\PCHAUT~1\AppData\Local\Temp\ccUlxcvb.s 			page 5


 222 0012 9DF80F30 		ldrb	r3, [sp, #15]	@ zero_extendqisi2
 223 0016 002B     		cmp	r3, #0
 224 0018 09D1     		bne	.L17
 225              		.loc 3 81 0 is_stmt 0 discriminator 2
 226 001a 0121     		movs	r1, #1
 227 001c 0198     		ldr	r0, [sp, #4]
 228 001e FFF7FEFF 		bl	cmp_write_map
 229 0022 0346     		mov	r3, r0
 230 0024 83F00103 		eor	r3, r3, #1
 231 0028 DBB2     		uxtb	r3, r3
 232 002a 002B     		cmp	r3, #0
 233 002c 01D0     		beq	.L18
 234              	.L17:
 235              		.loc 3 81 0 discriminator 3
 236 002e 0123     		movs	r3, #1
 237 0030 00E0     		b	.L19
 238              	.L18:
 239              		.loc 3 81 0 discriminator 4
 240 0032 0023     		movs	r3, #0
 241              	.L19:
 242              		.loc 3 81 0 discriminator 6
 243 0034 8DF80F30 		strb	r3, [sp, #15]
 244 0038 9DF80F30 		ldrb	r3, [sp, #15]
 245 003c 03F00103 		and	r3, r3, #1
 246 0040 8DF80F30 		strb	r3, [sp, #15]
 247              		.loc 3 82 0 is_stmt 1 discriminator 6
 248 0044 254B     		ldr	r3, .L28+4
 249 0046 0493     		str	r3, [sp, #16]
 250              		.loc 3 83 0 discriminator 6
 251 0048 9DF80F30 		ldrb	r3, [sp, #15]	@ zero_extendqisi2
 252 004c 002B     		cmp	r3, #0
 253 004e 0ED1     		bne	.L20
 254              		.loc 3 83 0 is_stmt 0 discriminator 2
 255 0050 0498     		ldr	r0, [sp, #16]
 256 0052 FFF7FEFF 		bl	strlen
 257 0056 0346     		mov	r3, r0
 258 0058 1A46     		mov	r2, r3
 259 005a 0499     		ldr	r1, [sp, #16]
 260 005c 0198     		ldr	r0, [sp, #4]
 261 005e FFF7FEFF 		bl	cmp_write_str
 262 0062 0346     		mov	r3, r0
 263 0064 83F00103 		eor	r3, r3, #1
 264 0068 DBB2     		uxtb	r3, r3
 265 006a 002B     		cmp	r3, #0
 266 006c 01D0     		beq	.L21
 267              	.L20:
 268              		.loc 3 83 0 discriminator 3
 269 006e 0123     		movs	r3, #1
 270 0070 00E0     		b	.L22
 271              	.L21:
 272              		.loc 3 83 0 discriminator 4
 273 0072 0023     		movs	r3, #0
 274              	.L22:
 275              		.loc 3 83 0 discriminator 6
 276 0074 8DF80F30 		strb	r3, [sp, #15]
 277 0078 9DF80F30 		ldrb	r3, [sp, #15]
 278 007c 03F00103 		and	r3, r3, #1
ARM GAS  C:\Users\PCHAUT~1\AppData\Local\Temp\ccUlxcvb.s 			page 6


 279 0080 8DF80F30 		strb	r3, [sp, #15]
 280              		.loc 3 84 0 is_stmt 1 discriminator 6
 281 0084 9DF80F30 		ldrb	r3, [sp, #15]	@ zero_extendqisi2
 282 0088 002B     		cmp	r3, #0
 283 008a 0CD1     		bne	.L23
 284              		.loc 3 84 0 is_stmt 0 discriminator 2
 285 008c FFF7FEFF 		bl	VL53L0X_get_dist_mm
 286 0090 0346     		mov	r3, r0
 287 0092 1946     		mov	r1, r3
 288 0094 0198     		ldr	r0, [sp, #4]
 289 0096 FFF7FEFF 		bl	cmp_write_u16
 290 009a 0346     		mov	r3, r0
 291 009c 83F00103 		eor	r3, r3, #1
 292 00a0 DBB2     		uxtb	r3, r3
 293 00a2 002B     		cmp	r3, #0
 294 00a4 01D0     		beq	.L24
 295              	.L23:
 296              		.loc 3 84 0 discriminator 3
 297 00a6 0123     		movs	r3, #1
 298 00a8 00E0     		b	.L25
 299              	.L24:
 300              		.loc 3 84 0 discriminator 4
 301 00aa 0023     		movs	r3, #0
 302              	.L25:
 303              		.loc 3 84 0 discriminator 6
 304 00ac 8DF80F30 		strb	r3, [sp, #15]
 305 00b0 9DF80F30 		ldrb	r3, [sp, #15]
 306 00b4 03F00103 		and	r3, r3, #1
 307 00b8 8DF80F30 		strb	r3, [sp, #15]
 308              		.loc 3 85 0 is_stmt 1 discriminator 6
 309 00bc 9DF80F30 		ldrb	r3, [sp, #15]	@ zero_extendqisi2
 310              		.loc 3 86 0 discriminator 6
 311 00c0 1846     		mov	r0, r3
 312 00c2 054B     		ldr	r3, .L28
 313 00c4 059A     		ldr	r2, [sp, #20]
 314 00c6 1B68     		ldr	r3, [r3]
 315 00c8 9A42     		cmp	r2, r3
 316 00ca 01D0     		beq	.L27
 317              		.loc 3 86 0 is_stmt 0
 318 00cc FFF7FEFF 		bl	__stack_chk_fail
 319              	.L27:
 320 00d0 07B0     		add	sp, sp, #28
 321              		.cfi_def_cfa_offset 4
 322              		@ sp needed
 323 00d2 5DF804FB 		ldr	pc, [sp], #4
 324              	.L29:
 325 00d6 00BF     		.align	2
 326              	.L28:
 327 00d8 00000000 		.word	__stack_chk_guard
 328 00dc 00000000 		.word	.LC0
 329              		.cfi_endproc
 330              	.LFE260:
 331              		.size	send_distance_sensor, .-send_distance_sensor
 332              		.section	.rodata
 333 0005 000000   		.align	2
 334              	.LC1:
 335 0008 62617474 		.ascii	"batt\000"
ARM GAS  C:\Users\PCHAUT~1\AppData\Local\Temp\ccUlxcvb.s 			page 7


 335      00
 336              		.section	.text.send_battery_voltage,"ax",%progbits
 337              		.align	1
 338              		.p2align 4,,15
 339              		.syntax unified
 340              		.thumb
 341              		.thumb_func
 342              		.fpu fpv4-sp-d16
 343              		.type	send_battery_voltage, %function
 344              	send_battery_voltage:
 345              	.LFB261:
 346              		.loc 3 92 0 is_stmt 1
 347              		.cfi_startproc
 348              		@ args = 0, pretend = 0, frame = 24
 349              		@ frame_needed = 0, uses_anonymous_args = 0
 350 0000 00B5     		push	{lr}
 351              		.cfi_def_cfa_offset 4
 352              		.cfi_offset 14, -4
 353 0002 87B0     		sub	sp, sp, #28
 354              		.cfi_def_cfa_offset 32
 355 0004 0190     		str	r0, [sp, #4]
 356              		.loc 3 92 0
 357 0006 354B     		ldr	r3, .L42
 358 0008 1B68     		ldr	r3, [r3]
 359 000a 0593     		str	r3, [sp, #20]
 360              		.loc 3 94 0
 361 000c 0023     		movs	r3, #0
 362 000e 8DF80F30 		strb	r3, [sp, #15]
 363              		.loc 3 96 0
 364 0012 9DF80F30 		ldrb	r3, [sp, #15]	@ zero_extendqisi2
 365 0016 002B     		cmp	r3, #0
 366 0018 09D1     		bne	.L31
 367              		.loc 3 96 0 is_stmt 0 discriminator 2
 368 001a 0121     		movs	r1, #1
 369 001c 0198     		ldr	r0, [sp, #4]
 370 001e FFF7FEFF 		bl	cmp_write_map
 371 0022 0346     		mov	r3, r0
 372 0024 83F00103 		eor	r3, r3, #1
 373 0028 DBB2     		uxtb	r3, r3
 374 002a 002B     		cmp	r3, #0
 375 002c 01D0     		beq	.L32
 376              	.L31:
 377              		.loc 3 96 0 discriminator 3
 378 002e 0123     		movs	r3, #1
 379 0030 00E0     		b	.L33
 380              	.L32:
 381              		.loc 3 96 0 discriminator 4
 382 0032 0023     		movs	r3, #0
 383              	.L33:
 384              		.loc 3 96 0 discriminator 6
 385 0034 8DF80F30 		strb	r3, [sp, #15]
 386 0038 9DF80F30 		ldrb	r3, [sp, #15]
 387 003c 03F00103 		and	r3, r3, #1
 388 0040 8DF80F30 		strb	r3, [sp, #15]
 389              		.loc 3 97 0 is_stmt 1 discriminator 6
 390 0044 264B     		ldr	r3, .L42+4
 391 0046 0493     		str	r3, [sp, #16]
ARM GAS  C:\Users\PCHAUT~1\AppData\Local\Temp\ccUlxcvb.s 			page 8


 392              		.loc 3 98 0 discriminator 6
 393 0048 9DF80F30 		ldrb	r3, [sp, #15]	@ zero_extendqisi2
 394 004c 002B     		cmp	r3, #0
 395 004e 0ED1     		bne	.L34
 396              		.loc 3 98 0 is_stmt 0 discriminator 2
 397 0050 0498     		ldr	r0, [sp, #16]
 398 0052 FFF7FEFF 		bl	strlen
 399 0056 0346     		mov	r3, r0
 400 0058 1A46     		mov	r2, r3
 401 005a 0499     		ldr	r1, [sp, #16]
 402 005c 0198     		ldr	r0, [sp, #4]
 403 005e FFF7FEFF 		bl	cmp_write_str
 404 0062 0346     		mov	r3, r0
 405 0064 83F00103 		eor	r3, r3, #1
 406 0068 DBB2     		uxtb	r3, r3
 407 006a 002B     		cmp	r3, #0
 408 006c 01D0     		beq	.L35
 409              	.L34:
 410              		.loc 3 98 0 discriminator 3
 411 006e 0123     		movs	r3, #1
 412 0070 00E0     		b	.L36
 413              	.L35:
 414              		.loc 3 98 0 discriminator 4
 415 0072 0023     		movs	r3, #0
 416              	.L36:
 417              		.loc 3 98 0 discriminator 6
 418 0074 8DF80F30 		strb	r3, [sp, #15]
 419 0078 9DF80F30 		ldrb	r3, [sp, #15]
 420 007c 03F00103 		and	r3, r3, #1
 421 0080 8DF80F30 		strb	r3, [sp, #15]
 422              		.loc 3 99 0 is_stmt 1 discriminator 6
 423 0084 9DF80F30 		ldrb	r3, [sp, #15]	@ zero_extendqisi2
 424 0088 002B     		cmp	r3, #0
 425 008a 0ED1     		bne	.L37
 426              		.loc 3 99 0 is_stmt 0 discriminator 2
 427 008c FFF7FEFF 		bl	get_battery_voltage
 428 0090 F0EE407A 		vmov.f32	s15, s0
 429 0094 B0EE670A 		vmov.f32	s0, s15
 430 0098 0198     		ldr	r0, [sp, #4]
 431 009a FFF7FEFF 		bl	cmp_write_float
 432 009e 0346     		mov	r3, r0
 433 00a0 83F00103 		eor	r3, r3, #1
 434 00a4 DBB2     		uxtb	r3, r3
 435 00a6 002B     		cmp	r3, #0
 436 00a8 01D0     		beq	.L38
 437              	.L37:
 438              		.loc 3 99 0 discriminator 3
 439 00aa 0123     		movs	r3, #1
 440 00ac 00E0     		b	.L39
 441              	.L38:
 442              		.loc 3 99 0 discriminator 4
 443 00ae 0023     		movs	r3, #0
 444              	.L39:
 445              		.loc 3 99 0 discriminator 6
 446 00b0 8DF80F30 		strb	r3, [sp, #15]
 447 00b4 9DF80F30 		ldrb	r3, [sp, #15]
 448 00b8 03F00103 		and	r3, r3, #1
ARM GAS  C:\Users\PCHAUT~1\AppData\Local\Temp\ccUlxcvb.s 			page 9


 449 00bc 8DF80F30 		strb	r3, [sp, #15]
 450              		.loc 3 100 0 is_stmt 1 discriminator 6
 451 00c0 9DF80F30 		ldrb	r3, [sp, #15]	@ zero_extendqisi2
 452              		.loc 3 101 0 discriminator 6
 453 00c4 1846     		mov	r0, r3
 454 00c6 054B     		ldr	r3, .L42
 455 00c8 059A     		ldr	r2, [sp, #20]
 456 00ca 1B68     		ldr	r3, [r3]
 457 00cc 9A42     		cmp	r2, r3
 458 00ce 01D0     		beq	.L41
 459              		.loc 3 101 0 is_stmt 0
 460 00d0 FFF7FEFF 		bl	__stack_chk_fail
 461              	.L41:
 462 00d4 07B0     		add	sp, sp, #28
 463              		.cfi_def_cfa_offset 4
 464              		@ sp needed
 465 00d6 5DF804FB 		ldr	pc, [sp], #4
 466              	.L43:
 467 00da 00BF     		.align	2
 468              	.L42:
 469 00dc 00000000 		.word	__stack_chk_guard
 470 00e0 08000000 		.word	.LC1
 471              		.cfi_endproc
 472              	.LFE261:
 473              		.size	send_battery_voltage, .-send_battery_voltage
 474              		.section	.rodata
 475 000d 000000   		.align	2
 476              	.LC2:
 477 0010 6779726F 		.ascii	"gyro\000"
 477      00
 478 0015 000000   		.align	2
 479              	.LC3:
 480 0018 61636300 		.ascii	"acc\000"
 481              		.align	2
 482              	.LC4:
 483 001c 74696D65 		.ascii	"time\000"
 483      00
 484              		.section	.text.send_imu,"ax",%progbits
 485              		.align	1
 486              		.p2align 4,,15
 487              		.syntax unified
 488              		.thumb
 489              		.thumb_func
 490              		.fpu fpv4-sp-d16
 491              		.type	send_imu, %function
 492              	send_imu:
 493              	.LFB262:
 494              		.loc 3 107 0 is_stmt 1
 495              		.cfi_startproc
 496              		@ args = 0, pretend = 0, frame = 32
 497              		@ frame_needed = 0, uses_anonymous_args = 0
 498 0000 00B5     		push	{lr}
 499              		.cfi_def_cfa_offset 4
 500              		.cfi_offset 14, -4
 501 0002 89B0     		sub	sp, sp, #36
 502              		.cfi_def_cfa_offset 40
 503 0004 0190     		str	r0, [sp, #4]
ARM GAS  C:\Users\PCHAUT~1\AppData\Local\Temp\ccUlxcvb.s 			page 10


 504 0006 0091     		str	r1, [sp]
 505              		.loc 3 107 0
 506 0008 C84B     		ldr	r3, .L86
 507 000a 1B68     		ldr	r3, [r3]
 508 000c 0793     		str	r3, [sp, #28]
 509              		.loc 3 109 0
 510 000e FFF7FEFF 		bl	chVTGetSystemTimeX
 511 0012 07EE900A 		vmov	s15, r0	@ int
 512 0016 B8EE677A 		vcvt.f32.u32	s14, s15
 513 001a DFEDC56A 		vldr.32	s13, .L86+4
 514 001e C7EE267A 		vdiv.f32	s15, s14, s13
 515 0022 CDED037A 		vstr.32	s15, [sp, #12]
 516              		.loc 3 113 0
 517 0026 0023     		movs	r3, #0
 518 0028 8DF80B30 		strb	r3, [sp, #11]
 519              		.loc 3 115 0
 520 002c 9DF80B30 		ldrb	r3, [sp, #11]	@ zero_extendqisi2
 521 0030 002B     		cmp	r3, #0
 522 0032 09D1     		bne	.L45
 523              		.loc 3 115 0 is_stmt 0 discriminator 2
 524 0034 0321     		movs	r1, #3
 525 0036 0198     		ldr	r0, [sp, #4]
 526 0038 FFF7FEFF 		bl	cmp_write_map
 527 003c 0346     		mov	r3, r0
 528 003e 83F00103 		eor	r3, r3, #1
 529 0042 DBB2     		uxtb	r3, r3
 530 0044 002B     		cmp	r3, #0
 531 0046 01D0     		beq	.L46
 532              	.L45:
 533              		.loc 3 115 0 discriminator 3
 534 0048 0123     		movs	r3, #1
 535 004a 00E0     		b	.L47
 536              	.L46:
 537              		.loc 3 115 0 discriminator 4
 538 004c 0023     		movs	r3, #0
 539              	.L47:
 540              		.loc 3 115 0 discriminator 6
 541 004e 8DF80B30 		strb	r3, [sp, #11]
 542 0052 9DF80B30 		ldrb	r3, [sp, #11]
 543 0056 03F00103 		and	r3, r3, #1
 544 005a 8DF80B30 		strb	r3, [sp, #11]
 545              		.loc 3 116 0 is_stmt 1 discriminator 6
 546 005e B54B     		ldr	r3, .L86+8
 547 0060 0493     		str	r3, [sp, #16]
 548              		.loc 3 117 0 discriminator 6
 549 0062 9DF80B30 		ldrb	r3, [sp, #11]	@ zero_extendqisi2
 550 0066 002B     		cmp	r3, #0
 551 0068 0ED1     		bne	.L48
 552              		.loc 3 117 0 is_stmt 0 discriminator 2
 553 006a 0498     		ldr	r0, [sp, #16]
 554 006c FFF7FEFF 		bl	strlen
 555 0070 0346     		mov	r3, r0
 556 0072 1A46     		mov	r2, r3
 557 0074 0499     		ldr	r1, [sp, #16]
 558 0076 0198     		ldr	r0, [sp, #4]
 559 0078 FFF7FEFF 		bl	cmp_write_str
 560 007c 0346     		mov	r3, r0
ARM GAS  C:\Users\PCHAUT~1\AppData\Local\Temp\ccUlxcvb.s 			page 11


 561 007e 83F00103 		eor	r3, r3, #1
 562 0082 DBB2     		uxtb	r3, r3
 563 0084 002B     		cmp	r3, #0
 564 0086 01D0     		beq	.L49
 565              	.L48:
 566              		.loc 3 117 0 discriminator 3
 567 0088 0123     		movs	r3, #1
 568 008a 00E0     		b	.L50
 569              	.L49:
 570              		.loc 3 117 0 discriminator 4
 571 008c 0023     		movs	r3, #0
 572              	.L50:
 573              		.loc 3 117 0 discriminator 6
 574 008e 8DF80B30 		strb	r3, [sp, #11]
 575 0092 9DF80B30 		ldrb	r3, [sp, #11]
 576 0096 03F00103 		and	r3, r3, #1
 577 009a 8DF80B30 		strb	r3, [sp, #11]
 578              		.loc 3 118 0 is_stmt 1 discriminator 6
 579 009e 9DF80B30 		ldrb	r3, [sp, #11]	@ zero_extendqisi2
 580 00a2 002B     		cmp	r3, #0
 581 00a4 09D1     		bne	.L51
 582              		.loc 3 118 0 is_stmt 0 discriminator 2
 583 00a6 0321     		movs	r1, #3
 584 00a8 0198     		ldr	r0, [sp, #4]
 585 00aa FFF7FEFF 		bl	cmp_write_array
 586 00ae 0346     		mov	r3, r0
 587 00b0 83F00103 		eor	r3, r3, #1
 588 00b4 DBB2     		uxtb	r3, r3
 589 00b6 002B     		cmp	r3, #0
 590 00b8 01D0     		beq	.L52
 591              	.L51:
 592              		.loc 3 118 0 discriminator 3
 593 00ba 0123     		movs	r3, #1
 594 00bc 00E0     		b	.L53
 595              	.L52:
 596              		.loc 3 118 0 discriminator 4
 597 00be 0023     		movs	r3, #0
 598              	.L53:
 599              		.loc 3 118 0 discriminator 6
 600 00c0 8DF80B30 		strb	r3, [sp, #11]
 601 00c4 9DF80B30 		ldrb	r3, [sp, #11]
 602 00c8 03F00103 		and	r3, r3, #1
 603 00cc 8DF80B30 		strb	r3, [sp, #11]
 604              		.loc 3 119 0 is_stmt 1 discriminator 6
 605 00d0 9DF80B30 		ldrb	r3, [sp, #11]	@ zero_extendqisi2
 606 00d4 002B     		cmp	r3, #0
 607 00d6 0DD1     		bne	.L54
 608              		.loc 3 119 0 is_stmt 0 discriminator 2
 609 00d8 009B     		ldr	r3, [sp]
 610 00da D3ED037A 		vldr.32	s15, [r3, #12]
 611 00de B0EE670A 		vmov.f32	s0, s15
 612 00e2 0198     		ldr	r0, [sp, #4]
 613 00e4 FFF7FEFF 		bl	cmp_write_float
 614 00e8 0346     		mov	r3, r0
 615 00ea 83F00103 		eor	r3, r3, #1
 616 00ee DBB2     		uxtb	r3, r3
 617 00f0 002B     		cmp	r3, #0
ARM GAS  C:\Users\PCHAUT~1\AppData\Local\Temp\ccUlxcvb.s 			page 12


 618 00f2 01D0     		beq	.L55
 619              	.L54:
 620              		.loc 3 119 0 discriminator 3
 621 00f4 0123     		movs	r3, #1
 622 00f6 00E0     		b	.L56
 623              	.L55:
 624              		.loc 3 119 0 discriminator 4
 625 00f8 0023     		movs	r3, #0
 626              	.L56:
 627              		.loc 3 119 0 discriminator 6
 628 00fa 8DF80B30 		strb	r3, [sp, #11]
 629 00fe 9DF80B30 		ldrb	r3, [sp, #11]
 630 0102 03F00103 		and	r3, r3, #1
 631 0106 8DF80B30 		strb	r3, [sp, #11]
 632              		.loc 3 120 0 is_stmt 1 discriminator 6
 633 010a 9DF80B30 		ldrb	r3, [sp, #11]	@ zero_extendqisi2
 634 010e 002B     		cmp	r3, #0
 635 0110 0DD1     		bne	.L57
 636              		.loc 3 120 0 is_stmt 0 discriminator 2
 637 0112 009B     		ldr	r3, [sp]
 638 0114 D3ED047A 		vldr.32	s15, [r3, #16]
 639 0118 B0EE670A 		vmov.f32	s0, s15
 640 011c 0198     		ldr	r0, [sp, #4]
 641 011e FFF7FEFF 		bl	cmp_write_float
 642 0122 0346     		mov	r3, r0
 643 0124 83F00103 		eor	r3, r3, #1
 644 0128 DBB2     		uxtb	r3, r3
 645 012a 002B     		cmp	r3, #0
 646 012c 01D0     		beq	.L58
 647              	.L57:
 648              		.loc 3 120 0 discriminator 3
 649 012e 0123     		movs	r3, #1
 650 0130 00E0     		b	.L59
 651              	.L58:
 652              		.loc 3 120 0 discriminator 4
 653 0132 0023     		movs	r3, #0
 654              	.L59:
 655              		.loc 3 120 0 discriminator 6
 656 0134 8DF80B30 		strb	r3, [sp, #11]
 657 0138 9DF80B30 		ldrb	r3, [sp, #11]
 658 013c 03F00103 		and	r3, r3, #1
 659 0140 8DF80B30 		strb	r3, [sp, #11]
 660              		.loc 3 121 0 is_stmt 1 discriminator 6
 661 0144 9DF80B30 		ldrb	r3, [sp, #11]	@ zero_extendqisi2
 662 0148 002B     		cmp	r3, #0
 663 014a 0DD1     		bne	.L60
 664              		.loc 3 121 0 is_stmt 0 discriminator 2
 665 014c 009B     		ldr	r3, [sp]
 666 014e D3ED057A 		vldr.32	s15, [r3, #20]
 667 0152 B0EE670A 		vmov.f32	s0, s15
 668 0156 0198     		ldr	r0, [sp, #4]
 669 0158 FFF7FEFF 		bl	cmp_write_float
 670 015c 0346     		mov	r3, r0
 671 015e 83F00103 		eor	r3, r3, #1
 672 0162 DBB2     		uxtb	r3, r3
 673 0164 002B     		cmp	r3, #0
 674 0166 01D0     		beq	.L61
ARM GAS  C:\Users\PCHAUT~1\AppData\Local\Temp\ccUlxcvb.s 			page 13


 675              	.L60:
 676              		.loc 3 121 0 discriminator 3
 677 0168 0123     		movs	r3, #1
 678 016a 00E0     		b	.L62
 679              	.L61:
 680              		.loc 3 121 0 discriminator 4
 681 016c 0023     		movs	r3, #0
 682              	.L62:
 683              		.loc 3 121 0 discriminator 6
 684 016e 8DF80B30 		strb	r3, [sp, #11]
 685 0172 9DF80B30 		ldrb	r3, [sp, #11]
 686 0176 03F00103 		and	r3, r3, #1
 687 017a 8DF80B30 		strb	r3, [sp, #11]
 688              		.loc 3 122 0 is_stmt 1 discriminator 6
 689 017e 6E4B     		ldr	r3, .L86+12
 690 0180 0593     		str	r3, [sp, #20]
 691              		.loc 3 123 0 discriminator 6
 692 0182 9DF80B30 		ldrb	r3, [sp, #11]	@ zero_extendqisi2
 693 0186 002B     		cmp	r3, #0
 694 0188 0ED1     		bne	.L63
 695              		.loc 3 123 0 is_stmt 0 discriminator 2
 696 018a 0598     		ldr	r0, [sp, #20]
 697 018c FFF7FEFF 		bl	strlen
 698 0190 0346     		mov	r3, r0
 699 0192 1A46     		mov	r2, r3
 700 0194 0599     		ldr	r1, [sp, #20]
 701 0196 0198     		ldr	r0, [sp, #4]
 702 0198 FFF7FEFF 		bl	cmp_write_str
 703 019c 0346     		mov	r3, r0
 704 019e 83F00103 		eor	r3, r3, #1
 705 01a2 DBB2     		uxtb	r3, r3
 706 01a4 002B     		cmp	r3, #0
 707 01a6 01D0     		beq	.L64
 708              	.L63:
 709              		.loc 3 123 0 discriminator 3
 710 01a8 0123     		movs	r3, #1
 711 01aa 00E0     		b	.L65
 712              	.L64:
 713              		.loc 3 123 0 discriminator 4
 714 01ac 0023     		movs	r3, #0
 715              	.L65:
 716              		.loc 3 123 0 discriminator 6
 717 01ae 8DF80B30 		strb	r3, [sp, #11]
 718 01b2 9DF80B30 		ldrb	r3, [sp, #11]
 719 01b6 03F00103 		and	r3, r3, #1
 720 01ba 8DF80B30 		strb	r3, [sp, #11]
 721              		.loc 3 124 0 is_stmt 1 discriminator 6
 722 01be 9DF80B30 		ldrb	r3, [sp, #11]	@ zero_extendqisi2
 723 01c2 002B     		cmp	r3, #0
 724 01c4 09D1     		bne	.L66
 725              		.loc 3 124 0 is_stmt 0 discriminator 2
 726 01c6 0321     		movs	r1, #3
 727 01c8 0198     		ldr	r0, [sp, #4]
 728 01ca FFF7FEFF 		bl	cmp_write_array
 729 01ce 0346     		mov	r3, r0
 730 01d0 83F00103 		eor	r3, r3, #1
 731 01d4 DBB2     		uxtb	r3, r3
ARM GAS  C:\Users\PCHAUT~1\AppData\Local\Temp\ccUlxcvb.s 			page 14


 732 01d6 002B     		cmp	r3, #0
 733 01d8 01D0     		beq	.L67
 734              	.L66:
 735              		.loc 3 124 0 discriminator 3
 736 01da 0123     		movs	r3, #1
 737 01dc 00E0     		b	.L68
 738              	.L67:
 739              		.loc 3 124 0 discriminator 4
 740 01de 0023     		movs	r3, #0
 741              	.L68:
 742              		.loc 3 124 0 discriminator 6
 743 01e0 8DF80B30 		strb	r3, [sp, #11]
 744 01e4 9DF80B30 		ldrb	r3, [sp, #11]
 745 01e8 03F00103 		and	r3, r3, #1
 746 01ec 8DF80B30 		strb	r3, [sp, #11]
 747              		.loc 3 125 0 is_stmt 1 discriminator 6
 748 01f0 9DF80B30 		ldrb	r3, [sp, #11]	@ zero_extendqisi2
 749 01f4 002B     		cmp	r3, #0
 750 01f6 0DD1     		bne	.L69
 751              		.loc 3 125 0 is_stmt 0 discriminator 2
 752 01f8 009B     		ldr	r3, [sp]
 753 01fa D3ED007A 		vldr.32	s15, [r3]
 754 01fe B0EE670A 		vmov.f32	s0, s15
 755 0202 0198     		ldr	r0, [sp, #4]
 756 0204 FFF7FEFF 		bl	cmp_write_float
 757 0208 0346     		mov	r3, r0
 758 020a 83F00103 		eor	r3, r3, #1
 759 020e DBB2     		uxtb	r3, r3
 760 0210 002B     		cmp	r3, #0
 761 0212 01D0     		beq	.L70
 762              	.L69:
 763              		.loc 3 125 0 discriminator 3
 764 0214 0123     		movs	r3, #1
 765 0216 00E0     		b	.L71
 766              	.L70:
 767              		.loc 3 125 0 discriminator 4
 768 0218 0023     		movs	r3, #0
 769              	.L71:
 770              		.loc 3 125 0 discriminator 6
 771 021a 8DF80B30 		strb	r3, [sp, #11]
 772 021e 9DF80B30 		ldrb	r3, [sp, #11]
 773 0222 03F00103 		and	r3, r3, #1
 774 0226 8DF80B30 		strb	r3, [sp, #11]
 775              		.loc 3 126 0 is_stmt 1 discriminator 6
 776 022a 9DF80B30 		ldrb	r3, [sp, #11]	@ zero_extendqisi2
 777 022e 002B     		cmp	r3, #0
 778 0230 0DD1     		bne	.L72
 779              		.loc 3 126 0 is_stmt 0 discriminator 2
 780 0232 009B     		ldr	r3, [sp]
 781 0234 D3ED017A 		vldr.32	s15, [r3, #4]
 782 0238 B0EE670A 		vmov.f32	s0, s15
 783 023c 0198     		ldr	r0, [sp, #4]
 784 023e FFF7FEFF 		bl	cmp_write_float
 785 0242 0346     		mov	r3, r0
 786 0244 83F00103 		eor	r3, r3, #1
 787 0248 DBB2     		uxtb	r3, r3
 788 024a 002B     		cmp	r3, #0
ARM GAS  C:\Users\PCHAUT~1\AppData\Local\Temp\ccUlxcvb.s 			page 15


 789 024c 01D0     		beq	.L73
 790              	.L72:
 791              		.loc 3 126 0 discriminator 3
 792 024e 0123     		movs	r3, #1
 793 0250 00E0     		b	.L74
 794              	.L73:
 795              		.loc 3 126 0 discriminator 4
 796 0252 0023     		movs	r3, #0
 797              	.L74:
 798              		.loc 3 126 0 discriminator 6
 799 0254 8DF80B30 		strb	r3, [sp, #11]
 800 0258 9DF80B30 		ldrb	r3, [sp, #11]
 801 025c 03F00103 		and	r3, r3, #1
 802 0260 8DF80B30 		strb	r3, [sp, #11]
 803              		.loc 3 127 0 is_stmt 1 discriminator 6
 804 0264 9DF80B30 		ldrb	r3, [sp, #11]	@ zero_extendqisi2
 805 0268 002B     		cmp	r3, #0
 806 026a 0DD1     		bne	.L75
 807              		.loc 3 127 0 is_stmt 0 discriminator 2
 808 026c 009B     		ldr	r3, [sp]
 809 026e D3ED027A 		vldr.32	s15, [r3, #8]
 810 0272 B0EE670A 		vmov.f32	s0, s15
 811 0276 0198     		ldr	r0, [sp, #4]
 812 0278 FFF7FEFF 		bl	cmp_write_float
 813 027c 0346     		mov	r3, r0
 814 027e 83F00103 		eor	r3, r3, #1
 815 0282 DBB2     		uxtb	r3, r3
 816 0284 002B     		cmp	r3, #0
 817 0286 01D0     		beq	.L76
 818              	.L75:
 819              		.loc 3 127 0 discriminator 3
 820 0288 0123     		movs	r3, #1
 821 028a 00E0     		b	.L77
 822              	.L76:
 823              		.loc 3 127 0 discriminator 4
 824 028c 0023     		movs	r3, #0
 825              	.L77:
 826              		.loc 3 127 0 discriminator 6
 827 028e 8DF80B30 		strb	r3, [sp, #11]
 828 0292 9DF80B30 		ldrb	r3, [sp, #11]
 829 0296 03F00103 		and	r3, r3, #1
 830 029a 8DF80B30 		strb	r3, [sp, #11]
 831              		.loc 3 128 0 is_stmt 1 discriminator 6
 832 029e 274B     		ldr	r3, .L86+16
 833 02a0 0693     		str	r3, [sp, #24]
 834              		.loc 3 129 0 discriminator 6
 835 02a2 9DF80B30 		ldrb	r3, [sp, #11]	@ zero_extendqisi2
 836 02a6 002B     		cmp	r3, #0
 837 02a8 0ED1     		bne	.L78
 838              		.loc 3 129 0 is_stmt 0 discriminator 2
 839 02aa 0698     		ldr	r0, [sp, #24]
 840 02ac FFF7FEFF 		bl	strlen
 841 02b0 0346     		mov	r3, r0
 842 02b2 1A46     		mov	r2, r3
 843 02b4 0699     		ldr	r1, [sp, #24]
 844 02b6 0198     		ldr	r0, [sp, #4]
 845 02b8 FFF7FEFF 		bl	cmp_write_str
ARM GAS  C:\Users\PCHAUT~1\AppData\Local\Temp\ccUlxcvb.s 			page 16


 846 02bc 0346     		mov	r3, r0
 847 02be 83F00103 		eor	r3, r3, #1
 848 02c2 DBB2     		uxtb	r3, r3
 849 02c4 002B     		cmp	r3, #0
 850 02c6 01D0     		beq	.L79
 851              	.L78:
 852              		.loc 3 129 0 discriminator 3
 853 02c8 0123     		movs	r3, #1
 854 02ca 00E0     		b	.L80
 855              	.L79:
 856              		.loc 3 129 0 discriminator 4
 857 02cc 0023     		movs	r3, #0
 858              	.L80:
 859              		.loc 3 129 0 discriminator 6
 860 02ce 8DF80B30 		strb	r3, [sp, #11]
 861 02d2 9DF80B30 		ldrb	r3, [sp, #11]
 862 02d6 03F00103 		and	r3, r3, #1
 863 02da 8DF80B30 		strb	r3, [sp, #11]
 864              		.loc 3 130 0 is_stmt 1 discriminator 6
 865 02de 9DF80B30 		ldrb	r3, [sp, #11]	@ zero_extendqisi2
 866 02e2 002B     		cmp	r3, #0
 867 02e4 0AD1     		bne	.L81
 868              		.loc 3 130 0 is_stmt 0 discriminator 2
 869 02e6 9DED030A 		vldr.32	s0, [sp, #12]
 870 02ea 0198     		ldr	r0, [sp, #4]
 871 02ec FFF7FEFF 		bl	cmp_write_float
 872 02f0 0346     		mov	r3, r0
 873 02f2 83F00103 		eor	r3, r3, #1
 874 02f6 DBB2     		uxtb	r3, r3
 875 02f8 002B     		cmp	r3, #0
 876 02fa 01D0     		beq	.L82
 877              	.L81:
 878              		.loc 3 130 0 discriminator 3
 879 02fc 0123     		movs	r3, #1
 880 02fe 00E0     		b	.L83
 881              	.L82:
 882              		.loc 3 130 0 discriminator 4
 883 0300 0023     		movs	r3, #0
 884              	.L83:
 885              		.loc 3 130 0 discriminator 6
 886 0302 8DF80B30 		strb	r3, [sp, #11]
 887 0306 9DF80B30 		ldrb	r3, [sp, #11]
 888 030a 03F00103 		and	r3, r3, #1
 889 030e 8DF80B30 		strb	r3, [sp, #11]
 890              		.loc 3 131 0 is_stmt 1 discriminator 6
 891 0312 9DF80B30 		ldrb	r3, [sp, #11]	@ zero_extendqisi2
 892              		.loc 3 132 0 discriminator 6
 893 0316 1846     		mov	r0, r3
 894 0318 044B     		ldr	r3, .L86
 895 031a 079A     		ldr	r2, [sp, #28]
 896 031c 1B68     		ldr	r3, [r3]
 897 031e 9A42     		cmp	r2, r3
 898 0320 01D0     		beq	.L85
 899              		.loc 3 132 0 is_stmt 0
 900 0322 FFF7FEFF 		bl	__stack_chk_fail
 901              	.L85:
 902 0326 09B0     		add	sp, sp, #36
ARM GAS  C:\Users\PCHAUT~1\AppData\Local\Temp\ccUlxcvb.s 			page 17


 903              		.cfi_def_cfa_offset 4
 904              		@ sp needed
 905 0328 5DF804FB 		ldr	pc, [sp], #4
 906              	.L87:
 907              		.align	2
 908              	.L86:
 909 032c 00000000 		.word	__stack_chk_guard
 910 0330 00007A44 		.word	1148846080
 911 0334 10000000 		.word	.LC2
 912 0338 18000000 		.word	.LC3
 913 033c 1C000000 		.word	.LC4
 914              		.cfi_endproc
 915              	.LFE262:
 916              		.size	send_imu, .-send_imu
 917              		.section	.bss.comm_tx_stream_wa,"aw",%nobits
 918              		.align	3
 919              		.type	comm_tx_stream_wa, %object
 920              		.size	comm_tx_stream_wa, 1400
 921              	comm_tx_stream_wa:
 922 0000 00000000 		.space	1400
 922      00000000 
 922      00000000 
 922      00000000 
 922      00000000 
 923              		.section	.rodata
 924 0021 000000   		.align	2
 925              	.LC5:
 926 0024 2F696D75 		.ascii	"/imu\000"
 926      00
 927              		.section	.text.comm_tx_stream,"ax",%progbits
 928              		.align	1
 929              		.p2align 4,,15
 930              		.syntax unified
 931              		.thumb
 932              		.thumb_func
 933              		.fpu fpv4-sp-d16
 934              		.type	comm_tx_stream, %function
 935              	comm_tx_stream:
 936              	.LFB263:
 937              		.loc 3 139 0 is_stmt 1
 938              		.cfi_startproc
 939              		@ args = 0, pretend = 0, frame = 104
 940              		@ frame_needed = 0, uses_anonymous_args = 0
 941 0000 00B5     		push	{lr}
 942              		.cfi_def_cfa_offset 4
 943              		.cfi_offset 14, -4
 944 0002 9BB0     		sub	sp, sp, #108
 945              		.cfi_def_cfa_offset 112
 946 0004 0190     		str	r0, [sp, #4]
 947              		.loc 3 139 0
 948 0006 344B     		ldr	r3, .L94
 949 0008 1B68     		ldr	r3, [r3]
 950 000a 1993     		str	r3, [sp, #100]
 951              		.loc 3 140 0
 952 000c 019B     		ldr	r3, [sp, #4]
 953 000e 0393     		str	r3, [sp, #12]
 954              		.loc 3 142 0
ARM GAS  C:\Users\PCHAUT~1\AppData\Local\Temp\ccUlxcvb.s 			page 18


 955 0010 3249     		ldr	r1, .L94+4
 956 0012 3348     		ldr	r0, .L94+8
 957 0014 FFF7FEFF 		bl	messagebus_find_topic_blocking
 958 0018 0490     		str	r0, [sp, #16]
 959              	.L92:
 960              		.loc 3 150 0
 961 001a 05AB     		add	r3, sp, #20
 962 001c 5022     		movs	r2, #80
 963 001e 1946     		mov	r1, r3
 964 0020 0498     		ldr	r0, [sp, #16]
 965 0022 FFF7FEFF 		bl	messagebus_topic_wait
 966              		.loc 3 152 0
 967 0026 6423     		movs	r3, #100
 968 0028 2E4A     		ldr	r2, .L94+12
 969 002a 2F49     		ldr	r1, .L94+16
 970 002c 2F48     		ldr	r0, .L94+20
 971 002e FFF7FEFF 		bl	cmp_mem_access_init
 972              		.loc 3 153 0
 973 0032 05AB     		add	r3, sp, #20
 974 0034 1946     		mov	r1, r3
 975 0036 2D48     		ldr	r0, .L94+20
 976 0038 FFF7FEFF 		bl	send_imu
 977 003c 0346     		mov	r3, r0
 978 003e 002B     		cmp	r3, #0
 979 0040 0ED1     		bne	.L89
 980              		.loc 3 154 0
 981 0042 2B48     		ldr	r0, .L94+24
 982 0044 FFF7FEFF 		bl	chMtxLock
 983              		.loc 3 155 0
 984 0048 2748     		ldr	r0, .L94+16
 985 004a FFF7FEFF 		bl	cmp_mem_access_get_pos
 986 004e 0146     		mov	r1, r0
 987 0050 039B     		ldr	r3, [sp, #12]
 988 0052 284A     		ldr	r2, .L94+28
 989 0054 2348     		ldr	r0, .L94+12
 990 0056 FFF7FEFF 		bl	serial_datagram_send
 991              		.loc 3 156 0
 992 005a 2548     		ldr	r0, .L94+24
 993 005c FFF7FEFF 		bl	chMtxUnlock
 994              	.L89:
 995              		.loc 3 158 0
 996 0060 6423     		movs	r3, #100
 997 0062 204A     		ldr	r2, .L94+12
 998 0064 2049     		ldr	r1, .L94+16
 999 0066 2148     		ldr	r0, .L94+20
 1000 0068 FFF7FEFF 		bl	cmp_mem_access_init
 1001              		.loc 3 159 0
 1002 006c 1F48     		ldr	r0, .L94+20
 1003 006e FFF7FEFF 		bl	send_battery_voltage
 1004 0072 0346     		mov	r3, r0
 1005 0074 002B     		cmp	r3, #0
 1006 0076 0ED1     		bne	.L90
 1007              		.loc 3 160 0
 1008 0078 1D48     		ldr	r0, .L94+24
 1009 007a FFF7FEFF 		bl	chMtxLock
 1010              		.loc 3 161 0
 1011 007e 1A48     		ldr	r0, .L94+16
ARM GAS  C:\Users\PCHAUT~1\AppData\Local\Temp\ccUlxcvb.s 			page 19


 1012 0080 FFF7FEFF 		bl	cmp_mem_access_get_pos
 1013 0084 0146     		mov	r1, r0
 1014 0086 039B     		ldr	r3, [sp, #12]
 1015 0088 1A4A     		ldr	r2, .L94+28
 1016 008a 1648     		ldr	r0, .L94+12
 1017 008c FFF7FEFF 		bl	serial_datagram_send
 1018              		.loc 3 162 0
 1019 0090 1748     		ldr	r0, .L94+24
 1020 0092 FFF7FEFF 		bl	chMtxUnlock
 1021              	.L90:
 1022              		.loc 3 164 0
 1023 0096 6423     		movs	r3, #100
 1024 0098 124A     		ldr	r2, .L94+12
 1025 009a 1349     		ldr	r1, .L94+16
 1026 009c 1348     		ldr	r0, .L94+20
 1027 009e FFF7FEFF 		bl	cmp_mem_access_init
 1028              		.loc 3 165 0
 1029 00a2 1248     		ldr	r0, .L94+20
 1030 00a4 FFF7FEFF 		bl	send_distance_sensor
 1031 00a8 0346     		mov	r3, r0
 1032 00aa 002B     		cmp	r3, #0
 1033 00ac 0ED1     		bne	.L91
 1034              		.loc 3 166 0
 1035 00ae 1048     		ldr	r0, .L94+24
 1036 00b0 FFF7FEFF 		bl	chMtxLock
 1037              		.loc 3 167 0
 1038 00b4 0C48     		ldr	r0, .L94+16
 1039 00b6 FFF7FEFF 		bl	cmp_mem_access_get_pos
 1040 00ba 0146     		mov	r1, r0
 1041 00bc 039B     		ldr	r3, [sp, #12]
 1042 00be 0D4A     		ldr	r2, .L94+28
 1043 00c0 0848     		ldr	r0, .L94+12
 1044 00c2 FFF7FEFF 		bl	serial_datagram_send
 1045              		.loc 3 168 0
 1046 00c6 0A48     		ldr	r0, .L94+24
 1047 00c8 FFF7FEFF 		bl	chMtxUnlock
 1048              	.L91:
 1049              		.loc 3 171 0
 1050 00cc 4FF4FA70 		mov	r0, #500
 1051 00d0 FFF7FEFF 		bl	chThdSleep
 1052              		.loc 3 150 0
 1053 00d4 A1E7     		b	.L92
 1054              	.L95:
 1055 00d6 00BF     		.align	2
 1056              	.L94:
 1057 00d8 00000000 		.word	__stack_chk_guard
 1058 00dc 24000000 		.word	.LC5
 1059 00e0 00000000 		.word	bus
 1060 00e4 00000000 		.word	dtgrm.13621
 1061 00e8 00000000 		.word	mem.13622
 1062 00ec 00000000 		.word	cmp.13623
 1063 00f0 00000000 		.word	send_lock
 1064 00f4 00000000 		.word	_stream_values_sndfn
 1065              		.cfi_endproc
 1066              	.LFE263:
 1067              		.size	comm_tx_stream, .-comm_tx_stream
 1068              		.section	.bss.reply_buf,"aw",%nobits
ARM GAS  C:\Users\PCHAUT~1\AppData\Local\Temp\ccUlxcvb.s 			page 20


 1069              		.align	2
 1070              		.type	reply_buf, %object
 1071              		.size	reply_buf, 100
 1072              	reply_buf:
 1073 0000 00000000 		.space	100
 1073      00000000 
 1073      00000000 
 1073      00000000 
 1073      00000000 
 1074              		.section	.bss.reply_mem,"aw",%nobits
 1075              		.align	2
 1076              		.type	reply_mem, %object
 1077              		.size	reply_mem, 12
 1078              	reply_mem:
 1079 0000 00000000 		.space	12
 1079      00000000 
 1079      00000000 
 1080              		.section	.bss.reply_cmp,"aw",%nobits
 1081              		.align	2
 1082              		.type	reply_cmp, %object
 1083              		.size	reply_cmp, 16
 1084              	reply_cmp:
 1085 0000 00000000 		.space	16
 1085      00000000 
 1085      00000000 
 1085      00000000 
 1086              		.section	.rodata
 1087 0029 000000   		.align	2
 1088              	.LC6:
 1089 002c 70696E67 		.ascii	"ping\000"
 1089      00
 1090              		.section	.text.ping_cb,"ax",%progbits
 1091              		.align	1
 1092              		.p2align 4,,15
 1093              		.global	ping_cb
 1094              		.syntax unified
 1095              		.thumb
 1096              		.thumb_func
 1097              		.fpu fpv4-sp-d16
 1098              		.type	ping_cb, %function
 1099              	ping_cb:
 1100              	.LFB264:
 1101              		.loc 3 183 0
 1102              		.cfi_startproc
 1103              		@ args = 0, pretend = 0, frame = 40
 1104              		@ frame_needed = 1, uses_anonymous_args = 0
 1105 0000 B0B5     		push	{r4, r5, r7, lr}
 1106              		.cfi_def_cfa_offset 16
 1107              		.cfi_offset 4, -16
 1108              		.cfi_offset 5, -12
 1109              		.cfi_offset 7, -8
 1110              		.cfi_offset 14, -4
 1111 0002 8AB0     		sub	sp, sp, #40
 1112              		.cfi_def_cfa_offset 56
 1113 0004 00AF     		add	r7, sp, #0
 1114              		.cfi_def_cfa_register 7
 1115 0006 7860     		str	r0, [r7, #4]
ARM GAS  C:\Users\PCHAUT~1\AppData\Local\Temp\ccUlxcvb.s 			page 21


 1116 0008 3960     		str	r1, [r7]
 1117              		.loc 3 183 0
 1118 000a 564B     		ldr	r3, .L109
 1119 000c 1B68     		ldr	r3, [r3]
 1120 000e 7B62     		str	r3, [r7, #36]
 1121 0010 6B46     		mov	r3, sp
 1122 0012 1D46     		mov	r5, r3
 1123              		.loc 3 185 0
 1124 0014 3B68     		ldr	r3, [r7]
 1125 0016 7B61     		str	r3, [r7, #20]
 1126              		.loc 3 187 0
 1127 0018 6423     		movs	r3, #100
 1128 001a 3B61     		str	r3, [r7, #16]
 1129              		.loc 3 188 0
 1130 001c 0023     		movs	r3, #0
 1131 001e FB73     		strb	r3, [r7, #15]
 1132              		.loc 3 189 0
 1133 0020 3869     		ldr	r0, [r7, #16]
 1134 0022 0346     		mov	r3, r0
 1135 0024 013B     		subs	r3, r3, #1
 1136 0026 BB61     		str	r3, [r7, #24]
 1137 0028 0146     		mov	r1, r0
 1138 002a 4FF00002 		mov	r2, #0
 1139 002e 4FF00003 		mov	r3, #0
 1140 0032 4FF00004 		mov	r4, #0
 1141 0036 D400     		lsls	r4, r2, #3
 1142 0038 44EA5174 		orr	r4, r4, r1, lsr #29
 1143 003c CB00     		lsls	r3, r1, #3
 1144 003e 0146     		mov	r1, r0
 1145 0040 4FF00002 		mov	r2, #0
 1146 0044 4FF00003 		mov	r3, #0
 1147 0048 4FF00004 		mov	r4, #0
 1148 004c D400     		lsls	r4, r2, #3
 1149 004e 44EA5174 		orr	r4, r4, r1, lsr #29
 1150 0052 CB00     		lsls	r3, r1, #3
 1151 0054 C31D     		adds	r3, r0, #7
 1152 0056 DB08     		lsrs	r3, r3, #3
 1153 0058 DB00     		lsls	r3, r3, #3
 1154 005a ADEB030D 		sub	sp, sp, r3
 1155 005e 6B46     		mov	r3, sp
 1156 0060 0033     		adds	r3, r3, #0
 1157 0062 FB61     		str	r3, [r7, #28]
 1158              		.loc 3 191 0
 1159 0064 FB69     		ldr	r3, [r7, #28]
 1160 0066 07F11002 		add	r2, r7, #16
 1161 006a 1946     		mov	r1, r3
 1162 006c 7868     		ldr	r0, [r7, #4]
 1163 006e FFF7FEFF 		bl	cmp_read_str
 1164 0072 0346     		mov	r3, r0
 1165 0074 002B     		cmp	r3, #0
 1166 0076 67D0     		beq	.L97
 1167              	.LBB2:
 1168              		.loc 3 192 0
 1169 0078 6423     		movs	r3, #100
 1170 007a 3B4A     		ldr	r2, .L109+4
 1171 007c 3B49     		ldr	r1, .L109+8
 1172 007e 3C48     		ldr	r0, .L109+12
ARM GAS  C:\Users\PCHAUT~1\AppData\Local\Temp\ccUlxcvb.s 			page 22


 1173 0080 FFF7FEFF 		bl	cmp_mem_access_init
 1174              		.loc 3 194 0
 1175 0084 3B4B     		ldr	r3, .L109+16
 1176 0086 3B62     		str	r3, [r7, #32]
 1177              		.loc 3 195 0
 1178 0088 FB7B     		ldrb	r3, [r7, #15]	@ zero_extendqisi2
 1179 008a 002B     		cmp	r3, #0
 1180 008c 09D1     		bne	.L98
 1181              		.loc 3 195 0 is_stmt 0 discriminator 2
 1182 008e 0121     		movs	r1, #1
 1183 0090 3748     		ldr	r0, .L109+12
 1184 0092 FFF7FEFF 		bl	cmp_write_map
 1185 0096 0346     		mov	r3, r0
 1186 0098 83F00103 		eor	r3, r3, #1
 1187 009c DBB2     		uxtb	r3, r3
 1188 009e 002B     		cmp	r3, #0
 1189 00a0 01D0     		beq	.L99
 1190              	.L98:
 1191              		.loc 3 195 0 discriminator 3
 1192 00a2 0123     		movs	r3, #1
 1193 00a4 00E0     		b	.L100
 1194              	.L99:
 1195              		.loc 3 195 0 discriminator 4
 1196 00a6 0023     		movs	r3, #0
 1197              	.L100:
 1198              		.loc 3 195 0 discriminator 6
 1199 00a8 FB73     		strb	r3, [r7, #15]
 1200 00aa FB7B     		ldrb	r3, [r7, #15]
 1201 00ac 03F00103 		and	r3, r3, #1
 1202 00b0 FB73     		strb	r3, [r7, #15]
 1203              		.loc 3 196 0 is_stmt 1 discriminator 6
 1204 00b2 FB7B     		ldrb	r3, [r7, #15]	@ zero_extendqisi2
 1205 00b4 002B     		cmp	r3, #0
 1206 00b6 0ED1     		bne	.L101
 1207              		.loc 3 196 0 is_stmt 0 discriminator 2
 1208 00b8 386A     		ldr	r0, [r7, #32]
 1209 00ba FFF7FEFF 		bl	strlen
 1210 00be 0346     		mov	r3, r0
 1211 00c0 1A46     		mov	r2, r3
 1212 00c2 396A     		ldr	r1, [r7, #32]
 1213 00c4 2A48     		ldr	r0, .L109+12
 1214 00c6 FFF7FEFF 		bl	cmp_write_str
 1215 00ca 0346     		mov	r3, r0
 1216 00cc 83F00103 		eor	r3, r3, #1
 1217 00d0 DBB2     		uxtb	r3, r3
 1218 00d2 002B     		cmp	r3, #0
 1219 00d4 01D0     		beq	.L102
 1220              	.L101:
 1221              		.loc 3 196 0 discriminator 3
 1222 00d6 0123     		movs	r3, #1
 1223 00d8 00E0     		b	.L103
 1224              	.L102:
 1225              		.loc 3 196 0 discriminator 4
 1226 00da 0023     		movs	r3, #0
 1227              	.L103:
 1228              		.loc 3 196 0 discriminator 6
 1229 00dc FB73     		strb	r3, [r7, #15]
ARM GAS  C:\Users\PCHAUT~1\AppData\Local\Temp\ccUlxcvb.s 			page 23


 1230 00de FB7B     		ldrb	r3, [r7, #15]
 1231 00e0 03F00103 		and	r3, r3, #1
 1232 00e4 FB73     		strb	r3, [r7, #15]
 1233              		.loc 3 197 0 is_stmt 1 discriminator 6
 1234 00e6 FB7B     		ldrb	r3, [r7, #15]	@ zero_extendqisi2
 1235 00e8 002B     		cmp	r3, #0
 1236 00ea 10D1     		bne	.L104
 1237              		.loc 3 197 0 is_stmt 0 discriminator 2
 1238 00ec FC69     		ldr	r4, [r7, #28]
 1239 00ee FB69     		ldr	r3, [r7, #28]
 1240 00f0 1846     		mov	r0, r3
 1241 00f2 FFF7FEFF 		bl	strlen
 1242 00f6 0346     		mov	r3, r0
 1243 00f8 1A46     		mov	r2, r3
 1244 00fa 2146     		mov	r1, r4
 1245 00fc 1C48     		ldr	r0, .L109+12
 1246 00fe FFF7FEFF 		bl	cmp_write_str
 1247 0102 0346     		mov	r3, r0
 1248 0104 83F00103 		eor	r3, r3, #1
 1249 0108 DBB2     		uxtb	r3, r3
 1250 010a 002B     		cmp	r3, #0
 1251 010c 01D0     		beq	.L105
 1252              	.L104:
 1253              		.loc 3 197 0 discriminator 3
 1254 010e 0123     		movs	r3, #1
 1255 0110 00E0     		b	.L106
 1256              	.L105:
 1257              		.loc 3 197 0 discriminator 4
 1258 0112 0023     		movs	r3, #0
 1259              	.L106:
 1260              		.loc 3 197 0 discriminator 6
 1261 0114 FB73     		strb	r3, [r7, #15]
 1262 0116 FB7B     		ldrb	r3, [r7, #15]
 1263 0118 03F00103 		and	r3, r3, #1
 1264 011c FB73     		strb	r3, [r7, #15]
 1265              		.loc 3 199 0 is_stmt 1 discriminator 6
 1266 011e FB7B     		ldrb	r3, [r7, #15]
 1267 0120 83F00103 		eor	r3, r3, #1
 1268 0124 DBB2     		uxtb	r3, r3
 1269 0126 002B     		cmp	r3, #0
 1270 0128 0ED0     		beq	.L97
 1271              		.loc 3 200 0
 1272 012a 1348     		ldr	r0, .L109+20
 1273 012c FFF7FEFF 		bl	chMtxLock
 1274              		.loc 3 201 0
 1275 0130 0E48     		ldr	r0, .L109+8
 1276 0132 FFF7FEFF 		bl	cmp_mem_access_get_pos
 1277 0136 0146     		mov	r1, r0
 1278 0138 7B69     		ldr	r3, [r7, #20]
 1279 013a 104A     		ldr	r2, .L109+24
 1280 013c 0A48     		ldr	r0, .L109+4
 1281 013e FFF7FEFF 		bl	serial_datagram_send
 1282              		.loc 3 202 0
 1283 0142 0D48     		ldr	r0, .L109+20
 1284 0144 FFF7FEFF 		bl	chMtxUnlock
 1285              	.L97:
 1286              	.LBE2:
ARM GAS  C:\Users\PCHAUT~1\AppData\Local\Temp\ccUlxcvb.s 			page 24


 1287              		.loc 3 207 0
 1288 0148 0023     		movs	r3, #0
 1289 014a AD46     		mov	sp, r5
 1290              		.loc 3 208 0
 1291 014c 1846     		mov	r0, r3
 1292 014e 054B     		ldr	r3, .L109
 1293 0150 7A6A     		ldr	r2, [r7, #36]
 1294 0152 1B68     		ldr	r3, [r3]
 1295 0154 9A42     		cmp	r2, r3
 1296 0156 01D0     		beq	.L108
 1297 0158 FFF7FEFF 		bl	__stack_chk_fail
 1298              	.L108:
 1299 015c 2837     		adds	r7, r7, #40
 1300              		.cfi_def_cfa_offset 16
 1301 015e BD46     		mov	sp, r7
 1302              		.cfi_def_cfa_register 13
 1303              		@ sp needed
 1304 0160 B0BD     		pop	{r4, r5, r7, pc}
 1305              	.L110:
 1306 0162 00BF     		.align	2
 1307              	.L109:
 1308 0164 00000000 		.word	__stack_chk_guard
 1309 0168 00000000 		.word	reply_buf
 1310 016c 00000000 		.word	reply_mem
 1311 0170 00000000 		.word	reply_cmp
 1312 0174 2C000000 		.word	.LC6
 1313 0178 00000000 		.word	send_lock
 1314 017c 00000000 		.word	_stream_values_sndfn
 1315              		.cfi_endproc
 1316              	.LFE264:
 1317              		.size	ping_cb, .-ping_cb
 1318              		.section	.text.set_led_cb,"ax",%progbits
 1319              		.align	1
 1320              		.p2align 4,,15
 1321              		.global	set_led_cb
 1322              		.syntax unified
 1323              		.thumb
 1324              		.thumb_func
 1325              		.fpu fpv4-sp-d16
 1326              		.type	set_led_cb, %function
 1327              	set_led_cb:
 1328              	.LFB265:
 1329              		.loc 3 214 0
 1330              		.cfi_startproc
 1331              		@ args = 0, pretend = 0, frame = 24
 1332              		@ frame_needed = 0, uses_anonymous_args = 0
 1333 0000 00B5     		push	{lr}
 1334              		.cfi_def_cfa_offset 4
 1335              		.cfi_offset 14, -4
 1336 0002 87B0     		sub	sp, sp, #28
 1337              		.cfi_def_cfa_offset 32
 1338 0004 0190     		str	r0, [sp, #4]
 1339 0006 0091     		str	r1, [sp]
 1340              		.loc 3 214 0
 1341 0008 194B     		ldr	r3, .L115
 1342 000a 1B68     		ldr	r3, [r3]
 1343 000c 0593     		str	r3, [sp, #20]
ARM GAS  C:\Users\PCHAUT~1\AppData\Local\Temp\ccUlxcvb.s 			page 25


 1344              		.loc 3 220 0
 1345 000e 04AB     		add	r3, sp, #16
 1346 0010 1946     		mov	r1, r3
 1347 0012 0198     		ldr	r0, [sp, #4]
 1348 0014 FFF7FEFF 		bl	cmp_read_array
 1349 0018 0346     		mov	r3, r0
 1350 001a 002B     		cmp	r3, #0
 1351 001c 1CD0     		beq	.L112
 1352              		.loc 3 220 0 is_stmt 0 discriminator 1
 1353 001e 049B     		ldr	r3, [sp, #16]
 1354 0020 022B     		cmp	r3, #2
 1355 0022 19D1     		bne	.L112
 1356              		.loc 3 220 0 discriminator 2
 1357 0024 0DF10E03 		add	r3, sp, #14
 1358 0028 1946     		mov	r1, r3
 1359 002a 0198     		ldr	r0, [sp, #4]
 1360 002c FFF7FEFF 		bl	cmp_read_uchar
 1361 0030 0346     		mov	r3, r0
 1362 0032 002B     		cmp	r3, #0
 1363 0034 10D0     		beq	.L112
 1364              		.loc 3 220 0 discriminator 3
 1365 0036 0DF10F03 		add	r3, sp, #15
 1366 003a 1946     		mov	r1, r3
 1367 003c 0198     		ldr	r0, [sp, #4]
 1368 003e FFF7FEFF 		bl	cmp_read_uchar
 1369 0042 0346     		mov	r3, r0
 1370 0044 002B     		cmp	r3, #0
 1371 0046 07D0     		beq	.L112
 1372              		.loc 3 221 0 is_stmt 1
 1373 0048 9DF80E30 		ldrb	r3, [sp, #14]	@ zero_extendqisi2
 1374 004c 9DF80F20 		ldrb	r2, [sp, #15]	@ zero_extendqisi2
 1375 0050 1146     		mov	r1, r2
 1376 0052 1846     		mov	r0, r3
 1377 0054 FFF7FEFF 		bl	set_led
 1378              	.L112:
 1379              		.loc 3 223 0
 1380 0058 0023     		movs	r3, #0
 1381              		.loc 3 224 0
 1382 005a 1846     		mov	r0, r3
 1383 005c 044B     		ldr	r3, .L115
 1384 005e 059A     		ldr	r2, [sp, #20]
 1385 0060 1B68     		ldr	r3, [r3]
 1386 0062 9A42     		cmp	r2, r3
 1387 0064 01D0     		beq	.L114
 1388 0066 FFF7FEFF 		bl	__stack_chk_fail
 1389              	.L114:
 1390 006a 07B0     		add	sp, sp, #28
 1391              		.cfi_def_cfa_offset 4
 1392              		@ sp needed
 1393 006c 5DF804FB 		ldr	pc, [sp], #4
 1394              	.L116:
 1395              		.align	2
 1396              	.L115:
 1397 0070 00000000 		.word	__stack_chk_guard
 1398              		.cfi_endproc
 1399              	.LFE265:
 1400              		.size	set_led_cb, .-set_led_cb
ARM GAS  C:\Users\PCHAUT~1\AppData\Local\Temp\ccUlxcvb.s 			page 26


 1401              		.section	.text.set_rgb_led_cb,"ax",%progbits
 1402              		.align	1
 1403              		.p2align 4,,15
 1404              		.global	set_rgb_led_cb
 1405              		.syntax unified
 1406              		.thumb
 1407              		.thumb_func
 1408              		.fpu fpv4-sp-d16
 1409              		.type	set_rgb_led_cb, %function
 1410              	set_rgb_led_cb:
 1411              	.LFB266:
 1412              		.loc 3 230 0
 1413              		.cfi_startproc
 1414              		@ args = 0, pretend = 0, frame = 24
 1415              		@ frame_needed = 0, uses_anonymous_args = 0
 1416 0000 00B5     		push	{lr}
 1417              		.cfi_def_cfa_offset 4
 1418              		.cfi_offset 14, -4
 1419 0002 87B0     		sub	sp, sp, #28
 1420              		.cfi_def_cfa_offset 32
 1421 0004 0190     		str	r0, [sp, #4]
 1422 0006 0091     		str	r1, [sp]
 1423              		.loc 3 230 0
 1424 0008 234B     		ldr	r3, .L121
 1425 000a 1B68     		ldr	r3, [r3]
 1426 000c 0593     		str	r3, [sp, #20]
 1427              		.loc 3 238 0
 1428 000e 04AB     		add	r3, sp, #16
 1429 0010 1946     		mov	r1, r3
 1430 0012 0198     		ldr	r0, [sp, #4]
 1431 0014 FFF7FEFF 		bl	cmp_read_array
 1432 0018 0346     		mov	r3, r0
 1433 001a 002B     		cmp	r3, #0
 1434 001c 2FD0     		beq	.L118
 1435              		.loc 3 238 0 is_stmt 0 discriminator 1
 1436 001e 049B     		ldr	r3, [sp, #16]
 1437 0020 042B     		cmp	r3, #4
 1438 0022 2CD1     		bne	.L118
 1439              		.loc 3 238 0 discriminator 2
 1440 0024 03AB     		add	r3, sp, #12
 1441 0026 1946     		mov	r1, r3
 1442 0028 0198     		ldr	r0, [sp, #4]
 1443 002a FFF7FEFF 		bl	cmp_read_uchar
 1444 002e 0346     		mov	r3, r0
 1445 0030 002B     		cmp	r3, #0
 1446 0032 24D0     		beq	.L118
 1447              		.loc 3 239 0 is_stmt 1
 1448 0034 0DF10D03 		add	r3, sp, #13
 1449 0038 1946     		mov	r1, r3
 1450 003a 0198     		ldr	r0, [sp, #4]
 1451 003c FFF7FEFF 		bl	cmp_read_uchar
 1452 0040 0346     		mov	r3, r0
 1453 0042 002B     		cmp	r3, #0
 1454 0044 1BD0     		beq	.L118
 1455              		.loc 3 239 0 is_stmt 0 discriminator 1
 1456 0046 0DF10E03 		add	r3, sp, #14
 1457 004a 1946     		mov	r1, r3
ARM GAS  C:\Users\PCHAUT~1\AppData\Local\Temp\ccUlxcvb.s 			page 27


 1458 004c 0198     		ldr	r0, [sp, #4]
 1459 004e FFF7FEFF 		bl	cmp_read_uchar
 1460 0052 0346     		mov	r3, r0
 1461 0054 002B     		cmp	r3, #0
 1462 0056 12D0     		beq	.L118
 1463              		.loc 3 239 0 discriminator 2
 1464 0058 0DF10F03 		add	r3, sp, #15
 1465 005c 1946     		mov	r1, r3
 1466 005e 0198     		ldr	r0, [sp, #4]
 1467 0060 FFF7FEFF 		bl	cmp_read_uchar
 1468 0064 0346     		mov	r3, r0
 1469 0066 002B     		cmp	r3, #0
 1470 0068 09D0     		beq	.L118
 1471              		.loc 3 241 0 is_stmt 1
 1472 006a 9DF80C00 		ldrb	r0, [sp, #12]	@ zero_extendqisi2
 1473 006e 9DF80D10 		ldrb	r1, [sp, #13]	@ zero_extendqisi2
 1474 0072 9DF80E20 		ldrb	r2, [sp, #14]	@ zero_extendqisi2
 1475 0076 9DF80F30 		ldrb	r3, [sp, #15]	@ zero_extendqisi2
 1476 007a FFF7FEFF 		bl	set_rgb_led
 1477              	.L118:
 1478              		.loc 3 243 0
 1479 007e 0023     		movs	r3, #0
 1480              		.loc 3 244 0
 1481 0080 1846     		mov	r0, r3
 1482 0082 054B     		ldr	r3, .L121
 1483 0084 059A     		ldr	r2, [sp, #20]
 1484 0086 1B68     		ldr	r3, [r3]
 1485 0088 9A42     		cmp	r2, r3
 1486 008a 01D0     		beq	.L120
 1487 008c FFF7FEFF 		bl	__stack_chk_fail
 1488              	.L120:
 1489 0090 07B0     		add	sp, sp, #28
 1490              		.cfi_def_cfa_offset 4
 1491              		@ sp needed
 1492 0092 5DF804FB 		ldr	pc, [sp], #4
 1493              	.L122:
 1494 0096 00BF     		.align	2
 1495              	.L121:
 1496 0098 00000000 		.word	__stack_chk_guard
 1497              		.cfi_endproc
 1498              	.LFE266:
 1499              		.size	set_rgb_led_cb, .-set_rgb_led_cb
 1500              		.section	.text.datagram_dispatcher_cb,"ax",%progbits
 1501              		.align	1
 1502              		.p2align 4,,15
 1503              		.global	datagram_dispatcher_cb
 1504              		.syntax unified
 1505              		.thumb
 1506              		.thumb_func
 1507              		.fpu fpv4-sp-d16
 1508              		.type	datagram_dispatcher_cb, %function
 1509              	datagram_dispatcher_cb:
 1510              	.LFB267:
 1511              		.loc 3 252 0
 1512              		.cfi_startproc
 1513              		@ args = 0, pretend = 0, frame = 72
 1514              		@ frame_needed = 0, uses_anonymous_args = 0
ARM GAS  C:\Users\PCHAUT~1\AppData\Local\Temp\ccUlxcvb.s 			page 28


 1515 0000 00B5     		push	{lr}
 1516              		.cfi_def_cfa_offset 4
 1517              		.cfi_offset 14, -4
 1518 0002 93B0     		sub	sp, sp, #76
 1519              		.cfi_def_cfa_offset 80
 1520 0004 0390     		str	r0, [sp, #12]
 1521 0006 0291     		str	r1, [sp, #8]
 1522 0008 0192     		str	r2, [sp, #4]
 1523              		.loc 3 252 0
 1524 000a 364B     		ldr	r3, .L140
 1525 000c 1B68     		ldr	r3, [r3]
 1526 000e 1193     		str	r3, [sp, #68]
 1527              		.loc 3 253 0
 1528 0010 019B     		ldr	r3, [sp, #4]
 1529 0012 0693     		str	r3, [sp, #24]
 1530              		.loc 3 256 0
 1531 0014 0AA9     		add	r1, sp, #40
 1532 0016 0DA8     		add	r0, sp, #52
 1533 0018 029B     		ldr	r3, [sp, #8]
 1534 001a 039A     		ldr	r2, [sp, #12]
 1535 001c FFF7FEFF 		bl	cmp_mem_access_ro_init
 1536              		.loc 3 258 0
 1537 0020 04AA     		add	r2, sp, #16
 1538 0022 0DAB     		add	r3, sp, #52
 1539 0024 1146     		mov	r1, r2
 1540 0026 1846     		mov	r0, r3
 1541 0028 FFF7FEFF 		bl	cmp_read_map
 1542 002c 0346     		mov	r3, r0
 1543 002e 83F00103 		eor	r3, r3, #1
 1544 0032 DBB2     		uxtb	r3, r3
 1545 0034 002B     		cmp	r3, #0
 1546 0036 48D1     		bne	.L137
 1547              		.loc 3 262 0
 1548 0038 0023     		movs	r3, #0
 1549 003a 0793     		str	r3, [sp, #28]
 1550 003c 40E0     		b	.L126
 1551              	.L134:
 1552              	.LBB3:
 1553              		.loc 3 264 0
 1554 003e 05AA     		add	r2, sp, #20
 1555 0040 0DAB     		add	r3, sp, #52
 1556 0042 1146     		mov	r1, r2
 1557 0044 1846     		mov	r0, r3
 1558 0046 FFF7FEFF 		bl	cmp_read_str_size
 1559 004a 0346     		mov	r3, r0
 1560 004c 83F00103 		eor	r3, r3, #1
 1561 0050 DBB2     		uxtb	r3, r3
 1562 0052 002B     		cmp	r3, #0
 1563 0054 3BD1     		bne	.L138
 1564              		.loc 3 267 0
 1565 0056 0AAB     		add	r3, sp, #40
 1566 0058 1846     		mov	r0, r3
 1567 005a FFF7FEFF 		bl	cmp_mem_access_get_pos
 1568 005e 0890     		str	r0, [sp, #32]
 1569              		.loc 3 268 0
 1570 0060 059A     		ldr	r2, [sp, #20]
 1571 0062 089B     		ldr	r3, [sp, #32]
ARM GAS  C:\Users\PCHAUT~1\AppData\Local\Temp\ccUlxcvb.s 			page 29


 1572 0064 1A44     		add	r2, r2, r3
 1573 0066 0AAB     		add	r3, sp, #40
 1574 0068 1146     		mov	r1, r2
 1575 006a 1846     		mov	r0, r3
 1576 006c FFF7FEFF 		bl	cmp_mem_access_set_pos
 1577              		.loc 3 269 0
 1578 0070 0AAB     		add	r3, sp, #40
 1579 0072 0899     		ldr	r1, [sp, #32]
 1580 0074 1846     		mov	r0, r3
 1581 0076 FFF7FEFF 		bl	cmp_mem_access_get_ptr_at_pos
 1582 007a 0990     		str	r0, [sp, #36]
 1583              		.loc 3 270 0
 1584 007c 17E0     		b	.L129
 1585              	.L133:
 1586              		.loc 3 271 0
 1587 007e 069B     		ldr	r3, [sp, #24]
 1588 0080 1B68     		ldr	r3, [r3]
 1589 0082 059A     		ldr	r2, [sp, #20]
 1590 0084 0999     		ldr	r1, [sp, #36]
 1591 0086 1846     		mov	r0, r3
 1592 0088 FFF7FEFF 		bl	strncmp
 1593 008c 0346     		mov	r3, r0
 1594 008e 002B     		cmp	r3, #0
 1595 0090 0AD1     		bne	.L130
 1596              		.loc 3 272 0
 1597 0092 069B     		ldr	r3, [sp, #24]
 1598 0094 5B68     		ldr	r3, [r3, #4]
 1599 0096 069A     		ldr	r2, [sp, #24]
 1600 0098 9168     		ldr	r1, [r2, #8]
 1601 009a 0DAA     		add	r2, sp, #52
 1602 009c 1046     		mov	r0, r2
 1603 009e 9847     		blx	r3
 1604              	.LVL1:
 1605 00a0 0346     		mov	r3, r0
 1606 00a2 002B     		cmp	r3, #0
 1607 00a4 08D0     		beq	.L139
 1608              		.loc 3 273 0
 1609 00a6 13E0     		b	.L123
 1610              	.L130:
 1611              		.loc 3 277 0
 1612 00a8 069B     		ldr	r3, [sp, #24]
 1613 00aa 0C33     		adds	r3, r3, #12
 1614 00ac 0693     		str	r3, [sp, #24]
 1615              	.L129:
 1616              		.loc 3 270 0
 1617 00ae 069B     		ldr	r3, [sp, #24]
 1618 00b0 1B68     		ldr	r3, [r3]
 1619 00b2 002B     		cmp	r3, #0
 1620 00b4 E3D1     		bne	.L133
 1621 00b6 00E0     		b	.L132
 1622              	.L139:
 1623              		.loc 3 275 0
 1624 00b8 00BF     		nop
 1625              	.L132:
 1626              	.LBE3:
 1627              		.loc 3 262 0 discriminator 1
 1628 00ba 079B     		ldr	r3, [sp, #28]
ARM GAS  C:\Users\PCHAUT~1\AppData\Local\Temp\ccUlxcvb.s 			page 30


 1629 00bc 0133     		adds	r3, r3, #1
 1630 00be 0793     		str	r3, [sp, #28]
 1631              	.L126:
 1632 00c0 049B     		ldr	r3, [sp, #16]
 1633 00c2 079A     		ldr	r2, [sp, #28]
 1634 00c4 9A42     		cmp	r2, r3
 1635 00c6 BAD3     		bcc	.L134
 1636 00c8 02E0     		b	.L123
 1637              	.L137:
 1638              		.loc 3 259 0
 1639 00ca 00BF     		nop
 1640 00cc 00E0     		b	.L123
 1641              	.L138:
 1642              	.LBB4:
 1643              		.loc 3 265 0
 1644 00ce 00BF     		nop
 1645              	.L123:
 1646              	.LBE4:
 1647              		.loc 3 280 0
 1648 00d0 044B     		ldr	r3, .L140
 1649 00d2 119A     		ldr	r2, [sp, #68]
 1650 00d4 1B68     		ldr	r3, [r3]
 1651 00d6 9A42     		cmp	r2, r3
 1652 00d8 01D0     		beq	.L136
 1653 00da FFF7FEFF 		bl	__stack_chk_fail
 1654              	.L136:
 1655 00de 13B0     		add	sp, sp, #76
 1656              		.cfi_def_cfa_offset 4
 1657              		@ sp needed
 1658 00e0 5DF804FB 		ldr	pc, [sp], #4
 1659              	.L141:
 1660              		.align	2
 1661              	.L140:
 1662 00e4 00000000 		.word	__stack_chk_guard
 1663              		.cfi_endproc
 1664              	.LFE267:
 1665              		.size	datagram_dispatcher_cb, .-datagram_dispatcher_cb
 1666              		.section	.bss.comm_rx_wa,"aw",%nobits
 1667              		.align	3
 1668              		.type	comm_rx_wa, %object
 1669              		.size	comm_rx_wa, 1400
 1670              	comm_rx_wa:
 1671 0000 00000000 		.space	1400
 1671      00000000 
 1671      00000000 
 1671      00000000 
 1671      00000000 
 1672              		.section	.rodata
 1673 0031 000000   		.align	2
 1674              	.LC7:
 1675 0034 7365745F 		.ascii	"set_led\000"
 1675      6C656400 
 1676              		.align	2
 1677              	.LC8:
 1678 003c 7365745F 		.ascii	"set_rgb_led\000"
 1678      7267625F 
 1678      6C656400 
ARM GAS  C:\Users\PCHAUT~1\AppData\Local\Temp\ccUlxcvb.s 			page 31


 1679              		.align	2
 1680              	.LC9:
 1681 0048 636F6D6D 		.ascii	"comm rx\000"
 1681      20727800 
 1682              		.section	.text.comm_rx,"ax",%progbits
 1683              		.align	1
 1684              		.p2align 4,,15
 1685              		.syntax unified
 1686              		.thumb
 1687              		.thumb_func
 1688              		.fpu fpv4-sp-d16
 1689              		.type	comm_rx, %function
 1690              	comm_rx:
 1691              	.LFB268:
 1692              		.loc 3 287 0
 1693              		.cfi_startproc
 1694              		@ args = 0, pretend = 0, frame = 72
 1695              		@ frame_needed = 0, uses_anonymous_args = 0
 1696 0000 00B5     		push	{lr}
 1697              		.cfi_def_cfa_offset 4
 1698              		.cfi_offset 14, -4
 1699 0002 95B0     		sub	sp, sp, #84
 1700              		.cfi_def_cfa_offset 88
 1701 0004 0390     		str	r0, [sp, #12]
 1702              		.loc 3 287 0
 1703 0006 1D4B     		ldr	r3, .L145
 1704 0008 1B68     		ldr	r3, [r3]
 1705 000a 1393     		str	r3, [sp, #76]
 1706              		.loc 3 291 0
 1707 000c 1C4B     		ldr	r3, .L145+4
 1708 000e 0793     		str	r3, [sp, #28]
 1709 0010 1C4B     		ldr	r3, .L145+8
 1710 0012 0893     		str	r3, [sp, #32]
 1711 0014 039B     		ldr	r3, [sp, #12]
 1712 0016 0993     		str	r3, [sp, #36]
 1713 0018 1B4B     		ldr	r3, .L145+12
 1714 001a 0A93     		str	r3, [sp, #40]
 1715 001c 1B4B     		ldr	r3, .L145+16
 1716 001e 0B93     		str	r3, [sp, #44]
 1717 0020 039B     		ldr	r3, [sp, #12]
 1718 0022 0C93     		str	r3, [sp, #48]
 1719 0024 1A4B     		ldr	r3, .L145+20
 1720 0026 0D93     		str	r3, [sp, #52]
 1721 0028 1A4B     		ldr	r3, .L145+24
 1722 002a 0E93     		str	r3, [sp, #56]
 1723 002c 039B     		ldr	r3, [sp, #12]
 1724 002e 0F93     		str	r3, [sp, #60]
 1725 0030 0023     		movs	r3, #0
 1726 0032 1093     		str	r3, [sp, #64]
 1727 0034 0023     		movs	r3, #0
 1728 0036 1193     		str	r3, [sp, #68]
 1729 0038 0023     		movs	r3, #0
 1730 003a 1293     		str	r3, [sp, #72]
 1731              		.loc 3 300 0
 1732 003c 1648     		ldr	r0, .L145+28
 1733 003e FFF7FEFF 		bl	chRegSetThreadName
 1734              		.loc 3 302 0
ARM GAS  C:\Users\PCHAUT~1\AppData\Local\Temp\ccUlxcvb.s 			page 32


 1735 0042 039B     		ldr	r3, [sp, #12]
 1736 0044 0693     		str	r3, [sp, #24]
 1737              		.loc 3 303 0
 1738 0046 07AB     		add	r3, sp, #28
 1739 0048 0093     		str	r3, [sp]
 1740 004a 144B     		ldr	r3, .L145+32
 1741 004c 4FF4FA62 		mov	r2, #2000
 1742 0050 1349     		ldr	r1, .L145+36
 1743 0052 1448     		ldr	r0, .L145+40
 1744 0054 FFF7FEFF 		bl	serial_datagram_rcv_handler_init
 1745              	.L143:
 1746              	.LBB5:
 1747              		.loc 3 309 0 discriminator 1
 1748 0058 069B     		ldr	r3, [sp, #24]
 1749 005a 1B68     		ldr	r3, [r3]
 1750 005c DB68     		ldr	r3, [r3, #12]
 1751 005e 0698     		ldr	r0, [sp, #24]
 1752 0060 9847     		blx	r3
 1753              	.LVL2:
 1754 0062 0346     		mov	r3, r0
 1755 0064 DBB2     		uxtb	r3, r3
 1756 0066 8DF81730 		strb	r3, [sp, #23]
 1757              		.loc 3 310 0 discriminator 1
 1758 006a 0DF11703 		add	r3, sp, #23
 1759 006e 0122     		movs	r2, #1
 1760 0070 1946     		mov	r1, r3
 1761 0072 0C48     		ldr	r0, .L145+40
 1762 0074 FFF7FEFF 		bl	serial_datagram_receive
 1763              	.LBE5:
 1764              		.loc 3 308 0 discriminator 1
 1765 0078 EEE7     		b	.L143
 1766              	.L146:
 1767 007a 00BF     		.align	2
 1768              	.L145:
 1769 007c 00000000 		.word	__stack_chk_guard
 1770 0080 2C000000 		.word	.LC6
 1771 0084 00000000 		.word	ping_cb
 1772 0088 34000000 		.word	.LC7
 1773 008c 00000000 		.word	set_led_cb
 1774 0090 3C000000 		.word	.LC8
 1775 0094 00000000 		.word	set_rgb_led_cb
 1776 0098 48000000 		.word	.LC9
 1777 009c 00000000 		.word	datagram_dispatcher_cb
 1778 00a0 00000000 		.word	rcv_buffer.13678
 1779 00a4 00000000 		.word	rcv_handler.13677
 1780              		.cfi_endproc
 1781              	.LFE268:
 1782              		.size	comm_rx, .-comm_rx
 1783              		.section	.text.communication_start,"ax",%progbits
 1784              		.align	1
 1785              		.p2align 4,,15
 1786              		.global	communication_start
 1787              		.syntax unified
 1788              		.thumb
 1789              		.thumb_func
 1790              		.fpu fpv4-sp-d16
 1791              		.type	communication_start, %function
ARM GAS  C:\Users\PCHAUT~1\AppData\Local\Temp\ccUlxcvb.s 			page 33


 1792              	communication_start:
 1793              	.LFB269:
 1794              		.loc 3 316 0
 1795              		.cfi_startproc
 1796              		@ args = 0, pretend = 0, frame = 16
 1797              		@ frame_needed = 0, uses_anonymous_args = 0
 1798 0000 00B5     		push	{lr}
 1799              		.cfi_def_cfa_offset 4
 1800              		.cfi_offset 14, -4
 1801 0002 87B0     		sub	sp, sp, #28
 1802              		.cfi_def_cfa_offset 32
 1803 0004 0390     		str	r0, [sp, #12]
 1804              		.loc 3 316 0
 1805 0006 114B     		ldr	r3, .L149
 1806 0008 1B68     		ldr	r3, [r3]
 1807 000a 0593     		str	r3, [sp, #20]
 1808              		.loc 3 317 0
 1809 000c 1048     		ldr	r0, .L149+4
 1810 000e FFF7FEFF 		bl	chMtxObjectInit
 1811              		.loc 3 318 0
 1812 0012 039B     		ldr	r3, [sp, #12]
 1813 0014 0093     		str	r3, [sp]
 1814 0016 0F4B     		ldr	r3, .L149+8
 1815 0018 0222     		movs	r2, #2
 1816 001a 4FF4AF61 		mov	r1, #1400
 1817 001e 0E48     		ldr	r0, .L149+12
 1818 0020 FFF7FEFF 		bl	chThdCreateStatic
 1819              		.loc 3 319 0
 1820 0024 039B     		ldr	r3, [sp, #12]
 1821 0026 0093     		str	r3, [sp]
 1822 0028 0C4B     		ldr	r3, .L149+16
 1823 002a 0222     		movs	r2, #2
 1824 002c 4FF4AF61 		mov	r1, #1400
 1825 0030 0B48     		ldr	r0, .L149+20
 1826 0032 FFF7FEFF 		bl	chThdCreateStatic
 1827              		.loc 3 320 0
 1828 0036 00BF     		nop
 1829 0038 044B     		ldr	r3, .L149
 1830 003a 059A     		ldr	r2, [sp, #20]
 1831 003c 1B68     		ldr	r3, [r3]
 1832 003e 9A42     		cmp	r2, r3
 1833 0040 01D0     		beq	.L148
 1834 0042 FFF7FEFF 		bl	__stack_chk_fail
 1835              	.L148:
 1836 0046 07B0     		add	sp, sp, #28
 1837              		.cfi_def_cfa_offset 4
 1838              		@ sp needed
 1839 0048 5DF804FB 		ldr	pc, [sp], #4
 1840              	.L150:
 1841              		.align	2
 1842              	.L149:
 1843 004c 00000000 		.word	__stack_chk_guard
 1844 0050 00000000 		.word	send_lock
 1845 0054 00000000 		.word	comm_tx_stream
 1846 0058 00000000 		.word	comm_tx_stream_wa
 1847 005c 00000000 		.word	comm_rx
 1848 0060 00000000 		.word	comm_rx_wa
ARM GAS  C:\Users\PCHAUT~1\AppData\Local\Temp\ccUlxcvb.s 			page 34


 1849              		.cfi_endproc
 1850              	.LFE269:
 1851              		.size	communication_start, .-communication_start
 1852              		.section	.bss.cmp.13623,"aw",%nobits
 1853              		.align	2
 1854              		.type	cmp.13623, %object
 1855              		.size	cmp.13623, 16
 1856              	cmp.13623:
 1857 0000 00000000 		.space	16
 1857      00000000 
 1857      00000000 
 1857      00000000 
 1858              		.section	.bss.mem.13622,"aw",%nobits
 1859              		.align	2
 1860              		.type	mem.13622, %object
 1861              		.size	mem.13622, 12
 1862              	mem.13622:
 1863 0000 00000000 		.space	12
 1863      00000000 
 1863      00000000 
 1864              		.section	.bss.dtgrm.13621,"aw",%nobits
 1865              		.align	2
 1866              		.type	dtgrm.13621, %object
 1867              		.size	dtgrm.13621, 100
 1868              	dtgrm.13621:
 1869 0000 00000000 		.space	100
 1869      00000000 
 1869      00000000 
 1869      00000000 
 1869      00000000 
 1870              		.section	.bss.rcv_handler.13677,"aw",%nobits
 1871              		.align	2
 1872              		.type	rcv_handler.13677, %object
 1873              		.size	rcv_handler.13677, 24
 1874              	rcv_handler.13677:
 1875 0000 00000000 		.space	24
 1875      00000000 
 1875      00000000 
 1875      00000000 
 1875      00000000 
 1876              		.section	.bss.rcv_buffer.13678,"aw",%nobits
 1877              		.align	2
 1878              		.type	rcv_buffer.13678, %object
 1879              		.size	rcv_buffer.13678, 2000
 1880              	rcv_buffer.13678:
 1881 0000 00000000 		.space	2000
 1881      00000000 
 1881      00000000 
 1881      00000000 
 1881      00000000 
 1882              		.text
 1883              	.Letext0:
 1884              		.file 4 "c:\\users\\pchautems\\documents\\robotiquetp\\eclipse_e-puck2\\tools\\gcc-arm-none-eabi-7
 1885              		.file 5 "c:\\users\\pchautems\\documents\\robotiquetp\\eclipse_e-puck2\\tools\\gcc-arm-none-eabi-7
 1886              		.file 6 "c:\\users\\pchautems\\documents\\robotiquetp\\eclipse_e-puck2\\tools\\gcc-arm-none-eabi-7
 1887              		.file 7 "../lib/e-puck2_main-processor/ChibiOS//os/rt/ports/ARMCMx/compilers/GCC/chtypes.h"
 1888              		.file 8 "../lib/e-puck2_main-processor/ChibiOS//os/rt/include/chsystypes.h"
ARM GAS  C:\Users\PCHAUT~1\AppData\Local\Temp\ccUlxcvb.s 			page 35


 1889              		.file 9 "../lib/e-puck2_main-processor/ChibiOS//os/rt/include/chschd.h"
 1890              		.file 10 "../lib/e-puck2_main-processor/ChibiOS//os/ext/CMSIS/include/core_cm4.h"
 1891              		.file 11 "../lib/e-puck2_main-processor/ChibiOS//os/ext/CMSIS/ST/system_stm32f4xx.h"
 1892              		.file 12 "../lib/e-puck2_main-processor/ChibiOS//os/ext/CMSIS/ST/stm32f407xx.h"
 1893              		.file 13 "../lib/e-puck2_main-processor/ChibiOS//os/rt/ports/ARMCMx/chcore.h"
 1894              		.file 14 "../lib/e-puck2_main-processor/ChibiOS//os/rt/ports/ARMCMx/chcore_v7m.h"
 1895              		.file 15 "../lib/e-puck2_main-processor/ChibiOS//os/rt/include/chdebug.h"
 1896              		.file 16 "../lib/e-puck2_main-processor/ChibiOS//os/rt/include/chtm.h"
 1897              		.file 17 "../lib/e-puck2_main-processor/ChibiOS//os/rt/include/chstats.h"
 1898              		.file 18 "../lib/e-puck2_main-processor/ChibiOS//os/rt/include/chsem.h"
 1899              		.file 19 "../lib/e-puck2_main-processor/ChibiOS//os/rt/include/chmtx.h"
 1900              		.file 20 "../lib/e-puck2_main-processor/ChibiOS//os/rt/include/chevents.h"
 1901              		.file 21 "../lib/e-puck2_main-processor/ChibiOS//os/rt/include/chqueues.h"
 1902              		.file 22 "../lib/e-puck2_main-processor/ChibiOS//os/rt/include/chstreams.h"
 1903              		.file 23 "../lib/e-puck2_main-processor/ChibiOS//os/hal/ports/STM32/STM32F4xx/stm32_dma.h"
 1904              		.file 24 "../lib/e-puck2_main-processor/ChibiOS//os/hal/include/hal_ioblock.h"
 1905              		.file 25 "../lib/e-puck2_main-processor/ChibiOS//os/hal/ports/STM32/LLD/GPIOv2/pal_lld.h"
 1906              		.file 26 "../lib/e-puck2_main-processor/ChibiOS//os/hal/include/adc.h"
 1907              		.file 27 "../lib/e-puck2_main-processor/ChibiOS//os/hal/ports/STM32/STM32F4xx/adc_lld.h"
 1908              		.file 28 "../lib/e-puck2_main-processor/ChibiOS//os/hal/include/can.h"
 1909              		.file 29 "../lib/e-puck2_main-processor/ChibiOS//os/hal/ports/STM32/LLD/can_lld.h"
 1910              		.file 30 "../lib/e-puck2_main-processor/ChibiOS//os/hal/include/dac.h"
 1911              		.file 31 "../lib/e-puck2_main-processor/ChibiOS//os/hal/ports/STM32/LLD/DACv1/dac_lld.h"
 1912              		.file 32 "../lib/e-puck2_main-processor/ChibiOS//os/hal/include/ext.h"
 1913              		.file 33 "../lib/e-puck2_main-processor/ChibiOS//os/hal/ports/STM32/LLD/ext_lld.h"
 1914              		.file 34 "../lib/e-puck2_main-processor/ChibiOS//os/hal/include/gpt.h"
 1915              		.file 35 "../lib/e-puck2_main-processor/ChibiOS//os/hal/ports/STM32/LLD/TIMv1/gpt_lld.h"
 1916              		.file 36 "../lib/e-puck2_main-processor/ChibiOS//os/hal/ports/STM32/LLD/TIMv1/stm32_tim.h"
 1917              		.file 37 "../lib/e-puck2_main-processor/ChibiOS//os/hal/include/i2c.h"
 1918              		.file 38 "../lib/e-puck2_main-processor/ChibiOS//os/hal/ports/STM32/LLD/I2Cv1/i2c_lld.h"
 1919              		.file 39 "../lib/e-puck2_main-processor/ChibiOS//os/hal/include/i2s.h"
 1920              		.file 40 "../lib/e-puck2_main-processor/ChibiOS//os/hal/ports/STM32/LLD/SPIv1/i2s_lld.h"
 1921              		.file 41 "../lib/e-puck2_main-processor/ChibiOS//os/hal/include/pwm.h"
 1922              		.file 42 "../lib/e-puck2_main-processor/ChibiOS//os/hal/ports/STM32/LLD/TIMv1/pwm_lld.h"
 1923              		.file 43 "../lib/e-puck2_main-processor/ChibiOS//os/hal/include/serial.h"
 1924              		.file 44 "../lib/e-puck2_main-processor/ChibiOS//os/hal/ports/STM32/LLD/USARTv1/serial_lld.h"
 1925              		.file 45 "../lib/e-puck2_main-processor/ChibiOS//os/hal/include/sdc.h"
 1926              		.file 46 "../lib/e-puck2_main-processor/ChibiOS//os/hal/ports/STM32/LLD/sdc_lld.h"
 1927              		.file 47 "../lib/e-puck2_main-processor/ChibiOS//os/hal/include/spi.h"
 1928              		.file 48 "../lib/e-puck2_main-processor/ChibiOS//os/hal/ports/STM32/LLD/SPIv1/spi_lld.h"
 1929              		.file 49 "../lib/e-puck2_main-processor/ChibiOS//os/hal/include/usb.h"
 1930              		.file 50 "../lib/e-puck2_main-processor/ChibiOS//os/hal/ports/STM32/LLD/OTGv1/usb_lld.h"
 1931              		.file 51 "../lib/e-puck2_main-processor/ChibiOS//os/hal/ports/STM32/LLD/OTGv1/stm32_otg.h"
 1932              		.file 52 "c:\\users\\pchautems\\documents\\robotiquetp\\eclipse_e-puck2\\tools\\gcc-arm-none-eabi-
 1933              		.file 53 "c:\\users\\pchautems\\documents\\robotiquetp\\eclipse_e-puck2\\tools\\gcc-arm-none-eabi-
 1934              		.file 54 "c:\\users\\pchautems\\documents\\robotiquetp\\eclipse_e-puck2\\tools\\gcc-arm-none-eabi-
 1935              		.file 55 "c:\\users\\pchautems\\documents\\robotiquetp\\eclipse_e-puck2\\tools\\gcc-arm-none-eabi-
 1936              		.file 56 "../lib/e-puck2_main-processor/src/cmp/cmp.h"
 1937              		.file 57 "../lib/e-puck2_main-processor/src/cmp_mem_access/cmp_mem_access.h"
 1938              		.file 58 "../lib/e-puck2_main-processor/src/serial-datagram/serial_datagram.h"
 1939              		.file 59 "../lib/e-puck2_main-processor/src/communication.h"
 1940              		.file 60 "c:\\users\\pchautems\\documents\\robotiquetp\\eclipse_e-puck2\\tools\\gcc-arm-none-eabi-
 1941              		.file 61 "../lib/e-puck2_main-processor/src/msgbus/messagebus.h"
 1942              		.file 62 "../lib/e-puck2_main-processor/src/sensors/imu.h"
 1943              		.file 63 "../lib/e-puck2_main-processor/ChibiOS_ext/os/hal/include/../ports/STM32/STM32F4xx/dcmi_l
 1944              		.file 64 "../lib/e-puck2_main-processor/src/parameter/parameter.h"
 1945              		.file 65 "./main.h"
ARM GAS  C:\Users\PCHAUT~1\AppData\Local\Temp\ccUlxcvb.s 			page 36

