ARM GAS  C:\Users\PCHAUT~1\AppData\Local\Temp\ccVnGr1y.s 			page 1


   1              		.cpu cortex-m4
   2              		.eabi_attribute 27, 1
   3              		.eabi_attribute 28, 1
   4              		.eabi_attribute 20, 1
   5              		.eabi_attribute 21, 1
   6              		.eabi_attribute 23, 3
   7              		.eabi_attribute 24, 1
   8              		.eabi_attribute 25, 1
   9              		.eabi_attribute 26, 1
  10              		.eabi_attribute 30, 6
  11              		.eabi_attribute 34, 1
  12              		.eabi_attribute 18, 4
  13              		.file	"config_flash_storage.c"
  14              		.text
  15              	.Ltext0:
  16              		.cfi_sections	.debug_frame
  17              		.section	.text.cmp_flash_writer,"ax",%progbits
  18              		.align	1
  19              		.p2align 4,,15
  20              		.syntax unified
  21              		.thumb
  22              		.thumb_func
  23              		.fpu fpv4-sp-d16
  24              		.type	cmp_flash_writer, %function
  25              	cmp_flash_writer:
  26              	.LFB0:
  27              		.file 1 "../lib/e-puck2_main-processor/src/config_flash_storage.c"
  28              		.loc 1 16 0
  29              		.cfi_startproc
  30              		@ args = 0, pretend = 0, frame = 24
  31              		@ frame_needed = 0, uses_anonymous_args = 0
  32 0000 00B5     		push	{lr}
  33              		.cfi_def_cfa_offset 4
  34              		.cfi_offset 14, -4
  35 0002 87B0     		sub	sp, sp, #28
  36              		.cfi_def_cfa_offset 32
  37 0004 0390     		str	r0, [sp, #12]
  38 0006 0291     		str	r1, [sp, #8]
  39 0008 0192     		str	r2, [sp, #4]
  40              		.loc 1 16 0
  41 000a 164B     		ldr	r3, .L5
  42 000c 1B68     		ldr	r3, [r3]
  43 000e 0593     		str	r3, [sp, #20]
  44              		.loc 1 17 0
  45 0010 039B     		ldr	r3, [sp, #12]
  46 0012 5B68     		ldr	r3, [r3, #4]
  47 0014 0493     		str	r3, [sp, #16]
  48              		.loc 1 18 0
  49 0016 049B     		ldr	r3, [sp, #16]
  50 0018 5A68     		ldr	r2, [r3, #4]
  51 001a 019B     		ldr	r3, [sp, #4]
  52 001c 1A44     		add	r2, r2, r3
  53 001e 049B     		ldr	r3, [sp, #16]
  54 0020 9B68     		ldr	r3, [r3, #8]
  55 0022 9A42     		cmp	r2, r3
  56 0024 11D8     		bhi	.L2
  57              		.loc 1 19 0
ARM GAS  C:\Users\PCHAUT~1\AppData\Local\Temp\ccVnGr1y.s 			page 2


  58 0026 049B     		ldr	r3, [sp, #16]
  59 0028 1A68     		ldr	r2, [r3]
  60 002a 049B     		ldr	r3, [sp, #16]
  61 002c 5B68     		ldr	r3, [r3, #4]
  62 002e 1344     		add	r3, r3, r2
  63 0030 019A     		ldr	r2, [sp, #4]
  64 0032 0299     		ldr	r1, [sp, #8]
  65 0034 1846     		mov	r0, r3
  66 0036 FFF7FEFF 		bl	flash_write
  67              		.loc 1 20 0
  68 003a 049B     		ldr	r3, [sp, #16]
  69 003c 5A68     		ldr	r2, [r3, #4]
  70 003e 019B     		ldr	r3, [sp, #4]
  71 0040 1A44     		add	r2, r2, r3
  72 0042 049B     		ldr	r3, [sp, #16]
  73 0044 5A60     		str	r2, [r3, #4]
  74              		.loc 1 21 0
  75 0046 019B     		ldr	r3, [sp, #4]
  76 0048 00E0     		b	.L3
  77              	.L2:
  78              		.loc 1 23 0
  79 004a 0023     		movs	r3, #0
  80              	.L3:
  81              		.loc 1 25 0
  82 004c 1846     		mov	r0, r3
  83 004e 054B     		ldr	r3, .L5
  84 0050 059A     		ldr	r2, [sp, #20]
  85 0052 1B68     		ldr	r3, [r3]
  86 0054 9A42     		cmp	r2, r3
  87 0056 01D0     		beq	.L4
  88 0058 FFF7FEFF 		bl	__stack_chk_fail
  89              	.L4:
  90 005c 07B0     		add	sp, sp, #28
  91              		.cfi_def_cfa_offset 4
  92              		@ sp needed
  93 005e 5DF804FB 		ldr	pc, [sp], #4
  94              	.L6:
  95 0062 00BF     		.align	2
  96              	.L5:
  97 0064 00000000 		.word	__stack_chk_guard
  98              		.cfi_endproc
  99              	.LFE0:
 100              		.size	cmp_flash_writer, .-cmp_flash_writer
 101              		.section	.text.config_erase,"ax",%progbits
 102              		.align	1
 103              		.p2align 4,,15
 104              		.global	config_erase
 105              		.syntax unified
 106              		.thumb
 107              		.thumb_func
 108              		.fpu fpv4-sp-d16
 109              		.type	config_erase, %function
 110              	config_erase:
 111              	.LFB1:
 112              		.loc 1 28 0
 113              		.cfi_startproc
 114              		@ args = 0, pretend = 0, frame = 16
ARM GAS  C:\Users\PCHAUT~1\AppData\Local\Temp\ccVnGr1y.s 			page 3


 115              		@ frame_needed = 0, uses_anonymous_args = 0
 116 0000 00B5     		push	{lr}
 117              		.cfi_def_cfa_offset 4
 118              		.cfi_offset 14, -4
 119 0002 85B0     		sub	sp, sp, #20
 120              		.cfi_def_cfa_offset 24
 121 0004 0190     		str	r0, [sp, #4]
 122              		.loc 1 28 0
 123 0006 0A4B     		ldr	r3, .L9
 124 0008 1B68     		ldr	r3, [r3]
 125 000a 0393     		str	r3, [sp, #12]
 126              		.loc 1 29 0
 127 000c FFF7FEFF 		bl	flash_unlock
 128              		.loc 1 30 0
 129 0010 0198     		ldr	r0, [sp, #4]
 130 0012 FFF7FEFF 		bl	flash_sector_erase
 131              		.loc 1 31 0
 132 0016 FFF7FEFF 		bl	flash_lock
 133              		.loc 1 32 0
 134 001a 00BF     		nop
 135 001c 044B     		ldr	r3, .L9
 136 001e 039A     		ldr	r2, [sp, #12]
 137 0020 1B68     		ldr	r3, [r3]
 138 0022 9A42     		cmp	r2, r3
 139 0024 01D0     		beq	.L8
 140 0026 FFF7FEFF 		bl	__stack_chk_fail
 141              	.L8:
 142 002a 05B0     		add	sp, sp, #20
 143              		.cfi_def_cfa_offset 4
 144              		@ sp needed
 145 002c 5DF804FB 		ldr	pc, [sp], #4
 146              	.L10:
 147              		.align	2
 148              	.L9:
 149 0030 00000000 		.word	__stack_chk_guard
 150              		.cfi_endproc
 151              	.LFE1:
 152              		.size	config_erase, .-config_erase
 153              		.section	.text.err_mark_false,"ax",%progbits
 154              		.align	1
 155              		.p2align 4,,15
 156              		.syntax unified
 157              		.thumb
 158              		.thumb_func
 159              		.fpu fpv4-sp-d16
 160              		.type	err_mark_false, %function
 161              	err_mark_false:
 162              	.LFB2:
 163              		.loc 1 35 0
 164              		.cfi_startproc
 165              		@ args = 0, pretend = 0, frame = 24
 166              		@ frame_needed = 0, uses_anonymous_args = 0
 167 0000 00B5     		push	{lr}
 168              		.cfi_def_cfa_offset 4
 169              		.cfi_offset 14, -4
 170 0002 87B0     		sub	sp, sp, #28
 171              		.cfi_def_cfa_offset 32
ARM GAS  C:\Users\PCHAUT~1\AppData\Local\Temp\ccVnGr1y.s 			page 4


 172 0004 0390     		str	r0, [sp, #12]
 173 0006 0291     		str	r1, [sp, #8]
 174 0008 0192     		str	r2, [sp, #4]
 175              		.loc 1 35 0
 176 000a 094B     		ldr	r3, .L13
 177 000c 1B68     		ldr	r3, [r3]
 178 000e 0593     		str	r3, [sp, #20]
 179              		.loc 1 39 0
 180 0010 039B     		ldr	r3, [sp, #12]
 181 0012 0493     		str	r3, [sp, #16]
 182              		.loc 1 40 0
 183 0014 049B     		ldr	r3, [sp, #16]
 184 0016 0022     		movs	r2, #0
 185 0018 1A70     		strb	r2, [r3]
 186              		.loc 1 41 0
 187 001a 00BF     		nop
 188 001c 044B     		ldr	r3, .L13
 189 001e 059A     		ldr	r2, [sp, #20]
 190 0020 1B68     		ldr	r3, [r3]
 191 0022 9A42     		cmp	r2, r3
 192 0024 01D0     		beq	.L12
 193 0026 FFF7FEFF 		bl	__stack_chk_fail
 194              	.L12:
 195 002a 07B0     		add	sp, sp, #28
 196              		.cfi_def_cfa_offset 4
 197              		@ sp needed
 198 002c 5DF804FB 		ldr	pc, [sp], #4
 199              	.L14:
 200              		.align	2
 201              	.L13:
 202 0030 00000000 		.word	__stack_chk_guard
 203              		.cfi_endproc
 204              	.LFE2:
 205              		.size	err_mark_false, .-err_mark_false
 206              		.section	.text.config_save,"ax",%progbits
 207              		.align	1
 208              		.p2align 4,,15
 209              		.global	config_save
 210              		.syntax unified
 211              		.thumb
 212              		.thumb_func
 213              		.fpu fpv4-sp-d16
 214              		.type	config_save, %function
 215              	config_save:
 216              	.LFB3:
 217              		.loc 1 44 0
 218              		.cfi_startproc
 219              		@ args = 0, pretend = 0, frame = 64
 220              		@ frame_needed = 0, uses_anonymous_args = 0
 221 0000 00B5     		push	{lr}
 222              		.cfi_def_cfa_offset 4
 223              		.cfi_offset 14, -4
 224 0002 91B0     		sub	sp, sp, #68
 225              		.cfi_def_cfa_offset 72
 226 0004 0390     		str	r0, [sp, #12]
 227 0006 0291     		str	r1, [sp, #8]
 228 0008 0192     		str	r2, [sp, #4]
ARM GAS  C:\Users\PCHAUT~1\AppData\Local\Temp\ccVnGr1y.s 			page 5


 229              		.loc 1 44 0
 230 000a 304B     		ldr	r3, .L21
 231 000c 1B68     		ldr	r3, [r3]
 232 000e 0F93     		str	r3, [sp, #60]
 233              		.loc 1 48 0
 234 0010 0123     		movs	r3, #1
 235 0012 8DF81730 		strb	r3, [sp, #23]
 236              		.loc 1 50 0
 237 0016 039B     		ldr	r3, [sp, #12]
 238 0018 0793     		str	r3, [sp, #28]
 239              		.loc 1 52 0
 240 001a FFF7FEFF 		bl	flash_unlock
 241              		.loc 1 56 0
 242 001e 0398     		ldr	r0, [sp, #12]
 243 0020 FFF7FEFF 		bl	config_block_find_last_used
 244 0024 0346     		mov	r3, r0
 245 0026 002B     		cmp	r3, #0
 246 0028 02D1     		bne	.L16
 247              		.loc 1 57 0
 248 002a 0398     		ldr	r0, [sp, #12]
 249 002c FFF7FEFF 		bl	flash_sector_erase
 250              	.L16:
 251              		.loc 1 61 0
 252 0030 0398     		ldr	r0, [sp, #12]
 253 0032 FFF7FEFF 		bl	config_block_find_first_free
 254 0036 0390     		str	r0, [sp, #12]
 255              		.loc 1 63 0
 256 0038 039A     		ldr	r2, [sp, #12]
 257 003a 079B     		ldr	r3, [sp, #28]
 258 003c D31A     		subs	r3, r2, r3
 259 003e 1A46     		mov	r2, r3
 260 0040 029B     		ldr	r3, [sp, #8]
 261 0042 9B1A     		subs	r3, r3, r2
 262 0044 0693     		str	r3, [sp, #24]
 263              		.loc 1 66 0
 264 0046 069B     		ldr	r3, [sp, #24]
 265 0048 0C2B     		cmp	r3, #12
 266 004a 06D8     		bhi	.L17
 267              		.loc 1 67 0
 268 004c 0798     		ldr	r0, [sp, #28]
 269 004e FFF7FEFF 		bl	flash_sector_erase
 270              		.loc 1 68 0
 271 0052 079B     		ldr	r3, [sp, #28]
 272 0054 0393     		str	r3, [sp, #12]
 273              		.loc 1 69 0
 274 0056 029B     		ldr	r3, [sp, #8]
 275 0058 0693     		str	r3, [sp, #24]
 276              	.L17:
 277              		.loc 1 72 0
 278 005a 039B     		ldr	r3, [sp, #12]
 279 005c 03F10C02 		add	r2, r3, #12
 280              		.loc 1 73 0
 281 0060 069B     		ldr	r3, [sp, #24]
 282 0062 0C3B     		subs	r3, r3, #12
 283              		.loc 1 72 0
 284 0064 08A9     		add	r1, sp, #32
 285 0066 0BA8     		add	r0, sp, #44
ARM GAS  C:\Users\PCHAUT~1\AppData\Local\Temp\ccVnGr1y.s 			page 6


 286 0068 FFF7FEFF 		bl	cmp_mem_access_init
 287              		.loc 1 76 0
 288 006c 184B     		ldr	r3, .L21+4
 289 006e 0E93     		str	r3, [sp, #56]
 290              		.loc 1 80 0
 291 0070 0DF11703 		add	r3, sp, #23
 292 0074 0BA9     		add	r1, sp, #44
 293 0076 174A     		ldr	r2, .L21+8
 294 0078 0198     		ldr	r0, [sp, #4]
 295 007a FFF7FEFF 		bl	parameter_msgpack_write_cmp
 296              		.loc 1 82 0
 297 007e 9DF81730 		ldrb	r3, [sp, #23]	@ zero_extendqisi2
 298 0082 83F00103 		eor	r3, r3, #1
 299 0086 DBB2     		uxtb	r3, r3
 300 0088 002B     		cmp	r3, #0
 301 008a 0AD0     		beq	.L18
 302              		.loc 1 83 0
 303 008c 0798     		ldr	r0, [sp, #28]
 304 008e FFF7FEFF 		bl	flash_sector_erase
 305              		.loc 1 84 0
 306 0092 FFF7FEFF 		bl	flash_lock
 307              		.loc 1 85 0
 308 0096 019A     		ldr	r2, [sp, #4]
 309 0098 0299     		ldr	r1, [sp, #8]
 310 009a 0798     		ldr	r0, [sp, #28]
 311 009c FFF7FEFF 		bl	config_save
 312 00a0 0AE0     		b	.L15
 313              	.L18:
 314              		.loc 1 88 0
 315 00a2 08AB     		add	r3, sp, #32
 316 00a4 1846     		mov	r0, r3
 317 00a6 FFF7FEFF 		bl	cmp_mem_access_get_pos
 318 00aa 0690     		str	r0, [sp, #24]
 319              		.loc 1 90 0
 320 00ac 0699     		ldr	r1, [sp, #24]
 321 00ae 0398     		ldr	r0, [sp, #12]
 322 00b0 FFF7FEFF 		bl	config_write_block_header
 323              		.loc 1 92 0
 324 00b4 FFF7FEFF 		bl	flash_lock
 325              	.L15:
 326              		.loc 1 93 0
 327 00b8 044B     		ldr	r3, .L21
 328 00ba 0F9A     		ldr	r2, [sp, #60]
 329 00bc 1B68     		ldr	r3, [r3]
 330 00be 9A42     		cmp	r2, r3
 331 00c0 01D0     		beq	.L20
 332 00c2 FFF7FEFF 		bl	__stack_chk_fail
 333              	.L20:
 334 00c6 11B0     		add	sp, sp, #68
 335              		.cfi_def_cfa_offset 4
 336              		@ sp needed
 337 00c8 5DF804FB 		ldr	pc, [sp], #4
 338              	.L22:
 339              		.align	2
 340              	.L21:
 341 00cc 00000000 		.word	__stack_chk_guard
 342 00d0 00000000 		.word	cmp_flash_writer
ARM GAS  C:\Users\PCHAUT~1\AppData\Local\Temp\ccVnGr1y.s 			page 7


 343 00d4 00000000 		.word	err_mark_false
 344              		.cfi_endproc
 345              	.LFE3:
 346              		.size	config_save, .-config_save
 347              		.section	.text.config_load,"ax",%progbits
 348              		.align	1
 349              		.p2align 4,,15
 350              		.global	config_load
 351              		.syntax unified
 352              		.thumb
 353              		.thumb_func
 354              		.fpu fpv4-sp-d16
 355              		.type	config_load, %function
 356              	config_load:
 357              	.LFB4:
 358              		.loc 1 96 0
 359              		.cfi_startproc
 360              		@ args = 0, pretend = 0, frame = 24
 361              		@ frame_needed = 0, uses_anonymous_args = 0
 362 0000 00B5     		push	{lr}
 363              		.cfi_def_cfa_offset 4
 364              		.cfi_offset 14, -4
 365 0002 89B0     		sub	sp, sp, #36
 366              		.cfi_def_cfa_offset 40
 367 0004 0390     		str	r0, [sp, #12]
 368 0006 0291     		str	r1, [sp, #8]
 369              		.loc 1 96 0
 370 0008 154B     		ldr	r3, .L28
 371 000a 1B68     		ldr	r3, [r3]
 372 000c 0793     		str	r3, [sp, #28]
 373              		.loc 1 100 0
 374 000e 0298     		ldr	r0, [sp, #8]
 375 0010 FFF7FEFF 		bl	config_block_find_last_used
 376 0014 0290     		str	r0, [sp, #8]
 377              		.loc 1 103 0
 378 0016 029B     		ldr	r3, [sp, #8]
 379 0018 002B     		cmp	r3, #0
 380 001a 01D1     		bne	.L24
 381              		.loc 1 104 0
 382 001c 0023     		movs	r3, #0
 383 001e 14E0     		b	.L25
 384              	.L24:
 385              		.loc 1 107 0
 386 0020 0298     		ldr	r0, [sp, #8]
 387 0022 FFF7FEFF 		bl	config_block_get_length
 388 0026 0590     		str	r0, [sp, #20]
 389              		.loc 1 109 0
 390 0028 029B     		ldr	r3, [sp, #8]
 391 002a 03F10C01 		add	r1, r3, #12
 392 002e 0023     		movs	r3, #0
 393 0030 0093     		str	r3, [sp]
 394 0032 0023     		movs	r3, #0
 395 0034 059A     		ldr	r2, [sp, #20]
 396 0036 0398     		ldr	r0, [sp, #12]
 397 0038 FFF7FEFF 		bl	parameter_msgpack_read
 398 003c 0690     		str	r0, [sp, #24]
 399              		.loc 1 112 0
ARM GAS  C:\Users\PCHAUT~1\AppData\Local\Temp\ccVnGr1y.s 			page 8


 400 003e 069B     		ldr	r3, [sp, #24]
 401 0040 002B     		cmp	r3, #0
 402 0042 01D0     		beq	.L26
 403              		.loc 1 113 0
 404 0044 0023     		movs	r3, #0
 405 0046 00E0     		b	.L25
 406              	.L26:
 407              		.loc 1 116 0
 408 0048 0123     		movs	r3, #1
 409              	.L25:
 410              		.loc 1 117 0
 411 004a 1846     		mov	r0, r3
 412 004c 044B     		ldr	r3, .L28
 413 004e 079A     		ldr	r2, [sp, #28]
 414 0050 1B68     		ldr	r3, [r3]
 415 0052 9A42     		cmp	r2, r3
 416 0054 01D0     		beq	.L27
 417 0056 FFF7FEFF 		bl	__stack_chk_fail
 418              	.L27:
 419 005a 09B0     		add	sp, sp, #36
 420              		.cfi_def_cfa_offset 4
 421              		@ sp needed
 422 005c 5DF804FB 		ldr	pc, [sp], #4
 423              	.L29:
 424              		.align	2
 425              	.L28:
 426 0060 00000000 		.word	__stack_chk_guard
 427              		.cfi_endproc
 428              	.LFE4:
 429              		.size	config_load, .-config_load
 430              		.section	.text.config_block_is_valid,"ax",%progbits
 431              		.align	1
 432              		.p2align 4,,15
 433              		.global	config_block_is_valid
 434              		.syntax unified
 435              		.thumb
 436              		.thumb_func
 437              		.fpu fpv4-sp-d16
 438              		.type	config_block_is_valid, %function
 439              	config_block_is_valid:
 440              	.LFB5:
 441              		.loc 1 120 0
 442              		.cfi_startproc
 443              		@ args = 0, pretend = 0, frame = 32
 444              		@ frame_needed = 0, uses_anonymous_args = 0
 445 0000 00B5     		push	{lr}
 446              		.cfi_def_cfa_offset 4
 447              		.cfi_offset 14, -4
 448 0002 89B0     		sub	sp, sp, #36
 449              		.cfi_def_cfa_offset 40
 450 0004 0190     		str	r0, [sp, #4]
 451              		.loc 1 120 0
 452 0006 224B     		ldr	r3, .L36
 453 0008 1B68     		ldr	r3, [r3]
 454 000a 0793     		str	r3, [sp, #28]
 455              		.loc 1 121 0
 456 000c 019B     		ldr	r3, [sp, #4]
ARM GAS  C:\Users\PCHAUT~1\AppData\Local\Temp\ccVnGr1y.s 			page 9


 457 000e 0593     		str	r3, [sp, #20]
 458              		.loc 1 123 0
 459 0010 0023     		movs	r3, #0
 460 0012 0693     		str	r3, [sp, #24]
 461              		.loc 1 126 0
 462 0014 059A     		ldr	r2, [sp, #20]
 463 0016 069B     		ldr	r3, [sp, #24]
 464 0018 1344     		add	r3, r3, r2
 465 001a 1B68     		ldr	r3, [r3]	@ unaligned
 466 001c 0393     		str	r3, [sp, #12]
 467              		.loc 1 127 0
 468 001e 069B     		ldr	r3, [sp, #24]
 469 0020 0433     		adds	r3, r3, #4
 470 0022 0693     		str	r3, [sp, #24]
 471              		.loc 1 130 0
 472 0024 059A     		ldr	r2, [sp, #20]
 473 0026 069B     		ldr	r3, [sp, #24]
 474 0028 1344     		add	r3, r3, r2
 475 002a 1B68     		ldr	r3, [r3]	@ unaligned
 476 002c 0493     		str	r3, [sp, #16]
 477              		.loc 1 131 0
 478 002e 069B     		ldr	r3, [sp, #24]
 479 0030 0433     		adds	r3, r3, #4
 480 0032 0693     		str	r3, [sp, #24]
 481              		.loc 1 134 0
 482 0034 04AB     		add	r3, sp, #16
 483 0036 0422     		movs	r2, #4
 484 0038 1946     		mov	r1, r3
 485 003a 1648     		ldr	r0, .L36+4
 486 003c FFF7FEFF 		bl	crc32
 487 0040 0246     		mov	r2, r0
 488 0042 039B     		ldr	r3, [sp, #12]
 489 0044 9A42     		cmp	r2, r3
 490 0046 01D0     		beq	.L31
 491              		.loc 1 135 0
 492 0048 0023     		movs	r3, #0
 493 004a 16E0     		b	.L34
 494              	.L31:
 495              		.loc 1 139 0
 496 004c 059A     		ldr	r2, [sp, #20]
 497 004e 069B     		ldr	r3, [sp, #24]
 498 0050 1344     		add	r3, r3, r2
 499 0052 1B68     		ldr	r3, [r3]	@ unaligned
 500 0054 0393     		str	r3, [sp, #12]
 501              		.loc 1 140 0
 502 0056 069B     		ldr	r3, [sp, #24]
 503 0058 0433     		adds	r3, r3, #4
 504 005a 0693     		str	r3, [sp, #24]
 505              		.loc 1 143 0
 506 005c 059A     		ldr	r2, [sp, #20]
 507 005e 069B     		ldr	r3, [sp, #24]
 508 0060 1344     		add	r3, r3, r2
 509 0062 049A     		ldr	r2, [sp, #16]
 510 0064 1946     		mov	r1, r3
 511 0066 0B48     		ldr	r0, .L36+4
 512 0068 FFF7FEFF 		bl	crc32
 513 006c 0246     		mov	r2, r0
ARM GAS  C:\Users\PCHAUT~1\AppData\Local\Temp\ccVnGr1y.s 			page 10


 514 006e 039B     		ldr	r3, [sp, #12]
 515 0070 9A42     		cmp	r2, r3
 516 0072 01D0     		beq	.L33
 517              		.loc 1 144 0
 518 0074 0023     		movs	r3, #0
 519 0076 00E0     		b	.L34
 520              	.L33:
 521              		.loc 1 147 0
 522 0078 0123     		movs	r3, #1
 523              	.L34:
 524              		.loc 1 148 0 discriminator 1
 525 007a 1846     		mov	r0, r3
 526 007c 044B     		ldr	r3, .L36
 527 007e 079A     		ldr	r2, [sp, #28]
 528 0080 1B68     		ldr	r3, [r3]
 529 0082 9A42     		cmp	r2, r3
 530 0084 01D0     		beq	.L35
 531              		.loc 1 148 0 is_stmt 0
 532 0086 FFF7FEFF 		bl	__stack_chk_fail
 533              	.L35:
 534 008a 09B0     		add	sp, sp, #36
 535              		.cfi_def_cfa_offset 4
 536              		@ sp needed
 537 008c 5DF804FB 		ldr	pc, [sp], #4
 538              	.L37:
 539              		.align	2
 540              	.L36:
 541 0090 00000000 		.word	__stack_chk_guard
 542 0094 EFBEADDE 		.word	-559038737
 543              		.cfi_endproc
 544              	.LFE5:
 545              		.size	config_block_is_valid, .-config_block_is_valid
 546              		.section	.text.config_write_block_header,"ax",%progbits
 547              		.align	1
 548              		.p2align 4,,15
 549              		.global	config_write_block_header
 550              		.syntax unified
 551              		.thumb
 552              		.thumb_func
 553              		.fpu fpv4-sp-d16
 554              		.type	config_write_block_header, %function
 555              	config_write_block_header:
 556              	.LFB6:
 557              		.loc 1 151 0 is_stmt 1
 558              		.cfi_startproc
 559              		@ args = 0, pretend = 0, frame = 24
 560              		@ frame_needed = 0, uses_anonymous_args = 0
 561 0000 00B5     		push	{lr}
 562              		.cfi_def_cfa_offset 4
 563              		.cfi_offset 14, -4
 564 0002 87B0     		sub	sp, sp, #28
 565              		.cfi_def_cfa_offset 32
 566 0004 0190     		str	r0, [sp, #4]
 567 0006 0091     		str	r1, [sp]
 568              		.loc 1 151 0
 569 0008 1F4B     		ldr	r3, .L40
 570 000a 1B68     		ldr	r3, [r3]
ARM GAS  C:\Users\PCHAUT~1\AppData\Local\Temp\ccVnGr1y.s 			page 11


 571 000c 0593     		str	r3, [sp, #20]
 572              		.loc 1 153 0
 573 000e 0023     		movs	r3, #0
 574 0010 0493     		str	r3, [sp, #16]
 575              		.loc 1 156 0
 576 0012 6B46     		mov	r3, sp
 577 0014 0422     		movs	r2, #4
 578 0016 1946     		mov	r1, r3
 579 0018 1C48     		ldr	r0, .L40+4
 580 001a FFF7FEFF 		bl	crc32
 581 001e 0346     		mov	r3, r0
 582 0020 0393     		str	r3, [sp, #12]
 583              		.loc 1 157 0
 584 0022 019A     		ldr	r2, [sp, #4]
 585 0024 049B     		ldr	r3, [sp, #16]
 586 0026 1344     		add	r3, r3, r2
 587 0028 03A9     		add	r1, sp, #12
 588 002a 0422     		movs	r2, #4
 589 002c 1846     		mov	r0, r3
 590 002e FFF7FEFF 		bl	flash_write
 591              		.loc 1 158 0
 592 0032 049B     		ldr	r3, [sp, #16]
 593 0034 0433     		adds	r3, r3, #4
 594 0036 0493     		str	r3, [sp, #16]
 595              		.loc 1 161 0
 596 0038 019A     		ldr	r2, [sp, #4]
 597 003a 049B     		ldr	r3, [sp, #16]
 598 003c 1344     		add	r3, r3, r2
 599 003e 6946     		mov	r1, sp
 600 0040 0422     		movs	r2, #4
 601 0042 1846     		mov	r0, r3
 602 0044 FFF7FEFF 		bl	flash_write
 603              		.loc 1 162 0
 604 0048 049B     		ldr	r3, [sp, #16]
 605 004a 0433     		adds	r3, r3, #4
 606 004c 0493     		str	r3, [sp, #16]
 607              		.loc 1 165 0
 608 004e 019B     		ldr	r3, [sp, #4]
 609 0050 0C33     		adds	r3, r3, #12
 610 0052 009A     		ldr	r2, [sp]
 611 0054 1946     		mov	r1, r3
 612 0056 0D48     		ldr	r0, .L40+4
 613 0058 FFF7FEFF 		bl	crc32
 614 005c 0346     		mov	r3, r0
 615 005e 0393     		str	r3, [sp, #12]
 616              		.loc 1 166 0
 617 0060 019A     		ldr	r2, [sp, #4]
 618 0062 049B     		ldr	r3, [sp, #16]
 619 0064 1344     		add	r3, r3, r2
 620 0066 03A9     		add	r1, sp, #12
 621 0068 0422     		movs	r2, #4
 622 006a 1846     		mov	r0, r3
 623 006c FFF7FEFF 		bl	flash_write
 624              		.loc 1 167 0
 625 0070 00BF     		nop
 626 0072 054B     		ldr	r3, .L40
 627 0074 059A     		ldr	r2, [sp, #20]
ARM GAS  C:\Users\PCHAUT~1\AppData\Local\Temp\ccVnGr1y.s 			page 12


 628 0076 1B68     		ldr	r3, [r3]
 629 0078 9A42     		cmp	r2, r3
 630 007a 01D0     		beq	.L39
 631 007c FFF7FEFF 		bl	__stack_chk_fail
 632              	.L39:
 633 0080 07B0     		add	sp, sp, #28
 634              		.cfi_def_cfa_offset 4
 635              		@ sp needed
 636 0082 5DF804FB 		ldr	pc, [sp], #4
 637              	.L41:
 638 0086 00BF     		.align	2
 639              	.L40:
 640 0088 00000000 		.word	__stack_chk_guard
 641 008c EFBEADDE 		.word	-559038737
 642              		.cfi_endproc
 643              	.LFE6:
 644              		.size	config_write_block_header, .-config_write_block_header
 645              		.section	.text.config_block_get_length,"ax",%progbits
 646              		.align	1
 647              		.p2align 4,,15
 648              		.global	config_block_get_length
 649              		.syntax unified
 650              		.thumb
 651              		.thumb_func
 652              		.fpu fpv4-sp-d16
 653              		.type	config_block_get_length, %function
 654              	config_block_get_length:
 655              	.LFB7:
 656              		.loc 1 170 0
 657              		.cfi_startproc
 658              		@ args = 0, pretend = 0, frame = 16
 659              		@ frame_needed = 0, uses_anonymous_args = 0
 660 0000 00B5     		push	{lr}
 661              		.cfi_def_cfa_offset 4
 662              		.cfi_offset 14, -4
 663 0002 85B0     		sub	sp, sp, #20
 664              		.cfi_def_cfa_offset 24
 665 0004 0190     		str	r0, [sp, #4]
 666              		.loc 1 170 0
 667 0006 094B     		ldr	r3, .L45
 668 0008 1B68     		ldr	r3, [r3]
 669 000a 0393     		str	r3, [sp, #12]
 670              		.loc 1 171 0
 671 000c 019B     		ldr	r3, [sp, #4]
 672 000e 0293     		str	r3, [sp, #8]
 673              		.loc 1 173 0
 674 0010 029B     		ldr	r3, [sp, #8]
 675 0012 5B68     		ldr	r3, [r3, #4]
 676              		.loc 1 174 0
 677 0014 1846     		mov	r0, r3
 678 0016 054B     		ldr	r3, .L45
 679 0018 039A     		ldr	r2, [sp, #12]
 680 001a 1B68     		ldr	r3, [r3]
 681 001c 9A42     		cmp	r2, r3
 682 001e 01D0     		beq	.L44
 683 0020 FFF7FEFF 		bl	__stack_chk_fail
 684              	.L44:
ARM GAS  C:\Users\PCHAUT~1\AppData\Local\Temp\ccVnGr1y.s 			page 13


 685 0024 05B0     		add	sp, sp, #20
 686              		.cfi_def_cfa_offset 4
 687              		@ sp needed
 688 0026 5DF804FB 		ldr	pc, [sp], #4
 689              	.L46:
 690 002a 00BF     		.align	2
 691              	.L45:
 692 002c 00000000 		.word	__stack_chk_guard
 693              		.cfi_endproc
 694              	.LFE7:
 695              		.size	config_block_get_length, .-config_block_get_length
 696              		.section	.text.config_block_find_last_used,"ax",%progbits
 697              		.align	1
 698              		.p2align 4,,15
 699              		.global	config_block_find_last_used
 700              		.syntax unified
 701              		.thumb
 702              		.thumb_func
 703              		.fpu fpv4-sp-d16
 704              		.type	config_block_find_last_used, %function
 705              	config_block_find_last_used:
 706              	.LFB8:
 707              		.loc 1 177 0
 708              		.cfi_startproc
 709              		@ args = 0, pretend = 0, frame = 24
 710              		@ frame_needed = 0, uses_anonymous_args = 0
 711 0000 00B5     		push	{lr}
 712              		.cfi_def_cfa_offset 4
 713              		.cfi_offset 14, -4
 714 0002 87B0     		sub	sp, sp, #28
 715              		.cfi_def_cfa_offset 32
 716 0004 0190     		str	r0, [sp, #4]
 717              		.loc 1 177 0
 718 0006 134B     		ldr	r3, .L52
 719 0008 1B68     		ldr	r3, [r3]
 720 000a 0593     		str	r3, [sp, #20]
 721              		.loc 1 178 0
 722 000c 019B     		ldr	r3, [sp, #4]
 723 000e 0393     		str	r3, [sp, #12]
 724              		.loc 1 179 0
 725 0010 0023     		movs	r3, #0
 726 0012 0493     		str	r3, [sp, #16]
 727              		.loc 1 181 0
 728 0014 0BE0     		b	.L48
 729              	.L49:
 730              		.loc 1 182 0
 731 0016 039B     		ldr	r3, [sp, #12]
 732 0018 0493     		str	r3, [sp, #16]
 733              		.loc 1 183 0
 734 001a 0398     		ldr	r0, [sp, #12]
 735 001c FFF7FEFF 		bl	config_block_get_length
 736 0020 0246     		mov	r2, r0
 737 0022 039B     		ldr	r3, [sp, #12]
 738 0024 1344     		add	r3, r3, r2
 739 0026 0393     		str	r3, [sp, #12]
 740              		.loc 1 184 0
 741 0028 039B     		ldr	r3, [sp, #12]
ARM GAS  C:\Users\PCHAUT~1\AppData\Local\Temp\ccVnGr1y.s 			page 14


 742 002a 0C33     		adds	r3, r3, #12
 743 002c 0393     		str	r3, [sp, #12]
 744              	.L48:
 745              		.loc 1 181 0
 746 002e 0398     		ldr	r0, [sp, #12]
 747 0030 FFF7FEFF 		bl	config_block_is_valid
 748 0034 0346     		mov	r3, r0
 749 0036 002B     		cmp	r3, #0
 750 0038 EDD1     		bne	.L49
 751              		.loc 1 187 0
 752 003a 049B     		ldr	r3, [sp, #16]
 753              		.loc 1 188 0
 754 003c 1846     		mov	r0, r3
 755 003e 054B     		ldr	r3, .L52
 756 0040 059A     		ldr	r2, [sp, #20]
 757 0042 1B68     		ldr	r3, [r3]
 758 0044 9A42     		cmp	r2, r3
 759 0046 01D0     		beq	.L51
 760 0048 FFF7FEFF 		bl	__stack_chk_fail
 761              	.L51:
 762 004c 07B0     		add	sp, sp, #28
 763              		.cfi_def_cfa_offset 4
 764              		@ sp needed
 765 004e 5DF804FB 		ldr	pc, [sp], #4
 766              	.L53:
 767 0052 00BF     		.align	2
 768              	.L52:
 769 0054 00000000 		.word	__stack_chk_guard
 770              		.cfi_endproc
 771              	.LFE8:
 772              		.size	config_block_find_last_used, .-config_block_find_last_used
 773              		.section	.text.config_block_find_first_free,"ax",%progbits
 774              		.align	1
 775              		.p2align 4,,15
 776              		.global	config_block_find_first_free
 777              		.syntax unified
 778              		.thumb
 779              		.thumb_func
 780              		.fpu fpv4-sp-d16
 781              		.type	config_block_find_first_free, %function
 782              	config_block_find_first_free:
 783              	.LFB9:
 784              		.loc 1 191 0
 785              		.cfi_startproc
 786              		@ args = 0, pretend = 0, frame = 16
 787              		@ frame_needed = 0, uses_anonymous_args = 0
 788 0000 00B5     		push	{lr}
 789              		.cfi_def_cfa_offset 4
 790              		.cfi_offset 14, -4
 791 0002 85B0     		sub	sp, sp, #20
 792              		.cfi_def_cfa_offset 24
 793 0004 0190     		str	r0, [sp, #4]
 794              		.loc 1 191 0
 795 0006 114B     		ldr	r3, .L59
 796 0008 1B68     		ldr	r3, [r3]
 797 000a 0393     		str	r3, [sp, #12]
 798              		.loc 1 192 0
ARM GAS  C:\Users\PCHAUT~1\AppData\Local\Temp\ccVnGr1y.s 			page 15


 799 000c 019B     		ldr	r3, [sp, #4]
 800 000e 0293     		str	r3, [sp, #8]
 801              		.loc 1 194 0
 802 0010 09E0     		b	.L55
 803              	.L56:
 804              		.loc 1 195 0
 805 0012 0298     		ldr	r0, [sp, #8]
 806 0014 FFF7FEFF 		bl	config_block_get_length
 807 0018 0246     		mov	r2, r0
 808 001a 029B     		ldr	r3, [sp, #8]
 809 001c 1344     		add	r3, r3, r2
 810 001e 0293     		str	r3, [sp, #8]
 811              		.loc 1 196 0
 812 0020 029B     		ldr	r3, [sp, #8]
 813 0022 0C33     		adds	r3, r3, #12
 814 0024 0293     		str	r3, [sp, #8]
 815              	.L55:
 816              		.loc 1 194 0
 817 0026 0298     		ldr	r0, [sp, #8]
 818 0028 FFF7FEFF 		bl	config_block_is_valid
 819 002c 0346     		mov	r3, r0
 820 002e 002B     		cmp	r3, #0
 821 0030 EFD1     		bne	.L56
 822              		.loc 1 199 0
 823 0032 029B     		ldr	r3, [sp, #8]
 824              		.loc 1 200 0
 825 0034 1846     		mov	r0, r3
 826 0036 054B     		ldr	r3, .L59
 827 0038 039A     		ldr	r2, [sp, #12]
 828 003a 1B68     		ldr	r3, [r3]
 829 003c 9A42     		cmp	r2, r3
 830 003e 01D0     		beq	.L58
 831 0040 FFF7FEFF 		bl	__stack_chk_fail
 832              	.L58:
 833 0044 05B0     		add	sp, sp, #20
 834              		.cfi_def_cfa_offset 4
 835              		@ sp needed
 836 0046 5DF804FB 		ldr	pc, [sp], #4
 837              	.L60:
 838 004a 00BF     		.align	2
 839              	.L59:
 840 004c 00000000 		.word	__stack_chk_guard
 841              		.cfi_endproc
 842              	.LFE9:
 843              		.size	config_block_find_first_free, .-config_block_find_first_free
 844              		.text
 845              	.Letext0:
 846              		.file 2 "c:\\users\\pchautems\\documents\\robotiquetp\\eclipse_e-puck2\\tools\\gcc-arm-none-eabi-7
 847              		.file 3 "c:\\users\\pchautems\\documents\\robotiquetp\\eclipse_e-puck2\\tools\\gcc-arm-none-eabi-7
 848              		.file 4 "c:\\users\\pchautems\\documents\\robotiquetp\\eclipse_e-puck2\\tools\\gcc-arm-none-eabi-7
 849              		.file 5 "c:\\users\\pchautems\\documents\\robotiquetp\\eclipse_e-puck2\\tools\\gcc-arm-none-eabi-7
 850              		.file 6 "c:\\users\\pchautems\\documents\\robotiquetp\\eclipse_e-puck2\\tools\\gcc-arm-none-eabi-7
 851              		.file 7 "c:\\users\\pchautems\\documents\\robotiquetp\\eclipse_e-puck2\\tools\\gcc-arm-none-eabi-7
 852              		.file 8 "c:\\users\\pchautems\\documents\\robotiquetp\\eclipse_e-puck2\\tools\\gcc-arm-none-eabi-7
 853              		.file 9 "../lib/e-puck2_main-processor/src/parameter/parameter.h"
 854              		.file 10 "../lib/e-puck2_main-processor/src/cmp/cmp.h"
 855              		.file 11 "../lib/e-puck2_main-processor/src/cmp_mem_access/cmp_mem_access.h"
ARM GAS  C:\Users\PCHAUT~1\AppData\Local\Temp\ccVnGr1y.s 			page 16


 856              		.section	.debug_info,"",%progbits
 857              	.Ldebug_info0:
 858 0000 AC0E0000 		.4byte	0xeac
 859 0004 0400     		.2byte	0x4
 860 0006 00000000 		.4byte	.Ldebug_abbrev0
 861 000a 04       		.byte	0x4
 862 000b 01       		.uleb128 0x1
 863 000c BA010000 		.4byte	.LASF181
 864 0010 0C       		.byte	0xc
 865 0011 AB040000 		.4byte	.LASF182
 866 0015 BC060000 		.4byte	.LASF183
 867 0019 00000000 		.4byte	.Ldebug_ranges0+0
 868 001d 00000000 		.4byte	0
 869 0021 00000000 		.4byte	.Ldebug_line0
 870 0025 02       		.uleb128 0x2
 871 0026 04       		.byte	0x4
 872 0027 05       		.byte	0x5
 873 0028 696E7400 		.ascii	"int\000"
 874 002c 03       		.uleb128 0x3
 875 002d 30000000 		.4byte	.LASF4
 876 0031 02       		.byte	0x2
 877 0032 D8       		.byte	0xd8
 878 0033 37000000 		.4byte	0x37
 879 0037 04       		.uleb128 0x4
 880 0038 04       		.byte	0x4
 881 0039 07       		.byte	0x7
 882 003a 0C040000 		.4byte	.LASF0
 883 003e 04       		.uleb128 0x4
 884 003f 08       		.byte	0x8
 885 0040 05       		.byte	0x5
 886 0041 36010000 		.4byte	.LASF1
 887 0045 04       		.uleb128 0x4
 888 0046 08       		.byte	0x8
 889 0047 04       		.byte	0x4
 890 0048 50050000 		.4byte	.LASF2
 891 004c 04       		.uleb128 0x4
 892 004d 01       		.byte	0x1
 893 004e 06       		.byte	0x6
 894 004f 44010000 		.4byte	.LASF3
 895 0053 03       		.uleb128 0x3
 896 0054 6D000000 		.4byte	.LASF5
 897 0058 03       		.byte	0x3
 898 0059 2B       		.byte	0x2b
 899 005a 5E000000 		.4byte	0x5e
 900 005e 04       		.uleb128 0x4
 901 005f 01       		.byte	0x1
 902 0060 08       		.byte	0x8
 903 0061 14060000 		.4byte	.LASF6
 904 0065 04       		.uleb128 0x4
 905 0066 02       		.byte	0x2
 906 0067 05       		.byte	0x5
 907 0068 38060000 		.4byte	.LASF7
 908 006c 03       		.uleb128 0x3
 909 006d 95070000 		.4byte	.LASF8
 910 0071 03       		.byte	0x3
 911 0072 39       		.byte	0x39
 912 0073 77000000 		.4byte	0x77
ARM GAS  C:\Users\PCHAUT~1\AppData\Local\Temp\ccVnGr1y.s 			page 17


 913 0077 04       		.uleb128 0x4
 914 0078 02       		.byte	0x2
 915 0079 07       		.byte	0x7
 916 007a 71040000 		.4byte	.LASF9
 917 007e 03       		.uleb128 0x3
 918 007f A5070000 		.4byte	.LASF10
 919 0083 03       		.byte	0x3
 920 0084 4D       		.byte	0x4d
 921 0085 89000000 		.4byte	0x89
 922 0089 04       		.uleb128 0x4
 923 008a 04       		.byte	0x4
 924 008b 05       		.byte	0x5
 925 008c B1010000 		.4byte	.LASF11
 926 0090 03       		.uleb128 0x3
 927 0091 A4030000 		.4byte	.LASF12
 928 0095 03       		.byte	0x3
 929 0096 4F       		.byte	0x4f
 930 0097 9B000000 		.4byte	0x9b
 931 009b 04       		.uleb128 0x4
 932 009c 04       		.byte	0x4
 933 009d 07       		.byte	0x7
 934 009e 30040000 		.4byte	.LASF13
 935 00a2 04       		.uleb128 0x4
 936 00a3 08       		.byte	0x8
 937 00a4 07       		.byte	0x7
 938 00a5 DA000000 		.4byte	.LASF14
 939 00a9 03       		.uleb128 0x3
 940 00aa F2040000 		.4byte	.LASF15
 941 00ae 04       		.byte	0x4
 942 00af 22       		.byte	0x22
 943 00b0 B4000000 		.4byte	0xb4
 944 00b4 05       		.uleb128 0x5
 945 00b5 04       		.byte	0x4
 946 00b6 BA000000 		.4byte	0xba
 947 00ba 06       		.uleb128 0x6
 948 00bb 50070000 		.4byte	.LASF122
 949 00bf 03       		.uleb128 0x3
 950 00c0 B8050000 		.4byte	.LASF16
 951 00c4 05       		.byte	0x5
 952 00c5 2C       		.byte	0x2c
 953 00c6 89000000 		.4byte	0x89
 954 00ca 03       		.uleb128 0x3
 955 00cb 71070000 		.4byte	.LASF17
 956 00cf 05       		.byte	0x5
 957 00d0 72       		.byte	0x72
 958 00d1 89000000 		.4byte	0x89
 959 00d5 07       		.uleb128 0x7
 960 00d6 FA040000 		.4byte	.LASF18
 961 00da 02       		.byte	0x2
 962 00db 6501     		.2byte	0x165
 963 00dd 37000000 		.4byte	0x37
 964 00e1 08       		.uleb128 0x8
 965 00e2 04       		.byte	0x4
 966 00e3 05       		.byte	0x5
 967 00e4 A6       		.byte	0xa6
 968 00e5 00010000 		.4byte	0x100
 969 00e9 09       		.uleb128 0x9
ARM GAS  C:\Users\PCHAUT~1\AppData\Local\Temp\ccVnGr1y.s 			page 18


 970 00ea EC040000 		.4byte	.LASF19
 971 00ee 05       		.byte	0x5
 972 00ef A8       		.byte	0xa8
 973 00f0 D5000000 		.4byte	0xd5
 974 00f4 09       		.uleb128 0x9
 975 00f5 19040000 		.4byte	.LASF20
 976 00f9 05       		.byte	0x5
 977 00fa A9       		.byte	0xa9
 978 00fb 00010000 		.4byte	0x100
 979 00ff 00       		.byte	0
 980 0100 0A       		.uleb128 0xa
 981 0101 5E000000 		.4byte	0x5e
 982 0105 10010000 		.4byte	0x110
 983 0109 0B       		.uleb128 0xb
 984 010a 37000000 		.4byte	0x37
 985 010e 03       		.byte	0x3
 986 010f 00       		.byte	0
 987 0110 0C       		.uleb128 0xc
 988 0111 08       		.byte	0x8
 989 0112 05       		.byte	0x5
 990 0113 A3       		.byte	0xa3
 991 0114 31010000 		.4byte	0x131
 992 0118 0D       		.uleb128 0xd
 993 0119 48070000 		.4byte	.LASF21
 994 011d 05       		.byte	0x5
 995 011e A5       		.byte	0xa5
 996 011f 25000000 		.4byte	0x25
 997 0123 00       		.byte	0
 998 0124 0D       		.uleb128 0xd
 999 0125 57070000 		.4byte	.LASF22
 1000 0129 05       		.byte	0x5
 1001 012a AA       		.byte	0xaa
 1002 012b E1000000 		.4byte	0xe1
 1003 012f 04       		.byte	0x4
 1004 0130 00       		.byte	0
 1005 0131 03       		.uleb128 0x3
 1006 0132 74060000 		.4byte	.LASF23
 1007 0136 05       		.byte	0x5
 1008 0137 AB       		.byte	0xab
 1009 0138 10010000 		.4byte	0x110
 1010 013c 03       		.uleb128 0x3
 1011 013d B5030000 		.4byte	.LASF24
 1012 0141 05       		.byte	0x5
 1013 0142 AF       		.byte	0xaf
 1014 0143 A9000000 		.4byte	0xa9
 1015 0147 0E       		.uleb128 0xe
 1016 0148 04       		.byte	0x4
 1017 0149 05       		.uleb128 0x5
 1018 014a 04       		.byte	0x4
 1019 014b 4F010000 		.4byte	0x14f
 1020 014f 04       		.uleb128 0x4
 1021 0150 01       		.byte	0x1
 1022 0151 08       		.byte	0x8
 1023 0152 87070000 		.4byte	.LASF25
 1024 0156 0F       		.uleb128 0xf
 1025 0157 4F010000 		.4byte	0x14f
 1026 015b 03       		.uleb128 0x3
ARM GAS  C:\Users\PCHAUT~1\AppData\Local\Temp\ccVnGr1y.s 			page 19


 1027 015c E9070000 		.4byte	.LASF26
 1028 0160 06       		.byte	0x6
 1029 0161 16       		.byte	0x16
 1030 0162 9B000000 		.4byte	0x9b
 1031 0166 10       		.uleb128 0x10
 1032 0167 C6030000 		.4byte	.LASF31
 1033 016b 18       		.byte	0x18
 1034 016c 06       		.byte	0x6
 1035 016d 2F       		.byte	0x2f
 1036 016e B9010000 		.4byte	0x1b9
 1037 0172 0D       		.uleb128 0xd
 1038 0173 B5070000 		.4byte	.LASF27
 1039 0177 06       		.byte	0x6
 1040 0178 31       		.byte	0x31
 1041 0179 B9010000 		.4byte	0x1b9
 1042 017d 00       		.byte	0
 1043 017e 11       		.uleb128 0x11
 1044 017f 5F6B00   		.ascii	"_k\000"
 1045 0182 06       		.byte	0x6
 1046 0183 32       		.byte	0x32
 1047 0184 25000000 		.4byte	0x25
 1048 0188 04       		.byte	0x4
 1049 0189 0D       		.uleb128 0xd
 1050 018a 22070000 		.4byte	.LASF28
 1051 018e 06       		.byte	0x6
 1052 018f 32       		.byte	0x32
 1053 0190 25000000 		.4byte	0x25
 1054 0194 08       		.byte	0x8
 1055 0195 0D       		.uleb128 0xd
 1056 0196 AF030000 		.4byte	.LASF29
 1057 019a 06       		.byte	0x6
 1058 019b 32       		.byte	0x32
 1059 019c 25000000 		.4byte	0x25
 1060 01a0 0C       		.byte	0xc
 1061 01a1 0D       		.uleb128 0xd
 1062 01a2 27080000 		.4byte	.LASF30
 1063 01a6 06       		.byte	0x6
 1064 01a7 32       		.byte	0x32
 1065 01a8 25000000 		.4byte	0x25
 1066 01ac 10       		.byte	0x10
 1067 01ad 11       		.uleb128 0x11
 1068 01ae 5F7800   		.ascii	"_x\000"
 1069 01b1 06       		.byte	0x6
 1070 01b2 33       		.byte	0x33
 1071 01b3 BF010000 		.4byte	0x1bf
 1072 01b7 14       		.byte	0x14
 1073 01b8 00       		.byte	0
 1074 01b9 05       		.uleb128 0x5
 1075 01ba 04       		.byte	0x4
 1076 01bb 66010000 		.4byte	0x166
 1077 01bf 0A       		.uleb128 0xa
 1078 01c0 5B010000 		.4byte	0x15b
 1079 01c4 CF010000 		.4byte	0x1cf
 1080 01c8 0B       		.uleb128 0xb
 1081 01c9 37000000 		.4byte	0x37
 1082 01cd 00       		.byte	0
 1083 01ce 00       		.byte	0
ARM GAS  C:\Users\PCHAUT~1\AppData\Local\Temp\ccVnGr1y.s 			page 20


 1084 01cf 10       		.uleb128 0x10
 1085 01d0 01040000 		.4byte	.LASF32
 1086 01d4 24       		.byte	0x24
 1087 01d5 06       		.byte	0x6
 1088 01d6 37       		.byte	0x37
 1089 01d7 48020000 		.4byte	0x248
 1090 01db 0D       		.uleb128 0xd
 1091 01dc 2D010000 		.4byte	.LASF33
 1092 01e0 06       		.byte	0x6
 1093 01e1 39       		.byte	0x39
 1094 01e2 25000000 		.4byte	0x25
 1095 01e6 00       		.byte	0
 1096 01e7 0D       		.uleb128 0xd
 1097 01e8 8C070000 		.4byte	.LASF34
 1098 01ec 06       		.byte	0x6
 1099 01ed 3A       		.byte	0x3a
 1100 01ee 25000000 		.4byte	0x25
 1101 01f2 04       		.byte	0x4
 1102 01f3 0D       		.uleb128 0xd
 1103 01f4 6C010000 		.4byte	.LASF35
 1104 01f8 06       		.byte	0x6
 1105 01f9 3B       		.byte	0x3b
 1106 01fa 25000000 		.4byte	0x25
 1107 01fe 08       		.byte	0x8
 1108 01ff 0D       		.uleb128 0xd
 1109 0200 C8080000 		.4byte	.LASF36
 1110 0204 06       		.byte	0x6
 1111 0205 3C       		.byte	0x3c
 1112 0206 25000000 		.4byte	0x25
 1113 020a 0C       		.byte	0xc
 1114 020b 0D       		.uleb128 0xd
 1115 020c 92050000 		.4byte	.LASF37
 1116 0210 06       		.byte	0x6
 1117 0211 3D       		.byte	0x3d
 1118 0212 25000000 		.4byte	0x25
 1119 0216 10       		.byte	0x10
 1120 0217 0D       		.uleb128 0xd
 1121 0218 2F050000 		.4byte	.LASF38
 1122 021c 06       		.byte	0x6
 1123 021d 3E       		.byte	0x3e
 1124 021e 25000000 		.4byte	0x25
 1125 0222 14       		.byte	0x14
 1126 0223 0D       		.uleb128 0xd
 1127 0224 2C080000 		.4byte	.LASF39
 1128 0228 06       		.byte	0x6
 1129 0229 3F       		.byte	0x3f
 1130 022a 25000000 		.4byte	0x25
 1131 022e 18       		.byte	0x18
 1132 022f 0D       		.uleb128 0xd
 1133 0230 42060000 		.4byte	.LASF40
 1134 0234 06       		.byte	0x6
 1135 0235 40       		.byte	0x40
 1136 0236 25000000 		.4byte	0x25
 1137 023a 1C       		.byte	0x1c
 1138 023b 0D       		.uleb128 0xd
 1139 023c 81080000 		.4byte	.LASF41
 1140 0240 06       		.byte	0x6
ARM GAS  C:\Users\PCHAUT~1\AppData\Local\Temp\ccVnGr1y.s 			page 21


 1141 0241 41       		.byte	0x41
 1142 0242 25000000 		.4byte	0x25
 1143 0246 20       		.byte	0x20
 1144 0247 00       		.byte	0
 1145 0248 12       		.uleb128 0x12
 1146 0249 7B010000 		.4byte	.LASF42
 1147 024d 0801     		.2byte	0x108
 1148 024f 06       		.byte	0x6
 1149 0250 4A       		.byte	0x4a
 1150 0251 88020000 		.4byte	0x288
 1151 0255 0D       		.uleb128 0xd
 1152 0256 7E030000 		.4byte	.LASF43
 1153 025a 06       		.byte	0x6
 1154 025b 4B       		.byte	0x4b
 1155 025c 88020000 		.4byte	0x288
 1156 0260 00       		.byte	0
 1157 0261 0D       		.uleb128 0xd
 1158 0262 00000000 		.4byte	.LASF44
 1159 0266 06       		.byte	0x6
 1160 0267 4C       		.byte	0x4c
 1161 0268 88020000 		.4byte	0x288
 1162 026c 80       		.byte	0x80
 1163 026d 13       		.uleb128 0x13
 1164 026e CF070000 		.4byte	.LASF45
 1165 0272 06       		.byte	0x6
 1166 0273 4E       		.byte	0x4e
 1167 0274 5B010000 		.4byte	0x15b
 1168 0278 0001     		.2byte	0x100
 1169 027a 13       		.uleb128 0x13
 1170 027b 05030000 		.4byte	.LASF46
 1171 027f 06       		.byte	0x6
 1172 0280 51       		.byte	0x51
 1173 0281 5B010000 		.4byte	0x15b
 1174 0285 0401     		.2byte	0x104
 1175 0287 00       		.byte	0
 1176 0288 0A       		.uleb128 0xa
 1177 0289 47010000 		.4byte	0x147
 1178 028d 98020000 		.4byte	0x298
 1179 0291 0B       		.uleb128 0xb
 1180 0292 37000000 		.4byte	0x37
 1181 0296 1F       		.byte	0x1f
 1182 0297 00       		.byte	0
 1183 0298 12       		.uleb128 0x12
 1184 0299 9B050000 		.4byte	.LASF47
 1185 029d 9001     		.2byte	0x190
 1186 029f 06       		.byte	0x6
 1187 02a0 5D       		.byte	0x5d
 1188 02a1 D6020000 		.4byte	0x2d6
 1189 02a5 0D       		.uleb128 0xd
 1190 02a6 B5070000 		.4byte	.LASF27
 1191 02aa 06       		.byte	0x6
 1192 02ab 5E       		.byte	0x5e
 1193 02ac D6020000 		.4byte	0x2d6
 1194 02b0 00       		.byte	0
 1195 02b1 0D       		.uleb128 0xd
 1196 02b2 B7060000 		.4byte	.LASF48
 1197 02b6 06       		.byte	0x6
ARM GAS  C:\Users\PCHAUT~1\AppData\Local\Temp\ccVnGr1y.s 			page 22


 1198 02b7 5F       		.byte	0x5f
 1199 02b8 25000000 		.4byte	0x25
 1200 02bc 04       		.byte	0x4
 1201 02bd 0D       		.uleb128 0xd
 1202 02be 9F030000 		.4byte	.LASF49
 1203 02c2 06       		.byte	0x6
 1204 02c3 61       		.byte	0x61
 1205 02c4 DC020000 		.4byte	0x2dc
 1206 02c8 08       		.byte	0x8
 1207 02c9 0D       		.uleb128 0xd
 1208 02ca 7B010000 		.4byte	.LASF42
 1209 02ce 06       		.byte	0x6
 1210 02cf 62       		.byte	0x62
 1211 02d0 48020000 		.4byte	0x248
 1212 02d4 88       		.byte	0x88
 1213 02d5 00       		.byte	0
 1214 02d6 05       		.uleb128 0x5
 1215 02d7 04       		.byte	0x4
 1216 02d8 98020000 		.4byte	0x298
 1217 02dc 0A       		.uleb128 0xa
 1218 02dd EC020000 		.4byte	0x2ec
 1219 02e1 EC020000 		.4byte	0x2ec
 1220 02e5 0B       		.uleb128 0xb
 1221 02e6 37000000 		.4byte	0x37
 1222 02ea 1F       		.byte	0x1f
 1223 02eb 00       		.byte	0
 1224 02ec 05       		.uleb128 0x5
 1225 02ed 04       		.byte	0x4
 1226 02ee F2020000 		.4byte	0x2f2
 1227 02f2 14       		.uleb128 0x14
 1228 02f3 10       		.uleb128 0x10
 1229 02f4 4C060000 		.4byte	.LASF50
 1230 02f8 08       		.byte	0x8
 1231 02f9 06       		.byte	0x6
 1232 02fa 75       		.byte	0x75
 1233 02fb 18030000 		.4byte	0x318
 1234 02ff 0D       		.uleb128 0xd
 1235 0300 66010000 		.4byte	.LASF51
 1236 0304 06       		.byte	0x6
 1237 0305 76       		.byte	0x76
 1238 0306 18030000 		.4byte	0x318
 1239 030a 00       		.byte	0
 1240 030b 0D       		.uleb128 0xd
 1241 030c 12000000 		.4byte	.LASF52
 1242 0310 06       		.byte	0x6
 1243 0311 77       		.byte	0x77
 1244 0312 25000000 		.4byte	0x25
 1245 0316 04       		.byte	0x4
 1246 0317 00       		.byte	0
 1247 0318 05       		.uleb128 0x5
 1248 0319 04       		.byte	0x4
 1249 031a 5E000000 		.4byte	0x5e
 1250 031e 10       		.uleb128 0x10
 1251 031f 7F060000 		.4byte	.LASF53
 1252 0323 68       		.byte	0x68
 1253 0324 06       		.byte	0x6
 1254 0325 B5       		.byte	0xb5
ARM GAS  C:\Users\PCHAUT~1\AppData\Local\Temp\ccVnGr1y.s 			page 23


 1255 0326 48040000 		.4byte	0x448
 1256 032a 11       		.uleb128 0x11
 1257 032b 5F7000   		.ascii	"_p\000"
 1258 032e 06       		.byte	0x6
 1259 032f B6       		.byte	0xb6
 1260 0330 18030000 		.4byte	0x318
 1261 0334 00       		.byte	0
 1262 0335 11       		.uleb128 0x11
 1263 0336 5F7200   		.ascii	"_r\000"
 1264 0339 06       		.byte	0x6
 1265 033a B7       		.byte	0xb7
 1266 033b 25000000 		.4byte	0x25
 1267 033f 04       		.byte	0x4
 1268 0340 11       		.uleb128 0x11
 1269 0341 5F7700   		.ascii	"_w\000"
 1270 0344 06       		.byte	0x6
 1271 0345 B8       		.byte	0xb8
 1272 0346 25000000 		.4byte	0x25
 1273 034a 08       		.byte	0x8
 1274 034b 0D       		.uleb128 0xd
 1275 034c FE020000 		.4byte	.LASF54
 1276 0350 06       		.byte	0x6
 1277 0351 B9       		.byte	0xb9
 1278 0352 65000000 		.4byte	0x65
 1279 0356 0C       		.byte	0xc
 1280 0357 0D       		.uleb128 0xd
 1281 0358 42040000 		.4byte	.LASF55
 1282 035c 06       		.byte	0x6
 1283 035d BA       		.byte	0xba
 1284 035e 65000000 		.4byte	0x65
 1285 0362 0E       		.byte	0xe
 1286 0363 11       		.uleb128 0x11
 1287 0364 5F626600 		.ascii	"_bf\000"
 1288 0368 06       		.byte	0x6
 1289 0369 BB       		.byte	0xbb
 1290 036a F3020000 		.4byte	0x2f3
 1291 036e 10       		.byte	0x10
 1292 036f 0D       		.uleb128 0xd
 1293 0370 F1000000 		.4byte	.LASF56
 1294 0374 06       		.byte	0x6
 1295 0375 BC       		.byte	0xbc
 1296 0376 25000000 		.4byte	0x25
 1297 037a 18       		.byte	0x18
 1298 037b 0D       		.uleb128 0xd
 1299 037c 9A010000 		.4byte	.LASF57
 1300 0380 06       		.byte	0x6
 1301 0381 C3       		.byte	0xc3
 1302 0382 47010000 		.4byte	0x147
 1303 0386 1C       		.byte	0x1c
 1304 0387 0D       		.uleb128 0xd
 1305 0388 F1030000 		.4byte	.LASF58
 1306 038c 06       		.byte	0x6
 1307 038d C5       		.byte	0xc5
 1308 038e A3050000 		.4byte	0x5a3
 1309 0392 20       		.byte	0x20
 1310 0393 0D       		.uleb128 0xd
 1311 0394 28050000 		.4byte	.LASF59
ARM GAS  C:\Users\PCHAUT~1\AppData\Local\Temp\ccVnGr1y.s 			page 24


 1312 0398 06       		.byte	0x6
 1313 0399 C7       		.byte	0xc7
 1314 039a CD050000 		.4byte	0x5cd
 1315 039e 24       		.byte	0x24
 1316 039f 0D       		.uleb128 0xd
 1317 03a0 5F070000 		.4byte	.LASF60
 1318 03a4 06       		.byte	0x6
 1319 03a5 CA       		.byte	0xca
 1320 03a6 F1050000 		.4byte	0x5f1
 1321 03aa 28       		.byte	0x28
 1322 03ab 0D       		.uleb128 0xd
 1323 03ac 9B080000 		.4byte	.LASF61
 1324 03b0 06       		.byte	0x6
 1325 03b1 CB       		.byte	0xcb
 1326 03b2 0B060000 		.4byte	0x60b
 1327 03b6 2C       		.byte	0x2c
 1328 03b7 11       		.uleb128 0x11
 1329 03b8 5F756200 		.ascii	"_ub\000"
 1330 03bc 06       		.byte	0x6
 1331 03bd CE       		.byte	0xce
 1332 03be F3020000 		.4byte	0x2f3
 1333 03c2 30       		.byte	0x30
 1334 03c3 11       		.uleb128 0x11
 1335 03c4 5F757000 		.ascii	"_up\000"
 1336 03c8 06       		.byte	0x6
 1337 03c9 CF       		.byte	0xcf
 1338 03ca 18030000 		.4byte	0x318
 1339 03ce 38       		.byte	0x38
 1340 03cf 11       		.uleb128 0x11
 1341 03d0 5F757200 		.ascii	"_ur\000"
 1342 03d4 06       		.byte	0x6
 1343 03d5 D0       		.byte	0xd0
 1344 03d6 25000000 		.4byte	0x25
 1345 03da 3C       		.byte	0x3c
 1346 03db 0D       		.uleb128 0xd
 1347 03dc 58010000 		.4byte	.LASF62
 1348 03e0 06       		.byte	0x6
 1349 03e1 D3       		.byte	0xd3
 1350 03e2 11060000 		.4byte	0x611
 1351 03e6 40       		.byte	0x40
 1352 03e7 0D       		.uleb128 0xd
 1353 03e8 73080000 		.4byte	.LASF63
 1354 03ec 06       		.byte	0x6
 1355 03ed D4       		.byte	0xd4
 1356 03ee 21060000 		.4byte	0x621
 1357 03f2 43       		.byte	0x43
 1358 03f3 11       		.uleb128 0x11
 1359 03f4 5F6C6200 		.ascii	"_lb\000"
 1360 03f8 06       		.byte	0x6
 1361 03f9 D7       		.byte	0xd7
 1362 03fa F3020000 		.4byte	0x2f3
 1363 03fe 44       		.byte	0x44
 1364 03ff 0D       		.uleb128 0xd
 1365 0400 14030000 		.4byte	.LASF64
 1366 0404 06       		.byte	0x6
 1367 0405 DA       		.byte	0xda
 1368 0406 25000000 		.4byte	0x25
ARM GAS  C:\Users\PCHAUT~1\AppData\Local\Temp\ccVnGr1y.s 			page 25


 1369 040a 4C       		.byte	0x4c
 1370 040b 0D       		.uleb128 0xd
 1371 040c 57030000 		.4byte	.LASF65
 1372 0410 06       		.byte	0x6
 1373 0411 DB       		.byte	0xdb
 1374 0412 BF000000 		.4byte	0xbf
 1375 0416 50       		.byte	0x50
 1376 0417 0D       		.uleb128 0xd
 1377 0418 77000000 		.4byte	.LASF66
 1378 041c 06       		.byte	0x6
 1379 041d DE       		.byte	0xde
 1380 041e 66040000 		.4byte	0x466
 1381 0422 54       		.byte	0x54
 1382 0423 0D       		.uleb128 0xd
 1383 0424 09050000 		.4byte	.LASF67
 1384 0428 06       		.byte	0x6
 1385 0429 E2       		.byte	0xe2
 1386 042a 3C010000 		.4byte	0x13c
 1387 042e 58       		.byte	0x58
 1388 042f 0D       		.uleb128 0xd
 1389 0430 87060000 		.4byte	.LASF68
 1390 0434 06       		.byte	0x6
 1391 0435 E4       		.byte	0xe4
 1392 0436 31010000 		.4byte	0x131
 1393 043a 5C       		.byte	0x5c
 1394 043b 0D       		.uleb128 0xd
 1395 043c 20050000 		.4byte	.LASF69
 1396 0440 06       		.byte	0x6
 1397 0441 E5       		.byte	0xe5
 1398 0442 25000000 		.4byte	0x25
 1399 0446 64       		.byte	0x64
 1400 0447 00       		.byte	0
 1401 0448 15       		.uleb128 0x15
 1402 0449 25000000 		.4byte	0x25
 1403 044d 66040000 		.4byte	0x466
 1404 0451 16       		.uleb128 0x16
 1405 0452 66040000 		.4byte	0x466
 1406 0456 16       		.uleb128 0x16
 1407 0457 47010000 		.4byte	0x147
 1408 045b 16       		.uleb128 0x16
 1409 045c 49010000 		.4byte	0x149
 1410 0460 16       		.uleb128 0x16
 1411 0461 25000000 		.4byte	0x25
 1412 0465 00       		.byte	0
 1413 0466 05       		.uleb128 0x5
 1414 0467 04       		.byte	0x4
 1415 0468 71040000 		.4byte	0x471
 1416 046c 0F       		.uleb128 0xf
 1417 046d 66040000 		.4byte	0x466
 1418 0471 17       		.uleb128 0x17
 1419 0472 2A070000 		.4byte	.LASF70
 1420 0476 2804     		.2byte	0x428
 1421 0478 06       		.byte	0x6
 1422 0479 3902     		.2byte	0x239
 1423 047b A3050000 		.4byte	0x5a3
 1424 047f 18       		.uleb128 0x18
 1425 0480 80070000 		.4byte	.LASF71
ARM GAS  C:\Users\PCHAUT~1\AppData\Local\Temp\ccVnGr1y.s 			page 26


 1426 0484 06       		.byte	0x6
 1427 0485 3B02     		.2byte	0x23b
 1428 0487 25000000 		.4byte	0x25
 1429 048b 00       		.byte	0
 1430 048c 18       		.uleb128 0x18
 1431 048d 0D030000 		.4byte	.LASF72
 1432 0491 06       		.byte	0x6
 1433 0492 4002     		.2byte	0x240
 1434 0494 78060000 		.4byte	0x678
 1435 0498 04       		.byte	0x4
 1436 0499 18       		.uleb128 0x18
 1437 049a 20040000 		.4byte	.LASF73
 1438 049e 06       		.byte	0x6
 1439 049f 4002     		.2byte	0x240
 1440 04a1 78060000 		.4byte	0x678
 1441 04a5 08       		.byte	0x8
 1442 04a6 18       		.uleb128 0x18
 1443 04a7 BE030000 		.4byte	.LASF74
 1444 04ab 06       		.byte	0x6
 1445 04ac 4002     		.2byte	0x240
 1446 04ae 78060000 		.4byte	0x678
 1447 04b2 0C       		.byte	0xc
 1448 04b3 18       		.uleb128 0x18
 1449 04b4 B2060000 		.4byte	.LASF75
 1450 04b8 06       		.byte	0x6
 1451 04b9 4202     		.2byte	0x242
 1452 04bb 25000000 		.4byte	0x25
 1453 04bf 10       		.byte	0x10
 1454 04c0 18       		.uleb128 0x18
 1455 04c1 5C000000 		.4byte	.LASF76
 1456 04c5 06       		.byte	0x6
 1457 04c6 4302     		.2byte	0x243
 1458 04c8 5A080000 		.4byte	0x85a
 1459 04cc 14       		.byte	0x14
 1460 04cd 18       		.uleb128 0x18
 1461 04ce 09070000 		.4byte	.LASF77
 1462 04d2 06       		.byte	0x6
 1463 04d3 4602     		.2byte	0x246
 1464 04d5 25000000 		.4byte	0x25
 1465 04d9 30       		.byte	0x30
 1466 04da 18       		.uleb128 0x18
 1467 04db F7060000 		.4byte	.LASF78
 1468 04df 06       		.byte	0x6
 1469 04e0 4702     		.2byte	0x247
 1470 04e2 6F080000 		.4byte	0x86f
 1471 04e6 34       		.byte	0x34
 1472 04e7 18       		.uleb128 0x18
 1473 04e8 AD050000 		.4byte	.LASF79
 1474 04ec 06       		.byte	0x6
 1475 04ed 4902     		.2byte	0x249
 1476 04ef 25000000 		.4byte	0x25
 1477 04f3 38       		.byte	0x38
 1478 04f4 18       		.uleb128 0x18
 1479 04f5 FF060000 		.4byte	.LASF80
 1480 04f9 06       		.byte	0x6
 1481 04fa 4B02     		.2byte	0x24b
 1482 04fc 80080000 		.4byte	0x880
ARM GAS  C:\Users\PCHAUT~1\AppData\Local\Temp\ccVnGr1y.s 			page 27


 1483 0500 3C       		.byte	0x3c
 1484 0501 18       		.uleb128 0x18
 1485 0502 E4040000 		.4byte	.LASF81
 1486 0506 06       		.byte	0x6
 1487 0507 4E02     		.2byte	0x24e
 1488 0509 B9010000 		.4byte	0x1b9
 1489 050d 40       		.byte	0x40
 1490 050e 18       		.uleb128 0x18
 1491 050f F7030000 		.4byte	.LASF82
 1492 0513 06       		.byte	0x6
 1493 0514 4F02     		.2byte	0x24f
 1494 0516 25000000 		.4byte	0x25
 1495 051a 44       		.byte	0x44
 1496 051b 18       		.uleb128 0x18
 1497 051c B5080000 		.4byte	.LASF83
 1498 0520 06       		.byte	0x6
 1499 0521 5002     		.2byte	0x250
 1500 0523 B9010000 		.4byte	0x1b9
 1501 0527 48       		.byte	0x48
 1502 0528 18       		.uleb128 0x18
 1503 0529 D2050000 		.4byte	.LASF84
 1504 052d 06       		.byte	0x6
 1505 052e 5102     		.2byte	0x251
 1506 0530 86080000 		.4byte	0x886
 1507 0534 4C       		.byte	0x4c
 1508 0535 18       		.uleb128 0x18
 1509 0536 28040000 		.4byte	.LASF85
 1510 053a 06       		.byte	0x6
 1511 053b 5402     		.2byte	0x254
 1512 053d 25000000 		.4byte	0x25
 1513 0541 50       		.byte	0x50
 1514 0542 18       		.uleb128 0x18
 1515 0543 4F030000 		.4byte	.LASF86
 1516 0547 06       		.byte	0x6
 1517 0548 5502     		.2byte	0x255
 1518 054a 49010000 		.4byte	0x149
 1519 054e 54       		.byte	0x54
 1520 054f 18       		.uleb128 0x18
 1521 0550 2A060000 		.4byte	.LASF87
 1522 0554 06       		.byte	0x6
 1523 0555 7802     		.2byte	0x278
 1524 0557 38080000 		.4byte	0x838
 1525 055b 58       		.byte	0x58
 1526 055c 19       		.uleb128 0x19
 1527 055d 9B050000 		.4byte	.LASF47
 1528 0561 06       		.byte	0x6
 1529 0562 7C02     		.2byte	0x27c
 1530 0564 D6020000 		.4byte	0x2d6
 1531 0568 4801     		.2byte	0x148
 1532 056a 19       		.uleb128 0x19
 1533 056b 84040000 		.4byte	.LASF88
 1534 056f 06       		.byte	0x6
 1535 0570 7D02     		.2byte	0x27d
 1536 0572 98020000 		.4byte	0x298
 1537 0576 4C01     		.2byte	0x14c
 1538 0578 19       		.uleb128 0x19
 1539 0579 4F080000 		.4byte	.LASF89
ARM GAS  C:\Users\PCHAUT~1\AppData\Local\Temp\ccVnGr1y.s 			page 28


 1540 057d 06       		.byte	0x6
 1541 057e 8102     		.2byte	0x281
 1542 0580 97080000 		.4byte	0x897
 1543 0584 DC02     		.2byte	0x2dc
 1544 0586 19       		.uleb128 0x19
 1545 0587 A9010000 		.4byte	.LASF90
 1546 058b 06       		.byte	0x6
 1547 058c 8602     		.2byte	0x286
 1548 058e 3D060000 		.4byte	0x63d
 1549 0592 E002     		.2byte	0x2e0
 1550 0594 19       		.uleb128 0x19
 1551 0595 76010000 		.4byte	.LASF91
 1552 0599 06       		.byte	0x6
 1553 059a 8802     		.2byte	0x288
 1554 059c A3080000 		.4byte	0x8a3
 1555 05a0 EC02     		.2byte	0x2ec
 1556 05a2 00       		.byte	0
 1557 05a3 05       		.uleb128 0x5
 1558 05a4 04       		.byte	0x4
 1559 05a5 48040000 		.4byte	0x448
 1560 05a9 15       		.uleb128 0x15
 1561 05aa 25000000 		.4byte	0x25
 1562 05ae C7050000 		.4byte	0x5c7
 1563 05b2 16       		.uleb128 0x16
 1564 05b3 66040000 		.4byte	0x466
 1565 05b7 16       		.uleb128 0x16
 1566 05b8 47010000 		.4byte	0x147
 1567 05bc 16       		.uleb128 0x16
 1568 05bd C7050000 		.4byte	0x5c7
 1569 05c1 16       		.uleb128 0x16
 1570 05c2 25000000 		.4byte	0x25
 1571 05c6 00       		.byte	0
 1572 05c7 05       		.uleb128 0x5
 1573 05c8 04       		.byte	0x4
 1574 05c9 56010000 		.4byte	0x156
 1575 05cd 05       		.uleb128 0x5
 1576 05ce 04       		.byte	0x4
 1577 05cf A9050000 		.4byte	0x5a9
 1578 05d3 15       		.uleb128 0x15
 1579 05d4 CA000000 		.4byte	0xca
 1580 05d8 F1050000 		.4byte	0x5f1
 1581 05dc 16       		.uleb128 0x16
 1582 05dd 66040000 		.4byte	0x466
 1583 05e1 16       		.uleb128 0x16
 1584 05e2 47010000 		.4byte	0x147
 1585 05e6 16       		.uleb128 0x16
 1586 05e7 CA000000 		.4byte	0xca
 1587 05eb 16       		.uleb128 0x16
 1588 05ec 25000000 		.4byte	0x25
 1589 05f0 00       		.byte	0
 1590 05f1 05       		.uleb128 0x5
 1591 05f2 04       		.byte	0x4
 1592 05f3 D3050000 		.4byte	0x5d3
 1593 05f7 15       		.uleb128 0x15
 1594 05f8 25000000 		.4byte	0x25
 1595 05fc 0B060000 		.4byte	0x60b
 1596 0600 16       		.uleb128 0x16
ARM GAS  C:\Users\PCHAUT~1\AppData\Local\Temp\ccVnGr1y.s 			page 29


 1597 0601 66040000 		.4byte	0x466
 1598 0605 16       		.uleb128 0x16
 1599 0606 47010000 		.4byte	0x147
 1600 060a 00       		.byte	0
 1601 060b 05       		.uleb128 0x5
 1602 060c 04       		.byte	0x4
 1603 060d F7050000 		.4byte	0x5f7
 1604 0611 0A       		.uleb128 0xa
 1605 0612 5E000000 		.4byte	0x5e
 1606 0616 21060000 		.4byte	0x621
 1607 061a 0B       		.uleb128 0xb
 1608 061b 37000000 		.4byte	0x37
 1609 061f 02       		.byte	0x2
 1610 0620 00       		.byte	0
 1611 0621 0A       		.uleb128 0xa
 1612 0622 5E000000 		.4byte	0x5e
 1613 0626 31060000 		.4byte	0x631
 1614 062a 0B       		.uleb128 0xb
 1615 062b 37000000 		.4byte	0x37
 1616 062f 00       		.byte	0
 1617 0630 00       		.byte	0
 1618 0631 07       		.uleb128 0x7
 1619 0632 6D060000 		.4byte	.LASF92
 1620 0636 06       		.byte	0x6
 1621 0637 1F01     		.2byte	0x11f
 1622 0639 1E030000 		.4byte	0x31e
 1623 063d 1A       		.uleb128 0x1a
 1624 063e 36080000 		.4byte	.LASF93
 1625 0642 0C       		.byte	0xc
 1626 0643 06       		.byte	0x6
 1627 0644 2301     		.2byte	0x123
 1628 0646 72060000 		.4byte	0x672
 1629 064a 18       		.uleb128 0x18
 1630 064b B5070000 		.4byte	.LASF27
 1631 064f 06       		.byte	0x6
 1632 0650 2501     		.2byte	0x125
 1633 0652 72060000 		.4byte	0x672
 1634 0656 00       		.byte	0
 1635 0657 18       		.uleb128 0x18
 1636 0658 53040000 		.4byte	.LASF94
 1637 065c 06       		.byte	0x6
 1638 065d 2601     		.2byte	0x126
 1639 065f 25000000 		.4byte	0x25
 1640 0663 04       		.byte	0x4
 1641 0664 18       		.uleb128 0x18
 1642 0665 67060000 		.4byte	.LASF95
 1643 0669 06       		.byte	0x6
 1644 066a 2701     		.2byte	0x127
 1645 066c 78060000 		.4byte	0x678
 1646 0670 08       		.byte	0x8
 1647 0671 00       		.byte	0
 1648 0672 05       		.uleb128 0x5
 1649 0673 04       		.byte	0x4
 1650 0674 3D060000 		.4byte	0x63d
 1651 0678 05       		.uleb128 0x5
 1652 0679 04       		.byte	0x4
 1653 067a 31060000 		.4byte	0x631
ARM GAS  C:\Users\PCHAUT~1\AppData\Local\Temp\ccVnGr1y.s 			page 30


 1654 067e 1A       		.uleb128 0x1a
 1655 067f 37000000 		.4byte	.LASF96
 1656 0683 0E       		.byte	0xe
 1657 0684 06       		.byte	0x6
 1658 0685 3F01     		.2byte	0x13f
 1659 0687 B3060000 		.4byte	0x6b3
 1660 068b 18       		.uleb128 0x18
 1661 068c 31070000 		.4byte	.LASF97
 1662 0690 06       		.byte	0x6
 1663 0691 4001     		.2byte	0x140
 1664 0693 B3060000 		.4byte	0x6b3
 1665 0697 00       		.byte	0
 1666 0698 18       		.uleb128 0x18
 1667 0699 AF070000 		.4byte	.LASF98
 1668 069d 06       		.byte	0x6
 1669 069e 4101     		.2byte	0x141
 1670 06a0 B3060000 		.4byte	0x6b3
 1671 06a4 06       		.byte	0x6
 1672 06a5 18       		.uleb128 0x18
 1673 06a6 E4070000 		.4byte	.LASF99
 1674 06aa 06       		.byte	0x6
 1675 06ab 4201     		.2byte	0x142
 1676 06ad 77000000 		.4byte	0x77
 1677 06b1 0C       		.byte	0xc
 1678 06b2 00       		.byte	0
 1679 06b3 0A       		.uleb128 0xa
 1680 06b4 77000000 		.4byte	0x77
 1681 06b8 C3060000 		.4byte	0x6c3
 1682 06bc 0B       		.uleb128 0xb
 1683 06bd 37000000 		.4byte	0x37
 1684 06c1 02       		.byte	0x2
 1685 06c2 00       		.byte	0
 1686 06c3 1B       		.uleb128 0x1b
 1687 06c4 D0       		.byte	0xd0
 1688 06c5 06       		.byte	0x6
 1689 06c6 5902     		.2byte	0x259
 1690 06c8 C4070000 		.4byte	0x7c4
 1691 06cc 18       		.uleb128 0x18
 1692 06cd 1A080000 		.4byte	.LASF100
 1693 06d1 06       		.byte	0x6
 1694 06d2 5B02     		.2byte	0x25b
 1695 06d4 37000000 		.4byte	0x37
 1696 06d8 00       		.byte	0
 1697 06d9 18       		.uleb128 0x18
 1698 06da BB070000 		.4byte	.LASF101
 1699 06de 06       		.byte	0x6
 1700 06df 5C02     		.2byte	0x25c
 1701 06e1 49010000 		.4byte	0x149
 1702 06e5 04       		.byte	0x4
 1703 06e6 18       		.uleb128 0x18
 1704 06e7 99040000 		.4byte	.LASF102
 1705 06eb 06       		.byte	0x6
 1706 06ec 5D02     		.2byte	0x25d
 1707 06ee C4070000 		.4byte	0x7c4
 1708 06f2 08       		.byte	0x8
 1709 06f3 18       		.uleb128 0x18
 1710 06f4 8C080000 		.4byte	.LASF103
ARM GAS  C:\Users\PCHAUT~1\AppData\Local\Temp\ccVnGr1y.s 			page 31


 1711 06f8 06       		.byte	0x6
 1712 06f9 5E02     		.2byte	0x25e
 1713 06fb CF010000 		.4byte	0x1cf
 1714 06ff 24       		.byte	0x24
 1715 0700 18       		.uleb128 0x18
 1716 0701 CE030000 		.4byte	.LASF104
 1717 0705 06       		.byte	0x6
 1718 0706 5F02     		.2byte	0x25f
 1719 0708 25000000 		.4byte	0x25
 1720 070c 48       		.byte	0x48
 1721 070d 18       		.uleb128 0x18
 1722 070e 90060000 		.4byte	.LASF105
 1723 0712 06       		.byte	0x6
 1724 0713 6002     		.2byte	0x260
 1725 0715 A2000000 		.4byte	0xa2
 1726 0719 50       		.byte	0x50
 1727 071a 18       		.uleb128 0x18
 1728 071b A2080000 		.4byte	.LASF106
 1729 071f 06       		.byte	0x6
 1730 0720 6102     		.2byte	0x261
 1731 0722 7E060000 		.4byte	0x67e
 1732 0726 58       		.byte	0x58
 1733 0727 18       		.uleb128 0x18
 1734 0728 A5060000 		.4byte	.LASF107
 1735 072c 06       		.byte	0x6
 1736 072d 6202     		.2byte	0x262
 1737 072f 31010000 		.4byte	0x131
 1738 0733 68       		.byte	0x68
 1739 0734 18       		.uleb128 0x18
 1740 0735 A7080000 		.4byte	.LASF108
 1741 0739 06       		.byte	0x6
 1742 073a 6302     		.2byte	0x263
 1743 073c 31010000 		.4byte	0x131
 1744 0740 70       		.byte	0x70
 1745 0741 18       		.uleb128 0x18
 1746 0742 F8050000 		.4byte	.LASF109
 1747 0746 06       		.byte	0x6
 1748 0747 6402     		.2byte	0x264
 1749 0749 31010000 		.4byte	0x131
 1750 074d 78       		.byte	0x78
 1751 074e 18       		.uleb128 0x18
 1752 074f 45080000 		.4byte	.LASF110
 1753 0753 06       		.byte	0x6
 1754 0754 6502     		.2byte	0x265
 1755 0756 D4070000 		.4byte	0x7d4
 1756 075a 80       		.byte	0x80
 1757 075b 18       		.uleb128 0x18
 1758 075c 8D040000 		.4byte	.LASF111
 1759 0760 06       		.byte	0x6
 1760 0761 6602     		.2byte	0x266
 1761 0763 E4070000 		.4byte	0x7e4
 1762 0767 88       		.byte	0x88
 1763 0768 18       		.uleb128 0x18
 1764 0769 F1070000 		.4byte	.LASF112
 1765 076d 06       		.byte	0x6
 1766 076e 6702     		.2byte	0x267
 1767 0770 25000000 		.4byte	0x25
ARM GAS  C:\Users\PCHAUT~1\AppData\Local\Temp\ccVnGr1y.s 			page 32


 1768 0774 A0       		.byte	0xa0
 1769 0775 18       		.uleb128 0x18
 1770 0776 70030000 		.4byte	.LASF113
 1771 077a 06       		.byte	0x6
 1772 077b 6802     		.2byte	0x268
 1773 077d 31010000 		.4byte	0x131
 1774 0781 A4       		.byte	0xa4
 1775 0782 18       		.uleb128 0x18
 1776 0783 19010000 		.4byte	.LASF114
 1777 0787 06       		.byte	0x6
 1778 0788 6902     		.2byte	0x269
 1779 078a 31010000 		.4byte	0x131
 1780 078e AC       		.byte	0xac
 1781 078f 18       		.uleb128 0x18
 1782 0790 5F030000 		.4byte	.LASF115
 1783 0794 06       		.byte	0x6
 1784 0795 6A02     		.2byte	0x26a
 1785 0797 31010000 		.4byte	0x131
 1786 079b B4       		.byte	0xb4
 1787 079c 18       		.uleb128 0x18
 1788 079d AE000000 		.4byte	.LASF116
 1789 07a1 06       		.byte	0x6
 1790 07a2 6B02     		.2byte	0x26b
 1791 07a4 31010000 		.4byte	0x131
 1792 07a8 BC       		.byte	0xbc
 1793 07a9 18       		.uleb128 0x18
 1794 07aa C9000000 		.4byte	.LASF117
 1795 07ae 06       		.byte	0x6
 1796 07af 6C02     		.2byte	0x26c
 1797 07b1 31010000 		.4byte	0x131
 1798 07b5 C4       		.byte	0xc4
 1799 07b6 18       		.uleb128 0x18
 1800 07b7 2F060000 		.4byte	.LASF118
 1801 07bb 06       		.byte	0x6
 1802 07bc 6D02     		.2byte	0x26d
 1803 07be 25000000 		.4byte	0x25
 1804 07c2 CC       		.byte	0xcc
 1805 07c3 00       		.byte	0
 1806 07c4 0A       		.uleb128 0xa
 1807 07c5 4F010000 		.4byte	0x14f
 1808 07c9 D4070000 		.4byte	0x7d4
 1809 07cd 0B       		.uleb128 0xb
 1810 07ce 37000000 		.4byte	0x37
 1811 07d2 19       		.byte	0x19
 1812 07d3 00       		.byte	0
 1813 07d4 0A       		.uleb128 0xa
 1814 07d5 4F010000 		.4byte	0x14f
 1815 07d9 E4070000 		.4byte	0x7e4
 1816 07dd 0B       		.uleb128 0xb
 1817 07de 37000000 		.4byte	0x37
 1818 07e2 07       		.byte	0x7
 1819 07e3 00       		.byte	0
 1820 07e4 0A       		.uleb128 0xa
 1821 07e5 4F010000 		.4byte	0x14f
 1822 07e9 F4070000 		.4byte	0x7f4
 1823 07ed 0B       		.uleb128 0xb
 1824 07ee 37000000 		.4byte	0x37
ARM GAS  C:\Users\PCHAUT~1\AppData\Local\Temp\ccVnGr1y.s 			page 33


 1825 07f2 17       		.byte	0x17
 1826 07f3 00       		.byte	0
 1827 07f4 1B       		.uleb128 0x1b
 1828 07f5 F0       		.byte	0xf0
 1829 07f6 06       		.byte	0x6
 1830 07f7 7202     		.2byte	0x272
 1831 07f9 18080000 		.4byte	0x818
 1832 07fd 18       		.uleb128 0x18
 1833 07fe 66050000 		.4byte	.LASF119
 1834 0802 06       		.byte	0x6
 1835 0803 7502     		.2byte	0x275
 1836 0805 18080000 		.4byte	0x818
 1837 0809 00       		.byte	0
 1838 080a 18       		.uleb128 0x18
 1839 080b 3C080000 		.4byte	.LASF120
 1840 080f 06       		.byte	0x6
 1841 0810 7602     		.2byte	0x276
 1842 0812 28080000 		.4byte	0x828
 1843 0816 78       		.byte	0x78
 1844 0817 00       		.byte	0
 1845 0818 0A       		.uleb128 0xa
 1846 0819 18030000 		.4byte	0x318
 1847 081d 28080000 		.4byte	0x828
 1848 0821 0B       		.uleb128 0xb
 1849 0822 37000000 		.4byte	0x37
 1850 0826 1D       		.byte	0x1d
 1851 0827 00       		.byte	0
 1852 0828 0A       		.uleb128 0xa
 1853 0829 37000000 		.4byte	0x37
 1854 082d 38080000 		.4byte	0x838
 1855 0831 0B       		.uleb128 0xb
 1856 0832 37000000 		.4byte	0x37
 1857 0836 1D       		.byte	0x1d
 1858 0837 00       		.byte	0
 1859 0838 1C       		.uleb128 0x1c
 1860 0839 F0       		.byte	0xf0
 1861 083a 06       		.byte	0x6
 1862 083b 5702     		.2byte	0x257
 1863 083d 5A080000 		.4byte	0x85a
 1864 0841 1D       		.uleb128 0x1d
 1865 0842 2A070000 		.4byte	.LASF70
 1866 0846 06       		.byte	0x6
 1867 0847 6E02     		.2byte	0x26e
 1868 0849 C3060000 		.4byte	0x6c3
 1869 084d 1D       		.uleb128 0x1d
 1870 084e 79080000 		.4byte	.LASF121
 1871 0852 06       		.byte	0x6
 1872 0853 7702     		.2byte	0x277
 1873 0855 F4070000 		.4byte	0x7f4
 1874 0859 00       		.byte	0
 1875 085a 0A       		.uleb128 0xa
 1876 085b 4F010000 		.4byte	0x14f
 1877 085f 6A080000 		.4byte	0x86a
 1878 0863 0B       		.uleb128 0xb
 1879 0864 37000000 		.4byte	0x37
 1880 0868 18       		.byte	0x18
 1881 0869 00       		.byte	0
ARM GAS  C:\Users\PCHAUT~1\AppData\Local\Temp\ccVnGr1y.s 			page 34


 1882 086a 06       		.uleb128 0x6
 1883 086b FA000000 		.4byte	.LASF123
 1884 086f 05       		.uleb128 0x5
 1885 0870 04       		.byte	0x4
 1886 0871 6A080000 		.4byte	0x86a
 1887 0875 1E       		.uleb128 0x1e
 1888 0876 80080000 		.4byte	0x880
 1889 087a 16       		.uleb128 0x16
 1890 087b 66040000 		.4byte	0x466
 1891 087f 00       		.byte	0
 1892 0880 05       		.uleb128 0x5
 1893 0881 04       		.byte	0x4
 1894 0882 75080000 		.4byte	0x875
 1895 0886 05       		.uleb128 0x5
 1896 0887 04       		.byte	0x4
 1897 0888 B9010000 		.4byte	0x1b9
 1898 088c 1E       		.uleb128 0x1e
 1899 088d 97080000 		.4byte	0x897
 1900 0891 16       		.uleb128 0x16
 1901 0892 25000000 		.4byte	0x25
 1902 0896 00       		.byte	0
 1903 0897 05       		.uleb128 0x5
 1904 0898 04       		.byte	0x4
 1905 0899 9D080000 		.4byte	0x89d
 1906 089d 05       		.uleb128 0x5
 1907 089e 04       		.byte	0x4
 1908 089f 8C080000 		.4byte	0x88c
 1909 08a3 0A       		.uleb128 0xa
 1910 08a4 31060000 		.4byte	0x631
 1911 08a8 B3080000 		.4byte	0x8b3
 1912 08ac 0B       		.uleb128 0xb
 1913 08ad 37000000 		.4byte	0x37
 1914 08b1 02       		.byte	0x2
 1915 08b2 00       		.byte	0
 1916 08b3 1F       		.uleb128 0x1f
 1917 08b4 65070000 		.4byte	.LASF124
 1918 08b8 06       		.byte	0x6
 1919 08b9 0703     		.2byte	0x307
 1920 08bb 66040000 		.4byte	0x466
 1921 08bf 1F       		.uleb128 0x1f
 1922 08c0 FE070000 		.4byte	.LASF125
 1923 08c4 06       		.byte	0x6
 1924 08c5 0803     		.2byte	0x308
 1925 08c7 6C040000 		.4byte	0x46c
 1926 08cb 03       		.uleb128 0x3
 1927 08cc BF050000 		.4byte	.LASF126
 1928 08d0 07       		.byte	0x7
 1929 08d1 18       		.byte	0x18
 1930 08d2 53000000 		.4byte	0x53
 1931 08d6 03       		.uleb128 0x3
 1932 08d7 2F030000 		.4byte	.LASF127
 1933 08db 07       		.byte	0x7
 1934 08dc 24       		.byte	0x24
 1935 08dd 6C000000 		.4byte	0x6c
 1936 08e1 03       		.uleb128 0x3
 1937 08e2 0C060000 		.4byte	.LASF128
 1938 08e6 07       		.byte	0x7
ARM GAS  C:\Users\PCHAUT~1\AppData\Local\Temp\ccVnGr1y.s 			page 35


 1939 08e7 2C       		.byte	0x2c
 1940 08e8 7E000000 		.4byte	0x7e
 1941 08ec 03       		.uleb128 0x3
 1942 08ed 11080000 		.4byte	.LASF129
 1943 08f1 07       		.byte	0x7
 1944 08f2 30       		.byte	0x30
 1945 08f3 90000000 		.4byte	0x90
 1946 08f7 05       		.uleb128 0x5
 1947 08f8 04       		.byte	0x4
 1948 08f9 FD080000 		.4byte	0x8fd
 1949 08fd 20       		.uleb128 0x20
 1950 08fe 21       		.uleb128 0x21
 1951 08ff A3050000 		.4byte	.LASF130
 1952 0903 08       		.byte	0x8
 1953 0904 63       		.byte	0x63
 1954 0905 49010000 		.4byte	0x149
 1955 0909 03       		.uleb128 0x3
 1956 090a 98000000 		.4byte	.LASF131
 1957 090e 09       		.byte	0x9
 1958 090f 08       		.byte	0x8
 1959 0910 14090000 		.4byte	0x914
 1960 0914 10       		.uleb128 0x10
 1961 0915 82000000 		.4byte	.LASF132
 1962 0919 18       		.byte	0x18
 1963 091a 09       		.byte	0x9
 1964 091b 0B       		.byte	0xb
 1965 091c 68090000 		.4byte	0x968
 1966 0920 11       		.uleb128 0x11
 1967 0921 696400   		.ascii	"id\000"
 1968 0924 09       		.byte	0x9
 1969 0925 0C       		.byte	0xc
 1970 0926 C7050000 		.4byte	0x5c7
 1971 092a 00       		.byte	0
 1972 092b 0D       		.uleb128 0xd
 1973 092c D8070000 		.4byte	.LASF133
 1974 0930 09       		.byte	0x9
 1975 0931 0D       		.byte	0xd
 1976 0932 E1080000 		.4byte	0x8e1
 1977 0936 04       		.byte	0x4
 1978 0937 0D       		.uleb128 0xd
 1979 0938 A2010000 		.4byte	.LASF134
 1980 093c 09       		.byte	0x9
 1981 093d 0E       		.byte	0xe
 1982 093e D2090000 		.4byte	0x9d2
 1983 0942 08       		.byte	0x8
 1984 0943 0D       		.uleb128 0xd
 1985 0944 9B060000 		.4byte	.LASF135
 1986 0948 09       		.byte	0x9
 1987 0949 0F       		.byte	0xf
 1988 094a D2090000 		.4byte	0x9d2
 1989 094e 0C       		.byte	0xc
 1990 094f 0D       		.uleb128 0xd
 1991 0950 28010000 		.4byte	.LASF136
 1992 0954 09       		.byte	0x9
 1993 0955 10       		.byte	0x10
 1994 0956 D2090000 		.4byte	0x9d2
 1995 095a 10       		.byte	0x10
ARM GAS  C:\Users\PCHAUT~1\AppData\Local\Temp\ccVnGr1y.s 			page 36


 1996 095b 0D       		.uleb128 0xd
 1997 095c 40030000 		.4byte	.LASF137
 1998 0960 09       		.byte	0x9
 1999 0961 11       		.byte	0x11
 2000 0962 D8090000 		.4byte	0x9d8
 2001 0966 14       		.byte	0x14
 2002 0967 00       		.byte	0
 2003 0968 03       		.uleb128 0x3
 2004 0969 05010000 		.4byte	.LASF138
 2005 096d 09       		.byte	0x9
 2006 096e 09       		.byte	0x9
 2007 096f 73090000 		.4byte	0x973
 2008 0973 10       		.uleb128 0x10
 2009 0974 BD000000 		.4byte	.LASF139
 2010 0978 18       		.byte	0x18
 2011 0979 09       		.byte	0x9
 2012 097a 2E       		.byte	0x2e
 2013 097b D2090000 		.4byte	0x9d2
 2014 097f 11       		.uleb128 0x11
 2015 0980 696400   		.ascii	"id\000"
 2016 0983 09       		.byte	0x9
 2017 0984 2F       		.byte	0x2f
 2018 0985 C7050000 		.4byte	0x5c7
 2019 0989 00       		.byte	0
 2020 098a 11       		.uleb128 0x11
 2021 098b 6E7300   		.ascii	"ns\000"
 2022 098e 09       		.byte	0x9
 2023 098f 30       		.byte	0x30
 2024 0990 D2090000 		.4byte	0x9d2
 2025 0994 04       		.byte	0x4
 2026 0995 0D       		.uleb128 0xd
 2027 0996 28010000 		.4byte	.LASF136
 2028 099a 09       		.byte	0x9
 2029 099b 31       		.byte	0x31
 2030 099c D8090000 		.4byte	0x9d8
 2031 09a0 08       		.byte	0x8
 2032 09a1 0D       		.uleb128 0xd
 2033 09a2 5E010000 		.4byte	.LASF140
 2034 09a6 09       		.byte	0x9
 2035 09a7 32       		.byte	0x32
 2036 09a8 BF0A0000 		.4byte	0xabf
 2037 09ac 0C       		.byte	0xc
 2038 09ad 0D       		.uleb128 0xd
 2039 09ae 38030000 		.4byte	.LASF141
 2040 09b2 09       		.byte	0x9
 2041 09b3 33       		.byte	0x33
 2042 09b4 BF0A0000 		.4byte	0xabf
 2043 09b8 0D       		.byte	0xd
 2044 09b9 0D       		.uleb128 0xd
 2045 09ba 7D000000 		.4byte	.LASF142
 2046 09be 09       		.byte	0x9
 2047 09bf 34       		.byte	0x34
 2048 09c0 CB080000 		.4byte	0x8cb
 2049 09c4 0E       		.byte	0xe
 2050 09c5 0D       		.uleb128 0xd
 2051 09c6 0C000000 		.4byte	.LASF143
 2052 09ca 09       		.byte	0x9
ARM GAS  C:\Users\PCHAUT~1\AppData\Local\Temp\ccVnGr1y.s 			page 37


 2053 09cb 3C       		.byte	0x3c
 2054 09cc 7A0A0000 		.4byte	0xa7a
 2055 09d0 10       		.byte	0x10
 2056 09d1 00       		.byte	0
 2057 09d2 05       		.uleb128 0x5
 2058 09d3 04       		.byte	0x4
 2059 09d4 09090000 		.4byte	0x909
 2060 09d8 05       		.uleb128 0x5
 2061 09d9 04       		.byte	0x4
 2062 09da 68090000 		.4byte	0x968
 2063 09de 10       		.uleb128 0x10
 2064 09df 89010000 		.4byte	.LASF144
 2065 09e3 08       		.byte	0x8
 2066 09e4 09       		.byte	0x9
 2067 09e5 14       		.byte	0x14
 2068 09e6 0F0A0000 		.4byte	0xa0f
 2069 09ea 11       		.uleb128 0x11
 2070 09eb 62756600 		.ascii	"buf\000"
 2071 09ef 09       		.byte	0x9
 2072 09f0 15       		.byte	0x15
 2073 09f1 49010000 		.4byte	0x149
 2074 09f5 00       		.byte	0
 2075 09f6 0D       		.uleb128 0xd
 2076 09f7 50010000 		.4byte	.LASF145
 2077 09fb 09       		.byte	0x9
 2078 09fc 16       		.byte	0x16
 2079 09fd D6080000 		.4byte	0x8d6
 2080 0a01 04       		.byte	0x4
 2081 0a02 11       		.uleb128 0x11
 2082 0a03 6C656E00 		.ascii	"len\000"
 2083 0a07 09       		.byte	0x9
 2084 0a08 17       		.byte	0x17
 2085 0a09 D6080000 		.4byte	0x8d6
 2086 0a0d 06       		.byte	0x6
 2087 0a0e 00       		.byte	0
 2088 0a0f 10       		.uleb128 0x10
 2089 0a10 53060000 		.4byte	.LASF146
 2090 0a14 08       		.byte	0x8
 2091 0a15 09       		.byte	0x9
 2092 0a16 1A       		.byte	0x1a
 2093 0a17 400A0000 		.4byte	0xa40
 2094 0a1b 11       		.uleb128 0x11
 2095 0a1c 62756600 		.ascii	"buf\000"
 2096 0a20 09       		.byte	0x9
 2097 0a21 1B       		.byte	0x1b
 2098 0a22 400A0000 		.4byte	0xa40
 2099 0a26 00       		.byte	0
 2100 0a27 0D       		.uleb128 0xd
 2101 0a28 11010000 		.4byte	.LASF147
 2102 0a2c 09       		.byte	0x9
 2103 0a2d 1C       		.byte	0x1c
 2104 0a2e D6080000 		.4byte	0x8d6
 2105 0a32 04       		.byte	0x4
 2106 0a33 11       		.uleb128 0x11
 2107 0a34 64696D00 		.ascii	"dim\000"
 2108 0a38 09       		.byte	0x9
 2109 0a39 1D       		.byte	0x1d
ARM GAS  C:\Users\PCHAUT~1\AppData\Local\Temp\ccVnGr1y.s 			page 38


 2110 0a3a D6080000 		.4byte	0x8d6
 2111 0a3e 06       		.byte	0x6
 2112 0a3f 00       		.byte	0
 2113 0a40 05       		.uleb128 0x5
 2114 0a41 04       		.byte	0x4
 2115 0a42 460A0000 		.4byte	0xa46
 2116 0a46 04       		.uleb128 0x4
 2117 0a47 04       		.byte	0x4
 2118 0a48 04       		.byte	0x4
 2119 0a49 CC050000 		.4byte	.LASF148
 2120 0a4d 10       		.uleb128 0x10
 2121 0a4e DD030000 		.4byte	.LASF149
 2122 0a52 08       		.byte	0x8
 2123 0a53 09       		.byte	0x9
 2124 0a54 20       		.byte	0x20
 2125 0a55 7A0A0000 		.4byte	0xa7a
 2126 0a59 11       		.uleb128 0x11
 2127 0a5a 62756600 		.ascii	"buf\000"
 2128 0a5e 09       		.byte	0x9
 2129 0a5f 21       		.byte	0x21
 2130 0a60 400A0000 		.4byte	0xa40
 2131 0a64 00       		.byte	0
 2132 0a65 11       		.uleb128 0x11
 2133 0a66 6E00     		.ascii	"n\000"
 2134 0a68 09       		.byte	0x9
 2135 0a69 22       		.byte	0x22
 2136 0a6a D6080000 		.4byte	0x8d6
 2137 0a6e 04       		.byte	0x4
 2138 0a6f 11       		.uleb128 0x11
 2139 0a70 6D00     		.ascii	"m\000"
 2140 0a72 09       		.byte	0x9
 2141 0a73 23       		.byte	0x23
 2142 0a74 D6080000 		.4byte	0x8d6
 2143 0a78 06       		.byte	0x6
 2144 0a79 00       		.byte	0
 2145 0a7a 08       		.uleb128 0x8
 2146 0a7b 08       		.byte	0x8
 2147 0a7c 09       		.byte	0x9
 2148 0a7d 35       		.byte	0x35
 2149 0a7e BF0A0000 		.4byte	0xabf
 2150 0a82 22       		.uleb128 0x22
 2151 0a83 6200     		.ascii	"b\000"
 2152 0a85 09       		.byte	0x9
 2153 0a86 36       		.byte	0x36
 2154 0a87 BF0A0000 		.4byte	0xabf
 2155 0a8b 22       		.uleb128 0x22
 2156 0a8c 7300     		.ascii	"s\000"
 2157 0a8e 09       		.byte	0x9
 2158 0a8f 37       		.byte	0x37
 2159 0a90 460A0000 		.4byte	0xa46
 2160 0a94 22       		.uleb128 0x22
 2161 0a95 6900     		.ascii	"i\000"
 2162 0a97 09       		.byte	0x9
 2163 0a98 38       		.byte	0x38
 2164 0a99 E1080000 		.4byte	0x8e1
 2165 0a9d 22       		.uleb128 0x22
 2166 0a9e 73747200 		.ascii	"str\000"
ARM GAS  C:\Users\PCHAUT~1\AppData\Local\Temp\ccVnGr1y.s 			page 39


 2167 0aa2 09       		.byte	0x9
 2168 0aa3 39       		.byte	0x39
 2169 0aa4 DE090000 		.4byte	0x9de
 2170 0aa8 09       		.uleb128 0x9
 2171 0aa9 A0070000 		.4byte	.LASF150
 2172 0aad 09       		.byte	0x9
 2173 0aae 3A       		.byte	0x3a
 2174 0aaf 0F0A0000 		.4byte	0xa0f
 2175 0ab3 22       		.uleb128 0x22
 2176 0ab4 6D617400 		.ascii	"mat\000"
 2177 0ab8 09       		.byte	0x9
 2178 0ab9 3B       		.byte	0x3b
 2179 0aba 4D0A0000 		.4byte	0xa4d
 2180 0abe 00       		.byte	0
 2181 0abf 04       		.uleb128 0x4
 2182 0ac0 01       		.byte	0x1
 2183 0ac1 02       		.byte	0x2
 2184 0ac2 06060000 		.4byte	.LASF151
 2185 0ac6 03       		.uleb128 0x3
 2186 0ac7 39050000 		.4byte	.LASF152
 2187 0acb 0A       		.byte	0xa
 2188 0acc 06       		.byte	0x6
 2189 0acd D10A0000 		.4byte	0xad1
 2190 0ad1 05       		.uleb128 0x5
 2191 0ad2 04       		.byte	0x4
 2192 0ad3 D70A0000 		.4byte	0xad7
 2193 0ad7 15       		.uleb128 0x15
 2194 0ad8 BF0A0000 		.4byte	0xabf
 2195 0adc F00A0000 		.4byte	0xaf0
 2196 0ae0 16       		.uleb128 0x16
 2197 0ae1 F00A0000 		.4byte	0xaf0
 2198 0ae5 16       		.uleb128 0x16
 2199 0ae6 47010000 		.4byte	0x147
 2200 0aea 16       		.uleb128 0x16
 2201 0aeb 2C000000 		.4byte	0x2c
 2202 0aef 00       		.byte	0
 2203 0af0 05       		.uleb128 0x5
 2204 0af1 04       		.byte	0x4
 2205 0af2 F60A0000 		.4byte	0xaf6
 2206 0af6 10       		.uleb128 0x10
 2207 0af7 5C050000 		.4byte	.LASF153
 2208 0afb 10       		.byte	0x10
 2209 0afc 0A       		.byte	0xa
 2210 0afd 48       		.byte	0x48
 2211 0afe 330B0000 		.4byte	0xb33
 2212 0b02 0D       		.uleb128 0xd
 2213 0b03 DC050000 		.4byte	.LASF154
 2214 0b07 0A       		.byte	0xa
 2215 0b08 49       		.byte	0x49
 2216 0b09 CB080000 		.4byte	0x8cb
 2217 0b0d 00       		.byte	0
 2218 0b0e 11       		.uleb128 0x11
 2219 0b0f 62756600 		.ascii	"buf\000"
 2220 0b13 0A       		.byte	0xa
 2221 0b14 4A       		.byte	0x4a
 2222 0b15 47010000 		.4byte	0x147
 2223 0b19 04       		.byte	0x4
ARM GAS  C:\Users\PCHAUT~1\AppData\Local\Temp\ccVnGr1y.s 			page 40


 2224 0b1a 0D       		.uleb128 0xd
 2225 0b1b C7050000 		.4byte	.LASF155
 2226 0b1f 0A       		.byte	0xa
 2227 0b20 4B       		.byte	0x4b
 2228 0b21 C60A0000 		.4byte	0xac6
 2229 0b25 08       		.byte	0x8
 2230 0b26 0D       		.uleb128 0xd
 2231 0b27 67000000 		.4byte	.LASF156
 2232 0b2b 0A       		.byte	0xa
 2233 0b2c 4C       		.byte	0x4c
 2234 0b2d 330B0000 		.4byte	0xb33
 2235 0b31 0C       		.byte	0xc
 2236 0b32 00       		.byte	0
 2237 0b33 03       		.uleb128 0x3
 2238 0b34 48040000 		.4byte	.LASF157
 2239 0b38 0A       		.byte	0xa
 2240 0b39 07       		.byte	0x7
 2241 0b3a 3E0B0000 		.4byte	0xb3e
 2242 0b3e 05       		.uleb128 0x5
 2243 0b3f 04       		.byte	0x4
 2244 0b40 440B0000 		.4byte	0xb44
 2245 0b44 15       		.uleb128 0x15
 2246 0b45 2C000000 		.4byte	0x2c
 2247 0b49 5D0B0000 		.4byte	0xb5d
 2248 0b4d 16       		.uleb128 0x16
 2249 0b4e F00A0000 		.4byte	0xaf0
 2250 0b52 16       		.uleb128 0x16
 2251 0b53 F7080000 		.4byte	0x8f7
 2252 0b57 16       		.uleb128 0x16
 2253 0b58 2C000000 		.4byte	0x2c
 2254 0b5c 00       		.byte	0
 2255 0b5d 04       		.uleb128 0x4
 2256 0b5e 08       		.byte	0x8
 2257 0b5f 04       		.byte	0x4
 2258 0b60 BA080000 		.4byte	.LASF158
 2259 0b64 03       		.uleb128 0x3
 2260 0b65 86030000 		.4byte	.LASF159
 2261 0b69 0A       		.byte	0xa
 2262 0b6a 4D       		.byte	0x4d
 2263 0b6b F60A0000 		.4byte	0xaf6
 2264 0b6f 0C       		.uleb128 0xc
 2265 0b70 0C       		.byte	0xc
 2266 0b71 0B       		.byte	0xb
 2267 0b72 0D       		.byte	0xd
 2268 0b73 9C0B0000 		.4byte	0xb9c
 2269 0b77 11       		.uleb128 0x11
 2270 0b78 62756600 		.ascii	"buf\000"
 2271 0b7c 0B       		.byte	0xb
 2272 0b7d 0E       		.byte	0xe
 2273 0b7e 49010000 		.4byte	0x149
 2274 0b82 00       		.byte	0
 2275 0b83 0D       		.uleb128 0xd
 2276 0b84 1D030000 		.4byte	.LASF160
 2277 0b88 0B       		.byte	0xb
 2278 0b89 0F       		.byte	0xf
 2279 0b8a 2C000000 		.4byte	0x2c
 2280 0b8e 04       		.byte	0x4
ARM GAS  C:\Users\PCHAUT~1\AppData\Local\Temp\ccVnGr1y.s 			page 41


 2281 0b8f 0D       		.uleb128 0xd
 2282 0b90 6C040000 		.4byte	.LASF161
 2283 0b94 0B       		.byte	0xb
 2284 0b95 10       		.byte	0x10
 2285 0b96 2C000000 		.4byte	0x2c
 2286 0b9a 08       		.byte	0x8
 2287 0b9b 00       		.byte	0
 2288 0b9c 03       		.uleb128 0x3
 2289 0b9d 0F050000 		.4byte	.LASF162
 2290 0ba1 0B       		.byte	0xb
 2291 0ba2 11       		.byte	0x11
 2292 0ba3 6F0B0000 		.4byte	0xb6f
 2293 0ba7 23       		.uleb128 0x23
 2294 0ba8 3F000000 		.4byte	.LASF163
 2295 0bac 01       		.byte	0x1
 2296 0bad BE       		.byte	0xbe
 2297 0bae 47010000 		.4byte	0x147
 2298 0bb2 00000000 		.4byte	.LFB9
 2299 0bb6 50000000 		.4byte	.LFE9-.LFB9
 2300 0bba 01       		.uleb128 0x1
 2301 0bbb 9C       		.byte	0x9c
 2302 0bbc DB0B0000 		.4byte	0xbdb
 2303 0bc0 24       		.uleb128 0x24
 2304 0bc1 7000     		.ascii	"p\000"
 2305 0bc3 01       		.byte	0x1
 2306 0bc4 BE       		.byte	0xbe
 2307 0bc5 47010000 		.4byte	0x147
 2308 0bc9 02       		.uleb128 0x2
 2309 0bca 91       		.byte	0x91
 2310 0bcb 6C       		.sleb128 -20
 2311 0bcc 25       		.uleb128 0x25
 2312 0bcd 06040000 		.4byte	.LASF165
 2313 0bd1 01       		.byte	0x1
 2314 0bd2 C0       		.byte	0xc0
 2315 0bd3 DB0B0000 		.4byte	0xbdb
 2316 0bd7 02       		.uleb128 0x2
 2317 0bd8 91       		.byte	0x91
 2318 0bd9 70       		.sleb128 -16
 2319 0bda 00       		.byte	0
 2320 0bdb 05       		.uleb128 0x5
 2321 0bdc 04       		.byte	0x4
 2322 0bdd CB080000 		.4byte	0x8cb
 2323 0be1 23       		.uleb128 0x23
 2324 0be2 6D050000 		.4byte	.LASF164
 2325 0be6 01       		.byte	0x1
 2326 0be7 B0       		.byte	0xb0
 2327 0be8 47010000 		.4byte	0x147
 2328 0bec 00000000 		.4byte	.LFB8
 2329 0bf0 58000000 		.4byte	.LFE8-.LFB8
 2330 0bf4 01       		.uleb128 0x1
 2331 0bf5 9C       		.byte	0x9c
 2332 0bf6 230C0000 		.4byte	0xc23
 2333 0bfa 24       		.uleb128 0x24
 2334 0bfb 7000     		.ascii	"p\000"
 2335 0bfd 01       		.byte	0x1
 2336 0bfe B0       		.byte	0xb0
 2337 0bff 47010000 		.4byte	0x147
ARM GAS  C:\Users\PCHAUT~1\AppData\Local\Temp\ccVnGr1y.s 			page 42


 2338 0c03 02       		.uleb128 0x2
 2339 0c04 91       		.byte	0x91
 2340 0c05 64       		.sleb128 -28
 2341 0c06 25       		.uleb128 0x25
 2342 0c07 06040000 		.4byte	.LASF165
 2343 0c0b 01       		.byte	0x1
 2344 0c0c B2       		.byte	0xb2
 2345 0c0d DB0B0000 		.4byte	0xbdb
 2346 0c11 02       		.uleb128 0x2
 2347 0c12 91       		.byte	0x91
 2348 0c13 6C       		.sleb128 -20
 2349 0c14 25       		.uleb128 0x25
 2350 0c15 A6040000 		.4byte	.LASF166
 2351 0c19 01       		.byte	0x1
 2352 0c1a B3       		.byte	0xb3
 2353 0c1b DB0B0000 		.4byte	0xbdb
 2354 0c1f 02       		.uleb128 0x2
 2355 0c20 91       		.byte	0x91
 2356 0c21 70       		.sleb128 -16
 2357 0c22 00       		.byte	0
 2358 0c23 23       		.uleb128 0x23
 2359 0c24 18000000 		.4byte	.LASF167
 2360 0c28 01       		.byte	0x1
 2361 0c29 A9       		.byte	0xa9
 2362 0c2a EC080000 		.4byte	0x8ec
 2363 0c2e 00000000 		.4byte	.LFB7
 2364 0c32 30000000 		.4byte	.LFE7-.LFB7
 2365 0c36 01       		.uleb128 0x1
 2366 0c37 9C       		.byte	0x9c
 2367 0c38 590C0000 		.4byte	0xc59
 2368 0c3c 26       		.uleb128 0x26
 2369 0c3d 06040000 		.4byte	.LASF165
 2370 0c41 01       		.byte	0x1
 2371 0c42 A9       		.byte	0xa9
 2372 0c43 47010000 		.4byte	0x147
 2373 0c47 02       		.uleb128 0x2
 2374 0c48 91       		.byte	0x91
 2375 0c49 6C       		.sleb128 -20
 2376 0c4a 25       		.uleb128 0x25
 2377 0c4b C1080000 		.4byte	.LASF168
 2378 0c4f 01       		.byte	0x1
 2379 0c50 AB       		.byte	0xab
 2380 0c51 590C0000 		.4byte	0xc59
 2381 0c55 02       		.uleb128 0x2
 2382 0c56 91       		.byte	0x91
 2383 0c57 70       		.sleb128 -16
 2384 0c58 00       		.byte	0
 2385 0c59 05       		.uleb128 0x5
 2386 0c5a 04       		.byte	0x4
 2387 0c5b EC080000 		.4byte	0x8ec
 2388 0c5f 27       		.uleb128 0x27
 2389 0c60 59080000 		.4byte	.LASF174
 2390 0c64 01       		.byte	0x1
 2391 0c65 96       		.byte	0x96
 2392 0c66 00000000 		.4byte	.LFB6
 2393 0c6a 90000000 		.4byte	.LFE6-.LFB6
 2394 0c6e 01       		.uleb128 0x1
ARM GAS  C:\Users\PCHAUT~1\AppData\Local\Temp\ccVnGr1y.s 			page 43


 2395 0c6f 9C       		.byte	0x9c
 2396 0c70 AD0C0000 		.4byte	0xcad
 2397 0c74 24       		.uleb128 0x24
 2398 0c75 64737400 		.ascii	"dst\000"
 2399 0c79 01       		.byte	0x1
 2400 0c7a 96       		.byte	0x96
 2401 0c7b 47010000 		.4byte	0x147
 2402 0c7f 02       		.uleb128 0x2
 2403 0c80 91       		.byte	0x91
 2404 0c81 64       		.sleb128 -28
 2405 0c82 24       		.uleb128 0x24
 2406 0c83 6C656E00 		.ascii	"len\000"
 2407 0c87 01       		.byte	0x1
 2408 0c88 96       		.byte	0x96
 2409 0c89 EC080000 		.4byte	0x8ec
 2410 0c8d 02       		.uleb128 0x2
 2411 0c8e 91       		.byte	0x91
 2412 0c8f 60       		.sleb128 -32
 2413 0c90 28       		.uleb128 0x28
 2414 0c91 63726300 		.ascii	"crc\000"
 2415 0c95 01       		.byte	0x1
 2416 0c96 98       		.byte	0x98
 2417 0c97 EC080000 		.4byte	0x8ec
 2418 0c9b 02       		.uleb128 0x2
 2419 0c9c 91       		.byte	0x91
 2420 0c9d 6C       		.sleb128 -20
 2421 0c9e 25       		.uleb128 0x25
 2422 0c9f C8070000 		.4byte	.LASF169
 2423 0ca3 01       		.byte	0x1
 2424 0ca4 99       		.byte	0x99
 2425 0ca5 2C000000 		.4byte	0x2c
 2426 0ca9 02       		.uleb128 0x2
 2427 0caa 91       		.byte	0x91
 2428 0cab 70       		.sleb128 -16
 2429 0cac 00       		.byte	0
 2430 0cad 23       		.uleb128 0x23
 2431 0cae E2050000 		.4byte	.LASF170
 2432 0cb2 01       		.byte	0x1
 2433 0cb3 77       		.byte	0x77
 2434 0cb4 BF0A0000 		.4byte	0xabf
 2435 0cb8 00000000 		.4byte	.LFB5
 2436 0cbc 98000000 		.4byte	.LFE5-.LFB5
 2437 0cc0 01       		.uleb128 0x1
 2438 0cc1 9C       		.byte	0x9c
 2439 0cc2 0B0D0000 		.4byte	0xd0b
 2440 0cc6 24       		.uleb128 0x24
 2441 0cc7 7000     		.ascii	"p\000"
 2442 0cc9 01       		.byte	0x1
 2443 0cca 77       		.byte	0x77
 2444 0ccb 47010000 		.4byte	0x147
 2445 0ccf 02       		.uleb128 0x2
 2446 0cd0 91       		.byte	0x91
 2447 0cd1 5C       		.sleb128 -36
 2448 0cd2 25       		.uleb128 0x25
 2449 0cd3 06040000 		.4byte	.LASF165
 2450 0cd7 01       		.byte	0x1
 2451 0cd8 79       		.byte	0x79
ARM GAS  C:\Users\PCHAUT~1\AppData\Local\Temp\ccVnGr1y.s 			page 44


 2452 0cd9 DB0B0000 		.4byte	0xbdb
 2453 0cdd 02       		.uleb128 0x2
 2454 0cde 91       		.byte	0x91
 2455 0cdf 6C       		.sleb128 -20
 2456 0ce0 28       		.uleb128 0x28
 2457 0ce1 63726300 		.ascii	"crc\000"
 2458 0ce5 01       		.byte	0x1
 2459 0ce6 7A       		.byte	0x7a
 2460 0ce7 EC080000 		.4byte	0x8ec
 2461 0ceb 02       		.uleb128 0x2
 2462 0cec 91       		.byte	0x91
 2463 0ced 64       		.sleb128 -28
 2464 0cee 25       		.uleb128 0x25
 2465 0cef 79070000 		.4byte	.LASF171
 2466 0cf3 01       		.byte	0x1
 2467 0cf4 7A       		.byte	0x7a
 2468 0cf5 EC080000 		.4byte	0x8ec
 2469 0cf9 02       		.uleb128 0x2
 2470 0cfa 91       		.byte	0x91
 2471 0cfb 68       		.sleb128 -24
 2472 0cfc 25       		.uleb128 0x25
 2473 0cfd C8070000 		.4byte	.LASF169
 2474 0d01 01       		.byte	0x1
 2475 0d02 7B       		.byte	0x7b
 2476 0d03 2C000000 		.4byte	0x2c
 2477 0d07 02       		.uleb128 0x2
 2478 0d08 91       		.byte	0x91
 2479 0d09 70       		.sleb128 -16
 2480 0d0a 00       		.byte	0
 2481 0d0b 23       		.uleb128 0x23
 2482 0d0c 44050000 		.4byte	.LASF172
 2483 0d10 01       		.byte	0x1
 2484 0d11 5F       		.byte	0x5f
 2485 0d12 BF0A0000 		.4byte	0xabf
 2486 0d16 00000000 		.4byte	.LFB4
 2487 0d1a 64000000 		.4byte	.LFE4-.LFB4
 2488 0d1e 01       		.uleb128 0x1
 2489 0d1f 9C       		.byte	0x9c
 2490 0d20 5C0D0000 		.4byte	0xd5c
 2491 0d24 24       		.uleb128 0x24
 2492 0d25 6E7300   		.ascii	"ns\000"
 2493 0d28 01       		.byte	0x1
 2494 0d29 5F       		.byte	0x5f
 2495 0d2a D2090000 		.4byte	0x9d2
 2496 0d2e 02       		.uleb128 0x2
 2497 0d2f 91       		.byte	0x91
 2498 0d30 64       		.sleb128 -28
 2499 0d31 24       		.uleb128 0x24
 2500 0d32 73726300 		.ascii	"src\000"
 2501 0d36 01       		.byte	0x1
 2502 0d37 5F       		.byte	0x5f
 2503 0d38 47010000 		.4byte	0x147
 2504 0d3c 02       		.uleb128 0x2
 2505 0d3d 91       		.byte	0x91
 2506 0d3e 60       		.sleb128 -32
 2507 0d3f 28       		.uleb128 0x28
 2508 0d40 72657300 		.ascii	"res\000"
ARM GAS  C:\Users\PCHAUT~1\AppData\Local\Temp\ccVnGr1y.s 			page 45


 2509 0d44 01       		.byte	0x1
 2510 0d45 61       		.byte	0x61
 2511 0d46 25000000 		.4byte	0x25
 2512 0d4a 02       		.uleb128 0x2
 2513 0d4b 91       		.byte	0x91
 2514 0d4c 70       		.sleb128 -16
 2515 0d4d 25       		.uleb128 0x25
 2516 0d4e 22060000 		.4byte	.LASF173
 2517 0d52 01       		.byte	0x1
 2518 0d53 62       		.byte	0x62
 2519 0d54 EC080000 		.4byte	0x8ec
 2520 0d58 02       		.uleb128 0x2
 2521 0d59 91       		.byte	0x91
 2522 0d5a 6C       		.sleb128 -20
 2523 0d5b 00       		.byte	0
 2524 0d5c 27       		.uleb128 0x27
 2525 0d5d 23030000 		.4byte	.LASF175
 2526 0d61 01       		.byte	0x1
 2527 0d62 2B       		.byte	0x2b
 2528 0d63 00000000 		.4byte	.LFB3
 2529 0d67 D8000000 		.4byte	.LFE3-.LFB3
 2530 0d6b 01       		.uleb128 0x1
 2531 0d6c 9C       		.byte	0x9c
 2532 0d6d E20D0000 		.4byte	0xde2
 2533 0d71 24       		.uleb128 0x24
 2534 0d72 64737400 		.ascii	"dst\000"
 2535 0d76 01       		.byte	0x1
 2536 0d77 2B       		.byte	0x2b
 2537 0d78 47010000 		.4byte	0x147
 2538 0d7c 02       		.uleb128 0x2
 2539 0d7d 91       		.byte	0x91
 2540 0d7e 44       		.sleb128 -60
 2541 0d7f 26       		.uleb128 0x26
 2542 0d80 01050000 		.4byte	.LASF176
 2543 0d84 01       		.byte	0x1
 2544 0d85 2B       		.byte	0x2b
 2545 0d86 2C000000 		.4byte	0x2c
 2546 0d8a 02       		.uleb128 0x2
 2547 0d8b 91       		.byte	0x91
 2548 0d8c 40       		.sleb128 -64
 2549 0d8d 24       		.uleb128 0x24
 2550 0d8e 6E7300   		.ascii	"ns\000"
 2551 0d91 01       		.byte	0x1
 2552 0d92 2B       		.byte	0x2b
 2553 0d93 D2090000 		.4byte	0x9d2
 2554 0d97 03       		.uleb128 0x3
 2555 0d98 91       		.byte	0x91
 2556 0d99 BC7F     		.sleb128 -68
 2557 0d9b 28       		.uleb128 0x28
 2558 0d9c 636D7000 		.ascii	"cmp\000"
 2559 0da0 01       		.byte	0x1
 2560 0da1 2D       		.byte	0x2d
 2561 0da2 640B0000 		.4byte	0xb64
 2562 0da6 02       		.uleb128 0x2
 2563 0da7 91       		.byte	0x91
 2564 0da8 64       		.sleb128 -28
 2565 0da9 28       		.uleb128 0x28
ARM GAS  C:\Users\PCHAUT~1\AppData\Local\Temp\ccVnGr1y.s 			page 46


 2566 0daa 6D656D00 		.ascii	"mem\000"
 2567 0dae 01       		.byte	0x1
 2568 0daf 2E       		.byte	0x2e
 2569 0db0 9C0B0000 		.4byte	0xb9c
 2570 0db4 02       		.uleb128 0x2
 2571 0db5 91       		.byte	0x91
 2572 0db6 58       		.sleb128 -40
 2573 0db7 28       		.uleb128 0x28
 2574 0db8 6C656E00 		.ascii	"len\000"
 2575 0dbc 01       		.byte	0x1
 2576 0dbd 2F       		.byte	0x2f
 2577 0dbe EC080000 		.4byte	0x8ec
 2578 0dc2 02       		.uleb128 0x2
 2579 0dc3 91       		.byte	0x91
 2580 0dc4 50       		.sleb128 -48
 2581 0dc5 25       		.uleb128 0x25
 2582 0dc6 D2080000 		.4byte	.LASF177
 2583 0dca 01       		.byte	0x1
 2584 0dcb 30       		.byte	0x30
 2585 0dcc BF0A0000 		.4byte	0xabf
 2586 0dd0 02       		.uleb128 0x2
 2587 0dd1 91       		.byte	0x91
 2588 0dd2 4F       		.sleb128 -49
 2589 0dd3 25       		.uleb128 0x25
 2590 0dd4 89050000 		.4byte	.LASF178
 2591 0dd8 01       		.byte	0x1
 2592 0dd9 32       		.byte	0x32
 2593 0dda 47010000 		.4byte	0x147
 2594 0dde 02       		.uleb128 0x2
 2595 0ddf 91       		.byte	0x91
 2596 0de0 54       		.sleb128 -44
 2597 0de1 00       		.byte	0
 2598 0de2 29       		.uleb128 0x29
 2599 0de3 90030000 		.4byte	.LASF184
 2600 0de7 01       		.byte	0x1
 2601 0de8 22       		.byte	0x22
 2602 0de9 00000000 		.4byte	.LFB2
 2603 0ded 34000000 		.4byte	.LFE2-.LFB2
 2604 0df1 01       		.uleb128 0x1
 2605 0df2 9C       		.byte	0x9c
 2606 0df3 2D0E0000 		.4byte	0xe2d
 2607 0df7 24       		.uleb128 0x24
 2608 0df8 61726700 		.ascii	"arg\000"
 2609 0dfc 01       		.byte	0x1
 2610 0dfd 22       		.byte	0x22
 2611 0dfe 47010000 		.4byte	0x147
 2612 0e02 02       		.uleb128 0x2
 2613 0e03 91       		.byte	0x91
 2614 0e04 6C       		.sleb128 -20
 2615 0e05 24       		.uleb128 0x24
 2616 0e06 696400   		.ascii	"id\000"
 2617 0e09 01       		.byte	0x1
 2618 0e0a 22       		.byte	0x22
 2619 0e0b C7050000 		.4byte	0x5c7
 2620 0e0f 02       		.uleb128 0x2
 2621 0e10 91       		.byte	0x91
 2622 0e11 68       		.sleb128 -24
ARM GAS  C:\Users\PCHAUT~1\AppData\Local\Temp\ccVnGr1y.s 			page 47


 2623 0e12 24       		.uleb128 0x24
 2624 0e13 65727200 		.ascii	"err\000"
 2625 0e17 01       		.byte	0x1
 2626 0e18 22       		.byte	0x22
 2627 0e19 C7050000 		.4byte	0x5c7
 2628 0e1d 02       		.uleb128 0x2
 2629 0e1e 91       		.byte	0x91
 2630 0e1f 64       		.sleb128 -28
 2631 0e20 28       		.uleb128 0x28
 2632 0e21 6200     		.ascii	"b\000"
 2633 0e23 01       		.byte	0x1
 2634 0e24 27       		.byte	0x27
 2635 0e25 2D0E0000 		.4byte	0xe2d
 2636 0e29 02       		.uleb128 0x2
 2637 0e2a 91       		.byte	0x91
 2638 0e2b 70       		.sleb128 -16
 2639 0e2c 00       		.byte	0
 2640 0e2d 05       		.uleb128 0x5
 2641 0e2e 04       		.byte	0x4
 2642 0e2f BF0A0000 		.4byte	0xabf
 2643 0e33 27       		.uleb128 0x27
 2644 0e34 5A040000 		.4byte	.LASF179
 2645 0e38 01       		.byte	0x1
 2646 0e39 1B       		.byte	0x1b
 2647 0e3a 00000000 		.4byte	.LFB1
 2648 0e3e 34000000 		.4byte	.LFE1-.LFB1
 2649 0e42 01       		.uleb128 0x1
 2650 0e43 9C       		.byte	0x9c
 2651 0e44 570E0000 		.4byte	0xe57
 2652 0e48 24       		.uleb128 0x24
 2653 0e49 64737400 		.ascii	"dst\000"
 2654 0e4d 01       		.byte	0x1
 2655 0e4e 1B       		.byte	0x1b
 2656 0e4f 47010000 		.4byte	0x147
 2657 0e53 02       		.uleb128 0x2
 2658 0e54 91       		.byte	0x91
 2659 0e55 6C       		.sleb128 -20
 2660 0e56 00       		.byte	0
 2661 0e57 2A       		.uleb128 0x2a
 2662 0e58 37070000 		.4byte	.LASF185
 2663 0e5c 01       		.byte	0x1
 2664 0e5d 0F       		.byte	0xf
 2665 0e5e 2C000000 		.4byte	0x2c
 2666 0e62 00000000 		.4byte	.LFB0
 2667 0e66 68000000 		.4byte	.LFE0-.LFB0
 2668 0e6a 01       		.uleb128 0x1
 2669 0e6b 9C       		.byte	0x9c
 2670 0e6c A90E0000 		.4byte	0xea9
 2671 0e70 24       		.uleb128 0x24
 2672 0e71 63747800 		.ascii	"ctx\000"
 2673 0e75 01       		.byte	0x1
 2674 0e76 0F       		.byte	0xf
 2675 0e77 F00A0000 		.4byte	0xaf0
 2676 0e7b 02       		.uleb128 0x2
 2677 0e7c 91       		.byte	0x91
 2678 0e7d 6C       		.sleb128 -20
 2679 0e7e 26       		.uleb128 0x26
ARM GAS  C:\Users\PCHAUT~1\AppData\Local\Temp\ccVnGr1y.s 			page 48


 2680 0e7f 67040000 		.4byte	.LASF180
 2681 0e83 01       		.byte	0x1
 2682 0e84 0F       		.byte	0xf
 2683 0e85 F7080000 		.4byte	0x8f7
 2684 0e89 02       		.uleb128 0x2
 2685 0e8a 91       		.byte	0x91
 2686 0e8b 68       		.sleb128 -24
 2687 0e8c 24       		.uleb128 0x24
 2688 0e8d 6C656E00 		.ascii	"len\000"
 2689 0e91 01       		.byte	0x1
 2690 0e92 0F       		.byte	0xf
 2691 0e93 2C000000 		.4byte	0x2c
 2692 0e97 02       		.uleb128 0x2
 2693 0e98 91       		.byte	0x91
 2694 0e99 64       		.sleb128 -28
 2695 0e9a 28       		.uleb128 0x28
 2696 0e9b 6D656D00 		.ascii	"mem\000"
 2697 0e9f 01       		.byte	0x1
 2698 0ea0 11       		.byte	0x11
 2699 0ea1 A90E0000 		.4byte	0xea9
 2700 0ea5 02       		.uleb128 0x2
 2701 0ea6 91       		.byte	0x91
 2702 0ea7 70       		.sleb128 -16
 2703 0ea8 00       		.byte	0
 2704 0ea9 05       		.uleb128 0x5
 2705 0eaa 04       		.byte	0x4
 2706 0eab 9C0B0000 		.4byte	0xb9c
 2707 0eaf 00       		.byte	0
 2708              		.section	.debug_abbrev,"",%progbits
 2709              	.Ldebug_abbrev0:
 2710 0000 01       		.uleb128 0x1
 2711 0001 11       		.uleb128 0x11
 2712 0002 01       		.byte	0x1
 2713 0003 25       		.uleb128 0x25
 2714 0004 0E       		.uleb128 0xe
 2715 0005 13       		.uleb128 0x13
 2716 0006 0B       		.uleb128 0xb
 2717 0007 03       		.uleb128 0x3
 2718 0008 0E       		.uleb128 0xe
 2719 0009 1B       		.uleb128 0x1b
 2720 000a 0E       		.uleb128 0xe
 2721 000b 55       		.uleb128 0x55
 2722 000c 17       		.uleb128 0x17
 2723 000d 11       		.uleb128 0x11
 2724 000e 01       		.uleb128 0x1
 2725 000f 10       		.uleb128 0x10
 2726 0010 17       		.uleb128 0x17
 2727 0011 00       		.byte	0
 2728 0012 00       		.byte	0
 2729 0013 02       		.uleb128 0x2
 2730 0014 24       		.uleb128 0x24
 2731 0015 00       		.byte	0
 2732 0016 0B       		.uleb128 0xb
 2733 0017 0B       		.uleb128 0xb
 2734 0018 3E       		.uleb128 0x3e
 2735 0019 0B       		.uleb128 0xb
 2736 001a 03       		.uleb128 0x3
ARM GAS  C:\Users\PCHAUT~1\AppData\Local\Temp\ccVnGr1y.s 			page 49


 2737 001b 08       		.uleb128 0x8
 2738 001c 00       		.byte	0
 2739 001d 00       		.byte	0
 2740 001e 03       		.uleb128 0x3
 2741 001f 16       		.uleb128 0x16
 2742 0020 00       		.byte	0
 2743 0021 03       		.uleb128 0x3
 2744 0022 0E       		.uleb128 0xe
 2745 0023 3A       		.uleb128 0x3a
 2746 0024 0B       		.uleb128 0xb
 2747 0025 3B       		.uleb128 0x3b
 2748 0026 0B       		.uleb128 0xb
 2749 0027 49       		.uleb128 0x49
 2750 0028 13       		.uleb128 0x13
 2751 0029 00       		.byte	0
 2752 002a 00       		.byte	0
 2753 002b 04       		.uleb128 0x4
 2754 002c 24       		.uleb128 0x24
 2755 002d 00       		.byte	0
 2756 002e 0B       		.uleb128 0xb
 2757 002f 0B       		.uleb128 0xb
 2758 0030 3E       		.uleb128 0x3e
 2759 0031 0B       		.uleb128 0xb
 2760 0032 03       		.uleb128 0x3
 2761 0033 0E       		.uleb128 0xe
 2762 0034 00       		.byte	0
 2763 0035 00       		.byte	0
 2764 0036 05       		.uleb128 0x5
 2765 0037 0F       		.uleb128 0xf
 2766 0038 00       		.byte	0
 2767 0039 0B       		.uleb128 0xb
 2768 003a 0B       		.uleb128 0xb
 2769 003b 49       		.uleb128 0x49
 2770 003c 13       		.uleb128 0x13
 2771 003d 00       		.byte	0
 2772 003e 00       		.byte	0
 2773 003f 06       		.uleb128 0x6
 2774 0040 13       		.uleb128 0x13
 2775 0041 00       		.byte	0
 2776 0042 03       		.uleb128 0x3
 2777 0043 0E       		.uleb128 0xe
 2778 0044 3C       		.uleb128 0x3c
 2779 0045 19       		.uleb128 0x19
 2780 0046 00       		.byte	0
 2781 0047 00       		.byte	0
 2782 0048 07       		.uleb128 0x7
 2783 0049 16       		.uleb128 0x16
 2784 004a 00       		.byte	0
 2785 004b 03       		.uleb128 0x3
 2786 004c 0E       		.uleb128 0xe
 2787 004d 3A       		.uleb128 0x3a
 2788 004e 0B       		.uleb128 0xb
 2789 004f 3B       		.uleb128 0x3b
 2790 0050 05       		.uleb128 0x5
 2791 0051 49       		.uleb128 0x49
 2792 0052 13       		.uleb128 0x13
 2793 0053 00       		.byte	0
ARM GAS  C:\Users\PCHAUT~1\AppData\Local\Temp\ccVnGr1y.s 			page 50


 2794 0054 00       		.byte	0
 2795 0055 08       		.uleb128 0x8
 2796 0056 17       		.uleb128 0x17
 2797 0057 01       		.byte	0x1
 2798 0058 0B       		.uleb128 0xb
 2799 0059 0B       		.uleb128 0xb
 2800 005a 3A       		.uleb128 0x3a
 2801 005b 0B       		.uleb128 0xb
 2802 005c 3B       		.uleb128 0x3b
 2803 005d 0B       		.uleb128 0xb
 2804 005e 01       		.uleb128 0x1
 2805 005f 13       		.uleb128 0x13
 2806 0060 00       		.byte	0
 2807 0061 00       		.byte	0
 2808 0062 09       		.uleb128 0x9
 2809 0063 0D       		.uleb128 0xd
 2810 0064 00       		.byte	0
 2811 0065 03       		.uleb128 0x3
 2812 0066 0E       		.uleb128 0xe
 2813 0067 3A       		.uleb128 0x3a
 2814 0068 0B       		.uleb128 0xb
 2815 0069 3B       		.uleb128 0x3b
 2816 006a 0B       		.uleb128 0xb
 2817 006b 49       		.uleb128 0x49
 2818 006c 13       		.uleb128 0x13
 2819 006d 00       		.byte	0
 2820 006e 00       		.byte	0
 2821 006f 0A       		.uleb128 0xa
 2822 0070 01       		.uleb128 0x1
 2823 0071 01       		.byte	0x1
 2824 0072 49       		.uleb128 0x49
 2825 0073 13       		.uleb128 0x13
 2826 0074 01       		.uleb128 0x1
 2827 0075 13       		.uleb128 0x13
 2828 0076 00       		.byte	0
 2829 0077 00       		.byte	0
 2830 0078 0B       		.uleb128 0xb
 2831 0079 21       		.uleb128 0x21
 2832 007a 00       		.byte	0
 2833 007b 49       		.uleb128 0x49
 2834 007c 13       		.uleb128 0x13
 2835 007d 2F       		.uleb128 0x2f
 2836 007e 0B       		.uleb128 0xb
 2837 007f 00       		.byte	0
 2838 0080 00       		.byte	0
 2839 0081 0C       		.uleb128 0xc
 2840 0082 13       		.uleb128 0x13
 2841 0083 01       		.byte	0x1
 2842 0084 0B       		.uleb128 0xb
 2843 0085 0B       		.uleb128 0xb
 2844 0086 3A       		.uleb128 0x3a
 2845 0087 0B       		.uleb128 0xb
 2846 0088 3B       		.uleb128 0x3b
 2847 0089 0B       		.uleb128 0xb
 2848 008a 01       		.uleb128 0x1
 2849 008b 13       		.uleb128 0x13
 2850 008c 00       		.byte	0
ARM GAS  C:\Users\PCHAUT~1\AppData\Local\Temp\ccVnGr1y.s 			page 51


 2851 008d 00       		.byte	0
 2852 008e 0D       		.uleb128 0xd
 2853 008f 0D       		.uleb128 0xd
 2854 0090 00       		.byte	0
 2855 0091 03       		.uleb128 0x3
 2856 0092 0E       		.uleb128 0xe
 2857 0093 3A       		.uleb128 0x3a
 2858 0094 0B       		.uleb128 0xb
 2859 0095 3B       		.uleb128 0x3b
 2860 0096 0B       		.uleb128 0xb
 2861 0097 49       		.uleb128 0x49
 2862 0098 13       		.uleb128 0x13
 2863 0099 38       		.uleb128 0x38
 2864 009a 0B       		.uleb128 0xb
 2865 009b 00       		.byte	0
 2866 009c 00       		.byte	0
 2867 009d 0E       		.uleb128 0xe
 2868 009e 0F       		.uleb128 0xf
 2869 009f 00       		.byte	0
 2870 00a0 0B       		.uleb128 0xb
 2871 00a1 0B       		.uleb128 0xb
 2872 00a2 00       		.byte	0
 2873 00a3 00       		.byte	0
 2874 00a4 0F       		.uleb128 0xf
 2875 00a5 26       		.uleb128 0x26
 2876 00a6 00       		.byte	0
 2877 00a7 49       		.uleb128 0x49
 2878 00a8 13       		.uleb128 0x13
 2879 00a9 00       		.byte	0
 2880 00aa 00       		.byte	0
 2881 00ab 10       		.uleb128 0x10
 2882 00ac 13       		.uleb128 0x13
 2883 00ad 01       		.byte	0x1
 2884 00ae 03       		.uleb128 0x3
 2885 00af 0E       		.uleb128 0xe
 2886 00b0 0B       		.uleb128 0xb
 2887 00b1 0B       		.uleb128 0xb
 2888 00b2 3A       		.uleb128 0x3a
 2889 00b3 0B       		.uleb128 0xb
 2890 00b4 3B       		.uleb128 0x3b
 2891 00b5 0B       		.uleb128 0xb
 2892 00b6 01       		.uleb128 0x1
 2893 00b7 13       		.uleb128 0x13
 2894 00b8 00       		.byte	0
 2895 00b9 00       		.byte	0
 2896 00ba 11       		.uleb128 0x11
 2897 00bb 0D       		.uleb128 0xd
 2898 00bc 00       		.byte	0
 2899 00bd 03       		.uleb128 0x3
 2900 00be 08       		.uleb128 0x8
 2901 00bf 3A       		.uleb128 0x3a
 2902 00c0 0B       		.uleb128 0xb
 2903 00c1 3B       		.uleb128 0x3b
 2904 00c2 0B       		.uleb128 0xb
 2905 00c3 49       		.uleb128 0x49
 2906 00c4 13       		.uleb128 0x13
 2907 00c5 38       		.uleb128 0x38
ARM GAS  C:\Users\PCHAUT~1\AppData\Local\Temp\ccVnGr1y.s 			page 52


 2908 00c6 0B       		.uleb128 0xb
 2909 00c7 00       		.byte	0
 2910 00c8 00       		.byte	0
 2911 00c9 12       		.uleb128 0x12
 2912 00ca 13       		.uleb128 0x13
 2913 00cb 01       		.byte	0x1
 2914 00cc 03       		.uleb128 0x3
 2915 00cd 0E       		.uleb128 0xe
 2916 00ce 0B       		.uleb128 0xb
 2917 00cf 05       		.uleb128 0x5
 2918 00d0 3A       		.uleb128 0x3a
 2919 00d1 0B       		.uleb128 0xb
 2920 00d2 3B       		.uleb128 0x3b
 2921 00d3 0B       		.uleb128 0xb
 2922 00d4 01       		.uleb128 0x1
 2923 00d5 13       		.uleb128 0x13
 2924 00d6 00       		.byte	0
 2925 00d7 00       		.byte	0
 2926 00d8 13       		.uleb128 0x13
 2927 00d9 0D       		.uleb128 0xd
 2928 00da 00       		.byte	0
 2929 00db 03       		.uleb128 0x3
 2930 00dc 0E       		.uleb128 0xe
 2931 00dd 3A       		.uleb128 0x3a
 2932 00de 0B       		.uleb128 0xb
 2933 00df 3B       		.uleb128 0x3b
 2934 00e0 0B       		.uleb128 0xb
 2935 00e1 49       		.uleb128 0x49
 2936 00e2 13       		.uleb128 0x13
 2937 00e3 38       		.uleb128 0x38
 2938 00e4 05       		.uleb128 0x5
 2939 00e5 00       		.byte	0
 2940 00e6 00       		.byte	0
 2941 00e7 14       		.uleb128 0x14
 2942 00e8 15       		.uleb128 0x15
 2943 00e9 00       		.byte	0
 2944 00ea 27       		.uleb128 0x27
 2945 00eb 19       		.uleb128 0x19
 2946 00ec 00       		.byte	0
 2947 00ed 00       		.byte	0
 2948 00ee 15       		.uleb128 0x15
 2949 00ef 15       		.uleb128 0x15
 2950 00f0 01       		.byte	0x1
 2951 00f1 27       		.uleb128 0x27
 2952 00f2 19       		.uleb128 0x19
 2953 00f3 49       		.uleb128 0x49
 2954 00f4 13       		.uleb128 0x13
 2955 00f5 01       		.uleb128 0x1
 2956 00f6 13       		.uleb128 0x13
 2957 00f7 00       		.byte	0
 2958 00f8 00       		.byte	0
 2959 00f9 16       		.uleb128 0x16
 2960 00fa 05       		.uleb128 0x5
 2961 00fb 00       		.byte	0
 2962 00fc 49       		.uleb128 0x49
 2963 00fd 13       		.uleb128 0x13
 2964 00fe 00       		.byte	0
ARM GAS  C:\Users\PCHAUT~1\AppData\Local\Temp\ccVnGr1y.s 			page 53


 2965 00ff 00       		.byte	0
 2966 0100 17       		.uleb128 0x17
 2967 0101 13       		.uleb128 0x13
 2968 0102 01       		.byte	0x1
 2969 0103 03       		.uleb128 0x3
 2970 0104 0E       		.uleb128 0xe
 2971 0105 0B       		.uleb128 0xb
 2972 0106 05       		.uleb128 0x5
 2973 0107 3A       		.uleb128 0x3a
 2974 0108 0B       		.uleb128 0xb
 2975 0109 3B       		.uleb128 0x3b
 2976 010a 05       		.uleb128 0x5
 2977 010b 01       		.uleb128 0x1
 2978 010c 13       		.uleb128 0x13
 2979 010d 00       		.byte	0
 2980 010e 00       		.byte	0
 2981 010f 18       		.uleb128 0x18
 2982 0110 0D       		.uleb128 0xd
 2983 0111 00       		.byte	0
 2984 0112 03       		.uleb128 0x3
 2985 0113 0E       		.uleb128 0xe
 2986 0114 3A       		.uleb128 0x3a
 2987 0115 0B       		.uleb128 0xb
 2988 0116 3B       		.uleb128 0x3b
 2989 0117 05       		.uleb128 0x5
 2990 0118 49       		.uleb128 0x49
 2991 0119 13       		.uleb128 0x13
 2992 011a 38       		.uleb128 0x38
 2993 011b 0B       		.uleb128 0xb
 2994 011c 00       		.byte	0
 2995 011d 00       		.byte	0
 2996 011e 19       		.uleb128 0x19
 2997 011f 0D       		.uleb128 0xd
 2998 0120 00       		.byte	0
 2999 0121 03       		.uleb128 0x3
 3000 0122 0E       		.uleb128 0xe
 3001 0123 3A       		.uleb128 0x3a
 3002 0124 0B       		.uleb128 0xb
 3003 0125 3B       		.uleb128 0x3b
 3004 0126 05       		.uleb128 0x5
 3005 0127 49       		.uleb128 0x49
 3006 0128 13       		.uleb128 0x13
 3007 0129 38       		.uleb128 0x38
 3008 012a 05       		.uleb128 0x5
 3009 012b 00       		.byte	0
 3010 012c 00       		.byte	0
 3011 012d 1A       		.uleb128 0x1a
 3012 012e 13       		.uleb128 0x13
 3013 012f 01       		.byte	0x1
 3014 0130 03       		.uleb128 0x3
 3015 0131 0E       		.uleb128 0xe
 3016 0132 0B       		.uleb128 0xb
 3017 0133 0B       		.uleb128 0xb
 3018 0134 3A       		.uleb128 0x3a
 3019 0135 0B       		.uleb128 0xb
 3020 0136 3B       		.uleb128 0x3b
 3021 0137 05       		.uleb128 0x5
ARM GAS  C:\Users\PCHAUT~1\AppData\Local\Temp\ccVnGr1y.s 			page 54


 3022 0138 01       		.uleb128 0x1
 3023 0139 13       		.uleb128 0x13
 3024 013a 00       		.byte	0
 3025 013b 00       		.byte	0
 3026 013c 1B       		.uleb128 0x1b
 3027 013d 13       		.uleb128 0x13
 3028 013e 01       		.byte	0x1
 3029 013f 0B       		.uleb128 0xb
 3030 0140 0B       		.uleb128 0xb
 3031 0141 3A       		.uleb128 0x3a
 3032 0142 0B       		.uleb128 0xb
 3033 0143 3B       		.uleb128 0x3b
 3034 0144 05       		.uleb128 0x5
 3035 0145 01       		.uleb128 0x1
 3036 0146 13       		.uleb128 0x13
 3037 0147 00       		.byte	0
 3038 0148 00       		.byte	0
 3039 0149 1C       		.uleb128 0x1c
 3040 014a 17       		.uleb128 0x17
 3041 014b 01       		.byte	0x1
 3042 014c 0B       		.uleb128 0xb
 3043 014d 0B       		.uleb128 0xb
 3044 014e 3A       		.uleb128 0x3a
 3045 014f 0B       		.uleb128 0xb
 3046 0150 3B       		.uleb128 0x3b
 3047 0151 05       		.uleb128 0x5
 3048 0152 01       		.uleb128 0x1
 3049 0153 13       		.uleb128 0x13
 3050 0154 00       		.byte	0
 3051 0155 00       		.byte	0
 3052 0156 1D       		.uleb128 0x1d
 3053 0157 0D       		.uleb128 0xd
 3054 0158 00       		.byte	0
 3055 0159 03       		.uleb128 0x3
 3056 015a 0E       		.uleb128 0xe
 3057 015b 3A       		.uleb128 0x3a
 3058 015c 0B       		.uleb128 0xb
 3059 015d 3B       		.uleb128 0x3b
 3060 015e 05       		.uleb128 0x5
 3061 015f 49       		.uleb128 0x49
 3062 0160 13       		.uleb128 0x13
 3063 0161 00       		.byte	0
 3064 0162 00       		.byte	0
 3065 0163 1E       		.uleb128 0x1e
 3066 0164 15       		.uleb128 0x15
 3067 0165 01       		.byte	0x1
 3068 0166 27       		.uleb128 0x27
 3069 0167 19       		.uleb128 0x19
 3070 0168 01       		.uleb128 0x1
 3071 0169 13       		.uleb128 0x13
 3072 016a 00       		.byte	0
 3073 016b 00       		.byte	0
 3074 016c 1F       		.uleb128 0x1f
 3075 016d 34       		.uleb128 0x34
 3076 016e 00       		.byte	0
 3077 016f 03       		.uleb128 0x3
 3078 0170 0E       		.uleb128 0xe
ARM GAS  C:\Users\PCHAUT~1\AppData\Local\Temp\ccVnGr1y.s 			page 55


 3079 0171 3A       		.uleb128 0x3a
 3080 0172 0B       		.uleb128 0xb
 3081 0173 3B       		.uleb128 0x3b
 3082 0174 05       		.uleb128 0x5
 3083 0175 49       		.uleb128 0x49
 3084 0176 13       		.uleb128 0x13
 3085 0177 3F       		.uleb128 0x3f
 3086 0178 19       		.uleb128 0x19
 3087 0179 3C       		.uleb128 0x3c
 3088 017a 19       		.uleb128 0x19
 3089 017b 00       		.byte	0
 3090 017c 00       		.byte	0
 3091 017d 20       		.uleb128 0x20
 3092 017e 26       		.uleb128 0x26
 3093 017f 00       		.byte	0
 3094 0180 00       		.byte	0
 3095 0181 00       		.byte	0
 3096 0182 21       		.uleb128 0x21
 3097 0183 34       		.uleb128 0x34
 3098 0184 00       		.byte	0
 3099 0185 03       		.uleb128 0x3
 3100 0186 0E       		.uleb128 0xe
 3101 0187 3A       		.uleb128 0x3a
 3102 0188 0B       		.uleb128 0xb
 3103 0189 3B       		.uleb128 0x3b
 3104 018a 0B       		.uleb128 0xb
 3105 018b 49       		.uleb128 0x49
 3106 018c 13       		.uleb128 0x13
 3107 018d 3F       		.uleb128 0x3f
 3108 018e 19       		.uleb128 0x19
 3109 018f 3C       		.uleb128 0x3c
 3110 0190 19       		.uleb128 0x19
 3111 0191 00       		.byte	0
 3112 0192 00       		.byte	0
 3113 0193 22       		.uleb128 0x22
 3114 0194 0D       		.uleb128 0xd
 3115 0195 00       		.byte	0
 3116 0196 03       		.uleb128 0x3
 3117 0197 08       		.uleb128 0x8
 3118 0198 3A       		.uleb128 0x3a
 3119 0199 0B       		.uleb128 0xb
 3120 019a 3B       		.uleb128 0x3b
 3121 019b 0B       		.uleb128 0xb
 3122 019c 49       		.uleb128 0x49
 3123 019d 13       		.uleb128 0x13
 3124 019e 00       		.byte	0
 3125 019f 00       		.byte	0
 3126 01a0 23       		.uleb128 0x23
 3127 01a1 2E       		.uleb128 0x2e
 3128 01a2 01       		.byte	0x1
 3129 01a3 3F       		.uleb128 0x3f
 3130 01a4 19       		.uleb128 0x19
 3131 01a5 03       		.uleb128 0x3
 3132 01a6 0E       		.uleb128 0xe
 3133 01a7 3A       		.uleb128 0x3a
 3134 01a8 0B       		.uleb128 0xb
 3135 01a9 3B       		.uleb128 0x3b
ARM GAS  C:\Users\PCHAUT~1\AppData\Local\Temp\ccVnGr1y.s 			page 56


 3136 01aa 0B       		.uleb128 0xb
 3137 01ab 27       		.uleb128 0x27
 3138 01ac 19       		.uleb128 0x19
 3139 01ad 49       		.uleb128 0x49
 3140 01ae 13       		.uleb128 0x13
 3141 01af 11       		.uleb128 0x11
 3142 01b0 01       		.uleb128 0x1
 3143 01b1 12       		.uleb128 0x12
 3144 01b2 06       		.uleb128 0x6
 3145 01b3 40       		.uleb128 0x40
 3146 01b4 18       		.uleb128 0x18
 3147 01b5 9642     		.uleb128 0x2116
 3148 01b7 19       		.uleb128 0x19
 3149 01b8 01       		.uleb128 0x1
 3150 01b9 13       		.uleb128 0x13
 3151 01ba 00       		.byte	0
 3152 01bb 00       		.byte	0
 3153 01bc 24       		.uleb128 0x24
 3154 01bd 05       		.uleb128 0x5
 3155 01be 00       		.byte	0
 3156 01bf 03       		.uleb128 0x3
 3157 01c0 08       		.uleb128 0x8
 3158 01c1 3A       		.uleb128 0x3a
 3159 01c2 0B       		.uleb128 0xb
 3160 01c3 3B       		.uleb128 0x3b
 3161 01c4 0B       		.uleb128 0xb
 3162 01c5 49       		.uleb128 0x49
 3163 01c6 13       		.uleb128 0x13
 3164 01c7 02       		.uleb128 0x2
 3165 01c8 18       		.uleb128 0x18
 3166 01c9 00       		.byte	0
 3167 01ca 00       		.byte	0
 3168 01cb 25       		.uleb128 0x25
 3169 01cc 34       		.uleb128 0x34
 3170 01cd 00       		.byte	0
 3171 01ce 03       		.uleb128 0x3
 3172 01cf 0E       		.uleb128 0xe
 3173 01d0 3A       		.uleb128 0x3a
 3174 01d1 0B       		.uleb128 0xb
 3175 01d2 3B       		.uleb128 0x3b
 3176 01d3 0B       		.uleb128 0xb
 3177 01d4 49       		.uleb128 0x49
 3178 01d5 13       		.uleb128 0x13
 3179 01d6 02       		.uleb128 0x2
 3180 01d7 18       		.uleb128 0x18
 3181 01d8 00       		.byte	0
 3182 01d9 00       		.byte	0
 3183 01da 26       		.uleb128 0x26
 3184 01db 05       		.uleb128 0x5
 3185 01dc 00       		.byte	0
 3186 01dd 03       		.uleb128 0x3
 3187 01de 0E       		.uleb128 0xe
 3188 01df 3A       		.uleb128 0x3a
 3189 01e0 0B       		.uleb128 0xb
 3190 01e1 3B       		.uleb128 0x3b
 3191 01e2 0B       		.uleb128 0xb
 3192 01e3 49       		.uleb128 0x49
ARM GAS  C:\Users\PCHAUT~1\AppData\Local\Temp\ccVnGr1y.s 			page 57


 3193 01e4 13       		.uleb128 0x13
 3194 01e5 02       		.uleb128 0x2
 3195 01e6 18       		.uleb128 0x18
 3196 01e7 00       		.byte	0
 3197 01e8 00       		.byte	0
 3198 01e9 27       		.uleb128 0x27
 3199 01ea 2E       		.uleb128 0x2e
 3200 01eb 01       		.byte	0x1
 3201 01ec 3F       		.uleb128 0x3f
 3202 01ed 19       		.uleb128 0x19
 3203 01ee 03       		.uleb128 0x3
 3204 01ef 0E       		.uleb128 0xe
 3205 01f0 3A       		.uleb128 0x3a
 3206 01f1 0B       		.uleb128 0xb
 3207 01f2 3B       		.uleb128 0x3b
 3208 01f3 0B       		.uleb128 0xb
 3209 01f4 27       		.uleb128 0x27
 3210 01f5 19       		.uleb128 0x19
 3211 01f6 11       		.uleb128 0x11
 3212 01f7 01       		.uleb128 0x1
 3213 01f8 12       		.uleb128 0x12
 3214 01f9 06       		.uleb128 0x6
 3215 01fa 40       		.uleb128 0x40
 3216 01fb 18       		.uleb128 0x18
 3217 01fc 9642     		.uleb128 0x2116
 3218 01fe 19       		.uleb128 0x19
 3219 01ff 01       		.uleb128 0x1
 3220 0200 13       		.uleb128 0x13
 3221 0201 00       		.byte	0
 3222 0202 00       		.byte	0
 3223 0203 28       		.uleb128 0x28
 3224 0204 34       		.uleb128 0x34
 3225 0205 00       		.byte	0
 3226 0206 03       		.uleb128 0x3
 3227 0207 08       		.uleb128 0x8
 3228 0208 3A       		.uleb128 0x3a
 3229 0209 0B       		.uleb128 0xb
 3230 020a 3B       		.uleb128 0x3b
 3231 020b 0B       		.uleb128 0xb
 3232 020c 49       		.uleb128 0x49
 3233 020d 13       		.uleb128 0x13
 3234 020e 02       		.uleb128 0x2
 3235 020f 18       		.uleb128 0x18
 3236 0210 00       		.byte	0
 3237 0211 00       		.byte	0
 3238 0212 29       		.uleb128 0x29
 3239 0213 2E       		.uleb128 0x2e
 3240 0214 01       		.byte	0x1
 3241 0215 03       		.uleb128 0x3
 3242 0216 0E       		.uleb128 0xe
 3243 0217 3A       		.uleb128 0x3a
 3244 0218 0B       		.uleb128 0xb
 3245 0219 3B       		.uleb128 0x3b
 3246 021a 0B       		.uleb128 0xb
 3247 021b 27       		.uleb128 0x27
 3248 021c 19       		.uleb128 0x19
 3249 021d 11       		.uleb128 0x11
ARM GAS  C:\Users\PCHAUT~1\AppData\Local\Temp\ccVnGr1y.s 			page 58


 3250 021e 01       		.uleb128 0x1
 3251 021f 12       		.uleb128 0x12
 3252 0220 06       		.uleb128 0x6
 3253 0221 40       		.uleb128 0x40
 3254 0222 18       		.uleb128 0x18
 3255 0223 9642     		.uleb128 0x2116
 3256 0225 19       		.uleb128 0x19
 3257 0226 01       		.uleb128 0x1
 3258 0227 13       		.uleb128 0x13
 3259 0228 00       		.byte	0
 3260 0229 00       		.byte	0
 3261 022a 2A       		.uleb128 0x2a
 3262 022b 2E       		.uleb128 0x2e
 3263 022c 01       		.byte	0x1
 3264 022d 03       		.uleb128 0x3
 3265 022e 0E       		.uleb128 0xe
 3266 022f 3A       		.uleb128 0x3a
 3267 0230 0B       		.uleb128 0xb
 3268 0231 3B       		.uleb128 0x3b
 3269 0232 0B       		.uleb128 0xb
 3270 0233 27       		.uleb128 0x27
 3271 0234 19       		.uleb128 0x19
 3272 0235 49       		.uleb128 0x49
 3273 0236 13       		.uleb128 0x13
 3274 0237 11       		.uleb128 0x11
 3275 0238 01       		.uleb128 0x1
 3276 0239 12       		.uleb128 0x12
 3277 023a 06       		.uleb128 0x6
 3278 023b 40       		.uleb128 0x40
 3279 023c 18       		.uleb128 0x18
 3280 023d 9642     		.uleb128 0x2116
 3281 023f 19       		.uleb128 0x19
 3282 0240 01       		.uleb128 0x1
 3283 0241 13       		.uleb128 0x13
 3284 0242 00       		.byte	0
 3285 0243 00       		.byte	0
 3286 0244 00       		.byte	0
 3287              		.section	.debug_aranges,"",%progbits
 3288 0000 64000000 		.4byte	0x64
 3289 0004 0200     		.2byte	0x2
 3290 0006 00000000 		.4byte	.Ldebug_info0
 3291 000a 04       		.byte	0x4
 3292 000b 00       		.byte	0
 3293 000c 0000     		.2byte	0
 3294 000e 0000     		.2byte	0
 3295 0010 00000000 		.4byte	.LFB0
 3296 0014 68000000 		.4byte	.LFE0-.LFB0
 3297 0018 00000000 		.4byte	.LFB1
 3298 001c 34000000 		.4byte	.LFE1-.LFB1
 3299 0020 00000000 		.4byte	.LFB2
 3300 0024 34000000 		.4byte	.LFE2-.LFB2
 3301 0028 00000000 		.4byte	.LFB3
 3302 002c D8000000 		.4byte	.LFE3-.LFB3
 3303 0030 00000000 		.4byte	.LFB4
 3304 0034 64000000 		.4byte	.LFE4-.LFB4
 3305 0038 00000000 		.4byte	.LFB5
 3306 003c 98000000 		.4byte	.LFE5-.LFB5
ARM GAS  C:\Users\PCHAUT~1\AppData\Local\Temp\ccVnGr1y.s 			page 59


 3307 0040 00000000 		.4byte	.LFB6
 3308 0044 90000000 		.4byte	.LFE6-.LFB6
 3309 0048 00000000 		.4byte	.LFB7
 3310 004c 30000000 		.4byte	.LFE7-.LFB7
 3311 0050 00000000 		.4byte	.LFB8
 3312 0054 58000000 		.4byte	.LFE8-.LFB8
 3313 0058 00000000 		.4byte	.LFB9
 3314 005c 50000000 		.4byte	.LFE9-.LFB9
 3315 0060 00000000 		.4byte	0
 3316 0064 00000000 		.4byte	0
 3317              		.section	.debug_ranges,"",%progbits
 3318              	.Ldebug_ranges0:
 3319 0000 00000000 		.4byte	.LFB0
 3320 0004 68000000 		.4byte	.LFE0
 3321 0008 00000000 		.4byte	.LFB1
 3322 000c 34000000 		.4byte	.LFE1
 3323 0010 00000000 		.4byte	.LFB2
 3324 0014 34000000 		.4byte	.LFE2
 3325 0018 00000000 		.4byte	.LFB3
 3326 001c D8000000 		.4byte	.LFE3
 3327 0020 00000000 		.4byte	.LFB4
 3328 0024 64000000 		.4byte	.LFE4
 3329 0028 00000000 		.4byte	.LFB5
 3330 002c 98000000 		.4byte	.LFE5
 3331 0030 00000000 		.4byte	.LFB6
 3332 0034 90000000 		.4byte	.LFE6
 3333 0038 00000000 		.4byte	.LFB7
 3334 003c 30000000 		.4byte	.LFE7
 3335 0040 00000000 		.4byte	.LFB8
 3336 0044 58000000 		.4byte	.LFE8
 3337 0048 00000000 		.4byte	.LFB9
 3338 004c 50000000 		.4byte	.LFE9
 3339 0050 00000000 		.4byte	0
 3340 0054 00000000 		.4byte	0
 3341              		.section	.debug_line,"",%progbits
 3342              	.Ldebug_line0:
 3343 0000 71040000 		.section	.debug_str,"MS",%progbits,1
 3343      02006603 
 3343      00000201 
 3343      FB0E0D00 
 3343      01010101 
 3344              	.LASF44:
 3345 0000 5F64736F 		.ascii	"_dso_handle\000"
 3345      5F68616E 
 3345      646C6500 
 3346              	.LASF143:
 3347 000c 76616C75 		.ascii	"value\000"
 3347      6500
 3348              	.LASF52:
 3349 0012 5F73697A 		.ascii	"_size\000"
 3349      6500
 3350              	.LASF167:
 3351 0018 636F6E66 		.ascii	"config_block_get_length\000"
 3351      69675F62 
 3351      6C6F636B 
 3351      5F676574 
 3351      5F6C656E 
ARM GAS  C:\Users\PCHAUT~1\AppData\Local\Temp\ccVnGr1y.s 			page 60


 3352              	.LASF4:
 3353 0030 73697A65 		.ascii	"size_t\000"
 3353      5F7400
 3354              	.LASF96:
 3355 0037 5F72616E 		.ascii	"_rand48\000"
 3355      64343800 
 3356              	.LASF163:
 3357 003f 636F6E66 		.ascii	"config_block_find_first_free\000"
 3357      69675F62 
 3357      6C6F636B 
 3357      5F66696E 
 3357      645F6669 
 3358              	.LASF76:
 3359 005c 5F656D65 		.ascii	"_emergency\000"
 3359      7267656E 
 3359      637900
 3360              	.LASF156:
 3361 0067 77726974 		.ascii	"write\000"
 3361      6500
 3362              	.LASF5:
 3363 006d 5F5F7569 		.ascii	"__uint8_t\000"
 3363      6E74385F 
 3363      7400
 3364              	.LASF66:
 3365 0077 5F646174 		.ascii	"_data\000"
 3365      6100
 3366              	.LASF142:
 3367 007d 74797065 		.ascii	"type\000"
 3367      00
 3368              	.LASF132:
 3369 0082 70617261 		.ascii	"parameter_namespace_s\000"
 3369      6D657465 
 3369      725F6E61 
 3369      6D657370 
 3369      6163655F 
 3370              	.LASF131:
 3371 0098 70617261 		.ascii	"parameter_namespace_t\000"
 3371      6D657465 
 3371      725F6E61 
 3371      6D657370 
 3371      6163655F 
 3372              	.LASF116:
 3373 00ae 5F776372 		.ascii	"_wcrtomb_state\000"
 3373      746F6D62 
 3373      5F737461 
 3373      746500
 3374              	.LASF139:
 3375 00bd 70617261 		.ascii	"parameter_s\000"
 3375      6D657465 
 3375      725F7300 
 3376              	.LASF117:
 3377 00c9 5F776373 		.ascii	"_wcsrtombs_state\000"
 3377      72746F6D 
 3377      62735F73 
 3377      74617465 
 3377      00
 3378              	.LASF14:
ARM GAS  C:\Users\PCHAUT~1\AppData\Local\Temp\ccVnGr1y.s 			page 61


 3379 00da 6C6F6E67 		.ascii	"long long unsigned int\000"
 3379      206C6F6E 
 3379      6720756E 
 3379      7369676E 
 3379      65642069 
 3380              	.LASF56:
 3381 00f1 5F6C6266 		.ascii	"_lbfsize\000"
 3381      73697A65 
 3381      00
 3382              	.LASF123:
 3383 00fa 5F5F6C6F 		.ascii	"__locale_t\000"
 3383      63616C65 
 3383      5F7400
 3384              	.LASF138:
 3385 0105 70617261 		.ascii	"parameter_t\000"
 3385      6D657465 
 3385      725F7400 
 3386              	.LASF147:
 3387 0111 6275665F 		.ascii	"buf_dim\000"
 3387      64696D00 
 3388              	.LASF114:
 3389 0119 5F6D6272 		.ascii	"_mbrtowc_state\000"
 3389      746F7763 
 3389      5F737461 
 3389      746500
 3390              	.LASF136:
 3391 0128 6E657874 		.ascii	"next\000"
 3391      00
 3392              	.LASF33:
 3393 012d 5F5F746D 		.ascii	"__tm_sec\000"
 3393      5F736563 
 3393      00
 3394              	.LASF1:
 3395 0136 6C6F6E67 		.ascii	"long long int\000"
 3395      206C6F6E 
 3395      6720696E 
 3395      7400
 3396              	.LASF3:
 3397 0144 7369676E 		.ascii	"signed char\000"
 3397      65642063 
 3397      68617200 
 3398              	.LASF145:
 3399 0150 6275665F 		.ascii	"buf_len\000"
 3399      6C656E00 
 3400              	.LASF62:
 3401 0158 5F756275 		.ascii	"_ubuf\000"
 3401      6600
 3402              	.LASF140:
 3403 015e 6368616E 		.ascii	"changed\000"
 3403      67656400 
 3404              	.LASF51:
 3405 0166 5F626173 		.ascii	"_base\000"
 3405      6500
 3406              	.LASF35:
 3407 016c 5F5F746D 		.ascii	"__tm_hour\000"
 3407      5F686F75 
 3407      7200
ARM GAS  C:\Users\PCHAUT~1\AppData\Local\Temp\ccVnGr1y.s 			page 62


 3408              	.LASF91:
 3409 0176 5F5F7366 		.ascii	"__sf\000"
 3409      00
 3410              	.LASF42:
 3411 017b 5F6F6E5F 		.ascii	"_on_exit_args\000"
 3411      65786974 
 3411      5F617267 
 3411      7300
 3412              	.LASF144:
 3413 0189 5F706172 		.ascii	"_param_val_str_s\000"
 3413      616D5F76 
 3413      616C5F73 
 3413      74725F73 
 3413      00
 3414              	.LASF57:
 3415 019a 5F636F6F 		.ascii	"_cookie\000"
 3415      6B696500 
 3416              	.LASF134:
 3417 01a2 70617265 		.ascii	"parent\000"
 3417      6E7400
 3418              	.LASF90:
 3419 01a9 5F5F7367 		.ascii	"__sglue\000"
 3419      6C756500 
 3420              	.LASF11:
 3421 01b1 6C6F6E67 		.ascii	"long int\000"
 3421      20696E74 
 3421      00
 3422              	.LASF181:
 3423 01ba 474E5520 		.ascii	"GNU C11 7.2.1 20170904 (release) [ARM/embedded-7-br"
 3423      43313120 
 3423      372E322E 
 3423      31203230 
 3423      31373039 
 3424 01ed 616E6368 		.ascii	"anch revision 255204] -mcpu=cortex-m4 -mfloat-abi=h"
 3424      20726576 
 3424      6973696F 
 3424      6E203235 
 3424      35323034 
 3425 0220 61726420 		.ascii	"ard -mfpu=fpv4-sp-d16 -mno-thumb-interwork -mthumb "
 3425      2D6D6670 
 3425      753D6670 
 3425      76342D73 
 3425      702D6431 
 3426 0253 2D676764 		.ascii	"-ggdb -O0 -fomit-frame-pointer -falign-functions=16"
 3426      62202D4F 
 3426      30202D66 
 3426      6F6D6974 
 3426      2D667261 
 3427 0286 202D666E 		.ascii	" -fno-strict-aliasing -fstack-protector-all -ffunct"
 3427      6F2D7374 
 3427      72696374 
 3427      2D616C69 
 3427      6173696E 
 3428 02b9 696F6E2D 		.ascii	"ion-sections -fdata-sections -fno-common -fsingle-p"
 3428      73656374 
 3428      696F6E73 
 3428      202D6664 
ARM GAS  C:\Users\PCHAUT~1\AppData\Local\Temp\ccVnGr1y.s 			page 63


 3428      6174612D 
 3429 02ec 72656369 		.ascii	"recision-constant\000"
 3429      73696F6E 
 3429      2D636F6E 
 3429      7374616E 
 3429      7400
 3430              	.LASF54:
 3431 02fe 5F666C61 		.ascii	"_flags\000"
 3431      677300
 3432              	.LASF46:
 3433 0305 5F69735F 		.ascii	"_is_cxa\000"
 3433      63786100 
 3434              	.LASF72:
 3435 030d 5F737464 		.ascii	"_stdin\000"
 3435      696E00
 3436              	.LASF64:
 3437 0314 5F626C6B 		.ascii	"_blksize\000"
 3437      73697A65 
 3437      00
 3438              	.LASF160:
 3439 031d 696E6465 		.ascii	"index\000"
 3439      7800
 3440              	.LASF175:
 3441 0323 636F6E66 		.ascii	"config_save\000"
 3441      69675F73 
 3441      61766500 
 3442              	.LASF127:
 3443 032f 75696E74 		.ascii	"uint16_t\000"
 3443      31365F74 
 3443      00
 3444              	.LASF141:
 3445 0338 64656669 		.ascii	"defined\000"
 3445      6E656400 
 3446              	.LASF137:
 3447 0340 70617261 		.ascii	"parameter_list\000"
 3447      6D657465 
 3447      725F6C69 
 3447      737400
 3448              	.LASF86:
 3449 034f 5F637674 		.ascii	"_cvtbuf\000"
 3449      62756600 
 3450              	.LASF65:
 3451 0357 5F6F6666 		.ascii	"_offset\000"
 3451      73657400 
 3452              	.LASF115:
 3453 035f 5F6D6273 		.ascii	"_mbsrtowcs_state\000"
 3453      72746F77 
 3453      63735F73 
 3453      74617465 
 3453      00
 3454              	.LASF113:
 3455 0370 5F6D6272 		.ascii	"_mbrlen_state\000"
 3455      6C656E5F 
 3455      73746174 
 3455      6500
 3456              	.LASF43:
 3457 037e 5F666E61 		.ascii	"_fnargs\000"
ARM GAS  C:\Users\PCHAUT~1\AppData\Local\Temp\ccVnGr1y.s 			page 64


 3457      72677300 
 3458              	.LASF159:
 3459 0386 636D705F 		.ascii	"cmp_ctx_t\000"
 3459      6374785F 
 3459      7400
 3460              	.LASF184:
 3461 0390 6572725F 		.ascii	"err_mark_false\000"
 3461      6D61726B 
 3461      5F66616C 
 3461      736500
 3462              	.LASF49:
 3463 039f 5F666E73 		.ascii	"_fns\000"
 3463      00
 3464              	.LASF12:
 3465 03a4 5F5F7569 		.ascii	"__uint32_t\000"
 3465      6E743332 
 3465      5F7400
 3466              	.LASF29:
 3467 03af 5F736967 		.ascii	"_sign\000"
 3467      6E00
 3468              	.LASF24:
 3469 03b5 5F666C6F 		.ascii	"_flock_t\000"
 3469      636B5F74 
 3469      00
 3470              	.LASF74:
 3471 03be 5F737464 		.ascii	"_stderr\000"
 3471      65727200 
 3472              	.LASF31:
 3473 03c6 5F426967 		.ascii	"_Bigint\000"
 3473      696E7400 
 3474              	.LASF104:
 3475 03ce 5F67616D 		.ascii	"_gamma_signgam\000"
 3475      6D615F73 
 3475      69676E67 
 3475      616D00
 3476              	.LASF149:
 3477 03dd 5F706172 		.ascii	"_param_val_matrix_s\000"
 3477      616D5F76 
 3477      616C5F6D 
 3477      61747269 
 3477      785F7300 
 3478              	.LASF58:
 3479 03f1 5F726561 		.ascii	"_read\000"
 3479      6400
 3480              	.LASF82:
 3481 03f7 5F726573 		.ascii	"_result_k\000"
 3481      756C745F 
 3481      6B00
 3482              	.LASF32:
 3483 0401 5F5F746D 		.ascii	"__tm\000"
 3483      00
 3484              	.LASF165:
 3485 0406 626C6F63 		.ascii	"block\000"
 3485      6B00
 3486              	.LASF0:
 3487 040c 756E7369 		.ascii	"unsigned int\000"
 3487      676E6564 
ARM GAS  C:\Users\PCHAUT~1\AppData\Local\Temp\ccVnGr1y.s 			page 65


 3487      20696E74 
 3487      00
 3488              	.LASF20:
 3489 0419 5F5F7763 		.ascii	"__wchb\000"
 3489      686200
 3490              	.LASF73:
 3491 0420 5F737464 		.ascii	"_stdout\000"
 3491      6F757400 
 3492              	.LASF85:
 3493 0428 5F637674 		.ascii	"_cvtlen\000"
 3493      6C656E00 
 3494              	.LASF13:
 3495 0430 6C6F6E67 		.ascii	"long unsigned int\000"
 3495      20756E73 
 3495      69676E65 
 3495      6420696E 
 3495      7400
 3496              	.LASF55:
 3497 0442 5F66696C 		.ascii	"_file\000"
 3497      6500
 3498              	.LASF157:
 3499 0448 636D705F 		.ascii	"cmp_writer\000"
 3499      77726974 
 3499      657200
 3500              	.LASF94:
 3501 0453 5F6E696F 		.ascii	"_niobs\000"
 3501      627300
 3502              	.LASF179:
 3503 045a 636F6E66 		.ascii	"config_erase\000"
 3503      69675F65 
 3503      72617365 
 3503      00
 3504              	.LASF180:
 3505 0467 64617461 		.ascii	"data\000"
 3505      00
 3506              	.LASF161:
 3507 046c 73697A65 		.ascii	"size\000"
 3507      00
 3508              	.LASF9:
 3509 0471 73686F72 		.ascii	"short unsigned int\000"
 3509      7420756E 
 3509      7369676E 
 3509      65642069 
 3509      6E7400
 3510              	.LASF88:
 3511 0484 5F617465 		.ascii	"_atexit0\000"
 3511      78697430 
 3511      00
 3512              	.LASF111:
 3513 048d 5F736967 		.ascii	"_signal_buf\000"
 3513      6E616C5F 
 3513      62756600 
 3514              	.LASF102:
 3515 0499 5F617363 		.ascii	"_asctime_buf\000"
 3515      74696D65 
 3515      5F627566 
 3515      00
ARM GAS  C:\Users\PCHAUT~1\AppData\Local\Temp\ccVnGr1y.s 			page 66


 3516              	.LASF166:
 3517 04a6 6C617374 		.ascii	"last\000"
 3517      00
 3518              	.LASF182:
 3519 04ab 2E2E2F6C 		.ascii	"../lib/e-puck2_main-processor/src/config_flash_stor"
 3519      69622F65 
 3519      2D707563 
 3519      6B325F6D 
 3519      61696E2D 
 3520 04de 6167652E 		.ascii	"age.c\000"
 3520      6300
 3521              	.LASF81:
 3522 04e4 5F726573 		.ascii	"_result\000"
 3522      756C7400 
 3523              	.LASF19:
 3524 04ec 5F5F7763 		.ascii	"__wch\000"
 3524      6800
 3525              	.LASF15:
 3526 04f2 5F4C4F43 		.ascii	"_LOCK_T\000"
 3526      4B5F5400 
 3527              	.LASF18:
 3528 04fa 77696E74 		.ascii	"wint_t\000"
 3528      5F7400
 3529              	.LASF176:
 3530 0501 6473745F 		.ascii	"dst_len\000"
 3530      6C656E00 
 3531              	.LASF67:
 3532 0509 5F6C6F63 		.ascii	"_lock\000"
 3532      6B00
 3533              	.LASF162:
 3534 050f 636D705F 		.ascii	"cmp_mem_access_t\000"
 3534      6D656D5F 
 3534      61636365 
 3534      73735F74 
 3534      00
 3535              	.LASF69:
 3536 0520 5F666C61 		.ascii	"_flags2\000"
 3536      67733200 
 3537              	.LASF59:
 3538 0528 5F777269 		.ascii	"_write\000"
 3538      746500
 3539              	.LASF38:
 3540 052f 5F5F746D 		.ascii	"__tm_year\000"
 3540      5F796561 
 3540      7200
 3541              	.LASF152:
 3542 0539 636D705F 		.ascii	"cmp_reader\000"
 3542      72656164 
 3542      657200
 3543              	.LASF172:
 3544 0544 636F6E66 		.ascii	"config_load\000"
 3544      69675F6C 
 3544      6F616400 
 3545              	.LASF2:
 3546 0550 6C6F6E67 		.ascii	"long double\000"
 3546      20646F75 
 3546      626C6500 
ARM GAS  C:\Users\PCHAUT~1\AppData\Local\Temp\ccVnGr1y.s 			page 67


 3547              	.LASF153:
 3548 055c 636D705F 		.ascii	"cmp_ctx_s\000"
 3548      6374785F 
 3548      7300
 3549              	.LASF119:
 3550 0566 5F6E6578 		.ascii	"_nextf\000"
 3550      746600
 3551              	.LASF164:
 3552 056d 636F6E66 		.ascii	"config_block_find_last_used\000"
 3552      69675F62 
 3552      6C6F636B 
 3552      5F66696E 
 3552      645F6C61 
 3553              	.LASF178:
 3554 0589 6F726967 		.ascii	"orig_dst\000"
 3554      5F647374 
 3554      00
 3555              	.LASF37:
 3556 0592 5F5F746D 		.ascii	"__tm_mon\000"
 3556      5F6D6F6E 
 3556      00
 3557              	.LASF47:
 3558 059b 5F617465 		.ascii	"_atexit\000"
 3558      78697400 
 3559              	.LASF130:
 3560 05a3 7375626F 		.ascii	"suboptarg\000"
 3560      70746172 
 3560      6700
 3561              	.LASF79:
 3562 05ad 5F5F7364 		.ascii	"__sdidinit\000"
 3562      6964696E 
 3562      697400
 3563              	.LASF16:
 3564 05b8 5F6F6666 		.ascii	"_off_t\000"
 3564      5F7400
 3565              	.LASF126:
 3566 05bf 75696E74 		.ascii	"uint8_t\000"
 3566      385F7400 
 3567              	.LASF155:
 3568 05c7 72656164 		.ascii	"read\000"
 3568      00
 3569              	.LASF148:
 3570 05cc 666C6F61 		.ascii	"float\000"
 3570      7400
 3571              	.LASF84:
 3572 05d2 5F667265 		.ascii	"_freelist\000"
 3572      656C6973 
 3572      7400
 3573              	.LASF154:
 3574 05dc 6572726F 		.ascii	"error\000"
 3574      7200
 3575              	.LASF170:
 3576 05e2 636F6E66 		.ascii	"config_block_is_valid\000"
 3576      69675F62 
 3576      6C6F636B 
 3576      5F69735F 
 3576      76616C69 
ARM GAS  C:\Users\PCHAUT~1\AppData\Local\Temp\ccVnGr1y.s 			page 68


 3577              	.LASF109:
 3578 05f8 5F776374 		.ascii	"_wctomb_state\000"
 3578      6F6D625F 
 3578      73746174 
 3578      6500
 3579              	.LASF151:
 3580 0606 5F426F6F 		.ascii	"_Bool\000"
 3580      6C00
 3581              	.LASF128:
 3582 060c 696E7433 		.ascii	"int32_t\000"
 3582      325F7400 
 3583              	.LASF6:
 3584 0614 756E7369 		.ascii	"unsigned char\000"
 3584      676E6564 
 3584      20636861 
 3584      7200
 3585              	.LASF173:
 3586 0622 7372635F 		.ascii	"src_len\000"
 3586      6C656E00 
 3587              	.LASF87:
 3588 062a 5F6E6577 		.ascii	"_new\000"
 3588      00
 3589              	.LASF118:
 3590 062f 5F685F65 		.ascii	"_h_errno\000"
 3590      72726E6F 
 3590      00
 3591              	.LASF7:
 3592 0638 73686F72 		.ascii	"short int\000"
 3592      7420696E 
 3592      7400
 3593              	.LASF40:
 3594 0642 5F5F746D 		.ascii	"__tm_yday\000"
 3594      5F796461 
 3594      7900
 3595              	.LASF50:
 3596 064c 5F5F7362 		.ascii	"__sbuf\000"
 3596      756600
 3597              	.LASF146:
 3598 0653 5F706172 		.ascii	"_param_val_vector_s\000"
 3598      616D5F76 
 3598      616C5F76 
 3598      6563746F 
 3598      725F7300 
 3599              	.LASF95:
 3600 0667 5F696F62 		.ascii	"_iobs\000"
 3600      7300
 3601              	.LASF92:
 3602 066d 5F5F4649 		.ascii	"__FILE\000"
 3602      4C4500
 3603              	.LASF23:
 3604 0674 5F6D6273 		.ascii	"_mbstate_t\000"
 3604      74617465 
 3604      5F7400
 3605              	.LASF53:
 3606 067f 5F5F7346 		.ascii	"__sFILE\000"
 3606      494C4500 
 3607              	.LASF68:
ARM GAS  C:\Users\PCHAUT~1\AppData\Local\Temp\ccVnGr1y.s 			page 69


 3608 0687 5F6D6273 		.ascii	"_mbstate\000"
 3608      74617465 
 3608      00
 3609              	.LASF105:
 3610 0690 5F72616E 		.ascii	"_rand_next\000"
 3610      645F6E65 
 3610      787400
 3611              	.LASF135:
 3612 069b 73756273 		.ascii	"subspaces\000"
 3612      70616365 
 3612      7300
 3613              	.LASF107:
 3614 06a5 5F6D626C 		.ascii	"_mblen_state\000"
 3614      656E5F73 
 3614      74617465 
 3614      00
 3615              	.LASF75:
 3616 06b2 5F696E63 		.ascii	"_inc\000"
 3616      00
 3617              	.LASF48:
 3618 06b7 5F696E64 		.ascii	"_ind\000"
 3618      00
 3619              	.LASF183:
 3620 06bc 433A5C55 		.ascii	"C:\\Users\\Pchautems\\Documents\\RobotiqueTP\\Proje"
 3620      73657273 
 3620      5C506368 
 3620      61757465 
 3620      6D735C44 
 3621 06ea 745C6D69 		.ascii	"t\\miniprojet\000"
 3621      6E697072 
 3621      6F6A6574 
 3621      00
 3622              	.LASF78:
 3623 06f7 5F6C6F63 		.ascii	"_locale\000"
 3623      616C6500 
 3624              	.LASF80:
 3625 06ff 5F5F636C 		.ascii	"__cleanup\000"
 3625      65616E75 
 3625      7000
 3626              	.LASF77:
 3627 0709 5F756E73 		.ascii	"_unspecified_locale_info\000"
 3627      70656369 
 3627      66696564 
 3627      5F6C6F63 
 3627      616C655F 
 3628              	.LASF28:
 3629 0722 5F6D6178 		.ascii	"_maxwds\000"
 3629      77647300 
 3630              	.LASF70:
 3631 072a 5F726565 		.ascii	"_reent\000"
 3631      6E7400
 3632              	.LASF97:
 3633 0731 5F736565 		.ascii	"_seed\000"
 3633      6400
 3634              	.LASF185:
 3635 0737 636D705F 		.ascii	"cmp_flash_writer\000"
 3635      666C6173 
ARM GAS  C:\Users\PCHAUT~1\AppData\Local\Temp\ccVnGr1y.s 			page 70


 3635      685F7772 
 3635      69746572 
 3635      00
 3636              	.LASF21:
 3637 0748 5F5F636F 		.ascii	"__count\000"
 3637      756E7400 
 3638              	.LASF122:
 3639 0750 5F5F6C6F 		.ascii	"__lock\000"
 3639      636B00
 3640              	.LASF22:
 3641 0757 5F5F7661 		.ascii	"__value\000"
 3641      6C756500 
 3642              	.LASF60:
 3643 075f 5F736565 		.ascii	"_seek\000"
 3643      6B00
 3644              	.LASF124:
 3645 0765 5F696D70 		.ascii	"_impure_ptr\000"
 3645      7572655F 
 3645      70747200 
 3646              	.LASF17:
 3647 0771 5F66706F 		.ascii	"_fpos_t\000"
 3647      735F7400 
 3648              	.LASF171:
 3649 0779 6C656E67 		.ascii	"length\000"
 3649      746800
 3650              	.LASF71:
 3651 0780 5F657272 		.ascii	"_errno\000"
 3651      6E6F00
 3652              	.LASF25:
 3653 0787 63686172 		.ascii	"char\000"
 3653      00
 3654              	.LASF34:
 3655 078c 5F5F746D 		.ascii	"__tm_min\000"
 3655      5F6D696E 
 3655      00
 3656              	.LASF8:
 3657 0795 5F5F7569 		.ascii	"__uint16_t\000"
 3657      6E743136 
 3657      5F7400
 3658              	.LASF150:
 3659 07a0 76656374 		.ascii	"vect\000"
 3659      00
 3660              	.LASF10:
 3661 07a5 5F5F696E 		.ascii	"__int32_t\000"
 3661      7433325F 
 3661      7400
 3662              	.LASF98:
 3663 07af 5F6D756C 		.ascii	"_mult\000"
 3663      7400
 3664              	.LASF27:
 3665 07b5 5F6E6578 		.ascii	"_next\000"
 3665      7400
 3666              	.LASF101:
 3667 07bb 5F737472 		.ascii	"_strtok_last\000"
 3667      746F6B5F 
 3667      6C617374 
 3667      00
ARM GAS  C:\Users\PCHAUT~1\AppData\Local\Temp\ccVnGr1y.s 			page 71


 3668              	.LASF169:
 3669 07c8 6F666673 		.ascii	"offset\000"
 3669      657400
 3670              	.LASF45:
 3671 07cf 5F666E74 		.ascii	"_fntypes\000"
 3671      79706573 
 3671      00
 3672              	.LASF133:
 3673 07d8 6368616E 		.ascii	"changed_cnt\000"
 3673      6765645F 
 3673      636E7400 
 3674              	.LASF99:
 3675 07e4 5F616464 		.ascii	"_add\000"
 3675      00
 3676              	.LASF26:
 3677 07e9 5F5F554C 		.ascii	"__ULong\000"
 3677      6F6E6700 
 3678              	.LASF112:
 3679 07f1 5F676574 		.ascii	"_getdate_err\000"
 3679      64617465 
 3679      5F657272 
 3679      00
 3680              	.LASF125:
 3681 07fe 5F676C6F 		.ascii	"_global_impure_ptr\000"
 3681      62616C5F 
 3681      696D7075 
 3681      72655F70 
 3681      747200
 3682              	.LASF129:
 3683 0811 75696E74 		.ascii	"uint32_t\000"
 3683      33325F74 
 3683      00
 3684              	.LASF100:
 3685 081a 5F756E75 		.ascii	"_unused_rand\000"
 3685      7365645F 
 3685      72616E64 
 3685      00
 3686              	.LASF30:
 3687 0827 5F776473 		.ascii	"_wds\000"
 3687      00
 3688              	.LASF39:
 3689 082c 5F5F746D 		.ascii	"__tm_wday\000"
 3689      5F776461 
 3689      7900
 3690              	.LASF93:
 3691 0836 5F676C75 		.ascii	"_glue\000"
 3691      6500
 3692              	.LASF120:
 3693 083c 5F6E6D61 		.ascii	"_nmalloc\000"
 3693      6C6C6F63 
 3693      00
 3694              	.LASF110:
 3695 0845 5F6C3634 		.ascii	"_l64a_buf\000"
 3695      615F6275 
 3695      6600
 3696              	.LASF89:
 3697 084f 5F736967 		.ascii	"_sig_func\000"
ARM GAS  C:\Users\PCHAUT~1\AppData\Local\Temp\ccVnGr1y.s 			page 72


 3697      5F66756E 
 3697      6300
 3698              	.LASF174:
 3699 0859 636F6E66 		.ascii	"config_write_block_header\000"
 3699      69675F77 
 3699      72697465 
 3699      5F626C6F 
 3699      636B5F68 
 3700              	.LASF63:
 3701 0873 5F6E6275 		.ascii	"_nbuf\000"
 3701      6600
 3702              	.LASF121:
 3703 0879 5F756E75 		.ascii	"_unused\000"
 3703      73656400 
 3704              	.LASF41:
 3705 0881 5F5F746D 		.ascii	"__tm_isdst\000"
 3705      5F697364 
 3705      737400
 3706              	.LASF103:
 3707 088c 5F6C6F63 		.ascii	"_localtime_buf\000"
 3707      616C7469 
 3707      6D655F62 
 3707      756600
 3708              	.LASF61:
 3709 089b 5F636C6F 		.ascii	"_close\000"
 3709      736500
 3710              	.LASF106:
 3711 08a2 5F723438 		.ascii	"_r48\000"
 3711      00
 3712              	.LASF108:
 3713 08a7 5F6D6274 		.ascii	"_mbtowc_state\000"
 3713      6F77635F 
 3713      73746174 
 3713      6500
 3714              	.LASF83:
 3715 08b5 5F703573 		.ascii	"_p5s\000"
 3715      00
 3716              	.LASF158:
 3717 08ba 646F7562 		.ascii	"double\000"
 3717      6C6500
 3718              	.LASF168:
 3719 08c1 68656164 		.ascii	"header\000"
 3719      657200
 3720              	.LASF36:
 3721 08c8 5F5F746D 		.ascii	"__tm_mday\000"
 3721      5F6D6461 
 3721      7900
 3722              	.LASF177:
 3723 08d2 73756363 		.ascii	"success\000"
 3723      65737300 
 3724              		.ident	"GCC: (GNU Tools for Arm Embedded Processors 7-2017-q4-major) 7.2.1 20170904 (release) [ARM
ARM GAS  C:\Users\PCHAUT~1\AppData\Local\Temp\ccVnGr1y.s 			page 73


DEFINED SYMBOLS
                            *ABS*:00000000 config_flash_storage.c
C:\Users\PCHAUT~1\AppData\Local\Temp\ccVnGr1y.s:18     .text.cmp_flash_writer:00000000 $t
C:\Users\PCHAUT~1\AppData\Local\Temp\ccVnGr1y.s:25     .text.cmp_flash_writer:00000000 cmp_flash_writer
C:\Users\PCHAUT~1\AppData\Local\Temp\ccVnGr1y.s:97     .text.cmp_flash_writer:00000064 $d
C:\Users\PCHAUT~1\AppData\Local\Temp\ccVnGr1y.s:102    .text.config_erase:00000000 $t
C:\Users\PCHAUT~1\AppData\Local\Temp\ccVnGr1y.s:110    .text.config_erase:00000000 config_erase
C:\Users\PCHAUT~1\AppData\Local\Temp\ccVnGr1y.s:149    .text.config_erase:00000030 $d
C:\Users\PCHAUT~1\AppData\Local\Temp\ccVnGr1y.s:154    .text.err_mark_false:00000000 $t
C:\Users\PCHAUT~1\AppData\Local\Temp\ccVnGr1y.s:161    .text.err_mark_false:00000000 err_mark_false
C:\Users\PCHAUT~1\AppData\Local\Temp\ccVnGr1y.s:202    .text.err_mark_false:00000030 $d
C:\Users\PCHAUT~1\AppData\Local\Temp\ccVnGr1y.s:207    .text.config_save:00000000 $t
C:\Users\PCHAUT~1\AppData\Local\Temp\ccVnGr1y.s:215    .text.config_save:00000000 config_save
C:\Users\PCHAUT~1\AppData\Local\Temp\ccVnGr1y.s:705    .text.config_block_find_last_used:00000000 config_block_find_last_used
C:\Users\PCHAUT~1\AppData\Local\Temp\ccVnGr1y.s:782    .text.config_block_find_first_free:00000000 config_block_find_first_free
C:\Users\PCHAUT~1\AppData\Local\Temp\ccVnGr1y.s:555    .text.config_write_block_header:00000000 config_write_block_header
C:\Users\PCHAUT~1\AppData\Local\Temp\ccVnGr1y.s:341    .text.config_save:000000cc $d
C:\Users\PCHAUT~1\AppData\Local\Temp\ccVnGr1y.s:348    .text.config_load:00000000 $t
C:\Users\PCHAUT~1\AppData\Local\Temp\ccVnGr1y.s:356    .text.config_load:00000000 config_load
C:\Users\PCHAUT~1\AppData\Local\Temp\ccVnGr1y.s:654    .text.config_block_get_length:00000000 config_block_get_length
C:\Users\PCHAUT~1\AppData\Local\Temp\ccVnGr1y.s:426    .text.config_load:00000060 $d
C:\Users\PCHAUT~1\AppData\Local\Temp\ccVnGr1y.s:431    .text.config_block_is_valid:00000000 $t
C:\Users\PCHAUT~1\AppData\Local\Temp\ccVnGr1y.s:439    .text.config_block_is_valid:00000000 config_block_is_valid
C:\Users\PCHAUT~1\AppData\Local\Temp\ccVnGr1y.s:541    .text.config_block_is_valid:00000090 $d
C:\Users\PCHAUT~1\AppData\Local\Temp\ccVnGr1y.s:547    .text.config_write_block_header:00000000 $t
C:\Users\PCHAUT~1\AppData\Local\Temp\ccVnGr1y.s:640    .text.config_write_block_header:00000088 $d
C:\Users\PCHAUT~1\AppData\Local\Temp\ccVnGr1y.s:646    .text.config_block_get_length:00000000 $t
C:\Users\PCHAUT~1\AppData\Local\Temp\ccVnGr1y.s:692    .text.config_block_get_length:0000002c $d
C:\Users\PCHAUT~1\AppData\Local\Temp\ccVnGr1y.s:697    .text.config_block_find_last_used:00000000 $t
C:\Users\PCHAUT~1\AppData\Local\Temp\ccVnGr1y.s:769    .text.config_block_find_last_used:00000054 $d
C:\Users\PCHAUT~1\AppData\Local\Temp\ccVnGr1y.s:774    .text.config_block_find_first_free:00000000 $t
C:\Users\PCHAUT~1\AppData\Local\Temp\ccVnGr1y.s:840    .text.config_block_find_first_free:0000004c $d

UNDEFINED SYMBOLS
flash_write
__stack_chk_fail
__stack_chk_guard
flash_unlock
flash_sector_erase
flash_lock
cmp_mem_access_init
parameter_msgpack_write_cmp
cmp_mem_access_get_pos
parameter_msgpack_read
crc32
