ARM GAS  C:\Users\PCHAUT~1\AppData\Local\Temp\ccVnGr1y.s 			page 1


   1              		.cpu cortex-m4
   2              		.eabi_attribute 27, 1
   3              		.eabi_attribute 28, 1
   4              		.eabi_attribute 20, 1
   5              		.eabi_attribute 21, 1
   6              		.eabi_attribute 23, 3
   7              		.eabi_attribute 24, 1
   8              		.eabi_attribute 25, 1
   9              		.eabi_attribute 26, 1
  10              		.eabi_attribute 30, 6
  11              		.eabi_attribute 34, 1
  12              		.eabi_attribute 18, 4
  13              		.file	"config_flash_storage.c"
  14              		.text
  15              	.Ltext0:
  16              		.cfi_sections	.debug_frame
  17              		.section	.text.cmp_flash_writer,"ax",%progbits
  18              		.align	1
  19              		.p2align 4,,15
  20              		.syntax unified
  21              		.thumb
  22              		.thumb_func
  23              		.fpu fpv4-sp-d16
  24              		.type	cmp_flash_writer, %function
  25              	cmp_flash_writer:
  26              	.LFB0:
  27              		.file 1 "../lib/e-puck2_main-processor/src/config_flash_storage.c"
  28              		.loc 1 16 0
  29              		.cfi_startproc
  30              		@ args = 0, pretend = 0, frame = 24
  31              		@ frame_needed = 0, uses_anonymous_args = 0
  32 0000 00B5     		push	{lr}
  33              		.cfi_def_cfa_offset 4
  34              		.cfi_offset 14, -4
  35 0002 87B0     		sub	sp, sp, #28
  36              		.cfi_def_cfa_offset 32
  37 0004 0390     		str	r0, [sp, #12]
  38 0006 0291     		str	r1, [sp, #8]
  39 0008 0192     		str	r2, [sp, #4]
  40              		.loc 1 16 0
  41 000a 164B     		ldr	r3, .L5
  42 000c 1B68     		ldr	r3, [r3]
  43 000e 0593     		str	r3, [sp, #20]
  44              		.loc 1 17 0
  45 0010 039B     		ldr	r3, [sp, #12]
  46 0012 5B68     		ldr	r3, [r3, #4]
  47 0014 0493     		str	r3, [sp, #16]
  48              		.loc 1 18 0
  49 0016 049B     		ldr	r3, [sp, #16]
  50 0018 5A68     		ldr	r2, [r3, #4]
  51 001a 019B     		ldr	r3, [sp, #4]
  52 001c 1A44     		add	r2, r2, r3
  53 001e 049B     		ldr	r3, [sp, #16]
  54 0020 9B68     		ldr	r3, [r3, #8]
  55 0022 9A42     		cmp	r2, r3
  56 0024 11D8     		bhi	.L2
  57              		.loc 1 19 0
ARM GAS  C:\Users\PCHAUT~1\AppData\Local\Temp\ccVnGr1y.s 			page 2


  58 0026 049B     		ldr	r3, [sp, #16]
  59 0028 1A68     		ldr	r2, [r3]
  60 002a 049B     		ldr	r3, [sp, #16]
  61 002c 5B68     		ldr	r3, [r3, #4]
  62 002e 1344     		add	r3, r3, r2
  63 0030 019A     		ldr	r2, [sp, #4]
  64 0032 0299     		ldr	r1, [sp, #8]
  65 0034 1846     		mov	r0, r3
  66 0036 FFF7FEFF 		bl	flash_write
  67              		.loc 1 20 0
  68 003a 049B     		ldr	r3, [sp, #16]
  69 003c 5A68     		ldr	r2, [r3, #4]
  70 003e 019B     		ldr	r3, [sp, #4]
  71 0040 1A44     		add	r2, r2, r3
  72 0042 049B     		ldr	r3, [sp, #16]
  73 0044 5A60     		str	r2, [r3, #4]
  74              		.loc 1 21 0
  75 0046 019B     		ldr	r3, [sp, #4]
  76 0048 00E0     		b	.L3
  77              	.L2:
  78              		.loc 1 23 0
  79 004a 0023     		movs	r3, #0
  80              	.L3:
  81              		.loc 1 25 0
  82 004c 1846     		mov	r0, r3
  83 004e 054B     		ldr	r3, .L5
  84 0050 059A     		ldr	r2, [sp, #20]
  85 0052 1B68     		ldr	r3, [r3]
  86 0054 9A42     		cmp	r2, r3
  87 0056 01D0     		beq	.L4
  88 0058 FFF7FEFF 		bl	__stack_chk_fail
  89              	.L4:
  90 005c 07B0     		add	sp, sp, #28
  91              		.cfi_def_cfa_offset 4
  92              		@ sp needed
  93 005e 5DF804FB 		ldr	pc, [sp], #4
  94              	.L6:
  95 0062 00BF     		.align	2
  96              	.L5:
  97 0064 00000000 		.word	__stack_chk_guard
  98              		.cfi_endproc
  99              	.LFE0:
 100              		.size	cmp_flash_writer, .-cmp_flash_writer
 101              		.section	.text.config_erase,"ax",%progbits
 102              		.align	1
 103              		.p2align 4,,15
 104              		.global	config_erase
 105              		.syntax unified
 106              		.thumb
 107              		.thumb_func
 108              		.fpu fpv4-sp-d16
 109              		.type	config_erase, %function
 110              	config_erase:
 111              	.LFB1:
 112              		.loc 1 28 0
 113              		.cfi_startproc
 114              		@ args = 0, pretend = 0, frame = 16
ARM GAS  C:\Users\PCHAUT~1\AppData\Local\Temp\ccVnGr1y.s 			page 3


 115              		@ frame_needed = 0, uses_anonymous_args = 0
 116 0000 00B5     		push	{lr}
 117              		.cfi_def_cfa_offset 4
 118              		.cfi_offset 14, -4
 119 0002 85B0     		sub	sp, sp, #20
 120              		.cfi_def_cfa_offset 24
 121 0004 0190     		str	r0, [sp, #4]
 122              		.loc 1 28 0
 123 0006 0A4B     		ldr	r3, .L9
 124 0008 1B68     		ldr	r3, [r3]
 125 000a 0393     		str	r3, [sp, #12]
 126              		.loc 1 29 0
 127 000c FFF7FEFF 		bl	flash_unlock
 128              		.loc 1 30 0
 129 0010 0198     		ldr	r0, [sp, #4]
 130 0012 FFF7FEFF 		bl	flash_sector_erase
 131              		.loc 1 31 0
 132 0016 FFF7FEFF 		bl	flash_lock
 133              		.loc 1 32 0
 134 001a 00BF     		nop
 135 001c 044B     		ldr	r3, .L9
 136 001e 039A     		ldr	r2, [sp, #12]
 137 0020 1B68     		ldr	r3, [r3]
 138 0022 9A42     		cmp	r2, r3
 139 0024 01D0     		beq	.L8
 140 0026 FFF7FEFF 		bl	__stack_chk_fail
 141              	.L8:
 142 002a 05B0     		add	sp, sp, #20
 143              		.cfi_def_cfa_offset 4
 144              		@ sp needed
 145 002c 5DF804FB 		ldr	pc, [sp], #4
 146              	.L10:
 147              		.align	2
 148              	.L9:
 149 0030 00000000 		.word	__stack_chk_guard
 150              		.cfi_endproc
 151              	.LFE1:
 152              		.size	config_erase, .-config_erase
 153              		.section	.text.err_mark_false,"ax",%progbits
 154              		.align	1
 155              		.p2align 4,,15
 156              		.syntax unified
 157              		.thumb
 158              		.thumb_func
 159              		.fpu fpv4-sp-d16
 160              		.type	err_mark_false, %function
 161              	err_mark_false:
 162              	.LFB2:
 163              		.loc 1 35 0
 164              		.cfi_startproc
 165              		@ args = 0, pretend = 0, frame = 24
 166              		@ frame_needed = 0, uses_anonymous_args = 0
 167 0000 00B5     		push	{lr}
 168              		.cfi_def_cfa_offset 4
 169              		.cfi_offset 14, -4
 170 0002 87B0     		sub	sp, sp, #28
 171              		.cfi_def_cfa_offset 32
ARM GAS  C:\Users\PCHAUT~1\AppData\Local\Temp\ccVnGr1y.s 			page 4


 172 0004 0390     		str	r0, [sp, #12]
 173 0006 0291     		str	r1, [sp, #8]
 174 0008 0192     		str	r2, [sp, #4]
 175              		.loc 1 35 0
 176 000a 094B     		ldr	r3, .L13
 177 000c 1B68     		ldr	r3, [r3]
 178 000e 0593     		str	r3, [sp, #20]
 179              		.loc 1 39 0
 180 0010 039B     		ldr	r3, [sp, #12]
 181 0012 0493     		str	r3, [sp, #16]
 182              		.loc 1 40 0
 183 0014 049B     		ldr	r3, [sp, #16]
 184 0016 0022     		movs	r2, #0
 185 0018 1A70     		strb	r2, [r3]
 186              		.loc 1 41 0
 187 001a 00BF     		nop
 188 001c 044B     		ldr	r3, .L13
 189 001e 059A     		ldr	r2, [sp, #20]
 190 0020 1B68     		ldr	r3, [r3]
 191 0022 9A42     		cmp	r2, r3
 192 0024 01D0     		beq	.L12
 193 0026 FFF7FEFF 		bl	__stack_chk_fail
 194              	.L12:
 195 002a 07B0     		add	sp, sp, #28
 196              		.cfi_def_cfa_offset 4
 197              		@ sp needed
 198 002c 5DF804FB 		ldr	pc, [sp], #4
 199              	.L14:
 200              		.align	2
 201              	.L13:
 202 0030 00000000 		.word	__stack_chk_guard
 203              		.cfi_endproc
 204              	.LFE2:
 205              		.size	err_mark_false, .-err_mark_false
 206              		.section	.text.config_save,"ax",%progbits
 207              		.align	1
 208              		.p2align 4,,15
 209              		.global	config_save
 210              		.syntax unified
 211              		.thumb
 212              		.thumb_func
 213              		.fpu fpv4-sp-d16
 214              		.type	config_save, %function
 215              	config_save:
 216              	.LFB3:
 217              		.loc 1 44 0
 218              		.cfi_startproc
 219              		@ args = 0, pretend = 0, frame = 64
 220              		@ frame_needed = 0, uses_anonymous_args = 0
 221 0000 00B5     		push	{lr}
 222              		.cfi_def_cfa_offset 4
 223              		.cfi_offset 14, -4
 224 0002 91B0     		sub	sp, sp, #68
 225              		.cfi_def_cfa_offset 72
 226 0004 0390     		str	r0, [sp, #12]
 227 0006 0291     		str	r1, [sp, #8]
 228 0008 0192     		str	r2, [sp, #4]
ARM GAS  C:\Users\PCHAUT~1\AppData\Local\Temp\ccVnGr1y.s 			page 5


 229              		.loc 1 44 0
 230 000a 304B     		ldr	r3, .L21
 231 000c 1B68     		ldr	r3, [r3]
 232 000e 0F93     		str	r3, [sp, #60]
 233              		.loc 1 48 0
 234 0010 0123     		movs	r3, #1
 235 0012 8DF81730 		strb	r3, [sp, #23]
 236              		.loc 1 50 0
 237 0016 039B     		ldr	r3, [sp, #12]
 238 0018 0793     		str	r3, [sp, #28]
 239              		.loc 1 52 0
 240 001a FFF7FEFF 		bl	flash_unlock
 241              		.loc 1 56 0
 242 001e 0398     		ldr	r0, [sp, #12]
 243 0020 FFF7FEFF 		bl	config_block_find_last_used
 244 0024 0346     		mov	r3, r0
 245 0026 002B     		cmp	r3, #0
 246 0028 02D1     		bne	.L16
 247              		.loc 1 57 0
 248 002a 0398     		ldr	r0, [sp, #12]
 249 002c FFF7FEFF 		bl	flash_sector_erase
 250              	.L16:
 251              		.loc 1 61 0
 252 0030 0398     		ldr	r0, [sp, #12]
 253 0032 FFF7FEFF 		bl	config_block_find_first_free
 254 0036 0390     		str	r0, [sp, #12]
 255              		.loc 1 63 0
 256 0038 039A     		ldr	r2, [sp, #12]
 257 003a 079B     		ldr	r3, [sp, #28]
 258 003c D31A     		subs	r3, r2, r3
 259 003e 1A46     		mov	r2, r3
 260 0040 029B     		ldr	r3, [sp, #8]
 261 0042 9B1A     		subs	r3, r3, r2
 262 0044 0693     		str	r3, [sp, #24]
 263              		.loc 1 66 0
 264 0046 069B     		ldr	r3, [sp, #24]
 265 0048 0C2B     		cmp	r3, #12
 266 004a 06D8     		bhi	.L17
 267              		.loc 1 67 0
 268 004c 0798     		ldr	r0, [sp, #28]
 269 004e FFF7FEFF 		bl	flash_sector_erase
 270              		.loc 1 68 0
 271 0052 079B     		ldr	r3, [sp, #28]
 272 0054 0393     		str	r3, [sp, #12]
 273              		.loc 1 69 0
 274 0056 029B     		ldr	r3, [sp, #8]
 275 0058 0693     		str	r3, [sp, #24]
 276              	.L17:
 277              		.loc 1 72 0
 278 005a 039B     		ldr	r3, [sp, #12]
 279 005c 03F10C02 		add	r2, r3, #12
 280              		.loc 1 73 0
 281 0060 069B     		ldr	r3, [sp, #24]
 282 0062 0C3B     		subs	r3, r3, #12
 283              		.loc 1 72 0
 284 0064 08A9     		add	r1, sp, #32
 285 0066 0BA8     		add	r0, sp, #44
ARM GAS  C:\Users\PCHAUT~1\AppData\Local\Temp\ccVnGr1y.s 			page 6


 286 0068 FFF7FEFF 		bl	cmp_mem_access_init
 287              		.loc 1 76 0
 288 006c 184B     		ldr	r3, .L21+4
 289 006e 0E93     		str	r3, [sp, #56]
 290              		.loc 1 80 0
 291 0070 0DF11703 		add	r3, sp, #23
 292 0074 0BA9     		add	r1, sp, #44
 293 0076 174A     		ldr	r2, .L21+8
 294 0078 0198     		ldr	r0, [sp, #4]
 295 007a FFF7FEFF 		bl	parameter_msgpack_write_cmp
 296              		.loc 1 82 0
 297 007e 9DF81730 		ldrb	r3, [sp, #23]	@ zero_extendqisi2
 298 0082 83F00103 		eor	r3, r3, #1
 299 0086 DBB2     		uxtb	r3, r3
 300 0088 002B     		cmp	r3, #0
 301 008a 0AD0     		beq	.L18
 302              		.loc 1 83 0
 303 008c 0798     		ldr	r0, [sp, #28]
 304 008e FFF7FEFF 		bl	flash_sector_erase
 305              		.loc 1 84 0
 306 0092 FFF7FEFF 		bl	flash_lock
 307              		.loc 1 85 0
 308 0096 019A     		ldr	r2, [sp, #4]
 309 0098 0299     		ldr	r1, [sp, #8]
 310 009a 0798     		ldr	r0, [sp, #28]
 311 009c FFF7FEFF 		bl	config_save
 312 00a0 0AE0     		b	.L15
 313              	.L18:
 314              		.loc 1 88 0
 315 00a2 08AB     		add	r3, sp, #32
 316 00a4 1846     		mov	r0, r3
 317 00a6 FFF7FEFF 		bl	cmp_mem_access_get_pos
 318 00aa 0690     		str	r0, [sp, #24]
 319              		.loc 1 90 0
 320 00ac 0699     		ldr	r1, [sp, #24]
 321 00ae 0398     		ldr	r0, [sp, #12]
 322 00b0 FFF7FEFF 		bl	config_write_block_header
 323              		.loc 1 92 0
 324 00b4 FFF7FEFF 		bl	flash_lock
 325              	.L15:
 326              		.loc 1 93 0
 327 00b8 044B     		ldr	r3, .L21
 328 00ba 0F9A     		ldr	r2, [sp, #60]
 329 00bc 1B68     		ldr	r3, [r3]
 330 00be 9A42     		cmp	r2, r3
 331 00c0 01D0     		beq	.L20
 332 00c2 FFF7FEFF 		bl	__stack_chk_fail
 333              	.L20:
 334 00c6 11B0     		add	sp, sp, #68
 335              		.cfi_def_cfa_offset 4
 336              		@ sp needed
 337 00c8 5DF804FB 		ldr	pc, [sp], #4
 338              	.L22:
 339              		.align	2
 340              	.L21:
 341 00cc 00000000 		.word	__stack_chk_guard
 342 00d0 00000000 		.word	cmp_flash_writer
ARM GAS  C:\Users\PCHAUT~1\AppData\Local\Temp\ccVnGr1y.s 			page 7


 343 00d4 00000000 		.word	err_mark_false
 344              		.cfi_endproc
 345              	.LFE3:
 346              		.size	config_save, .-config_save
 347              		.section	.text.config_load,"ax",%progbits
 348              		.align	1
 349              		.p2align 4,,15
 350              		.global	config_load
 351              		.syntax unified
 352              		.thumb
 353              		.thumb_func
 354              		.fpu fpv4-sp-d16
 355              		.type	config_load, %function
 356              	config_load:
 357              	.LFB4:
 358              		.loc 1 96 0
 359              		.cfi_startproc
 360              		@ args = 0, pretend = 0, frame = 24
 361              		@ frame_needed = 0, uses_anonymous_args = 0
 362 0000 00B5     		push	{lr}
 363              		.cfi_def_cfa_offset 4
 364              		.cfi_offset 14, -4
 365 0002 89B0     		sub	sp, sp, #36
 366              		.cfi_def_cfa_offset 40
 367 0004 0390     		str	r0, [sp, #12]
 368 0006 0291     		str	r1, [sp, #8]
 369              		.loc 1 96 0
 370 0008 154B     		ldr	r3, .L28
 371 000a 1B68     		ldr	r3, [r3]
 372 000c 0793     		str	r3, [sp, #28]
 373              		.loc 1 100 0
 374 000e 0298     		ldr	r0, [sp, #8]
 375 0010 FFF7FEFF 		bl	config_block_find_last_used
 376 0014 0290     		str	r0, [sp, #8]
 377              		.loc 1 103 0
 378 0016 029B     		ldr	r3, [sp, #8]
 379 0018 002B     		cmp	r3, #0
 380 001a 01D1     		bne	.L24
 381              		.loc 1 104 0
 382 001c 0023     		movs	r3, #0
 383 001e 14E0     		b	.L25
 384              	.L24:
 385              		.loc 1 107 0
 386 0020 0298     		ldr	r0, [sp, #8]
 387 0022 FFF7FEFF 		bl	config_block_get_length
 388 0026 0590     		str	r0, [sp, #20]
 389              		.loc 1 109 0
 390 0028 029B     		ldr	r3, [sp, #8]
 391 002a 03F10C01 		add	r1, r3, #12
 392 002e 0023     		movs	r3, #0
 393 0030 0093     		str	r3, [sp]
 394 0032 0023     		movs	r3, #0
 395 0034 059A     		ldr	r2, [sp, #20]
 396 0036 0398     		ldr	r0, [sp, #12]
 397 0038 FFF7FEFF 		bl	parameter_msgpack_read
 398 003c 0690     		str	r0, [sp, #24]
 399              		.loc 1 112 0
ARM GAS  C:\Users\PCHAUT~1\AppData\Local\Temp\ccVnGr1y.s 			page 8


 400 003e 069B     		ldr	r3, [sp, #24]
 401 0040 002B     		cmp	r3, #0
 402 0042 01D0     		beq	.L26
 403              		.loc 1 113 0
 404 0044 0023     		movs	r3, #0
 405 0046 00E0     		b	.L25
 406              	.L26:
 407              		.loc 1 116 0
 408 0048 0123     		movs	r3, #1
 409              	.L25:
 410              		.loc 1 117 0
 411 004a 1846     		mov	r0, r3
 412 004c 044B     		ldr	r3, .L28
 413 004e 079A     		ldr	r2, [sp, #28]
 414 0050 1B68     		ldr	r3, [r3]
 415 0052 9A42     		cmp	r2, r3
 416 0054 01D0     		beq	.L27
 417 0056 FFF7FEFF 		bl	__stack_chk_fail
 418              	.L27:
 419 005a 09B0     		add	sp, sp, #36
 420              		.cfi_def_cfa_offset 4
 421              		@ sp needed
 422 005c 5DF804FB 		ldr	pc, [sp], #4
 423              	.L29:
 424              		.align	2
 425              	.L28:
 426 0060 00000000 		.word	__stack_chk_guard
 427              		.cfi_endproc
 428              	.LFE4:
 429              		.size	config_load, .-config_load
 430              		.section	.text.config_block_is_valid,"ax",%progbits
 431              		.align	1
 432              		.p2align 4,,15
 433              		.global	config_block_is_valid
 434              		.syntax unified
 435              		.thumb
 436              		.thumb_func
 437              		.fpu fpv4-sp-d16
 438              		.type	config_block_is_valid, %function
 439              	config_block_is_valid:
 440              	.LFB5:
 441              		.loc 1 120 0
 442              		.cfi_startproc
 443              		@ args = 0, pretend = 0, frame = 32
 444              		@ frame_needed = 0, uses_anonymous_args = 0
 445 0000 00B5     		push	{lr}
 446              		.cfi_def_cfa_offset 4
 447              		.cfi_offset 14, -4
 448 0002 89B0     		sub	sp, sp, #36
 449              		.cfi_def_cfa_offset 40
 450 0004 0190     		str	r0, [sp, #4]
 451              		.loc 1 120 0
 452 0006 224B     		ldr	r3, .L36
 453 0008 1B68     		ldr	r3, [r3]
 454 000a 0793     		str	r3, [sp, #28]
 455              		.loc 1 121 0
 456 000c 019B     		ldr	r3, [sp, #4]
ARM GAS  C:\Users\PCHAUT~1\AppData\Local\Temp\ccVnGr1y.s 			page 9


 457 000e 0593     		str	r3, [sp, #20]
 458              		.loc 1 123 0
 459 0010 0023     		movs	r3, #0
 460 0012 0693     		str	r3, [sp, #24]
 461              		.loc 1 126 0
 462 0014 059A     		ldr	r2, [sp, #20]
 463 0016 069B     		ldr	r3, [sp, #24]
 464 0018 1344     		add	r3, r3, r2
 465 001a 1B68     		ldr	r3, [r3]	@ unaligned
 466 001c 0393     		str	r3, [sp, #12]
 467              		.loc 1 127 0
 468 001e 069B     		ldr	r3, [sp, #24]
 469 0020 0433     		adds	r3, r3, #4
 470 0022 0693     		str	r3, [sp, #24]
 471              		.loc 1 130 0
 472 0024 059A     		ldr	r2, [sp, #20]
 473 0026 069B     		ldr	r3, [sp, #24]
 474 0028 1344     		add	r3, r3, r2
 475 002a 1B68     		ldr	r3, [r3]	@ unaligned
 476 002c 0493     		str	r3, [sp, #16]
 477              		.loc 1 131 0
 478 002e 069B     		ldr	r3, [sp, #24]
 479 0030 0433     		adds	r3, r3, #4
 480 0032 0693     		str	r3, [sp, #24]
 481              		.loc 1 134 0
 482 0034 04AB     		add	r3, sp, #16
 483 0036 0422     		movs	r2, #4
 484 0038 1946     		mov	r1, r3
 485 003a 1648     		ldr	r0, .L36+4
 486 003c FFF7FEFF 		bl	crc32
 487 0040 0246     		mov	r2, r0
 488 0042 039B     		ldr	r3, [sp, #12]
 489 0044 9A42     		cmp	r2, r3
 490 0046 01D0     		beq	.L31
 491              		.loc 1 135 0
 492 0048 0023     		movs	r3, #0
 493 004a 16E0     		b	.L34
 494              	.L31:
 495              		.loc 1 139 0
 496 004c 059A     		ldr	r2, [sp, #20]
 497 004e 069B     		ldr	r3, [sp, #24]
 498 0050 1344     		add	r3, r3, r2
 499 0052 1B68     		ldr	r3, [r3]	@ unaligned
 500 0054 0393     		str	r3, [sp, #12]
 501              		.loc 1 140 0
 502 0056 069B     		ldr	r3, [sp, #24]
 503 0058 0433     		adds	r3, r3, #4
 504 005a 0693     		str	r3, [sp, #24]
 505              		.loc 1 143 0
 506 005c 059A     		ldr	r2, [sp, #20]
 507 005e 069B     		ldr	r3, [sp, #24]
 508 0060 1344     		add	r3, r3, r2
 509 0062 049A     		ldr	r2, [sp, #16]
 510 0064 1946     		mov	r1, r3
 511 0066 0B48     		ldr	r0, .L36+4
 512 0068 FFF7FEFF 		bl	crc32
 513 006c 0246     		mov	r2, r0
ARM GAS  C:\Users\PCHAUT~1\AppData\Local\Temp\ccVnGr1y.s 			page 10


 514 006e 039B     		ldr	r3, [sp, #12]
 515 0070 9A42     		cmp	r2, r3
 516 0072 01D0     		beq	.L33
 517              		.loc 1 144 0
 518 0074 0023     		movs	r3, #0
 519 0076 00E0     		b	.L34
 520              	.L33:
 521              		.loc 1 147 0
 522 0078 0123     		movs	r3, #1
 523              	.L34:
 524              		.loc 1 148 0 discriminator 1
 525 007a 1846     		mov	r0, r3
 526 007c 044B     		ldr	r3, .L36
 527 007e 079A     		ldr	r2, [sp, #28]
 528 0080 1B68     		ldr	r3, [r3]
 529 0082 9A42     		cmp	r2, r3
 530 0084 01D0     		beq	.L35
 531              		.loc 1 148 0 is_stmt 0
 532 0086 FFF7FEFF 		bl	__stack_chk_fail
 533              	.L35:
 534 008a 09B0     		add	sp, sp, #36
 535              		.cfi_def_cfa_offset 4
 536              		@ sp needed
 537 008c 5DF804FB 		ldr	pc, [sp], #4
 538              	.L37:
 539              		.align	2
 540              	.L36:
 541 0090 00000000 		.word	__stack_chk_guard
 542 0094 EFBEADDE 		.word	-559038737
 543              		.cfi_endproc
 544              	.LFE5:
 545              		.size	config_block_is_valid, .-config_block_is_valid
 546              		.section	.text.config_write_block_header,"ax",%progbits
 547              		.align	1
 548              		.p2align 4,,15
 549              		.global	config_write_block_header
 550              		.syntax unified
 551              		.thumb
 552              		.thumb_func
 553              		.fpu fpv4-sp-d16
 554              		.type	config_write_block_header, %function
 555              	config_write_block_header:
 556              	.LFB6:
 557              		.loc 1 151 0 is_stmt 1
 558              		.cfi_startproc
 559              		@ args = 0, pretend = 0, frame = 24
 560              		@ frame_needed = 0, uses_anonymous_args = 0
 561 0000 00B5     		push	{lr}
 562              		.cfi_def_cfa_offset 4
 563              		.cfi_offset 14, -4
 564 0002 87B0     		sub	sp, sp, #28
 565              		.cfi_def_cfa_offset 32
 566 0004 0190     		str	r0, [sp, #4]
 567 0006 0091     		str	r1, [sp]
 568              		.loc 1 151 0
 569 0008 1F4B     		ldr	r3, .L40
 570 000a 1B68     		ldr	r3, [r3]
ARM GAS  C:\Users\PCHAUT~1\AppData\Local\Temp\ccVnGr1y.s 			page 11


 571 000c 0593     		str	r3, [sp, #20]
 572              		.loc 1 153 0
 573 000e 0023     		movs	r3, #0
 574 0010 0493     		str	r3, [sp, #16]
 575              		.loc 1 156 0
 576 0012 6B46     		mov	r3, sp
 577 0014 0422     		movs	r2, #4
 578 0016 1946     		mov	r1, r3
 579 0018 1C48     		ldr	r0, .L40+4
 580 001a FFF7FEFF 		bl	crc32
 581 001e 0346     		mov	r3, r0
 582 0020 0393     		str	r3, [sp, #12]
 583              		.loc 1 157 0
 584 0022 019A     		ldr	r2, [sp, #4]
 585 0024 049B     		ldr	r3, [sp, #16]
 586 0026 1344     		add	r3, r3, r2
 587 0028 03A9     		add	r1, sp, #12
 588 002a 0422     		movs	r2, #4
 589 002c 1846     		mov	r0, r3
 590 002e FFF7FEFF 		bl	flash_write
 591              		.loc 1 158 0
 592 0032 049B     		ldr	r3, [sp, #16]
 593 0034 0433     		adds	r3, r3, #4
 594 0036 0493     		str	r3, [sp, #16]
 595              		.loc 1 161 0
 596 0038 019A     		ldr	r2, [sp, #4]
 597 003a 049B     		ldr	r3, [sp, #16]
 598 003c 1344     		add	r3, r3, r2
 599 003e 6946     		mov	r1, sp
 600 0040 0422     		movs	r2, #4
 601 0042 1846     		mov	r0, r3
 602 0044 FFF7FEFF 		bl	flash_write
 603              		.loc 1 162 0
 604 0048 049B     		ldr	r3, [sp, #16]
 605 004a 0433     		adds	r3, r3, #4
 606 004c 0493     		str	r3, [sp, #16]
 607              		.loc 1 165 0
 608 004e 019B     		ldr	r3, [sp, #4]
 609 0050 0C33     		adds	r3, r3, #12
 610 0052 009A     		ldr	r2, [sp]
 611 0054 1946     		mov	r1, r3
 612 0056 0D48     		ldr	r0, .L40+4
 613 0058 FFF7FEFF 		bl	crc32
 614 005c 0346     		mov	r3, r0
 615 005e 0393     		str	r3, [sp, #12]
 616              		.loc 1 166 0
 617 0060 019A     		ldr	r2, [sp, #4]
 618 0062 049B     		ldr	r3, [sp, #16]
 619 0064 1344     		add	r3, r3, r2
 620 0066 03A9     		add	r1, sp, #12
 621 0068 0422     		movs	r2, #4
 622 006a 1846     		mov	r0, r3
 623 006c FFF7FEFF 		bl	flash_write
 624              		.loc 1 167 0
 625 0070 00BF     		nop
 626 0072 054B     		ldr	r3, .L40
 627 0074 059A     		ldr	r2, [sp, #20]
ARM GAS  C:\Users\PCHAUT~1\AppData\Local\Temp\ccVnGr1y.s 			page 12


 628 0076 1B68     		ldr	r3, [r3]
 629 0078 9A42     		cmp	r2, r3
 630 007a 01D0     		beq	.L39
 631 007c FFF7FEFF 		bl	__stack_chk_fail
 632              	.L39:
 633 0080 07B0     		add	sp, sp, #28
 634              		.cfi_def_cfa_offset 4
 635              		@ sp needed
 636 0082 5DF804FB 		ldr	pc, [sp], #4
 637              	.L41:
 638 0086 00BF     		.align	2
 639              	.L40:
 640 0088 00000000 		.word	__stack_chk_guard
 641 008c EFBEADDE 		.word	-559038737
 642              		.cfi_endproc
 643              	.LFE6:
 644              		.size	config_write_block_header, .-config_write_block_header
 645              		.section	.text.config_block_get_length,"ax",%progbits
 646              		.align	1
 647              		.p2align 4,,15
 648              		.global	config_block_get_length
 649              		.syntax unified
 650              		.thumb
 651              		.thumb_func
 652              		.fpu fpv4-sp-d16
 653              		.type	config_block_get_length, %function
 654              	config_block_get_length:
 655              	.LFB7:
 656              		.loc 1 170 0
 657              		.cfi_startproc
 658              		@ args = 0, pretend = 0, frame = 16
 659              		@ frame_needed = 0, uses_anonymous_args = 0
 660 0000 00B5     		push	{lr}
 661              		.cfi_def_cfa_offset 4
 662              		.cfi_offset 14, -4
 663 0002 85B0     		sub	sp, sp, #20
 664              		.cfi_def_cfa_offset 24
 665 0004 0190     		str	r0, [sp, #4]
 666              		.loc 1 170 0
 667 0006 094B     		ldr	r3, .L45
 668 0008 1B68     		ldr	r3, [r3]
 669 000a 0393     		str	r3, [sp, #12]
 670              		.loc 1 171 0
 671 000c 019B     		ldr	r3, [sp, #4]
 672 000e 0293     		str	r3, [sp, #8]
 673              		.loc 1 173 0
 674 0010 029B     		ldr	r3, [sp, #8]
 675 0012 5B68     		ldr	r3, [r3, #4]
 676              		.loc 1 174 0
 677 0014 1846     		mov	r0, r3
 678 0016 054B     		ldr	r3, .L45
 679 0018 039A     		ldr	r2, [sp, #12]
 680 001a 1B68     		ldr	r3, [r3]
 681 001c 9A42     		cmp	r2, r3
 682 001e 01D0     		beq	.L44
 683 0020 FFF7FEFF 		bl	__stack_chk_fail
 684              	.L44:
ARM GAS  C:\Users\PCHAUT~1\AppData\Local\Temp\ccVnGr1y.s 			page 13


 685 0024 05B0     		add	sp, sp, #20
 686              		.cfi_def_cfa_offset 4
 687              		@ sp needed
 688 0026 5DF804FB 		ldr	pc, [sp], #4
 689              	.L46:
 690 002a 00BF     		.align	2
 691              	.L45:
 692 002c 00000000 		.word	__stack_chk_guard
 693              		.cfi_endproc
 694              	.LFE7:
 695              		.size	config_block_get_length, .-config_block_get_length
 696              		.section	.text.config_block_find_last_used,"ax",%progbits
 697              		.align	1
 698              		.p2align 4,,15
 699              		.global	config_block_find_last_used
 700              		.syntax unified
 701              		.thumb
 702              		.thumb_func
 703              		.fpu fpv4-sp-d16
 704              		.type	config_block_find_last_used, %function
 705              	config_block_find_last_used:
 706              	.LFB8:
 707              		.loc 1 177 0
 708              		.cfi_startproc
 709              		@ args = 0, pretend = 0, frame = 24
 710              		@ frame_needed = 0, uses_anonymous_args = 0
 711 0000 00B5     		push	{lr}
 712              		.cfi_def_cfa_offset 4
 713              		.cfi_offset 14, -4
 714 0002 87B0     		sub	sp, sp, #28
 715              		.cfi_def_cfa_offset 32
 716 0004 0190     		str	r0, [sp, #4]
 717              		.loc 1 177 0
 718 0006 134B     		ldr	r3, .L52
 719 0008 1B68     		ldr	r3, [r3]
 720 000a 0593     		str	r3, [sp, #20]
 721              		.loc 1 178 0
 722 000c 019B     		ldr	r3, [sp, #4]
 723 000e 0393     		str	r3, [sp, #12]
 724              		.loc 1 179 0
 725 0010 0023     		movs	r3, #0
 726 0012 0493     		str	r3, [sp, #16]
 727              		.loc 1 181 0
 728 0014 0BE0     		b	.L48
 729              	.L49:
 730              		.loc 1 182 0
 731 0016 039B     		ldr	r3, [sp, #12]
 732 0018 0493     		str	r3, [sp, #16]
 733              		.loc 1 183 0
 734 001a 0398     		ldr	r0, [sp, #12]
 735 001c FFF7FEFF 		bl	config_block_get_length
 736 0020 0246     		mov	r2, r0
 737 0022 039B     		ldr	r3, [sp, #12]
 738 0024 1344     		add	r3, r3, r2
 739 0026 0393     		str	r3, [sp, #12]
 740              		.loc 1 184 0
 741 0028 039B     		ldr	r3, [sp, #12]
ARM GAS  C:\Users\PCHAUT~1\AppData\Local\Temp\ccVnGr1y.s 			page 14


 742 002a 0C33     		adds	r3, r3, #12
 743 002c 0393     		str	r3, [sp, #12]
 744              	.L48:
 745              		.loc 1 181 0
 746 002e 0398     		ldr	r0, [sp, #12]
 747 0030 FFF7FEFF 		bl	config_block_is_valid
 748 0034 0346     		mov	r3, r0
 749 0036 002B     		cmp	r3, #0
 750 0038 EDD1     		bne	.L49
 751              		.loc 1 187 0
 752 003a 049B     		ldr	r3, [sp, #16]
 753              		.loc 1 188 0
 754 003c 1846     		mov	r0, r3
 755 003e 054B     		ldr	r3, .L52
 756 0040 059A     		ldr	r2, [sp, #20]
 757 0042 1B68     		ldr	r3, [r3]
 758 0044 9A42     		cmp	r2, r3
 759 0046 01D0     		beq	.L51
 760 0048 FFF7FEFF 		bl	__stack_chk_fail
 761              	.L51:
 762 004c 07B0     		add	sp, sp, #28
 763              		.cfi_def_cfa_offset 4
 764              		@ sp needed
 765 004e 5DF804FB 		ldr	pc, [sp], #4
 766              	.L53:
 767 0052 00BF     		.align	2
 768              	.L52:
 769 0054 00000000 		.word	__stack_chk_guard
 770              		.cfi_endproc
 771              	.LFE8:
 772              		.size	config_block_find_last_used, .-config_block_find_last_used
 773              		.section	.text.config_block_find_first_free,"ax",%progbits
 774              		.align	1
 775              		.p2align 4,,15
 776              		.global	config_block_find_first_free
 777              		.syntax unified
 778              		.thumb
 779              		.thumb_func
 780              		.fpu fpv4-sp-d16
 781              		.type	config_block_find_first_free, %function
 782              	config_block_find_first_free:
 783              	.LFB9:
 784              		.loc 1 191 0
 785              		.cfi_startproc
 786              		@ args = 0, pretend = 0, frame = 16
 787              		@ frame_needed = 0, uses_anonymous_args = 0
 788 0000 00B5     		push	{lr}
 789              		.cfi_def_cfa_offset 4
 790              		.cfi_offset 14, -4
 791 0002 85B0     		sub	sp, sp, #20
 792              		.cfi_def_cfa_offset 24
 793 0004 0190     		str	r0, [sp, #4]
 794              		.loc 1 191 0
 795 0006 114B     		ldr	r3, .L59
 796 0008 1B68     		ldr	r3, [r3]
 797 000a 0393     		str	r3, [sp, #12]
 798              		.loc 1 192 0
ARM GAS  C:\Users\PCHAUT~1\AppData\Local\Temp\ccVnGr1y.s 			page 15


 799 000c 019B     		ldr	r3, [sp, #4]
 800 000e 0293     		str	r3, [sp, #8]
 801              		.loc 1 194 0
 802 0010 09E0     		b	.L55
 803              	.L56:
 804              		.loc 1 195 0
 805 0012 0298     		ldr	r0, [sp, #8]
 806 0014 FFF7FEFF 		bl	config_block_get_length
 807 0018 0246     		mov	r2, r0
 808 001a 029B     		ldr	r3, [sp, #8]
 809 001c 1344     		add	r3, r3, r2
 810 001e 0293     		str	r3, [sp, #8]
 811              		.loc 1 196 0
 812 0020 029B     		ldr	r3, [sp, #8]
 813 0022 0C33     		adds	r3, r3, #12
 814 0024 0293     		str	r3, [sp, #8]
 815              	.L55:
 816              		.loc 1 194 0
 817 0026 0298     		ldr	r0, [sp, #8]
 818 0028 FFF7FEFF 		bl	config_block_is_valid
 819 002c 0346     		mov	r3, r0
 820 002e 002B     		cmp	r3, #0
 821 0030 EFD1     		bne	.L56
 822              		.loc 1 199 0
 823 0032 029B     		ldr	r3, [sp, #8]
 824              		.loc 1 200 0
 825 0034 1846     		mov	r0, r3
 826 0036 054B     		ldr	r3, .L59
 827 0038 039A     		ldr	r2, [sp, #12]
 828 003a 1B68     		ldr	r3, [r3]
 829 003c 9A42     		cmp	r2, r3
 830 003e 01D0     		beq	.L58
 831 0040 FFF7FEFF 		bl	__stack_chk_fail
 832              	.L58:
 833 0044 05B0     		add	sp, sp, #20
 834              		.cfi_def_cfa_offset 4
 835              		@ sp needed
 836 0046 5DF804FB 		ldr	pc, [sp], #4
 837              	.L60:
 838 004a 00BF     		.align	2
 839              	.L59:
 840 004c 00000000 		.word	__stack_chk_guard
 841              		.cfi_endproc
 842              	.LFE9:
 843              		.size	config_block_find_first_free, .-config_block_find_first_free
 844              		.text
 845              	.Letext0:
 846              		.file 2 "c:\\users\\pchautems\\documents\\robotiquetp\\eclipse_e-puck2\\tools\\gcc-arm-none-eabi-7
 847              		.file 3 "c:\\users\\pchautems\\documents\\robotiquetp\\eclipse_e-puck2\\tools\\gcc-arm-none-eabi-7
 848              		.file 4 "c:\\users\\pchautems\\documents\\robotiquetp\\eclipse_e-puck2\\tools\\gcc-arm-none-eabi-7
 849              		.file 5 "c:\\users\\pchautems\\documents\\robotiquetp\\eclipse_e-puck2\\tools\\gcc-arm-none-eabi-7
 850              		.file 6 "c:\\users\\pchautems\\documents\\robotiquetp\\eclipse_e-puck2\\tools\\gcc-arm-none-eabi-7
 851              		.file 7 "c:\\users\\pchautems\\documents\\robotiquetp\\eclipse_e-puck2\\tools\\gcc-arm-none-eabi-7
 852              		.file 8 "c:\\users\\pchautems\\documents\\robotiquetp\\eclipse_e-puck2\\tools\\gcc-arm-none-eabi-7
 853              		.file 9 "../lib/e-puck2_main-processor/src/parameter/parameter.h"
 854              		.file 10 "../lib/e-puck2_main-processor/src/cmp/cmp.h"
 855              		.file 11 "../lib/e-puck2_main-processor/src/cmp_mem_access/cmp_mem_access.h"
ARM GAS  C:\Users\PCHAUT~1\AppData\Local\Temp\ccVnGr1y.s 			page 16

