ARM GAS  C:\Users\PCHAUT~1\AppData\Local\Temp\ccHcO4nD.s 			page 1


   1              		.cpu cortex-m4
   2              		.eabi_attribute 27, 1
   3              		.eabi_attribute 28, 1
   4              		.eabi_attribute 20, 1
   5              		.eabi_attribute 21, 1
   6              		.eabi_attribute 23, 3
   7              		.eabi_attribute 24, 1
   8              		.eabi_attribute 25, 1
   9              		.eabi_attribute 26, 1
  10              		.eabi_attribute 30, 6
  11              		.eabi_attribute 34, 1
  12              		.eabi_attribute 18, 4
  13              		.file	"crc32.c"
  14              		.text
  15              	.Ltext0:
  16              		.cfi_sections	.debug_frame
  17              		.section	.text.crc32,"ax",%progbits
  18              		.align	1
  19              		.p2align 4,,15
  20              		.global	crc32
  21              		.syntax unified
  22              		.thumb
  23              		.thumb_func
  24              		.fpu fpv4-sp-d16
  25              		.type	crc32, %function
  26              	crc32:
  27              	.LFB0:
  28              		.file 1 "../lib/e-puck2_main-processor/src/crc/crc32.c"
  29              		.loc 1 8 0
  30              		.cfi_startproc
  31              		@ args = 0, pretend = 0, frame = 40
  32              		@ frame_needed = 0, uses_anonymous_args = 0
  33 0000 00B5     		push	{lr}
  34              		.cfi_def_cfa_offset 4
  35              		.cfi_offset 14, -4
  36 0002 8BB0     		sub	sp, sp, #44
  37              		.cfi_def_cfa_offset 48
  38 0004 0390     		str	r0, [sp, #12]
  39 0006 0291     		str	r1, [sp, #8]
  40 0008 0192     		str	r2, [sp, #4]
  41              		.loc 1 8 0
  42 000a 204B     		ldr	r3, .L10
  43 000c 1B68     		ldr	r3, [r3]
  44 000e 0993     		str	r3, [sp, #36]
  45              		.loc 1 9 0
  46 0010 029B     		ldr	r3, [sp, #8]
  47 0012 0893     		str	r3, [sp, #32]
  48              		.loc 1 10 0
  49 0014 039B     		ldr	r3, [sp, #12]
  50 0016 DB43     		mvns	r3, r3
  51 0018 0593     		str	r3, [sp, #20]
  52              		.loc 1 12 0
  53 001a 0023     		movs	r3, #0
  54 001c 0693     		str	r3, [sp, #24]
  55 001e 23E0     		b	.L2
  56              	.L7:
  57              	.LBB2:
ARM GAS  C:\Users\PCHAUT~1\AppData\Local\Temp\ccHcO4nD.s 			page 2


  58              		.loc 1 14 0
  59 0020 0023     		movs	r3, #0
  60 0022 0793     		str	r3, [sp, #28]
  61 0024 1AE0     		b	.L3
  62              	.L6:
  63              		.loc 1 15 0
  64 0026 089A     		ldr	r2, [sp, #32]
  65 0028 069B     		ldr	r3, [sp, #24]
  66 002a 1344     		add	r3, r3, r2
  67 002c 1B78     		ldrb	r3, [r3]	@ zero_extendqisi2
  68 002e 1A46     		mov	r2, r3
  69 0030 079B     		ldr	r3, [sp, #28]
  70 0032 42FA03F3 		asr	r3, r2, r3
  71 0036 1A46     		mov	r2, r3
  72 0038 059B     		ldr	r3, [sp, #20]
  73 003a 5340     		eors	r3, r3, r2
  74 003c 03F00103 		and	r3, r3, #1
  75 0040 002B     		cmp	r3, #0
  76 0042 05D0     		beq	.L4
  77              		.loc 1 16 0
  78 0044 059B     		ldr	r3, [sp, #20]
  79 0046 5A08     		lsrs	r2, r3, #1
  80 0048 114B     		ldr	r3, .L10+4
  81 004a 5340     		eors	r3, r3, r2
  82 004c 0593     		str	r3, [sp, #20]
  83 004e 02E0     		b	.L5
  84              	.L4:
  85              		.loc 1 18 0
  86 0050 059B     		ldr	r3, [sp, #20]
  87 0052 5B08     		lsrs	r3, r3, #1
  88 0054 0593     		str	r3, [sp, #20]
  89              	.L5:
  90              		.loc 1 14 0 discriminator 2
  91 0056 079B     		ldr	r3, [sp, #28]
  92 0058 0133     		adds	r3, r3, #1
  93 005a 0793     		str	r3, [sp, #28]
  94              	.L3:
  95              		.loc 1 14 0 is_stmt 0 discriminator 1
  96 005c 079B     		ldr	r3, [sp, #28]
  97 005e 072B     		cmp	r3, #7
  98 0060 E1DD     		ble	.L6
  99              	.LBE2:
 100              		.loc 1 12 0 is_stmt 1 discriminator 2
 101 0062 069B     		ldr	r3, [sp, #24]
 102 0064 0133     		adds	r3, r3, #1
 103 0066 0693     		str	r3, [sp, #24]
 104              	.L2:
 105              		.loc 1 12 0 is_stmt 0 discriminator 1
 106 0068 069A     		ldr	r2, [sp, #24]
 107 006a 019B     		ldr	r3, [sp, #4]
 108 006c 9A42     		cmp	r2, r3
 109 006e D7D3     		bcc	.L7
 110              		.loc 1 22 0 is_stmt 1
 111 0070 059B     		ldr	r3, [sp, #20]
 112 0072 DB43     		mvns	r3, r3
 113              		.loc 1 23 0
 114 0074 1846     		mov	r0, r3
ARM GAS  C:\Users\PCHAUT~1\AppData\Local\Temp\ccHcO4nD.s 			page 3


 115 0076 054B     		ldr	r3, .L10
 116 0078 099A     		ldr	r2, [sp, #36]
 117 007a 1B68     		ldr	r3, [r3]
 118 007c 9A42     		cmp	r2, r3
 119 007e 01D0     		beq	.L9
 120 0080 FFF7FEFF 		bl	__stack_chk_fail
 121              	.L9:
 122 0084 0BB0     		add	sp, sp, #44
 123              		.cfi_def_cfa_offset 4
 124              		@ sp needed
 125 0086 5DF804FB 		ldr	pc, [sp], #4
 126              	.L11:
 127 008a 00BF     		.align	2
 128              	.L10:
 129 008c 00000000 		.word	__stack_chk_guard
 130 0090 2083B8ED 		.word	-306674912
 131              		.cfi_endproc
 132              	.LFE0:
 133              		.size	crc32, .-crc32
 134              		.text
 135              	.Letext0:
 136              		.file 2 "c:\\users\\pchautems\\documents\\robotiquetp\\eclipse_e-puck2\\tools\\gcc-arm-none-eabi-7
 137              		.file 3 "c:\\users\\pchautems\\documents\\robotiquetp\\eclipse_e-puck2\\tools\\gcc-arm-none-eabi-7
 138              		.file 4 "c:\\users\\pchautems\\documents\\robotiquetp\\eclipse_e-puck2\\tools\\gcc-arm-none-eabi-7
 139              		.file 5 "c:\\users\\pchautems\\documents\\robotiquetp\\eclipse_e-puck2\\tools\\gcc-arm-none-eabi-7
 140              		.file 6 "c:\\users\\pchautems\\documents\\robotiquetp\\eclipse_e-puck2\\tools\\gcc-arm-none-eabi-7
 141              		.file 7 "c:\\users\\pchautems\\documents\\robotiquetp\\eclipse_e-puck2\\tools\\gcc-arm-none-eabi-7
 142              		.file 8 "c:\\users\\pchautems\\documents\\robotiquetp\\eclipse_e-puck2\\tools\\gcc-arm-none-eabi-7
 143              		.section	.debug_info,"",%progbits
 144              	.Ldebug_info0:
 145 0000 62090000 		.4byte	0x962
 146 0004 0400     		.2byte	0x4
 147 0006 00000000 		.4byte	.Ldebug_abbrev0
 148 000a 04       		.byte	0x4
 149 000b 01       		.uleb128 0x1
 150 000c 06010000 		.4byte	.LASF130
 151 0010 0C       		.byte	0xc
 152 0011 2F030000 		.4byte	.LASF131
 153 0015 BD040000 		.4byte	.LASF132
 154 0019 00000000 		.4byte	.Ldebug_ranges0+0
 155 001d 00000000 		.4byte	0
 156 0021 00000000 		.4byte	.Ldebug_line0
 157 0025 02       		.uleb128 0x2
 158 0026 01       		.byte	0x1
 159 0027 06       		.byte	0x6
 160 0028 B8000000 		.4byte	.LASF0
 161 002c 03       		.uleb128 0x3
 162 002d 32000000 		.4byte	.LASF5
 163 0031 02       		.byte	0x2
 164 0032 2B       		.byte	0x2b
 165 0033 37000000 		.4byte	0x37
 166 0037 02       		.uleb128 0x2
 167 0038 01       		.byte	0x1
 168 0039 08       		.byte	0x8
 169 003a 3B040000 		.4byte	.LASF1
 170 003e 02       		.uleb128 0x2
 171 003f 02       		.byte	0x2
ARM GAS  C:\Users\PCHAUT~1\AppData\Local\Temp\ccHcO4nD.s 			page 4


 172 0040 05       		.byte	0x5
 173 0041 57040000 		.4byte	.LASF2
 174 0045 02       		.uleb128 0x2
 175 0046 02       		.byte	0x2
 176 0047 07       		.byte	0x7
 177 0048 69030000 		.4byte	.LASF3
 178 004c 02       		.uleb128 0x2
 179 004d 04       		.byte	0x4
 180 004e 05       		.byte	0x5
 181 004f FD000000 		.4byte	.LASF4
 182 0053 03       		.uleb128 0x3
 183 0054 A5020000 		.4byte	.LASF6
 184 0058 02       		.byte	0x2
 185 0059 4F       		.byte	0x4f
 186 005a 5E000000 		.4byte	0x5e
 187 005e 02       		.uleb128 0x2
 188 005f 04       		.byte	0x4
 189 0060 07       		.byte	0x7
 190 0061 17030000 		.4byte	.LASF7
 191 0065 02       		.uleb128 0x2
 192 0066 08       		.byte	0x8
 193 0067 05       		.byte	0x5
 194 0068 AA000000 		.4byte	.LASF8
 195 006c 02       		.uleb128 0x2
 196 006d 08       		.byte	0x8
 197 006e 07       		.byte	0x7
 198 006f 67000000 		.4byte	.LASF9
 199 0073 04       		.uleb128 0x4
 200 0074 04       		.byte	0x4
 201 0075 05       		.byte	0x5
 202 0076 696E7400 		.ascii	"int\000"
 203 007a 02       		.uleb128 0x2
 204 007b 04       		.byte	0x4
 205 007c 07       		.byte	0x7
 206 007d F3020000 		.4byte	.LASF10
 207 0081 03       		.uleb128 0x3
 208 0082 FF050000 		.4byte	.LASF11
 209 0086 03       		.byte	0x3
 210 0087 18       		.byte	0x18
 211 0088 2C000000 		.4byte	0x2c
 212 008c 03       		.uleb128 0x3
 213 008d 47050000 		.4byte	.LASF12
 214 0091 03       		.byte	0x3
 215 0092 30       		.byte	0x30
 216 0093 53000000 		.4byte	0x53
 217 0097 03       		.uleb128 0x3
 218 0098 12000000 		.4byte	.LASF13
 219 009c 04       		.byte	0x4
 220 009d D8       		.byte	0xd8
 221 009e 7A000000 		.4byte	0x7a
 222 00a2 02       		.uleb128 0x2
 223 00a3 08       		.byte	0x8
 224 00a4 04       		.byte	0x4
 225 00a5 E3030000 		.4byte	.LASF14
 226 00a9 03       		.uleb128 0x3
 227 00aa AC030000 		.4byte	.LASF15
 228 00ae 05       		.byte	0x5
ARM GAS  C:\Users\PCHAUT~1\AppData\Local\Temp\ccHcO4nD.s 			page 5


 229 00af 22       		.byte	0x22
 230 00b0 B4000000 		.4byte	0xb4
 231 00b4 05       		.uleb128 0x5
 232 00b5 04       		.byte	0x4
 233 00b6 BA000000 		.4byte	0xba
 234 00ba 06       		.uleb128 0x6
 235 00bb 40050000 		.4byte	.LASF122
 236 00bf 03       		.uleb128 0x3
 237 00c0 1C040000 		.4byte	.LASF16
 238 00c4 06       		.byte	0x6
 239 00c5 2C       		.byte	0x2c
 240 00c6 4C000000 		.4byte	0x4c
 241 00ca 03       		.uleb128 0x3
 242 00cb 62050000 		.4byte	.LASF17
 243 00cf 06       		.byte	0x6
 244 00d0 72       		.byte	0x72
 245 00d1 4C000000 		.4byte	0x4c
 246 00d5 07       		.uleb128 0x7
 247 00d6 B4030000 		.4byte	.LASF18
 248 00da 04       		.byte	0x4
 249 00db 6501     		.2byte	0x165
 250 00dd 7A000000 		.4byte	0x7a
 251 00e1 08       		.uleb128 0x8
 252 00e2 04       		.byte	0x4
 253 00e3 06       		.byte	0x6
 254 00e4 A6       		.byte	0xa6
 255 00e5 00010000 		.4byte	0x100
 256 00e9 09       		.uleb128 0x9
 257 00ea A6030000 		.4byte	.LASF19
 258 00ee 06       		.byte	0x6
 259 00ef A8       		.byte	0xa8
 260 00f0 D5000000 		.4byte	0xd5
 261 00f4 09       		.uleb128 0x9
 262 00f5 00030000 		.4byte	.LASF20
 263 00f9 06       		.byte	0x6
 264 00fa A9       		.byte	0xa9
 265 00fb 00010000 		.4byte	0x100
 266 00ff 00       		.byte	0
 267 0100 0A       		.uleb128 0xa
 268 0101 37000000 		.4byte	0x37
 269 0105 10010000 		.4byte	0x110
 270 0109 0B       		.uleb128 0xb
 271 010a 7A000000 		.4byte	0x7a
 272 010e 03       		.byte	0x3
 273 010f 00       		.byte	0
 274 0110 0C       		.uleb128 0xc
 275 0111 08       		.byte	0x8
 276 0112 06       		.byte	0x6
 277 0113 A3       		.byte	0xa3
 278 0114 31010000 		.4byte	0x131
 279 0118 0D       		.uleb128 0xd
 280 0119 38050000 		.4byte	.LASF21
 281 011d 06       		.byte	0x6
 282 011e A5       		.byte	0xa5
 283 011f 73000000 		.4byte	0x73
 284 0123 00       		.byte	0
 285 0124 0D       		.uleb128 0xd
ARM GAS  C:\Users\PCHAUT~1\AppData\Local\Temp\ccHcO4nD.s 			page 6


 286 0125 9F050000 		.4byte	.LASF22
 287 0129 06       		.byte	0x6
 288 012a AA       		.byte	0xaa
 289 012b E1000000 		.4byte	0xe1
 290 012f 04       		.byte	0x4
 291 0130 00       		.byte	0
 292 0131 03       		.uleb128 0x3
 293 0132 7F040000 		.4byte	.LASF23
 294 0136 06       		.byte	0x6
 295 0137 AB       		.byte	0xab
 296 0138 10010000 		.4byte	0x110
 297 013c 03       		.uleb128 0x3
 298 013d B6020000 		.4byte	.LASF24
 299 0141 06       		.byte	0x6
 300 0142 AF       		.byte	0xaf
 301 0143 A9000000 		.4byte	0xa9
 302 0147 0E       		.uleb128 0xe
 303 0148 04       		.byte	0x4
 304 0149 05       		.uleb128 0x5
 305 014a 04       		.byte	0x4
 306 014b 4F010000 		.4byte	0x14f
 307 014f 02       		.uleb128 0x2
 308 0150 01       		.byte	0x1
 309 0151 08       		.byte	0x8
 310 0152 78050000 		.4byte	.LASF25
 311 0156 0F       		.uleb128 0xf
 312 0157 4F010000 		.4byte	0x14f
 313 015b 03       		.uleb128 0x3
 314 015c B5050000 		.4byte	.LASF26
 315 0160 07       		.byte	0x7
 316 0161 16       		.byte	0x16
 317 0162 5E000000 		.4byte	0x5e
 318 0166 10       		.uleb128 0x10
 319 0167 C7020000 		.4byte	.LASF31
 320 016b 18       		.byte	0x18
 321 016c 07       		.byte	0x7
 322 016d 2F       		.byte	0x2f
 323 016e B9010000 		.4byte	0x1b9
 324 0172 0D       		.uleb128 0xd
 325 0173 8C050000 		.4byte	.LASF27
 326 0177 07       		.byte	0x7
 327 0178 31       		.byte	0x31
 328 0179 B9010000 		.4byte	0x1b9
 329 017d 00       		.byte	0
 330 017e 11       		.uleb128 0x11
 331 017f 5F6B00   		.ascii	"_k\000"
 332 0182 07       		.byte	0x7
 333 0183 32       		.byte	0x32
 334 0184 73000000 		.4byte	0x73
 335 0188 04       		.byte	0x4
 336 0189 0D       		.uleb128 0xd
 337 018a 23050000 		.4byte	.LASF28
 338 018e 07       		.byte	0x7
 339 018f 32       		.byte	0x32
 340 0190 73000000 		.4byte	0x73
 341 0194 08       		.byte	0x8
 342 0195 0D       		.uleb128 0xd
ARM GAS  C:\Users\PCHAUT~1\AppData\Local\Temp\ccHcO4nD.s 			page 7


 343 0196 B0020000 		.4byte	.LASF29
 344 019a 07       		.byte	0x7
 345 019b 32       		.byte	0x32
 346 019c 73000000 		.4byte	0x73
 347 01a0 0C       		.byte	0xc
 348 01a1 0D       		.uleb128 0xd
 349 01a2 EA050000 		.4byte	.LASF30
 350 01a6 07       		.byte	0x7
 351 01a7 32       		.byte	0x32
 352 01a8 73000000 		.4byte	0x73
 353 01ac 10       		.byte	0x10
 354 01ad 11       		.uleb128 0x11
 355 01ae 5F7800   		.ascii	"_x\000"
 356 01b1 07       		.byte	0x7
 357 01b2 33       		.byte	0x33
 358 01b3 BF010000 		.4byte	0x1bf
 359 01b7 14       		.byte	0x14
 360 01b8 00       		.byte	0
 361 01b9 05       		.uleb128 0x5
 362 01ba 04       		.byte	0x4
 363 01bb 66010000 		.4byte	0x166
 364 01bf 0A       		.uleb128 0xa
 365 01c0 5B010000 		.4byte	0x15b
 366 01c4 CF010000 		.4byte	0x1cf
 367 01c8 0B       		.uleb128 0xb
 368 01c9 7A000000 		.4byte	0x7a
 369 01cd 00       		.byte	0
 370 01ce 00       		.byte	0
 371 01cf 10       		.uleb128 0x10
 372 01d0 EE020000 		.4byte	.LASF32
 373 01d4 24       		.byte	0x24
 374 01d5 07       		.byte	0x7
 375 01d6 37       		.byte	0x37
 376 01d7 48020000 		.4byte	0x248
 377 01db 0D       		.uleb128 0xd
 378 01dc A1000000 		.4byte	.LASF33
 379 01e0 07       		.byte	0x7
 380 01e1 39       		.byte	0x39
 381 01e2 73000000 		.4byte	0x73
 382 01e6 00       		.byte	0
 383 01e7 0D       		.uleb128 0xd
 384 01e8 7D050000 		.4byte	.LASF34
 385 01ec 07       		.byte	0x7
 386 01ed 3A       		.byte	0x3a
 387 01ee 73000000 		.4byte	0x73
 388 01f2 04       		.byte	0x4
 389 01f3 0D       		.uleb128 0xd
 390 01f4 D0000000 		.4byte	.LASF35
 391 01f8 07       		.byte	0x7
 392 01f9 3B       		.byte	0x3b
 393 01fa 73000000 		.4byte	0x73
 394 01fe 08       		.byte	0x8
 395 01ff 0D       		.uleb128 0xd
 396 0200 62060000 		.4byte	.LASF36
 397 0204 07       		.byte	0x7
 398 0205 3C       		.byte	0x3c
 399 0206 73000000 		.4byte	0x73
ARM GAS  C:\Users\PCHAUT~1\AppData\Local\Temp\ccHcO4nD.s 			page 8


 400 020a 0C       		.byte	0xc
 401 020b 0D       		.uleb128 0xd
 402 020c F6030000 		.4byte	.LASF37
 403 0210 07       		.byte	0x7
 404 0211 3D       		.byte	0x3d
 405 0212 73000000 		.4byte	0x73
 406 0216 10       		.byte	0x10
 407 0217 0D       		.uleb128 0xd
 408 0218 D0030000 		.4byte	.LASF38
 409 021c 07       		.byte	0x7
 410 021d 3E       		.byte	0x3e
 411 021e 73000000 		.4byte	0x73
 412 0222 14       		.byte	0x14
 413 0223 0D       		.uleb128 0xd
 414 0224 EF050000 		.4byte	.LASF39
 415 0228 07       		.byte	0x7
 416 0229 3F       		.byte	0x3f
 417 022a 73000000 		.4byte	0x73
 418 022e 18       		.byte	0x18
 419 022f 0D       		.uleb128 0xd
 420 0230 61040000 		.4byte	.LASF40
 421 0234 07       		.byte	0x7
 422 0235 40       		.byte	0x40
 423 0236 73000000 		.4byte	0x73
 424 023a 1C       		.byte	0x1c
 425 023b 0D       		.uleb128 0xd
 426 023c 29060000 		.4byte	.LASF41
 427 0240 07       		.byte	0x7
 428 0241 41       		.byte	0x41
 429 0242 73000000 		.4byte	0x73
 430 0246 20       		.byte	0x20
 431 0247 00       		.byte	0
 432 0248 12       		.uleb128 0x12
 433 0249 DF000000 		.4byte	.LASF42
 434 024d 0801     		.2byte	0x108
 435 024f 07       		.byte	0x7
 436 0250 4A       		.byte	0x4a
 437 0251 88020000 		.4byte	0x288
 438 0255 0D       		.uleb128 0xd
 439 0256 98020000 		.4byte	.LASF43
 440 025a 07       		.byte	0x7
 441 025b 4B       		.byte	0x4b
 442 025c 88020000 		.4byte	0x288
 443 0260 00       		.byte	0
 444 0261 0D       		.uleb128 0xd
 445 0262 00000000 		.4byte	.LASF44
 446 0266 07       		.byte	0x7
 447 0267 4C       		.byte	0x4c
 448 0268 88020000 		.4byte	0x288
 449 026c 80       		.byte	0x80
 450 026d 13       		.uleb128 0x13
 451 026e A7050000 		.4byte	.LASF45
 452 0272 07       		.byte	0x7
 453 0273 4E       		.byte	0x4e
 454 0274 5B010000 		.4byte	0x15b
 455 0278 0001     		.2byte	0x100
 456 027a 13       		.uleb128 0x13
ARM GAS  C:\Users\PCHAUT~1\AppData\Local\Temp\ccHcO4nD.s 			page 9


 457 027b 51020000 		.4byte	.LASF46
 458 027f 07       		.byte	0x7
 459 0280 51       		.byte	0x51
 460 0281 5B010000 		.4byte	0x15b
 461 0285 0401     		.2byte	0x104
 462 0287 00       		.byte	0
 463 0288 0A       		.uleb128 0xa
 464 0289 47010000 		.4byte	0x147
 465 028d 98020000 		.4byte	0x298
 466 0291 0B       		.uleb128 0xb
 467 0292 7A000000 		.4byte	0x7a
 468 0296 1F       		.byte	0x1f
 469 0297 00       		.byte	0
 470 0298 12       		.uleb128 0x12
 471 0299 FF030000 		.4byte	.LASF47
 472 029d 9001     		.2byte	0x190
 473 029f 07       		.byte	0x7
 474 02a0 5D       		.byte	0x5d
 475 02a1 D6020000 		.4byte	0x2d6
 476 02a5 0D       		.uleb128 0xd
 477 02a6 8C050000 		.4byte	.LASF27
 478 02aa 07       		.byte	0x7
 479 02ab 5E       		.byte	0x5e
 480 02ac D6020000 		.4byte	0x2d6
 481 02b0 00       		.byte	0
 482 02b1 0D       		.uleb128 0xd
 483 02b2 B8040000 		.4byte	.LASF48
 484 02b6 07       		.byte	0x7
 485 02b7 5F       		.byte	0x5f
 486 02b8 73000000 		.4byte	0x73
 487 02bc 04       		.byte	0x4
 488 02bd 0D       		.uleb128 0xd
 489 02be A0020000 		.4byte	.LASF49
 490 02c2 07       		.byte	0x7
 491 02c3 61       		.byte	0x61
 492 02c4 DC020000 		.4byte	0x2dc
 493 02c8 08       		.byte	0x8
 494 02c9 0D       		.uleb128 0xd
 495 02ca DF000000 		.4byte	.LASF42
 496 02ce 07       		.byte	0x7
 497 02cf 62       		.byte	0x62
 498 02d0 48020000 		.4byte	0x248
 499 02d4 88       		.byte	0x88
 500 02d5 00       		.byte	0
 501 02d6 05       		.uleb128 0x5
 502 02d7 04       		.byte	0x4
 503 02d8 98020000 		.4byte	0x298
 504 02dc 0A       		.uleb128 0xa
 505 02dd EC020000 		.4byte	0x2ec
 506 02e1 EC020000 		.4byte	0x2ec
 507 02e5 0B       		.uleb128 0xb
 508 02e6 7A000000 		.4byte	0x7a
 509 02ea 1F       		.byte	0x1f
 510 02eb 00       		.byte	0
 511 02ec 05       		.uleb128 0x5
 512 02ed 04       		.byte	0x4
 513 02ee F2020000 		.4byte	0x2f2
ARM GAS  C:\Users\PCHAUT~1\AppData\Local\Temp\ccHcO4nD.s 			page 10


 514 02f2 14       		.uleb128 0x14
 515 02f3 10       		.uleb128 0x10
 516 02f4 6B040000 		.4byte	.LASF50
 517 02f8 08       		.byte	0x8
 518 02f9 07       		.byte	0x7
 519 02fa 75       		.byte	0x75
 520 02fb 18030000 		.4byte	0x318
 521 02ff 0D       		.uleb128 0xd
 522 0300 CA000000 		.4byte	.LASF51
 523 0304 07       		.byte	0x7
 524 0305 76       		.byte	0x76
 525 0306 18030000 		.4byte	0x318
 526 030a 00       		.byte	0
 527 030b 0D       		.uleb128 0xd
 528 030c 0C000000 		.4byte	.LASF52
 529 0310 07       		.byte	0x7
 530 0311 77       		.byte	0x77
 531 0312 73000000 		.4byte	0x73
 532 0316 04       		.byte	0x4
 533 0317 00       		.byte	0
 534 0318 05       		.uleb128 0x5
 535 0319 04       		.byte	0x4
 536 031a 37000000 		.4byte	0x37
 537 031e 10       		.uleb128 0x10
 538 031f 8A040000 		.4byte	.LASF53
 539 0323 68       		.byte	0x68
 540 0324 07       		.byte	0x7
 541 0325 B5       		.byte	0xb5
 542 0326 48040000 		.4byte	0x448
 543 032a 11       		.uleb128 0x11
 544 032b 5F7000   		.ascii	"_p\000"
 545 032e 07       		.byte	0x7
 546 032f B6       		.byte	0xb6
 547 0330 18030000 		.4byte	0x318
 548 0334 00       		.byte	0
 549 0335 11       		.uleb128 0x11
 550 0336 5F7200   		.ascii	"_r\000"
 551 0339 07       		.byte	0x7
 552 033a B7       		.byte	0xb7
 553 033b 73000000 		.4byte	0x73
 554 033f 04       		.byte	0x4
 555 0340 11       		.uleb128 0x11
 556 0341 5F7700   		.ascii	"_w\000"
 557 0344 07       		.byte	0x7
 558 0345 B8       		.byte	0xb8
 559 0346 73000000 		.4byte	0x73
 560 034a 08       		.byte	0x8
 561 034b 0D       		.uleb128 0xd
 562 034c 4A020000 		.4byte	.LASF54
 563 0350 07       		.byte	0x7
 564 0351 B9       		.byte	0xb9
 565 0352 3E000000 		.4byte	0x3e
 566 0356 0C       		.byte	0xc
 567 0357 0D       		.uleb128 0xd
 568 0358 29030000 		.4byte	.LASF55
 569 035c 07       		.byte	0x7
 570 035d BA       		.byte	0xba
ARM GAS  C:\Users\PCHAUT~1\AppData\Local\Temp\ccHcO4nD.s 			page 11


 571 035e 3E000000 		.4byte	0x3e
 572 0362 0E       		.byte	0xe
 573 0363 11       		.uleb128 0x11
 574 0364 5F626600 		.ascii	"_bf\000"
 575 0368 07       		.byte	0x7
 576 0369 BB       		.byte	0xbb
 577 036a F3020000 		.4byte	0x2f3
 578 036e 10       		.byte	0x10
 579 036f 0D       		.uleb128 0xd
 580 0370 7E000000 		.4byte	.LASF56
 581 0374 07       		.byte	0x7
 582 0375 BC       		.byte	0xbc
 583 0376 73000000 		.4byte	0x73
 584 037a 18       		.byte	0x18
 585 037b 0D       		.uleb128 0xd
 586 037c ED000000 		.4byte	.LASF57
 587 0380 07       		.byte	0x7
 588 0381 C3       		.byte	0xc3
 589 0382 47010000 		.4byte	0x147
 590 0386 1C       		.byte	0x1c
 591 0387 0D       		.uleb128 0xd
 592 0388 DE020000 		.4byte	.LASF58
 593 038c 07       		.byte	0x7
 594 038d C5       		.byte	0xc5
 595 038e A3050000 		.4byte	0x5a3
 596 0392 20       		.byte	0x20
 597 0393 0D       		.uleb128 0xd
 598 0394 C9030000 		.4byte	.LASF59
 599 0398 07       		.byte	0x7
 600 0399 C7       		.byte	0xc7
 601 039a CD050000 		.4byte	0x5cd
 602 039e 24       		.byte	0x24
 603 039f 0D       		.uleb128 0xd
 604 03a0 50050000 		.4byte	.LASF60
 605 03a4 07       		.byte	0x7
 606 03a5 CA       		.byte	0xca
 607 03a6 F1050000 		.4byte	0x5f1
 608 03aa 28       		.byte	0x28
 609 03ab 0D       		.uleb128 0xd
 610 03ac 43060000 		.4byte	.LASF61
 611 03b0 07       		.byte	0x7
 612 03b1 CB       		.byte	0xcb
 613 03b2 0B060000 		.4byte	0x60b
 614 03b6 2C       		.byte	0x2c
 615 03b7 11       		.uleb128 0x11
 616 03b8 5F756200 		.ascii	"_ub\000"
 617 03bc 07       		.byte	0x7
 618 03bd CE       		.byte	0xce
 619 03be F3020000 		.4byte	0x2f3
 620 03c2 30       		.byte	0x30
 621 03c3 11       		.uleb128 0x11
 622 03c4 5F757000 		.ascii	"_up\000"
 623 03c8 07       		.byte	0x7
 624 03c9 CF       		.byte	0xcf
 625 03ca 18030000 		.4byte	0x318
 626 03ce 38       		.byte	0x38
 627 03cf 11       		.uleb128 0x11
ARM GAS  C:\Users\PCHAUT~1\AppData\Local\Temp\ccHcO4nD.s 			page 12


 628 03d0 5F757200 		.ascii	"_ur\000"
 629 03d4 07       		.byte	0x7
 630 03d5 D0       		.byte	0xd0
 631 03d6 73000000 		.4byte	0x73
 632 03da 3C       		.byte	0x3c
 633 03db 0D       		.uleb128 0xd
 634 03dc C4000000 		.4byte	.LASF62
 635 03e0 07       		.byte	0x7
 636 03e1 D3       		.byte	0xd3
 637 03e2 11060000 		.4byte	0x611
 638 03e6 40       		.byte	0x40
 639 03e7 0D       		.uleb128 0xd
 640 03e8 1B060000 		.4byte	.LASF63
 641 03ec 07       		.byte	0x7
 642 03ed D4       		.byte	0xd4
 643 03ee 21060000 		.4byte	0x621
 644 03f2 43       		.byte	0x43
 645 03f3 11       		.uleb128 0x11
 646 03f4 5F6C6200 		.ascii	"_lb\000"
 647 03f8 07       		.byte	0x7
 648 03f9 D7       		.byte	0xd7
 649 03fa F3020000 		.4byte	0x2f3
 650 03fe 44       		.byte	0x44
 651 03ff 0D       		.uleb128 0xd
 652 0400 60020000 		.4byte	.LASF64
 653 0404 07       		.byte	0x7
 654 0405 DA       		.byte	0xda
 655 0406 73000000 		.4byte	0x73
 656 040a 4C       		.byte	0x4c
 657 040b 0D       		.uleb128 0xd
 658 040c 71020000 		.4byte	.LASF65
 659 0410 07       		.byte	0x7
 660 0411 DB       		.byte	0xdb
 661 0412 BF000000 		.4byte	0xbf
 662 0416 50       		.byte	0x50
 663 0417 0D       		.uleb128 0xd
 664 0418 3C000000 		.4byte	.LASF66
 665 041c 07       		.byte	0x7
 666 041d DE       		.byte	0xde
 667 041e 66040000 		.4byte	0x466
 668 0422 54       		.byte	0x54
 669 0423 0D       		.uleb128 0xd
 670 0424 BB030000 		.4byte	.LASF67
 671 0428 07       		.byte	0x7
 672 0429 E2       		.byte	0xe2
 673 042a 3C010000 		.4byte	0x13c
 674 042e 58       		.byte	0x58
 675 042f 0D       		.uleb128 0xd
 676 0430 92040000 		.4byte	.LASF68
 677 0434 07       		.byte	0x7
 678 0435 E4       		.byte	0xe4
 679 0436 31010000 		.4byte	0x131
 680 043a 5C       		.byte	0x5c
 681 043b 0D       		.uleb128 0xd
 682 043c C1030000 		.4byte	.LASF69
 683 0440 07       		.byte	0x7
 684 0441 E5       		.byte	0xe5
ARM GAS  C:\Users\PCHAUT~1\AppData\Local\Temp\ccHcO4nD.s 			page 13


 685 0442 73000000 		.4byte	0x73
 686 0446 64       		.byte	0x64
 687 0447 00       		.byte	0
 688 0448 15       		.uleb128 0x15
 689 0449 73000000 		.4byte	0x73
 690 044d 66040000 		.4byte	0x466
 691 0451 16       		.uleb128 0x16
 692 0452 66040000 		.4byte	0x466
 693 0456 16       		.uleb128 0x16
 694 0457 47010000 		.4byte	0x147
 695 045b 16       		.uleb128 0x16
 696 045c 49010000 		.4byte	0x149
 697 0460 16       		.uleb128 0x16
 698 0461 73000000 		.4byte	0x73
 699 0465 00       		.byte	0
 700 0466 05       		.uleb128 0x5
 701 0467 04       		.byte	0x4
 702 0468 71040000 		.4byte	0x471
 703 046c 0F       		.uleb128 0xf
 704 046d 66040000 		.4byte	0x466
 705 0471 17       		.uleb128 0x17
 706 0472 2B050000 		.4byte	.LASF70
 707 0476 2804     		.2byte	0x428
 708 0478 07       		.byte	0x7
 709 0479 3902     		.2byte	0x239
 710 047b A3050000 		.4byte	0x5a3
 711 047f 18       		.uleb128 0x18
 712 0480 71050000 		.4byte	.LASF71
 713 0484 07       		.byte	0x7
 714 0485 3B02     		.2byte	0x23b
 715 0487 73000000 		.4byte	0x73
 716 048b 00       		.byte	0
 717 048c 18       		.uleb128 0x18
 718 048d 59020000 		.4byte	.LASF72
 719 0491 07       		.byte	0x7
 720 0492 4002     		.2byte	0x240
 721 0494 78060000 		.4byte	0x678
 722 0498 04       		.byte	0x4
 723 0499 18       		.uleb128 0x18
 724 049a 07030000 		.4byte	.LASF73
 725 049e 07       		.byte	0x7
 726 049f 4002     		.2byte	0x240
 727 04a1 78060000 		.4byte	0x678
 728 04a5 08       		.byte	0x8
 729 04a6 18       		.uleb128 0x18
 730 04a7 BF020000 		.4byte	.LASF74
 731 04ab 07       		.byte	0x7
 732 04ac 4002     		.2byte	0x240
 733 04ae 78060000 		.4byte	0x678
 734 04b2 0C       		.byte	0xc
 735 04b3 18       		.uleb128 0x18
 736 04b4 B3040000 		.4byte	.LASF75
 737 04b8 07       		.byte	0x7
 738 04b9 4202     		.2byte	0x242
 739 04bb 73000000 		.4byte	0x73
 740 04bf 10       		.byte	0x10
 741 04c0 18       		.uleb128 0x18
ARM GAS  C:\Users\PCHAUT~1\AppData\Local\Temp\ccHcO4nD.s 			page 14


 742 04c1 27000000 		.4byte	.LASF76
 743 04c5 07       		.byte	0x7
 744 04c6 4302     		.2byte	0x243
 745 04c8 5A080000 		.4byte	0x85a
 746 04cc 14       		.byte	0x14
 747 04cd 18       		.uleb128 0x18
 748 04ce 0A050000 		.4byte	.LASF77
 749 04d2 07       		.byte	0x7
 750 04d3 4602     		.2byte	0x246
 751 04d5 73000000 		.4byte	0x73
 752 04d9 30       		.byte	0x30
 753 04da 18       		.uleb128 0x18
 754 04db F8040000 		.4byte	.LASF78
 755 04df 07       		.byte	0x7
 756 04e0 4702     		.2byte	0x247
 757 04e2 6F080000 		.4byte	0x86f
 758 04e6 34       		.byte	0x34
 759 04e7 18       		.uleb128 0x18
 760 04e8 11040000 		.4byte	.LASF79
 761 04ec 07       		.byte	0x7
 762 04ed 4902     		.2byte	0x249
 763 04ef 73000000 		.4byte	0x73
 764 04f3 38       		.byte	0x38
 765 04f4 18       		.uleb128 0x18
 766 04f5 00050000 		.4byte	.LASF80
 767 04f9 07       		.byte	0x7
 768 04fa 4B02     		.2byte	0x24b
 769 04fc 80080000 		.4byte	0x880
 770 0500 3C       		.byte	0x3c
 771 0501 18       		.uleb128 0x18
 772 0502 9E030000 		.4byte	.LASF81
 773 0506 07       		.byte	0x7
 774 0507 4E02     		.2byte	0x24e
 775 0509 B9010000 		.4byte	0x1b9
 776 050d 40       		.byte	0x40
 777 050e 18       		.uleb128 0x18
 778 050f E4020000 		.4byte	.LASF82
 779 0513 07       		.byte	0x7
 780 0514 4F02     		.2byte	0x24f
 781 0516 73000000 		.4byte	0x73
 782 051a 44       		.byte	0x44
 783 051b 18       		.uleb128 0x18
 784 051c 5D060000 		.4byte	.LASF83
 785 0520 07       		.byte	0x7
 786 0521 5002     		.2byte	0x250
 787 0523 B9010000 		.4byte	0x1b9
 788 0527 48       		.byte	0x48
 789 0528 18       		.uleb128 0x18
 790 0529 23040000 		.4byte	.LASF84
 791 052d 07       		.byte	0x7
 792 052e 5102     		.2byte	0x251
 793 0530 86080000 		.4byte	0x886
 794 0534 4C       		.byte	0x4c
 795 0535 18       		.uleb128 0x18
 796 0536 0F030000 		.4byte	.LASF85
 797 053a 07       		.byte	0x7
 798 053b 5402     		.2byte	0x254
ARM GAS  C:\Users\PCHAUT~1\AppData\Local\Temp\ccHcO4nD.s 			page 15


 799 053d 73000000 		.4byte	0x73
 800 0541 50       		.byte	0x50
 801 0542 18       		.uleb128 0x18
 802 0543 69020000 		.4byte	.LASF86
 803 0547 07       		.byte	0x7
 804 0548 5502     		.2byte	0x255
 805 054a 49010000 		.4byte	0x149
 806 054e 54       		.byte	0x54
 807 054f 18       		.uleb128 0x18
 808 0550 49040000 		.4byte	.LASF87
 809 0554 07       		.byte	0x7
 810 0555 7802     		.2byte	0x278
 811 0557 38080000 		.4byte	0x838
 812 055b 58       		.byte	0x58
 813 055c 19       		.uleb128 0x19
 814 055d FF030000 		.4byte	.LASF47
 815 0561 07       		.byte	0x7
 816 0562 7C02     		.2byte	0x27c
 817 0564 D6020000 		.4byte	0x2d6
 818 0568 4801     		.2byte	0x148
 819 056a 19       		.uleb128 0x19
 820 056b 7C030000 		.4byte	.LASF88
 821 056f 07       		.byte	0x7
 822 0570 7D02     		.2byte	0x27d
 823 0572 98020000 		.4byte	0x298
 824 0576 4C01     		.2byte	0x14c
 825 0578 19       		.uleb128 0x19
 826 0579 11060000 		.4byte	.LASF89
 827 057d 07       		.byte	0x7
 828 057e 8102     		.2byte	0x281
 829 0580 97080000 		.4byte	0x897
 830 0584 DC02     		.2byte	0x2dc
 831 0586 19       		.uleb128 0x19
 832 0587 F5000000 		.4byte	.LASF90
 833 058b 07       		.byte	0x7
 834 058c 8602     		.2byte	0x286
 835 058e 3D060000 		.4byte	0x63d
 836 0592 E002     		.2byte	0x2e0
 837 0594 19       		.uleb128 0x19
 838 0595 DA000000 		.4byte	.LASF91
 839 0599 07       		.byte	0x7
 840 059a 8802     		.2byte	0x288
 841 059c A3080000 		.4byte	0x8a3
 842 05a0 EC02     		.2byte	0x2ec
 843 05a2 00       		.byte	0
 844 05a3 05       		.uleb128 0x5
 845 05a4 04       		.byte	0x4
 846 05a5 48040000 		.4byte	0x448
 847 05a9 15       		.uleb128 0x15
 848 05aa 73000000 		.4byte	0x73
 849 05ae C7050000 		.4byte	0x5c7
 850 05b2 16       		.uleb128 0x16
 851 05b3 66040000 		.4byte	0x466
 852 05b7 16       		.uleb128 0x16
 853 05b8 47010000 		.4byte	0x147
 854 05bc 16       		.uleb128 0x16
 855 05bd C7050000 		.4byte	0x5c7
ARM GAS  C:\Users\PCHAUT~1\AppData\Local\Temp\ccHcO4nD.s 			page 16


 856 05c1 16       		.uleb128 0x16
 857 05c2 73000000 		.4byte	0x73
 858 05c6 00       		.byte	0
 859 05c7 05       		.uleb128 0x5
 860 05c8 04       		.byte	0x4
 861 05c9 56010000 		.4byte	0x156
 862 05cd 05       		.uleb128 0x5
 863 05ce 04       		.byte	0x4
 864 05cf A9050000 		.4byte	0x5a9
 865 05d3 15       		.uleb128 0x15
 866 05d4 CA000000 		.4byte	0xca
 867 05d8 F1050000 		.4byte	0x5f1
 868 05dc 16       		.uleb128 0x16
 869 05dd 66040000 		.4byte	0x466
 870 05e1 16       		.uleb128 0x16
 871 05e2 47010000 		.4byte	0x147
 872 05e6 16       		.uleb128 0x16
 873 05e7 CA000000 		.4byte	0xca
 874 05eb 16       		.uleb128 0x16
 875 05ec 73000000 		.4byte	0x73
 876 05f0 00       		.byte	0
 877 05f1 05       		.uleb128 0x5
 878 05f2 04       		.byte	0x4
 879 05f3 D3050000 		.4byte	0x5d3
 880 05f7 15       		.uleb128 0x15
 881 05f8 73000000 		.4byte	0x73
 882 05fc 0B060000 		.4byte	0x60b
 883 0600 16       		.uleb128 0x16
 884 0601 66040000 		.4byte	0x466
 885 0605 16       		.uleb128 0x16
 886 0606 47010000 		.4byte	0x147
 887 060a 00       		.byte	0
 888 060b 05       		.uleb128 0x5
 889 060c 04       		.byte	0x4
 890 060d F7050000 		.4byte	0x5f7
 891 0611 0A       		.uleb128 0xa
 892 0612 37000000 		.4byte	0x37
 893 0616 21060000 		.4byte	0x621
 894 061a 0B       		.uleb128 0xb
 895 061b 7A000000 		.4byte	0x7a
 896 061f 02       		.byte	0x2
 897 0620 00       		.byte	0
 898 0621 0A       		.uleb128 0xa
 899 0622 37000000 		.4byte	0x37
 900 0626 31060000 		.4byte	0x631
 901 062a 0B       		.uleb128 0xb
 902 062b 7A000000 		.4byte	0x7a
 903 062f 00       		.byte	0
 904 0630 00       		.byte	0
 905 0631 07       		.uleb128 0x7
 906 0632 78040000 		.4byte	.LASF92
 907 0636 07       		.byte	0x7
 908 0637 1F01     		.2byte	0x11f
 909 0639 1E030000 		.4byte	0x31e
 910 063d 1A       		.uleb128 0x1a
 911 063e F9050000 		.4byte	.LASF93
 912 0642 0C       		.byte	0xc
ARM GAS  C:\Users\PCHAUT~1\AppData\Local\Temp\ccHcO4nD.s 			page 17


 913 0643 07       		.byte	0x7
 914 0644 2301     		.2byte	0x123
 915 0646 72060000 		.4byte	0x672
 916 064a 18       		.uleb128 0x18
 917 064b 8C050000 		.4byte	.LASF27
 918 064f 07       		.byte	0x7
 919 0650 2501     		.2byte	0x125
 920 0652 72060000 		.4byte	0x672
 921 0656 00       		.byte	0
 922 0657 18       		.uleb128 0x18
 923 0658 5D030000 		.4byte	.LASF94
 924 065c 07       		.byte	0x7
 925 065d 2601     		.2byte	0x126
 926 065f 73000000 		.4byte	0x73
 927 0663 04       		.byte	0x4
 928 0664 18       		.uleb128 0x18
 929 0665 72040000 		.4byte	.LASF95
 930 0669 07       		.byte	0x7
 931 066a 2701     		.2byte	0x127
 932 066c 78060000 		.4byte	0x678
 933 0670 08       		.byte	0x8
 934 0671 00       		.byte	0
 935 0672 05       		.uleb128 0x5
 936 0673 04       		.byte	0x4
 937 0674 3D060000 		.4byte	0x63d
 938 0678 05       		.uleb128 0x5
 939 0679 04       		.byte	0x4
 940 067a 31060000 		.4byte	0x631
 941 067e 1A       		.uleb128 0x1a
 942 067f 1F000000 		.4byte	.LASF96
 943 0683 0E       		.byte	0xe
 944 0684 07       		.byte	0x7
 945 0685 3F01     		.2byte	0x13f
 946 0687 B3060000 		.4byte	0x6b3
 947 068b 18       		.uleb128 0x18
 948 068c 32050000 		.4byte	.LASF97
 949 0690 07       		.byte	0x7
 950 0691 4001     		.2byte	0x140
 951 0693 B3060000 		.4byte	0x6b3
 952 0697 00       		.byte	0
 953 0698 18       		.uleb128 0x18
 954 0699 86050000 		.4byte	.LASF98
 955 069d 07       		.byte	0x7
 956 069e 4101     		.2byte	0x141
 957 06a0 B3060000 		.4byte	0x6b3
 958 06a4 06       		.byte	0x6
 959 06a5 18       		.uleb128 0x18
 960 06a6 B0050000 		.4byte	.LASF99
 961 06aa 07       		.byte	0x7
 962 06ab 4201     		.2byte	0x142
 963 06ad 45000000 		.4byte	0x45
 964 06b1 0C       		.byte	0xc
 965 06b2 00       		.byte	0
 966 06b3 0A       		.uleb128 0xa
 967 06b4 45000000 		.4byte	0x45
 968 06b8 C3060000 		.4byte	0x6c3
 969 06bc 0B       		.uleb128 0xb
ARM GAS  C:\Users\PCHAUT~1\AppData\Local\Temp\ccHcO4nD.s 			page 18


 970 06bd 7A000000 		.4byte	0x7a
 971 06c1 02       		.byte	0x2
 972 06c2 00       		.byte	0
 973 06c3 1B       		.uleb128 0x1b
 974 06c4 D0       		.byte	0xd0
 975 06c5 07       		.byte	0x7
 976 06c6 5902     		.2byte	0x259
 977 06c8 C4070000 		.4byte	0x7c4
 978 06cc 18       		.uleb128 0x18
 979 06cd DD050000 		.4byte	.LASF100
 980 06d1 07       		.byte	0x7
 981 06d2 5B02     		.2byte	0x25b
 982 06d4 7A000000 		.4byte	0x7a
 983 06d8 00       		.byte	0
 984 06d9 18       		.uleb128 0x18
 985 06da 92050000 		.4byte	.LASF101
 986 06de 07       		.byte	0x7
 987 06df 5C02     		.2byte	0x25c
 988 06e1 49010000 		.4byte	0x149
 989 06e5 04       		.byte	0x4
 990 06e6 18       		.uleb128 0x18
 991 06e7 91030000 		.4byte	.LASF102
 992 06eb 07       		.byte	0x7
 993 06ec 5D02     		.2byte	0x25d
 994 06ee C4070000 		.4byte	0x7c4
 995 06f2 08       		.byte	0x8
 996 06f3 18       		.uleb128 0x18
 997 06f4 34060000 		.4byte	.LASF103
 998 06f8 07       		.byte	0x7
 999 06f9 5E02     		.2byte	0x25e
 1000 06fb CF010000 		.4byte	0x1cf
 1001 06ff 24       		.byte	0x24
 1002 0700 18       		.uleb128 0x18
 1003 0701 CF020000 		.4byte	.LASF104
 1004 0705 07       		.byte	0x7
 1005 0706 5F02     		.2byte	0x25f
 1006 0708 73000000 		.4byte	0x73
 1007 070c 48       		.byte	0x48
 1008 070d 18       		.uleb128 0x18
 1009 070e 9B040000 		.4byte	.LASF105
 1010 0712 07       		.byte	0x7
 1011 0713 6002     		.2byte	0x260
 1012 0715 6C000000 		.4byte	0x6c
 1013 0719 50       		.byte	0x50
 1014 071a 18       		.uleb128 0x18
 1015 071b 4A060000 		.4byte	.LASF106
 1016 071f 07       		.byte	0x7
 1017 0720 6102     		.2byte	0x261
 1018 0722 7E060000 		.4byte	0x67e
 1019 0726 58       		.byte	0x58
 1020 0727 18       		.uleb128 0x18
 1021 0728 A6040000 		.4byte	.LASF107
 1022 072c 07       		.byte	0x7
 1023 072d 6202     		.2byte	0x262
 1024 072f 31010000 		.4byte	0x131
 1025 0733 68       		.byte	0x68
 1026 0734 18       		.uleb128 0x18
ARM GAS  C:\Users\PCHAUT~1\AppData\Local\Temp\ccHcO4nD.s 			page 19


 1027 0735 4F060000 		.4byte	.LASF108
 1028 0739 07       		.byte	0x7
 1029 073a 6302     		.2byte	0x263
 1030 073c 31010000 		.4byte	0x131
 1031 0740 70       		.byte	0x70
 1032 0741 18       		.uleb128 0x18
 1033 0742 2D040000 		.4byte	.LASF109
 1034 0746 07       		.byte	0x7
 1035 0747 6402     		.2byte	0x264
 1036 0749 31010000 		.4byte	0x131
 1037 074d 78       		.byte	0x78
 1038 074e 18       		.uleb128 0x18
 1039 074f 07060000 		.4byte	.LASF110
 1040 0753 07       		.byte	0x7
 1041 0754 6502     		.2byte	0x265
 1042 0756 D4070000 		.4byte	0x7d4
 1043 075a 80       		.byte	0x80
 1044 075b 18       		.uleb128 0x18
 1045 075c 85030000 		.4byte	.LASF111
 1046 0760 07       		.byte	0x7
 1047 0761 6602     		.2byte	0x266
 1048 0763 E4070000 		.4byte	0x7e4
 1049 0767 88       		.byte	0x88
 1050 0768 18       		.uleb128 0x18
 1051 0769 BD050000 		.4byte	.LASF112
 1052 076d 07       		.byte	0x7
 1053 076e 6702     		.2byte	0x267
 1054 0770 73000000 		.4byte	0x73
 1055 0774 A0       		.byte	0xa0
 1056 0775 18       		.uleb128 0x18
 1057 0776 8A020000 		.4byte	.LASF113
 1058 077a 07       		.byte	0x7
 1059 077b 6802     		.2byte	0x268
 1060 077d 31010000 		.4byte	0x131
 1061 0781 A4       		.byte	0xa4
 1062 0782 18       		.uleb128 0x18
 1063 0783 92000000 		.4byte	.LASF114
 1064 0787 07       		.byte	0x7
 1065 0788 6902     		.2byte	0x269
 1066 078a 31010000 		.4byte	0x131
 1067 078e AC       		.byte	0xac
 1068 078f 18       		.uleb128 0x18
 1069 0790 79020000 		.4byte	.LASF115
 1070 0794 07       		.byte	0x7
 1071 0795 6A02     		.2byte	0x26a
 1072 0797 31010000 		.4byte	0x131
 1073 079b B4       		.byte	0xb4
 1074 079c 18       		.uleb128 0x18
 1075 079d 47000000 		.4byte	.LASF116
 1076 07a1 07       		.byte	0x7
 1077 07a2 6B02     		.2byte	0x26b
 1078 07a4 31010000 		.4byte	0x131
 1079 07a8 BC       		.byte	0xbc
 1080 07a9 18       		.uleb128 0x18
 1081 07aa 56000000 		.4byte	.LASF117
 1082 07ae 07       		.byte	0x7
 1083 07af 6C02     		.2byte	0x26c
ARM GAS  C:\Users\PCHAUT~1\AppData\Local\Temp\ccHcO4nD.s 			page 20


 1084 07b1 31010000 		.4byte	0x131
 1085 07b5 C4       		.byte	0xc4
 1086 07b6 18       		.uleb128 0x18
 1087 07b7 4E040000 		.4byte	.LASF118
 1088 07bb 07       		.byte	0x7
 1089 07bc 6D02     		.2byte	0x26d
 1090 07be 73000000 		.4byte	0x73
 1091 07c2 CC       		.byte	0xcc
 1092 07c3 00       		.byte	0
 1093 07c4 0A       		.uleb128 0xa
 1094 07c5 4F010000 		.4byte	0x14f
 1095 07c9 D4070000 		.4byte	0x7d4
 1096 07cd 0B       		.uleb128 0xb
 1097 07ce 7A000000 		.4byte	0x7a
 1098 07d2 19       		.byte	0x19
 1099 07d3 00       		.byte	0
 1100 07d4 0A       		.uleb128 0xa
 1101 07d5 4F010000 		.4byte	0x14f
 1102 07d9 E4070000 		.4byte	0x7e4
 1103 07dd 0B       		.uleb128 0xb
 1104 07de 7A000000 		.4byte	0x7a
 1105 07e2 07       		.byte	0x7
 1106 07e3 00       		.byte	0
 1107 07e4 0A       		.uleb128 0xa
 1108 07e5 4F010000 		.4byte	0x14f
 1109 07e9 F4070000 		.4byte	0x7f4
 1110 07ed 0B       		.uleb128 0xb
 1111 07ee 7A000000 		.4byte	0x7a
 1112 07f2 17       		.byte	0x17
 1113 07f3 00       		.byte	0
 1114 07f4 1B       		.uleb128 0x1b
 1115 07f5 F0       		.byte	0xf0
 1116 07f6 07       		.byte	0x7
 1117 07f7 7202     		.2byte	0x272
 1118 07f9 18080000 		.4byte	0x818
 1119 07fd 18       		.uleb128 0x18
 1120 07fe EF030000 		.4byte	.LASF119
 1121 0802 07       		.byte	0x7
 1122 0803 7502     		.2byte	0x275
 1123 0805 18080000 		.4byte	0x818
 1124 0809 00       		.byte	0
 1125 080a 18       		.uleb128 0x18
 1126 080b DA030000 		.4byte	.LASF120
 1127 080f 07       		.byte	0x7
 1128 0810 7602     		.2byte	0x276
 1129 0812 28080000 		.4byte	0x828
 1130 0816 78       		.byte	0x78
 1131 0817 00       		.byte	0
 1132 0818 0A       		.uleb128 0xa
 1133 0819 18030000 		.4byte	0x318
 1134 081d 28080000 		.4byte	0x828
 1135 0821 0B       		.uleb128 0xb
 1136 0822 7A000000 		.4byte	0x7a
 1137 0826 1D       		.byte	0x1d
 1138 0827 00       		.byte	0
 1139 0828 0A       		.uleb128 0xa
 1140 0829 7A000000 		.4byte	0x7a
ARM GAS  C:\Users\PCHAUT~1\AppData\Local\Temp\ccHcO4nD.s 			page 21


 1141 082d 38080000 		.4byte	0x838
 1142 0831 0B       		.uleb128 0xb
 1143 0832 7A000000 		.4byte	0x7a
 1144 0836 1D       		.byte	0x1d
 1145 0837 00       		.byte	0
 1146 0838 1C       		.uleb128 0x1c
 1147 0839 F0       		.byte	0xf0
 1148 083a 07       		.byte	0x7
 1149 083b 5702     		.2byte	0x257
 1150 083d 5A080000 		.4byte	0x85a
 1151 0841 1D       		.uleb128 0x1d
 1152 0842 2B050000 		.4byte	.LASF70
 1153 0846 07       		.byte	0x7
 1154 0847 6E02     		.2byte	0x26e
 1155 0849 C3060000 		.4byte	0x6c3
 1156 084d 1D       		.uleb128 0x1d
 1157 084e 21060000 		.4byte	.LASF121
 1158 0852 07       		.byte	0x7
 1159 0853 7702     		.2byte	0x277
 1160 0855 F4070000 		.4byte	0x7f4
 1161 0859 00       		.byte	0
 1162 085a 0A       		.uleb128 0xa
 1163 085b 4F010000 		.4byte	0x14f
 1164 085f 6A080000 		.4byte	0x86a
 1165 0863 0B       		.uleb128 0xb
 1166 0864 7A000000 		.4byte	0x7a
 1167 0868 18       		.byte	0x18
 1168 0869 00       		.byte	0
 1169 086a 06       		.uleb128 0x6
 1170 086b 87000000 		.4byte	.LASF123
 1171 086f 05       		.uleb128 0x5
 1172 0870 04       		.byte	0x4
 1173 0871 6A080000 		.4byte	0x86a
 1174 0875 1E       		.uleb128 0x1e
 1175 0876 80080000 		.4byte	0x880
 1176 087a 16       		.uleb128 0x16
 1177 087b 66040000 		.4byte	0x466
 1178 087f 00       		.byte	0
 1179 0880 05       		.uleb128 0x5
 1180 0881 04       		.byte	0x4
 1181 0882 75080000 		.4byte	0x875
 1182 0886 05       		.uleb128 0x5
 1183 0887 04       		.byte	0x4
 1184 0888 B9010000 		.4byte	0x1b9
 1185 088c 1E       		.uleb128 0x1e
 1186 088d 97080000 		.4byte	0x897
 1187 0891 16       		.uleb128 0x16
 1188 0892 73000000 		.4byte	0x73
 1189 0896 00       		.byte	0
 1190 0897 05       		.uleb128 0x5
 1191 0898 04       		.byte	0x4
 1192 0899 9D080000 		.4byte	0x89d
 1193 089d 05       		.uleb128 0x5
 1194 089e 04       		.byte	0x4
 1195 089f 8C080000 		.4byte	0x88c
 1196 08a3 0A       		.uleb128 0xa
 1197 08a4 31060000 		.4byte	0x631
ARM GAS  C:\Users\PCHAUT~1\AppData\Local\Temp\ccHcO4nD.s 			page 22


 1198 08a8 B3080000 		.4byte	0x8b3
 1199 08ac 0B       		.uleb128 0xb
 1200 08ad 7A000000 		.4byte	0x7a
 1201 08b1 02       		.byte	0x2
 1202 08b2 00       		.byte	0
 1203 08b3 1F       		.uleb128 0x1f
 1204 08b4 56050000 		.4byte	.LASF124
 1205 08b8 07       		.byte	0x7
 1206 08b9 0703     		.2byte	0x307
 1207 08bb 66040000 		.4byte	0x466
 1208 08bf 1F       		.uleb128 0x1f
 1209 08c0 CA050000 		.4byte	.LASF125
 1210 08c4 07       		.byte	0x7
 1211 08c5 0803     		.2byte	0x308
 1212 08c7 6C040000 		.4byte	0x46c
 1213 08cb 05       		.uleb128 0x5
 1214 08cc 04       		.byte	0x4
 1215 08cd D1080000 		.4byte	0x8d1
 1216 08d1 20       		.uleb128 0x20
 1217 08d2 21       		.uleb128 0x21
 1218 08d3 07040000 		.4byte	.LASF126
 1219 08d7 08       		.byte	0x8
 1220 08d8 63       		.byte	0x63
 1221 08d9 49010000 		.4byte	0x149
 1222 08dd 22       		.uleb128 0x22
 1223 08de 19000000 		.4byte	.LASF133
 1224 08e2 01       		.byte	0x1
 1225 08e3 07       		.byte	0x7
 1226 08e4 8C000000 		.4byte	0x8c
 1227 08e8 00000000 		.4byte	.LFB0
 1228 08ec 94000000 		.4byte	.LFE0-.LFB0
 1229 08f0 01       		.uleb128 0x1
 1230 08f1 9C       		.byte	0x9c
 1231 08f2 5F090000 		.4byte	0x95f
 1232 08f6 23       		.uleb128 0x23
 1233 08f7 42000000 		.4byte	.LASF127
 1234 08fb 01       		.byte	0x1
 1235 08fc 07       		.byte	0x7
 1236 08fd 8C000000 		.4byte	0x8c
 1237 0901 02       		.uleb128 0x2
 1238 0902 91       		.byte	0x91
 1239 0903 5C       		.sleb128 -36
 1240 0904 23       		.uleb128 0x23
 1241 0905 64030000 		.4byte	.LASF128
 1242 0909 01       		.byte	0x1
 1243 090a 07       		.byte	0x7
 1244 090b CB080000 		.4byte	0x8cb
 1245 090f 02       		.uleb128 0x2
 1246 0910 91       		.byte	0x91
 1247 0911 58       		.sleb128 -40
 1248 0912 23       		.uleb128 0x23
 1249 0913 6A050000 		.4byte	.LASF129
 1250 0917 01       		.byte	0x1
 1251 0918 07       		.byte	0x7
 1252 0919 97000000 		.4byte	0x97
 1253 091d 02       		.uleb128 0x2
 1254 091e 91       		.byte	0x91
ARM GAS  C:\Users\PCHAUT~1\AppData\Local\Temp\ccHcO4nD.s 			page 23


 1255 091f 54       		.sleb128 -44
 1256 0920 24       		.uleb128 0x24
 1257 0921 7000     		.ascii	"p\000"
 1258 0923 01       		.byte	0x1
 1259 0924 09       		.byte	0x9
 1260 0925 5F090000 		.4byte	0x95f
 1261 0929 02       		.uleb128 0x2
 1262 092a 91       		.byte	0x91
 1263 092b 70       		.sleb128 -16
 1264 092c 24       		.uleb128 0x24
 1265 092d 63726300 		.ascii	"crc\000"
 1266 0931 01       		.byte	0x1
 1267 0932 0A       		.byte	0xa
 1268 0933 8C000000 		.4byte	0x8c
 1269 0937 02       		.uleb128 0x2
 1270 0938 91       		.byte	0x91
 1271 0939 64       		.sleb128 -28
 1272 093a 24       		.uleb128 0x24
 1273 093b 6900     		.ascii	"i\000"
 1274 093d 01       		.byte	0x1
 1275 093e 0B       		.byte	0xb
 1276 093f 97000000 		.4byte	0x97
 1277 0943 02       		.uleb128 0x2
 1278 0944 91       		.byte	0x91
 1279 0945 68       		.sleb128 -24
 1280 0946 25       		.uleb128 0x25
 1281 0947 20000000 		.4byte	.LBB2
 1282 094b 42000000 		.4byte	.LBE2-.LBB2
 1283 094f 24       		.uleb128 0x24
 1284 0950 62697400 		.ascii	"bit\000"
 1285 0954 01       		.byte	0x1
 1286 0955 0D       		.byte	0xd
 1287 0956 73000000 		.4byte	0x73
 1288 095a 02       		.uleb128 0x2
 1289 095b 91       		.byte	0x91
 1290 095c 6C       		.sleb128 -20
 1291 095d 00       		.byte	0
 1292 095e 00       		.byte	0
 1293 095f 05       		.uleb128 0x5
 1294 0960 04       		.byte	0x4
 1295 0961 81000000 		.4byte	0x81
 1296 0965 00       		.byte	0
 1297              		.section	.debug_abbrev,"",%progbits
 1298              	.Ldebug_abbrev0:
 1299 0000 01       		.uleb128 0x1
 1300 0001 11       		.uleb128 0x11
 1301 0002 01       		.byte	0x1
 1302 0003 25       		.uleb128 0x25
 1303 0004 0E       		.uleb128 0xe
 1304 0005 13       		.uleb128 0x13
 1305 0006 0B       		.uleb128 0xb
 1306 0007 03       		.uleb128 0x3
 1307 0008 0E       		.uleb128 0xe
 1308 0009 1B       		.uleb128 0x1b
 1309 000a 0E       		.uleb128 0xe
 1310 000b 55       		.uleb128 0x55
 1311 000c 17       		.uleb128 0x17
ARM GAS  C:\Users\PCHAUT~1\AppData\Local\Temp\ccHcO4nD.s 			page 24


 1312 000d 11       		.uleb128 0x11
 1313 000e 01       		.uleb128 0x1
 1314 000f 10       		.uleb128 0x10
 1315 0010 17       		.uleb128 0x17
 1316 0011 00       		.byte	0
 1317 0012 00       		.byte	0
 1318 0013 02       		.uleb128 0x2
 1319 0014 24       		.uleb128 0x24
 1320 0015 00       		.byte	0
 1321 0016 0B       		.uleb128 0xb
 1322 0017 0B       		.uleb128 0xb
 1323 0018 3E       		.uleb128 0x3e
 1324 0019 0B       		.uleb128 0xb
 1325 001a 03       		.uleb128 0x3
 1326 001b 0E       		.uleb128 0xe
 1327 001c 00       		.byte	0
 1328 001d 00       		.byte	0
 1329 001e 03       		.uleb128 0x3
 1330 001f 16       		.uleb128 0x16
 1331 0020 00       		.byte	0
 1332 0021 03       		.uleb128 0x3
 1333 0022 0E       		.uleb128 0xe
 1334 0023 3A       		.uleb128 0x3a
 1335 0024 0B       		.uleb128 0xb
 1336 0025 3B       		.uleb128 0x3b
 1337 0026 0B       		.uleb128 0xb
 1338 0027 49       		.uleb128 0x49
 1339 0028 13       		.uleb128 0x13
 1340 0029 00       		.byte	0
 1341 002a 00       		.byte	0
 1342 002b 04       		.uleb128 0x4
 1343 002c 24       		.uleb128 0x24
 1344 002d 00       		.byte	0
 1345 002e 0B       		.uleb128 0xb
 1346 002f 0B       		.uleb128 0xb
 1347 0030 3E       		.uleb128 0x3e
 1348 0031 0B       		.uleb128 0xb
 1349 0032 03       		.uleb128 0x3
 1350 0033 08       		.uleb128 0x8
 1351 0034 00       		.byte	0
 1352 0035 00       		.byte	0
 1353 0036 05       		.uleb128 0x5
 1354 0037 0F       		.uleb128 0xf
 1355 0038 00       		.byte	0
 1356 0039 0B       		.uleb128 0xb
 1357 003a 0B       		.uleb128 0xb
 1358 003b 49       		.uleb128 0x49
 1359 003c 13       		.uleb128 0x13
 1360 003d 00       		.byte	0
 1361 003e 00       		.byte	0
 1362 003f 06       		.uleb128 0x6
 1363 0040 13       		.uleb128 0x13
 1364 0041 00       		.byte	0
 1365 0042 03       		.uleb128 0x3
 1366 0043 0E       		.uleb128 0xe
 1367 0044 3C       		.uleb128 0x3c
 1368 0045 19       		.uleb128 0x19
ARM GAS  C:\Users\PCHAUT~1\AppData\Local\Temp\ccHcO4nD.s 			page 25


 1369 0046 00       		.byte	0
 1370 0047 00       		.byte	0
 1371 0048 07       		.uleb128 0x7
 1372 0049 16       		.uleb128 0x16
 1373 004a 00       		.byte	0
 1374 004b 03       		.uleb128 0x3
 1375 004c 0E       		.uleb128 0xe
 1376 004d 3A       		.uleb128 0x3a
 1377 004e 0B       		.uleb128 0xb
 1378 004f 3B       		.uleb128 0x3b
 1379 0050 05       		.uleb128 0x5
 1380 0051 49       		.uleb128 0x49
 1381 0052 13       		.uleb128 0x13
 1382 0053 00       		.byte	0
 1383 0054 00       		.byte	0
 1384 0055 08       		.uleb128 0x8
 1385 0056 17       		.uleb128 0x17
 1386 0057 01       		.byte	0x1
 1387 0058 0B       		.uleb128 0xb
 1388 0059 0B       		.uleb128 0xb
 1389 005a 3A       		.uleb128 0x3a
 1390 005b 0B       		.uleb128 0xb
 1391 005c 3B       		.uleb128 0x3b
 1392 005d 0B       		.uleb128 0xb
 1393 005e 01       		.uleb128 0x1
 1394 005f 13       		.uleb128 0x13
 1395 0060 00       		.byte	0
 1396 0061 00       		.byte	0
 1397 0062 09       		.uleb128 0x9
 1398 0063 0D       		.uleb128 0xd
 1399 0064 00       		.byte	0
 1400 0065 03       		.uleb128 0x3
 1401 0066 0E       		.uleb128 0xe
 1402 0067 3A       		.uleb128 0x3a
 1403 0068 0B       		.uleb128 0xb
 1404 0069 3B       		.uleb128 0x3b
 1405 006a 0B       		.uleb128 0xb
 1406 006b 49       		.uleb128 0x49
 1407 006c 13       		.uleb128 0x13
 1408 006d 00       		.byte	0
 1409 006e 00       		.byte	0
 1410 006f 0A       		.uleb128 0xa
 1411 0070 01       		.uleb128 0x1
 1412 0071 01       		.byte	0x1
 1413 0072 49       		.uleb128 0x49
 1414 0073 13       		.uleb128 0x13
 1415 0074 01       		.uleb128 0x1
 1416 0075 13       		.uleb128 0x13
 1417 0076 00       		.byte	0
 1418 0077 00       		.byte	0
 1419 0078 0B       		.uleb128 0xb
 1420 0079 21       		.uleb128 0x21
 1421 007a 00       		.byte	0
 1422 007b 49       		.uleb128 0x49
 1423 007c 13       		.uleb128 0x13
 1424 007d 2F       		.uleb128 0x2f
 1425 007e 0B       		.uleb128 0xb
ARM GAS  C:\Users\PCHAUT~1\AppData\Local\Temp\ccHcO4nD.s 			page 26


 1426 007f 00       		.byte	0
 1427 0080 00       		.byte	0
 1428 0081 0C       		.uleb128 0xc
 1429 0082 13       		.uleb128 0x13
 1430 0083 01       		.byte	0x1
 1431 0084 0B       		.uleb128 0xb
 1432 0085 0B       		.uleb128 0xb
 1433 0086 3A       		.uleb128 0x3a
 1434 0087 0B       		.uleb128 0xb
 1435 0088 3B       		.uleb128 0x3b
 1436 0089 0B       		.uleb128 0xb
 1437 008a 01       		.uleb128 0x1
 1438 008b 13       		.uleb128 0x13
 1439 008c 00       		.byte	0
 1440 008d 00       		.byte	0
 1441 008e 0D       		.uleb128 0xd
 1442 008f 0D       		.uleb128 0xd
 1443 0090 00       		.byte	0
 1444 0091 03       		.uleb128 0x3
 1445 0092 0E       		.uleb128 0xe
 1446 0093 3A       		.uleb128 0x3a
 1447 0094 0B       		.uleb128 0xb
 1448 0095 3B       		.uleb128 0x3b
 1449 0096 0B       		.uleb128 0xb
 1450 0097 49       		.uleb128 0x49
 1451 0098 13       		.uleb128 0x13
 1452 0099 38       		.uleb128 0x38
 1453 009a 0B       		.uleb128 0xb
 1454 009b 00       		.byte	0
 1455 009c 00       		.byte	0
 1456 009d 0E       		.uleb128 0xe
 1457 009e 0F       		.uleb128 0xf
 1458 009f 00       		.byte	0
 1459 00a0 0B       		.uleb128 0xb
 1460 00a1 0B       		.uleb128 0xb
 1461 00a2 00       		.byte	0
 1462 00a3 00       		.byte	0
 1463 00a4 0F       		.uleb128 0xf
 1464 00a5 26       		.uleb128 0x26
 1465 00a6 00       		.byte	0
 1466 00a7 49       		.uleb128 0x49
 1467 00a8 13       		.uleb128 0x13
 1468 00a9 00       		.byte	0
 1469 00aa 00       		.byte	0
 1470 00ab 10       		.uleb128 0x10
 1471 00ac 13       		.uleb128 0x13
 1472 00ad 01       		.byte	0x1
 1473 00ae 03       		.uleb128 0x3
 1474 00af 0E       		.uleb128 0xe
 1475 00b0 0B       		.uleb128 0xb
 1476 00b1 0B       		.uleb128 0xb
 1477 00b2 3A       		.uleb128 0x3a
 1478 00b3 0B       		.uleb128 0xb
 1479 00b4 3B       		.uleb128 0x3b
 1480 00b5 0B       		.uleb128 0xb
 1481 00b6 01       		.uleb128 0x1
 1482 00b7 13       		.uleb128 0x13
ARM GAS  C:\Users\PCHAUT~1\AppData\Local\Temp\ccHcO4nD.s 			page 27


 1483 00b8 00       		.byte	0
 1484 00b9 00       		.byte	0
 1485 00ba 11       		.uleb128 0x11
 1486 00bb 0D       		.uleb128 0xd
 1487 00bc 00       		.byte	0
 1488 00bd 03       		.uleb128 0x3
 1489 00be 08       		.uleb128 0x8
 1490 00bf 3A       		.uleb128 0x3a
 1491 00c0 0B       		.uleb128 0xb
 1492 00c1 3B       		.uleb128 0x3b
 1493 00c2 0B       		.uleb128 0xb
 1494 00c3 49       		.uleb128 0x49
 1495 00c4 13       		.uleb128 0x13
 1496 00c5 38       		.uleb128 0x38
 1497 00c6 0B       		.uleb128 0xb
 1498 00c7 00       		.byte	0
 1499 00c8 00       		.byte	0
 1500 00c9 12       		.uleb128 0x12
 1501 00ca 13       		.uleb128 0x13
 1502 00cb 01       		.byte	0x1
 1503 00cc 03       		.uleb128 0x3
 1504 00cd 0E       		.uleb128 0xe
 1505 00ce 0B       		.uleb128 0xb
 1506 00cf 05       		.uleb128 0x5
 1507 00d0 3A       		.uleb128 0x3a
 1508 00d1 0B       		.uleb128 0xb
 1509 00d2 3B       		.uleb128 0x3b
 1510 00d3 0B       		.uleb128 0xb
 1511 00d4 01       		.uleb128 0x1
 1512 00d5 13       		.uleb128 0x13
 1513 00d6 00       		.byte	0
 1514 00d7 00       		.byte	0
 1515 00d8 13       		.uleb128 0x13
 1516 00d9 0D       		.uleb128 0xd
 1517 00da 00       		.byte	0
 1518 00db 03       		.uleb128 0x3
 1519 00dc 0E       		.uleb128 0xe
 1520 00dd 3A       		.uleb128 0x3a
 1521 00de 0B       		.uleb128 0xb
 1522 00df 3B       		.uleb128 0x3b
 1523 00e0 0B       		.uleb128 0xb
 1524 00e1 49       		.uleb128 0x49
 1525 00e2 13       		.uleb128 0x13
 1526 00e3 38       		.uleb128 0x38
 1527 00e4 05       		.uleb128 0x5
 1528 00e5 00       		.byte	0
 1529 00e6 00       		.byte	0
 1530 00e7 14       		.uleb128 0x14
 1531 00e8 15       		.uleb128 0x15
 1532 00e9 00       		.byte	0
 1533 00ea 27       		.uleb128 0x27
 1534 00eb 19       		.uleb128 0x19
 1535 00ec 00       		.byte	0
 1536 00ed 00       		.byte	0
 1537 00ee 15       		.uleb128 0x15
 1538 00ef 15       		.uleb128 0x15
 1539 00f0 01       		.byte	0x1
ARM GAS  C:\Users\PCHAUT~1\AppData\Local\Temp\ccHcO4nD.s 			page 28


 1540 00f1 27       		.uleb128 0x27
 1541 00f2 19       		.uleb128 0x19
 1542 00f3 49       		.uleb128 0x49
 1543 00f4 13       		.uleb128 0x13
 1544 00f5 01       		.uleb128 0x1
 1545 00f6 13       		.uleb128 0x13
 1546 00f7 00       		.byte	0
 1547 00f8 00       		.byte	0
 1548 00f9 16       		.uleb128 0x16
 1549 00fa 05       		.uleb128 0x5
 1550 00fb 00       		.byte	0
 1551 00fc 49       		.uleb128 0x49
 1552 00fd 13       		.uleb128 0x13
 1553 00fe 00       		.byte	0
 1554 00ff 00       		.byte	0
 1555 0100 17       		.uleb128 0x17
 1556 0101 13       		.uleb128 0x13
 1557 0102 01       		.byte	0x1
 1558 0103 03       		.uleb128 0x3
 1559 0104 0E       		.uleb128 0xe
 1560 0105 0B       		.uleb128 0xb
 1561 0106 05       		.uleb128 0x5
 1562 0107 3A       		.uleb128 0x3a
 1563 0108 0B       		.uleb128 0xb
 1564 0109 3B       		.uleb128 0x3b
 1565 010a 05       		.uleb128 0x5
 1566 010b 01       		.uleb128 0x1
 1567 010c 13       		.uleb128 0x13
 1568 010d 00       		.byte	0
 1569 010e 00       		.byte	0
 1570 010f 18       		.uleb128 0x18
 1571 0110 0D       		.uleb128 0xd
 1572 0111 00       		.byte	0
 1573 0112 03       		.uleb128 0x3
 1574 0113 0E       		.uleb128 0xe
 1575 0114 3A       		.uleb128 0x3a
 1576 0115 0B       		.uleb128 0xb
 1577 0116 3B       		.uleb128 0x3b
 1578 0117 05       		.uleb128 0x5
 1579 0118 49       		.uleb128 0x49
 1580 0119 13       		.uleb128 0x13
 1581 011a 38       		.uleb128 0x38
 1582 011b 0B       		.uleb128 0xb
 1583 011c 00       		.byte	0
 1584 011d 00       		.byte	0
 1585 011e 19       		.uleb128 0x19
 1586 011f 0D       		.uleb128 0xd
 1587 0120 00       		.byte	0
 1588 0121 03       		.uleb128 0x3
 1589 0122 0E       		.uleb128 0xe
 1590 0123 3A       		.uleb128 0x3a
 1591 0124 0B       		.uleb128 0xb
 1592 0125 3B       		.uleb128 0x3b
 1593 0126 05       		.uleb128 0x5
 1594 0127 49       		.uleb128 0x49
 1595 0128 13       		.uleb128 0x13
 1596 0129 38       		.uleb128 0x38
ARM GAS  C:\Users\PCHAUT~1\AppData\Local\Temp\ccHcO4nD.s 			page 29


 1597 012a 05       		.uleb128 0x5
 1598 012b 00       		.byte	0
 1599 012c 00       		.byte	0
 1600 012d 1A       		.uleb128 0x1a
 1601 012e 13       		.uleb128 0x13
 1602 012f 01       		.byte	0x1
 1603 0130 03       		.uleb128 0x3
 1604 0131 0E       		.uleb128 0xe
 1605 0132 0B       		.uleb128 0xb
 1606 0133 0B       		.uleb128 0xb
 1607 0134 3A       		.uleb128 0x3a
 1608 0135 0B       		.uleb128 0xb
 1609 0136 3B       		.uleb128 0x3b
 1610 0137 05       		.uleb128 0x5
 1611 0138 01       		.uleb128 0x1
 1612 0139 13       		.uleb128 0x13
 1613 013a 00       		.byte	0
 1614 013b 00       		.byte	0
 1615 013c 1B       		.uleb128 0x1b
 1616 013d 13       		.uleb128 0x13
 1617 013e 01       		.byte	0x1
 1618 013f 0B       		.uleb128 0xb
 1619 0140 0B       		.uleb128 0xb
 1620 0141 3A       		.uleb128 0x3a
 1621 0142 0B       		.uleb128 0xb
 1622 0143 3B       		.uleb128 0x3b
 1623 0144 05       		.uleb128 0x5
 1624 0145 01       		.uleb128 0x1
 1625 0146 13       		.uleb128 0x13
 1626 0147 00       		.byte	0
 1627 0148 00       		.byte	0
 1628 0149 1C       		.uleb128 0x1c
 1629 014a 17       		.uleb128 0x17
 1630 014b 01       		.byte	0x1
 1631 014c 0B       		.uleb128 0xb
 1632 014d 0B       		.uleb128 0xb
 1633 014e 3A       		.uleb128 0x3a
 1634 014f 0B       		.uleb128 0xb
 1635 0150 3B       		.uleb128 0x3b
 1636 0151 05       		.uleb128 0x5
 1637 0152 01       		.uleb128 0x1
 1638 0153 13       		.uleb128 0x13
 1639 0154 00       		.byte	0
 1640 0155 00       		.byte	0
 1641 0156 1D       		.uleb128 0x1d
 1642 0157 0D       		.uleb128 0xd
 1643 0158 00       		.byte	0
 1644 0159 03       		.uleb128 0x3
 1645 015a 0E       		.uleb128 0xe
 1646 015b 3A       		.uleb128 0x3a
 1647 015c 0B       		.uleb128 0xb
 1648 015d 3B       		.uleb128 0x3b
 1649 015e 05       		.uleb128 0x5
 1650 015f 49       		.uleb128 0x49
 1651 0160 13       		.uleb128 0x13
 1652 0161 00       		.byte	0
 1653 0162 00       		.byte	0
ARM GAS  C:\Users\PCHAUT~1\AppData\Local\Temp\ccHcO4nD.s 			page 30


 1654 0163 1E       		.uleb128 0x1e
 1655 0164 15       		.uleb128 0x15
 1656 0165 01       		.byte	0x1
 1657 0166 27       		.uleb128 0x27
 1658 0167 19       		.uleb128 0x19
 1659 0168 01       		.uleb128 0x1
 1660 0169 13       		.uleb128 0x13
 1661 016a 00       		.byte	0
 1662 016b 00       		.byte	0
 1663 016c 1F       		.uleb128 0x1f
 1664 016d 34       		.uleb128 0x34
 1665 016e 00       		.byte	0
 1666 016f 03       		.uleb128 0x3
 1667 0170 0E       		.uleb128 0xe
 1668 0171 3A       		.uleb128 0x3a
 1669 0172 0B       		.uleb128 0xb
 1670 0173 3B       		.uleb128 0x3b
 1671 0174 05       		.uleb128 0x5
 1672 0175 49       		.uleb128 0x49
 1673 0176 13       		.uleb128 0x13
 1674 0177 3F       		.uleb128 0x3f
 1675 0178 19       		.uleb128 0x19
 1676 0179 3C       		.uleb128 0x3c
 1677 017a 19       		.uleb128 0x19
 1678 017b 00       		.byte	0
 1679 017c 00       		.byte	0
 1680 017d 20       		.uleb128 0x20
 1681 017e 26       		.uleb128 0x26
 1682 017f 00       		.byte	0
 1683 0180 00       		.byte	0
 1684 0181 00       		.byte	0
 1685 0182 21       		.uleb128 0x21
 1686 0183 34       		.uleb128 0x34
 1687 0184 00       		.byte	0
 1688 0185 03       		.uleb128 0x3
 1689 0186 0E       		.uleb128 0xe
 1690 0187 3A       		.uleb128 0x3a
 1691 0188 0B       		.uleb128 0xb
 1692 0189 3B       		.uleb128 0x3b
 1693 018a 0B       		.uleb128 0xb
 1694 018b 49       		.uleb128 0x49
 1695 018c 13       		.uleb128 0x13
 1696 018d 3F       		.uleb128 0x3f
 1697 018e 19       		.uleb128 0x19
 1698 018f 3C       		.uleb128 0x3c
 1699 0190 19       		.uleb128 0x19
 1700 0191 00       		.byte	0
 1701 0192 00       		.byte	0
 1702 0193 22       		.uleb128 0x22
 1703 0194 2E       		.uleb128 0x2e
 1704 0195 01       		.byte	0x1
 1705 0196 3F       		.uleb128 0x3f
 1706 0197 19       		.uleb128 0x19
 1707 0198 03       		.uleb128 0x3
 1708 0199 0E       		.uleb128 0xe
 1709 019a 3A       		.uleb128 0x3a
 1710 019b 0B       		.uleb128 0xb
ARM GAS  C:\Users\PCHAUT~1\AppData\Local\Temp\ccHcO4nD.s 			page 31


 1711 019c 3B       		.uleb128 0x3b
 1712 019d 0B       		.uleb128 0xb
 1713 019e 27       		.uleb128 0x27
 1714 019f 19       		.uleb128 0x19
 1715 01a0 49       		.uleb128 0x49
 1716 01a1 13       		.uleb128 0x13
 1717 01a2 11       		.uleb128 0x11
 1718 01a3 01       		.uleb128 0x1
 1719 01a4 12       		.uleb128 0x12
 1720 01a5 06       		.uleb128 0x6
 1721 01a6 40       		.uleb128 0x40
 1722 01a7 18       		.uleb128 0x18
 1723 01a8 9642     		.uleb128 0x2116
 1724 01aa 19       		.uleb128 0x19
 1725 01ab 01       		.uleb128 0x1
 1726 01ac 13       		.uleb128 0x13
 1727 01ad 00       		.byte	0
 1728 01ae 00       		.byte	0
 1729 01af 23       		.uleb128 0x23
 1730 01b0 05       		.uleb128 0x5
 1731 01b1 00       		.byte	0
 1732 01b2 03       		.uleb128 0x3
 1733 01b3 0E       		.uleb128 0xe
 1734 01b4 3A       		.uleb128 0x3a
 1735 01b5 0B       		.uleb128 0xb
 1736 01b6 3B       		.uleb128 0x3b
 1737 01b7 0B       		.uleb128 0xb
 1738 01b8 49       		.uleb128 0x49
 1739 01b9 13       		.uleb128 0x13
 1740 01ba 02       		.uleb128 0x2
 1741 01bb 18       		.uleb128 0x18
 1742 01bc 00       		.byte	0
 1743 01bd 00       		.byte	0
 1744 01be 24       		.uleb128 0x24
 1745 01bf 34       		.uleb128 0x34
 1746 01c0 00       		.byte	0
 1747 01c1 03       		.uleb128 0x3
 1748 01c2 08       		.uleb128 0x8
 1749 01c3 3A       		.uleb128 0x3a
 1750 01c4 0B       		.uleb128 0xb
 1751 01c5 3B       		.uleb128 0x3b
 1752 01c6 0B       		.uleb128 0xb
 1753 01c7 49       		.uleb128 0x49
 1754 01c8 13       		.uleb128 0x13
 1755 01c9 02       		.uleb128 0x2
 1756 01ca 18       		.uleb128 0x18
 1757 01cb 00       		.byte	0
 1758 01cc 00       		.byte	0
 1759 01cd 25       		.uleb128 0x25
 1760 01ce 0B       		.uleb128 0xb
 1761 01cf 01       		.byte	0x1
 1762 01d0 11       		.uleb128 0x11
 1763 01d1 01       		.uleb128 0x1
 1764 01d2 12       		.uleb128 0x12
 1765 01d3 06       		.uleb128 0x6
 1766 01d4 00       		.byte	0
 1767 01d5 00       		.byte	0
ARM GAS  C:\Users\PCHAUT~1\AppData\Local\Temp\ccHcO4nD.s 			page 32


 1768 01d6 00       		.byte	0
 1769              		.section	.debug_aranges,"",%progbits
 1770 0000 1C000000 		.4byte	0x1c
 1771 0004 0200     		.2byte	0x2
 1772 0006 00000000 		.4byte	.Ldebug_info0
 1773 000a 04       		.byte	0x4
 1774 000b 00       		.byte	0
 1775 000c 0000     		.2byte	0
 1776 000e 0000     		.2byte	0
 1777 0010 00000000 		.4byte	.LFB0
 1778 0014 94000000 		.4byte	.LFE0-.LFB0
 1779 0018 00000000 		.4byte	0
 1780 001c 00000000 		.4byte	0
 1781              		.section	.debug_ranges,"",%progbits
 1782              	.Ldebug_ranges0:
 1783 0000 00000000 		.4byte	.LFB0
 1784 0004 94000000 		.4byte	.LFE0
 1785 0008 00000000 		.4byte	0
 1786 000c 00000000 		.4byte	0
 1787              		.section	.debug_line,"",%progbits
 1788              	.Ldebug_line0:
 1789 0000 E3020000 		.section	.debug_str,"MS",%progbits,1
 1789      0200AC02 
 1789      00000201 
 1789      FB0E0D00 
 1789      01010101 
 1790              	.LASF44:
 1791 0000 5F64736F 		.ascii	"_dso_handle\000"
 1791      5F68616E 
 1791      646C6500 
 1792              	.LASF52:
 1793 000c 5F73697A 		.ascii	"_size\000"
 1793      6500
 1794              	.LASF13:
 1795 0012 73697A65 		.ascii	"size_t\000"
 1795      5F7400
 1796              	.LASF133:
 1797 0019 63726333 		.ascii	"crc32\000"
 1797      3200
 1798              	.LASF96:
 1799 001f 5F72616E 		.ascii	"_rand48\000"
 1799      64343800 
 1800              	.LASF76:
 1801 0027 5F656D65 		.ascii	"_emergency\000"
 1801      7267656E 
 1801      637900
 1802              	.LASF5:
 1803 0032 5F5F7569 		.ascii	"__uint8_t\000"
 1803      6E74385F 
 1803      7400
 1804              	.LASF66:
 1805 003c 5F646174 		.ascii	"_data\000"
 1805      6100
 1806              	.LASF127:
 1807 0042 696E6974 		.ascii	"init\000"
 1807      00
 1808              	.LASF116:
ARM GAS  C:\Users\PCHAUT~1\AppData\Local\Temp\ccHcO4nD.s 			page 33


 1809 0047 5F776372 		.ascii	"_wcrtomb_state\000"
 1809      746F6D62 
 1809      5F737461 
 1809      746500
 1810              	.LASF117:
 1811 0056 5F776373 		.ascii	"_wcsrtombs_state\000"
 1811      72746F6D 
 1811      62735F73 
 1811      74617465 
 1811      00
 1812              	.LASF9:
 1813 0067 6C6F6E67 		.ascii	"long long unsigned int\000"
 1813      206C6F6E 
 1813      6720756E 
 1813      7369676E 
 1813      65642069 
 1814              	.LASF56:
 1815 007e 5F6C6266 		.ascii	"_lbfsize\000"
 1815      73697A65 
 1815      00
 1816              	.LASF123:
 1817 0087 5F5F6C6F 		.ascii	"__locale_t\000"
 1817      63616C65 
 1817      5F7400
 1818              	.LASF114:
 1819 0092 5F6D6272 		.ascii	"_mbrtowc_state\000"
 1819      746F7763 
 1819      5F737461 
 1819      746500
 1820              	.LASF33:
 1821 00a1 5F5F746D 		.ascii	"__tm_sec\000"
 1821      5F736563 
 1821      00
 1822              	.LASF8:
 1823 00aa 6C6F6E67 		.ascii	"long long int\000"
 1823      206C6F6E 
 1823      6720696E 
 1823      7400
 1824              	.LASF0:
 1825 00b8 7369676E 		.ascii	"signed char\000"
 1825      65642063 
 1825      68617200 
 1826              	.LASF62:
 1827 00c4 5F756275 		.ascii	"_ubuf\000"
 1827      6600
 1828              	.LASF51:
 1829 00ca 5F626173 		.ascii	"_base\000"
 1829      6500
 1830              	.LASF35:
 1831 00d0 5F5F746D 		.ascii	"__tm_hour\000"
 1831      5F686F75 
 1831      7200
 1832              	.LASF91:
 1833 00da 5F5F7366 		.ascii	"__sf\000"
 1833      00
 1834              	.LASF42:
 1835 00df 5F6F6E5F 		.ascii	"_on_exit_args\000"
ARM GAS  C:\Users\PCHAUT~1\AppData\Local\Temp\ccHcO4nD.s 			page 34


 1835      65786974 
 1835      5F617267 
 1835      7300
 1836              	.LASF57:
 1837 00ed 5F636F6F 		.ascii	"_cookie\000"
 1837      6B696500 
 1838              	.LASF90:
 1839 00f5 5F5F7367 		.ascii	"__sglue\000"
 1839      6C756500 
 1840              	.LASF4:
 1841 00fd 6C6F6E67 		.ascii	"long int\000"
 1841      20696E74 
 1841      00
 1842              	.LASF130:
 1843 0106 474E5520 		.ascii	"GNU C11 7.2.1 20170904 (release) [ARM/embedded-7-br"
 1843      43313120 
 1843      372E322E 
 1843      31203230 
 1843      31373039 
 1844 0139 616E6368 		.ascii	"anch revision 255204] -mcpu=cortex-m4 -mfloat-abi=h"
 1844      20726576 
 1844      6973696F 
 1844      6E203235 
 1844      35323034 
 1845 016c 61726420 		.ascii	"ard -mfpu=fpv4-sp-d16 -mno-thumb-interwork -mthumb "
 1845      2D6D6670 
 1845      753D6670 
 1845      76342D73 
 1845      702D6431 
 1846 019f 2D676764 		.ascii	"-ggdb -O0 -fomit-frame-pointer -falign-functions=16"
 1846      62202D4F 
 1846      30202D66 
 1846      6F6D6974 
 1846      2D667261 
 1847 01d2 202D666E 		.ascii	" -fno-strict-aliasing -fstack-protector-all -ffunct"
 1847      6F2D7374 
 1847      72696374 
 1847      2D616C69 
 1847      6173696E 
 1848 0205 696F6E2D 		.ascii	"ion-sections -fdata-sections -fno-common -fsingle-p"
 1848      73656374 
 1848      696F6E73 
 1848      202D6664 
 1848      6174612D 
 1849 0238 72656369 		.ascii	"recision-constant\000"
 1849      73696F6E 
 1849      2D636F6E 
 1849      7374616E 
 1849      7400
 1850              	.LASF54:
 1851 024a 5F666C61 		.ascii	"_flags\000"
 1851      677300
 1852              	.LASF46:
 1853 0251 5F69735F 		.ascii	"_is_cxa\000"
 1853      63786100 
 1854              	.LASF72:
 1855 0259 5F737464 		.ascii	"_stdin\000"
ARM GAS  C:\Users\PCHAUT~1\AppData\Local\Temp\ccHcO4nD.s 			page 35


 1855      696E00
 1856              	.LASF64:
 1857 0260 5F626C6B 		.ascii	"_blksize\000"
 1857      73697A65 
 1857      00
 1858              	.LASF86:
 1859 0269 5F637674 		.ascii	"_cvtbuf\000"
 1859      62756600 
 1860              	.LASF65:
 1861 0271 5F6F6666 		.ascii	"_offset\000"
 1861      73657400 
 1862              	.LASF115:
 1863 0279 5F6D6273 		.ascii	"_mbsrtowcs_state\000"
 1863      72746F77 
 1863      63735F73 
 1863      74617465 
 1863      00
 1864              	.LASF113:
 1865 028a 5F6D6272 		.ascii	"_mbrlen_state\000"
 1865      6C656E5F 
 1865      73746174 
 1865      6500
 1866              	.LASF43:
 1867 0298 5F666E61 		.ascii	"_fnargs\000"
 1867      72677300 
 1868              	.LASF49:
 1869 02a0 5F666E73 		.ascii	"_fns\000"
 1869      00
 1870              	.LASF6:
 1871 02a5 5F5F7569 		.ascii	"__uint32_t\000"
 1871      6E743332 
 1871      5F7400
 1872              	.LASF29:
 1873 02b0 5F736967 		.ascii	"_sign\000"
 1873      6E00
 1874              	.LASF24:
 1875 02b6 5F666C6F 		.ascii	"_flock_t\000"
 1875      636B5F74 
 1875      00
 1876              	.LASF74:
 1877 02bf 5F737464 		.ascii	"_stderr\000"
 1877      65727200 
 1878              	.LASF31:
 1879 02c7 5F426967 		.ascii	"_Bigint\000"
 1879      696E7400 
 1880              	.LASF104:
 1881 02cf 5F67616D 		.ascii	"_gamma_signgam\000"
 1881      6D615F73 
 1881      69676E67 
 1881      616D00
 1882              	.LASF58:
 1883 02de 5F726561 		.ascii	"_read\000"
 1883      6400
 1884              	.LASF82:
 1885 02e4 5F726573 		.ascii	"_result_k\000"
 1885      756C745F 
 1885      6B00
ARM GAS  C:\Users\PCHAUT~1\AppData\Local\Temp\ccHcO4nD.s 			page 36


 1886              	.LASF32:
 1887 02ee 5F5F746D 		.ascii	"__tm\000"
 1887      00
 1888              	.LASF10:
 1889 02f3 756E7369 		.ascii	"unsigned int\000"
 1889      676E6564 
 1889      20696E74 
 1889      00
 1890              	.LASF20:
 1891 0300 5F5F7763 		.ascii	"__wchb\000"
 1891      686200
 1892              	.LASF73:
 1893 0307 5F737464 		.ascii	"_stdout\000"
 1893      6F757400 
 1894              	.LASF85:
 1895 030f 5F637674 		.ascii	"_cvtlen\000"
 1895      6C656E00 
 1896              	.LASF7:
 1897 0317 6C6F6E67 		.ascii	"long unsigned int\000"
 1897      20756E73 
 1897      69676E65 
 1897      6420696E 
 1897      7400
 1898              	.LASF55:
 1899 0329 5F66696C 		.ascii	"_file\000"
 1899      6500
 1900              	.LASF131:
 1901 032f 2E2E2F6C 		.ascii	"../lib/e-puck2_main-processor/src/crc/crc32.c\000"
 1901      69622F65 
 1901      2D707563 
 1901      6B325F6D 
 1901      61696E2D 
 1902              	.LASF94:
 1903 035d 5F6E696F 		.ascii	"_niobs\000"
 1903      627300
 1904              	.LASF128:
 1905 0364 64617461 		.ascii	"data\000"
 1905      00
 1906              	.LASF3:
 1907 0369 73686F72 		.ascii	"short unsigned int\000"
 1907      7420756E 
 1907      7369676E 
 1907      65642069 
 1907      6E7400
 1908              	.LASF88:
 1909 037c 5F617465 		.ascii	"_atexit0\000"
 1909      78697430 
 1909      00
 1910              	.LASF111:
 1911 0385 5F736967 		.ascii	"_signal_buf\000"
 1911      6E616C5F 
 1911      62756600 
 1912              	.LASF102:
 1913 0391 5F617363 		.ascii	"_asctime_buf\000"
 1913      74696D65 
 1913      5F627566 
 1913      00
ARM GAS  C:\Users\PCHAUT~1\AppData\Local\Temp\ccHcO4nD.s 			page 37


 1914              	.LASF81:
 1915 039e 5F726573 		.ascii	"_result\000"
 1915      756C7400 
 1916              	.LASF19:
 1917 03a6 5F5F7763 		.ascii	"__wch\000"
 1917      6800
 1918              	.LASF15:
 1919 03ac 5F4C4F43 		.ascii	"_LOCK_T\000"
 1919      4B5F5400 
 1920              	.LASF18:
 1921 03b4 77696E74 		.ascii	"wint_t\000"
 1921      5F7400
 1922              	.LASF67:
 1923 03bb 5F6C6F63 		.ascii	"_lock\000"
 1923      6B00
 1924              	.LASF69:
 1925 03c1 5F666C61 		.ascii	"_flags2\000"
 1925      67733200 
 1926              	.LASF59:
 1927 03c9 5F777269 		.ascii	"_write\000"
 1927      746500
 1928              	.LASF38:
 1929 03d0 5F5F746D 		.ascii	"__tm_year\000"
 1929      5F796561 
 1929      7200
 1930              	.LASF120:
 1931 03da 5F6E6D61 		.ascii	"_nmalloc\000"
 1931      6C6C6F63 
 1931      00
 1932              	.LASF14:
 1933 03e3 6C6F6E67 		.ascii	"long double\000"
 1933      20646F75 
 1933      626C6500 
 1934              	.LASF119:
 1935 03ef 5F6E6578 		.ascii	"_nextf\000"
 1935      746600
 1936              	.LASF37:
 1937 03f6 5F5F746D 		.ascii	"__tm_mon\000"
 1937      5F6D6F6E 
 1937      00
 1938              	.LASF47:
 1939 03ff 5F617465 		.ascii	"_atexit\000"
 1939      78697400 
 1940              	.LASF126:
 1941 0407 7375626F 		.ascii	"suboptarg\000"
 1941      70746172 
 1941      6700
 1942              	.LASF79:
 1943 0411 5F5F7364 		.ascii	"__sdidinit\000"
 1943      6964696E 
 1943      697400
 1944              	.LASF16:
 1945 041c 5F6F6666 		.ascii	"_off_t\000"
 1945      5F7400
 1946              	.LASF84:
 1947 0423 5F667265 		.ascii	"_freelist\000"
 1947      656C6973 
ARM GAS  C:\Users\PCHAUT~1\AppData\Local\Temp\ccHcO4nD.s 			page 38


 1947      7400
 1948              	.LASF109:
 1949 042d 5F776374 		.ascii	"_wctomb_state\000"
 1949      6F6D625F 
 1949      73746174 
 1949      6500
 1950              	.LASF1:
 1951 043b 756E7369 		.ascii	"unsigned char\000"
 1951      676E6564 
 1951      20636861 
 1951      7200
 1952              	.LASF87:
 1953 0449 5F6E6577 		.ascii	"_new\000"
 1953      00
 1954              	.LASF118:
 1955 044e 5F685F65 		.ascii	"_h_errno\000"
 1955      72726E6F 
 1955      00
 1956              	.LASF2:
 1957 0457 73686F72 		.ascii	"short int\000"
 1957      7420696E 
 1957      7400
 1958              	.LASF40:
 1959 0461 5F5F746D 		.ascii	"__tm_yday\000"
 1959      5F796461 
 1959      7900
 1960              	.LASF50:
 1961 046b 5F5F7362 		.ascii	"__sbuf\000"
 1961      756600
 1962              	.LASF95:
 1963 0472 5F696F62 		.ascii	"_iobs\000"
 1963      7300
 1964              	.LASF92:
 1965 0478 5F5F4649 		.ascii	"__FILE\000"
 1965      4C4500
 1966              	.LASF23:
 1967 047f 5F6D6273 		.ascii	"_mbstate_t\000"
 1967      74617465 
 1967      5F7400
 1968              	.LASF53:
 1969 048a 5F5F7346 		.ascii	"__sFILE\000"
 1969      494C4500 
 1970              	.LASF68:
 1971 0492 5F6D6273 		.ascii	"_mbstate\000"
 1971      74617465 
 1971      00
 1972              	.LASF105:
 1973 049b 5F72616E 		.ascii	"_rand_next\000"
 1973      645F6E65 
 1973      787400
 1974              	.LASF107:
 1975 04a6 5F6D626C 		.ascii	"_mblen_state\000"
 1975      656E5F73 
 1975      74617465 
 1975      00
 1976              	.LASF75:
 1977 04b3 5F696E63 		.ascii	"_inc\000"
ARM GAS  C:\Users\PCHAUT~1\AppData\Local\Temp\ccHcO4nD.s 			page 39


 1977      00
 1978              	.LASF48:
 1979 04b8 5F696E64 		.ascii	"_ind\000"
 1979      00
 1980              	.LASF132:
 1981 04bd 433A5C55 		.ascii	"C:\\Users\\Pchautems\\Documents\\RobotiqueTP\\Proje"
 1981      73657273 
 1981      5C506368 
 1981      61757465 
 1981      6D735C44 
 1982 04eb 745C6D69 		.ascii	"t\\miniprojet\000"
 1982      6E697072 
 1982      6F6A6574 
 1982      00
 1983              	.LASF78:
 1984 04f8 5F6C6F63 		.ascii	"_locale\000"
 1984      616C6500 
 1985              	.LASF80:
 1986 0500 5F5F636C 		.ascii	"__cleanup\000"
 1986      65616E75 
 1986      7000
 1987              	.LASF77:
 1988 050a 5F756E73 		.ascii	"_unspecified_locale_info\000"
 1988      70656369 
 1988      66696564 
 1988      5F6C6F63 
 1988      616C655F 
 1989              	.LASF28:
 1990 0523 5F6D6178 		.ascii	"_maxwds\000"
 1990      77647300 
 1991              	.LASF70:
 1992 052b 5F726565 		.ascii	"_reent\000"
 1992      6E7400
 1993              	.LASF97:
 1994 0532 5F736565 		.ascii	"_seed\000"
 1994      6400
 1995              	.LASF21:
 1996 0538 5F5F636F 		.ascii	"__count\000"
 1996      756E7400 
 1997              	.LASF122:
 1998 0540 5F5F6C6F 		.ascii	"__lock\000"
 1998      636B00
 1999              	.LASF12:
 2000 0547 75696E74 		.ascii	"uint32_t\000"
 2000      33325F74 
 2000      00
 2001              	.LASF60:
 2002 0550 5F736565 		.ascii	"_seek\000"
 2002      6B00
 2003              	.LASF124:
 2004 0556 5F696D70 		.ascii	"_impure_ptr\000"
 2004      7572655F 
 2004      70747200 
 2005              	.LASF17:
 2006 0562 5F66706F 		.ascii	"_fpos_t\000"
 2006      735F7400 
 2007              	.LASF129:
ARM GAS  C:\Users\PCHAUT~1\AppData\Local\Temp\ccHcO4nD.s 			page 40


 2008 056a 6C656E67 		.ascii	"length\000"
 2008      746800
 2009              	.LASF71:
 2010 0571 5F657272 		.ascii	"_errno\000"
 2010      6E6F00
 2011              	.LASF25:
 2012 0578 63686172 		.ascii	"char\000"
 2012      00
 2013              	.LASF34:
 2014 057d 5F5F746D 		.ascii	"__tm_min\000"
 2014      5F6D696E 
 2014      00
 2015              	.LASF98:
 2016 0586 5F6D756C 		.ascii	"_mult\000"
 2016      7400
 2017              	.LASF27:
 2018 058c 5F6E6578 		.ascii	"_next\000"
 2018      7400
 2019              	.LASF101:
 2020 0592 5F737472 		.ascii	"_strtok_last\000"
 2020      746F6B5F 
 2020      6C617374 
 2020      00
 2021              	.LASF22:
 2022 059f 5F5F7661 		.ascii	"__value\000"
 2022      6C756500 
 2023              	.LASF45:
 2024 05a7 5F666E74 		.ascii	"_fntypes\000"
 2024      79706573 
 2024      00
 2025              	.LASF99:
 2026 05b0 5F616464 		.ascii	"_add\000"
 2026      00
 2027              	.LASF26:
 2028 05b5 5F5F554C 		.ascii	"__ULong\000"
 2028      6F6E6700 
 2029              	.LASF112:
 2030 05bd 5F676574 		.ascii	"_getdate_err\000"
 2030      64617465 
 2030      5F657272 
 2030      00
 2031              	.LASF125:
 2032 05ca 5F676C6F 		.ascii	"_global_impure_ptr\000"
 2032      62616C5F 
 2032      696D7075 
 2032      72655F70 
 2032      747200
 2033              	.LASF100:
 2034 05dd 5F756E75 		.ascii	"_unused_rand\000"
 2034      7365645F 
 2034      72616E64 
 2034      00
 2035              	.LASF30:
 2036 05ea 5F776473 		.ascii	"_wds\000"
 2036      00
 2037              	.LASF39:
 2038 05ef 5F5F746D 		.ascii	"__tm_wday\000"
ARM GAS  C:\Users\PCHAUT~1\AppData\Local\Temp\ccHcO4nD.s 			page 41


 2038      5F776461 
 2038      7900
 2039              	.LASF93:
 2040 05f9 5F676C75 		.ascii	"_glue\000"
 2040      6500
 2041              	.LASF11:
 2042 05ff 75696E74 		.ascii	"uint8_t\000"
 2042      385F7400 
 2043              	.LASF110:
 2044 0607 5F6C3634 		.ascii	"_l64a_buf\000"
 2044      615F6275 
 2044      6600
 2045              	.LASF89:
 2046 0611 5F736967 		.ascii	"_sig_func\000"
 2046      5F66756E 
 2046      6300
 2047              	.LASF63:
 2048 061b 5F6E6275 		.ascii	"_nbuf\000"
 2048      6600
 2049              	.LASF121:
 2050 0621 5F756E75 		.ascii	"_unused\000"
 2050      73656400 
 2051              	.LASF41:
 2052 0629 5F5F746D 		.ascii	"__tm_isdst\000"
 2052      5F697364 
 2052      737400
 2053              	.LASF103:
 2054 0634 5F6C6F63 		.ascii	"_localtime_buf\000"
 2054      616C7469 
 2054      6D655F62 
 2054      756600
 2055              	.LASF61:
 2056 0643 5F636C6F 		.ascii	"_close\000"
 2056      736500
 2057              	.LASF106:
 2058 064a 5F723438 		.ascii	"_r48\000"
 2058      00
 2059              	.LASF108:
 2060 064f 5F6D6274 		.ascii	"_mbtowc_state\000"
 2060      6F77635F 
 2060      73746174 
 2060      6500
 2061              	.LASF83:
 2062 065d 5F703573 		.ascii	"_p5s\000"
 2062      00
 2063              	.LASF36:
 2064 0662 5F5F746D 		.ascii	"__tm_mday\000"
 2064      5F6D6461 
 2064      7900
 2065              		.ident	"GCC: (GNU Tools for Arm Embedded Processors 7-2017-q4-major) 7.2.1 20170904 (release) [ARM
ARM GAS  C:\Users\PCHAUT~1\AppData\Local\Temp\ccHcO4nD.s 			page 42


DEFINED SYMBOLS
                            *ABS*:00000000 crc32.c
C:\Users\PCHAUT~1\AppData\Local\Temp\ccHcO4nD.s:18     .text.crc32:00000000 $t
C:\Users\PCHAUT~1\AppData\Local\Temp\ccHcO4nD.s:26     .text.crc32:00000000 crc32
C:\Users\PCHAUT~1\AppData\Local\Temp\ccHcO4nD.s:129    .text.crc32:0000008c $d

UNDEFINED SYMBOLS
__stack_chk_fail
__stack_chk_guard
