ARM GAS  C:\Users\PCHAUT~1\AppData\Local\Temp\ccTnEpBt.s 			page 1


   1              		.cpu cortex-m4
   2              		.eabi_attribute 27, 1
   3              		.eabi_attribute 28, 1
   4              		.eabi_attribute 20, 1
   5              		.eabi_attribute 21, 1
   6              		.eabi_attribute 23, 3
   7              		.eabi_attribute 24, 1
   8              		.eabi_attribute 25, 1
   9              		.eabi_attribute 26, 1
  10              		.eabi_attribute 30, 6
  11              		.eabi_attribute 34, 1
  12              		.eabi_attribute 18, 4
  13              		.file	"crt1.c"
  14              		.text
  15              	.Ltext0:
  16              		.cfi_sections	.debug_frame
  17              		.section	.text.__early_init,"ax",%progbits
  18              		.align	1
  19              		.p2align 4,,15
  20              		.weak	__early_init
  21              		.syntax unified
  22              		.thumb
  23              		.thumb_func
  24              		.fpu fpv4-sp-d16
  25              		.type	__early_init, %function
  26              	__early_init:
  27              	.LFB0:
  28              		.file 1 "../lib/e-puck2_main-processor/ChibiOS//os/common/ports/ARMCMx/compilers/GCC/crt1.c"
  29              		.loc 1 41 0
  30              		.cfi_startproc
  31              		@ args = 0, pretend = 0, frame = 8
  32              		@ frame_needed = 0, uses_anonymous_args = 0
  33 0000 00B5     		push	{lr}
  34              		.cfi_def_cfa_offset 4
  35              		.cfi_offset 14, -4
  36 0002 83B0     		sub	sp, sp, #12
  37              		.cfi_def_cfa_offset 16
  38              		.loc 1 41 0
  39 0004 064B     		ldr	r3, .L3
  40 0006 1B68     		ldr	r3, [r3]
  41 0008 0193     		str	r3, [sp, #4]
  42 000a 00BF     		nop
  43 000c 044B     		ldr	r3, .L3
  44 000e 019A     		ldr	r2, [sp, #4]
  45 0010 1B68     		ldr	r3, [r3]
  46 0012 9A42     		cmp	r2, r3
  47 0014 01D0     		beq	.L2
  48 0016 FFF7FEFF 		bl	__stack_chk_fail
  49              	.L2:
  50 001a 03B0     		add	sp, sp, #12
  51              		.cfi_def_cfa_offset 4
  52              		@ sp needed
  53 001c 5DF804FB 		ldr	pc, [sp], #4
  54              	.L4:
  55              		.align	2
  56              	.L3:
  57 0020 00000000 		.word	__stack_chk_guard
ARM GAS  C:\Users\PCHAUT~1\AppData\Local\Temp\ccTnEpBt.s 			page 2


  58              		.cfi_endproc
  59              	.LFE0:
  60              		.size	__early_init, .-__early_init
  61              		.section	.text.__late_init,"ax",%progbits
  62              		.align	1
  63              		.p2align 4,,15
  64              		.weak	__late_init
  65              		.syntax unified
  66              		.thumb
  67              		.thumb_func
  68              		.fpu fpv4-sp-d16
  69              		.type	__late_init, %function
  70              	__late_init:
  71              	.LFB1:
  72              		.loc 1 55 0
  73              		.cfi_startproc
  74              		@ args = 0, pretend = 0, frame = 8
  75              		@ frame_needed = 0, uses_anonymous_args = 0
  76 0000 00B5     		push	{lr}
  77              		.cfi_def_cfa_offset 4
  78              		.cfi_offset 14, -4
  79 0002 83B0     		sub	sp, sp, #12
  80              		.cfi_def_cfa_offset 16
  81              		.loc 1 55 0
  82 0004 064B     		ldr	r3, .L7
  83 0006 1B68     		ldr	r3, [r3]
  84 0008 0193     		str	r3, [sp, #4]
  85 000a 00BF     		nop
  86 000c 044B     		ldr	r3, .L7
  87 000e 019A     		ldr	r2, [sp, #4]
  88 0010 1B68     		ldr	r3, [r3]
  89 0012 9A42     		cmp	r2, r3
  90 0014 01D0     		beq	.L6
  91 0016 FFF7FEFF 		bl	__stack_chk_fail
  92              	.L6:
  93 001a 03B0     		add	sp, sp, #12
  94              		.cfi_def_cfa_offset 4
  95              		@ sp needed
  96 001c 5DF804FB 		ldr	pc, [sp], #4
  97              	.L8:
  98              		.align	2
  99              	.L7:
 100 0020 00000000 		.word	__stack_chk_guard
 101              		.cfi_endproc
 102              	.LFE1:
 103              		.size	__late_init, .-__late_init
 104              		.section	.text.__default_exit,"ax",%progbits
 105              		.align	1
 106              		.p2align 4,,15
 107              		.weak	__default_exit
 108              		.syntax unified
 109              		.thumb
 110              		.thumb_func
 111              		.fpu fpv4-sp-d16
 112              		.type	__default_exit, %function
 113              	__default_exit:
 114              	.LFB2:
ARM GAS  C:\Users\PCHAUT~1\AppData\Local\Temp\ccTnEpBt.s 			page 3


 115              		.loc 1 68 0
 116              		.cfi_startproc
 117              		@ args = 0, pretend = 0, frame = 8
 118              		@ frame_needed = 0, uses_anonymous_args = 0
 119              		@ link register save eliminated.
 120 0000 82B0     		sub	sp, sp, #8
 121              		.cfi_def_cfa_offset 8
 122              		.loc 1 68 0
 123 0002 024B     		ldr	r3, .L12
 124 0004 1B68     		ldr	r3, [r3]
 125 0006 0193     		str	r3, [sp, #4]
 126              	.L10:
 127              		.loc 1 71 0 discriminator 1
 128 0008 FEE7     		b	.L10
 129              	.L13:
 130 000a 00BF     		.align	2
 131              	.L12:
 132 000c 00000000 		.word	__stack_chk_guard
 133              		.cfi_endproc
 134              	.LFE2:
 135              		.size	__default_exit, .-__default_exit
 136              		.text
 137              	.Letext0: