ARM GAS  C:\Users\PCHAUT~1\AppData\Local\Temp\ccTnEpBt.s 			page 1


   1              		.cpu cortex-m4
   2              		.eabi_attribute 27, 1
   3              		.eabi_attribute 28, 1
   4              		.eabi_attribute 20, 1
   5              		.eabi_attribute 21, 1
   6              		.eabi_attribute 23, 3
   7              		.eabi_attribute 24, 1
   8              		.eabi_attribute 25, 1
   9              		.eabi_attribute 26, 1
  10              		.eabi_attribute 30, 6
  11              		.eabi_attribute 34, 1
  12              		.eabi_attribute 18, 4
  13              		.file	"crt1.c"
  14              		.text
  15              	.Ltext0:
  16              		.cfi_sections	.debug_frame
  17              		.section	.text.__early_init,"ax",%progbits
  18              		.align	1
  19              		.p2align 4,,15
  20              		.weak	__early_init
  21              		.syntax unified
  22              		.thumb
  23              		.thumb_func
  24              		.fpu fpv4-sp-d16
  25              		.type	__early_init, %function
  26              	__early_init:
  27              	.LFB0:
  28              		.file 1 "../lib/e-puck2_main-processor/ChibiOS//os/common/ports/ARMCMx/compilers/GCC/crt1.c"
  29              		.loc 1 41 0
  30              		.cfi_startproc
  31              		@ args = 0, pretend = 0, frame = 8
  32              		@ frame_needed = 0, uses_anonymous_args = 0
  33 0000 00B5     		push	{lr}
  34              		.cfi_def_cfa_offset 4
  35              		.cfi_offset 14, -4
  36 0002 83B0     		sub	sp, sp, #12
  37              		.cfi_def_cfa_offset 16
  38              		.loc 1 41 0
  39 0004 064B     		ldr	r3, .L3
  40 0006 1B68     		ldr	r3, [r3]
  41 0008 0193     		str	r3, [sp, #4]
  42 000a 00BF     		nop
  43 000c 044B     		ldr	r3, .L3
  44 000e 019A     		ldr	r2, [sp, #4]
  45 0010 1B68     		ldr	r3, [r3]
  46 0012 9A42     		cmp	r2, r3
  47 0014 01D0     		beq	.L2
  48 0016 FFF7FEFF 		bl	__stack_chk_fail
  49              	.L2:
  50 001a 03B0     		add	sp, sp, #12
  51              		.cfi_def_cfa_offset 4
  52              		@ sp needed
  53 001c 5DF804FB 		ldr	pc, [sp], #4
  54              	.L4:
  55              		.align	2
  56              	.L3:
  57 0020 00000000 		.word	__stack_chk_guard
ARM GAS  C:\Users\PCHAUT~1\AppData\Local\Temp\ccTnEpBt.s 			page 2


  58              		.cfi_endproc
  59              	.LFE0:
  60              		.size	__early_init, .-__early_init
  61              		.section	.text.__late_init,"ax",%progbits
  62              		.align	1
  63              		.p2align 4,,15
  64              		.weak	__late_init
  65              		.syntax unified
  66              		.thumb
  67              		.thumb_func
  68              		.fpu fpv4-sp-d16
  69              		.type	__late_init, %function
  70              	__late_init:
  71              	.LFB1:
  72              		.loc 1 55 0
  73              		.cfi_startproc
  74              		@ args = 0, pretend = 0, frame = 8
  75              		@ frame_needed = 0, uses_anonymous_args = 0
  76 0000 00B5     		push	{lr}
  77              		.cfi_def_cfa_offset 4
  78              		.cfi_offset 14, -4
  79 0002 83B0     		sub	sp, sp, #12
  80              		.cfi_def_cfa_offset 16
  81              		.loc 1 55 0
  82 0004 064B     		ldr	r3, .L7
  83 0006 1B68     		ldr	r3, [r3]
  84 0008 0193     		str	r3, [sp, #4]
  85 000a 00BF     		nop
  86 000c 044B     		ldr	r3, .L7
  87 000e 019A     		ldr	r2, [sp, #4]
  88 0010 1B68     		ldr	r3, [r3]
  89 0012 9A42     		cmp	r2, r3
  90 0014 01D0     		beq	.L6
  91 0016 FFF7FEFF 		bl	__stack_chk_fail
  92              	.L6:
  93 001a 03B0     		add	sp, sp, #12
  94              		.cfi_def_cfa_offset 4
  95              		@ sp needed
  96 001c 5DF804FB 		ldr	pc, [sp], #4
  97              	.L8:
  98              		.align	2
  99              	.L7:
 100 0020 00000000 		.word	__stack_chk_guard
 101              		.cfi_endproc
 102              	.LFE1:
 103              		.size	__late_init, .-__late_init
 104              		.section	.text.__default_exit,"ax",%progbits
 105              		.align	1
 106              		.p2align 4,,15
 107              		.weak	__default_exit
 108              		.syntax unified
 109              		.thumb
 110              		.thumb_func
 111              		.fpu fpv4-sp-d16
 112              		.type	__default_exit, %function
 113              	__default_exit:
 114              	.LFB2:
ARM GAS  C:\Users\PCHAUT~1\AppData\Local\Temp\ccTnEpBt.s 			page 3


 115              		.loc 1 68 0
 116              		.cfi_startproc
 117              		@ args = 0, pretend = 0, frame = 8
 118              		@ frame_needed = 0, uses_anonymous_args = 0
 119              		@ link register save eliminated.
 120 0000 82B0     		sub	sp, sp, #8
 121              		.cfi_def_cfa_offset 8
 122              		.loc 1 68 0
 123 0002 024B     		ldr	r3, .L12
 124 0004 1B68     		ldr	r3, [r3]
 125 0006 0193     		str	r3, [sp, #4]
 126              	.L10:
 127              		.loc 1 71 0 discriminator 1
 128 0008 FEE7     		b	.L10
 129              	.L13:
 130 000a 00BF     		.align	2
 131              	.L12:
 132 000c 00000000 		.word	__stack_chk_guard
 133              		.cfi_endproc
 134              	.LFE2:
 135              		.size	__default_exit, .-__default_exit
 136              		.text
 137              	.Letext0:
 138              		.section	.debug_info,"",%progbits
 139              	.Ldebug_info0:
 140 0000 55000000 		.4byte	0x55
 141 0004 0400     		.2byte	0x4
 142 0006 00000000 		.4byte	.Ldebug_abbrev0
 143 000a 04       		.byte	0x4
 144 000b 01       		.uleb128 0x1
 145 000c 00000000 		.4byte	.LASF2
 146 0010 0C       		.byte	0xc
 147 0011 98010000 		.4byte	.LASF3
 148 0015 44010000 		.4byte	.LASF4
 149 0019 00000000 		.4byte	.Ldebug_ranges0+0
 150 001d 00000000 		.4byte	0
 151 0021 00000000 		.4byte	.Ldebug_line0
 152 0025 02       		.uleb128 0x2
 153 0026 EB010000 		.4byte	.LASF5
 154 002a 01       		.byte	0x1
 155 002b 44       		.byte	0x44
 156 002c 00000000 		.4byte	.LFB2
 157 0030 10000000 		.4byte	.LFE2-.LFB2
 158 0034 01       		.uleb128 0x1
 159 0035 9C       		.byte	0x9c
 160 0036 03       		.uleb128 0x3
 161 0037 8C010000 		.4byte	.LASF0
 162 003b 01       		.byte	0x1
 163 003c 37       		.byte	0x37
 164 003d 00000000 		.4byte	.LFB1
 165 0041 24000000 		.4byte	.LFE1-.LFB1
 166 0045 01       		.uleb128 0x1
 167 0046 9C       		.byte	0x9c
 168 0047 03       		.uleb128 0x3
 169 0048 7F010000 		.4byte	.LASF1
 170 004c 01       		.byte	0x1
 171 004d 29       		.byte	0x29
ARM GAS  C:\Users\PCHAUT~1\AppData\Local\Temp\ccTnEpBt.s 			page 4


 172 004e 00000000 		.4byte	.LFB0
 173 0052 24000000 		.4byte	.LFE0-.LFB0
 174 0056 01       		.uleb128 0x1
 175 0057 9C       		.byte	0x9c
 176 0058 00       		.byte	0
 177              		.section	.debug_abbrev,"",%progbits
 178              	.Ldebug_abbrev0:
 179 0000 01       		.uleb128 0x1
 180 0001 11       		.uleb128 0x11
 181 0002 01       		.byte	0x1
 182 0003 25       		.uleb128 0x25
 183 0004 0E       		.uleb128 0xe
 184 0005 13       		.uleb128 0x13
 185 0006 0B       		.uleb128 0xb
 186 0007 03       		.uleb128 0x3
 187 0008 0E       		.uleb128 0xe
 188 0009 1B       		.uleb128 0x1b
 189 000a 0E       		.uleb128 0xe
 190 000b 55       		.uleb128 0x55
 191 000c 17       		.uleb128 0x17
 192 000d 11       		.uleb128 0x11
 193 000e 01       		.uleb128 0x1
 194 000f 10       		.uleb128 0x10
 195 0010 17       		.uleb128 0x17
 196 0011 00       		.byte	0
 197 0012 00       		.byte	0
 198 0013 02       		.uleb128 0x2
 199 0014 2E       		.uleb128 0x2e
 200 0015 00       		.byte	0
 201 0016 3F       		.uleb128 0x3f
 202 0017 19       		.uleb128 0x19
 203 0018 03       		.uleb128 0x3
 204 0019 0E       		.uleb128 0xe
 205 001a 3A       		.uleb128 0x3a
 206 001b 0B       		.uleb128 0xb
 207 001c 3B       		.uleb128 0x3b
 208 001d 0B       		.uleb128 0xb
 209 001e 27       		.uleb128 0x27
 210 001f 19       		.uleb128 0x19
 211 0020 8701     		.uleb128 0x87
 212 0022 19       		.uleb128 0x19
 213 0023 11       		.uleb128 0x11
 214 0024 01       		.uleb128 0x1
 215 0025 12       		.uleb128 0x12
 216 0026 06       		.uleb128 0x6
 217 0027 40       		.uleb128 0x40
 218 0028 18       		.uleb128 0x18
 219 0029 9742     		.uleb128 0x2117
 220 002b 19       		.uleb128 0x19
 221 002c 00       		.byte	0
 222 002d 00       		.byte	0
 223 002e 03       		.uleb128 0x3
 224 002f 2E       		.uleb128 0x2e
 225 0030 00       		.byte	0
 226 0031 3F       		.uleb128 0x3f
 227 0032 19       		.uleb128 0x19
 228 0033 03       		.uleb128 0x3
ARM GAS  C:\Users\PCHAUT~1\AppData\Local\Temp\ccTnEpBt.s 			page 5


 229 0034 0E       		.uleb128 0xe
 230 0035 3A       		.uleb128 0x3a
 231 0036 0B       		.uleb128 0xb
 232 0037 3B       		.uleb128 0x3b
 233 0038 0B       		.uleb128 0xb
 234 0039 27       		.uleb128 0x27
 235 003a 19       		.uleb128 0x19
 236 003b 11       		.uleb128 0x11
 237 003c 01       		.uleb128 0x1
 238 003d 12       		.uleb128 0x12
 239 003e 06       		.uleb128 0x6
 240 003f 40       		.uleb128 0x40
 241 0040 18       		.uleb128 0x18
 242 0041 9642     		.uleb128 0x2116
 243 0043 19       		.uleb128 0x19
 244 0044 00       		.byte	0
 245 0045 00       		.byte	0
 246 0046 00       		.byte	0
 247              		.section	.debug_aranges,"",%progbits
 248 0000 2C000000 		.4byte	0x2c
 249 0004 0200     		.2byte	0x2
 250 0006 00000000 		.4byte	.Ldebug_info0
 251 000a 04       		.byte	0x4
 252 000b 00       		.byte	0
 253 000c 0000     		.2byte	0
 254 000e 0000     		.2byte	0
 255 0010 00000000 		.4byte	.LFB0
 256 0014 24000000 		.4byte	.LFE0-.LFB0
 257 0018 00000000 		.4byte	.LFB1
 258 001c 24000000 		.4byte	.LFE1-.LFB1
 259 0020 00000000 		.4byte	.LFB2
 260 0024 10000000 		.4byte	.LFE2-.LFB2
 261 0028 00000000 		.4byte	0
 262 002c 00000000 		.4byte	0
 263              		.section	.debug_ranges,"",%progbits
 264              	.Ldebug_ranges0:
 265 0000 00000000 		.4byte	.LFB0
 266 0004 24000000 		.4byte	.LFE0
 267 0008 00000000 		.4byte	.LFB1
 268 000c 24000000 		.4byte	.LFE1
 269 0010 00000000 		.4byte	.LFB2
 270 0014 10000000 		.4byte	.LFE2
 271 0018 00000000 		.4byte	0
 272 001c 00000000 		.4byte	0
 273              		.section	.debug_line,"",%progbits
 274              	.Ldebug_line0:
 275 0000 A5000000 		.section	.debug_str,"MS",%progbits,1
 275      02006900 
 275      00000201 
 275      FB0E0D00 
 275      01010101 
 276              	.LASF2:
 277 0000 474E5520 		.ascii	"GNU C11 7.2.1 20170904 (release) [ARM/embedded-7-br"
 277      43313120 
 277      372E322E 
 277      31203230 
 277      31373039 
ARM GAS  C:\Users\PCHAUT~1\AppData\Local\Temp\ccTnEpBt.s 			page 6


 278 0033 616E6368 		.ascii	"anch revision 255204] -mcpu=cortex-m4 -mfloat-abi=h"
 278      20726576 
 278      6973696F 
 278      6E203235 
 278      35323034 
 279 0066 61726420 		.ascii	"ard -mfpu=fpv4-sp-d16 -mno-thumb-interwork -mthumb "
 279      2D6D6670 
 279      753D6670 
 279      76342D73 
 279      702D6431 
 280 0099 2D676764 		.ascii	"-ggdb -O0 -fomit-frame-pointer -falign-functions=16"
 280      62202D4F 
 280      30202D66 
 280      6F6D6974 
 280      2D667261 
 281 00cc 202D666E 		.ascii	" -fno-strict-aliasing -fstack-protector-all -ffunct"
 281      6F2D7374 
 281      72696374 
 281      2D616C69 
 281      6173696E 
 282 00ff 696F6E2D 		.ascii	"ion-sections -fdata-sections -fno-common -fsingle-p"
 282      73656374 
 282      696F6E73 
 282      202D6664 
 282      6174612D 
 283 0132 72656369 		.ascii	"recision-constant\000"
 283      73696F6E 
 283      2D636F6E 
 283      7374616E 
 283      7400
 284              	.LASF4:
 285 0144 433A5C55 		.ascii	"C:\\Users\\Pchautems\\Documents\\RobotiqueTP\\Proje"
 285      73657273 
 285      5C506368 
 285      61757465 
 285      6D735C44 
 286 0172 745C6D69 		.ascii	"t\\miniprojet\000"
 286      6E697072 
 286      6F6A6574 
 286      00
 287              	.LASF1:
 288 017f 5F5F6561 		.ascii	"__early_init\000"
 288      726C795F 
 288      696E6974 
 288      00
 289              	.LASF0:
 290 018c 5F5F6C61 		.ascii	"__late_init\000"
 290      74655F69 
 290      6E697400 
 291              	.LASF3:
 292 0198 2E2E2F6C 		.ascii	"../lib/e-puck2_main-processor/ChibiOS//os/common/po"
 292      69622F65 
 292      2D707563 
 292      6B325F6D 
 292      61696E2D 
 293 01cb 7274732F 		.ascii	"rts/ARMCMx/compilers/GCC/crt1.c\000"
 293      41524D43 
ARM GAS  C:\Users\PCHAUT~1\AppData\Local\Temp\ccTnEpBt.s 			page 7


 293      4D782F63 
 293      6F6D7069 
 293      6C657273 
 294              	.LASF5:
 295 01eb 5F5F6465 		.ascii	"__default_exit\000"
 295      6661756C 
 295      745F6578 
 295      697400
 296              		.ident	"GCC: (GNU Tools for Arm Embedded Processors 7-2017-q4-major) 7.2.1 20170904 (release) [ARM
ARM GAS  C:\Users\PCHAUT~1\AppData\Local\Temp\ccTnEpBt.s 			page 8


DEFINED SYMBOLS
                            *ABS*:00000000 crt1.c
C:\Users\PCHAUT~1\AppData\Local\Temp\ccTnEpBt.s:18     .text.__early_init:00000000 $t
C:\Users\PCHAUT~1\AppData\Local\Temp\ccTnEpBt.s:26     .text.__early_init:00000000 __early_init
C:\Users\PCHAUT~1\AppData\Local\Temp\ccTnEpBt.s:57     .text.__early_init:00000020 $d
C:\Users\PCHAUT~1\AppData\Local\Temp\ccTnEpBt.s:62     .text.__late_init:00000000 $t
C:\Users\PCHAUT~1\AppData\Local\Temp\ccTnEpBt.s:70     .text.__late_init:00000000 __late_init
C:\Users\PCHAUT~1\AppData\Local\Temp\ccTnEpBt.s:100    .text.__late_init:00000020 $d
C:\Users\PCHAUT~1\AppData\Local\Temp\ccTnEpBt.s:105    .text.__default_exit:00000000 $t
C:\Users\PCHAUT~1\AppData\Local\Temp\ccTnEpBt.s:113    .text.__default_exit:00000000 __default_exit
C:\Users\PCHAUT~1\AppData\Local\Temp\ccTnEpBt.s:132    .text.__default_exit:0000000c $d

UNDEFINED SYMBOLS
__stack_chk_fail
__stack_chk_guard
