ARM GAS  C:\Users\PCHAUT~1\AppData\Local\Temp\cc0TBtca.s 			page 1


   1              		.cpu cortex-m4
   2              		.eabi_attribute 27, 1
   3              		.eabi_attribute 28, 1
   4              		.eabi_attribute 20, 1
   5              		.eabi_attribute 21, 1
   6              		.eabi_attribute 23, 3
   7              		.eabi_attribute 24, 1
   8              		.eabi_attribute 25, 1
   9              		.eabi_attribute 26, 1
  10              		.eabi_attribute 30, 6
  11              		.eabi_attribute 34, 1
  12              		.eabi_attribute 18, 4
  13              		.file	"dac_lld.c"
  14              		.text
  15              	.Ltext0:
  16              		.cfi_sections	.debug_frame
  17              		.section	.text.port_lock,"ax",%progbits
  18              		.align	1
  19              		.p2align 4,,15
  20              		.syntax unified
  21              		.thumb
  22              		.thumb_func
  23              		.fpu fpv4-sp-d16
  24              		.type	port_lock, %function
  25              	port_lock:
  26              	.LFB116:
  27              		.file 1 "../lib/e-puck2_main-processor/ChibiOS//os/rt/ports/ARMCMx/chcore_v7m.h"
  28              		.loc 1 444 0
  29              		.cfi_startproc
  30              		@ args = 0, pretend = 0, frame = 8
  31              		@ frame_needed = 0, uses_anonymous_args = 0
  32 0000 00B5     		push	{lr}
  33              		.cfi_def_cfa_offset 4
  34              		.cfi_offset 14, -4
  35 0002 83B0     		sub	sp, sp, #12
  36              		.cfi_def_cfa_offset 16
  37              		.loc 1 444 0
  38 0004 094B     		ldr	r3, .L3
  39 0006 1B68     		ldr	r3, [r3]
  40 0008 0193     		str	r3, [sp, #4]
  41 000a 2023     		movs	r3, #32
  42 000c 0093     		str	r3, [sp]
  43              	.LBB6:
  44              	.LBB7:
  45              		.file 2 "../lib/e-puck2_main-processor/ChibiOS//os/ext/CMSIS/include/core_cmFunc.h"
  46              		.loc 2 546 0
  47 000e 009B     		ldr	r3, [sp]
  48              		.syntax unified
  49              	@ 546 "../lib/e-puck2_main-processor/ChibiOS//os/ext/CMSIS/include/core_cmFunc.h" 1
  50 0010 83F31188 		MSR basepri, r3
  51              	@ 0 "" 2
  52              		.thumb
  53              		.syntax unified
  54              	.LBE7:
  55              	.LBE6:
  56              		.loc 1 451 0
  57 0014 00BF     		nop
ARM GAS  C:\Users\PCHAUT~1\AppData\Local\Temp\cc0TBtca.s 			page 2


  58 0016 054B     		ldr	r3, .L3
  59 0018 019A     		ldr	r2, [sp, #4]
  60 001a 1B68     		ldr	r3, [r3]
  61 001c 9A42     		cmp	r2, r3
  62 001e 01D0     		beq	.L2
  63 0020 FFF7FEFF 		bl	__stack_chk_fail
  64              	.L2:
  65 0024 03B0     		add	sp, sp, #12
  66              		.cfi_def_cfa_offset 4
  67              		@ sp needed
  68 0026 5DF804FB 		ldr	pc, [sp], #4
  69              	.L4:
  70 002a 00BF     		.align	2
  71              	.L3:
  72 002c 00000000 		.word	__stack_chk_guard
  73              		.cfi_endproc
  74              	.LFE116:
  75              		.size	port_lock, .-port_lock
  76              		.section	.text.port_unlock,"ax",%progbits
  77              		.align	1
  78              		.p2align 4,,15
  79              		.syntax unified
  80              		.thumb
  81              		.thumb_func
  82              		.fpu fpv4-sp-d16
  83              		.type	port_unlock, %function
  84              	port_unlock:
  85              	.LFB117:
  86              		.loc 1 458 0
  87              		.cfi_startproc
  88              		@ args = 0, pretend = 0, frame = 8
  89              		@ frame_needed = 0, uses_anonymous_args = 0
  90 0000 00B5     		push	{lr}
  91              		.cfi_def_cfa_offset 4
  92              		.cfi_offset 14, -4
  93 0002 83B0     		sub	sp, sp, #12
  94              		.cfi_def_cfa_offset 16
  95              		.loc 1 458 0
  96 0004 094B     		ldr	r3, .L7
  97 0006 1B68     		ldr	r3, [r3]
  98 0008 0193     		str	r3, [sp, #4]
  99 000a 0023     		movs	r3, #0
 100 000c 0093     		str	r3, [sp]
 101              	.LBB8:
 102              	.LBB9:
 103              		.loc 2 546 0
 104 000e 009B     		ldr	r3, [sp]
 105              		.syntax unified
 106              	@ 546 "../lib/e-puck2_main-processor/ChibiOS//os/ext/CMSIS/include/core_cmFunc.h" 1
 107 0010 83F31188 		MSR basepri, r3
 108              	@ 0 "" 2
 109              		.thumb
 110              		.syntax unified
 111              	.LBE9:
 112              	.LBE8:
 113              		.loc 1 465 0
 114 0014 00BF     		nop
ARM GAS  C:\Users\PCHAUT~1\AppData\Local\Temp\cc0TBtca.s 			page 3


 115 0016 054B     		ldr	r3, .L7
 116 0018 019A     		ldr	r2, [sp, #4]
 117 001a 1B68     		ldr	r3, [r3]
 118 001c 9A42     		cmp	r2, r3
 119 001e 01D0     		beq	.L6
 120 0020 FFF7FEFF 		bl	__stack_chk_fail
 121              	.L6:
 122 0024 03B0     		add	sp, sp, #12
 123              		.cfi_def_cfa_offset 4
 124              		@ sp needed
 125 0026 5DF804FB 		ldr	pc, [sp], #4
 126              	.L8:
 127 002a 00BF     		.align	2
 128              	.L7:
 129 002c 00000000 		.word	__stack_chk_guard
 130              		.cfi_endproc
 131              	.LFE117:
 132              		.size	port_unlock, .-port_unlock
 133              		.section	.text.port_lock_from_isr,"ax",%progbits
 134              		.align	1
 135              		.p2align 4,,15
 136              		.syntax unified
 137              		.thumb
 138              		.thumb_func
 139              		.fpu fpv4-sp-d16
 140              		.type	port_lock_from_isr, %function
 141              	port_lock_from_isr:
 142              	.LFB118:
 143              		.loc 1 473 0
 144              		.cfi_startproc
 145              		@ args = 0, pretend = 0, frame = 8
 146              		@ frame_needed = 0, uses_anonymous_args = 0
 147 0000 00B5     		push	{lr}
 148              		.cfi_def_cfa_offset 4
 149              		.cfi_offset 14, -4
 150 0002 83B0     		sub	sp, sp, #12
 151              		.cfi_def_cfa_offset 16
 152              		.loc 1 473 0
 153 0004 074B     		ldr	r3, .L11
 154 0006 1B68     		ldr	r3, [r3]
 155 0008 0193     		str	r3, [sp, #4]
 156              		.loc 1 475 0
 157 000a FFF7FEFF 		bl	port_lock
 158              		.loc 1 476 0
 159 000e 00BF     		nop
 160 0010 044B     		ldr	r3, .L11
 161 0012 019A     		ldr	r2, [sp, #4]
 162 0014 1B68     		ldr	r3, [r3]
 163 0016 9A42     		cmp	r2, r3
 164 0018 01D0     		beq	.L10
 165 001a FFF7FEFF 		bl	__stack_chk_fail
 166              	.L10:
 167 001e 03B0     		add	sp, sp, #12
 168              		.cfi_def_cfa_offset 4
 169              		@ sp needed
 170 0020 5DF804FB 		ldr	pc, [sp], #4
 171              	.L12:
ARM GAS  C:\Users\PCHAUT~1\AppData\Local\Temp\cc0TBtca.s 			page 4


 172              		.align	2
 173              	.L11:
 174 0024 00000000 		.word	__stack_chk_guard
 175              		.cfi_endproc
 176              	.LFE118:
 177              		.size	port_lock_from_isr, .-port_lock_from_isr
 178              		.section	.text.port_unlock_from_isr,"ax",%progbits
 179              		.align	1
 180              		.p2align 4,,15
 181              		.syntax unified
 182              		.thumb
 183              		.thumb_func
 184              		.fpu fpv4-sp-d16
 185              		.type	port_unlock_from_isr, %function
 186              	port_unlock_from_isr:
 187              	.LFB119:
 188              		.loc 1 484 0
 189              		.cfi_startproc
 190              		@ args = 0, pretend = 0, frame = 8
 191              		@ frame_needed = 0, uses_anonymous_args = 0
 192 0000 00B5     		push	{lr}
 193              		.cfi_def_cfa_offset 4
 194              		.cfi_offset 14, -4
 195 0002 83B0     		sub	sp, sp, #12
 196              		.cfi_def_cfa_offset 16
 197              		.loc 1 484 0
 198 0004 074B     		ldr	r3, .L15
 199 0006 1B68     		ldr	r3, [r3]
 200 0008 0193     		str	r3, [sp, #4]
 201              		.loc 1 486 0
 202 000a FFF7FEFF 		bl	port_unlock
 203              		.loc 1 487 0
 204 000e 00BF     		nop
 205 0010 044B     		ldr	r3, .L15
 206 0012 019A     		ldr	r2, [sp, #4]
 207 0014 1B68     		ldr	r3, [r3]
 208 0016 9A42     		cmp	r2, r3
 209 0018 01D0     		beq	.L14
 210 001a FFF7FEFF 		bl	__stack_chk_fail
 211              	.L14:
 212 001e 03B0     		add	sp, sp, #12
 213              		.cfi_def_cfa_offset 4
 214              		@ sp needed
 215 0020 5DF804FB 		ldr	pc, [sp], #4
 216              	.L16:
 217              		.align	2
 218              	.L15:
 219 0024 00000000 		.word	__stack_chk_guard
 220              		.cfi_endproc
 221              	.LFE119:
 222              		.size	port_unlock_from_isr, .-port_unlock_from_isr
 223              		.section	.text.chSysLockFromISR,"ax",%progbits
 224              		.align	1
 225              		.p2align 4,,15
 226              		.syntax unified
 227              		.thumb
 228              		.thumb_func
ARM GAS  C:\Users\PCHAUT~1\AppData\Local\Temp\cc0TBtca.s 			page 5


 229              		.fpu fpv4-sp-d16
 230              		.type	chSysLockFromISR, %function
 231              	chSysLockFromISR:
 232              	.LFB147:
 233              		.file 3 "../lib/e-puck2_main-processor/ChibiOS//os/rt/include/chsys.h"
 234              		.loc 3 386 0
 235              		.cfi_startproc
 236              		@ args = 0, pretend = 0, frame = 8
 237              		@ frame_needed = 0, uses_anonymous_args = 0
 238 0000 00B5     		push	{lr}
 239              		.cfi_def_cfa_offset 4
 240              		.cfi_offset 14, -4
 241 0002 83B0     		sub	sp, sp, #12
 242              		.cfi_def_cfa_offset 16
 243              		.loc 3 386 0
 244 0004 094B     		ldr	r3, .L19
 245 0006 1B68     		ldr	r3, [r3]
 246 0008 0193     		str	r3, [sp, #4]
 247              		.loc 3 388 0
 248 000a FFF7FEFF 		bl	port_lock_from_isr
 249              		.loc 3 389 0
 250 000e FFF7FEFF 		bl	_stats_start_measure_crit_isr
 251              		.loc 3 390 0
 252 0012 FFF7FEFF 		bl	_dbg_check_lock_from_isr
 253              		.loc 3 391 0
 254 0016 00BF     		nop
 255 0018 044B     		ldr	r3, .L19
 256 001a 019A     		ldr	r2, [sp, #4]
 257 001c 1B68     		ldr	r3, [r3]
 258 001e 9A42     		cmp	r2, r3
 259 0020 01D0     		beq	.L18
 260 0022 FFF7FEFF 		bl	__stack_chk_fail
 261              	.L18:
 262 0026 03B0     		add	sp, sp, #12
 263              		.cfi_def_cfa_offset 4
 264              		@ sp needed
 265 0028 5DF804FB 		ldr	pc, [sp], #4
 266              	.L20:
 267              		.align	2
 268              	.L19:
 269 002c 00000000 		.word	__stack_chk_guard
 270              		.cfi_endproc
 271              	.LFE147:
 272              		.size	chSysLockFromISR, .-chSysLockFromISR
 273              		.section	.text.chSysUnlockFromISR,"ax",%progbits
 274              		.align	1
 275              		.p2align 4,,15
 276              		.syntax unified
 277              		.thumb
 278              		.thumb_func
 279              		.fpu fpv4-sp-d16
 280              		.type	chSysUnlockFromISR, %function
 281              	chSysUnlockFromISR:
 282              	.LFB148:
 283              		.loc 3 406 0
 284              		.cfi_startproc
 285              		@ args = 0, pretend = 0, frame = 8
ARM GAS  C:\Users\PCHAUT~1\AppData\Local\Temp\cc0TBtca.s 			page 6


 286              		@ frame_needed = 0, uses_anonymous_args = 0
 287 0000 00B5     		push	{lr}
 288              		.cfi_def_cfa_offset 4
 289              		.cfi_offset 14, -4
 290 0002 83B0     		sub	sp, sp, #12
 291              		.cfi_def_cfa_offset 16
 292              		.loc 3 406 0
 293 0004 094B     		ldr	r3, .L23
 294 0006 1B68     		ldr	r3, [r3]
 295 0008 0193     		str	r3, [sp, #4]
 296              		.loc 3 408 0
 297 000a FFF7FEFF 		bl	_dbg_check_unlock_from_isr
 298              		.loc 3 409 0
 299 000e FFF7FEFF 		bl	_stats_stop_measure_crit_isr
 300              		.loc 3 410 0
 301 0012 FFF7FEFF 		bl	port_unlock_from_isr
 302              		.loc 3 411 0
 303 0016 00BF     		nop
 304 0018 044B     		ldr	r3, .L23
 305 001a 019A     		ldr	r2, [sp, #4]
 306 001c 1B68     		ldr	r3, [r3]
 307 001e 9A42     		cmp	r2, r3
 308 0020 01D0     		beq	.L22
 309 0022 FFF7FEFF 		bl	__stack_chk_fail
 310              	.L22:
 311 0026 03B0     		add	sp, sp, #12
 312              		.cfi_def_cfa_offset 4
 313              		@ sp needed
 314 0028 5DF804FB 		ldr	pc, [sp], #4
 315              	.L24:
 316              		.align	2
 317              	.L23:
 318 002c 00000000 		.word	__stack_chk_guard
 319              		.cfi_endproc
 320              	.LFE148:
 321              		.size	chSysUnlockFromISR, .-chSysUnlockFromISR
 322              		.section	.text.osalSysLockFromISR,"ax",%progbits
 323              		.align	1
 324              		.p2align 4,,15
 325              		.syntax unified
 326              		.thumb
 327              		.thumb_func
 328              		.fpu fpv4-sp-d16
 329              		.type	osalSysLockFromISR, %function
 330              	osalSysLockFromISR:
 331              	.LFB225:
 332              		.file 4 "../lib/e-puck2_main-processor/ChibiOS//os/hal/osal/rt/osal.h"
 333              		.loc 4 467 0
 334              		.cfi_startproc
 335              		@ args = 0, pretend = 0, frame = 8
 336              		@ frame_needed = 0, uses_anonymous_args = 0
 337 0000 00B5     		push	{lr}
 338              		.cfi_def_cfa_offset 4
 339              		.cfi_offset 14, -4
 340 0002 83B0     		sub	sp, sp, #12
 341              		.cfi_def_cfa_offset 16
 342              		.loc 4 467 0
ARM GAS  C:\Users\PCHAUT~1\AppData\Local\Temp\cc0TBtca.s 			page 7


 343 0004 074B     		ldr	r3, .L27
 344 0006 1B68     		ldr	r3, [r3]
 345 0008 0193     		str	r3, [sp, #4]
 346              		.loc 4 469 0
 347 000a FFF7FEFF 		bl	chSysLockFromISR
 348              		.loc 4 470 0
 349 000e 00BF     		nop
 350 0010 044B     		ldr	r3, .L27
 351 0012 019A     		ldr	r2, [sp, #4]
 352 0014 1B68     		ldr	r3, [r3]
 353 0016 9A42     		cmp	r2, r3
 354 0018 01D0     		beq	.L26
 355 001a FFF7FEFF 		bl	__stack_chk_fail
 356              	.L26:
 357 001e 03B0     		add	sp, sp, #12
 358              		.cfi_def_cfa_offset 4
 359              		@ sp needed
 360 0020 5DF804FB 		ldr	pc, [sp], #4
 361              	.L28:
 362              		.align	2
 363              	.L27:
 364 0024 00000000 		.word	__stack_chk_guard
 365              		.cfi_endproc
 366              	.LFE225:
 367              		.size	osalSysLockFromISR, .-osalSysLockFromISR
 368              		.section	.text.osalSysUnlockFromISR,"ax",%progbits
 369              		.align	1
 370              		.p2align 4,,15
 371              		.syntax unified
 372              		.thumb
 373              		.thumb_func
 374              		.fpu fpv4-sp-d16
 375              		.type	osalSysUnlockFromISR, %function
 376              	osalSysUnlockFromISR:
 377              	.LFB226:
 378              		.loc 4 478 0
 379              		.cfi_startproc
 380              		@ args = 0, pretend = 0, frame = 8
 381              		@ frame_needed = 0, uses_anonymous_args = 0
 382 0000 00B5     		push	{lr}
 383              		.cfi_def_cfa_offset 4
 384              		.cfi_offset 14, -4
 385 0002 83B0     		sub	sp, sp, #12
 386              		.cfi_def_cfa_offset 16
 387              		.loc 4 478 0
 388 0004 074B     		ldr	r3, .L31
 389 0006 1B68     		ldr	r3, [r3]
 390 0008 0193     		str	r3, [sp, #4]
 391              		.loc 4 480 0
 392 000a FFF7FEFF 		bl	chSysUnlockFromISR
 393              		.loc 4 481 0
 394 000e 00BF     		nop
 395 0010 044B     		ldr	r3, .L31
 396 0012 019A     		ldr	r2, [sp, #4]
 397 0014 1B68     		ldr	r3, [r3]
 398 0016 9A42     		cmp	r2, r3
 399 0018 01D0     		beq	.L30
ARM GAS  C:\Users\PCHAUT~1\AppData\Local\Temp\cc0TBtca.s 			page 8


 400 001a FFF7FEFF 		bl	__stack_chk_fail
 401              	.L30:
 402 001e 03B0     		add	sp, sp, #12
 403              		.cfi_def_cfa_offset 4
 404              		@ sp needed
 405 0020 5DF804FB 		ldr	pc, [sp], #4
 406              	.L32:
 407              		.align	2
 408              	.L31:
 409 0024 00000000 		.word	__stack_chk_guard
 410              		.cfi_endproc
 411              	.LFE226:
 412              		.size	osalSysUnlockFromISR, .-osalSysUnlockFromISR
 413              		.section	.text.osalThreadResumeI,"ax",%progbits
 414              		.align	1
 415              		.p2align 4,,15
 416              		.syntax unified
 417              		.thumb
 418              		.thumb_func
 419              		.fpu fpv4-sp-d16
 420              		.type	osalThreadResumeI, %function
 421              	osalThreadResumeI:
 422              	.LFB238:
 423              		.loc 4 680 0
 424              		.cfi_startproc
 425              		@ args = 0, pretend = 0, frame = 16
 426              		@ frame_needed = 0, uses_anonymous_args = 0
 427 0000 00B5     		push	{lr}
 428              		.cfi_def_cfa_offset 4
 429              		.cfi_offset 14, -4
 430 0002 85B0     		sub	sp, sp, #20
 431              		.cfi_def_cfa_offset 24
 432 0004 0190     		str	r0, [sp, #4]
 433 0006 0091     		str	r1, [sp]
 434              		.loc 4 680 0
 435 0008 084B     		ldr	r3, .L35
 436 000a 1B68     		ldr	r3, [r3]
 437 000c 0393     		str	r3, [sp, #12]
 438              		.loc 4 682 0
 439 000e 0099     		ldr	r1, [sp]
 440 0010 0198     		ldr	r0, [sp, #4]
 441 0012 FFF7FEFF 		bl	chThdResumeI
 442              		.loc 4 683 0
 443 0016 00BF     		nop
 444 0018 044B     		ldr	r3, .L35
 445 001a 039A     		ldr	r2, [sp, #12]
 446 001c 1B68     		ldr	r3, [r3]
 447 001e 9A42     		cmp	r2, r3
 448 0020 01D0     		beq	.L34
 449 0022 FFF7FEFF 		bl	__stack_chk_fail
 450              	.L34:
 451 0026 05B0     		add	sp, sp, #20
 452              		.cfi_def_cfa_offset 4
 453              		@ sp needed
 454 0028 5DF804FB 		ldr	pc, [sp], #4
 455              	.L36:
 456              		.align	2
ARM GAS  C:\Users\PCHAUT~1\AppData\Local\Temp\cc0TBtca.s 			page 9


 457              	.L35:
 458 002c 00000000 		.word	__stack_chk_guard
 459              		.cfi_endproc
 460              	.LFE238:
 461              		.size	osalThreadResumeI, .-osalThreadResumeI
 462              		.global	DACD2
 463              		.section	.bss.DACD2,"aw",%nobits
 464              		.align	2
 465              		.type	DACD2, %object
 466              		.size	DACD2, 48
 467              	DACD2:
 468 0000 00000000 		.space	48
 468      00000000 
 468      00000000 
 468      00000000 
 468      00000000 
 469              		.section	.rodata.dma1_ch2_params,"a",%progbits
 470              		.align	2
 471              		.type	dma1_ch2_params, %object
 472              		.size	dma1_ch2_params, 28
 473              	dma1_ch2_params:
 474 0000 00740040 		.word	1073771520
 475 0004 03000000 		.word	3
 476 0008 10000000 		.word	16
 477 000c FFFF0000 		.word	65535
 478 0010 48000000 		.word	_stm32_dma_streams+72
 479 0014 5E05020E 		.word	235013470
 480 0018 0A000000 		.word	10
 481              		.section	.text.dac_lld_serve_tx_interrupt,"ax",%progbits
 482              		.align	1
 483              		.p2align 4,,15
 484              		.syntax unified
 485              		.thumb
 486              		.thumb_func
 487              		.fpu fpv4-sp-d16
 488              		.type	dac_lld_serve_tx_interrupt, %function
 489              	dac_lld_serve_tx_interrupt:
 490              	.LFB256:
 491              		.file 5 "../lib/e-puck2_main-processor/ChibiOS//os/hal/ports/STM32/LLD/DACv1/dac_lld.c"
 492              		.loc 5 158 0
 493              		.cfi_startproc
 494              		@ args = 0, pretend = 0, frame = 24
 495              		@ frame_needed = 0, uses_anonymous_args = 0
 496 0000 00B5     		push	{lr}
 497              		.cfi_def_cfa_offset 4
 498              		.cfi_offset 14, -4
 499 0002 87B0     		sub	sp, sp, #28
 500              		.cfi_def_cfa_offset 32
 501 0004 0190     		str	r0, [sp, #4]
 502 0006 0091     		str	r1, [sp]
 503              		.loc 5 158 0
 504 0008 3E4B     		ldr	r3, .L45
 505 000a 1B68     		ldr	r3, [r3]
 506 000c 0593     		str	r3, [sp, #20]
 507              		.loc 5 160 0
 508 000e 009B     		ldr	r3, [sp]
 509 0010 03F00C03 		and	r3, r3, #12
ARM GAS  C:\Users\PCHAUT~1\AppData\Local\Temp\cc0TBtca.s 			page 10


 510 0014 002B     		cmp	r3, #0
 511 0016 26D0     		beq	.L38
 512              		.loc 5 162 0
 513 0018 0198     		ldr	r0, [sp, #4]
 514 001a FFF7FEFF 		bl	dac_lld_stop_conversion
 515 001e 019B     		ldr	r3, [sp, #4]
 516 0020 5B68     		ldr	r3, [r3, #4]
 517 0022 9B68     		ldr	r3, [r3, #8]
 518 0024 002B     		cmp	r3, #0
 519 0026 0FD0     		beq	.L39
 520              		.loc 5 162 0 is_stmt 0 discriminator 1
 521 0028 019B     		ldr	r3, [sp, #4]
 522 002a 0522     		movs	r2, #5
 523 002c 1A70     		strb	r2, [r3]
 524 002e 019B     		ldr	r3, [sp, #4]
 525 0030 5B68     		ldr	r3, [r3, #4]
 526 0032 9B68     		ldr	r3, [r3, #8]
 527 0034 0021     		movs	r1, #0
 528 0036 0198     		ldr	r0, [sp, #4]
 529 0038 9847     		blx	r3
 530              	.LVL0:
 531 003a 019B     		ldr	r3, [sp, #4]
 532 003c 1B78     		ldrb	r3, [r3]	@ zero_extendqisi2
 533 003e 052B     		cmp	r3, #5
 534 0040 02D1     		bne	.L39
 535              		.loc 5 162 0 discriminator 3
 536 0042 019B     		ldr	r3, [sp, #4]
 537 0044 0222     		movs	r2, #2
 538 0046 1A70     		strb	r2, [r3]
 539              	.L39:
 540              		.loc 5 162 0 discriminator 5
 541 0048 019B     		ldr	r3, [sp, #4]
 542 004a 0022     		movs	r2, #0
 543 004c 5A60     		str	r2, [r3, #4]
 544 004e FFF7FEFF 		bl	osalSysLockFromISR
 545 0052 019B     		ldr	r3, [sp, #4]
 546 0054 1433     		adds	r3, r3, #20
 547 0056 4FF0FF31 		mov	r1, #-1
 548 005a 1846     		mov	r0, r3
 549 005c FFF7FEFF 		bl	osalThreadResumeI
 550 0060 FFF7FEFF 		bl	osalSysUnlockFromISR
 551              		.loc 5 174 0 is_stmt 1 discriminator 5
 552 0064 43E0     		b	.L44
 553              	.L38:
 554              		.loc 5 165 0
 555 0066 009B     		ldr	r3, [sp]
 556 0068 03F01003 		and	r3, r3, #16
 557 006c 002B     		cmp	r3, #0
 558 006e 0FD0     		beq	.L41
 559              		.loc 5 167 0
 560 0070 019B     		ldr	r3, [sp, #4]
 561 0072 5B68     		ldr	r3, [r3, #4]
 562 0074 5B68     		ldr	r3, [r3, #4]
 563 0076 002B     		cmp	r3, #0
 564 0078 0AD0     		beq	.L41
 565              		.loc 5 167 0 is_stmt 0 discriminator 1
 566 007a 019B     		ldr	r3, [sp, #4]
ARM GAS  C:\Users\PCHAUT~1\AppData\Local\Temp\cc0TBtca.s 			page 11


 567 007c 5B68     		ldr	r3, [r3, #4]
 568 007e 5B68     		ldr	r3, [r3, #4]
 569 0080 019A     		ldr	r2, [sp, #4]
 570 0082 9168     		ldr	r1, [r2, #8]
 571 0084 019A     		ldr	r2, [sp, #4]
 572 0086 9289     		ldrh	r2, [r2, #12]
 573 0088 5208     		lsrs	r2, r2, #1
 574 008a 92B2     		uxth	r2, r2
 575 008c 0198     		ldr	r0, [sp, #4]
 576 008e 9847     		blx	r3
 577              	.LVL1:
 578              	.L41:
 579              		.loc 5 169 0 is_stmt 1
 580 0090 009B     		ldr	r3, [sp]
 581 0092 03F02003 		and	r3, r3, #32
 582 0096 002B     		cmp	r3, #0
 583 0098 29D0     		beq	.L44
 584              		.loc 5 171 0
 585 009a 019B     		ldr	r3, [sp, #4]
 586 009c 5B68     		ldr	r3, [r3, #4]
 587 009e 5B68     		ldr	r3, [r3, #4]
 588 00a0 002B     		cmp	r3, #0
 589 00a2 24D0     		beq	.L44
 590              		.loc 5 171 0 is_stmt 0 discriminator 1
 591 00a4 019B     		ldr	r3, [sp, #4]
 592 00a6 9B89     		ldrh	r3, [r3, #12]
 593 00a8 012B     		cmp	r3, #1
 594 00aa 17D9     		bls	.L42
 595              	.LBB10:
 596              		.loc 5 171 0 discriminator 2
 597 00ac 019B     		ldr	r3, [sp, #4]
 598 00ae 9B89     		ldrh	r3, [r3, #12]
 599 00b0 5B08     		lsrs	r3, r3, #1
 600 00b2 9BB2     		uxth	r3, r3
 601 00b4 0393     		str	r3, [sp, #12]
 602 00b6 019B     		ldr	r3, [sp, #4]
 603 00b8 5B68     		ldr	r3, [r3, #4]
 604 00ba 1A68     		ldr	r2, [r3]
 605 00bc 039B     		ldr	r3, [sp, #12]
 606 00be 02FB03F3 		mul	r3, r2, r3
 607 00c2 0493     		str	r3, [sp, #16]
 608 00c4 019B     		ldr	r3, [sp, #4]
 609 00c6 5B68     		ldr	r3, [r3, #4]
 610 00c8 5B68     		ldr	r3, [r3, #4]
 611 00ca 019A     		ldr	r2, [sp, #4]
 612 00cc 9168     		ldr	r1, [r2, #8]
 613 00ce 049A     		ldr	r2, [sp, #16]
 614 00d0 5200     		lsls	r2, r2, #1
 615 00d2 1144     		add	r1, r1, r2
 616 00d4 039A     		ldr	r2, [sp, #12]
 617 00d6 0198     		ldr	r0, [sp, #4]
 618 00d8 9847     		blx	r3
 619              	.LVL2:
 620              	.LBE10:
 621              		.loc 5 174 0 is_stmt 1 discriminator 2
 622 00da 08E0     		b	.L44
 623              	.L42:
ARM GAS  C:\Users\PCHAUT~1\AppData\Local\Temp\cc0TBtca.s 			page 12


 624              		.loc 5 171 0 discriminator 3
 625 00dc 019B     		ldr	r3, [sp, #4]
 626 00de 5B68     		ldr	r3, [r3, #4]
 627 00e0 5B68     		ldr	r3, [r3, #4]
 628 00e2 019A     		ldr	r2, [sp, #4]
 629 00e4 9168     		ldr	r1, [r2, #8]
 630 00e6 019A     		ldr	r2, [sp, #4]
 631 00e8 9289     		ldrh	r2, [r2, #12]
 632 00ea 0198     		ldr	r0, [sp, #4]
 633 00ec 9847     		blx	r3
 634              	.LVL3:
 635              	.L44:
 636              		.loc 5 174 0
 637 00ee 00BF     		nop
 638 00f0 044B     		ldr	r3, .L45
 639 00f2 059A     		ldr	r2, [sp, #20]
 640 00f4 1B68     		ldr	r3, [r3]
 641 00f6 9A42     		cmp	r2, r3
 642 00f8 01D0     		beq	.L43
 643 00fa FFF7FEFF 		bl	__stack_chk_fail
 644              	.L43:
 645 00fe 07B0     		add	sp, sp, #28
 646              		.cfi_def_cfa_offset 4
 647              		@ sp needed
 648 0100 5DF804FB 		ldr	pc, [sp], #4
 649              	.L46:
 650              		.align	2
 651              	.L45:
 652 0104 00000000 		.word	__stack_chk_guard
 653              		.cfi_endproc
 654              	.LFE256:
 655              		.size	dac_lld_serve_tx_interrupt, .-dac_lld_serve_tx_interrupt
 656              		.section	.text.dac_lld_init,"ax",%progbits
 657              		.align	1
 658              		.p2align 4,,15
 659              		.global	dac_lld_init
 660              		.syntax unified
 661              		.thumb
 662              		.thumb_func
 663              		.fpu fpv4-sp-d16
 664              		.type	dac_lld_init, %function
 665              	dac_lld_init:
 666              	.LFB257:
 667              		.loc 5 189 0
 668              		.cfi_startproc
 669              		@ args = 0, pretend = 0, frame = 8
 670              		@ frame_needed = 0, uses_anonymous_args = 0
 671 0000 00B5     		push	{lr}
 672              		.cfi_def_cfa_offset 4
 673              		.cfi_offset 14, -4
 674 0002 83B0     		sub	sp, sp, #12
 675              		.cfi_def_cfa_offset 16
 676              		.loc 5 189 0
 677 0004 094B     		ldr	r3, .L49
 678 0006 1B68     		ldr	r3, [r3]
 679 0008 0193     		str	r3, [sp, #4]
 680              		.loc 5 197 0
ARM GAS  C:\Users\PCHAUT~1\AppData\Local\Temp\cc0TBtca.s 			page 13


 681 000a 0948     		ldr	r0, .L49+4
 682 000c FFF7FEFF 		bl	dacObjectInit
 683              		.loc 5 198 0
 684 0010 074B     		ldr	r3, .L49+4
 685 0012 084A     		ldr	r2, .L49+8
 686 0014 DA62     		str	r2, [r3, #44]
 687              		.loc 5 210 0
 688 0016 00BF     		nop
 689 0018 044B     		ldr	r3, .L49
 690 001a 019A     		ldr	r2, [sp, #4]
 691 001c 1B68     		ldr	r3, [r3]
 692 001e 9A42     		cmp	r2, r3
 693 0020 01D0     		beq	.L48
 694 0022 FFF7FEFF 		bl	__stack_chk_fail
 695              	.L48:
 696 0026 03B0     		add	sp, sp, #12
 697              		.cfi_def_cfa_offset 4
 698              		@ sp needed
 699 0028 5DF804FB 		ldr	pc, [sp], #4
 700              	.L50:
 701              		.align	2
 702              	.L49:
 703 002c 00000000 		.word	__stack_chk_guard
 704 0030 00000000 		.word	DACD2
 705 0034 00000000 		.word	dma1_ch2_params
 706              		.cfi_endproc
 707              	.LFE257:
 708              		.size	dac_lld_init, .-dac_lld_init
 709              		.section	.text.dac_lld_start,"ax",%progbits
 710              		.align	1
 711              		.p2align 4,,15
 712              		.global	dac_lld_start
 713              		.syntax unified
 714              		.thumb
 715              		.thumb_func
 716              		.fpu fpv4-sp-d16
 717              		.type	dac_lld_start, %function
 718              	dac_lld_start:
 719              	.LFB258:
 720              		.loc 5 219 0
 721              		.cfi_startproc
 722              		@ args = 0, pretend = 0, frame = 16
 723              		@ frame_needed = 0, uses_anonymous_args = 0
 724 0000 00B5     		push	{lr}
 725              		.cfi_def_cfa_offset 4
 726              		.cfi_offset 14, -4
 727 0002 85B0     		sub	sp, sp, #20
 728              		.cfi_def_cfa_offset 24
 729 0004 0190     		str	r0, [sp, #4]
 730              		.loc 5 219 0
 731 0006 1F4B     		ldr	r3, .L56
 732 0008 1B68     		ldr	r3, [r3]
 733 000a 0393     		str	r3, [sp, #12]
 734              		.loc 5 223 0
 735 000c 019B     		ldr	r3, [sp, #4]
 736 000e 1B78     		ldrb	r3, [r3]	@ zero_extendqisi2
 737 0010 012B     		cmp	r3, #1
ARM GAS  C:\Users\PCHAUT~1\AppData\Local\Temp\cc0TBtca.s 			page 14


 738 0012 2BD1     		bne	.L55
 739              		.loc 5 232 0
 740 0014 019B     		ldr	r3, [sp, #4]
 741 0016 1C4A     		ldr	r2, .L56+4
 742 0018 9342     		cmp	r3, r2
 743 001a 05D1     		bne	.L53
 744              		.loc 5 233 0
 745 001c 1B4B     		ldr	r3, .L56+8
 746 001e 1B6C     		ldr	r3, [r3, #64]
 747 0020 1A4A     		ldr	r2, .L56+8
 748 0022 43F00053 		orr	r3, r3, #536870912
 749 0026 1364     		str	r3, [r2, #64]
 750              	.L53:
 751              		.loc 5 252 0
 752 0028 019B     		ldr	r3, [sp, #4]
 753 002a DB6A     		ldr	r3, [r3, #44]
 754 002c 1B68     		ldr	r3, [r3]
 755 002e 1968     		ldr	r1, [r3]
 756 0030 019B     		ldr	r3, [sp, #4]
 757 0032 DB6A     		ldr	r3, [r3, #44]
 758 0034 DA68     		ldr	r2, [r3, #12]
 759 0036 019B     		ldr	r3, [sp, #4]
 760 0038 DB6A     		ldr	r3, [r3, #44]
 761 003a 1B68     		ldr	r3, [r3]
 762 003c 0A40     		ands	r2, r2, r1
 763 003e 1A60     		str	r2, [r3]
 764              		.loc 5 253 0
 765 0040 019B     		ldr	r3, [sp, #4]
 766 0042 DB6A     		ldr	r3, [r3, #44]
 767 0044 1B68     		ldr	r3, [r3]
 768 0046 1968     		ldr	r1, [r3]
 769 0048 019B     		ldr	r3, [sp, #4]
 770 004a DB6A     		ldr	r3, [r3, #44]
 771 004c 9B68     		ldr	r3, [r3, #8]
 772 004e 0122     		movs	r2, #1
 773 0050 9A40     		lsls	r2, r2, r3
 774 0052 019B     		ldr	r3, [sp, #4]
 775 0054 DB6A     		ldr	r3, [r3, #44]
 776 0056 1B68     		ldr	r3, [r3]
 777 0058 0A43     		orrs	r2, r2, r1
 778 005a 1A60     		str	r2, [r3]
 779              		.loc 5 254 0
 780 005c 019B     		ldr	r3, [sp, #4]
 781 005e 1B69     		ldr	r3, [r3, #16]
 782 0060 1B88     		ldrh	r3, [r3]
 783 0062 1A46     		mov	r2, r3
 784 0064 0021     		movs	r1, #0
 785 0066 0198     		ldr	r0, [sp, #4]
 786 0068 FFF7FEFF 		bl	dac_lld_put_channel
 787              	.L55:
 788              		.loc 5 268 0
 789 006c 00BF     		nop
 790 006e 054B     		ldr	r3, .L56
 791 0070 039A     		ldr	r2, [sp, #12]
 792 0072 1B68     		ldr	r3, [r3]
 793 0074 9A42     		cmp	r2, r3
 794 0076 01D0     		beq	.L54
ARM GAS  C:\Users\PCHAUT~1\AppData\Local\Temp\cc0TBtca.s 			page 15


 795 0078 FFF7FEFF 		bl	__stack_chk_fail
 796              	.L54:
 797 007c 05B0     		add	sp, sp, #20
 798              		.cfi_def_cfa_offset 4
 799              		@ sp needed
 800 007e 5DF804FB 		ldr	pc, [sp], #4
 801              	.L57:
 802 0082 00BF     		.align	2
 803              	.L56:
 804 0084 00000000 		.word	__stack_chk_guard
 805 0088 00000000 		.word	DACD2
 806 008c 00380240 		.word	1073887232
 807              		.cfi_endproc
 808              	.LFE258:
 809              		.size	dac_lld_start, .-dac_lld_start
 810              		.section	.text.dac_lld_stop,"ax",%progbits
 811              		.align	1
 812              		.p2align 4,,15
 813              		.global	dac_lld_stop
 814              		.syntax unified
 815              		.thumb
 816              		.thumb_func
 817              		.fpu fpv4-sp-d16
 818              		.type	dac_lld_stop, %function
 819              	dac_lld_stop:
 820              	.LFB259:
 821              		.loc 5 277 0
 822              		.cfi_startproc
 823              		@ args = 0, pretend = 0, frame = 16
 824              		@ frame_needed = 0, uses_anonymous_args = 0
 825 0000 00B5     		push	{lr}
 826              		.cfi_def_cfa_offset 4
 827              		.cfi_offset 14, -4
 828 0002 85B0     		sub	sp, sp, #20
 829              		.cfi_def_cfa_offset 24
 830 0004 0190     		str	r0, [sp, #4]
 831              		.loc 5 277 0
 832 0006 184B     		ldr	r3, .L62
 833 0008 1B68     		ldr	r3, [r3]
 834 000a 0393     		str	r3, [sp, #12]
 835              		.loc 5 280 0
 836 000c 019B     		ldr	r3, [sp, #4]
 837 000e 1B78     		ldrb	r3, [r3]	@ zero_extendqisi2
 838 0010 022B     		cmp	r3, #2
 839 0012 1DD1     		bne	.L61
 840              		.loc 5 283 0
 841 0014 019B     		ldr	r3, [sp, #4]
 842 0016 DB6A     		ldr	r3, [r3, #44]
 843 0018 1B68     		ldr	r3, [r3]
 844 001a 1968     		ldr	r1, [r3]
 845 001c 019B     		ldr	r3, [sp, #4]
 846 001e DB6A     		ldr	r3, [r3, #44]
 847 0020 DA68     		ldr	r2, [r3, #12]
 848 0022 019B     		ldr	r3, [sp, #4]
 849 0024 DB6A     		ldr	r3, [r3, #44]
 850 0026 1B68     		ldr	r3, [r3]
 851 0028 0A40     		ands	r2, r2, r1
ARM GAS  C:\Users\PCHAUT~1\AppData\Local\Temp\cc0TBtca.s 			page 16


 852 002a 1A60     		str	r2, [r3]
 853              		.loc 5 294 0
 854 002c 019B     		ldr	r3, [sp, #4]
 855 002e 0F4A     		ldr	r2, .L62+4
 856 0030 9342     		cmp	r3, r2
 857 0032 0DD1     		bne	.L61
 858              		.loc 5 295 0
 859 0034 019B     		ldr	r3, [sp, #4]
 860 0036 DB6A     		ldr	r3, [r3, #44]
 861 0038 1B68     		ldr	r3, [r3]
 862 003a 1B68     		ldr	r3, [r3]
 863 003c 03F00103 		and	r3, r3, #1
 864 0040 002B     		cmp	r3, #0
 865 0042 05D1     		bne	.L61
 866              		.loc 5 296 0
 867 0044 0A4B     		ldr	r3, .L62+8
 868 0046 1B6C     		ldr	r3, [r3, #64]
 869 0048 094A     		ldr	r2, .L62+8
 870 004a 23F00053 		bic	r3, r3, #536870912
 871 004e 1364     		str	r3, [r2, #64]
 872              	.L61:
 873              		.loc 5 301 0
 874 0050 00BF     		nop
 875 0052 054B     		ldr	r3, .L62
 876 0054 039A     		ldr	r2, [sp, #12]
 877 0056 1B68     		ldr	r3, [r3]
 878 0058 9A42     		cmp	r2, r3
 879 005a 01D0     		beq	.L60
 880 005c FFF7FEFF 		bl	__stack_chk_fail
 881              	.L60:
 882 0060 05B0     		add	sp, sp, #20
 883              		.cfi_def_cfa_offset 4
 884              		@ sp needed
 885 0062 5DF804FB 		ldr	pc, [sp], #4
 886              	.L63:
 887 0066 00BF     		.align	2
 888              	.L62:
 889 0068 00000000 		.word	__stack_chk_guard
 890 006c 00000000 		.word	DACD2
 891 0070 00380240 		.word	1073887232
 892              		.cfi_endproc
 893              	.LFE259:
 894              		.size	dac_lld_stop, .-dac_lld_stop
 895              		.section	.text.dac_lld_put_channel,"ax",%progbits
 896              		.align	1
 897              		.p2align 4,,15
 898              		.global	dac_lld_put_channel
 899              		.syntax unified
 900              		.thumb
 901              		.thumb_func
 902              		.fpu fpv4-sp-d16
 903              		.type	dac_lld_put_channel, %function
 904              	dac_lld_put_channel:
 905              	.LFB260:
 906              		.loc 5 314 0
 907              		.cfi_startproc
 908              		@ args = 0, pretend = 0, frame = 24
ARM GAS  C:\Users\PCHAUT~1\AppData\Local\Temp\cc0TBtca.s 			page 17


 909              		@ frame_needed = 0, uses_anonymous_args = 0
 910 0000 00B5     		push	{lr}
 911              		.cfi_def_cfa_offset 4
 912              		.cfi_offset 14, -4
 913 0002 87B0     		sub	sp, sp, #28
 914              		.cfi_def_cfa_offset 32
 915 0004 0390     		str	r0, [sp, #12]
 916 0006 0291     		str	r1, [sp, #8]
 917 0008 1346     		mov	r3, r2
 918 000a ADF80630 		strh	r3, [sp, #6]	@ movhi
 919              		.loc 5 314 0
 920 000e 274B     		ldr	r3, .L79
 921 0010 1B68     		ldr	r3, [r3]
 922 0012 0593     		str	r3, [sp, #20]
 923              		.loc 5 316 0
 924 0014 039B     		ldr	r3, [sp, #12]
 925 0016 1B69     		ldr	r3, [r3, #16]
 926 0018 9B78     		ldrb	r3, [r3, #2]	@ zero_extendqisi2
 927 001a 012B     		cmp	r3, #1
 928 001c 14D0     		beq	.L66
 929 001e 022B     		cmp	r3, #2
 930 0020 23D0     		beq	.L67
 931 0022 002B     		cmp	r3, #0
 932 0024 32D1     		bne	.L78
 933              		.loc 5 321 0
 934 0026 029B     		ldr	r3, [sp, #8]
 935 0028 002B     		cmp	r3, #0
 936 002a 06D1     		bne	.L69
 937              		.loc 5 322 0
 938 002c 039B     		ldr	r3, [sp, #12]
 939 002e DB6A     		ldr	r3, [r3, #44]
 940 0030 1B68     		ldr	r3, [r3]
 941 0032 BDF80620 		ldrh	r2, [sp, #6]
 942 0036 9A60     		str	r2, [r3, #8]
 943              		.loc 5 327 0
 944 0038 2CE0     		b	.L71
 945              	.L69:
 946              		.loc 5 325 0
 947 003a 039B     		ldr	r3, [sp, #12]
 948 003c DB6A     		ldr	r3, [r3, #44]
 949 003e 1B68     		ldr	r3, [r3]
 950 0040 BDF80620 		ldrh	r2, [sp, #6]
 951 0044 5A61     		str	r2, [r3, #20]
 952              		.loc 5 327 0
 953 0046 25E0     		b	.L71
 954              	.L66:
 955              		.loc 5 332 0
 956 0048 029B     		ldr	r3, [sp, #8]
 957 004a 002B     		cmp	r3, #0
 958 004c 06D1     		bne	.L72
 959              		.loc 5 333 0
 960 004e 039B     		ldr	r3, [sp, #12]
 961 0050 DB6A     		ldr	r3, [r3, #44]
 962 0052 1B68     		ldr	r3, [r3]
 963 0054 BDF80620 		ldrh	r2, [sp, #6]
 964 0058 DA60     		str	r2, [r3, #12]
 965              		.loc 5 338 0
ARM GAS  C:\Users\PCHAUT~1\AppData\Local\Temp\cc0TBtca.s 			page 18


 966 005a 1BE0     		b	.L71
 967              	.L72:
 968              		.loc 5 336 0
 969 005c 039B     		ldr	r3, [sp, #12]
 970 005e DB6A     		ldr	r3, [r3, #44]
 971 0060 1B68     		ldr	r3, [r3]
 972 0062 BDF80620 		ldrh	r2, [sp, #6]
 973 0066 9A61     		str	r2, [r3, #24]
 974              		.loc 5 338 0
 975 0068 14E0     		b	.L71
 976              	.L67:
 977              		.loc 5 343 0
 978 006a 029B     		ldr	r3, [sp, #8]
 979 006c 002B     		cmp	r3, #0
 980 006e 06D1     		bne	.L74
 981              		.loc 5 344 0
 982 0070 039B     		ldr	r3, [sp, #12]
 983 0072 DB6A     		ldr	r3, [r3, #44]
 984 0074 1B68     		ldr	r3, [r3]
 985 0076 BDF80620 		ldrh	r2, [sp, #6]
 986 007a 1A61     		str	r2, [r3, #16]
 987              		.loc 5 349 0
 988 007c 0AE0     		b	.L71
 989              	.L74:
 990              		.loc 5 347 0
 991 007e 039B     		ldr	r3, [sp, #12]
 992 0080 DB6A     		ldr	r3, [r3, #44]
 993 0082 1B68     		ldr	r3, [r3]
 994 0084 BDF80620 		ldrh	r2, [sp, #6]
 995 0088 DA61     		str	r2, [r3, #28]
 996              		.loc 5 349 0
 997 008a 03E0     		b	.L71
 998              	.L78:
 999              		.loc 5 351 0 discriminator 2
 1000 008c 0848     		ldr	r0, .L79+4
 1001 008e FFF7FEFF 		bl	chSysHalt
 1002              		.loc 5 352 0 discriminator 2
 1003 0092 00BF     		nop
 1004              	.L71:
 1005              		.loc 5 354 0
 1006 0094 00BF     		nop
 1007 0096 054B     		ldr	r3, .L79
 1008 0098 059A     		ldr	r2, [sp, #20]
 1009 009a 1B68     		ldr	r3, [r3]
 1010 009c 9A42     		cmp	r2, r3
 1011 009e 01D0     		beq	.L76
 1012 00a0 FFF7FEFF 		bl	__stack_chk_fail
 1013              	.L76:
 1014 00a4 07B0     		add	sp, sp, #28
 1015              		.cfi_def_cfa_offset 4
 1016              		@ sp needed
 1017 00a6 5DF804FB 		ldr	pc, [sp], #4
 1018              	.L80:
 1019 00aa 00BF     		.align	2
 1020              	.L79:
 1021 00ac 00000000 		.word	__stack_chk_guard
 1022 00b0 00000000 		.word	__func__.9865
ARM GAS  C:\Users\PCHAUT~1\AppData\Local\Temp\cc0TBtca.s 			page 19


 1023              		.cfi_endproc
 1024              	.LFE260:
 1025              		.size	dac_lld_put_channel, .-dac_lld_put_channel
 1026              		.section	.text.dac_lld_start_conversion,"ax",%progbits
 1027              		.align	1
 1028              		.p2align 4,,15
 1029              		.global	dac_lld_start_conversion
 1030              		.syntax unified
 1031              		.thumb
 1032              		.thumb_func
 1033              		.fpu fpv4-sp-d16
 1034              		.type	dac_lld_start_conversion, %function
 1035              	dac_lld_start_conversion:
 1036              	.LFB261:
 1037              		.loc 5 372 0
 1038              		.cfi_startproc
 1039              		@ args = 0, pretend = 0, frame = 32
 1040              		@ frame_needed = 0, uses_anonymous_args = 0
 1041 0000 00B5     		push	{lr}
 1042              		.cfi_def_cfa_offset 4
 1043              		.cfi_offset 14, -4
 1044 0002 89B0     		sub	sp, sp, #36
 1045              		.cfi_def_cfa_offset 40
 1046 0004 0190     		str	r0, [sp, #4]
 1047              		.loc 5 372 0
 1048 0006 6B4B     		ldr	r3, .L98
 1049 0008 1B68     		ldr	r3, [r3]
 1050 000a 0793     		str	r3, [sp, #28]
 1051              		.loc 5 376 0
 1052 000c 019B     		ldr	r3, [sp, #4]
 1053 000e 9B89     		ldrh	r3, [r3, #12]
 1054 0010 1A46     		mov	r2, r3
 1055 0012 019B     		ldr	r3, [sp, #4]
 1056 0014 5B68     		ldr	r3, [r3, #4]
 1057 0016 1B68     		ldr	r3, [r3]
 1058 0018 03FB02F3 		mul	r3, r3, r2
 1059 001c 0493     		str	r3, [sp, #16]
 1060              		.loc 5 379 0
 1061 001e 019B     		ldr	r3, [sp, #4]
 1062 0020 DB6A     		ldr	r3, [r3, #44]
 1063 0022 1869     		ldr	r0, [r3, #16]
 1064 0024 019B     		ldr	r3, [sp, #4]
 1065 0026 DB6A     		ldr	r3, [r3, #44]
 1066 0028 9969     		ldr	r1, [r3, #24]
 1067 002a 019B     		ldr	r3, [sp, #4]
 1068 002c 624A     		ldr	r2, .L98+4
 1069 002e FFF7FEFF 		bl	dmaStreamAllocate
 1070 0032 0346     		mov	r3, r0
 1071 0034 8DF80F30 		strb	r3, [sp, #15]
 1072              		.loc 5 382 0
 1073 0038 9DF80F30 		ldrb	r3, [sp, #15]	@ zero_extendqisi2
 1074 003c 002B     		cmp	r3, #0
 1075 003e 02D0     		beq	.L82
 1076              		.loc 5 382 0 is_stmt 0 discriminator 2
 1077 0040 5E48     		ldr	r0, .L98+8
 1078 0042 FFF7FEFF 		bl	chSysHalt
 1079              	.L82:
ARM GAS  C:\Users\PCHAUT~1\AppData\Local\Temp\cc0TBtca.s 			page 20


 1080              		.loc 5 385 0 is_stmt 1
 1081 0046 019B     		ldr	r3, [sp, #4]
 1082 0048 1B69     		ldr	r3, [r3, #16]
 1083 004a 9B78     		ldrb	r3, [r3, #2]	@ zero_extendqisi2
 1084 004c 012B     		cmp	r3, #1
 1085 004e 21D0     		beq	.L93
 1086 0050 022B     		cmp	r3, #2
 1087 0052 3DD0     		beq	.L94
 1088 0054 002B     		cmp	r3, #0
 1089 0056 5BD1     		bne	.L97
 1090              		.loc 5 388 0 discriminator 1
 1091 0058 019B     		ldr	r3, [sp, #4]
 1092 005a 5B68     		ldr	r3, [r3, #4]
 1093 005c 1B68     		ldr	r3, [r3]
 1094 005e 012B     		cmp	r3, #1
 1095 0060 02D0     		beq	.L87
 1096              		.loc 5 388 0 is_stmt 0 discriminator 2
 1097 0062 5648     		ldr	r0, .L98+8
 1098 0064 FFF7FEFF 		bl	chSysHalt
 1099              	.L87:
 1100              		.loc 5 390 0 is_stmt 1
 1101 0068 019B     		ldr	r3, [sp, #4]
 1102 006a DB6A     		ldr	r3, [r3, #44]
 1103 006c 1B68     		ldr	r3, [r3]
 1104 006e 03F10802 		add	r2, r3, #8
 1105 0072 019B     		ldr	r3, [sp, #4]
 1106 0074 DB6A     		ldr	r3, [r3, #44]
 1107 0076 5B68     		ldr	r3, [r3, #4]
 1108 0078 9B00     		lsls	r3, r3, #2
 1109 007a 1A44     		add	r2, r2, r3
 1110 007c 019B     		ldr	r3, [sp, #4]
 1111 007e DB6A     		ldr	r3, [r3, #44]
 1112 0080 1B69     		ldr	r3, [r3, #16]
 1113 0082 1B68     		ldr	r3, [r3]
 1114 0084 9A60     		str	r2, [r3, #8]
 1115              		.loc 5 392 0
 1116 0086 019B     		ldr	r3, [sp, #4]
 1117 0088 DB6A     		ldr	r3, [r3, #44]
 1118 008a 5B69     		ldr	r3, [r3, #20]
 1119 008c 43F42053 		orr	r3, r3, #10240
 1120 0090 0593     		str	r3, [sp, #20]
 1121              		.loc 5 394 0
 1122 0092 41E0     		b	.L88
 1123              	.L93:
 1124              		.loc 5 396 0 discriminator 1
 1125 0094 019B     		ldr	r3, [sp, #4]
 1126 0096 5B68     		ldr	r3, [r3, #4]
 1127 0098 1B68     		ldr	r3, [r3]
 1128 009a 012B     		cmp	r3, #1
 1129 009c 02D0     		beq	.L89
 1130              		.loc 5 396 0 is_stmt 0 discriminator 2
 1131 009e 4748     		ldr	r0, .L98+8
 1132 00a0 FFF7FEFF 		bl	chSysHalt
 1133              	.L89:
 1134              		.loc 5 398 0 is_stmt 1
 1135 00a4 019B     		ldr	r3, [sp, #4]
 1136 00a6 DB6A     		ldr	r3, [r3, #44]
ARM GAS  C:\Users\PCHAUT~1\AppData\Local\Temp\cc0TBtca.s 			page 21


 1137 00a8 1B68     		ldr	r3, [r3]
 1138 00aa 03F10C02 		add	r2, r3, #12
 1139 00ae 019B     		ldr	r3, [sp, #4]
 1140 00b0 DB6A     		ldr	r3, [r3, #44]
 1141 00b2 5B68     		ldr	r3, [r3, #4]
 1142 00b4 9B00     		lsls	r3, r3, #2
 1143 00b6 1A44     		add	r2, r2, r3
 1144 00b8 019B     		ldr	r3, [sp, #4]
 1145 00ba DB6A     		ldr	r3, [r3, #44]
 1146 00bc 1B69     		ldr	r3, [r3, #16]
 1147 00be 1B68     		ldr	r3, [r3]
 1148 00c0 9A60     		str	r2, [r3, #8]
 1149              		.loc 5 400 0
 1150 00c2 019B     		ldr	r3, [sp, #4]
 1151 00c4 DB6A     		ldr	r3, [r3, #44]
 1152 00c6 5B69     		ldr	r3, [r3, #20]
 1153 00c8 43F42053 		orr	r3, r3, #10240
 1154 00cc 0593     		str	r3, [sp, #20]
 1155              		.loc 5 402 0
 1156 00ce 23E0     		b	.L88
 1157              	.L94:
 1158              		.loc 5 404 0 discriminator 1
 1159 00d0 019B     		ldr	r3, [sp, #4]
 1160 00d2 5B68     		ldr	r3, [r3, #4]
 1161 00d4 1B68     		ldr	r3, [r3]
 1162 00d6 012B     		cmp	r3, #1
 1163 00d8 02D0     		beq	.L90
 1164              		.loc 5 404 0 is_stmt 0 discriminator 2
 1165 00da 3848     		ldr	r0, .L98+8
 1166 00dc FFF7FEFF 		bl	chSysHalt
 1167              	.L90:
 1168              		.loc 5 406 0 is_stmt 1
 1169 00e0 019B     		ldr	r3, [sp, #4]
 1170 00e2 DB6A     		ldr	r3, [r3, #44]
 1171 00e4 1B68     		ldr	r3, [r3]
 1172 00e6 03F11002 		add	r2, r3, #16
 1173 00ea 019B     		ldr	r3, [sp, #4]
 1174 00ec DB6A     		ldr	r3, [r3, #44]
 1175 00ee 5B68     		ldr	r3, [r3, #4]
 1176 00f0 9B00     		lsls	r3, r3, #2
 1177 00f2 1A44     		add	r2, r2, r3
 1178 00f4 019B     		ldr	r3, [sp, #4]
 1179 00f6 DB6A     		ldr	r3, [r3, #44]
 1180 00f8 1B69     		ldr	r3, [r3, #16]
 1181 00fa 1B68     		ldr	r3, [r3]
 1182 00fc 9A60     		str	r2, [r3, #8]
 1183              		.loc 5 408 0
 1184 00fe 019B     		ldr	r3, [sp, #4]
 1185 0100 DB6A     		ldr	r3, [r3, #44]
 1186 0102 5B69     		ldr	r3, [r3, #20]
 1187 0104 0593     		str	r3, [sp, #20]
 1188              		.loc 5 413 0
 1189 0106 049B     		ldr	r3, [sp, #16]
 1190 0108 0133     		adds	r3, r3, #1
 1191 010a 5B08     		lsrs	r3, r3, #1
 1192 010c 0493     		str	r3, [sp, #16]
 1193              		.loc 5 414 0
ARM GAS  C:\Users\PCHAUT~1\AppData\Local\Temp\cc0TBtca.s 			page 22


 1194 010e 03E0     		b	.L88
 1195              	.L97:
 1196              		.loc 5 439 0 discriminator 2
 1197 0110 2A48     		ldr	r0, .L98+8
 1198 0112 FFF7FEFF 		bl	chSysHalt
 1199              		.loc 5 440 0 discriminator 2
 1200 0116 43E0     		b	.L81
 1201              	.L88:
 1202              		.loc 5 443 0
 1203 0118 019B     		ldr	r3, [sp, #4]
 1204 011a 9A68     		ldr	r2, [r3, #8]
 1205 011c 019B     		ldr	r3, [sp, #4]
 1206 011e DB6A     		ldr	r3, [r3, #44]
 1207 0120 1B69     		ldr	r3, [r3, #16]
 1208 0122 1B68     		ldr	r3, [r3]
 1209 0124 DA60     		str	r2, [r3, #12]
 1210              		.loc 5 444 0
 1211 0126 019B     		ldr	r3, [sp, #4]
 1212 0128 DB6A     		ldr	r3, [r3, #44]
 1213 012a 1B69     		ldr	r3, [r3, #16]
 1214 012c 1B68     		ldr	r3, [r3]
 1215 012e 049A     		ldr	r2, [sp, #16]
 1216 0130 5A60     		str	r2, [r3, #4]
 1217              		.loc 5 445 0
 1218 0132 019B     		ldr	r3, [sp, #4]
 1219 0134 DB6A     		ldr	r3, [r3, #44]
 1220 0136 1B69     		ldr	r3, [r3, #16]
 1221 0138 1B68     		ldr	r3, [r3]
 1222 013a 059A     		ldr	r2, [sp, #20]
 1223 013c 42F01E02 		orr	r2, r2, #30
 1224 0140 1A60     		str	r2, [r3]
 1225              		.loc 5 448 0
 1226 0142 019B     		ldr	r3, [sp, #4]
 1227 0144 DB6A     		ldr	r3, [r3, #44]
 1228 0146 1B69     		ldr	r3, [r3, #16]
 1229 0148 1B68     		ldr	r3, [r3]
 1230 014a 1A68     		ldr	r2, [r3]
 1231 014c 019B     		ldr	r3, [sp, #4]
 1232 014e DB6A     		ldr	r3, [r3, #44]
 1233 0150 1B69     		ldr	r3, [r3, #16]
 1234 0152 1B68     		ldr	r3, [r3]
 1235 0154 42F00102 		orr	r2, r2, #1
 1236 0158 1A60     		str	r2, [r3]
 1237              		.loc 5 452 0
 1238 015a 019B     		ldr	r3, [sp, #4]
 1239 015c 5B68     		ldr	r3, [r3, #4]
 1240 015e DB68     		ldr	r3, [r3, #12]
 1241 0160 DB00     		lsls	r3, r3, #3
 1242 0162 43F48053 		orr	r3, r3, #4096
 1243 0166 43F00503 		orr	r3, r3, #5
 1244 016a 0693     		str	r3, [sp, #24]
 1245              		.loc 5 453 0
 1246 016c 019B     		ldr	r3, [sp, #4]
 1247 016e DB6A     		ldr	r3, [r3, #44]
 1248 0170 1B68     		ldr	r3, [r3]
 1249 0172 1968     		ldr	r1, [r3]
 1250 0174 019B     		ldr	r3, [sp, #4]
ARM GAS  C:\Users\PCHAUT~1\AppData\Local\Temp\cc0TBtca.s 			page 23


 1251 0176 DB6A     		ldr	r3, [r3, #44]
 1252 0178 DA68     		ldr	r2, [r3, #12]
 1253 017a 019B     		ldr	r3, [sp, #4]
 1254 017c DB6A     		ldr	r3, [r3, #44]
 1255 017e 1B68     		ldr	r3, [r3]
 1256 0180 0A40     		ands	r2, r2, r1
 1257 0182 1A60     		str	r2, [r3]
 1258              		.loc 5 454 0
 1259 0184 019B     		ldr	r3, [sp, #4]
 1260 0186 DB6A     		ldr	r3, [r3, #44]
 1261 0188 1B68     		ldr	r3, [r3]
 1262 018a 1968     		ldr	r1, [r3]
 1263 018c 019B     		ldr	r3, [sp, #4]
 1264 018e DB6A     		ldr	r3, [r3, #44]
 1265 0190 9B68     		ldr	r3, [r3, #8]
 1266 0192 069A     		ldr	r2, [sp, #24]
 1267 0194 9A40     		lsls	r2, r2, r3
 1268 0196 019B     		ldr	r3, [sp, #4]
 1269 0198 DB6A     		ldr	r3, [r3, #44]
 1270 019a 1B68     		ldr	r3, [r3]
 1271 019c 0A43     		orrs	r2, r2, r1
 1272 019e 1A60     		str	r2, [r3]
 1273              	.L81:
 1274              		.loc 5 461 0
 1275 01a0 044B     		ldr	r3, .L98
 1276 01a2 079A     		ldr	r2, [sp, #28]
 1277 01a4 1B68     		ldr	r3, [r3]
 1278 01a6 9A42     		cmp	r2, r3
 1279 01a8 01D0     		beq	.L92
 1280 01aa FFF7FEFF 		bl	__stack_chk_fail
 1281              	.L92:
 1282 01ae 09B0     		add	sp, sp, #36
 1283              		.cfi_def_cfa_offset 4
 1284              		@ sp needed
 1285 01b0 5DF804FB 		ldr	pc, [sp], #4
 1286              	.L99:
 1287              		.align	2
 1288              	.L98:
 1289 01b4 00000000 		.word	__stack_chk_guard
 1290 01b8 00000000 		.word	dac_lld_serve_tx_interrupt
 1291 01bc 00000000 		.word	__func__.9873
 1292              		.cfi_endproc
 1293              	.LFE261:
 1294              		.size	dac_lld_start_conversion, .-dac_lld_start_conversion
 1295              		.section	.text.dac_lld_stop_conversion,"ax",%progbits
 1296              		.align	1
 1297              		.p2align 4,,15
 1298              		.global	dac_lld_stop_conversion
 1299              		.syntax unified
 1300              		.thumb
 1301              		.thumb_func
 1302              		.fpu fpv4-sp-d16
 1303              		.type	dac_lld_stop_conversion, %function
 1304              	dac_lld_stop_conversion:
 1305              	.LFB262:
 1306              		.loc 5 473 0
 1307              		.cfi_startproc
ARM GAS  C:\Users\PCHAUT~1\AppData\Local\Temp\cc0TBtca.s 			page 24


 1308              		@ args = 0, pretend = 0, frame = 16
 1309              		@ frame_needed = 0, uses_anonymous_args = 0
 1310 0000 00B5     		push	{lr}
 1311              		.cfi_def_cfa_offset 4
 1312              		.cfi_offset 14, -4
 1313 0002 85B0     		sub	sp, sp, #20
 1314              		.cfi_def_cfa_offset 24
 1315 0004 0190     		str	r0, [sp, #4]
 1316              		.loc 5 473 0
 1317 0006 284B     		ldr	r3, .L103
 1318 0008 1B68     		ldr	r3, [r3]
 1319 000a 0393     		str	r3, [sp, #12]
 1320              		.loc 5 476 0
 1321 000c 019B     		ldr	r3, [sp, #4]
 1322 000e DB6A     		ldr	r3, [r3, #44]
 1323 0010 1B69     		ldr	r3, [r3, #16]
 1324 0012 1B68     		ldr	r3, [r3]
 1325 0014 1A68     		ldr	r2, [r3]
 1326 0016 019B     		ldr	r3, [sp, #4]
 1327 0018 DB6A     		ldr	r3, [r3, #44]
 1328 001a 1B69     		ldr	r3, [r3, #16]
 1329 001c 1B68     		ldr	r3, [r3]
 1330 001e 22F01F02 		bic	r2, r2, #31
 1331 0022 1A60     		str	r2, [r3]
 1332 0024 00BF     		nop
 1333              	.L101:
 1334              		.loc 5 476 0 is_stmt 0 discriminator 2
 1335 0026 019B     		ldr	r3, [sp, #4]
 1336 0028 DB6A     		ldr	r3, [r3, #44]
 1337 002a 1B69     		ldr	r3, [r3, #16]
 1338 002c 1B68     		ldr	r3, [r3]
 1339 002e 1B68     		ldr	r3, [r3]
 1340 0030 03F00103 		and	r3, r3, #1
 1341 0034 002B     		cmp	r3, #0
 1342 0036 F6D1     		bne	.L101
 1343              		.loc 5 476 0 discriminator 3
 1344 0038 019B     		ldr	r3, [sp, #4]
 1345 003a DB6A     		ldr	r3, [r3, #44]
 1346 003c 1B69     		ldr	r3, [r3, #16]
 1347 003e 1B7A     		ldrb	r3, [r3, #8]	@ zero_extendqisi2
 1348 0040 1A46     		mov	r2, r3
 1349 0042 3D23     		movs	r3, #61
 1350 0044 03FA02F2 		lsl	r2, r3, r2
 1351 0048 019B     		ldr	r3, [sp, #4]
 1352 004a DB6A     		ldr	r3, [r3, #44]
 1353 004c 1B69     		ldr	r3, [r3, #16]
 1354 004e 5B68     		ldr	r3, [r3, #4]
 1355 0050 1A60     		str	r2, [r3]
 1356              		.loc 5 477 0 is_stmt 1 discriminator 3
 1357 0052 019B     		ldr	r3, [sp, #4]
 1358 0054 DB6A     		ldr	r3, [r3, #44]
 1359 0056 1B69     		ldr	r3, [r3, #16]
 1360 0058 1846     		mov	r0, r3
 1361 005a FFF7FEFF 		bl	dmaStreamRelease
 1362              		.loc 5 480 0 discriminator 3
 1363 005e 019B     		ldr	r3, [sp, #4]
 1364 0060 DB6A     		ldr	r3, [r3, #44]
ARM GAS  C:\Users\PCHAUT~1\AppData\Local\Temp\cc0TBtca.s 			page 25


 1365 0062 1B68     		ldr	r3, [r3]
 1366 0064 1968     		ldr	r1, [r3]
 1367 0066 019B     		ldr	r3, [sp, #4]
 1368 0068 DB6A     		ldr	r3, [r3, #44]
 1369 006a DA68     		ldr	r2, [r3, #12]
 1370 006c 019B     		ldr	r3, [sp, #4]
 1371 006e DB6A     		ldr	r3, [r3, #44]
 1372 0070 1B68     		ldr	r3, [r3]
 1373 0072 0A40     		ands	r2, r2, r1
 1374 0074 1A60     		str	r2, [r3]
 1375              		.loc 5 481 0 discriminator 3
 1376 0076 019B     		ldr	r3, [sp, #4]
 1377 0078 DB6A     		ldr	r3, [r3, #44]
 1378 007a 1B68     		ldr	r3, [r3]
 1379 007c 1968     		ldr	r1, [r3]
 1380 007e 019B     		ldr	r3, [sp, #4]
 1381 0080 DB6A     		ldr	r3, [r3, #44]
 1382 0082 9B68     		ldr	r3, [r3, #8]
 1383 0084 0122     		movs	r2, #1
 1384 0086 9A40     		lsls	r2, r2, r3
 1385 0088 019B     		ldr	r3, [sp, #4]
 1386 008a DB6A     		ldr	r3, [r3, #44]
 1387 008c 1B68     		ldr	r3, [r3]
 1388 008e 0A43     		orrs	r2, r2, r1
 1389 0090 1A60     		str	r2, [r3]
 1390              		.loc 5 492 0 discriminator 3
 1391 0092 00BF     		nop
 1392 0094 044B     		ldr	r3, .L103
 1393 0096 039A     		ldr	r2, [sp, #12]
 1394 0098 1B68     		ldr	r3, [r3]
 1395 009a 9A42     		cmp	r2, r3
 1396 009c 01D0     		beq	.L102
 1397              		.loc 5 492 0 is_stmt 0
 1398 009e FFF7FEFF 		bl	__stack_chk_fail
 1399              	.L102:
 1400 00a2 05B0     		add	sp, sp, #20
 1401              		.cfi_def_cfa_offset 4
 1402              		@ sp needed
 1403 00a4 5DF804FB 		ldr	pc, [sp], #4
 1404              	.L104:
 1405              		.align	2
 1406              	.L103:
 1407 00a8 00000000 		.word	__stack_chk_guard
 1408              		.cfi_endproc
 1409              	.LFE262:
 1410              		.size	dac_lld_stop_conversion, .-dac_lld_stop_conversion
 1411              		.section	.rodata.__func__.9865,"a",%progbits
 1412              		.align	2
 1413              		.type	__func__.9865, %object
 1414              		.size	__func__.9865, 20
 1415              	__func__.9865:
 1416 0000 6461635F 		.ascii	"dac_lld_put_channel\000"
 1416      6C6C645F 
 1416      7075745F 
 1416      6368616E 
 1416      6E656C00 
 1417              		.section	.rodata.__func__.9873,"a",%progbits
ARM GAS  C:\Users\PCHAUT~1\AppData\Local\Temp\cc0TBtca.s 			page 26


 1418              		.align	2
 1419              		.type	__func__.9873, %object
 1420              		.size	__func__.9873, 25
 1421              	__func__.9873:
 1422 0000 6461635F 		.ascii	"dac_lld_start_conversion\000"
 1422      6C6C645F 
 1422      73746172 
 1422      745F636F 
 1422      6E766572 
 1423              		.text
 1424              	.Letext0:
 1425              		.file 6 "c:\\users\\pchautems\\documents\\robotiquetp\\eclipse_e-puck2\\tools\\gcc-arm-none-eabi-7
 1426              		.file 7 "c:\\users\\pchautems\\documents\\robotiquetp\\eclipse_e-puck2\\tools\\gcc-arm-none-eabi-7
 1427              		.file 8 "c:\\users\\pchautems\\documents\\robotiquetp\\eclipse_e-puck2\\tools\\gcc-arm-none-eabi-7
 1428              		.file 9 "../lib/e-puck2_main-processor/ChibiOS//os/rt/ports/ARMCMx/compilers/GCC/chtypes.h"
 1429              		.file 10 "../lib/e-puck2_main-processor/ChibiOS//os/rt/include/chsystypes.h"
 1430              		.file 11 "../lib/e-puck2_main-processor/ChibiOS//os/rt/include/chschd.h"
 1431              		.file 12 "../lib/e-puck2_main-processor/ChibiOS//os/ext/CMSIS/include/core_cm4.h"
 1432              		.file 13 "../lib/e-puck2_main-processor/ChibiOS//os/ext/CMSIS/ST/system_stm32f4xx.h"
 1433              		.file 14 "../lib/e-puck2_main-processor/ChibiOS//os/ext/CMSIS/ST/stm32f407xx.h"
 1434              		.file 15 "../lib/e-puck2_main-processor/ChibiOS//os/rt/ports/ARMCMx/chcore.h"
 1435              		.file 16 "../lib/e-puck2_main-processor/ChibiOS//os/rt/include/chdebug.h"
 1436              		.file 17 "../lib/e-puck2_main-processor/ChibiOS//os/rt/include/chtm.h"
 1437              		.file 18 "../lib/e-puck2_main-processor/ChibiOS//os/rt/include/chstats.h"
 1438              		.file 19 "../lib/e-puck2_main-processor/ChibiOS//os/rt/include/chsem.h"
 1439              		.file 20 "../lib/e-puck2_main-processor/ChibiOS//os/rt/include/chmtx.h"
 1440              		.file 21 "../lib/e-puck2_main-processor/ChibiOS//os/rt/include/chregistry.h"
 1441              		.file 22 "../lib/e-puck2_main-processor/ChibiOS//os/rt/include/chevents.h"
 1442              		.file 23 "../lib/e-puck2_main-processor/ChibiOS//os/rt/include/chqueues.h"
 1443              		.file 24 "../lib/e-puck2_main-processor/ChibiOS//os/hal/ports/STM32/STM32F4xx/stm32_dma.h"
 1444              		.file 25 "../lib/e-puck2_main-processor/ChibiOS//os/hal/include/hal_ioblock.h"
 1445              		.file 26 "../lib/e-puck2_main-processor/ChibiOS//os/hal/ports/STM32/LLD/GPIOv2/pal_lld.h"
 1446              		.file 27 "../lib/e-puck2_main-processor/ChibiOS//os/hal/include/adc.h"
 1447              		.file 28 "../lib/e-puck2_main-processor/ChibiOS//os/hal/ports/STM32/STM32F4xx/adc_lld.h"
 1448              		.file 29 "../lib/e-puck2_main-processor/ChibiOS//os/hal/include/can.h"
 1449              		.file 30 "../lib/e-puck2_main-processor/ChibiOS//os/hal/ports/STM32/LLD/can_lld.h"
 1450              		.file 31 "../lib/e-puck2_main-processor/ChibiOS//os/hal/include/dac.h"
 1451              		.file 32 "../lib/e-puck2_main-processor/ChibiOS//os/hal/ports/STM32/LLD/DACv1/dac_lld.h"
 1452              		.file 33 "../lib/e-puck2_main-processor/ChibiOS//os/hal/include/ext.h"
 1453              		.file 34 "../lib/e-puck2_main-processor/ChibiOS//os/hal/ports/STM32/LLD/ext_lld.h"
 1454              		.file 35 "../lib/e-puck2_main-processor/ChibiOS//os/hal/include/gpt.h"
 1455              		.file 36 "../lib/e-puck2_main-processor/ChibiOS//os/hal/ports/STM32/LLD/TIMv1/gpt_lld.h"
 1456              		.file 37 "../lib/e-puck2_main-processor/ChibiOS//os/hal/ports/STM32/LLD/TIMv1/stm32_tim.h"
 1457              		.file 38 "../lib/e-puck2_main-processor/ChibiOS//os/hal/include/i2c.h"
 1458              		.file 39 "../lib/e-puck2_main-processor/ChibiOS//os/hal/ports/STM32/LLD/I2Cv1/i2c_lld.h"
 1459              		.file 40 "../lib/e-puck2_main-processor/ChibiOS//os/hal/include/i2s.h"
 1460              		.file 41 "../lib/e-puck2_main-processor/ChibiOS//os/hal/ports/STM32/LLD/SPIv1/i2s_lld.h"
 1461              		.file 42 "../lib/e-puck2_main-processor/ChibiOS//os/hal/include/pwm.h"
 1462              		.file 43 "../lib/e-puck2_main-processor/ChibiOS//os/hal/ports/STM32/LLD/TIMv1/pwm_lld.h"
 1463              		.file 44 "../lib/e-puck2_main-processor/ChibiOS//os/hal/include/serial.h"
 1464              		.file 45 "../lib/e-puck2_main-processor/ChibiOS//os/hal/ports/STM32/LLD/USARTv1/serial_lld.h"
 1465              		.file 46 "../lib/e-puck2_main-processor/ChibiOS//os/hal/include/sdc.h"
 1466              		.file 47 "../lib/e-puck2_main-processor/ChibiOS//os/hal/ports/STM32/LLD/sdc_lld.h"
 1467              		.file 48 "../lib/e-puck2_main-processor/ChibiOS//os/hal/include/spi.h"
 1468              		.file 49 "../lib/e-puck2_main-processor/ChibiOS//os/hal/ports/STM32/LLD/SPIv1/spi_lld.h"
 1469              		.file 50 "../lib/e-puck2_main-processor/ChibiOS//os/hal/include/usb.h"
 1470              		.file 51 "../lib/e-puck2_main-processor/ChibiOS//os/hal/ports/STM32/LLD/OTGv1/usb_lld.h"
ARM GAS  C:\Users\PCHAUT~1\AppData\Local\Temp\cc0TBtca.s 			page 27


 1471              		.file 52 "../lib/e-puck2_main-processor/ChibiOS//os/hal/ports/STM32/LLD/OTGv1/stm32_otg.h"