ARM GAS  C:\Users\PCHAUT~1\AppData\Local\Temp\ccOOgULR.s 			page 1


   1              		.cpu cortex-m4
   2              		.eabi_attribute 27, 1
   3              		.eabi_attribute 28, 1
   4              		.eabi_attribute 20, 1
   5              		.eabi_attribute 21, 1
   6              		.eabi_attribute 23, 3
   7              		.eabi_attribute 24, 1
   8              		.eabi_attribute 25, 1
   9              		.eabi_attribute 26, 1
  10              		.eabi_attribute 30, 6
  11              		.eabi_attribute 34, 1
  12              		.eabi_attribute 18, 4
  13              		.file	"dcmi_camera.c"
  14              		.text
  15              	.Ltext0:
  16              		.cfi_sections	.debug_frame
  17              		.section	.text.port_lock,"ax",%progbits
  18              		.align	1
  19              		.p2align 4,,15
  20              		.syntax unified
  21              		.thumb
  22              		.thumb_func
  23              		.fpu fpv4-sp-d16
  24              		.type	port_lock, %function
  25              	port_lock:
  26              	.LFB116:
  27              		.file 1 "../lib/e-puck2_main-processor/ChibiOS//os/rt/ports/ARMCMx/chcore_v7m.h"
  28              		.loc 1 444 0
  29              		.cfi_startproc
  30              		@ args = 0, pretend = 0, frame = 8
  31              		@ frame_needed = 0, uses_anonymous_args = 0
  32 0000 00B5     		push	{lr}
  33              		.cfi_def_cfa_offset 4
  34              		.cfi_offset 14, -4
  35 0002 83B0     		sub	sp, sp, #12
  36              		.cfi_def_cfa_offset 16
  37              		.loc 1 444 0
  38 0004 094B     		ldr	r3, .L3
  39 0006 1B68     		ldr	r3, [r3]
  40 0008 0193     		str	r3, [sp, #4]
  41 000a 2023     		movs	r3, #32
  42 000c 0093     		str	r3, [sp]
  43              	.LBB6:
  44              	.LBB7:
  45              		.file 2 "../lib/e-puck2_main-processor/ChibiOS//os/ext/CMSIS/include/core_cmFunc.h"
  46              		.loc 2 546 0
  47 000e 009B     		ldr	r3, [sp]
  48              		.syntax unified
  49              	@ 546 "../lib/e-puck2_main-processor/ChibiOS//os/ext/CMSIS/include/core_cmFunc.h" 1
  50 0010 83F31188 		MSR basepri, r3
  51              	@ 0 "" 2
  52              		.thumb
  53              		.syntax unified
  54              	.LBE7:
  55              	.LBE6:
  56              		.loc 1 451 0
  57 0014 00BF     		nop
ARM GAS  C:\Users\PCHAUT~1\AppData\Local\Temp\ccOOgULR.s 			page 2


  58 0016 054B     		ldr	r3, .L3
  59 0018 019A     		ldr	r2, [sp, #4]
  60 001a 1B68     		ldr	r3, [r3]
  61 001c 9A42     		cmp	r2, r3
  62 001e 01D0     		beq	.L2
  63 0020 FFF7FEFF 		bl	__stack_chk_fail
  64              	.L2:
  65 0024 03B0     		add	sp, sp, #12
  66              		.cfi_def_cfa_offset 4
  67              		@ sp needed
  68 0026 5DF804FB 		ldr	pc, [sp], #4
  69              	.L4:
  70 002a 00BF     		.align	2
  71              	.L3:
  72 002c 00000000 		.word	__stack_chk_guard
  73              		.cfi_endproc
  74              	.LFE116:
  75              		.size	port_lock, .-port_lock
  76              		.section	.text.port_unlock,"ax",%progbits
  77              		.align	1
  78              		.p2align 4,,15
  79              		.syntax unified
  80              		.thumb
  81              		.thumb_func
  82              		.fpu fpv4-sp-d16
  83              		.type	port_unlock, %function
  84              	port_unlock:
  85              	.LFB117:
  86              		.loc 1 458 0
  87              		.cfi_startproc
  88              		@ args = 0, pretend = 0, frame = 8
  89              		@ frame_needed = 0, uses_anonymous_args = 0
  90 0000 00B5     		push	{lr}
  91              		.cfi_def_cfa_offset 4
  92              		.cfi_offset 14, -4
  93 0002 83B0     		sub	sp, sp, #12
  94              		.cfi_def_cfa_offset 16
  95              		.loc 1 458 0
  96 0004 094B     		ldr	r3, .L7
  97 0006 1B68     		ldr	r3, [r3]
  98 0008 0193     		str	r3, [sp, #4]
  99 000a 0023     		movs	r3, #0
 100 000c 0093     		str	r3, [sp]
 101              	.LBB8:
 102              	.LBB9:
 103              		.loc 2 546 0
 104 000e 009B     		ldr	r3, [sp]
 105              		.syntax unified
 106              	@ 546 "../lib/e-puck2_main-processor/ChibiOS//os/ext/CMSIS/include/core_cmFunc.h" 1
 107 0010 83F31188 		MSR basepri, r3
 108              	@ 0 "" 2
 109              		.thumb
 110              		.syntax unified
 111              	.LBE9:
 112              	.LBE8:
 113              		.loc 1 465 0
 114 0014 00BF     		nop
ARM GAS  C:\Users\PCHAUT~1\AppData\Local\Temp\ccOOgULR.s 			page 3


 115 0016 054B     		ldr	r3, .L7
 116 0018 019A     		ldr	r2, [sp, #4]
 117 001a 1B68     		ldr	r3, [r3]
 118 001c 9A42     		cmp	r2, r3
 119 001e 01D0     		beq	.L6
 120 0020 FFF7FEFF 		bl	__stack_chk_fail
 121              	.L6:
 122 0024 03B0     		add	sp, sp, #12
 123              		.cfi_def_cfa_offset 4
 124              		@ sp needed
 125 0026 5DF804FB 		ldr	pc, [sp], #4
 126              	.L8:
 127 002a 00BF     		.align	2
 128              	.L7:
 129 002c 00000000 		.word	__stack_chk_guard
 130              		.cfi_endproc
 131              	.LFE117:
 132              		.size	port_unlock, .-port_unlock
 133              		.section	.text.port_lock_from_isr,"ax",%progbits
 134              		.align	1
 135              		.p2align 4,,15
 136              		.syntax unified
 137              		.thumb
 138              		.thumb_func
 139              		.fpu fpv4-sp-d16
 140              		.type	port_lock_from_isr, %function
 141              	port_lock_from_isr:
 142              	.LFB118:
 143              		.loc 1 473 0
 144              		.cfi_startproc
 145              		@ args = 0, pretend = 0, frame = 8
 146              		@ frame_needed = 0, uses_anonymous_args = 0
 147 0000 00B5     		push	{lr}
 148              		.cfi_def_cfa_offset 4
 149              		.cfi_offset 14, -4
 150 0002 83B0     		sub	sp, sp, #12
 151              		.cfi_def_cfa_offset 16
 152              		.loc 1 473 0
 153 0004 074B     		ldr	r3, .L11
 154 0006 1B68     		ldr	r3, [r3]
 155 0008 0193     		str	r3, [sp, #4]
 156              		.loc 1 475 0
 157 000a FFF7FEFF 		bl	port_lock
 158              		.loc 1 476 0
 159 000e 00BF     		nop
 160 0010 044B     		ldr	r3, .L11
 161 0012 019A     		ldr	r2, [sp, #4]
 162 0014 1B68     		ldr	r3, [r3]
 163 0016 9A42     		cmp	r2, r3
 164 0018 01D0     		beq	.L10
 165 001a FFF7FEFF 		bl	__stack_chk_fail
 166              	.L10:
 167 001e 03B0     		add	sp, sp, #12
 168              		.cfi_def_cfa_offset 4
 169              		@ sp needed
 170 0020 5DF804FB 		ldr	pc, [sp], #4
 171              	.L12:
ARM GAS  C:\Users\PCHAUT~1\AppData\Local\Temp\ccOOgULR.s 			page 4


 172              		.align	2
 173              	.L11:
 174 0024 00000000 		.word	__stack_chk_guard
 175              		.cfi_endproc
 176              	.LFE118:
 177              		.size	port_lock_from_isr, .-port_lock_from_isr
 178              		.section	.text.port_unlock_from_isr,"ax",%progbits
 179              		.align	1
 180              		.p2align 4,,15
 181              		.syntax unified
 182              		.thumb
 183              		.thumb_func
 184              		.fpu fpv4-sp-d16
 185              		.type	port_unlock_from_isr, %function
 186              	port_unlock_from_isr:
 187              	.LFB119:
 188              		.loc 1 484 0
 189              		.cfi_startproc
 190              		@ args = 0, pretend = 0, frame = 8
 191              		@ frame_needed = 0, uses_anonymous_args = 0
 192 0000 00B5     		push	{lr}
 193              		.cfi_def_cfa_offset 4
 194              		.cfi_offset 14, -4
 195 0002 83B0     		sub	sp, sp, #12
 196              		.cfi_def_cfa_offset 16
 197              		.loc 1 484 0
 198 0004 074B     		ldr	r3, .L15
 199 0006 1B68     		ldr	r3, [r3]
 200 0008 0193     		str	r3, [sp, #4]
 201              		.loc 1 486 0
 202 000a FFF7FEFF 		bl	port_unlock
 203              		.loc 1 487 0
 204 000e 00BF     		nop
 205 0010 044B     		ldr	r3, .L15
 206 0012 019A     		ldr	r2, [sp, #4]
 207 0014 1B68     		ldr	r3, [r3]
 208 0016 9A42     		cmp	r2, r3
 209 0018 01D0     		beq	.L14
 210 001a FFF7FEFF 		bl	__stack_chk_fail
 211              	.L14:
 212 001e 03B0     		add	sp, sp, #12
 213              		.cfi_def_cfa_offset 4
 214              		@ sp needed
 215 0020 5DF804FB 		ldr	pc, [sp], #4
 216              	.L16:
 217              		.align	2
 218              	.L15:
 219 0024 00000000 		.word	__stack_chk_guard
 220              		.cfi_endproc
 221              	.LFE119:
 222              		.size	port_unlock_from_isr, .-port_unlock_from_isr
 223              		.section	.text.chSysLockFromISR,"ax",%progbits
 224              		.align	1
 225              		.p2align 4,,15
 226              		.syntax unified
 227              		.thumb
 228              		.thumb_func
ARM GAS  C:\Users\PCHAUT~1\AppData\Local\Temp\ccOOgULR.s 			page 5


 229              		.fpu fpv4-sp-d16
 230              		.type	chSysLockFromISR, %function
 231              	chSysLockFromISR:
 232              	.LFB147:
 233              		.file 3 "../lib/e-puck2_main-processor/ChibiOS//os/rt/include/chsys.h"
 234              		.loc 3 386 0
 235              		.cfi_startproc
 236              		@ args = 0, pretend = 0, frame = 8
 237              		@ frame_needed = 0, uses_anonymous_args = 0
 238 0000 00B5     		push	{lr}
 239              		.cfi_def_cfa_offset 4
 240              		.cfi_offset 14, -4
 241 0002 83B0     		sub	sp, sp, #12
 242              		.cfi_def_cfa_offset 16
 243              		.loc 3 386 0
 244 0004 094B     		ldr	r3, .L19
 245 0006 1B68     		ldr	r3, [r3]
 246 0008 0193     		str	r3, [sp, #4]
 247              		.loc 3 388 0
 248 000a FFF7FEFF 		bl	port_lock_from_isr
 249              		.loc 3 389 0
 250 000e FFF7FEFF 		bl	_stats_start_measure_crit_isr
 251              		.loc 3 390 0
 252 0012 FFF7FEFF 		bl	_dbg_check_lock_from_isr
 253              		.loc 3 391 0
 254 0016 00BF     		nop
 255 0018 044B     		ldr	r3, .L19
 256 001a 019A     		ldr	r2, [sp, #4]
 257 001c 1B68     		ldr	r3, [r3]
 258 001e 9A42     		cmp	r2, r3
 259 0020 01D0     		beq	.L18
 260 0022 FFF7FEFF 		bl	__stack_chk_fail
 261              	.L18:
 262 0026 03B0     		add	sp, sp, #12
 263              		.cfi_def_cfa_offset 4
 264              		@ sp needed
 265 0028 5DF804FB 		ldr	pc, [sp], #4
 266              	.L20:
 267              		.align	2
 268              	.L19:
 269 002c 00000000 		.word	__stack_chk_guard
 270              		.cfi_endproc
 271              	.LFE147:
 272              		.size	chSysLockFromISR, .-chSysLockFromISR
 273              		.section	.text.chSysUnlockFromISR,"ax",%progbits
 274              		.align	1
 275              		.p2align 4,,15
 276              		.syntax unified
 277              		.thumb
 278              		.thumb_func
 279              		.fpu fpv4-sp-d16
 280              		.type	chSysUnlockFromISR, %function
 281              	chSysUnlockFromISR:
 282              	.LFB148:
 283              		.loc 3 406 0
 284              		.cfi_startproc
 285              		@ args = 0, pretend = 0, frame = 8
ARM GAS  C:\Users\PCHAUT~1\AppData\Local\Temp\ccOOgULR.s 			page 6


 286              		@ frame_needed = 0, uses_anonymous_args = 0
 287 0000 00B5     		push	{lr}
 288              		.cfi_def_cfa_offset 4
 289              		.cfi_offset 14, -4
 290 0002 83B0     		sub	sp, sp, #12
 291              		.cfi_def_cfa_offset 16
 292              		.loc 3 406 0
 293 0004 094B     		ldr	r3, .L23
 294 0006 1B68     		ldr	r3, [r3]
 295 0008 0193     		str	r3, [sp, #4]
 296              		.loc 3 408 0
 297 000a FFF7FEFF 		bl	_dbg_check_unlock_from_isr
 298              		.loc 3 409 0
 299 000e FFF7FEFF 		bl	_stats_stop_measure_crit_isr
 300              		.loc 3 410 0
 301 0012 FFF7FEFF 		bl	port_unlock_from_isr
 302              		.loc 3 411 0
 303 0016 00BF     		nop
 304 0018 044B     		ldr	r3, .L23
 305 001a 019A     		ldr	r2, [sp, #4]
 306 001c 1B68     		ldr	r3, [r3]
 307 001e 9A42     		cmp	r2, r3
 308 0020 01D0     		beq	.L22
 309 0022 FFF7FEFF 		bl	__stack_chk_fail
 310              	.L22:
 311 0026 03B0     		add	sp, sp, #12
 312              		.cfi_def_cfa_offset 4
 313              		@ sp needed
 314 0028 5DF804FB 		ldr	pc, [sp], #4
 315              	.L24:
 316              		.align	2
 317              	.L23:
 318 002c 00000000 		.word	__stack_chk_guard
 319              		.cfi_endproc
 320              	.LFE148:
 321              		.size	chSysUnlockFromISR, .-chSysUnlockFromISR
 322              		.global	dcmicfg
 323              		.section	.rodata.dcmicfg,"a",%progbits
 324              		.align	2
 325              		.type	dcmicfg, %object
 326              		.size	dcmicfg, 16
 327              	dcmicfg:
 328 0000 00000000 		.word	frameEndCb
 329 0004 00000000 		.word	dmaTransferEndCb
 330 0008 00000000 		.word	dcmiErrorCb
 331 000c 20000000 		.word	32
 332              		.section	.bss.capture_mode,"aw",%nobits
 333              		.type	capture_mode, %object
 334              		.size	capture_mode, 1
 335              	capture_mode:
 336 0000 00       		.space	1
 337              		.section	.bss.image_buff1,"aw",%nobits
 338              		.align	2
 339              		.type	image_buff1, %object
 340              		.size	image_buff1, 4
 341              	image_buff1:
 342 0000 00000000 		.space	4
ARM GAS  C:\Users\PCHAUT~1\AppData\Local\Temp\ccOOgULR.s 			page 7


 343              		.section	.bss.image_buff2,"aw",%nobits
 344              		.align	2
 345              		.type	image_buff2, %object
 346              		.size	image_buff2, 4
 347              	image_buff2:
 348 0000 00000000 		.space	4
 349              		.section	.bss.double_buffering,"aw",%nobits
 350              		.type	double_buffering, %object
 351              		.size	double_buffering, 1
 352              	double_buffering:
 353 0000 00       		.space	1
 354              		.section	.bss.image_ready,"aw",%nobits
 355              		.type	image_ready, %object
 356              		.size	image_ready, 1
 357              	image_ready:
 358 0000 00       		.space	1
 359              		.section	.bss.dcmiErrorFlag,"aw",%nobits
 360              		.type	dcmiErrorFlag, %object
 361              		.size	dcmiErrorFlag, 1
 362              	dcmiErrorFlag:
 363 0000 00       		.space	1
 364              		.section	.bss.dcmi_prepared,"aw",%nobits
 365              		.type	dcmi_prepared, %object
 366              		.size	dcmi_prepared, 1
 367              	dcmi_prepared:
 368 0000 00       		.space	1
 369              		.section	.data.dcmi_lock,"aw",%progbits
 370              		.align	2
 371              		.type	dcmi_lock, %object
 372              		.size	dcmi_lock, 20
 373              	dcmi_lock:
 374 0000 00000000 		.word	dcmi_lock
 375 0004 00000000 		.word	dcmi_lock
 376 0008 00000000 		.word	0
 377 000c 00000000 		.word	0
 378 0010 00000000 		.word	0
 379              		.section	.data.dcmi_condvar,"aw",%progbits
 380              		.align	2
 381              		.type	dcmi_condvar, %object
 382              		.size	dcmi_condvar, 8
 383              	dcmi_condvar:
 384 0000 00000000 		.word	dcmi_condvar
 385 0004 00000000 		.word	dcmi_condvar
 386              		.section	.text.frameEndCb,"ax",%progbits
 387              		.align	1
 388              		.p2align 4,,15
 389              		.global	frameEndCb
 390              		.syntax unified
 391              		.thumb
 392              		.thumb_func
 393              		.fpu fpv4-sp-d16
 394              		.type	frameEndCb, %function
 395              	frameEndCb:
 396              	.LFB256:
 397              		.file 4 "../lib/e-puck2_main-processor/src/camera/dcmi_camera.c"
 398              		.loc 4 33 0
 399              		.cfi_startproc
ARM GAS  C:\Users\PCHAUT~1\AppData\Local\Temp\ccOOgULR.s 			page 8


 400              		@ args = 0, pretend = 0, frame = 16
 401              		@ frame_needed = 0, uses_anonymous_args = 0
 402 0000 00B5     		push	{lr}
 403              		.cfi_def_cfa_offset 4
 404              		.cfi_offset 14, -4
 405 0002 85B0     		sub	sp, sp, #20
 406              		.cfi_def_cfa_offset 24
 407 0004 0190     		str	r0, [sp, #4]
 408              		.loc 4 33 0
 409 0006 0C4B     		ldr	r3, .L27
 410 0008 1B68     		ldr	r3, [r3]
 411 000a 0393     		str	r3, [sp, #12]
 412              		.loc 4 37 0
 413 000c 0B4B     		ldr	r3, .L27+4
 414 000e 0122     		movs	r2, #1
 415 0010 1A70     		strb	r2, [r3]
 416              		.loc 4 38 0
 417 0012 FFF7FEFF 		bl	chSysLockFromISR
 418              		.loc 4 39 0
 419 0016 0A48     		ldr	r0, .L27+8
 420 0018 FFF7FEFF 		bl	chCondBroadcastI
 421              		.loc 4 40 0
 422 001c FFF7FEFF 		bl	chSysUnlockFromISR
 423              		.loc 4 41 0
 424 0020 00BF     		nop
 425 0022 054B     		ldr	r3, .L27
 426 0024 039A     		ldr	r2, [sp, #12]
 427 0026 1B68     		ldr	r3, [r3]
 428 0028 9A42     		cmp	r2, r3
 429 002a 01D0     		beq	.L26
 430 002c FFF7FEFF 		bl	__stack_chk_fail
 431              	.L26:
 432 0030 05B0     		add	sp, sp, #20
 433              		.cfi_def_cfa_offset 4
 434              		@ sp needed
 435 0032 5DF804FB 		ldr	pc, [sp], #4
 436              	.L28:
 437 0036 00BF     		.align	2
 438              	.L27:
 439 0038 00000000 		.word	__stack_chk_guard
 440 003c 00000000 		.word	image_ready
 441 0040 00000000 		.word	dcmi_condvar
 442              		.cfi_endproc
 443              	.LFE256:
 444              		.size	frameEndCb, .-frameEndCb
 445              		.section	.text.dmaTransferEndCb,"ax",%progbits
 446              		.align	1
 447              		.p2align 4,,15
 448              		.global	dmaTransferEndCb
 449              		.syntax unified
 450              		.thumb
 451              		.thumb_func
 452              		.fpu fpv4-sp-d16
 453              		.type	dmaTransferEndCb, %function
 454              	dmaTransferEndCb:
 455              	.LFB257:
 456              		.loc 4 45 0
ARM GAS  C:\Users\PCHAUT~1\AppData\Local\Temp\ccOOgULR.s 			page 9


 457              		.cfi_startproc
 458              		@ args = 0, pretend = 0, frame = 16
 459              		@ frame_needed = 0, uses_anonymous_args = 0
 460 0000 00B5     		push	{lr}
 461              		.cfi_def_cfa_offset 4
 462              		.cfi_offset 14, -4
 463 0002 85B0     		sub	sp, sp, #20
 464              		.cfi_def_cfa_offset 24
 465 0004 0190     		str	r0, [sp, #4]
 466              		.loc 4 45 0
 467 0006 074B     		ldr	r3, .L31
 468 0008 1B68     		ldr	r3, [r3]
 469 000a 0393     		str	r3, [sp, #12]
 470              		.loc 4 49 0
 471 000c 00BF     		nop
 472 000e 054B     		ldr	r3, .L31
 473 0010 039A     		ldr	r2, [sp, #12]
 474 0012 1B68     		ldr	r3, [r3]
 475 0014 9A42     		cmp	r2, r3
 476 0016 01D0     		beq	.L30
 477 0018 FFF7FEFF 		bl	__stack_chk_fail
 478              	.L30:
 479 001c 05B0     		add	sp, sp, #20
 480              		.cfi_def_cfa_offset 4
 481              		@ sp needed
 482 001e 5DF804FB 		ldr	pc, [sp], #4
 483              	.L32:
 484 0022 00BF     		.align	2
 485              	.L31:
 486 0024 00000000 		.word	__stack_chk_guard
 487              		.cfi_endproc
 488              	.LFE257:
 489              		.size	dmaTransferEndCb, .-dmaTransferEndCb
 490              		.section	.text.dcmiErrorCb,"ax",%progbits
 491              		.align	1
 492              		.p2align 4,,15
 493              		.global	dcmiErrorCb
 494              		.syntax unified
 495              		.thumb
 496              		.thumb_func
 497              		.fpu fpv4-sp-d16
 498              		.type	dcmiErrorCb, %function
 499              	dcmiErrorCb:
 500              	.LFB258:
 501              		.loc 4 51 0
 502              		.cfi_startproc
 503              		@ args = 0, pretend = 0, frame = 16
 504              		@ frame_needed = 0, uses_anonymous_args = 0
 505 0000 00B5     		push	{lr}
 506              		.cfi_def_cfa_offset 4
 507              		.cfi_offset 14, -4
 508 0002 85B0     		sub	sp, sp, #20
 509              		.cfi_def_cfa_offset 24
 510 0004 0190     		str	r0, [sp, #4]
 511 0006 0B46     		mov	r3, r1
 512 0008 8DF80330 		strb	r3, [sp, #3]
 513              		.loc 4 51 0
ARM GAS  C:\Users\PCHAUT~1\AppData\Local\Temp\ccOOgULR.s 			page 10


 514 000c 084B     		ldr	r3, .L35
 515 000e 1B68     		ldr	r3, [r3]
 516 0010 0393     		str	r3, [sp, #12]
 517              		.loc 4 54 0
 518 0012 084B     		ldr	r3, .L35+4
 519 0014 0122     		movs	r2, #1
 520 0016 1A70     		strb	r2, [r3]
 521              		.loc 4 56 0
 522 0018 00BF     		nop
 523 001a 054B     		ldr	r3, .L35
 524 001c 039A     		ldr	r2, [sp, #12]
 525 001e 1B68     		ldr	r3, [r3]
 526 0020 9A42     		cmp	r2, r3
 527 0022 01D0     		beq	.L34
 528 0024 FFF7FEFF 		bl	__stack_chk_fail
 529              	.L34:
 530 0028 05B0     		add	sp, sp, #20
 531              		.cfi_def_cfa_offset 4
 532              		@ sp needed
 533 002a 5DF804FB 		ldr	pc, [sp], #4
 534              	.L36:
 535 002e 00BF     		.align	2
 536              	.L35:
 537 0030 00000000 		.word	__stack_chk_guard
 538 0034 00000000 		.word	dcmiErrorFlag
 539              		.cfi_endproc
 540              	.LFE258:
 541              		.size	dcmiErrorCb, .-dcmiErrorCb
 542              		.section	.text.dcmi_start_one_shot,"ax",%progbits
 543              		.align	1
 544              		.p2align 4,,15
 545              		.global	dcmi_start_one_shot
 546              		.syntax unified
 547              		.thumb
 548              		.thumb_func
 549              		.fpu fpv4-sp-d16
 550              		.type	dcmi_start_one_shot, %function
 551              	dcmi_start_one_shot:
 552              	.LFB259:
 553              		.loc 4 65 0
 554              		.cfi_startproc
 555              		@ args = 0, pretend = 0, frame = 16
 556              		@ frame_needed = 0, uses_anonymous_args = 0
 557 0000 00B5     		push	{lr}
 558              		.cfi_def_cfa_offset 4
 559              		.cfi_offset 14, -4
 560 0002 85B0     		sub	sp, sp, #20
 561              		.cfi_def_cfa_offset 24
 562 0004 0190     		str	r0, [sp, #4]
 563              		.loc 4 65 0
 564 0006 084B     		ldr	r3, .L39
 565 0008 1B68     		ldr	r3, [r3]
 566 000a 0393     		str	r3, [sp, #12]
 567              		.loc 4 66 0
 568 000c 0198     		ldr	r0, [sp, #4]
 569 000e FFF7FEFF 		bl	dcmiStartOneShot
 570              		.loc 4 67 0
ARM GAS  C:\Users\PCHAUT~1\AppData\Local\Temp\ccOOgULR.s 			page 11


 571 0012 00BF     		nop
 572 0014 044B     		ldr	r3, .L39
 573 0016 039A     		ldr	r2, [sp, #12]
 574 0018 1B68     		ldr	r3, [r3]
 575 001a 9A42     		cmp	r2, r3
 576 001c 01D0     		beq	.L38
 577 001e FFF7FEFF 		bl	__stack_chk_fail
 578              	.L38:
 579 0022 05B0     		add	sp, sp, #20
 580              		.cfi_def_cfa_offset 4
 581              		@ sp needed
 582 0024 5DF804FB 		ldr	pc, [sp], #4
 583              	.L40:
 584              		.align	2
 585              	.L39:
 586 0028 00000000 		.word	__stack_chk_guard
 587              		.cfi_endproc
 588              	.LFE259:
 589              		.size	dcmi_start_one_shot, .-dcmi_start_one_shot
 590              		.section	.text.dcmi_start_stream,"ax",%progbits
 591              		.align	1
 592              		.p2align 4,,15
 593              		.global	dcmi_start_stream
 594              		.syntax unified
 595              		.thumb
 596              		.thumb_func
 597              		.fpu fpv4-sp-d16
 598              		.type	dcmi_start_stream, %function
 599              	dcmi_start_stream:
 600              	.LFB260:
 601              		.loc 4 76 0
 602              		.cfi_startproc
 603              		@ args = 0, pretend = 0, frame = 16
 604              		@ frame_needed = 0, uses_anonymous_args = 0
 605 0000 00B5     		push	{lr}
 606              		.cfi_def_cfa_offset 4
 607              		.cfi_offset 14, -4
 608 0002 85B0     		sub	sp, sp, #20
 609              		.cfi_def_cfa_offset 24
 610 0004 0190     		str	r0, [sp, #4]
 611              		.loc 4 76 0
 612 0006 084B     		ldr	r3, .L43
 613 0008 1B68     		ldr	r3, [r3]
 614 000a 0393     		str	r3, [sp, #12]
 615              		.loc 4 77 0
 616 000c 0198     		ldr	r0, [sp, #4]
 617 000e FFF7FEFF 		bl	dcmiStartStream
 618              		.loc 4 78 0
 619 0012 00BF     		nop
 620 0014 044B     		ldr	r3, .L43
 621 0016 039A     		ldr	r2, [sp, #12]
 622 0018 1B68     		ldr	r3, [r3]
 623 001a 9A42     		cmp	r2, r3
 624 001c 01D0     		beq	.L42
 625 001e FFF7FEFF 		bl	__stack_chk_fail
 626              	.L42:
 627 0022 05B0     		add	sp, sp, #20
ARM GAS  C:\Users\PCHAUT~1\AppData\Local\Temp\ccOOgULR.s 			page 12


 628              		.cfi_def_cfa_offset 4
 629              		@ sp needed
 630 0024 5DF804FB 		ldr	pc, [sp], #4
 631              	.L44:
 632              		.align	2
 633              	.L43:
 634 0028 00000000 		.word	__stack_chk_guard
 635              		.cfi_endproc
 636              	.LFE260:
 637              		.size	dcmi_start_stream, .-dcmi_start_stream
 638              		.section	.text.dcmi_stop_stream,"ax",%progbits
 639              		.align	1
 640              		.p2align 4,,15
 641              		.global	dcmi_stop_stream
 642              		.syntax unified
 643              		.thumb
 644              		.thumb_func
 645              		.fpu fpv4-sp-d16
 646              		.type	dcmi_stop_stream, %function
 647              	dcmi_stop_stream:
 648              	.LFB261:
 649              		.loc 4 91 0
 650              		.cfi_startproc
 651              		@ args = 0, pretend = 0, frame = 16
 652              		@ frame_needed = 0, uses_anonymous_args = 0
 653 0000 00B5     		push	{lr}
 654              		.cfi_def_cfa_offset 4
 655              		.cfi_offset 14, -4
 656 0002 85B0     		sub	sp, sp, #20
 657              		.cfi_def_cfa_offset 24
 658 0004 0190     		str	r0, [sp, #4]
 659              		.loc 4 91 0
 660 0006 094B     		ldr	r3, .L48
 661 0008 1B68     		ldr	r3, [r3]
 662 000a 0393     		str	r3, [sp, #12]
 663              		.loc 4 92 0
 664 000c 0198     		ldr	r0, [sp, #4]
 665 000e FFF7FEFF 		bl	dcmiStopStream
 666 0012 0346     		mov	r3, r0
 667              		.loc 4 93 0
 668 0014 1846     		mov	r0, r3
 669 0016 054B     		ldr	r3, .L48
 670 0018 039A     		ldr	r2, [sp, #12]
 671 001a 1B68     		ldr	r3, [r3]
 672 001c 9A42     		cmp	r2, r3
 673 001e 01D0     		beq	.L47
 674 0020 FFF7FEFF 		bl	__stack_chk_fail
 675              	.L47:
 676 0024 05B0     		add	sp, sp, #20
 677              		.cfi_def_cfa_offset 4
 678              		@ sp needed
 679 0026 5DF804FB 		ldr	pc, [sp], #4
 680              	.L49:
 681 002a 00BF     		.align	2
 682              	.L48:
 683 002c 00000000 		.word	__stack_chk_guard
 684              		.cfi_endproc
ARM GAS  C:\Users\PCHAUT~1\AppData\Local\Temp\ccOOgULR.s 			page 13


 685              	.LFE261:
 686              		.size	dcmi_stop_stream, .-dcmi_stop_stream
 687              		.section	.text.dcmi_start,"ax",%progbits
 688              		.align	1
 689              		.p2align 4,,15
 690              		.global	dcmi_start
 691              		.syntax unified
 692              		.thumb
 693              		.thumb_func
 694              		.fpu fpv4-sp-d16
 695              		.type	dcmi_start, %function
 696              	dcmi_start:
 697              	.LFB262:
 698              		.loc 4 100 0
 699              		.cfi_startproc
 700              		@ args = 0, pretend = 0, frame = 8
 701              		@ frame_needed = 0, uses_anonymous_args = 0
 702 0000 00B5     		push	{lr}
 703              		.cfi_def_cfa_offset 4
 704              		.cfi_offset 14, -4
 705 0002 83B0     		sub	sp, sp, #12
 706              		.cfi_def_cfa_offset 16
 707              		.loc 4 100 0
 708 0004 154B     		ldr	r3, .L55
 709 0006 1B68     		ldr	r3, [r3]
 710 0008 0193     		str	r3, [sp, #4]
 711              		.loc 4 101 0
 712 000a FFF7FEFF 		bl	dcmiInit
 713              		.loc 4 102 0
 714 000e 144B     		ldr	r3, .L55+4
 715 0010 1B68     		ldr	r3, [r3]
 716 0012 002B     		cmp	r3, #0
 717 0014 07D0     		beq	.L51
 718              		.loc 4 103 0
 719 0016 124B     		ldr	r3, .L55+4
 720 0018 1B68     		ldr	r3, [r3]
 721 001a 1846     		mov	r0, r3
 722 001c FFF7FEFF 		bl	free
 723              		.loc 4 104 0
 724 0020 0F4B     		ldr	r3, .L55+4
 725 0022 0022     		movs	r2, #0
 726 0024 1A60     		str	r2, [r3]
 727              	.L51:
 728              		.loc 4 106 0
 729 0026 4FF49640 		mov	r0, #19200
 730 002a FFF7FEFF 		bl	malloc
 731 002e 0346     		mov	r3, r0
 732 0030 1A46     		mov	r2, r3
 733 0032 0B4B     		ldr	r3, .L55+4
 734 0034 1A60     		str	r2, [r3]
 735              		.loc 4 107 0
 736 0036 0A4B     		ldr	r3, .L55+4
 737 0038 1B68     		ldr	r3, [r3]
 738 003a 002B     		cmp	r3, #0
 739 003c 02D1     		bne	.L52
 740              		.loc 4 108 0
 741 003e 4FF0FF33 		mov	r3, #-1
ARM GAS  C:\Users\PCHAUT~1\AppData\Local\Temp\ccOOgULR.s 			page 14


 742 0042 00E0     		b	.L53
 743              	.L52:
 744              		.loc 4 110 0
 745 0044 0023     		movs	r3, #0
 746              	.L53:
 747              		.loc 4 111 0
 748 0046 1846     		mov	r0, r3
 749 0048 044B     		ldr	r3, .L55
 750 004a 019A     		ldr	r2, [sp, #4]
 751 004c 1B68     		ldr	r3, [r3]
 752 004e 9A42     		cmp	r2, r3
 753 0050 01D0     		beq	.L54
 754 0052 FFF7FEFF 		bl	__stack_chk_fail
 755              	.L54:
 756 0056 03B0     		add	sp, sp, #12
 757              		.cfi_def_cfa_offset 4
 758              		@ sp needed
 759 0058 5DF804FB 		ldr	pc, [sp], #4
 760              	.L56:
 761              		.align	2
 762              	.L55:
 763 005c 00000000 		.word	__stack_chk_guard
 764 0060 00000000 		.word	image_buff1
 765              		.cfi_endproc
 766              	.LFE262:
 767              		.size	dcmi_start, .-dcmi_start
 768              		.section	.text.dcmi_prepare,"ax",%progbits
 769              		.align	1
 770              		.p2align 4,,15
 771              		.global	dcmi_prepare
 772              		.syntax unified
 773              		.thumb
 774              		.thumb_func
 775              		.fpu fpv4-sp-d16
 776              		.type	dcmi_prepare, %function
 777              	dcmi_prepare:
 778              	.LFB263:
 779              		.loc 4 113 0
 780              		.cfi_startproc
 781              		@ args = 0, pretend = 0, frame = 8
 782              		@ frame_needed = 0, uses_anonymous_args = 0
 783 0000 00B5     		push	{lr}
 784              		.cfi_def_cfa_offset 4
 785              		.cfi_offset 14, -4
 786 0002 85B0     		sub	sp, sp, #20
 787              		.cfi_def_cfa_offset 24
 788              		.loc 4 113 0
 789 0004 1C4B     		ldr	r3, .L63
 790 0006 1B68     		ldr	r3, [r3]
 791 0008 0393     		str	r3, [sp, #12]
 792              		.loc 4 114 0
 793 000a 1C4B     		ldr	r3, .L63+4
 794 000c 1B78     		ldrb	r3, [r3]	@ zero_extendqisi2
 795 000e 012B     		cmp	r3, #1
 796 0010 02D1     		bne	.L58
 797              		.loc 4 115 0
 798 0012 1B48     		ldr	r0, .L63+8
ARM GAS  C:\Users\PCHAUT~1\AppData\Local\Temp\ccOOgULR.s 			page 15


 799 0014 FFF7FEFF 		bl	dcmiUnprepare
 800              	.L58:
 801              		.loc 4 118 0
 802 0018 FFF7FEFF 		bl	po8030_get_image_size
 803 001c 0290     		str	r0, [sp, #8]
 804              		.loc 4 119 0
 805 001e 194B     		ldr	r3, .L63+12
 806 0020 1B78     		ldrb	r3, [r3]	@ zero_extendqisi2
 807 0022 002B     		cmp	r3, #0
 808 0024 06D1     		bne	.L59
 809              		.loc 4 120 0
 810 0026 029B     		ldr	r3, [sp, #8]
 811 0028 B3F5964F 		cmp	r3, #19200
 812 002c 09D9     		bls	.L60
 813              		.loc 4 121 0
 814 002e 4FF0FF33 		mov	r3, #-1
 815 0032 15E0     		b	.L61
 816              	.L59:
 817              		.loc 4 124 0
 818 0034 029B     		ldr	r3, [sp, #8]
 819 0036 B3F5165F 		cmp	r3, #9600
 820 003a 02D9     		bls	.L60
 821              		.loc 4 125 0
 822 003c 4FF0FF33 		mov	r3, #-1
 823 0040 0EE0     		b	.L61
 824              	.L60:
 825              		.loc 4 129 0
 826 0042 114B     		ldr	r3, .L63+16
 827 0044 1A68     		ldr	r2, [r3]
 828 0046 114B     		ldr	r3, .L63+20
 829 0048 1B68     		ldr	r3, [r3]
 830 004a 0093     		str	r3, [sp]
 831 004c 1346     		mov	r3, r2
 832 004e 029A     		ldr	r2, [sp, #8]
 833 0050 0F49     		ldr	r1, .L63+24
 834 0052 0B48     		ldr	r0, .L63+8
 835 0054 FFF7FEFF 		bl	dcmiPrepare
 836              		.loc 4 130 0
 837 0058 084B     		ldr	r3, .L63+4
 838 005a 0122     		movs	r2, #1
 839 005c 1A70     		strb	r2, [r3]
 840              		.loc 4 132 0
 841 005e 0023     		movs	r3, #0
 842              	.L61:
 843              		.loc 4 133 0
 844 0060 1846     		mov	r0, r3
 845 0062 054B     		ldr	r3, .L63
 846 0064 039A     		ldr	r2, [sp, #12]
 847 0066 1B68     		ldr	r3, [r3]
 848 0068 9A42     		cmp	r2, r3
 849 006a 01D0     		beq	.L62
 850 006c FFF7FEFF 		bl	__stack_chk_fail
 851              	.L62:
 852 0070 05B0     		add	sp, sp, #20
 853              		.cfi_def_cfa_offset 4
 854              		@ sp needed
 855 0072 5DF804FB 		ldr	pc, [sp], #4
ARM GAS  C:\Users\PCHAUT~1\AppData\Local\Temp\ccOOgULR.s 			page 16


 856              	.L64:
 857 0076 00BF     		.align	2
 858              	.L63:
 859 0078 00000000 		.word	__stack_chk_guard
 860 007c 00000000 		.word	dcmi_prepared
 861 0080 00000000 		.word	DCMID
 862 0084 00000000 		.word	double_buffering
 863 0088 00000000 		.word	image_buff1
 864 008c 00000000 		.word	image_buff2
 865 0090 00000000 		.word	dcmicfg
 866              		.cfi_endproc
 867              	.LFE263:
 868              		.size	dcmi_prepare, .-dcmi_prepare
 869              		.section	.text.dcmi_unprepare,"ax",%progbits
 870              		.align	1
 871              		.p2align 4,,15
 872              		.global	dcmi_unprepare
 873              		.syntax unified
 874              		.thumb
 875              		.thumb_func
 876              		.fpu fpv4-sp-d16
 877              		.type	dcmi_unprepare, %function
 878              	dcmi_unprepare:
 879              	.LFB264:
 880              		.loc 4 135 0
 881              		.cfi_startproc
 882              		@ args = 0, pretend = 0, frame = 8
 883              		@ frame_needed = 0, uses_anonymous_args = 0
 884 0000 00B5     		push	{lr}
 885              		.cfi_def_cfa_offset 4
 886              		.cfi_offset 14, -4
 887 0002 83B0     		sub	sp, sp, #12
 888              		.cfi_def_cfa_offset 16
 889              		.loc 4 135 0
 890 0004 0B4B     		ldr	r3, .L68
 891 0006 1B68     		ldr	r3, [r3]
 892 0008 0193     		str	r3, [sp, #4]
 893              		.loc 4 136 0
 894 000a 0B4B     		ldr	r3, .L68+4
 895 000c 1B78     		ldrb	r3, [r3]	@ zero_extendqisi2
 896 000e 012B     		cmp	r3, #1
 897 0010 02D1     		bne	.L66
 898              		.loc 4 137 0
 899 0012 0A48     		ldr	r0, .L68+8
 900 0014 FFF7FEFF 		bl	dcmiUnprepare
 901              	.L66:
 902              		.loc 4 139 0
 903 0018 074B     		ldr	r3, .L68+4
 904 001a 0022     		movs	r2, #0
 905 001c 1A70     		strb	r2, [r3]
 906              		.loc 4 140 0
 907 001e 00BF     		nop
 908 0020 044B     		ldr	r3, .L68
 909 0022 019A     		ldr	r2, [sp, #4]
 910 0024 1B68     		ldr	r3, [r3]
 911 0026 9A42     		cmp	r2, r3
 912 0028 01D0     		beq	.L67
ARM GAS  C:\Users\PCHAUT~1\AppData\Local\Temp\ccOOgULR.s 			page 17


 913 002a FFF7FEFF 		bl	__stack_chk_fail
 914              	.L67:
 915 002e 03B0     		add	sp, sp, #12
 916              		.cfi_def_cfa_offset 4
 917              		@ sp needed
 918 0030 5DF804FB 		ldr	pc, [sp], #4
 919              	.L69:
 920              		.align	2
 921              	.L68:
 922 0034 00000000 		.word	__stack_chk_guard
 923 0038 00000000 		.word	dcmi_prepared
 924 003c 00000000 		.word	DCMID
 925              		.cfi_endproc
 926              	.LFE264:
 927              		.size	dcmi_unprepare, .-dcmi_unprepare
 928              		.section	.text.image_is_ready,"ax",%progbits
 929              		.align	1
 930              		.p2align 4,,15
 931              		.global	image_is_ready
 932              		.syntax unified
 933              		.thumb
 934              		.thumb_func
 935              		.fpu fpv4-sp-d16
 936              		.type	image_is_ready, %function
 937              	image_is_ready:
 938              	.LFB265:
 939              		.loc 4 142 0
 940              		.cfi_startproc
 941              		@ args = 0, pretend = 0, frame = 8
 942              		@ frame_needed = 0, uses_anonymous_args = 0
 943 0000 00B5     		push	{lr}
 944              		.cfi_def_cfa_offset 4
 945              		.cfi_offset 14, -4
 946 0002 83B0     		sub	sp, sp, #12
 947              		.cfi_def_cfa_offset 16
 948              		.loc 4 142 0
 949 0004 074B     		ldr	r3, .L73
 950 0006 1B68     		ldr	r3, [r3]
 951 0008 0193     		str	r3, [sp, #4]
 952              		.loc 4 143 0
 953 000a 074B     		ldr	r3, .L73+4
 954 000c 1B78     		ldrb	r3, [r3]	@ zero_extendqisi2
 955              		.loc 4 144 0
 956 000e 1846     		mov	r0, r3
 957 0010 044B     		ldr	r3, .L73
 958 0012 019A     		ldr	r2, [sp, #4]
 959 0014 1B68     		ldr	r3, [r3]
 960 0016 9A42     		cmp	r2, r3
 961 0018 01D0     		beq	.L72
 962 001a FFF7FEFF 		bl	__stack_chk_fail
 963              	.L72:
 964 001e 03B0     		add	sp, sp, #12
 965              		.cfi_def_cfa_offset 4
 966              		@ sp needed
 967 0020 5DF804FB 		ldr	pc, [sp], #4
 968              	.L74:
 969              		.align	2
ARM GAS  C:\Users\PCHAUT~1\AppData\Local\Temp\ccOOgULR.s 			page 18


 970              	.L73:
 971 0024 00000000 		.word	__stack_chk_guard
 972 0028 00000000 		.word	image_ready
 973              		.cfi_endproc
 974              	.LFE265:
 975              		.size	image_is_ready, .-image_is_ready
 976              		.section	.text.wait_image_ready,"ax",%progbits
 977              		.align	1
 978              		.p2align 4,,15
 979              		.global	wait_image_ready
 980              		.syntax unified
 981              		.thumb
 982              		.thumb_func
 983              		.fpu fpv4-sp-d16
 984              		.type	wait_image_ready, %function
 985              	wait_image_ready:
 986              	.LFB266:
 987              		.loc 4 146 0
 988              		.cfi_startproc
 989              		@ args = 0, pretend = 0, frame = 8
 990              		@ frame_needed = 0, uses_anonymous_args = 0
 991 0000 00B5     		push	{lr}
 992              		.cfi_def_cfa_offset 4
 993              		.cfi_offset 14, -4
 994 0002 83B0     		sub	sp, sp, #12
 995              		.cfi_def_cfa_offset 16
 996              		.loc 4 146 0
 997 0004 0B4B     		ldr	r3, .L77
 998 0006 1B68     		ldr	r3, [r3]
 999 0008 0193     		str	r3, [sp, #4]
 1000              		.loc 4 148 0
 1001 000a 0B48     		ldr	r0, .L77+4
 1002 000c FFF7FEFF 		bl	chMtxLock
 1003              		.loc 4 149 0
 1004 0010 0A48     		ldr	r0, .L77+8
 1005 0012 FFF7FEFF 		bl	chCondWait
 1006              		.loc 4 150 0
 1007 0016 0848     		ldr	r0, .L77+4
 1008 0018 FFF7FEFF 		bl	chMtxUnlock
 1009              		.loc 4 151 0
 1010 001c 00BF     		nop
 1011 001e 054B     		ldr	r3, .L77
 1012 0020 019A     		ldr	r2, [sp, #4]
 1013 0022 1B68     		ldr	r3, [r3]
 1014 0024 9A42     		cmp	r2, r3
 1015 0026 01D0     		beq	.L76
 1016 0028 FFF7FEFF 		bl	__stack_chk_fail
 1017              	.L76:
 1018 002c 03B0     		add	sp, sp, #12
 1019              		.cfi_def_cfa_offset 4
 1020              		@ sp needed
 1021 002e 5DF804FB 		ldr	pc, [sp], #4
 1022              	.L78:
 1023 0032 00BF     		.align	2
 1024              	.L77:
 1025 0034 00000000 		.word	__stack_chk_guard
 1026 0038 00000000 		.word	dcmi_lock
ARM GAS  C:\Users\PCHAUT~1\AppData\Local\Temp\ccOOgULR.s 			page 19


 1027 003c 00000000 		.word	dcmi_condvar
 1028              		.cfi_endproc
 1029              	.LFE266:
 1030              		.size	wait_image_ready, .-wait_image_ready
 1031              		.section	.text.dcmi_double_buffering_enabled,"ax",%progbits
 1032              		.align	1
 1033              		.p2align 4,,15
 1034              		.global	dcmi_double_buffering_enabled
 1035              		.syntax unified
 1036              		.thumb
 1037              		.thumb_func
 1038              		.fpu fpv4-sp-d16
 1039              		.type	dcmi_double_buffering_enabled, %function
 1040              	dcmi_double_buffering_enabled:
 1041              	.LFB267:
 1042              		.loc 4 153 0
 1043              		.cfi_startproc
 1044              		@ args = 0, pretend = 0, frame = 8
 1045              		@ frame_needed = 0, uses_anonymous_args = 0
 1046 0000 00B5     		push	{lr}
 1047              		.cfi_def_cfa_offset 4
 1048              		.cfi_offset 14, -4
 1049 0002 83B0     		sub	sp, sp, #12
 1050              		.cfi_def_cfa_offset 16
 1051              		.loc 4 153 0
 1052 0004 074B     		ldr	r3, .L82
 1053 0006 1B68     		ldr	r3, [r3]
 1054 0008 0193     		str	r3, [sp, #4]
 1055              		.loc 4 154 0
 1056 000a 074B     		ldr	r3, .L82+4
 1057 000c 1B78     		ldrb	r3, [r3]	@ zero_extendqisi2
 1058              		.loc 4 155 0
 1059 000e 1846     		mov	r0, r3
 1060 0010 044B     		ldr	r3, .L82
 1061 0012 019A     		ldr	r2, [sp, #4]
 1062 0014 1B68     		ldr	r3, [r3]
 1063 0016 9A42     		cmp	r2, r3
 1064 0018 01D0     		beq	.L81
 1065 001a FFF7FEFF 		bl	__stack_chk_fail
 1066              	.L81:
 1067 001e 03B0     		add	sp, sp, #12
 1068              		.cfi_def_cfa_offset 4
 1069              		@ sp needed
 1070 0020 5DF804FB 		ldr	pc, [sp], #4
 1071              	.L83:
 1072              		.align	2
 1073              	.L82:
 1074 0024 00000000 		.word	__stack_chk_guard
 1075 0028 00000000 		.word	double_buffering
 1076              		.cfi_endproc
 1077              	.LFE267:
 1078              		.size	dcmi_double_buffering_enabled, .-dcmi_double_buffering_enabled
 1079              		.section	.text.dcmi_enable_double_buffering,"ax",%progbits
 1080              		.align	1
 1081              		.p2align 4,,15
 1082              		.global	dcmi_enable_double_buffering
 1083              		.syntax unified
ARM GAS  C:\Users\PCHAUT~1\AppData\Local\Temp\ccOOgULR.s 			page 20


 1084              		.thumb
 1085              		.thumb_func
 1086              		.fpu fpv4-sp-d16
 1087              		.type	dcmi_enable_double_buffering, %function
 1088              	dcmi_enable_double_buffering:
 1089              	.LFB268:
 1090              		.loc 4 157 0
 1091              		.cfi_startproc
 1092              		@ args = 0, pretend = 0, frame = 8
 1093              		@ frame_needed = 0, uses_anonymous_args = 0
 1094 0000 00B5     		push	{lr}
 1095              		.cfi_def_cfa_offset 4
 1096              		.cfi_offset 14, -4
 1097 0002 83B0     		sub	sp, sp, #12
 1098              		.cfi_def_cfa_offset 16
 1099              		.loc 4 157 0
 1100 0004 234B     		ldr	r3, .L91
 1101 0006 1B68     		ldr	r3, [r3]
 1102 0008 0193     		str	r3, [sp, #4]
 1103              		.loc 4 158 0
 1104 000a 234B     		ldr	r3, .L91+4
 1105 000c 0122     		movs	r2, #1
 1106 000e 1A70     		strb	r2, [r3]
 1107              		.loc 4 161 0
 1108 0010 224B     		ldr	r3, .L91+8
 1109 0012 1B68     		ldr	r3, [r3]
 1110 0014 002B     		cmp	r3, #0
 1111 0016 07D0     		beq	.L85
 1112              		.loc 4 162 0
 1113 0018 204B     		ldr	r3, .L91+8
 1114 001a 1B68     		ldr	r3, [r3]
 1115 001c 1846     		mov	r0, r3
 1116 001e FFF7FEFF 		bl	free
 1117              		.loc 4 163 0
 1118 0022 1E4B     		ldr	r3, .L91+8
 1119 0024 0022     		movs	r2, #0
 1120 0026 1A60     		str	r2, [r3]
 1121              	.L85:
 1122              		.loc 4 166 0
 1123 0028 4FF41650 		mov	r0, #9600
 1124 002c FFF7FEFF 		bl	malloc
 1125 0030 0346     		mov	r3, r0
 1126 0032 1A46     		mov	r2, r3
 1127 0034 194B     		ldr	r3, .L91+8
 1128 0036 1A60     		str	r2, [r3]
 1129              		.loc 4 167 0
 1130 0038 184B     		ldr	r3, .L91+8
 1131 003a 1B68     		ldr	r3, [r3]
 1132 003c 002B     		cmp	r3, #0
 1133 003e 02D1     		bne	.L86
 1134              		.loc 4 168 0
 1135 0040 4FF0FF33 		mov	r3, #-1
 1136 0044 1BE0     		b	.L87
 1137              	.L86:
 1138              		.loc 4 171 0
 1139 0046 164B     		ldr	r3, .L91+12
 1140 0048 1B68     		ldr	r3, [r3]
ARM GAS  C:\Users\PCHAUT~1\AppData\Local\Temp\ccOOgULR.s 			page 21


 1141 004a 002B     		cmp	r3, #0
 1142 004c 07D0     		beq	.L88
 1143              		.loc 4 172 0
 1144 004e 144B     		ldr	r3, .L91+12
 1145 0050 1B68     		ldr	r3, [r3]
 1146 0052 1846     		mov	r0, r3
 1147 0054 FFF7FEFF 		bl	free
 1148              		.loc 4 173 0
 1149 0058 114B     		ldr	r3, .L91+12
 1150 005a 0022     		movs	r2, #0
 1151 005c 1A60     		str	r2, [r3]
 1152              	.L88:
 1153              		.loc 4 176 0
 1154 005e 4FF41650 		mov	r0, #9600
 1155 0062 FFF7FEFF 		bl	malloc
 1156 0066 0346     		mov	r3, r0
 1157 0068 1A46     		mov	r2, r3
 1158 006a 0D4B     		ldr	r3, .L91+12
 1159 006c 1A60     		str	r2, [r3]
 1160              		.loc 4 177 0
 1161 006e 0C4B     		ldr	r3, .L91+12
 1162 0070 1B68     		ldr	r3, [r3]
 1163 0072 002B     		cmp	r3, #0
 1164 0074 02D1     		bne	.L89
 1165              		.loc 4 178 0
 1166 0076 4FF0FF33 		mov	r3, #-1
 1167 007a 00E0     		b	.L87
 1168              	.L89:
 1169              		.loc 4 180 0
 1170 007c 0023     		movs	r3, #0
 1171              	.L87:
 1172              		.loc 4 181 0
 1173 007e 1846     		mov	r0, r3
 1174 0080 044B     		ldr	r3, .L91
 1175 0082 019A     		ldr	r2, [sp, #4]
 1176 0084 1B68     		ldr	r3, [r3]
 1177 0086 9A42     		cmp	r2, r3
 1178 0088 01D0     		beq	.L90
 1179 008a FFF7FEFF 		bl	__stack_chk_fail
 1180              	.L90:
 1181 008e 03B0     		add	sp, sp, #12
 1182              		.cfi_def_cfa_offset 4
 1183              		@ sp needed
 1184 0090 5DF804FB 		ldr	pc, [sp], #4
 1185              	.L92:
 1186              		.align	2
 1187              	.L91:
 1188 0094 00000000 		.word	__stack_chk_guard
 1189 0098 00000000 		.word	double_buffering
 1190 009c 00000000 		.word	image_buff1
 1191 00a0 00000000 		.word	image_buff2
 1192              		.cfi_endproc
 1193              	.LFE268:
 1194              		.size	dcmi_enable_double_buffering, .-dcmi_enable_double_buffering
 1195              		.section	.text.dcmi_disable_double_buffering,"ax",%progbits
 1196              		.align	1
 1197              		.p2align 4,,15
ARM GAS  C:\Users\PCHAUT~1\AppData\Local\Temp\ccOOgULR.s 			page 22


 1198              		.global	dcmi_disable_double_buffering
 1199              		.syntax unified
 1200              		.thumb
 1201              		.thumb_func
 1202              		.fpu fpv4-sp-d16
 1203              		.type	dcmi_disable_double_buffering, %function
 1204              	dcmi_disable_double_buffering:
 1205              	.LFB269:
 1206              		.loc 4 183 0
 1207              		.cfi_startproc
 1208              		@ args = 0, pretend = 0, frame = 8
 1209              		@ frame_needed = 0, uses_anonymous_args = 0
 1210 0000 00B5     		push	{lr}
 1211              		.cfi_def_cfa_offset 4
 1212              		.cfi_offset 14, -4
 1213 0002 83B0     		sub	sp, sp, #12
 1214              		.cfi_def_cfa_offset 16
 1215              		.loc 4 183 0
 1216 0004 1C4B     		ldr	r3, .L99
 1217 0006 1B68     		ldr	r3, [r3]
 1218 0008 0193     		str	r3, [sp, #4]
 1219              		.loc 4 184 0
 1220 000a 1C4B     		ldr	r3, .L99+4
 1221 000c 0022     		movs	r2, #0
 1222 000e 1A70     		strb	r2, [r3]
 1223              		.loc 4 187 0
 1224 0010 1B4B     		ldr	r3, .L99+8
 1225 0012 1B68     		ldr	r3, [r3]
 1226 0014 002B     		cmp	r3, #0
 1227 0016 07D0     		beq	.L94
 1228              		.loc 4 188 0
 1229 0018 194B     		ldr	r3, .L99+8
 1230 001a 1B68     		ldr	r3, [r3]
 1231 001c 1846     		mov	r0, r3
 1232 001e FFF7FEFF 		bl	free
 1233              		.loc 4 189 0
 1234 0022 174B     		ldr	r3, .L99+8
 1235 0024 0022     		movs	r2, #0
 1236 0026 1A60     		str	r2, [r3]
 1237              	.L94:
 1238              		.loc 4 192 0
 1239 0028 164B     		ldr	r3, .L99+12
 1240 002a 1B68     		ldr	r3, [r3]
 1241 002c 002B     		cmp	r3, #0
 1242 002e 07D0     		beq	.L95
 1243              		.loc 4 193 0
 1244 0030 144B     		ldr	r3, .L99+12
 1245 0032 1B68     		ldr	r3, [r3]
 1246 0034 1846     		mov	r0, r3
 1247 0036 FFF7FEFF 		bl	free
 1248              		.loc 4 194 0
 1249 003a 124B     		ldr	r3, .L99+12
 1250 003c 0022     		movs	r2, #0
 1251 003e 1A60     		str	r2, [r3]
 1252              	.L95:
 1253              		.loc 4 197 0
 1254 0040 4FF49640 		mov	r0, #19200
ARM GAS  C:\Users\PCHAUT~1\AppData\Local\Temp\ccOOgULR.s 			page 23


 1255 0044 FFF7FEFF 		bl	malloc
 1256 0048 0346     		mov	r3, r0
 1257 004a 1A46     		mov	r2, r3
 1258 004c 0D4B     		ldr	r3, .L99+12
 1259 004e 1A60     		str	r2, [r3]
 1260              		.loc 4 198 0
 1261 0050 0C4B     		ldr	r3, .L99+12
 1262 0052 1B68     		ldr	r3, [r3]
 1263 0054 002B     		cmp	r3, #0
 1264 0056 02D1     		bne	.L96
 1265              		.loc 4 199 0
 1266 0058 4FF0FF33 		mov	r3, #-1
 1267 005c 00E0     		b	.L97
 1268              	.L96:
 1269              		.loc 4 201 0
 1270 005e 0023     		movs	r3, #0
 1271              	.L97:
 1272              		.loc 4 202 0
 1273 0060 1846     		mov	r0, r3
 1274 0062 054B     		ldr	r3, .L99
 1275 0064 019A     		ldr	r2, [sp, #4]
 1276 0066 1B68     		ldr	r3, [r3]
 1277 0068 9A42     		cmp	r2, r3
 1278 006a 01D0     		beq	.L98
 1279 006c FFF7FEFF 		bl	__stack_chk_fail
 1280              	.L98:
 1281 0070 03B0     		add	sp, sp, #12
 1282              		.cfi_def_cfa_offset 4
 1283              		@ sp needed
 1284 0072 5DF804FB 		ldr	pc, [sp], #4
 1285              	.L100:
 1286 0076 00BF     		.align	2
 1287              	.L99:
 1288 0078 00000000 		.word	__stack_chk_guard
 1289 007c 00000000 		.word	double_buffering
 1290 0080 00000000 		.word	image_buff2
 1291 0084 00000000 		.word	image_buff1
 1292              		.cfi_endproc
 1293              	.LFE269:
 1294              		.size	dcmi_disable_double_buffering, .-dcmi_disable_double_buffering
 1295              		.section	.text.dcmi_set_capture_mode,"ax",%progbits
 1296              		.align	1
 1297              		.p2align 4,,15
 1298              		.global	dcmi_set_capture_mode
 1299              		.syntax unified
 1300              		.thumb
 1301              		.thumb_func
 1302              		.fpu fpv4-sp-d16
 1303              		.type	dcmi_set_capture_mode, %function
 1304              	dcmi_set_capture_mode:
 1305              	.LFB270:
 1306              		.loc 4 204 0
 1307              		.cfi_startproc
 1308              		@ args = 0, pretend = 0, frame = 16
 1309              		@ frame_needed = 0, uses_anonymous_args = 0
 1310 0000 00B5     		push	{lr}
 1311              		.cfi_def_cfa_offset 4
ARM GAS  C:\Users\PCHAUT~1\AppData\Local\Temp\ccOOgULR.s 			page 24


 1312              		.cfi_offset 14, -4
 1313 0002 85B0     		sub	sp, sp, #20
 1314              		.cfi_def_cfa_offset 24
 1315 0004 0346     		mov	r3, r0
 1316 0006 8DF80730 		strb	r3, [sp, #7]
 1317              		.loc 4 204 0
 1318 000a 094B     		ldr	r3, .L103
 1319 000c 1B68     		ldr	r3, [r3]
 1320 000e 0393     		str	r3, [sp, #12]
 1321              		.loc 4 205 0
 1322 0010 084A     		ldr	r2, .L103+4
 1323 0012 9DF80730 		ldrb	r3, [sp, #7]
 1324 0016 1370     		strb	r3, [r2]
 1325              		.loc 4 206 0
 1326 0018 00BF     		nop
 1327 001a 054B     		ldr	r3, .L103
 1328 001c 039A     		ldr	r2, [sp, #12]
 1329 001e 1B68     		ldr	r3, [r3]
 1330 0020 9A42     		cmp	r2, r3
 1331 0022 01D0     		beq	.L102
 1332 0024 FFF7FEFF 		bl	__stack_chk_fail
 1333              	.L102:
 1334 0028 05B0     		add	sp, sp, #20
 1335              		.cfi_def_cfa_offset 4
 1336              		@ sp needed
 1337 002a 5DF804FB 		ldr	pc, [sp], #4
 1338              	.L104:
 1339 002e 00BF     		.align	2
 1340              	.L103:
 1341 0030 00000000 		.word	__stack_chk_guard
 1342 0034 00000000 		.word	capture_mode
 1343              		.cfi_endproc
 1344              	.LFE270:
 1345              		.size	dcmi_set_capture_mode, .-dcmi_set_capture_mode
 1346              		.section	.text.dcmi_get_last_image_ptr,"ax",%progbits
 1347              		.align	1
 1348              		.p2align 4,,15
 1349              		.global	dcmi_get_last_image_ptr
 1350              		.syntax unified
 1351              		.thumb
 1352              		.thumb_func
 1353              		.fpu fpv4-sp-d16
 1354              		.type	dcmi_get_last_image_ptr, %function
 1355              	dcmi_get_last_image_ptr:
 1356              	.LFB271:
 1357              		.loc 4 208 0
 1358              		.cfi_startproc
 1359              		@ args = 0, pretend = 0, frame = 8
 1360              		@ frame_needed = 0, uses_anonymous_args = 0
 1361 0000 00B5     		push	{lr}
 1362              		.cfi_def_cfa_offset 4
 1363              		.cfi_offset 14, -4
 1364 0002 83B0     		sub	sp, sp, #12
 1365              		.cfi_def_cfa_offset 16
 1366              		.loc 4 208 0
 1367 0004 104B     		ldr	r3, .L110
 1368 0006 1B68     		ldr	r3, [r3]
ARM GAS  C:\Users\PCHAUT~1\AppData\Local\Temp\ccOOgULR.s 			page 25


 1369 0008 0193     		str	r3, [sp, #4]
 1370              		.loc 4 209 0
 1371 000a 104B     		ldr	r3, .L110+4
 1372 000c 1B78     		ldrb	r3, [r3]	@ zero_extendqisi2
 1373 000e 002B     		cmp	r3, #0
 1374 0010 02D1     		bne	.L106
 1375              		.loc 4 210 0
 1376 0012 0F4B     		ldr	r3, .L110+8
 1377 0014 1B68     		ldr	r3, [r3]
 1378 0016 0CE0     		b	.L107
 1379              	.L106:
 1380              		.loc 4 212 0
 1381 0018 0E4B     		ldr	r3, .L110+12
 1382 001a DB68     		ldr	r3, [r3, #12]
 1383 001c 1B68     		ldr	r3, [r3]
 1384 001e 1B68     		ldr	r3, [r3]
 1385 0020 03F40023 		and	r3, r3, #524288
 1386 0024 002B     		cmp	r3, #0
 1387 0026 02D0     		beq	.L108
 1388              		.loc 4 213 0
 1389 0028 094B     		ldr	r3, .L110+8
 1390 002a 1B68     		ldr	r3, [r3]
 1391 002c 01E0     		b	.L107
 1392              	.L108:
 1393              		.loc 4 215 0
 1394 002e 0A4B     		ldr	r3, .L110+16
 1395 0030 1B68     		ldr	r3, [r3]
 1396              	.L107:
 1397              		.loc 4 218 0
 1398 0032 1846     		mov	r0, r3
 1399 0034 044B     		ldr	r3, .L110
 1400 0036 019A     		ldr	r2, [sp, #4]
 1401 0038 1B68     		ldr	r3, [r3]
 1402 003a 9A42     		cmp	r2, r3
 1403 003c 01D0     		beq	.L109
 1404 003e FFF7FEFF 		bl	__stack_chk_fail
 1405              	.L109:
 1406 0042 03B0     		add	sp, sp, #12
 1407              		.cfi_def_cfa_offset 4
 1408              		@ sp needed
 1409 0044 5DF804FB 		ldr	pc, [sp], #4
 1410              	.L111:
 1411              		.align	2
 1412              	.L110:
 1413 0048 00000000 		.word	__stack_chk_guard
 1414 004c 00000000 		.word	double_buffering
 1415 0050 00000000 		.word	image_buff1
 1416 0054 00000000 		.word	DCMID
 1417 0058 00000000 		.word	image_buff2
 1418              		.cfi_endproc
 1419              	.LFE271:
 1420              		.size	dcmi_get_last_image_ptr, .-dcmi_get_last_image_ptr
 1421              		.section	.text.dcmi_get_first_buffer_ptr,"ax",%progbits
 1422              		.align	1
 1423              		.p2align 4,,15
 1424              		.global	dcmi_get_first_buffer_ptr
 1425              		.syntax unified
ARM GAS  C:\Users\PCHAUT~1\AppData\Local\Temp\ccOOgULR.s 			page 26


 1426              		.thumb
 1427              		.thumb_func
 1428              		.fpu fpv4-sp-d16
 1429              		.type	dcmi_get_first_buffer_ptr, %function
 1430              	dcmi_get_first_buffer_ptr:
 1431              	.LFB272:
 1432              		.loc 4 220 0
 1433              		.cfi_startproc
 1434              		@ args = 0, pretend = 0, frame = 8
 1435              		@ frame_needed = 0, uses_anonymous_args = 0
 1436 0000 00B5     		push	{lr}
 1437              		.cfi_def_cfa_offset 4
 1438              		.cfi_offset 14, -4
 1439 0002 83B0     		sub	sp, sp, #12
 1440              		.cfi_def_cfa_offset 16
 1441              		.loc 4 220 0
 1442 0004 074B     		ldr	r3, .L115
 1443 0006 1B68     		ldr	r3, [r3]
 1444 0008 0193     		str	r3, [sp, #4]
 1445              		.loc 4 221 0
 1446 000a 074B     		ldr	r3, .L115+4
 1447 000c 1B68     		ldr	r3, [r3]
 1448              		.loc 4 222 0
 1449 000e 1846     		mov	r0, r3
 1450 0010 044B     		ldr	r3, .L115
 1451 0012 019A     		ldr	r2, [sp, #4]
 1452 0014 1B68     		ldr	r3, [r3]
 1453 0016 9A42     		cmp	r2, r3
 1454 0018 01D0     		beq	.L114
 1455 001a FFF7FEFF 		bl	__stack_chk_fail
 1456              	.L114:
 1457 001e 03B0     		add	sp, sp, #12
 1458              		.cfi_def_cfa_offset 4
 1459              		@ sp needed
 1460 0020 5DF804FB 		ldr	pc, [sp], #4
 1461              	.L116:
 1462              		.align	2
 1463              	.L115:
 1464 0024 00000000 		.word	__stack_chk_guard
 1465 0028 00000000 		.word	image_buff1
 1466              		.cfi_endproc
 1467              	.LFE272:
 1468              		.size	dcmi_get_first_buffer_ptr, .-dcmi_get_first_buffer_ptr
 1469              		.section	.text.dcmi_get_second_buffer_ptr,"ax",%progbits
 1470              		.align	1
 1471              		.p2align 4,,15
 1472              		.global	dcmi_get_second_buffer_ptr
 1473              		.syntax unified
 1474              		.thumb
 1475              		.thumb_func
 1476              		.fpu fpv4-sp-d16
 1477              		.type	dcmi_get_second_buffer_ptr, %function
 1478              	dcmi_get_second_buffer_ptr:
 1479              	.LFB273:
 1480              		.loc 4 224 0
 1481              		.cfi_startproc
 1482              		@ args = 0, pretend = 0, frame = 8
ARM GAS  C:\Users\PCHAUT~1\AppData\Local\Temp\ccOOgULR.s 			page 27


 1483              		@ frame_needed = 0, uses_anonymous_args = 0
 1484 0000 00B5     		push	{lr}
 1485              		.cfi_def_cfa_offset 4
 1486              		.cfi_offset 14, -4
 1487 0002 83B0     		sub	sp, sp, #12
 1488              		.cfi_def_cfa_offset 16
 1489              		.loc 4 224 0
 1490 0004 074B     		ldr	r3, .L120
 1491 0006 1B68     		ldr	r3, [r3]
 1492 0008 0193     		str	r3, [sp, #4]
 1493              		.loc 4 225 0
 1494 000a 074B     		ldr	r3, .L120+4
 1495 000c 1B68     		ldr	r3, [r3]
 1496              		.loc 4 226 0
 1497 000e 1846     		mov	r0, r3
 1498 0010 044B     		ldr	r3, .L120
 1499 0012 019A     		ldr	r2, [sp, #4]
 1500 0014 1B68     		ldr	r3, [r3]
 1501 0016 9A42     		cmp	r2, r3
 1502 0018 01D0     		beq	.L119
 1503 001a FFF7FEFF 		bl	__stack_chk_fail
 1504              	.L119:
 1505 001e 03B0     		add	sp, sp, #12
 1506              		.cfi_def_cfa_offset 4
 1507              		@ sp needed
 1508 0020 5DF804FB 		ldr	pc, [sp], #4
 1509              	.L121:
 1510              		.align	2
 1511              	.L120:
 1512 0024 00000000 		.word	__stack_chk_guard
 1513 0028 00000000 		.word	image_buff2
 1514              		.cfi_endproc
 1515              	.LFE273:
 1516              		.size	dcmi_get_second_buffer_ptr, .-dcmi_get_second_buffer_ptr
 1517              		.section	.text.dcmi_capture_start,"ax",%progbits
 1518              		.align	1
 1519              		.p2align 4,,15
 1520              		.global	dcmi_capture_start
 1521              		.syntax unified
 1522              		.thumb
 1523              		.thumb_func
 1524              		.fpu fpv4-sp-d16
 1525              		.type	dcmi_capture_start, %function
 1526              	dcmi_capture_start:
 1527              	.LFB274:
 1528              		.loc 4 228 0
 1529              		.cfi_startproc
 1530              		@ args = 0, pretend = 0, frame = 8
 1531              		@ frame_needed = 0, uses_anonymous_args = 0
 1532 0000 00B5     		push	{lr}
 1533              		.cfi_def_cfa_offset 4
 1534              		.cfi_offset 14, -4
 1535 0002 83B0     		sub	sp, sp, #12
 1536              		.cfi_def_cfa_offset 16
 1537              		.loc 4 228 0
 1538 0004 0C4B     		ldr	r3, .L127
 1539 0006 1B68     		ldr	r3, [r3]
ARM GAS  C:\Users\PCHAUT~1\AppData\Local\Temp\ccOOgULR.s 			page 28


 1540 0008 0193     		str	r3, [sp, #4]
 1541              		.loc 4 229 0
 1542 000a 0C4B     		ldr	r3, .L127+4
 1543 000c 1B78     		ldrb	r3, [r3]	@ zero_extendqisi2
 1544 000e 002B     		cmp	r3, #0
 1545 0010 03D1     		bne	.L123
 1546              		.loc 4 230 0
 1547 0012 0B48     		ldr	r0, .L127+8
 1548 0014 FFF7FEFF 		bl	dcmi_start_one_shot
 1549              		.loc 4 234 0
 1550 0018 02E0     		b	.L126
 1551              	.L123:
 1552              		.loc 4 232 0
 1553 001a 0948     		ldr	r0, .L127+8
 1554 001c FFF7FEFF 		bl	dcmi_start_stream
 1555              	.L126:
 1556              		.loc 4 234 0
 1557 0020 00BF     		nop
 1558 0022 054B     		ldr	r3, .L127
 1559 0024 019A     		ldr	r2, [sp, #4]
 1560 0026 1B68     		ldr	r3, [r3]
 1561 0028 9A42     		cmp	r2, r3
 1562 002a 01D0     		beq	.L125
 1563 002c FFF7FEFF 		bl	__stack_chk_fail
 1564              	.L125:
 1565 0030 03B0     		add	sp, sp, #12
 1566              		.cfi_def_cfa_offset 4
 1567              		@ sp needed
 1568 0032 5DF804FB 		ldr	pc, [sp], #4
 1569              	.L128:
 1570 0036 00BF     		.align	2
 1571              	.L127:
 1572 0038 00000000 		.word	__stack_chk_guard
 1573 003c 00000000 		.word	capture_mode
 1574 0040 00000000 		.word	DCMID
 1575              		.cfi_endproc
 1576              	.LFE274:
 1577              		.size	dcmi_capture_start, .-dcmi_capture_start
 1578              		.section	.text.dcmi_capture_stop,"ax",%progbits
 1579              		.align	1
 1580              		.p2align 4,,15
 1581              		.global	dcmi_capture_stop
 1582              		.syntax unified
 1583              		.thumb
 1584              		.thumb_func
 1585              		.fpu fpv4-sp-d16
 1586              		.type	dcmi_capture_stop, %function
 1587              	dcmi_capture_stop:
 1588              	.LFB275:
 1589              		.loc 4 236 0
 1590              		.cfi_startproc
 1591              		@ args = 0, pretend = 0, frame = 8
 1592              		@ frame_needed = 0, uses_anonymous_args = 0
 1593 0000 00B5     		push	{lr}
 1594              		.cfi_def_cfa_offset 4
 1595              		.cfi_offset 14, -4
 1596 0002 83B0     		sub	sp, sp, #12
ARM GAS  C:\Users\PCHAUT~1\AppData\Local\Temp\ccOOgULR.s 			page 29


 1597              		.cfi_def_cfa_offset 16
 1598              		.loc 4 236 0
 1599 0004 0B4B     		ldr	r3, .L133
 1600 0006 1B68     		ldr	r3, [r3]
 1601 0008 0193     		str	r3, [sp, #4]
 1602              		.loc 4 237 0
 1603 000a 0B4B     		ldr	r3, .L133+4
 1604 000c 1B78     		ldrb	r3, [r3]	@ zero_extendqisi2
 1605 000e 002B     		cmp	r3, #0
 1606 0010 01D1     		bne	.L130
 1607              		.loc 4 238 0
 1608 0012 0023     		movs	r3, #0
 1609 0014 03E0     		b	.L131
 1610              	.L130:
 1611              		.loc 4 240 0
 1612 0016 0948     		ldr	r0, .L133+8
 1613 0018 FFF7FEFF 		bl	dcmi_stop_stream
 1614 001c 0346     		mov	r3, r0
 1615              	.L131:
 1616              		.loc 4 242 0
 1617 001e 1846     		mov	r0, r3
 1618 0020 044B     		ldr	r3, .L133
 1619 0022 019A     		ldr	r2, [sp, #4]
 1620 0024 1B68     		ldr	r3, [r3]
 1621 0026 9A42     		cmp	r2, r3
 1622 0028 01D0     		beq	.L132
 1623 002a FFF7FEFF 		bl	__stack_chk_fail
 1624              	.L132:
 1625 002e 03B0     		add	sp, sp, #12
 1626              		.cfi_def_cfa_offset 4
 1627              		@ sp needed
 1628 0030 5DF804FB 		ldr	pc, [sp], #4
 1629              	.L134:
 1630              		.align	2
 1631              	.L133:
 1632 0034 00000000 		.word	__stack_chk_guard
 1633 0038 00000000 		.word	capture_mode
 1634 003c 00000000 		.word	DCMID
 1635              		.cfi_endproc
 1636              	.LFE275:
 1637              		.size	dcmi_capture_stop, .-dcmi_capture_stop
 1638              		.text
 1639              	.Letext0:
 1640              		.file 5 "c:\\users\\pchautems\\documents\\robotiquetp\\eclipse_e-puck2\\tools\\gcc-arm-none-eabi-7
 1641              		.file 6 "c:\\users\\pchautems\\documents\\robotiquetp\\eclipse_e-puck2\\tools\\gcc-arm-none-eabi-7
 1642              		.file 7 "c:\\users\\pchautems\\documents\\robotiquetp\\eclipse_e-puck2\\tools\\gcc-arm-none-eabi-7
 1643              		.file 8 "../lib/e-puck2_main-processor/ChibiOS//os/rt/ports/ARMCMx/compilers/GCC/chtypes.h"
 1644              		.file 9 "../lib/e-puck2_main-processor/ChibiOS//os/rt/include/chsystypes.h"
 1645              		.file 10 "../lib/e-puck2_main-processor/ChibiOS//os/rt/include/chschd.h"
 1646              		.file 11 "../lib/e-puck2_main-processor/ChibiOS//os/ext/CMSIS/include/core_cm4.h"
 1647              		.file 12 "../lib/e-puck2_main-processor/ChibiOS//os/ext/CMSIS/ST/system_stm32f4xx.h"
 1648              		.file 13 "../lib/e-puck2_main-processor/ChibiOS//os/ext/CMSIS/ST/stm32f407xx.h"
 1649              		.file 14 "../lib/e-puck2_main-processor/ChibiOS//os/rt/ports/ARMCMx/chcore.h"
 1650              		.file 15 "../lib/e-puck2_main-processor/ChibiOS//os/rt/include/chdebug.h"
 1651              		.file 16 "../lib/e-puck2_main-processor/ChibiOS//os/rt/include/chtm.h"
 1652              		.file 17 "../lib/e-puck2_main-processor/ChibiOS//os/rt/include/chstats.h"
 1653              		.file 18 "../lib/e-puck2_main-processor/ChibiOS//os/rt/include/chsem.h"
ARM GAS  C:\Users\PCHAUT~1\AppData\Local\Temp\ccOOgULR.s 			page 30


 1654              		.file 19 "../lib/e-puck2_main-processor/ChibiOS//os/rt/include/chmtx.h"
 1655              		.file 20 "../lib/e-puck2_main-processor/ChibiOS//os/rt/include/chregistry.h"
 1656              		.file 21 "../lib/e-puck2_main-processor/ChibiOS//os/rt/include/chcond.h"
 1657              		.file 22 "../lib/e-puck2_main-processor/ChibiOS//os/rt/include/chevents.h"
 1658              		.file 23 "../lib/e-puck2_main-processor/ChibiOS//os/rt/include/chqueues.h"
 1659              		.file 24 "../lib/e-puck2_main-processor/ChibiOS//os/hal/ports/STM32/STM32F4xx/stm32_dma.h"
 1660              		.file 25 "../lib/e-puck2_main-processor/ChibiOS//os/hal/include/hal_ioblock.h"
 1661              		.file 26 "../lib/e-puck2_main-processor/ChibiOS//os/hal/ports/STM32/LLD/GPIOv2/pal_lld.h"
 1662              		.file 27 "../lib/e-puck2_main-processor/ChibiOS//os/hal/include/adc.h"
 1663              		.file 28 "../lib/e-puck2_main-processor/ChibiOS//os/hal/ports/STM32/STM32F4xx/adc_lld.h"
 1664              		.file 29 "../lib/e-puck2_main-processor/ChibiOS//os/hal/include/can.h"
 1665              		.file 30 "../lib/e-puck2_main-processor/ChibiOS//os/hal/ports/STM32/LLD/can_lld.h"
 1666              		.file 31 "../lib/e-puck2_main-processor/ChibiOS//os/hal/include/dac.h"
 1667              		.file 32 "../lib/e-puck2_main-processor/ChibiOS//os/hal/ports/STM32/LLD/DACv1/dac_lld.h"
 1668              		.file 33 "../lib/e-puck2_main-processor/ChibiOS//os/hal/include/ext.h"
 1669              		.file 34 "../lib/e-puck2_main-processor/ChibiOS//os/hal/ports/STM32/LLD/ext_lld.h"
 1670              		.file 35 "../lib/e-puck2_main-processor/ChibiOS//os/hal/include/gpt.h"
 1671              		.file 36 "../lib/e-puck2_main-processor/ChibiOS//os/hal/ports/STM32/LLD/TIMv1/gpt_lld.h"
 1672              		.file 37 "../lib/e-puck2_main-processor/ChibiOS//os/hal/ports/STM32/LLD/TIMv1/stm32_tim.h"
 1673              		.file 38 "../lib/e-puck2_main-processor/ChibiOS//os/hal/include/i2c.h"
 1674              		.file 39 "../lib/e-puck2_main-processor/ChibiOS//os/hal/ports/STM32/LLD/I2Cv1/i2c_lld.h"
 1675              		.file 40 "../lib/e-puck2_main-processor/ChibiOS//os/hal/include/i2s.h"
 1676              		.file 41 "../lib/e-puck2_main-processor/ChibiOS//os/hal/ports/STM32/LLD/SPIv1/i2s_lld.h"
 1677              		.file 42 "../lib/e-puck2_main-processor/ChibiOS//os/hal/include/pwm.h"
 1678              		.file 43 "../lib/e-puck2_main-processor/ChibiOS//os/hal/ports/STM32/LLD/TIMv1/pwm_lld.h"
 1679              		.file 44 "../lib/e-puck2_main-processor/ChibiOS//os/hal/include/serial.h"
 1680              		.file 45 "../lib/e-puck2_main-processor/ChibiOS//os/hal/ports/STM32/LLD/USARTv1/serial_lld.h"
 1681              		.file 46 "../lib/e-puck2_main-processor/ChibiOS//os/hal/include/sdc.h"
 1682              		.file 47 "../lib/e-puck2_main-processor/ChibiOS//os/hal/ports/STM32/LLD/sdc_lld.h"
 1683              		.file 48 "../lib/e-puck2_main-processor/ChibiOS//os/hal/include/spi.h"
 1684              		.file 49 "../lib/e-puck2_main-processor/ChibiOS//os/hal/ports/STM32/LLD/SPIv1/spi_lld.h"
 1685              		.file 50 "../lib/e-puck2_main-processor/ChibiOS//os/hal/include/usb.h"
 1686              		.file 51 "../lib/e-puck2_main-processor/ChibiOS//os/hal/ports/STM32/LLD/OTGv1/usb_lld.h"
 1687              		.file 52 "../lib/e-puck2_main-processor/ChibiOS//os/hal/ports/STM32/LLD/OTGv1/stm32_otg.h"
 1688              		.file 53 "c:\\users\\pchautems\\documents\\robotiquetp\\eclipse_e-puck2\\tools\\gcc-arm-none-eabi-
 1689              		.file 54 "c:\\users\\pchautems\\documents\\robotiquetp\\eclipse_e-puck2\\tools\\gcc-arm-none-eabi-
 1690              		.file 55 "c:\\users\\pchautems\\documents\\robotiquetp\\eclipse_e-puck2\\tools\\gcc-arm-none-eabi-
 1691              		.file 56 "c:\\users\\pchautems\\documents\\robotiquetp\\eclipse_e-puck2\\tools\\gcc-arm-none-eabi-
 1692              		.file 57 "../lib/e-puck2_main-processor/ChibiOS_ext/os/hal/include/../ports/STM32/STM32F4xx/dcmi_l
 1693              		.file 58 "../lib/e-puck2_main-processor/src/camera/dcmi_camera.h"