ARM GAS  C:\Users\PCHAUT~1\AppData\Local\Temp\ccSD9CGn.s 			page 1


   1              		.cpu cortex-m4
   2              		.eabi_attribute 27, 1
   3              		.eabi_attribute 28, 1
   4              		.eabi_attribute 20, 1
   5              		.eabi_attribute 21, 1
   6              		.eabi_attribute 23, 3
   7              		.eabi_attribute 24, 1
   8              		.eabi_attribute 25, 1
   9              		.eabi_attribute 26, 1
  10              		.eabi_attribute 30, 6
  11              		.eabi_attribute 34, 1
  12              		.eabi_attribute 18, 4
  13              		.file	"dcmi_lld.c"
  14              		.text
  15              	.Ltext0:
  16              		.cfi_sections	.debug_frame
  17              		.section	.text.chVTGetSystemTimeX,"ax",%progbits
  18              		.align	1
  19              		.p2align 4,,15
  20              		.syntax unified
  21              		.thumb
  22              		.thumb_func
  23              		.fpu fpv4-sp-d16
  24              		.type	chVTGetSystemTimeX, %function
  25              	chVTGetSystemTimeX:
  26              	.LFB153:
  27              		.file 1 "../lib/e-puck2_main-processor/ChibiOS//os/rt/include/chvt.h"
  28              		.loc 1 228 0
  29              		.cfi_startproc
  30              		@ args = 0, pretend = 0, frame = 8
  31              		@ frame_needed = 0, uses_anonymous_args = 0
  32 0000 00B5     		push	{lr}
  33              		.cfi_def_cfa_offset 4
  34              		.cfi_offset 14, -4
  35 0002 83B0     		sub	sp, sp, #12
  36              		.cfi_def_cfa_offset 16
  37              		.loc 1 228 0
  38 0004 074B     		ldr	r3, .L4
  39 0006 1B68     		ldr	r3, [r3]
  40 0008 0193     		str	r3, [sp, #4]
  41              		.loc 1 231 0
  42 000a 074B     		ldr	r3, .L4+4
  43 000c 9B6A     		ldr	r3, [r3, #40]
  44              		.loc 1 235 0
  45 000e 1846     		mov	r0, r3
  46 0010 044B     		ldr	r3, .L4
  47 0012 019A     		ldr	r2, [sp, #4]
  48 0014 1B68     		ldr	r3, [r3]
  49 0016 9A42     		cmp	r2, r3
  50 0018 01D0     		beq	.L3
  51 001a FFF7FEFF 		bl	__stack_chk_fail
  52              	.L3:
  53 001e 03B0     		add	sp, sp, #12
  54              		.cfi_def_cfa_offset 4
  55              		@ sp needed
  56 0020 5DF804FB 		ldr	pc, [sp], #4
  57              	.L5:
ARM GAS  C:\Users\PCHAUT~1\AppData\Local\Temp\ccSD9CGn.s 			page 2


  58              		.align	2
  59              	.L4:
  60 0024 00000000 		.word	__stack_chk_guard
  61 0028 00000000 		.word	ch
  62              		.cfi_endproc
  63              	.LFE153:
  64              		.size	chVTGetSystemTimeX, .-chVTGetSystemTimeX
  65              		.section	.text.chVTIsTimeWithinX,"ax",%progbits
  66              		.align	1
  67              		.p2align 4,,15
  68              		.syntax unified
  69              		.thumb
  70              		.thumb_func
  71              		.fpu fpv4-sp-d16
  72              		.type	chVTIsTimeWithinX, %function
  73              	chVTIsTimeWithinX:
  74              	.LFB156:
  75              		.loc 1 286 0
  76              		.cfi_startproc
  77              		@ args = 0, pretend = 0, frame = 24
  78              		@ frame_needed = 0, uses_anonymous_args = 0
  79 0000 00B5     		push	{lr}
  80              		.cfi_def_cfa_offset 4
  81              		.cfi_offset 14, -4
  82 0002 87B0     		sub	sp, sp, #28
  83              		.cfi_def_cfa_offset 32
  84 0004 0390     		str	r0, [sp, #12]
  85 0006 0291     		str	r1, [sp, #8]
  86 0008 0192     		str	r2, [sp, #4]
  87              		.loc 1 286 0
  88 000a 0C4B     		ldr	r3, .L9
  89 000c 1B68     		ldr	r3, [r3]
  90 000e 0593     		str	r3, [sp, #20]
  91              		.loc 1 288 0
  92 0010 039A     		ldr	r2, [sp, #12]
  93 0012 029B     		ldr	r3, [sp, #8]
  94 0014 D21A     		subs	r2, r2, r3
  95 0016 0199     		ldr	r1, [sp, #4]
  96 0018 029B     		ldr	r3, [sp, #8]
  97 001a CB1A     		subs	r3, r1, r3
  98 001c 9A42     		cmp	r2, r3
  99 001e 34BF     		ite	cc
 100 0020 0123     		movcc	r3, #1
 101 0022 0023     		movcs	r3, #0
 102 0024 DBB2     		uxtb	r3, r3
 103              		.loc 1 289 0
 104 0026 1846     		mov	r0, r3
 105 0028 044B     		ldr	r3, .L9
 106 002a 059A     		ldr	r2, [sp, #20]
 107 002c 1B68     		ldr	r3, [r3]
 108 002e 9A42     		cmp	r2, r3
 109 0030 01D0     		beq	.L8
 110 0032 FFF7FEFF 		bl	__stack_chk_fail
 111              	.L8:
 112 0036 07B0     		add	sp, sp, #28
 113              		.cfi_def_cfa_offset 4
 114              		@ sp needed
ARM GAS  C:\Users\PCHAUT~1\AppData\Local\Temp\ccSD9CGn.s 			page 3


 115 0038 5DF804FB 		ldr	pc, [sp], #4
 116              	.L10:
 117              		.align	2
 118              	.L9:
 119 003c 00000000 		.word	__stack_chk_guard
 120              		.cfi_endproc
 121              	.LFE156:
 122              		.size	chVTIsTimeWithinX, .-chVTIsTimeWithinX
 123              		.section	.text.osalOsGetSystemTimeX,"ax",%progbits
 124              		.align	1
 125              		.p2align 4,,15
 126              		.syntax unified
 127              		.thumb
 128              		.thumb_func
 129              		.fpu fpv4-sp-d16
 130              		.type	osalOsGetSystemTimeX, %function
 131              	osalOsGetSystemTimeX:
 132              	.LFB232:
 133              		.file 2 "../lib/e-puck2_main-processor/ChibiOS//os/hal/osal/rt/osal.h"
 134              		.loc 2 570 0
 135              		.cfi_startproc
 136              		@ args = 0, pretend = 0, frame = 8
 137              		@ frame_needed = 0, uses_anonymous_args = 0
 138 0000 00B5     		push	{lr}
 139              		.cfi_def_cfa_offset 4
 140              		.cfi_offset 14, -4
 141 0002 83B0     		sub	sp, sp, #12
 142              		.cfi_def_cfa_offset 16
 143              		.loc 2 570 0
 144 0004 084B     		ldr	r3, .L14
 145 0006 1B68     		ldr	r3, [r3]
 146 0008 0193     		str	r3, [sp, #4]
 147              		.loc 2 572 0
 148 000a FFF7FEFF 		bl	chVTGetSystemTimeX
 149 000e 0346     		mov	r3, r0
 150              		.loc 2 573 0
 151 0010 1846     		mov	r0, r3
 152 0012 054B     		ldr	r3, .L14
 153 0014 019A     		ldr	r2, [sp, #4]
 154 0016 1B68     		ldr	r3, [r3]
 155 0018 9A42     		cmp	r2, r3
 156 001a 01D0     		beq	.L13
 157 001c FFF7FEFF 		bl	__stack_chk_fail
 158              	.L13:
 159 0020 03B0     		add	sp, sp, #12
 160              		.cfi_def_cfa_offset 4
 161              		@ sp needed
 162 0022 5DF804FB 		ldr	pc, [sp], #4
 163              	.L15:
 164 0026 00BF     		.align	2
 165              	.L14:
 166 0028 00000000 		.word	__stack_chk_guard
 167              		.cfi_endproc
 168              	.LFE232:
 169              		.size	osalOsGetSystemTimeX, .-osalOsGetSystemTimeX
 170              		.section	.text.osalOsIsTimeWithinX,"ax",%progbits
 171              		.align	1
ARM GAS  C:\Users\PCHAUT~1\AppData\Local\Temp\ccSD9CGn.s 			page 4


 172              		.p2align 4,,15
 173              		.syntax unified
 174              		.thumb
 175              		.thumb_func
 176              		.fpu fpv4-sp-d16
 177              		.type	osalOsIsTimeWithinX, %function
 178              	osalOsIsTimeWithinX:
 179              	.LFB233:
 180              		.loc 2 591 0
 181              		.cfi_startproc
 182              		@ args = 0, pretend = 0, frame = 24
 183              		@ frame_needed = 0, uses_anonymous_args = 0
 184 0000 00B5     		push	{lr}
 185              		.cfi_def_cfa_offset 4
 186              		.cfi_offset 14, -4
 187 0002 87B0     		sub	sp, sp, #28
 188              		.cfi_def_cfa_offset 32
 189 0004 0390     		str	r0, [sp, #12]
 190 0006 0291     		str	r1, [sp, #8]
 191 0008 0192     		str	r2, [sp, #4]
 192              		.loc 2 591 0
 193 000a 0A4B     		ldr	r3, .L19
 194 000c 1B68     		ldr	r3, [r3]
 195 000e 0593     		str	r3, [sp, #20]
 196              		.loc 2 593 0
 197 0010 019A     		ldr	r2, [sp, #4]
 198 0012 0299     		ldr	r1, [sp, #8]
 199 0014 0398     		ldr	r0, [sp, #12]
 200 0016 FFF7FEFF 		bl	chVTIsTimeWithinX
 201 001a 0346     		mov	r3, r0
 202              		.loc 2 594 0
 203 001c 1846     		mov	r0, r3
 204 001e 054B     		ldr	r3, .L19
 205 0020 059A     		ldr	r2, [sp, #20]
 206 0022 1B68     		ldr	r3, [r3]
 207 0024 9A42     		cmp	r2, r3
 208 0026 01D0     		beq	.L18
 209 0028 FFF7FEFF 		bl	__stack_chk_fail
 210              	.L18:
 211 002c 07B0     		add	sp, sp, #28
 212              		.cfi_def_cfa_offset 4
 213              		@ sp needed
 214 002e 5DF804FB 		ldr	pc, [sp], #4
 215              	.L20:
 216 0032 00BF     		.align	2
 217              	.L19:
 218 0034 00000000 		.word	__stack_chk_guard
 219              		.cfi_endproc
 220              	.LFE233:
 221              		.size	osalOsIsTimeWithinX, .-osalOsIsTimeWithinX
 222              		.global	DCMID
 223              		.section	.bss.DCMID,"aw",%nobits
 224              		.align	2
 225              		.type	DCMID, %object
 226              		.size	DCMID, 20
 227              	DCMID:
 228 0000 00000000 		.space	20
ARM GAS  C:\Users\PCHAUT~1\AppData\Local\Temp\ccSD9CGn.s 			page 5


 228      00000000 
 228      00000000 
 228      00000000 
 228      00000000 
 229              		.section	.text.dcmi_lld_serve_dma_rx_interrupt,"ax",%progbits
 230              		.align	1
 231              		.p2align 4,,15
 232              		.syntax unified
 233              		.thumb
 234              		.thumb_func
 235              		.fpu fpv4-sp-d16
 236              		.type	dcmi_lld_serve_dma_rx_interrupt, %function
 237              	dcmi_lld_serve_dma_rx_interrupt:
 238              	.LFB257:
 239              		.file 3 "../lib/e-puck2_main-processor/ChibiOS_ext/os/hal/ports/STM32/STM32F4xx/dcmi_lld.c"
 240              		.loc 3 63 0
 241              		.cfi_startproc
 242              		@ args = 0, pretend = 0, frame = 16
 243              		@ frame_needed = 0, uses_anonymous_args = 0
 244 0000 00B5     		push	{lr}
 245              		.cfi_def_cfa_offset 4
 246              		.cfi_offset 14, -4
 247 0002 85B0     		sub	sp, sp, #20
 248              		.cfi_def_cfa_offset 24
 249 0004 0190     		str	r0, [sp, #4]
 250 0006 0091     		str	r1, [sp]
 251              		.loc 3 63 0
 252 0008 184B     		ldr	r3, .L27
 253 000a 1B68     		ldr	r3, [r3]
 254 000c 0393     		str	r3, [sp, #12]
 255              		.loc 3 66 0
 256 000e 009B     		ldr	r3, [sp]
 257 0010 03F00C03 		and	r3, r3, #12
 258 0014 002B     		cmp	r3, #0
 259 0016 14D0     		beq	.L22
 260              		.loc 3 67 0
 261 0018 019B     		ldr	r3, [sp, #4]
 262 001a 1B78     		ldrb	r3, [r3]	@ zero_extendqisi2
 263 001c 032B     		cmp	r3, #3
 264 001e 02D1     		bne	.L23
 265              		.loc 3 67 0 is_stmt 0 discriminator 1
 266 0020 0198     		ldr	r0, [sp, #4]
 267 0022 FFF7FEFF 		bl	dcmi_lld_stop_stream
 268              	.L23:
 269              		.loc 3 67 0 discriminator 3
 270 0026 019B     		ldr	r3, [sp, #4]
 271 0028 0622     		movs	r2, #6
 272 002a 1A70     		strb	r2, [r3]
 273 002c 019B     		ldr	r3, [sp, #4]
 274 002e 5B68     		ldr	r3, [r3, #4]
 275 0030 9B68     		ldr	r3, [r3, #8]
 276 0032 002B     		cmp	r3, #0
 277 0034 05D0     		beq	.L22
 278              		.loc 3 67 0 discriminator 4
 279 0036 019B     		ldr	r3, [sp, #4]
 280 0038 5B68     		ldr	r3, [r3, #4]
 281 003a 9B68     		ldr	r3, [r3, #8]
ARM GAS  C:\Users\PCHAUT~1\AppData\Local\Temp\ccSD9CGn.s 			page 6


 282 003c 0021     		movs	r1, #0
 283 003e 0198     		ldr	r0, [sp, #4]
 284 0040 9847     		blx	r3
 285              	.LVL0:
 286              	.L22:
 287              		.loc 3 69 0 is_stmt 1
 288 0042 019B     		ldr	r3, [sp, #4]
 289 0044 5B68     		ldr	r3, [r3, #4]
 290 0046 5B68     		ldr	r3, [r3, #4]
 291 0048 002B     		cmp	r3, #0
 292 004a 04D0     		beq	.L26
 293              		.loc 3 70 0
 294 004c 019B     		ldr	r3, [sp, #4]
 295 004e 5B68     		ldr	r3, [r3, #4]
 296 0050 5B68     		ldr	r3, [r3, #4]
 297 0052 0198     		ldr	r0, [sp, #4]
 298 0054 9847     		blx	r3
 299              	.LVL1:
 300              	.L26:
 301              		.loc 3 73 0
 302 0056 00BF     		nop
 303 0058 044B     		ldr	r3, .L27
 304 005a 039A     		ldr	r2, [sp, #12]
 305 005c 1B68     		ldr	r3, [r3]
 306 005e 9A42     		cmp	r2, r3
 307 0060 01D0     		beq	.L25
 308 0062 FFF7FEFF 		bl	__stack_chk_fail
 309              	.L25:
 310 0066 05B0     		add	sp, sp, #20
 311              		.cfi_def_cfa_offset 4
 312              		@ sp needed
 313 0068 5DF804FB 		ldr	pc, [sp], #4
 314              	.L28:
 315              		.align	2
 316              	.L27:
 317 006c 00000000 		.word	__stack_chk_guard
 318              		.cfi_endproc
 319              	.LFE257:
 320              		.size	dcmi_lld_serve_dma_rx_interrupt, .-dcmi_lld_serve_dma_rx_interrupt
 321              		.section	.text.Vector178,"ax",%progbits
 322              		.align	1
 323              		.p2align 4,,15
 324              		.global	Vector178
 325              		.syntax unified
 326              		.thumb
 327              		.thumb_func
 328              		.fpu fpv4-sp-d16
 329              		.type	Vector178, %function
 330              	Vector178:
 331              	.LFB258:
 332              		.loc 3 84 0
 333              		.cfi_startproc
 334              		@ args = 0, pretend = 0, frame = 16
 335              		@ frame_needed = 0, uses_anonymous_args = 0
 336 0000 00B5     		push	{lr}
 337              		.cfi_def_cfa_offset 4
 338              		.cfi_offset 14, -4
ARM GAS  C:\Users\PCHAUT~1\AppData\Local\Temp\ccSD9CGn.s 			page 7


 339 0002 85B0     		sub	sp, sp, #20
 340              		.cfi_def_cfa_offset 24
 341              		.loc 3 84 0
 342 0004 3E4B     		ldr	r3, .L41
 343 0006 1B68     		ldr	r3, [r3]
 344 0008 0393     		str	r3, [sp, #12]
 345              		.loc 3 85 0
 346 000a FFF7FEFF 		bl	_stats_increase_irq
 347 000e FFF7FEFF 		bl	_dbg_check_enter_isr
 348              		.loc 3 87 0
 349 0012 3C4B     		ldr	r3, .L41+4
 350 0014 1B69     		ldr	r3, [r3, #16]
 351 0016 0293     		str	r3, [sp, #8]
 352              		.loc 3 88 0
 353 0018 029B     		ldr	r3, [sp, #8]
 354 001a 03F00103 		and	r3, r3, #1
 355 001e 002B     		cmp	r3, #0
 356 0020 3DD0     		beq	.L30
 357              		.loc 3 89 0
 358 0022 384B     		ldr	r3, .L41+4
 359 0024 5B69     		ldr	r3, [r3, #20]
 360 0026 374A     		ldr	r2, .L41+4
 361 0028 43F00103 		orr	r3, r3, #1
 362 002c 5361     		str	r3, [r2, #20]
 363              	.LBB2:
 364              		.loc 3 90 0
 365 002e 364B     		ldr	r3, .L41+8
 366 0030 1B78     		ldrb	r3, [r3]	@ zero_extendqisi2
 367 0032 042B     		cmp	r3, #4
 368 0034 0CBF     		ite	eq
 369 0036 0123     		moveq	r3, #1
 370 0038 0023     		movne	r3, #0
 371 003a 8DF80630 		strb	r3, [sp, #6]
 372 003e 324B     		ldr	r3, .L41+8
 373 0040 1B78     		ldrb	r3, [r3]	@ zero_extendqisi2
 374 0042 022B     		cmp	r3, #2
 375 0044 0CBF     		ite	eq
 376 0046 0123     		moveq	r3, #1
 377 0048 0023     		movne	r3, #0
 378 004a 8DF80730 		strb	r3, [sp, #7]
 379 004e 2E4B     		ldr	r3, .L41+8
 380 0050 1B78     		ldrb	r3, [r3]	@ zero_extendqisi2
 381 0052 072B     		cmp	r3, #7
 382 0054 48D0     		beq	.L40
 383              		.loc 3 90 0 is_stmt 0 discriminator 1
 384 0056 2C4B     		ldr	r3, .L41+8
 385 0058 1B78     		ldrb	r3, [r3]	@ zero_extendqisi2
 386 005a 062B     		cmp	r3, #6
 387 005c 44D0     		beq	.L40
 388              		.loc 3 90 0 discriminator 2
 389 005e 2A4B     		ldr	r3, .L41+8
 390 0060 0522     		movs	r2, #5
 391 0062 1A70     		strb	r2, [r3]
 392 0064 284B     		ldr	r3, .L41+8
 393 0066 5B68     		ldr	r3, [r3, #4]
 394 0068 1B68     		ldr	r3, [r3]
 395 006a 002B     		cmp	r3, #0
ARM GAS  C:\Users\PCHAUT~1\AppData\Local\Temp\ccSD9CGn.s 			page 8


 396 006c 04D0     		beq	.L34
 397              		.loc 3 90 0 discriminator 3
 398 006e 264B     		ldr	r3, .L41+8
 399 0070 5B68     		ldr	r3, [r3, #4]
 400 0072 1B68     		ldr	r3, [r3]
 401 0074 2448     		ldr	r0, .L41+8
 402 0076 9847     		blx	r3
 403              	.LVL2:
 404              	.L34:
 405              		.loc 3 90 0 discriminator 5
 406 0078 9DF80630 		ldrb	r3, [sp, #6]	@ zero_extendqisi2
 407 007c 002B     		cmp	r3, #0
 408 007e 03D0     		beq	.L35
 409              		.loc 3 90 0 discriminator 6
 410 0080 214B     		ldr	r3, .L41+8
 411 0082 0222     		movs	r2, #2
 412 0084 1A70     		strb	r2, [r3]
 413 0086 0AE0     		b	.L30
 414              	.L35:
 415              		.loc 3 90 0 discriminator 7
 416 0088 9DF80730 		ldrb	r3, [sp, #7]	@ zero_extendqisi2
 417 008c 002B     		cmp	r3, #0
 418 008e 03D0     		beq	.L36
 419              		.loc 3 90 0 discriminator 8
 420 0090 1D4B     		ldr	r3, .L41+8
 421 0092 0222     		movs	r2, #2
 422 0094 1A70     		strb	r2, [r3]
 423 0096 02E0     		b	.L30
 424              	.L36:
 425              		.loc 3 90 0 discriminator 9
 426 0098 1B4B     		ldr	r3, .L41+8
 427 009a 0322     		movs	r2, #3
 428 009c 1A70     		strb	r2, [r3]
 429              	.L30:
 430              	.LBE2:
 431              		.loc 3 92 0 is_stmt 1
 432 009e 029B     		ldr	r3, [sp, #8]
 433 00a0 03F00203 		and	r3, r3, #2
 434 00a4 002B     		cmp	r3, #0
 435 00a6 1AD0     		beq	.L37
 436              		.loc 3 93 0
 437 00a8 164B     		ldr	r3, .L41+4
 438 00aa 5B69     		ldr	r3, [r3, #20]
 439 00ac 154A     		ldr	r2, .L41+4
 440 00ae 43F00203 		orr	r3, r3, #2
 441 00b2 5361     		str	r3, [r2, #20]
 442              		.loc 3 94 0
 443 00b4 144B     		ldr	r3, .L41+8
 444 00b6 1B78     		ldrb	r3, [r3]	@ zero_extendqisi2
 445 00b8 032B     		cmp	r3, #3
 446 00ba 02D1     		bne	.L38
 447              		.loc 3 94 0 is_stmt 0 discriminator 1
 448 00bc 1248     		ldr	r0, .L41+8
 449 00be FFF7FEFF 		bl	dcmi_lld_stop_stream
 450              	.L38:
 451              		.loc 3 94 0 discriminator 3
 452 00c2 114B     		ldr	r3, .L41+8
ARM GAS  C:\Users\PCHAUT~1\AppData\Local\Temp\ccSD9CGn.s 			page 9


 453 00c4 0622     		movs	r2, #6
 454 00c6 1A70     		strb	r2, [r3]
 455 00c8 0F4B     		ldr	r3, .L41+8
 456 00ca 5B68     		ldr	r3, [r3, #4]
 457 00cc 9B68     		ldr	r3, [r3, #8]
 458 00ce 002B     		cmp	r3, #0
 459 00d0 05D0     		beq	.L37
 460              		.loc 3 94 0 discriminator 4
 461 00d2 0D4B     		ldr	r3, .L41+8
 462 00d4 5B68     		ldr	r3, [r3, #4]
 463 00d6 9B68     		ldr	r3, [r3, #8]
 464 00d8 0121     		movs	r1, #1
 465 00da 0B48     		ldr	r0, .L41+8
 466 00dc 9847     		blx	r3
 467              	.LVL3:
 468              	.L37:
 469              		.loc 3 98 0 is_stmt 1
 470 00de FFF7FEFF 		bl	_dbg_check_leave_isr
 471 00e2 FFF7FEFF 		bl	_port_irq_epilogue
 472 00e6 00E0     		b	.L29
 473              	.L40:
 474              	.LBB3:
 475              		.loc 3 90 0
 476 00e8 00BF     		nop
 477              	.L29:
 478              	.LBE3:
 479              		.loc 3 99 0
 480 00ea 054B     		ldr	r3, .L41
 481 00ec 039A     		ldr	r2, [sp, #12]
 482 00ee 1B68     		ldr	r3, [r3]
 483 00f0 9A42     		cmp	r2, r3
 484 00f2 01D0     		beq	.L39
 485 00f4 FFF7FEFF 		bl	__stack_chk_fail
 486              	.L39:
 487 00f8 05B0     		add	sp, sp, #20
 488              		.cfi_def_cfa_offset 4
 489              		@ sp needed
 490 00fa 5DF804FB 		ldr	pc, [sp], #4
 491              	.L42:
 492 00fe 00BF     		.align	2
 493              	.L41:
 494 0100 00000000 		.word	__stack_chk_guard
 495 0104 00000550 		.word	1342504960
 496 0108 00000000 		.word	DCMID
 497              		.cfi_endproc
 498              	.LFE258:
 499              		.size	Vector178, .-Vector178
 500              		.section	.text.dcmi_lld_init,"ax",%progbits
 501              		.align	1
 502              		.p2align 4,,15
 503              		.global	dcmi_lld_init
 504              		.syntax unified
 505              		.thumb
 506              		.thumb_func
 507              		.fpu fpv4-sp-d16
 508              		.type	dcmi_lld_init, %function
 509              	dcmi_lld_init:
ARM GAS  C:\Users\PCHAUT~1\AppData\Local\Temp\ccSD9CGn.s 			page 10


 510              	.LFB259:
 511              		.loc 3 110 0
 512              		.cfi_startproc
 513              		@ args = 0, pretend = 0, frame = 8
 514              		@ frame_needed = 0, uses_anonymous_args = 0
 515 0000 00B5     		push	{lr}
 516              		.cfi_def_cfa_offset 4
 517              		.cfi_offset 14, -4
 518 0002 83B0     		sub	sp, sp, #12
 519              		.cfi_def_cfa_offset 16
 520              		.loc 3 110 0
 521 0004 0C4B     		ldr	r3, .L45
 522 0006 1B68     		ldr	r3, [r3]
 523 0008 0193     		str	r3, [sp, #4]
 524              		.loc 3 111 0
 525 000a 0C48     		ldr	r0, .L45+4
 526 000c FFF7FEFF 		bl	dcmiObjectInit
 527              		.loc 3 112 0
 528 0010 0A4B     		ldr	r3, .L45+4
 529 0012 0B4A     		ldr	r2, .L45+8
 530 0014 9A60     		str	r2, [r3, #8]
 531              		.loc 3 113 0
 532 0016 094B     		ldr	r3, .L45+4
 533 0018 0A4A     		ldr	r2, .L45+12
 534 001a DA60     		str	r2, [r3, #12]
 535              		.loc 3 114 0
 536 001c 074B     		ldr	r3, .L45+4
 537 001e 0A4A     		ldr	r2, .L45+16
 538 0020 1A61     		str	r2, [r3, #16]
 539              		.loc 3 127 0
 540 0022 00BF     		nop
 541 0024 044B     		ldr	r3, .L45
 542 0026 019A     		ldr	r2, [sp, #4]
 543 0028 1B68     		ldr	r3, [r3]
 544 002a 9A42     		cmp	r2, r3
 545 002c 01D0     		beq	.L44
 546 002e FFF7FEFF 		bl	__stack_chk_fail
 547              	.L44:
 548 0032 03B0     		add	sp, sp, #12
 549              		.cfi_def_cfa_offset 4
 550              		@ sp needed
 551 0034 5DF804FB 		ldr	pc, [sp], #4
 552              	.L46:
 553              		.align	2
 554              	.L45:
 555 0038 00000000 		.word	__stack_chk_guard
 556 003c 00000000 		.word	DCMID
 557 0040 00000550 		.word	1342504960
 558 0044 6C000000 		.word	_stm32_dma_streams+108
 559 0048 16550202 		.word	33707286
 560              		.cfi_endproc
 561              	.LFE259:
 562              		.size	dcmi_lld_init, .-dcmi_lld_init
 563              		.section	.text.dcmi_lld_prepare,"ax",%progbits
 564              		.align	1
 565              		.p2align 4,,15
 566              		.global	dcmi_lld_prepare
ARM GAS  C:\Users\PCHAUT~1\AppData\Local\Temp\ccSD9CGn.s 			page 11


 567              		.syntax unified
 568              		.thumb
 569              		.thumb_func
 570              		.fpu fpv4-sp-d16
 571              		.type	dcmi_lld_prepare, %function
 572              	dcmi_lld_prepare:
 573              	.LFB260:
 574              		.loc 3 139 0
 575              		.cfi_startproc
 576              		@ args = 0, pretend = 0, frame = 24
 577              		@ frame_needed = 0, uses_anonymous_args = 0
 578 0000 00B5     		push	{lr}
 579              		.cfi_def_cfa_offset 4
 580              		.cfi_offset 14, -4
 581 0002 87B0     		sub	sp, sp, #28
 582              		.cfi_def_cfa_offset 32
 583 0004 0390     		str	r0, [sp, #12]
 584 0006 0291     		str	r1, [sp, #8]
 585 0008 0192     		str	r2, [sp, #4]
 586 000a 0093     		str	r3, [sp]
 587              		.loc 3 139 0
 588 000c 434B     		ldr	r3, .L54
 589 000e 1B68     		ldr	r3, [r3]
 590 0010 0593     		str	r3, [sp, #20]
 591              		.loc 3 142 0
 592 0012 039B     		ldr	r3, [sp, #12]
 593 0014 1B78     		ldrb	r3, [r3]	@ zero_extendqisi2
 594 0016 012B     		cmp	r3, #1
 595 0018 75D1     		bne	.L53
 596              		.loc 3 143 0
 597 001a 039B     		ldr	r3, [sp, #12]
 598 001c 404A     		ldr	r2, .L54+4
 599 001e 9342     		cmp	r3, r2
 600 0020 71D1     		bne	.L53
 601              	.LBB4:
 602              		.loc 3 146 0
 603 0022 039B     		ldr	r3, [sp, #12]
 604 0024 D868     		ldr	r0, [r3, #12]
 605 0026 039B     		ldr	r3, [sp, #12]
 606 0028 3E4A     		ldr	r2, .L54+8
 607 002a 0C21     		movs	r1, #12
 608 002c FFF7FEFF 		bl	dmaStreamAllocate
 609 0030 0346     		mov	r3, r0
 610 0032 8DF81330 		strb	r3, [sp, #19]
 611              		.loc 3 147 0
 612 0036 9DF81330 		ldrb	r3, [sp, #19]	@ zero_extendqisi2
 613 003a 002B     		cmp	r3, #0
 614 003c 02D0     		beq	.L49
 615              		.loc 3 147 0 is_stmt 0 discriminator 2
 616 003e 3A48     		ldr	r0, .L54+12
 617 0040 FFF7FEFF 		bl	chSysHalt
 618              	.L49:
 619              		.loc 3 148 0 is_stmt 1
 620 0044 039B     		ldr	r3, [sp, #12]
 621 0046 9B68     		ldr	r3, [r3, #8]
 622 0048 03F12802 		add	r2, r3, #40
 623 004c 039B     		ldr	r3, [sp, #12]
ARM GAS  C:\Users\PCHAUT~1\AppData\Local\Temp\ccSD9CGn.s 			page 12


 624 004e DB68     		ldr	r3, [r3, #12]
 625 0050 1B68     		ldr	r3, [r3]
 626 0052 9A60     		str	r2, [r3, #8]
 627              		.loc 3 149 0
 628 0054 039B     		ldr	r3, [sp, #12]
 629 0056 DB68     		ldr	r3, [r3, #12]
 630 0058 1B68     		ldr	r3, [r3]
 631 005a 0422     		movs	r2, #4
 632 005c 5A61     		str	r2, [r3, #20]
 633              		.loc 3 150 0
 634 005e 039B     		ldr	r3, [sp, #12]
 635 0060 DB68     		ldr	r3, [r3, #12]
 636 0062 1B68     		ldr	r3, [r3]
 637 0064 019A     		ldr	r2, [sp, #4]
 638 0066 DA60     		str	r2, [r3, #12]
 639              		.loc 3 151 0
 640 0068 039B     		ldr	r3, [sp, #12]
 641 006a DB68     		ldr	r3, [r3, #12]
 642 006c 1B68     		ldr	r3, [r3]
 643 006e 009A     		ldr	r2, [sp]
 644 0070 1A61     		str	r2, [r3, #16]
 645              		.loc 3 152 0
 646 0072 039B     		ldr	r3, [sp, #12]
 647 0074 DB68     		ldr	r3, [r3, #12]
 648 0076 1B68     		ldr	r3, [r3]
 649 0078 029A     		ldr	r2, [sp, #8]
 650 007a 9208     		lsrs	r2, r2, #2
 651 007c 5A60     		str	r2, [r3, #4]
 652              		.loc 3 154 0
 653 007e 009B     		ldr	r3, [sp]
 654 0080 002B     		cmp	r3, #0
 655 0082 06D1     		bne	.L50
 656              		.loc 3 155 0
 657 0084 039B     		ldr	r3, [sp, #12]
 658 0086 1B69     		ldr	r3, [r3, #16]
 659 0088 23F48022 		bic	r2, r3, #262144
 660 008c 039B     		ldr	r3, [sp, #12]
 661 008e 1A61     		str	r2, [r3, #16]
 662 0090 05E0     		b	.L51
 663              	.L50:
 664              		.loc 3 157 0
 665 0092 039B     		ldr	r3, [sp, #12]
 666 0094 1B69     		ldr	r3, [r3, #16]
 667 0096 43F48022 		orr	r2, r3, #262144
 668 009a 039B     		ldr	r3, [sp, #12]
 669 009c 1A61     		str	r2, [r3, #16]
 670              	.L51:
 671              		.loc 3 159 0
 672 009e 039B     		ldr	r3, [sp, #12]
 673 00a0 DB68     		ldr	r3, [r3, #12]
 674 00a2 1B68     		ldr	r3, [r3]
 675 00a4 039A     		ldr	r2, [sp, #12]
 676 00a6 1269     		ldr	r2, [r2, #16]
 677 00a8 1A60     		str	r2, [r3]
 678              		.loc 3 160 0
 679 00aa 039B     		ldr	r3, [sp, #12]
 680 00ac DB68     		ldr	r3, [r3, #12]
ARM GAS  C:\Users\PCHAUT~1\AppData\Local\Temp\ccSD9CGn.s 			page 13


 681 00ae 1B68     		ldr	r3, [r3]
 682 00b0 1A68     		ldr	r2, [r3]
 683 00b2 039B     		ldr	r3, [sp, #12]
 684 00b4 DB68     		ldr	r3, [r3, #12]
 685 00b6 1B68     		ldr	r3, [r3]
 686 00b8 42F00102 		orr	r2, r2, #1
 687 00bc 1A60     		str	r2, [r3]
 688              		.loc 3 163 0
 689 00be 1B4B     		ldr	r3, .L54+16
 690 00c0 5B6B     		ldr	r3, [r3, #52]
 691 00c2 1A4A     		ldr	r2, .L54+16
 692 00c4 43F00103 		orr	r3, r3, #1
 693 00c8 5363     		str	r3, [r2, #52]
 694              		.loc 3 164 0
 695 00ca 0B21     		movs	r1, #11
 696 00cc 4E20     		movs	r0, #78
 697 00ce FFF7FEFF 		bl	nvicEnableVector
 698              		.loc 3 166 0
 699 00d2 039B     		ldr	r3, [sp, #12]
 700 00d4 9B68     		ldr	r3, [r3, #8]
 701 00d6 DA68     		ldr	r2, [r3, #12]
 702 00d8 039B     		ldr	r3, [sp, #12]
 703 00da 9B68     		ldr	r3, [r3, #8]
 704 00dc 42F00102 		orr	r2, r2, #1
 705 00e0 DA60     		str	r2, [r3, #12]
 706              		.loc 3 168 0
 707 00e2 039B     		ldr	r3, [sp, #12]
 708 00e4 9B68     		ldr	r3, [r3, #8]
 709 00e6 DA68     		ldr	r2, [r3, #12]
 710 00e8 039B     		ldr	r3, [sp, #12]
 711 00ea 9B68     		ldr	r3, [r3, #8]
 712 00ec 42F00202 		orr	r2, r2, #2
 713 00f0 DA60     		str	r2, [r3, #12]
 714              		.loc 3 170 0
 715 00f2 039B     		ldr	r3, [sp, #12]
 716 00f4 5B68     		ldr	r3, [r3, #4]
 717 00f6 DB68     		ldr	r3, [r3, #12]
 718 00f8 039A     		ldr	r2, [sp, #12]
 719 00fa 9268     		ldr	r2, [r2, #8]
 720 00fc 23F48043 		bic	r3, r3, #16384
 721 0100 23F00103 		bic	r3, r3, #1
 722 0104 1360     		str	r3, [r2]
 723              	.L53:
 724              	.LBE4:
 725              		.loc 3 174 0
 726 0106 00BF     		nop
 727 0108 044B     		ldr	r3, .L54
 728 010a 059A     		ldr	r2, [sp, #20]
 729 010c 1B68     		ldr	r3, [r3]
 730 010e 9A42     		cmp	r2, r3
 731 0110 01D0     		beq	.L52
 732 0112 FFF7FEFF 		bl	__stack_chk_fail
 733              	.L52:
 734 0116 07B0     		add	sp, sp, #28
 735              		.cfi_def_cfa_offset 4
 736              		@ sp needed
 737 0118 5DF804FB 		ldr	pc, [sp], #4
ARM GAS  C:\Users\PCHAUT~1\AppData\Local\Temp\ccSD9CGn.s 			page 14


 738              	.L55:
 739              		.align	2
 740              	.L54:
 741 011c 00000000 		.word	__stack_chk_guard
 742 0120 00000000 		.word	DCMID
 743 0124 00000000 		.word	dcmi_lld_serve_dma_rx_interrupt
 744 0128 00000000 		.word	__func__.9941
 745 012c 00380240 		.word	1073887232
 746              		.cfi_endproc
 747              	.LFE260:
 748              		.size	dcmi_lld_prepare, .-dcmi_lld_prepare
 749              		.section	.text.dcmi_lld_unprepare,"ax",%progbits
 750              		.align	1
 751              		.p2align 4,,15
 752              		.global	dcmi_lld_unprepare
 753              		.syntax unified
 754              		.thumb
 755              		.thumb_func
 756              		.fpu fpv4-sp-d16
 757              		.type	dcmi_lld_unprepare, %function
 758              	dcmi_lld_unprepare:
 759              	.LFB261:
 760              		.loc 3 183 0
 761              		.cfi_startproc
 762              		@ args = 0, pretend = 0, frame = 16
 763              		@ frame_needed = 0, uses_anonymous_args = 0
 764 0000 00B5     		push	{lr}
 765              		.cfi_def_cfa_offset 4
 766              		.cfi_offset 14, -4
 767 0002 85B0     		sub	sp, sp, #20
 768              		.cfi_def_cfa_offset 24
 769 0004 0190     		str	r0, [sp, #4]
 770              		.loc 3 183 0
 771 0006 1B4B     		ldr	r3, .L60
 772 0008 1B68     		ldr	r3, [r3]
 773 000a 0393     		str	r3, [sp, #12]
 774              		.loc 3 185 0
 775 000c 019B     		ldr	r3, [sp, #4]
 776 000e 1B78     		ldrb	r3, [r3]	@ zero_extendqisi2
 777 0010 022B     		cmp	r3, #2
 778 0012 23D1     		bne	.L59
 779              		.loc 3 186 0
 780 0014 019B     		ldr	r3, [sp, #4]
 781 0016 184A     		ldr	r2, .L60+4
 782 0018 9342     		cmp	r3, r2
 783 001a 1FD1     		bne	.L59
 784              		.loc 3 188 0
 785 001c 019B     		ldr	r3, [sp, #4]
 786 001e 9B68     		ldr	r3, [r3, #8]
 787 0020 1B68     		ldr	r3, [r3]
 788 0022 019A     		ldr	r2, [sp, #4]
 789 0024 9268     		ldr	r2, [r2, #8]
 790 0026 23F48043 		bic	r3, r3, #16384
 791 002a 23F00103 		bic	r3, r3, #1
 792 002e 1360     		str	r3, [r2]
 793              		.loc 3 189 0
 794 0030 019B     		ldr	r3, [sp, #4]
ARM GAS  C:\Users\PCHAUT~1\AppData\Local\Temp\ccSD9CGn.s 			page 15


 795 0032 9B68     		ldr	r3, [r3, #8]
 796 0034 DA68     		ldr	r2, [r3, #12]
 797 0036 019B     		ldr	r3, [sp, #4]
 798 0038 9B68     		ldr	r3, [r3, #8]
 799 003a 22F00F02 		bic	r2, r2, #15
 800 003e DA60     		str	r2, [r3, #12]
 801              		.loc 3 190 0
 802 0040 0E4B     		ldr	r3, .L60+8
 803 0042 5B6B     		ldr	r3, [r3, #52]
 804 0044 0D4A     		ldr	r2, .L60+8
 805 0046 23F00103 		bic	r3, r3, #1
 806 004a 5363     		str	r3, [r2, #52]
 807              		.loc 3 191 0
 808 004c 4E20     		movs	r0, #78
 809 004e FFF7FEFF 		bl	nvicDisableVector
 810              		.loc 3 193 0
 811 0052 019B     		ldr	r3, [sp, #4]
 812 0054 DB68     		ldr	r3, [r3, #12]
 813 0056 1846     		mov	r0, r3
 814 0058 FFF7FEFF 		bl	dmaStreamRelease
 815              	.L59:
 816              		.loc 3 196 0
 817 005c 00BF     		nop
 818 005e 054B     		ldr	r3, .L60
 819 0060 039A     		ldr	r2, [sp, #12]
 820 0062 1B68     		ldr	r3, [r3]
 821 0064 9A42     		cmp	r2, r3
 822 0066 01D0     		beq	.L58
 823 0068 FFF7FEFF 		bl	__stack_chk_fail
 824              	.L58:
 825 006c 05B0     		add	sp, sp, #20
 826              		.cfi_def_cfa_offset 4
 827              		@ sp needed
 828 006e 5DF804FB 		ldr	pc, [sp], #4
 829              	.L61:
 830 0072 00BF     		.align	2
 831              	.L60:
 832 0074 00000000 		.word	__stack_chk_guard
 833 0078 00000000 		.word	DCMID
 834 007c 00380240 		.word	1073887232
 835              		.cfi_endproc
 836              	.LFE261:
 837              		.size	dcmi_lld_unprepare, .-dcmi_lld_unprepare
 838              		.section	.text.dcmi_lld_start_oneshot,"ax",%progbits
 839              		.align	1
 840              		.p2align 4,,15
 841              		.global	dcmi_lld_start_oneshot
 842              		.syntax unified
 843              		.thumb
 844              		.thumb_func
 845              		.fpu fpv4-sp-d16
 846              		.type	dcmi_lld_start_oneshot, %function
 847              	dcmi_lld_start_oneshot:
 848              	.LFB262:
 849              		.loc 3 205 0
 850              		.cfi_startproc
 851              		@ args = 0, pretend = 0, frame = 16
ARM GAS  C:\Users\PCHAUT~1\AppData\Local\Temp\ccSD9CGn.s 			page 16


 852              		@ frame_needed = 0, uses_anonymous_args = 0
 853 0000 00B5     		push	{lr}
 854              		.cfi_def_cfa_offset 4
 855              		.cfi_offset 14, -4
 856 0002 85B0     		sub	sp, sp, #20
 857              		.cfi_def_cfa_offset 24
 858 0004 0190     		str	r0, [sp, #4]
 859              		.loc 3 205 0
 860 0006 154B     		ldr	r3, .L66
 861 0008 1B68     		ldr	r3, [r3]
 862 000a 0393     		str	r3, [sp, #12]
 863              		.loc 3 206 0
 864 000c 019B     		ldr	r3, [sp, #4]
 865 000e 1B78     		ldrb	r3, [r3]	@ zero_extendqisi2
 866 0010 022B     		cmp	r3, #2
 867 0012 17D1     		bne	.L65
 868              		.loc 3 207 0
 869 0014 019B     		ldr	r3, [sp, #4]
 870 0016 9B68     		ldr	r3, [r3, #8]
 871 0018 1A68     		ldr	r2, [r3]
 872 001a 019B     		ldr	r3, [sp, #4]
 873 001c 9B68     		ldr	r3, [r3, #8]
 874 001e 42F00202 		orr	r2, r2, #2
 875 0022 1A60     		str	r2, [r3]
 876              		.loc 3 208 0
 877 0024 019B     		ldr	r3, [sp, #4]
 878 0026 9B68     		ldr	r3, [r3, #8]
 879 0028 1A68     		ldr	r2, [r3]
 880 002a 019B     		ldr	r3, [sp, #4]
 881 002c 9B68     		ldr	r3, [r3, #8]
 882 002e 42F48042 		orr	r2, r2, #16384
 883 0032 1A60     		str	r2, [r3]
 884              		.loc 3 209 0
 885 0034 019B     		ldr	r3, [sp, #4]
 886 0036 9B68     		ldr	r3, [r3, #8]
 887 0038 1A68     		ldr	r2, [r3]
 888 003a 019B     		ldr	r3, [sp, #4]
 889 003c 9B68     		ldr	r3, [r3, #8]
 890 003e 42F00102 		orr	r2, r2, #1
 891 0042 1A60     		str	r2, [r3]
 892              	.L65:
 893              		.loc 3 211 0
 894 0044 00BF     		nop
 895 0046 054B     		ldr	r3, .L66
 896 0048 039A     		ldr	r2, [sp, #12]
 897 004a 1B68     		ldr	r3, [r3]
 898 004c 9A42     		cmp	r2, r3
 899 004e 01D0     		beq	.L64
 900 0050 FFF7FEFF 		bl	__stack_chk_fail
 901              	.L64:
 902 0054 05B0     		add	sp, sp, #20
 903              		.cfi_def_cfa_offset 4
 904              		@ sp needed
 905 0056 5DF804FB 		ldr	pc, [sp], #4
 906              	.L67:
 907 005a 00BF     		.align	2
 908              	.L66:
ARM GAS  C:\Users\PCHAUT~1\AppData\Local\Temp\ccSD9CGn.s 			page 17


 909 005c 00000000 		.word	__stack_chk_guard
 910              		.cfi_endproc
 911              	.LFE262:
 912              		.size	dcmi_lld_start_oneshot, .-dcmi_lld_start_oneshot
 913              		.section	.text.dcmi_lld_start_stream,"ax",%progbits
 914              		.align	1
 915              		.p2align 4,,15
 916              		.global	dcmi_lld_start_stream
 917              		.syntax unified
 918              		.thumb
 919              		.thumb_func
 920              		.fpu fpv4-sp-d16
 921              		.type	dcmi_lld_start_stream, %function
 922              	dcmi_lld_start_stream:
 923              	.LFB263:
 924              		.loc 3 220 0
 925              		.cfi_startproc
 926              		@ args = 0, pretend = 0, frame = 16
 927              		@ frame_needed = 0, uses_anonymous_args = 0
 928 0000 00B5     		push	{lr}
 929              		.cfi_def_cfa_offset 4
 930              		.cfi_offset 14, -4
 931 0002 85B0     		sub	sp, sp, #20
 932              		.cfi_def_cfa_offset 24
 933 0004 0190     		str	r0, [sp, #4]
 934              		.loc 3 220 0
 935 0006 154B     		ldr	r3, .L72
 936 0008 1B68     		ldr	r3, [r3]
 937 000a 0393     		str	r3, [sp, #12]
 938              		.loc 3 221 0
 939 000c 019B     		ldr	r3, [sp, #4]
 940 000e 1B78     		ldrb	r3, [r3]	@ zero_extendqisi2
 941 0010 022B     		cmp	r3, #2
 942 0012 17D1     		bne	.L71
 943              		.loc 3 222 0
 944 0014 019B     		ldr	r3, [sp, #4]
 945 0016 9B68     		ldr	r3, [r3, #8]
 946 0018 1A68     		ldr	r2, [r3]
 947 001a 019B     		ldr	r3, [sp, #4]
 948 001c 9B68     		ldr	r3, [r3, #8]
 949 001e 22F00202 		bic	r2, r2, #2
 950 0022 1A60     		str	r2, [r3]
 951              		.loc 3 223 0
 952 0024 019B     		ldr	r3, [sp, #4]
 953 0026 9B68     		ldr	r3, [r3, #8]
 954 0028 1A68     		ldr	r2, [r3]
 955 002a 019B     		ldr	r3, [sp, #4]
 956 002c 9B68     		ldr	r3, [r3, #8]
 957 002e 42F48042 		orr	r2, r2, #16384
 958 0032 1A60     		str	r2, [r3]
 959              		.loc 3 224 0
 960 0034 019B     		ldr	r3, [sp, #4]
 961 0036 9B68     		ldr	r3, [r3, #8]
 962 0038 1A68     		ldr	r2, [r3]
 963 003a 019B     		ldr	r3, [sp, #4]
 964 003c 9B68     		ldr	r3, [r3, #8]
 965 003e 42F00102 		orr	r2, r2, #1
ARM GAS  C:\Users\PCHAUT~1\AppData\Local\Temp\ccSD9CGn.s 			page 18


 966 0042 1A60     		str	r2, [r3]
 967              	.L71:
 968              		.loc 3 226 0
 969 0044 00BF     		nop
 970 0046 054B     		ldr	r3, .L72
 971 0048 039A     		ldr	r2, [sp, #12]
 972 004a 1B68     		ldr	r3, [r3]
 973 004c 9A42     		cmp	r2, r3
 974 004e 01D0     		beq	.L70
 975 0050 FFF7FEFF 		bl	__stack_chk_fail
 976              	.L70:
 977 0054 05B0     		add	sp, sp, #20
 978              		.cfi_def_cfa_offset 4
 979              		@ sp needed
 980 0056 5DF804FB 		ldr	pc, [sp], #4
 981              	.L73:
 982 005a 00BF     		.align	2
 983              	.L72:
 984 005c 00000000 		.word	__stack_chk_guard
 985              		.cfi_endproc
 986              	.LFE263:
 987              		.size	dcmi_lld_start_stream, .-dcmi_lld_start_stream
 988              		.section	.text.dcmi_lld_stop_stream,"ax",%progbits
 989              		.align	1
 990              		.p2align 4,,15
 991              		.global	dcmi_lld_stop_stream
 992              		.syntax unified
 993              		.thumb
 994              		.thumb_func
 995              		.fpu fpv4-sp-d16
 996              		.type	dcmi_lld_stop_stream, %function
 997              	dcmi_lld_stop_stream:
 998              	.LFB264:
 999              		.loc 3 240 0
 1000              		.cfi_startproc
 1001              		@ args = 0, pretend = 0, frame = 24
 1002              		@ frame_needed = 0, uses_anonymous_args = 0
 1003 0000 00B5     		push	{lr}
 1004              		.cfi_def_cfa_offset 4
 1005              		.cfi_offset 14, -4
 1006 0002 87B0     		sub	sp, sp, #28
 1007              		.cfi_def_cfa_offset 32
 1008 0004 0190     		str	r0, [sp, #4]
 1009              		.loc 3 240 0
 1010 0006 1D4B     		ldr	r3, .L81
 1011 0008 1B68     		ldr	r3, [r3]
 1012 000a 0593     		str	r3, [sp, #20]
 1013              		.loc 3 242 0
 1014 000c 019B     		ldr	r3, [sp, #4]
 1015 000e 1B78     		ldrb	r3, [r3]	@ zero_extendqisi2
 1016 0010 032B     		cmp	r3, #3
 1017 0012 27D1     		bne	.L75
 1018              		.loc 3 243 0
 1019 0014 019B     		ldr	r3, [sp, #4]
 1020 0016 9B68     		ldr	r3, [r3, #8]
 1021 0018 1A68     		ldr	r2, [r3]
 1022 001a 019B     		ldr	r3, [sp, #4]
ARM GAS  C:\Users\PCHAUT~1\AppData\Local\Temp\ccSD9CGn.s 			page 19


 1023 001c 9B68     		ldr	r3, [r3, #8]
 1024 001e 22F00102 		bic	r2, r2, #1
 1025 0022 1A60     		str	r2, [r3]
 1026              		.loc 3 245 0
 1027 0024 FFF7FEFF 		bl	osalOsGetSystemTimeX
 1028 0028 0390     		str	r0, [sp, #12]
 1029              		.loc 3 246 0
 1030 002a 039B     		ldr	r3, [sp, #12]
 1031 002c C833     		adds	r3, r3, #200
 1032 002e 0493     		str	r3, [sp, #16]
 1033              	.L79:
 1034              		.loc 3 250 0
 1035 0030 019B     		ldr	r3, [sp, #4]
 1036 0032 9B68     		ldr	r3, [r3, #8]
 1037 0034 1B68     		ldr	r3, [r3]
 1038 0036 03F00103 		and	r3, r3, #1
 1039 003a 002B     		cmp	r3, #0
 1040 003c 01D1     		bne	.L76
 1041              		.loc 3 251 0
 1042 003e 0023     		movs	r3, #0
 1043 0040 11E0     		b	.L77
 1044              	.L76:
 1045              		.loc 3 254 0
 1046 0042 FFF7FEFF 		bl	osalOsGetSystemTimeX
 1047 0046 0346     		mov	r3, r0
 1048 0048 049A     		ldr	r2, [sp, #16]
 1049 004a 0399     		ldr	r1, [sp, #12]
 1050 004c 1846     		mov	r0, r3
 1051 004e FFF7FEFF 		bl	osalOsIsTimeWithinX
 1052 0052 0346     		mov	r3, r0
 1053 0054 83F00103 		eor	r3, r3, #1
 1054 0058 DBB2     		uxtb	r3, r3
 1055 005a 002B     		cmp	r3, #0
 1056 005c E8D0     		beq	.L79
 1057              		.loc 3 255 0
 1058 005e 4FF0FF33 		mov	r3, #-1
 1059 0062 00E0     		b	.L77
 1060              	.L75:
 1061              		.loc 3 259 0
 1062 0064 0023     		movs	r3, #0
 1063              	.L77:
 1064              		.loc 3 260 0
 1065 0066 1846     		mov	r0, r3
 1066 0068 044B     		ldr	r3, .L81
 1067 006a 059A     		ldr	r2, [sp, #20]
 1068 006c 1B68     		ldr	r3, [r3]
 1069 006e 9A42     		cmp	r2, r3
 1070 0070 01D0     		beq	.L80
 1071 0072 FFF7FEFF 		bl	__stack_chk_fail
 1072              	.L80:
 1073 0076 07B0     		add	sp, sp, #28
 1074              		.cfi_def_cfa_offset 4
 1075              		@ sp needed
 1076 0078 5DF804FB 		ldr	pc, [sp], #4
 1077              	.L82:
 1078              		.align	2
 1079              	.L81:
ARM GAS  C:\Users\PCHAUT~1\AppData\Local\Temp\ccSD9CGn.s 			page 20


 1080 007c 00000000 		.word	__stack_chk_guard
 1081              		.cfi_endproc
 1082              	.LFE264:
 1083              		.size	dcmi_lld_stop_stream, .-dcmi_lld_stop_stream
 1084              		.section	.rodata.__func__.9941,"a",%progbits
 1085              		.align	2
 1086              		.type	__func__.9941, %object
 1087              		.size	__func__.9941, 17
 1088              	__func__.9941:
 1089 0000 64636D69 		.ascii	"dcmi_lld_prepare\000"
 1089      5F6C6C64 
 1089      5F707265 
 1089      70617265 
 1089      00
 1090              		.text
 1091              	.Letext0:
 1092              		.file 4 "c:\\users\\pchautems\\documents\\robotiquetp\\eclipse_e-puck2\\tools\\gcc-arm-none-eabi-7
 1093              		.file 5 "c:\\users\\pchautems\\documents\\robotiquetp\\eclipse_e-puck2\\tools\\gcc-arm-none-eabi-7
 1094              		.file 6 "c:\\users\\pchautems\\documents\\robotiquetp\\eclipse_e-puck2\\tools\\gcc-arm-none-eabi-7
 1095              		.file 7 "../lib/e-puck2_main-processor/ChibiOS//os/rt/ports/ARMCMx/compilers/GCC/chtypes.h"
 1096              		.file 8 "../lib/e-puck2_main-processor/ChibiOS//os/rt/include/chsystypes.h"
 1097              		.file 9 "../lib/e-puck2_main-processor/ChibiOS//os/rt/include/chschd.h"
 1098              		.file 10 "../lib/e-puck2_main-processor/ChibiOS//os/ext/CMSIS/include/core_cm4.h"
 1099              		.file 11 "../lib/e-puck2_main-processor/ChibiOS//os/ext/CMSIS/ST/system_stm32f4xx.h"
 1100              		.file 12 "../lib/e-puck2_main-processor/ChibiOS//os/ext/CMSIS/ST/stm32f407xx.h"
 1101              		.file 13 "../lib/e-puck2_main-processor/ChibiOS//os/rt/ports/ARMCMx/chcore.h"
 1102              		.file 14 "../lib/e-puck2_main-processor/ChibiOS//os/rt/ports/ARMCMx/chcore_v7m.h"
 1103              		.file 15 "../lib/e-puck2_main-processor/ChibiOS//os/rt/include/chdebug.h"
 1104              		.file 16 "../lib/e-puck2_main-processor/ChibiOS//os/rt/include/chtm.h"
 1105              		.file 17 "../lib/e-puck2_main-processor/ChibiOS//os/rt/include/chstats.h"
 1106              		.file 18 "../lib/e-puck2_main-processor/ChibiOS//os/rt/include/chsem.h"
 1107              		.file 19 "../lib/e-puck2_main-processor/ChibiOS//os/rt/include/chmtx.h"
 1108              		.file 20 "../lib/e-puck2_main-processor/ChibiOS//os/rt/include/chregistry.h"
 1109              		.file 21 "../lib/e-puck2_main-processor/ChibiOS//os/rt/include/chevents.h"
 1110              		.file 22 "../lib/e-puck2_main-processor/ChibiOS//os/rt/include/chqueues.h"
 1111              		.file 23 "../lib/e-puck2_main-processor/ChibiOS//os/hal/ports/STM32/STM32F4xx/stm32_dma.h"
 1112              		.file 24 "../lib/e-puck2_main-processor/ChibiOS//os/hal/include/hal_ioblock.h"
 1113              		.file 25 "../lib/e-puck2_main-processor/ChibiOS//os/hal/ports/STM32/LLD/GPIOv2/pal_lld.h"
 1114              		.file 26 "../lib/e-puck2_main-processor/ChibiOS//os/hal/include/adc.h"
 1115              		.file 27 "../lib/e-puck2_main-processor/ChibiOS//os/hal/ports/STM32/STM32F4xx/adc_lld.h"
 1116              		.file 28 "../lib/e-puck2_main-processor/ChibiOS//os/hal/include/can.h"
 1117              		.file 29 "../lib/e-puck2_main-processor/ChibiOS//os/hal/ports/STM32/LLD/can_lld.h"
 1118              		.file 30 "../lib/e-puck2_main-processor/ChibiOS//os/hal/include/dac.h"
 1119              		.file 31 "../lib/e-puck2_main-processor/ChibiOS//os/hal/ports/STM32/LLD/DACv1/dac_lld.h"
 1120              		.file 32 "../lib/e-puck2_main-processor/ChibiOS//os/hal/include/ext.h"
 1121              		.file 33 "../lib/e-puck2_main-processor/ChibiOS//os/hal/ports/STM32/LLD/ext_lld.h"
 1122              		.file 34 "../lib/e-puck2_main-processor/ChibiOS//os/hal/include/gpt.h"
 1123              		.file 35 "../lib/e-puck2_main-processor/ChibiOS//os/hal/ports/STM32/LLD/TIMv1/gpt_lld.h"
 1124              		.file 36 "../lib/e-puck2_main-processor/ChibiOS//os/hal/ports/STM32/LLD/TIMv1/stm32_tim.h"
 1125              		.file 37 "../lib/e-puck2_main-processor/ChibiOS//os/hal/include/i2c.h"
 1126              		.file 38 "../lib/e-puck2_main-processor/ChibiOS//os/hal/ports/STM32/LLD/I2Cv1/i2c_lld.h"
 1127              		.file 39 "../lib/e-puck2_main-processor/ChibiOS//os/hal/include/i2s.h"
 1128              		.file 40 "../lib/e-puck2_main-processor/ChibiOS//os/hal/ports/STM32/LLD/SPIv1/i2s_lld.h"
 1129              		.file 41 "../lib/e-puck2_main-processor/ChibiOS//os/hal/include/pwm.h"
 1130              		.file 42 "../lib/e-puck2_main-processor/ChibiOS//os/hal/ports/STM32/LLD/TIMv1/pwm_lld.h"
 1131              		.file 43 "../lib/e-puck2_main-processor/ChibiOS//os/hal/include/serial.h"
 1132              		.file 44 "../lib/e-puck2_main-processor/ChibiOS//os/hal/ports/STM32/LLD/USARTv1/serial_lld.h"
ARM GAS  C:\Users\PCHAUT~1\AppData\Local\Temp\ccSD9CGn.s 			page 21


 1133              		.file 45 "../lib/e-puck2_main-processor/ChibiOS//os/hal/include/sdc.h"
 1134              		.file 46 "../lib/e-puck2_main-processor/ChibiOS//os/hal/ports/STM32/LLD/sdc_lld.h"
 1135              		.file 47 "../lib/e-puck2_main-processor/ChibiOS//os/hal/include/spi.h"
 1136              		.file 48 "../lib/e-puck2_main-processor/ChibiOS//os/hal/ports/STM32/LLD/SPIv1/spi_lld.h"
 1137              		.file 49 "../lib/e-puck2_main-processor/ChibiOS//os/hal/include/usb.h"
 1138              		.file 50 "../lib/e-puck2_main-processor/ChibiOS//os/hal/ports/STM32/LLD/OTGv1/usb_lld.h"
 1139              		.file 51 "../lib/e-puck2_main-processor/ChibiOS//os/hal/ports/STM32/LLD/OTGv1/stm32_otg.h"
 1140              		.file 52 "../lib/e-puck2_main-processor/ChibiOS_ext/os/hal/ports/STM32/STM32F4xx/dcmi_lld.h"