ARM GAS  C:\Users\PCHAUT~1\AppData\Local\Temp\ccJ7evbE.s 			page 1


   1              		.cpu cortex-m4
   2              		.eabi_attribute 27, 1
   3              		.eabi_attribute 28, 1
   4              		.eabi_attribute 20, 1
   5              		.eabi_attribute 21, 1
   6              		.eabi_attribute 23, 3
   7              		.eabi_attribute 24, 1
   8              		.eabi_attribute 25, 1
   9              		.eabi_attribute 26, 1
  10              		.eabi_attribute 30, 6
  11              		.eabi_attribute 34, 1
  12              		.eabi_attribute 18, 4
  13              		.file	"e_agenda.c"
  14              		.text
  15              	.Ltext0:
  16              		.cfi_sections	.debug_frame
  17              		.section	.text.e_start_agendas_processing,"ax",%progbits
  18              		.align	1
  19              		.p2align 4,,15
  20              		.global	e_start_agendas_processing
  21              		.syntax unified
  22              		.thumb
  23              		.thumb_func
  24              		.fpu fpv4-sp-d16
  25              		.type	e_start_agendas_processing, %function
  26              	e_start_agendas_processing:
  27              	.LFB0:
  28              		.file 1 "../lib/e-puck2_main-processor/src/epuck1x/motor_led/advance_one_timer/e_agenda.c"
  29              		.loc 1 49 0
  30              		.cfi_startproc
  31              		@ args = 0, pretend = 0, frame = 8
  32              		@ frame_needed = 0, uses_anonymous_args = 0
  33 0000 00B5     		push	{lr}
  34              		.cfi_def_cfa_offset 4
  35              		.cfi_offset 14, -4
  36 0002 83B0     		sub	sp, sp, #12
  37              		.cfi_def_cfa_offset 16
  38              		.loc 1 49 0
  39 0004 064B     		ldr	r3, .L3
  40 0006 1B68     		ldr	r3, [r3]
  41 0008 0193     		str	r3, [sp, #4]
  42              		.loc 1 57 0
  43 000a 00BF     		nop
  44 000c 044B     		ldr	r3, .L3
  45 000e 019A     		ldr	r2, [sp, #4]
  46 0010 1B68     		ldr	r3, [r3]
  47 0012 9A42     		cmp	r2, r3
  48 0014 01D0     		beq	.L2
  49 0016 FFF7FEFF 		bl	__stack_chk_fail
  50              	.L2:
  51 001a 03B0     		add	sp, sp, #12
  52              		.cfi_def_cfa_offset 4
  53              		@ sp needed
  54 001c 5DF804FB 		ldr	pc, [sp], #4
  55              	.L4:
  56              		.align	2
  57              	.L3:
ARM GAS  C:\Users\PCHAUT~1\AppData\Local\Temp\ccJ7evbE.s 			page 2


  58 0020 00000000 		.word	__stack_chk_guard
  59              		.cfi_endproc
  60              	.LFE0:
  61              		.size	e_start_agendas_processing, .-e_start_agendas_processing
  62              		.section	.text.e_end_agendas_processing,"ax",%progbits
  63              		.align	1
  64              		.p2align 4,,15
  65              		.global	e_end_agendas_processing
  66              		.syntax unified
  67              		.thumb
  68              		.thumb_func
  69              		.fpu fpv4-sp-d16
  70              		.type	e_end_agendas_processing, %function
  71              	e_end_agendas_processing:
  72              	.LFB1:
  73              		.loc 1 68 0
  74              		.cfi_startproc
  75              		@ args = 0, pretend = 0, frame = 8
  76              		@ frame_needed = 0, uses_anonymous_args = 0
  77 0000 00B5     		push	{lr}
  78              		.cfi_def_cfa_offset 4
  79              		.cfi_offset 14, -4
  80 0002 83B0     		sub	sp, sp, #12
  81              		.cfi_def_cfa_offset 16
  82              		.loc 1 68 0
  83 0004 064B     		ldr	r3, .L7
  84 0006 1B68     		ldr	r3, [r3]
  85 0008 0193     		str	r3, [sp, #4]
  86              		.loc 1 70 0
  87 000a 00BF     		nop
  88 000c 044B     		ldr	r3, .L7
  89 000e 019A     		ldr	r2, [sp, #4]
  90 0010 1B68     		ldr	r3, [r3]
  91 0012 9A42     		cmp	r2, r3
  92 0014 01D0     		beq	.L6
  93 0016 FFF7FEFF 		bl	__stack_chk_fail
  94              	.L6:
  95 001a 03B0     		add	sp, sp, #12
  96              		.cfi_def_cfa_offset 4
  97              		@ sp needed
  98 001c 5DF804FB 		ldr	pc, [sp], #4
  99              	.L8:
 100              		.align	2
 101              	.L7:
 102 0020 00000000 		.word	__stack_chk_guard
 103              		.cfi_endproc
 104              	.LFE1:
 105              		.size	e_end_agendas_processing, .-e_end_agendas_processing
 106              		.section	.text.e_activate_agenda,"ax",%progbits
 107              		.align	1
 108              		.p2align 4,,15
 109              		.global	e_activate_agenda
 110              		.syntax unified
 111              		.thumb
 112              		.thumb_func
 113              		.fpu fpv4-sp-d16
 114              		.type	e_activate_agenda, %function
ARM GAS  C:\Users\PCHAUT~1\AppData\Local\Temp\ccJ7evbE.s 			page 3


 115              	e_activate_agenda:
 116              	.LFB2:
 117              		.loc 1 84 0
 118              		.cfi_startproc
 119              		@ args = 0, pretend = 0, frame = 16
 120              		@ frame_needed = 0, uses_anonymous_args = 0
 121 0000 00B5     		push	{lr}
 122              		.cfi_def_cfa_offset 4
 123              		.cfi_offset 14, -4
 124 0002 85B0     		sub	sp, sp, #20
 125              		.cfi_def_cfa_offset 24
 126 0004 0190     		str	r0, [sp, #4]
 127 0006 0091     		str	r1, [sp]
 128              		.loc 1 84 0
 129 0008 074B     		ldr	r3, .L12
 130 000a 1B68     		ldr	r3, [r3]
 131 000c 0393     		str	r3, [sp, #12]
 132              		.loc 1 108 0
 133 000e 0023     		movs	r3, #0
 134              		.loc 1 109 0
 135 0010 1846     		mov	r0, r3
 136 0012 054B     		ldr	r3, .L12
 137 0014 039A     		ldr	r2, [sp, #12]
 138 0016 1B68     		ldr	r3, [r3]
 139 0018 9A42     		cmp	r2, r3
 140 001a 01D0     		beq	.L11
 141 001c FFF7FEFF 		bl	__stack_chk_fail
 142              	.L11:
 143 0020 05B0     		add	sp, sp, #20
 144              		.cfi_def_cfa_offset 4
 145              		@ sp needed
 146 0022 5DF804FB 		ldr	pc, [sp], #4
 147              	.L13:
 148 0026 00BF     		.align	2
 149              	.L12:
 150 0028 00000000 		.word	__stack_chk_guard
 151              		.cfi_endproc
 152              	.LFE2:
 153              		.size	e_activate_agenda, .-e_activate_agenda
 154              		.section	.text.e_destroy_agenda,"ax",%progbits
 155              		.align	1
 156              		.p2align 4,,15
 157              		.global	e_destroy_agenda
 158              		.syntax unified
 159              		.thumb
 160              		.thumb_func
 161              		.fpu fpv4-sp-d16
 162              		.type	e_destroy_agenda, %function
 163              	e_destroy_agenda:
 164              	.LFB3:
 165              		.loc 1 119 0
 166              		.cfi_startproc
 167              		@ args = 0, pretend = 0, frame = 16
 168              		@ frame_needed = 0, uses_anonymous_args = 0
 169 0000 00B5     		push	{lr}
 170              		.cfi_def_cfa_offset 4
 171              		.cfi_offset 14, -4
ARM GAS  C:\Users\PCHAUT~1\AppData\Local\Temp\ccJ7evbE.s 			page 4


 172 0002 85B0     		sub	sp, sp, #20
 173              		.cfi_def_cfa_offset 24
 174 0004 0190     		str	r0, [sp, #4]
 175              		.loc 1 119 0
 176 0006 074B     		ldr	r3, .L17
 177 0008 1B68     		ldr	r3, [r3]
 178 000a 0393     		str	r3, [sp, #12]
 179              		.loc 1 144 0
 180 000c 0023     		movs	r3, #0
 181              		.loc 1 145 0
 182 000e 1846     		mov	r0, r3
 183 0010 044B     		ldr	r3, .L17
 184 0012 039A     		ldr	r2, [sp, #12]
 185 0014 1B68     		ldr	r3, [r3]
 186 0016 9A42     		cmp	r2, r3
 187 0018 01D0     		beq	.L16
 188 001a FFF7FEFF 		bl	__stack_chk_fail
 189              	.L16:
 190 001e 05B0     		add	sp, sp, #20
 191              		.cfi_def_cfa_offset 4
 192              		@ sp needed
 193 0020 5DF804FB 		ldr	pc, [sp], #4
 194              	.L18:
 195              		.align	2
 196              	.L17:
 197 0024 00000000 		.word	__stack_chk_guard
 198              		.cfi_endproc
 199              	.LFE3:
 200              		.size	e_destroy_agenda, .-e_destroy_agenda
 201              		.section	.text.e_set_agenda_cycle,"ax",%progbits
 202              		.align	1
 203              		.p2align 4,,15
 204              		.global	e_set_agenda_cycle
 205              		.syntax unified
 206              		.thumb
 207              		.thumb_func
 208              		.fpu fpv4-sp-d16
 209              		.type	e_set_agenda_cycle, %function
 210              	e_set_agenda_cycle:
 211              	.LFB4:
 212              		.loc 1 157 0
 213              		.cfi_startproc
 214              		@ args = 0, pretend = 0, frame = 16
 215              		@ frame_needed = 0, uses_anonymous_args = 0
 216 0000 00B5     		push	{lr}
 217              		.cfi_def_cfa_offset 4
 218              		.cfi_offset 14, -4
 219 0002 85B0     		sub	sp, sp, #20
 220              		.cfi_def_cfa_offset 24
 221 0004 0190     		str	r0, [sp, #4]
 222 0006 0091     		str	r1, [sp]
 223              		.loc 1 157 0
 224 0008 074B     		ldr	r3, .L22
 225 000a 1B68     		ldr	r3, [r3]
 226 000c 0393     		str	r3, [sp, #12]
 227              		.loc 1 174 0
 228 000e 0023     		movs	r3, #0
ARM GAS  C:\Users\PCHAUT~1\AppData\Local\Temp\ccJ7evbE.s 			page 5


 229              		.loc 1 175 0
 230 0010 1846     		mov	r0, r3
 231 0012 054B     		ldr	r3, .L22
 232 0014 039A     		ldr	r2, [sp, #12]
 233 0016 1B68     		ldr	r3, [r3]
 234 0018 9A42     		cmp	r2, r3
 235 001a 01D0     		beq	.L21
 236 001c FFF7FEFF 		bl	__stack_chk_fail
 237              	.L21:
 238 0020 05B0     		add	sp, sp, #20
 239              		.cfi_def_cfa_offset 4
 240              		@ sp needed
 241 0022 5DF804FB 		ldr	pc, [sp], #4
 242              	.L23:
 243 0026 00BF     		.align	2
 244              	.L22:
 245 0028 00000000 		.word	__stack_chk_guard
 246              		.cfi_endproc
 247              	.LFE4:
 248              		.size	e_set_agenda_cycle, .-e_set_agenda_cycle
 249              		.section	.text.e_reset_agenda,"ax",%progbits
 250              		.align	1
 251              		.p2align 4,,15
 252              		.global	e_reset_agenda
 253              		.syntax unified
 254              		.thumb
 255              		.thumb_func
 256              		.fpu fpv4-sp-d16
 257              		.type	e_reset_agenda, %function
 258              	e_reset_agenda:
 259              	.LFB5:
 260              		.loc 1 189 0
 261              		.cfi_startproc
 262              		@ args = 0, pretend = 0, frame = 16
 263              		@ frame_needed = 0, uses_anonymous_args = 0
 264 0000 00B5     		push	{lr}
 265              		.cfi_def_cfa_offset 4
 266              		.cfi_offset 14, -4
 267 0002 85B0     		sub	sp, sp, #20
 268              		.cfi_def_cfa_offset 24
 269 0004 0190     		str	r0, [sp, #4]
 270              		.loc 1 189 0
 271 0006 074B     		ldr	r3, .L27
 272 0008 1B68     		ldr	r3, [r3]
 273 000a 0393     		str	r3, [sp, #12]
 274              		.loc 1 205 0
 275 000c 0023     		movs	r3, #0
 276              		.loc 1 206 0
 277 000e 1846     		mov	r0, r3
 278 0010 044B     		ldr	r3, .L27
 279 0012 039A     		ldr	r2, [sp, #12]
 280 0014 1B68     		ldr	r3, [r3]
 281 0016 9A42     		cmp	r2, r3
 282 0018 01D0     		beq	.L26
 283 001a FFF7FEFF 		bl	__stack_chk_fail
 284              	.L26:
 285 001e 05B0     		add	sp, sp, #20
ARM GAS  C:\Users\PCHAUT~1\AppData\Local\Temp\ccJ7evbE.s 			page 6


 286              		.cfi_def_cfa_offset 4
 287              		@ sp needed
 288 0020 5DF804FB 		ldr	pc, [sp], #4
 289              	.L28:
 290              		.align	2
 291              	.L27:
 292 0024 00000000 		.word	__stack_chk_guard
 293              		.cfi_endproc
 294              	.LFE5:
 295              		.size	e_reset_agenda, .-e_reset_agenda
 296              		.section	.text.e_pause_agenda,"ax",%progbits
 297              		.align	1
 298              		.p2align 4,,15
 299              		.global	e_pause_agenda
 300              		.syntax unified
 301              		.thumb
 302              		.thumb_func
 303              		.fpu fpv4-sp-d16
 304              		.type	e_pause_agenda, %function
 305              	e_pause_agenda:
 306              	.LFB6:
 307              		.loc 1 216 0
 308              		.cfi_startproc
 309              		@ args = 0, pretend = 0, frame = 16
 310              		@ frame_needed = 0, uses_anonymous_args = 0
 311 0000 00B5     		push	{lr}
 312              		.cfi_def_cfa_offset 4
 313              		.cfi_offset 14, -4
 314 0002 85B0     		sub	sp, sp, #20
 315              		.cfi_def_cfa_offset 24
 316 0004 0190     		str	r0, [sp, #4]
 317              		.loc 1 216 0
 318 0006 074B     		ldr	r3, .L32
 319 0008 1B68     		ldr	r3, [r3]
 320 000a 0393     		str	r3, [sp, #12]
 321              		.loc 1 232 0
 322 000c 0023     		movs	r3, #0
 323              		.loc 1 233 0
 324 000e 1846     		mov	r0, r3
 325 0010 044B     		ldr	r3, .L32
 326 0012 039A     		ldr	r2, [sp, #12]
 327 0014 1B68     		ldr	r3, [r3]
 328 0016 9A42     		cmp	r2, r3
 329 0018 01D0     		beq	.L31
 330 001a FFF7FEFF 		bl	__stack_chk_fail
 331              	.L31:
 332 001e 05B0     		add	sp, sp, #20
 333              		.cfi_def_cfa_offset 4
 334              		@ sp needed
 335 0020 5DF804FB 		ldr	pc, [sp], #4
 336              	.L33:
 337              		.align	2
 338              	.L32:
 339 0024 00000000 		.word	__stack_chk_guard
 340              		.cfi_endproc
 341              	.LFE6:
 342              		.size	e_pause_agenda, .-e_pause_agenda
ARM GAS  C:\Users\PCHAUT~1\AppData\Local\Temp\ccJ7evbE.s 			page 7


 343              		.section	.text.e_restart_agenda,"ax",%progbits
 344              		.align	1
 345              		.p2align 4,,15
 346              		.global	e_restart_agenda
 347              		.syntax unified
 348              		.thumb
 349              		.thumb_func
 350              		.fpu fpv4-sp-d16
 351              		.type	e_restart_agenda, %function
 352              	e_restart_agenda:
 353              	.LFB7:
 354              		.loc 1 244 0
 355              		.cfi_startproc
 356              		@ args = 0, pretend = 0, frame = 16
 357              		@ frame_needed = 0, uses_anonymous_args = 0
 358 0000 00B5     		push	{lr}
 359              		.cfi_def_cfa_offset 4
 360              		.cfi_offset 14, -4
 361 0002 85B0     		sub	sp, sp, #20
 362              		.cfi_def_cfa_offset 24
 363 0004 0190     		str	r0, [sp, #4]
 364              		.loc 1 244 0
 365 0006 074B     		ldr	r3, .L37
 366 0008 1B68     		ldr	r3, [r3]
 367 000a 0393     		str	r3, [sp, #12]
 368              		.loc 1 260 0
 369 000c 0023     		movs	r3, #0
 370              		.loc 1 261 0
 371 000e 1846     		mov	r0, r3
 372 0010 044B     		ldr	r3, .L37
 373 0012 039A     		ldr	r2, [sp, #12]
 374 0014 1B68     		ldr	r3, [r3]
 375 0016 9A42     		cmp	r2, r3
 376 0018 01D0     		beq	.L36
 377 001a FFF7FEFF 		bl	__stack_chk_fail
 378              	.L36:
 379 001e 05B0     		add	sp, sp, #20
 380              		.cfi_def_cfa_offset 4
 381              		@ sp needed
 382 0020 5DF804FB 		ldr	pc, [sp], #4
 383              	.L38:
 384              		.align	2
 385              	.L37:
 386 0024 00000000 		.word	__stack_chk_guard
 387              		.cfi_endproc
 388              	.LFE7:
 389              		.size	e_restart_agenda, .-e_restart_agenda
 390              		.text
 391              	.Letext0:
 392              		.file 2 "c:\\users\\pchautems\\documents\\robotiquetp\\eclipse_e-puck2\\tools\\gcc-arm-none-eabi-7
 393              		.file 3 "c:\\users\\pchautems\\documents\\robotiquetp\\eclipse_e-puck2\\tools\\gcc-arm-none-eabi-7
 394              		.file 4 "c:\\users\\pchautems\\documents\\robotiquetp\\eclipse_e-puck2\\tools\\gcc-arm-none-eabi-7
 395              		.file 5 "c:\\users\\pchautems\\documents\\robotiquetp\\eclipse_e-puck2\\tools\\gcc-arm-none-eabi-7
 396              		.file 6 "c:\\users\\pchautems\\documents\\robotiquetp\\eclipse_e-puck2\\tools\\gcc-arm-none-eabi-7