ARM GAS  C:\Users\PCHAUT~1\AppData\Local\Temp\ccJ7evbE.s 			page 1


   1              		.cpu cortex-m4
   2              		.eabi_attribute 27, 1
   3              		.eabi_attribute 28, 1
   4              		.eabi_attribute 20, 1
   5              		.eabi_attribute 21, 1
   6              		.eabi_attribute 23, 3
   7              		.eabi_attribute 24, 1
   8              		.eabi_attribute 25, 1
   9              		.eabi_attribute 26, 1
  10              		.eabi_attribute 30, 6
  11              		.eabi_attribute 34, 1
  12              		.eabi_attribute 18, 4
  13              		.file	"e_agenda.c"
  14              		.text
  15              	.Ltext0:
  16              		.cfi_sections	.debug_frame
  17              		.section	.text.e_start_agendas_processing,"ax",%progbits
  18              		.align	1
  19              		.p2align 4,,15
  20              		.global	e_start_agendas_processing
  21              		.syntax unified
  22              		.thumb
  23              		.thumb_func
  24              		.fpu fpv4-sp-d16
  25              		.type	e_start_agendas_processing, %function
  26              	e_start_agendas_processing:
  27              	.LFB0:
  28              		.file 1 "../lib/e-puck2_main-processor/src/epuck1x/motor_led/advance_one_timer/e_agenda.c"
  29              		.loc 1 49 0
  30              		.cfi_startproc
  31              		@ args = 0, pretend = 0, frame = 8
  32              		@ frame_needed = 0, uses_anonymous_args = 0
  33 0000 00B5     		push	{lr}
  34              		.cfi_def_cfa_offset 4
  35              		.cfi_offset 14, -4
  36 0002 83B0     		sub	sp, sp, #12
  37              		.cfi_def_cfa_offset 16
  38              		.loc 1 49 0
  39 0004 064B     		ldr	r3, .L3
  40 0006 1B68     		ldr	r3, [r3]
  41 0008 0193     		str	r3, [sp, #4]
  42              		.loc 1 57 0
  43 000a 00BF     		nop
  44 000c 044B     		ldr	r3, .L3
  45 000e 019A     		ldr	r2, [sp, #4]
  46 0010 1B68     		ldr	r3, [r3]
  47 0012 9A42     		cmp	r2, r3
  48 0014 01D0     		beq	.L2
  49 0016 FFF7FEFF 		bl	__stack_chk_fail
  50              	.L2:
  51 001a 03B0     		add	sp, sp, #12
  52              		.cfi_def_cfa_offset 4
  53              		@ sp needed
  54 001c 5DF804FB 		ldr	pc, [sp], #4
  55              	.L4:
  56              		.align	2
  57              	.L3:
ARM GAS  C:\Users\PCHAUT~1\AppData\Local\Temp\ccJ7evbE.s 			page 2


  58 0020 00000000 		.word	__stack_chk_guard
  59              		.cfi_endproc
  60              	.LFE0:
  61              		.size	e_start_agendas_processing, .-e_start_agendas_processing
  62              		.section	.text.e_end_agendas_processing,"ax",%progbits
  63              		.align	1
  64              		.p2align 4,,15
  65              		.global	e_end_agendas_processing
  66              		.syntax unified
  67              		.thumb
  68              		.thumb_func
  69              		.fpu fpv4-sp-d16
  70              		.type	e_end_agendas_processing, %function
  71              	e_end_agendas_processing:
  72              	.LFB1:
  73              		.loc 1 68 0
  74              		.cfi_startproc
  75              		@ args = 0, pretend = 0, frame = 8
  76              		@ frame_needed = 0, uses_anonymous_args = 0
  77 0000 00B5     		push	{lr}
  78              		.cfi_def_cfa_offset 4
  79              		.cfi_offset 14, -4
  80 0002 83B0     		sub	sp, sp, #12
  81              		.cfi_def_cfa_offset 16
  82              		.loc 1 68 0
  83 0004 064B     		ldr	r3, .L7
  84 0006 1B68     		ldr	r3, [r3]
  85 0008 0193     		str	r3, [sp, #4]
  86              		.loc 1 70 0
  87 000a 00BF     		nop
  88 000c 044B     		ldr	r3, .L7
  89 000e 019A     		ldr	r2, [sp, #4]
  90 0010 1B68     		ldr	r3, [r3]
  91 0012 9A42     		cmp	r2, r3
  92 0014 01D0     		beq	.L6
  93 0016 FFF7FEFF 		bl	__stack_chk_fail
  94              	.L6:
  95 001a 03B0     		add	sp, sp, #12
  96              		.cfi_def_cfa_offset 4
  97              		@ sp needed
  98 001c 5DF804FB 		ldr	pc, [sp], #4
  99              	.L8:
 100              		.align	2
 101              	.L7:
 102 0020 00000000 		.word	__stack_chk_guard
 103              		.cfi_endproc
 104              	.LFE1:
 105              		.size	e_end_agendas_processing, .-e_end_agendas_processing
 106              		.section	.text.e_activate_agenda,"ax",%progbits
 107              		.align	1
 108              		.p2align 4,,15
 109              		.global	e_activate_agenda
 110              		.syntax unified
 111              		.thumb
 112              		.thumb_func
 113              		.fpu fpv4-sp-d16
 114              		.type	e_activate_agenda, %function
ARM GAS  C:\Users\PCHAUT~1\AppData\Local\Temp\ccJ7evbE.s 			page 3


 115              	e_activate_agenda:
 116              	.LFB2:
 117              		.loc 1 84 0
 118              		.cfi_startproc
 119              		@ args = 0, pretend = 0, frame = 16
 120              		@ frame_needed = 0, uses_anonymous_args = 0
 121 0000 00B5     		push	{lr}
 122              		.cfi_def_cfa_offset 4
 123              		.cfi_offset 14, -4
 124 0002 85B0     		sub	sp, sp, #20
 125              		.cfi_def_cfa_offset 24
 126 0004 0190     		str	r0, [sp, #4]
 127 0006 0091     		str	r1, [sp]
 128              		.loc 1 84 0
 129 0008 074B     		ldr	r3, .L12
 130 000a 1B68     		ldr	r3, [r3]
 131 000c 0393     		str	r3, [sp, #12]
 132              		.loc 1 108 0
 133 000e 0023     		movs	r3, #0
 134              		.loc 1 109 0
 135 0010 1846     		mov	r0, r3
 136 0012 054B     		ldr	r3, .L12
 137 0014 039A     		ldr	r2, [sp, #12]
 138 0016 1B68     		ldr	r3, [r3]
 139 0018 9A42     		cmp	r2, r3
 140 001a 01D0     		beq	.L11
 141 001c FFF7FEFF 		bl	__stack_chk_fail
 142              	.L11:
 143 0020 05B0     		add	sp, sp, #20
 144              		.cfi_def_cfa_offset 4
 145              		@ sp needed
 146 0022 5DF804FB 		ldr	pc, [sp], #4
 147              	.L13:
 148 0026 00BF     		.align	2
 149              	.L12:
 150 0028 00000000 		.word	__stack_chk_guard
 151              		.cfi_endproc
 152              	.LFE2:
 153              		.size	e_activate_agenda, .-e_activate_agenda
 154              		.section	.text.e_destroy_agenda,"ax",%progbits
 155              		.align	1
 156              		.p2align 4,,15
 157              		.global	e_destroy_agenda
 158              		.syntax unified
 159              		.thumb
 160              		.thumb_func
 161              		.fpu fpv4-sp-d16
 162              		.type	e_destroy_agenda, %function
 163              	e_destroy_agenda:
 164              	.LFB3:
 165              		.loc 1 119 0
 166              		.cfi_startproc
 167              		@ args = 0, pretend = 0, frame = 16
 168              		@ frame_needed = 0, uses_anonymous_args = 0
 169 0000 00B5     		push	{lr}
 170              		.cfi_def_cfa_offset 4
 171              		.cfi_offset 14, -4
ARM GAS  C:\Users\PCHAUT~1\AppData\Local\Temp\ccJ7evbE.s 			page 4


 172 0002 85B0     		sub	sp, sp, #20
 173              		.cfi_def_cfa_offset 24
 174 0004 0190     		str	r0, [sp, #4]
 175              		.loc 1 119 0
 176 0006 074B     		ldr	r3, .L17
 177 0008 1B68     		ldr	r3, [r3]
 178 000a 0393     		str	r3, [sp, #12]
 179              		.loc 1 144 0
 180 000c 0023     		movs	r3, #0
 181              		.loc 1 145 0
 182 000e 1846     		mov	r0, r3
 183 0010 044B     		ldr	r3, .L17
 184 0012 039A     		ldr	r2, [sp, #12]
 185 0014 1B68     		ldr	r3, [r3]
 186 0016 9A42     		cmp	r2, r3
 187 0018 01D0     		beq	.L16
 188 001a FFF7FEFF 		bl	__stack_chk_fail
 189              	.L16:
 190 001e 05B0     		add	sp, sp, #20
 191              		.cfi_def_cfa_offset 4
 192              		@ sp needed
 193 0020 5DF804FB 		ldr	pc, [sp], #4
 194              	.L18:
 195              		.align	2
 196              	.L17:
 197 0024 00000000 		.word	__stack_chk_guard
 198              		.cfi_endproc
 199              	.LFE3:
 200              		.size	e_destroy_agenda, .-e_destroy_agenda
 201              		.section	.text.e_set_agenda_cycle,"ax",%progbits
 202              		.align	1
 203              		.p2align 4,,15
 204              		.global	e_set_agenda_cycle
 205              		.syntax unified
 206              		.thumb
 207              		.thumb_func
 208              		.fpu fpv4-sp-d16
 209              		.type	e_set_agenda_cycle, %function
 210              	e_set_agenda_cycle:
 211              	.LFB4:
 212              		.loc 1 157 0
 213              		.cfi_startproc
 214              		@ args = 0, pretend = 0, frame = 16
 215              		@ frame_needed = 0, uses_anonymous_args = 0
 216 0000 00B5     		push	{lr}
 217              		.cfi_def_cfa_offset 4
 218              		.cfi_offset 14, -4
 219 0002 85B0     		sub	sp, sp, #20
 220              		.cfi_def_cfa_offset 24
 221 0004 0190     		str	r0, [sp, #4]
 222 0006 0091     		str	r1, [sp]
 223              		.loc 1 157 0
 224 0008 074B     		ldr	r3, .L22
 225 000a 1B68     		ldr	r3, [r3]
 226 000c 0393     		str	r3, [sp, #12]
 227              		.loc 1 174 0
 228 000e 0023     		movs	r3, #0
ARM GAS  C:\Users\PCHAUT~1\AppData\Local\Temp\ccJ7evbE.s 			page 5


 229              		.loc 1 175 0
 230 0010 1846     		mov	r0, r3
 231 0012 054B     		ldr	r3, .L22
 232 0014 039A     		ldr	r2, [sp, #12]
 233 0016 1B68     		ldr	r3, [r3]
 234 0018 9A42     		cmp	r2, r3
 235 001a 01D0     		beq	.L21
 236 001c FFF7FEFF 		bl	__stack_chk_fail
 237              	.L21:
 238 0020 05B0     		add	sp, sp, #20
 239              		.cfi_def_cfa_offset 4
 240              		@ sp needed
 241 0022 5DF804FB 		ldr	pc, [sp], #4
 242              	.L23:
 243 0026 00BF     		.align	2
 244              	.L22:
 245 0028 00000000 		.word	__stack_chk_guard
 246              		.cfi_endproc
 247              	.LFE4:
 248              		.size	e_set_agenda_cycle, .-e_set_agenda_cycle
 249              		.section	.text.e_reset_agenda,"ax",%progbits
 250              		.align	1
 251              		.p2align 4,,15
 252              		.global	e_reset_agenda
 253              		.syntax unified
 254              		.thumb
 255              		.thumb_func
 256              		.fpu fpv4-sp-d16
 257              		.type	e_reset_agenda, %function
 258              	e_reset_agenda:
 259              	.LFB5:
 260              		.loc 1 189 0
 261              		.cfi_startproc
 262              		@ args = 0, pretend = 0, frame = 16
 263              		@ frame_needed = 0, uses_anonymous_args = 0
 264 0000 00B5     		push	{lr}
 265              		.cfi_def_cfa_offset 4
 266              		.cfi_offset 14, -4
 267 0002 85B0     		sub	sp, sp, #20
 268              		.cfi_def_cfa_offset 24
 269 0004 0190     		str	r0, [sp, #4]
 270              		.loc 1 189 0
 271 0006 074B     		ldr	r3, .L27
 272 0008 1B68     		ldr	r3, [r3]
 273 000a 0393     		str	r3, [sp, #12]
 274              		.loc 1 205 0
 275 000c 0023     		movs	r3, #0
 276              		.loc 1 206 0
 277 000e 1846     		mov	r0, r3
 278 0010 044B     		ldr	r3, .L27
 279 0012 039A     		ldr	r2, [sp, #12]
 280 0014 1B68     		ldr	r3, [r3]
 281 0016 9A42     		cmp	r2, r3
 282 0018 01D0     		beq	.L26
 283 001a FFF7FEFF 		bl	__stack_chk_fail
 284              	.L26:
 285 001e 05B0     		add	sp, sp, #20
ARM GAS  C:\Users\PCHAUT~1\AppData\Local\Temp\ccJ7evbE.s 			page 6


 286              		.cfi_def_cfa_offset 4
 287              		@ sp needed
 288 0020 5DF804FB 		ldr	pc, [sp], #4
 289              	.L28:
 290              		.align	2
 291              	.L27:
 292 0024 00000000 		.word	__stack_chk_guard
 293              		.cfi_endproc
 294              	.LFE5:
 295              		.size	e_reset_agenda, .-e_reset_agenda
 296              		.section	.text.e_pause_agenda,"ax",%progbits
 297              		.align	1
 298              		.p2align 4,,15
 299              		.global	e_pause_agenda
 300              		.syntax unified
 301              		.thumb
 302              		.thumb_func
 303              		.fpu fpv4-sp-d16
 304              		.type	e_pause_agenda, %function
 305              	e_pause_agenda:
 306              	.LFB6:
 307              		.loc 1 216 0
 308              		.cfi_startproc
 309              		@ args = 0, pretend = 0, frame = 16
 310              		@ frame_needed = 0, uses_anonymous_args = 0
 311 0000 00B5     		push	{lr}
 312              		.cfi_def_cfa_offset 4
 313              		.cfi_offset 14, -4
 314 0002 85B0     		sub	sp, sp, #20
 315              		.cfi_def_cfa_offset 24
 316 0004 0190     		str	r0, [sp, #4]
 317              		.loc 1 216 0
 318 0006 074B     		ldr	r3, .L32
 319 0008 1B68     		ldr	r3, [r3]
 320 000a 0393     		str	r3, [sp, #12]
 321              		.loc 1 232 0
 322 000c 0023     		movs	r3, #0
 323              		.loc 1 233 0
 324 000e 1846     		mov	r0, r3
 325 0010 044B     		ldr	r3, .L32
 326 0012 039A     		ldr	r2, [sp, #12]
 327 0014 1B68     		ldr	r3, [r3]
 328 0016 9A42     		cmp	r2, r3
 329 0018 01D0     		beq	.L31
 330 001a FFF7FEFF 		bl	__stack_chk_fail
 331              	.L31:
 332 001e 05B0     		add	sp, sp, #20
 333              		.cfi_def_cfa_offset 4
 334              		@ sp needed
 335 0020 5DF804FB 		ldr	pc, [sp], #4
 336              	.L33:
 337              		.align	2
 338              	.L32:
 339 0024 00000000 		.word	__stack_chk_guard
 340              		.cfi_endproc
 341              	.LFE6:
 342              		.size	e_pause_agenda, .-e_pause_agenda
ARM GAS  C:\Users\PCHAUT~1\AppData\Local\Temp\ccJ7evbE.s 			page 7


 343              		.section	.text.e_restart_agenda,"ax",%progbits
 344              		.align	1
 345              		.p2align 4,,15
 346              		.global	e_restart_agenda
 347              		.syntax unified
 348              		.thumb
 349              		.thumb_func
 350              		.fpu fpv4-sp-d16
 351              		.type	e_restart_agenda, %function
 352              	e_restart_agenda:
 353              	.LFB7:
 354              		.loc 1 244 0
 355              		.cfi_startproc
 356              		@ args = 0, pretend = 0, frame = 16
 357              		@ frame_needed = 0, uses_anonymous_args = 0
 358 0000 00B5     		push	{lr}
 359              		.cfi_def_cfa_offset 4
 360              		.cfi_offset 14, -4
 361 0002 85B0     		sub	sp, sp, #20
 362              		.cfi_def_cfa_offset 24
 363 0004 0190     		str	r0, [sp, #4]
 364              		.loc 1 244 0
 365 0006 074B     		ldr	r3, .L37
 366 0008 1B68     		ldr	r3, [r3]
 367 000a 0393     		str	r3, [sp, #12]
 368              		.loc 1 260 0
 369 000c 0023     		movs	r3, #0
 370              		.loc 1 261 0
 371 000e 1846     		mov	r0, r3
 372 0010 044B     		ldr	r3, .L37
 373 0012 039A     		ldr	r2, [sp, #12]
 374 0014 1B68     		ldr	r3, [r3]
 375 0016 9A42     		cmp	r2, r3
 376 0018 01D0     		beq	.L36
 377 001a FFF7FEFF 		bl	__stack_chk_fail
 378              	.L36:
 379 001e 05B0     		add	sp, sp, #20
 380              		.cfi_def_cfa_offset 4
 381              		@ sp needed
 382 0020 5DF804FB 		ldr	pc, [sp], #4
 383              	.L38:
 384              		.align	2
 385              	.L37:
 386 0024 00000000 		.word	__stack_chk_guard
 387              		.cfi_endproc
 388              	.LFE7:
 389              		.size	e_restart_agenda, .-e_restart_agenda
 390              		.text
 391              	.Letext0:
 392              		.file 2 "c:\\users\\pchautems\\documents\\robotiquetp\\eclipse_e-puck2\\tools\\gcc-arm-none-eabi-7
 393              		.file 3 "c:\\users\\pchautems\\documents\\robotiquetp\\eclipse_e-puck2\\tools\\gcc-arm-none-eabi-7
 394              		.file 4 "c:\\users\\pchautems\\documents\\robotiquetp\\eclipse_e-puck2\\tools\\gcc-arm-none-eabi-7
 395              		.file 5 "c:\\users\\pchautems\\documents\\robotiquetp\\eclipse_e-puck2\\tools\\gcc-arm-none-eabi-7
 396              		.file 6 "c:\\users\\pchautems\\documents\\robotiquetp\\eclipse_e-puck2\\tools\\gcc-arm-none-eabi-7
 397              		.section	.debug_info,"",%progbits
 398              	.Ldebug_info0:
 399 0000 CA090000 		.4byte	0x9ca
ARM GAS  C:\Users\PCHAUT~1\AppData\Local\Temp\ccJ7evbE.s 			page 8


 400 0004 0400     		.2byte	0x4
 401 0006 00000000 		.4byte	.Ldebug_abbrev0
 402 000a 04       		.byte	0x4
 403 000b 01       		.uleb128 0x1
 404 000c 63010000 		.4byte	.LASF132
 405 0010 0C       		.byte	0xc
 406 0011 25000000 		.4byte	.LASF133
 407 0015 32050000 		.4byte	.LASF134
 408 0019 00000000 		.4byte	.Ldebug_ranges0+0
 409 001d 00000000 		.4byte	0
 410 0021 00000000 		.4byte	.Ldebug_line0
 411 0025 02       		.uleb128 0x2
 412 0026 04       		.byte	0x4
 413 0027 07       		.byte	0x7
 414 0028 54030000 		.4byte	.LASF0
 415 002c 03       		.uleb128 0x3
 416 002d 04       		.byte	0x4
 417 002e 05       		.byte	0x5
 418 002f 696E7400 		.ascii	"int\000"
 419 0033 02       		.uleb128 0x2
 420 0034 01       		.byte	0x1
 421 0035 08       		.byte	0x8
 422 0036 F7050000 		.4byte	.LASF1
 423 003a 04       		.uleb128 0x4
 424 003b 33000000 		.4byte	0x33
 425 003f 05       		.uleb128 0x5
 426 0040 06       		.uleb128 0x6
 427 0041 04       		.byte	0x4
 428 0042 3F000000 		.4byte	0x3f
 429 0046 02       		.uleb128 0x2
 430 0047 08       		.byte	0x8
 431 0048 05       		.byte	0x5
 432 0049 07010000 		.4byte	.LASF2
 433 004d 02       		.uleb128 0x2
 434 004e 08       		.byte	0x8
 435 004f 04       		.byte	0x4
 436 0050 2A040000 		.4byte	.LASF3
 437 0054 02       		.uleb128 0x2
 438 0055 01       		.byte	0x1
 439 0056 06       		.byte	0x6
 440 0057 15010000 		.4byte	.LASF4
 441 005b 02       		.uleb128 0x2
 442 005c 01       		.byte	0x1
 443 005d 08       		.byte	0x8
 444 005e B0040000 		.4byte	.LASF5
 445 0062 02       		.uleb128 0x2
 446 0063 02       		.byte	0x2
 447 0064 05       		.byte	0x5
 448 0065 CC040000 		.4byte	.LASF6
 449 0069 02       		.uleb128 0x2
 450 006a 02       		.byte	0x2
 451 006b 07       		.byte	0x7
 452 006c A8030000 		.4byte	.LASF7
 453 0070 02       		.uleb128 0x2
 454 0071 04       		.byte	0x4
 455 0072 05       		.byte	0x5
 456 0073 5A010000 		.4byte	.LASF8
ARM GAS  C:\Users\PCHAUT~1\AppData\Local\Temp\ccJ7evbE.s 			page 9


 457 0077 02       		.uleb128 0x2
 458 0078 04       		.byte	0x4
 459 0079 07       		.byte	0x7
 460 007a 89030000 		.4byte	.LASF9
 461 007e 02       		.uleb128 0x2
 462 007f 08       		.byte	0x8
 463 0080 07       		.byte	0x7
 464 0081 C4000000 		.4byte	.LASF10
 465 0085 07       		.uleb128 0x7
 466 0086 EB030000 		.4byte	.LASF11
 467 008a 02       		.byte	0x2
 468 008b 22       		.byte	0x22
 469 008c 90000000 		.4byte	0x90
 470 0090 06       		.uleb128 0x6
 471 0091 04       		.byte	0x4
 472 0092 96000000 		.4byte	0x96
 473 0096 08       		.uleb128 0x8
 474 0097 C7050000 		.4byte	.LASF117
 475 009b 07       		.uleb128 0x7
 476 009c 76040000 		.4byte	.LASF12
 477 00a0 03       		.byte	0x3
 478 00a1 2C       		.byte	0x2c
 479 00a2 70000000 		.4byte	0x70
 480 00a6 07       		.uleb128 0x7
 481 00a7 E8050000 		.4byte	.LASF13
 482 00ab 03       		.byte	0x3
 483 00ac 72       		.byte	0x72
 484 00ad 70000000 		.4byte	0x70
 485 00b1 09       		.uleb128 0x9
 486 00b2 F3030000 		.4byte	.LASF14
 487 00b6 04       		.byte	0x4
 488 00b7 6501     		.2byte	0x165
 489 00b9 25000000 		.4byte	0x25
 490 00bd 0A       		.uleb128 0xa
 491 00be 04       		.byte	0x4
 492 00bf 03       		.byte	0x3
 493 00c0 A6       		.byte	0xa6
 494 00c1 DC000000 		.4byte	0xdc
 495 00c5 0B       		.uleb128 0xb
 496 00c6 E5030000 		.4byte	.LASF15
 497 00ca 03       		.byte	0x3
 498 00cb A8       		.byte	0xa8
 499 00cc B1000000 		.4byte	0xb1
 500 00d0 0B       		.uleb128 0xb
 501 00d1 61030000 		.4byte	.LASF16
 502 00d5 03       		.byte	0x3
 503 00d6 A9       		.byte	0xa9
 504 00d7 DC000000 		.4byte	0xdc
 505 00db 00       		.byte	0
 506 00dc 0C       		.uleb128 0xc
 507 00dd 5B000000 		.4byte	0x5b
 508 00e1 EC000000 		.4byte	0xec
 509 00e5 0D       		.uleb128 0xd
 510 00e6 25000000 		.4byte	0x25
 511 00ea 03       		.byte	0x3
 512 00eb 00       		.byte	0
 513 00ec 0E       		.uleb128 0xe
ARM GAS  C:\Users\PCHAUT~1\AppData\Local\Temp\ccJ7evbE.s 			page 10


 514 00ed 08       		.byte	0x8
 515 00ee 03       		.byte	0x3
 516 00ef A3       		.byte	0xa3
 517 00f0 0D010000 		.4byte	0x10d
 518 00f4 0F       		.uleb128 0xf
 519 00f5 BF050000 		.4byte	.LASF17
 520 00f9 03       		.byte	0x3
 521 00fa A5       		.byte	0xa5
 522 00fb 2C000000 		.4byte	0x2c
 523 00ff 00       		.byte	0
 524 0100 0F       		.uleb128 0xf
 525 0101 CE050000 		.4byte	.LASF18
 526 0105 03       		.byte	0x3
 527 0106 AA       		.byte	0xaa
 528 0107 BD000000 		.4byte	0xbd
 529 010b 04       		.byte	0x4
 530 010c 00       		.byte	0
 531 010d 07       		.uleb128 0x7
 532 010e F4040000 		.4byte	.LASF19
 533 0112 03       		.byte	0x3
 534 0113 AB       		.byte	0xab
 535 0114 EC000000 		.4byte	0xec
 536 0118 07       		.uleb128 0x7
 537 0119 17030000 		.4byte	.LASF20
 538 011d 03       		.byte	0x3
 539 011e AF       		.byte	0xaf
 540 011f 85000000 		.4byte	0x85
 541 0123 10       		.uleb128 0x10
 542 0124 04       		.byte	0x4
 543 0125 06       		.uleb128 0x6
 544 0126 04       		.byte	0x4
 545 0127 33000000 		.4byte	0x33
 546 012b 07       		.uleb128 0x7
 547 012c 31060000 		.4byte	.LASF21
 548 0130 05       		.byte	0x5
 549 0131 16       		.byte	0x16
 550 0132 77000000 		.4byte	0x77
 551 0136 11       		.uleb128 0x11
 552 0137 28030000 		.4byte	.LASF26
 553 013b 18       		.byte	0x18
 554 013c 05       		.byte	0x5
 555 013d 2F       		.byte	0x2f
 556 013e 89010000 		.4byte	0x189
 557 0142 0F       		.uleb128 0xf
 558 0143 10060000 		.4byte	.LASF22
 559 0147 05       		.byte	0x5
 560 0148 31       		.byte	0x31
 561 0149 89010000 		.4byte	0x189
 562 014d 00       		.byte	0
 563 014e 12       		.uleb128 0x12
 564 014f 5F6B00   		.ascii	"_k\000"
 565 0152 05       		.byte	0x5
 566 0153 32       		.byte	0x32
 567 0154 2C000000 		.4byte	0x2c
 568 0158 04       		.byte	0x4
 569 0159 0F       		.uleb128 0xf
 570 015a 98050000 		.4byte	.LASF23
ARM GAS  C:\Users\PCHAUT~1\AppData\Local\Temp\ccJ7evbE.s 			page 11


 571 015e 05       		.byte	0x5
 572 015f 32       		.byte	0x32
 573 0160 2C000000 		.4byte	0x2c
 574 0164 08       		.byte	0x8
 575 0165 0F       		.uleb128 0xf
 576 0166 11030000 		.4byte	.LASF24
 577 016a 05       		.byte	0x5
 578 016b 32       		.byte	0x32
 579 016c 2C000000 		.4byte	0x2c
 580 0170 0C       		.byte	0xc
 581 0171 0F       		.uleb128 0xf
 582 0172 6C060000 		.4byte	.LASF25
 583 0176 05       		.byte	0x5
 584 0177 32       		.byte	0x32
 585 0178 2C000000 		.4byte	0x2c
 586 017c 10       		.byte	0x10
 587 017d 12       		.uleb128 0x12
 588 017e 5F7800   		.ascii	"_x\000"
 589 0181 05       		.byte	0x5
 590 0182 33       		.byte	0x33
 591 0183 8F010000 		.4byte	0x18f
 592 0187 14       		.byte	0x14
 593 0188 00       		.byte	0
 594 0189 06       		.uleb128 0x6
 595 018a 04       		.byte	0x4
 596 018b 36010000 		.4byte	0x136
 597 018f 0C       		.uleb128 0xc
 598 0190 2B010000 		.4byte	0x12b
 599 0194 9F010000 		.4byte	0x19f
 600 0198 0D       		.uleb128 0xd
 601 0199 25000000 		.4byte	0x25
 602 019d 00       		.byte	0
 603 019e 00       		.byte	0
 604 019f 11       		.uleb128 0x11
 605 01a0 4F030000 		.4byte	.LASF27
 606 01a4 24       		.byte	0x24
 607 01a5 05       		.byte	0x5
 608 01a6 37       		.byte	0x37
 609 01a7 18020000 		.4byte	0x218
 610 01ab 0F       		.uleb128 0xf
 611 01ac FE000000 		.4byte	.LASF28
 612 01b0 05       		.byte	0x5
 613 01b1 39       		.byte	0x39
 614 01b2 2C000000 		.4byte	0x2c
 615 01b6 00       		.byte	0
 616 01b7 0F       		.uleb128 0xf
 617 01b8 01060000 		.4byte	.LASF29
 618 01bc 05       		.byte	0x5
 619 01bd 3A       		.byte	0x3a
 620 01be 2C000000 		.4byte	0x2c
 621 01c2 04       		.byte	0x4
 622 01c3 0F       		.uleb128 0xf
 623 01c4 2D010000 		.4byte	.LASF30
 624 01c8 05       		.byte	0x5
 625 01c9 3B       		.byte	0x3b
 626 01ca 2C000000 		.4byte	0x2c
 627 01ce 08       		.byte	0x8
ARM GAS  C:\Users\PCHAUT~1\AppData\Local\Temp\ccJ7evbE.s 			page 12


 628 01cf 0F       		.uleb128 0xf
 629 01d0 E5060000 		.4byte	.LASF31
 630 01d4 05       		.byte	0x5
 631 01d5 3C       		.byte	0x3c
 632 01d6 2C000000 		.4byte	0x2c
 633 01da 0C       		.byte	0xc
 634 01db 0F       		.uleb128 0xf
 635 01dc 50040000 		.4byte	.LASF32
 636 01e0 05       		.byte	0x5
 637 01e1 3D       		.byte	0x3d
 638 01e2 2C000000 		.4byte	0x2c
 639 01e6 10       		.byte	0x10
 640 01e7 0F       		.uleb128 0xf
 641 01e8 0F040000 		.4byte	.LASF33
 642 01ec 05       		.byte	0x5
 643 01ed 3E       		.byte	0x3e
 644 01ee 2C000000 		.4byte	0x2c
 645 01f2 14       		.byte	0x14
 646 01f3 0F       		.uleb128 0xf
 647 01f4 71060000 		.4byte	.LASF34
 648 01f8 05       		.byte	0x5
 649 01f9 3F       		.byte	0x3f
 650 01fa 2C000000 		.4byte	0x2c
 651 01fe 18       		.byte	0x18
 652 01ff 0F       		.uleb128 0xf
 653 0200 D6040000 		.4byte	.LASF35
 654 0204 05       		.byte	0x5
 655 0205 40       		.byte	0x40
 656 0206 2C000000 		.4byte	0x2c
 657 020a 1C       		.byte	0x1c
 658 020b 0F       		.uleb128 0xf
 659 020c AC060000 		.4byte	.LASF36
 660 0210 05       		.byte	0x5
 661 0211 41       		.byte	0x41
 662 0212 2C000000 		.4byte	0x2c
 663 0216 20       		.byte	0x20
 664 0217 00       		.byte	0
 665 0218 13       		.uleb128 0x13
 666 0219 3C010000 		.4byte	.LASF37
 667 021d 0801     		.2byte	0x108
 668 021f 05       		.byte	0x5
 669 0220 4A       		.byte	0x4a
 670 0221 58020000 		.4byte	0x258
 671 0225 0F       		.uleb128 0xf
 672 0226 F5020000 		.4byte	.LASF38
 673 022a 05       		.byte	0x5
 674 022b 4B       		.byte	0x4b
 675 022c 58020000 		.4byte	0x258
 676 0230 00       		.byte	0
 677 0231 0F       		.uleb128 0xf
 678 0232 00000000 		.4byte	.LASF39
 679 0236 05       		.byte	0x5
 680 0237 4C       		.byte	0x4c
 681 0238 58020000 		.4byte	0x258
 682 023c 80       		.byte	0x80
 683 023d 14       		.uleb128 0x14
 684 023e 23060000 		.4byte	.LASF40
ARM GAS  C:\Users\PCHAUT~1\AppData\Local\Temp\ccJ7evbE.s 			page 13


 685 0242 05       		.byte	0x5
 686 0243 4E       		.byte	0x4e
 687 0244 2B010000 		.4byte	0x12b
 688 0248 0001     		.2byte	0x100
 689 024a 14       		.uleb128 0x14
 690 024b AE020000 		.4byte	.LASF41
 691 024f 05       		.byte	0x5
 692 0250 51       		.byte	0x51
 693 0251 2B010000 		.4byte	0x12b
 694 0255 0401     		.2byte	0x104
 695 0257 00       		.byte	0
 696 0258 0C       		.uleb128 0xc
 697 0259 23010000 		.4byte	0x123
 698 025d 68020000 		.4byte	0x268
 699 0261 0D       		.uleb128 0xd
 700 0262 25000000 		.4byte	0x25
 701 0266 1F       		.byte	0x1f
 702 0267 00       		.byte	0
 703 0268 13       		.uleb128 0x13
 704 0269 59040000 		.4byte	.LASF42
 705 026d 9001     		.2byte	0x190
 706 026f 05       		.byte	0x5
 707 0270 5D       		.byte	0x5d
 708 0271 A6020000 		.4byte	0x2a6
 709 0275 0F       		.uleb128 0xf
 710 0276 10060000 		.4byte	.LASF22
 711 027a 05       		.byte	0x5
 712 027b 5E       		.byte	0x5e
 713 027c A6020000 		.4byte	0x2a6
 714 0280 00       		.byte	0
 715 0281 0F       		.uleb128 0xf
 716 0282 2D050000 		.4byte	.LASF43
 717 0286 05       		.byte	0x5
 718 0287 5F       		.byte	0x5f
 719 0288 2C000000 		.4byte	0x2c
 720 028c 04       		.byte	0x4
 721 028d 0F       		.uleb128 0xf
 722 028e 0C030000 		.4byte	.LASF44
 723 0292 05       		.byte	0x5
 724 0293 61       		.byte	0x61
 725 0294 AC020000 		.4byte	0x2ac
 726 0298 08       		.byte	0x8
 727 0299 0F       		.uleb128 0xf
 728 029a 3C010000 		.4byte	.LASF37
 729 029e 05       		.byte	0x5
 730 029f 62       		.byte	0x62
 731 02a0 18020000 		.4byte	0x218
 732 02a4 88       		.byte	0x88
 733 02a5 00       		.byte	0
 734 02a6 06       		.uleb128 0x6
 735 02a7 04       		.byte	0x4
 736 02a8 68020000 		.4byte	0x268
 737 02ac 0C       		.uleb128 0xc
 738 02ad 40000000 		.4byte	0x40
 739 02b1 BC020000 		.4byte	0x2bc
 740 02b5 0D       		.uleb128 0xd
 741 02b6 25000000 		.4byte	0x25
ARM GAS  C:\Users\PCHAUT~1\AppData\Local\Temp\ccJ7evbE.s 			page 14


 742 02ba 1F       		.byte	0x1f
 743 02bb 00       		.byte	0
 744 02bc 11       		.uleb128 0x11
 745 02bd E0040000 		.4byte	.LASF45
 746 02c1 08       		.byte	0x8
 747 02c2 05       		.byte	0x5
 748 02c3 75       		.byte	0x75
 749 02c4 E1020000 		.4byte	0x2e1
 750 02c8 0F       		.uleb128 0xf
 751 02c9 27010000 		.4byte	.LASF46
 752 02cd 05       		.byte	0x5
 753 02ce 76       		.byte	0x76
 754 02cf E1020000 		.4byte	0x2e1
 755 02d3 00       		.byte	0
 756 02d4 0F       		.uleb128 0xf
 757 02d5 0C000000 		.4byte	.LASF47
 758 02d9 05       		.byte	0x5
 759 02da 77       		.byte	0x77
 760 02db 2C000000 		.4byte	0x2c
 761 02df 04       		.byte	0x4
 762 02e0 00       		.byte	0
 763 02e1 06       		.uleb128 0x6
 764 02e2 04       		.byte	0x4
 765 02e3 5B000000 		.4byte	0x5b
 766 02e7 11       		.uleb128 0x11
 767 02e8 FF040000 		.4byte	.LASF48
 768 02ec 68       		.byte	0x68
 769 02ed 05       		.byte	0x5
 770 02ee B5       		.byte	0xb5
 771 02ef 11040000 		.4byte	0x411
 772 02f3 12       		.uleb128 0x12
 773 02f4 5F7000   		.ascii	"_p\000"
 774 02f7 05       		.byte	0x5
 775 02f8 B6       		.byte	0xb6
 776 02f9 E1020000 		.4byte	0x2e1
 777 02fd 00       		.byte	0
 778 02fe 12       		.uleb128 0x12
 779 02ff 5F7200   		.ascii	"_r\000"
 780 0302 05       		.byte	0x5
 781 0303 B7       		.byte	0xb7
 782 0304 2C000000 		.4byte	0x2c
 783 0308 04       		.byte	0x4
 784 0309 12       		.uleb128 0x12
 785 030a 5F7700   		.ascii	"_w\000"
 786 030d 05       		.byte	0x5
 787 030e B8       		.byte	0xb8
 788 030f 2C000000 		.4byte	0x2c
 789 0313 08       		.byte	0x8
 790 0314 0F       		.uleb128 0xf
 791 0315 A7020000 		.4byte	.LASF49
 792 0319 05       		.byte	0x5
 793 031a B9       		.byte	0xb9
 794 031b 62000000 		.4byte	0x62
 795 031f 0C       		.byte	0xc
 796 0320 0F       		.uleb128 0xf
 797 0321 9B030000 		.4byte	.LASF50
 798 0325 05       		.byte	0x5
ARM GAS  C:\Users\PCHAUT~1\AppData\Local\Temp\ccJ7evbE.s 			page 15


 799 0326 BA       		.byte	0xba
 800 0327 62000000 		.4byte	0x62
 801 032b 0E       		.byte	0xe
 802 032c 12       		.uleb128 0x12
 803 032d 5F626600 		.ascii	"_bf\000"
 804 0331 05       		.byte	0x5
 805 0332 BB       		.byte	0xbb
 806 0333 BC020000 		.4byte	0x2bc
 807 0337 10       		.byte	0x10
 808 0338 0F       		.uleb128 0xf
 809 0339 DB000000 		.4byte	.LASF51
 810 033d 05       		.byte	0x5
 811 033e BC       		.byte	0xbc
 812 033f 2C000000 		.4byte	0x2c
 813 0343 18       		.byte	0x18
 814 0344 0F       		.uleb128 0xf
 815 0345 4A010000 		.4byte	.LASF52
 816 0349 05       		.byte	0x5
 817 034a C3       		.byte	0xc3
 818 034b 23010000 		.4byte	0x123
 819 034f 1C       		.byte	0x1c
 820 0350 0F       		.uleb128 0xf
 821 0351 3F030000 		.4byte	.LASF53
 822 0355 05       		.byte	0x5
 823 0356 C5       		.byte	0xc5
 824 0357 6C050000 		.4byte	0x56c
 825 035b 20       		.byte	0x20
 826 035c 0F       		.uleb128 0xf
 827 035d 08040000 		.4byte	.LASF54
 828 0361 05       		.byte	0x5
 829 0362 C7       		.byte	0xc7
 830 0363 96050000 		.4byte	0x596
 831 0367 24       		.byte	0x24
 832 0368 0F       		.uleb128 0xf
 833 0369 D6050000 		.4byte	.LASF55
 834 036d 05       		.byte	0x5
 835 036e CA       		.byte	0xca
 836 036f BA050000 		.4byte	0x5ba
 837 0373 28       		.byte	0x28
 838 0374 0F       		.uleb128 0xf
 839 0375 C6060000 		.4byte	.LASF56
 840 0379 05       		.byte	0x5
 841 037a CB       		.byte	0xcb
 842 037b D4050000 		.4byte	0x5d4
 843 037f 2C       		.byte	0x2c
 844 0380 12       		.uleb128 0x12
 845 0381 5F756200 		.ascii	"_ub\000"
 846 0385 05       		.byte	0x5
 847 0386 CE       		.byte	0xce
 848 0387 BC020000 		.4byte	0x2bc
 849 038b 30       		.byte	0x30
 850 038c 12       		.uleb128 0x12
 851 038d 5F757000 		.ascii	"_up\000"
 852 0391 05       		.byte	0x5
 853 0392 CF       		.byte	0xcf
 854 0393 E1020000 		.4byte	0x2e1
 855 0397 38       		.byte	0x38
ARM GAS  C:\Users\PCHAUT~1\AppData\Local\Temp\ccJ7evbE.s 			page 16


 856 0398 12       		.uleb128 0x12
 857 0399 5F757200 		.ascii	"_ur\000"
 858 039d 05       		.byte	0x5
 859 039e D0       		.byte	0xd0
 860 039f 2C000000 		.4byte	0x2c
 861 03a3 3C       		.byte	0x3c
 862 03a4 0F       		.uleb128 0xf
 863 03a5 21010000 		.4byte	.LASF57
 864 03a9 05       		.byte	0x5
 865 03aa D3       		.byte	0xd3
 866 03ab DA050000 		.4byte	0x5da
 867 03af 40       		.byte	0x40
 868 03b0 0F       		.uleb128 0xf
 869 03b1 9E060000 		.4byte	.LASF58
 870 03b5 05       		.byte	0x5
 871 03b6 D4       		.byte	0xd4
 872 03b7 EA050000 		.4byte	0x5ea
 873 03bb 43       		.byte	0x43
 874 03bc 12       		.uleb128 0x12
 875 03bd 5F6C6200 		.ascii	"_lb\000"
 876 03c1 05       		.byte	0x5
 877 03c2 D7       		.byte	0xd7
 878 03c3 BC020000 		.4byte	0x2bc
 879 03c7 44       		.byte	0x44
 880 03c8 0F       		.uleb128 0xf
 881 03c9 BD020000 		.4byte	.LASF59
 882 03cd 05       		.byte	0x5
 883 03ce DA       		.byte	0xda
 884 03cf 2C000000 		.4byte	0x2c
 885 03d3 4C       		.byte	0x4c
 886 03d4 0F       		.uleb128 0xf
 887 03d5 CE020000 		.4byte	.LASF60
 888 03d9 05       		.byte	0x5
 889 03da DB       		.byte	0xdb
 890 03db 9B000000 		.4byte	0x9b
 891 03df 50       		.byte	0x50
 892 03e0 0F       		.uleb128 0xf
 893 03e1 9E000000 		.4byte	.LASF61
 894 03e5 05       		.byte	0x5
 895 03e6 DE       		.byte	0xde
 896 03e7 2F040000 		.4byte	0x42f
 897 03eb 54       		.byte	0x54
 898 03ec 0F       		.uleb128 0xf
 899 03ed FA030000 		.4byte	.LASF62
 900 03f1 05       		.byte	0x5
 901 03f2 E2       		.byte	0xe2
 902 03f3 18010000 		.4byte	0x118
 903 03f7 58       		.byte	0x58
 904 03f8 0F       		.uleb128 0xf
 905 03f9 07050000 		.4byte	.LASF63
 906 03fd 05       		.byte	0x5
 907 03fe E4       		.byte	0xe4
 908 03ff 0D010000 		.4byte	0x10d
 909 0403 5C       		.byte	0x5c
 910 0404 0F       		.uleb128 0xf
 911 0405 00040000 		.4byte	.LASF64
 912 0409 05       		.byte	0x5
ARM GAS  C:\Users\PCHAUT~1\AppData\Local\Temp\ccJ7evbE.s 			page 17


 913 040a E5       		.byte	0xe5
 914 040b 2C000000 		.4byte	0x2c
 915 040f 64       		.byte	0x64
 916 0410 00       		.byte	0
 917 0411 15       		.uleb128 0x15
 918 0412 2C000000 		.4byte	0x2c
 919 0416 2F040000 		.4byte	0x42f
 920 041a 16       		.uleb128 0x16
 921 041b 2F040000 		.4byte	0x42f
 922 041f 16       		.uleb128 0x16
 923 0420 23010000 		.4byte	0x123
 924 0424 16       		.uleb128 0x16
 925 0425 25010000 		.4byte	0x125
 926 0429 16       		.uleb128 0x16
 927 042a 2C000000 		.4byte	0x2c
 928 042e 00       		.byte	0
 929 042f 06       		.uleb128 0x6
 930 0430 04       		.byte	0x4
 931 0431 3A040000 		.4byte	0x43a
 932 0435 04       		.uleb128 0x4
 933 0436 2F040000 		.4byte	0x42f
 934 043a 17       		.uleb128 0x17
 935 043b A0050000 		.4byte	.LASF65
 936 043f 2804     		.2byte	0x428
 937 0441 05       		.byte	0x5
 938 0442 3902     		.2byte	0x239
 939 0444 6C050000 		.4byte	0x56c
 940 0448 18       		.uleb128 0x18
 941 0449 F0050000 		.4byte	.LASF66
 942 044d 05       		.byte	0x5
 943 044e 3B02     		.2byte	0x23b
 944 0450 2C000000 		.4byte	0x2c
 945 0454 00       		.byte	0
 946 0455 18       		.uleb128 0x18
 947 0456 B6020000 		.4byte	.LASF67
 948 045a 05       		.byte	0x5
 949 045b 4002     		.2byte	0x240
 950 045d 41060000 		.4byte	0x641
 951 0461 04       		.byte	0x4
 952 0462 18       		.uleb128 0x18
 953 0463 68030000 		.4byte	.LASF68
 954 0467 05       		.byte	0x5
 955 0468 4002     		.2byte	0x240
 956 046a 41060000 		.4byte	0x641
 957 046e 08       		.byte	0x8
 958 046f 18       		.uleb128 0x18
 959 0470 20030000 		.4byte	.LASF69
 960 0474 05       		.byte	0x5
 961 0475 4002     		.2byte	0x240
 962 0477 41060000 		.4byte	0x641
 963 047b 0C       		.byte	0xc
 964 047c 18       		.uleb128 0x18
 965 047d 28050000 		.4byte	.LASF70
 966 0481 05       		.byte	0x5
 967 0482 4202     		.2byte	0x242
 968 0484 2C000000 		.4byte	0x2c
 969 0488 10       		.byte	0x10
ARM GAS  C:\Users\PCHAUT~1\AppData\Local\Temp\ccJ7evbE.s 			page 18


 970 0489 18       		.uleb128 0x18
 971 048a 1A000000 		.4byte	.LASF71
 972 048e 05       		.byte	0x5
 973 048f 4302     		.2byte	0x243
 974 0491 23080000 		.4byte	0x823
 975 0495 14       		.byte	0x14
 976 0496 18       		.uleb128 0x18
 977 0497 7F050000 		.4byte	.LASF72
 978 049b 05       		.byte	0x5
 979 049c 4602     		.2byte	0x246
 980 049e 2C000000 		.4byte	0x2c
 981 04a2 30       		.byte	0x30
 982 04a3 18       		.uleb128 0x18
 983 04a4 6D050000 		.4byte	.LASF73
 984 04a8 05       		.byte	0x5
 985 04a9 4702     		.2byte	0x247
 986 04ab 38080000 		.4byte	0x838
 987 04af 34       		.byte	0x34
 988 04b0 18       		.uleb128 0x18
 989 04b1 6B040000 		.4byte	.LASF74
 990 04b5 05       		.byte	0x5
 991 04b6 4902     		.2byte	0x249
 992 04b8 2C000000 		.4byte	0x2c
 993 04bc 38       		.byte	0x38
 994 04bd 18       		.uleb128 0x18
 995 04be 75050000 		.4byte	.LASF75
 996 04c2 05       		.byte	0x5
 997 04c3 4B02     		.2byte	0x24b
 998 04c5 49080000 		.4byte	0x849
 999 04c9 3C       		.byte	0x3c
 1000 04ca 18       		.uleb128 0x18
 1001 04cb DD030000 		.4byte	.LASF76
 1002 04cf 05       		.byte	0x5
 1003 04d0 4E02     		.2byte	0x24e
 1004 04d2 89010000 		.4byte	0x189
 1005 04d6 40       		.byte	0x40
 1006 04d7 18       		.uleb128 0x18
 1007 04d8 45030000 		.4byte	.LASF77
 1008 04dc 05       		.byte	0x5
 1009 04dd 4F02     		.2byte	0x24f
 1010 04df 2C000000 		.4byte	0x2c
 1011 04e3 44       		.byte	0x44
 1012 04e4 18       		.uleb128 0x18
 1013 04e5 E0060000 		.4byte	.LASF78
 1014 04e9 05       		.byte	0x5
 1015 04ea 5002     		.2byte	0x250
 1016 04ec 89010000 		.4byte	0x189
 1017 04f0 48       		.byte	0x48
 1018 04f1 18       		.uleb128 0x18
 1019 04f2 7D040000 		.4byte	.LASF79
 1020 04f6 05       		.byte	0x5
 1021 04f7 5102     		.2byte	0x251
 1022 04f9 4F080000 		.4byte	0x84f
 1023 04fd 4C       		.byte	0x4c
 1024 04fe 18       		.uleb128 0x18
 1025 04ff 81030000 		.4byte	.LASF80
 1026 0503 05       		.byte	0x5
ARM GAS  C:\Users\PCHAUT~1\AppData\Local\Temp\ccJ7evbE.s 			page 19


 1027 0504 5402     		.2byte	0x254
 1028 0506 2C000000 		.4byte	0x2c
 1029 050a 50       		.byte	0x50
 1030 050b 18       		.uleb128 0x18
 1031 050c C6020000 		.4byte	.LASF81
 1032 0510 05       		.byte	0x5
 1033 0511 5502     		.2byte	0x255
 1034 0513 25010000 		.4byte	0x125
 1035 0517 54       		.byte	0x54
 1036 0518 18       		.uleb128 0x18
 1037 0519 BE040000 		.4byte	.LASF82
 1038 051d 05       		.byte	0x5
 1039 051e 7802     		.2byte	0x278
 1040 0520 01080000 		.4byte	0x801
 1041 0524 58       		.byte	0x58
 1042 0525 19       		.uleb128 0x19
 1043 0526 59040000 		.4byte	.LASF42
 1044 052a 05       		.byte	0x5
 1045 052b 7C02     		.2byte	0x27c
 1046 052d A6020000 		.4byte	0x2a6
 1047 0531 4801     		.2byte	0x148
 1048 0533 19       		.uleb128 0x19
 1049 0534 BB030000 		.4byte	.LASF83
 1050 0538 05       		.byte	0x5
 1051 0539 7D02     		.2byte	0x27d
 1052 053b 68020000 		.4byte	0x268
 1053 053f 4C01     		.2byte	0x14c
 1054 0541 19       		.uleb128 0x19
 1055 0542 94060000 		.4byte	.LASF84
 1056 0546 05       		.byte	0x5
 1057 0547 8102     		.2byte	0x281
 1058 0549 60080000 		.4byte	0x860
 1059 054d DC02     		.2byte	0x2dc
 1060 054f 19       		.uleb128 0x19
 1061 0550 52010000 		.4byte	.LASF85
 1062 0554 05       		.byte	0x5
 1063 0555 8602     		.2byte	0x286
 1064 0557 06060000 		.4byte	0x606
 1065 055b E002     		.2byte	0x2e0
 1066 055d 19       		.uleb128 0x19
 1067 055e 37010000 		.4byte	.LASF86
 1068 0562 05       		.byte	0x5
 1069 0563 8802     		.2byte	0x288
 1070 0565 6C080000 		.4byte	0x86c
 1071 0569 EC02     		.2byte	0x2ec
 1072 056b 00       		.byte	0
 1073 056c 06       		.uleb128 0x6
 1074 056d 04       		.byte	0x4
 1075 056e 11040000 		.4byte	0x411
 1076 0572 15       		.uleb128 0x15
 1077 0573 2C000000 		.4byte	0x2c
 1078 0577 90050000 		.4byte	0x590
 1079 057b 16       		.uleb128 0x16
 1080 057c 2F040000 		.4byte	0x42f
 1081 0580 16       		.uleb128 0x16
 1082 0581 23010000 		.4byte	0x123
 1083 0585 16       		.uleb128 0x16
ARM GAS  C:\Users\PCHAUT~1\AppData\Local\Temp\ccJ7evbE.s 			page 20


 1084 0586 90050000 		.4byte	0x590
 1085 058a 16       		.uleb128 0x16
 1086 058b 2C000000 		.4byte	0x2c
 1087 058f 00       		.byte	0
 1088 0590 06       		.uleb128 0x6
 1089 0591 04       		.byte	0x4
 1090 0592 3A000000 		.4byte	0x3a
 1091 0596 06       		.uleb128 0x6
 1092 0597 04       		.byte	0x4
 1093 0598 72050000 		.4byte	0x572
 1094 059c 15       		.uleb128 0x15
 1095 059d A6000000 		.4byte	0xa6
 1096 05a1 BA050000 		.4byte	0x5ba
 1097 05a5 16       		.uleb128 0x16
 1098 05a6 2F040000 		.4byte	0x42f
 1099 05aa 16       		.uleb128 0x16
 1100 05ab 23010000 		.4byte	0x123
 1101 05af 16       		.uleb128 0x16
 1102 05b0 A6000000 		.4byte	0xa6
 1103 05b4 16       		.uleb128 0x16
 1104 05b5 2C000000 		.4byte	0x2c
 1105 05b9 00       		.byte	0
 1106 05ba 06       		.uleb128 0x6
 1107 05bb 04       		.byte	0x4
 1108 05bc 9C050000 		.4byte	0x59c
 1109 05c0 15       		.uleb128 0x15
 1110 05c1 2C000000 		.4byte	0x2c
 1111 05c5 D4050000 		.4byte	0x5d4
 1112 05c9 16       		.uleb128 0x16
 1113 05ca 2F040000 		.4byte	0x42f
 1114 05ce 16       		.uleb128 0x16
 1115 05cf 23010000 		.4byte	0x123
 1116 05d3 00       		.byte	0
 1117 05d4 06       		.uleb128 0x6
 1118 05d5 04       		.byte	0x4
 1119 05d6 C0050000 		.4byte	0x5c0
 1120 05da 0C       		.uleb128 0xc
 1121 05db 5B000000 		.4byte	0x5b
 1122 05df EA050000 		.4byte	0x5ea
 1123 05e3 0D       		.uleb128 0xd
 1124 05e4 25000000 		.4byte	0x25
 1125 05e8 02       		.byte	0x2
 1126 05e9 00       		.byte	0
 1127 05ea 0C       		.uleb128 0xc
 1128 05eb 5B000000 		.4byte	0x5b
 1129 05ef FA050000 		.4byte	0x5fa
 1130 05f3 0D       		.uleb128 0xd
 1131 05f4 25000000 		.4byte	0x25
 1132 05f8 00       		.byte	0
 1133 05f9 00       		.byte	0
 1134 05fa 09       		.uleb128 0x9
 1135 05fb ED040000 		.4byte	.LASF87
 1136 05ff 05       		.byte	0x5
 1137 0600 1F01     		.2byte	0x11f
 1138 0602 E7020000 		.4byte	0x2e7
 1139 0606 1A       		.uleb128 0x1a
 1140 0607 7B060000 		.4byte	.LASF88
ARM GAS  C:\Users\PCHAUT~1\AppData\Local\Temp\ccJ7evbE.s 			page 21


 1141 060b 0C       		.byte	0xc
 1142 060c 05       		.byte	0x5
 1143 060d 2301     		.2byte	0x123
 1144 060f 3B060000 		.4byte	0x63b
 1145 0613 18       		.uleb128 0x18
 1146 0614 10060000 		.4byte	.LASF22
 1147 0618 05       		.byte	0x5
 1148 0619 2501     		.2byte	0x125
 1149 061b 3B060000 		.4byte	0x63b
 1150 061f 00       		.byte	0
 1151 0620 18       		.uleb128 0x18
 1152 0621 A1030000 		.4byte	.LASF89
 1153 0625 05       		.byte	0x5
 1154 0626 2601     		.2byte	0x126
 1155 0628 2C000000 		.4byte	0x2c
 1156 062c 04       		.byte	0x4
 1157 062d 18       		.uleb128 0x18
 1158 062e E7040000 		.4byte	.LASF90
 1159 0632 05       		.byte	0x5
 1160 0633 2701     		.2byte	0x127
 1161 0635 41060000 		.4byte	0x641
 1162 0639 08       		.byte	0x8
 1163 063a 00       		.byte	0
 1164 063b 06       		.uleb128 0x6
 1165 063c 04       		.byte	0x4
 1166 063d 06060000 		.4byte	0x606
 1167 0641 06       		.uleb128 0x6
 1168 0642 04       		.byte	0x4
 1169 0643 FA050000 		.4byte	0x5fa
 1170 0647 1A       		.uleb128 0x1a
 1171 0648 12000000 		.4byte	.LASF91
 1172 064c 0E       		.byte	0xe
 1173 064d 05       		.byte	0x5
 1174 064e 3F01     		.2byte	0x13f
 1175 0650 7C060000 		.4byte	0x67c
 1176 0654 18       		.uleb128 0x18
 1177 0655 A7050000 		.4byte	.LASF92
 1178 0659 05       		.byte	0x5
 1179 065a 4001     		.2byte	0x140
 1180 065c 7C060000 		.4byte	0x67c
 1181 0660 00       		.byte	0
 1182 0661 18       		.uleb128 0x18
 1183 0662 0A060000 		.4byte	.LASF93
 1184 0666 05       		.byte	0x5
 1185 0667 4101     		.2byte	0x141
 1186 0669 7C060000 		.4byte	0x67c
 1187 066d 06       		.byte	0x6
 1188 066e 18       		.uleb128 0x18
 1189 066f 2C060000 		.4byte	.LASF94
 1190 0673 05       		.byte	0x5
 1191 0674 4201     		.2byte	0x142
 1192 0676 69000000 		.4byte	0x69
 1193 067a 0C       		.byte	0xc
 1194 067b 00       		.byte	0
 1195 067c 0C       		.uleb128 0xc
 1196 067d 69000000 		.4byte	0x69
 1197 0681 8C060000 		.4byte	0x68c
ARM GAS  C:\Users\PCHAUT~1\AppData\Local\Temp\ccJ7evbE.s 			page 22


 1198 0685 0D       		.uleb128 0xd
 1199 0686 25000000 		.4byte	0x25
 1200 068a 02       		.byte	0x2
 1201 068b 00       		.byte	0
 1202 068c 1B       		.uleb128 0x1b
 1203 068d D0       		.byte	0xd0
 1204 068e 05       		.byte	0x5
 1205 068f 5902     		.2byte	0x259
 1206 0691 8D070000 		.4byte	0x78d
 1207 0695 18       		.uleb128 0x18
 1208 0696 5F060000 		.4byte	.LASF95
 1209 069a 05       		.byte	0x5
 1210 069b 5B02     		.2byte	0x25b
 1211 069d 25000000 		.4byte	0x25
 1212 06a1 00       		.byte	0
 1213 06a2 18       		.uleb128 0x18
 1214 06a3 16060000 		.4byte	.LASF96
 1215 06a7 05       		.byte	0x5
 1216 06a8 5C02     		.2byte	0x25c
 1217 06aa 25010000 		.4byte	0x125
 1218 06ae 04       		.byte	0x4
 1219 06af 18       		.uleb128 0x18
 1220 06b0 D0030000 		.4byte	.LASF97
 1221 06b4 05       		.byte	0x5
 1222 06b5 5D02     		.2byte	0x25d
 1223 06b7 8D070000 		.4byte	0x78d
 1224 06bb 08       		.byte	0x8
 1225 06bc 18       		.uleb128 0x18
 1226 06bd B7060000 		.4byte	.LASF98
 1227 06c1 05       		.byte	0x5
 1228 06c2 5E02     		.2byte	0x25e
 1229 06c4 9F010000 		.4byte	0x19f
 1230 06c8 24       		.byte	0x24
 1231 06c9 18       		.uleb128 0x18
 1232 06ca 30030000 		.4byte	.LASF99
 1233 06ce 05       		.byte	0x5
 1234 06cf 5F02     		.2byte	0x25f
 1235 06d1 2C000000 		.4byte	0x2c
 1236 06d5 48       		.byte	0x48
 1237 06d6 18       		.uleb128 0x18
 1238 06d7 10050000 		.4byte	.LASF100
 1239 06db 05       		.byte	0x5
 1240 06dc 6002     		.2byte	0x260
 1241 06de 7E000000 		.4byte	0x7e
 1242 06e2 50       		.byte	0x50
 1243 06e3 18       		.uleb128 0x18
 1244 06e4 CD060000 		.4byte	.LASF101
 1245 06e8 05       		.byte	0x5
 1246 06e9 6102     		.2byte	0x261
 1247 06eb 47060000 		.4byte	0x647
 1248 06ef 58       		.byte	0x58
 1249 06f0 18       		.uleb128 0x18
 1250 06f1 1B050000 		.4byte	.LASF102
 1251 06f5 05       		.byte	0x5
 1252 06f6 6202     		.2byte	0x262
 1253 06f8 0D010000 		.4byte	0x10d
 1254 06fc 68       		.byte	0x68
ARM GAS  C:\Users\PCHAUT~1\AppData\Local\Temp\ccJ7evbE.s 			page 23


 1255 06fd 18       		.uleb128 0x18
 1256 06fe D2060000 		.4byte	.LASF103
 1257 0702 05       		.byte	0x5
 1258 0703 6302     		.2byte	0x263
 1259 0705 0D010000 		.4byte	0x10d
 1260 0709 70       		.byte	0x70
 1261 070a 18       		.uleb128 0x18
 1262 070b 87040000 		.4byte	.LASF104
 1263 070f 05       		.byte	0x5
 1264 0710 6402     		.2byte	0x264
 1265 0712 0D010000 		.4byte	0x10d
 1266 0716 78       		.byte	0x78
 1267 0717 18       		.uleb128 0x18
 1268 0718 8A060000 		.4byte	.LASF105
 1269 071c 05       		.byte	0x5
 1270 071d 6502     		.2byte	0x265
 1271 071f 9D070000 		.4byte	0x79d
 1272 0723 80       		.byte	0x80
 1273 0724 18       		.uleb128 0x18
 1274 0725 C4030000 		.4byte	.LASF106
 1275 0729 05       		.byte	0x5
 1276 072a 6602     		.2byte	0x266
 1277 072c AD070000 		.4byte	0x7ad
 1278 0730 88       		.byte	0x88
 1279 0731 18       		.uleb128 0x18
 1280 0732 39060000 		.4byte	.LASF107
 1281 0736 05       		.byte	0x5
 1282 0737 6702     		.2byte	0x267
 1283 0739 2C000000 		.4byte	0x2c
 1284 073d A0       		.byte	0xa0
 1285 073e 18       		.uleb128 0x18
 1286 073f E7020000 		.4byte	.LASF108
 1287 0743 05       		.byte	0x5
 1288 0744 6802     		.2byte	0x268
 1289 0746 0D010000 		.4byte	0x10d
 1290 074a A4       		.byte	0xa4
 1291 074b 18       		.uleb128 0x18
 1292 074c EF000000 		.4byte	.LASF109
 1293 0750 05       		.byte	0x5
 1294 0751 6902     		.2byte	0x269
 1295 0753 0D010000 		.4byte	0x10d
 1296 0757 AC       		.byte	0xac
 1297 0758 18       		.uleb128 0x18
 1298 0759 D6020000 		.4byte	.LASF110
 1299 075d 05       		.byte	0x5
 1300 075e 6A02     		.2byte	0x26a
 1301 0760 0D010000 		.4byte	0x10d
 1302 0764 B4       		.byte	0xb4
 1303 0765 18       		.uleb128 0x18
 1304 0766 A4000000 		.4byte	.LASF111
 1305 076a 05       		.byte	0x5
 1306 076b 6B02     		.2byte	0x26b
 1307 076d 0D010000 		.4byte	0x10d
 1308 0771 BC       		.byte	0xbc
 1309 0772 18       		.uleb128 0x18
 1310 0773 B3000000 		.4byte	.LASF112
 1311 0777 05       		.byte	0x5
ARM GAS  C:\Users\PCHAUT~1\AppData\Local\Temp\ccJ7evbE.s 			page 24


 1312 0778 6C02     		.2byte	0x26c
 1313 077a 0D010000 		.4byte	0x10d
 1314 077e C4       		.byte	0xc4
 1315 077f 18       		.uleb128 0x18
 1316 0780 C3040000 		.4byte	.LASF113
 1317 0784 05       		.byte	0x5
 1318 0785 6D02     		.2byte	0x26d
 1319 0787 2C000000 		.4byte	0x2c
 1320 078b CC       		.byte	0xcc
 1321 078c 00       		.byte	0
 1322 078d 0C       		.uleb128 0xc
 1323 078e 33000000 		.4byte	0x33
 1324 0792 9D070000 		.4byte	0x79d
 1325 0796 0D       		.uleb128 0xd
 1326 0797 25000000 		.4byte	0x25
 1327 079b 19       		.byte	0x19
 1328 079c 00       		.byte	0
 1329 079d 0C       		.uleb128 0xc
 1330 079e 33000000 		.4byte	0x33
 1331 07a2 AD070000 		.4byte	0x7ad
 1332 07a6 0D       		.uleb128 0xd
 1333 07a7 25000000 		.4byte	0x25
 1334 07ab 07       		.byte	0x7
 1335 07ac 00       		.byte	0
 1336 07ad 0C       		.uleb128 0xc
 1337 07ae 33000000 		.4byte	0x33
 1338 07b2 BD070000 		.4byte	0x7bd
 1339 07b6 0D       		.uleb128 0xd
 1340 07b7 25000000 		.4byte	0x25
 1341 07bb 17       		.byte	0x17
 1342 07bc 00       		.byte	0
 1343 07bd 1B       		.uleb128 0x1b
 1344 07be F0       		.byte	0xf0
 1345 07bf 05       		.byte	0x5
 1346 07c0 7202     		.2byte	0x272
 1347 07c2 E1070000 		.4byte	0x7e1
 1348 07c6 18       		.uleb128 0x18
 1349 07c7 49040000 		.4byte	.LASF114
 1350 07cb 05       		.byte	0x5
 1351 07cc 7502     		.2byte	0x275
 1352 07ce E1070000 		.4byte	0x7e1
 1353 07d2 00       		.byte	0
 1354 07d3 18       		.uleb128 0x18
 1355 07d4 81060000 		.4byte	.LASF115
 1356 07d8 05       		.byte	0x5
 1357 07d9 7602     		.2byte	0x276
 1358 07db F1070000 		.4byte	0x7f1
 1359 07df 78       		.byte	0x78
 1360 07e0 00       		.byte	0
 1361 07e1 0C       		.uleb128 0xc
 1362 07e2 E1020000 		.4byte	0x2e1
 1363 07e6 F1070000 		.4byte	0x7f1
 1364 07ea 0D       		.uleb128 0xd
 1365 07eb 25000000 		.4byte	0x25
 1366 07ef 1D       		.byte	0x1d
 1367 07f0 00       		.byte	0
 1368 07f1 0C       		.uleb128 0xc
ARM GAS  C:\Users\PCHAUT~1\AppData\Local\Temp\ccJ7evbE.s 			page 25


 1369 07f2 25000000 		.4byte	0x25
 1370 07f6 01080000 		.4byte	0x801
 1371 07fa 0D       		.uleb128 0xd
 1372 07fb 25000000 		.4byte	0x25
 1373 07ff 1D       		.byte	0x1d
 1374 0800 00       		.byte	0
 1375 0801 1C       		.uleb128 0x1c
 1376 0802 F0       		.byte	0xf0
 1377 0803 05       		.byte	0x5
 1378 0804 5702     		.2byte	0x257
 1379 0806 23080000 		.4byte	0x823
 1380 080a 1D       		.uleb128 0x1d
 1381 080b A0050000 		.4byte	.LASF65
 1382 080f 05       		.byte	0x5
 1383 0810 6E02     		.2byte	0x26e
 1384 0812 8C060000 		.4byte	0x68c
 1385 0816 1D       		.uleb128 0x1d
 1386 0817 A4060000 		.4byte	.LASF116
 1387 081b 05       		.byte	0x5
 1388 081c 7702     		.2byte	0x277
 1389 081e BD070000 		.4byte	0x7bd
 1390 0822 00       		.byte	0
 1391 0823 0C       		.uleb128 0xc
 1392 0824 33000000 		.4byte	0x33
 1393 0828 33080000 		.4byte	0x833
 1394 082c 0D       		.uleb128 0xd
 1395 082d 25000000 		.4byte	0x25
 1396 0831 18       		.byte	0x18
 1397 0832 00       		.byte	0
 1398 0833 08       		.uleb128 0x8
 1399 0834 E4000000 		.4byte	.LASF118
 1400 0838 06       		.uleb128 0x6
 1401 0839 04       		.byte	0x4
 1402 083a 33080000 		.4byte	0x833
 1403 083e 1E       		.uleb128 0x1e
 1404 083f 49080000 		.4byte	0x849
 1405 0843 16       		.uleb128 0x16
 1406 0844 2F040000 		.4byte	0x42f
 1407 0848 00       		.byte	0
 1408 0849 06       		.uleb128 0x6
 1409 084a 04       		.byte	0x4
 1410 084b 3E080000 		.4byte	0x83e
 1411 084f 06       		.uleb128 0x6
 1412 0850 04       		.byte	0x4
 1413 0851 89010000 		.4byte	0x189
 1414 0855 1E       		.uleb128 0x1e
 1415 0856 60080000 		.4byte	0x860
 1416 085a 16       		.uleb128 0x16
 1417 085b 2C000000 		.4byte	0x2c
 1418 085f 00       		.byte	0
 1419 0860 06       		.uleb128 0x6
 1420 0861 04       		.byte	0x4
 1421 0862 66080000 		.4byte	0x866
 1422 0866 06       		.uleb128 0x6
 1423 0867 04       		.byte	0x4
 1424 0868 55080000 		.4byte	0x855
 1425 086c 0C       		.uleb128 0xc
ARM GAS  C:\Users\PCHAUT~1\AppData\Local\Temp\ccJ7evbE.s 			page 26


 1426 086d FA050000 		.4byte	0x5fa
 1427 0871 7C080000 		.4byte	0x87c
 1428 0875 0D       		.uleb128 0xd
 1429 0876 25000000 		.4byte	0x25
 1430 087a 02       		.byte	0x2
 1431 087b 00       		.byte	0
 1432 087c 1F       		.uleb128 0x1f
 1433 087d DC050000 		.4byte	.LASF119
 1434 0881 05       		.byte	0x5
 1435 0882 0703     		.2byte	0x307
 1436 0884 2F040000 		.4byte	0x42f
 1437 0888 1F       		.uleb128 0x1f
 1438 0889 46060000 		.4byte	.LASF120
 1439 088d 05       		.byte	0x5
 1440 088e 0803     		.2byte	0x308
 1441 0890 35040000 		.4byte	0x435
 1442 0894 20       		.uleb128 0x20
 1443 0895 61040000 		.4byte	.LASF121
 1444 0899 06       		.byte	0x6
 1445 089a 63       		.byte	0x63
 1446 089b 25010000 		.4byte	0x125
 1447 089f 21       		.uleb128 0x21
 1448 08a0 19040000 		.4byte	.LASF122
 1449 08a4 01       		.byte	0x1
 1450 08a5 F3       		.byte	0xf3
 1451 08a6 2C000000 		.4byte	0x2c
 1452 08aa 00000000 		.4byte	.LFB7
 1453 08ae 28000000 		.4byte	.LFE7-.LFB7
 1454 08b2 01       		.uleb128 0x1
 1455 08b3 9C       		.byte	0x9c
 1456 08b4 C7080000 		.4byte	0x8c7
 1457 08b8 22       		.uleb128 0x22
 1458 08b9 FC050000 		.4byte	.LASF124
 1459 08bd 01       		.byte	0x1
 1460 08be F3       		.byte	0xf3
 1461 08bf 40000000 		.4byte	0x40
 1462 08c3 02       		.uleb128 0x2
 1463 08c4 91       		.byte	0x91
 1464 08c5 6C       		.sleb128 -20
 1465 08c6 00       		.byte	0
 1466 08c7 21       		.uleb128 0x21
 1467 08c8 FD020000 		.4byte	.LASF123
 1468 08cc 01       		.byte	0x1
 1469 08cd D7       		.byte	0xd7
 1470 08ce 2C000000 		.4byte	0x2c
 1471 08d2 00000000 		.4byte	.LFB6
 1472 08d6 28000000 		.4byte	.LFE6-.LFB6
 1473 08da 01       		.uleb128 0x1
 1474 08db 9C       		.byte	0x9c
 1475 08dc EF080000 		.4byte	0x8ef
 1476 08e0 22       		.uleb128 0x22
 1477 08e1 FC050000 		.4byte	.LASF124
 1478 08e5 01       		.byte	0x1
 1479 08e6 D7       		.byte	0xd7
 1480 08e7 40000000 		.4byte	0x40
 1481 08eb 02       		.uleb128 0x2
 1482 08ec 91       		.byte	0x91
ARM GAS  C:\Users\PCHAUT~1\AppData\Local\Temp\ccJ7evbE.s 			page 27


 1483 08ed 6C       		.sleb128 -20
 1484 08ee 00       		.byte	0
 1485 08ef 21       		.uleb128 0x21
 1486 08f0 8F000000 		.4byte	.LASF125
 1487 08f4 01       		.byte	0x1
 1488 08f5 BC       		.byte	0xbc
 1489 08f6 2C000000 		.4byte	0x2c
 1490 08fa 00000000 		.4byte	.LFB5
 1491 08fe 28000000 		.4byte	.LFE5-.LFB5
 1492 0902 01       		.uleb128 0x1
 1493 0903 9C       		.byte	0x9c
 1494 0904 17090000 		.4byte	0x917
 1495 0908 22       		.uleb128 0x22
 1496 0909 FC050000 		.4byte	.LASF124
 1497 090d 01       		.byte	0x1
 1498 090e BC       		.byte	0xbc
 1499 090f 40000000 		.4byte	0x40
 1500 0913 02       		.uleb128 0x2
 1501 0914 91       		.byte	0x91
 1502 0915 6C       		.sleb128 -20
 1503 0916 00       		.byte	0
 1504 0917 21       		.uleb128 0x21
 1505 0918 36040000 		.4byte	.LASF126
 1506 091c 01       		.byte	0x1
 1507 091d 9C       		.byte	0x9c
 1508 091e 2C000000 		.4byte	0x2c
 1509 0922 00000000 		.4byte	.LFB4
 1510 0926 2C000000 		.4byte	.LFE4-.LFB4
 1511 092a 01       		.uleb128 0x1
 1512 092b 9C       		.byte	0x9c
 1513 092c 4D090000 		.4byte	0x94d
 1514 0930 22       		.uleb128 0x22
 1515 0931 FC050000 		.4byte	.LASF124
 1516 0935 01       		.byte	0x1
 1517 0936 9C       		.byte	0x9c
 1518 0937 40000000 		.4byte	0x40
 1519 093b 02       		.uleb128 0x2
 1520 093c 91       		.byte	0x91
 1521 093d 6C       		.sleb128 -20
 1522 093e 22       		.uleb128 0x22
 1523 093f 59060000 		.4byte	.LASF127
 1524 0943 01       		.byte	0x1
 1525 0944 9C       		.byte	0x9c
 1526 0945 2C000000 		.4byte	0x2c
 1527 0949 02       		.uleb128 0x2
 1528 094a 91       		.byte	0x91
 1529 094b 68       		.sleb128 -24
 1530 094c 00       		.byte	0
 1531 094d 21       		.uleb128 0x21
 1532 094e 70030000 		.4byte	.LASF128
 1533 0952 01       		.byte	0x1
 1534 0953 76       		.byte	0x76
 1535 0954 2C000000 		.4byte	0x2c
 1536 0958 00000000 		.4byte	.LFB3
 1537 095c 28000000 		.4byte	.LFE3-.LFB3
 1538 0960 01       		.uleb128 0x1
 1539 0961 9C       		.byte	0x9c
ARM GAS  C:\Users\PCHAUT~1\AppData\Local\Temp\ccJ7evbE.s 			page 28


 1540 0962 75090000 		.4byte	0x975
 1541 0966 22       		.uleb128 0x22
 1542 0967 FC050000 		.4byte	.LASF124
 1543 096b 01       		.byte	0x1
 1544 096c 76       		.byte	0x76
 1545 096d 40000000 		.4byte	0x40
 1546 0971 02       		.uleb128 0x2
 1547 0972 91       		.byte	0x91
 1548 0973 6C       		.sleb128 -20
 1549 0974 00       		.byte	0
 1550 0975 21       		.uleb128 0x21
 1551 0976 AD050000 		.4byte	.LASF129
 1552 097a 01       		.byte	0x1
 1553 097b 53       		.byte	0x53
 1554 097c 2C000000 		.4byte	0x2c
 1555 0980 00000000 		.4byte	.LFB2
 1556 0984 2C000000 		.4byte	.LFE2-.LFB2
 1557 0988 01       		.uleb128 0x1
 1558 0989 9C       		.byte	0x9c
 1559 098a AB090000 		.4byte	0x9ab
 1560 098e 22       		.uleb128 0x22
 1561 098f FC050000 		.4byte	.LASF124
 1562 0993 01       		.byte	0x1
 1563 0994 53       		.byte	0x53
 1564 0995 40000000 		.4byte	0x40
 1565 0999 02       		.uleb128 0x2
 1566 099a 91       		.byte	0x91
 1567 099b 6C       		.sleb128 -20
 1568 099c 22       		.uleb128 0x22
 1569 099d 59060000 		.4byte	.LASF127
 1570 09a1 01       		.byte	0x1
 1571 09a2 53       		.byte	0x53
 1572 09a3 2C000000 		.4byte	0x2c
 1573 09a7 02       		.uleb128 0x2
 1574 09a8 91       		.byte	0x91
 1575 09a9 68       		.sleb128 -24
 1576 09aa 00       		.byte	0
 1577 09ab 23       		.uleb128 0x23
 1578 09ac 76000000 		.4byte	.LASF130
 1579 09b0 01       		.byte	0x1
 1580 09b1 43       		.byte	0x43
 1581 09b2 00000000 		.4byte	.LFB1
 1582 09b6 24000000 		.4byte	.LFE1-.LFB1
 1583 09ba 01       		.uleb128 0x1
 1584 09bb 9C       		.byte	0x9c
 1585 09bc 23       		.uleb128 0x23
 1586 09bd 95040000 		.4byte	.LASF131
 1587 09c1 01       		.byte	0x1
 1588 09c2 30       		.byte	0x30
 1589 09c3 00000000 		.4byte	.LFB0
 1590 09c7 24000000 		.4byte	.LFE0-.LFB0
 1591 09cb 01       		.uleb128 0x1
 1592 09cc 9C       		.byte	0x9c
 1593 09cd 00       		.byte	0
 1594              		.section	.debug_abbrev,"",%progbits
 1595              	.Ldebug_abbrev0:
 1596 0000 01       		.uleb128 0x1
ARM GAS  C:\Users\PCHAUT~1\AppData\Local\Temp\ccJ7evbE.s 			page 29


 1597 0001 11       		.uleb128 0x11
 1598 0002 01       		.byte	0x1
 1599 0003 25       		.uleb128 0x25
 1600 0004 0E       		.uleb128 0xe
 1601 0005 13       		.uleb128 0x13
 1602 0006 0B       		.uleb128 0xb
 1603 0007 03       		.uleb128 0x3
 1604 0008 0E       		.uleb128 0xe
 1605 0009 1B       		.uleb128 0x1b
 1606 000a 0E       		.uleb128 0xe
 1607 000b 55       		.uleb128 0x55
 1608 000c 17       		.uleb128 0x17
 1609 000d 11       		.uleb128 0x11
 1610 000e 01       		.uleb128 0x1
 1611 000f 10       		.uleb128 0x10
 1612 0010 17       		.uleb128 0x17
 1613 0011 00       		.byte	0
 1614 0012 00       		.byte	0
 1615 0013 02       		.uleb128 0x2
 1616 0014 24       		.uleb128 0x24
 1617 0015 00       		.byte	0
 1618 0016 0B       		.uleb128 0xb
 1619 0017 0B       		.uleb128 0xb
 1620 0018 3E       		.uleb128 0x3e
 1621 0019 0B       		.uleb128 0xb
 1622 001a 03       		.uleb128 0x3
 1623 001b 0E       		.uleb128 0xe
 1624 001c 00       		.byte	0
 1625 001d 00       		.byte	0
 1626 001e 03       		.uleb128 0x3
 1627 001f 24       		.uleb128 0x24
 1628 0020 00       		.byte	0
 1629 0021 0B       		.uleb128 0xb
 1630 0022 0B       		.uleb128 0xb
 1631 0023 3E       		.uleb128 0x3e
 1632 0024 0B       		.uleb128 0xb
 1633 0025 03       		.uleb128 0x3
 1634 0026 08       		.uleb128 0x8
 1635 0027 00       		.byte	0
 1636 0028 00       		.byte	0
 1637 0029 04       		.uleb128 0x4
 1638 002a 26       		.uleb128 0x26
 1639 002b 00       		.byte	0
 1640 002c 49       		.uleb128 0x49
 1641 002d 13       		.uleb128 0x13
 1642 002e 00       		.byte	0
 1643 002f 00       		.byte	0
 1644 0030 05       		.uleb128 0x5
 1645 0031 15       		.uleb128 0x15
 1646 0032 00       		.byte	0
 1647 0033 27       		.uleb128 0x27
 1648 0034 19       		.uleb128 0x19
 1649 0035 00       		.byte	0
 1650 0036 00       		.byte	0
 1651 0037 06       		.uleb128 0x6
 1652 0038 0F       		.uleb128 0xf
 1653 0039 00       		.byte	0
ARM GAS  C:\Users\PCHAUT~1\AppData\Local\Temp\ccJ7evbE.s 			page 30


 1654 003a 0B       		.uleb128 0xb
 1655 003b 0B       		.uleb128 0xb
 1656 003c 49       		.uleb128 0x49
 1657 003d 13       		.uleb128 0x13
 1658 003e 00       		.byte	0
 1659 003f 00       		.byte	0
 1660 0040 07       		.uleb128 0x7
 1661 0041 16       		.uleb128 0x16
 1662 0042 00       		.byte	0
 1663 0043 03       		.uleb128 0x3
 1664 0044 0E       		.uleb128 0xe
 1665 0045 3A       		.uleb128 0x3a
 1666 0046 0B       		.uleb128 0xb
 1667 0047 3B       		.uleb128 0x3b
 1668 0048 0B       		.uleb128 0xb
 1669 0049 49       		.uleb128 0x49
 1670 004a 13       		.uleb128 0x13
 1671 004b 00       		.byte	0
 1672 004c 00       		.byte	0
 1673 004d 08       		.uleb128 0x8
 1674 004e 13       		.uleb128 0x13
 1675 004f 00       		.byte	0
 1676 0050 03       		.uleb128 0x3
 1677 0051 0E       		.uleb128 0xe
 1678 0052 3C       		.uleb128 0x3c
 1679 0053 19       		.uleb128 0x19
 1680 0054 00       		.byte	0
 1681 0055 00       		.byte	0
 1682 0056 09       		.uleb128 0x9
 1683 0057 16       		.uleb128 0x16
 1684 0058 00       		.byte	0
 1685 0059 03       		.uleb128 0x3
 1686 005a 0E       		.uleb128 0xe
 1687 005b 3A       		.uleb128 0x3a
 1688 005c 0B       		.uleb128 0xb
 1689 005d 3B       		.uleb128 0x3b
 1690 005e 05       		.uleb128 0x5
 1691 005f 49       		.uleb128 0x49
 1692 0060 13       		.uleb128 0x13
 1693 0061 00       		.byte	0
 1694 0062 00       		.byte	0
 1695 0063 0A       		.uleb128 0xa
 1696 0064 17       		.uleb128 0x17
 1697 0065 01       		.byte	0x1
 1698 0066 0B       		.uleb128 0xb
 1699 0067 0B       		.uleb128 0xb
 1700 0068 3A       		.uleb128 0x3a
 1701 0069 0B       		.uleb128 0xb
 1702 006a 3B       		.uleb128 0x3b
 1703 006b 0B       		.uleb128 0xb
 1704 006c 01       		.uleb128 0x1
 1705 006d 13       		.uleb128 0x13
 1706 006e 00       		.byte	0
 1707 006f 00       		.byte	0
 1708 0070 0B       		.uleb128 0xb
 1709 0071 0D       		.uleb128 0xd
 1710 0072 00       		.byte	0
ARM GAS  C:\Users\PCHAUT~1\AppData\Local\Temp\ccJ7evbE.s 			page 31


 1711 0073 03       		.uleb128 0x3
 1712 0074 0E       		.uleb128 0xe
 1713 0075 3A       		.uleb128 0x3a
 1714 0076 0B       		.uleb128 0xb
 1715 0077 3B       		.uleb128 0x3b
 1716 0078 0B       		.uleb128 0xb
 1717 0079 49       		.uleb128 0x49
 1718 007a 13       		.uleb128 0x13
 1719 007b 00       		.byte	0
 1720 007c 00       		.byte	0
 1721 007d 0C       		.uleb128 0xc
 1722 007e 01       		.uleb128 0x1
 1723 007f 01       		.byte	0x1
 1724 0080 49       		.uleb128 0x49
 1725 0081 13       		.uleb128 0x13
 1726 0082 01       		.uleb128 0x1
 1727 0083 13       		.uleb128 0x13
 1728 0084 00       		.byte	0
 1729 0085 00       		.byte	0
 1730 0086 0D       		.uleb128 0xd
 1731 0087 21       		.uleb128 0x21
 1732 0088 00       		.byte	0
 1733 0089 49       		.uleb128 0x49
 1734 008a 13       		.uleb128 0x13
 1735 008b 2F       		.uleb128 0x2f
 1736 008c 0B       		.uleb128 0xb
 1737 008d 00       		.byte	0
 1738 008e 00       		.byte	0
 1739 008f 0E       		.uleb128 0xe
 1740 0090 13       		.uleb128 0x13
 1741 0091 01       		.byte	0x1
 1742 0092 0B       		.uleb128 0xb
 1743 0093 0B       		.uleb128 0xb
 1744 0094 3A       		.uleb128 0x3a
 1745 0095 0B       		.uleb128 0xb
 1746 0096 3B       		.uleb128 0x3b
 1747 0097 0B       		.uleb128 0xb
 1748 0098 01       		.uleb128 0x1
 1749 0099 13       		.uleb128 0x13
 1750 009a 00       		.byte	0
 1751 009b 00       		.byte	0
 1752 009c 0F       		.uleb128 0xf
 1753 009d 0D       		.uleb128 0xd
 1754 009e 00       		.byte	0
 1755 009f 03       		.uleb128 0x3
 1756 00a0 0E       		.uleb128 0xe
 1757 00a1 3A       		.uleb128 0x3a
 1758 00a2 0B       		.uleb128 0xb
 1759 00a3 3B       		.uleb128 0x3b
 1760 00a4 0B       		.uleb128 0xb
 1761 00a5 49       		.uleb128 0x49
 1762 00a6 13       		.uleb128 0x13
 1763 00a7 38       		.uleb128 0x38
 1764 00a8 0B       		.uleb128 0xb
 1765 00a9 00       		.byte	0
 1766 00aa 00       		.byte	0
 1767 00ab 10       		.uleb128 0x10
ARM GAS  C:\Users\PCHAUT~1\AppData\Local\Temp\ccJ7evbE.s 			page 32


 1768 00ac 0F       		.uleb128 0xf
 1769 00ad 00       		.byte	0
 1770 00ae 0B       		.uleb128 0xb
 1771 00af 0B       		.uleb128 0xb
 1772 00b0 00       		.byte	0
 1773 00b1 00       		.byte	0
 1774 00b2 11       		.uleb128 0x11
 1775 00b3 13       		.uleb128 0x13
 1776 00b4 01       		.byte	0x1
 1777 00b5 03       		.uleb128 0x3
 1778 00b6 0E       		.uleb128 0xe
 1779 00b7 0B       		.uleb128 0xb
 1780 00b8 0B       		.uleb128 0xb
 1781 00b9 3A       		.uleb128 0x3a
 1782 00ba 0B       		.uleb128 0xb
 1783 00bb 3B       		.uleb128 0x3b
 1784 00bc 0B       		.uleb128 0xb
 1785 00bd 01       		.uleb128 0x1
 1786 00be 13       		.uleb128 0x13
 1787 00bf 00       		.byte	0
 1788 00c0 00       		.byte	0
 1789 00c1 12       		.uleb128 0x12
 1790 00c2 0D       		.uleb128 0xd
 1791 00c3 00       		.byte	0
 1792 00c4 03       		.uleb128 0x3
 1793 00c5 08       		.uleb128 0x8
 1794 00c6 3A       		.uleb128 0x3a
 1795 00c7 0B       		.uleb128 0xb
 1796 00c8 3B       		.uleb128 0x3b
 1797 00c9 0B       		.uleb128 0xb
 1798 00ca 49       		.uleb128 0x49
 1799 00cb 13       		.uleb128 0x13
 1800 00cc 38       		.uleb128 0x38
 1801 00cd 0B       		.uleb128 0xb
 1802 00ce 00       		.byte	0
 1803 00cf 00       		.byte	0
 1804 00d0 13       		.uleb128 0x13
 1805 00d1 13       		.uleb128 0x13
 1806 00d2 01       		.byte	0x1
 1807 00d3 03       		.uleb128 0x3
 1808 00d4 0E       		.uleb128 0xe
 1809 00d5 0B       		.uleb128 0xb
 1810 00d6 05       		.uleb128 0x5
 1811 00d7 3A       		.uleb128 0x3a
 1812 00d8 0B       		.uleb128 0xb
 1813 00d9 3B       		.uleb128 0x3b
 1814 00da 0B       		.uleb128 0xb
 1815 00db 01       		.uleb128 0x1
 1816 00dc 13       		.uleb128 0x13
 1817 00dd 00       		.byte	0
 1818 00de 00       		.byte	0
 1819 00df 14       		.uleb128 0x14
 1820 00e0 0D       		.uleb128 0xd
 1821 00e1 00       		.byte	0
 1822 00e2 03       		.uleb128 0x3
 1823 00e3 0E       		.uleb128 0xe
 1824 00e4 3A       		.uleb128 0x3a
ARM GAS  C:\Users\PCHAUT~1\AppData\Local\Temp\ccJ7evbE.s 			page 33


 1825 00e5 0B       		.uleb128 0xb
 1826 00e6 3B       		.uleb128 0x3b
 1827 00e7 0B       		.uleb128 0xb
 1828 00e8 49       		.uleb128 0x49
 1829 00e9 13       		.uleb128 0x13
 1830 00ea 38       		.uleb128 0x38
 1831 00eb 05       		.uleb128 0x5
 1832 00ec 00       		.byte	0
 1833 00ed 00       		.byte	0
 1834 00ee 15       		.uleb128 0x15
 1835 00ef 15       		.uleb128 0x15
 1836 00f0 01       		.byte	0x1
 1837 00f1 27       		.uleb128 0x27
 1838 00f2 19       		.uleb128 0x19
 1839 00f3 49       		.uleb128 0x49
 1840 00f4 13       		.uleb128 0x13
 1841 00f5 01       		.uleb128 0x1
 1842 00f6 13       		.uleb128 0x13
 1843 00f7 00       		.byte	0
 1844 00f8 00       		.byte	0
 1845 00f9 16       		.uleb128 0x16
 1846 00fa 05       		.uleb128 0x5
 1847 00fb 00       		.byte	0
 1848 00fc 49       		.uleb128 0x49
 1849 00fd 13       		.uleb128 0x13
 1850 00fe 00       		.byte	0
 1851 00ff 00       		.byte	0
 1852 0100 17       		.uleb128 0x17
 1853 0101 13       		.uleb128 0x13
 1854 0102 01       		.byte	0x1
 1855 0103 03       		.uleb128 0x3
 1856 0104 0E       		.uleb128 0xe
 1857 0105 0B       		.uleb128 0xb
 1858 0106 05       		.uleb128 0x5
 1859 0107 3A       		.uleb128 0x3a
 1860 0108 0B       		.uleb128 0xb
 1861 0109 3B       		.uleb128 0x3b
 1862 010a 05       		.uleb128 0x5
 1863 010b 01       		.uleb128 0x1
 1864 010c 13       		.uleb128 0x13
 1865 010d 00       		.byte	0
 1866 010e 00       		.byte	0
 1867 010f 18       		.uleb128 0x18
 1868 0110 0D       		.uleb128 0xd
 1869 0111 00       		.byte	0
 1870 0112 03       		.uleb128 0x3
 1871 0113 0E       		.uleb128 0xe
 1872 0114 3A       		.uleb128 0x3a
 1873 0115 0B       		.uleb128 0xb
 1874 0116 3B       		.uleb128 0x3b
 1875 0117 05       		.uleb128 0x5
 1876 0118 49       		.uleb128 0x49
 1877 0119 13       		.uleb128 0x13
 1878 011a 38       		.uleb128 0x38
 1879 011b 0B       		.uleb128 0xb
 1880 011c 00       		.byte	0
 1881 011d 00       		.byte	0
ARM GAS  C:\Users\PCHAUT~1\AppData\Local\Temp\ccJ7evbE.s 			page 34


 1882 011e 19       		.uleb128 0x19
 1883 011f 0D       		.uleb128 0xd
 1884 0120 00       		.byte	0
 1885 0121 03       		.uleb128 0x3
 1886 0122 0E       		.uleb128 0xe
 1887 0123 3A       		.uleb128 0x3a
 1888 0124 0B       		.uleb128 0xb
 1889 0125 3B       		.uleb128 0x3b
 1890 0126 05       		.uleb128 0x5
 1891 0127 49       		.uleb128 0x49
 1892 0128 13       		.uleb128 0x13
 1893 0129 38       		.uleb128 0x38
 1894 012a 05       		.uleb128 0x5
 1895 012b 00       		.byte	0
 1896 012c 00       		.byte	0
 1897 012d 1A       		.uleb128 0x1a
 1898 012e 13       		.uleb128 0x13
 1899 012f 01       		.byte	0x1
 1900 0130 03       		.uleb128 0x3
 1901 0131 0E       		.uleb128 0xe
 1902 0132 0B       		.uleb128 0xb
 1903 0133 0B       		.uleb128 0xb
 1904 0134 3A       		.uleb128 0x3a
 1905 0135 0B       		.uleb128 0xb
 1906 0136 3B       		.uleb128 0x3b
 1907 0137 05       		.uleb128 0x5
 1908 0138 01       		.uleb128 0x1
 1909 0139 13       		.uleb128 0x13
 1910 013a 00       		.byte	0
 1911 013b 00       		.byte	0
 1912 013c 1B       		.uleb128 0x1b
 1913 013d 13       		.uleb128 0x13
 1914 013e 01       		.byte	0x1
 1915 013f 0B       		.uleb128 0xb
 1916 0140 0B       		.uleb128 0xb
 1917 0141 3A       		.uleb128 0x3a
 1918 0142 0B       		.uleb128 0xb
 1919 0143 3B       		.uleb128 0x3b
 1920 0144 05       		.uleb128 0x5
 1921 0145 01       		.uleb128 0x1
 1922 0146 13       		.uleb128 0x13
 1923 0147 00       		.byte	0
 1924 0148 00       		.byte	0
 1925 0149 1C       		.uleb128 0x1c
 1926 014a 17       		.uleb128 0x17
 1927 014b 01       		.byte	0x1
 1928 014c 0B       		.uleb128 0xb
 1929 014d 0B       		.uleb128 0xb
 1930 014e 3A       		.uleb128 0x3a
 1931 014f 0B       		.uleb128 0xb
 1932 0150 3B       		.uleb128 0x3b
 1933 0151 05       		.uleb128 0x5
 1934 0152 01       		.uleb128 0x1
 1935 0153 13       		.uleb128 0x13
 1936 0154 00       		.byte	0
 1937 0155 00       		.byte	0
 1938 0156 1D       		.uleb128 0x1d
ARM GAS  C:\Users\PCHAUT~1\AppData\Local\Temp\ccJ7evbE.s 			page 35


 1939 0157 0D       		.uleb128 0xd
 1940 0158 00       		.byte	0
 1941 0159 03       		.uleb128 0x3
 1942 015a 0E       		.uleb128 0xe
 1943 015b 3A       		.uleb128 0x3a
 1944 015c 0B       		.uleb128 0xb
 1945 015d 3B       		.uleb128 0x3b
 1946 015e 05       		.uleb128 0x5
 1947 015f 49       		.uleb128 0x49
 1948 0160 13       		.uleb128 0x13
 1949 0161 00       		.byte	0
 1950 0162 00       		.byte	0
 1951 0163 1E       		.uleb128 0x1e
 1952 0164 15       		.uleb128 0x15
 1953 0165 01       		.byte	0x1
 1954 0166 27       		.uleb128 0x27
 1955 0167 19       		.uleb128 0x19
 1956 0168 01       		.uleb128 0x1
 1957 0169 13       		.uleb128 0x13
 1958 016a 00       		.byte	0
 1959 016b 00       		.byte	0
 1960 016c 1F       		.uleb128 0x1f
 1961 016d 34       		.uleb128 0x34
 1962 016e 00       		.byte	0
 1963 016f 03       		.uleb128 0x3
 1964 0170 0E       		.uleb128 0xe
 1965 0171 3A       		.uleb128 0x3a
 1966 0172 0B       		.uleb128 0xb
 1967 0173 3B       		.uleb128 0x3b
 1968 0174 05       		.uleb128 0x5
 1969 0175 49       		.uleb128 0x49
 1970 0176 13       		.uleb128 0x13
 1971 0177 3F       		.uleb128 0x3f
 1972 0178 19       		.uleb128 0x19
 1973 0179 3C       		.uleb128 0x3c
 1974 017a 19       		.uleb128 0x19
 1975 017b 00       		.byte	0
 1976 017c 00       		.byte	0
 1977 017d 20       		.uleb128 0x20
 1978 017e 34       		.uleb128 0x34
 1979 017f 00       		.byte	0
 1980 0180 03       		.uleb128 0x3
 1981 0181 0E       		.uleb128 0xe
 1982 0182 3A       		.uleb128 0x3a
 1983 0183 0B       		.uleb128 0xb
 1984 0184 3B       		.uleb128 0x3b
 1985 0185 0B       		.uleb128 0xb
 1986 0186 49       		.uleb128 0x49
 1987 0187 13       		.uleb128 0x13
 1988 0188 3F       		.uleb128 0x3f
 1989 0189 19       		.uleb128 0x19
 1990 018a 3C       		.uleb128 0x3c
 1991 018b 19       		.uleb128 0x19
 1992 018c 00       		.byte	0
 1993 018d 00       		.byte	0
 1994 018e 21       		.uleb128 0x21
 1995 018f 2E       		.uleb128 0x2e
ARM GAS  C:\Users\PCHAUT~1\AppData\Local\Temp\ccJ7evbE.s 			page 36


 1996 0190 01       		.byte	0x1
 1997 0191 3F       		.uleb128 0x3f
 1998 0192 19       		.uleb128 0x19
 1999 0193 03       		.uleb128 0x3
 2000 0194 0E       		.uleb128 0xe
 2001 0195 3A       		.uleb128 0x3a
 2002 0196 0B       		.uleb128 0xb
 2003 0197 3B       		.uleb128 0x3b
 2004 0198 0B       		.uleb128 0xb
 2005 0199 27       		.uleb128 0x27
 2006 019a 19       		.uleb128 0x19
 2007 019b 49       		.uleb128 0x49
 2008 019c 13       		.uleb128 0x13
 2009 019d 11       		.uleb128 0x11
 2010 019e 01       		.uleb128 0x1
 2011 019f 12       		.uleb128 0x12
 2012 01a0 06       		.uleb128 0x6
 2013 01a1 40       		.uleb128 0x40
 2014 01a2 18       		.uleb128 0x18
 2015 01a3 9642     		.uleb128 0x2116
 2016 01a5 19       		.uleb128 0x19
 2017 01a6 01       		.uleb128 0x1
 2018 01a7 13       		.uleb128 0x13
 2019 01a8 00       		.byte	0
 2020 01a9 00       		.byte	0
 2021 01aa 22       		.uleb128 0x22
 2022 01ab 05       		.uleb128 0x5
 2023 01ac 00       		.byte	0
 2024 01ad 03       		.uleb128 0x3
 2025 01ae 0E       		.uleb128 0xe
 2026 01af 3A       		.uleb128 0x3a
 2027 01b0 0B       		.uleb128 0xb
 2028 01b1 3B       		.uleb128 0x3b
 2029 01b2 0B       		.uleb128 0xb
 2030 01b3 49       		.uleb128 0x49
 2031 01b4 13       		.uleb128 0x13
 2032 01b5 02       		.uleb128 0x2
 2033 01b6 18       		.uleb128 0x18
 2034 01b7 00       		.byte	0
 2035 01b8 00       		.byte	0
 2036 01b9 23       		.uleb128 0x23
 2037 01ba 2E       		.uleb128 0x2e
 2038 01bb 00       		.byte	0
 2039 01bc 3F       		.uleb128 0x3f
 2040 01bd 19       		.uleb128 0x19
 2041 01be 03       		.uleb128 0x3
 2042 01bf 0E       		.uleb128 0xe
 2043 01c0 3A       		.uleb128 0x3a
 2044 01c1 0B       		.uleb128 0xb
 2045 01c2 3B       		.uleb128 0x3b
 2046 01c3 0B       		.uleb128 0xb
 2047 01c4 27       		.uleb128 0x27
 2048 01c5 19       		.uleb128 0x19
 2049 01c6 11       		.uleb128 0x11
 2050 01c7 01       		.uleb128 0x1
 2051 01c8 12       		.uleb128 0x12
 2052 01c9 06       		.uleb128 0x6
ARM GAS  C:\Users\PCHAUT~1\AppData\Local\Temp\ccJ7evbE.s 			page 37


 2053 01ca 40       		.uleb128 0x40
 2054 01cb 18       		.uleb128 0x18
 2055 01cc 9642     		.uleb128 0x2116
 2056 01ce 19       		.uleb128 0x19
 2057 01cf 00       		.byte	0
 2058 01d0 00       		.byte	0
 2059 01d1 00       		.byte	0
 2060              		.section	.debug_aranges,"",%progbits
 2061 0000 54000000 		.4byte	0x54
 2062 0004 0200     		.2byte	0x2
 2063 0006 00000000 		.4byte	.Ldebug_info0
 2064 000a 04       		.byte	0x4
 2065 000b 00       		.byte	0
 2066 000c 0000     		.2byte	0
 2067 000e 0000     		.2byte	0
 2068 0010 00000000 		.4byte	.LFB0
 2069 0014 24000000 		.4byte	.LFE0-.LFB0
 2070 0018 00000000 		.4byte	.LFB1
 2071 001c 24000000 		.4byte	.LFE1-.LFB1
 2072 0020 00000000 		.4byte	.LFB2
 2073 0024 2C000000 		.4byte	.LFE2-.LFB2
 2074 0028 00000000 		.4byte	.LFB3
 2075 002c 28000000 		.4byte	.LFE3-.LFB3
 2076 0030 00000000 		.4byte	.LFB4
 2077 0034 2C000000 		.4byte	.LFE4-.LFB4
 2078 0038 00000000 		.4byte	.LFB5
 2079 003c 28000000 		.4byte	.LFE5-.LFB5
 2080 0040 00000000 		.4byte	.LFB6
 2081 0044 28000000 		.4byte	.LFE6-.LFB6
 2082 0048 00000000 		.4byte	.LFB7
 2083 004c 28000000 		.4byte	.LFE7-.LFB7
 2084 0050 00000000 		.4byte	0
 2085 0054 00000000 		.4byte	0
 2086              		.section	.debug_ranges,"",%progbits
 2087              	.Ldebug_ranges0:
 2088 0000 00000000 		.4byte	.LFB0
 2089 0004 24000000 		.4byte	.LFE0
 2090 0008 00000000 		.4byte	.LFB1
 2091 000c 24000000 		.4byte	.LFE1
 2092 0010 00000000 		.4byte	.LFB2
 2093 0014 2C000000 		.4byte	.LFE2
 2094 0018 00000000 		.4byte	.LFB3
 2095 001c 28000000 		.4byte	.LFE3
 2096 0020 00000000 		.4byte	.LFB4
 2097 0024 2C000000 		.4byte	.LFE4
 2098 0028 00000000 		.4byte	.LFB5
 2099 002c 28000000 		.4byte	.LFE5
 2100 0030 00000000 		.4byte	.LFB6
 2101 0034 28000000 		.4byte	.LFE6
 2102 0038 00000000 		.4byte	.LFB7
 2103 003c 28000000 		.4byte	.LFE7
 2104 0040 00000000 		.4byte	0
 2105 0044 00000000 		.4byte	0
 2106              		.section	.debug_line,"",%progbits
 2107              	.Ldebug_line0:
 2108 0000 D0020000 		.section	.debug_str,"MS",%progbits,1
 2108      02002902 
ARM GAS  C:\Users\PCHAUT~1\AppData\Local\Temp\ccJ7evbE.s 			page 38


 2108      00000201 
 2108      FB0E0D00 
 2108      01010101 
 2109              	.LASF39:
 2110 0000 5F64736F 		.ascii	"_dso_handle\000"
 2110      5F68616E 
 2110      646C6500 
 2111              	.LASF47:
 2112 000c 5F73697A 		.ascii	"_size\000"
 2112      6500
 2113              	.LASF91:
 2114 0012 5F72616E 		.ascii	"_rand48\000"
 2114      64343800 
 2115              	.LASF71:
 2116 001a 5F656D65 		.ascii	"_emergency\000"
 2116      7267656E 
 2116      637900
 2117              	.LASF133:
 2118 0025 2E2E2F6C 		.ascii	"../lib/e-puck2_main-processor/src/epuck1x/motor_led"
 2118      69622F65 
 2118      2D707563 
 2118      6B325F6D 
 2118      61696E2D 
 2119 0058 2F616476 		.ascii	"/advance_one_timer/e_agenda.c\000"
 2119      616E6365 
 2119      5F6F6E65 
 2119      5F74696D 
 2119      65722F65 
 2120              	.LASF130:
 2121 0076 655F656E 		.ascii	"e_end_agendas_processing\000"
 2121      645F6167 
 2121      656E6461 
 2121      735F7072 
 2121      6F636573 
 2122              	.LASF125:
 2123 008f 655F7265 		.ascii	"e_reset_agenda\000"
 2123      7365745F 
 2123      6167656E 
 2123      646100
 2124              	.LASF61:
 2125 009e 5F646174 		.ascii	"_data\000"
 2125      6100
 2126              	.LASF111:
 2127 00a4 5F776372 		.ascii	"_wcrtomb_state\000"
 2127      746F6D62 
 2127      5F737461 
 2127      746500
 2128              	.LASF112:
 2129 00b3 5F776373 		.ascii	"_wcsrtombs_state\000"
 2129      72746F6D 
 2129      62735F73 
 2129      74617465 
 2129      00
 2130              	.LASF10:
 2131 00c4 6C6F6E67 		.ascii	"long long unsigned int\000"
 2131      206C6F6E 
 2131      6720756E 
ARM GAS  C:\Users\PCHAUT~1\AppData\Local\Temp\ccJ7evbE.s 			page 39


 2131      7369676E 
 2131      65642069 
 2132              	.LASF51:
 2133 00db 5F6C6266 		.ascii	"_lbfsize\000"
 2133      73697A65 
 2133      00
 2134              	.LASF118:
 2135 00e4 5F5F6C6F 		.ascii	"__locale_t\000"
 2135      63616C65 
 2135      5F7400
 2136              	.LASF109:
 2137 00ef 5F6D6272 		.ascii	"_mbrtowc_state\000"
 2137      746F7763 
 2137      5F737461 
 2137      746500
 2138              	.LASF28:
 2139 00fe 5F5F746D 		.ascii	"__tm_sec\000"
 2139      5F736563 
 2139      00
 2140              	.LASF2:
 2141 0107 6C6F6E67 		.ascii	"long long int\000"
 2141      206C6F6E 
 2141      6720696E 
 2141      7400
 2142              	.LASF4:
 2143 0115 7369676E 		.ascii	"signed char\000"
 2143      65642063 
 2143      68617200 
 2144              	.LASF57:
 2145 0121 5F756275 		.ascii	"_ubuf\000"
 2145      6600
 2146              	.LASF46:
 2147 0127 5F626173 		.ascii	"_base\000"
 2147      6500
 2148              	.LASF30:
 2149 012d 5F5F746D 		.ascii	"__tm_hour\000"
 2149      5F686F75 
 2149      7200
 2150              	.LASF86:
 2151 0137 5F5F7366 		.ascii	"__sf\000"
 2151      00
 2152              	.LASF37:
 2153 013c 5F6F6E5F 		.ascii	"_on_exit_args\000"
 2153      65786974 
 2153      5F617267 
 2153      7300
 2154              	.LASF52:
 2155 014a 5F636F6F 		.ascii	"_cookie\000"
 2155      6B696500 
 2156              	.LASF85:
 2157 0152 5F5F7367 		.ascii	"__sglue\000"
 2157      6C756500 
 2158              	.LASF8:
 2159 015a 6C6F6E67 		.ascii	"long int\000"
 2159      20696E74 
 2159      00
 2160              	.LASF132:
ARM GAS  C:\Users\PCHAUT~1\AppData\Local\Temp\ccJ7evbE.s 			page 40


 2161 0163 474E5520 		.ascii	"GNU C11 7.2.1 20170904 (release) [ARM/embedded-7-br"
 2161      43313120 
 2161      372E322E 
 2161      31203230 
 2161      31373039 
 2162 0196 616E6368 		.ascii	"anch revision 255204] -mcpu=cortex-m4 -mfloat-abi=h"
 2162      20726576 
 2162      6973696F 
 2162      6E203235 
 2162      35323034 
 2163 01c9 61726420 		.ascii	"ard -mfpu=fpv4-sp-d16 -mno-thumb-interwork -mthumb "
 2163      2D6D6670 
 2163      753D6670 
 2163      76342D73 
 2163      702D6431 
 2164 01fc 2D676764 		.ascii	"-ggdb -O0 -fomit-frame-pointer -falign-functions=16"
 2164      62202D4F 
 2164      30202D66 
 2164      6F6D6974 
 2164      2D667261 
 2165 022f 202D666E 		.ascii	" -fno-strict-aliasing -fstack-protector-all -ffunct"
 2165      6F2D7374 
 2165      72696374 
 2165      2D616C69 
 2165      6173696E 
 2166 0262 696F6E2D 		.ascii	"ion-sections -fdata-sections -fno-common -fsingle-p"
 2166      73656374 
 2166      696F6E73 
 2166      202D6664 
 2166      6174612D 
 2167 0295 72656369 		.ascii	"recision-constant\000"
 2167      73696F6E 
 2167      2D636F6E 
 2167      7374616E 
 2167      7400
 2168              	.LASF49:
 2169 02a7 5F666C61 		.ascii	"_flags\000"
 2169      677300
 2170              	.LASF41:
 2171 02ae 5F69735F 		.ascii	"_is_cxa\000"
 2171      63786100 
 2172              	.LASF67:
 2173 02b6 5F737464 		.ascii	"_stdin\000"
 2173      696E00
 2174              	.LASF59:
 2175 02bd 5F626C6B 		.ascii	"_blksize\000"
 2175      73697A65 
 2175      00
 2176              	.LASF81:
 2177 02c6 5F637674 		.ascii	"_cvtbuf\000"
 2177      62756600 
 2178              	.LASF60:
 2179 02ce 5F6F6666 		.ascii	"_offset\000"
 2179      73657400 
 2180              	.LASF110:
 2181 02d6 5F6D6273 		.ascii	"_mbsrtowcs_state\000"
 2181      72746F77 
ARM GAS  C:\Users\PCHAUT~1\AppData\Local\Temp\ccJ7evbE.s 			page 41


 2181      63735F73 
 2181      74617465 
 2181      00
 2182              	.LASF108:
 2183 02e7 5F6D6272 		.ascii	"_mbrlen_state\000"
 2183      6C656E5F 
 2183      73746174 
 2183      6500
 2184              	.LASF38:
 2185 02f5 5F666E61 		.ascii	"_fnargs\000"
 2185      72677300 
 2186              	.LASF123:
 2187 02fd 655F7061 		.ascii	"e_pause_agenda\000"
 2187      7573655F 
 2187      6167656E 
 2187      646100
 2188              	.LASF44:
 2189 030c 5F666E73 		.ascii	"_fns\000"
 2189      00
 2190              	.LASF24:
 2191 0311 5F736967 		.ascii	"_sign\000"
 2191      6E00
 2192              	.LASF20:
 2193 0317 5F666C6F 		.ascii	"_flock_t\000"
 2193      636B5F74 
 2193      00
 2194              	.LASF69:
 2195 0320 5F737464 		.ascii	"_stderr\000"
 2195      65727200 
 2196              	.LASF26:
 2197 0328 5F426967 		.ascii	"_Bigint\000"
 2197      696E7400 
 2198              	.LASF99:
 2199 0330 5F67616D 		.ascii	"_gamma_signgam\000"
 2199      6D615F73 
 2199      69676E67 
 2199      616D00
 2200              	.LASF53:
 2201 033f 5F726561 		.ascii	"_read\000"
 2201      6400
 2202              	.LASF77:
 2203 0345 5F726573 		.ascii	"_result_k\000"
 2203      756C745F 
 2203      6B00
 2204              	.LASF27:
 2205 034f 5F5F746D 		.ascii	"__tm\000"
 2205      00
 2206              	.LASF0:
 2207 0354 756E7369 		.ascii	"unsigned int\000"
 2207      676E6564 
 2207      20696E74 
 2207      00
 2208              	.LASF16:
 2209 0361 5F5F7763 		.ascii	"__wchb\000"
 2209      686200
 2210              	.LASF68:
 2211 0368 5F737464 		.ascii	"_stdout\000"
ARM GAS  C:\Users\PCHAUT~1\AppData\Local\Temp\ccJ7evbE.s 			page 42


 2211      6F757400 
 2212              	.LASF128:
 2213 0370 655F6465 		.ascii	"e_destroy_agenda\000"
 2213      7374726F 
 2213      795F6167 
 2213      656E6461 
 2213      00
 2214              	.LASF80:
 2215 0381 5F637674 		.ascii	"_cvtlen\000"
 2215      6C656E00 
 2216              	.LASF9:
 2217 0389 6C6F6E67 		.ascii	"long unsigned int\000"
 2217      20756E73 
 2217      69676E65 
 2217      6420696E 
 2217      7400
 2218              	.LASF50:
 2219 039b 5F66696C 		.ascii	"_file\000"
 2219      6500
 2220              	.LASF89:
 2221 03a1 5F6E696F 		.ascii	"_niobs\000"
 2221      627300
 2222              	.LASF7:
 2223 03a8 73686F72 		.ascii	"short unsigned int\000"
 2223      7420756E 
 2223      7369676E 
 2223      65642069 
 2223      6E7400
 2224              	.LASF83:
 2225 03bb 5F617465 		.ascii	"_atexit0\000"
 2225      78697430 
 2225      00
 2226              	.LASF106:
 2227 03c4 5F736967 		.ascii	"_signal_buf\000"
 2227      6E616C5F 
 2227      62756600 
 2228              	.LASF97:
 2229 03d0 5F617363 		.ascii	"_asctime_buf\000"
 2229      74696D65 
 2229      5F627566 
 2229      00
 2230              	.LASF76:
 2231 03dd 5F726573 		.ascii	"_result\000"
 2231      756C7400 
 2232              	.LASF15:
 2233 03e5 5F5F7763 		.ascii	"__wch\000"
 2233      6800
 2234              	.LASF11:
 2235 03eb 5F4C4F43 		.ascii	"_LOCK_T\000"
 2235      4B5F5400 
 2236              	.LASF14:
 2237 03f3 77696E74 		.ascii	"wint_t\000"
 2237      5F7400
 2238              	.LASF62:
 2239 03fa 5F6C6F63 		.ascii	"_lock\000"
 2239      6B00
 2240              	.LASF64:
ARM GAS  C:\Users\PCHAUT~1\AppData\Local\Temp\ccJ7evbE.s 			page 43


 2241 0400 5F666C61 		.ascii	"_flags2\000"
 2241      67733200 
 2242              	.LASF54:
 2243 0408 5F777269 		.ascii	"_write\000"
 2243      746500
 2244              	.LASF33:
 2245 040f 5F5F746D 		.ascii	"__tm_year\000"
 2245      5F796561 
 2245      7200
 2246              	.LASF122:
 2247 0419 655F7265 		.ascii	"e_restart_agenda\000"
 2247      73746172 
 2247      745F6167 
 2247      656E6461 
 2247      00
 2248              	.LASF3:
 2249 042a 6C6F6E67 		.ascii	"long double\000"
 2249      20646F75 
 2249      626C6500 
 2250              	.LASF126:
 2251 0436 655F7365 		.ascii	"e_set_agenda_cycle\000"
 2251      745F6167 
 2251      656E6461 
 2251      5F637963 
 2251      6C6500
 2252              	.LASF114:
 2253 0449 5F6E6578 		.ascii	"_nextf\000"
 2253      746600
 2254              	.LASF32:
 2255 0450 5F5F746D 		.ascii	"__tm_mon\000"
 2255      5F6D6F6E 
 2255      00
 2256              	.LASF42:
 2257 0459 5F617465 		.ascii	"_atexit\000"
 2257      78697400 
 2258              	.LASF121:
 2259 0461 7375626F 		.ascii	"suboptarg\000"
 2259      70746172 
 2259      6700
 2260              	.LASF74:
 2261 046b 5F5F7364 		.ascii	"__sdidinit\000"
 2261      6964696E 
 2261      697400
 2262              	.LASF12:
 2263 0476 5F6F6666 		.ascii	"_off_t\000"
 2263      5F7400
 2264              	.LASF79:
 2265 047d 5F667265 		.ascii	"_freelist\000"
 2265      656C6973 
 2265      7400
 2266              	.LASF104:
 2267 0487 5F776374 		.ascii	"_wctomb_state\000"
 2267      6F6D625F 
 2267      73746174 
 2267      6500
 2268              	.LASF131:
 2269 0495 655F7374 		.ascii	"e_start_agendas_processing\000"
ARM GAS  C:\Users\PCHAUT~1\AppData\Local\Temp\ccJ7evbE.s 			page 44


 2269      6172745F 
 2269      6167656E 
 2269      6461735F 
 2269      70726F63 
 2270              	.LASF5:
 2271 04b0 756E7369 		.ascii	"unsigned char\000"
 2271      676E6564 
 2271      20636861 
 2271      7200
 2272              	.LASF82:
 2273 04be 5F6E6577 		.ascii	"_new\000"
 2273      00
 2274              	.LASF113:
 2275 04c3 5F685F65 		.ascii	"_h_errno\000"
 2275      72726E6F 
 2275      00
 2276              	.LASF6:
 2277 04cc 73686F72 		.ascii	"short int\000"
 2277      7420696E 
 2277      7400
 2278              	.LASF35:
 2279 04d6 5F5F746D 		.ascii	"__tm_yday\000"
 2279      5F796461 
 2279      7900
 2280              	.LASF45:
 2281 04e0 5F5F7362 		.ascii	"__sbuf\000"
 2281      756600
 2282              	.LASF90:
 2283 04e7 5F696F62 		.ascii	"_iobs\000"
 2283      7300
 2284              	.LASF87:
 2285 04ed 5F5F4649 		.ascii	"__FILE\000"
 2285      4C4500
 2286              	.LASF19:
 2287 04f4 5F6D6273 		.ascii	"_mbstate_t\000"
 2287      74617465 
 2287      5F7400
 2288              	.LASF48:
 2289 04ff 5F5F7346 		.ascii	"__sFILE\000"
 2289      494C4500 
 2290              	.LASF63:
 2291 0507 5F6D6273 		.ascii	"_mbstate\000"
 2291      74617465 
 2291      00
 2292              	.LASF100:
 2293 0510 5F72616E 		.ascii	"_rand_next\000"
 2293      645F6E65 
 2293      787400
 2294              	.LASF102:
 2295 051b 5F6D626C 		.ascii	"_mblen_state\000"
 2295      656E5F73 
 2295      74617465 
 2295      00
 2296              	.LASF70:
 2297 0528 5F696E63 		.ascii	"_inc\000"
 2297      00
 2298              	.LASF43:
ARM GAS  C:\Users\PCHAUT~1\AppData\Local\Temp\ccJ7evbE.s 			page 45


 2299 052d 5F696E64 		.ascii	"_ind\000"
 2299      00
 2300              	.LASF134:
 2301 0532 433A5C55 		.ascii	"C:\\Users\\Pchautems\\Documents\\RobotiqueTP\\Proje"
 2301      73657273 
 2301      5C506368 
 2301      61757465 
 2301      6D735C44 
 2302 0560 745C6D69 		.ascii	"t\\miniprojet\000"
 2302      6E697072 
 2302      6F6A6574 
 2302      00
 2303              	.LASF73:
 2304 056d 5F6C6F63 		.ascii	"_locale\000"
 2304      616C6500 
 2305              	.LASF75:
 2306 0575 5F5F636C 		.ascii	"__cleanup\000"
 2306      65616E75 
 2306      7000
 2307              	.LASF72:
 2308 057f 5F756E73 		.ascii	"_unspecified_locale_info\000"
 2308      70656369 
 2308      66696564 
 2308      5F6C6F63 
 2308      616C655F 
 2309              	.LASF23:
 2310 0598 5F6D6178 		.ascii	"_maxwds\000"
 2310      77647300 
 2311              	.LASF65:
 2312 05a0 5F726565 		.ascii	"_reent\000"
 2312      6E7400
 2313              	.LASF92:
 2314 05a7 5F736565 		.ascii	"_seed\000"
 2314      6400
 2315              	.LASF129:
 2316 05ad 655F6163 		.ascii	"e_activate_agenda\000"
 2316      74697661 
 2316      74655F61 
 2316      67656E64 
 2316      6100
 2317              	.LASF17:
 2318 05bf 5F5F636F 		.ascii	"__count\000"
 2318      756E7400 
 2319              	.LASF117:
 2320 05c7 5F5F6C6F 		.ascii	"__lock\000"
 2320      636B00
 2321              	.LASF18:
 2322 05ce 5F5F7661 		.ascii	"__value\000"
 2322      6C756500 
 2323              	.LASF55:
 2324 05d6 5F736565 		.ascii	"_seek\000"
 2324      6B00
 2325              	.LASF119:
 2326 05dc 5F696D70 		.ascii	"_impure_ptr\000"
 2326      7572655F 
 2326      70747200 
 2327              	.LASF13:
ARM GAS  C:\Users\PCHAUT~1\AppData\Local\Temp\ccJ7evbE.s 			page 46


 2328 05e8 5F66706F 		.ascii	"_fpos_t\000"
 2328      735F7400 
 2329              	.LASF66:
 2330 05f0 5F657272 		.ascii	"_errno\000"
 2330      6E6F00
 2331              	.LASF1:
 2332 05f7 63686172 		.ascii	"char\000"
 2332      00
 2333              	.LASF124:
 2334 05fc 66756E63 		.ascii	"func\000"
 2334      00
 2335              	.LASF29:
 2336 0601 5F5F746D 		.ascii	"__tm_min\000"
 2336      5F6D696E 
 2336      00
 2337              	.LASF93:
 2338 060a 5F6D756C 		.ascii	"_mult\000"
 2338      7400
 2339              	.LASF22:
 2340 0610 5F6E6578 		.ascii	"_next\000"
 2340      7400
 2341              	.LASF96:
 2342 0616 5F737472 		.ascii	"_strtok_last\000"
 2342      746F6B5F 
 2342      6C617374 
 2342      00
 2343              	.LASF40:
 2344 0623 5F666E74 		.ascii	"_fntypes\000"
 2344      79706573 
 2344      00
 2345              	.LASF94:
 2346 062c 5F616464 		.ascii	"_add\000"
 2346      00
 2347              	.LASF21:
 2348 0631 5F5F554C 		.ascii	"__ULong\000"
 2348      6F6E6700 
 2349              	.LASF107:
 2350 0639 5F676574 		.ascii	"_getdate_err\000"
 2350      64617465 
 2350      5F657272 
 2350      00
 2351              	.LASF120:
 2352 0646 5F676C6F 		.ascii	"_global_impure_ptr\000"
 2352      62616C5F 
 2352      696D7075 
 2352      72655F70 
 2352      747200
 2353              	.LASF127:
 2354 0659 6379636C 		.ascii	"cycle\000"
 2354      6500
 2355              	.LASF95:
 2356 065f 5F756E75 		.ascii	"_unused_rand\000"
 2356      7365645F 
 2356      72616E64 
 2356      00
 2357              	.LASF25:
 2358 066c 5F776473 		.ascii	"_wds\000"
ARM GAS  C:\Users\PCHAUT~1\AppData\Local\Temp\ccJ7evbE.s 			page 47


 2358      00
 2359              	.LASF34:
 2360 0671 5F5F746D 		.ascii	"__tm_wday\000"
 2360      5F776461 
 2360      7900
 2361              	.LASF88:
 2362 067b 5F676C75 		.ascii	"_glue\000"
 2362      6500
 2363              	.LASF115:
 2364 0681 5F6E6D61 		.ascii	"_nmalloc\000"
 2364      6C6C6F63 
 2364      00
 2365              	.LASF105:
 2366 068a 5F6C3634 		.ascii	"_l64a_buf\000"
 2366      615F6275 
 2366      6600
 2367              	.LASF84:
 2368 0694 5F736967 		.ascii	"_sig_func\000"
 2368      5F66756E 
 2368      6300
 2369              	.LASF58:
 2370 069e 5F6E6275 		.ascii	"_nbuf\000"
 2370      6600
 2371              	.LASF116:
 2372 06a4 5F756E75 		.ascii	"_unused\000"
 2372      73656400 
 2373              	.LASF36:
 2374 06ac 5F5F746D 		.ascii	"__tm_isdst\000"
 2374      5F697364 
 2374      737400
 2375              	.LASF98:
 2376 06b7 5F6C6F63 		.ascii	"_localtime_buf\000"
 2376      616C7469 
 2376      6D655F62 
 2376      756600
 2377              	.LASF56:
 2378 06c6 5F636C6F 		.ascii	"_close\000"
 2378      736500
 2379              	.LASF101:
 2380 06cd 5F723438 		.ascii	"_r48\000"
 2380      00
 2381              	.LASF103:
 2382 06d2 5F6D6274 		.ascii	"_mbtowc_state\000"
 2382      6F77635F 
 2382      73746174 
 2382      6500
 2383              	.LASF78:
 2384 06e0 5F703573 		.ascii	"_p5s\000"
 2384      00
 2385              	.LASF31:
 2386 06e5 5F5F746D 		.ascii	"__tm_mday\000"
 2386      5F6D6461 
 2386      7900
 2387              		.ident	"GCC: (GNU Tools for Arm Embedded Processors 7-2017-q4-major) 7.2.1 20170904 (release) [ARM
ARM GAS  C:\Users\PCHAUT~1\AppData\Local\Temp\ccJ7evbE.s 			page 48


DEFINED SYMBOLS
                            *ABS*:00000000 e_agenda.c
C:\Users\PCHAUT~1\AppData\Local\Temp\ccJ7evbE.s:18     .text.e_start_agendas_processing:00000000 $t
C:\Users\PCHAUT~1\AppData\Local\Temp\ccJ7evbE.s:26     .text.e_start_agendas_processing:00000000 e_start_agendas_processing
C:\Users\PCHAUT~1\AppData\Local\Temp\ccJ7evbE.s:58     .text.e_start_agendas_processing:00000020 $d
C:\Users\PCHAUT~1\AppData\Local\Temp\ccJ7evbE.s:63     .text.e_end_agendas_processing:00000000 $t
C:\Users\PCHAUT~1\AppData\Local\Temp\ccJ7evbE.s:71     .text.e_end_agendas_processing:00000000 e_end_agendas_processing
C:\Users\PCHAUT~1\AppData\Local\Temp\ccJ7evbE.s:102    .text.e_end_agendas_processing:00000020 $d
C:\Users\PCHAUT~1\AppData\Local\Temp\ccJ7evbE.s:107    .text.e_activate_agenda:00000000 $t
C:\Users\PCHAUT~1\AppData\Local\Temp\ccJ7evbE.s:115    .text.e_activate_agenda:00000000 e_activate_agenda
C:\Users\PCHAUT~1\AppData\Local\Temp\ccJ7evbE.s:150    .text.e_activate_agenda:00000028 $d
C:\Users\PCHAUT~1\AppData\Local\Temp\ccJ7evbE.s:155    .text.e_destroy_agenda:00000000 $t
C:\Users\PCHAUT~1\AppData\Local\Temp\ccJ7evbE.s:163    .text.e_destroy_agenda:00000000 e_destroy_agenda
C:\Users\PCHAUT~1\AppData\Local\Temp\ccJ7evbE.s:197    .text.e_destroy_agenda:00000024 $d
C:\Users\PCHAUT~1\AppData\Local\Temp\ccJ7evbE.s:202    .text.e_set_agenda_cycle:00000000 $t
C:\Users\PCHAUT~1\AppData\Local\Temp\ccJ7evbE.s:210    .text.e_set_agenda_cycle:00000000 e_set_agenda_cycle
C:\Users\PCHAUT~1\AppData\Local\Temp\ccJ7evbE.s:245    .text.e_set_agenda_cycle:00000028 $d
C:\Users\PCHAUT~1\AppData\Local\Temp\ccJ7evbE.s:250    .text.e_reset_agenda:00000000 $t
C:\Users\PCHAUT~1\AppData\Local\Temp\ccJ7evbE.s:258    .text.e_reset_agenda:00000000 e_reset_agenda
C:\Users\PCHAUT~1\AppData\Local\Temp\ccJ7evbE.s:292    .text.e_reset_agenda:00000024 $d
C:\Users\PCHAUT~1\AppData\Local\Temp\ccJ7evbE.s:297    .text.e_pause_agenda:00000000 $t
C:\Users\PCHAUT~1\AppData\Local\Temp\ccJ7evbE.s:305    .text.e_pause_agenda:00000000 e_pause_agenda
C:\Users\PCHAUT~1\AppData\Local\Temp\ccJ7evbE.s:339    .text.e_pause_agenda:00000024 $d
C:\Users\PCHAUT~1\AppData\Local\Temp\ccJ7evbE.s:344    .text.e_restart_agenda:00000000 $t
C:\Users\PCHAUT~1\AppData\Local\Temp\ccJ7evbE.s:352    .text.e_restart_agenda:00000000 e_restart_agenda
C:\Users\PCHAUT~1\AppData\Local\Temp\ccJ7evbE.s:386    .text.e_restart_agenda:00000024 $d

UNDEFINED SYMBOLS
__stack_chk_fail
__stack_chk_guard
