ARM GAS  C:\Users\PCHAUT~1\AppData\Local\Temp\ccBeskIo.s 			page 1


   1              		.cpu cortex-m4
   2              		.eabi_attribute 27, 1
   3              		.eabi_attribute 28, 1
   4              		.eabi_attribute 20, 1
   5              		.eabi_attribute 21, 1
   6              		.eabi_attribute 23, 3
   7              		.eabi_attribute 24, 1
   8              		.eabi_attribute 25, 1
   9              		.eabi_attribute 26, 1
  10              		.eabi_attribute 30, 6
  11              		.eabi_attribute 34, 1
  12              		.eabi_attribute 18, 4
  13              		.file	"e_I2C_protocol.c"
  14              		.text
  15              	.Ltext0:
  16              		.cfi_sections	.debug_frame
  17              		.section	.text.e_i2cp_init,"ax",%progbits
  18              		.align	1
  19              		.p2align 4,,15
  20              		.global	e_i2cp_init
  21              		.syntax unified
  22              		.thumb
  23              		.thumb_func
  24              		.fpu fpv4-sp-d16
  25              		.type	e_i2cp_init, %function
  26              	e_i2cp_init:
  27              	.LFB256:
  28              		.file 1 "../lib/e-puck2_main-processor/src/epuck1x/I2C/e_I2C_protocol.c"
  29              		.loc 1 37 0
  30              		.cfi_startproc
  31              		@ args = 0, pretend = 0, frame = 8
  32              		@ frame_needed = 0, uses_anonymous_args = 0
  33 0000 00B5     		push	{lr}
  34              		.cfi_def_cfa_offset 4
  35              		.cfi_offset 14, -4
  36 0002 83B0     		sub	sp, sp, #12
  37              		.cfi_def_cfa_offset 16
  38              		.loc 1 37 0
  39 0004 064B     		ldr	r3, .L4
  40 0006 1B68     		ldr	r3, [r3]
  41 0008 0193     		str	r3, [sp, #4]
  42              		.loc 1 38 0
  43 000a 00BF     		nop
  44              		.loc 1 39 0
  45 000c 044B     		ldr	r3, .L4
  46 000e 019A     		ldr	r2, [sp, #4]
  47 0010 1B68     		ldr	r3, [r3]
  48 0012 9A42     		cmp	r2, r3
  49 0014 01D0     		beq	.L3
  50 0016 FFF7FEFF 		bl	__stack_chk_fail
  51              	.L3:
  52 001a 03B0     		add	sp, sp, #12
  53              		.cfi_def_cfa_offset 4
  54              		@ sp needed
  55 001c 5DF804FB 		ldr	pc, [sp], #4
  56              	.L5:
  57              		.align	2
ARM GAS  C:\Users\PCHAUT~1\AppData\Local\Temp\ccBeskIo.s 			page 2


  58              	.L4:
  59 0020 00000000 		.word	__stack_chk_guard
  60              		.cfi_endproc
  61              	.LFE256:
  62              		.size	e_i2cp_init, .-e_i2cp_init
  63              		.section	.text.e_i2cp_deinit,"ax",%progbits
  64              		.align	1
  65              		.p2align 4,,15
  66              		.global	e_i2cp_deinit
  67              		.syntax unified
  68              		.thumb
  69              		.thumb_func
  70              		.fpu fpv4-sp-d16
  71              		.type	e_i2cp_deinit, %function
  72              	e_i2cp_deinit:
  73              	.LFB257:
  74              		.loc 1 42 0
  75              		.cfi_startproc
  76              		@ args = 0, pretend = 0, frame = 8
  77              		@ frame_needed = 0, uses_anonymous_args = 0
  78 0000 00B5     		push	{lr}
  79              		.cfi_def_cfa_offset 4
  80              		.cfi_offset 14, -4
  81 0002 83B0     		sub	sp, sp, #12
  82              		.cfi_def_cfa_offset 16
  83              		.loc 1 42 0
  84 0004 064B     		ldr	r3, .L9
  85 0006 1B68     		ldr	r3, [r3]
  86 0008 0193     		str	r3, [sp, #4]
  87              		.loc 1 43 0
  88 000a 00BF     		nop
  89              		.loc 1 44 0
  90 000c 044B     		ldr	r3, .L9
  91 000e 019A     		ldr	r2, [sp, #4]
  92 0010 1B68     		ldr	r3, [r3]
  93 0012 9A42     		cmp	r2, r3
  94 0014 01D0     		beq	.L8
  95 0016 FFF7FEFF 		bl	__stack_chk_fail
  96              	.L8:
  97 001a 03B0     		add	sp, sp, #12
  98              		.cfi_def_cfa_offset 4
  99              		@ sp needed
 100 001c 5DF804FB 		ldr	pc, [sp], #4
 101              	.L10:
 102              		.align	2
 103              	.L9:
 104 0020 00000000 		.word	__stack_chk_guard
 105              		.cfi_endproc
 106              	.LFE257:
 107              		.size	e_i2cp_deinit, .-e_i2cp_deinit
 108              		.section	.text.e_i2cp_enable,"ax",%progbits
 109              		.align	1
 110              		.p2align 4,,15
 111              		.global	e_i2cp_enable
 112              		.syntax unified
 113              		.thumb
 114              		.thumb_func
ARM GAS  C:\Users\PCHAUT~1\AppData\Local\Temp\ccBeskIo.s 			page 3


 115              		.fpu fpv4-sp-d16
 116              		.type	e_i2cp_enable, %function
 117              	e_i2cp_enable:
 118              	.LFB258:
 119              		.loc 1 50 0
 120              		.cfi_startproc
 121              		@ args = 0, pretend = 0, frame = 8
 122              		@ frame_needed = 0, uses_anonymous_args = 0
 123 0000 00B5     		push	{lr}
 124              		.cfi_def_cfa_offset 4
 125              		.cfi_offset 14, -4
 126 0002 83B0     		sub	sp, sp, #12
 127              		.cfi_def_cfa_offset 16
 128              		.loc 1 50 0
 129 0004 064B     		ldr	r3, .L14
 130 0006 1B68     		ldr	r3, [r3]
 131 0008 0193     		str	r3, [sp, #4]
 132              		.loc 1 51 0
 133 000a 00BF     		nop
 134              		.loc 1 52 0
 135 000c 044B     		ldr	r3, .L14
 136 000e 019A     		ldr	r2, [sp, #4]
 137 0010 1B68     		ldr	r3, [r3]
 138 0012 9A42     		cmp	r2, r3
 139 0014 01D0     		beq	.L13
 140 0016 FFF7FEFF 		bl	__stack_chk_fail
 141              	.L13:
 142 001a 03B0     		add	sp, sp, #12
 143              		.cfi_def_cfa_offset 4
 144              		@ sp needed
 145 001c 5DF804FB 		ldr	pc, [sp], #4
 146              	.L15:
 147              		.align	2
 148              	.L14:
 149 0020 00000000 		.word	__stack_chk_guard
 150              		.cfi_endproc
 151              	.LFE258:
 152              		.size	e_i2cp_enable, .-e_i2cp_enable
 153              		.section	.text.e_i2cp_disable,"ax",%progbits
 154              		.align	1
 155              		.p2align 4,,15
 156              		.global	e_i2cp_disable
 157              		.syntax unified
 158              		.thumb
 159              		.thumb_func
 160              		.fpu fpv4-sp-d16
 161              		.type	e_i2cp_disable, %function
 162              	e_i2cp_disable:
 163              	.LFB259:
 164              		.loc 1 58 0
 165              		.cfi_startproc
 166              		@ args = 0, pretend = 0, frame = 8
 167              		@ frame_needed = 0, uses_anonymous_args = 0
 168 0000 00B5     		push	{lr}
 169              		.cfi_def_cfa_offset 4
 170              		.cfi_offset 14, -4
 171 0002 83B0     		sub	sp, sp, #12
ARM GAS  C:\Users\PCHAUT~1\AppData\Local\Temp\ccBeskIo.s 			page 4


 172              		.cfi_def_cfa_offset 16
 173              		.loc 1 58 0
 174 0004 064B     		ldr	r3, .L19
 175 0006 1B68     		ldr	r3, [r3]
 176 0008 0193     		str	r3, [sp, #4]
 177              		.loc 1 59 0
 178 000a 00BF     		nop
 179              		.loc 1 60 0
 180 000c 044B     		ldr	r3, .L19
 181 000e 019A     		ldr	r2, [sp, #4]
 182 0010 1B68     		ldr	r3, [r3]
 183 0012 9A42     		cmp	r2, r3
 184 0014 01D0     		beq	.L18
 185 0016 FFF7FEFF 		bl	__stack_chk_fail
 186              	.L18:
 187 001a 03B0     		add	sp, sp, #12
 188              		.cfi_def_cfa_offset 4
 189              		@ sp needed
 190 001c 5DF804FB 		ldr	pc, [sp], #4
 191              	.L20:
 192              		.align	2
 193              	.L19:
 194 0020 00000000 		.word	__stack_chk_guard
 195              		.cfi_endproc
 196              	.LFE259:
 197              		.size	e_i2cp_disable, .-e_i2cp_disable
 198              		.section	.text.e_i2cp_read,"ax",%progbits
 199              		.align	1
 200              		.p2align 4,,15
 201              		.global	e_i2cp_read
 202              		.syntax unified
 203              		.thumb
 204              		.thumb_func
 205              		.fpu fpv4-sp-d16
 206              		.type	e_i2cp_read, %function
 207              	e_i2cp_read:
 208              	.LFB260:
 209              		.loc 1 68 0
 210              		.cfi_startproc
 211              		@ args = 0, pretend = 0, frame = 16
 212              		@ frame_needed = 0, uses_anonymous_args = 0
 213 0000 00B5     		push	{lr}
 214              		.cfi_def_cfa_offset 4
 215              		.cfi_offset 14, -4
 216 0002 85B0     		sub	sp, sp, #20
 217              		.cfi_def_cfa_offset 24
 218 0004 0346     		mov	r3, r0
 219 0006 0A46     		mov	r2, r1
 220 0008 8DF80730 		strb	r3, [sp, #7]
 221 000c 1346     		mov	r3, r2
 222 000e 8DF80630 		strb	r3, [sp, #6]
 223              		.loc 1 68 0
 224 0012 0F4B     		ldr	r3, .L24
 225 0014 1B68     		ldr	r3, [r3]
 226 0016 0393     		str	r3, [sp, #12]
 227              		.loc 1 69 0
 228 0018 0023     		movs	r3, #0
ARM GAS  C:\Users\PCHAUT~1\AppData\Local\Temp\ccBeskIo.s 			page 5


 229 001a 8DF80B30 		strb	r3, [sp, #11]
 230              		.loc 1 70 0
 231 001e 9DF80730 		ldrb	r3, [sp, #7]	@ zero_extendqisi2
 232 0022 5B08     		lsrs	r3, r3, #1
 233 0024 DBB2     		uxtb	r3, r3
 234 0026 0DF10B02 		add	r2, sp, #11
 235 002a 9DF80610 		ldrb	r1, [sp, #6]	@ zero_extendqisi2
 236 002e 1846     		mov	r0, r3
 237 0030 FFF7FEFF 		bl	read_reg
 238              		.loc 1 71 0
 239 0034 9DF80B30 		ldrb	r3, [sp, #11]	@ zero_extendqisi2
 240              		.loc 1 72 0
 241 0038 1846     		mov	r0, r3
 242 003a 054B     		ldr	r3, .L24
 243 003c 039A     		ldr	r2, [sp, #12]
 244 003e 1B68     		ldr	r3, [r3]
 245 0040 9A42     		cmp	r2, r3
 246 0042 01D0     		beq	.L23
 247 0044 FFF7FEFF 		bl	__stack_chk_fail
 248              	.L23:
 249 0048 05B0     		add	sp, sp, #20
 250              		.cfi_def_cfa_offset 4
 251              		@ sp needed
 252 004a 5DF804FB 		ldr	pc, [sp], #4
 253              	.L25:
 254 004e 00BF     		.align	2
 255              	.L24:
 256 0050 00000000 		.word	__stack_chk_guard
 257              		.cfi_endproc
 258              	.LFE260:
 259              		.size	e_i2cp_read, .-e_i2cp_read
 260              		.section	.text.e_i2cp_write,"ax",%progbits
 261              		.align	1
 262              		.p2align 4,,15
 263              		.global	e_i2cp_write
 264              		.syntax unified
 265              		.thumb
 266              		.thumb_func
 267              		.fpu fpv4-sp-d16
 268              		.type	e_i2cp_write, %function
 269              	e_i2cp_write:
 270              	.LFB261:
 271              		.loc 1 81 0
 272              		.cfi_startproc
 273              		@ args = 0, pretend = 0, frame = 16
 274              		@ frame_needed = 0, uses_anonymous_args = 0
 275 0000 00B5     		push	{lr}
 276              		.cfi_def_cfa_offset 4
 277              		.cfi_offset 14, -4
 278 0002 85B0     		sub	sp, sp, #20
 279              		.cfi_def_cfa_offset 24
 280 0004 0346     		mov	r3, r0
 281 0006 8DF80730 		strb	r3, [sp, #7]
 282 000a 0B46     		mov	r3, r1
 283 000c 8DF80630 		strb	r3, [sp, #6]
 284 0010 1346     		mov	r3, r2
 285 0012 8DF80530 		strb	r3, [sp, #5]
ARM GAS  C:\Users\PCHAUT~1\AppData\Local\Temp\ccBeskIo.s 			page 6


 286              		.loc 1 81 0
 287 0016 134B     		ldr	r3, .L30
 288 0018 1B68     		ldr	r3, [r3]
 289 001a 0393     		str	r3, [sp, #12]
 290              		.loc 1 82 0
 291 001c 0023     		movs	r3, #0
 292 001e 8DF80B30 		strb	r3, [sp, #11]
 293              		.loc 1 83 0
 294 0022 9DF80730 		ldrb	r3, [sp, #7]	@ zero_extendqisi2
 295 0026 5B08     		lsrs	r3, r3, #1
 296 0028 DBB2     		uxtb	r3, r3
 297 002a 9DF80520 		ldrb	r2, [sp, #5]	@ zero_extendqisi2
 298 002e 9DF80610 		ldrb	r1, [sp, #6]	@ zero_extendqisi2
 299 0032 1846     		mov	r0, r3
 300 0034 FFF7FEFF 		bl	write_reg
 301 0038 0346     		mov	r3, r0
 302 003a 8DF80B30 		strb	r3, [sp, #11]
 303 003e 9DF90B30 		ldrsb	r3, [sp, #11]
 304 0042 002B     		cmp	r3, #0
 305 0044 01D0     		beq	.L27
 306              		.loc 1 84 0
 307 0046 0023     		movs	r3, #0
 308 0048 00E0     		b	.L28
 309              	.L27:
 310              		.loc 1 86 0
 311 004a 0123     		movs	r3, #1
 312              	.L28:
 313              		.loc 1 88 0
 314 004c 1846     		mov	r0, r3
 315 004e 054B     		ldr	r3, .L30
 316 0050 039A     		ldr	r2, [sp, #12]
 317 0052 1B68     		ldr	r3, [r3]
 318 0054 9A42     		cmp	r2, r3
 319 0056 01D0     		beq	.L29
 320 0058 FFF7FEFF 		bl	__stack_chk_fail
 321              	.L29:
 322 005c 05B0     		add	sp, sp, #20
 323              		.cfi_def_cfa_offset 4
 324              		@ sp needed
 325 005e 5DF804FB 		ldr	pc, [sp], #4
 326              	.L31:
 327 0062 00BF     		.align	2
 328              	.L30:
 329 0064 00000000 		.word	__stack_chk_guard
 330              		.cfi_endproc
 331              	.LFE261:
 332              		.size	e_i2cp_write, .-e_i2cp_write
 333              		.text
 334              	.Letext0:
 335              		.file 2 "c:\\users\\pchautems\\documents\\robotiquetp\\eclipse_e-puck2\\tools\\gcc-arm-none-eabi-7
 336              		.file 3 "c:\\users\\pchautems\\documents\\robotiquetp\\eclipse_e-puck2\\tools\\gcc-arm-none-eabi-7
 337              		.file 4 "c:\\users\\pchautems\\documents\\robotiquetp\\eclipse_e-puck2\\tools\\gcc-arm-none-eabi-7
 338              		.file 5 "../lib/e-puck2_main-processor/ChibiOS//os/rt/ports/ARMCMx/compilers/GCC/chtypes.h"
 339              		.file 6 "../lib/e-puck2_main-processor/ChibiOS//os/rt/include/chsystypes.h"
 340              		.file 7 "../lib/e-puck2_main-processor/ChibiOS//os/rt/include/chschd.h"
 341              		.file 8 "../lib/e-puck2_main-processor/ChibiOS//os/ext/CMSIS/include/core_cm4.h"
 342              		.file 9 "../lib/e-puck2_main-processor/ChibiOS//os/ext/CMSIS/ST/system_stm32f4xx.h"
ARM GAS  C:\Users\PCHAUT~1\AppData\Local\Temp\ccBeskIo.s 			page 7


 343              		.file 10 "../lib/e-puck2_main-processor/ChibiOS//os/ext/CMSIS/ST/stm32f407xx.h"
 344              		.file 11 "../lib/e-puck2_main-processor/ChibiOS//os/rt/ports/ARMCMx/chcore.h"
 345              		.file 12 "../lib/e-puck2_main-processor/ChibiOS//os/rt/ports/ARMCMx/chcore_v7m.h"
 346              		.file 13 "../lib/e-puck2_main-processor/ChibiOS//os/rt/include/chdebug.h"
 347              		.file 14 "../lib/e-puck2_main-processor/ChibiOS//os/rt/include/chtm.h"
 348              		.file 15 "../lib/e-puck2_main-processor/ChibiOS//os/rt/include/chstats.h"
 349              		.file 16 "../lib/e-puck2_main-processor/ChibiOS//os/rt/include/chsem.h"
 350              		.file 17 "../lib/e-puck2_main-processor/ChibiOS//os/rt/include/chmtx.h"
 351              		.file 18 "../lib/e-puck2_main-processor/ChibiOS//os/rt/include/chregistry.h"
 352              		.file 19 "../lib/e-puck2_main-processor/ChibiOS//os/rt/include/chevents.h"
 353              		.file 20 "../lib/e-puck2_main-processor/ChibiOS//os/rt/include/chqueues.h"
 354              		.file 21 "../lib/e-puck2_main-processor/ChibiOS//os/hal/ports/STM32/STM32F4xx/stm32_dma.h"
 355              		.file 22 "../lib/e-puck2_main-processor/ChibiOS//os/hal/include/hal_ioblock.h"
 356              		.file 23 "../lib/e-puck2_main-processor/ChibiOS//os/hal/ports/STM32/LLD/GPIOv2/pal_lld.h"
 357              		.file 24 "../lib/e-puck2_main-processor/ChibiOS//os/hal/include/adc.h"
 358              		.file 25 "../lib/e-puck2_main-processor/ChibiOS//os/hal/ports/STM32/STM32F4xx/adc_lld.h"
 359              		.file 26 "../lib/e-puck2_main-processor/ChibiOS//os/hal/include/can.h"
 360              		.file 27 "../lib/e-puck2_main-processor/ChibiOS//os/hal/ports/STM32/LLD/can_lld.h"
 361              		.file 28 "../lib/e-puck2_main-processor/ChibiOS//os/hal/include/dac.h"
 362              		.file 29 "../lib/e-puck2_main-processor/ChibiOS//os/hal/ports/STM32/LLD/DACv1/dac_lld.h"
 363              		.file 30 "../lib/e-puck2_main-processor/ChibiOS//os/hal/include/ext.h"
 364              		.file 31 "../lib/e-puck2_main-processor/ChibiOS//os/hal/ports/STM32/LLD/ext_lld.h"
 365              		.file 32 "../lib/e-puck2_main-processor/ChibiOS//os/hal/include/gpt.h"
 366              		.file 33 "../lib/e-puck2_main-processor/ChibiOS//os/hal/ports/STM32/LLD/TIMv1/gpt_lld.h"
 367              		.file 34 "../lib/e-puck2_main-processor/ChibiOS//os/hal/ports/STM32/LLD/TIMv1/stm32_tim.h"
 368              		.file 35 "../lib/e-puck2_main-processor/ChibiOS//os/hal/include/i2c.h"
 369              		.file 36 "../lib/e-puck2_main-processor/ChibiOS//os/hal/ports/STM32/LLD/I2Cv1/i2c_lld.h"
 370              		.file 37 "../lib/e-puck2_main-processor/ChibiOS//os/hal/include/i2s.h"
 371              		.file 38 "../lib/e-puck2_main-processor/ChibiOS//os/hal/ports/STM32/LLD/SPIv1/i2s_lld.h"
 372              		.file 39 "../lib/e-puck2_main-processor/ChibiOS//os/hal/include/pwm.h"
 373              		.file 40 "../lib/e-puck2_main-processor/ChibiOS//os/hal/ports/STM32/LLD/TIMv1/pwm_lld.h"
 374              		.file 41 "../lib/e-puck2_main-processor/ChibiOS//os/hal/include/serial.h"
 375              		.file 42 "../lib/e-puck2_main-processor/ChibiOS//os/hal/ports/STM32/LLD/USARTv1/serial_lld.h"
 376              		.file 43 "../lib/e-puck2_main-processor/ChibiOS//os/hal/include/sdc.h"
 377              		.file 44 "../lib/e-puck2_main-processor/ChibiOS//os/hal/ports/STM32/LLD/sdc_lld.h"
 378              		.file 45 "../lib/e-puck2_main-processor/ChibiOS//os/hal/include/spi.h"
 379              		.file 46 "../lib/e-puck2_main-processor/ChibiOS//os/hal/ports/STM32/LLD/SPIv1/spi_lld.h"
 380              		.file 47 "../lib/e-puck2_main-processor/ChibiOS//os/hal/include/usb.h"
 381              		.file 48 "../lib/e-puck2_main-processor/ChibiOS//os/hal/ports/STM32/LLD/OTGv1/usb_lld.h"
 382              		.file 49 "../lib/e-puck2_main-processor/ChibiOS//os/hal/ports/STM32/LLD/OTGv1/stm32_otg.h"