ARM GAS  C:\Users\PCHAUT~1\AppData\Local\Temp\ccWFrOvA.s 			page 1


   1              		.cpu cortex-m4
   2              		.eabi_attribute 27, 1
   3              		.eabi_attribute 28, 1
   4              		.eabi_attribute 20, 1
   5              		.eabi_attribute 21, 1
   6              		.eabi_attribute 23, 3
   7              		.eabi_attribute 24, 1
   8              		.eabi_attribute 25, 1
   9              		.eabi_attribute 26, 1
  10              		.eabi_attribute 30, 6
  11              		.eabi_attribute 34, 1
  12              		.eabi_attribute 18, 4
  13              		.file	"e_init_port.c"
  14              		.text
  15              	.Ltext0:
  16              		.cfi_sections	.debug_frame
  17              		.section	.text.e_init_port,"ax",%progbits
  18              		.align	1
  19              		.p2align 4,,15
  20              		.global	e_init_port
  21              		.syntax unified
  22              		.thumb
  23              		.thumb_func
  24              		.fpu fpv4-sp-d16
  25              		.type	e_init_port, %function
  26              	e_init_port:
  27              	.LFB0:
  28              		.file 1 "../lib/e-puck2_main-processor/src/epuck1x/motor_led/e_init_port.c"
  29              		.loc 1 39 0
  30              		.cfi_startproc
  31              		@ args = 0, pretend = 0, frame = 8
  32              		@ frame_needed = 0, uses_anonymous_args = 0
  33 0000 00B5     		push	{lr}
  34              		.cfi_def_cfa_offset 4
  35              		.cfi_offset 14, -4
  36 0002 83B0     		sub	sp, sp, #12
  37              		.cfi_def_cfa_offset 16
  38              		.loc 1 39 0
  39 0004 064B     		ldr	r3, .L4
  40 0006 1B68     		ldr	r3, [r3]
  41 0008 0193     		str	r3, [sp, #4]
  42              		.loc 1 40 0
  43 000a 00BF     		nop
  44              		.loc 1 41 0
  45 000c 044B     		ldr	r3, .L4
  46 000e 019A     		ldr	r2, [sp, #4]
  47 0010 1B68     		ldr	r3, [r3]
  48 0012 9A42     		cmp	r2, r3
  49 0014 01D0     		beq	.L3
  50 0016 FFF7FEFF 		bl	__stack_chk_fail
  51              	.L3:
  52 001a 03B0     		add	sp, sp, #12
  53              		.cfi_def_cfa_offset 4
  54              		@ sp needed
  55 001c 5DF804FB 		ldr	pc, [sp], #4
  56              	.L5:
  57              		.align	2
ARM GAS  C:\Users\PCHAUT~1\AppData\Local\Temp\ccWFrOvA.s 			page 2


  58              	.L4:
  59 0020 00000000 		.word	__stack_chk_guard
  60              		.cfi_endproc
  61              	.LFE0:
  62              		.size	e_init_port, .-e_init_port
  63              		.section	.text.isEpuckVersion1_3,"ax",%progbits
  64              		.align	1
  65              		.p2align 4,,15
  66              		.global	isEpuckVersion1_3
  67              		.syntax unified
  68              		.thumb
  69              		.thumb_func
  70              		.fpu fpv4-sp-d16
  71              		.type	isEpuckVersion1_3, %function
  72              	isEpuckVersion1_3:
  73              	.LFB1:
  74              		.loc 1 43 0
  75              		.cfi_startproc
  76              		@ args = 0, pretend = 0, frame = 8
  77              		@ frame_needed = 0, uses_anonymous_args = 0
  78 0000 00B5     		push	{lr}
  79              		.cfi_def_cfa_offset 4
  80              		.cfi_offset 14, -4
  81 0002 83B0     		sub	sp, sp, #12
  82              		.cfi_def_cfa_offset 16
  83              		.loc 1 43 0
  84 0004 074B     		ldr	r3, .L9
  85 0006 1B68     		ldr	r3, [r3]
  86 0008 0193     		str	r3, [sp, #4]
  87              		.loc 1 44 0
  88 000a 0123     		movs	r3, #1
  89              		.loc 1 45 0
  90 000c 1846     		mov	r0, r3
  91 000e 054B     		ldr	r3, .L9
  92 0010 019A     		ldr	r2, [sp, #4]
  93 0012 1B68     		ldr	r3, [r3]
  94 0014 9A42     		cmp	r2, r3
  95 0016 01D0     		beq	.L8
  96 0018 FFF7FEFF 		bl	__stack_chk_fail
  97              	.L8:
  98 001c 03B0     		add	sp, sp, #12
  99              		.cfi_def_cfa_offset 4
 100              		@ sp needed
 101 001e 5DF804FB 		ldr	pc, [sp], #4
 102              	.L10:
 103 0022 00BF     		.align	2
 104              	.L9:
 105 0024 00000000 		.word	__stack_chk_guard
 106              		.cfi_endproc
 107              	.LFE1:
 108              		.size	isEpuckVersion1_3, .-isEpuckVersion1_3
 109              		.text
 110              	.Letext0:
 111              		.section	.debug_info,"",%progbits
 112              	.Ldebug_info0:
 113 0000 4F000000 		.4byte	0x4f
 114 0004 0400     		.2byte	0x4
ARM GAS  C:\Users\PCHAUT~1\AppData\Local\Temp\ccWFrOvA.s 			page 3


 115 0006 00000000 		.4byte	.Ldebug_abbrev0
 116 000a 04       		.byte	0x4
 117 000b 01       		.uleb128 0x1
 118 000c 00000000 		.4byte	.LASF0
 119 0010 0C       		.byte	0xc
 120 0011 5E010000 		.4byte	.LASF1
 121 0015 A0010000 		.4byte	.LASF2
 122 0019 00000000 		.4byte	.Ldebug_ranges0+0
 123 001d 00000000 		.4byte	0
 124 0021 00000000 		.4byte	.Ldebug_line0
 125 0025 02       		.uleb128 0x2
 126 0026 DB010000 		.4byte	.LASF3
 127 002a 01       		.byte	0x1
 128 002b 2B       		.byte	0x2b
 129 002c 3A000000 		.4byte	0x3a
 130 0030 00000000 		.4byte	.LFB1
 131 0034 28000000 		.4byte	.LFE1-.LFB1
 132 0038 01       		.uleb128 0x1
 133 0039 9C       		.byte	0x9c
 134 003a 03       		.uleb128 0x3
 135 003b 01       		.byte	0x1
 136 003c 08       		.byte	0x8
 137 003d 44010000 		.4byte	.LASF4
 138 0041 04       		.uleb128 0x4
 139 0042 52010000 		.4byte	.LASF5
 140 0046 01       		.byte	0x1
 141 0047 27       		.byte	0x27
 142 0048 00000000 		.4byte	.LFB0
 143 004c 24000000 		.4byte	.LFE0-.LFB0
 144 0050 01       		.uleb128 0x1
 145 0051 9C       		.byte	0x9c
 146 0052 00       		.byte	0
 147              		.section	.debug_abbrev,"",%progbits
 148              	.Ldebug_abbrev0:
 149 0000 01       		.uleb128 0x1
 150 0001 11       		.uleb128 0x11
 151 0002 01       		.byte	0x1
 152 0003 25       		.uleb128 0x25
 153 0004 0E       		.uleb128 0xe
 154 0005 13       		.uleb128 0x13
 155 0006 0B       		.uleb128 0xb
 156 0007 03       		.uleb128 0x3
 157 0008 0E       		.uleb128 0xe
 158 0009 1B       		.uleb128 0x1b
 159 000a 0E       		.uleb128 0xe
 160 000b 55       		.uleb128 0x55
 161 000c 17       		.uleb128 0x17
 162 000d 11       		.uleb128 0x11
 163 000e 01       		.uleb128 0x1
 164 000f 10       		.uleb128 0x10
 165 0010 17       		.uleb128 0x17
 166 0011 00       		.byte	0
 167 0012 00       		.byte	0
 168 0013 02       		.uleb128 0x2
 169 0014 2E       		.uleb128 0x2e
 170 0015 00       		.byte	0
 171 0016 3F       		.uleb128 0x3f
ARM GAS  C:\Users\PCHAUT~1\AppData\Local\Temp\ccWFrOvA.s 			page 4


 172 0017 19       		.uleb128 0x19
 173 0018 03       		.uleb128 0x3
 174 0019 0E       		.uleb128 0xe
 175 001a 3A       		.uleb128 0x3a
 176 001b 0B       		.uleb128 0xb
 177 001c 3B       		.uleb128 0x3b
 178 001d 0B       		.uleb128 0xb
 179 001e 27       		.uleb128 0x27
 180 001f 19       		.uleb128 0x19
 181 0020 49       		.uleb128 0x49
 182 0021 13       		.uleb128 0x13
 183 0022 11       		.uleb128 0x11
 184 0023 01       		.uleb128 0x1
 185 0024 12       		.uleb128 0x12
 186 0025 06       		.uleb128 0x6
 187 0026 40       		.uleb128 0x40
 188 0027 18       		.uleb128 0x18
 189 0028 9642     		.uleb128 0x2116
 190 002a 19       		.uleb128 0x19
 191 002b 00       		.byte	0
 192 002c 00       		.byte	0
 193 002d 03       		.uleb128 0x3
 194 002e 24       		.uleb128 0x24
 195 002f 00       		.byte	0
 196 0030 0B       		.uleb128 0xb
 197 0031 0B       		.uleb128 0xb
 198 0032 3E       		.uleb128 0x3e
 199 0033 0B       		.uleb128 0xb
 200 0034 03       		.uleb128 0x3
 201 0035 0E       		.uleb128 0xe
 202 0036 00       		.byte	0
 203 0037 00       		.byte	0
 204 0038 04       		.uleb128 0x4
 205 0039 2E       		.uleb128 0x2e
 206 003a 00       		.byte	0
 207 003b 3F       		.uleb128 0x3f
 208 003c 19       		.uleb128 0x19
 209 003d 03       		.uleb128 0x3
 210 003e 0E       		.uleb128 0xe
 211 003f 3A       		.uleb128 0x3a
 212 0040 0B       		.uleb128 0xb
 213 0041 3B       		.uleb128 0x3b
 214 0042 0B       		.uleb128 0xb
 215 0043 27       		.uleb128 0x27
 216 0044 19       		.uleb128 0x19
 217 0045 11       		.uleb128 0x11
 218 0046 01       		.uleb128 0x1
 219 0047 12       		.uleb128 0x12
 220 0048 06       		.uleb128 0x6
 221 0049 40       		.uleb128 0x40
 222 004a 18       		.uleb128 0x18
 223 004b 9642     		.uleb128 0x2116
 224 004d 19       		.uleb128 0x19
 225 004e 00       		.byte	0
 226 004f 00       		.byte	0
 227 0050 00       		.byte	0
 228              		.section	.debug_aranges,"",%progbits
ARM GAS  C:\Users\PCHAUT~1\AppData\Local\Temp\ccWFrOvA.s 			page 5


 229 0000 24000000 		.4byte	0x24
 230 0004 0200     		.2byte	0x2
 231 0006 00000000 		.4byte	.Ldebug_info0
 232 000a 04       		.byte	0x4
 233 000b 00       		.byte	0
 234 000c 0000     		.2byte	0
 235 000e 0000     		.2byte	0
 236 0010 00000000 		.4byte	.LFB0
 237 0014 24000000 		.4byte	.LFE0-.LFB0
 238 0018 00000000 		.4byte	.LFB1
 239 001c 28000000 		.4byte	.LFE1-.LFB1
 240 0020 00000000 		.4byte	0
 241 0024 00000000 		.4byte	0
 242              		.section	.debug_ranges,"",%progbits
 243              	.Ldebug_ranges0:
 244 0000 00000000 		.4byte	.LFB0
 245 0004 24000000 		.4byte	.LFE0
 246 0008 00000000 		.4byte	.LFB1
 247 000c 28000000 		.4byte	.LFE1
 248 0010 00000000 		.4byte	0
 249 0014 00000000 		.4byte	0
 250              		.section	.debug_line,"",%progbits
 251              	.Ldebug_line0:
 252 0000 82000000 		.section	.debug_str,"MS",%progbits,1
 252      02005800 
 252      00000201 
 252      FB0E0D00 
 252      01010101 
 253              	.LASF0:
 254 0000 474E5520 		.ascii	"GNU C11 7.2.1 20170904 (release) [ARM/embedded-7-br"
 254      43313120 
 254      372E322E 
 254      31203230 
 254      31373039 
 255 0033 616E6368 		.ascii	"anch revision 255204] -mcpu=cortex-m4 -mfloat-abi=h"
 255      20726576 
 255      6973696F 
 255      6E203235 
 255      35323034 
 256 0066 61726420 		.ascii	"ard -mfpu=fpv4-sp-d16 -mno-thumb-interwork -mthumb "
 256      2D6D6670 
 256      753D6670 
 256      76342D73 
 256      702D6431 
 257 0099 2D676764 		.ascii	"-ggdb -O0 -fomit-frame-pointer -falign-functions=16"
 257      62202D4F 
 257      30202D66 
 257      6F6D6974 
 257      2D667261 
 258 00cc 202D666E 		.ascii	" -fno-strict-aliasing -fstack-protector-all -ffunct"
 258      6F2D7374 
 258      72696374 
 258      2D616C69 
 258      6173696E 
 259 00ff 696F6E2D 		.ascii	"ion-sections -fdata-sections -fno-common -fsingle-p"
 259      73656374 
 259      696F6E73 
ARM GAS  C:\Users\PCHAUT~1\AppData\Local\Temp\ccWFrOvA.s 			page 6


 259      202D6664 
 259      6174612D 
 260 0132 72656369 		.ascii	"recision-constant\000"
 260      73696F6E 
 260      2D636F6E 
 260      7374616E 
 260      7400
 261              	.LASF4:
 262 0144 756E7369 		.ascii	"unsigned char\000"
 262      676E6564 
 262      20636861 
 262      7200
 263              	.LASF5:
 264 0152 655F696E 		.ascii	"e_init_port\000"
 264      69745F70 
 264      6F727400 
 265              	.LASF1:
 266 015e 2E2E2F6C 		.ascii	"../lib/e-puck2_main-processor/src/epuck1x/motor_led"
 266      69622F65 
 266      2D707563 
 266      6B325F6D 
 266      61696E2D 
 267 0191 2F655F69 		.ascii	"/e_init_port.c\000"
 267      6E69745F 
 267      706F7274 
 267      2E6300
 268              	.LASF2:
 269 01a0 433A5C55 		.ascii	"C:\\Users\\Pchautems\\Documents\\RobotiqueTP\\Proje"
 269      73657273 
 269      5C506368 
 269      61757465 
 269      6D735C44 
 270 01ce 745C6D69 		.ascii	"t\\miniprojet\000"
 270      6E697072 
 270      6F6A6574 
 270      00
 271              	.LASF3:
 272 01db 69734570 		.ascii	"isEpuckVersion1_3\000"
 272      75636B56 
 272      65727369 
 272      6F6E315F 
 272      3300
 273              		.ident	"GCC: (GNU Tools for Arm Embedded Processors 7-2017-q4-major) 7.2.1 20170904 (release) [ARM
ARM GAS  C:\Users\PCHAUT~1\AppData\Local\Temp\ccWFrOvA.s 			page 7


DEFINED SYMBOLS
                            *ABS*:00000000 e_init_port.c
C:\Users\PCHAUT~1\AppData\Local\Temp\ccWFrOvA.s:18     .text.e_init_port:00000000 $t
C:\Users\PCHAUT~1\AppData\Local\Temp\ccWFrOvA.s:26     .text.e_init_port:00000000 e_init_port
C:\Users\PCHAUT~1\AppData\Local\Temp\ccWFrOvA.s:59     .text.e_init_port:00000020 $d
C:\Users\PCHAUT~1\AppData\Local\Temp\ccWFrOvA.s:64     .text.isEpuckVersion1_3:00000000 $t
C:\Users\PCHAUT~1\AppData\Local\Temp\ccWFrOvA.s:72     .text.isEpuckVersion1_3:00000000 isEpuckVersion1_3
C:\Users\PCHAUT~1\AppData\Local\Temp\ccWFrOvA.s:105    .text.isEpuckVersion1_3:00000024 $d

UNDEFINED SYMBOLS
__stack_chk_fail
__stack_chk_guard
