ARM GAS  C:\Users\PCHAUT~1\AppData\Local\Temp\ccWFrOvA.s 			page 1


   1              		.cpu cortex-m4
   2              		.eabi_attribute 27, 1
   3              		.eabi_attribute 28, 1
   4              		.eabi_attribute 20, 1
   5              		.eabi_attribute 21, 1
   6              		.eabi_attribute 23, 3
   7              		.eabi_attribute 24, 1
   8              		.eabi_attribute 25, 1
   9              		.eabi_attribute 26, 1
  10              		.eabi_attribute 30, 6
  11              		.eabi_attribute 34, 1
  12              		.eabi_attribute 18, 4
  13              		.file	"e_init_port.c"
  14              		.text
  15              	.Ltext0:
  16              		.cfi_sections	.debug_frame
  17              		.section	.text.e_init_port,"ax",%progbits
  18              		.align	1
  19              		.p2align 4,,15
  20              		.global	e_init_port
  21              		.syntax unified
  22              		.thumb
  23              		.thumb_func
  24              		.fpu fpv4-sp-d16
  25              		.type	e_init_port, %function
  26              	e_init_port:
  27              	.LFB0:
  28              		.file 1 "../lib/e-puck2_main-processor/src/epuck1x/motor_led/e_init_port.c"
  29              		.loc 1 39 0
  30              		.cfi_startproc
  31              		@ args = 0, pretend = 0, frame = 8
  32              		@ frame_needed = 0, uses_anonymous_args = 0
  33 0000 00B5     		push	{lr}
  34              		.cfi_def_cfa_offset 4
  35              		.cfi_offset 14, -4
  36 0002 83B0     		sub	sp, sp, #12
  37              		.cfi_def_cfa_offset 16
  38              		.loc 1 39 0
  39 0004 064B     		ldr	r3, .L4
  40 0006 1B68     		ldr	r3, [r3]
  41 0008 0193     		str	r3, [sp, #4]
  42              		.loc 1 40 0
  43 000a 00BF     		nop
  44              		.loc 1 41 0
  45 000c 044B     		ldr	r3, .L4
  46 000e 019A     		ldr	r2, [sp, #4]
  47 0010 1B68     		ldr	r3, [r3]
  48 0012 9A42     		cmp	r2, r3
  49 0014 01D0     		beq	.L3
  50 0016 FFF7FEFF 		bl	__stack_chk_fail
  51              	.L3:
  52 001a 03B0     		add	sp, sp, #12
  53              		.cfi_def_cfa_offset 4
  54              		@ sp needed
  55 001c 5DF804FB 		ldr	pc, [sp], #4
  56              	.L5:
  57              		.align	2
ARM GAS  C:\Users\PCHAUT~1\AppData\Local\Temp\ccWFrOvA.s 			page 2


  58              	.L4:
  59 0020 00000000 		.word	__stack_chk_guard
  60              		.cfi_endproc
  61              	.LFE0:
  62              		.size	e_init_port, .-e_init_port
  63              		.section	.text.isEpuckVersion1_3,"ax",%progbits
  64              		.align	1
  65              		.p2align 4,,15
  66              		.global	isEpuckVersion1_3
  67              		.syntax unified
  68              		.thumb
  69              		.thumb_func
  70              		.fpu fpv4-sp-d16
  71              		.type	isEpuckVersion1_3, %function
  72              	isEpuckVersion1_3:
  73              	.LFB1:
  74              		.loc 1 43 0
  75              		.cfi_startproc
  76              		@ args = 0, pretend = 0, frame = 8
  77              		@ frame_needed = 0, uses_anonymous_args = 0
  78 0000 00B5     		push	{lr}
  79              		.cfi_def_cfa_offset 4
  80              		.cfi_offset 14, -4
  81 0002 83B0     		sub	sp, sp, #12
  82              		.cfi_def_cfa_offset 16
  83              		.loc 1 43 0
  84 0004 074B     		ldr	r3, .L9
  85 0006 1B68     		ldr	r3, [r3]
  86 0008 0193     		str	r3, [sp, #4]
  87              		.loc 1 44 0
  88 000a 0123     		movs	r3, #1
  89              		.loc 1 45 0
  90 000c 1846     		mov	r0, r3
  91 000e 054B     		ldr	r3, .L9
  92 0010 019A     		ldr	r2, [sp, #4]
  93 0012 1B68     		ldr	r3, [r3]
  94 0014 9A42     		cmp	r2, r3
  95 0016 01D0     		beq	.L8
  96 0018 FFF7FEFF 		bl	__stack_chk_fail
  97              	.L8:
  98 001c 03B0     		add	sp, sp, #12
  99              		.cfi_def_cfa_offset 4
 100              		@ sp needed
 101 001e 5DF804FB 		ldr	pc, [sp], #4
 102              	.L10:
 103 0022 00BF     		.align	2
 104              	.L9:
 105 0024 00000000 		.word	__stack_chk_guard
 106              		.cfi_endproc
 107              	.LFE1:
 108              		.size	isEpuckVersion1_3, .-isEpuckVersion1_3
 109              		.text
 110              	.Letext0: