ARM GAS  C:\Users\PCHAUT~1\AppData\Local\Temp\ccpRzLCP.s 			page 1


   1              		.cpu cortex-m4
   2              		.eabi_attribute 27, 1
   3              		.eabi_attribute 28, 1
   4              		.eabi_attribute 20, 1
   5              		.eabi_attribute 21, 1
   6              		.eabi_attribute 23, 3
   7              		.eabi_attribute 24, 1
   8              		.eabi_attribute 25, 1
   9              		.eabi_attribute 26, 1
  10              		.eabi_attribute 30, 6
  11              		.eabi_attribute 34, 1
  12              		.eabi_attribute 18, 4
  13              		.file	"e_led.c"
  14              		.text
  15              	.Ltext0:
  16              		.cfi_sections	.debug_frame
  17              		.section	.text.e_set_led,"ax",%progbits
  18              		.align	1
  19              		.p2align 4,,15
  20              		.global	e_set_led
  21              		.syntax unified
  22              		.thumb
  23              		.thumb_func
  24              		.fpu fpv4-sp-d16
  25              		.type	e_set_led, %function
  26              	e_set_led:
  27              	.LFB256:
  28              		.file 1 "../lib/e-puck2_main-processor/src/epuck1x/motor_led/advance_one_timer/e_led.c"
  29              		.loc 1 25 0
  30              		.cfi_startproc
  31              		@ args = 0, pretend = 0, frame = 16
  32              		@ frame_needed = 0, uses_anonymous_args = 0
  33 0000 00B5     		push	{lr}
  34              		.cfi_def_cfa_offset 4
  35              		.cfi_offset 14, -4
  36 0002 85B0     		sub	sp, sp, #20
  37              		.cfi_def_cfa_offset 24
  38 0004 0190     		str	r0, [sp, #4]
  39 0006 0091     		str	r1, [sp]
  40              		.loc 1 25 0
  41 0008 4F4B     		ldr	r3, .L24
  42 000a 1B68     		ldr	r3, [r3]
  43 000c 0393     		str	r3, [sp, #12]
  44              		.loc 1 26 0
  45 000e 019B     		ldr	r3, [sp, #4]
  46 0010 072B     		cmp	r3, #7
  47 0012 7FD8     		bhi	.L2
  48 0014 01A2     		adr	r2, .L4
  49 0016 52F823F0 		ldr	pc, [r2, r3, lsl #2]
  50 001a 00BF     		.p2align 2
  51              	.L4:
  52 001c 3D000000 		.word	.L3+1
  53 0020 47000000 		.word	.L5+1
  54 0024 73000000 		.word	.L6+1
  55 0028 7D000000 		.word	.L7+1
  56 002c A9000000 		.word	.L8+1
  57 0030 B3000000 		.word	.L9+1
ARM GAS  C:\Users\PCHAUT~1\AppData\Local\Temp\ccpRzLCP.s 			page 2


  58 0034 DF000000 		.word	.L10+1
  59 0038 E9000000 		.word	.L11+1
  60              		.p2align 1
  61              	.L3:
  62              		.loc 1 29 0
  63 003c 0099     		ldr	r1, [sp]
  64 003e 0020     		movs	r0, #0
  65 0040 FFF7FEFF 		bl	set_led
  66              		.loc 1 30 0
  67 0044 75E0     		b	.L12
  68              	.L5:
  69              		.loc 1 32 0
  70 0046 009B     		ldr	r3, [sp]
  71 0048 012B     		cmp	r3, #1
  72 004a 05D9     		bls	.L13
  73              		.loc 1 33 0
  74 004c 0A22     		movs	r2, #10
  75 004e 0021     		movs	r1, #0
  76 0050 0020     		movs	r0, #0
  77 0052 FFF7FEFF 		bl	toggle_rgb_led
  78              		.loc 1 37 0
  79 0056 6CE0     		b	.L12
  80              	.L13:
  81              		.loc 1 35 0
  82 0058 009B     		ldr	r3, [sp]
  83 005a DBB2     		uxtb	r3, r3
  84 005c 1A46     		mov	r2, r3
  85 005e 9200     		lsls	r2, r2, #2
  86 0060 1344     		add	r3, r3, r2
  87 0062 5B00     		lsls	r3, r3, #1
  88 0064 D9B2     		uxtb	r1, r3
  89 0066 0023     		movs	r3, #0
  90 0068 0022     		movs	r2, #0
  91 006a 0020     		movs	r0, #0
  92 006c FFF7FEFF 		bl	set_rgb_led
  93              		.loc 1 37 0
  94 0070 5FE0     		b	.L12
  95              	.L6:
  96              		.loc 1 39 0
  97 0072 0099     		ldr	r1, [sp]
  98 0074 0120     		movs	r0, #1
  99 0076 FFF7FEFF 		bl	set_led
 100              		.loc 1 40 0
 101 007a 5AE0     		b	.L12
 102              	.L7:
 103              		.loc 1 42 0
 104 007c 009B     		ldr	r3, [sp]
 105 007e 012B     		cmp	r3, #1
 106 0080 05D9     		bls	.L15
 107              		.loc 1 43 0
 108 0082 0A22     		movs	r2, #10
 109 0084 0021     		movs	r1, #0
 110 0086 0120     		movs	r0, #1
 111 0088 FFF7FEFF 		bl	toggle_rgb_led
 112              		.loc 1 47 0
 113 008c 51E0     		b	.L12
 114              	.L15:
ARM GAS  C:\Users\PCHAUT~1\AppData\Local\Temp\ccpRzLCP.s 			page 3


 115              		.loc 1 45 0
 116 008e 009B     		ldr	r3, [sp]
 117 0090 DBB2     		uxtb	r3, r3
 118 0092 1A46     		mov	r2, r3
 119 0094 9200     		lsls	r2, r2, #2
 120 0096 1344     		add	r3, r3, r2
 121 0098 5B00     		lsls	r3, r3, #1
 122 009a D9B2     		uxtb	r1, r3
 123 009c 0023     		movs	r3, #0
 124 009e 0022     		movs	r2, #0
 125 00a0 0120     		movs	r0, #1
 126 00a2 FFF7FEFF 		bl	set_rgb_led
 127              		.loc 1 47 0
 128 00a6 44E0     		b	.L12
 129              	.L8:
 130              		.loc 1 49 0
 131 00a8 0099     		ldr	r1, [sp]
 132 00aa 0220     		movs	r0, #2
 133 00ac FFF7FEFF 		bl	set_led
 134              		.loc 1 50 0
 135 00b0 3FE0     		b	.L12
 136              	.L9:
 137              		.loc 1 52 0
 138 00b2 009B     		ldr	r3, [sp]
 139 00b4 012B     		cmp	r3, #1
 140 00b6 05D9     		bls	.L17
 141              		.loc 1 53 0
 142 00b8 0A22     		movs	r2, #10
 143 00ba 0021     		movs	r1, #0
 144 00bc 0220     		movs	r0, #2
 145 00be FFF7FEFF 		bl	toggle_rgb_led
 146              		.loc 1 57 0
 147 00c2 36E0     		b	.L12
 148              	.L17:
 149              		.loc 1 55 0
 150 00c4 009B     		ldr	r3, [sp]
 151 00c6 DBB2     		uxtb	r3, r3
 152 00c8 1A46     		mov	r2, r3
 153 00ca 9200     		lsls	r2, r2, #2
 154 00cc 1344     		add	r3, r3, r2
 155 00ce 5B00     		lsls	r3, r3, #1
 156 00d0 D9B2     		uxtb	r1, r3
 157 00d2 0023     		movs	r3, #0
 158 00d4 0022     		movs	r2, #0
 159 00d6 0220     		movs	r0, #2
 160 00d8 FFF7FEFF 		bl	set_rgb_led
 161              		.loc 1 57 0
 162 00dc 29E0     		b	.L12
 163              	.L10:
 164              		.loc 1 59 0
 165 00de 0099     		ldr	r1, [sp]
 166 00e0 0320     		movs	r0, #3
 167 00e2 FFF7FEFF 		bl	set_led
 168              		.loc 1 60 0
 169 00e6 24E0     		b	.L12
 170              	.L11:
 171              		.loc 1 62 0
ARM GAS  C:\Users\PCHAUT~1\AppData\Local\Temp\ccpRzLCP.s 			page 4


 172 00e8 009B     		ldr	r3, [sp]
 173 00ea 012B     		cmp	r3, #1
 174 00ec 05D9     		bls	.L19
 175              		.loc 1 63 0
 176 00ee 0A22     		movs	r2, #10
 177 00f0 0021     		movs	r1, #0
 178 00f2 0320     		movs	r0, #3
 179 00f4 FFF7FEFF 		bl	toggle_rgb_led
 180              		.loc 1 67 0
 181 00f8 1BE0     		b	.L12
 182              	.L19:
 183              		.loc 1 65 0
 184 00fa 009B     		ldr	r3, [sp]
 185 00fc DBB2     		uxtb	r3, r3
 186 00fe 1A46     		mov	r2, r3
 187 0100 9200     		lsls	r2, r2, #2
 188 0102 1344     		add	r3, r3, r2
 189 0104 5B00     		lsls	r3, r3, #1
 190 0106 D9B2     		uxtb	r1, r3
 191 0108 0023     		movs	r3, #0
 192 010a 0022     		movs	r2, #0
 193 010c 0320     		movs	r0, #3
 194 010e FFF7FEFF 		bl	set_rgb_led
 195              		.loc 1 67 0
 196 0112 0EE0     		b	.L12
 197              	.L2:
 198              	.LBB2:
 199              		.loc 1 69 0
 200 0114 0023     		movs	r3, #0
 201 0116 0293     		str	r3, [sp, #8]
 202 0118 07E0     		b	.L21
 203              	.L22:
 204              		.loc 1 70 0 discriminator 3
 205 011a 029B     		ldr	r3, [sp, #8]
 206 011c 0099     		ldr	r1, [sp]
 207 011e 1846     		mov	r0, r3
 208 0120 FFF7FEFF 		bl	e_set_led
 209              		.loc 1 69 0 discriminator 3
 210 0124 029B     		ldr	r3, [sp, #8]
 211 0126 0133     		adds	r3, r3, #1
 212 0128 0293     		str	r3, [sp, #8]
 213              	.L21:
 214              		.loc 1 69 0 is_stmt 0 discriminator 1
 215 012a 029B     		ldr	r3, [sp, #8]
 216 012c 072B     		cmp	r3, #7
 217 012e F4DD     		ble	.L22
 218              	.LBE2:
 219              		.loc 1 72 0 is_stmt 1
 220 0130 00BF     		nop
 221              	.L12:
 222              		.loc 1 74 0
 223 0132 00BF     		nop
 224 0134 044B     		ldr	r3, .L24
 225 0136 039A     		ldr	r2, [sp, #12]
 226 0138 1B68     		ldr	r3, [r3]
 227 013a 9A42     		cmp	r2, r3
 228 013c 01D0     		beq	.L23
ARM GAS  C:\Users\PCHAUT~1\AppData\Local\Temp\ccpRzLCP.s 			page 5


 229 013e FFF7FEFF 		bl	__stack_chk_fail
 230              	.L23:
 231 0142 05B0     		add	sp, sp, #20
 232              		.cfi_def_cfa_offset 4
 233              		@ sp needed
 234 0144 5DF804FB 		ldr	pc, [sp], #4
 235              	.L25:
 236              		.align	2
 237              	.L24:
 238 0148 00000000 		.word	__stack_chk_guard
 239              		.cfi_endproc
 240              	.LFE256:
 241              		.size	e_set_led, .-e_set_led
 242              		.section	.text.e_led_clear,"ax",%progbits
 243              		.align	1
 244              		.p2align 4,,15
 245              		.global	e_led_clear
 246              		.syntax unified
 247              		.thumb
 248              		.thumb_func
 249              		.fpu fpv4-sp-d16
 250              		.type	e_led_clear, %function
 251              	e_led_clear:
 252              	.LFB257:
 253              		.loc 1 82 0
 254              		.cfi_startproc
 255              		@ args = 0, pretend = 0, frame = 8
 256              		@ frame_needed = 0, uses_anonymous_args = 0
 257 0000 00B5     		push	{lr}
 258              		.cfi_def_cfa_offset 4
 259              		.cfi_offset 14, -4
 260 0002 83B0     		sub	sp, sp, #12
 261              		.cfi_def_cfa_offset 16
 262              		.loc 1 82 0
 263 0004 074B     		ldr	r3, .L28
 264 0006 1B68     		ldr	r3, [r3]
 265 0008 0193     		str	r3, [sp, #4]
 266              		.loc 1 83 0
 267 000a FFF7FEFF 		bl	clear_leds
 268              		.loc 1 84 0
 269 000e 00BF     		nop
 270 0010 044B     		ldr	r3, .L28
 271 0012 019A     		ldr	r2, [sp, #4]
 272 0014 1B68     		ldr	r3, [r3]
 273 0016 9A42     		cmp	r2, r3
 274 0018 01D0     		beq	.L27
 275 001a FFF7FEFF 		bl	__stack_chk_fail
 276              	.L27:
 277 001e 03B0     		add	sp, sp, #12
 278              		.cfi_def_cfa_offset 4
 279              		@ sp needed
 280 0020 5DF804FB 		ldr	pc, [sp], #4
 281              	.L29:
 282              		.align	2
 283              	.L28:
 284 0024 00000000 		.word	__stack_chk_guard
 285              		.cfi_endproc
ARM GAS  C:\Users\PCHAUT~1\AppData\Local\Temp\ccpRzLCP.s 			page 6


 286              	.LFE257:
 287              		.size	e_led_clear, .-e_led_clear
 288              		.section	.text.e_set_body_led,"ax",%progbits
 289              		.align	1
 290              		.p2align 4,,15
 291              		.global	e_set_body_led
 292              		.syntax unified
 293              		.thumb
 294              		.thumb_func
 295              		.fpu fpv4-sp-d16
 296              		.type	e_set_body_led, %function
 297              	e_set_body_led:
 298              	.LFB258:
 299              		.loc 1 93 0
 300              		.cfi_startproc
 301              		@ args = 0, pretend = 0, frame = 16
 302              		@ frame_needed = 0, uses_anonymous_args = 0
 303 0000 00B5     		push	{lr}
 304              		.cfi_def_cfa_offset 4
 305              		.cfi_offset 14, -4
 306 0002 85B0     		sub	sp, sp, #20
 307              		.cfi_def_cfa_offset 24
 308 0004 0190     		str	r0, [sp, #4]
 309              		.loc 1 93 0
 310 0006 084B     		ldr	r3, .L32
 311 0008 1B68     		ldr	r3, [r3]
 312 000a 0393     		str	r3, [sp, #12]
 313              		.loc 1 94 0
 314 000c 0198     		ldr	r0, [sp, #4]
 315 000e FFF7FEFF 		bl	set_body_led
 316              		.loc 1 95 0
 317 0012 00BF     		nop
 318 0014 044B     		ldr	r3, .L32
 319 0016 039A     		ldr	r2, [sp, #12]
 320 0018 1B68     		ldr	r3, [r3]
 321 001a 9A42     		cmp	r2, r3
 322 001c 01D0     		beq	.L31
 323 001e FFF7FEFF 		bl	__stack_chk_fail
 324              	.L31:
 325 0022 05B0     		add	sp, sp, #20
 326              		.cfi_def_cfa_offset 4
 327              		@ sp needed
 328 0024 5DF804FB 		ldr	pc, [sp], #4
 329              	.L33:
 330              		.align	2
 331              	.L32:
 332 0028 00000000 		.word	__stack_chk_guard
 333              		.cfi_endproc
 334              	.LFE258:
 335              		.size	e_set_body_led, .-e_set_body_led
 336              		.section	.text.e_set_front_led,"ax",%progbits
 337              		.align	1
 338              		.p2align 4,,15
 339              		.global	e_set_front_led
 340              		.syntax unified
 341              		.thumb
 342              		.thumb_func
ARM GAS  C:\Users\PCHAUT~1\AppData\Local\Temp\ccpRzLCP.s 			page 7


 343              		.fpu fpv4-sp-d16
 344              		.type	e_set_front_led, %function
 345              	e_set_front_led:
 346              	.LFB259:
 347              		.loc 1 104 0
 348              		.cfi_startproc
 349              		@ args = 0, pretend = 0, frame = 16
 350              		@ frame_needed = 0, uses_anonymous_args = 0
 351 0000 00B5     		push	{lr}
 352              		.cfi_def_cfa_offset 4
 353              		.cfi_offset 14, -4
 354 0002 85B0     		sub	sp, sp, #20
 355              		.cfi_def_cfa_offset 24
 356 0004 0190     		str	r0, [sp, #4]
 357              		.loc 1 104 0
 358 0006 084B     		ldr	r3, .L36
 359 0008 1B68     		ldr	r3, [r3]
 360 000a 0393     		str	r3, [sp, #12]
 361              		.loc 1 105 0
 362 000c 0198     		ldr	r0, [sp, #4]
 363 000e FFF7FEFF 		bl	set_front_led
 364              		.loc 1 106 0
 365 0012 00BF     		nop
 366 0014 044B     		ldr	r3, .L36
 367 0016 039A     		ldr	r2, [sp, #12]
 368 0018 1B68     		ldr	r3, [r3]
 369 001a 9A42     		cmp	r2, r3
 370 001c 01D0     		beq	.L35
 371 001e FFF7FEFF 		bl	__stack_chk_fail
 372              	.L35:
 373 0022 05B0     		add	sp, sp, #20
 374              		.cfi_def_cfa_offset 4
 375              		@ sp needed
 376 0024 5DF804FB 		ldr	pc, [sp], #4
 377              	.L37:
 378              		.align	2
 379              	.L36:
 380 0028 00000000 		.word	__stack_chk_guard
 381              		.cfi_endproc
 382              	.LFE259:
 383              		.size	e_set_front_led, .-e_set_front_led
 384              		.section	.text.e_blink_led,"ax",%progbits
 385              		.align	1
 386              		.p2align 4,,15
 387              		.global	e_blink_led
 388              		.syntax unified
 389              		.thumb
 390              		.thumb_func
 391              		.fpu fpv4-sp-d16
 392              		.type	e_blink_led, %function
 393              	e_blink_led:
 394              	.LFB260:
 395              		.loc 1 114 0
 396              		.cfi_startproc
 397              		@ args = 0, pretend = 0, frame = 8
 398              		@ frame_needed = 0, uses_anonymous_args = 0
 399 0000 00B5     		push	{lr}
ARM GAS  C:\Users\PCHAUT~1\AppData\Local\Temp\ccpRzLCP.s 			page 8


 400              		.cfi_def_cfa_offset 4
 401              		.cfi_offset 14, -4
 402 0002 83B0     		sub	sp, sp, #12
 403              		.cfi_def_cfa_offset 16
 404              		.loc 1 114 0
 405 0004 084B     		ldr	r3, .L40
 406 0006 1B68     		ldr	r3, [r3]
 407 0008 0193     		str	r3, [sp, #4]
 408              		.loc 1 115 0
 409 000a 0221     		movs	r1, #2
 410 000c 0420     		movs	r0, #4
 411 000e FFF7FEFF 		bl	set_led
 412              		.loc 1 117 0
 413 0012 00BF     		nop
 414 0014 044B     		ldr	r3, .L40
 415 0016 019A     		ldr	r2, [sp, #4]
 416 0018 1B68     		ldr	r3, [r3]
 417 001a 9A42     		cmp	r2, r3
 418 001c 01D0     		beq	.L39
 419 001e FFF7FEFF 		bl	__stack_chk_fail
 420              	.L39:
 421 0022 03B0     		add	sp, sp, #12
 422              		.cfi_def_cfa_offset 4
 423              		@ sp needed
 424 0024 5DF804FB 		ldr	pc, [sp], #4
 425              	.L41:
 426              		.align	2
 427              	.L40:
 428 0028 00000000 		.word	__stack_chk_guard
 429              		.cfi_endproc
 430              	.LFE260:
 431              		.size	e_blink_led, .-e_blink_led
 432              		.section	.text.e_blink_led0,"ax",%progbits
 433              		.align	1
 434              		.p2align 4,,15
 435              		.global	e_blink_led0
 436              		.syntax unified
 437              		.thumb
 438              		.thumb_func
 439              		.fpu fpv4-sp-d16
 440              		.type	e_blink_led0, %function
 441              	e_blink_led0:
 442              	.LFB261:
 443              		.loc 1 125 0
 444              		.cfi_startproc
 445              		@ args = 0, pretend = 0, frame = 8
 446              		@ frame_needed = 0, uses_anonymous_args = 0
 447 0000 00B5     		push	{lr}
 448              		.cfi_def_cfa_offset 4
 449              		.cfi_offset 14, -4
 450 0002 83B0     		sub	sp, sp, #12
 451              		.cfi_def_cfa_offset 16
 452              		.loc 1 125 0
 453 0004 084B     		ldr	r3, .L44
 454 0006 1B68     		ldr	r3, [r3]
 455 0008 0193     		str	r3, [sp, #4]
 456              		.loc 1 126 0
ARM GAS  C:\Users\PCHAUT~1\AppData\Local\Temp\ccpRzLCP.s 			page 9


 457 000a 0221     		movs	r1, #2
 458 000c 0020     		movs	r0, #0
 459 000e FFF7FEFF 		bl	set_led
 460              		.loc 1 127 0
 461 0012 00BF     		nop
 462 0014 044B     		ldr	r3, .L44
 463 0016 019A     		ldr	r2, [sp, #4]
 464 0018 1B68     		ldr	r3, [r3]
 465 001a 9A42     		cmp	r2, r3
 466 001c 01D0     		beq	.L43
 467 001e FFF7FEFF 		bl	__stack_chk_fail
 468              	.L43:
 469 0022 03B0     		add	sp, sp, #12
 470              		.cfi_def_cfa_offset 4
 471              		@ sp needed
 472 0024 5DF804FB 		ldr	pc, [sp], #4
 473              	.L45:
 474              		.align	2
 475              	.L44:
 476 0028 00000000 		.word	__stack_chk_guard
 477              		.cfi_endproc
 478              	.LFE261:
 479              		.size	e_blink_led0, .-e_blink_led0
 480              		.section	.text.e_blink_led1,"ax",%progbits
 481              		.align	1
 482              		.p2align 4,,15
 483              		.global	e_blink_led1
 484              		.syntax unified
 485              		.thumb
 486              		.thumb_func
 487              		.fpu fpv4-sp-d16
 488              		.type	e_blink_led1, %function
 489              	e_blink_led1:
 490              	.LFB262:
 491              		.loc 1 135 0
 492              		.cfi_startproc
 493              		@ args = 0, pretend = 0, frame = 8
 494              		@ frame_needed = 0, uses_anonymous_args = 0
 495 0000 00B5     		push	{lr}
 496              		.cfi_def_cfa_offset 4
 497              		.cfi_offset 14, -4
 498 0002 83B0     		sub	sp, sp, #12
 499              		.cfi_def_cfa_offset 16
 500              		.loc 1 135 0
 501 0004 064B     		ldr	r3, .L48
 502 0006 1B68     		ldr	r3, [r3]
 503 0008 0193     		str	r3, [sp, #4]
 504              		.loc 1 137 0
 505 000a 00BF     		nop
 506 000c 044B     		ldr	r3, .L48
 507 000e 019A     		ldr	r2, [sp, #4]
 508 0010 1B68     		ldr	r3, [r3]
 509 0012 9A42     		cmp	r2, r3
 510 0014 01D0     		beq	.L47
 511 0016 FFF7FEFF 		bl	__stack_chk_fail
 512              	.L47:
 513 001a 03B0     		add	sp, sp, #12
ARM GAS  C:\Users\PCHAUT~1\AppData\Local\Temp\ccpRzLCP.s 			page 10


 514              		.cfi_def_cfa_offset 4
 515              		@ sp needed
 516 001c 5DF804FB 		ldr	pc, [sp], #4
 517              	.L49:
 518              		.align	2
 519              	.L48:
 520 0020 00000000 		.word	__stack_chk_guard
 521              		.cfi_endproc
 522              	.LFE262:
 523              		.size	e_blink_led1, .-e_blink_led1
 524              		.section	.text.e_blink_led2,"ax",%progbits
 525              		.align	1
 526              		.p2align 4,,15
 527              		.global	e_blink_led2
 528              		.syntax unified
 529              		.thumb
 530              		.thumb_func
 531              		.fpu fpv4-sp-d16
 532              		.type	e_blink_led2, %function
 533              	e_blink_led2:
 534              	.LFB263:
 535              		.loc 1 145 0
 536              		.cfi_startproc
 537              		@ args = 0, pretend = 0, frame = 8
 538              		@ frame_needed = 0, uses_anonymous_args = 0
 539 0000 00B5     		push	{lr}
 540              		.cfi_def_cfa_offset 4
 541              		.cfi_offset 14, -4
 542 0002 83B0     		sub	sp, sp, #12
 543              		.cfi_def_cfa_offset 16
 544              		.loc 1 145 0
 545 0004 084B     		ldr	r3, .L52
 546 0006 1B68     		ldr	r3, [r3]
 547 0008 0193     		str	r3, [sp, #4]
 548              		.loc 1 146 0
 549 000a 0221     		movs	r1, #2
 550 000c 0120     		movs	r0, #1
 551 000e FFF7FEFF 		bl	set_led
 552              		.loc 1 147 0
 553 0012 00BF     		nop
 554 0014 044B     		ldr	r3, .L52
 555 0016 019A     		ldr	r2, [sp, #4]
 556 0018 1B68     		ldr	r3, [r3]
 557 001a 9A42     		cmp	r2, r3
 558 001c 01D0     		beq	.L51
 559 001e FFF7FEFF 		bl	__stack_chk_fail
 560              	.L51:
 561 0022 03B0     		add	sp, sp, #12
 562              		.cfi_def_cfa_offset 4
 563              		@ sp needed
 564 0024 5DF804FB 		ldr	pc, [sp], #4
 565              	.L53:
 566              		.align	2
 567              	.L52:
 568 0028 00000000 		.word	__stack_chk_guard
 569              		.cfi_endproc
 570              	.LFE263:
ARM GAS  C:\Users\PCHAUT~1\AppData\Local\Temp\ccpRzLCP.s 			page 11


 571              		.size	e_blink_led2, .-e_blink_led2
 572              		.section	.text.e_blink_led3,"ax",%progbits
 573              		.align	1
 574              		.p2align 4,,15
 575              		.global	e_blink_led3
 576              		.syntax unified
 577              		.thumb
 578              		.thumb_func
 579              		.fpu fpv4-sp-d16
 580              		.type	e_blink_led3, %function
 581              	e_blink_led3:
 582              	.LFB264:
 583              		.loc 1 155 0
 584              		.cfi_startproc
 585              		@ args = 0, pretend = 0, frame = 8
 586              		@ frame_needed = 0, uses_anonymous_args = 0
 587 0000 00B5     		push	{lr}
 588              		.cfi_def_cfa_offset 4
 589              		.cfi_offset 14, -4
 590 0002 83B0     		sub	sp, sp, #12
 591              		.cfi_def_cfa_offset 16
 592              		.loc 1 155 0
 593 0004 064B     		ldr	r3, .L56
 594 0006 1B68     		ldr	r3, [r3]
 595 0008 0193     		str	r3, [sp, #4]
 596              		.loc 1 157 0
 597 000a 00BF     		nop
 598 000c 044B     		ldr	r3, .L56
 599 000e 019A     		ldr	r2, [sp, #4]
 600 0010 1B68     		ldr	r3, [r3]
 601 0012 9A42     		cmp	r2, r3
 602 0014 01D0     		beq	.L55
 603 0016 FFF7FEFF 		bl	__stack_chk_fail
 604              	.L55:
 605 001a 03B0     		add	sp, sp, #12
 606              		.cfi_def_cfa_offset 4
 607              		@ sp needed
 608 001c 5DF804FB 		ldr	pc, [sp], #4
 609              	.L57:
 610              		.align	2
 611              	.L56:
 612 0020 00000000 		.word	__stack_chk_guard
 613              		.cfi_endproc
 614              	.LFE264:
 615              		.size	e_blink_led3, .-e_blink_led3
 616              		.section	.text.e_blink_led4,"ax",%progbits
 617              		.align	1
 618              		.p2align 4,,15
 619              		.global	e_blink_led4
 620              		.syntax unified
 621              		.thumb
 622              		.thumb_func
 623              		.fpu fpv4-sp-d16
 624              		.type	e_blink_led4, %function
 625              	e_blink_led4:
 626              	.LFB265:
 627              		.loc 1 165 0
ARM GAS  C:\Users\PCHAUT~1\AppData\Local\Temp\ccpRzLCP.s 			page 12


 628              		.cfi_startproc
 629              		@ args = 0, pretend = 0, frame = 8
 630              		@ frame_needed = 0, uses_anonymous_args = 0
 631 0000 00B5     		push	{lr}
 632              		.cfi_def_cfa_offset 4
 633              		.cfi_offset 14, -4
 634 0002 83B0     		sub	sp, sp, #12
 635              		.cfi_def_cfa_offset 16
 636              		.loc 1 165 0
 637 0004 084B     		ldr	r3, .L60
 638 0006 1B68     		ldr	r3, [r3]
 639 0008 0193     		str	r3, [sp, #4]
 640              		.loc 1 166 0
 641 000a 0221     		movs	r1, #2
 642 000c 0220     		movs	r0, #2
 643 000e FFF7FEFF 		bl	set_led
 644              		.loc 1 167 0
 645 0012 00BF     		nop
 646 0014 044B     		ldr	r3, .L60
 647 0016 019A     		ldr	r2, [sp, #4]
 648 0018 1B68     		ldr	r3, [r3]
 649 001a 9A42     		cmp	r2, r3
 650 001c 01D0     		beq	.L59
 651 001e FFF7FEFF 		bl	__stack_chk_fail
 652              	.L59:
 653 0022 03B0     		add	sp, sp, #12
 654              		.cfi_def_cfa_offset 4
 655              		@ sp needed
 656 0024 5DF804FB 		ldr	pc, [sp], #4
 657              	.L61:
 658              		.align	2
 659              	.L60:
 660 0028 00000000 		.word	__stack_chk_guard
 661              		.cfi_endproc
 662              	.LFE265:
 663              		.size	e_blink_led4, .-e_blink_led4
 664              		.section	.text.e_blink_led5,"ax",%progbits
 665              		.align	1
 666              		.p2align 4,,15
 667              		.global	e_blink_led5
 668              		.syntax unified
 669              		.thumb
 670              		.thumb_func
 671              		.fpu fpv4-sp-d16
 672              		.type	e_blink_led5, %function
 673              	e_blink_led5:
 674              	.LFB266:
 675              		.loc 1 175 0
 676              		.cfi_startproc
 677              		@ args = 0, pretend = 0, frame = 8
 678              		@ frame_needed = 0, uses_anonymous_args = 0
 679 0000 00B5     		push	{lr}
 680              		.cfi_def_cfa_offset 4
 681              		.cfi_offset 14, -4
 682 0002 83B0     		sub	sp, sp, #12
 683              		.cfi_def_cfa_offset 16
 684              		.loc 1 175 0
ARM GAS  C:\Users\PCHAUT~1\AppData\Local\Temp\ccpRzLCP.s 			page 13


 685 0004 064B     		ldr	r3, .L64
 686 0006 1B68     		ldr	r3, [r3]
 687 0008 0193     		str	r3, [sp, #4]
 688              		.loc 1 177 0
 689 000a 00BF     		nop
 690 000c 044B     		ldr	r3, .L64
 691 000e 019A     		ldr	r2, [sp, #4]
 692 0010 1B68     		ldr	r3, [r3]
 693 0012 9A42     		cmp	r2, r3
 694 0014 01D0     		beq	.L63
 695 0016 FFF7FEFF 		bl	__stack_chk_fail
 696              	.L63:
 697 001a 03B0     		add	sp, sp, #12
 698              		.cfi_def_cfa_offset 4
 699              		@ sp needed
 700 001c 5DF804FB 		ldr	pc, [sp], #4
 701              	.L65:
 702              		.align	2
 703              	.L64:
 704 0020 00000000 		.word	__stack_chk_guard
 705              		.cfi_endproc
 706              	.LFE266:
 707              		.size	e_blink_led5, .-e_blink_led5
 708              		.section	.text.e_blink_led6,"ax",%progbits
 709              		.align	1
 710              		.p2align 4,,15
 711              		.global	e_blink_led6
 712              		.syntax unified
 713              		.thumb
 714              		.thumb_func
 715              		.fpu fpv4-sp-d16
 716              		.type	e_blink_led6, %function
 717              	e_blink_led6:
 718              	.LFB267:
 719              		.loc 1 185 0
 720              		.cfi_startproc
 721              		@ args = 0, pretend = 0, frame = 8
 722              		@ frame_needed = 0, uses_anonymous_args = 0
 723 0000 00B5     		push	{lr}
 724              		.cfi_def_cfa_offset 4
 725              		.cfi_offset 14, -4
 726 0002 83B0     		sub	sp, sp, #12
 727              		.cfi_def_cfa_offset 16
 728              		.loc 1 185 0
 729 0004 084B     		ldr	r3, .L68
 730 0006 1B68     		ldr	r3, [r3]
 731 0008 0193     		str	r3, [sp, #4]
 732              		.loc 1 186 0
 733 000a 0221     		movs	r1, #2
 734 000c 0320     		movs	r0, #3
 735 000e FFF7FEFF 		bl	set_led
 736              		.loc 1 187 0
 737 0012 00BF     		nop
 738 0014 044B     		ldr	r3, .L68
 739 0016 019A     		ldr	r2, [sp, #4]
 740 0018 1B68     		ldr	r3, [r3]
 741 001a 9A42     		cmp	r2, r3
ARM GAS  C:\Users\PCHAUT~1\AppData\Local\Temp\ccpRzLCP.s 			page 14


 742 001c 01D0     		beq	.L67
 743 001e FFF7FEFF 		bl	__stack_chk_fail
 744              	.L67:
 745 0022 03B0     		add	sp, sp, #12
 746              		.cfi_def_cfa_offset 4
 747              		@ sp needed
 748 0024 5DF804FB 		ldr	pc, [sp], #4
 749              	.L69:
 750              		.align	2
 751              	.L68:
 752 0028 00000000 		.word	__stack_chk_guard
 753              		.cfi_endproc
 754              	.LFE267:
 755              		.size	e_blink_led6, .-e_blink_led6
 756              		.section	.text.e_blink_led7,"ax",%progbits
 757              		.align	1
 758              		.p2align 4,,15
 759              		.global	e_blink_led7
 760              		.syntax unified
 761              		.thumb
 762              		.thumb_func
 763              		.fpu fpv4-sp-d16
 764              		.type	e_blink_led7, %function
 765              	e_blink_led7:
 766              	.LFB268:
 767              		.loc 1 195 0
 768              		.cfi_startproc
 769              		@ args = 0, pretend = 0, frame = 8
 770              		@ frame_needed = 0, uses_anonymous_args = 0
 771 0000 00B5     		push	{lr}
 772              		.cfi_def_cfa_offset 4
 773              		.cfi_offset 14, -4
 774 0002 83B0     		sub	sp, sp, #12
 775              		.cfi_def_cfa_offset 16
 776              		.loc 1 195 0
 777 0004 064B     		ldr	r3, .L72
 778 0006 1B68     		ldr	r3, [r3]
 779 0008 0193     		str	r3, [sp, #4]
 780              		.loc 1 197 0
 781 000a 00BF     		nop
 782 000c 044B     		ldr	r3, .L72
 783 000e 019A     		ldr	r2, [sp, #4]
 784 0010 1B68     		ldr	r3, [r3]
 785 0012 9A42     		cmp	r2, r3
 786 0014 01D0     		beq	.L71
 787 0016 FFF7FEFF 		bl	__stack_chk_fail
 788              	.L71:
 789 001a 03B0     		add	sp, sp, #12
 790              		.cfi_def_cfa_offset 4
 791              		@ sp needed
 792 001c 5DF804FB 		ldr	pc, [sp], #4
 793              	.L73:
 794              		.align	2
 795              	.L72:
 796 0020 00000000 		.word	__stack_chk_guard
 797              		.cfi_endproc
 798              	.LFE268:
ARM GAS  C:\Users\PCHAUT~1\AppData\Local\Temp\ccpRzLCP.s 			page 15


 799              		.size	e_blink_led7, .-e_blink_led7
 800              		.section	.text.e_start_led_blinking,"ax",%progbits
 801              		.align	1
 802              		.p2align 4,,15
 803              		.global	e_start_led_blinking
 804              		.syntax unified
 805              		.thumb
 806              		.thumb_func
 807              		.fpu fpv4-sp-d16
 808              		.type	e_start_led_blinking, %function
 809              	e_start_led_blinking:
 810              	.LFB269:
 811              		.loc 1 205 0
 812              		.cfi_startproc
 813              		@ args = 0, pretend = 0, frame = 16
 814              		@ frame_needed = 0, uses_anonymous_args = 0
 815 0000 00B5     		push	{lr}
 816              		.cfi_def_cfa_offset 4
 817              		.cfi_offset 14, -4
 818 0002 85B0     		sub	sp, sp, #20
 819              		.cfi_def_cfa_offset 24
 820 0004 0190     		str	r0, [sp, #4]
 821              		.loc 1 205 0
 822 0006 074B     		ldr	r3, .L76
 823 0008 1B68     		ldr	r3, [r3]
 824 000a 0393     		str	r3, [sp, #12]
 825              		.loc 1 208 0
 826 000c 00BF     		nop
 827 000e 054B     		ldr	r3, .L76
 828 0010 039A     		ldr	r2, [sp, #12]
 829 0012 1B68     		ldr	r3, [r3]
 830 0014 9A42     		cmp	r2, r3
 831 0016 01D0     		beq	.L75
 832 0018 FFF7FEFF 		bl	__stack_chk_fail
 833              	.L75:
 834 001c 05B0     		add	sp, sp, #20
 835              		.cfi_def_cfa_offset 4
 836              		@ sp needed
 837 001e 5DF804FB 		ldr	pc, [sp], #4
 838              	.L77:
 839 0022 00BF     		.align	2
 840              	.L76:
 841 0024 00000000 		.word	__stack_chk_guard
 842              		.cfi_endproc
 843              	.LFE269:
 844              		.size	e_start_led_blinking, .-e_start_led_blinking
 845              		.section	.text.e_stop_led_blinking,"ax",%progbits
 846              		.align	1
 847              		.p2align 4,,15
 848              		.global	e_stop_led_blinking
 849              		.syntax unified
 850              		.thumb
 851              		.thumb_func
 852              		.fpu fpv4-sp-d16
 853              		.type	e_stop_led_blinking, %function
 854              	e_stop_led_blinking:
 855              	.LFB270:
ARM GAS  C:\Users\PCHAUT~1\AppData\Local\Temp\ccpRzLCP.s 			page 16


 856              		.loc 1 216 0
 857              		.cfi_startproc
 858              		@ args = 0, pretend = 0, frame = 8
 859              		@ frame_needed = 0, uses_anonymous_args = 0
 860 0000 00B5     		push	{lr}
 861              		.cfi_def_cfa_offset 4
 862              		.cfi_offset 14, -4
 863 0002 83B0     		sub	sp, sp, #12
 864              		.cfi_def_cfa_offset 16
 865              		.loc 1 216 0
 866 0004 064B     		ldr	r3, .L80
 867 0006 1B68     		ldr	r3, [r3]
 868 0008 0193     		str	r3, [sp, #4]
 869              		.loc 1 218 0
 870 000a 00BF     		nop
 871 000c 044B     		ldr	r3, .L80
 872 000e 019A     		ldr	r2, [sp, #4]
 873 0010 1B68     		ldr	r3, [r3]
 874 0012 9A42     		cmp	r2, r3
 875 0014 01D0     		beq	.L79
 876 0016 FFF7FEFF 		bl	__stack_chk_fail
 877              	.L79:
 878 001a 03B0     		add	sp, sp, #12
 879              		.cfi_def_cfa_offset 4
 880              		@ sp needed
 881 001c 5DF804FB 		ldr	pc, [sp], #4
 882              	.L81:
 883              		.align	2
 884              	.L80:
 885 0020 00000000 		.word	__stack_chk_guard
 886              		.cfi_endproc
 887              	.LFE270:
 888              		.size	e_stop_led_blinking, .-e_stop_led_blinking
 889              		.section	.text.e_set_blinking_cycle,"ax",%progbits
 890              		.align	1
 891              		.p2align 4,,15
 892              		.global	e_set_blinking_cycle
 893              		.syntax unified
 894              		.thumb
 895              		.thumb_func
 896              		.fpu fpv4-sp-d16
 897              		.type	e_set_blinking_cycle, %function
 898              	e_set_blinking_cycle:
 899              	.LFB271:
 900              		.loc 1 227 0
 901              		.cfi_startproc
 902              		@ args = 0, pretend = 0, frame = 16
 903              		@ frame_needed = 0, uses_anonymous_args = 0
 904 0000 00B5     		push	{lr}
 905              		.cfi_def_cfa_offset 4
 906              		.cfi_offset 14, -4
 907 0002 85B0     		sub	sp, sp, #20
 908              		.cfi_def_cfa_offset 24
 909 0004 0190     		str	r0, [sp, #4]
 910              		.loc 1 227 0
 911 0006 074B     		ldr	r3, .L84
 912 0008 1B68     		ldr	r3, [r3]
ARM GAS  C:\Users\PCHAUT~1\AppData\Local\Temp\ccpRzLCP.s 			page 17


 913 000a 0393     		str	r3, [sp, #12]
 914              		.loc 1 231 0
 915 000c 00BF     		nop
 916 000e 054B     		ldr	r3, .L84
 917 0010 039A     		ldr	r2, [sp, #12]
 918 0012 1B68     		ldr	r3, [r3]
 919 0014 9A42     		cmp	r2, r3
 920 0016 01D0     		beq	.L83
 921 0018 FFF7FEFF 		bl	__stack_chk_fail
 922              	.L83:
 923 001c 05B0     		add	sp, sp, #20
 924              		.cfi_def_cfa_offset 4
 925              		@ sp needed
 926 001e 5DF804FB 		ldr	pc, [sp], #4
 927              	.L85:
 928 0022 00BF     		.align	2
 929              	.L84:
 930 0024 00000000 		.word	__stack_chk_guard
 931              		.cfi_endproc
 932              	.LFE271:
 933              		.size	e_set_blinking_cycle, .-e_set_blinking_cycle
 934              		.section	.text.snake_led,"ax",%progbits
 935              		.align	1
 936              		.p2align 4,,15
 937              		.global	snake_led
 938              		.syntax unified
 939              		.thumb
 940              		.thumb_func
 941              		.fpu fpv4-sp-d16
 942              		.type	snake_led, %function
 943              	snake_led:
 944              	.LFB272:
 945              		.loc 1 241 0
 946              		.cfi_startproc
 947              		@ args = 0, pretend = 0, frame = 8
 948              		@ frame_needed = 0, uses_anonymous_args = 0
 949 0000 00B5     		push	{lr}
 950              		.cfi_def_cfa_offset 4
 951              		.cfi_offset 14, -4
 952 0002 83B0     		sub	sp, sp, #12
 953              		.cfi_def_cfa_offset 16
 954              		.loc 1 241 0
 955 0004 254B     		ldr	r3, .L92
 956 0006 1B68     		ldr	r3, [r3]
 957 0008 0193     		str	r3, [sp, #4]
 958              		.loc 1 243 0
 959 000a 254B     		ldr	r3, .L92+4
 960 000c 1B78     		ldrb	r3, [r3]	@ zero_extendqisi2
 961 000e 002B     		cmp	r3, #0
 962 0010 10D1     		bne	.L87
 963              		.loc 1 245 0
 964 0012 0021     		movs	r1, #0
 965 0014 0720     		movs	r0, #7
 966 0016 FFF7FEFF 		bl	e_set_led
 967              		.loc 1 246 0
 968 001a 214B     		ldr	r3, .L92+4
 969 001c 1B78     		ldrb	r3, [r3]	@ zero_extendqisi2
ARM GAS  C:\Users\PCHAUT~1\AppData\Local\Temp\ccpRzLCP.s 			page 18


 970 001e 0121     		movs	r1, #1
 971 0020 1846     		mov	r0, r3
 972 0022 FFF7FEFF 		bl	e_set_led
 973              		.loc 1 247 0
 974 0026 1E4B     		ldr	r3, .L92+4
 975 0028 1B78     		ldrb	r3, [r3]	@ zero_extendqisi2
 976 002a 0133     		adds	r3, r3, #1
 977 002c DAB2     		uxtb	r2, r3
 978 002e 1C4B     		ldr	r3, .L92+4
 979 0030 1A70     		strb	r2, [r3]
 980              		.loc 1 261 0
 981 0032 27E0     		b	.L91
 982              	.L87:
 983              		.loc 1 249 0
 984 0034 1A4B     		ldr	r3, .L92+4
 985 0036 1B78     		ldrb	r3, [r3]	@ zero_extendqisi2
 986 0038 072B     		cmp	r3, #7
 987 003a 10D1     		bne	.L89
 988              		.loc 1 251 0
 989 003c 184B     		ldr	r3, .L92+4
 990 003e 1B78     		ldrb	r3, [r3]	@ zero_extendqisi2
 991 0040 013B     		subs	r3, r3, #1
 992 0042 0021     		movs	r1, #0
 993 0044 1846     		mov	r0, r3
 994 0046 FFF7FEFF 		bl	e_set_led
 995              		.loc 1 252 0
 996 004a 154B     		ldr	r3, .L92+4
 997 004c 1B78     		ldrb	r3, [r3]	@ zero_extendqisi2
 998 004e 0121     		movs	r1, #1
 999 0050 1846     		mov	r0, r3
 1000 0052 FFF7FEFF 		bl	e_set_led
 1001              		.loc 1 253 0
 1002 0056 124B     		ldr	r3, .L92+4
 1003 0058 0022     		movs	r2, #0
 1004 005a 1A70     		strb	r2, [r3]
 1005              		.loc 1 261 0
 1006 005c 12E0     		b	.L91
 1007              	.L89:
 1008              		.loc 1 257 0
 1009 005e 104B     		ldr	r3, .L92+4
 1010 0060 1B78     		ldrb	r3, [r3]	@ zero_extendqisi2
 1011 0062 013B     		subs	r3, r3, #1
 1012 0064 0021     		movs	r1, #0
 1013 0066 1846     		mov	r0, r3
 1014 0068 FFF7FEFF 		bl	e_set_led
 1015              		.loc 1 258 0
 1016 006c 0C4B     		ldr	r3, .L92+4
 1017 006e 1B78     		ldrb	r3, [r3]	@ zero_extendqisi2
 1018 0070 0121     		movs	r1, #1
 1019 0072 1846     		mov	r0, r3
 1020 0074 FFF7FEFF 		bl	e_set_led
 1021              		.loc 1 259 0
 1022 0078 094B     		ldr	r3, .L92+4
 1023 007a 1B78     		ldrb	r3, [r3]	@ zero_extendqisi2
 1024 007c 0133     		adds	r3, r3, #1
 1025 007e DAB2     		uxtb	r2, r3
 1026 0080 074B     		ldr	r3, .L92+4
ARM GAS  C:\Users\PCHAUT~1\AppData\Local\Temp\ccpRzLCP.s 			page 19


 1027 0082 1A70     		strb	r2, [r3]
 1028              	.L91:
 1029              		.loc 1 261 0
 1030 0084 00BF     		nop
 1031 0086 054B     		ldr	r3, .L92
 1032 0088 019A     		ldr	r2, [sp, #4]
 1033 008a 1B68     		ldr	r3, [r3]
 1034 008c 9A42     		cmp	r2, r3
 1035 008e 01D0     		beq	.L90
 1036 0090 FFF7FEFF 		bl	__stack_chk_fail
 1037              	.L90:
 1038 0094 03B0     		add	sp, sp, #12
 1039              		.cfi_def_cfa_offset 4
 1040              		@ sp needed
 1041 0096 5DF804FB 		ldr	pc, [sp], #4
 1042              	.L93:
 1043 009a 00BF     		.align	2
 1044              	.L92:
 1045 009c 00000000 		.word	__stack_chk_guard
 1046 00a0 00000000 		.word	no_led.9985
 1047              		.cfi_endproc
 1048              	.LFE272:
 1049              		.size	snake_led, .-snake_led
 1050              		.section	.text.flow_led,"ax",%progbits
 1051              		.align	1
 1052              		.p2align 4,,15
 1053              		.global	flow_led
 1054              		.syntax unified
 1055              		.thumb
 1056              		.thumb_func
 1057              		.fpu fpv4-sp-d16
 1058              		.type	flow_led, %function
 1059              	flow_led:
 1060              	.LFB273:
 1061              		.loc 1 266 0
 1062              		.cfi_startproc
 1063              		@ args = 0, pretend = 0, frame = 8
 1064              		@ frame_needed = 0, uses_anonymous_args = 0
 1065 0000 00B5     		push	{lr}
 1066              		.cfi_def_cfa_offset 4
 1067              		.cfi_offset 14, -4
 1068 0002 83B0     		sub	sp, sp, #12
 1069              		.cfi_def_cfa_offset 16
 1070              		.loc 1 266 0
 1071 0004 284B     		ldr	r3, .L106
 1072 0006 1B68     		ldr	r3, [r3]
 1073 0008 0193     		str	r3, [sp, #4]
 1074              		.loc 1 268 0
 1075 000a 284B     		ldr	r3, .L106+4
 1076 000c 1B78     		ldrb	r3, [r3]	@ zero_extendqisi2
 1077 000e 042B     		cmp	r3, #4
 1078 0010 31D8     		bhi	.L95
 1079 0012 01A2     		adr	r2, .L97
 1080 0014 52F823F0 		ldr	pc, [r2, r3, lsl #2]
 1081              		.p2align 2
 1082              	.L97:
 1083 0018 2D000000 		.word	.L96+1
ARM GAS  C:\Users\PCHAUT~1\AppData\Local\Temp\ccpRzLCP.s 			page 20


 1084 001c 37000000 		.word	.L98+1
 1085 0020 49000000 		.word	.L99+1
 1086 0024 5B000000 		.word	.L100+1
 1087 0028 6D000000 		.word	.L101+1
 1088              		.p2align 1
 1089              	.L96:
 1090              		.loc 1 270 0
 1091 002c 0221     		movs	r1, #2
 1092 002e 0020     		movs	r0, #0
 1093 0030 FFF7FEFF 		bl	e_set_led
 1094 0034 1FE0     		b	.L95
 1095              	.L98:
 1096              		.loc 1 271 0
 1097 0036 0221     		movs	r1, #2
 1098 0038 0120     		movs	r0, #1
 1099 003a FFF7FEFF 		bl	e_set_led
 1100 003e 0221     		movs	r1, #2
 1101 0040 0720     		movs	r0, #7
 1102 0042 FFF7FEFF 		bl	e_set_led
 1103 0046 16E0     		b	.L95
 1104              	.L99:
 1105              		.loc 1 272 0
 1106 0048 0221     		movs	r1, #2
 1107 004a 0220     		movs	r0, #2
 1108 004c FFF7FEFF 		bl	e_set_led
 1109 0050 0221     		movs	r1, #2
 1110 0052 0620     		movs	r0, #6
 1111 0054 FFF7FEFF 		bl	e_set_led
 1112 0058 0DE0     		b	.L95
 1113              	.L100:
 1114              		.loc 1 273 0
 1115 005a 0221     		movs	r1, #2
 1116 005c 0320     		movs	r0, #3
 1117 005e FFF7FEFF 		bl	e_set_led
 1118 0062 0221     		movs	r1, #2
 1119 0064 0520     		movs	r0, #5
 1120 0066 FFF7FEFF 		bl	e_set_led
 1121 006a 04E0     		b	.L95
 1122              	.L101:
 1123              		.loc 1 274 0
 1124 006c 0221     		movs	r1, #2
 1125 006e 0420     		movs	r0, #4
 1126 0070 FFF7FEFF 		bl	e_set_led
 1127 0074 00BF     		nop
 1128              	.L95:
 1129              		.loc 1 276 0
 1130 0076 0D4B     		ldr	r3, .L106+4
 1131 0078 1B78     		ldrb	r3, [r3]	@ zero_extendqisi2
 1132 007a 032B     		cmp	r3, #3
 1133 007c 06D8     		bhi	.L102
 1134              		.loc 1 277 0
 1135 007e 0B4B     		ldr	r3, .L106+4
 1136 0080 1B78     		ldrb	r3, [r3]	@ zero_extendqisi2
 1137 0082 0133     		adds	r3, r3, #1
 1138 0084 DAB2     		uxtb	r2, r3
 1139 0086 094B     		ldr	r3, .L106+4
 1140 0088 1A70     		strb	r2, [r3]
ARM GAS  C:\Users\PCHAUT~1\AppData\Local\Temp\ccpRzLCP.s 			page 21


 1141              		.loc 1 280 0
 1142 008a 02E0     		b	.L105
 1143              	.L102:
 1144              		.loc 1 279 0
 1145 008c 074B     		ldr	r3, .L106+4
 1146 008e 0022     		movs	r2, #0
 1147 0090 1A70     		strb	r2, [r3]
 1148              	.L105:
 1149              		.loc 1 280 0
 1150 0092 00BF     		nop
 1151 0094 044B     		ldr	r3, .L106
 1152 0096 019A     		ldr	r2, [sp, #4]
 1153 0098 1B68     		ldr	r3, [r3]
 1154 009a 9A42     		cmp	r2, r3
 1155 009c 01D0     		beq	.L104
 1156 009e FFF7FEFF 		bl	__stack_chk_fail
 1157              	.L104:
 1158 00a2 03B0     		add	sp, sp, #12
 1159              		.cfi_def_cfa_offset 4
 1160              		@ sp needed
 1161 00a4 5DF804FB 		ldr	pc, [sp], #4
 1162              	.L107:
 1163              		.align	2
 1164              	.L106:
 1165 00a8 00000000 		.word	__stack_chk_guard
 1166 00ac 00000000 		.word	no_led.9989
 1167              		.cfi_endproc
 1168              	.LFE273:
 1169              		.size	flow_led, .-flow_led
 1170              		.section	.text.k2000_led,"ax",%progbits
 1171              		.align	1
 1172              		.p2align 4,,15
 1173              		.global	k2000_led
 1174              		.syntax unified
 1175              		.thumb
 1176              		.thumb_func
 1177              		.fpu fpv4-sp-d16
 1178              		.type	k2000_led, %function
 1179              	k2000_led:
 1180              	.LFB274:
 1181              		.loc 1 284 0
 1182              		.cfi_startproc
 1183              		@ args = 0, pretend = 0, frame = 8
 1184              		@ frame_needed = 0, uses_anonymous_args = 0
 1185 0000 00B5     		push	{lr}
 1186              		.cfi_def_cfa_offset 4
 1187              		.cfi_offset 14, -4
 1188 0002 83B0     		sub	sp, sp, #12
 1189              		.cfi_def_cfa_offset 16
 1190              		.loc 1 284 0
 1191 0004 314B     		ldr	r3, .L115
 1192 0006 1B68     		ldr	r3, [r3]
 1193 0008 0193     		str	r3, [sp, #4]
 1194              		.loc 1 287 0
 1195 000a 314B     		ldr	r3, .L115+4
 1196 000c 1B78     		ldrb	r3, [r3]	@ zero_extendqisi2
 1197 000e 002B     		cmp	r3, #0
ARM GAS  C:\Users\PCHAUT~1\AppData\Local\Temp\ccpRzLCP.s 			page 22


 1198 0010 14D1     		bne	.L109
 1199              		.loc 1 287 0 is_stmt 0 discriminator 1
 1200 0012 304B     		ldr	r3, .L115+8
 1201 0014 1B78     		ldrb	r3, [r3]	@ zero_extendqisi2
 1202 0016 002B     		cmp	r3, #0
 1203 0018 10D0     		beq	.L109
 1204              		.loc 1 288 0 is_stmt 1
 1205 001a 2D4B     		ldr	r3, .L115+4
 1206 001c 0122     		movs	r2, #1
 1207 001e 1A70     		strb	r2, [r3]
 1208 0020 0021     		movs	r1, #0
 1209 0022 0020     		movs	r0, #0
 1210 0024 FFF7FEFF 		bl	e_set_led
 1211 0028 294B     		ldr	r3, .L115+4
 1212 002a 1B78     		ldrb	r3, [r3]	@ zero_extendqisi2
 1213 002c 0121     		movs	r1, #1
 1214 002e 1846     		mov	r0, r3
 1215 0030 FFF7FEFF 		bl	e_set_led
 1216 0034 274B     		ldr	r3, .L115+8
 1217 0036 0022     		movs	r2, #0
 1218 0038 1A70     		strb	r2, [r3]
 1219 003a 3CE0     		b	.L110
 1220              	.L109:
 1221              		.loc 1 290 0
 1222 003c 244B     		ldr	r3, .L115+4
 1223 003e 1B78     		ldrb	r3, [r3]	@ zero_extendqisi2
 1224 0040 002B     		cmp	r3, #0
 1225 0042 14D1     		bne	.L111
 1226              		.loc 1 290 0 is_stmt 0 discriminator 1
 1227 0044 234B     		ldr	r3, .L115+8
 1228 0046 1B78     		ldrb	r3, [r3]	@ zero_extendqisi2
 1229 0048 002B     		cmp	r3, #0
 1230 004a 10D1     		bne	.L111
 1231              		.loc 1 291 0 is_stmt 1
 1232 004c 204B     		ldr	r3, .L115+4
 1233 004e 0722     		movs	r2, #7
 1234 0050 1A70     		strb	r2, [r3]
 1235 0052 0021     		movs	r1, #0
 1236 0054 0020     		movs	r0, #0
 1237 0056 FFF7FEFF 		bl	e_set_led
 1238 005a 1D4B     		ldr	r3, .L115+4
 1239 005c 1B78     		ldrb	r3, [r3]	@ zero_extendqisi2
 1240 005e 0121     		movs	r1, #1
 1241 0060 1846     		mov	r0, r3
 1242 0062 FFF7FEFF 		bl	e_set_led
 1243 0066 1B4B     		ldr	r3, .L115+8
 1244 0068 0122     		movs	r2, #1
 1245 006a 1A70     		strb	r2, [r3]
 1246 006c 23E0     		b	.L110
 1247              	.L111:
 1248              		.loc 1 293 0
 1249 006e 184B     		ldr	r3, .L115+4
 1250 0070 1B78     		ldrb	r3, [r3]	@ zero_extendqisi2
 1251 0072 072B     		cmp	r3, #7
 1252 0074 0DD1     		bne	.L112
 1253              		.loc 1 294 0
 1254 0076 164B     		ldr	r3, .L115+4
ARM GAS  C:\Users\PCHAUT~1\AppData\Local\Temp\ccpRzLCP.s 			page 23


 1255 0078 0022     		movs	r2, #0
 1256 007a 1A70     		strb	r2, [r3]
 1257 007c 0021     		movs	r1, #0
 1258 007e 0720     		movs	r0, #7
 1259 0080 FFF7FEFF 		bl	e_set_led
 1260 0084 124B     		ldr	r3, .L115+4
 1261 0086 1B78     		ldrb	r3, [r3]	@ zero_extendqisi2
 1262 0088 0121     		movs	r1, #1
 1263 008a 1846     		mov	r0, r3
 1264 008c FFF7FEFF 		bl	e_set_led
 1265              		.loc 1 299 0
 1266 0090 11E0     		b	.L114
 1267              	.L112:
 1268              		.loc 1 296 0
 1269 0092 0F4B     		ldr	r3, .L115+4
 1270 0094 1B78     		ldrb	r3, [r3]	@ zero_extendqisi2
 1271 0096 012B     		cmp	r3, #1
 1272 0098 0DD1     		bne	.L114
 1273              		.loc 1 297 0
 1274 009a 0D4B     		ldr	r3, .L115+4
 1275 009c 0022     		movs	r2, #0
 1276 009e 1A70     		strb	r2, [r3]
 1277 00a0 0021     		movs	r1, #0
 1278 00a2 0120     		movs	r0, #1
 1279 00a4 FFF7FEFF 		bl	e_set_led
 1280 00a8 094B     		ldr	r3, .L115+4
 1281 00aa 1B78     		ldrb	r3, [r3]	@ zero_extendqisi2
 1282 00ac 0121     		movs	r1, #1
 1283 00ae 1846     		mov	r0, r3
 1284 00b0 FFF7FEFF 		bl	e_set_led
 1285              		.loc 1 299 0
 1286 00b4 FFE7     		b	.L114
 1287              	.L110:
 1288              	.L114:
 1289 00b6 00BF     		nop
 1290 00b8 044B     		ldr	r3, .L115
 1291 00ba 019A     		ldr	r2, [sp, #4]
 1292 00bc 1B68     		ldr	r3, [r3]
 1293 00be 9A42     		cmp	r2, r3
 1294 00c0 01D0     		beq	.L113
 1295 00c2 FFF7FEFF 		bl	__stack_chk_fail
 1296              	.L113:
 1297 00c6 03B0     		add	sp, sp, #12
 1298              		.cfi_def_cfa_offset 4
 1299              		@ sp needed
 1300 00c8 5DF804FB 		ldr	pc, [sp], #4
 1301              	.L116:
 1302              		.align	2
 1303              	.L115:
 1304 00cc 00000000 		.word	__stack_chk_guard
 1305 00d0 00000000 		.word	no_led.9999
 1306 00d4 00000000 		.word	right.10000
 1307              		.cfi_endproc
 1308              	.LFE274:
 1309              		.size	k2000_led, .-k2000_led
 1310              		.section	.text.right_led,"ax",%progbits
 1311              		.align	1
ARM GAS  C:\Users\PCHAUT~1\AppData\Local\Temp\ccpRzLCP.s 			page 24


 1312              		.p2align 4,,15
 1313              		.global	right_led
 1314              		.syntax unified
 1315              		.thumb
 1316              		.thumb_func
 1317              		.fpu fpv4-sp-d16
 1318              		.type	right_led, %function
 1319              	right_led:
 1320              	.LFB275:
 1321              		.loc 1 303 0
 1322              		.cfi_startproc
 1323              		@ args = 0, pretend = 0, frame = 8
 1324              		@ frame_needed = 0, uses_anonymous_args = 0
 1325 0000 00B5     		push	{lr}
 1326              		.cfi_def_cfa_offset 4
 1327              		.cfi_offset 14, -4
 1328 0002 83B0     		sub	sp, sp, #12
 1329              		.cfi_def_cfa_offset 16
 1330              		.loc 1 303 0
 1331 0004 214B     		ldr	r3, .L128
 1332 0006 1B68     		ldr	r3, [r3]
 1333 0008 0193     		str	r3, [sp, #4]
 1334              		.loc 1 305 0
 1335 000a 214B     		ldr	r3, .L128+4
 1336 000c 1B78     		ldrb	r3, [r3]	@ zero_extendqisi2
 1337 000e 032B     		cmp	r3, #3
 1338 0010 23D8     		bhi	.L118
 1339 0012 01A2     		adr	r2, .L120
 1340 0014 52F823F0 		ldr	pc, [r2, r3, lsl #2]
 1341              		.p2align 2
 1342              	.L120:
 1343 0018 29000000 		.word	.L119+1
 1344 001c 3B000000 		.word	.L121+1
 1345 0020 4D000000 		.word	.L122+1
 1346 0024 57000000 		.word	.L123+1
 1347              		.p2align 1
 1348              	.L119:
 1349              		.loc 1 307 0
 1350 0028 0221     		movs	r1, #2
 1351 002a 0020     		movs	r0, #0
 1352 002c FFF7FEFF 		bl	e_set_led
 1353 0030 0221     		movs	r1, #2
 1354 0032 0420     		movs	r0, #4
 1355 0034 FFF7FEFF 		bl	e_set_led
 1356 0038 0FE0     		b	.L118
 1357              	.L121:
 1358              		.loc 1 308 0
 1359 003a 0221     		movs	r1, #2
 1360 003c 0120     		movs	r0, #1
 1361 003e FFF7FEFF 		bl	e_set_led
 1362 0042 0221     		movs	r1, #2
 1363 0044 0320     		movs	r0, #3
 1364 0046 FFF7FEFF 		bl	e_set_led
 1365 004a 06E0     		b	.L118
 1366              	.L122:
 1367              		.loc 1 309 0
 1368 004c 0221     		movs	r1, #2
ARM GAS  C:\Users\PCHAUT~1\AppData\Local\Temp\ccpRzLCP.s 			page 25


 1369 004e 0220     		movs	r0, #2
 1370 0050 FFF7FEFF 		bl	e_set_led
 1371 0054 01E0     		b	.L118
 1372              	.L123:
 1373              		.loc 1 310 0
 1374 0056 FFF7FEFF 		bl	e_led_clear
 1375              	.L118:
 1376              		.loc 1 312 0
 1377 005a 0D4B     		ldr	r3, .L128+4
 1378 005c 1B78     		ldrb	r3, [r3]	@ zero_extendqisi2
 1379 005e 022B     		cmp	r3, #2
 1380 0060 06D8     		bhi	.L124
 1381              		.loc 1 313 0
 1382 0062 0B4B     		ldr	r3, .L128+4
 1383 0064 1B78     		ldrb	r3, [r3]	@ zero_extendqisi2
 1384 0066 0133     		adds	r3, r3, #1
 1385 0068 DAB2     		uxtb	r2, r3
 1386 006a 094B     		ldr	r3, .L128+4
 1387 006c 1A70     		strb	r2, [r3]
 1388              		.loc 1 316 0
 1389 006e 02E0     		b	.L127
 1390              	.L124:
 1391              		.loc 1 315 0
 1392 0070 074B     		ldr	r3, .L128+4
 1393 0072 0022     		movs	r2, #0
 1394 0074 1A70     		strb	r2, [r3]
 1395              	.L127:
 1396              		.loc 1 316 0
 1397 0076 00BF     		nop
 1398 0078 044B     		ldr	r3, .L128
 1399 007a 019A     		ldr	r2, [sp, #4]
 1400 007c 1B68     		ldr	r3, [r3]
 1401 007e 9A42     		cmp	r2, r3
 1402 0080 01D0     		beq	.L126
 1403 0082 FFF7FEFF 		bl	__stack_chk_fail
 1404              	.L126:
 1405 0086 03B0     		add	sp, sp, #12
 1406              		.cfi_def_cfa_offset 4
 1407              		@ sp needed
 1408 0088 5DF804FB 		ldr	pc, [sp], #4
 1409              	.L129:
 1410              		.align	2
 1411              	.L128:
 1412 008c 00000000 		.word	__stack_chk_guard
 1413 0090 00000000 		.word	no_led.10004
 1414              		.cfi_endproc
 1415              	.LFE275:
 1416              		.size	right_led, .-right_led
 1417              		.section	.text.left_led,"ax",%progbits
 1418              		.align	1
 1419              		.p2align 4,,15
 1420              		.global	left_led
 1421              		.syntax unified
 1422              		.thumb
 1423              		.thumb_func
 1424              		.fpu fpv4-sp-d16
 1425              		.type	left_led, %function
ARM GAS  C:\Users\PCHAUT~1\AppData\Local\Temp\ccpRzLCP.s 			page 26


 1426              	left_led:
 1427              	.LFB276:
 1428              		.loc 1 320 0
 1429              		.cfi_startproc
 1430              		@ args = 0, pretend = 0, frame = 8
 1431              		@ frame_needed = 0, uses_anonymous_args = 0
 1432 0000 00B5     		push	{lr}
 1433              		.cfi_def_cfa_offset 4
 1434              		.cfi_offset 14, -4
 1435 0002 83B0     		sub	sp, sp, #12
 1436              		.cfi_def_cfa_offset 16
 1437              		.loc 1 320 0
 1438 0004 214B     		ldr	r3, .L141
 1439 0006 1B68     		ldr	r3, [r3]
 1440 0008 0193     		str	r3, [sp, #4]
 1441              		.loc 1 322 0
 1442 000a 214B     		ldr	r3, .L141+4
 1443 000c 1B78     		ldrb	r3, [r3]	@ zero_extendqisi2
 1444 000e 032B     		cmp	r3, #3
 1445 0010 23D8     		bhi	.L131
 1446 0012 01A2     		adr	r2, .L133
 1447 0014 52F823F0 		ldr	pc, [r2, r3, lsl #2]
 1448              		.p2align 2
 1449              	.L133:
 1450 0018 29000000 		.word	.L132+1
 1451 001c 3B000000 		.word	.L134+1
 1452 0020 4D000000 		.word	.L135+1
 1453 0024 57000000 		.word	.L136+1
 1454              		.p2align 1
 1455              	.L132:
 1456              		.loc 1 324 0
 1457 0028 0221     		movs	r1, #2
 1458 002a 0020     		movs	r0, #0
 1459 002c FFF7FEFF 		bl	e_set_led
 1460 0030 0221     		movs	r1, #2
 1461 0032 0420     		movs	r0, #4
 1462 0034 FFF7FEFF 		bl	e_set_led
 1463 0038 0FE0     		b	.L131
 1464              	.L134:
 1465              		.loc 1 325 0
 1466 003a 0221     		movs	r1, #2
 1467 003c 0720     		movs	r0, #7
 1468 003e FFF7FEFF 		bl	e_set_led
 1469 0042 0221     		movs	r1, #2
 1470 0044 0520     		movs	r0, #5
 1471 0046 FFF7FEFF 		bl	e_set_led
 1472 004a 06E0     		b	.L131
 1473              	.L135:
 1474              		.loc 1 326 0
 1475 004c 0221     		movs	r1, #2
 1476 004e 0620     		movs	r0, #6
 1477 0050 FFF7FEFF 		bl	e_set_led
 1478 0054 01E0     		b	.L131
 1479              	.L136:
 1480              		.loc 1 327 0
 1481 0056 FFF7FEFF 		bl	e_led_clear
 1482              	.L131:
ARM GAS  C:\Users\PCHAUT~1\AppData\Local\Temp\ccpRzLCP.s 			page 27


 1483              		.loc 1 329 0
 1484 005a 0D4B     		ldr	r3, .L141+4
 1485 005c 1B78     		ldrb	r3, [r3]	@ zero_extendqisi2
 1486 005e 022B     		cmp	r3, #2
 1487 0060 06D8     		bhi	.L137
 1488              		.loc 1 330 0
 1489 0062 0B4B     		ldr	r3, .L141+4
 1490 0064 1B78     		ldrb	r3, [r3]	@ zero_extendqisi2
 1491 0066 0133     		adds	r3, r3, #1
 1492 0068 DAB2     		uxtb	r2, r3
 1493 006a 094B     		ldr	r3, .L141+4
 1494 006c 1A70     		strb	r2, [r3]
 1495              		.loc 1 333 0
 1496 006e 02E0     		b	.L140
 1497              	.L137:
 1498              		.loc 1 332 0
 1499 0070 074B     		ldr	r3, .L141+4
 1500 0072 0022     		movs	r2, #0
 1501 0074 1A70     		strb	r2, [r3]
 1502              	.L140:
 1503              		.loc 1 333 0
 1504 0076 00BF     		nop
 1505 0078 044B     		ldr	r3, .L141
 1506 007a 019A     		ldr	r2, [sp, #4]
 1507 007c 1B68     		ldr	r3, [r3]
 1508 007e 9A42     		cmp	r2, r3
 1509 0080 01D0     		beq	.L139
 1510 0082 FFF7FEFF 		bl	__stack_chk_fail
 1511              	.L139:
 1512 0086 03B0     		add	sp, sp, #12
 1513              		.cfi_def_cfa_offset 4
 1514              		@ sp needed
 1515 0088 5DF804FB 		ldr	pc, [sp], #4
 1516              	.L142:
 1517              		.align	2
 1518              	.L141:
 1519 008c 00000000 		.word	__stack_chk_guard
 1520 0090 00000000 		.word	no_led.10013
 1521              		.cfi_endproc
 1522              	.LFE276:
 1523              		.size	left_led, .-left_led
 1524              		.section	.bss.no_led.9985,"aw",%nobits
 1525              		.type	no_led.9985, %object
 1526              		.size	no_led.9985, 1
 1527              	no_led.9985:
 1528 0000 00       		.space	1
 1529              		.section	.bss.no_led.9989,"aw",%nobits
 1530              		.type	no_led.9989, %object
 1531              		.size	no_led.9989, 1
 1532              	no_led.9989:
 1533 0000 00       		.space	1
 1534              		.section	.bss.no_led.9999,"aw",%nobits
 1535              		.type	no_led.9999, %object
 1536              		.size	no_led.9999, 1
 1537              	no_led.9999:
 1538 0000 00       		.space	1
 1539              		.section	.data.right.10000,"aw",%progbits
ARM GAS  C:\Users\PCHAUT~1\AppData\Local\Temp\ccpRzLCP.s 			page 28


 1540              		.type	right.10000, %object
 1541              		.size	right.10000, 1
 1542              	right.10000:
 1543 0000 01       		.byte	1
 1544              		.section	.bss.no_led.10004,"aw",%nobits
 1545              		.type	no_led.10004, %object
 1546              		.size	no_led.10004, 1
 1547              	no_led.10004:
 1548 0000 00       		.space	1
 1549              		.section	.bss.no_led.10013,"aw",%nobits
 1550              		.type	no_led.10013, %object
 1551              		.size	no_led.10013, 1
 1552              	no_led.10013:
 1553 0000 00       		.space	1
 1554              		.text
 1555              	.Letext0:
 1556              		.file 2 "c:\\users\\pchautems\\documents\\robotiquetp\\eclipse_e-puck2\\tools\\gcc-arm-none-eabi-7
 1557              		.file 3 "c:\\users\\pchautems\\documents\\robotiquetp\\eclipse_e-puck2\\tools\\gcc-arm-none-eabi-7
 1558              		.file 4 "c:\\users\\pchautems\\documents\\robotiquetp\\eclipse_e-puck2\\tools\\gcc-arm-none-eabi-7
 1559              		.file 5 "../lib/e-puck2_main-processor/ChibiOS//os/rt/ports/ARMCMx/compilers/GCC/chtypes.h"
 1560              		.file 6 "../lib/e-puck2_main-processor/ChibiOS//os/rt/include/chsystypes.h"
 1561              		.file 7 "../lib/e-puck2_main-processor/ChibiOS//os/rt/include/chschd.h"
 1562              		.file 8 "../lib/e-puck2_main-processor/ChibiOS//os/ext/CMSIS/include/core_cm4.h"
 1563              		.file 9 "../lib/e-puck2_main-processor/ChibiOS//os/ext/CMSIS/ST/system_stm32f4xx.h"
 1564              		.file 10 "../lib/e-puck2_main-processor/ChibiOS//os/ext/CMSIS/ST/stm32f407xx.h"
 1565              		.file 11 "../lib/e-puck2_main-processor/ChibiOS//os/rt/ports/ARMCMx/chcore.h"
 1566              		.file 12 "../lib/e-puck2_main-processor/ChibiOS//os/rt/ports/ARMCMx/chcore_v7m.h"
 1567              		.file 13 "../lib/e-puck2_main-processor/ChibiOS//os/rt/include/chdebug.h"
 1568              		.file 14 "../lib/e-puck2_main-processor/ChibiOS//os/rt/include/chtm.h"
 1569              		.file 15 "../lib/e-puck2_main-processor/ChibiOS//os/rt/include/chstats.h"
 1570              		.file 16 "../lib/e-puck2_main-processor/ChibiOS//os/rt/include/chsem.h"
 1571              		.file 17 "../lib/e-puck2_main-processor/ChibiOS//os/rt/include/chmtx.h"
 1572              		.file 18 "../lib/e-puck2_main-processor/ChibiOS//os/rt/include/chregistry.h"
 1573              		.file 19 "../lib/e-puck2_main-processor/ChibiOS//os/rt/include/chevents.h"
 1574              		.file 20 "../lib/e-puck2_main-processor/ChibiOS//os/rt/include/chqueues.h"
 1575              		.file 21 "../lib/e-puck2_main-processor/ChibiOS//os/hal/ports/STM32/STM32F4xx/stm32_dma.h"
 1576              		.file 22 "../lib/e-puck2_main-processor/ChibiOS//os/hal/include/hal_ioblock.h"
 1577              		.file 23 "../lib/e-puck2_main-processor/ChibiOS//os/hal/ports/STM32/LLD/GPIOv2/pal_lld.h"
 1578              		.file 24 "../lib/e-puck2_main-processor/ChibiOS//os/hal/include/adc.h"
 1579              		.file 25 "../lib/e-puck2_main-processor/ChibiOS//os/hal/ports/STM32/STM32F4xx/adc_lld.h"
 1580              		.file 26 "../lib/e-puck2_main-processor/ChibiOS//os/hal/include/can.h"
 1581              		.file 27 "../lib/e-puck2_main-processor/ChibiOS//os/hal/ports/STM32/LLD/can_lld.h"
 1582              		.file 28 "../lib/e-puck2_main-processor/ChibiOS//os/hal/include/dac.h"
 1583              		.file 29 "../lib/e-puck2_main-processor/ChibiOS//os/hal/ports/STM32/LLD/DACv1/dac_lld.h"
 1584              		.file 30 "../lib/e-puck2_main-processor/ChibiOS//os/hal/include/ext.h"
 1585              		.file 31 "../lib/e-puck2_main-processor/ChibiOS//os/hal/ports/STM32/LLD/ext_lld.h"
 1586              		.file 32 "../lib/e-puck2_main-processor/ChibiOS//os/hal/include/gpt.h"
 1587              		.file 33 "../lib/e-puck2_main-processor/ChibiOS//os/hal/ports/STM32/LLD/TIMv1/gpt_lld.h"
 1588              		.file 34 "../lib/e-puck2_main-processor/ChibiOS//os/hal/ports/STM32/LLD/TIMv1/stm32_tim.h"
 1589              		.file 35 "../lib/e-puck2_main-processor/ChibiOS//os/hal/include/i2c.h"
 1590              		.file 36 "../lib/e-puck2_main-processor/ChibiOS//os/hal/ports/STM32/LLD/I2Cv1/i2c_lld.h"
 1591              		.file 37 "../lib/e-puck2_main-processor/ChibiOS//os/hal/include/i2s.h"
 1592              		.file 38 "../lib/e-puck2_main-processor/ChibiOS//os/hal/ports/STM32/LLD/SPIv1/i2s_lld.h"
 1593              		.file 39 "../lib/e-puck2_main-processor/ChibiOS//os/hal/include/pwm.h"
 1594              		.file 40 "../lib/e-puck2_main-processor/ChibiOS//os/hal/ports/STM32/LLD/TIMv1/pwm_lld.h"
 1595              		.file 41 "../lib/e-puck2_main-processor/ChibiOS//os/hal/include/serial.h"
 1596              		.file 42 "../lib/e-puck2_main-processor/ChibiOS//os/hal/ports/STM32/LLD/USARTv1/serial_lld.h"
ARM GAS  C:\Users\PCHAUT~1\AppData\Local\Temp\ccpRzLCP.s 			page 29


 1597              		.file 43 "../lib/e-puck2_main-processor/ChibiOS//os/hal/include/sdc.h"
 1598              		.file 44 "../lib/e-puck2_main-processor/ChibiOS//os/hal/ports/STM32/LLD/sdc_lld.h"
 1599              		.file 45 "../lib/e-puck2_main-processor/ChibiOS//os/hal/include/spi.h"
 1600              		.file 46 "../lib/e-puck2_main-processor/ChibiOS//os/hal/ports/STM32/LLD/SPIv1/spi_lld.h"
 1601              		.file 47 "../lib/e-puck2_main-processor/ChibiOS//os/hal/include/usb.h"
 1602              		.file 48 "../lib/e-puck2_main-processor/ChibiOS//os/hal/ports/STM32/LLD/OTGv1/usb_lld.h"
 1603              		.file 49 "../lib/e-puck2_main-processor/ChibiOS//os/hal/ports/STM32/LLD/OTGv1/stm32_otg.h"
 1604              		.file 50 "../lib/e-puck2_main-processor/src/epuck1x/../leds.h"