ARM GAS  C:\Users\PCHAUT~1\AppData\Local\Temp\ccMB2NKG.s 			page 1


   1              		.cpu cortex-m4
   2              		.eabi_attribute 27, 1
   3              		.eabi_attribute 28, 1
   4              		.eabi_attribute 20, 1
   5              		.eabi_attribute 21, 1
   6              		.eabi_attribute 23, 3
   7              		.eabi_attribute 24, 1
   8              		.eabi_attribute 25, 1
   9              		.eabi_attribute 26, 1
  10              		.eabi_attribute 30, 6
  11              		.eabi_attribute 34, 1
  12              		.eabi_attribute 18, 4
  13              		.file	"e_prox.c"
  14              		.text
  15              	.Ltext0:
  16              		.cfi_sections	.debug_frame
  17              		.section	.text.e_calibrate_ir,"ax",%progbits
  18              		.align	1
  19              		.p2align 4,,15
  20              		.global	e_calibrate_ir
  21              		.syntax unified
  22              		.thumb
  23              		.thumb_func
  24              		.fpu fpv4-sp-d16
  25              		.type	e_calibrate_ir, %function
  26              	e_calibrate_ir:
  27              	.LFB0:
  28              		.file 1 "../lib/e-puck2_main-processor/src/epuck1x/a_d/advance_ad_scan/e_prox.c"
  29              		.loc 1 5 0
  30              		.cfi_startproc
  31              		@ args = 0, pretend = 0, frame = 8
  32              		@ frame_needed = 0, uses_anonymous_args = 0
  33 0000 00B5     		push	{lr}
  34              		.cfi_def_cfa_offset 4
  35              		.cfi_offset 14, -4
  36 0002 83B0     		sub	sp, sp, #12
  37              		.cfi_def_cfa_offset 16
  38              		.loc 1 5 0
  39 0004 074B     		ldr	r3, .L3
  40 0006 1B68     		ldr	r3, [r3]
  41 0008 0193     		str	r3, [sp, #4]
  42              		.loc 1 6 0
  43 000a FFF7FEFF 		bl	calibrate_ir
  44              		.loc 1 7 0
  45 000e 00BF     		nop
  46 0010 044B     		ldr	r3, .L3
  47 0012 019A     		ldr	r2, [sp, #4]
  48 0014 1B68     		ldr	r3, [r3]
  49 0016 9A42     		cmp	r2, r3
  50 0018 01D0     		beq	.L2
  51 001a FFF7FEFF 		bl	__stack_chk_fail
  52              	.L2:
  53 001e 03B0     		add	sp, sp, #12
  54              		.cfi_def_cfa_offset 4
  55              		@ sp needed
  56 0020 5DF804FB 		ldr	pc, [sp], #4
  57              	.L4:
ARM GAS  C:\Users\PCHAUT~1\AppData\Local\Temp\ccMB2NKG.s 			page 2


  58              		.align	2
  59              	.L3:
  60 0024 00000000 		.word	__stack_chk_guard
  61              		.cfi_endproc
  62              	.LFE0:
  63              		.size	e_calibrate_ir, .-e_calibrate_ir
  64              		.section	.text.e_get_prox,"ax",%progbits
  65              		.align	1
  66              		.p2align 4,,15
  67              		.global	e_get_prox
  68              		.syntax unified
  69              		.thumb
  70              		.thumb_func
  71              		.fpu fpv4-sp-d16
  72              		.type	e_get_prox, %function
  73              	e_get_prox:
  74              	.LFB1:
  75              		.loc 1 10 0
  76              		.cfi_startproc
  77              		@ args = 0, pretend = 0, frame = 16
  78              		@ frame_needed = 0, uses_anonymous_args = 0
  79 0000 00B5     		push	{lr}
  80              		.cfi_def_cfa_offset 4
  81              		.cfi_offset 14, -4
  82 0002 85B0     		sub	sp, sp, #20
  83              		.cfi_def_cfa_offset 24
  84 0004 0190     		str	r0, [sp, #4]
  85              		.loc 1 10 0
  86 0006 0B4B     		ldr	r3, .L9
  87 0008 1B68     		ldr	r3, [r3]
  88 000a 0393     		str	r3, [sp, #12]
  89              		.loc 1 11 0
  90 000c 019B     		ldr	r3, [sp, #4]
  91 000e 072B     		cmp	r3, #7
  92 0010 01D9     		bls	.L6
  93              		.loc 1 12 0
  94 0012 0023     		movs	r3, #0
  95 0014 03E0     		b	.L7
  96              	.L6:
  97              		.loc 1 14 0
  98 0016 0198     		ldr	r0, [sp, #4]
  99 0018 FFF7FEFF 		bl	get_prox
 100 001c 0346     		mov	r3, r0
 101              	.L7:
 102              		.loc 1 16 0
 103 001e 1846     		mov	r0, r3
 104 0020 044B     		ldr	r3, .L9
 105 0022 039A     		ldr	r2, [sp, #12]
 106 0024 1B68     		ldr	r3, [r3]
 107 0026 9A42     		cmp	r2, r3
 108 0028 01D0     		beq	.L8
 109 002a FFF7FEFF 		bl	__stack_chk_fail
 110              	.L8:
 111 002e 05B0     		add	sp, sp, #20
 112              		.cfi_def_cfa_offset 4
 113              		@ sp needed
 114 0030 5DF804FB 		ldr	pc, [sp], #4
ARM GAS  C:\Users\PCHAUT~1\AppData\Local\Temp\ccMB2NKG.s 			page 3


 115              	.L10:
 116              		.align	2
 117              	.L9:
 118 0034 00000000 		.word	__stack_chk_guard
 119              		.cfi_endproc
 120              	.LFE1:
 121              		.size	e_get_prox, .-e_get_prox
 122              		.section	.text.e_get_calibrated_prox,"ax",%progbits
 123              		.align	1
 124              		.p2align 4,,15
 125              		.global	e_get_calibrated_prox
 126              		.syntax unified
 127              		.thumb
 128              		.thumb_func
 129              		.fpu fpv4-sp-d16
 130              		.type	e_get_calibrated_prox, %function
 131              	e_get_calibrated_prox:
 132              	.LFB2:
 133              		.loc 1 19 0
 134              		.cfi_startproc
 135              		@ args = 0, pretend = 0, frame = 16
 136              		@ frame_needed = 0, uses_anonymous_args = 0
 137 0000 00B5     		push	{lr}
 138              		.cfi_def_cfa_offset 4
 139              		.cfi_offset 14, -4
 140 0002 85B0     		sub	sp, sp, #20
 141              		.cfi_def_cfa_offset 24
 142 0004 0190     		str	r0, [sp, #4]
 143              		.loc 1 19 0
 144 0006 0B4B     		ldr	r3, .L15
 145 0008 1B68     		ldr	r3, [r3]
 146 000a 0393     		str	r3, [sp, #12]
 147              		.loc 1 20 0
 148 000c 019B     		ldr	r3, [sp, #4]
 149 000e 072B     		cmp	r3, #7
 150 0010 01D9     		bls	.L12
 151              		.loc 1 21 0
 152 0012 0023     		movs	r3, #0
 153 0014 03E0     		b	.L13
 154              	.L12:
 155              		.loc 1 23 0
 156 0016 0198     		ldr	r0, [sp, #4]
 157 0018 FFF7FEFF 		bl	get_calibrated_prox
 158 001c 0346     		mov	r3, r0
 159              	.L13:
 160              		.loc 1 25 0
 161 001e 1846     		mov	r0, r3
 162 0020 044B     		ldr	r3, .L15
 163 0022 039A     		ldr	r2, [sp, #12]
 164 0024 1B68     		ldr	r3, [r3]
 165 0026 9A42     		cmp	r2, r3
 166 0028 01D0     		beq	.L14
 167 002a FFF7FEFF 		bl	__stack_chk_fail
 168              	.L14:
 169 002e 05B0     		add	sp, sp, #20
 170              		.cfi_def_cfa_offset 4
 171              		@ sp needed
ARM GAS  C:\Users\PCHAUT~1\AppData\Local\Temp\ccMB2NKG.s 			page 4


 172 0030 5DF804FB 		ldr	pc, [sp], #4
 173              	.L16:
 174              		.align	2
 175              	.L15:
 176 0034 00000000 		.word	__stack_chk_guard
 177              		.cfi_endproc
 178              	.LFE2:
 179              		.size	e_get_calibrated_prox, .-e_get_calibrated_prox
 180              		.section	.text.e_get_ambient_light,"ax",%progbits
 181              		.align	1
 182              		.p2align 4,,15
 183              		.global	e_get_ambient_light
 184              		.syntax unified
 185              		.thumb
 186              		.thumb_func
 187              		.fpu fpv4-sp-d16
 188              		.type	e_get_ambient_light, %function
 189              	e_get_ambient_light:
 190              	.LFB3:
 191              		.loc 1 28 0
 192              		.cfi_startproc
 193              		@ args = 0, pretend = 0, frame = 16
 194              		@ frame_needed = 0, uses_anonymous_args = 0
 195 0000 00B5     		push	{lr}
 196              		.cfi_def_cfa_offset 4
 197              		.cfi_offset 14, -4
 198 0002 85B0     		sub	sp, sp, #20
 199              		.cfi_def_cfa_offset 24
 200 0004 0190     		str	r0, [sp, #4]
 201              		.loc 1 28 0
 202 0006 0B4B     		ldr	r3, .L21
 203 0008 1B68     		ldr	r3, [r3]
 204 000a 0393     		str	r3, [sp, #12]
 205              		.loc 1 29 0
 206 000c 019B     		ldr	r3, [sp, #4]
 207 000e 072B     		cmp	r3, #7
 208 0010 01D9     		bls	.L18
 209              		.loc 1 30 0
 210 0012 0023     		movs	r3, #0
 211 0014 03E0     		b	.L19
 212              	.L18:
 213              		.loc 1 32 0
 214 0016 0198     		ldr	r0, [sp, #4]
 215 0018 FFF7FEFF 		bl	get_ambient_light
 216 001c 0346     		mov	r3, r0
 217              	.L19:
 218              		.loc 1 34 0
 219 001e 1846     		mov	r0, r3
 220 0020 044B     		ldr	r3, .L21
 221 0022 039A     		ldr	r2, [sp, #12]
 222 0024 1B68     		ldr	r3, [r3]
 223 0026 9A42     		cmp	r2, r3
 224 0028 01D0     		beq	.L20
 225 002a FFF7FEFF 		bl	__stack_chk_fail
 226              	.L20:
 227 002e 05B0     		add	sp, sp, #20
 228              		.cfi_def_cfa_offset 4
ARM GAS  C:\Users\PCHAUT~1\AppData\Local\Temp\ccMB2NKG.s 			page 5


 229              		@ sp needed
 230 0030 5DF804FB 		ldr	pc, [sp], #4
 231              	.L22:
 232              		.align	2
 233              	.L21:
 234 0034 00000000 		.word	__stack_chk_guard
 235              		.cfi_endproc
 236              	.LFE3:
 237              		.size	e_get_ambient_light, .-e_get_ambient_light
 238              		.text
 239              	.Letext0: