ARM GAS  C:\Users\PCHAUT~1\AppData\Local\Temp\cc8v9dRJ.s 			page 1


   1              		.cpu cortex-m4
   2              		.eabi_attribute 27, 1
   3              		.eabi_attribute 28, 1
   4              		.eabi_attribute 20, 1
   5              		.eabi_attribute 21, 1
   6              		.eabi_attribute 23, 3
   7              		.eabi_attribute 24, 1
   8              		.eabi_attribute 25, 1
   9              		.eabi_attribute 26, 1
  10              		.eabi_attribute 30, 6
  11              		.eabi_attribute 34, 1
  12              		.eabi_attribute 18, 4
  13              		.file	"e_uart_char.c"
  14              		.text
  15              	.Ltext0:
  16              		.cfi_sections	.debug_frame
  17              		.section	.text.e_init_uart1,"ax",%progbits
  18              		.align	1
  19              		.p2align 4,,15
  20              		.global	e_init_uart1
  21              		.syntax unified
  22              		.thumb
  23              		.thumb_func
  24              		.fpu fpv4-sp-d16
  25              		.type	e_init_uart1, %function
  26              	e_init_uart1:
  27              	.LFB256:
  28              		.file 1 "../lib/e-puck2_main-processor/src/epuck1x/uart/e_uart_char.c"
  29              		.loc 1 5 0
  30              		.cfi_startproc
  31              		@ args = 0, pretend = 0, frame = 8
  32              		@ frame_needed = 0, uses_anonymous_args = 0
  33 0000 00B5     		push	{lr}
  34              		.cfi_def_cfa_offset 4
  35              		.cfi_offset 14, -4
  36 0002 83B0     		sub	sp, sp, #12
  37              		.cfi_def_cfa_offset 16
  38              		.loc 1 5 0
  39 0004 064B     		ldr	r3, .L4
  40 0006 1B68     		ldr	r3, [r3]
  41 0008 0193     		str	r3, [sp, #4]
  42              		.loc 1 6 0
  43 000a 00BF     		nop
  44              		.loc 1 7 0
  45 000c 044B     		ldr	r3, .L4
  46 000e 019A     		ldr	r2, [sp, #4]
  47 0010 1B68     		ldr	r3, [r3]
  48 0012 9A42     		cmp	r2, r3
  49 0014 01D0     		beq	.L3
  50 0016 FFF7FEFF 		bl	__stack_chk_fail
  51              	.L3:
  52 001a 03B0     		add	sp, sp, #12
  53              		.cfi_def_cfa_offset 4
  54              		@ sp needed
  55 001c 5DF804FB 		ldr	pc, [sp], #4
  56              	.L5:
  57              		.align	2
ARM GAS  C:\Users\PCHAUT~1\AppData\Local\Temp\cc8v9dRJ.s 			page 2


  58              	.L4:
  59 0020 00000000 		.word	__stack_chk_guard
  60              		.cfi_endproc
  61              	.LFE256:
  62              		.size	e_init_uart1, .-e_init_uart1
  63              		.section	.text.e_ischar_uart1,"ax",%progbits
  64              		.align	1
  65              		.p2align 4,,15
  66              		.global	e_ischar_uart1
  67              		.syntax unified
  68              		.thumb
  69              		.thumb_func
  70              		.fpu fpv4-sp-d16
  71              		.type	e_ischar_uart1, %function
  72              	e_ischar_uart1:
  73              	.LFB257:
  74              		.loc 1 11 0
  75              		.cfi_startproc
  76              		@ args = 0, pretend = 0, frame = 8
  77              		@ frame_needed = 0, uses_anonymous_args = 0
  78 0000 00B5     		push	{lr}
  79              		.cfi_def_cfa_offset 4
  80              		.cfi_offset 14, -4
  81 0002 83B0     		sub	sp, sp, #12
  82              		.cfi_def_cfa_offset 16
  83              		.loc 1 11 0
  84 0004 074B     		ldr	r3, .L9
  85 0006 1B68     		ldr	r3, [r3]
  86 0008 0193     		str	r3, [sp, #4]
  87              		.loc 1 13 0
  88 000a 0023     		movs	r3, #0
  89              		.loc 1 14 0
  90 000c 1846     		mov	r0, r3
  91 000e 054B     		ldr	r3, .L9
  92 0010 019A     		ldr	r2, [sp, #4]
  93 0012 1B68     		ldr	r3, [r3]
  94 0014 9A42     		cmp	r2, r3
  95 0016 01D0     		beq	.L8
  96 0018 FFF7FEFF 		bl	__stack_chk_fail
  97              	.L8:
  98 001c 03B0     		add	sp, sp, #12
  99              		.cfi_def_cfa_offset 4
 100              		@ sp needed
 101 001e 5DF804FB 		ldr	pc, [sp], #4
 102              	.L10:
 103 0022 00BF     		.align	2
 104              	.L9:
 105 0024 00000000 		.word	__stack_chk_guard
 106              		.cfi_endproc
 107              	.LFE257:
 108              		.size	e_ischar_uart1, .-e_ischar_uart1
 109              		.section	.text.e_getchar_uart1,"ax",%progbits
 110              		.align	1
 111              		.p2align 4,,15
 112              		.global	e_getchar_uart1
 113              		.syntax unified
 114              		.thumb
ARM GAS  C:\Users\PCHAUT~1\AppData\Local\Temp\cc8v9dRJ.s 			page 3


 115              		.thumb_func
 116              		.fpu fpv4-sp-d16
 117              		.type	e_getchar_uart1, %function
 118              	e_getchar_uart1:
 119              	.LFB258:
 120              		.loc 1 16 0
 121              		.cfi_startproc
 122              		@ args = 0, pretend = 0, frame = 16
 123              		@ frame_needed = 0, uses_anonymous_args = 0
 124 0000 00B5     		push	{lr}
 125              		.cfi_def_cfa_offset 4
 126              		.cfi_offset 14, -4
 127 0002 85B0     		sub	sp, sp, #20
 128              		.cfi_def_cfa_offset 24
 129 0004 0190     		str	r0, [sp, #4]
 130              		.loc 1 16 0
 131 0006 0B4B     		ldr	r3, .L14
 132 0008 1B68     		ldr	r3, [r3]
 133 000a 0393     		str	r3, [sp, #12]
 134              		.loc 1 17 0
 135 000c 0A4B     		ldr	r3, .L14+4
 136 000e 1B68     		ldr	r3, [r3]
 137 0010 5B68     		ldr	r3, [r3, #4]
 138 0012 0122     		movs	r2, #1
 139 0014 0199     		ldr	r1, [sp, #4]
 140 0016 0848     		ldr	r0, .L14+4
 141 0018 9847     		blx	r3
 142              	.LVL0:
 143 001a 0346     		mov	r3, r0
 144              		.loc 1 27 0
 145 001c 1846     		mov	r0, r3
 146 001e 054B     		ldr	r3, .L14
 147 0020 039A     		ldr	r2, [sp, #12]
 148 0022 1B68     		ldr	r3, [r3]
 149 0024 9A42     		cmp	r2, r3
 150 0026 01D0     		beq	.L13
 151 0028 FFF7FEFF 		bl	__stack_chk_fail
 152              	.L13:
 153 002c 05B0     		add	sp, sp, #20
 154              		.cfi_def_cfa_offset 4
 155              		@ sp needed
 156 002e 5DF804FB 		ldr	pc, [sp], #4
 157              	.L15:
 158 0032 00BF     		.align	2
 159              	.L14:
 160 0034 00000000 		.word	__stack_chk_guard
 161 0038 00000000 		.word	SD3
 162              		.cfi_endproc
 163              	.LFE258:
 164              		.size	e_getchar_uart1, .-e_getchar_uart1
 165              		.section	.text.e_send_uart1_char,"ax",%progbits
 166              		.align	1
 167              		.p2align 4,,15
 168              		.global	e_send_uart1_char
 169              		.syntax unified
 170              		.thumb
 171              		.thumb_func
ARM GAS  C:\Users\PCHAUT~1\AppData\Local\Temp\cc8v9dRJ.s 			page 4


 172              		.fpu fpv4-sp-d16
 173              		.type	e_send_uart1_char, %function
 174              	e_send_uart1_char:
 175              	.LFB259:
 176              		.loc 1 29 0
 177              		.cfi_startproc
 178              		@ args = 0, pretend = 0, frame = 16
 179              		@ frame_needed = 0, uses_anonymous_args = 0
 180 0000 00B5     		push	{lr}
 181              		.cfi_def_cfa_offset 4
 182              		.cfi_offset 14, -4
 183 0002 85B0     		sub	sp, sp, #20
 184              		.cfi_def_cfa_offset 24
 185 0004 0190     		str	r0, [sp, #4]
 186 0006 0091     		str	r1, [sp]
 187              		.loc 1 29 0
 188 0008 0A4B     		ldr	r3, .L18
 189 000a 1B68     		ldr	r3, [r3]
 190 000c 0393     		str	r3, [sp, #12]
 191              		.loc 1 30 0
 192 000e 0A4B     		ldr	r3, .L18+4
 193 0010 1B68     		ldr	r3, [r3]
 194 0012 1B68     		ldr	r3, [r3]
 195 0014 009A     		ldr	r2, [sp]
 196 0016 0199     		ldr	r1, [sp, #4]
 197 0018 0748     		ldr	r0, .L18+4
 198 001a 9847     		blx	r3
 199              	.LVL1:
 200              		.loc 1 36 0
 201 001c 00BF     		nop
 202 001e 054B     		ldr	r3, .L18
 203 0020 039A     		ldr	r2, [sp, #12]
 204 0022 1B68     		ldr	r3, [r3]
 205 0024 9A42     		cmp	r2, r3
 206 0026 01D0     		beq	.L17
 207 0028 FFF7FEFF 		bl	__stack_chk_fail
 208              	.L17:
 209 002c 05B0     		add	sp, sp, #20
 210              		.cfi_def_cfa_offset 4
 211              		@ sp needed
 212 002e 5DF804FB 		ldr	pc, [sp], #4
 213              	.L19:
 214 0032 00BF     		.align	2
 215              	.L18:
 216 0034 00000000 		.word	__stack_chk_guard
 217 0038 00000000 		.word	SD3
 218              		.cfi_endproc
 219              	.LFE259:
 220              		.size	e_send_uart1_char, .-e_send_uart1_char
 221              		.section	.text.e_uart1_sending,"ax",%progbits
 222              		.align	1
 223              		.p2align 4,,15
 224              		.global	e_uart1_sending
 225              		.syntax unified
 226              		.thumb
 227              		.thumb_func
 228              		.fpu fpv4-sp-d16
ARM GAS  C:\Users\PCHAUT~1\AppData\Local\Temp\cc8v9dRJ.s 			page 5


 229              		.type	e_uart1_sending, %function
 230              	e_uart1_sending:
 231              	.LFB260:
 232              		.loc 1 41 0
 233              		.cfi_startproc
 234              		@ args = 0, pretend = 0, frame = 8
 235              		@ frame_needed = 0, uses_anonymous_args = 0
 236 0000 00B5     		push	{lr}
 237              		.cfi_def_cfa_offset 4
 238              		.cfi_offset 14, -4
 239 0002 83B0     		sub	sp, sp, #12
 240              		.cfi_def_cfa_offset 16
 241              		.loc 1 41 0
 242 0004 074B     		ldr	r3, .L23
 243 0006 1B68     		ldr	r3, [r3]
 244 0008 0193     		str	r3, [sp, #4]
 245              		.loc 1 43 0
 246 000a 0023     		movs	r3, #0
 247              		.loc 1 44 0
 248 000c 1846     		mov	r0, r3
 249 000e 054B     		ldr	r3, .L23
 250 0010 019A     		ldr	r2, [sp, #4]
 251 0012 1B68     		ldr	r3, [r3]
 252 0014 9A42     		cmp	r2, r3
 253 0016 01D0     		beq	.L22
 254 0018 FFF7FEFF 		bl	__stack_chk_fail
 255              	.L22:
 256 001c 03B0     		add	sp, sp, #12
 257              		.cfi_def_cfa_offset 4
 258              		@ sp needed
 259 001e 5DF804FB 		ldr	pc, [sp], #4
 260              	.L24:
 261 0022 00BF     		.align	2
 262              	.L23:
 263 0024 00000000 		.word	__stack_chk_guard
 264              		.cfi_endproc
 265              	.LFE260:
 266              		.size	e_uart1_sending, .-e_uart1_sending
 267              		.section	.text.e_init_uart2,"ax",%progbits
 268              		.align	1
 269              		.p2align 4,,15
 270              		.global	e_init_uart2
 271              		.syntax unified
 272              		.thumb
 273              		.thumb_func
 274              		.fpu fpv4-sp-d16
 275              		.type	e_init_uart2, %function
 276              	e_init_uart2:
 277              	.LFB261:
 278              		.loc 1 46 0
 279              		.cfi_startproc
 280              		@ args = 0, pretend = 0, frame = 16
 281              		@ frame_needed = 0, uses_anonymous_args = 0
 282 0000 00B5     		push	{lr}
 283              		.cfi_def_cfa_offset 4
 284              		.cfi_offset 14, -4
 285 0002 85B0     		sub	sp, sp, #20
ARM GAS  C:\Users\PCHAUT~1\AppData\Local\Temp\cc8v9dRJ.s 			page 6


 286              		.cfi_def_cfa_offset 24
 287 0004 0190     		str	r0, [sp, #4]
 288              		.loc 1 46 0
 289 0006 074B     		ldr	r3, .L28
 290 0008 1B68     		ldr	r3, [r3]
 291 000a 0393     		str	r3, [sp, #12]
 292              		.loc 1 48 0
 293 000c 00BF     		nop
 294              		.loc 1 49 0
 295 000e 054B     		ldr	r3, .L28
 296 0010 039A     		ldr	r2, [sp, #12]
 297 0012 1B68     		ldr	r3, [r3]
 298 0014 9A42     		cmp	r2, r3
 299 0016 01D0     		beq	.L27
 300 0018 FFF7FEFF 		bl	__stack_chk_fail
 301              	.L27:
 302 001c 05B0     		add	sp, sp, #20
 303              		.cfi_def_cfa_offset 4
 304              		@ sp needed
 305 001e 5DF804FB 		ldr	pc, [sp], #4
 306              	.L29:
 307 0022 00BF     		.align	2
 308              	.L28:
 309 0024 00000000 		.word	__stack_chk_guard
 310              		.cfi_endproc
 311              	.LFE261:
 312              		.size	e_init_uart2, .-e_init_uart2
 313              		.section	.text.e_ischar_uart2,"ax",%progbits
 314              		.align	1
 315              		.p2align 4,,15
 316              		.global	e_ischar_uart2
 317              		.syntax unified
 318              		.thumb
 319              		.thumb_func
 320              		.fpu fpv4-sp-d16
 321              		.type	e_ischar_uart2, %function
 322              	e_ischar_uart2:
 323              	.LFB262:
 324              		.loc 1 53 0
 325              		.cfi_startproc
 326              		@ args = 0, pretend = 0, frame = 8
 327              		@ frame_needed = 0, uses_anonymous_args = 0
 328 0000 00B5     		push	{lr}
 329              		.cfi_def_cfa_offset 4
 330              		.cfi_offset 14, -4
 331 0002 83B0     		sub	sp, sp, #12
 332              		.cfi_def_cfa_offset 16
 333              		.loc 1 53 0
 334 0004 074B     		ldr	r3, .L33
 335 0006 1B68     		ldr	r3, [r3]
 336 0008 0193     		str	r3, [sp, #4]
 337              		.loc 1 55 0
 338 000a 0023     		movs	r3, #0
 339              		.loc 1 56 0
 340 000c 1846     		mov	r0, r3
 341 000e 054B     		ldr	r3, .L33
 342 0010 019A     		ldr	r2, [sp, #4]
ARM GAS  C:\Users\PCHAUT~1\AppData\Local\Temp\cc8v9dRJ.s 			page 7


 343 0012 1B68     		ldr	r3, [r3]
 344 0014 9A42     		cmp	r2, r3
 345 0016 01D0     		beq	.L32
 346 0018 FFF7FEFF 		bl	__stack_chk_fail
 347              	.L32:
 348 001c 03B0     		add	sp, sp, #12
 349              		.cfi_def_cfa_offset 4
 350              		@ sp needed
 351 001e 5DF804FB 		ldr	pc, [sp], #4
 352              	.L34:
 353 0022 00BF     		.align	2
 354              	.L33:
 355 0024 00000000 		.word	__stack_chk_guard
 356              		.cfi_endproc
 357              	.LFE262:
 358              		.size	e_ischar_uart2, .-e_ischar_uart2
 359              		.section	.text.e_getchar_uart2,"ax",%progbits
 360              		.align	1
 361              		.p2align 4,,15
 362              		.global	e_getchar_uart2
 363              		.syntax unified
 364              		.thumb
 365              		.thumb_func
 366              		.fpu fpv4-sp-d16
 367              		.type	e_getchar_uart2, %function
 368              	e_getchar_uart2:
 369              	.LFB263:
 370              		.loc 1 58 0
 371              		.cfi_startproc
 372              		@ args = 0, pretend = 0, frame = 16
 373              		@ frame_needed = 0, uses_anonymous_args = 0
 374 0000 00B5     		push	{lr}
 375              		.cfi_def_cfa_offset 4
 376              		.cfi_offset 14, -4
 377 0002 85B0     		sub	sp, sp, #20
 378              		.cfi_def_cfa_offset 24
 379 0004 0190     		str	r0, [sp, #4]
 380              		.loc 1 58 0
 381 0006 114B     		ldr	r3, .L39
 382 0008 1B68     		ldr	r3, [r3]
 383 000a 0393     		str	r3, [sp, #12]
 384              		.loc 1 59 0
 385 000c 104B     		ldr	r3, .L39+4
 386 000e D3F85432 		ldr	r3, [r3, #596]
 387 0012 1B68     		ldr	r3, [r3]
 388 0014 1B78     		ldrb	r3, [r3]	@ zero_extendqisi2
 389 0016 042B     		cmp	r3, #4
 390 0018 08D1     		bne	.L36
 391              		.loc 1 62 0
 392 001a 0D4B     		ldr	r3, .L39+4
 393 001c 1B68     		ldr	r3, [r3]
 394 001e 5B68     		ldr	r3, [r3, #4]
 395 0020 0122     		movs	r2, #1
 396 0022 0199     		ldr	r1, [sp, #4]
 397 0024 0A48     		ldr	r0, .L39+4
 398 0026 9847     		blx	r3
 399              	.LVL2:
ARM GAS  C:\Users\PCHAUT~1\AppData\Local\Temp\cc8v9dRJ.s 			page 8


 400 0028 0346     		mov	r3, r0
 401 002a 03E0     		b	.L37
 402              	.L36:
 403              		.loc 1 65 0
 404 002c 0A20     		movs	r0, #10
 405 002e FFF7FEFF 		bl	chThdSleep
 406              		.loc 1 66 0
 407 0032 0023     		movs	r3, #0
 408              	.L37:
 409              		.loc 1 67 0
 410 0034 1846     		mov	r0, r3
 411 0036 054B     		ldr	r3, .L39
 412 0038 039A     		ldr	r2, [sp, #12]
 413 003a 1B68     		ldr	r3, [r3]
 414 003c 9A42     		cmp	r2, r3
 415 003e 01D0     		beq	.L38
 416 0040 FFF7FEFF 		bl	__stack_chk_fail
 417              	.L38:
 418 0044 05B0     		add	sp, sp, #20
 419              		.cfi_def_cfa_offset 4
 420              		@ sp needed
 421 0046 5DF804FB 		ldr	pc, [sp], #4
 422              	.L40:
 423 004a 00BF     		.align	2
 424              	.L39:
 425 004c 00000000 		.word	__stack_chk_guard
 426 0050 00000000 		.word	SDU1
 427              		.cfi_endproc
 428              	.LFE263:
 429              		.size	e_getchar_uart2, .-e_getchar_uart2
 430              		.section	.text.e_send_uart2_char,"ax",%progbits
 431              		.align	1
 432              		.p2align 4,,15
 433              		.global	e_send_uart2_char
 434              		.syntax unified
 435              		.thumb
 436              		.thumb_func
 437              		.fpu fpv4-sp-d16
 438              		.type	e_send_uart2_char, %function
 439              	e_send_uart2_char:
 440              	.LFB264:
 441              		.loc 1 69 0
 442              		.cfi_startproc
 443              		@ args = 0, pretend = 0, frame = 16
 444              		@ frame_needed = 0, uses_anonymous_args = 0
 445 0000 00B5     		push	{lr}
 446              		.cfi_def_cfa_offset 4
 447              		.cfi_offset 14, -4
 448 0002 85B0     		sub	sp, sp, #20
 449              		.cfi_def_cfa_offset 24
 450 0004 0190     		str	r0, [sp, #4]
 451 0006 0091     		str	r1, [sp]
 452              		.loc 1 69 0
 453 0008 0D4B     		ldr	r3, .L45
 454 000a 1B68     		ldr	r3, [r3]
 455 000c 0393     		str	r3, [sp, #12]
 456              		.loc 1 70 0
ARM GAS  C:\Users\PCHAUT~1\AppData\Local\Temp\cc8v9dRJ.s 			page 9


 457 000e 0D4B     		ldr	r3, .L45+4
 458 0010 D3F85432 		ldr	r3, [r3, #596]
 459 0014 1B68     		ldr	r3, [r3]
 460 0016 1B78     		ldrb	r3, [r3]	@ zero_extendqisi2
 461 0018 042B     		cmp	r3, #4
 462 001a 06D1     		bne	.L44
 463              		.loc 1 72 0
 464 001c 094B     		ldr	r3, .L45+4
 465 001e 1B68     		ldr	r3, [r3]
 466 0020 1B68     		ldr	r3, [r3]
 467 0022 009A     		ldr	r2, [sp]
 468 0024 0199     		ldr	r1, [sp, #4]
 469 0026 0748     		ldr	r0, .L45+4
 470 0028 9847     		blx	r3
 471              	.LVL3:
 472              	.L44:
 473              		.loc 1 74 0
 474 002a 00BF     		nop
 475 002c 044B     		ldr	r3, .L45
 476 002e 039A     		ldr	r2, [sp, #12]
 477 0030 1B68     		ldr	r3, [r3]
 478 0032 9A42     		cmp	r2, r3
 479 0034 01D0     		beq	.L43
 480 0036 FFF7FEFF 		bl	__stack_chk_fail
 481              	.L43:
 482 003a 05B0     		add	sp, sp, #20
 483              		.cfi_def_cfa_offset 4
 484              		@ sp needed
 485 003c 5DF804FB 		ldr	pc, [sp], #4
 486              	.L46:
 487              		.align	2
 488              	.L45:
 489 0040 00000000 		.word	__stack_chk_guard
 490 0044 00000000 		.word	SDU1
 491              		.cfi_endproc
 492              	.LFE264:
 493              		.size	e_send_uart2_char, .-e_send_uart2_char
 494              		.section	.text.e_uart2_sending,"ax",%progbits
 495              		.align	1
 496              		.p2align 4,,15
 497              		.global	e_uart2_sending
 498              		.syntax unified
 499              		.thumb
 500              		.thumb_func
 501              		.fpu fpv4-sp-d16
 502              		.type	e_uart2_sending, %function
 503              	e_uart2_sending:
 504              	.LFB265:
 505              		.loc 1 79 0
 506              		.cfi_startproc
 507              		@ args = 0, pretend = 0, frame = 8
 508              		@ frame_needed = 0, uses_anonymous_args = 0
 509 0000 00B5     		push	{lr}
 510              		.cfi_def_cfa_offset 4
 511              		.cfi_offset 14, -4
 512 0002 83B0     		sub	sp, sp, #12
 513              		.cfi_def_cfa_offset 16
ARM GAS  C:\Users\PCHAUT~1\AppData\Local\Temp\cc8v9dRJ.s 			page 10


 514              		.loc 1 79 0
 515 0004 074B     		ldr	r3, .L50
 516 0006 1B68     		ldr	r3, [r3]
 517 0008 0193     		str	r3, [sp, #4]
 518              		.loc 1 81 0
 519 000a 0023     		movs	r3, #0
 520              		.loc 1 82 0
 521 000c 1846     		mov	r0, r3
 522 000e 054B     		ldr	r3, .L50
 523 0010 019A     		ldr	r2, [sp, #4]
 524 0012 1B68     		ldr	r3, [r3]
 525 0014 9A42     		cmp	r2, r3
 526 0016 01D0     		beq	.L49
 527 0018 FFF7FEFF 		bl	__stack_chk_fail
 528              	.L49:
 529 001c 03B0     		add	sp, sp, #12
 530              		.cfi_def_cfa_offset 4
 531              		@ sp needed
 532 001e 5DF804FB 		ldr	pc, [sp], #4
 533              	.L51:
 534 0022 00BF     		.align	2
 535              	.L50:
 536 0024 00000000 		.word	__stack_chk_guard
 537              		.cfi_endproc
 538              	.LFE265:
 539              		.size	e_uart2_sending, .-e_uart2_sending
 540              		.text
 541              	.Letext0:
 542              		.file 2 "c:\\users\\pchautems\\documents\\robotiquetp\\eclipse_e-puck2\\tools\\gcc-arm-none-eabi-7
 543              		.file 3 "c:\\users\\pchautems\\documents\\robotiquetp\\eclipse_e-puck2\\tools\\gcc-arm-none-eabi-7
 544              		.file 4 "c:\\users\\pchautems\\documents\\robotiquetp\\eclipse_e-puck2\\tools\\gcc-arm-none-eabi-7
 545              		.file 5 "../lib/e-puck2_main-processor/ChibiOS//os/rt/ports/ARMCMx/compilers/GCC/chtypes.h"
 546              		.file 6 "../lib/e-puck2_main-processor/ChibiOS//os/rt/include/chsystypes.h"
 547              		.file 7 "../lib/e-puck2_main-processor/ChibiOS//os/rt/include/chschd.h"
 548              		.file 8 "../lib/e-puck2_main-processor/ChibiOS//os/ext/CMSIS/include/core_cm4.h"
 549              		.file 9 "../lib/e-puck2_main-processor/ChibiOS//os/ext/CMSIS/ST/system_stm32f4xx.h"
 550              		.file 10 "../lib/e-puck2_main-processor/ChibiOS//os/ext/CMSIS/ST/stm32f407xx.h"
 551              		.file 11 "../lib/e-puck2_main-processor/ChibiOS//os/rt/ports/ARMCMx/chcore.h"
 552              		.file 12 "../lib/e-puck2_main-processor/ChibiOS//os/rt/ports/ARMCMx/chcore_v7m.h"
 553              		.file 13 "../lib/e-puck2_main-processor/ChibiOS//os/rt/include/chdebug.h"
 554              		.file 14 "../lib/e-puck2_main-processor/ChibiOS//os/rt/include/chtm.h"
 555              		.file 15 "../lib/e-puck2_main-processor/ChibiOS//os/rt/include/chstats.h"
 556              		.file 16 "../lib/e-puck2_main-processor/ChibiOS//os/rt/include/chsem.h"
 557              		.file 17 "../lib/e-puck2_main-processor/ChibiOS//os/rt/include/chmtx.h"
 558              		.file 18 "../lib/e-puck2_main-processor/ChibiOS//os/rt/include/chregistry.h"
 559              		.file 19 "../lib/e-puck2_main-processor/ChibiOS//os/rt/include/chevents.h"
 560              		.file 20 "../lib/e-puck2_main-processor/ChibiOS//os/rt/include/chqueues.h"
 561              		.file 21 "../lib/e-puck2_main-processor/ChibiOS//os/hal/ports/STM32/STM32F4xx/stm32_dma.h"
 562              		.file 22 "../lib/e-puck2_main-processor/ChibiOS//os/hal/include/hal_ioblock.h"
 563              		.file 23 "../lib/e-puck2_main-processor/ChibiOS//os/hal/ports/STM32/LLD/GPIOv2/pal_lld.h"
 564              		.file 24 "../lib/e-puck2_main-processor/ChibiOS//os/hal/include/adc.h"
 565              		.file 25 "../lib/e-puck2_main-processor/ChibiOS//os/hal/ports/STM32/STM32F4xx/adc_lld.h"
 566              		.file 26 "../lib/e-puck2_main-processor/ChibiOS//os/hal/include/can.h"
 567              		.file 27 "../lib/e-puck2_main-processor/ChibiOS//os/hal/ports/STM32/LLD/can_lld.h"
 568              		.file 28 "../lib/e-puck2_main-processor/ChibiOS//os/hal/include/dac.h"
 569              		.file 29 "../lib/e-puck2_main-processor/ChibiOS//os/hal/ports/STM32/LLD/DACv1/dac_lld.h"
 570              		.file 30 "../lib/e-puck2_main-processor/ChibiOS//os/hal/include/ext.h"
ARM GAS  C:\Users\PCHAUT~1\AppData\Local\Temp\cc8v9dRJ.s 			page 11


 571              		.file 31 "../lib/e-puck2_main-processor/ChibiOS//os/hal/ports/STM32/LLD/ext_lld.h"
 572              		.file 32 "../lib/e-puck2_main-processor/ChibiOS//os/hal/include/gpt.h"
 573              		.file 33 "../lib/e-puck2_main-processor/ChibiOS//os/hal/ports/STM32/LLD/TIMv1/gpt_lld.h"
 574              		.file 34 "../lib/e-puck2_main-processor/ChibiOS//os/hal/ports/STM32/LLD/TIMv1/stm32_tim.h"
 575              		.file 35 "../lib/e-puck2_main-processor/ChibiOS//os/hal/include/i2c.h"
 576              		.file 36 "../lib/e-puck2_main-processor/ChibiOS//os/hal/ports/STM32/LLD/I2Cv1/i2c_lld.h"
 577              		.file 37 "../lib/e-puck2_main-processor/ChibiOS//os/hal/include/i2s.h"
 578              		.file 38 "../lib/e-puck2_main-processor/ChibiOS//os/hal/ports/STM32/LLD/SPIv1/i2s_lld.h"
 579              		.file 39 "../lib/e-puck2_main-processor/ChibiOS//os/hal/include/pwm.h"
 580              		.file 40 "../lib/e-puck2_main-processor/ChibiOS//os/hal/ports/STM32/LLD/TIMv1/pwm_lld.h"
 581              		.file 41 "../lib/e-puck2_main-processor/ChibiOS//os/hal/include/serial.h"
 582              		.file 42 "../lib/e-puck2_main-processor/ChibiOS//os/hal/ports/STM32/LLD/USARTv1/serial_lld.h"
 583              		.file 43 "../lib/e-puck2_main-processor/ChibiOS//os/hal/include/sdc.h"
 584              		.file 44 "../lib/e-puck2_main-processor/ChibiOS//os/hal/ports/STM32/LLD/sdc_lld.h"
 585              		.file 45 "../lib/e-puck2_main-processor/ChibiOS//os/hal/include/spi.h"
 586              		.file 46 "../lib/e-puck2_main-processor/ChibiOS//os/hal/ports/STM32/LLD/SPIv1/spi_lld.h"
 587              		.file 47 "../lib/e-puck2_main-processor/ChibiOS//os/hal/include/usb.h"
 588              		.file 48 "../lib/e-puck2_main-processor/ChibiOS//os/hal/ports/STM32/LLD/OTGv1/usb_lld.h"
 589              		.file 49 "../lib/e-puck2_main-processor/ChibiOS//os/hal/ports/STM32/LLD/OTGv1/stm32_otg.h"
 590              		.file 50 "../lib/e-puck2_main-processor/ChibiOS//os/hal/include/serial_usb.h"
 591              		.file 51 "../lib/e-puck2_main-processor/src/epuck1x/../usbcfg.h"