ARM GAS  C:\Users\PCHAUT~1\AppData\Local\Temp\ccbM2TUd.s 			page 1


   1              		.cpu cortex-m4
   2              		.eabi_attribute 27, 1
   3              		.eabi_attribute 28, 1
   4              		.eabi_attribute 20, 1
   5              		.eabi_attribute 21, 1
   6              		.eabi_attribute 23, 3
   7              		.eabi_attribute 24, 1
   8              		.eabi_attribute 25, 1
   9              		.eabi_attribute 26, 1
  10              		.eabi_attribute 30, 6
  11              		.eabi_attribute 34, 1
  12              		.eabi_attribute 18, 4
  13              		.file	"ext_lld.c"
  14              		.text
  15              	.Ltext0:
  16              		.cfi_sections	.debug_frame
  17              		.global	EXTD1
  18              		.section	.bss.EXTD1,"aw",%nobits
  19              		.align	2
  20              		.type	EXTD1, %object
  21              		.size	EXTD1, 8
  22              	EXTD1:
  23 0000 00000000 		.space	8
  23      00000000 
  24              		.section	.text.ext_lld_init,"ax",%progbits
  25              		.align	1
  26              		.p2align 4,,15
  27              		.global	ext_lld_init
  28              		.syntax unified
  29              		.thumb
  30              		.thumb_func
  31              		.fpu fpv4-sp-d16
  32              		.type	ext_lld_init, %function
  33              	ext_lld_init:
  34              	.LFB256:
  35              		.file 1 "../lib/e-puck2_main-processor/ChibiOS//os/hal/ports/STM32/LLD/ext_lld.c"
  36              		.loc 1 65 0
  37              		.cfi_startproc
  38              		@ args = 0, pretend = 0, frame = 8
  39              		@ frame_needed = 0, uses_anonymous_args = 0
  40 0000 00B5     		push	{lr}
  41              		.cfi_def_cfa_offset 4
  42              		.cfi_offset 14, -4
  43 0002 83B0     		sub	sp, sp, #12
  44              		.cfi_def_cfa_offset 16
  45              		.loc 1 65 0
  46 0004 084B     		ldr	r3, .L3
  47 0006 1B68     		ldr	r3, [r3]
  48 0008 0193     		str	r3, [sp, #4]
  49              		.loc 1 68 0
  50 000a 0848     		ldr	r0, .L3+4
  51 000c FFF7FEFF 		bl	extObjectInit
  52              		.loc 1 69 0
  53 0010 00BF     		nop
  54 0012 054B     		ldr	r3, .L3
  55 0014 019A     		ldr	r2, [sp, #4]
  56 0016 1B68     		ldr	r3, [r3]
ARM GAS  C:\Users\PCHAUT~1\AppData\Local\Temp\ccbM2TUd.s 			page 2


  57 0018 9A42     		cmp	r2, r3
  58 001a 01D0     		beq	.L2
  59 001c FFF7FEFF 		bl	__stack_chk_fail
  60              	.L2:
  61 0020 03B0     		add	sp, sp, #12
  62              		.cfi_def_cfa_offset 4
  63              		@ sp needed
  64 0022 5DF804FB 		ldr	pc, [sp], #4
  65              	.L4:
  66 0026 00BF     		.align	2
  67              	.L3:
  68 0028 00000000 		.word	__stack_chk_guard
  69 002c 00000000 		.word	EXTD1
  70              		.cfi_endproc
  71              	.LFE256:
  72              		.size	ext_lld_init, .-ext_lld_init
  73              		.section	.text.ext_lld_start,"ax",%progbits
  74              		.align	1
  75              		.p2align 4,,15
  76              		.global	ext_lld_start
  77              		.syntax unified
  78              		.thumb
  79              		.thumb_func
  80              		.fpu fpv4-sp-d16
  81              		.type	ext_lld_start, %function
  82              	ext_lld_start:
  83              	.LFB257:
  84              		.loc 1 78 0
  85              		.cfi_startproc
  86              		@ args = 0, pretend = 0, frame = 16
  87              		@ frame_needed = 0, uses_anonymous_args = 0
  88 0000 00B5     		push	{lr}
  89              		.cfi_def_cfa_offset 4
  90              		.cfi_offset 14, -4
  91 0002 85B0     		sub	sp, sp, #20
  92              		.cfi_def_cfa_offset 24
  93 0004 0190     		str	r0, [sp, #4]
  94              		.loc 1 78 0
  95 0006 174B     		ldr	r3, .L12
  96 0008 1B68     		ldr	r3, [r3]
  97 000a 0393     		str	r3, [sp, #12]
  98              		.loc 1 81 0
  99 000c 019B     		ldr	r3, [sp, #4]
 100 000e 1B78     		ldrb	r3, [r3]	@ zero_extendqisi2
 101 0010 012B     		cmp	r3, #1
 102 0012 01D1     		bne	.L6
 103              		.loc 1 82 0
 104 0014 FFF7FEFF 		bl	ext_lld_exti_irq_enable
 105              	.L6:
 106              		.loc 1 85 0
 107 0018 0023     		movs	r3, #0
 108 001a 0293     		str	r3, [sp, #8]
 109 001c 14E0     		b	.L7
 110              	.L10:
 111              		.loc 1 86 0
 112 001e 019B     		ldr	r3, [sp, #4]
 113 0020 5B68     		ldr	r3, [r3, #4]
ARM GAS  C:\Users\PCHAUT~1\AppData\Local\Temp\ccbM2TUd.s 			page 3


 114 0022 029A     		ldr	r2, [sp, #8]
 115 0024 53F83230 		ldr	r3, [r3, r2, lsl #3]
 116 0028 03F00403 		and	r3, r3, #4
 117 002c 002B     		cmp	r3, #0
 118 002e 04D0     		beq	.L8
 119              		.loc 1 87 0
 120 0030 0299     		ldr	r1, [sp, #8]
 121 0032 0198     		ldr	r0, [sp, #4]
 122 0034 FFF7FEFF 		bl	ext_lld_channel_enable
 123 0038 03E0     		b	.L9
 124              	.L8:
 125              		.loc 1 89 0
 126 003a 0299     		ldr	r1, [sp, #8]
 127 003c 0198     		ldr	r0, [sp, #4]
 128 003e FFF7FEFF 		bl	ext_lld_channel_disable
 129              	.L9:
 130              		.loc 1 85 0 discriminator 2
 131 0042 029B     		ldr	r3, [sp, #8]
 132 0044 0133     		adds	r3, r3, #1
 133 0046 0293     		str	r3, [sp, #8]
 134              	.L7:
 135              		.loc 1 85 0 is_stmt 0 discriminator 1
 136 0048 029B     		ldr	r3, [sp, #8]
 137 004a 162B     		cmp	r3, #22
 138 004c E7D9     		bls	.L10
 139              		.loc 1 90 0 is_stmt 1
 140 004e 00BF     		nop
 141 0050 044B     		ldr	r3, .L12
 142 0052 039A     		ldr	r2, [sp, #12]
 143 0054 1B68     		ldr	r3, [r3]
 144 0056 9A42     		cmp	r2, r3
 145 0058 01D0     		beq	.L11
 146 005a FFF7FEFF 		bl	__stack_chk_fail
 147              	.L11:
 148 005e 05B0     		add	sp, sp, #20
 149              		.cfi_def_cfa_offset 4
 150              		@ sp needed
 151 0060 5DF804FB 		ldr	pc, [sp], #4
 152              	.L13:
 153              		.align	2
 154              	.L12:
 155 0064 00000000 		.word	__stack_chk_guard
 156              		.cfi_endproc
 157              	.LFE257:
 158              		.size	ext_lld_start, .-ext_lld_start
 159              		.section	.text.ext_lld_stop,"ax",%progbits
 160              		.align	1
 161              		.p2align 4,,15
 162              		.global	ext_lld_stop
 163              		.syntax unified
 164              		.thumb
 165              		.thumb_func
 166              		.fpu fpv4-sp-d16
 167              		.type	ext_lld_stop, %function
 168              	ext_lld_stop:
 169              	.LFB258:
 170              		.loc 1 99 0
ARM GAS  C:\Users\PCHAUT~1\AppData\Local\Temp\ccbM2TUd.s 			page 4


 171              		.cfi_startproc
 172              		@ args = 0, pretend = 0, frame = 16
 173              		@ frame_needed = 0, uses_anonymous_args = 0
 174 0000 00B5     		push	{lr}
 175              		.cfi_def_cfa_offset 4
 176              		.cfi_offset 14, -4
 177 0002 85B0     		sub	sp, sp, #20
 178              		.cfi_def_cfa_offset 24
 179 0004 0190     		str	r0, [sp, #4]
 180              		.loc 1 99 0
 181 0006 0F4B     		ldr	r3, .L17
 182 0008 1B68     		ldr	r3, [r3]
 183 000a 0393     		str	r3, [sp, #12]
 184              		.loc 1 101 0
 185 000c 019B     		ldr	r3, [sp, #4]
 186 000e 1B78     		ldrb	r3, [r3]	@ zero_extendqisi2
 187 0010 022B     		cmp	r3, #2
 188 0012 01D1     		bne	.L15
 189              		.loc 1 102 0
 190 0014 FFF7FEFF 		bl	ext_lld_exti_irq_disable
 191              	.L15:
 192              		.loc 1 104 0
 193 0018 0B4B     		ldr	r3, .L17+4
 194 001a 0022     		movs	r2, #0
 195 001c 5A60     		str	r2, [r3, #4]
 196              		.loc 1 105 0
 197 001e 0A4B     		ldr	r3, .L17+4
 198 0020 0022     		movs	r2, #0
 199 0022 1A60     		str	r2, [r3]
 200              		.loc 1 106 0
 201 0024 084B     		ldr	r3, .L17+4
 202 0026 4FF0FF32 		mov	r2, #-1
 203 002a 5A61     		str	r2, [r3, #20]
 204              		.loc 1 110 0
 205 002c 00BF     		nop
 206 002e 054B     		ldr	r3, .L17
 207 0030 039A     		ldr	r2, [sp, #12]
 208 0032 1B68     		ldr	r3, [r3]
 209 0034 9A42     		cmp	r2, r3
 210 0036 01D0     		beq	.L16
 211 0038 FFF7FEFF 		bl	__stack_chk_fail
 212              	.L16:
 213 003c 05B0     		add	sp, sp, #20
 214              		.cfi_def_cfa_offset 4
 215              		@ sp needed
 216 003e 5DF804FB 		ldr	pc, [sp], #4
 217              	.L18:
 218 0042 00BF     		.align	2
 219              	.L17:
 220 0044 00000000 		.word	__stack_chk_guard
 221 0048 003C0140 		.word	1073822720
 222              		.cfi_endproc
 223              	.LFE258:
 224              		.size	ext_lld_stop, .-ext_lld_stop
 225              		.section	.text.ext_lld_channel_enable,"ax",%progbits
 226              		.align	1
 227              		.p2align 4,,15
ARM GAS  C:\Users\PCHAUT~1\AppData\Local\Temp\ccbM2TUd.s 			page 5


 228              		.global	ext_lld_channel_enable
 229              		.syntax unified
 230              		.thumb
 231              		.thumb_func
 232              		.fpu fpv4-sp-d16
 233              		.type	ext_lld_channel_enable, %function
 234              	ext_lld_channel_enable:
 235              	.LFB259:
 236              		.loc 1 120 0
 237              		.cfi_startproc
 238              		@ args = 0, pretend = 0, frame = 24
 239              		@ frame_needed = 0, uses_anonymous_args = 0
 240 0000 00B5     		push	{lr}
 241              		.cfi_def_cfa_offset 4
 242              		.cfi_offset 14, -4
 243 0002 87B0     		sub	sp, sp, #28
 244              		.cfi_def_cfa_offset 32
 245 0004 0190     		str	r0, [sp, #4]
 246 0006 0091     		str	r1, [sp]
 247              		.loc 1 120 0
 248 0008 554B     		ldr	r3, .L29
 249 000a 1B68     		ldr	r3, [r3]
 250 000c 0593     		str	r3, [sp, #20]
 251              		.loc 1 123 0
 252 000e 009B     		ldr	r3, [sp]
 253 0010 0F2B     		cmp	r3, #15
 254 0012 28D8     		bhi	.L20
 255              	.LBB2:
 256              		.loc 1 124 0
 257 0014 009B     		ldr	r3, [sp]
 258 0016 9B08     		lsrs	r3, r3, #2
 259 0018 0293     		str	r3, [sp, #8]
 260              		.loc 1 125 0
 261 001a 009B     		ldr	r3, [sp]
 262 001c 03F00303 		and	r3, r3, #3
 263 0020 9B00     		lsls	r3, r3, #2
 264 0022 0F22     		movs	r2, #15
 265 0024 02FA03F3 		lsl	r3, r2, r3
 266 0028 DB43     		mvns	r3, r3
 267 002a 0393     		str	r3, [sp, #12]
 268              		.loc 1 126 0
 269 002c 019B     		ldr	r3, [sp, #4]
 270 002e 5B68     		ldr	r3, [r3, #4]
 271 0030 009A     		ldr	r2, [sp]
 272 0032 53F83230 		ldr	r3, [r3, r2, lsl #3]
 273              		.loc 1 127 0
 274 0036 1B09     		lsrs	r3, r3, #4
 275 0038 03F00F02 		and	r2, r3, #15
 276              		.loc 1 128 0
 277 003c 009B     		ldr	r3, [sp]
 278 003e 03F00303 		and	r3, r3, #3
 279 0042 9B00     		lsls	r3, r3, #2
 280              		.loc 1 126 0
 281 0044 02FA03F3 		lsl	r3, r2, r3
 282 0048 0493     		str	r3, [sp, #16]
 283              		.loc 1 133 0
 284 004a 464A     		ldr	r2, .L29+4
ARM GAS  C:\Users\PCHAUT~1\AppData\Local\Temp\ccbM2TUd.s 			page 6


 285 004c 029B     		ldr	r3, [sp, #8]
 286 004e 0233     		adds	r3, r3, #2
 287 0050 52F82320 		ldr	r2, [r2, r3, lsl #2]
 288 0054 039B     		ldr	r3, [sp, #12]
 289 0056 1A40     		ands	r2, r2, r3
 290 0058 4249     		ldr	r1, .L29+4
 291 005a 049B     		ldr	r3, [sp, #16]
 292 005c 1A43     		orrs	r2, r2, r3
 293 005e 029B     		ldr	r3, [sp, #8]
 294 0060 0233     		adds	r3, r3, #2
 295 0062 41F82320 		str	r2, [r1, r3, lsl #2]
 296              	.L20:
 297              	.LBE2:
 298              		.loc 1 141 0
 299 0066 019B     		ldr	r3, [sp, #4]
 300 0068 5B68     		ldr	r3, [r3, #4]
 301 006a 009A     		ldr	r2, [sp]
 302 006c 53F83230 		ldr	r3, [r3, r2, lsl #3]
 303 0070 03F00103 		and	r3, r3, #1
 304 0074 002B     		cmp	r3, #0
 305 0076 0AD0     		beq	.L21
 306              		.loc 1 142 0
 307 0078 3B4B     		ldr	r3, .L29+8
 308 007a 9B68     		ldr	r3, [r3, #8]
 309 007c 0121     		movs	r1, #1
 310 007e 009A     		ldr	r2, [sp]
 311 0080 01FA02F2 		lsl	r2, r1, r2
 312 0084 1146     		mov	r1, r2
 313 0086 384A     		ldr	r2, .L29+8
 314 0088 0B43     		orrs	r3, r3, r1
 315 008a 9360     		str	r3, [r2, #8]
 316 008c 0AE0     		b	.L22
 317              	.L21:
 318              		.loc 1 144 0
 319 008e 364B     		ldr	r3, .L29+8
 320 0090 9B68     		ldr	r3, [r3, #8]
 321 0092 0121     		movs	r1, #1
 322 0094 009A     		ldr	r2, [sp]
 323 0096 01FA02F2 		lsl	r2, r1, r2
 324 009a D243     		mvns	r2, r2
 325 009c 1146     		mov	r1, r2
 326 009e 324A     		ldr	r2, .L29+8
 327 00a0 0B40     		ands	r3, r3, r1
 328 00a2 9360     		str	r3, [r2, #8]
 329              	.L22:
 330              		.loc 1 145 0
 331 00a4 019B     		ldr	r3, [sp, #4]
 332 00a6 5B68     		ldr	r3, [r3, #4]
 333 00a8 009A     		ldr	r2, [sp]
 334 00aa 53F83230 		ldr	r3, [r3, r2, lsl #3]
 335 00ae 03F00203 		and	r3, r3, #2
 336 00b2 002B     		cmp	r3, #0
 337 00b4 0AD0     		beq	.L23
 338              		.loc 1 146 0
 339 00b6 2C4B     		ldr	r3, .L29+8
 340 00b8 DB68     		ldr	r3, [r3, #12]
 341 00ba 0121     		movs	r1, #1
ARM GAS  C:\Users\PCHAUT~1\AppData\Local\Temp\ccbM2TUd.s 			page 7


 342 00bc 009A     		ldr	r2, [sp]
 343 00be 01FA02F2 		lsl	r2, r1, r2
 344 00c2 1146     		mov	r1, r2
 345 00c4 284A     		ldr	r2, .L29+8
 346 00c6 0B43     		orrs	r3, r3, r1
 347 00c8 D360     		str	r3, [r2, #12]
 348 00ca 0AE0     		b	.L24
 349              	.L23:
 350              		.loc 1 148 0
 351 00cc 264B     		ldr	r3, .L29+8
 352 00ce DB68     		ldr	r3, [r3, #12]
 353 00d0 0121     		movs	r1, #1
 354 00d2 009A     		ldr	r2, [sp]
 355 00d4 01FA02F2 		lsl	r2, r1, r2
 356 00d8 D243     		mvns	r2, r2
 357 00da 1146     		mov	r1, r2
 358 00dc 224A     		ldr	r2, .L29+8
 359 00de 0B40     		ands	r3, r3, r1
 360 00e0 D360     		str	r3, [r2, #12]
 361              	.L24:
 362              		.loc 1 151 0
 363 00e2 019B     		ldr	r3, [sp, #4]
 364 00e4 5A68     		ldr	r2, [r3, #4]
 365 00e6 009B     		ldr	r3, [sp]
 366 00e8 DB00     		lsls	r3, r3, #3
 367 00ea 1344     		add	r3, r3, r2
 368 00ec 5B68     		ldr	r3, [r3, #4]
 369 00ee 002B     		cmp	r3, #0
 370 00f0 15D0     		beq	.L25
 371              		.loc 1 152 0
 372 00f2 1D4B     		ldr	r3, .L29+8
 373 00f4 1B68     		ldr	r3, [r3]
 374 00f6 0121     		movs	r1, #1
 375 00f8 009A     		ldr	r2, [sp]
 376 00fa 01FA02F2 		lsl	r2, r1, r2
 377 00fe 1146     		mov	r1, r2
 378 0100 194A     		ldr	r2, .L29+8
 379 0102 0B43     		orrs	r3, r3, r1
 380 0104 1360     		str	r3, [r2]
 381              		.loc 1 153 0
 382 0106 184B     		ldr	r3, .L29+8
 383 0108 5B68     		ldr	r3, [r3, #4]
 384 010a 0121     		movs	r1, #1
 385 010c 009A     		ldr	r2, [sp]
 386 010e 01FA02F2 		lsl	r2, r1, r2
 387 0112 D243     		mvns	r2, r2
 388 0114 1146     		mov	r1, r2
 389 0116 144A     		ldr	r2, .L29+8
 390 0118 0B40     		ands	r3, r3, r1
 391 011a 5360     		str	r3, [r2, #4]
 392              		.loc 1 183 0
 393 011c 14E0     		b	.L28
 394              	.L25:
 395              		.loc 1 156 0
 396 011e 124B     		ldr	r3, .L29+8
 397 0120 5B68     		ldr	r3, [r3, #4]
 398 0122 0121     		movs	r1, #1
ARM GAS  C:\Users\PCHAUT~1\AppData\Local\Temp\ccbM2TUd.s 			page 8


 399 0124 009A     		ldr	r2, [sp]
 400 0126 01FA02F2 		lsl	r2, r1, r2
 401 012a 1146     		mov	r1, r2
 402 012c 0E4A     		ldr	r2, .L29+8
 403 012e 0B43     		orrs	r3, r3, r1
 404 0130 5360     		str	r3, [r2, #4]
 405              		.loc 1 157 0
 406 0132 0D4B     		ldr	r3, .L29+8
 407 0134 1B68     		ldr	r3, [r3]
 408 0136 0121     		movs	r1, #1
 409 0138 009A     		ldr	r2, [sp]
 410 013a 01FA02F2 		lsl	r2, r1, r2
 411 013e D243     		mvns	r2, r2
 412 0140 1146     		mov	r1, r2
 413 0142 094A     		ldr	r2, .L29+8
 414 0144 0B40     		ands	r3, r3, r1
 415 0146 1360     		str	r3, [r2]
 416              	.L28:
 417              		.loc 1 183 0
 418 0148 00BF     		nop
 419 014a 054B     		ldr	r3, .L29
 420 014c 059A     		ldr	r2, [sp, #20]
 421 014e 1B68     		ldr	r3, [r3]
 422 0150 9A42     		cmp	r2, r3
 423 0152 01D0     		beq	.L27
 424 0154 FFF7FEFF 		bl	__stack_chk_fail
 425              	.L27:
 426 0158 07B0     		add	sp, sp, #28
 427              		.cfi_def_cfa_offset 4
 428              		@ sp needed
 429 015a 5DF804FB 		ldr	pc, [sp], #4
 430              	.L30:
 431 015e 00BF     		.align	2
 432              	.L29:
 433 0160 00000000 		.word	__stack_chk_guard
 434 0164 00380140 		.word	1073821696
 435 0168 003C0140 		.word	1073822720
 436              		.cfi_endproc
 437              	.LFE259:
 438              		.size	ext_lld_channel_enable, .-ext_lld_channel_enable
 439              		.section	.text.ext_lld_channel_disable,"ax",%progbits
 440              		.align	1
 441              		.p2align 4,,15
 442              		.global	ext_lld_channel_disable
 443              		.syntax unified
 444              		.thumb
 445              		.thumb_func
 446              		.fpu fpv4-sp-d16
 447              		.type	ext_lld_channel_disable, %function
 448              	ext_lld_channel_disable:
 449              	.LFB260:
 450              		.loc 1 193 0
 451              		.cfi_startproc
 452              		@ args = 0, pretend = 0, frame = 16
 453              		@ frame_needed = 0, uses_anonymous_args = 0
 454 0000 00B5     		push	{lr}
 455              		.cfi_def_cfa_offset 4
ARM GAS  C:\Users\PCHAUT~1\AppData\Local\Temp\ccbM2TUd.s 			page 9


 456              		.cfi_offset 14, -4
 457 0002 85B0     		sub	sp, sp, #20
 458              		.cfi_def_cfa_offset 24
 459 0004 0190     		str	r0, [sp, #4]
 460 0006 0091     		str	r1, [sp]
 461              		.loc 1 193 0
 462 0008 1F4B     		ldr	r3, .L33
 463 000a 1B68     		ldr	r3, [r3]
 464 000c 0393     		str	r3, [sp, #12]
 465              		.loc 1 200 0
 466 000e 1F4B     		ldr	r3, .L33+4
 467 0010 1B68     		ldr	r3, [r3]
 468 0012 0121     		movs	r1, #1
 469 0014 009A     		ldr	r2, [sp]
 470 0016 01FA02F2 		lsl	r2, r1, r2
 471 001a D243     		mvns	r2, r2
 472 001c 1146     		mov	r1, r2
 473 001e 1B4A     		ldr	r2, .L33+4
 474 0020 0B40     		ands	r3, r3, r1
 475 0022 1360     		str	r3, [r2]
 476              		.loc 1 201 0
 477 0024 194B     		ldr	r3, .L33+4
 478 0026 5B68     		ldr	r3, [r3, #4]
 479 0028 0121     		movs	r1, #1
 480 002a 009A     		ldr	r2, [sp]
 481 002c 01FA02F2 		lsl	r2, r1, r2
 482 0030 D243     		mvns	r2, r2
 483 0032 1146     		mov	r1, r2
 484 0034 154A     		ldr	r2, .L33+4
 485 0036 0B40     		ands	r3, r3, r1
 486 0038 5360     		str	r3, [r2, #4]
 487              		.loc 1 202 0
 488 003a 144B     		ldr	r3, .L33+4
 489 003c 9B68     		ldr	r3, [r3, #8]
 490 003e 0121     		movs	r1, #1
 491 0040 009A     		ldr	r2, [sp]
 492 0042 01FA02F2 		lsl	r2, r1, r2
 493 0046 D243     		mvns	r2, r2
 494 0048 1146     		mov	r1, r2
 495 004a 104A     		ldr	r2, .L33+4
 496 004c 0B40     		ands	r3, r3, r1
 497 004e 9360     		str	r3, [r2, #8]
 498              		.loc 1 203 0
 499 0050 0E4B     		ldr	r3, .L33+4
 500 0052 DB68     		ldr	r3, [r3, #12]
 501 0054 0121     		movs	r1, #1
 502 0056 009A     		ldr	r2, [sp]
 503 0058 01FA02F2 		lsl	r2, r1, r2
 504 005c D243     		mvns	r2, r2
 505 005e 1146     		mov	r1, r2
 506 0060 0A4A     		ldr	r2, .L33+4
 507 0062 0B40     		ands	r3, r3, r1
 508 0064 D360     		str	r3, [r2, #12]
 509              		.loc 1 204 0
 510 0066 0122     		movs	r2, #1
 511 0068 009B     		ldr	r3, [sp]
 512 006a 9A40     		lsls	r2, r2, r3
ARM GAS  C:\Users\PCHAUT~1\AppData\Local\Temp\ccbM2TUd.s 			page 10


 513 006c 074B     		ldr	r3, .L33+4
 514 006e 5A61     		str	r2, [r3, #20]
 515              		.loc 1 215 0
 516 0070 00BF     		nop
 517 0072 054B     		ldr	r3, .L33
 518 0074 039A     		ldr	r2, [sp, #12]
 519 0076 1B68     		ldr	r3, [r3]
 520 0078 9A42     		cmp	r2, r3
 521 007a 01D0     		beq	.L32
 522 007c FFF7FEFF 		bl	__stack_chk_fail
 523              	.L32:
 524 0080 05B0     		add	sp, sp, #20
 525              		.cfi_def_cfa_offset 4
 526              		@ sp needed
 527 0082 5DF804FB 		ldr	pc, [sp], #4
 528              	.L34:
 529 0086 00BF     		.align	2
 530              	.L33:
 531 0088 00000000 		.word	__stack_chk_guard
 532 008c 003C0140 		.word	1073822720
 533              		.cfi_endproc
 534              	.LFE260:
 535              		.size	ext_lld_channel_disable, .-ext_lld_channel_disable
 536              		.text
 537              	.Letext0:
 538              		.file 2 "c:\\users\\pchautems\\documents\\robotiquetp\\eclipse_e-puck2\\tools\\gcc-arm-none-eabi-7
 539              		.file 3 "c:\\users\\pchautems\\documents\\robotiquetp\\eclipse_e-puck2\\tools\\gcc-arm-none-eabi-7
 540              		.file 4 "c:\\users\\pchautems\\documents\\robotiquetp\\eclipse_e-puck2\\tools\\gcc-arm-none-eabi-7
 541              		.file 5 "../lib/e-puck2_main-processor/ChibiOS//os/rt/ports/ARMCMx/compilers/GCC/chtypes.h"
 542              		.file 6 "../lib/e-puck2_main-processor/ChibiOS//os/rt/include/chsystypes.h"
 543              		.file 7 "../lib/e-puck2_main-processor/ChibiOS//os/rt/include/chschd.h"
 544              		.file 8 "../lib/e-puck2_main-processor/ChibiOS//os/ext/CMSIS/include/core_cm4.h"
 545              		.file 9 "../lib/e-puck2_main-processor/ChibiOS//os/ext/CMSIS/ST/system_stm32f4xx.h"
 546              		.file 10 "../lib/e-puck2_main-processor/ChibiOS//os/ext/CMSIS/ST/stm32f407xx.h"
 547              		.file 11 "../lib/e-puck2_main-processor/ChibiOS//os/rt/ports/ARMCMx/chcore.h"
 548              		.file 12 "../lib/e-puck2_main-processor/ChibiOS//os/rt/ports/ARMCMx/chcore_v7m.h"
 549              		.file 13 "../lib/e-puck2_main-processor/ChibiOS//os/rt/include/chdebug.h"
 550              		.file 14 "../lib/e-puck2_main-processor/ChibiOS//os/rt/include/chtm.h"
 551              		.file 15 "../lib/e-puck2_main-processor/ChibiOS//os/rt/include/chstats.h"
 552              		.file 16 "../lib/e-puck2_main-processor/ChibiOS//os/rt/include/chsem.h"
 553              		.file 17 "../lib/e-puck2_main-processor/ChibiOS//os/rt/include/chmtx.h"
 554              		.file 18 "../lib/e-puck2_main-processor/ChibiOS//os/rt/include/chregistry.h"
 555              		.file 19 "../lib/e-puck2_main-processor/ChibiOS//os/rt/include/chevents.h"
 556              		.file 20 "../lib/e-puck2_main-processor/ChibiOS//os/rt/include/chqueues.h"
 557              		.file 21 "../lib/e-puck2_main-processor/ChibiOS//os/hal/ports/STM32/STM32F4xx/stm32_dma.h"
 558              		.file 22 "../lib/e-puck2_main-processor/ChibiOS//os/hal/include/hal_ioblock.h"
 559              		.file 23 "../lib/e-puck2_main-processor/ChibiOS//os/hal/ports/STM32/LLD/GPIOv2/pal_lld.h"
 560              		.file 24 "../lib/e-puck2_main-processor/ChibiOS//os/hal/include/adc.h"
 561              		.file 25 "../lib/e-puck2_main-processor/ChibiOS//os/hal/ports/STM32/STM32F4xx/adc_lld.h"
 562              		.file 26 "../lib/e-puck2_main-processor/ChibiOS//os/hal/include/can.h"
 563              		.file 27 "../lib/e-puck2_main-processor/ChibiOS//os/hal/ports/STM32/LLD/can_lld.h"
 564              		.file 28 "../lib/e-puck2_main-processor/ChibiOS//os/hal/include/dac.h"
 565              		.file 29 "../lib/e-puck2_main-processor/ChibiOS//os/hal/ports/STM32/LLD/DACv1/dac_lld.h"
 566              		.file 30 "../lib/e-puck2_main-processor/ChibiOS//os/hal/include/ext.h"
 567              		.file 31 "../lib/e-puck2_main-processor/ChibiOS//os/hal/ports/STM32/LLD/ext_lld.h"
 568              		.file 32 "../lib/e-puck2_main-processor/ChibiOS//os/hal/include/gpt.h"
 569              		.file 33 "../lib/e-puck2_main-processor/ChibiOS//os/hal/ports/STM32/LLD/TIMv1/gpt_lld.h"
ARM GAS  C:\Users\PCHAUT~1\AppData\Local\Temp\ccbM2TUd.s 			page 11


 570              		.file 34 "../lib/e-puck2_main-processor/ChibiOS//os/hal/ports/STM32/LLD/TIMv1/stm32_tim.h"
 571              		.file 35 "../lib/e-puck2_main-processor/ChibiOS//os/hal/include/i2c.h"
 572              		.file 36 "../lib/e-puck2_main-processor/ChibiOS//os/hal/ports/STM32/LLD/I2Cv1/i2c_lld.h"
 573              		.file 37 "../lib/e-puck2_main-processor/ChibiOS//os/hal/include/i2s.h"
 574              		.file 38 "../lib/e-puck2_main-processor/ChibiOS//os/hal/ports/STM32/LLD/SPIv1/i2s_lld.h"
 575              		.file 39 "../lib/e-puck2_main-processor/ChibiOS//os/hal/include/pwm.h"
 576              		.file 40 "../lib/e-puck2_main-processor/ChibiOS//os/hal/ports/STM32/LLD/TIMv1/pwm_lld.h"
 577              		.file 41 "../lib/e-puck2_main-processor/ChibiOS//os/hal/include/serial.h"
 578              		.file 42 "../lib/e-puck2_main-processor/ChibiOS//os/hal/ports/STM32/LLD/USARTv1/serial_lld.h"
 579              		.file 43 "../lib/e-puck2_main-processor/ChibiOS//os/hal/include/sdc.h"
 580              		.file 44 "../lib/e-puck2_main-processor/ChibiOS//os/hal/ports/STM32/LLD/sdc_lld.h"
 581              		.file 45 "../lib/e-puck2_main-processor/ChibiOS//os/hal/include/spi.h"
 582              		.file 46 "../lib/e-puck2_main-processor/ChibiOS//os/hal/ports/STM32/LLD/SPIv1/spi_lld.h"
 583              		.file 47 "../lib/e-puck2_main-processor/ChibiOS//os/hal/include/usb.h"
 584              		.file 48 "../lib/e-puck2_main-processor/ChibiOS//os/hal/ports/STM32/LLD/OTGv1/usb_lld.h"
 585              		.file 49 "../lib/e-puck2_main-processor/ChibiOS//os/hal/ports/STM32/LLD/OTGv1/stm32_otg.h"