ARM GAS  C:\Users\PCHAUT~1\AppData\Local\Temp\ccvzGcEd.s 			page 1


   1              		.cpu cortex-m4
   2              		.eabi_attribute 27, 1
   3              		.eabi_attribute 28, 1
   4              		.eabi_attribute 20, 1
   5              		.eabi_attribute 21, 1
   6              		.eabi_attribute 23, 3
   7              		.eabi_attribute 24, 1
   8              		.eabi_attribute 25, 1
   9              		.eabi_attribute 26, 1
  10              		.eabi_attribute 30, 6
  11              		.eabi_attribute 34, 1
  12              		.eabi_attribute 18, 4
  13              		.file	"exti.c"
  14              		.text
  15              	.Ltext0:
  16              		.cfi_sections	.debug_frame
  17              		.section	.text.port_lock,"ax",%progbits
  18              		.align	1
  19              		.p2align 4,,15
  20              		.syntax unified
  21              		.thumb
  22              		.thumb_func
  23              		.fpu fpv4-sp-d16
  24              		.type	port_lock, %function
  25              	port_lock:
  26              	.LFB116:
  27              		.file 1 "../lib/e-puck2_main-processor/ChibiOS//os/rt/ports/ARMCMx/chcore_v7m.h"
  28              		.loc 1 444 0
  29              		.cfi_startproc
  30              		@ args = 0, pretend = 0, frame = 8
  31              		@ frame_needed = 0, uses_anonymous_args = 0
  32 0000 00B5     		push	{lr}
  33              		.cfi_def_cfa_offset 4
  34              		.cfi_offset 14, -4
  35 0002 83B0     		sub	sp, sp, #12
  36              		.cfi_def_cfa_offset 16
  37              		.loc 1 444 0
  38 0004 094B     		ldr	r3, .L3
  39 0006 1B68     		ldr	r3, [r3]
  40 0008 0193     		str	r3, [sp, #4]
  41 000a 2023     		movs	r3, #32
  42 000c 0093     		str	r3, [sp]
  43              	.LBB6:
  44              	.LBB7:
  45              		.file 2 "../lib/e-puck2_main-processor/ChibiOS//os/ext/CMSIS/include/core_cmFunc.h"
  46              		.loc 2 546 0
  47 000e 009B     		ldr	r3, [sp]
  48              		.syntax unified
  49              	@ 546 "../lib/e-puck2_main-processor/ChibiOS//os/ext/CMSIS/include/core_cmFunc.h" 1
  50 0010 83F31188 		MSR basepri, r3
  51              	@ 0 "" 2
  52              		.thumb
  53              		.syntax unified
  54              	.LBE7:
  55              	.LBE6:
  56              		.loc 1 451 0
  57 0014 00BF     		nop
ARM GAS  C:\Users\PCHAUT~1\AppData\Local\Temp\ccvzGcEd.s 			page 2


  58 0016 054B     		ldr	r3, .L3
  59 0018 019A     		ldr	r2, [sp, #4]
  60 001a 1B68     		ldr	r3, [r3]
  61 001c 9A42     		cmp	r2, r3
  62 001e 01D0     		beq	.L2
  63 0020 FFF7FEFF 		bl	__stack_chk_fail
  64              	.L2:
  65 0024 03B0     		add	sp, sp, #12
  66              		.cfi_def_cfa_offset 4
  67              		@ sp needed
  68 0026 5DF804FB 		ldr	pc, [sp], #4
  69              	.L4:
  70 002a 00BF     		.align	2
  71              	.L3:
  72 002c 00000000 		.word	__stack_chk_guard
  73              		.cfi_endproc
  74              	.LFE116:
  75              		.size	port_lock, .-port_lock
  76              		.section	.text.port_unlock,"ax",%progbits
  77              		.align	1
  78              		.p2align 4,,15
  79              		.syntax unified
  80              		.thumb
  81              		.thumb_func
  82              		.fpu fpv4-sp-d16
  83              		.type	port_unlock, %function
  84              	port_unlock:
  85              	.LFB117:
  86              		.loc 1 458 0
  87              		.cfi_startproc
  88              		@ args = 0, pretend = 0, frame = 8
  89              		@ frame_needed = 0, uses_anonymous_args = 0
  90 0000 00B5     		push	{lr}
  91              		.cfi_def_cfa_offset 4
  92              		.cfi_offset 14, -4
  93 0002 83B0     		sub	sp, sp, #12
  94              		.cfi_def_cfa_offset 16
  95              		.loc 1 458 0
  96 0004 094B     		ldr	r3, .L7
  97 0006 1B68     		ldr	r3, [r3]
  98 0008 0193     		str	r3, [sp, #4]
  99 000a 0023     		movs	r3, #0
 100 000c 0093     		str	r3, [sp]
 101              	.LBB8:
 102              	.LBB9:
 103              		.loc 2 546 0
 104 000e 009B     		ldr	r3, [sp]
 105              		.syntax unified
 106              	@ 546 "../lib/e-puck2_main-processor/ChibiOS//os/ext/CMSIS/include/core_cmFunc.h" 1
 107 0010 83F31188 		MSR basepri, r3
 108              	@ 0 "" 2
 109              		.thumb
 110              		.syntax unified
 111              	.LBE9:
 112              	.LBE8:
 113              		.loc 1 465 0
 114 0014 00BF     		nop
ARM GAS  C:\Users\PCHAUT~1\AppData\Local\Temp\ccvzGcEd.s 			page 3


 115 0016 054B     		ldr	r3, .L7
 116 0018 019A     		ldr	r2, [sp, #4]
 117 001a 1B68     		ldr	r3, [r3]
 118 001c 9A42     		cmp	r2, r3
 119 001e 01D0     		beq	.L6
 120 0020 FFF7FEFF 		bl	__stack_chk_fail
 121              	.L6:
 122 0024 03B0     		add	sp, sp, #12
 123              		.cfi_def_cfa_offset 4
 124              		@ sp needed
 125 0026 5DF804FB 		ldr	pc, [sp], #4
 126              	.L8:
 127 002a 00BF     		.align	2
 128              	.L7:
 129 002c 00000000 		.word	__stack_chk_guard
 130              		.cfi_endproc
 131              	.LFE117:
 132              		.size	port_unlock, .-port_unlock
 133              		.section	.text.port_lock_from_isr,"ax",%progbits
 134              		.align	1
 135              		.p2align 4,,15
 136              		.syntax unified
 137              		.thumb
 138              		.thumb_func
 139              		.fpu fpv4-sp-d16
 140              		.type	port_lock_from_isr, %function
 141              	port_lock_from_isr:
 142              	.LFB118:
 143              		.loc 1 473 0
 144              		.cfi_startproc
 145              		@ args = 0, pretend = 0, frame = 8
 146              		@ frame_needed = 0, uses_anonymous_args = 0
 147 0000 00B5     		push	{lr}
 148              		.cfi_def_cfa_offset 4
 149              		.cfi_offset 14, -4
 150 0002 83B0     		sub	sp, sp, #12
 151              		.cfi_def_cfa_offset 16
 152              		.loc 1 473 0
 153 0004 074B     		ldr	r3, .L11
 154 0006 1B68     		ldr	r3, [r3]
 155 0008 0193     		str	r3, [sp, #4]
 156              		.loc 1 475 0
 157 000a FFF7FEFF 		bl	port_lock
 158              		.loc 1 476 0
 159 000e 00BF     		nop
 160 0010 044B     		ldr	r3, .L11
 161 0012 019A     		ldr	r2, [sp, #4]
 162 0014 1B68     		ldr	r3, [r3]
 163 0016 9A42     		cmp	r2, r3
 164 0018 01D0     		beq	.L10
 165 001a FFF7FEFF 		bl	__stack_chk_fail
 166              	.L10:
 167 001e 03B0     		add	sp, sp, #12
 168              		.cfi_def_cfa_offset 4
 169              		@ sp needed
 170 0020 5DF804FB 		ldr	pc, [sp], #4
 171              	.L12:
ARM GAS  C:\Users\PCHAUT~1\AppData\Local\Temp\ccvzGcEd.s 			page 4


 172              		.align	2
 173              	.L11:
 174 0024 00000000 		.word	__stack_chk_guard
 175              		.cfi_endproc
 176              	.LFE118:
 177              		.size	port_lock_from_isr, .-port_lock_from_isr
 178              		.section	.text.port_unlock_from_isr,"ax",%progbits
 179              		.align	1
 180              		.p2align 4,,15
 181              		.syntax unified
 182              		.thumb
 183              		.thumb_func
 184              		.fpu fpv4-sp-d16
 185              		.type	port_unlock_from_isr, %function
 186              	port_unlock_from_isr:
 187              	.LFB119:
 188              		.loc 1 484 0
 189              		.cfi_startproc
 190              		@ args = 0, pretend = 0, frame = 8
 191              		@ frame_needed = 0, uses_anonymous_args = 0
 192 0000 00B5     		push	{lr}
 193              		.cfi_def_cfa_offset 4
 194              		.cfi_offset 14, -4
 195 0002 83B0     		sub	sp, sp, #12
 196              		.cfi_def_cfa_offset 16
 197              		.loc 1 484 0
 198 0004 074B     		ldr	r3, .L15
 199 0006 1B68     		ldr	r3, [r3]
 200 0008 0193     		str	r3, [sp, #4]
 201              		.loc 1 486 0
 202 000a FFF7FEFF 		bl	port_unlock
 203              		.loc 1 487 0
 204 000e 00BF     		nop
 205 0010 044B     		ldr	r3, .L15
 206 0012 019A     		ldr	r2, [sp, #4]
 207 0014 1B68     		ldr	r3, [r3]
 208 0016 9A42     		cmp	r2, r3
 209 0018 01D0     		beq	.L14
 210 001a FFF7FEFF 		bl	__stack_chk_fail
 211              	.L14:
 212 001e 03B0     		add	sp, sp, #12
 213              		.cfi_def_cfa_offset 4
 214              		@ sp needed
 215 0020 5DF804FB 		ldr	pc, [sp], #4
 216              	.L16:
 217              		.align	2
 218              	.L15:
 219 0024 00000000 		.word	__stack_chk_guard
 220              		.cfi_endproc
 221              	.LFE119:
 222              		.size	port_unlock_from_isr, .-port_unlock_from_isr
 223              		.section	.text.chSysLockFromISR,"ax",%progbits
 224              		.align	1
 225              		.p2align 4,,15
 226              		.syntax unified
 227              		.thumb
 228              		.thumb_func
ARM GAS  C:\Users\PCHAUT~1\AppData\Local\Temp\ccvzGcEd.s 			page 5


 229              		.fpu fpv4-sp-d16
 230              		.type	chSysLockFromISR, %function
 231              	chSysLockFromISR:
 232              	.LFB147:
 233              		.file 3 "../lib/e-puck2_main-processor/ChibiOS//os/rt/include/chsys.h"
 234              		.loc 3 386 0
 235              		.cfi_startproc
 236              		@ args = 0, pretend = 0, frame = 8
 237              		@ frame_needed = 0, uses_anonymous_args = 0
 238 0000 00B5     		push	{lr}
 239              		.cfi_def_cfa_offset 4
 240              		.cfi_offset 14, -4
 241 0002 83B0     		sub	sp, sp, #12
 242              		.cfi_def_cfa_offset 16
 243              		.loc 3 386 0
 244 0004 094B     		ldr	r3, .L19
 245 0006 1B68     		ldr	r3, [r3]
 246 0008 0193     		str	r3, [sp, #4]
 247              		.loc 3 388 0
 248 000a FFF7FEFF 		bl	port_lock_from_isr
 249              		.loc 3 389 0
 250 000e FFF7FEFF 		bl	_stats_start_measure_crit_isr
 251              		.loc 3 390 0
 252 0012 FFF7FEFF 		bl	_dbg_check_lock_from_isr
 253              		.loc 3 391 0
 254 0016 00BF     		nop
 255 0018 044B     		ldr	r3, .L19
 256 001a 019A     		ldr	r2, [sp, #4]
 257 001c 1B68     		ldr	r3, [r3]
 258 001e 9A42     		cmp	r2, r3
 259 0020 01D0     		beq	.L18
 260 0022 FFF7FEFF 		bl	__stack_chk_fail
 261              	.L18:
 262 0026 03B0     		add	sp, sp, #12
 263              		.cfi_def_cfa_offset 4
 264              		@ sp needed
 265 0028 5DF804FB 		ldr	pc, [sp], #4
 266              	.L20:
 267              		.align	2
 268              	.L19:
 269 002c 00000000 		.word	__stack_chk_guard
 270              		.cfi_endproc
 271              	.LFE147:
 272              		.size	chSysLockFromISR, .-chSysLockFromISR
 273              		.section	.text.chSysUnlockFromISR,"ax",%progbits
 274              		.align	1
 275              		.p2align 4,,15
 276              		.syntax unified
 277              		.thumb
 278              		.thumb_func
 279              		.fpu fpv4-sp-d16
 280              		.type	chSysUnlockFromISR, %function
 281              	chSysUnlockFromISR:
 282              	.LFB148:
 283              		.loc 3 406 0
 284              		.cfi_startproc
 285              		@ args = 0, pretend = 0, frame = 8
ARM GAS  C:\Users\PCHAUT~1\AppData\Local\Temp\ccvzGcEd.s 			page 6


 286              		@ frame_needed = 0, uses_anonymous_args = 0
 287 0000 00B5     		push	{lr}
 288              		.cfi_def_cfa_offset 4
 289              		.cfi_offset 14, -4
 290 0002 83B0     		sub	sp, sp, #12
 291              		.cfi_def_cfa_offset 16
 292              		.loc 3 406 0
 293 0004 094B     		ldr	r3, .L23
 294 0006 1B68     		ldr	r3, [r3]
 295 0008 0193     		str	r3, [sp, #4]
 296              		.loc 3 408 0
 297 000a FFF7FEFF 		bl	_dbg_check_unlock_from_isr
 298              		.loc 3 409 0
 299 000e FFF7FEFF 		bl	_stats_stop_measure_crit_isr
 300              		.loc 3 410 0
 301 0012 FFF7FEFF 		bl	port_unlock_from_isr
 302              		.loc 3 411 0
 303 0016 00BF     		nop
 304 0018 044B     		ldr	r3, .L23
 305 001a 019A     		ldr	r2, [sp, #4]
 306 001c 1B68     		ldr	r3, [r3]
 307 001e 9A42     		cmp	r2, r3
 308 0020 01D0     		beq	.L22
 309 0022 FFF7FEFF 		bl	__stack_chk_fail
 310              	.L22:
 311 0026 03B0     		add	sp, sp, #12
 312              		.cfi_def_cfa_offset 4
 313              		@ sp needed
 314 0028 5DF804FB 		ldr	pc, [sp], #4
 315              	.L24:
 316              		.align	2
 317              	.L23:
 318 002c 00000000 		.word	__stack_chk_guard
 319              		.cfi_endproc
 320              	.LFE148:
 321              		.size	chSysUnlockFromISR, .-chSysUnlockFromISR
 322              		.section	.text.chEvtObjectInit,"ax",%progbits
 323              		.align	1
 324              		.p2align 4,,15
 325              		.syntax unified
 326              		.thumb
 327              		.thumb_func
 328              		.fpu fpv4-sp-d16
 329              		.type	chEvtObjectInit, %function
 330              	chEvtObjectInit:
 331              	.LFB194:
 332              		.file 4 "../lib/e-puck2_main-processor/ChibiOS//os/rt/include/chevents.h"
 333              		.loc 4 170 0
 334              		.cfi_startproc
 335              		@ args = 0, pretend = 0, frame = 16
 336              		@ frame_needed = 0, uses_anonymous_args = 0
 337 0000 00B5     		push	{lr}
 338              		.cfi_def_cfa_offset 4
 339              		.cfi_offset 14, -4
 340 0002 85B0     		sub	sp, sp, #20
 341              		.cfi_def_cfa_offset 24
 342 0004 0190     		str	r0, [sp, #4]
ARM GAS  C:\Users\PCHAUT~1\AppData\Local\Temp\ccvzGcEd.s 			page 7


 343              		.loc 4 170 0
 344 0006 084B     		ldr	r3, .L27
 345 0008 1B68     		ldr	r3, [r3]
 346 000a 0393     		str	r3, [sp, #12]
 347              		.loc 4 172 0
 348 000c 019B     		ldr	r3, [sp, #4]
 349 000e 019A     		ldr	r2, [sp, #4]
 350 0010 1A60     		str	r2, [r3]
 351              		.loc 4 173 0
 352 0012 00BF     		nop
 353 0014 044B     		ldr	r3, .L27
 354 0016 039A     		ldr	r2, [sp, #12]
 355 0018 1B68     		ldr	r3, [r3]
 356 001a 9A42     		cmp	r2, r3
 357 001c 01D0     		beq	.L26
 358 001e FFF7FEFF 		bl	__stack_chk_fail
 359              	.L26:
 360 0022 05B0     		add	sp, sp, #20
 361              		.cfi_def_cfa_offset 4
 362              		@ sp needed
 363 0024 5DF804FB 		ldr	pc, [sp], #4
 364              	.L28:
 365              		.align	2
 366              	.L27:
 367 0028 00000000 		.word	__stack_chk_guard
 368              		.cfi_endproc
 369              	.LFE194:
 370              		.size	chEvtObjectInit, .-chEvtObjectInit
 371              		.global	exti_events
 372              		.section	.bss.exti_events,"aw",%nobits
 373              		.align	2
 374              		.type	exti_events, %object
 375              		.size	exti_events, 4
 376              	exti_events:
 377 0000 00000000 		.space	4
 378              		.section	.text.gpio_exti_callback,"ax",%progbits
 379              		.align	1
 380              		.p2align 4,,15
 381              		.syntax unified
 382              		.thumb
 383              		.thumb_func
 384              		.fpu fpv4-sp-d16
 385              		.type	gpio_exti_callback, %function
 386              	gpio_exti_callback:
 387              	.LFB256:
 388              		.file 5 "../lib/e-puck2_main-processor/src/exti.c"
 389              		.loc 5 14 0
 390              		.cfi_startproc
 391              		@ args = 0, pretend = 0, frame = 16
 392              		@ frame_needed = 0, uses_anonymous_args = 0
 393 0000 00B5     		push	{lr}
 394              		.cfi_def_cfa_offset 4
 395              		.cfi_offset 14, -4
 396 0002 85B0     		sub	sp, sp, #20
 397              		.cfi_def_cfa_offset 24
 398 0004 0190     		str	r0, [sp, #4]
 399 0006 0091     		str	r1, [sp]
ARM GAS  C:\Users\PCHAUT~1\AppData\Local\Temp\ccvzGcEd.s 			page 8


 400              		.loc 5 14 0
 401 0008 124B     		ldr	r3, .L34
 402 000a 1B68     		ldr	r3, [r3]
 403 000c 0393     		str	r3, [sp, #12]
 404              		.loc 5 16 0
 405 000e 009B     		ldr	r3, [sp]
 406 0010 032B     		cmp	r3, #3
 407 0012 08D1     		bne	.L30
 408              		.loc 5 17 0
 409 0014 FFF7FEFF 		bl	chSysLockFromISR
 410              		.loc 5 18 0
 411 0018 0221     		movs	r1, #2
 412 001a 0F48     		ldr	r0, .L34+4
 413 001c FFF7FEFF 		bl	chEvtBroadcastFlagsI
 414              		.loc 5 19 0
 415 0020 FFF7FEFF 		bl	chSysUnlockFromISR
 416              		.loc 5 25 0
 417 0024 0AE0     		b	.L33
 418              	.L30:
 419              		.loc 5 20 0
 420 0026 009B     		ldr	r3, [sp]
 421 0028 0F2B     		cmp	r3, #15
 422 002a 07D1     		bne	.L33
 423              		.loc 5 21 0
 424 002c FFF7FEFF 		bl	chSysLockFromISR
 425              		.loc 5 22 0
 426 0030 0121     		movs	r1, #1
 427 0032 0948     		ldr	r0, .L34+4
 428 0034 FFF7FEFF 		bl	chEvtBroadcastFlagsI
 429              		.loc 5 23 0
 430 0038 FFF7FEFF 		bl	chSysUnlockFromISR
 431              	.L33:
 432              		.loc 5 25 0
 433 003c 00BF     		nop
 434 003e 054B     		ldr	r3, .L34
 435 0040 039A     		ldr	r2, [sp, #12]
 436 0042 1B68     		ldr	r3, [r3]
 437 0044 9A42     		cmp	r2, r3
 438 0046 01D0     		beq	.L32
 439 0048 FFF7FEFF 		bl	__stack_chk_fail
 440              	.L32:
 441 004c 05B0     		add	sp, sp, #20
 442              		.cfi_def_cfa_offset 4
 443              		@ sp needed
 444 004e 5DF804FB 		ldr	pc, [sp], #4
 445              	.L35:
 446 0052 00BF     		.align	2
 447              	.L34:
 448 0054 00000000 		.word	__stack_chk_guard
 449 0058 00000000 		.word	exti_events
 450              		.cfi_endproc
 451              	.LFE256:
 452              		.size	gpio_exti_callback, .-gpio_exti_callback
 453              		.section	.rodata.extcfg,"a",%progbits
 454              		.align	2
 455              		.type	extcfg, %object
 456              		.size	extcfg, 184
ARM GAS  C:\Users\PCHAUT~1\AppData\Local\Temp\ccvzGcEd.s 			page 9


 457              	extcfg:
 458 0000 00000000 		.word	0
 459 0004 00000000 		.word	0
 460 0008 00000000 		.word	0
 461 000c 00000000 		.word	0
 462 0010 00000000 		.word	0
 463 0014 00000000 		.word	0
 464 0018 37000000 		.word	55
 465 001c 00000000 		.word	gpio_exti_callback
 466 0020 00000000 		.word	0
 467 0024 00000000 		.word	0
 468 0028 00000000 		.word	0
 469 002c 00000000 		.word	0
 470 0030 00000000 		.word	0
 471 0034 00000000 		.word	0
 472 0038 00000000 		.word	0
 473 003c 00000000 		.word	0
 474 0040 00000000 		.word	0
 475 0044 00000000 		.word	0
 476 0048 00000000 		.word	0
 477 004c 00000000 		.word	0
 478 0050 00000000 		.word	0
 479 0054 00000000 		.word	0
 480 0058 00000000 		.word	0
 481 005c 00000000 		.word	0
 482 0060 00000000 		.word	0
 483 0064 00000000 		.word	0
 484 0068 00000000 		.word	0
 485 006c 00000000 		.word	0
 486 0070 00000000 		.word	0
 487 0074 00000000 		.word	0
 488 0078 35000000 		.word	53
 489 007c 00000000 		.word	gpio_exti_callback
 490 0080 00000000 		.word	0
 491 0084 00000000 		.word	0
 492 0088 00000000 		.word	0
 493 008c 00000000 		.word	0
 494 0090 00000000 		.word	0
 495 0094 00000000 		.word	0
 496 0098 00000000 		.word	0
 497 009c 00000000 		.word	0
 498 00a0 00000000 		.word	0
 499 00a4 00000000 		.word	0
 500 00a8 00000000 		.word	0
 501 00ac 00000000 		.word	0
 502 00b0 00000000 		.word	0
 503 00b4 00000000 		.word	0
 504              		.section	.text.exti_start,"ax",%progbits
 505              		.align	1
 506              		.p2align 4,,15
 507              		.global	exti_start
 508              		.syntax unified
 509              		.thumb
 510              		.thumb_func
 511              		.fpu fpv4-sp-d16
 512              		.type	exti_start, %function
 513              	exti_start:
ARM GAS  C:\Users\PCHAUT~1\AppData\Local\Temp\ccvzGcEd.s 			page 10


 514              	.LFB257:
 515              		.loc 5 61 0
 516              		.cfi_startproc
 517              		@ args = 0, pretend = 0, frame = 8
 518              		@ frame_needed = 0, uses_anonymous_args = 0
 519 0000 00B5     		push	{lr}
 520              		.cfi_def_cfa_offset 4
 521              		.cfi_offset 14, -4
 522 0002 83B0     		sub	sp, sp, #12
 523              		.cfi_def_cfa_offset 16
 524              		.loc 5 61 0
 525 0004 0A4B     		ldr	r3, .L38
 526 0006 1B68     		ldr	r3, [r3]
 527 0008 0193     		str	r3, [sp, #4]
 528              		.loc 5 62 0
 529 000a 0A48     		ldr	r0, .L38+4
 530 000c FFF7FEFF 		bl	chEvtObjectInit
 531              		.loc 5 63 0
 532 0010 0949     		ldr	r1, .L38+8
 533 0012 0A48     		ldr	r0, .L38+12
 534 0014 FFF7FEFF 		bl	extStart
 535              		.loc 5 64 0
 536 0018 00BF     		nop
 537 001a 054B     		ldr	r3, .L38
 538 001c 019A     		ldr	r2, [sp, #4]
 539 001e 1B68     		ldr	r3, [r3]
 540 0020 9A42     		cmp	r2, r3
 541 0022 01D0     		beq	.L37
 542 0024 FFF7FEFF 		bl	__stack_chk_fail
 543              	.L37:
 544 0028 03B0     		add	sp, sp, #12
 545              		.cfi_def_cfa_offset 4
 546              		@ sp needed
 547 002a 5DF804FB 		ldr	pc, [sp], #4
 548              	.L39:
 549 002e 00BF     		.align	2
 550              	.L38:
 551 0030 00000000 		.word	__stack_chk_guard
 552 0034 00000000 		.word	exti_events
 553 0038 00000000 		.word	extcfg
 554 003c 00000000 		.word	EXTD1
 555              		.cfi_endproc
 556              	.LFE257:
 557              		.size	exti_start, .-exti_start
 558              		.section	.text.exti_disable_ir_remote,"ax",%progbits
 559              		.align	1
 560              		.p2align 4,,15
 561              		.global	exti_disable_ir_remote
 562              		.syntax unified
 563              		.thumb
 564              		.thumb_func
 565              		.fpu fpv4-sp-d16
 566              		.type	exti_disable_ir_remote, %function
 567              	exti_disable_ir_remote:
 568              	.LFB258:
 569              		.loc 5 66 0
 570              		.cfi_startproc
ARM GAS  C:\Users\PCHAUT~1\AppData\Local\Temp\ccvzGcEd.s 			page 11


 571              		@ args = 0, pretend = 0, frame = 8
 572              		@ frame_needed = 0, uses_anonymous_args = 0
 573 0000 00B5     		push	{lr}
 574              		.cfi_def_cfa_offset 4
 575              		.cfi_offset 14, -4
 576 0002 83B0     		sub	sp, sp, #12
 577              		.cfi_def_cfa_offset 16
 578              		.loc 5 66 0
 579 0004 084B     		ldr	r3, .L42
 580 0006 1B68     		ldr	r3, [r3]
 581 0008 0193     		str	r3, [sp, #4]
 582              		.loc 5 67 0
 583 000a 0321     		movs	r1, #3
 584 000c 0748     		ldr	r0, .L42+4
 585 000e FFF7FEFF 		bl	ext_lld_channel_disable
 586              		.loc 5 68 0
 587 0012 00BF     		nop
 588 0014 044B     		ldr	r3, .L42
 589 0016 019A     		ldr	r2, [sp, #4]
 590 0018 1B68     		ldr	r3, [r3]
 591 001a 9A42     		cmp	r2, r3
 592 001c 01D0     		beq	.L41
 593 001e FFF7FEFF 		bl	__stack_chk_fail
 594              	.L41:
 595 0022 03B0     		add	sp, sp, #12
 596              		.cfi_def_cfa_offset 4
 597              		@ sp needed
 598 0024 5DF804FB 		ldr	pc, [sp], #4
 599              	.L43:
 600              		.align	2
 601              	.L42:
 602 0028 00000000 		.word	__stack_chk_guard
 603 002c 00000000 		.word	EXTD1
 604              		.cfi_endproc
 605              	.LFE258:
 606              		.size	exti_disable_ir_remote, .-exti_disable_ir_remote
 607              		.section	.text.exti_enable_ir_remote,"ax",%progbits
 608              		.align	1
 609              		.p2align 4,,15
 610              		.global	exti_enable_ir_remote
 611              		.syntax unified
 612              		.thumb
 613              		.thumb_func
 614              		.fpu fpv4-sp-d16
 615              		.type	exti_enable_ir_remote, %function
 616              	exti_enable_ir_remote:
 617              	.LFB259:
 618              		.loc 5 70 0
 619              		.cfi_startproc
 620              		@ args = 0, pretend = 0, frame = 8
 621              		@ frame_needed = 0, uses_anonymous_args = 0
 622 0000 00B5     		push	{lr}
 623              		.cfi_def_cfa_offset 4
 624              		.cfi_offset 14, -4
 625 0002 83B0     		sub	sp, sp, #12
 626              		.cfi_def_cfa_offset 16
 627              		.loc 5 70 0
ARM GAS  C:\Users\PCHAUT~1\AppData\Local\Temp\ccvzGcEd.s 			page 12


 628 0004 084B     		ldr	r3, .L46
 629 0006 1B68     		ldr	r3, [r3]
 630 0008 0193     		str	r3, [sp, #4]
 631              		.loc 5 71 0
 632 000a 0321     		movs	r1, #3
 633 000c 0748     		ldr	r0, .L46+4
 634 000e FFF7FEFF 		bl	ext_lld_channel_enable
 635              		.loc 5 72 0
 636 0012 00BF     		nop
 637 0014 044B     		ldr	r3, .L46
 638 0016 019A     		ldr	r2, [sp, #4]
 639 0018 1B68     		ldr	r3, [r3]
 640 001a 9A42     		cmp	r2, r3
 641 001c 01D0     		beq	.L45
 642 001e FFF7FEFF 		bl	__stack_chk_fail
 643              	.L45:
 644 0022 03B0     		add	sp, sp, #12
 645              		.cfi_def_cfa_offset 4
 646              		@ sp needed
 647 0024 5DF804FB 		ldr	pc, [sp], #4
 648              	.L47:
 649              		.align	2
 650              	.L46:
 651 0028 00000000 		.word	__stack_chk_guard
 652 002c 00000000 		.word	EXTD1
 653              		.cfi_endproc
 654              	.LFE259:
 655              		.size	exti_enable_ir_remote, .-exti_enable_ir_remote
 656              		.text
 657              	.Letext0:
 658              		.file 6 "c:\\users\\pchautems\\documents\\robotiquetp\\eclipse_e-puck2\\tools\\gcc-arm-none-eabi-7
 659              		.file 7 "c:\\users\\pchautems\\documents\\robotiquetp\\eclipse_e-puck2\\tools\\gcc-arm-none-eabi-7
 660              		.file 8 "c:\\users\\pchautems\\documents\\robotiquetp\\eclipse_e-puck2\\tools\\gcc-arm-none-eabi-7
 661              		.file 9 "../lib/e-puck2_main-processor/ChibiOS//os/rt/ports/ARMCMx/compilers/GCC/chtypes.h"
 662              		.file 10 "../lib/e-puck2_main-processor/ChibiOS//os/rt/include/chsystypes.h"
 663              		.file 11 "../lib/e-puck2_main-processor/ChibiOS//os/rt/include/chschd.h"
 664              		.file 12 "../lib/e-puck2_main-processor/ChibiOS//os/ext/CMSIS/include/core_cm4.h"
 665              		.file 13 "../lib/e-puck2_main-processor/ChibiOS//os/ext/CMSIS/ST/system_stm32f4xx.h"
 666              		.file 14 "../lib/e-puck2_main-processor/ChibiOS//os/ext/CMSIS/ST/stm32f407xx.h"
 667              		.file 15 "../lib/e-puck2_main-processor/ChibiOS//os/rt/ports/ARMCMx/chcore.h"
 668              		.file 16 "../lib/e-puck2_main-processor/ChibiOS//os/rt/include/chdebug.h"
 669              		.file 17 "../lib/e-puck2_main-processor/ChibiOS//os/rt/include/chtm.h"
 670              		.file 18 "../lib/e-puck2_main-processor/ChibiOS//os/rt/include/chstats.h"
 671              		.file 19 "../lib/e-puck2_main-processor/ChibiOS//os/rt/include/chsem.h"
 672              		.file 20 "../lib/e-puck2_main-processor/ChibiOS//os/rt/include/chmtx.h"
 673              		.file 21 "../lib/e-puck2_main-processor/ChibiOS//os/rt/include/chregistry.h"
 674              		.file 22 "../lib/e-puck2_main-processor/ChibiOS//os/rt/include/chqueues.h"
 675              		.file 23 "../lib/e-puck2_main-processor/ChibiOS//os/hal/ports/STM32/STM32F4xx/stm32_dma.h"
 676              		.file 24 "../lib/e-puck2_main-processor/ChibiOS//os/hal/include/hal_ioblock.h"
 677              		.file 25 "../lib/e-puck2_main-processor/ChibiOS//os/hal/ports/STM32/LLD/GPIOv2/pal_lld.h"
 678              		.file 26 "../lib/e-puck2_main-processor/ChibiOS//os/hal/include/adc.h"
 679              		.file 27 "../lib/e-puck2_main-processor/ChibiOS//os/hal/ports/STM32/STM32F4xx/adc_lld.h"
 680              		.file 28 "../lib/e-puck2_main-processor/ChibiOS//os/hal/include/can.h"
 681              		.file 29 "../lib/e-puck2_main-processor/ChibiOS//os/hal/ports/STM32/LLD/can_lld.h"
 682              		.file 30 "../lib/e-puck2_main-processor/ChibiOS//os/hal/include/dac.h"
 683              		.file 31 "../lib/e-puck2_main-processor/ChibiOS//os/hal/ports/STM32/LLD/DACv1/dac_lld.h"
 684              		.file 32 "../lib/e-puck2_main-processor/ChibiOS//os/hal/include/ext.h"
ARM GAS  C:\Users\PCHAUT~1\AppData\Local\Temp\ccvzGcEd.s 			page 13


 685              		.file 33 "../lib/e-puck2_main-processor/ChibiOS//os/hal/ports/STM32/LLD/ext_lld.h"
 686              		.file 34 "../lib/e-puck2_main-processor/ChibiOS//os/hal/include/gpt.h"
 687              		.file 35 "../lib/e-puck2_main-processor/ChibiOS//os/hal/ports/STM32/LLD/TIMv1/gpt_lld.h"
 688              		.file 36 "../lib/e-puck2_main-processor/ChibiOS//os/hal/ports/STM32/LLD/TIMv1/stm32_tim.h"
 689              		.file 37 "../lib/e-puck2_main-processor/ChibiOS//os/hal/include/i2c.h"
 690              		.file 38 "../lib/e-puck2_main-processor/ChibiOS//os/hal/ports/STM32/LLD/I2Cv1/i2c_lld.h"
 691              		.file 39 "../lib/e-puck2_main-processor/ChibiOS//os/hal/include/i2s.h"
 692              		.file 40 "../lib/e-puck2_main-processor/ChibiOS//os/hal/ports/STM32/LLD/SPIv1/i2s_lld.h"
 693              		.file 41 "../lib/e-puck2_main-processor/ChibiOS//os/hal/include/pwm.h"
 694              		.file 42 "../lib/e-puck2_main-processor/ChibiOS//os/hal/ports/STM32/LLD/TIMv1/pwm_lld.h"
 695              		.file 43 "../lib/e-puck2_main-processor/ChibiOS//os/hal/include/serial.h"
 696              		.file 44 "../lib/e-puck2_main-processor/ChibiOS//os/hal/ports/STM32/LLD/USARTv1/serial_lld.h"
 697              		.file 45 "../lib/e-puck2_main-processor/ChibiOS//os/hal/include/sdc.h"
 698              		.file 46 "../lib/e-puck2_main-processor/ChibiOS//os/hal/ports/STM32/LLD/sdc_lld.h"
 699              		.file 47 "../lib/e-puck2_main-processor/ChibiOS//os/hal/include/spi.h"
 700              		.file 48 "../lib/e-puck2_main-processor/ChibiOS//os/hal/ports/STM32/LLD/SPIv1/spi_lld.h"
 701              		.file 49 "../lib/e-puck2_main-processor/ChibiOS//os/hal/include/usb.h"
 702              		.file 50 "../lib/e-puck2_main-processor/ChibiOS//os/hal/ports/STM32/LLD/OTGv1/usb_lld.h"
 703              		.file 51 "../lib/e-puck2_main-processor/ChibiOS//os/hal/ports/STM32/LLD/OTGv1/stm32_otg.h"
 704              		.file 52 "../lib/e-puck2_main-processor/src/exti.h"