ARM GAS  C:\Users\PCHAUT~1\AppData\Local\Temp\cc7eyx8q.s 			page 1


   1              		.cpu cortex-m4
   2              		.eabi_attribute 27, 1
   3              		.eabi_attribute 28, 1
   4              		.eabi_attribute 20, 1
   5              		.eabi_attribute 21, 1
   6              		.eabi_attribute 23, 3
   7              		.eabi_attribute 24, 1
   8              		.eabi_attribute 25, 1
   9              		.eabi_attribute 26, 1
  10              		.eabi_attribute 30, 6
  11              		.eabi_attribute 34, 1
  12              		.eabi_attribute 18, 4
  13              		.file	"fatfs_diskio.c"
  14              		.text
  15              	.Ltext0:
  16              		.cfi_sections	.debug_frame
  17              		.section	.text.disk_initialize,"ax",%progbits
  18              		.align	1
  19              		.p2align 4,,15
  20              		.global	disk_initialize
  21              		.syntax unified
  22              		.thumb
  23              		.thumb_func
  24              		.fpu fpv4-sp-d16
  25              		.type	disk_initialize, %function
  26              	disk_initialize:
  27              	.LFB256:
  28              		.file 1 "../lib/e-puck2_main-processor/ChibiOS//os/various/fatfs_bindings/fatfs_diskio.c"
  29              		.loc 1 42 0
  30              		.cfi_startproc
  31              		@ args = 0, pretend = 0, frame = 16
  32              		@ frame_needed = 0, uses_anonymous_args = 0
  33 0000 00B5     		push	{lr}
  34              		.cfi_def_cfa_offset 4
  35              		.cfi_offset 14, -4
  36 0002 85B0     		sub	sp, sp, #20
  37              		.cfi_def_cfa_offset 24
  38 0004 0346     		mov	r3, r0
  39 0006 8DF80730 		strb	r3, [sp, #7]
  40              		.loc 1 42 0
  41 000a 174B     		ldr	r3, .L9
  42 000c 1B68     		ldr	r3, [r3]
  43 000e 0393     		str	r3, [sp, #12]
  44              		.loc 1 45 0
  45 0010 9DF80730 		ldrb	r3, [sp, #7]	@ zero_extendqisi2
  46 0014 002B     		cmp	r3, #0
  47 0016 1BD1     		bne	.L8
  48              		.loc 1 57 0
  49 0018 0023     		movs	r3, #0
  50 001a 8DF80B30 		strb	r3, [sp, #11]
  51              		.loc 1 59 0
  52 001e 134B     		ldr	r3, .L9+4
  53 0020 1B79     		ldrb	r3, [r3, #4]	@ zero_extendqisi2
  54 0022 052B     		cmp	r3, #5
  55 0024 05D0     		beq	.L4
  56              		.loc 1 60 0
  57 0026 9DF80B30 		ldrb	r3, [sp, #11]
ARM GAS  C:\Users\PCHAUT~1\AppData\Local\Temp\cc7eyx8q.s 			page 2


  58 002a 43F00103 		orr	r3, r3, #1
  59 002e 8DF80B30 		strb	r3, [sp, #11]
  60              	.L4:
  61              		.loc 1 61 0
  62 0032 0E48     		ldr	r0, .L9+4
  63 0034 FFF7FEFF 		bl	sdc_lld_is_write_protected
  64 0038 0346     		mov	r3, r0
  65 003a 002B     		cmp	r3, #0
  66 003c 05D0     		beq	.L5
  67              		.loc 1 62 0
  68 003e 9DF80B30 		ldrb	r3, [sp, #11]
  69 0042 43F00403 		orr	r3, r3, #4
  70 0046 8DF80B30 		strb	r3, [sp, #11]
  71              	.L5:
  72              		.loc 1 63 0
  73 004a 9DF80B30 		ldrb	r3, [sp, #11]	@ zero_extendqisi2
  74 004e 00E0     		b	.L6
  75              	.L8:
  76              		.loc 1 66 0
  77 0050 0123     		movs	r3, #1
  78              	.L6:
  79              		.loc 1 67 0
  80 0052 1846     		mov	r0, r3
  81 0054 044B     		ldr	r3, .L9
  82 0056 039A     		ldr	r2, [sp, #12]
  83 0058 1B68     		ldr	r3, [r3]
  84 005a 9A42     		cmp	r2, r3
  85 005c 01D0     		beq	.L7
  86 005e FFF7FEFF 		bl	__stack_chk_fail
  87              	.L7:
  88 0062 05B0     		add	sp, sp, #20
  89              		.cfi_def_cfa_offset 4
  90              		@ sp needed
  91 0064 5DF804FB 		ldr	pc, [sp], #4
  92              	.L10:
  93              		.align	2
  94              	.L9:
  95 0068 00000000 		.word	__stack_chk_guard
  96 006c 00000000 		.word	SDCD1
  97              		.cfi_endproc
  98              	.LFE256:
  99              		.size	disk_initialize, .-disk_initialize
 100              		.section	.text.disk_status,"ax",%progbits
 101              		.align	1
 102              		.p2align 4,,15
 103              		.global	disk_status
 104              		.syntax unified
 105              		.thumb
 106              		.thumb_func
 107              		.fpu fpv4-sp-d16
 108              		.type	disk_status, %function
 109              	disk_status:
 110              	.LFB257:
 111              		.loc 1 77 0
 112              		.cfi_startproc
 113              		@ args = 0, pretend = 0, frame = 16
 114              		@ frame_needed = 0, uses_anonymous_args = 0
ARM GAS  C:\Users\PCHAUT~1\AppData\Local\Temp\cc7eyx8q.s 			page 3


 115 0000 00B5     		push	{lr}
 116              		.cfi_def_cfa_offset 4
 117              		.cfi_offset 14, -4
 118 0002 85B0     		sub	sp, sp, #20
 119              		.cfi_def_cfa_offset 24
 120 0004 0346     		mov	r3, r0
 121 0006 8DF80730 		strb	r3, [sp, #7]
 122              		.loc 1 77 0
 123 000a 174B     		ldr	r3, .L19
 124 000c 1B68     		ldr	r3, [r3]
 125 000e 0393     		str	r3, [sp, #12]
 126              		.loc 1 80 0
 127 0010 9DF80730 		ldrb	r3, [sp, #7]	@ zero_extendqisi2
 128 0014 002B     		cmp	r3, #0
 129 0016 1BD1     		bne	.L18
 130              		.loc 1 92 0
 131 0018 0023     		movs	r3, #0
 132 001a 8DF80B30 		strb	r3, [sp, #11]
 133              		.loc 1 94 0
 134 001e 134B     		ldr	r3, .L19+4
 135 0020 1B79     		ldrb	r3, [r3, #4]	@ zero_extendqisi2
 136 0022 052B     		cmp	r3, #5
 137 0024 05D0     		beq	.L14
 138              		.loc 1 95 0
 139 0026 9DF80B30 		ldrb	r3, [sp, #11]
 140 002a 43F00103 		orr	r3, r3, #1
 141 002e 8DF80B30 		strb	r3, [sp, #11]
 142              	.L14:
 143              		.loc 1 96 0
 144 0032 0E48     		ldr	r0, .L19+4
 145 0034 FFF7FEFF 		bl	sdc_lld_is_write_protected
 146 0038 0346     		mov	r3, r0
 147 003a 002B     		cmp	r3, #0
 148 003c 05D0     		beq	.L15
 149              		.loc 1 97 0
 150 003e 9DF80B30 		ldrb	r3, [sp, #11]
 151 0042 43F00403 		orr	r3, r3, #4
 152 0046 8DF80B30 		strb	r3, [sp, #11]
 153              	.L15:
 154              		.loc 1 98 0
 155 004a 9DF80B30 		ldrb	r3, [sp, #11]	@ zero_extendqisi2
 156 004e 00E0     		b	.L16
 157              	.L18:
 158              		.loc 1 101 0
 159 0050 0123     		movs	r3, #1
 160              	.L16:
 161              		.loc 1 102 0
 162 0052 1846     		mov	r0, r3
 163 0054 044B     		ldr	r3, .L19
 164 0056 039A     		ldr	r2, [sp, #12]
 165 0058 1B68     		ldr	r3, [r3]
 166 005a 9A42     		cmp	r2, r3
 167 005c 01D0     		beq	.L17
 168 005e FFF7FEFF 		bl	__stack_chk_fail
 169              	.L17:
 170 0062 05B0     		add	sp, sp, #20
 171              		.cfi_def_cfa_offset 4
ARM GAS  C:\Users\PCHAUT~1\AppData\Local\Temp\cc7eyx8q.s 			page 4


 172              		@ sp needed
 173 0064 5DF804FB 		ldr	pc, [sp], #4
 174              	.L20:
 175              		.align	2
 176              	.L19:
 177 0068 00000000 		.word	__stack_chk_guard
 178 006c 00000000 		.word	SDCD1
 179              		.cfi_endproc
 180              	.LFE257:
 181              		.size	disk_status, .-disk_status
 182              		.section	.text.disk_read,"ax",%progbits
 183              		.align	1
 184              		.p2align 4,,15
 185              		.global	disk_read
 186              		.syntax unified
 187              		.thumb
 188              		.thumb_func
 189              		.fpu fpv4-sp-d16
 190              		.type	disk_read, %function
 191              	disk_read:
 192              	.LFB258:
 193              		.loc 1 115 0
 194              		.cfi_startproc
 195              		@ args = 0, pretend = 0, frame = 24
 196              		@ frame_needed = 0, uses_anonymous_args = 0
 197 0000 00B5     		push	{lr}
 198              		.cfi_def_cfa_offset 4
 199              		.cfi_offset 14, -4
 200 0002 87B0     		sub	sp, sp, #28
 201              		.cfi_def_cfa_offset 32
 202 0004 0291     		str	r1, [sp, #8]
 203 0006 0192     		str	r2, [sp, #4]
 204 0008 0093     		str	r3, [sp]
 205 000a 0346     		mov	r3, r0
 206 000c 8DF80F30 		strb	r3, [sp, #15]
 207              		.loc 1 115 0
 208 0010 124B     		ldr	r3, .L29
 209 0012 1B68     		ldr	r3, [r3]
 210 0014 0593     		str	r3, [sp, #20]
 211              		.loc 1 116 0
 212 0016 9DF80F30 		ldrb	r3, [sp, #15]	@ zero_extendqisi2
 213 001a 002B     		cmp	r3, #0
 214 001c 12D1     		bne	.L28
 215              		.loc 1 134 0
 216 001e 104B     		ldr	r3, .L29+4
 217 0020 1B79     		ldrb	r3, [r3, #4]	@ zero_extendqisi2
 218 0022 052B     		cmp	r3, #5
 219 0024 01D0     		beq	.L24
 220              		.loc 1 135 0
 221 0026 0323     		movs	r3, #3
 222 0028 0DE0     		b	.L25
 223              	.L24:
 224              		.loc 1 136 0
 225 002a 009B     		ldr	r3, [sp]
 226 002c 029A     		ldr	r2, [sp, #8]
 227 002e 0199     		ldr	r1, [sp, #4]
 228 0030 0B48     		ldr	r0, .L29+4
ARM GAS  C:\Users\PCHAUT~1\AppData\Local\Temp\cc7eyx8q.s 			page 5


 229 0032 FFF7FEFF 		bl	sdcRead
 230 0036 0346     		mov	r3, r0
 231 0038 002B     		cmp	r3, #0
 232 003a 01D0     		beq	.L26
 233              		.loc 1 137 0
 234 003c 0123     		movs	r3, #1
 235 003e 02E0     		b	.L25
 236              	.L26:
 237              		.loc 1 138 0
 238 0040 0023     		movs	r3, #0
 239 0042 00E0     		b	.L25
 240              	.L28:
 241              		.loc 1 141 0
 242 0044 0423     		movs	r3, #4
 243              	.L25:
 244              		.loc 1 142 0
 245 0046 1846     		mov	r0, r3
 246 0048 044B     		ldr	r3, .L29
 247 004a 059A     		ldr	r2, [sp, #20]
 248 004c 1B68     		ldr	r3, [r3]
 249 004e 9A42     		cmp	r2, r3
 250 0050 01D0     		beq	.L27
 251 0052 FFF7FEFF 		bl	__stack_chk_fail
 252              	.L27:
 253 0056 07B0     		add	sp, sp, #28
 254              		.cfi_def_cfa_offset 4
 255              		@ sp needed
 256 0058 5DF804FB 		ldr	pc, [sp], #4
 257              	.L30:
 258              		.align	2
 259              	.L29:
 260 005c 00000000 		.word	__stack_chk_guard
 261 0060 00000000 		.word	SDCD1
 262              		.cfi_endproc
 263              	.LFE258:
 264              		.size	disk_read, .-disk_read
 265              		.section	.text.disk_write,"ax",%progbits
 266              		.align	1
 267              		.p2align 4,,15
 268              		.global	disk_write
 269              		.syntax unified
 270              		.thumb
 271              		.thumb_func
 272              		.fpu fpv4-sp-d16
 273              		.type	disk_write, %function
 274              	disk_write:
 275              	.LFB259:
 276              		.loc 1 156 0
 277              		.cfi_startproc
 278              		@ args = 0, pretend = 0, frame = 24
 279              		@ frame_needed = 0, uses_anonymous_args = 0
 280 0000 00B5     		push	{lr}
 281              		.cfi_def_cfa_offset 4
 282              		.cfi_offset 14, -4
 283 0002 87B0     		sub	sp, sp, #28
 284              		.cfi_def_cfa_offset 32
 285 0004 0291     		str	r1, [sp, #8]
ARM GAS  C:\Users\PCHAUT~1\AppData\Local\Temp\cc7eyx8q.s 			page 6


 286 0006 0192     		str	r2, [sp, #4]
 287 0008 0093     		str	r3, [sp]
 288 000a 0346     		mov	r3, r0
 289 000c 8DF80F30 		strb	r3, [sp, #15]
 290              		.loc 1 156 0
 291 0010 124B     		ldr	r3, .L39
 292 0012 1B68     		ldr	r3, [r3]
 293 0014 0593     		str	r3, [sp, #20]
 294              		.loc 1 157 0
 295 0016 9DF80F30 		ldrb	r3, [sp, #15]	@ zero_extendqisi2
 296 001a 002B     		cmp	r3, #0
 297 001c 12D1     		bne	.L38
 298              		.loc 1 177 0
 299 001e 104B     		ldr	r3, .L39+4
 300 0020 1B79     		ldrb	r3, [r3, #4]	@ zero_extendqisi2
 301 0022 052B     		cmp	r3, #5
 302 0024 01D0     		beq	.L34
 303              		.loc 1 178 0
 304 0026 0323     		movs	r3, #3
 305 0028 0DE0     		b	.L35
 306              	.L34:
 307              		.loc 1 179 0
 308 002a 009B     		ldr	r3, [sp]
 309 002c 029A     		ldr	r2, [sp, #8]
 310 002e 0199     		ldr	r1, [sp, #4]
 311 0030 0B48     		ldr	r0, .L39+4
 312 0032 FFF7FEFF 		bl	sdcWrite
 313 0036 0346     		mov	r3, r0
 314 0038 002B     		cmp	r3, #0
 315 003a 01D0     		beq	.L36
 316              		.loc 1 180 0
 317 003c 0123     		movs	r3, #1
 318 003e 02E0     		b	.L35
 319              	.L36:
 320              		.loc 1 181 0
 321 0040 0023     		movs	r3, #0
 322 0042 00E0     		b	.L35
 323              	.L38:
 324              		.loc 1 184 0
 325 0044 0423     		movs	r3, #4
 326              	.L35:
 327              		.loc 1 185 0
 328 0046 1846     		mov	r0, r3
 329 0048 044B     		ldr	r3, .L39
 330 004a 059A     		ldr	r2, [sp, #20]
 331 004c 1B68     		ldr	r3, [r3]
 332 004e 9A42     		cmp	r2, r3
 333 0050 01D0     		beq	.L37
 334 0052 FFF7FEFF 		bl	__stack_chk_fail
 335              	.L37:
 336 0056 07B0     		add	sp, sp, #28
 337              		.cfi_def_cfa_offset 4
 338              		@ sp needed
 339 0058 5DF804FB 		ldr	pc, [sp], #4
 340              	.L40:
 341              		.align	2
 342              	.L39:
ARM GAS  C:\Users\PCHAUT~1\AppData\Local\Temp\cc7eyx8q.s 			page 7


 343 005c 00000000 		.word	__stack_chk_guard
 344 0060 00000000 		.word	SDCD1
 345              		.cfi_endproc
 346              	.LFE259:
 347              		.size	disk_write, .-disk_write
 348              		.section	.text.disk_ioctl,"ax",%progbits
 349              		.align	1
 350              		.p2align 4,,15
 351              		.global	disk_ioctl
 352              		.syntax unified
 353              		.thumb
 354              		.thumb_func
 355              		.fpu fpv4-sp-d16
 356              		.type	disk_ioctl, %function
 357              	disk_ioctl:
 358              	.LFB260:
 359              		.loc 1 199 0
 360              		.cfi_startproc
 361              		@ args = 0, pretend = 0, frame = 16
 362              		@ frame_needed = 0, uses_anonymous_args = 0
 363 0000 00B5     		push	{lr}
 364              		.cfi_def_cfa_offset 4
 365              		.cfi_offset 14, -4
 366 0002 85B0     		sub	sp, sp, #20
 367              		.cfi_def_cfa_offset 24
 368 0004 0346     		mov	r3, r0
 369 0006 0092     		str	r2, [sp]
 370 0008 8DF80730 		strb	r3, [sp, #7]
 371 000c 0B46     		mov	r3, r1
 372 000e 8DF80630 		strb	r3, [sp, #6]
 373              		.loc 1 199 0
 374 0012 234B     		ldr	r3, .L54
 375 0014 1B68     		ldr	r3, [r3]
 376 0016 0393     		str	r3, [sp, #12]
 377              		.loc 1 200 0
 378 0018 9DF80730 		ldrb	r3, [sp, #7]	@ zero_extendqisi2
 379 001c 002B     		cmp	r3, #0
 380 001e 32D1     		bne	.L53
 381              		.loc 1 219 0
 382 0020 9DF80630 		ldrb	r3, [sp, #6]	@ zero_extendqisi2
 383 0024 042B     		cmp	r3, #4
 384 0026 2CD8     		bhi	.L44
 385 0028 01A2     		adr	r2, .L46
 386 002a 52F823F0 		ldr	pc, [r2, r3, lsl #2]
 387 002e 00BF     		.p2align 2
 388              	.L46:
 389 0030 45000000 		.word	.L45+1
 390 0034 49000000 		.word	.L47+1
 391 0038 55000000 		.word	.L48+1
 392 003c 61000000 		.word	.L49+1
 393 0040 6D000000 		.word	.L50+1
 394              		.p2align 1
 395              	.L45:
 396              		.loc 1 221 0
 397 0044 0023     		movs	r3, #0
 398 0046 1FE0     		b	.L51
 399              	.L47:
ARM GAS  C:\Users\PCHAUT~1\AppData\Local\Temp\cc7eyx8q.s 			page 8


 400              		.loc 1 223 0
 401 0048 164B     		ldr	r3, .L54+4
 402 004a 9A6A     		ldr	r2, [r3, #40]
 403 004c 009B     		ldr	r3, [sp]
 404 004e 1A60     		str	r2, [r3]
 405              		.loc 1 224 0
 406 0050 0023     		movs	r3, #0
 407 0052 19E0     		b	.L51
 408              	.L48:
 409              		.loc 1 226 0
 410 0054 009B     		ldr	r3, [sp]
 411 0056 4FF40072 		mov	r2, #512
 412 005a 1A80     		strh	r2, [r3]	@ movhi
 413              		.loc 1 227 0
 414 005c 0023     		movs	r3, #0
 415 005e 13E0     		b	.L51
 416              	.L49:
 417              		.loc 1 229 0
 418 0060 009B     		ldr	r3, [sp]
 419 0062 4FF48072 		mov	r2, #256
 420 0066 1A60     		str	r2, [r3]
 421              		.loc 1 230 0
 422 0068 0023     		movs	r3, #0
 423 006a 0DE0     		b	.L51
 424              	.L50:
 425              		.loc 1 233 0
 426 006c 009B     		ldr	r3, [sp]
 427 006e 1968     		ldr	r1, [r3]
 428 0070 009B     		ldr	r3, [sp]
 429 0072 0433     		adds	r3, r3, #4
 430 0074 1B68     		ldr	r3, [r3]
 431 0076 1A46     		mov	r2, r3
 432 0078 0A48     		ldr	r0, .L54+4
 433 007a FFF7FEFF 		bl	sdcErase
 434              		.loc 1 234 0
 435 007e 0023     		movs	r3, #0
 436 0080 02E0     		b	.L51
 437              	.L44:
 438              		.loc 1 237 0
 439 0082 0423     		movs	r3, #4
 440 0084 00E0     		b	.L51
 441              	.L53:
 442              		.loc 1 241 0
 443 0086 0423     		movs	r3, #4
 444              	.L51:
 445              		.loc 1 242 0
 446 0088 1846     		mov	r0, r3
 447 008a 054B     		ldr	r3, .L54
 448 008c 039A     		ldr	r2, [sp, #12]
 449 008e 1B68     		ldr	r3, [r3]
 450 0090 9A42     		cmp	r2, r3
 451 0092 01D0     		beq	.L52
 452 0094 FFF7FEFF 		bl	__stack_chk_fail
 453              	.L52:
 454 0098 05B0     		add	sp, sp, #20
 455              		.cfi_def_cfa_offset 4
 456              		@ sp needed
ARM GAS  C:\Users\PCHAUT~1\AppData\Local\Temp\cc7eyx8q.s 			page 9


 457 009a 5DF804FB 		ldr	pc, [sp], #4
 458              	.L55:
 459 009e 00BF     		.align	2
 460              	.L54:
 461 00a0 00000000 		.word	__stack_chk_guard
 462 00a4 00000000 		.word	SDCD1
 463              		.cfi_endproc
 464              	.LFE260:
 465              		.size	disk_ioctl, .-disk_ioctl
 466              		.section	.text.get_fattime,"ax",%progbits
 467              		.align	1
 468              		.p2align 4,,15
 469              		.global	get_fattime
 470              		.syntax unified
 471              		.thumb
 472              		.thumb_func
 473              		.fpu fpv4-sp-d16
 474              		.type	get_fattime, %function
 475              	get_fattime:
 476              	.LFB261:
 477              		.loc 1 245 0
 478              		.cfi_startproc
 479              		@ args = 0, pretend = 0, frame = 8
 480              		@ frame_needed = 0, uses_anonymous_args = 0
 481 0000 00B5     		push	{lr}
 482              		.cfi_def_cfa_offset 4
 483              		.cfi_offset 14, -4
 484 0002 83B0     		sub	sp, sp, #12
 485              		.cfi_def_cfa_offset 16
 486              		.loc 1 245 0
 487 0004 074B     		ldr	r3, .L59
 488 0006 1B68     		ldr	r3, [r3]
 489 0008 0193     		str	r3, [sp, #4]
 490              		.loc 1 252 0
 491 000a 4FF40413 		mov	r3, #2162688
 492              		.loc 1 254 0
 493 000e 1846     		mov	r0, r3
 494 0010 044B     		ldr	r3, .L59
 495 0012 019A     		ldr	r2, [sp, #4]
 496 0014 1B68     		ldr	r3, [r3]
 497 0016 9A42     		cmp	r2, r3
 498 0018 01D0     		beq	.L58
 499 001a FFF7FEFF 		bl	__stack_chk_fail
 500              	.L58:
 501 001e 03B0     		add	sp, sp, #12
 502              		.cfi_def_cfa_offset 4
 503              		@ sp needed
 504 0020 5DF804FB 		ldr	pc, [sp], #4
 505              	.L60:
 506              		.align	2
 507              	.L59:
 508 0024 00000000 		.word	__stack_chk_guard
 509              		.cfi_endproc
 510              	.LFE261:
 511              		.size	get_fattime, .-get_fattime
 512              		.text
 513              	.Letext0:
ARM GAS  C:\Users\PCHAUT~1\AppData\Local\Temp\cc7eyx8q.s 			page 10


 514              		.file 2 "c:\\users\\pchautems\\documents\\robotiquetp\\eclipse_e-puck2\\tools\\gcc-arm-none-eabi-7
 515              		.file 3 "c:\\users\\pchautems\\documents\\robotiquetp\\eclipse_e-puck2\\tools\\gcc-arm-none-eabi-7
 516              		.file 4 "c:\\users\\pchautems\\documents\\robotiquetp\\eclipse_e-puck2\\tools\\gcc-arm-none-eabi-7
 517              		.file 5 "../lib/e-puck2_main-processor/ChibiOS//os/rt/ports/ARMCMx/compilers/GCC/chtypes.h"
 518              		.file 6 "../lib/e-puck2_main-processor/ChibiOS//os/rt/include/chsystypes.h"
 519              		.file 7 "../lib/e-puck2_main-processor/ChibiOS//os/rt/include/chschd.h"
 520              		.file 8 "../lib/e-puck2_main-processor/ChibiOS//os/ext/CMSIS/include/core_cm4.h"
 521              		.file 9 "../lib/e-puck2_main-processor/ChibiOS//os/ext/CMSIS/ST/system_stm32f4xx.h"
 522              		.file 10 "../lib/e-puck2_main-processor/ChibiOS//os/ext/CMSIS/ST/stm32f407xx.h"
 523              		.file 11 "../lib/e-puck2_main-processor/ChibiOS//os/rt/ports/ARMCMx/chcore.h"
 524              		.file 12 "../lib/e-puck2_main-processor/ChibiOS//os/rt/ports/ARMCMx/chcore_v7m.h"
 525              		.file 13 "../lib/e-puck2_main-processor/ChibiOS//os/rt/include/chdebug.h"
 526              		.file 14 "../lib/e-puck2_main-processor/ChibiOS//os/rt/include/chtm.h"
 527              		.file 15 "../lib/e-puck2_main-processor/ChibiOS//os/rt/include/chstats.h"
 528              		.file 16 "../lib/e-puck2_main-processor/ChibiOS//os/rt/include/chsem.h"
 529              		.file 17 "../lib/e-puck2_main-processor/ChibiOS//os/rt/include/chmtx.h"
 530              		.file 18 "../lib/e-puck2_main-processor/ChibiOS//os/rt/include/chregistry.h"
 531              		.file 19 "../lib/e-puck2_main-processor/ChibiOS//os/rt/include/chevents.h"
 532              		.file 20 "../lib/e-puck2_main-processor/ChibiOS//os/rt/include/chqueues.h"
 533              		.file 21 "../lib/e-puck2_main-processor/ChibiOS//os/hal/ports/STM32/STM32F4xx/stm32_dma.h"
 534              		.file 22 "../lib/e-puck2_main-processor/ChibiOS//os/hal/include/hal_ioblock.h"
 535              		.file 23 "../lib/e-puck2_main-processor/ChibiOS//os/hal/ports/STM32/LLD/GPIOv2/pal_lld.h"
 536              		.file 24 "../lib/e-puck2_main-processor/ChibiOS//os/hal/include/adc.h"
 537              		.file 25 "../lib/e-puck2_main-processor/ChibiOS//os/hal/ports/STM32/STM32F4xx/adc_lld.h"
 538              		.file 26 "../lib/e-puck2_main-processor/ChibiOS//os/hal/include/can.h"
 539              		.file 27 "../lib/e-puck2_main-processor/ChibiOS//os/hal/ports/STM32/LLD/can_lld.h"
 540              		.file 28 "../lib/e-puck2_main-processor/ChibiOS//os/hal/include/dac.h"
 541              		.file 29 "../lib/e-puck2_main-processor/ChibiOS//os/hal/ports/STM32/LLD/DACv1/dac_lld.h"
 542              		.file 30 "../lib/e-puck2_main-processor/ChibiOS//os/hal/include/ext.h"
 543              		.file 31 "../lib/e-puck2_main-processor/ChibiOS//os/hal/ports/STM32/LLD/ext_lld.h"
 544              		.file 32 "../lib/e-puck2_main-processor/ChibiOS//os/hal/include/gpt.h"
 545              		.file 33 "../lib/e-puck2_main-processor/ChibiOS//os/hal/ports/STM32/LLD/TIMv1/gpt_lld.h"
 546              		.file 34 "../lib/e-puck2_main-processor/ChibiOS//os/hal/ports/STM32/LLD/TIMv1/stm32_tim.h"
 547              		.file 35 "../lib/e-puck2_main-processor/ChibiOS//os/hal/include/i2c.h"
 548              		.file 36 "../lib/e-puck2_main-processor/ChibiOS//os/hal/ports/STM32/LLD/I2Cv1/i2c_lld.h"
 549              		.file 37 "../lib/e-puck2_main-processor/ChibiOS//os/hal/include/i2s.h"
 550              		.file 38 "../lib/e-puck2_main-processor/ChibiOS//os/hal/ports/STM32/LLD/SPIv1/i2s_lld.h"
 551              		.file 39 "../lib/e-puck2_main-processor/ChibiOS//os/hal/include/pwm.h"
 552              		.file 40 "../lib/e-puck2_main-processor/ChibiOS//os/hal/ports/STM32/LLD/TIMv1/pwm_lld.h"
 553              		.file 41 "../lib/e-puck2_main-processor/ChibiOS//os/hal/include/serial.h"
 554              		.file 42 "../lib/e-puck2_main-processor/ChibiOS//os/hal/ports/STM32/LLD/USARTv1/serial_lld.h"
 555              		.file 43 "../lib/e-puck2_main-processor/ChibiOS//os/hal/include/sdc.h"
 556              		.file 44 "../lib/e-puck2_main-processor/ChibiOS//os/hal/ports/STM32/LLD/sdc_lld.h"
 557              		.file 45 "../lib/e-puck2_main-processor/ChibiOS//os/hal/include/spi.h"
 558              		.file 46 "../lib/e-puck2_main-processor/ChibiOS//os/hal/ports/STM32/LLD/SPIv1/spi_lld.h"
 559              		.file 47 "../lib/e-puck2_main-processor/ChibiOS//os/hal/include/usb.h"
 560              		.file 48 "../lib/e-puck2_main-processor/ChibiOS//os/hal/ports/STM32/LLD/OTGv1/usb_lld.h"
 561              		.file 49 "../lib/e-puck2_main-processor/ChibiOS//os/hal/ports/STM32/LLD/OTGv1/stm32_otg.h"
 562              		.file 50 "../lib/e-puck2_main-processor/ChibiOS_ext//ext/fatfs/src/integer.h"
 563              		.file 51 "../lib/e-puck2_main-processor/ChibiOS_ext//ext/fatfs/src/diskio.h"