ARM GAS  C:\Users\PCHAUT~1\AppData\Local\Temp\cc74Zv6x.s 			page 1


   1              		.cpu cortex-m4
   2              		.eabi_attribute 27, 1
   3              		.eabi_attribute 28, 1
   4              		.eabi_attribute 20, 1
   5              		.eabi_attribute 21, 1
   6              		.eabi_attribute 23, 3
   7              		.eabi_attribute 24, 1
   8              		.eabi_attribute 25, 1
   9              		.eabi_attribute 26, 1
  10              		.eabi_attribute 30, 6
  11              		.eabi_attribute 34, 1
  12              		.eabi_attribute 18, 4
  13              		.file	"flash.c"
  14              		.text
  15              	.Ltext0:
  16              		.cfi_sections	.debug_frame
  17              		.section	.text.flash_addr_to_sector,"ax",%progbits
  18              		.align	1
  19              		.p2align 4,,15
  20              		.global	flash_addr_to_sector
  21              		.syntax unified
  22              		.thumb
  23              		.thumb_func
  24              		.fpu fpv4-sp-d16
  25              		.type	flash_addr_to_sector, %function
  26              	flash_addr_to_sector:
  27              	.LFB0:
  28              		.file 1 "../lib/e-puck2_main-processor/src/flash/flash.c"
  29              		.loc 1 28 0
  30              		.cfi_startproc
  31              		@ args = 0, pretend = 0, frame = 24
  32              		@ frame_needed = 0, uses_anonymous_args = 0
  33 0000 00B5     		push	{lr}
  34              		.cfi_def_cfa_offset 4
  35              		.cfi_offset 14, -4
  36 0002 87B0     		sub	sp, sp, #28
  37              		.cfi_def_cfa_offset 32
  38 0004 0190     		str	r0, [sp, #4]
  39              		.loc 1 28 0
  40 0006 1C4B     		ldr	r3, .L8
  41 0008 1B68     		ldr	r3, [r3]
  42 000a 0593     		str	r3, [sp, #20]
  43              		.loc 1 29 0
  44 000c 019B     		ldr	r3, [sp, #4]
  45 000e 0393     		str	r3, [sp, #12]
  46              		.loc 1 31 0
  47 0010 039B     		ldr	r3, [sp, #12]
  48 0012 23F07F43 		bic	r3, r3, #-16777216
  49 0016 0493     		str	r3, [sp, #16]
  50              		.loc 1 32 0
  51 0018 049B     		ldr	r3, [sp, #16]
  52 001a B3F5803F 		cmp	r3, #65536
  53 001e 04D2     		bcs	.L2
  54              		.loc 1 33 0
  55 0020 049B     		ldr	r3, [sp, #16]
  56 0022 9B0B     		lsrs	r3, r3, #14
  57 0024 8DF80B30 		strb	r3, [sp, #11]
ARM GAS  C:\Users\PCHAUT~1\AppData\Local\Temp\cc74Zv6x.s 			page 2


  58 0028 10E0     		b	.L3
  59              	.L2:
  60              		.loc 1 34 0
  61 002a 049B     		ldr	r3, [sp, #16]
  62 002c B3F5003F 		cmp	r3, #131072
  63 0030 06D2     		bcs	.L4
  64              		.loc 1 35 0
  65 0032 049B     		ldr	r3, [sp, #16]
  66 0034 1B0C     		lsrs	r3, r3, #16
  67 0036 DBB2     		uxtb	r3, r3
  68 0038 0333     		adds	r3, r3, #3
  69 003a 8DF80B30 		strb	r3, [sp, #11]
  70 003e 05E0     		b	.L3
  71              	.L4:
  72              		.loc 1 37 0
  73 0040 049B     		ldr	r3, [sp, #16]
  74 0042 5B0C     		lsrs	r3, r3, #17
  75 0044 DBB2     		uxtb	r3, r3
  76 0046 0433     		adds	r3, r3, #4
  77 0048 8DF80B30 		strb	r3, [sp, #11]
  78              	.L3:
  79              		.loc 1 39 0
  80 004c 039B     		ldr	r3, [sp, #12]
  81 004e B3F1016F 		cmp	r3, #135266304
  82 0052 04D3     		bcc	.L5
  83              		.loc 1 41 0
  84 0054 9DF80B30 		ldrb	r3, [sp, #11]
  85 0058 0C33     		adds	r3, r3, #12
  86 005a 8DF80B30 		strb	r3, [sp, #11]
  87              	.L5:
  88              		.loc 1 43 0
  89 005e 9DF80B30 		ldrb	r3, [sp, #11]	@ zero_extendqisi2
  90              		.loc 1 44 0
  91 0062 1846     		mov	r0, r3
  92 0064 044B     		ldr	r3, .L8
  93 0066 059A     		ldr	r2, [sp, #20]
  94 0068 1B68     		ldr	r3, [r3]
  95 006a 9A42     		cmp	r2, r3
  96 006c 01D0     		beq	.L7
  97 006e FFF7FEFF 		bl	__stack_chk_fail
  98              	.L7:
  99 0072 07B0     		add	sp, sp, #28
 100              		.cfi_def_cfa_offset 4
 101              		@ sp needed
 102 0074 5DF804FB 		ldr	pc, [sp], #4
 103              	.L9:
 104              		.align	2
 105              	.L8:
 106 0078 00000000 		.word	__stack_chk_guard
 107              		.cfi_endproc
 108              	.LFE0:
 109              		.size	flash_addr_to_sector, .-flash_addr_to_sector
 110              		.section	.text.flash_lock,"ax",%progbits
 111              		.align	1
 112              		.p2align 4,,15
 113              		.global	flash_lock
 114              		.syntax unified
ARM GAS  C:\Users\PCHAUT~1\AppData\Local\Temp\cc74Zv6x.s 			page 3


 115              		.thumb
 116              		.thumb_func
 117              		.fpu fpv4-sp-d16
 118              		.type	flash_lock, %function
 119              	flash_lock:
 120              	.LFB1:
 121              		.loc 1 47 0
 122              		.cfi_startproc
 123              		@ args = 0, pretend = 0, frame = 8
 124              		@ frame_needed = 0, uses_anonymous_args = 0
 125 0000 00B5     		push	{lr}
 126              		.cfi_def_cfa_offset 4
 127              		.cfi_offset 14, -4
 128 0002 83B0     		sub	sp, sp, #12
 129              		.cfi_def_cfa_offset 16
 130              		.loc 1 47 0
 131 0004 094B     		ldr	r3, .L12
 132 0006 1B68     		ldr	r3, [r3]
 133 0008 0193     		str	r3, [sp, #4]
 134              		.loc 1 48 0
 135 000a 094B     		ldr	r3, .L12+4
 136 000c 1B68     		ldr	r3, [r3]
 137 000e 084A     		ldr	r2, .L12+4
 138 0010 43F00043 		orr	r3, r3, #-2147483648
 139 0014 1360     		str	r3, [r2]
 140              		.loc 1 49 0
 141 0016 00BF     		nop
 142 0018 044B     		ldr	r3, .L12
 143 001a 019A     		ldr	r2, [sp, #4]
 144 001c 1B68     		ldr	r3, [r3]
 145 001e 9A42     		cmp	r2, r3
 146 0020 01D0     		beq	.L11
 147 0022 FFF7FEFF 		bl	__stack_chk_fail
 148              	.L11:
 149 0026 03B0     		add	sp, sp, #12
 150              		.cfi_def_cfa_offset 4
 151              		@ sp needed
 152 0028 5DF804FB 		ldr	pc, [sp], #4
 153              	.L13:
 154              		.align	2
 155              	.L12:
 156 002c 00000000 		.word	__stack_chk_guard
 157 0030 103C0240 		.word	1073888272
 158              		.cfi_endproc
 159              	.LFE1:
 160              		.size	flash_lock, .-flash_lock
 161              		.section	.text.flash_unlock,"ax",%progbits
 162              		.align	1
 163              		.p2align 4,,15
 164              		.global	flash_unlock
 165              		.syntax unified
 166              		.thumb
 167              		.thumb_func
 168              		.fpu fpv4-sp-d16
 169              		.type	flash_unlock, %function
 170              	flash_unlock:
 171              	.LFB2:
ARM GAS  C:\Users\PCHAUT~1\AppData\Local\Temp\cc74Zv6x.s 			page 4


 172              		.loc 1 52 0
 173              		.cfi_startproc
 174              		@ args = 0, pretend = 0, frame = 8
 175              		@ frame_needed = 0, uses_anonymous_args = 0
 176 0000 00B5     		push	{lr}
 177              		.cfi_def_cfa_offset 4
 178              		.cfi_offset 14, -4
 179 0002 83B0     		sub	sp, sp, #12
 180              		.cfi_def_cfa_offset 16
 181              		.loc 1 52 0
 182 0004 0C4B     		ldr	r3, .L16
 183 0006 1B68     		ldr	r3, [r3]
 184 0008 0193     		str	r3, [sp, #4]
 185              		.loc 1 54 0
 186 000a 0C4B     		ldr	r3, .L16+4
 187 000c 1B68     		ldr	r3, [r3]
 188 000e 0B4A     		ldr	r2, .L16+4
 189 0010 43F00043 		orr	r3, r3, #-2147483648
 190 0014 1360     		str	r3, [r2]
 191              		.loc 1 57 0
 192 0016 0A4B     		ldr	r3, .L16+8
 193 0018 0A4A     		ldr	r2, .L16+12
 194 001a 1A60     		str	r2, [r3]
 195              		.loc 1 58 0
 196 001c 084B     		ldr	r3, .L16+8
 197 001e 0A4A     		ldr	r2, .L16+16
 198 0020 1A60     		str	r2, [r3]
 199              		.loc 1 59 0
 200 0022 00BF     		nop
 201 0024 044B     		ldr	r3, .L16
 202 0026 019A     		ldr	r2, [sp, #4]
 203 0028 1B68     		ldr	r3, [r3]
 204 002a 9A42     		cmp	r2, r3
 205 002c 01D0     		beq	.L15
 206 002e FFF7FEFF 		bl	__stack_chk_fail
 207              	.L15:
 208 0032 03B0     		add	sp, sp, #12
 209              		.cfi_def_cfa_offset 4
 210              		@ sp needed
 211 0034 5DF804FB 		ldr	pc, [sp], #4
 212              	.L17:
 213              		.align	2
 214              	.L16:
 215 0038 00000000 		.word	__stack_chk_guard
 216 003c 103C0240 		.word	1073888272
 217 0040 043C0240 		.word	1073888260
 218 0044 23016745 		.word	1164378403
 219 0048 AB89EFCD 		.word	-839939669
 220              		.cfi_endproc
 221              	.LFE2:
 222              		.size	flash_unlock, .-flash_unlock
 223              		.section	.text.flash_set_parallelism_8x,"ax",%progbits
 224              		.align	1
 225              		.p2align 4,,15
 226              		.syntax unified
 227              		.thumb
 228              		.thumb_func
ARM GAS  C:\Users\PCHAUT~1\AppData\Local\Temp\cc74Zv6x.s 			page 5


 229              		.fpu fpv4-sp-d16
 230              		.type	flash_set_parallelism_8x, %function
 231              	flash_set_parallelism_8x:
 232              	.LFB3:
 233              		.loc 1 62 0
 234              		.cfi_startproc
 235              		@ args = 0, pretend = 0, frame = 8
 236              		@ frame_needed = 0, uses_anonymous_args = 0
 237 0000 00B5     		push	{lr}
 238              		.cfi_def_cfa_offset 4
 239              		.cfi_offset 14, -4
 240 0002 83B0     		sub	sp, sp, #12
 241              		.cfi_def_cfa_offset 16
 242              		.loc 1 62 0
 243 0004 094B     		ldr	r3, .L20
 244 0006 1B68     		ldr	r3, [r3]
 245 0008 0193     		str	r3, [sp, #4]
 246              		.loc 1 64 0
 247 000a 094B     		ldr	r3, .L20+4
 248 000c 1B68     		ldr	r3, [r3]
 249 000e 084A     		ldr	r2, .L20+4
 250 0010 23F44073 		bic	r3, r3, #768
 251 0014 1360     		str	r3, [r2]
 252              		.loc 1 65 0
 253 0016 00BF     		nop
 254 0018 044B     		ldr	r3, .L20
 255 001a 019A     		ldr	r2, [sp, #4]
 256 001c 1B68     		ldr	r3, [r3]
 257 001e 9A42     		cmp	r2, r3
 258 0020 01D0     		beq	.L19
 259 0022 FFF7FEFF 		bl	__stack_chk_fail
 260              	.L19:
 261 0026 03B0     		add	sp, sp, #12
 262              		.cfi_def_cfa_offset 4
 263              		@ sp needed
 264 0028 5DF804FB 		ldr	pc, [sp], #4
 265              	.L21:
 266              		.align	2
 267              	.L20:
 268 002c 00000000 		.word	__stack_chk_guard
 269 0030 103C0240 		.word	1073888272
 270              		.cfi_endproc
 271              	.LFE3:
 272              		.size	flash_set_parallelism_8x, .-flash_set_parallelism_8x
 273              		.section	.text.flash_wait_while_busy,"ax",%progbits
 274              		.align	1
 275              		.p2align 4,,15
 276              		.syntax unified
 277              		.thumb
 278              		.thumb_func
 279              		.fpu fpv4-sp-d16
 280              		.type	flash_wait_while_busy, %function
 281              	flash_wait_while_busy:
 282              	.LFB4:
 283              		.loc 1 68 0
 284              		.cfi_startproc
 285              		@ args = 0, pretend = 0, frame = 8
ARM GAS  C:\Users\PCHAUT~1\AppData\Local\Temp\cc74Zv6x.s 			page 6


 286              		@ frame_needed = 0, uses_anonymous_args = 0
 287 0000 00B5     		push	{lr}
 288              		.cfi_def_cfa_offset 4
 289              		.cfi_offset 14, -4
 290 0002 83B0     		sub	sp, sp, #12
 291              		.cfi_def_cfa_offset 16
 292              		.loc 1 68 0
 293 0004 0A4B     		ldr	r3, .L25
 294 0006 1B68     		ldr	r3, [r3]
 295 0008 0193     		str	r3, [sp, #4]
 296              		.loc 1 69 0
 297 000a 00BF     		nop
 298              	.L23:
 299              		.loc 1 69 0 is_stmt 0 discriminator 1
 300 000c 094B     		ldr	r3, .L25+4
 301 000e 1B68     		ldr	r3, [r3]
 302 0010 03F48033 		and	r3, r3, #65536
 303 0014 002B     		cmp	r3, #0
 304 0016 F9D1     		bne	.L23
 305              		.loc 1 72 0 is_stmt 1
 306 0018 00BF     		nop
 307 001a 054B     		ldr	r3, .L25
 308 001c 019A     		ldr	r2, [sp, #4]
 309 001e 1B68     		ldr	r3, [r3]
 310 0020 9A42     		cmp	r2, r3
 311 0022 01D0     		beq	.L24
 312 0024 FFF7FEFF 		bl	__stack_chk_fail
 313              	.L24:
 314 0028 03B0     		add	sp, sp, #12
 315              		.cfi_def_cfa_offset 4
 316              		@ sp needed
 317 002a 5DF804FB 		ldr	pc, [sp], #4
 318              	.L26:
 319 002e 00BF     		.align	2
 320              	.L25:
 321 0030 00000000 		.word	__stack_chk_guard
 322 0034 0C3C0240 		.word	1073888268
 323              		.cfi_endproc
 324              	.LFE4:
 325              		.size	flash_wait_while_busy, .-flash_wait_while_busy
 326              		.section	.text.flash_write_byte,"ax",%progbits
 327              		.align	1
 328              		.p2align 4,,15
 329              		.syntax unified
 330              		.thumb
 331              		.thumb_func
 332              		.fpu fpv4-sp-d16
 333              		.type	flash_write_byte, %function
 334              	flash_write_byte:
 335              	.LFB5:
 336              		.loc 1 75 0
 337              		.cfi_startproc
 338              		@ args = 0, pretend = 0, frame = 16
 339              		@ frame_needed = 0, uses_anonymous_args = 0
 340 0000 00B5     		push	{lr}
 341              		.cfi_def_cfa_offset 4
 342              		.cfi_offset 14, -4
ARM GAS  C:\Users\PCHAUT~1\AppData\Local\Temp\cc74Zv6x.s 			page 7


 343 0002 85B0     		sub	sp, sp, #20
 344              		.cfi_def_cfa_offset 24
 345 0004 0190     		str	r0, [sp, #4]
 346 0006 0B46     		mov	r3, r1
 347 0008 8DF80330 		strb	r3, [sp, #3]
 348              		.loc 1 75 0
 349 000c 0C4B     		ldr	r3, .L29
 350 000e 1B68     		ldr	r3, [r3]
 351 0010 0393     		str	r3, [sp, #12]
 352              		.loc 1 77 0
 353 0012 0C4B     		ldr	r3, .L29+4
 354 0014 1B68     		ldr	r3, [r3]
 355 0016 0B4A     		ldr	r2, .L29+4
 356 0018 43F00103 		orr	r3, r3, #1
 357 001c 1360     		str	r3, [r2]
 358              		.loc 1 79 0
 359 001e 019B     		ldr	r3, [sp, #4]
 360 0020 9DF80320 		ldrb	r2, [sp, #3]
 361 0024 1A70     		strb	r2, [r3]
 362              		.loc 1 81 0
 363 0026 FFF7FEFF 		bl	flash_wait_while_busy
 364              		.loc 1 82 0
 365 002a 00BF     		nop
 366 002c 044B     		ldr	r3, .L29
 367 002e 039A     		ldr	r2, [sp, #12]
 368 0030 1B68     		ldr	r3, [r3]
 369 0032 9A42     		cmp	r2, r3
 370 0034 01D0     		beq	.L28
 371 0036 FFF7FEFF 		bl	__stack_chk_fail
 372              	.L28:
 373 003a 05B0     		add	sp, sp, #20
 374              		.cfi_def_cfa_offset 4
 375              		@ sp needed
 376 003c 5DF804FB 		ldr	pc, [sp], #4
 377              	.L30:
 378              		.align	2
 379              	.L29:
 380 0040 00000000 		.word	__stack_chk_guard
 381 0044 103C0240 		.word	1073888272
 382              		.cfi_endproc
 383              	.LFE5:
 384              		.size	flash_write_byte, .-flash_write_byte
 385              		.section	.text.flash_write,"ax",%progbits
 386              		.align	1
 387              		.p2align 4,,15
 388              		.global	flash_write
 389              		.syntax unified
 390              		.thumb
 391              		.thumb_func
 392              		.fpu fpv4-sp-d16
 393              		.type	flash_write, %function
 394              	flash_write:
 395              	.LFB6:
 396              		.loc 1 85 0
 397              		.cfi_startproc
 398              		@ args = 0, pretend = 0, frame = 32
 399              		@ frame_needed = 0, uses_anonymous_args = 0
ARM GAS  C:\Users\PCHAUT~1\AppData\Local\Temp\cc74Zv6x.s 			page 8


 400 0000 00B5     		push	{lr}
 401              		.cfi_def_cfa_offset 4
 402              		.cfi_offset 14, -4
 403 0002 89B0     		sub	sp, sp, #36
 404              		.cfi_def_cfa_offset 40
 405 0004 0390     		str	r0, [sp, #12]
 406 0006 0291     		str	r1, [sp, #8]
 407 0008 0192     		str	r2, [sp, #4]
 408              		.loc 1 85 0
 409 000a 164B     		ldr	r3, .L35
 410 000c 1B68     		ldr	r3, [r3]
 411 000e 0793     		str	r3, [sp, #28]
 412              		.loc 1 86 0
 413 0010 FFF7FEFF 		bl	flash_wait_while_busy
 414              		.loc 1 92 0
 415 0014 FFF7FEFF 		bl	flash_set_parallelism_8x
 416              		.loc 1 94 0
 417 0018 029B     		ldr	r3, [sp, #8]
 418 001a 0593     		str	r3, [sp, #20]
 419              		.loc 1 95 0
 420 001c 039B     		ldr	r3, [sp, #12]
 421 001e 0693     		str	r3, [sp, #24]
 422              		.loc 1 97 0
 423 0020 0AE0     		b	.L32
 424              	.L33:
 425              		.loc 1 98 0
 426 0022 069A     		ldr	r2, [sp, #24]
 427 0024 531C     		adds	r3, r2, #1
 428 0026 0693     		str	r3, [sp, #24]
 429 0028 059B     		ldr	r3, [sp, #20]
 430 002a 591C     		adds	r1, r3, #1
 431 002c 0591     		str	r1, [sp, #20]
 432 002e 1B78     		ldrb	r3, [r3]	@ zero_extendqisi2
 433 0030 1946     		mov	r1, r3
 434 0032 1046     		mov	r0, r2
 435 0034 FFF7FEFF 		bl	flash_write_byte
 436              	.L32:
 437              		.loc 1 97 0
 438 0038 019B     		ldr	r3, [sp, #4]
 439 003a 5A1E     		subs	r2, r3, #1
 440 003c 0192     		str	r2, [sp, #4]
 441 003e 002B     		cmp	r3, #0
 442 0040 EFD1     		bne	.L33
 443              		.loc 1 102 0
 444 0042 094B     		ldr	r3, .L35+4
 445 0044 1B68     		ldr	r3, [r3]
 446 0046 084A     		ldr	r2, .L35+4
 447 0048 23F00103 		bic	r3, r3, #1
 448 004c 1360     		str	r3, [r2]
 449              		.loc 1 103 0
 450 004e 00BF     		nop
 451 0050 044B     		ldr	r3, .L35
 452 0052 079A     		ldr	r2, [sp, #28]
 453 0054 1B68     		ldr	r3, [r3]
 454 0056 9A42     		cmp	r2, r3
 455 0058 01D0     		beq	.L34
 456 005a FFF7FEFF 		bl	__stack_chk_fail
ARM GAS  C:\Users\PCHAUT~1\AppData\Local\Temp\cc74Zv6x.s 			page 9


 457              	.L34:
 458 005e 09B0     		add	sp, sp, #36
 459              		.cfi_def_cfa_offset 4
 460              		@ sp needed
 461 0060 5DF804FB 		ldr	pc, [sp], #4
 462              	.L36:
 463              		.align	2
 464              	.L35:
 465 0064 00000000 		.word	__stack_chk_guard
 466 0068 103C0240 		.word	1073888272
 467              		.cfi_endproc
 468              	.LFE6:
 469              		.size	flash_write, .-flash_write
 470              		.section	.text.flash_sector_erase,"ax",%progbits
 471              		.align	1
 472              		.p2align 4,,15
 473              		.global	flash_sector_erase
 474              		.syntax unified
 475              		.thumb
 476              		.thumb_func
 477              		.fpu fpv4-sp-d16
 478              		.type	flash_sector_erase, %function
 479              	flash_sector_erase:
 480              	.LFB7:
 481              		.loc 1 106 0
 482              		.cfi_startproc
 483              		@ args = 0, pretend = 0, frame = 16
 484              		@ frame_needed = 0, uses_anonymous_args = 0
 485 0000 00B5     		push	{lr}
 486              		.cfi_def_cfa_offset 4
 487              		.cfi_offset 14, -4
 488 0002 85B0     		sub	sp, sp, #20
 489              		.cfi_def_cfa_offset 24
 490 0004 0190     		str	r0, [sp, #4]
 491              		.loc 1 106 0
 492 0006 0C4B     		ldr	r3, .L39
 493 0008 1B68     		ldr	r3, [r3]
 494 000a 0393     		str	r3, [sp, #12]
 495              		.loc 1 107 0
 496 000c 0198     		ldr	r0, [sp, #4]
 497 000e FFF7FEFF 		bl	flash_addr_to_sector
 498 0012 0346     		mov	r3, r0
 499 0014 0293     		str	r3, [sp, #8]
 500              		.loc 1 109 0
 501 0016 029B     		ldr	r3, [sp, #8]
 502 0018 DBB2     		uxtb	r3, r3
 503 001a 1846     		mov	r0, r3
 504 001c FFF7FEFF 		bl	flash_sector_erase_number
 505              		.loc 1 110 0
 506 0020 00BF     		nop
 507 0022 054B     		ldr	r3, .L39
 508 0024 039A     		ldr	r2, [sp, #12]
 509 0026 1B68     		ldr	r3, [r3]
 510 0028 9A42     		cmp	r2, r3
 511 002a 01D0     		beq	.L38
 512 002c FFF7FEFF 		bl	__stack_chk_fail
 513              	.L38:
ARM GAS  C:\Users\PCHAUT~1\AppData\Local\Temp\cc74Zv6x.s 			page 10


 514 0030 05B0     		add	sp, sp, #20
 515              		.cfi_def_cfa_offset 4
 516              		@ sp needed
 517 0032 5DF804FB 		ldr	pc, [sp], #4
 518              	.L40:
 519 0036 00BF     		.align	2
 520              	.L39:
 521 0038 00000000 		.word	__stack_chk_guard
 522              		.cfi_endproc
 523              	.LFE7:
 524              		.size	flash_sector_erase, .-flash_sector_erase
 525              		.section	.text.flash_sector_erase_number,"ax",%progbits
 526              		.align	1
 527              		.p2align 4,,15
 528              		.global	flash_sector_erase_number
 529              		.syntax unified
 530              		.thumb
 531              		.thumb_func
 532              		.fpu fpv4-sp-d16
 533              		.type	flash_sector_erase_number, %function
 534              	flash_sector_erase_number:
 535              	.LFB8:
 536              		.loc 1 113 0
 537              		.cfi_startproc
 538              		@ args = 0, pretend = 0, frame = 16
 539              		@ frame_needed = 0, uses_anonymous_args = 0
 540 0000 00B5     		push	{lr}
 541              		.cfi_def_cfa_offset 4
 542              		.cfi_offset 14, -4
 543 0002 85B0     		sub	sp, sp, #20
 544              		.cfi_def_cfa_offset 24
 545 0004 0346     		mov	r3, r0
 546 0006 8DF80730 		strb	r3, [sp, #7]
 547              		.loc 1 113 0
 548 000a 174B     		ldr	r3, .L43
 549 000c 1B68     		ldr	r3, [r3]
 550 000e 0393     		str	r3, [sp, #12]
 551              		.loc 1 114 0
 552 0010 FFF7FEFF 		bl	flash_set_parallelism_8x
 553              		.loc 1 116 0
 554 0014 FFF7FEFF 		bl	flash_wait_while_busy
 555              		.loc 1 118 0
 556 0018 144B     		ldr	r3, .L43+4
 557 001a 1B68     		ldr	r3, [r3]
 558 001c 134A     		ldr	r2, .L43+4
 559 001e 23F0F803 		bic	r3, r3, #248
 560 0022 1360     		str	r3, [r2]
 561              		.loc 1 119 0
 562 0024 114B     		ldr	r3, .L43+4
 563 0026 1A68     		ldr	r2, [r3]
 564 0028 9DF80730 		ldrb	r3, [sp, #7]	@ zero_extendqisi2
 565 002c DB00     		lsls	r3, r3, #3
 566 002e DBB2     		uxtb	r3, r3
 567 0030 0E49     		ldr	r1, .L43+4
 568 0032 1343     		orrs	r3, r3, r2
 569 0034 0B60     		str	r3, [r1]
 570              		.loc 1 120 0
ARM GAS  C:\Users\PCHAUT~1\AppData\Local\Temp\cc74Zv6x.s 			page 11


 571 0036 0D4B     		ldr	r3, .L43+4
 572 0038 1B68     		ldr	r3, [r3]
 573 003a 0C4A     		ldr	r2, .L43+4
 574 003c 43F00203 		orr	r3, r3, #2
 575 0040 1360     		str	r3, [r2]
 576              		.loc 1 121 0
 577 0042 0A4B     		ldr	r3, .L43+4
 578 0044 1B68     		ldr	r3, [r3]
 579 0046 094A     		ldr	r2, .L43+4
 580 0048 43F48033 		orr	r3, r3, #65536
 581 004c 1360     		str	r3, [r2]
 582              		.loc 1 123 0
 583 004e FFF7FEFF 		bl	flash_wait_while_busy
 584              		.loc 1 124 0
 585 0052 00BF     		nop
 586 0054 044B     		ldr	r3, .L43
 587 0056 039A     		ldr	r2, [sp, #12]
 588 0058 1B68     		ldr	r3, [r3]
 589 005a 9A42     		cmp	r2, r3
 590 005c 01D0     		beq	.L42
 591 005e FFF7FEFF 		bl	__stack_chk_fail
 592              	.L42:
 593 0062 05B0     		add	sp, sp, #20
 594              		.cfi_def_cfa_offset 4
 595              		@ sp needed
 596 0064 5DF804FB 		ldr	pc, [sp], #4
 597              	.L44:
 598              		.align	2
 599              	.L43:
 600 0068 00000000 		.word	__stack_chk_guard
 601 006c 103C0240 		.word	1073888272
 602              		.cfi_endproc
 603              	.LFE8:
 604              		.size	flash_sector_erase_number, .-flash_sector_erase_number
 605              		.text
 606              	.Letext0:
 607              		.file 2 "c:\\users\\pchautems\\documents\\robotiquetp\\eclipse_e-puck2\\tools\\gcc-arm-none-eabi-7
 608              		.file 3 "c:\\users\\pchautems\\documents\\robotiquetp\\eclipse_e-puck2\\tools\\gcc-arm-none-eabi-7
 609              		.file 4 "c:\\users\\pchautems\\documents\\robotiquetp\\eclipse_e-puck2\\tools\\gcc-arm-none-eabi-7