ARM GAS  C:\Users\PCHAUT~1\AppData\Local\Temp\ccUkKlhc.s 			page 1


   1              		.cpu cortex-m4
   2              		.eabi_attribute 27, 1
   3              		.eabi_attribute 28, 1
   4              		.eabi_attribute 20, 1
   5              		.eabi_attribute 21, 1
   6              		.eabi_attribute 23, 3
   7              		.eabi_attribute 24, 1
   8              		.eabi_attribute 25, 1
   9              		.eabi_attribute 26, 1
  10              		.eabi_attribute 30, 6
  11              		.eabi_attribute 34, 1
  12              		.eabi_attribute 18, 4
  13              		.file	"gpt.c"
  14              		.text
  15              	.Ltext0:
  16              		.cfi_sections	.debug_frame
  17              		.section	.text.port_lock,"ax",%progbits
  18              		.align	1
  19              		.p2align 4,,15
  20              		.syntax unified
  21              		.thumb
  22              		.thumb_func
  23              		.fpu fpv4-sp-d16
  24              		.type	port_lock, %function
  25              	port_lock:
  26              	.LFB116:
  27              		.file 1 "../lib/e-puck2_main-processor/ChibiOS//os/rt/ports/ARMCMx/chcore_v7m.h"
  28              		.loc 1 444 0
  29              		.cfi_startproc
  30              		@ args = 0, pretend = 0, frame = 8
  31              		@ frame_needed = 0, uses_anonymous_args = 0
  32 0000 00B5     		push	{lr}
  33              		.cfi_def_cfa_offset 4
  34              		.cfi_offset 14, -4
  35 0002 83B0     		sub	sp, sp, #12
  36              		.cfi_def_cfa_offset 16
  37              		.loc 1 444 0
  38 0004 094B     		ldr	r3, .L3
  39 0006 1B68     		ldr	r3, [r3]
  40 0008 0193     		str	r3, [sp, #4]
  41 000a 2023     		movs	r3, #32
  42 000c 0093     		str	r3, [sp]
  43              	.LBB6:
  44              	.LBB7:
  45              		.file 2 "../lib/e-puck2_main-processor/ChibiOS//os/ext/CMSIS/include/core_cmFunc.h"
  46              		.loc 2 546 0
  47 000e 009B     		ldr	r3, [sp]
  48              		.syntax unified
  49              	@ 546 "../lib/e-puck2_main-processor/ChibiOS//os/ext/CMSIS/include/core_cmFunc.h" 1
  50 0010 83F31188 		MSR basepri, r3
  51              	@ 0 "" 2
  52              		.thumb
  53              		.syntax unified
  54              	.LBE7:
  55              	.LBE6:
  56              		.loc 1 451 0
  57 0014 00BF     		nop
ARM GAS  C:\Users\PCHAUT~1\AppData\Local\Temp\ccUkKlhc.s 			page 2


  58 0016 054B     		ldr	r3, .L3
  59 0018 019A     		ldr	r2, [sp, #4]
  60 001a 1B68     		ldr	r3, [r3]
  61 001c 9A42     		cmp	r2, r3
  62 001e 01D0     		beq	.L2
  63 0020 FFF7FEFF 		bl	__stack_chk_fail
  64              	.L2:
  65 0024 03B0     		add	sp, sp, #12
  66              		.cfi_def_cfa_offset 4
  67              		@ sp needed
  68 0026 5DF804FB 		ldr	pc, [sp], #4
  69              	.L4:
  70 002a 00BF     		.align	2
  71              	.L3:
  72 002c 00000000 		.word	__stack_chk_guard
  73              		.cfi_endproc
  74              	.LFE116:
  75              		.size	port_lock, .-port_lock
  76              		.section	.text.port_unlock,"ax",%progbits
  77              		.align	1
  78              		.p2align 4,,15
  79              		.syntax unified
  80              		.thumb
  81              		.thumb_func
  82              		.fpu fpv4-sp-d16
  83              		.type	port_unlock, %function
  84              	port_unlock:
  85              	.LFB117:
  86              		.loc 1 458 0
  87              		.cfi_startproc
  88              		@ args = 0, pretend = 0, frame = 8
  89              		@ frame_needed = 0, uses_anonymous_args = 0
  90 0000 00B5     		push	{lr}
  91              		.cfi_def_cfa_offset 4
  92              		.cfi_offset 14, -4
  93 0002 83B0     		sub	sp, sp, #12
  94              		.cfi_def_cfa_offset 16
  95              		.loc 1 458 0
  96 0004 094B     		ldr	r3, .L7
  97 0006 1B68     		ldr	r3, [r3]
  98 0008 0193     		str	r3, [sp, #4]
  99 000a 0023     		movs	r3, #0
 100 000c 0093     		str	r3, [sp]
 101              	.LBB8:
 102              	.LBB9:
 103              		.loc 2 546 0
 104 000e 009B     		ldr	r3, [sp]
 105              		.syntax unified
 106              	@ 546 "../lib/e-puck2_main-processor/ChibiOS//os/ext/CMSIS/include/core_cmFunc.h" 1
 107 0010 83F31188 		MSR basepri, r3
 108              	@ 0 "" 2
 109              		.thumb
 110              		.syntax unified
 111              	.LBE9:
 112              	.LBE8:
 113              		.loc 1 465 0
 114 0014 00BF     		nop
ARM GAS  C:\Users\PCHAUT~1\AppData\Local\Temp\ccUkKlhc.s 			page 3


 115 0016 054B     		ldr	r3, .L7
 116 0018 019A     		ldr	r2, [sp, #4]
 117 001a 1B68     		ldr	r3, [r3]
 118 001c 9A42     		cmp	r2, r3
 119 001e 01D0     		beq	.L6
 120 0020 FFF7FEFF 		bl	__stack_chk_fail
 121              	.L6:
 122 0024 03B0     		add	sp, sp, #12
 123              		.cfi_def_cfa_offset 4
 124              		@ sp needed
 125 0026 5DF804FB 		ldr	pc, [sp], #4
 126              	.L8:
 127 002a 00BF     		.align	2
 128              	.L7:
 129 002c 00000000 		.word	__stack_chk_guard
 130              		.cfi_endproc
 131              	.LFE117:
 132              		.size	port_unlock, .-port_unlock
 133              		.section	.text.chSysLock,"ax",%progbits
 134              		.align	1
 135              		.p2align 4,,15
 136              		.syntax unified
 137              		.thumb
 138              		.thumb_func
 139              		.fpu fpv4-sp-d16
 140              		.type	chSysLock, %function
 141              	chSysLock:
 142              	.LFB145:
 143              		.file 3 "../lib/e-puck2_main-processor/ChibiOS//os/rt/include/chsys.h"
 144              		.loc 3 346 0
 145              		.cfi_startproc
 146              		@ args = 0, pretend = 0, frame = 8
 147              		@ frame_needed = 0, uses_anonymous_args = 0
 148 0000 00B5     		push	{lr}
 149              		.cfi_def_cfa_offset 4
 150              		.cfi_offset 14, -4
 151 0002 83B0     		sub	sp, sp, #12
 152              		.cfi_def_cfa_offset 16
 153              		.loc 3 346 0
 154 0004 094B     		ldr	r3, .L11
 155 0006 1B68     		ldr	r3, [r3]
 156 0008 0193     		str	r3, [sp, #4]
 157              		.loc 3 348 0
 158 000a FFF7FEFF 		bl	port_lock
 159              		.loc 3 349 0
 160 000e FFF7FEFF 		bl	_stats_start_measure_crit_thd
 161              		.loc 3 350 0
 162 0012 FFF7FEFF 		bl	_dbg_check_lock
 163              		.loc 3 351 0
 164 0016 00BF     		nop
 165 0018 044B     		ldr	r3, .L11
 166 001a 019A     		ldr	r2, [sp, #4]
 167 001c 1B68     		ldr	r3, [r3]
 168 001e 9A42     		cmp	r2, r3
 169 0020 01D0     		beq	.L10
 170 0022 FFF7FEFF 		bl	__stack_chk_fail
 171              	.L10:
ARM GAS  C:\Users\PCHAUT~1\AppData\Local\Temp\ccUkKlhc.s 			page 4


 172 0026 03B0     		add	sp, sp, #12
 173              		.cfi_def_cfa_offset 4
 174              		@ sp needed
 175 0028 5DF804FB 		ldr	pc, [sp], #4
 176              	.L12:
 177              		.align	2
 178              	.L11:
 179 002c 00000000 		.word	__stack_chk_guard
 180              		.cfi_endproc
 181              	.LFE145:
 182              		.size	chSysLock, .-chSysLock
 183              		.section	.text.chSysUnlock,"ax",%progbits
 184              		.align	1
 185              		.p2align 4,,15
 186              		.syntax unified
 187              		.thumb
 188              		.thumb_func
 189              		.fpu fpv4-sp-d16
 190              		.type	chSysUnlock, %function
 191              	chSysUnlock:
 192              	.LFB146:
 193              		.loc 3 358 0
 194              		.cfi_startproc
 195              		@ args = 0, pretend = 0, frame = 8
 196              		@ frame_needed = 0, uses_anonymous_args = 0
 197 0000 00B5     		push	{lr}
 198              		.cfi_def_cfa_offset 4
 199              		.cfi_offset 14, -4
 200 0002 83B0     		sub	sp, sp, #12
 201              		.cfi_def_cfa_offset 16
 202              		.loc 3 358 0
 203 0004 114B     		ldr	r3, .L16
 204 0006 1B68     		ldr	r3, [r3]
 205 0008 0193     		str	r3, [sp, #4]
 206              		.loc 3 360 0
 207 000a FFF7FEFF 		bl	_dbg_check_unlock
 208              		.loc 3 361 0
 209 000e FFF7FEFF 		bl	_stats_stop_measure_crit_thd
 210              		.loc 3 367 0
 211 0012 0F4B     		ldr	r3, .L16+4
 212 0014 1B68     		ldr	r3, [r3]
 213 0016 0E4A     		ldr	r2, .L16+4
 214 0018 9342     		cmp	r3, r2
 215 001a 0AD0     		beq	.L14
 216              		.loc 3 367 0 is_stmt 0 discriminator 2
 217 001c 0C4B     		ldr	r3, .L16+4
 218 001e 9B69     		ldr	r3, [r3, #24]
 219 0020 9A68     		ldr	r2, [r3, #8]
 220 0022 0B4B     		ldr	r3, .L16+4
 221 0024 1B68     		ldr	r3, [r3]
 222 0026 9B68     		ldr	r3, [r3, #8]
 223 0028 9A42     		cmp	r2, r3
 224 002a 02D2     		bcs	.L14
 225              		.loc 3 367 0 discriminator 3
 226 002c 0948     		ldr	r0, .L16+8
 227 002e FFF7FEFF 		bl	chSysHalt
 228              	.L14:
ARM GAS  C:\Users\PCHAUT~1\AppData\Local\Temp\ccUkKlhc.s 			page 5


 229              		.loc 3 371 0 is_stmt 1
 230 0032 FFF7FEFF 		bl	port_unlock
 231              		.loc 3 372 0
 232 0036 00BF     		nop
 233 0038 044B     		ldr	r3, .L16
 234 003a 019A     		ldr	r2, [sp, #4]
 235 003c 1B68     		ldr	r3, [r3]
 236 003e 9A42     		cmp	r2, r3
 237 0040 01D0     		beq	.L15
 238 0042 FFF7FEFF 		bl	__stack_chk_fail
 239              	.L15:
 240 0046 03B0     		add	sp, sp, #12
 241              		.cfi_def_cfa_offset 4
 242              		@ sp needed
 243 0048 5DF804FB 		ldr	pc, [sp], #4
 244              	.L17:
 245              		.align	2
 246              	.L16:
 247 004c 00000000 		.word	__stack_chk_guard
 248 0050 00000000 		.word	ch
 249 0054 00000000 		.word	__func__.7153
 250              		.cfi_endproc
 251              	.LFE146:
 252              		.size	chSysUnlock, .-chSysUnlock
 253              		.section	.text.osalSysLock,"ax",%progbits
 254              		.align	1
 255              		.p2align 4,,15
 256              		.syntax unified
 257              		.thumb
 258              		.thumb_func
 259              		.fpu fpv4-sp-d16
 260              		.type	osalSysLock, %function
 261              	osalSysLock:
 262              	.LFB223:
 263              		.file 4 "../lib/e-puck2_main-processor/ChibiOS//os/hal/osal/rt/osal.h"
 264              		.loc 4 445 0
 265              		.cfi_startproc
 266              		@ args = 0, pretend = 0, frame = 8
 267              		@ frame_needed = 0, uses_anonymous_args = 0
 268 0000 00B5     		push	{lr}
 269              		.cfi_def_cfa_offset 4
 270              		.cfi_offset 14, -4
 271 0002 83B0     		sub	sp, sp, #12
 272              		.cfi_def_cfa_offset 16
 273              		.loc 4 445 0
 274 0004 074B     		ldr	r3, .L20
 275 0006 1B68     		ldr	r3, [r3]
 276 0008 0193     		str	r3, [sp, #4]
 277              		.loc 4 447 0
 278 000a FFF7FEFF 		bl	chSysLock
 279              		.loc 4 448 0
 280 000e 00BF     		nop
 281 0010 044B     		ldr	r3, .L20
 282 0012 019A     		ldr	r2, [sp, #4]
 283 0014 1B68     		ldr	r3, [r3]
 284 0016 9A42     		cmp	r2, r3
 285 0018 01D0     		beq	.L19
ARM GAS  C:\Users\PCHAUT~1\AppData\Local\Temp\ccUkKlhc.s 			page 6


 286 001a FFF7FEFF 		bl	__stack_chk_fail
 287              	.L19:
 288 001e 03B0     		add	sp, sp, #12
 289              		.cfi_def_cfa_offset 4
 290              		@ sp needed
 291 0020 5DF804FB 		ldr	pc, [sp], #4
 292              	.L21:
 293              		.align	2
 294              	.L20:
 295 0024 00000000 		.word	__stack_chk_guard
 296              		.cfi_endproc
 297              	.LFE223:
 298              		.size	osalSysLock, .-osalSysLock
 299              		.section	.text.osalSysUnlock,"ax",%progbits
 300              		.align	1
 301              		.p2align 4,,15
 302              		.syntax unified
 303              		.thumb
 304              		.thumb_func
 305              		.fpu fpv4-sp-d16
 306              		.type	osalSysUnlock, %function
 307              	osalSysUnlock:
 308              	.LFB224:
 309              		.loc 4 456 0
 310              		.cfi_startproc
 311              		@ args = 0, pretend = 0, frame = 8
 312              		@ frame_needed = 0, uses_anonymous_args = 0
 313 0000 00B5     		push	{lr}
 314              		.cfi_def_cfa_offset 4
 315              		.cfi_offset 14, -4
 316 0002 83B0     		sub	sp, sp, #12
 317              		.cfi_def_cfa_offset 16
 318              		.loc 4 456 0
 319 0004 074B     		ldr	r3, .L24
 320 0006 1B68     		ldr	r3, [r3]
 321 0008 0193     		str	r3, [sp, #4]
 322              		.loc 4 458 0
 323 000a FFF7FEFF 		bl	chSysUnlock
 324              		.loc 4 459 0
 325 000e 00BF     		nop
 326 0010 044B     		ldr	r3, .L24
 327 0012 019A     		ldr	r2, [sp, #4]
 328 0014 1B68     		ldr	r3, [r3]
 329 0016 9A42     		cmp	r2, r3
 330 0018 01D0     		beq	.L23
 331 001a FFF7FEFF 		bl	__stack_chk_fail
 332              	.L23:
 333 001e 03B0     		add	sp, sp, #12
 334              		.cfi_def_cfa_offset 4
 335              		@ sp needed
 336 0020 5DF804FB 		ldr	pc, [sp], #4
 337              	.L25:
 338              		.align	2
 339              	.L24:
 340 0024 00000000 		.word	__stack_chk_guard
 341              		.cfi_endproc
 342              	.LFE224:
ARM GAS  C:\Users\PCHAUT~1\AppData\Local\Temp\ccUkKlhc.s 			page 7


 343              		.size	osalSysUnlock, .-osalSysUnlock
 344              		.section	.text.gptInit,"ax",%progbits
 345              		.align	1
 346              		.p2align 4,,15
 347              		.global	gptInit
 348              		.syntax unified
 349              		.thumb
 350              		.thumb_func
 351              		.fpu fpv4-sp-d16
 352              		.type	gptInit, %function
 353              	gptInit:
 354              	.LFB256:
 355              		.file 5 "../lib/e-puck2_main-processor/ChibiOS//os/hal/src/gpt.c"
 356              		.loc 5 56 0
 357              		.cfi_startproc
 358              		@ args = 0, pretend = 0, frame = 8
 359              		@ frame_needed = 0, uses_anonymous_args = 0
 360 0000 00B5     		push	{lr}
 361              		.cfi_def_cfa_offset 4
 362              		.cfi_offset 14, -4
 363 0002 83B0     		sub	sp, sp, #12
 364              		.cfi_def_cfa_offset 16
 365              		.loc 5 56 0
 366 0004 074B     		ldr	r3, .L28
 367 0006 1B68     		ldr	r3, [r3]
 368 0008 0193     		str	r3, [sp, #4]
 369              		.loc 5 58 0
 370 000a FFF7FEFF 		bl	gpt_lld_init
 371              		.loc 5 59 0
 372 000e 00BF     		nop
 373 0010 044B     		ldr	r3, .L28
 374 0012 019A     		ldr	r2, [sp, #4]
 375 0014 1B68     		ldr	r3, [r3]
 376 0016 9A42     		cmp	r2, r3
 377 0018 01D0     		beq	.L27
 378 001a FFF7FEFF 		bl	__stack_chk_fail
 379              	.L27:
 380 001e 03B0     		add	sp, sp, #12
 381              		.cfi_def_cfa_offset 4
 382              		@ sp needed
 383 0020 5DF804FB 		ldr	pc, [sp], #4
 384              	.L29:
 385              		.align	2
 386              	.L28:
 387 0024 00000000 		.word	__stack_chk_guard
 388              		.cfi_endproc
 389              	.LFE256:
 390              		.size	gptInit, .-gptInit
 391              		.section	.text.gptObjectInit,"ax",%progbits
 392              		.align	1
 393              		.p2align 4,,15
 394              		.global	gptObjectInit
 395              		.syntax unified
 396              		.thumb
 397              		.thumb_func
 398              		.fpu fpv4-sp-d16
 399              		.type	gptObjectInit, %function
ARM GAS  C:\Users\PCHAUT~1\AppData\Local\Temp\ccUkKlhc.s 			page 8


 400              	gptObjectInit:
 401              	.LFB257:
 402              		.loc 5 68 0
 403              		.cfi_startproc
 404              		@ args = 0, pretend = 0, frame = 16
 405              		@ frame_needed = 0, uses_anonymous_args = 0
 406 0000 00B5     		push	{lr}
 407              		.cfi_def_cfa_offset 4
 408              		.cfi_offset 14, -4
 409 0002 85B0     		sub	sp, sp, #20
 410              		.cfi_def_cfa_offset 24
 411 0004 0190     		str	r0, [sp, #4]
 412              		.loc 5 68 0
 413 0006 0A4B     		ldr	r3, .L32
 414 0008 1B68     		ldr	r3, [r3]
 415 000a 0393     		str	r3, [sp, #12]
 416              		.loc 5 70 0
 417 000c 019B     		ldr	r3, [sp, #4]
 418 000e 0122     		movs	r2, #1
 419 0010 1A70     		strb	r2, [r3]
 420              		.loc 5 71 0
 421 0012 019B     		ldr	r3, [sp, #4]
 422 0014 0022     		movs	r2, #0
 423 0016 5A60     		str	r2, [r3, #4]
 424              		.loc 5 72 0
 425 0018 00BF     		nop
 426 001a 054B     		ldr	r3, .L32
 427 001c 039A     		ldr	r2, [sp, #12]
 428 001e 1B68     		ldr	r3, [r3]
 429 0020 9A42     		cmp	r2, r3
 430 0022 01D0     		beq	.L31
 431 0024 FFF7FEFF 		bl	__stack_chk_fail
 432              	.L31:
 433 0028 05B0     		add	sp, sp, #20
 434              		.cfi_def_cfa_offset 4
 435              		@ sp needed
 436 002a 5DF804FB 		ldr	pc, [sp], #4
 437              	.L33:
 438 002e 00BF     		.align	2
 439              	.L32:
 440 0030 00000000 		.word	__stack_chk_guard
 441              		.cfi_endproc
 442              	.LFE257:
 443              		.size	gptObjectInit, .-gptObjectInit
 444              		.section	.text.gptStart,"ax",%progbits
 445              		.align	1
 446              		.p2align 4,,15
 447              		.global	gptStart
 448              		.syntax unified
 449              		.thumb
 450              		.thumb_func
 451              		.fpu fpv4-sp-d16
 452              		.type	gptStart, %function
 453              	gptStart:
 454              	.LFB258:
 455              		.loc 5 82 0
 456              		.cfi_startproc
ARM GAS  C:\Users\PCHAUT~1\AppData\Local\Temp\ccUkKlhc.s 			page 9


 457              		@ args = 0, pretend = 0, frame = 16
 458              		@ frame_needed = 0, uses_anonymous_args = 0
 459 0000 00B5     		push	{lr}
 460              		.cfi_def_cfa_offset 4
 461              		.cfi_offset 14, -4
 462 0002 85B0     		sub	sp, sp, #20
 463              		.cfi_def_cfa_offset 24
 464 0004 0190     		str	r0, [sp, #4]
 465 0006 0091     		str	r1, [sp]
 466              		.loc 5 82 0
 467 0008 174B     		ldr	r3, .L39
 468 000a 1B68     		ldr	r3, [r3]
 469 000c 0393     		str	r3, [sp, #12]
 470              		.loc 5 84 0
 471 000e 019B     		ldr	r3, [sp, #4]
 472 0010 002B     		cmp	r3, #0
 473 0012 02D0     		beq	.L35
 474              		.loc 5 84 0 is_stmt 0 discriminator 3
 475 0014 009B     		ldr	r3, [sp]
 476 0016 002B     		cmp	r3, #0
 477 0018 02D1     		bne	.L36
 478              	.L35:
 479              		.loc 5 84 0 discriminator 4
 480 001a 1448     		ldr	r0, .L39+4
 481 001c FFF7FEFF 		bl	chSysHalt
 482              	.L36:
 483              		.loc 5 86 0 is_stmt 1
 484 0020 FFF7FEFF 		bl	osalSysLock
 485              		.loc 5 87 0
 486 0024 019B     		ldr	r3, [sp, #4]
 487 0026 1B78     		ldrb	r3, [r3]	@ zero_extendqisi2
 488 0028 012B     		cmp	r3, #1
 489 002a 06D0     		beq	.L37
 490              		.loc 5 87 0 is_stmt 0 discriminator 2
 491 002c 019B     		ldr	r3, [sp, #4]
 492 002e 1B78     		ldrb	r3, [r3]	@ zero_extendqisi2
 493 0030 022B     		cmp	r3, #2
 494 0032 02D0     		beq	.L37
 495              		.loc 5 87 0 discriminator 3
 496 0034 0D48     		ldr	r0, .L39+4
 497 0036 FFF7FEFF 		bl	chSysHalt
 498              	.L37:
 499              		.loc 5 89 0 is_stmt 1
 500 003a 019B     		ldr	r3, [sp, #4]
 501 003c 009A     		ldr	r2, [sp]
 502 003e 5A60     		str	r2, [r3, #4]
 503              		.loc 5 90 0
 504 0040 0198     		ldr	r0, [sp, #4]
 505 0042 FFF7FEFF 		bl	gpt_lld_start
 506              		.loc 5 91 0
 507 0046 019B     		ldr	r3, [sp, #4]
 508 0048 0222     		movs	r2, #2
 509 004a 1A70     		strb	r2, [r3]
 510              		.loc 5 92 0
 511 004c FFF7FEFF 		bl	osalSysUnlock
 512              		.loc 5 93 0
 513 0050 00BF     		nop
ARM GAS  C:\Users\PCHAUT~1\AppData\Local\Temp\ccUkKlhc.s 			page 10


 514 0052 054B     		ldr	r3, .L39
 515 0054 039A     		ldr	r2, [sp, #12]
 516 0056 1B68     		ldr	r3, [r3]
 517 0058 9A42     		cmp	r2, r3
 518 005a 01D0     		beq	.L38
 519 005c FFF7FEFF 		bl	__stack_chk_fail
 520              	.L38:
 521 0060 05B0     		add	sp, sp, #20
 522              		.cfi_def_cfa_offset 4
 523              		@ sp needed
 524 0062 5DF804FB 		ldr	pc, [sp], #4
 525              	.L40:
 526 0066 00BF     		.align	2
 527              	.L39:
 528 0068 00000000 		.word	__stack_chk_guard
 529 006c 00000000 		.word	__func__.9848
 530              		.cfi_endproc
 531              	.LFE258:
 532              		.size	gptStart, .-gptStart
 533              		.section	.text.gptStop,"ax",%progbits
 534              		.align	1
 535              		.p2align 4,,15
 536              		.global	gptStop
 537              		.syntax unified
 538              		.thumb
 539              		.thumb_func
 540              		.fpu fpv4-sp-d16
 541              		.type	gptStop, %function
 542              	gptStop:
 543              	.LFB259:
 544              		.loc 5 102 0
 545              		.cfi_startproc
 546              		@ args = 0, pretend = 0, frame = 16
 547              		@ frame_needed = 0, uses_anonymous_args = 0
 548 0000 00B5     		push	{lr}
 549              		.cfi_def_cfa_offset 4
 550              		.cfi_offset 14, -4
 551 0002 85B0     		sub	sp, sp, #20
 552              		.cfi_def_cfa_offset 24
 553 0004 0190     		str	r0, [sp, #4]
 554              		.loc 5 102 0
 555 0006 144B     		ldr	r3, .L45
 556 0008 1B68     		ldr	r3, [r3]
 557 000a 0393     		str	r3, [sp, #12]
 558              		.loc 5 104 0
 559 000c 019B     		ldr	r3, [sp, #4]
 560 000e 002B     		cmp	r3, #0
 561 0010 02D1     		bne	.L42
 562              		.loc 5 104 0 is_stmt 0 discriminator 2
 563 0012 1248     		ldr	r0, .L45+4
 564 0014 FFF7FEFF 		bl	chSysHalt
 565              	.L42:
 566              		.loc 5 106 0 is_stmt 1
 567 0018 FFF7FEFF 		bl	osalSysLock
 568              		.loc 5 107 0
 569 001c 019B     		ldr	r3, [sp, #4]
 570 001e 1B78     		ldrb	r3, [r3]	@ zero_extendqisi2
ARM GAS  C:\Users\PCHAUT~1\AppData\Local\Temp\ccUkKlhc.s 			page 11


 571 0020 012B     		cmp	r3, #1
 572 0022 06D0     		beq	.L43
 573              		.loc 5 107 0 is_stmt 0 discriminator 2
 574 0024 019B     		ldr	r3, [sp, #4]
 575 0026 1B78     		ldrb	r3, [r3]	@ zero_extendqisi2
 576 0028 022B     		cmp	r3, #2
 577 002a 02D0     		beq	.L43
 578              		.loc 5 107 0 discriminator 3
 579 002c 0B48     		ldr	r0, .L45+4
 580 002e FFF7FEFF 		bl	chSysHalt
 581              	.L43:
 582              		.loc 5 109 0 is_stmt 1
 583 0032 0198     		ldr	r0, [sp, #4]
 584 0034 FFF7FEFF 		bl	gpt_lld_stop
 585              		.loc 5 110 0
 586 0038 019B     		ldr	r3, [sp, #4]
 587 003a 0122     		movs	r2, #1
 588 003c 1A70     		strb	r2, [r3]
 589              		.loc 5 111 0
 590 003e FFF7FEFF 		bl	osalSysUnlock
 591              		.loc 5 112 0
 592 0042 00BF     		nop
 593 0044 044B     		ldr	r3, .L45
 594 0046 039A     		ldr	r2, [sp, #12]
 595 0048 1B68     		ldr	r3, [r3]
 596 004a 9A42     		cmp	r2, r3
 597 004c 01D0     		beq	.L44
 598 004e FFF7FEFF 		bl	__stack_chk_fail
 599              	.L44:
 600 0052 05B0     		add	sp, sp, #20
 601              		.cfi_def_cfa_offset 4
 602              		@ sp needed
 603 0054 5DF804FB 		ldr	pc, [sp], #4
 604              	.L46:
 605              		.align	2
 606              	.L45:
 607 0058 00000000 		.word	__stack_chk_guard
 608 005c 00000000 		.word	__func__.9852
 609              		.cfi_endproc
 610              	.LFE259:
 611              		.size	gptStop, .-gptStop
 612              		.section	.text.gptChangeInterval,"ax",%progbits
 613              		.align	1
 614              		.p2align 4,,15
 615              		.global	gptChangeInterval
 616              		.syntax unified
 617              		.thumb
 618              		.thumb_func
 619              		.fpu fpv4-sp-d16
 620              		.type	gptChangeInterval, %function
 621              	gptChangeInterval:
 622              	.LFB260:
 623              		.loc 5 125 0
 624              		.cfi_startproc
 625              		@ args = 0, pretend = 0, frame = 16
 626              		@ frame_needed = 0, uses_anonymous_args = 0
 627 0000 00B5     		push	{lr}
ARM GAS  C:\Users\PCHAUT~1\AppData\Local\Temp\ccUkKlhc.s 			page 12


 628              		.cfi_def_cfa_offset 4
 629              		.cfi_offset 14, -4
 630 0002 85B0     		sub	sp, sp, #20
 631              		.cfi_def_cfa_offset 24
 632 0004 0190     		str	r0, [sp, #4]
 633 0006 0091     		str	r1, [sp]
 634              		.loc 5 125 0
 635 0008 114B     		ldr	r3, .L51
 636 000a 1B68     		ldr	r3, [r3]
 637 000c 0393     		str	r3, [sp, #12]
 638              		.loc 5 127 0
 639 000e 019B     		ldr	r3, [sp, #4]
 640 0010 002B     		cmp	r3, #0
 641 0012 02D1     		bne	.L48
 642              		.loc 5 127 0 is_stmt 0 discriminator 2
 643 0014 0F48     		ldr	r0, .L51+4
 644 0016 FFF7FEFF 		bl	chSysHalt
 645              	.L48:
 646              		.loc 5 129 0 is_stmt 1
 647 001a FFF7FEFF 		bl	osalSysLock
 648              		.loc 5 130 0
 649 001e 019B     		ldr	r3, [sp, #4]
 650 0020 1B78     		ldrb	r3, [r3]	@ zero_extendqisi2
 651 0022 032B     		cmp	r3, #3
 652 0024 02D0     		beq	.L49
 653              		.loc 5 130 0 is_stmt 0 discriminator 2
 654 0026 0B48     		ldr	r0, .L51+4
 655 0028 FFF7FEFF 		bl	chSysHalt
 656              	.L49:
 657              		.loc 5 132 0 is_stmt 1
 658 002c 019B     		ldr	r3, [sp, #4]
 659 002e DB68     		ldr	r3, [r3, #12]
 660 0030 009A     		ldr	r2, [sp]
 661 0032 013A     		subs	r2, r2, #1
 662 0034 DA62     		str	r2, [r3, #44]
 663              		.loc 5 133 0
 664 0036 FFF7FEFF 		bl	osalSysUnlock
 665              		.loc 5 134 0
 666 003a 00BF     		nop
 667 003c 044B     		ldr	r3, .L51
 668 003e 039A     		ldr	r2, [sp, #12]
 669 0040 1B68     		ldr	r3, [r3]
 670 0042 9A42     		cmp	r2, r3
 671 0044 01D0     		beq	.L50
 672 0046 FFF7FEFF 		bl	__stack_chk_fail
 673              	.L50:
 674 004a 05B0     		add	sp, sp, #20
 675              		.cfi_def_cfa_offset 4
 676              		@ sp needed
 677 004c 5DF804FB 		ldr	pc, [sp], #4
 678              	.L52:
 679              		.align	2
 680              	.L51:
 681 0050 00000000 		.word	__stack_chk_guard
 682 0054 00000000 		.word	__func__.9857
 683              		.cfi_endproc
 684              	.LFE260:
ARM GAS  C:\Users\PCHAUT~1\AppData\Local\Temp\ccUkKlhc.s 			page 13


 685              		.size	gptChangeInterval, .-gptChangeInterval
 686              		.section	.text.gptStartContinuous,"ax",%progbits
 687              		.align	1
 688              		.p2align 4,,15
 689              		.global	gptStartContinuous
 690              		.syntax unified
 691              		.thumb
 692              		.thumb_func
 693              		.fpu fpv4-sp-d16
 694              		.type	gptStartContinuous, %function
 695              	gptStartContinuous:
 696              	.LFB261:
 697              		.loc 5 144 0
 698              		.cfi_startproc
 699              		@ args = 0, pretend = 0, frame = 16
 700              		@ frame_needed = 0, uses_anonymous_args = 0
 701 0000 00B5     		push	{lr}
 702              		.cfi_def_cfa_offset 4
 703              		.cfi_offset 14, -4
 704 0002 85B0     		sub	sp, sp, #20
 705              		.cfi_def_cfa_offset 24
 706 0004 0190     		str	r0, [sp, #4]
 707 0006 0091     		str	r1, [sp]
 708              		.loc 5 144 0
 709 0008 0A4B     		ldr	r3, .L55
 710 000a 1B68     		ldr	r3, [r3]
 711 000c 0393     		str	r3, [sp, #12]
 712              		.loc 5 146 0
 713 000e FFF7FEFF 		bl	osalSysLock
 714              		.loc 5 147 0
 715 0012 0099     		ldr	r1, [sp]
 716 0014 0198     		ldr	r0, [sp, #4]
 717 0016 FFF7FEFF 		bl	gptStartContinuousI
 718              		.loc 5 148 0
 719 001a FFF7FEFF 		bl	osalSysUnlock
 720              		.loc 5 149 0
 721 001e 00BF     		nop
 722 0020 044B     		ldr	r3, .L55
 723 0022 039A     		ldr	r2, [sp, #12]
 724 0024 1B68     		ldr	r3, [r3]
 725 0026 9A42     		cmp	r2, r3
 726 0028 01D0     		beq	.L54
 727 002a FFF7FEFF 		bl	__stack_chk_fail
 728              	.L54:
 729 002e 05B0     		add	sp, sp, #20
 730              		.cfi_def_cfa_offset 4
 731              		@ sp needed
 732 0030 5DF804FB 		ldr	pc, [sp], #4
 733              	.L56:
 734              		.align	2
 735              	.L55:
 736 0034 00000000 		.word	__stack_chk_guard
 737              		.cfi_endproc
 738              	.LFE261:
 739              		.size	gptStartContinuous, .-gptStartContinuous
 740              		.section	.text.gptStartContinuousI,"ax",%progbits
 741              		.align	1
ARM GAS  C:\Users\PCHAUT~1\AppData\Local\Temp\ccUkKlhc.s 			page 14


 742              		.p2align 4,,15
 743              		.global	gptStartContinuousI
 744              		.syntax unified
 745              		.thumb
 746              		.thumb_func
 747              		.fpu fpv4-sp-d16
 748              		.type	gptStartContinuousI, %function
 749              	gptStartContinuousI:
 750              	.LFB262:
 751              		.loc 5 159 0
 752              		.cfi_startproc
 753              		@ args = 0, pretend = 0, frame = 16
 754              		@ frame_needed = 0, uses_anonymous_args = 0
 755 0000 00B5     		push	{lr}
 756              		.cfi_def_cfa_offset 4
 757              		.cfi_offset 14, -4
 758 0002 85B0     		sub	sp, sp, #20
 759              		.cfi_def_cfa_offset 24
 760 0004 0190     		str	r0, [sp, #4]
 761 0006 0091     		str	r1, [sp]
 762              		.loc 5 159 0
 763 0008 114B     		ldr	r3, .L62
 764 000a 1B68     		ldr	r3, [r3]
 765 000c 0393     		str	r3, [sp, #12]
 766              		.loc 5 161 0
 767 000e FFF7FEFF 		bl	chDbgCheckClassI
 768              		.loc 5 162 0
 769 0012 019B     		ldr	r3, [sp, #4]
 770 0014 002B     		cmp	r3, #0
 771 0016 02D1     		bne	.L61
 772              		.loc 5 162 0 is_stmt 0 discriminator 2
 773 0018 0E48     		ldr	r0, .L62+4
 774 001a FFF7FEFF 		bl	chSysHalt
 775              	.L61:
 776              		.loc 5 163 0 is_stmt 1 discriminator 1
 777 001e 019B     		ldr	r3, [sp, #4]
 778 0020 1B78     		ldrb	r3, [r3]	@ zero_extendqisi2
 779 0022 022B     		cmp	r3, #2
 780 0024 02D0     		beq	.L59
 781              		.loc 5 163 0 is_stmt 0 discriminator 2
 782 0026 0B48     		ldr	r0, .L62+4
 783 0028 FFF7FEFF 		bl	chSysHalt
 784              	.L59:
 785              		.loc 5 166 0 is_stmt 1
 786 002c 019B     		ldr	r3, [sp, #4]
 787 002e 0322     		movs	r2, #3
 788 0030 1A70     		strb	r2, [r3]
 789              		.loc 5 167 0
 790 0032 0099     		ldr	r1, [sp]
 791 0034 0198     		ldr	r0, [sp, #4]
 792 0036 FFF7FEFF 		bl	gpt_lld_start_timer
 793              		.loc 5 168 0
 794 003a 00BF     		nop
 795 003c 044B     		ldr	r3, .L62
 796 003e 039A     		ldr	r2, [sp, #12]
 797 0040 1B68     		ldr	r3, [r3]
 798 0042 9A42     		cmp	r2, r3
ARM GAS  C:\Users\PCHAUT~1\AppData\Local\Temp\ccUkKlhc.s 			page 15


 799 0044 01D0     		beq	.L60
 800 0046 FFF7FEFF 		bl	__stack_chk_fail
 801              	.L60:
 802 004a 05B0     		add	sp, sp, #20
 803              		.cfi_def_cfa_offset 4
 804              		@ sp needed
 805 004c 5DF804FB 		ldr	pc, [sp], #4
 806              	.L63:
 807              		.align	2
 808              	.L62:
 809 0050 00000000 		.word	__stack_chk_guard
 810 0054 00000000 		.word	__func__.9866
 811              		.cfi_endproc
 812              	.LFE262:
 813              		.size	gptStartContinuousI, .-gptStartContinuousI
 814              		.section	.text.gptStartOneShot,"ax",%progbits
 815              		.align	1
 816              		.p2align 4,,15
 817              		.global	gptStartOneShot
 818              		.syntax unified
 819              		.thumb
 820              		.thumb_func
 821              		.fpu fpv4-sp-d16
 822              		.type	gptStartOneShot, %function
 823              	gptStartOneShot:
 824              	.LFB263:
 825              		.loc 5 178 0
 826              		.cfi_startproc
 827              		@ args = 0, pretend = 0, frame = 16
 828              		@ frame_needed = 0, uses_anonymous_args = 0
 829 0000 00B5     		push	{lr}
 830              		.cfi_def_cfa_offset 4
 831              		.cfi_offset 14, -4
 832 0002 85B0     		sub	sp, sp, #20
 833              		.cfi_def_cfa_offset 24
 834 0004 0190     		str	r0, [sp, #4]
 835 0006 0091     		str	r1, [sp]
 836              		.loc 5 178 0
 837 0008 0A4B     		ldr	r3, .L66
 838 000a 1B68     		ldr	r3, [r3]
 839 000c 0393     		str	r3, [sp, #12]
 840              		.loc 5 180 0
 841 000e FFF7FEFF 		bl	osalSysLock
 842              		.loc 5 181 0
 843 0012 0099     		ldr	r1, [sp]
 844 0014 0198     		ldr	r0, [sp, #4]
 845 0016 FFF7FEFF 		bl	gptStartOneShotI
 846              		.loc 5 182 0
 847 001a FFF7FEFF 		bl	osalSysUnlock
 848              		.loc 5 183 0
 849 001e 00BF     		nop
 850 0020 044B     		ldr	r3, .L66
 851 0022 039A     		ldr	r2, [sp, #12]
 852 0024 1B68     		ldr	r3, [r3]
 853 0026 9A42     		cmp	r2, r3
 854 0028 01D0     		beq	.L65
 855 002a FFF7FEFF 		bl	__stack_chk_fail
ARM GAS  C:\Users\PCHAUT~1\AppData\Local\Temp\ccUkKlhc.s 			page 16


 856              	.L65:
 857 002e 05B0     		add	sp, sp, #20
 858              		.cfi_def_cfa_offset 4
 859              		@ sp needed
 860 0030 5DF804FB 		ldr	pc, [sp], #4
 861              	.L67:
 862              		.align	2
 863              	.L66:
 864 0034 00000000 		.word	__stack_chk_guard
 865              		.cfi_endproc
 866              	.LFE263:
 867              		.size	gptStartOneShot, .-gptStartOneShot
 868              		.section	.text.gptStartOneShotI,"ax",%progbits
 869              		.align	1
 870              		.p2align 4,,15
 871              		.global	gptStartOneShotI
 872              		.syntax unified
 873              		.thumb
 874              		.thumb_func
 875              		.fpu fpv4-sp-d16
 876              		.type	gptStartOneShotI, %function
 877              	gptStartOneShotI:
 878              	.LFB264:
 879              		.loc 5 193 0
 880              		.cfi_startproc
 881              		@ args = 0, pretend = 0, frame = 16
 882              		@ frame_needed = 0, uses_anonymous_args = 0
 883 0000 00B5     		push	{lr}
 884              		.cfi_def_cfa_offset 4
 885              		.cfi_offset 14, -4
 886 0002 85B0     		sub	sp, sp, #20
 887              		.cfi_def_cfa_offset 24
 888 0004 0190     		str	r0, [sp, #4]
 889 0006 0091     		str	r1, [sp]
 890              		.loc 5 193 0
 891 0008 154B     		ldr	r3, .L75
 892 000a 1B68     		ldr	r3, [r3]
 893 000c 0393     		str	r3, [sp, #12]
 894              		.loc 5 195 0
 895 000e FFF7FEFF 		bl	chDbgCheckClassI
 896              		.loc 5 196 0
 897 0012 019B     		ldr	r3, [sp, #4]
 898 0014 002B     		cmp	r3, #0
 899 0016 02D1     		bne	.L73
 900              		.loc 5 196 0 is_stmt 0 discriminator 2
 901 0018 1248     		ldr	r0, .L75+4
 902 001a FFF7FEFF 		bl	chSysHalt
 903              	.L73:
 904              		.loc 5 197 0 is_stmt 1 discriminator 1
 905 001e 019B     		ldr	r3, [sp, #4]
 906 0020 5B68     		ldr	r3, [r3, #4]
 907 0022 5B68     		ldr	r3, [r3, #4]
 908 0024 002B     		cmp	r3, #0
 909 0026 02D1     		bne	.L74
 910              		.loc 5 197 0 is_stmt 0 discriminator 2
 911 0028 0E48     		ldr	r0, .L75+4
 912 002a FFF7FEFF 		bl	chSysHalt
ARM GAS  C:\Users\PCHAUT~1\AppData\Local\Temp\ccUkKlhc.s 			page 17


 913              	.L74:
 914              		.loc 5 198 0 is_stmt 1 discriminator 1
 915 002e 019B     		ldr	r3, [sp, #4]
 916 0030 1B78     		ldrb	r3, [r3]	@ zero_extendqisi2
 917 0032 022B     		cmp	r3, #2
 918 0034 02D0     		beq	.L71
 919              		.loc 5 198 0 is_stmt 0 discriminator 2
 920 0036 0B48     		ldr	r0, .L75+4
 921 0038 FFF7FEFF 		bl	chSysHalt
 922              	.L71:
 923              		.loc 5 201 0 is_stmt 1
 924 003c 019B     		ldr	r3, [sp, #4]
 925 003e 0422     		movs	r2, #4
 926 0040 1A70     		strb	r2, [r3]
 927              		.loc 5 202 0
 928 0042 0099     		ldr	r1, [sp]
 929 0044 0198     		ldr	r0, [sp, #4]
 930 0046 FFF7FEFF 		bl	gpt_lld_start_timer
 931              		.loc 5 203 0
 932 004a 00BF     		nop
 933 004c 044B     		ldr	r3, .L75
 934 004e 039A     		ldr	r2, [sp, #12]
 935 0050 1B68     		ldr	r3, [r3]
 936 0052 9A42     		cmp	r2, r3
 937 0054 01D0     		beq	.L72
 938 0056 FFF7FEFF 		bl	__stack_chk_fail
 939              	.L72:
 940 005a 05B0     		add	sp, sp, #20
 941              		.cfi_def_cfa_offset 4
 942              		@ sp needed
 943 005c 5DF804FB 		ldr	pc, [sp], #4
 944              	.L76:
 945              		.align	2
 946              	.L75:
 947 0060 00000000 		.word	__stack_chk_guard
 948 0064 00000000 		.word	__func__.9875
 949              		.cfi_endproc
 950              	.LFE264:
 951              		.size	gptStartOneShotI, .-gptStartOneShotI
 952              		.section	.text.gptStopTimer,"ax",%progbits
 953              		.align	1
 954              		.p2align 4,,15
 955              		.global	gptStopTimer
 956              		.syntax unified
 957              		.thumb
 958              		.thumb_func
 959              		.fpu fpv4-sp-d16
 960              		.type	gptStopTimer, %function
 961              	gptStopTimer:
 962              	.LFB265:
 963              		.loc 5 212 0
 964              		.cfi_startproc
 965              		@ args = 0, pretend = 0, frame = 16
 966              		@ frame_needed = 0, uses_anonymous_args = 0
 967 0000 00B5     		push	{lr}
 968              		.cfi_def_cfa_offset 4
 969              		.cfi_offset 14, -4
ARM GAS  C:\Users\PCHAUT~1\AppData\Local\Temp\ccUkKlhc.s 			page 18


 970 0002 85B0     		sub	sp, sp, #20
 971              		.cfi_def_cfa_offset 24
 972 0004 0190     		str	r0, [sp, #4]
 973              		.loc 5 212 0
 974 0006 0A4B     		ldr	r3, .L79
 975 0008 1B68     		ldr	r3, [r3]
 976 000a 0393     		str	r3, [sp, #12]
 977              		.loc 5 214 0
 978 000c FFF7FEFF 		bl	osalSysLock
 979              		.loc 5 215 0
 980 0010 0198     		ldr	r0, [sp, #4]
 981 0012 FFF7FEFF 		bl	gptStopTimerI
 982              		.loc 5 216 0
 983 0016 FFF7FEFF 		bl	osalSysUnlock
 984              		.loc 5 217 0
 985 001a 00BF     		nop
 986 001c 044B     		ldr	r3, .L79
 987 001e 039A     		ldr	r2, [sp, #12]
 988 0020 1B68     		ldr	r3, [r3]
 989 0022 9A42     		cmp	r2, r3
 990 0024 01D0     		beq	.L78
 991 0026 FFF7FEFF 		bl	__stack_chk_fail
 992              	.L78:
 993 002a 05B0     		add	sp, sp, #20
 994              		.cfi_def_cfa_offset 4
 995              		@ sp needed
 996 002c 5DF804FB 		ldr	pc, [sp], #4
 997              	.L80:
 998              		.align	2
 999              	.L79:
 1000 0030 00000000 		.word	__stack_chk_guard
 1001              		.cfi_endproc
 1002              	.LFE265:
 1003              		.size	gptStopTimer, .-gptStopTimer
 1004              		.section	.text.gptStopTimerI,"ax",%progbits
 1005              		.align	1
 1006              		.p2align 4,,15
 1007              		.global	gptStopTimerI
 1008              		.syntax unified
 1009              		.thumb
 1010              		.thumb_func
 1011              		.fpu fpv4-sp-d16
 1012              		.type	gptStopTimerI, %function
 1013              	gptStopTimerI:
 1014              	.LFB266:
 1015              		.loc 5 226 0
 1016              		.cfi_startproc
 1017              		@ args = 0, pretend = 0, frame = 16
 1018              		@ frame_needed = 0, uses_anonymous_args = 0
 1019 0000 00B5     		push	{lr}
 1020              		.cfi_def_cfa_offset 4
 1021              		.cfi_offset 14, -4
 1022 0002 85B0     		sub	sp, sp, #20
 1023              		.cfi_def_cfa_offset 24
 1024 0004 0190     		str	r0, [sp, #4]
 1025              		.loc 5 226 0
 1026 0006 154B     		ldr	r3, .L86
ARM GAS  C:\Users\PCHAUT~1\AppData\Local\Temp\ccUkKlhc.s 			page 19


 1027 0008 1B68     		ldr	r3, [r3]
 1028 000a 0393     		str	r3, [sp, #12]
 1029              		.loc 5 228 0
 1030 000c FFF7FEFF 		bl	chDbgCheckClassI
 1031              		.loc 5 229 0
 1032 0010 019B     		ldr	r3, [sp, #4]
 1033 0012 002B     		cmp	r3, #0
 1034 0014 02D1     		bne	.L85
 1035              		.loc 5 229 0 is_stmt 0 discriminator 2
 1036 0016 1248     		ldr	r0, .L86+4
 1037 0018 FFF7FEFF 		bl	chSysHalt
 1038              	.L85:
 1039              		.loc 5 230 0 is_stmt 1 discriminator 1
 1040 001c 019B     		ldr	r3, [sp, #4]
 1041 001e 1B78     		ldrb	r3, [r3]	@ zero_extendqisi2
 1042 0020 022B     		cmp	r3, #2
 1043 0022 0AD0     		beq	.L83
 1044              		.loc 5 230 0 is_stmt 0 discriminator 2
 1045 0024 019B     		ldr	r3, [sp, #4]
 1046 0026 1B78     		ldrb	r3, [r3]	@ zero_extendqisi2
 1047 0028 032B     		cmp	r3, #3
 1048 002a 06D0     		beq	.L83
 1049              		.loc 5 230 0 discriminator 3
 1050 002c 019B     		ldr	r3, [sp, #4]
 1051 002e 1B78     		ldrb	r3, [r3]	@ zero_extendqisi2
 1052 0030 042B     		cmp	r3, #4
 1053 0032 02D0     		beq	.L83
 1054              		.loc 5 230 0 discriminator 4
 1055 0034 0A48     		ldr	r0, .L86+4
 1056 0036 FFF7FEFF 		bl	chSysHalt
 1057              	.L83:
 1058              		.loc 5 234 0 is_stmt 1
 1059 003a 019B     		ldr	r3, [sp, #4]
 1060 003c 0222     		movs	r2, #2
 1061 003e 1A70     		strb	r2, [r3]
 1062              		.loc 5 235 0
 1063 0040 0198     		ldr	r0, [sp, #4]
 1064 0042 FFF7FEFF 		bl	gpt_lld_stop_timer
 1065              		.loc 5 236 0
 1066 0046 00BF     		nop
 1067 0048 044B     		ldr	r3, .L86
 1068 004a 039A     		ldr	r2, [sp, #12]
 1069 004c 1B68     		ldr	r3, [r3]
 1070 004e 9A42     		cmp	r2, r3
 1071 0050 01D0     		beq	.L84
 1072 0052 FFF7FEFF 		bl	__stack_chk_fail
 1073              	.L84:
 1074 0056 05B0     		add	sp, sp, #20
 1075              		.cfi_def_cfa_offset 4
 1076              		@ sp needed
 1077 0058 5DF804FB 		ldr	pc, [sp], #4
 1078              	.L87:
 1079              		.align	2
 1080              	.L86:
 1081 005c 00000000 		.word	__stack_chk_guard
 1082 0060 00000000 		.word	__func__.9882
 1083              		.cfi_endproc
ARM GAS  C:\Users\PCHAUT~1\AppData\Local\Temp\ccUkKlhc.s 			page 20


 1084              	.LFE266:
 1085              		.size	gptStopTimerI, .-gptStopTimerI
 1086              		.section	.text.gptPolledDelay,"ax",%progbits
 1087              		.align	1
 1088              		.p2align 4,,15
 1089              		.global	gptPolledDelay
 1090              		.syntax unified
 1091              		.thumb
 1092              		.thumb_func
 1093              		.fpu fpv4-sp-d16
 1094              		.type	gptPolledDelay, %function
 1095              	gptPolledDelay:
 1096              	.LFB267:
 1097              		.loc 5 250 0
 1098              		.cfi_startproc
 1099              		@ args = 0, pretend = 0, frame = 16
 1100              		@ frame_needed = 0, uses_anonymous_args = 0
 1101 0000 00B5     		push	{lr}
 1102              		.cfi_def_cfa_offset 4
 1103              		.cfi_offset 14, -4
 1104 0002 85B0     		sub	sp, sp, #20
 1105              		.cfi_def_cfa_offset 24
 1106 0004 0190     		str	r0, [sp, #4]
 1107 0006 0091     		str	r1, [sp]
 1108              		.loc 5 250 0
 1109 0008 0F4B     		ldr	r3, .L91
 1110 000a 1B68     		ldr	r3, [r3]
 1111 000c 0393     		str	r3, [sp, #12]
 1112              		.loc 5 252 0
 1113 000e 019B     		ldr	r3, [sp, #4]
 1114 0010 1B78     		ldrb	r3, [r3]	@ zero_extendqisi2
 1115 0012 022B     		cmp	r3, #2
 1116 0014 02D0     		beq	.L89
 1117              		.loc 5 252 0 is_stmt 0 discriminator 2
 1118 0016 0D48     		ldr	r0, .L91+4
 1119 0018 FFF7FEFF 		bl	chSysHalt
 1120              	.L89:
 1121              		.loc 5 255 0 is_stmt 1
 1122 001c 019B     		ldr	r3, [sp, #4]
 1123 001e 0422     		movs	r2, #4
 1124 0020 1A70     		strb	r2, [r3]
 1125              		.loc 5 256 0
 1126 0022 0099     		ldr	r1, [sp]
 1127 0024 0198     		ldr	r0, [sp, #4]
 1128 0026 FFF7FEFF 		bl	gpt_lld_polled_delay
 1129              		.loc 5 257 0
 1130 002a 019B     		ldr	r3, [sp, #4]
 1131 002c 0222     		movs	r2, #2
 1132 002e 1A70     		strb	r2, [r3]
 1133              		.loc 5 258 0
 1134 0030 00BF     		nop
 1135 0032 054B     		ldr	r3, .L91
 1136 0034 039A     		ldr	r2, [sp, #12]
 1137 0036 1B68     		ldr	r3, [r3]
 1138 0038 9A42     		cmp	r2, r3
 1139 003a 01D0     		beq	.L90
 1140 003c FFF7FEFF 		bl	__stack_chk_fail
ARM GAS  C:\Users\PCHAUT~1\AppData\Local\Temp\ccUkKlhc.s 			page 21


 1141              	.L90:
 1142 0040 05B0     		add	sp, sp, #20
 1143              		.cfi_def_cfa_offset 4
 1144              		@ sp needed
 1145 0042 5DF804FB 		ldr	pc, [sp], #4
 1146              	.L92:
 1147 0046 00BF     		.align	2
 1148              	.L91:
 1149 0048 00000000 		.word	__stack_chk_guard
 1150 004c 00000000 		.word	__func__.9887
 1151              		.cfi_endproc
 1152              	.LFE267:
 1153              		.size	gptPolledDelay, .-gptPolledDelay
 1154              		.section	.rodata.__func__.9848,"a",%progbits
 1155              		.align	2
 1156              		.type	__func__.9848, %object
 1157              		.size	__func__.9848, 9
 1158              	__func__.9848:
 1159 0000 67707453 		.ascii	"gptStart\000"
 1159      74617274 
 1159      00
 1160              		.section	.rodata.__func__.7153,"a",%progbits
 1161              		.align	2
 1162              		.type	__func__.7153, %object
 1163              		.size	__func__.7153, 12
 1164              	__func__.7153:
 1165 0000 63685379 		.ascii	"chSysUnlock\000"
 1165      73556E6C 
 1165      6F636B00 
 1166              		.section	.rodata.__func__.9852,"a",%progbits
 1167              		.align	2
 1168              		.type	__func__.9852, %object
 1169              		.size	__func__.9852, 8
 1170              	__func__.9852:
 1171 0000 67707453 		.ascii	"gptStop\000"
 1171      746F7000 
 1172              		.section	.rodata.__func__.9857,"a",%progbits
 1173              		.align	2
 1174              		.type	__func__.9857, %object
 1175              		.size	__func__.9857, 18
 1176              	__func__.9857:
 1177 0000 67707443 		.ascii	"gptChangeInterval\000"
 1177      68616E67 
 1177      65496E74 
 1177      65727661 
 1177      6C00
 1178              		.section	.rodata.__func__.9866,"a",%progbits
 1179              		.align	2
 1180              		.type	__func__.9866, %object
 1181              		.size	__func__.9866, 20
 1182              	__func__.9866:
 1183 0000 67707453 		.ascii	"gptStartContinuousI\000"
 1183      74617274 
 1183      436F6E74 
 1183      696E756F 
 1183      75734900 
 1184              		.section	.rodata.__func__.9875,"a",%progbits
ARM GAS  C:\Users\PCHAUT~1\AppData\Local\Temp\ccUkKlhc.s 			page 22


 1185              		.align	2
 1186              		.type	__func__.9875, %object
 1187              		.size	__func__.9875, 17
 1188              	__func__.9875:
 1189 0000 67707453 		.ascii	"gptStartOneShotI\000"
 1189      74617274 
 1189      4F6E6553 
 1189      686F7449 
 1189      00
 1190              		.section	.rodata.__func__.9882,"a",%progbits
 1191              		.align	2
 1192              		.type	__func__.9882, %object
 1193              		.size	__func__.9882, 14
 1194              	__func__.9882:
 1195 0000 67707453 		.ascii	"gptStopTimerI\000"
 1195      746F7054 
 1195      696D6572 
 1195      4900
 1196              		.section	.rodata.__func__.9887,"a",%progbits
 1197              		.align	2
 1198              		.type	__func__.9887, %object
 1199              		.size	__func__.9887, 15
 1200              	__func__.9887:
 1201 0000 67707450 		.ascii	"gptPolledDelay\000"
 1201      6F6C6C65 
 1201      6444656C 
 1201      617900
 1202              		.text
 1203              	.Letext0:
 1204              		.file 6 "c:\\users\\pchautems\\documents\\robotiquetp\\eclipse_e-puck2\\tools\\gcc-arm-none-eabi-7
 1205              		.file 7 "c:\\users\\pchautems\\documents\\robotiquetp\\eclipse_e-puck2\\tools\\gcc-arm-none-eabi-7
 1206              		.file 8 "c:\\users\\pchautems\\documents\\robotiquetp\\eclipse_e-puck2\\tools\\gcc-arm-none-eabi-7
 1207              		.file 9 "../lib/e-puck2_main-processor/ChibiOS//os/rt/ports/ARMCMx/compilers/GCC/chtypes.h"
 1208              		.file 10 "../lib/e-puck2_main-processor/ChibiOS//os/rt/include/chsystypes.h"
 1209              		.file 11 "../lib/e-puck2_main-processor/ChibiOS//os/rt/include/chschd.h"
 1210              		.file 12 "../lib/e-puck2_main-processor/ChibiOS//os/ext/CMSIS/include/core_cm4.h"
 1211              		.file 13 "../lib/e-puck2_main-processor/ChibiOS//os/ext/CMSIS/ST/system_stm32f4xx.h"
 1212              		.file 14 "../lib/e-puck2_main-processor/ChibiOS//os/ext/CMSIS/ST/stm32f407xx.h"
 1213              		.file 15 "../lib/e-puck2_main-processor/ChibiOS//os/rt/ports/ARMCMx/chcore.h"
 1214              		.file 16 "../lib/e-puck2_main-processor/ChibiOS//os/rt/include/chdebug.h"
 1215              		.file 17 "../lib/e-puck2_main-processor/ChibiOS//os/rt/include/chtm.h"
 1216              		.file 18 "../lib/e-puck2_main-processor/ChibiOS//os/rt/include/chstats.h"
 1217              		.file 19 "../lib/e-puck2_main-processor/ChibiOS//os/rt/include/chsem.h"
 1218              		.file 20 "../lib/e-puck2_main-processor/ChibiOS//os/rt/include/chmtx.h"
 1219              		.file 21 "../lib/e-puck2_main-processor/ChibiOS//os/rt/include/chregistry.h"
 1220              		.file 22 "../lib/e-puck2_main-processor/ChibiOS//os/rt/include/chevents.h"
 1221              		.file 23 "../lib/e-puck2_main-processor/ChibiOS//os/rt/include/chqueues.h"
 1222              		.file 24 "../lib/e-puck2_main-processor/ChibiOS//os/hal/ports/STM32/STM32F4xx/stm32_dma.h"
 1223              		.file 25 "../lib/e-puck2_main-processor/ChibiOS//os/hal/include/hal_ioblock.h"
 1224              		.file 26 "../lib/e-puck2_main-processor/ChibiOS//os/hal/ports/STM32/LLD/GPIOv2/pal_lld.h"
 1225              		.file 27 "../lib/e-puck2_main-processor/ChibiOS//os/hal/include/adc.h"
 1226              		.file 28 "../lib/e-puck2_main-processor/ChibiOS//os/hal/ports/STM32/STM32F4xx/adc_lld.h"
 1227              		.file 29 "../lib/e-puck2_main-processor/ChibiOS//os/hal/include/can.h"
 1228              		.file 30 "../lib/e-puck2_main-processor/ChibiOS//os/hal/ports/STM32/LLD/can_lld.h"
 1229              		.file 31 "../lib/e-puck2_main-processor/ChibiOS//os/hal/include/dac.h"
 1230              		.file 32 "../lib/e-puck2_main-processor/ChibiOS//os/hal/ports/STM32/LLD/DACv1/dac_lld.h"
 1231              		.file 33 "../lib/e-puck2_main-processor/ChibiOS//os/hal/include/ext.h"
ARM GAS  C:\Users\PCHAUT~1\AppData\Local\Temp\ccUkKlhc.s 			page 23


 1232              		.file 34 "../lib/e-puck2_main-processor/ChibiOS//os/hal/ports/STM32/LLD/ext_lld.h"
 1233              		.file 35 "../lib/e-puck2_main-processor/ChibiOS//os/hal/include/gpt.h"
 1234              		.file 36 "../lib/e-puck2_main-processor/ChibiOS//os/hal/ports/STM32/LLD/TIMv1/gpt_lld.h"
 1235              		.file 37 "../lib/e-puck2_main-processor/ChibiOS//os/hal/ports/STM32/LLD/TIMv1/stm32_tim.h"
 1236              		.file 38 "../lib/e-puck2_main-processor/ChibiOS//os/hal/include/i2c.h"
 1237              		.file 39 "../lib/e-puck2_main-processor/ChibiOS//os/hal/ports/STM32/LLD/I2Cv1/i2c_lld.h"
 1238              		.file 40 "../lib/e-puck2_main-processor/ChibiOS//os/hal/include/i2s.h"
 1239              		.file 41 "../lib/e-puck2_main-processor/ChibiOS//os/hal/ports/STM32/LLD/SPIv1/i2s_lld.h"
 1240              		.file 42 "../lib/e-puck2_main-processor/ChibiOS//os/hal/include/pwm.h"
 1241              		.file 43 "../lib/e-puck2_main-processor/ChibiOS//os/hal/ports/STM32/LLD/TIMv1/pwm_lld.h"
 1242              		.file 44 "../lib/e-puck2_main-processor/ChibiOS//os/hal/include/serial.h"
 1243              		.file 45 "../lib/e-puck2_main-processor/ChibiOS//os/hal/ports/STM32/LLD/USARTv1/serial_lld.h"
 1244              		.file 46 "../lib/e-puck2_main-processor/ChibiOS//os/hal/include/sdc.h"
 1245              		.file 47 "../lib/e-puck2_main-processor/ChibiOS//os/hal/ports/STM32/LLD/sdc_lld.h"
 1246              		.file 48 "../lib/e-puck2_main-processor/ChibiOS//os/hal/include/spi.h"
 1247              		.file 49 "../lib/e-puck2_main-processor/ChibiOS//os/hal/ports/STM32/LLD/SPIv1/spi_lld.h"
 1248              		.file 50 "../lib/e-puck2_main-processor/ChibiOS//os/hal/include/usb.h"
 1249              		.file 51 "../lib/e-puck2_main-processor/ChibiOS//os/hal/ports/STM32/LLD/OTGv1/usb_lld.h"
 1250              		.file 52 "../lib/e-puck2_main-processor/ChibiOS//os/hal/ports/STM32/LLD/OTGv1/stm32_otg.h"