ARM GAS  C:\Users\PCHAUT~1\AppData\Local\Temp\ccOuItFW.s 			page 1


   1              		.cpu cortex-m4
   2              		.eabi_attribute 27, 1
   3              		.eabi_attribute 28, 1
   4              		.eabi_attribute 20, 1
   5              		.eabi_attribute 21, 1
   6              		.eabi_attribute 23, 3
   7              		.eabi_attribute 24, 1
   8              		.eabi_attribute 25, 1
   9              		.eabi_attribute 26, 1
  10              		.eabi_attribute 30, 6
  11              		.eabi_attribute 34, 1
  12              		.eabi_attribute 18, 4
  13              		.file	"hal_lld.c"
  14              		.text
  15              	.Ltext0:
  16              		.cfi_sections	.debug_frame
  17              		.global	SystemCoreClock
  18              		.section	.data.SystemCoreClock,"aw",%progbits
  19              		.align	2
  20              		.type	SystemCoreClock, %object
  21              		.size	SystemCoreClock, 4
  22              	SystemCoreClock:
  23 0000 007A030A 		.word	168000000
  24              		.section	.text.hal_lld_backup_domain_init,"ax",%progbits
  25              		.align	1
  26              		.p2align 4,,15
  27              		.syntax unified
  28              		.thumb
  29              		.thumb_func
  30              		.fpu fpv4-sp-d16
  31              		.type	hal_lld_backup_domain_init, %function
  32              	hal_lld_backup_domain_init:
  33              	.LFB256:
  34              		.file 1 "../lib/e-puck2_main-processor/ChibiOS//os/hal/ports/STM32/STM32F4xx/hal_lld.c"
  35              		.loc 1 54 0
  36              		.cfi_startproc
  37              		@ args = 0, pretend = 0, frame = 8
  38              		@ frame_needed = 0, uses_anonymous_args = 0
  39 0000 00B5     		push	{lr}
  40              		.cfi_def_cfa_offset 4
  41              		.cfi_offset 14, -4
  42 0002 83B0     		sub	sp, sp, #12
  43              		.cfi_def_cfa_offset 16
  44              		.loc 1 54 0
  45 0004 134B     		ldr	r3, .L4
  46 0006 1B68     		ldr	r3, [r3]
  47 0008 0193     		str	r3, [sp, #4]
  48              		.loc 1 57 0
  49 000a 134B     		ldr	r3, .L4+4
  50 000c 1B68     		ldr	r3, [r3]
  51 000e 124A     		ldr	r2, .L4+4
  52 0010 43F48073 		orr	r3, r3, #256
  53 0014 1360     		str	r3, [r2]
  54              		.loc 1 60 0
  55 0016 114B     		ldr	r3, .L4+8
  56 0018 1B6F     		ldr	r3, [r3, #112]
  57 001a 03F44073 		and	r3, r3, #768
ARM GAS  C:\Users\PCHAUT~1\AppData\Local\Temp\ccOuItFW.s 			page 2


  58 001e B3F5007F 		cmp	r3, #512
  59 0022 06D0     		beq	.L2
  60              		.loc 1 62 0
  61 0024 0D4B     		ldr	r3, .L4+8
  62 0026 4FF48032 		mov	r2, #65536
  63 002a 1A67     		str	r2, [r3, #112]
  64              		.loc 1 63 0
  65 002c 0B4B     		ldr	r3, .L4+8
  66 002e 0022     		movs	r2, #0
  67 0030 1A67     		str	r2, [r3, #112]
  68              	.L2:
  69              		.loc 1 97 0
  70 0032 094B     		ldr	r3, .L4+4
  71 0034 5B68     		ldr	r3, [r3, #4]
  72 0036 084A     		ldr	r2, .L4+4
  73 0038 23F40073 		bic	r3, r3, #512
  74 003c 5360     		str	r3, [r2, #4]
  75              		.loc 1 99 0
  76 003e 00BF     		nop
  77 0040 044B     		ldr	r3, .L4
  78 0042 019A     		ldr	r2, [sp, #4]
  79 0044 1B68     		ldr	r3, [r3]
  80 0046 9A42     		cmp	r2, r3
  81 0048 01D0     		beq	.L3
  82 004a FFF7FEFF 		bl	__stack_chk_fail
  83              	.L3:
  84 004e 03B0     		add	sp, sp, #12
  85              		.cfi_def_cfa_offset 4
  86              		@ sp needed
  87 0050 5DF804FB 		ldr	pc, [sp], #4
  88              	.L5:
  89              		.align	2
  90              	.L4:
  91 0054 00000000 		.word	__stack_chk_guard
  92 0058 00700040 		.word	1073770496
  93 005c 00380240 		.word	1073887232
  94              		.cfi_endproc
  95              	.LFE256:
  96              		.size	hal_lld_backup_domain_init, .-hal_lld_backup_domain_init
  97              		.section	.text.hal_lld_init,"ax",%progbits
  98              		.align	1
  99              		.p2align 4,,15
 100              		.global	hal_lld_init
 101              		.syntax unified
 102              		.thumb
 103              		.thumb_func
 104              		.fpu fpv4-sp-d16
 105              		.type	hal_lld_init, %function
 106              	hal_lld_init:
 107              	.LFB257:
 108              		.loc 1 114 0
 109              		.cfi_startproc
 110              		@ args = 0, pretend = 0, frame = 8
 111              		@ frame_needed = 0, uses_anonymous_args = 0
 112 0000 00B5     		push	{lr}
 113              		.cfi_def_cfa_offset 4
 114              		.cfi_offset 14, -4
ARM GAS  C:\Users\PCHAUT~1\AppData\Local\Temp\ccOuItFW.s 			page 3


 115 0002 83B0     		sub	sp, sp, #12
 116              		.cfi_def_cfa_offset 16
 117              		.loc 1 114 0
 118 0004 1D4B     		ldr	r3, .L8
 119 0006 1B68     		ldr	r3, [r3]
 120 0008 0193     		str	r3, [sp, #4]
 121              		.loc 1 118 0
 122 000a 1D4B     		ldr	r3, .L8+4
 123 000c 1B69     		ldr	r3, [r3, #16]
 124 000e 1C4B     		ldr	r3, .L8+4
 125 0010 4FF0FF32 		mov	r2, #-1
 126 0014 1A61     		str	r2, [r3, #16]
 127 0016 1A4B     		ldr	r3, .L8+4
 128 0018 0022     		movs	r2, #0
 129 001a 1A61     		str	r2, [r3, #16]
 130              		.loc 1 119 0
 131 001c 184B     		ldr	r3, .L8+4
 132 001e 5B69     		ldr	r3, [r3, #20]
 133 0020 174B     		ldr	r3, .L8+4
 134 0022 4FF0FF32 		mov	r2, #-1
 135 0026 5A61     		str	r2, [r3, #20]
 136 0028 154B     		ldr	r3, .L8+4
 137 002a 0022     		movs	r2, #0
 138 002c 5A61     		str	r2, [r3, #20]
 139              		.loc 1 120 0
 140 002e 144B     		ldr	r3, .L8+4
 141 0030 1B6A     		ldr	r3, [r3, #32]
 142 0032 134A     		ldr	r2, .L8+4
 143 0034 63F08053 		orn	r3, r3, #268435456
 144 0038 1362     		str	r3, [r2, #32]
 145 003a 114B     		ldr	r3, .L8+4
 146 003c 0022     		movs	r2, #0
 147 003e 1A62     		str	r2, [r3, #32]
 148              		.loc 1 121 0
 149 0040 0F4B     		ldr	r3, .L8+4
 150 0042 5B6A     		ldr	r3, [r3, #36]
 151 0044 0E4B     		ldr	r3, .L8+4
 152 0046 4FF0FF32 		mov	r2, #-1
 153 004a 5A62     		str	r2, [r3, #36]
 154 004c 0C4B     		ldr	r3, .L8+4
 155 004e 0022     		movs	r2, #0
 156 0050 5A62     		str	r2, [r3, #36]
 157              		.loc 1 124 0
 158 0052 0B4B     		ldr	r3, .L8+4
 159 0054 1B6C     		ldr	r3, [r3, #64]
 160 0056 0A4A     		ldr	r2, .L8+4
 161 0058 43F08053 		orr	r3, r3, #268435456
 162 005c 1364     		str	r3, [r2, #64]
 163              		.loc 1 127 0
 164 005e FFF7FEFF 		bl	hal_lld_backup_domain_init
 165              		.loc 1 130 0
 166 0062 FFF7FEFF 		bl	dmaInit
 167              		.loc 1 137 0
 168 0066 00BF     		nop
 169 0068 044B     		ldr	r3, .L8
 170 006a 019A     		ldr	r2, [sp, #4]
 171 006c 1B68     		ldr	r3, [r3]
ARM GAS  C:\Users\PCHAUT~1\AppData\Local\Temp\ccOuItFW.s 			page 4


 172 006e 9A42     		cmp	r2, r3
 173 0070 01D0     		beq	.L7
 174 0072 FFF7FEFF 		bl	__stack_chk_fail
 175              	.L7:
 176 0076 03B0     		add	sp, sp, #12
 177              		.cfi_def_cfa_offset 4
 178              		@ sp needed
 179 0078 5DF804FB 		ldr	pc, [sp], #4
 180              	.L9:
 181              		.align	2
 182              	.L8:
 183 007c 00000000 		.word	__stack_chk_guard
 184 0080 00380240 		.word	1073887232
 185              		.cfi_endproc
 186              	.LFE257:
 187              		.size	hal_lld_init, .-hal_lld_init
 188              		.section	.text.stm32_clock_init,"ax",%progbits
 189              		.align	1
 190              		.p2align 4,,15
 191              		.global	stm32_clock_init
 192              		.syntax unified
 193              		.thumb
 194              		.thumb_func
 195              		.fpu fpv4-sp-d16
 196              		.type	stm32_clock_init, %function
 197              	stm32_clock_init:
 198              	.LFB258:
 199              		.loc 1 146 0
 200              		.cfi_startproc
 201              		@ args = 0, pretend = 0, frame = 8
 202              		@ frame_needed = 0, uses_anonymous_args = 0
 203 0000 00B5     		push	{lr}
 204              		.cfi_def_cfa_offset 4
 205              		.cfi_offset 14, -4
 206 0002 83B0     		sub	sp, sp, #12
 207              		.cfi_def_cfa_offset 16
 208              		.loc 1 146 0
 209 0004 4F4B     		ldr	r3, .L20
 210 0006 1B68     		ldr	r3, [r3]
 211 0008 0193     		str	r3, [sp, #4]
 212              		.loc 1 150 0
 213 000a 4F4B     		ldr	r3, .L20+4
 214 000c 4FF08052 		mov	r2, #268435456
 215 0010 1A64     		str	r2, [r3, #64]
 216              		.loc 1 154 0
 217 0012 4E4B     		ldr	r3, .L20+8
 218 0014 4FF44042 		mov	r2, #49152
 219 0018 1A60     		str	r2, [r3]
 220              		.loc 1 161 0
 221 001a 4B4B     		ldr	r3, .L20+4
 222 001c 1B68     		ldr	r3, [r3]
 223 001e 4A4A     		ldr	r2, .L20+4
 224 0020 43F00103 		orr	r3, r3, #1
 225 0024 1360     		str	r3, [r2]
 226              		.loc 1 162 0
 227 0026 00BF     		nop
 228              	.L11:
ARM GAS  C:\Users\PCHAUT~1\AppData\Local\Temp\ccOuItFW.s 			page 5


 229              		.loc 1 162 0 is_stmt 0 discriminator 1
 230 0028 474B     		ldr	r3, .L20+4
 231 002a 1B68     		ldr	r3, [r3]
 232 002c 03F00203 		and	r3, r3, #2
 233 0030 002B     		cmp	r3, #0
 234 0032 F9D0     		beq	.L11
 235              		.loc 1 168 0 is_stmt 1
 236 0034 444B     		ldr	r3, .L20+4
 237 0036 9B68     		ldr	r3, [r3, #8]
 238 0038 434A     		ldr	r2, .L20+4
 239 003a 23F00303 		bic	r3, r3, #3
 240 003e 9360     		str	r3, [r2, #8]
 241              		.loc 1 169 0
 242 0040 414B     		ldr	r3, .L20+4
 243 0042 414A     		ldr	r2, .L20+4
 244 0044 9B68     		ldr	r3, [r3, #8]
 245 0046 9360     		str	r3, [r2, #8]
 246              		.loc 1 170 0
 247 0048 00BF     		nop
 248              	.L12:
 249              		.loc 1 170 0 is_stmt 0 discriminator 1
 250 004a 3F4B     		ldr	r3, .L20+4
 251 004c 9B68     		ldr	r3, [r3, #8]
 252 004e 03F00C03 		and	r3, r3, #12
 253 0052 002B     		cmp	r3, #0
 254 0054 F9D1     		bne	.L12
 255              		.loc 1 174 0 is_stmt 1
 256 0056 3C4B     		ldr	r3, .L20+4
 257 0058 1B68     		ldr	r3, [r3]
 258 005a 3B4A     		ldr	r2, .L20+4
 259 005c 03F0F903 		and	r3, r3, #249
 260 0060 1360     		str	r3, [r2]
 261              		.loc 1 175 0
 262 0062 394B     		ldr	r3, .L20+4
 263 0064 0022     		movs	r2, #0
 264 0066 9A60     		str	r2, [r3, #8]
 265              		.loc 1 181 0
 266 0068 374B     		ldr	r3, .L20+4
 267 006a 1B68     		ldr	r3, [r3]
 268 006c 364A     		ldr	r2, .L20+4
 269 006e 43F4A023 		orr	r3, r3, #327680
 270 0072 1360     		str	r3, [r2]
 271              		.loc 1 186 0
 272 0074 00BF     		nop
 273              	.L13:
 274              		.loc 1 186 0 is_stmt 0 discriminator 1
 275 0076 344B     		ldr	r3, .L20+4
 276 0078 1B68     		ldr	r3, [r3]
 277 007a 03F40033 		and	r3, r3, #131072
 278 007e 002B     		cmp	r3, #0
 279 0080 F9D0     		beq	.L13
 280              		.loc 1 192 0 is_stmt 1
 281 0082 314B     		ldr	r3, .L20+4
 282 0084 5B6F     		ldr	r3, [r3, #116]
 283 0086 304A     		ldr	r2, .L20+4
 284 0088 43F00103 		orr	r3, r3, #1
 285 008c 5367     		str	r3, [r2, #116]
ARM GAS  C:\Users\PCHAUT~1\AppData\Local\Temp\ccOuItFW.s 			page 6


 286              		.loc 1 193 0
 287 008e 00BF     		nop
 288              	.L14:
 289              		.loc 1 193 0 is_stmt 0 discriminator 1
 290 0090 2D4B     		ldr	r3, .L20+4
 291 0092 5B6F     		ldr	r3, [r3, #116]
 292 0094 03F00203 		and	r3, r3, #2
 293 0098 002B     		cmp	r3, #0
 294 009a F9D0     		beq	.L14
 295              		.loc 1 199 0 is_stmt 1
 296 009c 2A4B     		ldr	r3, .L20+4
 297 009e 2C4A     		ldr	r2, .L20+12
 298 00a0 5A60     		str	r2, [r3, #4]
 299              		.loc 1 201 0
 300 00a2 294B     		ldr	r3, .L20+4
 301 00a4 1B68     		ldr	r3, [r3]
 302 00a6 284A     		ldr	r2, .L20+4
 303 00a8 43F08073 		orr	r3, r3, #16777216
 304 00ac 1360     		str	r3, [r2]
 305              		.loc 1 205 0
 306 00ae 00BF     		nop
 307              	.L15:
 308              		.loc 1 205 0 is_stmt 0 discriminator 1
 309 00b0 264B     		ldr	r3, .L20+8
 310 00b2 5B68     		ldr	r3, [r3, #4]
 311 00b4 03F48043 		and	r3, r3, #16384
 312 00b8 002B     		cmp	r3, #0
 313 00ba F9D0     		beq	.L15
 314              		.loc 1 221 0 is_stmt 1
 315 00bc 00BF     		nop
 316              	.L16:
 317              		.loc 1 221 0 is_stmt 0 discriminator 1
 318 00be 224B     		ldr	r3, .L20+4
 319 00c0 1B68     		ldr	r3, [r3]
 320 00c2 03F00073 		and	r3, r3, #33554432
 321 00c6 002B     		cmp	r3, #0
 322 00c8 F9D0     		beq	.L16
 323              		.loc 1 227 0 is_stmt 1
 324 00ca 1F4B     		ldr	r3, .L20+4
 325 00cc 214A     		ldr	r2, .L20+16
 326 00ce C3F88420 		str	r2, [r3, #132]
 327              		.loc 1 228 0
 328 00d2 1D4B     		ldr	r3, .L20+4
 329 00d4 1B68     		ldr	r3, [r3]
 330 00d6 1C4A     		ldr	r2, .L20+4
 331 00d8 43F08063 		orr	r3, r3, #67108864
 332 00dc 1360     		str	r3, [r2]
 333              		.loc 1 231 0
 334 00de 00BF     		nop
 335              	.L17:
 336              		.loc 1 231 0 is_stmt 0 discriminator 1
 337 00e0 194B     		ldr	r3, .L20+4
 338 00e2 1B68     		ldr	r3, [r3]
 339 00e4 03F00063 		and	r3, r3, #134217728
 340 00e8 002B     		cmp	r3, #0
 341 00ea F9D0     		beq	.L17
 342              		.loc 1 247 0 is_stmt 1
ARM GAS  C:\Users\PCHAUT~1\AppData\Local\Temp\ccOuItFW.s 			page 7


 343 00ec 164B     		ldr	r3, .L20+4
 344 00ee 1A4A     		ldr	r2, .L20+20
 345 00f0 9A60     		str	r2, [r3, #8]
 346              		.loc 1 260 0
 347 00f2 1A4B     		ldr	r3, .L20+24
 348 00f4 40F20572 		movw	r2, #1797
 349 00f8 1A60     		str	r2, [r3]
 350              		.loc 1 266 0
 351 00fa 134B     		ldr	r3, .L20+4
 352 00fc 9B68     		ldr	r3, [r3, #8]
 353 00fe 124A     		ldr	r2, .L20+4
 354 0100 43F00203 		orr	r3, r3, #2
 355 0104 9360     		str	r3, [r2, #8]
 356              		.loc 1 267 0
 357 0106 00BF     		nop
 358              	.L18:
 359              		.loc 1 267 0 is_stmt 0 discriminator 1
 360 0108 0F4B     		ldr	r3, .L20+4
 361 010a 9B68     		ldr	r3, [r3, #8]
 362 010c 03F00C03 		and	r3, r3, #12
 363 0110 082B     		cmp	r3, #8
 364 0112 F9D1     		bne	.L18
 365              		.loc 1 274 0 is_stmt 1
 366 0114 0C4B     		ldr	r3, .L20+4
 367 0116 5B6C     		ldr	r3, [r3, #68]
 368 0118 0B4A     		ldr	r2, .L20+4
 369 011a 43F48043 		orr	r3, r3, #16384
 370 011e 5364     		str	r3, [r2, #68]
 371 0120 094B     		ldr	r3, .L20+4
 372 0122 5B6E     		ldr	r3, [r3, #100]
 373 0124 084A     		ldr	r2, .L20+4
 374 0126 43F48043 		orr	r3, r3, #16384
 375 012a 5366     		str	r3, [r2, #100]
 376              		.loc 1 275 0
 377 012c 00BF     		nop
 378 012e 054B     		ldr	r3, .L20
 379 0130 019A     		ldr	r2, [sp, #4]
 380 0132 1B68     		ldr	r3, [r3]
 381 0134 9A42     		cmp	r2, r3
 382 0136 01D0     		beq	.L19
 383 0138 FFF7FEFF 		bl	__stack_chk_fail
 384              	.L19:
 385 013c 03B0     		add	sp, sp, #12
 386              		.cfi_def_cfa_offset 4
 387              		@ sp needed
 388 013e 5DF804FB 		ldr	pc, [sp], #4
 389              	.L21:
 390 0142 00BF     		.align	2
 391              	.L20:
 392 0144 00000000 		.word	__stack_chk_guard
 393 0148 00380240 		.word	1073887232
 394 014c 00700040 		.word	1073770496
 395 0150 18544007 		.word	121656344
 396 0154 00300060 		.word	1610625024
 397 0158 00940838 		.word	940086272
 398 015c 003C0240 		.word	1073888256
 399              		.cfi_endproc
ARM GAS  C:\Users\PCHAUT~1\AppData\Local\Temp\ccOuItFW.s 			page 8


 400              	.LFE258:
 401              		.size	stm32_clock_init, .-stm32_clock_init
 402              		.text
 403              	.Letext0:
 404              		.file 2 "c:\\users\\pchautems\\documents\\robotiquetp\\eclipse_e-puck2\\tools\\gcc-arm-none-eabi-7
 405              		.file 3 "c:\\users\\pchautems\\documents\\robotiquetp\\eclipse_e-puck2\\tools\\gcc-arm-none-eabi-7
 406              		.file 4 "c:\\users\\pchautems\\documents\\robotiquetp\\eclipse_e-puck2\\tools\\gcc-arm-none-eabi-7
 407              		.file 5 "../lib/e-puck2_main-processor/ChibiOS//os/rt/ports/ARMCMx/compilers/GCC/chtypes.h"
 408              		.file 6 "../lib/e-puck2_main-processor/ChibiOS//os/rt/include/chsystypes.h"
 409              		.file 7 "../lib/e-puck2_main-processor/ChibiOS//os/rt/include/chschd.h"
 410              		.file 8 "../lib/e-puck2_main-processor/ChibiOS//os/ext/CMSIS/include/core_cm4.h"
 411              		.file 9 "../lib/e-puck2_main-processor/ChibiOS//os/ext/CMSIS/ST/system_stm32f4xx.h"
 412              		.file 10 "../lib/e-puck2_main-processor/ChibiOS//os/ext/CMSIS/ST/stm32f407xx.h"
 413              		.file 11 "../lib/e-puck2_main-processor/ChibiOS//os/rt/ports/ARMCMx/chcore.h"
 414              		.file 12 "../lib/e-puck2_main-processor/ChibiOS//os/rt/ports/ARMCMx/chcore_v7m.h"
 415              		.file 13 "../lib/e-puck2_main-processor/ChibiOS//os/rt/include/chdebug.h"
 416              		.file 14 "../lib/e-puck2_main-processor/ChibiOS//os/rt/include/chtm.h"
 417              		.file 15 "../lib/e-puck2_main-processor/ChibiOS//os/rt/include/chstats.h"
 418              		.file 16 "../lib/e-puck2_main-processor/ChibiOS//os/rt/include/chsem.h"
 419              		.file 17 "../lib/e-puck2_main-processor/ChibiOS//os/rt/include/chmtx.h"
 420              		.file 18 "../lib/e-puck2_main-processor/ChibiOS//os/rt/include/chregistry.h"
 421              		.file 19 "../lib/e-puck2_main-processor/ChibiOS//os/rt/include/chevents.h"
 422              		.file 20 "../lib/e-puck2_main-processor/ChibiOS//os/rt/include/chqueues.h"
 423              		.file 21 "../lib/e-puck2_main-processor/ChibiOS//os/hal/ports/STM32/STM32F4xx/stm32_dma.h"
 424              		.file 22 "../lib/e-puck2_main-processor/ChibiOS//os/hal/include/hal_ioblock.h"
 425              		.file 23 "../lib/e-puck2_main-processor/ChibiOS//os/hal/ports/STM32/LLD/GPIOv2/pal_lld.h"
 426              		.file 24 "../lib/e-puck2_main-processor/ChibiOS//os/hal/include/adc.h"
 427              		.file 25 "../lib/e-puck2_main-processor/ChibiOS//os/hal/ports/STM32/STM32F4xx/adc_lld.h"
 428              		.file 26 "../lib/e-puck2_main-processor/ChibiOS//os/hal/include/can.h"
 429              		.file 27 "../lib/e-puck2_main-processor/ChibiOS//os/hal/ports/STM32/LLD/can_lld.h"
 430              		.file 28 "../lib/e-puck2_main-processor/ChibiOS//os/hal/include/dac.h"
 431              		.file 29 "../lib/e-puck2_main-processor/ChibiOS//os/hal/ports/STM32/LLD/DACv1/dac_lld.h"
 432              		.file 30 "../lib/e-puck2_main-processor/ChibiOS//os/hal/include/ext.h"
 433              		.file 31 "../lib/e-puck2_main-processor/ChibiOS//os/hal/ports/STM32/LLD/ext_lld.h"
 434              		.file 32 "../lib/e-puck2_main-processor/ChibiOS//os/hal/include/gpt.h"
 435              		.file 33 "../lib/e-puck2_main-processor/ChibiOS//os/hal/ports/STM32/LLD/TIMv1/gpt_lld.h"
 436              		.file 34 "../lib/e-puck2_main-processor/ChibiOS//os/hal/ports/STM32/LLD/TIMv1/stm32_tim.h"
 437              		.file 35 "../lib/e-puck2_main-processor/ChibiOS//os/hal/include/i2c.h"
 438              		.file 36 "../lib/e-puck2_main-processor/ChibiOS//os/hal/ports/STM32/LLD/I2Cv1/i2c_lld.h"
 439              		.file 37 "../lib/e-puck2_main-processor/ChibiOS//os/hal/include/i2s.h"
 440              		.file 38 "../lib/e-puck2_main-processor/ChibiOS//os/hal/ports/STM32/LLD/SPIv1/i2s_lld.h"
 441              		.file 39 "../lib/e-puck2_main-processor/ChibiOS//os/hal/include/pwm.h"
 442              		.file 40 "../lib/e-puck2_main-processor/ChibiOS//os/hal/ports/STM32/LLD/TIMv1/pwm_lld.h"
 443              		.file 41 "../lib/e-puck2_main-processor/ChibiOS//os/hal/include/serial.h"
 444              		.file 42 "../lib/e-puck2_main-processor/ChibiOS//os/hal/ports/STM32/LLD/USARTv1/serial_lld.h"
 445              		.file 43 "../lib/e-puck2_main-processor/ChibiOS//os/hal/include/sdc.h"
 446              		.file 44 "../lib/e-puck2_main-processor/ChibiOS//os/hal/ports/STM32/LLD/sdc_lld.h"
 447              		.file 45 "../lib/e-puck2_main-processor/ChibiOS//os/hal/include/spi.h"
 448              		.file 46 "../lib/e-puck2_main-processor/ChibiOS//os/hal/ports/STM32/LLD/SPIv1/spi_lld.h"
 449              		.file 47 "../lib/e-puck2_main-processor/ChibiOS//os/hal/include/usb.h"
 450              		.file 48 "../lib/e-puck2_main-processor/ChibiOS//os/hal/ports/STM32/LLD/OTGv1/usb_lld.h"
 451              		.file 49 "../lib/e-puck2_main-processor/ChibiOS//os/hal/ports/STM32/LLD/OTGv1/stm32_otg.h"