ARM GAS  C:\Users\PCHAUT~1\AppData\Local\Temp\ccVBCRqy.s 			page 1


   1              		.cpu cortex-m4
   2              		.eabi_attribute 27, 1
   3              		.eabi_attribute 28, 1
   4              		.eabi_attribute 20, 1
   5              		.eabi_attribute 21, 1
   6              		.eabi_attribute 23, 3
   7              		.eabi_attribute 24, 1
   8              		.eabi_attribute 25, 1
   9              		.eabi_attribute 26, 1
  10              		.eabi_attribute 30, 6
  11              		.eabi_attribute 34, 1
  12              		.eabi_attribute 18, 4
  13              		.file	"hal_mmcsd.c"
  14              		.text
  15              	.Ltext0:
  16              		.cfi_sections	.debug_frame
  17              		.section	.text._mmcsd_get_slice,"ax",%progbits
  18              		.align	1
  19              		.p2align 4,,15
  20              		.global	_mmcsd_get_slice
  21              		.syntax unified
  22              		.thumb
  23              		.thumb_func
  24              		.fpu fpv4-sp-d16
  25              		.type	_mmcsd_get_slice, %function
  26              	_mmcsd_get_slice:
  27              	.LFB256:
  28              		.file 1 "../lib/e-puck2_main-processor/ChibiOS//os/hal/src/hal_mmcsd.c"
  29              		.loc 1 63 0
  30              		.cfi_startproc
  31              		@ args = 0, pretend = 0, frame = 40
  32              		@ frame_needed = 0, uses_anonymous_args = 0
  33 0000 00B5     		push	{lr}
  34              		.cfi_def_cfa_offset 4
  35              		.cfi_offset 14, -4
  36 0002 8BB0     		sub	sp, sp, #44
  37              		.cfi_def_cfa_offset 48
  38 0004 0390     		str	r0, [sp, #12]
  39 0006 0291     		str	r1, [sp, #8]
  40 0008 0192     		str	r2, [sp, #4]
  41              		.loc 1 63 0
  42 000a 284B     		ldr	r3, .L7
  43 000c 1B68     		ldr	r3, [r3]
  44 000e 0993     		str	r3, [sp, #36]
  45              		.loc 1 67 0
  46 0010 029A     		ldr	r2, [sp, #8]
  47 0012 019B     		ldr	r3, [sp, #4]
  48 0014 9A42     		cmp	r2, r3
  49 0016 04D3     		bcc	.L2
  50              		.loc 1 67 0 is_stmt 0 discriminator 3
  51 0018 029A     		ldr	r2, [sp, #8]
  52 001a 019B     		ldr	r3, [sp, #4]
  53 001c D31A     		subs	r3, r2, r3
  54 001e 1F2B     		cmp	r3, #31
  55 0020 02D9     		bls	.L3
  56              	.L2:
  57              		.loc 1 67 0 discriminator 4
ARM GAS  C:\Users\PCHAUT~1\AppData\Local\Temp\ccVBCRqy.s 			page 2


  58 0022 2348     		ldr	r0, .L7+4
  59 0024 FFF7FEFF 		bl	chSysHalt
  60              	.L3:
  61              		.loc 1 69 0 is_stmt 1
  62 0028 019B     		ldr	r3, [sp, #4]
  63 002a 5B09     		lsrs	r3, r3, #5
  64 002c 0593     		str	r3, [sp, #20]
  65              		.loc 1 70 0
  66 002e 019B     		ldr	r3, [sp, #4]
  67 0030 03F01F03 		and	r3, r3, #31
  68 0034 0693     		str	r3, [sp, #24]
  69              		.loc 1 71 0
  70 0036 029B     		ldr	r3, [sp, #8]
  71 0038 5B09     		lsrs	r3, r3, #5
  72 003a 0793     		str	r3, [sp, #28]
  73              		.loc 1 72 0
  74 003c 029B     		ldr	r3, [sp, #8]
  75 003e 03F01F03 		and	r3, r3, #31
  76 0042 0133     		adds	r3, r3, #1
  77 0044 0122     		movs	r2, #1
  78 0046 02FA03F3 		lsl	r3, r2, r3
  79 004a 013B     		subs	r3, r3, #1
  80 004c 0893     		str	r3, [sp, #32]
  81              		.loc 1 75 0
  82 004e 059A     		ldr	r2, [sp, #20]
  83 0050 079B     		ldr	r3, [sp, #28]
  84 0052 9A42     		cmp	r2, r3
  85 0054 14D2     		bcs	.L4
  86              		.loc 1 76 0
  87 0056 059B     		ldr	r3, [sp, #20]
  88 0058 9B00     		lsls	r3, r3, #2
  89 005a 039A     		ldr	r2, [sp, #12]
  90 005c 1344     		add	r3, r3, r2
  91 005e 1A68     		ldr	r2, [r3]
  92 0060 069B     		ldr	r3, [sp, #24]
  93 0062 DA40     		lsrs	r2, r2, r3
  94              		.loc 1 77 0
  95 0064 079B     		ldr	r3, [sp, #28]
  96 0066 9B00     		lsls	r3, r3, #2
  97 0068 0399     		ldr	r1, [sp, #12]
  98 006a 0B44     		add	r3, r3, r1
  99 006c 1968     		ldr	r1, [r3]
 100 006e 089B     		ldr	r3, [sp, #32]
 101 0070 1940     		ands	r1, r1, r3
 102 0072 069B     		ldr	r3, [sp, #24]
 103 0074 C3F12003 		rsb	r3, r3, #32
 104 0078 01FA03F3 		lsl	r3, r1, r3
 105              		.loc 1 76 0
 106 007c 1343     		orrs	r3, r3, r2
 107 007e 09E0     		b	.L5
 108              	.L4:
 109              		.loc 1 79 0
 110 0080 059B     		ldr	r3, [sp, #20]
 111 0082 9B00     		lsls	r3, r3, #2
 112 0084 039A     		ldr	r2, [sp, #12]
 113 0086 1344     		add	r3, r3, r2
 114 0088 1A68     		ldr	r2, [r3]
ARM GAS  C:\Users\PCHAUT~1\AppData\Local\Temp\ccVBCRqy.s 			page 3


 115 008a 089B     		ldr	r3, [sp, #32]
 116 008c 1A40     		ands	r2, r2, r3
 117 008e 069B     		ldr	r3, [sp, #24]
 118 0090 22FA03F3 		lsr	r3, r2, r3
 119              	.L5:
 120              		.loc 1 80 0
 121 0094 1846     		mov	r0, r3
 122 0096 054B     		ldr	r3, .L7
 123 0098 099A     		ldr	r2, [sp, #36]
 124 009a 1B68     		ldr	r3, [r3]
 125 009c 9A42     		cmp	r2, r3
 126 009e 01D0     		beq	.L6
 127 00a0 FFF7FEFF 		bl	__stack_chk_fail
 128              	.L6:
 129 00a4 0BB0     		add	sp, sp, #44
 130              		.cfi_def_cfa_offset 4
 131              		@ sp needed
 132 00a6 5DF804FB 		ldr	pc, [sp], #4
 133              	.L8:
 134 00aa 00BF     		.align	2
 135              	.L7:
 136 00ac 00000000 		.word	__stack_chk_guard
 137 00b0 00000000 		.word	__func__.9847
 138              		.cfi_endproc
 139              	.LFE256:
 140              		.size	_mmcsd_get_slice, .-_mmcsd_get_slice
 141              		.section	.text._mmcsd_get_capacity,"ax",%progbits
 142              		.align	1
 143              		.p2align 4,,15
 144              		.global	_mmcsd_get_capacity
 145              		.syntax unified
 146              		.thumb
 147              		.thumb_func
 148              		.fpu fpv4-sp-d16
 149              		.type	_mmcsd_get_capacity, %function
 150              	_mmcsd_get_capacity:
 151              	.LFB257:
 152              		.loc 1 93 0
 153              		.cfi_startproc
 154              		@ args = 0, pretend = 0, frame = 24
 155              		@ frame_needed = 0, uses_anonymous_args = 0
 156 0000 00B5     		push	{lr}
 157              		.cfi_def_cfa_offset 4
 158              		.cfi_offset 14, -4
 159 0002 87B0     		sub	sp, sp, #28
 160              		.cfi_def_cfa_offset 32
 161 0004 0190     		str	r0, [sp, #4]
 162              		.loc 1 93 0
 163 0006 224B     		ldr	r3, .L17
 164 0008 1B68     		ldr	r3, [r3]
 165 000a 0593     		str	r3, [sp, #20]
 166              		.loc 1 96 0
 167 000c 019B     		ldr	r3, [sp, #4]
 168 000e 002B     		cmp	r3, #0
 169 0010 02D1     		bne	.L10
 170              		.loc 1 96 0 is_stmt 0 discriminator 2
 171 0012 2048     		ldr	r0, .L17+4
ARM GAS  C:\Users\PCHAUT~1\AppData\Local\Temp\ccVBCRqy.s 			page 4


 172 0014 FFF7FEFF 		bl	chSysHalt
 173              	.L10:
 174              		.loc 1 98 0 is_stmt 1
 175 0018 7E22     		movs	r2, #126
 176 001a 7F21     		movs	r1, #127
 177 001c 0198     		ldr	r0, [sp, #4]
 178 001e FFF7FEFF 		bl	_mmcsd_get_slice
 179 0022 0346     		mov	r3, r0
 180 0024 002B     		cmp	r3, #0
 181 0026 04D0     		beq	.L12
 182 0028 012B     		cmp	r3, #1
 183 002a 1ED0     		beq	.L13
 184              		.loc 1 110 0
 185 002c 00BF     		nop
 186              		.loc 1 112 0
 187 002e 0023     		movs	r3, #0
 188 0030 23E0     		b	.L14
 189              	.L12:
 190              		.loc 1 101 0
 191 0032 3E22     		movs	r2, #62
 192 0034 4921     		movs	r1, #73
 193 0036 0198     		ldr	r0, [sp, #4]
 194 0038 FFF7FEFF 		bl	_mmcsd_get_slice
 195 003c 0290     		str	r0, [sp, #8]
 196              		.loc 1 102 0
 197 003e 2F22     		movs	r2, #47
 198 0040 3121     		movs	r1, #49
 199 0042 0198     		ldr	r0, [sp, #4]
 200 0044 FFF7FEFF 		bl	_mmcsd_get_slice
 201 0048 0390     		str	r0, [sp, #12]
 202              		.loc 1 103 0
 203 004a 5022     		movs	r2, #80
 204 004c 5321     		movs	r1, #83
 205 004e 0198     		ldr	r0, [sp, #4]
 206 0050 FFF7FEFF 		bl	_mmcsd_get_slice
 207 0054 0490     		str	r0, [sp, #16]
 208              		.loc 1 104 0
 209 0056 029B     		ldr	r3, [sp, #8]
 210 0058 5A1C     		adds	r2, r3, #1
 211 005a 039B     		ldr	r3, [sp, #12]
 212 005c 0233     		adds	r3, r3, #2
 213 005e 9A40     		lsls	r2, r2, r3
 214 0060 049B     		ldr	r3, [sp, #16]
 215 0062 093B     		subs	r3, r3, #9
 216 0064 02FA03F3 		lsl	r3, r2, r3
 217 0068 07E0     		b	.L14
 218              	.L13:
 219              		.loc 1 107 0
 220 006a 3022     		movs	r2, #48
 221 006c 4521     		movs	r1, #69
 222 006e 0198     		ldr	r0, [sp, #4]
 223 0070 FFF7FEFF 		bl	_mmcsd_get_slice
 224 0074 0346     		mov	r3, r0
 225 0076 0133     		adds	r3, r3, #1
 226 0078 9B02     		lsls	r3, r3, #10
 227              	.L14:
 228              		.loc 1 113 0
ARM GAS  C:\Users\PCHAUT~1\AppData\Local\Temp\ccVBCRqy.s 			page 5


 229 007a 1846     		mov	r0, r3
 230 007c 044B     		ldr	r3, .L17
 231 007e 059A     		ldr	r2, [sp, #20]
 232 0080 1B68     		ldr	r3, [r3]
 233 0082 9A42     		cmp	r2, r3
 234 0084 01D0     		beq	.L15
 235 0086 FFF7FEFF 		bl	__stack_chk_fail
 236              	.L15:
 237 008a 07B0     		add	sp, sp, #28
 238              		.cfi_def_cfa_offset 4
 239              		@ sp needed
 240 008c 5DF804FB 		ldr	pc, [sp], #4
 241              	.L18:
 242              		.align	2
 243              	.L17:
 244 0090 00000000 		.word	__stack_chk_guard
 245 0094 00000000 		.word	__func__.9854
 246              		.cfi_endproc
 247              	.LFE257:
 248              		.size	_mmcsd_get_capacity, .-_mmcsd_get_capacity
 249              		.section	.text._mmcsd_get_capacity_ext,"ax",%progbits
 250              		.align	1
 251              		.p2align 4,,15
 252              		.global	_mmcsd_get_capacity_ext
 253              		.syntax unified
 254              		.thumb
 255              		.thumb_func
 256              		.fpu fpv4-sp-d16
 257              		.type	_mmcsd_get_capacity_ext, %function
 258              	_mmcsd_get_capacity_ext:
 259              	.LFB258:
 260              		.loc 1 125 0
 261              		.cfi_startproc
 262              		@ args = 0, pretend = 0, frame = 16
 263              		@ frame_needed = 0, uses_anonymous_args = 0
 264 0000 00B5     		push	{lr}
 265              		.cfi_def_cfa_offset 4
 266              		.cfi_offset 14, -4
 267 0002 85B0     		sub	sp, sp, #20
 268              		.cfi_def_cfa_offset 24
 269 0004 0190     		str	r0, [sp, #4]
 270              		.loc 1 125 0
 271 0006 134B     		ldr	r3, .L23
 272 0008 1B68     		ldr	r3, [r3]
 273 000a 0393     		str	r3, [sp, #12]
 274              		.loc 1 127 0
 275 000c 019B     		ldr	r3, [sp, #4]
 276 000e 002B     		cmp	r3, #0
 277 0010 02D1     		bne	.L20
 278              		.loc 1 127 0 is_stmt 0 discriminator 2
 279 0012 1148     		ldr	r0, .L23+4
 280 0014 FFF7FEFF 		bl	chSysHalt
 281              	.L20:
 282              		.loc 1 129 0 is_stmt 1
 283 0018 019B     		ldr	r3, [sp, #4]
 284 001a D733     		adds	r3, r3, #215
 285 001c 1B78     		ldrb	r3, [r3]	@ zero_extendqisi2
ARM GAS  C:\Users\PCHAUT~1\AppData\Local\Temp\ccVBCRqy.s 			page 6


 286 001e 1A06     		lsls	r2, r3, #24
 287              		.loc 1 130 0
 288 0020 019B     		ldr	r3, [sp, #4]
 289 0022 D633     		adds	r3, r3, #214
 290 0024 1B78     		ldrb	r3, [r3]	@ zero_extendqisi2
 291 0026 1B04     		lsls	r3, r3, #16
 292              		.loc 1 129 0
 293 0028 1A44     		add	r2, r2, r3
 294              		.loc 1 131 0
 295 002a 019B     		ldr	r3, [sp, #4]
 296 002c D533     		adds	r3, r3, #213
 297 002e 1B78     		ldrb	r3, [r3]	@ zero_extendqisi2
 298 0030 1B02     		lsls	r3, r3, #8
 299              		.loc 1 130 0
 300 0032 1344     		add	r3, r3, r2
 301              		.loc 1 132 0
 302 0034 019A     		ldr	r2, [sp, #4]
 303 0036 D432     		adds	r2, r2, #212
 304 0038 1278     		ldrb	r2, [r2]	@ zero_extendqisi2
 305              		.loc 1 131 0
 306 003a 1344     		add	r3, r3, r2
 307              		.loc 1 133 0
 308 003c 1846     		mov	r0, r3
 309 003e 054B     		ldr	r3, .L23
 310 0040 039A     		ldr	r2, [sp, #12]
 311 0042 1B68     		ldr	r3, [r3]
 312 0044 9A42     		cmp	r2, r3
 313 0046 01D0     		beq	.L22
 314 0048 FFF7FEFF 		bl	__stack_chk_fail
 315              	.L22:
 316 004c 05B0     		add	sp, sp, #20
 317              		.cfi_def_cfa_offset 4
 318              		@ sp needed
 319 004e 5DF804FB 		ldr	pc, [sp], #4
 320              	.L24:
 321 0052 00BF     		.align	2
 322              	.L23:
 323 0054 00000000 		.word	__stack_chk_guard
 324 0058 00000000 		.word	__func__.9862
 325              		.cfi_endproc
 326              	.LFE258:
 327              		.size	_mmcsd_get_capacity_ext, .-_mmcsd_get_capacity_ext
 328              		.section	.text._mmcsd_unpack_sdc_cid,"ax",%progbits
 329              		.align	1
 330              		.p2align 4,,15
 331              		.global	_mmcsd_unpack_sdc_cid
 332              		.syntax unified
 333              		.thumb
 334              		.thumb_func
 335              		.fpu fpv4-sp-d16
 336              		.type	_mmcsd_unpack_sdc_cid, %function
 337              	_mmcsd_unpack_sdc_cid:
 338              	.LFB259:
 339              		.loc 1 144 0
 340              		.cfi_startproc
 341              		@ args = 0, pretend = 0, frame = 16
 342              		@ frame_needed = 0, uses_anonymous_args = 0
ARM GAS  C:\Users\PCHAUT~1\AppData\Local\Temp\ccVBCRqy.s 			page 7


 343 0000 00B5     		push	{lr}
 344              		.cfi_def_cfa_offset 4
 345              		.cfi_offset 14, -4
 346 0002 85B0     		sub	sp, sp, #20
 347              		.cfi_def_cfa_offset 24
 348 0004 0190     		str	r0, [sp, #4]
 349 0006 0091     		str	r1, [sp]
 350              		.loc 1 144 0
 351 0008 484B     		ldr	r3, .L29
 352 000a 1B68     		ldr	r3, [r3]
 353 000c 0393     		str	r3, [sp, #12]
 354              		.loc 1 147 0
 355 000e 019B     		ldr	r3, [sp, #4]
 356 0010 002B     		cmp	r3, #0
 357 0012 02D0     		beq	.L26
 358              		.loc 1 147 0 is_stmt 0 discriminator 3
 359 0014 009B     		ldr	r3, [sp]
 360 0016 002B     		cmp	r3, #0
 361 0018 02D1     		bne	.L27
 362              	.L26:
 363              		.loc 1 147 0 discriminator 4
 364 001a 4548     		ldr	r0, .L29+4
 365 001c FFF7FEFF 		bl	chSysHalt
 366              	.L27:
 367              		.loc 1 149 0 is_stmt 1
 368 0020 019B     		ldr	r3, [sp, #4]
 369 0022 0833     		adds	r3, r3, #8
 370 0024 0293     		str	r3, [sp, #8]
 371              		.loc 1 150 0
 372 0026 0122     		movs	r2, #1
 373 0028 0721     		movs	r1, #7
 374 002a 0298     		ldr	r0, [sp, #8]
 375 002c FFF7FEFF 		bl	_mmcsd_get_slice
 376 0030 0346     		mov	r3, r0
 377 0032 DAB2     		uxtb	r2, r3
 378 0034 009B     		ldr	r3, [sp]
 379 0036 1A75     		strb	r2, [r3, #20]
 380              		.loc 1 151 0
 381 0038 0C22     		movs	r2, #12
 382 003a 1321     		movs	r1, #19
 383 003c 0298     		ldr	r0, [sp, #8]
 384 003e FFF7FEFF 		bl	_mmcsd_get_slice
 385 0042 0346     		mov	r3, r0
 386 0044 9BB2     		uxth	r3, r3
 387 0046 03F5FA63 		add	r3, r3, #2000
 388 004a 9AB2     		uxth	r2, r3
 389 004c 009B     		ldr	r3, [sp]
 390 004e 5A82     		strh	r2, [r3, #18]	@ movhi
 391              		.loc 1 153 0
 392 0050 0822     		movs	r2, #8
 393 0052 0B21     		movs	r1, #11
 394 0054 0298     		ldr	r0, [sp, #8]
 395 0056 FFF7FEFF 		bl	_mmcsd_get_slice
 396 005a 0346     		mov	r3, r0
 397 005c DAB2     		uxtb	r2, r3
 398 005e 009B     		ldr	r3, [sp]
 399 0060 1A74     		strb	r2, [r3, #16]
ARM GAS  C:\Users\PCHAUT~1\AppData\Local\Temp\ccVBCRqy.s 			page 8


 400              		.loc 1 154 0
 401 0062 7822     		movs	r2, #120
 402 0064 7F21     		movs	r1, #127
 403 0066 0298     		ldr	r0, [sp, #8]
 404 0068 FFF7FEFF 		bl	_mmcsd_get_slice
 405 006c 0346     		mov	r3, r0
 406 006e DAB2     		uxtb	r2, r3
 407 0070 009B     		ldr	r3, [sp]
 408 0072 1A70     		strb	r2, [r3]
 409              		.loc 1 155 0
 410 0074 6822     		movs	r2, #104
 411 0076 7721     		movs	r1, #119
 412 0078 0298     		ldr	r0, [sp, #8]
 413 007a FFF7FEFF 		bl	_mmcsd_get_slice
 414 007e 0346     		mov	r3, r0
 415 0080 9AB2     		uxth	r2, r3
 416 0082 009B     		ldr	r3, [sp]
 417 0084 5A80     		strh	r2, [r3, #2]	@ movhi
 418              		.loc 1 156 0
 419 0086 4022     		movs	r2, #64
 420 0088 4721     		movs	r1, #71
 421 008a 0298     		ldr	r0, [sp, #8]
 422 008c FFF7FEFF 		bl	_mmcsd_get_slice
 423 0090 0346     		mov	r3, r0
 424 0092 DAB2     		uxtb	r2, r3
 425 0094 009B     		ldr	r3, [sp]
 426 0096 1A72     		strb	r2, [r3, #8]
 427              		.loc 1 157 0
 428 0098 4822     		movs	r2, #72
 429 009a 4F21     		movs	r1, #79
 430 009c 0298     		ldr	r0, [sp, #8]
 431 009e FFF7FEFF 		bl	_mmcsd_get_slice
 432 00a2 0346     		mov	r3, r0
 433 00a4 DAB2     		uxtb	r2, r3
 434 00a6 009B     		ldr	r3, [sp]
 435 00a8 DA71     		strb	r2, [r3, #7]
 436              		.loc 1 158 0
 437 00aa 5022     		movs	r2, #80
 438 00ac 5721     		movs	r1, #87
 439 00ae 0298     		ldr	r0, [sp, #8]
 440 00b0 FFF7FEFF 		bl	_mmcsd_get_slice
 441 00b4 0346     		mov	r3, r0
 442 00b6 DAB2     		uxtb	r2, r3
 443 00b8 009B     		ldr	r3, [sp]
 444 00ba 9A71     		strb	r2, [r3, #6]
 445              		.loc 1 159 0
 446 00bc 5822     		movs	r2, #88
 447 00be 5F21     		movs	r1, #95
 448 00c0 0298     		ldr	r0, [sp, #8]
 449 00c2 FFF7FEFF 		bl	_mmcsd_get_slice
 450 00c6 0346     		mov	r3, r0
 451 00c8 DAB2     		uxtb	r2, r3
 452 00ca 009B     		ldr	r3, [sp]
 453 00cc 5A71     		strb	r2, [r3, #5]
 454              		.loc 1 160 0
 455 00ce 6022     		movs	r2, #96
 456 00d0 6721     		movs	r1, #103
ARM GAS  C:\Users\PCHAUT~1\AppData\Local\Temp\ccVBCRqy.s 			page 9


 457 00d2 0298     		ldr	r0, [sp, #8]
 458 00d4 FFF7FEFF 		bl	_mmcsd_get_slice
 459 00d8 0346     		mov	r3, r0
 460 00da DAB2     		uxtb	r2, r3
 461 00dc 009B     		ldr	r3, [sp]
 462 00de 1A71     		strb	r2, [r3, #4]
 463              		.loc 1 161 0
 464 00e0 3C22     		movs	r2, #60
 465 00e2 3F21     		movs	r1, #63
 466 00e4 0298     		ldr	r0, [sp, #8]
 467 00e6 FFF7FEFF 		bl	_mmcsd_get_slice
 468 00ea 0346     		mov	r3, r0
 469 00ec DAB2     		uxtb	r2, r3
 470 00ee 009B     		ldr	r3, [sp]
 471 00f0 5A72     		strb	r2, [r3, #9]
 472              		.loc 1 162 0
 473 00f2 3822     		movs	r2, #56
 474 00f4 3B21     		movs	r1, #59
 475 00f6 0298     		ldr	r0, [sp, #8]
 476 00f8 FFF7FEFF 		bl	_mmcsd_get_slice
 477 00fc 0346     		mov	r3, r0
 478 00fe DAB2     		uxtb	r2, r3
 479 0100 009B     		ldr	r3, [sp]
 480 0102 9A72     		strb	r2, [r3, #10]
 481              		.loc 1 163 0
 482 0104 1822     		movs	r2, #24
 483 0106 3721     		movs	r1, #55
 484 0108 0298     		ldr	r0, [sp, #8]
 485 010a FFF7FEFF 		bl	_mmcsd_get_slice
 486 010e 0246     		mov	r2, r0
 487 0110 009B     		ldr	r3, [sp]
 488 0112 DA60     		str	r2, [r3, #12]
 489              		.loc 1 164 0
 490 0114 00BF     		nop
 491 0116 054B     		ldr	r3, .L29
 492 0118 039A     		ldr	r2, [sp, #12]
 493 011a 1B68     		ldr	r3, [r3]
 494 011c 9A42     		cmp	r2, r3
 495 011e 01D0     		beq	.L28
 496 0120 FFF7FEFF 		bl	__stack_chk_fail
 497              	.L28:
 498 0124 05B0     		add	sp, sp, #20
 499              		.cfi_def_cfa_offset 4
 500              		@ sp needed
 501 0126 5DF804FB 		ldr	pc, [sp], #4
 502              	.L30:
 503 012a 00BF     		.align	2
 504              	.L29:
 505 012c 00000000 		.word	__stack_chk_guard
 506 0130 00000000 		.word	__func__.9868
 507              		.cfi_endproc
 508              	.LFE259:
 509              		.size	_mmcsd_unpack_sdc_cid, .-_mmcsd_unpack_sdc_cid
 510              		.section	.text._mmcsd_unpack_mmc_cid,"ax",%progbits
 511              		.align	1
 512              		.p2align 4,,15
 513              		.global	_mmcsd_unpack_mmc_cid
ARM GAS  C:\Users\PCHAUT~1\AppData\Local\Temp\ccVBCRqy.s 			page 10


 514              		.syntax unified
 515              		.thumb
 516              		.thumb_func
 517              		.fpu fpv4-sp-d16
 518              		.type	_mmcsd_unpack_mmc_cid, %function
 519              	_mmcsd_unpack_mmc_cid:
 520              	.LFB260:
 521              		.loc 1 175 0
 522              		.cfi_startproc
 523              		@ args = 0, pretend = 0, frame = 16
 524              		@ frame_needed = 0, uses_anonymous_args = 0
 525 0000 00B5     		push	{lr}
 526              		.cfi_def_cfa_offset 4
 527              		.cfi_offset 14, -4
 528 0002 85B0     		sub	sp, sp, #20
 529              		.cfi_def_cfa_offset 24
 530 0004 0190     		str	r0, [sp, #4]
 531 0006 0091     		str	r1, [sp]
 532              		.loc 1 175 0
 533 0008 4C4B     		ldr	r3, .L35
 534 000a 1B68     		ldr	r3, [r3]
 535 000c 0393     		str	r3, [sp, #12]
 536              		.loc 1 178 0
 537 000e 019B     		ldr	r3, [sp, #4]
 538 0010 002B     		cmp	r3, #0
 539 0012 02D0     		beq	.L32
 540              		.loc 1 178 0 is_stmt 0 discriminator 3
 541 0014 009B     		ldr	r3, [sp]
 542 0016 002B     		cmp	r3, #0
 543 0018 02D1     		bne	.L33
 544              	.L32:
 545              		.loc 1 178 0 discriminator 4
 546 001a 4948     		ldr	r0, .L35+4
 547 001c FFF7FEFF 		bl	chSysHalt
 548              	.L33:
 549              		.loc 1 180 0 is_stmt 1
 550 0020 019B     		ldr	r3, [sp, #4]
 551 0022 0833     		adds	r3, r3, #8
 552 0024 0293     		str	r3, [sp, #8]
 553              		.loc 1 181 0
 554 0026 0122     		movs	r2, #1
 555 0028 0721     		movs	r1, #7
 556 002a 0298     		ldr	r0, [sp, #8]
 557 002c FFF7FEFF 		bl	_mmcsd_get_slice
 558 0030 0346     		mov	r3, r0
 559 0032 DAB2     		uxtb	r2, r3
 560 0034 009B     		ldr	r3, [sp]
 561 0036 1A75     		strb	r2, [r3, #20]
 562              		.loc 1 182 0
 563 0038 0822     		movs	r2, #8
 564 003a 0B21     		movs	r1, #11
 565 003c 0298     		ldr	r0, [sp, #8]
 566 003e FFF7FEFF 		bl	_mmcsd_get_slice
 567 0042 0346     		mov	r3, r0
 568 0044 9BB2     		uxth	r3, r3
 569 0046 03F2CD73 		addw	r3, r3, #1997
 570 004a 9AB2     		uxth	r2, r3
ARM GAS  C:\Users\PCHAUT~1\AppData\Local\Temp\ccVBCRqy.s 			page 11


 571 004c 009B     		ldr	r3, [sp]
 572 004e 5A82     		strh	r2, [r3, #18]	@ movhi
 573              		.loc 1 184 0
 574 0050 0C22     		movs	r2, #12
 575 0052 0F21     		movs	r1, #15
 576 0054 0298     		ldr	r0, [sp, #8]
 577 0056 FFF7FEFF 		bl	_mmcsd_get_slice
 578 005a 0346     		mov	r3, r0
 579 005c DAB2     		uxtb	r2, r3
 580 005e 009B     		ldr	r3, [sp]
 581 0060 1A74     		strb	r2, [r3, #16]
 582              		.loc 1 185 0
 583 0062 7822     		movs	r2, #120
 584 0064 7F21     		movs	r1, #127
 585 0066 0298     		ldr	r0, [sp, #8]
 586 0068 FFF7FEFF 		bl	_mmcsd_get_slice
 587 006c 0346     		mov	r3, r0
 588 006e DAB2     		uxtb	r2, r3
 589 0070 009B     		ldr	r3, [sp]
 590 0072 1A70     		strb	r2, [r3]
 591              		.loc 1 186 0
 592 0074 6822     		movs	r2, #104
 593 0076 7721     		movs	r1, #119
 594 0078 0298     		ldr	r0, [sp, #8]
 595 007a FFF7FEFF 		bl	_mmcsd_get_slice
 596 007e 0346     		mov	r3, r0
 597 0080 9AB2     		uxth	r2, r3
 598 0082 009B     		ldr	r3, [sp]
 599 0084 5A80     		strh	r2, [r3, #2]	@ movhi
 600              		.loc 1 187 0
 601 0086 3822     		movs	r2, #56
 602 0088 3F21     		movs	r1, #63
 603 008a 0298     		ldr	r0, [sp, #8]
 604 008c FFF7FEFF 		bl	_mmcsd_get_slice
 605 0090 0346     		mov	r3, r0
 606 0092 DAB2     		uxtb	r2, r3
 607 0094 009B     		ldr	r3, [sp]
 608 0096 5A72     		strb	r2, [r3, #9]
 609              		.loc 1 188 0
 610 0098 4022     		movs	r2, #64
 611 009a 4721     		movs	r1, #71
 612 009c 0298     		ldr	r0, [sp, #8]
 613 009e FFF7FEFF 		bl	_mmcsd_get_slice
 614 00a2 0346     		mov	r3, r0
 615 00a4 DAB2     		uxtb	r2, r3
 616 00a6 009B     		ldr	r3, [sp]
 617 00a8 1A72     		strb	r2, [r3, #8]
 618              		.loc 1 189 0
 619 00aa 4822     		movs	r2, #72
 620 00ac 4F21     		movs	r1, #79
 621 00ae 0298     		ldr	r0, [sp, #8]
 622 00b0 FFF7FEFF 		bl	_mmcsd_get_slice
 623 00b4 0346     		mov	r3, r0
 624 00b6 DAB2     		uxtb	r2, r3
 625 00b8 009B     		ldr	r3, [sp]
 626 00ba DA71     		strb	r2, [r3, #7]
 627              		.loc 1 190 0
ARM GAS  C:\Users\PCHAUT~1\AppData\Local\Temp\ccVBCRqy.s 			page 12


 628 00bc 5022     		movs	r2, #80
 629 00be 5721     		movs	r1, #87
 630 00c0 0298     		ldr	r0, [sp, #8]
 631 00c2 FFF7FEFF 		bl	_mmcsd_get_slice
 632 00c6 0346     		mov	r3, r0
 633 00c8 DAB2     		uxtb	r2, r3
 634 00ca 009B     		ldr	r3, [sp]
 635 00cc 9A71     		strb	r2, [r3, #6]
 636              		.loc 1 191 0
 637 00ce 5822     		movs	r2, #88
 638 00d0 5F21     		movs	r1, #95
 639 00d2 0298     		ldr	r0, [sp, #8]
 640 00d4 FFF7FEFF 		bl	_mmcsd_get_slice
 641 00d8 0346     		mov	r3, r0
 642 00da DAB2     		uxtb	r2, r3
 643 00dc 009B     		ldr	r3, [sp]
 644 00de 5A71     		strb	r2, [r3, #5]
 645              		.loc 1 192 0
 646 00e0 6022     		movs	r2, #96
 647 00e2 6721     		movs	r1, #103
 648 00e4 0298     		ldr	r0, [sp, #8]
 649 00e6 FFF7FEFF 		bl	_mmcsd_get_slice
 650 00ea 0346     		mov	r3, r0
 651 00ec DAB2     		uxtb	r2, r3
 652 00ee 009B     		ldr	r3, [sp]
 653 00f0 1A71     		strb	r2, [r3, #4]
 654              		.loc 1 193 0
 655 00f2 3422     		movs	r2, #52
 656 00f4 3721     		movs	r1, #55
 657 00f6 0298     		ldr	r0, [sp, #8]
 658 00f8 FFF7FEFF 		bl	_mmcsd_get_slice
 659 00fc 0346     		mov	r3, r0
 660 00fe DAB2     		uxtb	r2, r3
 661 0100 009B     		ldr	r3, [sp]
 662 0102 9A72     		strb	r2, [r3, #10]
 663              		.loc 1 194 0
 664 0104 3022     		movs	r2, #48
 665 0106 3321     		movs	r1, #51
 666 0108 0298     		ldr	r0, [sp, #8]
 667 010a FFF7FEFF 		bl	_mmcsd_get_slice
 668 010e 0346     		mov	r3, r0
 669 0110 DAB2     		uxtb	r2, r3
 670 0112 009B     		ldr	r3, [sp]
 671 0114 DA72     		strb	r2, [r3, #11]
 672              		.loc 1 195 0
 673 0116 1022     		movs	r2, #16
 674 0118 2F21     		movs	r1, #47
 675 011a 0298     		ldr	r0, [sp, #8]
 676 011c FFF7FEFF 		bl	_mmcsd_get_slice
 677 0120 0246     		mov	r2, r0
 678 0122 009B     		ldr	r3, [sp]
 679 0124 DA60     		str	r2, [r3, #12]
 680              		.loc 1 196 0
 681 0126 00BF     		nop
 682 0128 044B     		ldr	r3, .L35
 683 012a 039A     		ldr	r2, [sp, #12]
 684 012c 1B68     		ldr	r3, [r3]
ARM GAS  C:\Users\PCHAUT~1\AppData\Local\Temp\ccVBCRqy.s 			page 13


 685 012e 9A42     		cmp	r2, r3
 686 0130 01D0     		beq	.L34
 687 0132 FFF7FEFF 		bl	__stack_chk_fail
 688              	.L34:
 689 0136 05B0     		add	sp, sp, #20
 690              		.cfi_def_cfa_offset 4
 691              		@ sp needed
 692 0138 5DF804FB 		ldr	pc, [sp], #4
 693              	.L36:
 694              		.align	2
 695              	.L35:
 696 013c 00000000 		.word	__stack_chk_guard
 697 0140 00000000 		.word	__func__.9874
 698              		.cfi_endproc
 699              	.LFE260:
 700              		.size	_mmcsd_unpack_mmc_cid, .-_mmcsd_unpack_mmc_cid
 701              		.section	.text._mmcsd_unpack_csd_mmc,"ax",%progbits
 702              		.align	1
 703              		.p2align 4,,15
 704              		.global	_mmcsd_unpack_csd_mmc
 705              		.syntax unified
 706              		.thumb
 707              		.thumb_func
 708              		.fpu fpv4-sp-d16
 709              		.type	_mmcsd_unpack_csd_mmc, %function
 710              	_mmcsd_unpack_csd_mmc:
 711              	.LFB261:
 712              		.loc 1 207 0
 713              		.cfi_startproc
 714              		@ args = 0, pretend = 0, frame = 16
 715              		@ frame_needed = 0, uses_anonymous_args = 0
 716 0000 00B5     		push	{lr}
 717              		.cfi_def_cfa_offset 4
 718              		.cfi_offset 14, -4
 719 0002 85B0     		sub	sp, sp, #20
 720              		.cfi_def_cfa_offset 24
 721 0004 0190     		str	r0, [sp, #4]
 722 0006 0091     		str	r1, [sp]
 723              		.loc 1 207 0
 724 0008 9A4B     		ldr	r3, .L41
 725 000a 1B68     		ldr	r3, [r3]
 726 000c 0393     		str	r3, [sp, #12]
 727              		.loc 1 210 0
 728 000e 019B     		ldr	r3, [sp, #4]
 729 0010 002B     		cmp	r3, #0
 730 0012 02D0     		beq	.L38
 731              		.loc 1 210 0 is_stmt 0 discriminator 3
 732 0014 009B     		ldr	r3, [sp]
 733 0016 002B     		cmp	r3, #0
 734 0018 02D1     		bne	.L39
 735              	.L38:
 736              		.loc 1 210 0 discriminator 4
 737 001a 9748     		ldr	r0, .L41+4
 738 001c FFF7FEFF 		bl	chSysHalt
 739              	.L39:
 740              		.loc 1 212 0 is_stmt 1
 741 0020 019B     		ldr	r3, [sp, #4]
ARM GAS  C:\Users\PCHAUT~1\AppData\Local\Temp\ccVBCRqy.s 			page 14


 742 0022 1833     		adds	r3, r3, #24
 743 0024 0293     		str	r3, [sp, #8]
 744              		.loc 1 213 0
 745 0026 3E22     		movs	r2, #62
 746 0028 4921     		movs	r1, #73
 747 002a 0298     		ldr	r0, [sp, #8]
 748 002c FFF7FEFF 		bl	_mmcsd_get_slice
 749 0030 0346     		mov	r3, r0
 750 0032 9AB2     		uxth	r2, r3
 751 0034 009B     		ldr	r3, [sp]
 752 0036 DA81     		strh	r2, [r3, #14]	@ movhi
 753              		.loc 1 214 0
 754 0038 2F22     		movs	r2, #47
 755 003a 3121     		movs	r1, #49
 756 003c 0298     		ldr	r0, [sp, #8]
 757 003e FFF7FEFF 		bl	_mmcsd_get_slice
 758 0042 0346     		mov	r3, r0
 759 0044 DAB2     		uxtb	r2, r3
 760 0046 009B     		ldr	r3, [sp]
 761 0048 1A75     		strb	r2, [r3, #20]
 762              		.loc 1 215 0
 763 004a 5422     		movs	r2, #84
 764 004c 5F21     		movs	r1, #95
 765 004e 0298     		ldr	r0, [sp, #8]
 766 0050 FFF7FEFF 		bl	_mmcsd_get_slice
 767 0054 0346     		mov	r3, r0
 768 0056 9AB2     		uxth	r2, r3
 769 0058 009B     		ldr	r3, [sp]
 770 005a DA80     		strh	r2, [r3, #6]	@ movhi
 771              		.loc 1 216 0
 772 005c 0E22     		movs	r2, #14
 773 005e 0E21     		movs	r1, #14
 774 0060 0298     		ldr	r0, [sp, #8]
 775 0062 FFF7FEFF 		bl	_mmcsd_get_slice
 776 0066 0346     		mov	r3, r0
 777 0068 DAB2     		uxtb	r2, r3
 778 006a 009B     		ldr	r3, [sp]
 779 006c DA77     		strb	r2, [r3, #31]
 780              		.loc 1 217 0
 781 006e 0122     		movs	r2, #1
 782 0070 0721     		movs	r1, #7
 783 0072 0298     		ldr	r0, [sp, #8]
 784 0074 FFF7FEFF 		bl	_mmcsd_get_slice
 785 0078 0346     		mov	r3, r0
 786 007a DAB2     		uxtb	r2, r3
 787 007c 009B     		ldr	r3, [sp]
 788 007e 83F82420 		strb	r2, [r3, #36]
 789              		.loc 1 218 0
 790 0082 7E22     		movs	r2, #126
 791 0084 7F21     		movs	r1, #127
 792 0086 0298     		ldr	r0, [sp, #8]
 793 0088 FFF7FEFF 		bl	_mmcsd_get_slice
 794 008c 0346     		mov	r3, r0
 795 008e DAB2     		uxtb	r2, r3
 796 0090 009B     		ldr	r3, [sp]
 797 0092 1A70     		strb	r2, [r3]
 798              		.loc 1 219 0
ARM GAS  C:\Users\PCHAUT~1\AppData\Local\Temp\ccVBCRqy.s 			page 15


 799 0094 4C22     		movs	r2, #76
 800 0096 4C21     		movs	r1, #76
 801 0098 0298     		ldr	r0, [sp, #8]
 802 009a FFF7FEFF 		bl	_mmcsd_get_slice
 803 009e 0346     		mov	r3, r0
 804 00a0 DAB2     		uxtb	r2, r3
 805 00a2 009B     		ldr	r3, [sp]
 806 00a4 1A73     		strb	r2, [r3, #12]
 807              		.loc 1 220 0
 808 00a6 0822     		movs	r2, #8
 809 00a8 0921     		movs	r1, #9
 810 00aa 0298     		ldr	r0, [sp, #8]
 811 00ac FFF7FEFF 		bl	_mmcsd_get_slice
 812 00b0 0346     		mov	r3, r0
 813 00b2 DAB2     		uxtb	r2, r3
 814 00b4 009B     		ldr	r3, [sp]
 815 00b6 83F82320 		strb	r2, [r3, #35]
 816              		.loc 1 221 0
 817 00ba 2522     		movs	r2, #37
 818 00bc 2921     		movs	r1, #41
 819 00be 0298     		ldr	r0, [sp, #8]
 820 00c0 FFF7FEFF 		bl	_mmcsd_get_slice
 821 00c4 0346     		mov	r3, r0
 822 00c6 DAB2     		uxtb	r2, r3
 823 00c8 009B     		ldr	r3, [sp]
 824 00ca 9A75     		strb	r2, [r3, #22]
 825              		.loc 1 222 0
 826 00cc 2A22     		movs	r2, #42
 827 00ce 2E21     		movs	r1, #46
 828 00d0 0298     		ldr	r0, [sp, #8]
 829 00d2 FFF7FEFF 		bl	_mmcsd_get_slice
 830 00d6 0346     		mov	r3, r0
 831 00d8 DAB2     		uxtb	r2, r3
 832 00da 009B     		ldr	r3, [sp]
 833 00dc 5A75     		strb	r2, [r3, #21]
 834              		.loc 1 223 0
 835 00de 0A22     		movs	r2, #10
 836 00e0 0B21     		movs	r1, #11
 837 00e2 0298     		ldr	r0, [sp, #8]
 838 00e4 FFF7FEFF 		bl	_mmcsd_get_slice
 839 00e8 0346     		mov	r3, r0
 840 00ea DAB2     		uxtb	r2, r3
 841 00ec 009B     		ldr	r3, [sp]
 842 00ee 83F82220 		strb	r2, [r3, #34]
 843              		.loc 1 224 0
 844 00f2 0F22     		movs	r2, #15
 845 00f4 0F21     		movs	r1, #15
 846 00f6 0298     		ldr	r0, [sp, #8]
 847 00f8 FFF7FEFF 		bl	_mmcsd_get_slice
 848 00fc 0346     		mov	r3, r0
 849 00fe DAB2     		uxtb	r2, r3
 850 0100 009B     		ldr	r3, [sp]
 851 0102 9A77     		strb	r2, [r3, #30]
 852              		.loc 1 225 0
 853 0104 6822     		movs	r2, #104
 854 0106 6F21     		movs	r1, #111
 855 0108 0298     		ldr	r0, [sp, #8]
ARM GAS  C:\Users\PCHAUT~1\AppData\Local\Temp\ccVBCRqy.s 			page 16


 856 010a FFF7FEFF 		bl	_mmcsd_get_slice
 857 010e 0346     		mov	r3, r0
 858 0110 DAB2     		uxtb	r2, r3
 859 0112 009B     		ldr	r3, [sp]
 860 0114 DA70     		strb	r2, [r3, #3]
 861              		.loc 1 226 0
 862 0116 0D22     		movs	r2, #13
 863 0118 0D21     		movs	r1, #13
 864 011a 0298     		ldr	r0, [sp, #8]
 865 011c FFF7FEFF 		bl	_mmcsd_get_slice
 866 0120 0346     		mov	r3, r0
 867 0122 DAB2     		uxtb	r2, r3
 868 0124 009B     		ldr	r3, [sp]
 869 0126 83F82020 		strb	r2, [r3, #32]
 870              		.loc 1 227 0
 871 012a 1A22     		movs	r2, #26
 872 012c 1C21     		movs	r1, #28
 873 012e 0298     		ldr	r0, [sp, #8]
 874 0130 FFF7FEFF 		bl	_mmcsd_get_slice
 875 0134 0346     		mov	r3, r0
 876 0136 DAB2     		uxtb	r2, r3
 877 0138 009B     		ldr	r3, [sp]
 878 013a 9A76     		strb	r2, [r3, #26]
 879              		.loc 1 228 0
 880 013c 5022     		movs	r2, #80
 881 013e 5321     		movs	r1, #83
 882 0140 0298     		ldr	r0, [sp, #8]
 883 0142 FFF7FEFF 		bl	_mmcsd_get_slice
 884 0146 0346     		mov	r3, r0
 885 0148 DAB2     		uxtb	r2, r3
 886 014a 009B     		ldr	r3, [sp]
 887 014c 1A72     		strb	r2, [r3, #8]
 888              		.loc 1 229 0
 889 014e 4F22     		movs	r2, #79
 890 0150 4F21     		movs	r1, #79
 891 0152 0298     		ldr	r0, [sp, #8]
 892 0154 FFF7FEFF 		bl	_mmcsd_get_slice
 893 0158 0346     		mov	r3, r0
 894 015a DAB2     		uxtb	r2, r3
 895 015c 009B     		ldr	r3, [sp]
 896 015e 5A72     		strb	r2, [r3, #9]
 897              		.loc 1 230 0
 898 0160 4D22     		movs	r2, #77
 899 0162 4D21     		movs	r1, #77
 900 0164 0298     		ldr	r0, [sp, #8]
 901 0166 FFF7FEFF 		bl	_mmcsd_get_slice
 902 016a 0346     		mov	r3, r0
 903 016c DAB2     		uxtb	r2, r3
 904 016e 009B     		ldr	r3, [sp]
 905 0170 DA72     		strb	r2, [r3, #11]
 906              		.loc 1 231 0
 907 0172 7A22     		movs	r2, #122
 908 0174 7D21     		movs	r1, #125
 909 0176 0298     		ldr	r0, [sp, #8]
 910 0178 FFF7FEFF 		bl	_mmcsd_get_slice
 911 017c 0346     		mov	r3, r0
 912 017e DAB2     		uxtb	r2, r3
ARM GAS  C:\Users\PCHAUT~1\AppData\Local\Temp\ccVBCRqy.s 			page 17


 913 0180 009B     		ldr	r3, [sp]
 914 0182 5A70     		strb	r2, [r3, #1]
 915              		.loc 1 232 0
 916 0184 7022     		movs	r2, #112
 917 0186 7721     		movs	r1, #119
 918 0188 0298     		ldr	r0, [sp, #8]
 919 018a FFF7FEFF 		bl	_mmcsd_get_slice
 920 018e 0346     		mov	r3, r0
 921 0190 DAB2     		uxtb	r2, r3
 922 0192 009B     		ldr	r3, [sp]
 923 0194 9A70     		strb	r2, [r3, #2]
 924              		.loc 1 233 0
 925 0196 0C22     		movs	r2, #12
 926 0198 0C21     		movs	r1, #12
 927 019a 0298     		ldr	r0, [sp, #8]
 928 019c FFF7FEFF 		bl	_mmcsd_get_slice
 929 01a0 0346     		mov	r3, r0
 930 01a2 DAB2     		uxtb	r2, r3
 931 01a4 009B     		ldr	r3, [sp]
 932 01a6 83F82120 		strb	r2, [r3, #33]
 933              		.loc 1 234 0
 934 01aa 6022     		movs	r2, #96
 935 01ac 6721     		movs	r1, #103
 936 01ae 0298     		ldr	r0, [sp, #8]
 937 01b0 FFF7FEFF 		bl	_mmcsd_get_slice
 938 01b4 0346     		mov	r3, r0
 939 01b6 DAB2     		uxtb	r2, r3
 940 01b8 009B     		ldr	r3, [sp]
 941 01ba 1A71     		strb	r2, [r3, #4]
 942              		.loc 1 235 0
 943 01bc 3822     		movs	r2, #56
 944 01be 3A21     		movs	r1, #58
 945 01c0 0298     		ldr	r0, [sp, #8]
 946 01c2 FFF7FEFF 		bl	_mmcsd_get_slice
 947 01c6 0346     		mov	r3, r0
 948 01c8 DAB2     		uxtb	r2, r3
 949 01ca 009B     		ldr	r3, [sp]
 950 01cc 5A74     		strb	r2, [r3, #17]
 951              		.loc 1 236 0
 952 01ce 3B22     		movs	r2, #59
 953 01d0 3D21     		movs	r1, #61
 954 01d2 0298     		ldr	r0, [sp, #8]
 955 01d4 FFF7FEFF 		bl	_mmcsd_get_slice
 956 01d8 0346     		mov	r3, r0
 957 01da DAB2     		uxtb	r2, r3
 958 01dc 009B     		ldr	r3, [sp]
 959 01de 1A74     		strb	r2, [r3, #16]
 960              		.loc 1 237 0
 961 01e0 3222     		movs	r2, #50
 962 01e2 3421     		movs	r1, #52
 963 01e4 0298     		ldr	r0, [sp, #8]
 964 01e6 FFF7FEFF 		bl	_mmcsd_get_slice
 965 01ea 0346     		mov	r3, r0
 966 01ec DAB2     		uxtb	r2, r3
 967 01ee 009B     		ldr	r3, [sp]
 968 01f0 DA74     		strb	r2, [r3, #19]
 969              		.loc 1 238 0
ARM GAS  C:\Users\PCHAUT~1\AppData\Local\Temp\ccVBCRqy.s 			page 18


 970 01f2 3522     		movs	r2, #53
 971 01f4 3721     		movs	r1, #55
 972 01f6 0298     		ldr	r0, [sp, #8]
 973 01f8 FFF7FEFF 		bl	_mmcsd_get_slice
 974 01fc 0346     		mov	r3, r0
 975 01fe DAB2     		uxtb	r2, r3
 976 0200 009B     		ldr	r3, [sp]
 977 0202 9A74     		strb	r2, [r3, #18]
 978              		.loc 1 239 0
 979 0204 1F22     		movs	r2, #31
 980 0206 1F21     		movs	r1, #31
 981 0208 0298     		ldr	r0, [sp, #8]
 982 020a FFF7FEFF 		bl	_mmcsd_get_slice
 983 020e 0346     		mov	r3, r0
 984 0210 DAB2     		uxtb	r2, r3
 985 0212 009B     		ldr	r3, [sp]
 986 0214 1A76     		strb	r2, [r3, #24]
 987              		.loc 1 240 0
 988 0216 2022     		movs	r2, #32
 989 0218 2421     		movs	r1, #36
 990 021a 0298     		ldr	r0, [sp, #8]
 991 021c FFF7FEFF 		bl	_mmcsd_get_slice
 992 0220 0346     		mov	r3, r0
 993 0222 DAB2     		uxtb	r2, r3
 994 0224 009B     		ldr	r3, [sp]
 995 0226 DA75     		strb	r2, [r3, #23]
 996              		.loc 1 241 0
 997 0228 1622     		movs	r2, #22
 998 022a 1921     		movs	r1, #25
 999 022c 0298     		ldr	r0, [sp, #8]
 1000 022e FFF7FEFF 		bl	_mmcsd_get_slice
 1001 0232 0346     		mov	r3, r0
 1002 0234 DAB2     		uxtb	r2, r3
 1003 0236 009B     		ldr	r3, [sp]
 1004 0238 DA76     		strb	r2, [r3, #27]
 1005              		.loc 1 242 0
 1006 023a 1522     		movs	r2, #21
 1007 023c 1521     		movs	r1, #21
 1008 023e 0298     		ldr	r0, [sp, #8]
 1009 0240 FFF7FEFF 		bl	_mmcsd_get_slice
 1010 0244 0346     		mov	r3, r0
 1011 0246 DAB2     		uxtb	r2, r3
 1012 0248 009B     		ldr	r3, [sp]
 1013 024a 1A77     		strb	r2, [r3, #28]
 1014              		.loc 1 243 0
 1015 024c 4E22     		movs	r2, #78
 1016 024e 4E21     		movs	r1, #78
 1017 0250 0298     		ldr	r0, [sp, #8]
 1018 0252 FFF7FEFF 		bl	_mmcsd_get_slice
 1019 0256 0346     		mov	r3, r0
 1020 0258 DAB2     		uxtb	r2, r3
 1021 025a 009B     		ldr	r3, [sp]
 1022 025c 9A72     		strb	r2, [r3, #10]
 1023              		.loc 1 244 0
 1024 025e 00BF     		nop
 1025 0260 044B     		ldr	r3, .L41
 1026 0262 039A     		ldr	r2, [sp, #12]
ARM GAS  C:\Users\PCHAUT~1\AppData\Local\Temp\ccVBCRqy.s 			page 19


 1027 0264 1B68     		ldr	r3, [r3]
 1028 0266 9A42     		cmp	r2, r3
 1029 0268 01D0     		beq	.L40
 1030 026a FFF7FEFF 		bl	__stack_chk_fail
 1031              	.L40:
 1032 026e 05B0     		add	sp, sp, #20
 1033              		.cfi_def_cfa_offset 4
 1034              		@ sp needed
 1035 0270 5DF804FB 		ldr	pc, [sp], #4
 1036              	.L42:
 1037              		.align	2
 1038              	.L41:
 1039 0274 00000000 		.word	__stack_chk_guard
 1040 0278 00000000 		.word	__func__.9880
 1041              		.cfi_endproc
 1042              	.LFE261:
 1043              		.size	_mmcsd_unpack_csd_mmc, .-_mmcsd_unpack_csd_mmc
 1044              		.section	.text._mmcsd_unpack_csd_v10,"ax",%progbits
 1045              		.align	1
 1046              		.p2align 4,,15
 1047              		.global	_mmcsd_unpack_csd_v10
 1048              		.syntax unified
 1049              		.thumb
 1050              		.thumb_func
 1051              		.fpu fpv4-sp-d16
 1052              		.type	_mmcsd_unpack_csd_v10, %function
 1053              	_mmcsd_unpack_csd_v10:
 1054              	.LFB262:
 1055              		.loc 1 255 0
 1056              		.cfi_startproc
 1057              		@ args = 0, pretend = 0, frame = 16
 1058              		@ frame_needed = 0, uses_anonymous_args = 0
 1059 0000 00B5     		push	{lr}
 1060              		.cfi_def_cfa_offset 4
 1061              		.cfi_offset 14, -4
 1062 0002 85B0     		sub	sp, sp, #20
 1063              		.cfi_def_cfa_offset 24
 1064 0004 0190     		str	r0, [sp, #4]
 1065 0006 0091     		str	r1, [sp]
 1066              		.loc 1 255 0
 1067 0008 7B4B     		ldr	r3, .L46
 1068 000a 1B68     		ldr	r3, [r3]
 1069 000c 0393     		str	r3, [sp, #12]
 1070              		.loc 1 258 0
 1071 000e 019B     		ldr	r3, [sp, #4]
 1072 0010 002B     		cmp	r3, #0
 1073 0012 02D1     		bne	.L44
 1074              		.loc 1 258 0 is_stmt 0 discriminator 2
 1075 0014 7948     		ldr	r0, .L46+4
 1076 0016 FFF7FEFF 		bl	chSysHalt
 1077              	.L44:
 1078              		.loc 1 260 0 is_stmt 1
 1079 001a 019B     		ldr	r3, [sp, #4]
 1080 001c 1833     		adds	r3, r3, #24
 1081 001e 0293     		str	r3, [sp, #8]
 1082              		.loc 1 261 0
 1083 0020 3E22     		movs	r2, #62
ARM GAS  C:\Users\PCHAUT~1\AppData\Local\Temp\ccVBCRqy.s 			page 20


 1084 0022 4921     		movs	r1, #73
 1085 0024 0298     		ldr	r0, [sp, #8]
 1086 0026 FFF7FEFF 		bl	_mmcsd_get_slice
 1087 002a 0346     		mov	r3, r0
 1088 002c 9AB2     		uxth	r2, r3
 1089 002e 009B     		ldr	r3, [sp]
 1090 0030 9A81     		strh	r2, [r3, #12]	@ movhi
 1091              		.loc 1 262 0
 1092 0032 2F22     		movs	r2, #47
 1093 0034 3121     		movs	r1, #49
 1094 0036 0298     		ldr	r0, [sp, #8]
 1095 0038 FFF7FEFF 		bl	_mmcsd_get_slice
 1096 003c 0346     		mov	r3, r0
 1097 003e DAB2     		uxtb	r2, r3
 1098 0040 009B     		ldr	r3, [sp]
 1099 0042 9A74     		strb	r2, [r3, #18]
 1100              		.loc 1 263 0
 1101 0044 5422     		movs	r2, #84
 1102 0046 5F21     		movs	r1, #95
 1103 0048 0298     		ldr	r0, [sp, #8]
 1104 004a FFF7FEFF 		bl	_mmcsd_get_slice
 1105 004e 0346     		mov	r3, r0
 1106 0050 9AB2     		uxth	r2, r3
 1107 0052 009B     		ldr	r3, [sp]
 1108 0054 9A80     		strh	r2, [r3, #4]	@ movhi
 1109              		.loc 1 264 0
 1110 0056 0E22     		movs	r2, #14
 1111 0058 0E21     		movs	r1, #14
 1112 005a 0298     		ldr	r0, [sp, #8]
 1113 005c FFF7FEFF 		bl	_mmcsd_get_slice
 1114 0060 0346     		mov	r3, r0
 1115 0062 DAB2     		uxtb	r2, r3
 1116 0064 009B     		ldr	r3, [sp]
 1117 0066 DA76     		strb	r2, [r3, #27]
 1118              		.loc 1 265 0
 1119 0068 0122     		movs	r2, #1
 1120 006a 0721     		movs	r1, #7
 1121 006c 0298     		ldr	r0, [sp, #8]
 1122 006e FFF7FEFF 		bl	_mmcsd_get_slice
 1123 0072 0346     		mov	r3, r0
 1124 0074 DAB2     		uxtb	r2, r3
 1125 0076 009B     		ldr	r3, [sp]
 1126 0078 DA77     		strb	r2, [r3, #31]
 1127              		.loc 1 266 0
 1128 007a 7E22     		movs	r2, #126
 1129 007c 7F21     		movs	r1, #127
 1130 007e 0298     		ldr	r0, [sp, #8]
 1131 0080 FFF7FEFF 		bl	_mmcsd_get_slice
 1132 0084 0346     		mov	r3, r0
 1133 0086 DAB2     		uxtb	r2, r3
 1134 0088 009B     		ldr	r3, [sp]
 1135 008a 1A70     		strb	r2, [r3]
 1136              		.loc 1 267 0
 1137 008c 4C22     		movs	r2, #76
 1138 008e 4C21     		movs	r1, #76
 1139 0090 0298     		ldr	r0, [sp, #8]
 1140 0092 FFF7FEFF 		bl	_mmcsd_get_slice
ARM GAS  C:\Users\PCHAUT~1\AppData\Local\Temp\ccVBCRqy.s 			page 21


 1141 0096 0346     		mov	r3, r0
 1142 0098 DAB2     		uxtb	r2, r3
 1143 009a 009B     		ldr	r3, [sp]
 1144 009c 9A72     		strb	r2, [r3, #10]
 1145              		.loc 1 268 0
 1146 009e 2E22     		movs	r2, #46
 1147 00a0 2E21     		movs	r1, #46
 1148 00a2 0298     		ldr	r0, [sp, #8]
 1149 00a4 FFF7FEFF 		bl	_mmcsd_get_slice
 1150 00a8 0346     		mov	r3, r0
 1151 00aa DAB2     		uxtb	r2, r3
 1152 00ac 009B     		ldr	r3, [sp]
 1153 00ae DA74     		strb	r2, [r3, #19]
 1154              		.loc 1 269 0
 1155 00b0 2722     		movs	r2, #39
 1156 00b2 2D21     		movs	r1, #45
 1157 00b4 0298     		ldr	r0, [sp, #8]
 1158 00b6 FFF7FEFF 		bl	_mmcsd_get_slice
 1159 00ba 0346     		mov	r3, r0
 1160 00bc DAB2     		uxtb	r2, r3
 1161 00be 009B     		ldr	r3, [sp]
 1162 00c0 1A75     		strb	r2, [r3, #20]
 1163              		.loc 1 270 0
 1164 00c2 0A22     		movs	r2, #10
 1165 00c4 0B21     		movs	r1, #11
 1166 00c6 0298     		ldr	r0, [sp, #8]
 1167 00c8 FFF7FEFF 		bl	_mmcsd_get_slice
 1168 00cc 0346     		mov	r3, r0
 1169 00ce DAB2     		uxtb	r2, r3
 1170 00d0 009B     		ldr	r3, [sp]
 1171 00d2 9A77     		strb	r2, [r3, #30]
 1172              		.loc 1 271 0
 1173 00d4 0F22     		movs	r2, #15
 1174 00d6 0F21     		movs	r1, #15
 1175 00d8 0298     		ldr	r0, [sp, #8]
 1176 00da FFF7FEFF 		bl	_mmcsd_get_slice
 1177 00de 0346     		mov	r3, r0
 1178 00e0 DAB2     		uxtb	r2, r3
 1179 00e2 009B     		ldr	r3, [sp]
 1180 00e4 9A76     		strb	r2, [r3, #26]
 1181              		.loc 1 272 0
 1182 00e6 6822     		movs	r2, #104
 1183 00e8 6F21     		movs	r1, #111
 1184 00ea 0298     		ldr	r0, [sp, #8]
 1185 00ec FFF7FEFF 		bl	_mmcsd_get_slice
 1186 00f0 0346     		mov	r3, r0
 1187 00f2 DAB2     		uxtb	r2, r3
 1188 00f4 009B     		ldr	r3, [sp]
 1189 00f6 9A70     		strb	r2, [r3, #2]
 1190              		.loc 1 273 0
 1191 00f8 0D22     		movs	r2, #13
 1192 00fa 0D21     		movs	r1, #13
 1193 00fc 0298     		ldr	r0, [sp, #8]
 1194 00fe FFF7FEFF 		bl	_mmcsd_get_slice
 1195 0102 0346     		mov	r3, r0
 1196 0104 DAB2     		uxtb	r2, r3
 1197 0106 009B     		ldr	r3, [sp]
ARM GAS  C:\Users\PCHAUT~1\AppData\Local\Temp\ccVBCRqy.s 			page 22


 1198 0108 1A77     		strb	r2, [r3, #28]
 1199              		.loc 1 274 0
 1200 010a 1A22     		movs	r2, #26
 1201 010c 1C21     		movs	r1, #28
 1202 010e 0298     		ldr	r0, [sp, #8]
 1203 0110 FFF7FEFF 		bl	_mmcsd_get_slice
 1204 0114 0346     		mov	r3, r0
 1205 0116 DAB2     		uxtb	r2, r3
 1206 0118 009B     		ldr	r3, [sp]
 1207 011a DA75     		strb	r2, [r3, #23]
 1208              		.loc 1 275 0
 1209 011c 5022     		movs	r2, #80
 1210 011e 5321     		movs	r1, #83
 1211 0120 0298     		ldr	r0, [sp, #8]
 1212 0122 FFF7FEFF 		bl	_mmcsd_get_slice
 1213 0126 0346     		mov	r3, r0
 1214 0128 DAB2     		uxtb	r2, r3
 1215 012a 009B     		ldr	r3, [sp]
 1216 012c 9A71     		strb	r2, [r3, #6]
 1217              		.loc 1 276 0
 1218 012e 4F22     		movs	r2, #79
 1219 0130 4F21     		movs	r1, #79
 1220 0132 0298     		ldr	r0, [sp, #8]
 1221 0134 FFF7FEFF 		bl	_mmcsd_get_slice
 1222 0138 0346     		mov	r3, r0
 1223 013a DAB2     		uxtb	r2, r3
 1224 013c 009B     		ldr	r3, [sp]
 1225 013e DA71     		strb	r2, [r3, #7]
 1226              		.loc 1 277 0
 1227 0140 4D22     		movs	r2, #77
 1228 0142 4D21     		movs	r1, #77
 1229 0144 0298     		ldr	r0, [sp, #8]
 1230 0146 FFF7FEFF 		bl	_mmcsd_get_slice
 1231 014a 0346     		mov	r3, r0
 1232 014c DAB2     		uxtb	r2, r3
 1233 014e 009B     		ldr	r3, [sp]
 1234 0150 5A72     		strb	r2, [r3, #9]
 1235              		.loc 1 278 0
 1236 0152 7022     		movs	r2, #112
 1237 0154 7721     		movs	r1, #119
 1238 0156 0298     		ldr	r0, [sp, #8]
 1239 0158 FFF7FEFF 		bl	_mmcsd_get_slice
 1240 015c 0346     		mov	r3, r0
 1241 015e DAB2     		uxtb	r2, r3
 1242 0160 009B     		ldr	r3, [sp]
 1243 0162 5A70     		strb	r2, [r3, #1]
 1244              		.loc 1 279 0
 1245 0164 0C22     		movs	r2, #12
 1246 0166 0C21     		movs	r1, #12
 1247 0168 0298     		ldr	r0, [sp, #8]
 1248 016a FFF7FEFF 		bl	_mmcsd_get_slice
 1249 016e 0346     		mov	r3, r0
 1250 0170 DAB2     		uxtb	r2, r3
 1251 0172 009B     		ldr	r3, [sp]
 1252 0174 5A77     		strb	r2, [r3, #29]
 1253              		.loc 1 280 0
 1254 0176 6022     		movs	r2, #96
ARM GAS  C:\Users\PCHAUT~1\AppData\Local\Temp\ccVBCRqy.s 			page 23


 1255 0178 6721     		movs	r1, #103
 1256 017a 0298     		ldr	r0, [sp, #8]
 1257 017c FFF7FEFF 		bl	_mmcsd_get_slice
 1258 0180 0346     		mov	r3, r0
 1259 0182 DAB2     		uxtb	r2, r3
 1260 0184 009B     		ldr	r3, [sp]
 1261 0186 DA70     		strb	r2, [r3, #3]
 1262              		.loc 1 281 0
 1263 0188 1F22     		movs	r2, #31
 1264 018a 1F21     		movs	r1, #31
 1265 018c 0298     		ldr	r0, [sp, #8]
 1266 018e FFF7FEFF 		bl	_mmcsd_get_slice
 1267 0192 0346     		mov	r3, r0
 1268 0194 DAB2     		uxtb	r2, r3
 1269 0196 009B     		ldr	r3, [sp]
 1270 0198 9A75     		strb	r2, [r3, #22]
 1271              		.loc 1 282 0
 1272 019a 2022     		movs	r2, #32
 1273 019c 2621     		movs	r1, #38
 1274 019e 0298     		ldr	r0, [sp, #8]
 1275 01a0 FFF7FEFF 		bl	_mmcsd_get_slice
 1276 01a4 0346     		mov	r3, r0
 1277 01a6 DAB2     		uxtb	r2, r3
 1278 01a8 009B     		ldr	r3, [sp]
 1279 01aa 5A75     		strb	r2, [r3, #21]
 1280              		.loc 1 283 0
 1281 01ac 0C22     		movs	r2, #12
 1282 01ae 1921     		movs	r1, #25
 1283 01b0 0298     		ldr	r0, [sp, #8]
 1284 01b2 FFF7FEFF 		bl	_mmcsd_get_slice
 1285 01b6 0346     		mov	r3, r0
 1286 01b8 DAB2     		uxtb	r2, r3
 1287 01ba 009B     		ldr	r3, [sp]
 1288 01bc 1A76     		strb	r2, [r3, #24]
 1289              		.loc 1 284 0
 1290 01be 1522     		movs	r2, #21
 1291 01c0 1521     		movs	r1, #21
 1292 01c2 0298     		ldr	r0, [sp, #8]
 1293 01c4 FFF7FEFF 		bl	_mmcsd_get_slice
 1294 01c8 0346     		mov	r3, r0
 1295 01ca DAB2     		uxtb	r2, r3
 1296 01cc 009B     		ldr	r3, [sp]
 1297 01ce 5A76     		strb	r2, [r3, #25]
 1298              		.loc 1 285 0
 1299 01d0 4E22     		movs	r2, #78
 1300 01d2 4E21     		movs	r1, #78
 1301 01d4 0298     		ldr	r0, [sp, #8]
 1302 01d6 FFF7FEFF 		bl	_mmcsd_get_slice
 1303 01da 0346     		mov	r3, r0
 1304 01dc DAB2     		uxtb	r2, r3
 1305 01de 009B     		ldr	r3, [sp]
 1306 01e0 1A72     		strb	r2, [r3, #8]
 1307              		.loc 1 286 0
 1308 01e2 00BF     		nop
 1309 01e4 044B     		ldr	r3, .L46
 1310 01e6 039A     		ldr	r2, [sp, #12]
 1311 01e8 1B68     		ldr	r3, [r3]
ARM GAS  C:\Users\PCHAUT~1\AppData\Local\Temp\ccVBCRqy.s 			page 24


 1312 01ea 9A42     		cmp	r2, r3
 1313 01ec 01D0     		beq	.L45
 1314 01ee FFF7FEFF 		bl	__stack_chk_fail
 1315              	.L45:
 1316 01f2 05B0     		add	sp, sp, #20
 1317              		.cfi_def_cfa_offset 4
 1318              		@ sp needed
 1319 01f4 5DF804FB 		ldr	pc, [sp], #4
 1320              	.L47:
 1321              		.align	2
 1322              	.L46:
 1323 01f8 00000000 		.word	__stack_chk_guard
 1324 01fc 00000000 		.word	__func__.9886
 1325              		.cfi_endproc
 1326              	.LFE262:
 1327              		.size	_mmcsd_unpack_csd_v10, .-_mmcsd_unpack_csd_v10
 1328              		.section	.text._mmcsd_unpack_csd_v20,"ax",%progbits
 1329              		.align	1
 1330              		.p2align 4,,15
 1331              		.global	_mmcsd_unpack_csd_v20
 1332              		.syntax unified
 1333              		.thumb
 1334              		.thumb_func
 1335              		.fpu fpv4-sp-d16
 1336              		.type	_mmcsd_unpack_csd_v20, %function
 1337              	_mmcsd_unpack_csd_v20:
 1338              	.LFB263:
 1339              		.loc 1 297 0
 1340              		.cfi_startproc
 1341              		@ args = 0, pretend = 0, frame = 16
 1342              		@ frame_needed = 0, uses_anonymous_args = 0
 1343 0000 00B5     		push	{lr}
 1344              		.cfi_def_cfa_offset 4
 1345              		.cfi_offset 14, -4
 1346 0002 85B0     		sub	sp, sp, #20
 1347              		.cfi_def_cfa_offset 24
 1348 0004 0190     		str	r0, [sp, #4]
 1349 0006 0091     		str	r1, [sp]
 1350              		.loc 1 297 0
 1351 0008 764B     		ldr	r3, .L51
 1352 000a 1B68     		ldr	r3, [r3]
 1353 000c 0393     		str	r3, [sp, #12]
 1354              		.loc 1 300 0
 1355 000e 019B     		ldr	r3, [sp, #4]
 1356 0010 002B     		cmp	r3, #0
 1357 0012 02D1     		bne	.L49
 1358              		.loc 1 300 0 is_stmt 0 discriminator 2
 1359 0014 7448     		ldr	r0, .L51+4
 1360 0016 FFF7FEFF 		bl	chSysHalt
 1361              	.L49:
 1362              		.loc 1 302 0 is_stmt 1
 1363 001a 019B     		ldr	r3, [sp, #4]
 1364 001c 1833     		adds	r3, r3, #24
 1365 001e 0293     		str	r3, [sp, #8]
 1366              		.loc 1 303 0
 1367 0020 3022     		movs	r2, #48
 1368 0022 4521     		movs	r1, #69
ARM GAS  C:\Users\PCHAUT~1\AppData\Local\Temp\ccVBCRqy.s 			page 25


 1369 0024 0298     		ldr	r0, [sp, #8]
 1370 0026 FFF7FEFF 		bl	_mmcsd_get_slice
 1371 002a 0246     		mov	r2, r0
 1372 002c 009B     		ldr	r3, [sp]
 1373 002e DA60     		str	r2, [r3, #12]
 1374              		.loc 1 304 0
 1375 0030 0122     		movs	r2, #1
 1376 0032 0721     		movs	r1, #7
 1377 0034 0298     		ldr	r0, [sp, #8]
 1378 0036 FFF7FEFF 		bl	_mmcsd_get_slice
 1379 003a 0346     		mov	r3, r0
 1380 003c DAB2     		uxtb	r2, r3
 1381 003e 009B     		ldr	r3, [sp]
 1382 0040 1A77     		strb	r2, [r3, #28]
 1383              		.loc 1 305 0
 1384 0042 5422     		movs	r2, #84
 1385 0044 5F21     		movs	r1, #95
 1386 0046 0298     		ldr	r0, [sp, #8]
 1387 0048 FFF7FEFF 		bl	_mmcsd_get_slice
 1388 004c 0346     		mov	r3, r0
 1389 004e 9AB2     		uxth	r2, r3
 1390 0050 009B     		ldr	r3, [sp]
 1391 0052 9A80     		strh	r2, [r3, #4]	@ movhi
 1392              		.loc 1 306 0
 1393 0054 0E22     		movs	r2, #14
 1394 0056 0E21     		movs	r1, #14
 1395 0058 0298     		ldr	r0, [sp, #8]
 1396 005a FFF7FEFF 		bl	_mmcsd_get_slice
 1397 005e 0346     		mov	r3, r0
 1398 0060 DAB2     		uxtb	r2, r3
 1399 0062 009B     		ldr	r3, [sp]
 1400 0064 1A76     		strb	r2, [r3, #24]
 1401              		.loc 1 307 0
 1402 0066 7E22     		movs	r2, #126
 1403 0068 7F21     		movs	r1, #127
 1404 006a 0298     		ldr	r0, [sp, #8]
 1405 006c FFF7FEFF 		bl	_mmcsd_get_slice
 1406 0070 0346     		mov	r3, r0
 1407 0072 DAB2     		uxtb	r2, r3
 1408 0074 009B     		ldr	r3, [sp]
 1409 0076 1A70     		strb	r2, [r3]
 1410              		.loc 1 308 0
 1411 0078 4C22     		movs	r2, #76
 1412 007a 4C21     		movs	r1, #76
 1413 007c 0298     		ldr	r0, [sp, #8]
 1414 007e FFF7FEFF 		bl	_mmcsd_get_slice
 1415 0082 0346     		mov	r3, r0
 1416 0084 DAB2     		uxtb	r2, r3
 1417 0086 009B     		ldr	r3, [sp]
 1418 0088 9A72     		strb	r2, [r3, #10]
 1419              		.loc 1 309 0
 1420 008a 2E22     		movs	r2, #46
 1421 008c 2E21     		movs	r1, #46
 1422 008e 0298     		ldr	r0, [sp, #8]
 1423 0090 FFF7FEFF 		bl	_mmcsd_get_slice
 1424 0094 0346     		mov	r3, r0
 1425 0096 DAB2     		uxtb	r2, r3
ARM GAS  C:\Users\PCHAUT~1\AppData\Local\Temp\ccVBCRqy.s 			page 26


 1426 0098 009B     		ldr	r3, [sp]
 1427 009a 1A74     		strb	r2, [r3, #16]
 1428              		.loc 1 310 0
 1429 009c 0A22     		movs	r2, #10
 1430 009e 0B21     		movs	r1, #11
 1431 00a0 0298     		ldr	r0, [sp, #8]
 1432 00a2 FFF7FEFF 		bl	_mmcsd_get_slice
 1433 00a6 0346     		mov	r3, r0
 1434 00a8 DAB2     		uxtb	r2, r3
 1435 00aa 009B     		ldr	r3, [sp]
 1436 00ac DA76     		strb	r2, [r3, #27]
 1437              		.loc 1 311 0
 1438 00ae 0F22     		movs	r2, #15
 1439 00b0 0F21     		movs	r1, #15
 1440 00b2 0298     		ldr	r0, [sp, #8]
 1441 00b4 FFF7FEFF 		bl	_mmcsd_get_slice
 1442 00b8 0346     		mov	r3, r0
 1443 00ba DAB2     		uxtb	r2, r3
 1444 00bc 009B     		ldr	r3, [sp]
 1445 00be DA75     		strb	r2, [r3, #23]
 1446              		.loc 1 312 0
 1447 00c0 6822     		movs	r2, #104
 1448 00c2 6F21     		movs	r1, #111
 1449 00c4 0298     		ldr	r0, [sp, #8]
 1450 00c6 FFF7FEFF 		bl	_mmcsd_get_slice
 1451 00ca 0346     		mov	r3, r0
 1452 00cc DAB2     		uxtb	r2, r3
 1453 00ce 009B     		ldr	r3, [sp]
 1454 00d0 9A70     		strb	r2, [r3, #2]
 1455              		.loc 1 313 0
 1456 00d2 0D22     		movs	r2, #13
 1457 00d4 0D21     		movs	r1, #13
 1458 00d6 0298     		ldr	r0, [sp, #8]
 1459 00d8 FFF7FEFF 		bl	_mmcsd_get_slice
 1460 00dc 0346     		mov	r3, r0
 1461 00de DAB2     		uxtb	r2, r3
 1462 00e0 009B     		ldr	r3, [sp]
 1463 00e2 5A76     		strb	r2, [r3, #25]
 1464              		.loc 1 314 0
 1465 00e4 1A22     		movs	r2, #26
 1466 00e6 1C21     		movs	r1, #28
 1467 00e8 0298     		ldr	r0, [sp, #8]
 1468 00ea FFF7FEFF 		bl	_mmcsd_get_slice
 1469 00ee 0346     		mov	r3, r0
 1470 00f0 DAB2     		uxtb	r2, r3
 1471 00f2 009B     		ldr	r3, [sp]
 1472 00f4 1A75     		strb	r2, [r3, #20]
 1473              		.loc 1 315 0
 1474 00f6 5022     		movs	r2, #80
 1475 00f8 5321     		movs	r1, #83
 1476 00fa 0298     		ldr	r0, [sp, #8]
 1477 00fc FFF7FEFF 		bl	_mmcsd_get_slice
 1478 0100 0346     		mov	r3, r0
 1479 0102 DAB2     		uxtb	r2, r3
 1480 0104 009B     		ldr	r3, [sp]
 1481 0106 9A71     		strb	r2, [r3, #6]
 1482              		.loc 1 316 0
ARM GAS  C:\Users\PCHAUT~1\AppData\Local\Temp\ccVBCRqy.s 			page 27


 1483 0108 4F22     		movs	r2, #79
 1484 010a 4F21     		movs	r1, #79
 1485 010c 0298     		ldr	r0, [sp, #8]
 1486 010e FFF7FEFF 		bl	_mmcsd_get_slice
 1487 0112 0346     		mov	r3, r0
 1488 0114 DAB2     		uxtb	r2, r3
 1489 0116 009B     		ldr	r3, [sp]
 1490 0118 DA71     		strb	r2, [r3, #7]
 1491              		.loc 1 317 0
 1492 011a 4D22     		movs	r2, #77
 1493 011c 4D21     		movs	r1, #77
 1494 011e 0298     		ldr	r0, [sp, #8]
 1495 0120 FFF7FEFF 		bl	_mmcsd_get_slice
 1496 0124 0346     		mov	r3, r0
 1497 0126 DAB2     		uxtb	r2, r3
 1498 0128 009B     		ldr	r3, [sp]
 1499 012a 5A72     		strb	r2, [r3, #9]
 1500              		.loc 1 318 0
 1501 012c 2722     		movs	r2, #39
 1502 012e 2D21     		movs	r1, #45
 1503 0130 0298     		ldr	r0, [sp, #8]
 1504 0132 FFF7FEFF 		bl	_mmcsd_get_slice
 1505 0136 0346     		mov	r3, r0
 1506 0138 DAB2     		uxtb	r2, r3
 1507 013a 009B     		ldr	r3, [sp]
 1508 013c 5A74     		strb	r2, [r3, #17]
 1509              		.loc 1 319 0
 1510 013e 7022     		movs	r2, #112
 1511 0140 7721     		movs	r1, #119
 1512 0142 0298     		ldr	r0, [sp, #8]
 1513 0144 FFF7FEFF 		bl	_mmcsd_get_slice
 1514 0148 0346     		mov	r3, r0
 1515 014a DAB2     		uxtb	r2, r3
 1516 014c 009B     		ldr	r3, [sp]
 1517 014e 5A70     		strb	r2, [r3, #1]
 1518              		.loc 1 320 0
 1519 0150 0C22     		movs	r2, #12
 1520 0152 0C21     		movs	r1, #12
 1521 0154 0298     		ldr	r0, [sp, #8]
 1522 0156 FFF7FEFF 		bl	_mmcsd_get_slice
 1523 015a 0346     		mov	r3, r0
 1524 015c DAB2     		uxtb	r2, r3
 1525 015e 009B     		ldr	r3, [sp]
 1526 0160 9A76     		strb	r2, [r3, #26]
 1527              		.loc 1 321 0
 1528 0162 6022     		movs	r2, #96
 1529 0164 6721     		movs	r1, #103
 1530 0166 0298     		ldr	r0, [sp, #8]
 1531 0168 FFF7FEFF 		bl	_mmcsd_get_slice
 1532 016c 0346     		mov	r3, r0
 1533 016e DAB2     		uxtb	r2, r3
 1534 0170 009B     		ldr	r3, [sp]
 1535 0172 DA70     		strb	r2, [r3, #3]
 1536              		.loc 1 322 0
 1537 0174 1F22     		movs	r2, #31
 1538 0176 1F21     		movs	r1, #31
 1539 0178 0298     		ldr	r0, [sp, #8]
ARM GAS  C:\Users\PCHAUT~1\AppData\Local\Temp\ccVBCRqy.s 			page 28


 1540 017a FFF7FEFF 		bl	_mmcsd_get_slice
 1541 017e 0346     		mov	r3, r0
 1542 0180 DAB2     		uxtb	r2, r3
 1543 0182 009B     		ldr	r3, [sp]
 1544 0184 DA74     		strb	r2, [r3, #19]
 1545              		.loc 1 323 0
 1546 0186 2022     		movs	r2, #32
 1547 0188 2621     		movs	r1, #38
 1548 018a 0298     		ldr	r0, [sp, #8]
 1549 018c FFF7FEFF 		bl	_mmcsd_get_slice
 1550 0190 0346     		mov	r3, r0
 1551 0192 DAB2     		uxtb	r2, r3
 1552 0194 009B     		ldr	r3, [sp]
 1553 0196 9A74     		strb	r2, [r3, #18]
 1554              		.loc 1 324 0
 1555 0198 0C22     		movs	r2, #12
 1556 019a 1921     		movs	r1, #25
 1557 019c 0298     		ldr	r0, [sp, #8]
 1558 019e FFF7FEFF 		bl	_mmcsd_get_slice
 1559 01a2 0346     		mov	r3, r0
 1560 01a4 DAB2     		uxtb	r2, r3
 1561 01a6 009B     		ldr	r3, [sp]
 1562 01a8 5A75     		strb	r2, [r3, #21]
 1563              		.loc 1 325 0
 1564 01aa 1522     		movs	r2, #21
 1565 01ac 1521     		movs	r1, #21
 1566 01ae 0298     		ldr	r0, [sp, #8]
 1567 01b0 FFF7FEFF 		bl	_mmcsd_get_slice
 1568 01b4 0346     		mov	r3, r0
 1569 01b6 DAB2     		uxtb	r2, r3
 1570 01b8 009B     		ldr	r3, [sp]
 1571 01ba 9A75     		strb	r2, [r3, #22]
 1572              		.loc 1 326 0
 1573 01bc 4E22     		movs	r2, #78
 1574 01be 4E21     		movs	r1, #78
 1575 01c0 0298     		ldr	r0, [sp, #8]
 1576 01c2 FFF7FEFF 		bl	_mmcsd_get_slice
 1577 01c6 0346     		mov	r3, r0
 1578 01c8 DAB2     		uxtb	r2, r3
 1579 01ca 009B     		ldr	r3, [sp]
 1580 01cc 1A72     		strb	r2, [r3, #8]
 1581              		.loc 1 327 0
 1582 01ce 00BF     		nop
 1583 01d0 044B     		ldr	r3, .L51
 1584 01d2 039A     		ldr	r2, [sp, #12]
 1585 01d4 1B68     		ldr	r3, [r3]
 1586 01d6 9A42     		cmp	r2, r3
 1587 01d8 01D0     		beq	.L50
 1588 01da FFF7FEFF 		bl	__stack_chk_fail
 1589              	.L50:
 1590 01de 05B0     		add	sp, sp, #20
 1591              		.cfi_def_cfa_offset 4
 1592              		@ sp needed
 1593 01e0 5DF804FB 		ldr	pc, [sp], #4
 1594              	.L52:
 1595              		.align	2
 1596              	.L51:
ARM GAS  C:\Users\PCHAUT~1\AppData\Local\Temp\ccVBCRqy.s 			page 29


 1597 01e4 00000000 		.word	__stack_chk_guard
 1598 01e8 00000000 		.word	__func__.9892
 1599              		.cfi_endproc
 1600              	.LFE263:
 1601              		.size	_mmcsd_unpack_csd_v20, .-_mmcsd_unpack_csd_v20
 1602              		.section	.rodata.__func__.9847,"a",%progbits
 1603              		.align	2
 1604              		.type	__func__.9847, %object
 1605              		.size	__func__.9847, 17
 1606              	__func__.9847:
 1607 0000 5F6D6D63 		.ascii	"_mmcsd_get_slice\000"
 1607      73645F67 
 1607      65745F73 
 1607      6C696365 
 1607      00
 1608              		.section	.rodata.__func__.9854,"a",%progbits
 1609              		.align	2
 1610              		.type	__func__.9854, %object
 1611              		.size	__func__.9854, 20
 1612              	__func__.9854:
 1613 0000 5F6D6D63 		.ascii	"_mmcsd_get_capacity\000"
 1613      73645F67 
 1613      65745F63 
 1613      61706163 
 1613      69747900 
 1614              		.section	.rodata.__func__.9862,"a",%progbits
 1615              		.align	2
 1616              		.type	__func__.9862, %object
 1617              		.size	__func__.9862, 24
 1618              	__func__.9862:
 1619 0000 5F6D6D63 		.ascii	"_mmcsd_get_capacity_ext\000"
 1619      73645F67 
 1619      65745F63 
 1619      61706163 
 1619      6974795F 
 1620              		.section	.rodata.__func__.9868,"a",%progbits
 1621              		.align	2
 1622              		.type	__func__.9868, %object
 1623              		.size	__func__.9868, 22
 1624              	__func__.9868:
 1625 0000 5F6D6D63 		.ascii	"_mmcsd_unpack_sdc_cid\000"
 1625      73645F75 
 1625      6E706163 
 1625      6B5F7364 
 1625      635F6369 
 1626              		.section	.rodata.__func__.9874,"a",%progbits
 1627              		.align	2
 1628              		.type	__func__.9874, %object
 1629              		.size	__func__.9874, 22
 1630              	__func__.9874:
 1631 0000 5F6D6D63 		.ascii	"_mmcsd_unpack_mmc_cid\000"
 1631      73645F75 
 1631      6E706163 
 1631      6B5F6D6D 
 1631      635F6369 
 1632              		.section	.rodata.__func__.9880,"a",%progbits
 1633              		.align	2
ARM GAS  C:\Users\PCHAUT~1\AppData\Local\Temp\ccVBCRqy.s 			page 30


 1634              		.type	__func__.9880, %object
 1635              		.size	__func__.9880, 22
 1636              	__func__.9880:
 1637 0000 5F6D6D63 		.ascii	"_mmcsd_unpack_csd_mmc\000"
 1637      73645F75 
 1637      6E706163 
 1637      6B5F6373 
 1637      645F6D6D 
 1638              		.section	.rodata.__func__.9886,"a",%progbits
 1639              		.align	2
 1640              		.type	__func__.9886, %object
 1641              		.size	__func__.9886, 22
 1642              	__func__.9886:
 1643 0000 5F6D6D63 		.ascii	"_mmcsd_unpack_csd_v10\000"
 1643      73645F75 
 1643      6E706163 
 1643      6B5F6373 
 1643      645F7631 
 1644              		.section	.rodata.__func__.9892,"a",%progbits
 1645              		.align	2
 1646              		.type	__func__.9892, %object
 1647              		.size	__func__.9892, 22
 1648              	__func__.9892:
 1649 0000 5F6D6D63 		.ascii	"_mmcsd_unpack_csd_v20\000"
 1649      73645F75 
 1649      6E706163 
 1649      6B5F6373 
 1649      645F7632 
 1650              		.text
 1651              	.Letext0:
 1652              		.file 2 "c:\\users\\pchautems\\documents\\robotiquetp\\eclipse_e-puck2\\tools\\gcc-arm-none-eabi-7
 1653              		.file 3 "c:\\users\\pchautems\\documents\\robotiquetp\\eclipse_e-puck2\\tools\\gcc-arm-none-eabi-7
 1654              		.file 4 "c:\\users\\pchautems\\documents\\robotiquetp\\eclipse_e-puck2\\tools\\gcc-arm-none-eabi-7
 1655              		.file 5 "../lib/e-puck2_main-processor/ChibiOS//os/rt/ports/ARMCMx/compilers/GCC/chtypes.h"
 1656              		.file 6 "../lib/e-puck2_main-processor/ChibiOS//os/rt/include/chsystypes.h"
 1657              		.file 7 "../lib/e-puck2_main-processor/ChibiOS//os/rt/include/chschd.h"
 1658              		.file 8 "../lib/e-puck2_main-processor/ChibiOS//os/ext/CMSIS/include/core_cm4.h"
 1659              		.file 9 "../lib/e-puck2_main-processor/ChibiOS//os/ext/CMSIS/ST/system_stm32f4xx.h"
 1660              		.file 10 "../lib/e-puck2_main-processor/ChibiOS//os/ext/CMSIS/ST/stm32f407xx.h"
 1661              		.file 11 "../lib/e-puck2_main-processor/ChibiOS//os/rt/ports/ARMCMx/chcore.h"
 1662              		.file 12 "../lib/e-puck2_main-processor/ChibiOS//os/rt/ports/ARMCMx/chcore_v7m.h"
 1663              		.file 13 "../lib/e-puck2_main-processor/ChibiOS//os/rt/include/chdebug.h"
 1664              		.file 14 "../lib/e-puck2_main-processor/ChibiOS//os/rt/include/chtm.h"
 1665              		.file 15 "../lib/e-puck2_main-processor/ChibiOS//os/rt/include/chstats.h"
 1666              		.file 16 "../lib/e-puck2_main-processor/ChibiOS//os/rt/include/chsem.h"
 1667              		.file 17 "../lib/e-puck2_main-processor/ChibiOS//os/rt/include/chmtx.h"
 1668              		.file 18 "../lib/e-puck2_main-processor/ChibiOS//os/rt/include/chregistry.h"
 1669              		.file 19 "../lib/e-puck2_main-processor/ChibiOS//os/rt/include/chevents.h"
 1670              		.file 20 "../lib/e-puck2_main-processor/ChibiOS//os/rt/include/chqueues.h"
 1671              		.file 21 "../lib/e-puck2_main-processor/ChibiOS//os/hal/ports/STM32/STM32F4xx/stm32_dma.h"
 1672              		.file 22 "../lib/e-puck2_main-processor/ChibiOS//os/hal/include/hal_ioblock.h"
 1673              		.file 23 "../lib/e-puck2_main-processor/ChibiOS//os/hal/include/hal_mmcsd.h"
 1674              		.file 24 "../lib/e-puck2_main-processor/ChibiOS//os/hal/ports/STM32/LLD/GPIOv2/pal_lld.h"
 1675              		.file 25 "../lib/e-puck2_main-processor/ChibiOS//os/hal/include/adc.h"
 1676              		.file 26 "../lib/e-puck2_main-processor/ChibiOS//os/hal/ports/STM32/STM32F4xx/adc_lld.h"
 1677              		.file 27 "../lib/e-puck2_main-processor/ChibiOS//os/hal/include/can.h"
 1678              		.file 28 "../lib/e-puck2_main-processor/ChibiOS//os/hal/ports/STM32/LLD/can_lld.h"
ARM GAS  C:\Users\PCHAUT~1\AppData\Local\Temp\ccVBCRqy.s 			page 31


 1679              		.file 29 "../lib/e-puck2_main-processor/ChibiOS//os/hal/include/dac.h"
 1680              		.file 30 "../lib/e-puck2_main-processor/ChibiOS//os/hal/ports/STM32/LLD/DACv1/dac_lld.h"
 1681              		.file 31 "../lib/e-puck2_main-processor/ChibiOS//os/hal/include/ext.h"
 1682              		.file 32 "../lib/e-puck2_main-processor/ChibiOS//os/hal/ports/STM32/LLD/ext_lld.h"
 1683              		.file 33 "../lib/e-puck2_main-processor/ChibiOS//os/hal/include/gpt.h"
 1684              		.file 34 "../lib/e-puck2_main-processor/ChibiOS//os/hal/ports/STM32/LLD/TIMv1/gpt_lld.h"
 1685              		.file 35 "../lib/e-puck2_main-processor/ChibiOS//os/hal/ports/STM32/LLD/TIMv1/stm32_tim.h"
 1686              		.file 36 "../lib/e-puck2_main-processor/ChibiOS//os/hal/include/i2c.h"
 1687              		.file 37 "../lib/e-puck2_main-processor/ChibiOS//os/hal/ports/STM32/LLD/I2Cv1/i2c_lld.h"
 1688              		.file 38 "../lib/e-puck2_main-processor/ChibiOS//os/hal/include/i2s.h"
 1689              		.file 39 "../lib/e-puck2_main-processor/ChibiOS//os/hal/ports/STM32/LLD/SPIv1/i2s_lld.h"
 1690              		.file 40 "../lib/e-puck2_main-processor/ChibiOS//os/hal/include/pwm.h"
 1691              		.file 41 "../lib/e-puck2_main-processor/ChibiOS//os/hal/ports/STM32/LLD/TIMv1/pwm_lld.h"
 1692              		.file 42 "../lib/e-puck2_main-processor/ChibiOS//os/hal/include/serial.h"
 1693              		.file 43 "../lib/e-puck2_main-processor/ChibiOS//os/hal/ports/STM32/LLD/USARTv1/serial_lld.h"
 1694              		.file 44 "../lib/e-puck2_main-processor/ChibiOS//os/hal/include/sdc.h"
 1695              		.file 45 "../lib/e-puck2_main-processor/ChibiOS//os/hal/ports/STM32/LLD/sdc_lld.h"
 1696              		.file 46 "../lib/e-puck2_main-processor/ChibiOS//os/hal/include/spi.h"
 1697              		.file 47 "../lib/e-puck2_main-processor/ChibiOS//os/hal/ports/STM32/LLD/SPIv1/spi_lld.h"
 1698              		.file 48 "../lib/e-puck2_main-processor/ChibiOS//os/hal/include/usb.h"
 1699              		.file 49 "../lib/e-puck2_main-processor/ChibiOS//os/hal/ports/STM32/LLD/OTGv1/usb_lld.h"
 1700              		.file 50 "../lib/e-puck2_main-processor/ChibiOS//os/hal/ports/STM32/LLD/OTGv1/stm32_otg.h"