ARM GAS  C:\Users\PCHAUT~1\AppData\Local\Temp\ccx8xwro.s 			page 1


   1              		.cpu cortex-m4
   2              		.eabi_attribute 27, 1
   3              		.eabi_attribute 28, 1
   4              		.eabi_attribute 20, 1
   5              		.eabi_attribute 21, 1
   6              		.eabi_attribute 23, 3
   7              		.eabi_attribute 24, 1
   8              		.eabi_attribute 25, 1
   9              		.eabi_attribute 26, 1
  10              		.eabi_attribute 30, 6
  11              		.eabi_attribute 34, 1
  12              		.eabi_attribute 18, 4
  13              		.file	"i2c.c"
  14              		.text
  15              	.Ltext0:
  16              		.cfi_sections	.debug_frame
  17              		.section	.text.port_lock,"ax",%progbits
  18              		.align	1
  19              		.p2align 4,,15
  20              		.syntax unified
  21              		.thumb
  22              		.thumb_func
  23              		.fpu fpv4-sp-d16
  24              		.type	port_lock, %function
  25              	port_lock:
  26              	.LFB116:
  27              		.file 1 "../lib/e-puck2_main-processor/ChibiOS//os/rt/ports/ARMCMx/chcore_v7m.h"
  28              		.loc 1 444 0
  29              		.cfi_startproc
  30              		@ args = 0, pretend = 0, frame = 8
  31              		@ frame_needed = 0, uses_anonymous_args = 0
  32 0000 00B5     		push	{lr}
  33              		.cfi_def_cfa_offset 4
  34              		.cfi_offset 14, -4
  35 0002 83B0     		sub	sp, sp, #12
  36              		.cfi_def_cfa_offset 16
  37              		.loc 1 444 0
  38 0004 094B     		ldr	r3, .L3
  39 0006 1B68     		ldr	r3, [r3]
  40 0008 0193     		str	r3, [sp, #4]
  41 000a 2023     		movs	r3, #32
  42 000c 0093     		str	r3, [sp]
  43              	.LBB6:
  44              	.LBB7:
  45              		.file 2 "../lib/e-puck2_main-processor/ChibiOS//os/ext/CMSIS/include/core_cmFunc.h"
  46              		.loc 2 546 0
  47 000e 009B     		ldr	r3, [sp]
  48              		.syntax unified
  49              	@ 546 "../lib/e-puck2_main-processor/ChibiOS//os/ext/CMSIS/include/core_cmFunc.h" 1
  50 0010 83F31188 		MSR basepri, r3
  51              	@ 0 "" 2
  52              		.thumb
  53              		.syntax unified
  54              	.LBE7:
  55              	.LBE6:
  56              		.loc 1 451 0
  57 0014 00BF     		nop
ARM GAS  C:\Users\PCHAUT~1\AppData\Local\Temp\ccx8xwro.s 			page 2


  58 0016 054B     		ldr	r3, .L3
  59 0018 019A     		ldr	r2, [sp, #4]
  60 001a 1B68     		ldr	r3, [r3]
  61 001c 9A42     		cmp	r2, r3
  62 001e 01D0     		beq	.L2
  63 0020 FFF7FEFF 		bl	__stack_chk_fail
  64              	.L2:
  65 0024 03B0     		add	sp, sp, #12
  66              		.cfi_def_cfa_offset 4
  67              		@ sp needed
  68 0026 5DF804FB 		ldr	pc, [sp], #4
  69              	.L4:
  70 002a 00BF     		.align	2
  71              	.L3:
  72 002c 00000000 		.word	__stack_chk_guard
  73              		.cfi_endproc
  74              	.LFE116:
  75              		.size	port_lock, .-port_lock
  76              		.section	.text.port_unlock,"ax",%progbits
  77              		.align	1
  78              		.p2align 4,,15
  79              		.syntax unified
  80              		.thumb
  81              		.thumb_func
  82              		.fpu fpv4-sp-d16
  83              		.type	port_unlock, %function
  84              	port_unlock:
  85              	.LFB117:
  86              		.loc 1 458 0
  87              		.cfi_startproc
  88              		@ args = 0, pretend = 0, frame = 8
  89              		@ frame_needed = 0, uses_anonymous_args = 0
  90 0000 00B5     		push	{lr}
  91              		.cfi_def_cfa_offset 4
  92              		.cfi_offset 14, -4
  93 0002 83B0     		sub	sp, sp, #12
  94              		.cfi_def_cfa_offset 16
  95              		.loc 1 458 0
  96 0004 094B     		ldr	r3, .L7
  97 0006 1B68     		ldr	r3, [r3]
  98 0008 0193     		str	r3, [sp, #4]
  99 000a 0023     		movs	r3, #0
 100 000c 0093     		str	r3, [sp]
 101              	.LBB8:
 102              	.LBB9:
 103              		.loc 2 546 0
 104 000e 009B     		ldr	r3, [sp]
 105              		.syntax unified
 106              	@ 546 "../lib/e-puck2_main-processor/ChibiOS//os/ext/CMSIS/include/core_cmFunc.h" 1
 107 0010 83F31188 		MSR basepri, r3
 108              	@ 0 "" 2
 109              		.thumb
 110              		.syntax unified
 111              	.LBE9:
 112              	.LBE8:
 113              		.loc 1 465 0
 114 0014 00BF     		nop
ARM GAS  C:\Users\PCHAUT~1\AppData\Local\Temp\ccx8xwro.s 			page 3


 115 0016 054B     		ldr	r3, .L7
 116 0018 019A     		ldr	r2, [sp, #4]
 117 001a 1B68     		ldr	r3, [r3]
 118 001c 9A42     		cmp	r2, r3
 119 001e 01D0     		beq	.L6
 120 0020 FFF7FEFF 		bl	__stack_chk_fail
 121              	.L6:
 122 0024 03B0     		add	sp, sp, #12
 123              		.cfi_def_cfa_offset 4
 124              		@ sp needed
 125 0026 5DF804FB 		ldr	pc, [sp], #4
 126              	.L8:
 127 002a 00BF     		.align	2
 128              	.L7:
 129 002c 00000000 		.word	__stack_chk_guard
 130              		.cfi_endproc
 131              	.LFE117:
 132              		.size	port_unlock, .-port_unlock
 133              		.section	.text.chSysLock,"ax",%progbits
 134              		.align	1
 135              		.p2align 4,,15
 136              		.syntax unified
 137              		.thumb
 138              		.thumb_func
 139              		.fpu fpv4-sp-d16
 140              		.type	chSysLock, %function
 141              	chSysLock:
 142              	.LFB145:
 143              		.file 3 "../lib/e-puck2_main-processor/ChibiOS//os/rt/include/chsys.h"
 144              		.loc 3 346 0
 145              		.cfi_startproc
 146              		@ args = 0, pretend = 0, frame = 8
 147              		@ frame_needed = 0, uses_anonymous_args = 0
 148 0000 00B5     		push	{lr}
 149              		.cfi_def_cfa_offset 4
 150              		.cfi_offset 14, -4
 151 0002 83B0     		sub	sp, sp, #12
 152              		.cfi_def_cfa_offset 16
 153              		.loc 3 346 0
 154 0004 094B     		ldr	r3, .L11
 155 0006 1B68     		ldr	r3, [r3]
 156 0008 0193     		str	r3, [sp, #4]
 157              		.loc 3 348 0
 158 000a FFF7FEFF 		bl	port_lock
 159              		.loc 3 349 0
 160 000e FFF7FEFF 		bl	_stats_start_measure_crit_thd
 161              		.loc 3 350 0
 162 0012 FFF7FEFF 		bl	_dbg_check_lock
 163              		.loc 3 351 0
 164 0016 00BF     		nop
 165 0018 044B     		ldr	r3, .L11
 166 001a 019A     		ldr	r2, [sp, #4]
 167 001c 1B68     		ldr	r3, [r3]
 168 001e 9A42     		cmp	r2, r3
 169 0020 01D0     		beq	.L10
 170 0022 FFF7FEFF 		bl	__stack_chk_fail
 171              	.L10:
ARM GAS  C:\Users\PCHAUT~1\AppData\Local\Temp\ccx8xwro.s 			page 4


 172 0026 03B0     		add	sp, sp, #12
 173              		.cfi_def_cfa_offset 4
 174              		@ sp needed
 175 0028 5DF804FB 		ldr	pc, [sp], #4
 176              	.L12:
 177              		.align	2
 178              	.L11:
 179 002c 00000000 		.word	__stack_chk_guard
 180              		.cfi_endproc
 181              	.LFE145:
 182              		.size	chSysLock, .-chSysLock
 183              		.section	.text.chSysUnlock,"ax",%progbits
 184              		.align	1
 185              		.p2align 4,,15
 186              		.syntax unified
 187              		.thumb
 188              		.thumb_func
 189              		.fpu fpv4-sp-d16
 190              		.type	chSysUnlock, %function
 191              	chSysUnlock:
 192              	.LFB146:
 193              		.loc 3 358 0
 194              		.cfi_startproc
 195              		@ args = 0, pretend = 0, frame = 8
 196              		@ frame_needed = 0, uses_anonymous_args = 0
 197 0000 00B5     		push	{lr}
 198              		.cfi_def_cfa_offset 4
 199              		.cfi_offset 14, -4
 200 0002 83B0     		sub	sp, sp, #12
 201              		.cfi_def_cfa_offset 16
 202              		.loc 3 358 0
 203 0004 114B     		ldr	r3, .L16
 204 0006 1B68     		ldr	r3, [r3]
 205 0008 0193     		str	r3, [sp, #4]
 206              		.loc 3 360 0
 207 000a FFF7FEFF 		bl	_dbg_check_unlock
 208              		.loc 3 361 0
 209 000e FFF7FEFF 		bl	_stats_stop_measure_crit_thd
 210              		.loc 3 367 0
 211 0012 0F4B     		ldr	r3, .L16+4
 212 0014 1B68     		ldr	r3, [r3]
 213 0016 0E4A     		ldr	r2, .L16+4
 214 0018 9342     		cmp	r3, r2
 215 001a 0AD0     		beq	.L14
 216              		.loc 3 367 0 is_stmt 0 discriminator 2
 217 001c 0C4B     		ldr	r3, .L16+4
 218 001e 9B69     		ldr	r3, [r3, #24]
 219 0020 9A68     		ldr	r2, [r3, #8]
 220 0022 0B4B     		ldr	r3, .L16+4
 221 0024 1B68     		ldr	r3, [r3]
 222 0026 9B68     		ldr	r3, [r3, #8]
 223 0028 9A42     		cmp	r2, r3
 224 002a 02D2     		bcs	.L14
 225              		.loc 3 367 0 discriminator 3
 226 002c 0948     		ldr	r0, .L16+8
 227 002e FFF7FEFF 		bl	chSysHalt
 228              	.L14:
ARM GAS  C:\Users\PCHAUT~1\AppData\Local\Temp\ccx8xwro.s 			page 5


 229              		.loc 3 371 0 is_stmt 1
 230 0032 FFF7FEFF 		bl	port_unlock
 231              		.loc 3 372 0
 232 0036 00BF     		nop
 233 0038 044B     		ldr	r3, .L16
 234 003a 019A     		ldr	r2, [sp, #4]
 235 003c 1B68     		ldr	r3, [r3]
 236 003e 9A42     		cmp	r2, r3
 237 0040 01D0     		beq	.L15
 238 0042 FFF7FEFF 		bl	__stack_chk_fail
 239              	.L15:
 240 0046 03B0     		add	sp, sp, #12
 241              		.cfi_def_cfa_offset 4
 242              		@ sp needed
 243 0048 5DF804FB 		ldr	pc, [sp], #4
 244              	.L17:
 245              		.align	2
 246              	.L16:
 247 004c 00000000 		.word	__stack_chk_guard
 248 0050 00000000 		.word	ch
 249 0054 00000000 		.word	__func__.7153
 250              		.cfi_endproc
 251              	.LFE146:
 252              		.size	chSysUnlock, .-chSysUnlock
 253              		.section	.text.osalSysLock,"ax",%progbits
 254              		.align	1
 255              		.p2align 4,,15
 256              		.syntax unified
 257              		.thumb
 258              		.thumb_func
 259              		.fpu fpv4-sp-d16
 260              		.type	osalSysLock, %function
 261              	osalSysLock:
 262              	.LFB223:
 263              		.file 4 "../lib/e-puck2_main-processor/ChibiOS//os/hal/osal/rt/osal.h"
 264              		.loc 4 445 0
 265              		.cfi_startproc
 266              		@ args = 0, pretend = 0, frame = 8
 267              		@ frame_needed = 0, uses_anonymous_args = 0
 268 0000 00B5     		push	{lr}
 269              		.cfi_def_cfa_offset 4
 270              		.cfi_offset 14, -4
 271 0002 83B0     		sub	sp, sp, #12
 272              		.cfi_def_cfa_offset 16
 273              		.loc 4 445 0
 274 0004 074B     		ldr	r3, .L20
 275 0006 1B68     		ldr	r3, [r3]
 276 0008 0193     		str	r3, [sp, #4]
 277              		.loc 4 447 0
 278 000a FFF7FEFF 		bl	chSysLock
 279              		.loc 4 448 0
 280 000e 00BF     		nop
 281 0010 044B     		ldr	r3, .L20
 282 0012 019A     		ldr	r2, [sp, #4]
 283 0014 1B68     		ldr	r3, [r3]
 284 0016 9A42     		cmp	r2, r3
 285 0018 01D0     		beq	.L19
ARM GAS  C:\Users\PCHAUT~1\AppData\Local\Temp\ccx8xwro.s 			page 6


 286 001a FFF7FEFF 		bl	__stack_chk_fail
 287              	.L19:
 288 001e 03B0     		add	sp, sp, #12
 289              		.cfi_def_cfa_offset 4
 290              		@ sp needed
 291 0020 5DF804FB 		ldr	pc, [sp], #4
 292              	.L21:
 293              		.align	2
 294              	.L20:
 295 0024 00000000 		.word	__stack_chk_guard
 296              		.cfi_endproc
 297              	.LFE223:
 298              		.size	osalSysLock, .-osalSysLock
 299              		.section	.text.osalSysUnlock,"ax",%progbits
 300              		.align	1
 301              		.p2align 4,,15
 302              		.syntax unified
 303              		.thumb
 304              		.thumb_func
 305              		.fpu fpv4-sp-d16
 306              		.type	osalSysUnlock, %function
 307              	osalSysUnlock:
 308              	.LFB224:
 309              		.loc 4 456 0
 310              		.cfi_startproc
 311              		@ args = 0, pretend = 0, frame = 8
 312              		@ frame_needed = 0, uses_anonymous_args = 0
 313 0000 00B5     		push	{lr}
 314              		.cfi_def_cfa_offset 4
 315              		.cfi_offset 14, -4
 316 0002 83B0     		sub	sp, sp, #12
 317              		.cfi_def_cfa_offset 16
 318              		.loc 4 456 0
 319 0004 074B     		ldr	r3, .L24
 320 0006 1B68     		ldr	r3, [r3]
 321 0008 0193     		str	r3, [sp, #4]
 322              		.loc 4 458 0
 323 000a FFF7FEFF 		bl	chSysUnlock
 324              		.loc 4 459 0
 325 000e 00BF     		nop
 326 0010 044B     		ldr	r3, .L24
 327 0012 019A     		ldr	r2, [sp, #4]
 328 0014 1B68     		ldr	r3, [r3]
 329 0016 9A42     		cmp	r2, r3
 330 0018 01D0     		beq	.L23
 331 001a FFF7FEFF 		bl	__stack_chk_fail
 332              	.L23:
 333 001e 03B0     		add	sp, sp, #12
 334              		.cfi_def_cfa_offset 4
 335              		@ sp needed
 336 0020 5DF804FB 		ldr	pc, [sp], #4
 337              	.L25:
 338              		.align	2
 339              	.L24:
 340 0024 00000000 		.word	__stack_chk_guard
 341              		.cfi_endproc
 342              	.LFE224:
ARM GAS  C:\Users\PCHAUT~1\AppData\Local\Temp\ccx8xwro.s 			page 7


 343              		.size	osalSysUnlock, .-osalSysUnlock
 344              		.section	.text.osalMutexObjectInit,"ax",%progbits
 345              		.align	1
 346              		.p2align 4,,15
 347              		.syntax unified
 348              		.thumb
 349              		.thumb_func
 350              		.fpu fpv4-sp-d16
 351              		.type	osalMutexObjectInit, %function
 352              	osalMutexObjectInit:
 353              	.LFB247:
 354              		.loc 4 838 0
 355              		.cfi_startproc
 356              		@ args = 0, pretend = 0, frame = 16
 357              		@ frame_needed = 0, uses_anonymous_args = 0
 358 0000 00B5     		push	{lr}
 359              		.cfi_def_cfa_offset 4
 360              		.cfi_offset 14, -4
 361 0002 85B0     		sub	sp, sp, #20
 362              		.cfi_def_cfa_offset 24
 363 0004 0190     		str	r0, [sp, #4]
 364              		.loc 4 838 0
 365 0006 084B     		ldr	r3, .L28
 366 0008 1B68     		ldr	r3, [r3]
 367 000a 0393     		str	r3, [sp, #12]
 368              		.loc 4 841 0
 369 000c 0198     		ldr	r0, [sp, #4]
 370 000e FFF7FEFF 		bl	chMtxObjectInit
 371              		.loc 4 847 0
 372 0012 00BF     		nop
 373 0014 044B     		ldr	r3, .L28
 374 0016 039A     		ldr	r2, [sp, #12]
 375 0018 1B68     		ldr	r3, [r3]
 376 001a 9A42     		cmp	r2, r3
 377 001c 01D0     		beq	.L27
 378 001e FFF7FEFF 		bl	__stack_chk_fail
 379              	.L27:
 380 0022 05B0     		add	sp, sp, #20
 381              		.cfi_def_cfa_offset 4
 382              		@ sp needed
 383 0024 5DF804FB 		ldr	pc, [sp], #4
 384              	.L29:
 385              		.align	2
 386              	.L28:
 387 0028 00000000 		.word	__stack_chk_guard
 388              		.cfi_endproc
 389              	.LFE247:
 390              		.size	osalMutexObjectInit, .-osalMutexObjectInit
 391              		.section	.text.osalMutexLock,"ax",%progbits
 392              		.align	1
 393              		.p2align 4,,15
 394              		.syntax unified
 395              		.thumb
 396              		.thumb_func
 397              		.fpu fpv4-sp-d16
 398              		.type	osalMutexLock, %function
 399              	osalMutexLock:
ARM GAS  C:\Users\PCHAUT~1\AppData\Local\Temp\ccx8xwro.s 			page 8


 400              	.LFB248:
 401              		.loc 4 858 0
 402              		.cfi_startproc
 403              		@ args = 0, pretend = 0, frame = 16
 404              		@ frame_needed = 0, uses_anonymous_args = 0
 405 0000 00B5     		push	{lr}
 406              		.cfi_def_cfa_offset 4
 407              		.cfi_offset 14, -4
 408 0002 85B0     		sub	sp, sp, #20
 409              		.cfi_def_cfa_offset 24
 410 0004 0190     		str	r0, [sp, #4]
 411              		.loc 4 858 0
 412 0006 084B     		ldr	r3, .L32
 413 0008 1B68     		ldr	r3, [r3]
 414 000a 0393     		str	r3, [sp, #12]
 415              		.loc 4 861 0
 416 000c 0198     		ldr	r0, [sp, #4]
 417 000e FFF7FEFF 		bl	chMtxLock
 418              		.loc 4 867 0
 419 0012 00BF     		nop
 420 0014 044B     		ldr	r3, .L32
 421 0016 039A     		ldr	r2, [sp, #12]
 422 0018 1B68     		ldr	r3, [r3]
 423 001a 9A42     		cmp	r2, r3
 424 001c 01D0     		beq	.L31
 425 001e FFF7FEFF 		bl	__stack_chk_fail
 426              	.L31:
 427 0022 05B0     		add	sp, sp, #20
 428              		.cfi_def_cfa_offset 4
 429              		@ sp needed
 430 0024 5DF804FB 		ldr	pc, [sp], #4
 431              	.L33:
 432              		.align	2
 433              	.L32:
 434 0028 00000000 		.word	__stack_chk_guard
 435              		.cfi_endproc
 436              	.LFE248:
 437              		.size	osalMutexLock, .-osalMutexLock
 438              		.section	.text.osalMutexUnlock,"ax",%progbits
 439              		.align	1
 440              		.p2align 4,,15
 441              		.syntax unified
 442              		.thumb
 443              		.thumb_func
 444              		.fpu fpv4-sp-d16
 445              		.type	osalMutexUnlock, %function
 446              	osalMutexUnlock:
 447              	.LFB249:
 448              		.loc 4 882 0
 449              		.cfi_startproc
 450              		@ args = 0, pretend = 0, frame = 16
 451              		@ frame_needed = 0, uses_anonymous_args = 0
 452 0000 00B5     		push	{lr}
 453              		.cfi_def_cfa_offset 4
 454              		.cfi_offset 14, -4
 455 0002 85B0     		sub	sp, sp, #20
 456              		.cfi_def_cfa_offset 24
ARM GAS  C:\Users\PCHAUT~1\AppData\Local\Temp\ccx8xwro.s 			page 9


 457 0004 0190     		str	r0, [sp, #4]
 458              		.loc 4 882 0
 459 0006 084B     		ldr	r3, .L36
 460 0008 1B68     		ldr	r3, [r3]
 461 000a 0393     		str	r3, [sp, #12]
 462              		.loc 4 885 0
 463 000c 0198     		ldr	r0, [sp, #4]
 464 000e FFF7FEFF 		bl	chMtxUnlock
 465              		.loc 4 891 0
 466 0012 00BF     		nop
 467 0014 044B     		ldr	r3, .L36
 468 0016 039A     		ldr	r2, [sp, #12]
 469 0018 1B68     		ldr	r3, [r3]
 470 001a 9A42     		cmp	r2, r3
 471 001c 01D0     		beq	.L35
 472 001e FFF7FEFF 		bl	__stack_chk_fail
 473              	.L35:
 474 0022 05B0     		add	sp, sp, #20
 475              		.cfi_def_cfa_offset 4
 476              		@ sp needed
 477 0024 5DF804FB 		ldr	pc, [sp], #4
 478              	.L37:
 479              		.align	2
 480              	.L36:
 481 0028 00000000 		.word	__stack_chk_guard
 482              		.cfi_endproc
 483              	.LFE249:
 484              		.size	osalMutexUnlock, .-osalMutexUnlock
 485              		.section	.text.i2cInit,"ax",%progbits
 486              		.align	1
 487              		.p2align 4,,15
 488              		.global	i2cInit
 489              		.syntax unified
 490              		.thumb
 491              		.thumb_func
 492              		.fpu fpv4-sp-d16
 493              		.type	i2cInit, %function
 494              	i2cInit:
 495              	.LFB256:
 496              		.file 5 "../lib/e-puck2_main-processor/ChibiOS//os/hal/src/i2c.c"
 497              		.loc 5 59 0
 498              		.cfi_startproc
 499              		@ args = 0, pretend = 0, frame = 8
 500              		@ frame_needed = 0, uses_anonymous_args = 0
 501 0000 00B5     		push	{lr}
 502              		.cfi_def_cfa_offset 4
 503              		.cfi_offset 14, -4
 504 0002 83B0     		sub	sp, sp, #12
 505              		.cfi_def_cfa_offset 16
 506              		.loc 5 59 0
 507 0004 074B     		ldr	r3, .L40
 508 0006 1B68     		ldr	r3, [r3]
 509 0008 0193     		str	r3, [sp, #4]
 510              		.loc 5 61 0
 511 000a FFF7FEFF 		bl	i2c_lld_init
 512              		.loc 5 62 0
 513 000e 00BF     		nop
ARM GAS  C:\Users\PCHAUT~1\AppData\Local\Temp\ccx8xwro.s 			page 10


 514 0010 044B     		ldr	r3, .L40
 515 0012 019A     		ldr	r2, [sp, #4]
 516 0014 1B68     		ldr	r3, [r3]
 517 0016 9A42     		cmp	r2, r3
 518 0018 01D0     		beq	.L39
 519 001a FFF7FEFF 		bl	__stack_chk_fail
 520              	.L39:
 521 001e 03B0     		add	sp, sp, #12
 522              		.cfi_def_cfa_offset 4
 523              		@ sp needed
 524 0020 5DF804FB 		ldr	pc, [sp], #4
 525              	.L41:
 526              		.align	2
 527              	.L40:
 528 0024 00000000 		.word	__stack_chk_guard
 529              		.cfi_endproc
 530              	.LFE256:
 531              		.size	i2cInit, .-i2cInit
 532              		.section	.text.i2cObjectInit,"ax",%progbits
 533              		.align	1
 534              		.p2align 4,,15
 535              		.global	i2cObjectInit
 536              		.syntax unified
 537              		.thumb
 538              		.thumb_func
 539              		.fpu fpv4-sp-d16
 540              		.type	i2cObjectInit, %function
 541              	i2cObjectInit:
 542              	.LFB257:
 543              		.loc 5 71 0
 544              		.cfi_startproc
 545              		@ args = 0, pretend = 0, frame = 16
 546              		@ frame_needed = 0, uses_anonymous_args = 0
 547 0000 00B5     		push	{lr}
 548              		.cfi_def_cfa_offset 4
 549              		.cfi_offset 14, -4
 550 0002 85B0     		sub	sp, sp, #20
 551              		.cfi_def_cfa_offset 24
 552 0004 0190     		str	r0, [sp, #4]
 553              		.loc 5 71 0
 554 0006 0C4B     		ldr	r3, .L44
 555 0008 1B68     		ldr	r3, [r3]
 556 000a 0393     		str	r3, [sp, #12]
 557              		.loc 5 73 0
 558 000c 019B     		ldr	r3, [sp, #4]
 559 000e 0122     		movs	r2, #1
 560 0010 1A70     		strb	r2, [r3]
 561              		.loc 5 74 0
 562 0012 019B     		ldr	r3, [sp, #4]
 563 0014 0022     		movs	r2, #0
 564 0016 5A60     		str	r2, [r3, #4]
 565              		.loc 5 77 0
 566 0018 019B     		ldr	r3, [sp, #4]
 567 001a 0C33     		adds	r3, r3, #12
 568 001c 1846     		mov	r0, r3
 569 001e FFF7FEFF 		bl	osalMutexObjectInit
 570              		.loc 5 83 0
ARM GAS  C:\Users\PCHAUT~1\AppData\Local\Temp\ccx8xwro.s 			page 11


 571 0022 00BF     		nop
 572 0024 044B     		ldr	r3, .L44
 573 0026 039A     		ldr	r2, [sp, #12]
 574 0028 1B68     		ldr	r3, [r3]
 575 002a 9A42     		cmp	r2, r3
 576 002c 01D0     		beq	.L43
 577 002e FFF7FEFF 		bl	__stack_chk_fail
 578              	.L43:
 579 0032 05B0     		add	sp, sp, #20
 580              		.cfi_def_cfa_offset 4
 581              		@ sp needed
 582 0034 5DF804FB 		ldr	pc, [sp], #4
 583              	.L45:
 584              		.align	2
 585              	.L44:
 586 0038 00000000 		.word	__stack_chk_guard
 587              		.cfi_endproc
 588              	.LFE257:
 589              		.size	i2cObjectInit, .-i2cObjectInit
 590              		.section	.text.i2cStart,"ax",%progbits
 591              		.align	1
 592              		.p2align 4,,15
 593              		.global	i2cStart
 594              		.syntax unified
 595              		.thumb
 596              		.thumb_func
 597              		.fpu fpv4-sp-d16
 598              		.type	i2cStart, %function
 599              	i2cStart:
 600              	.LFB258:
 601              		.loc 5 93 0
 602              		.cfi_startproc
 603              		@ args = 0, pretend = 0, frame = 16
 604              		@ frame_needed = 0, uses_anonymous_args = 0
 605 0000 00B5     		push	{lr}
 606              		.cfi_def_cfa_offset 4
 607              		.cfi_offset 14, -4
 608 0002 85B0     		sub	sp, sp, #20
 609              		.cfi_def_cfa_offset 24
 610 0004 0190     		str	r0, [sp, #4]
 611 0006 0091     		str	r1, [sp]
 612              		.loc 5 93 0
 613 0008 194B     		ldr	r3, .L52
 614 000a 1B68     		ldr	r3, [r3]
 615 000c 0393     		str	r3, [sp, #12]
 616              		.loc 5 95 0
 617 000e 019B     		ldr	r3, [sp, #4]
 618 0010 002B     		cmp	r3, #0
 619 0012 02D0     		beq	.L47
 620              		.loc 5 95 0 is_stmt 0 discriminator 3
 621 0014 009B     		ldr	r3, [sp]
 622 0016 002B     		cmp	r3, #0
 623 0018 02D1     		bne	.L51
 624              	.L47:
 625              		.loc 5 95 0 discriminator 4
 626 001a 1648     		ldr	r0, .L52+4
 627 001c FFF7FEFF 		bl	chSysHalt
ARM GAS  C:\Users\PCHAUT~1\AppData\Local\Temp\ccx8xwro.s 			page 12


 628              	.L51:
 629              		.loc 5 96 0 is_stmt 1 discriminator 1
 630 0020 019B     		ldr	r3, [sp, #4]
 631 0022 1B78     		ldrb	r3, [r3]	@ zero_extendqisi2
 632 0024 012B     		cmp	r3, #1
 633 0026 0AD0     		beq	.L49
 634              		.loc 5 96 0 is_stmt 0 discriminator 2
 635 0028 019B     		ldr	r3, [sp, #4]
 636 002a 1B78     		ldrb	r3, [r3]	@ zero_extendqisi2
 637 002c 022B     		cmp	r3, #2
 638 002e 06D0     		beq	.L49
 639              		.loc 5 96 0 discriminator 3
 640 0030 019B     		ldr	r3, [sp, #4]
 641 0032 1B78     		ldrb	r3, [r3]	@ zero_extendqisi2
 642 0034 052B     		cmp	r3, #5
 643 0036 02D0     		beq	.L49
 644              		.loc 5 96 0 discriminator 4
 645 0038 0E48     		ldr	r0, .L52+4
 646 003a FFF7FEFF 		bl	chSysHalt
 647              	.L49:
 648              		.loc 5 99 0 is_stmt 1
 649 003e FFF7FEFF 		bl	osalSysLock
 650              		.loc 5 100 0
 651 0042 019B     		ldr	r3, [sp, #4]
 652 0044 009A     		ldr	r2, [sp]
 653 0046 5A60     		str	r2, [r3, #4]
 654              		.loc 5 101 0
 655 0048 0198     		ldr	r0, [sp, #4]
 656 004a FFF7FEFF 		bl	i2c_lld_start
 657              		.loc 5 102 0
 658 004e 019B     		ldr	r3, [sp, #4]
 659 0050 0222     		movs	r2, #2
 660 0052 1A70     		strb	r2, [r3]
 661              		.loc 5 103 0
 662 0054 FFF7FEFF 		bl	osalSysUnlock
 663              		.loc 5 104 0
 664 0058 00BF     		nop
 665 005a 054B     		ldr	r3, .L52
 666 005c 039A     		ldr	r2, [sp, #12]
 667 005e 1B68     		ldr	r3, [r3]
 668 0060 9A42     		cmp	r2, r3
 669 0062 01D0     		beq	.L50
 670 0064 FFF7FEFF 		bl	__stack_chk_fail
 671              	.L50:
 672 0068 05B0     		add	sp, sp, #20
 673              		.cfi_def_cfa_offset 4
 674              		@ sp needed
 675 006a 5DF804FB 		ldr	pc, [sp], #4
 676              	.L53:
 677 006e 00BF     		.align	2
 678              	.L52:
 679 0070 00000000 		.word	__stack_chk_guard
 680 0074 00000000 		.word	__func__.9848
 681              		.cfi_endproc
 682              	.LFE258:
 683              		.size	i2cStart, .-i2cStart
 684              		.section	.text.i2cStop,"ax",%progbits
ARM GAS  C:\Users\PCHAUT~1\AppData\Local\Temp\ccx8xwro.s 			page 13


 685              		.align	1
 686              		.p2align 4,,15
 687              		.global	i2cStop
 688              		.syntax unified
 689              		.thumb
 690              		.thumb_func
 691              		.fpu fpv4-sp-d16
 692              		.type	i2cStop, %function
 693              	i2cStop:
 694              	.LFB259:
 695              		.loc 5 113 0
 696              		.cfi_startproc
 697              		@ args = 0, pretend = 0, frame = 16
 698              		@ frame_needed = 0, uses_anonymous_args = 0
 699 0000 00B5     		push	{lr}
 700              		.cfi_def_cfa_offset 4
 701              		.cfi_offset 14, -4
 702 0002 85B0     		sub	sp, sp, #20
 703              		.cfi_def_cfa_offset 24
 704 0004 0190     		str	r0, [sp, #4]
 705              		.loc 5 113 0
 706 0006 164B     		ldr	r3, .L59
 707 0008 1B68     		ldr	r3, [r3]
 708 000a 0393     		str	r3, [sp, #12]
 709              		.loc 5 115 0
 710 000c 019B     		ldr	r3, [sp, #4]
 711 000e 002B     		cmp	r3, #0
 712 0010 02D1     		bne	.L58
 713              		.loc 5 115 0 is_stmt 0 discriminator 2
 714 0012 1448     		ldr	r0, .L59+4
 715 0014 FFF7FEFF 		bl	chSysHalt
 716              	.L58:
 717              		.loc 5 116 0 is_stmt 1 discriminator 1
 718 0018 019B     		ldr	r3, [sp, #4]
 719 001a 1B78     		ldrb	r3, [r3]	@ zero_extendqisi2
 720 001c 012B     		cmp	r3, #1
 721 001e 0AD0     		beq	.L56
 722              		.loc 5 116 0 is_stmt 0 discriminator 2
 723 0020 019B     		ldr	r3, [sp, #4]
 724 0022 1B78     		ldrb	r3, [r3]	@ zero_extendqisi2
 725 0024 022B     		cmp	r3, #2
 726 0026 06D0     		beq	.L56
 727              		.loc 5 116 0 discriminator 3
 728 0028 019B     		ldr	r3, [sp, #4]
 729 002a 1B78     		ldrb	r3, [r3]	@ zero_extendqisi2
 730 002c 052B     		cmp	r3, #5
 731 002e 02D0     		beq	.L56
 732              		.loc 5 116 0 discriminator 4
 733 0030 0C48     		ldr	r0, .L59+4
 734 0032 FFF7FEFF 		bl	chSysHalt
 735              	.L56:
 736              		.loc 5 119 0 is_stmt 1
 737 0036 FFF7FEFF 		bl	osalSysLock
 738              		.loc 5 120 0
 739 003a 0198     		ldr	r0, [sp, #4]
 740 003c FFF7FEFF 		bl	i2c_lld_stop
 741              		.loc 5 121 0
ARM GAS  C:\Users\PCHAUT~1\AppData\Local\Temp\ccx8xwro.s 			page 14


 742 0040 019B     		ldr	r3, [sp, #4]
 743 0042 0122     		movs	r2, #1
 744 0044 1A70     		strb	r2, [r3]
 745              		.loc 5 122 0
 746 0046 FFF7FEFF 		bl	osalSysUnlock
 747              		.loc 5 123 0
 748 004a 00BF     		nop
 749 004c 044B     		ldr	r3, .L59
 750 004e 039A     		ldr	r2, [sp, #12]
 751 0050 1B68     		ldr	r3, [r3]
 752 0052 9A42     		cmp	r2, r3
 753 0054 01D0     		beq	.L57
 754 0056 FFF7FEFF 		bl	__stack_chk_fail
 755              	.L57:
 756 005a 05B0     		add	sp, sp, #20
 757              		.cfi_def_cfa_offset 4
 758              		@ sp needed
 759 005c 5DF804FB 		ldr	pc, [sp], #4
 760              	.L60:
 761              		.align	2
 762              	.L59:
 763 0060 00000000 		.word	__stack_chk_guard
 764 0064 00000000 		.word	__func__.9852
 765              		.cfi_endproc
 766              	.LFE259:
 767              		.size	i2cStop, .-i2cStop
 768              		.section	.text.i2cGetErrors,"ax",%progbits
 769              		.align	1
 770              		.p2align 4,,15
 771              		.global	i2cGetErrors
 772              		.syntax unified
 773              		.thumb
 774              		.thumb_func
 775              		.fpu fpv4-sp-d16
 776              		.type	i2cGetErrors, %function
 777              	i2cGetErrors:
 778              	.LFB260:
 779              		.loc 5 133 0
 780              		.cfi_startproc
 781              		@ args = 0, pretend = 0, frame = 16
 782              		@ frame_needed = 0, uses_anonymous_args = 0
 783 0000 00B5     		push	{lr}
 784              		.cfi_def_cfa_offset 4
 785              		.cfi_offset 14, -4
 786 0002 85B0     		sub	sp, sp, #20
 787              		.cfi_def_cfa_offset 24
 788 0004 0190     		str	r0, [sp, #4]
 789              		.loc 5 133 0
 790 0006 0B4B     		ldr	r3, .L65
 791 0008 1B68     		ldr	r3, [r3]
 792 000a 0393     		str	r3, [sp, #12]
 793              		.loc 5 135 0
 794 000c 019B     		ldr	r3, [sp, #4]
 795 000e 002B     		cmp	r3, #0
 796 0010 02D1     		bne	.L62
 797              		.loc 5 135 0 is_stmt 0 discriminator 2
 798 0012 0948     		ldr	r0, .L65+4
ARM GAS  C:\Users\PCHAUT~1\AppData\Local\Temp\ccx8xwro.s 			page 15


 799 0014 FFF7FEFF 		bl	chSysHalt
 800              	.L62:
 801              		.loc 5 137 0 is_stmt 1
 802 0018 019B     		ldr	r3, [sp, #4]
 803 001a 9B68     		ldr	r3, [r3, #8]
 804              		.loc 5 138 0
 805 001c 1846     		mov	r0, r3
 806 001e 054B     		ldr	r3, .L65
 807 0020 039A     		ldr	r2, [sp, #12]
 808 0022 1B68     		ldr	r3, [r3]
 809 0024 9A42     		cmp	r2, r3
 810 0026 01D0     		beq	.L64
 811 0028 FFF7FEFF 		bl	__stack_chk_fail
 812              	.L64:
 813 002c 05B0     		add	sp, sp, #20
 814              		.cfi_def_cfa_offset 4
 815              		@ sp needed
 816 002e 5DF804FB 		ldr	pc, [sp], #4
 817              	.L66:
 818 0032 00BF     		.align	2
 819              	.L65:
 820 0034 00000000 		.word	__stack_chk_guard
 821 0038 00000000 		.word	__func__.9856
 822              		.cfi_endproc
 823              	.LFE260:
 824              		.size	i2cGetErrors, .-i2cGetErrors
 825              		.section	.text.i2cMasterTransmitTimeout,"ax",%progbits
 826              		.align	1
 827              		.p2align 4,,15
 828              		.global	i2cMasterTransmitTimeout
 829              		.syntax unified
 830              		.thumb
 831              		.thumb_func
 832              		.fpu fpv4-sp-d16
 833              		.type	i2cMasterTransmitTimeout, %function
 834              	i2cMasterTransmitTimeout:
 835              	.LFB261:
 836              		.loc 5 172 0
 837              		.cfi_startproc
 838              		@ args = 12, pretend = 0, frame = 40
 839              		@ frame_needed = 0, uses_anonymous_args = 0
 840 0000 00B5     		push	{lr}
 841              		.cfi_def_cfa_offset 4
 842              		.cfi_offset 14, -4
 843 0002 8FB0     		sub	sp, sp, #60
 844              		.cfi_def_cfa_offset 64
 845 0004 0B90     		str	r0, [sp, #44]
 846 0006 0992     		str	r2, [sp, #36]
 847 0008 0893     		str	r3, [sp, #32]
 848 000a 0B46     		mov	r3, r1	@ movhi
 849 000c ADF82A30 		strh	r3, [sp, #42]	@ movhi
 850 0010 109B     		ldr	r3, [sp, #64]
 851 0012 0793     		str	r3, [sp, #28]
 852 0014 119B     		ldr	r3, [sp, #68]
 853 0016 0693     		str	r3, [sp, #24]
 854 0018 129B     		ldr	r3, [sp, #72]
 855 001a 0593     		str	r3, [sp, #20]
ARM GAS  C:\Users\PCHAUT~1\AppData\Local\Temp\ccx8xwro.s 			page 16


 856              		.loc 5 172 0
 857 001c 2A4B     		ldr	r3, .L77
 858 001e 1B68     		ldr	r3, [r3]
 859 0020 0D93     		str	r3, [sp, #52]
 860              		.loc 5 175 0
 861 0022 0B9B     		ldr	r3, [sp, #44]
 862 0024 002B     		cmp	r3, #0
 863 0026 15D0     		beq	.L68
 864              		.loc 5 175 0 is_stmt 0 discriminator 3
 865 0028 BDF82A30 		ldrh	r3, [sp, #42]
 866 002c 002B     		cmp	r3, #0
 867 002e 11D0     		beq	.L68
 868              		.loc 5 175 0 discriminator 5
 869 0030 089B     		ldr	r3, [sp, #32]
 870 0032 002B     		cmp	r3, #0
 871 0034 0ED0     		beq	.L68
 872              		.loc 5 175 0 discriminator 7
 873 0036 099B     		ldr	r3, [sp, #36]
 874 0038 002B     		cmp	r3, #0
 875 003a 0BD0     		beq	.L68
 876              		.loc 5 175 0 discriminator 9
 877 003c 069B     		ldr	r3, [sp, #24]
 878 003e 002B     		cmp	r3, #0
 879 0040 05D0     		beq	.L69
 880              		.loc 5 175 0 discriminator 10
 881 0042 069B     		ldr	r3, [sp, #24]
 882 0044 002B     		cmp	r3, #0
 883 0046 05D0     		beq	.L68
 884              		.loc 5 175 0 discriminator 13
 885 0048 079B     		ldr	r3, [sp, #28]
 886 004a 002B     		cmp	r3, #0
 887 004c 02D0     		beq	.L68
 888              	.L69:
 889              		.loc 5 175 0 discriminator 15
 890 004e 059B     		ldr	r3, [sp, #20]
 891 0050 002B     		cmp	r3, #0
 892 0052 02D1     		bne	.L76
 893              	.L68:
 894              		.loc 5 175 0 discriminator 16
 895 0054 1D48     		ldr	r0, .L77+4
 896 0056 FFF7FEFF 		bl	chSysHalt
 897              	.L76:
 898              		.loc 5 180 0 is_stmt 1 discriminator 1
 899 005a 0B9B     		ldr	r3, [sp, #44]
 900 005c 1B78     		ldrb	r3, [r3]	@ zero_extendqisi2
 901 005e 022B     		cmp	r3, #2
 902 0060 02D0     		beq	.L71
 903              		.loc 5 180 0 is_stmt 0 discriminator 2
 904 0062 1A48     		ldr	r0, .L77+4
 905 0064 FFF7FEFF 		bl	chSysHalt
 906              	.L71:
 907              		.loc 5 182 0 is_stmt 1
 908 0068 FFF7FEFF 		bl	osalSysLock
 909              		.loc 5 183 0
 910 006c 0B9B     		ldr	r3, [sp, #44]
 911 006e 0022     		movs	r2, #0
 912 0070 9A60     		str	r2, [r3, #8]
ARM GAS  C:\Users\PCHAUT~1\AppData\Local\Temp\ccx8xwro.s 			page 17


 913              		.loc 5 184 0
 914 0072 0B9B     		ldr	r3, [sp, #44]
 915 0074 0322     		movs	r2, #3
 916 0076 1A70     		strb	r2, [r3]
 917              		.loc 5 185 0
 918 0078 BDF82A10 		ldrh	r1, [sp, #42]
 919 007c 059B     		ldr	r3, [sp, #20]
 920 007e 0293     		str	r3, [sp, #8]
 921 0080 069B     		ldr	r3, [sp, #24]
 922 0082 0193     		str	r3, [sp, #4]
 923 0084 079B     		ldr	r3, [sp, #28]
 924 0086 0093     		str	r3, [sp]
 925 0088 089B     		ldr	r3, [sp, #32]
 926 008a 099A     		ldr	r2, [sp, #36]
 927 008c 0B98     		ldr	r0, [sp, #44]
 928 008e FFF7FEFF 		bl	i2c_lld_master_transmit_timeout
 929 0092 0C90     		str	r0, [sp, #48]
 930              		.loc 5 187 0
 931 0094 0C9B     		ldr	r3, [sp, #48]
 932 0096 B3F1FF3F 		cmp	r3, #-1
 933 009a 03D1     		bne	.L72
 934              		.loc 5 188 0
 935 009c 0B9B     		ldr	r3, [sp, #44]
 936 009e 0522     		movs	r2, #5
 937 00a0 1A70     		strb	r2, [r3]
 938 00a2 02E0     		b	.L73
 939              	.L72:
 940              		.loc 5 191 0
 941 00a4 0B9B     		ldr	r3, [sp, #44]
 942 00a6 0222     		movs	r2, #2
 943 00a8 1A70     		strb	r2, [r3]
 944              	.L73:
 945              		.loc 5 193 0
 946 00aa FFF7FEFF 		bl	osalSysUnlock
 947              		.loc 5 194 0
 948 00ae 0C9B     		ldr	r3, [sp, #48]
 949              		.loc 5 195 0
 950 00b0 1846     		mov	r0, r3
 951 00b2 054B     		ldr	r3, .L77
 952 00b4 0D9A     		ldr	r2, [sp, #52]
 953 00b6 1B68     		ldr	r3, [r3]
 954 00b8 9A42     		cmp	r2, r3
 955 00ba 01D0     		beq	.L75
 956 00bc FFF7FEFF 		bl	__stack_chk_fail
 957              	.L75:
 958 00c0 0FB0     		add	sp, sp, #60
 959              		.cfi_def_cfa_offset 4
 960              		@ sp needed
 961 00c2 5DF804FB 		ldr	pc, [sp], #4
 962              	.L78:
 963 00c6 00BF     		.align	2
 964              	.L77:
 965 00c8 00000000 		.word	__stack_chk_guard
 966 00cc 00000000 		.word	__func__.9867
 967              		.cfi_endproc
 968              	.LFE261:
 969              		.size	i2cMasterTransmitTimeout, .-i2cMasterTransmitTimeout
ARM GAS  C:\Users\PCHAUT~1\AppData\Local\Temp\ccx8xwro.s 			page 18


 970              		.section	.text.i2cMasterReceiveTimeout,"ax",%progbits
 971              		.align	1
 972              		.p2align 4,,15
 973              		.global	i2cMasterReceiveTimeout
 974              		.syntax unified
 975              		.thumb
 976              		.thumb_func
 977              		.fpu fpv4-sp-d16
 978              		.type	i2cMasterReceiveTimeout, %function
 979              	i2cMasterReceiveTimeout:
 980              	.LFB262:
 981              		.loc 5 221 0
 982              		.cfi_startproc
 983              		@ args = 4, pretend = 0, frame = 32
 984              		@ frame_needed = 0, uses_anonymous_args = 0
 985 0000 00B5     		push	{lr}
 986              		.cfi_def_cfa_offset 4
 987              		.cfi_offset 14, -4
 988 0002 8BB0     		sub	sp, sp, #44
 989              		.cfi_def_cfa_offset 48
 990 0004 0790     		str	r0, [sp, #28]
 991 0006 0592     		str	r2, [sp, #20]
 992 0008 0493     		str	r3, [sp, #16]
 993 000a 0B46     		mov	r3, r1	@ movhi
 994 000c ADF81A30 		strh	r3, [sp, #26]	@ movhi
 995 0010 0C9B     		ldr	r3, [sp, #48]
 996 0012 0393     		str	r3, [sp, #12]
 997              		.loc 5 221 0
 998 0014 234B     		ldr	r3, .L88
 999 0016 1B68     		ldr	r3, [r3]
 1000 0018 0993     		str	r3, [sp, #36]
 1001              		.loc 5 225 0
 1002 001a 079B     		ldr	r3, [sp, #28]
 1003 001c 002B     		cmp	r3, #0
 1004 001e 0CD0     		beq	.L80
 1005              		.loc 5 225 0 is_stmt 0 discriminator 3
 1006 0020 BDF81A30 		ldrh	r3, [sp, #26]
 1007 0024 002B     		cmp	r3, #0
 1008 0026 08D0     		beq	.L80
 1009              		.loc 5 225 0 discriminator 5
 1010 0028 049B     		ldr	r3, [sp, #16]
 1011 002a 002B     		cmp	r3, #0
 1012 002c 05D0     		beq	.L80
 1013              		.loc 5 225 0 discriminator 7
 1014 002e 059B     		ldr	r3, [sp, #20]
 1015 0030 002B     		cmp	r3, #0
 1016 0032 02D0     		beq	.L80
 1017              		.loc 5 225 0 discriminator 9
 1018 0034 039B     		ldr	r3, [sp, #12]
 1019 0036 002B     		cmp	r3, #0
 1020 0038 02D1     		bne	.L87
 1021              	.L80:
 1022              		.loc 5 225 0 discriminator 10
 1023 003a 1B48     		ldr	r0, .L88+4
 1024 003c FFF7FEFF 		bl	chSysHalt
 1025              	.L87:
 1026              		.loc 5 229 0 is_stmt 1 discriminator 1
ARM GAS  C:\Users\PCHAUT~1\AppData\Local\Temp\ccx8xwro.s 			page 19


 1027 0040 079B     		ldr	r3, [sp, #28]
 1028 0042 1B78     		ldrb	r3, [r3]	@ zero_extendqisi2
 1029 0044 022B     		cmp	r3, #2
 1030 0046 02D0     		beq	.L82
 1031              		.loc 5 229 0 is_stmt 0 discriminator 2
 1032 0048 1748     		ldr	r0, .L88+4
 1033 004a FFF7FEFF 		bl	chSysHalt
 1034              	.L82:
 1035              		.loc 5 231 0 is_stmt 1
 1036 004e FFF7FEFF 		bl	osalSysLock
 1037              		.loc 5 232 0
 1038 0052 079B     		ldr	r3, [sp, #28]
 1039 0054 0022     		movs	r2, #0
 1040 0056 9A60     		str	r2, [r3, #8]
 1041              		.loc 5 233 0
 1042 0058 079B     		ldr	r3, [sp, #28]
 1043 005a 0422     		movs	r2, #4
 1044 005c 1A70     		strb	r2, [r3]
 1045              		.loc 5 234 0
 1046 005e BDF81A10 		ldrh	r1, [sp, #26]
 1047 0062 039B     		ldr	r3, [sp, #12]
 1048 0064 0093     		str	r3, [sp]
 1049 0066 049B     		ldr	r3, [sp, #16]
 1050 0068 059A     		ldr	r2, [sp, #20]
 1051 006a 0798     		ldr	r0, [sp, #28]
 1052 006c FFF7FEFF 		bl	i2c_lld_master_receive_timeout
 1053 0070 0890     		str	r0, [sp, #32]
 1054              		.loc 5 235 0
 1055 0072 089B     		ldr	r3, [sp, #32]
 1056 0074 B3F1FF3F 		cmp	r3, #-1
 1057 0078 03D1     		bne	.L83
 1058              		.loc 5 236 0
 1059 007a 079B     		ldr	r3, [sp, #28]
 1060 007c 0522     		movs	r2, #5
 1061 007e 1A70     		strb	r2, [r3]
 1062 0080 02E0     		b	.L84
 1063              	.L83:
 1064              		.loc 5 239 0
 1065 0082 079B     		ldr	r3, [sp, #28]
 1066 0084 0222     		movs	r2, #2
 1067 0086 1A70     		strb	r2, [r3]
 1068              	.L84:
 1069              		.loc 5 241 0
 1070 0088 FFF7FEFF 		bl	osalSysUnlock
 1071              		.loc 5 242 0
 1072 008c 089B     		ldr	r3, [sp, #32]
 1073              		.loc 5 243 0
 1074 008e 1846     		mov	r0, r3
 1075 0090 044B     		ldr	r3, .L88
 1076 0092 099A     		ldr	r2, [sp, #36]
 1077 0094 1B68     		ldr	r3, [r3]
 1078 0096 9A42     		cmp	r2, r3
 1079 0098 01D0     		beq	.L86
 1080 009a FFF7FEFF 		bl	__stack_chk_fail
 1081              	.L86:
 1082 009e 0BB0     		add	sp, sp, #44
 1083              		.cfi_def_cfa_offset 4
ARM GAS  C:\Users\PCHAUT~1\AppData\Local\Temp\ccx8xwro.s 			page 20


 1084              		@ sp needed
 1085 00a0 5DF804FB 		ldr	pc, [sp], #4
 1086              	.L89:
 1087              		.align	2
 1088              	.L88:
 1089 00a4 00000000 		.word	__stack_chk_guard
 1090 00a8 00000000 		.word	__func__.9876
 1091              		.cfi_endproc
 1092              	.LFE262:
 1093              		.size	i2cMasterReceiveTimeout, .-i2cMasterReceiveTimeout
 1094              		.section	.text.i2cAcquireBus,"ax",%progbits
 1095              		.align	1
 1096              		.p2align 4,,15
 1097              		.global	i2cAcquireBus
 1098              		.syntax unified
 1099              		.thumb
 1100              		.thumb_func
 1101              		.fpu fpv4-sp-d16
 1102              		.type	i2cAcquireBus, %function
 1103              	i2cAcquireBus:
 1104              	.LFB263:
 1105              		.loc 5 257 0
 1106              		.cfi_startproc
 1107              		@ args = 0, pretend = 0, frame = 16
 1108              		@ frame_needed = 0, uses_anonymous_args = 0
 1109 0000 00B5     		push	{lr}
 1110              		.cfi_def_cfa_offset 4
 1111              		.cfi_offset 14, -4
 1112 0002 85B0     		sub	sp, sp, #20
 1113              		.cfi_def_cfa_offset 24
 1114 0004 0190     		str	r0, [sp, #4]
 1115              		.loc 5 257 0
 1116 0006 0C4B     		ldr	r3, .L93
 1117 0008 1B68     		ldr	r3, [r3]
 1118 000a 0393     		str	r3, [sp, #12]
 1119              		.loc 5 259 0
 1120 000c 019B     		ldr	r3, [sp, #4]
 1121 000e 002B     		cmp	r3, #0
 1122 0010 02D1     		bne	.L91
 1123              		.loc 5 259 0 is_stmt 0 discriminator 2
 1124 0012 0A48     		ldr	r0, .L93+4
 1125 0014 FFF7FEFF 		bl	chSysHalt
 1126              	.L91:
 1127              		.loc 5 261 0 is_stmt 1
 1128 0018 019B     		ldr	r3, [sp, #4]
 1129 001a 0C33     		adds	r3, r3, #12
 1130 001c 1846     		mov	r0, r3
 1131 001e FFF7FEFF 		bl	osalMutexLock
 1132              		.loc 5 262 0
 1133 0022 00BF     		nop
 1134 0024 044B     		ldr	r3, .L93
 1135 0026 039A     		ldr	r2, [sp, #12]
 1136 0028 1B68     		ldr	r3, [r3]
 1137 002a 9A42     		cmp	r2, r3
 1138 002c 01D0     		beq	.L92
 1139 002e FFF7FEFF 		bl	__stack_chk_fail
 1140              	.L92:
ARM GAS  C:\Users\PCHAUT~1\AppData\Local\Temp\ccx8xwro.s 			page 21


 1141 0032 05B0     		add	sp, sp, #20
 1142              		.cfi_def_cfa_offset 4
 1143              		@ sp needed
 1144 0034 5DF804FB 		ldr	pc, [sp], #4
 1145              	.L94:
 1146              		.align	2
 1147              	.L93:
 1148 0038 00000000 		.word	__stack_chk_guard
 1149 003c 00000000 		.word	__func__.9880
 1150              		.cfi_endproc
 1151              	.LFE263:
 1152              		.size	i2cAcquireBus, .-i2cAcquireBus
 1153              		.section	.text.i2cReleaseBus,"ax",%progbits
 1154              		.align	1
 1155              		.p2align 4,,15
 1156              		.global	i2cReleaseBus
 1157              		.syntax unified
 1158              		.thumb
 1159              		.thumb_func
 1160              		.fpu fpv4-sp-d16
 1161              		.type	i2cReleaseBus, %function
 1162              	i2cReleaseBus:
 1163              	.LFB264:
 1164              		.loc 5 273 0
 1165              		.cfi_startproc
 1166              		@ args = 0, pretend = 0, frame = 16
 1167              		@ frame_needed = 0, uses_anonymous_args = 0
 1168 0000 00B5     		push	{lr}
 1169              		.cfi_def_cfa_offset 4
 1170              		.cfi_offset 14, -4
 1171 0002 85B0     		sub	sp, sp, #20
 1172              		.cfi_def_cfa_offset 24
 1173 0004 0190     		str	r0, [sp, #4]
 1174              		.loc 5 273 0
 1175 0006 0C4B     		ldr	r3, .L98
 1176 0008 1B68     		ldr	r3, [r3]
 1177 000a 0393     		str	r3, [sp, #12]
 1178              		.loc 5 275 0
 1179 000c 019B     		ldr	r3, [sp, #4]
 1180 000e 002B     		cmp	r3, #0
 1181 0010 02D1     		bne	.L96
 1182              		.loc 5 275 0 is_stmt 0 discriminator 2
 1183 0012 0A48     		ldr	r0, .L98+4
 1184 0014 FFF7FEFF 		bl	chSysHalt
 1185              	.L96:
 1186              		.loc 5 277 0 is_stmt 1
 1187 0018 019B     		ldr	r3, [sp, #4]
 1188 001a 0C33     		adds	r3, r3, #12
 1189 001c 1846     		mov	r0, r3
 1190 001e FFF7FEFF 		bl	osalMutexUnlock
 1191              		.loc 5 278 0
 1192 0022 00BF     		nop
 1193 0024 044B     		ldr	r3, .L98
 1194 0026 039A     		ldr	r2, [sp, #12]
 1195 0028 1B68     		ldr	r3, [r3]
 1196 002a 9A42     		cmp	r2, r3
 1197 002c 01D0     		beq	.L97
ARM GAS  C:\Users\PCHAUT~1\AppData\Local\Temp\ccx8xwro.s 			page 22


 1198 002e FFF7FEFF 		bl	__stack_chk_fail
 1199              	.L97:
 1200 0032 05B0     		add	sp, sp, #20
 1201              		.cfi_def_cfa_offset 4
 1202              		@ sp needed
 1203 0034 5DF804FB 		ldr	pc, [sp], #4
 1204              	.L99:
 1205              		.align	2
 1206              	.L98:
 1207 0038 00000000 		.word	__stack_chk_guard
 1208 003c 00000000 		.word	__func__.9884
 1209              		.cfi_endproc
 1210              	.LFE264:
 1211              		.size	i2cReleaseBus, .-i2cReleaseBus
 1212              		.section	.rodata.__func__.9848,"a",%progbits
 1213              		.align	2
 1214              		.type	__func__.9848, %object
 1215              		.size	__func__.9848, 9
 1216              	__func__.9848:
 1217 0000 69326353 		.ascii	"i2cStart\000"
 1217      74617274 
 1217      00
 1218              		.section	.rodata.__func__.7153,"a",%progbits
 1219              		.align	2
 1220              		.type	__func__.7153, %object
 1221              		.size	__func__.7153, 12
 1222              	__func__.7153:
 1223 0000 63685379 		.ascii	"chSysUnlock\000"
 1223      73556E6C 
 1223      6F636B00 
 1224              		.section	.rodata.__func__.9852,"a",%progbits
 1225              		.align	2
 1226              		.type	__func__.9852, %object
 1227              		.size	__func__.9852, 8
 1228              	__func__.9852:
 1229 0000 69326353 		.ascii	"i2cStop\000"
 1229      746F7000 
 1230              		.section	.rodata.__func__.9856,"a",%progbits
 1231              		.align	2
 1232              		.type	__func__.9856, %object
 1233              		.size	__func__.9856, 13
 1234              	__func__.9856:
 1235 0000 69326347 		.ascii	"i2cGetErrors\000"
 1235      65744572 
 1235      726F7273 
 1235      00
 1236              		.section	.rodata.__func__.9867,"a",%progbits
 1237              		.align	2
 1238              		.type	__func__.9867, %object
 1239              		.size	__func__.9867, 25
 1240              	__func__.9867:
 1241 0000 6932634D 		.ascii	"i2cMasterTransmitTimeout\000"
 1241      61737465 
 1241      72547261 
 1241      6E736D69 
 1241      7454696D 
 1242              		.section	.rodata.__func__.9876,"a",%progbits
ARM GAS  C:\Users\PCHAUT~1\AppData\Local\Temp\ccx8xwro.s 			page 23


 1243              		.align	2
 1244              		.type	__func__.9876, %object
 1245              		.size	__func__.9876, 24
 1246              	__func__.9876:
 1247 0000 6932634D 		.ascii	"i2cMasterReceiveTimeout\000"
 1247      61737465 
 1247      72526563 
 1247      65697665 
 1247      54696D65 
 1248              		.section	.rodata.__func__.9880,"a",%progbits
 1249              		.align	2
 1250              		.type	__func__.9880, %object
 1251              		.size	__func__.9880, 14
 1252              	__func__.9880:
 1253 0000 69326341 		.ascii	"i2cAcquireBus\000"
 1253      63717569 
 1253      72654275 
 1253      7300
 1254              		.section	.rodata.__func__.9884,"a",%progbits
 1255              		.align	2
 1256              		.type	__func__.9884, %object
 1257              		.size	__func__.9884, 14
 1258              	__func__.9884:
 1259 0000 69326352 		.ascii	"i2cReleaseBus\000"
 1259      656C6561 
 1259      73654275 
 1259      7300
 1260              		.text
 1261              	.Letext0:
 1262              		.file 6 "c:\\users\\pchautems\\documents\\robotiquetp\\eclipse_e-puck2\\tools\\gcc-arm-none-eabi-7
 1263              		.file 7 "c:\\users\\pchautems\\documents\\robotiquetp\\eclipse_e-puck2\\tools\\gcc-arm-none-eabi-7
 1264              		.file 8 "c:\\users\\pchautems\\documents\\robotiquetp\\eclipse_e-puck2\\tools\\gcc-arm-none-eabi-7
 1265              		.file 9 "../lib/e-puck2_main-processor/ChibiOS//os/rt/ports/ARMCMx/compilers/GCC/chtypes.h"
 1266              		.file 10 "../lib/e-puck2_main-processor/ChibiOS//os/rt/include/chsystypes.h"
 1267              		.file 11 "../lib/e-puck2_main-processor/ChibiOS//os/rt/include/chschd.h"
 1268              		.file 12 "../lib/e-puck2_main-processor/ChibiOS//os/ext/CMSIS/include/core_cm4.h"
 1269              		.file 13 "../lib/e-puck2_main-processor/ChibiOS//os/ext/CMSIS/ST/system_stm32f4xx.h"
 1270              		.file 14 "../lib/e-puck2_main-processor/ChibiOS//os/ext/CMSIS/ST/stm32f407xx.h"
 1271              		.file 15 "../lib/e-puck2_main-processor/ChibiOS//os/rt/ports/ARMCMx/chcore.h"
 1272              		.file 16 "../lib/e-puck2_main-processor/ChibiOS//os/rt/include/chdebug.h"
 1273              		.file 17 "../lib/e-puck2_main-processor/ChibiOS//os/rt/include/chtm.h"
 1274              		.file 18 "../lib/e-puck2_main-processor/ChibiOS//os/rt/include/chstats.h"
 1275              		.file 19 "../lib/e-puck2_main-processor/ChibiOS//os/rt/include/chsem.h"
 1276              		.file 20 "../lib/e-puck2_main-processor/ChibiOS//os/rt/include/chmtx.h"
 1277              		.file 21 "../lib/e-puck2_main-processor/ChibiOS//os/rt/include/chregistry.h"
 1278              		.file 22 "../lib/e-puck2_main-processor/ChibiOS//os/rt/include/chevents.h"
 1279              		.file 23 "../lib/e-puck2_main-processor/ChibiOS//os/rt/include/chqueues.h"
 1280              		.file 24 "../lib/e-puck2_main-processor/ChibiOS//os/hal/ports/STM32/STM32F4xx/stm32_dma.h"
 1281              		.file 25 "../lib/e-puck2_main-processor/ChibiOS//os/hal/include/hal_ioblock.h"
 1282              		.file 26 "../lib/e-puck2_main-processor/ChibiOS//os/hal/ports/STM32/LLD/GPIOv2/pal_lld.h"
 1283              		.file 27 "../lib/e-puck2_main-processor/ChibiOS//os/hal/include/adc.h"
 1284              		.file 28 "../lib/e-puck2_main-processor/ChibiOS//os/hal/ports/STM32/STM32F4xx/adc_lld.h"
 1285              		.file 29 "../lib/e-puck2_main-processor/ChibiOS//os/hal/include/can.h"
 1286              		.file 30 "../lib/e-puck2_main-processor/ChibiOS//os/hal/ports/STM32/LLD/can_lld.h"
 1287              		.file 31 "../lib/e-puck2_main-processor/ChibiOS//os/hal/include/dac.h"
 1288              		.file 32 "../lib/e-puck2_main-processor/ChibiOS//os/hal/ports/STM32/LLD/DACv1/dac_lld.h"
 1289              		.file 33 "../lib/e-puck2_main-processor/ChibiOS//os/hal/include/ext.h"
ARM GAS  C:\Users\PCHAUT~1\AppData\Local\Temp\ccx8xwro.s 			page 24


 1290              		.file 34 "../lib/e-puck2_main-processor/ChibiOS//os/hal/ports/STM32/LLD/ext_lld.h"
 1291              		.file 35 "../lib/e-puck2_main-processor/ChibiOS//os/hal/include/gpt.h"
 1292              		.file 36 "../lib/e-puck2_main-processor/ChibiOS//os/hal/ports/STM32/LLD/TIMv1/gpt_lld.h"
 1293              		.file 37 "../lib/e-puck2_main-processor/ChibiOS//os/hal/ports/STM32/LLD/TIMv1/stm32_tim.h"
 1294              		.file 38 "../lib/e-puck2_main-processor/ChibiOS//os/hal/include/i2c.h"
 1295              		.file 39 "../lib/e-puck2_main-processor/ChibiOS//os/hal/ports/STM32/LLD/I2Cv1/i2c_lld.h"
 1296              		.file 40 "../lib/e-puck2_main-processor/ChibiOS//os/hal/include/i2s.h"
 1297              		.file 41 "../lib/e-puck2_main-processor/ChibiOS//os/hal/ports/STM32/LLD/SPIv1/i2s_lld.h"
 1298              		.file 42 "../lib/e-puck2_main-processor/ChibiOS//os/hal/include/pwm.h"
 1299              		.file 43 "../lib/e-puck2_main-processor/ChibiOS//os/hal/ports/STM32/LLD/TIMv1/pwm_lld.h"
 1300              		.file 44 "../lib/e-puck2_main-processor/ChibiOS//os/hal/include/serial.h"
 1301              		.file 45 "../lib/e-puck2_main-processor/ChibiOS//os/hal/ports/STM32/LLD/USARTv1/serial_lld.h"
 1302              		.file 46 "../lib/e-puck2_main-processor/ChibiOS//os/hal/include/sdc.h"
 1303              		.file 47 "../lib/e-puck2_main-processor/ChibiOS//os/hal/ports/STM32/LLD/sdc_lld.h"
 1304              		.file 48 "../lib/e-puck2_main-processor/ChibiOS//os/hal/include/spi.h"
 1305              		.file 49 "../lib/e-puck2_main-processor/ChibiOS//os/hal/ports/STM32/LLD/SPIv1/spi_lld.h"
 1306              		.file 50 "../lib/e-puck2_main-processor/ChibiOS//os/hal/include/usb.h"
 1307              		.file 51 "../lib/e-puck2_main-processor/ChibiOS//os/hal/ports/STM32/LLD/OTGv1/usb_lld.h"
 1308              		.file 52 "../lib/e-puck2_main-processor/ChibiOS//os/hal/ports/STM32/LLD/OTGv1/stm32_otg.h"