ARM GAS  C:\Users\PCHAUT~1\AppData\Local\Temp\ccR4smAG.s 			page 1


   1              		.cpu cortex-m4
   2              		.eabi_attribute 27, 1
   3              		.eabi_attribute 28, 1
   4              		.eabi_attribute 20, 1
   5              		.eabi_attribute 21, 1
   6              		.eabi_attribute 23, 3
   7              		.eabi_attribute 24, 1
   8              		.eabi_attribute 25, 1
   9              		.eabi_attribute 26, 1
  10              		.eabi_attribute 30, 6
  11              		.eabi_attribute 34, 1
  12              		.eabi_attribute 18, 4
  13              		.file	"i2c_lld.c"
  14              		.text
  15              	.Ltext0:
  16              		.cfi_sections	.debug_frame
  17              		.section	.text.port_lock,"ax",%progbits
  18              		.align	1
  19              		.p2align 4,,15
  20              		.syntax unified
  21              		.thumb
  22              		.thumb_func
  23              		.fpu fpv4-sp-d16
  24              		.type	port_lock, %function
  25              	port_lock:
  26              	.LFB116:
  27              		.file 1 "../lib/e-puck2_main-processor/ChibiOS//os/rt/ports/ARMCMx/chcore_v7m.h"
  28              		.loc 1 444 0
  29              		.cfi_startproc
  30              		@ args = 0, pretend = 0, frame = 8
  31              		@ frame_needed = 0, uses_anonymous_args = 0
  32 0000 00B5     		push	{lr}
  33              		.cfi_def_cfa_offset 4
  34              		.cfi_offset 14, -4
  35 0002 83B0     		sub	sp, sp, #12
  36              		.cfi_def_cfa_offset 16
  37              		.loc 1 444 0
  38 0004 094B     		ldr	r3, .L3
  39 0006 1B68     		ldr	r3, [r3]
  40 0008 0193     		str	r3, [sp, #4]
  41 000a 2023     		movs	r3, #32
  42 000c 0093     		str	r3, [sp]
  43              	.LBB6:
  44              	.LBB7:
  45              		.file 2 "../lib/e-puck2_main-processor/ChibiOS//os/ext/CMSIS/include/core_cmFunc.h"
  46              		.loc 2 546 0
  47 000e 009B     		ldr	r3, [sp]
  48              		.syntax unified
  49              	@ 546 "../lib/e-puck2_main-processor/ChibiOS//os/ext/CMSIS/include/core_cmFunc.h" 1
  50 0010 83F31188 		MSR basepri, r3
  51              	@ 0 "" 2
  52              		.thumb
  53              		.syntax unified
  54              	.LBE7:
  55              	.LBE6:
  56              		.loc 1 451 0
  57 0014 00BF     		nop
ARM GAS  C:\Users\PCHAUT~1\AppData\Local\Temp\ccR4smAG.s 			page 2


  58 0016 054B     		ldr	r3, .L3
  59 0018 019A     		ldr	r2, [sp, #4]
  60 001a 1B68     		ldr	r3, [r3]
  61 001c 9A42     		cmp	r2, r3
  62 001e 01D0     		beq	.L2
  63 0020 FFF7FEFF 		bl	__stack_chk_fail
  64              	.L2:
  65 0024 03B0     		add	sp, sp, #12
  66              		.cfi_def_cfa_offset 4
  67              		@ sp needed
  68 0026 5DF804FB 		ldr	pc, [sp], #4
  69              	.L4:
  70 002a 00BF     		.align	2
  71              	.L3:
  72 002c 00000000 		.word	__stack_chk_guard
  73              		.cfi_endproc
  74              	.LFE116:
  75              		.size	port_lock, .-port_lock
  76              		.section	.text.port_unlock,"ax",%progbits
  77              		.align	1
  78              		.p2align 4,,15
  79              		.syntax unified
  80              		.thumb
  81              		.thumb_func
  82              		.fpu fpv4-sp-d16
  83              		.type	port_unlock, %function
  84              	port_unlock:
  85              	.LFB117:
  86              		.loc 1 458 0
  87              		.cfi_startproc
  88              		@ args = 0, pretend = 0, frame = 8
  89              		@ frame_needed = 0, uses_anonymous_args = 0
  90 0000 00B5     		push	{lr}
  91              		.cfi_def_cfa_offset 4
  92              		.cfi_offset 14, -4
  93 0002 83B0     		sub	sp, sp, #12
  94              		.cfi_def_cfa_offset 16
  95              		.loc 1 458 0
  96 0004 094B     		ldr	r3, .L7
  97 0006 1B68     		ldr	r3, [r3]
  98 0008 0193     		str	r3, [sp, #4]
  99 000a 0023     		movs	r3, #0
 100 000c 0093     		str	r3, [sp]
 101              	.LBB8:
 102              	.LBB9:
 103              		.loc 2 546 0
 104 000e 009B     		ldr	r3, [sp]
 105              		.syntax unified
 106              	@ 546 "../lib/e-puck2_main-processor/ChibiOS//os/ext/CMSIS/include/core_cmFunc.h" 1
 107 0010 83F31188 		MSR basepri, r3
 108              	@ 0 "" 2
 109              		.thumb
 110              		.syntax unified
 111              	.LBE9:
 112              	.LBE8:
 113              		.loc 1 465 0
 114 0014 00BF     		nop
ARM GAS  C:\Users\PCHAUT~1\AppData\Local\Temp\ccR4smAG.s 			page 3


 115 0016 054B     		ldr	r3, .L7
 116 0018 019A     		ldr	r2, [sp, #4]
 117 001a 1B68     		ldr	r3, [r3]
 118 001c 9A42     		cmp	r2, r3
 119 001e 01D0     		beq	.L6
 120 0020 FFF7FEFF 		bl	__stack_chk_fail
 121              	.L6:
 122 0024 03B0     		add	sp, sp, #12
 123              		.cfi_def_cfa_offset 4
 124              		@ sp needed
 125 0026 5DF804FB 		ldr	pc, [sp], #4
 126              	.L8:
 127 002a 00BF     		.align	2
 128              	.L7:
 129 002c 00000000 		.word	__stack_chk_guard
 130              		.cfi_endproc
 131              	.LFE117:
 132              		.size	port_unlock, .-port_unlock
 133              		.section	.text.port_lock_from_isr,"ax",%progbits
 134              		.align	1
 135              		.p2align 4,,15
 136              		.syntax unified
 137              		.thumb
 138              		.thumb_func
 139              		.fpu fpv4-sp-d16
 140              		.type	port_lock_from_isr, %function
 141              	port_lock_from_isr:
 142              	.LFB118:
 143              		.loc 1 473 0
 144              		.cfi_startproc
 145              		@ args = 0, pretend = 0, frame = 8
 146              		@ frame_needed = 0, uses_anonymous_args = 0
 147 0000 00B5     		push	{lr}
 148              		.cfi_def_cfa_offset 4
 149              		.cfi_offset 14, -4
 150 0002 83B0     		sub	sp, sp, #12
 151              		.cfi_def_cfa_offset 16
 152              		.loc 1 473 0
 153 0004 074B     		ldr	r3, .L11
 154 0006 1B68     		ldr	r3, [r3]
 155 0008 0193     		str	r3, [sp, #4]
 156              		.loc 1 475 0
 157 000a FFF7FEFF 		bl	port_lock
 158              		.loc 1 476 0
 159 000e 00BF     		nop
 160 0010 044B     		ldr	r3, .L11
 161 0012 019A     		ldr	r2, [sp, #4]
 162 0014 1B68     		ldr	r3, [r3]
 163 0016 9A42     		cmp	r2, r3
 164 0018 01D0     		beq	.L10
 165 001a FFF7FEFF 		bl	__stack_chk_fail
 166              	.L10:
 167 001e 03B0     		add	sp, sp, #12
 168              		.cfi_def_cfa_offset 4
 169              		@ sp needed
 170 0020 5DF804FB 		ldr	pc, [sp], #4
 171              	.L12:
ARM GAS  C:\Users\PCHAUT~1\AppData\Local\Temp\ccR4smAG.s 			page 4


 172              		.align	2
 173              	.L11:
 174 0024 00000000 		.word	__stack_chk_guard
 175              		.cfi_endproc
 176              	.LFE118:
 177              		.size	port_lock_from_isr, .-port_lock_from_isr
 178              		.section	.text.port_unlock_from_isr,"ax",%progbits
 179              		.align	1
 180              		.p2align 4,,15
 181              		.syntax unified
 182              		.thumb
 183              		.thumb_func
 184              		.fpu fpv4-sp-d16
 185              		.type	port_unlock_from_isr, %function
 186              	port_unlock_from_isr:
 187              	.LFB119:
 188              		.loc 1 484 0
 189              		.cfi_startproc
 190              		@ args = 0, pretend = 0, frame = 8
 191              		@ frame_needed = 0, uses_anonymous_args = 0
 192 0000 00B5     		push	{lr}
 193              		.cfi_def_cfa_offset 4
 194              		.cfi_offset 14, -4
 195 0002 83B0     		sub	sp, sp, #12
 196              		.cfi_def_cfa_offset 16
 197              		.loc 1 484 0
 198 0004 074B     		ldr	r3, .L15
 199 0006 1B68     		ldr	r3, [r3]
 200 0008 0193     		str	r3, [sp, #4]
 201              		.loc 1 486 0
 202 000a FFF7FEFF 		bl	port_unlock
 203              		.loc 1 487 0
 204 000e 00BF     		nop
 205 0010 044B     		ldr	r3, .L15
 206 0012 019A     		ldr	r2, [sp, #4]
 207 0014 1B68     		ldr	r3, [r3]
 208 0016 9A42     		cmp	r2, r3
 209 0018 01D0     		beq	.L14
 210 001a FFF7FEFF 		bl	__stack_chk_fail
 211              	.L14:
 212 001e 03B0     		add	sp, sp, #12
 213              		.cfi_def_cfa_offset 4
 214              		@ sp needed
 215 0020 5DF804FB 		ldr	pc, [sp], #4
 216              	.L16:
 217              		.align	2
 218              	.L15:
 219 0024 00000000 		.word	__stack_chk_guard
 220              		.cfi_endproc
 221              	.LFE119:
 222              		.size	port_unlock_from_isr, .-port_unlock_from_isr
 223              		.section	.text.chSysLock,"ax",%progbits
 224              		.align	1
 225              		.p2align 4,,15
 226              		.syntax unified
 227              		.thumb
 228              		.thumb_func
ARM GAS  C:\Users\PCHAUT~1\AppData\Local\Temp\ccR4smAG.s 			page 5


 229              		.fpu fpv4-sp-d16
 230              		.type	chSysLock, %function
 231              	chSysLock:
 232              	.LFB145:
 233              		.file 3 "../lib/e-puck2_main-processor/ChibiOS//os/rt/include/chsys.h"
 234              		.loc 3 346 0
 235              		.cfi_startproc
 236              		@ args = 0, pretend = 0, frame = 8
 237              		@ frame_needed = 0, uses_anonymous_args = 0
 238 0000 00B5     		push	{lr}
 239              		.cfi_def_cfa_offset 4
 240              		.cfi_offset 14, -4
 241 0002 83B0     		sub	sp, sp, #12
 242              		.cfi_def_cfa_offset 16
 243              		.loc 3 346 0
 244 0004 094B     		ldr	r3, .L19
 245 0006 1B68     		ldr	r3, [r3]
 246 0008 0193     		str	r3, [sp, #4]
 247              		.loc 3 348 0
 248 000a FFF7FEFF 		bl	port_lock
 249              		.loc 3 349 0
 250 000e FFF7FEFF 		bl	_stats_start_measure_crit_thd
 251              		.loc 3 350 0
 252 0012 FFF7FEFF 		bl	_dbg_check_lock
 253              		.loc 3 351 0
 254 0016 00BF     		nop
 255 0018 044B     		ldr	r3, .L19
 256 001a 019A     		ldr	r2, [sp, #4]
 257 001c 1B68     		ldr	r3, [r3]
 258 001e 9A42     		cmp	r2, r3
 259 0020 01D0     		beq	.L18
 260 0022 FFF7FEFF 		bl	__stack_chk_fail
 261              	.L18:
 262 0026 03B0     		add	sp, sp, #12
 263              		.cfi_def_cfa_offset 4
 264              		@ sp needed
 265 0028 5DF804FB 		ldr	pc, [sp], #4
 266              	.L20:
 267              		.align	2
 268              	.L19:
 269 002c 00000000 		.word	__stack_chk_guard
 270              		.cfi_endproc
 271              	.LFE145:
 272              		.size	chSysLock, .-chSysLock
 273              		.section	.text.chSysUnlock,"ax",%progbits
 274              		.align	1
 275              		.p2align 4,,15
 276              		.syntax unified
 277              		.thumb
 278              		.thumb_func
 279              		.fpu fpv4-sp-d16
 280              		.type	chSysUnlock, %function
 281              	chSysUnlock:
 282              	.LFB146:
 283              		.loc 3 358 0
 284              		.cfi_startproc
 285              		@ args = 0, pretend = 0, frame = 8
ARM GAS  C:\Users\PCHAUT~1\AppData\Local\Temp\ccR4smAG.s 			page 6


 286              		@ frame_needed = 0, uses_anonymous_args = 0
 287 0000 00B5     		push	{lr}
 288              		.cfi_def_cfa_offset 4
 289              		.cfi_offset 14, -4
 290 0002 83B0     		sub	sp, sp, #12
 291              		.cfi_def_cfa_offset 16
 292              		.loc 3 358 0
 293 0004 114B     		ldr	r3, .L24
 294 0006 1B68     		ldr	r3, [r3]
 295 0008 0193     		str	r3, [sp, #4]
 296              		.loc 3 360 0
 297 000a FFF7FEFF 		bl	_dbg_check_unlock
 298              		.loc 3 361 0
 299 000e FFF7FEFF 		bl	_stats_stop_measure_crit_thd
 300              		.loc 3 367 0
 301 0012 0F4B     		ldr	r3, .L24+4
 302 0014 1B68     		ldr	r3, [r3]
 303 0016 0E4A     		ldr	r2, .L24+4
 304 0018 9342     		cmp	r3, r2
 305 001a 0AD0     		beq	.L22
 306              		.loc 3 367 0 is_stmt 0 discriminator 2
 307 001c 0C4B     		ldr	r3, .L24+4
 308 001e 9B69     		ldr	r3, [r3, #24]
 309 0020 9A68     		ldr	r2, [r3, #8]
 310 0022 0B4B     		ldr	r3, .L24+4
 311 0024 1B68     		ldr	r3, [r3]
 312 0026 9B68     		ldr	r3, [r3, #8]
 313 0028 9A42     		cmp	r2, r3
 314 002a 02D2     		bcs	.L22
 315              		.loc 3 367 0 discriminator 3
 316 002c 0948     		ldr	r0, .L24+8
 317 002e FFF7FEFF 		bl	chSysHalt
 318              	.L22:
 319              		.loc 3 371 0 is_stmt 1
 320 0032 FFF7FEFF 		bl	port_unlock
 321              		.loc 3 372 0
 322 0036 00BF     		nop
 323 0038 044B     		ldr	r3, .L24
 324 003a 019A     		ldr	r2, [sp, #4]
 325 003c 1B68     		ldr	r3, [r3]
 326 003e 9A42     		cmp	r2, r3
 327 0040 01D0     		beq	.L23
 328 0042 FFF7FEFF 		bl	__stack_chk_fail
 329              	.L23:
 330 0046 03B0     		add	sp, sp, #12
 331              		.cfi_def_cfa_offset 4
 332              		@ sp needed
 333 0048 5DF804FB 		ldr	pc, [sp], #4
 334              	.L25:
 335              		.align	2
 336              	.L24:
 337 004c 00000000 		.word	__stack_chk_guard
 338 0050 00000000 		.word	ch
 339 0054 00000000 		.word	__func__.7153
 340              		.cfi_endproc
 341              	.LFE146:
 342              		.size	chSysUnlock, .-chSysUnlock
ARM GAS  C:\Users\PCHAUT~1\AppData\Local\Temp\ccR4smAG.s 			page 7


 343              		.section	.text.chSysLockFromISR,"ax",%progbits
 344              		.align	1
 345              		.p2align 4,,15
 346              		.syntax unified
 347              		.thumb
 348              		.thumb_func
 349              		.fpu fpv4-sp-d16
 350              		.type	chSysLockFromISR, %function
 351              	chSysLockFromISR:
 352              	.LFB147:
 353              		.loc 3 386 0
 354              		.cfi_startproc
 355              		@ args = 0, pretend = 0, frame = 8
 356              		@ frame_needed = 0, uses_anonymous_args = 0
 357 0000 00B5     		push	{lr}
 358              		.cfi_def_cfa_offset 4
 359              		.cfi_offset 14, -4
 360 0002 83B0     		sub	sp, sp, #12
 361              		.cfi_def_cfa_offset 16
 362              		.loc 3 386 0
 363 0004 094B     		ldr	r3, .L28
 364 0006 1B68     		ldr	r3, [r3]
 365 0008 0193     		str	r3, [sp, #4]
 366              		.loc 3 388 0
 367 000a FFF7FEFF 		bl	port_lock_from_isr
 368              		.loc 3 389 0
 369 000e FFF7FEFF 		bl	_stats_start_measure_crit_isr
 370              		.loc 3 390 0
 371 0012 FFF7FEFF 		bl	_dbg_check_lock_from_isr
 372              		.loc 3 391 0
 373 0016 00BF     		nop
 374 0018 044B     		ldr	r3, .L28
 375 001a 019A     		ldr	r2, [sp, #4]
 376 001c 1B68     		ldr	r3, [r3]
 377 001e 9A42     		cmp	r2, r3
 378 0020 01D0     		beq	.L27
 379 0022 FFF7FEFF 		bl	__stack_chk_fail
 380              	.L27:
 381 0026 03B0     		add	sp, sp, #12
 382              		.cfi_def_cfa_offset 4
 383              		@ sp needed
 384 0028 5DF804FB 		ldr	pc, [sp], #4
 385              	.L29:
 386              		.align	2
 387              	.L28:
 388 002c 00000000 		.word	__stack_chk_guard
 389              		.cfi_endproc
 390              	.LFE147:
 391              		.size	chSysLockFromISR, .-chSysLockFromISR
 392              		.section	.text.chSysUnlockFromISR,"ax",%progbits
 393              		.align	1
 394              		.p2align 4,,15
 395              		.syntax unified
 396              		.thumb
 397              		.thumb_func
 398              		.fpu fpv4-sp-d16
 399              		.type	chSysUnlockFromISR, %function
ARM GAS  C:\Users\PCHAUT~1\AppData\Local\Temp\ccR4smAG.s 			page 8


 400              	chSysUnlockFromISR:
 401              	.LFB148:
 402              		.loc 3 406 0
 403              		.cfi_startproc
 404              		@ args = 0, pretend = 0, frame = 8
 405              		@ frame_needed = 0, uses_anonymous_args = 0
 406 0000 00B5     		push	{lr}
 407              		.cfi_def_cfa_offset 4
 408              		.cfi_offset 14, -4
 409 0002 83B0     		sub	sp, sp, #12
 410              		.cfi_def_cfa_offset 16
 411              		.loc 3 406 0
 412 0004 094B     		ldr	r3, .L32
 413 0006 1B68     		ldr	r3, [r3]
 414 0008 0193     		str	r3, [sp, #4]
 415              		.loc 3 408 0
 416 000a FFF7FEFF 		bl	_dbg_check_unlock_from_isr
 417              		.loc 3 409 0
 418 000e FFF7FEFF 		bl	_stats_stop_measure_crit_isr
 419              		.loc 3 410 0
 420 0012 FFF7FEFF 		bl	port_unlock_from_isr
 421              		.loc 3 411 0
 422 0016 00BF     		nop
 423 0018 044B     		ldr	r3, .L32
 424 001a 019A     		ldr	r2, [sp, #4]
 425 001c 1B68     		ldr	r3, [r3]
 426 001e 9A42     		cmp	r2, r3
 427 0020 01D0     		beq	.L31
 428 0022 FFF7FEFF 		bl	__stack_chk_fail
 429              	.L31:
 430 0026 03B0     		add	sp, sp, #12
 431              		.cfi_def_cfa_offset 4
 432              		@ sp needed
 433 0028 5DF804FB 		ldr	pc, [sp], #4
 434              	.L33:
 435              		.align	2
 436              	.L32:
 437 002c 00000000 		.word	__stack_chk_guard
 438              		.cfi_endproc
 439              	.LFE148:
 440              		.size	chSysUnlockFromISR, .-chSysUnlockFromISR
 441              		.section	.text.chVTGetSystemTimeX,"ax",%progbits
 442              		.align	1
 443              		.p2align 4,,15
 444              		.syntax unified
 445              		.thumb
 446              		.thumb_func
 447              		.fpu fpv4-sp-d16
 448              		.type	chVTGetSystemTimeX, %function
 449              	chVTGetSystemTimeX:
 450              	.LFB153:
 451              		.file 4 "../lib/e-puck2_main-processor/ChibiOS//os/rt/include/chvt.h"
 452              		.loc 4 228 0
 453              		.cfi_startproc
 454              		@ args = 0, pretend = 0, frame = 8
 455              		@ frame_needed = 0, uses_anonymous_args = 0
 456 0000 00B5     		push	{lr}
ARM GAS  C:\Users\PCHAUT~1\AppData\Local\Temp\ccR4smAG.s 			page 9


 457              		.cfi_def_cfa_offset 4
 458              		.cfi_offset 14, -4
 459 0002 83B0     		sub	sp, sp, #12
 460              		.cfi_def_cfa_offset 16
 461              		.loc 4 228 0
 462 0004 074B     		ldr	r3, .L37
 463 0006 1B68     		ldr	r3, [r3]
 464 0008 0193     		str	r3, [sp, #4]
 465              		.loc 4 231 0
 466 000a 074B     		ldr	r3, .L37+4
 467 000c 9B6A     		ldr	r3, [r3, #40]
 468              		.loc 4 235 0
 469 000e 1846     		mov	r0, r3
 470 0010 044B     		ldr	r3, .L37
 471 0012 019A     		ldr	r2, [sp, #4]
 472 0014 1B68     		ldr	r3, [r3]
 473 0016 9A42     		cmp	r2, r3
 474 0018 01D0     		beq	.L36
 475 001a FFF7FEFF 		bl	__stack_chk_fail
 476              	.L36:
 477 001e 03B0     		add	sp, sp, #12
 478              		.cfi_def_cfa_offset 4
 479              		@ sp needed
 480 0020 5DF804FB 		ldr	pc, [sp], #4
 481              	.L38:
 482              		.align	2
 483              	.L37:
 484 0024 00000000 		.word	__stack_chk_guard
 485 0028 00000000 		.word	ch
 486              		.cfi_endproc
 487              	.LFE153:
 488              		.size	chVTGetSystemTimeX, .-chVTGetSystemTimeX
 489              		.section	.text.chVTIsTimeWithinX,"ax",%progbits
 490              		.align	1
 491              		.p2align 4,,15
 492              		.syntax unified
 493              		.thumb
 494              		.thumb_func
 495              		.fpu fpv4-sp-d16
 496              		.type	chVTIsTimeWithinX, %function
 497              	chVTIsTimeWithinX:
 498              	.LFB156:
 499              		.loc 4 286 0
 500              		.cfi_startproc
 501              		@ args = 0, pretend = 0, frame = 24
 502              		@ frame_needed = 0, uses_anonymous_args = 0
 503 0000 00B5     		push	{lr}
 504              		.cfi_def_cfa_offset 4
 505              		.cfi_offset 14, -4
 506 0002 87B0     		sub	sp, sp, #28
 507              		.cfi_def_cfa_offset 32
 508 0004 0390     		str	r0, [sp, #12]
 509 0006 0291     		str	r1, [sp, #8]
 510 0008 0192     		str	r2, [sp, #4]
 511              		.loc 4 286 0
 512 000a 0C4B     		ldr	r3, .L42
 513 000c 1B68     		ldr	r3, [r3]
ARM GAS  C:\Users\PCHAUT~1\AppData\Local\Temp\ccR4smAG.s 			page 10


 514 000e 0593     		str	r3, [sp, #20]
 515              		.loc 4 288 0
 516 0010 039A     		ldr	r2, [sp, #12]
 517 0012 029B     		ldr	r3, [sp, #8]
 518 0014 D21A     		subs	r2, r2, r3
 519 0016 0199     		ldr	r1, [sp, #4]
 520 0018 029B     		ldr	r3, [sp, #8]
 521 001a CB1A     		subs	r3, r1, r3
 522 001c 9A42     		cmp	r2, r3
 523 001e 34BF     		ite	cc
 524 0020 0123     		movcc	r3, #1
 525 0022 0023     		movcs	r3, #0
 526 0024 DBB2     		uxtb	r3, r3
 527              		.loc 4 289 0
 528 0026 1846     		mov	r0, r3
 529 0028 044B     		ldr	r3, .L42
 530 002a 059A     		ldr	r2, [sp, #20]
 531 002c 1B68     		ldr	r3, [r3]
 532 002e 9A42     		cmp	r2, r3
 533 0030 01D0     		beq	.L41
 534 0032 FFF7FEFF 		bl	__stack_chk_fail
 535              	.L41:
 536 0036 07B0     		add	sp, sp, #28
 537              		.cfi_def_cfa_offset 4
 538              		@ sp needed
 539 0038 5DF804FB 		ldr	pc, [sp], #4
 540              	.L43:
 541              		.align	2
 542              	.L42:
 543 003c 00000000 		.word	__stack_chk_guard
 544              		.cfi_endproc
 545              	.LFE156:
 546              		.size	chVTIsTimeWithinX, .-chVTIsTimeWithinX
 547              		.section	.text.osalSysHalt,"ax",%progbits
 548              		.align	1
 549              		.p2align 4,,15
 550              		.syntax unified
 551              		.thumb
 552              		.thumb_func
 553              		.fpu fpv4-sp-d16
 554              		.type	osalSysHalt, %function
 555              	osalSysHalt:
 556              	.LFB220:
 557              		.file 5 "../lib/e-puck2_main-processor/ChibiOS//os/hal/osal/rt/osal.h"
 558              		.loc 5 414 0
 559              		.cfi_startproc
 560              		@ args = 0, pretend = 0, frame = 16
 561              		@ frame_needed = 0, uses_anonymous_args = 0
 562 0000 00B5     		push	{lr}
 563              		.cfi_def_cfa_offset 4
 564              		.cfi_offset 14, -4
 565 0002 85B0     		sub	sp, sp, #20
 566              		.cfi_def_cfa_offset 24
 567 0004 0190     		str	r0, [sp, #4]
 568              		.loc 5 414 0
 569 0006 084B     		ldr	r3, .L46
 570 0008 1B68     		ldr	r3, [r3]
ARM GAS  C:\Users\PCHAUT~1\AppData\Local\Temp\ccR4smAG.s 			page 11


 571 000a 0393     		str	r3, [sp, #12]
 572              		.loc 5 416 0
 573 000c 0198     		ldr	r0, [sp, #4]
 574 000e FFF7FEFF 		bl	chSysHalt
 575              		.loc 5 417 0
 576 0012 00BF     		nop
 577 0014 044B     		ldr	r3, .L46
 578 0016 039A     		ldr	r2, [sp, #12]
 579 0018 1B68     		ldr	r3, [r3]
 580 001a 9A42     		cmp	r2, r3
 581 001c 01D0     		beq	.L45
 582 001e FFF7FEFF 		bl	__stack_chk_fail
 583              	.L45:
 584 0022 05B0     		add	sp, sp, #20
 585              		.cfi_def_cfa_offset 4
 586              		@ sp needed
 587 0024 5DF804FB 		ldr	pc, [sp], #4
 588              	.L47:
 589              		.align	2
 590              	.L46:
 591 0028 00000000 		.word	__stack_chk_guard
 592              		.cfi_endproc
 593              	.LFE220:
 594              		.size	osalSysHalt, .-osalSysHalt
 595              		.section	.text.osalSysLock,"ax",%progbits
 596              		.align	1
 597              		.p2align 4,,15
 598              		.syntax unified
 599              		.thumb
 600              		.thumb_func
 601              		.fpu fpv4-sp-d16
 602              		.type	osalSysLock, %function
 603              	osalSysLock:
 604              	.LFB223:
 605              		.loc 5 445 0
 606              		.cfi_startproc
 607              		@ args = 0, pretend = 0, frame = 8
 608              		@ frame_needed = 0, uses_anonymous_args = 0
 609 0000 00B5     		push	{lr}
 610              		.cfi_def_cfa_offset 4
 611              		.cfi_offset 14, -4
 612 0002 83B0     		sub	sp, sp, #12
 613              		.cfi_def_cfa_offset 16
 614              		.loc 5 445 0
 615 0004 074B     		ldr	r3, .L50
 616 0006 1B68     		ldr	r3, [r3]
 617 0008 0193     		str	r3, [sp, #4]
 618              		.loc 5 447 0
 619 000a FFF7FEFF 		bl	chSysLock
 620              		.loc 5 448 0
 621 000e 00BF     		nop
 622 0010 044B     		ldr	r3, .L50
 623 0012 019A     		ldr	r2, [sp, #4]
 624 0014 1B68     		ldr	r3, [r3]
 625 0016 9A42     		cmp	r2, r3
 626 0018 01D0     		beq	.L49
 627 001a FFF7FEFF 		bl	__stack_chk_fail
ARM GAS  C:\Users\PCHAUT~1\AppData\Local\Temp\ccR4smAG.s 			page 12


 628              	.L49:
 629 001e 03B0     		add	sp, sp, #12
 630              		.cfi_def_cfa_offset 4
 631              		@ sp needed
 632 0020 5DF804FB 		ldr	pc, [sp], #4
 633              	.L51:
 634              		.align	2
 635              	.L50:
 636 0024 00000000 		.word	__stack_chk_guard
 637              		.cfi_endproc
 638              	.LFE223:
 639              		.size	osalSysLock, .-osalSysLock
 640              		.section	.text.osalSysUnlock,"ax",%progbits
 641              		.align	1
 642              		.p2align 4,,15
 643              		.syntax unified
 644              		.thumb
 645              		.thumb_func
 646              		.fpu fpv4-sp-d16
 647              		.type	osalSysUnlock, %function
 648              	osalSysUnlock:
 649              	.LFB224:
 650              		.loc 5 456 0
 651              		.cfi_startproc
 652              		@ args = 0, pretend = 0, frame = 8
 653              		@ frame_needed = 0, uses_anonymous_args = 0
 654 0000 00B5     		push	{lr}
 655              		.cfi_def_cfa_offset 4
 656              		.cfi_offset 14, -4
 657 0002 83B0     		sub	sp, sp, #12
 658              		.cfi_def_cfa_offset 16
 659              		.loc 5 456 0
 660 0004 074B     		ldr	r3, .L54
 661 0006 1B68     		ldr	r3, [r3]
 662 0008 0193     		str	r3, [sp, #4]
 663              		.loc 5 458 0
 664 000a FFF7FEFF 		bl	chSysUnlock
 665              		.loc 5 459 0
 666 000e 00BF     		nop
 667 0010 044B     		ldr	r3, .L54
 668 0012 019A     		ldr	r2, [sp, #4]
 669 0014 1B68     		ldr	r3, [r3]
 670 0016 9A42     		cmp	r2, r3
 671 0018 01D0     		beq	.L53
 672 001a FFF7FEFF 		bl	__stack_chk_fail
 673              	.L53:
 674 001e 03B0     		add	sp, sp, #12
 675              		.cfi_def_cfa_offset 4
 676              		@ sp needed
 677 0020 5DF804FB 		ldr	pc, [sp], #4
 678              	.L55:
 679              		.align	2
 680              	.L54:
 681 0024 00000000 		.word	__stack_chk_guard
 682              		.cfi_endproc
 683              	.LFE224:
 684              		.size	osalSysUnlock, .-osalSysUnlock
ARM GAS  C:\Users\PCHAUT~1\AppData\Local\Temp\ccR4smAG.s 			page 13


 685              		.section	.text.osalSysLockFromISR,"ax",%progbits
 686              		.align	1
 687              		.p2align 4,,15
 688              		.syntax unified
 689              		.thumb
 690              		.thumb_func
 691              		.fpu fpv4-sp-d16
 692              		.type	osalSysLockFromISR, %function
 693              	osalSysLockFromISR:
 694              	.LFB225:
 695              		.loc 5 467 0
 696              		.cfi_startproc
 697              		@ args = 0, pretend = 0, frame = 8
 698              		@ frame_needed = 0, uses_anonymous_args = 0
 699 0000 00B5     		push	{lr}
 700              		.cfi_def_cfa_offset 4
 701              		.cfi_offset 14, -4
 702 0002 83B0     		sub	sp, sp, #12
 703              		.cfi_def_cfa_offset 16
 704              		.loc 5 467 0
 705 0004 074B     		ldr	r3, .L58
 706 0006 1B68     		ldr	r3, [r3]
 707 0008 0193     		str	r3, [sp, #4]
 708              		.loc 5 469 0
 709 000a FFF7FEFF 		bl	chSysLockFromISR
 710              		.loc 5 470 0
 711 000e 00BF     		nop
 712 0010 044B     		ldr	r3, .L58
 713 0012 019A     		ldr	r2, [sp, #4]
 714 0014 1B68     		ldr	r3, [r3]
 715 0016 9A42     		cmp	r2, r3
 716 0018 01D0     		beq	.L57
 717 001a FFF7FEFF 		bl	__stack_chk_fail
 718              	.L57:
 719 001e 03B0     		add	sp, sp, #12
 720              		.cfi_def_cfa_offset 4
 721              		@ sp needed
 722 0020 5DF804FB 		ldr	pc, [sp], #4
 723              	.L59:
 724              		.align	2
 725              	.L58:
 726 0024 00000000 		.word	__stack_chk_guard
 727              		.cfi_endproc
 728              	.LFE225:
 729              		.size	osalSysLockFromISR, .-osalSysLockFromISR
 730              		.section	.text.osalSysUnlockFromISR,"ax",%progbits
 731              		.align	1
 732              		.p2align 4,,15
 733              		.syntax unified
 734              		.thumb
 735              		.thumb_func
 736              		.fpu fpv4-sp-d16
 737              		.type	osalSysUnlockFromISR, %function
 738              	osalSysUnlockFromISR:
 739              	.LFB226:
 740              		.loc 5 478 0
 741              		.cfi_startproc
ARM GAS  C:\Users\PCHAUT~1\AppData\Local\Temp\ccR4smAG.s 			page 14


 742              		@ args = 0, pretend = 0, frame = 8
 743              		@ frame_needed = 0, uses_anonymous_args = 0
 744 0000 00B5     		push	{lr}
 745              		.cfi_def_cfa_offset 4
 746              		.cfi_offset 14, -4
 747 0002 83B0     		sub	sp, sp, #12
 748              		.cfi_def_cfa_offset 16
 749              		.loc 5 478 0
 750 0004 074B     		ldr	r3, .L62
 751 0006 1B68     		ldr	r3, [r3]
 752 0008 0193     		str	r3, [sp, #4]
 753              		.loc 5 480 0
 754 000a FFF7FEFF 		bl	chSysUnlockFromISR
 755              		.loc 5 481 0
 756 000e 00BF     		nop
 757 0010 044B     		ldr	r3, .L62
 758 0012 019A     		ldr	r2, [sp, #4]
 759 0014 1B68     		ldr	r3, [r3]
 760 0016 9A42     		cmp	r2, r3
 761 0018 01D0     		beq	.L61
 762 001a FFF7FEFF 		bl	__stack_chk_fail
 763              	.L61:
 764 001e 03B0     		add	sp, sp, #12
 765              		.cfi_def_cfa_offset 4
 766              		@ sp needed
 767 0020 5DF804FB 		ldr	pc, [sp], #4
 768              	.L63:
 769              		.align	2
 770              	.L62:
 771 0024 00000000 		.word	__stack_chk_guard
 772              		.cfi_endproc
 773              	.LFE226:
 774              		.size	osalSysUnlockFromISR, .-osalSysUnlockFromISR
 775              		.section	.text.osalOsGetSystemTimeX,"ax",%progbits
 776              		.align	1
 777              		.p2align 4,,15
 778              		.syntax unified
 779              		.thumb
 780              		.thumb_func
 781              		.fpu fpv4-sp-d16
 782              		.type	osalOsGetSystemTimeX, %function
 783              	osalOsGetSystemTimeX:
 784              	.LFB232:
 785              		.loc 5 570 0
 786              		.cfi_startproc
 787              		@ args = 0, pretend = 0, frame = 8
 788              		@ frame_needed = 0, uses_anonymous_args = 0
 789 0000 00B5     		push	{lr}
 790              		.cfi_def_cfa_offset 4
 791              		.cfi_offset 14, -4
 792 0002 83B0     		sub	sp, sp, #12
 793              		.cfi_def_cfa_offset 16
 794              		.loc 5 570 0
 795 0004 084B     		ldr	r3, .L67
 796 0006 1B68     		ldr	r3, [r3]
 797 0008 0193     		str	r3, [sp, #4]
 798              		.loc 5 572 0
ARM GAS  C:\Users\PCHAUT~1\AppData\Local\Temp\ccR4smAG.s 			page 15


 799 000a FFF7FEFF 		bl	chVTGetSystemTimeX
 800 000e 0346     		mov	r3, r0
 801              		.loc 5 573 0
 802 0010 1846     		mov	r0, r3
 803 0012 054B     		ldr	r3, .L67
 804 0014 019A     		ldr	r2, [sp, #4]
 805 0016 1B68     		ldr	r3, [r3]
 806 0018 9A42     		cmp	r2, r3
 807 001a 01D0     		beq	.L66
 808 001c FFF7FEFF 		bl	__stack_chk_fail
 809              	.L66:
 810 0020 03B0     		add	sp, sp, #12
 811              		.cfi_def_cfa_offset 4
 812              		@ sp needed
 813 0022 5DF804FB 		ldr	pc, [sp], #4
 814              	.L68:
 815 0026 00BF     		.align	2
 816              	.L67:
 817 0028 00000000 		.word	__stack_chk_guard
 818              		.cfi_endproc
 819              	.LFE232:
 820              		.size	osalOsGetSystemTimeX, .-osalOsGetSystemTimeX
 821              		.section	.text.osalOsIsTimeWithinX,"ax",%progbits
 822              		.align	1
 823              		.p2align 4,,15
 824              		.syntax unified
 825              		.thumb
 826              		.thumb_func
 827              		.fpu fpv4-sp-d16
 828              		.type	osalOsIsTimeWithinX, %function
 829              	osalOsIsTimeWithinX:
 830              	.LFB233:
 831              		.loc 5 591 0
 832              		.cfi_startproc
 833              		@ args = 0, pretend = 0, frame = 24
 834              		@ frame_needed = 0, uses_anonymous_args = 0
 835 0000 00B5     		push	{lr}
 836              		.cfi_def_cfa_offset 4
 837              		.cfi_offset 14, -4
 838 0002 87B0     		sub	sp, sp, #28
 839              		.cfi_def_cfa_offset 32
 840 0004 0390     		str	r0, [sp, #12]
 841 0006 0291     		str	r1, [sp, #8]
 842 0008 0192     		str	r2, [sp, #4]
 843              		.loc 5 591 0
 844 000a 0A4B     		ldr	r3, .L72
 845 000c 1B68     		ldr	r3, [r3]
 846 000e 0593     		str	r3, [sp, #20]
 847              		.loc 5 593 0
 848 0010 019A     		ldr	r2, [sp, #4]
 849 0012 0299     		ldr	r1, [sp, #8]
 850 0014 0398     		ldr	r0, [sp, #12]
 851 0016 FFF7FEFF 		bl	chVTIsTimeWithinX
 852 001a 0346     		mov	r3, r0
 853              		.loc 5 594 0
 854 001c 1846     		mov	r0, r3
 855 001e 054B     		ldr	r3, .L72
ARM GAS  C:\Users\PCHAUT~1\AppData\Local\Temp\ccR4smAG.s 			page 16


 856 0020 059A     		ldr	r2, [sp, #20]
 857 0022 1B68     		ldr	r3, [r3]
 858 0024 9A42     		cmp	r2, r3
 859 0026 01D0     		beq	.L71
 860 0028 FFF7FEFF 		bl	__stack_chk_fail
 861              	.L71:
 862 002c 07B0     		add	sp, sp, #28
 863              		.cfi_def_cfa_offset 4
 864              		@ sp needed
 865 002e 5DF804FB 		ldr	pc, [sp], #4
 866              	.L73:
 867 0032 00BF     		.align	2
 868              	.L72:
 869 0034 00000000 		.word	__stack_chk_guard
 870              		.cfi_endproc
 871              	.LFE233:
 872              		.size	osalOsIsTimeWithinX, .-osalOsIsTimeWithinX
 873              		.section	.text.osalThreadSuspendTimeoutS,"ax",%progbits
 874              		.align	1
 875              		.p2align 4,,15
 876              		.syntax unified
 877              		.thumb
 878              		.thumb_func
 879              		.fpu fpv4-sp-d16
 880              		.type	osalThreadSuspendTimeoutS, %function
 881              	osalThreadSuspendTimeoutS:
 882              	.LFB237:
 883              		.loc 5 665 0
 884              		.cfi_startproc
 885              		@ args = 0, pretend = 0, frame = 16
 886              		@ frame_needed = 0, uses_anonymous_args = 0
 887 0000 00B5     		push	{lr}
 888              		.cfi_def_cfa_offset 4
 889              		.cfi_offset 14, -4
 890 0002 85B0     		sub	sp, sp, #20
 891              		.cfi_def_cfa_offset 24
 892 0004 0190     		str	r0, [sp, #4]
 893 0006 0091     		str	r1, [sp]
 894              		.loc 5 665 0
 895 0008 094B     		ldr	r3, .L77
 896 000a 1B68     		ldr	r3, [r3]
 897 000c 0393     		str	r3, [sp, #12]
 898              		.loc 5 667 0
 899 000e 0099     		ldr	r1, [sp]
 900 0010 0198     		ldr	r0, [sp, #4]
 901 0012 FFF7FEFF 		bl	chThdSuspendTimeoutS
 902 0016 0346     		mov	r3, r0
 903              		.loc 5 668 0
 904 0018 1846     		mov	r0, r3
 905 001a 054B     		ldr	r3, .L77
 906 001c 039A     		ldr	r2, [sp, #12]
 907 001e 1B68     		ldr	r3, [r3]
 908 0020 9A42     		cmp	r2, r3
 909 0022 01D0     		beq	.L76
 910 0024 FFF7FEFF 		bl	__stack_chk_fail
 911              	.L76:
 912 0028 05B0     		add	sp, sp, #20
ARM GAS  C:\Users\PCHAUT~1\AppData\Local\Temp\ccR4smAG.s 			page 17


 913              		.cfi_def_cfa_offset 4
 914              		@ sp needed
 915 002a 5DF804FB 		ldr	pc, [sp], #4
 916              	.L78:
 917 002e 00BF     		.align	2
 918              	.L77:
 919 0030 00000000 		.word	__stack_chk_guard
 920              		.cfi_endproc
 921              	.LFE237:
 922              		.size	osalThreadSuspendTimeoutS, .-osalThreadSuspendTimeoutS
 923              		.section	.text.osalThreadResumeI,"ax",%progbits
 924              		.align	1
 925              		.p2align 4,,15
 926              		.syntax unified
 927              		.thumb
 928              		.thumb_func
 929              		.fpu fpv4-sp-d16
 930              		.type	osalThreadResumeI, %function
 931              	osalThreadResumeI:
 932              	.LFB238:
 933              		.loc 5 680 0
 934              		.cfi_startproc
 935              		@ args = 0, pretend = 0, frame = 16
 936              		@ frame_needed = 0, uses_anonymous_args = 0
 937 0000 00B5     		push	{lr}
 938              		.cfi_def_cfa_offset 4
 939              		.cfi_offset 14, -4
 940 0002 85B0     		sub	sp, sp, #20
 941              		.cfi_def_cfa_offset 24
 942 0004 0190     		str	r0, [sp, #4]
 943 0006 0091     		str	r1, [sp]
 944              		.loc 5 680 0
 945 0008 084B     		ldr	r3, .L81
 946 000a 1B68     		ldr	r3, [r3]
 947 000c 0393     		str	r3, [sp, #12]
 948              		.loc 5 682 0
 949 000e 0099     		ldr	r1, [sp]
 950 0010 0198     		ldr	r0, [sp, #4]
 951 0012 FFF7FEFF 		bl	chThdResumeI
 952              		.loc 5 683 0
 953 0016 00BF     		nop
 954 0018 044B     		ldr	r3, .L81
 955 001a 039A     		ldr	r2, [sp, #12]
 956 001c 1B68     		ldr	r3, [r3]
 957 001e 9A42     		cmp	r2, r3
 958 0020 01D0     		beq	.L80
 959 0022 FFF7FEFF 		bl	__stack_chk_fail
 960              	.L80:
 961 0026 05B0     		add	sp, sp, #20
 962              		.cfi_def_cfa_offset 4
 963              		@ sp needed
 964 0028 5DF804FB 		ldr	pc, [sp], #4
 965              	.L82:
 966              		.align	2
 967              	.L81:
 968 002c 00000000 		.word	__stack_chk_guard
 969              		.cfi_endproc
ARM GAS  C:\Users\PCHAUT~1\AppData\Local\Temp\ccR4smAG.s 			page 18


 970              	.LFE238:
 971              		.size	osalThreadResumeI, .-osalThreadResumeI
 972              		.global	I2CD1
 973              		.section	.bss.I2CD1,"aw",%nobits
 974              		.align	2
 975              		.type	I2CD1, %object
 976              		.size	I2CD1, 60
 977              	I2CD1:
 978 0000 00000000 		.space	60
 978      00000000 
 978      00000000 
 978      00000000 
 978      00000000 
 979              		.section	.text.i2c_lld_abort_operation,"ax",%progbits
 980              		.align	1
 981              		.p2align 4,,15
 982              		.syntax unified
 983              		.thumb
 984              		.thumb_func
 985              		.fpu fpv4-sp-d16
 986              		.type	i2c_lld_abort_operation, %function
 987              	i2c_lld_abort_operation:
 988              	.LFB256:
 989              		.file 6 "../lib/e-puck2_main-processor/ChibiOS//os/hal/ports/STM32/LLD/I2Cv1/i2c_lld.c"
 990              		.loc 6 122 0
 991              		.cfi_startproc
 992              		@ args = 0, pretend = 0, frame = 16
 993              		@ frame_needed = 0, uses_anonymous_args = 0
 994 0000 00B5     		push	{lr}
 995              		.cfi_def_cfa_offset 4
 996              		.cfi_offset 14, -4
 997 0002 85B0     		sub	sp, sp, #20
 998              		.cfi_def_cfa_offset 24
 999 0004 0190     		str	r0, [sp, #4]
 1000              		.loc 6 122 0
 1001 0006 2D4B     		ldr	r3, .L87
 1002 0008 1B68     		ldr	r3, [r3]
 1003 000a 0393     		str	r3, [sp, #12]
 1004              		.loc 6 123 0
 1005 000c 019B     		ldr	r3, [sp, #4]
 1006 000e 9B6B     		ldr	r3, [r3, #56]
 1007 0010 0293     		str	r3, [sp, #8]
 1008              		.loc 6 126 0
 1009 0012 029B     		ldr	r3, [sp, #8]
 1010 0014 4FF40042 		mov	r2, #32768
 1011 0018 1A60     		str	r2, [r3]
 1012              		.loc 6 127 0
 1013 001a 029B     		ldr	r3, [sp, #8]
 1014 001c 0022     		movs	r2, #0
 1015 001e 1A60     		str	r2, [r3]
 1016              		.loc 6 128 0
 1017 0020 029B     		ldr	r3, [sp, #8]
 1018 0022 0022     		movs	r2, #0
 1019 0024 5A60     		str	r2, [r3, #4]
 1020              		.loc 6 129 0
 1021 0026 029B     		ldr	r3, [sp, #8]
 1022 0028 0022     		movs	r2, #0
ARM GAS  C:\Users\PCHAUT~1\AppData\Local\Temp\ccR4smAG.s 			page 19


 1023 002a 5A61     		str	r2, [r3, #20]
 1024              		.loc 6 132 0
 1025 002c 019B     		ldr	r3, [sp, #4]
 1026 002e 5B6B     		ldr	r3, [r3, #52]
 1027 0030 1B68     		ldr	r3, [r3]
 1028 0032 1A68     		ldr	r2, [r3]
 1029 0034 019B     		ldr	r3, [sp, #4]
 1030 0036 5B6B     		ldr	r3, [r3, #52]
 1031 0038 1B68     		ldr	r3, [r3]
 1032 003a 22F01F02 		bic	r2, r2, #31
 1033 003e 1A60     		str	r2, [r3]
 1034 0040 00BF     		nop
 1035              	.L84:
 1036              		.loc 6 132 0 is_stmt 0 discriminator 2
 1037 0042 019B     		ldr	r3, [sp, #4]
 1038 0044 5B6B     		ldr	r3, [r3, #52]
 1039 0046 1B68     		ldr	r3, [r3]
 1040 0048 1B68     		ldr	r3, [r3]
 1041 004a 03F00103 		and	r3, r3, #1
 1042 004e 002B     		cmp	r3, #0
 1043 0050 F7D1     		bne	.L84
 1044              		.loc 6 132 0 discriminator 3
 1045 0052 019B     		ldr	r3, [sp, #4]
 1046 0054 5B6B     		ldr	r3, [r3, #52]
 1047 0056 1B7A     		ldrb	r3, [r3, #8]	@ zero_extendqisi2
 1048 0058 1A46     		mov	r2, r3
 1049 005a 3D23     		movs	r3, #61
 1050 005c 03FA02F2 		lsl	r2, r3, r2
 1051 0060 019B     		ldr	r3, [sp, #4]
 1052 0062 5B6B     		ldr	r3, [r3, #52]
 1053 0064 5B68     		ldr	r3, [r3, #4]
 1054 0066 1A60     		str	r2, [r3]
 1055              		.loc 6 133 0 is_stmt 1 discriminator 3
 1056 0068 019B     		ldr	r3, [sp, #4]
 1057 006a 1B6B     		ldr	r3, [r3, #48]
 1058 006c 1B68     		ldr	r3, [r3]
 1059 006e 1A68     		ldr	r2, [r3]
 1060 0070 019B     		ldr	r3, [sp, #4]
 1061 0072 1B6B     		ldr	r3, [r3, #48]
 1062 0074 1B68     		ldr	r3, [r3]
 1063 0076 22F01F02 		bic	r2, r2, #31
 1064 007a 1A60     		str	r2, [r3]
 1065 007c 00BF     		nop
 1066              	.L85:
 1067              		.loc 6 133 0 is_stmt 0 discriminator 2
 1068 007e 019B     		ldr	r3, [sp, #4]
 1069 0080 1B6B     		ldr	r3, [r3, #48]
 1070 0082 1B68     		ldr	r3, [r3]
 1071 0084 1B68     		ldr	r3, [r3]
 1072 0086 03F00103 		and	r3, r3, #1
 1073 008a 002B     		cmp	r3, #0
 1074 008c F7D1     		bne	.L85
 1075              		.loc 6 133 0 discriminator 3
 1076 008e 019B     		ldr	r3, [sp, #4]
 1077 0090 1B6B     		ldr	r3, [r3, #48]
 1078 0092 1B7A     		ldrb	r3, [r3, #8]	@ zero_extendqisi2
 1079 0094 1A46     		mov	r2, r3
ARM GAS  C:\Users\PCHAUT~1\AppData\Local\Temp\ccR4smAG.s 			page 20


 1080 0096 3D23     		movs	r3, #61
 1081 0098 03FA02F2 		lsl	r2, r3, r2
 1082 009c 019B     		ldr	r3, [sp, #4]
 1083 009e 1B6B     		ldr	r3, [r3, #48]
 1084 00a0 5B68     		ldr	r3, [r3, #4]
 1085 00a2 1A60     		str	r2, [r3]
 1086              		.loc 6 134 0 is_stmt 1 discriminator 3
 1087 00a4 00BF     		nop
 1088 00a6 054B     		ldr	r3, .L87
 1089 00a8 039A     		ldr	r2, [sp, #12]
 1090 00aa 1B68     		ldr	r3, [r3]
 1091 00ac 9A42     		cmp	r2, r3
 1092 00ae 01D0     		beq	.L86
 1093              		.loc 6 134 0 is_stmt 0
 1094 00b0 FFF7FEFF 		bl	__stack_chk_fail
 1095              	.L86:
 1096 00b4 05B0     		add	sp, sp, #20
 1097              		.cfi_def_cfa_offset 4
 1098              		@ sp needed
 1099 00b6 5DF804FB 		ldr	pc, [sp], #4
 1100              	.L88:
 1101 00ba 00BF     		.align	2
 1102              	.L87:
 1103 00bc 00000000 		.word	__stack_chk_guard
 1104              		.cfi_endproc
 1105              	.LFE256:
 1106              		.size	i2c_lld_abort_operation, .-i2c_lld_abort_operation
 1107              		.section	.text.i2c_lld_set_clock,"ax",%progbits
 1108              		.align	1
 1109              		.p2align 4,,15
 1110              		.syntax unified
 1111              		.thumb
 1112              		.thumb_func
 1113              		.fpu fpv4-sp-d16
 1114              		.type	i2c_lld_set_clock, %function
 1115              	i2c_lld_set_clock:
 1116              	.LFB257:
 1117              		.loc 6 143 0 is_stmt 1
 1118              		.cfi_startproc
 1119              		@ args = 0, pretend = 0, frame = 32
 1120              		@ frame_needed = 0, uses_anonymous_args = 0
 1121 0000 00B5     		push	{lr}
 1122              		.cfi_def_cfa_offset 4
 1123              		.cfi_offset 14, -4
 1124 0002 89B0     		sub	sp, sp, #36
 1125              		.cfi_def_cfa_offset 40
 1126 0004 0190     		str	r0, [sp, #4]
 1127              		.loc 6 143 0
 1128 0006 764B     		ldr	r3, .L108
 1129 0008 1B68     		ldr	r3, [r3]
 1130 000a 0793     		str	r3, [sp, #28]
 1131              		.loc 6 144 0
 1132 000c 019B     		ldr	r3, [sp, #4]
 1133 000e 9B6B     		ldr	r3, [r3, #56]
 1134 0010 0593     		str	r3, [sp, #20]
 1135              		.loc 6 146 0
 1136 0012 019B     		ldr	r3, [sp, #4]
ARM GAS  C:\Users\PCHAUT~1\AppData\Local\Temp\ccR4smAG.s 			page 21


 1137 0014 5B68     		ldr	r3, [r3, #4]
 1138 0016 5B68     		ldr	r3, [r3, #4]
 1139 0018 0693     		str	r3, [sp, #24]
 1140              		.loc 6 147 0
 1141 001a 019B     		ldr	r3, [sp, #4]
 1142 001c 5B68     		ldr	r3, [r3, #4]
 1143 001e 1B7A     		ldrb	r3, [r3, #8]
 1144 0020 8DF80F30 		strb	r3, [sp, #15]
 1145              		.loc 6 149 0
 1146 0024 019B     		ldr	r3, [sp, #4]
 1147 0026 002B     		cmp	r3, #0
 1148 0028 06D0     		beq	.L90
 1149              		.loc 6 149 0 is_stmt 0 discriminator 3
 1150 002a 069B     		ldr	r3, [sp, #24]
 1151 002c 002B     		cmp	r3, #0
 1152 002e 03DD     		ble	.L90
 1153              		.loc 6 149 0 discriminator 5
 1154 0030 069B     		ldr	r3, [sp, #24]
 1155 0032 6C4A     		ldr	r2, .L108+4
 1156 0034 9342     		cmp	r3, r2
 1157 0036 02DD     		ble	.L91
 1158              	.L90:
 1159              		.loc 6 149 0 discriminator 6
 1160 0038 6B48     		ldr	r0, .L108+8
 1161 003a FFF7FEFF 		bl	chSysHalt
 1162              	.L91:
 1163              		.loc 6 154 0 is_stmt 1
 1164 003e 059B     		ldr	r3, [sp, #20]
 1165 0040 5A68     		ldr	r2, [r3, #4]
 1166 0042 4FF6C073 		movw	r3, #65472
 1167 0046 1340     		ands	r3, r3, r2
 1168 0048 059A     		ldr	r2, [sp, #20]
 1169 004a 5360     		str	r3, [r2, #4]
 1170              		.loc 6 155 0
 1171 004c 059B     		ldr	r3, [sp, #20]
 1172 004e 5B68     		ldr	r3, [r3, #4]
 1173 0050 43F02A02 		orr	r2, r3, #42
 1174 0054 059B     		ldr	r3, [sp, #20]
 1175 0056 5A60     		str	r2, [r3, #4]
 1176              		.loc 6 158 0
 1177 0058 0023     		movs	r3, #0
 1178 005a ADF81030 		strh	r3, [sp, #16]	@ movhi
 1179              		.loc 6 159 0
 1180 005e 40F6FF73 		movw	r3, #4095
 1181 0062 ADF81230 		strh	r3, [sp, #18]	@ movhi
 1182              		.loc 6 161 0
 1183 0066 069B     		ldr	r3, [sp, #24]
 1184 0068 604A     		ldr	r2, .L108+12
 1185 006a 9342     		cmp	r3, r2
 1186 006c 31DC     		bgt	.L92
 1187              		.loc 6 163 0 discriminator 1
 1188 006e 9DF80F30 		ldrb	r3, [sp, #15]	@ zero_extendqisi2
 1189 0072 012B     		cmp	r3, #1
 1190 0074 02D0     		beq	.L105
 1191              		.loc 6 163 0 is_stmt 0 discriminator 2
 1192 0076 5C48     		ldr	r0, .L108+8
 1193 0078 FFF7FEFF 		bl	chSysHalt
ARM GAS  C:\Users\PCHAUT~1\AppData\Local\Temp\ccR4smAG.s 			page 22


 1194              	.L105:
 1195              		.loc 6 166 0 is_stmt 1 discriminator 1
 1196 007c 069B     		ldr	r3, [sp, #24]
 1197 007e 5B00     		lsls	r3, r3, #1
 1198 0080 1A46     		mov	r2, r3
 1199 0082 5B4B     		ldr	r3, .L108+16
 1200 0084 B3FBF2F1 		udiv	r1, r3, r2
 1201 0088 02FB01F2 		mul	r2, r2, r1
 1202 008c 9B1A     		subs	r3, r3, r2
 1203 008e 002B     		cmp	r3, #0
 1204 0090 02D0     		beq	.L94
 1205              		.loc 6 166 0 is_stmt 0 discriminator 2
 1206 0092 5548     		ldr	r0, .L108+8
 1207 0094 FFF7FEFF 		bl	chSysHalt
 1208              	.L94:
 1209              		.loc 6 168 0 is_stmt 1
 1210 0098 069B     		ldr	r3, [sp, #24]
 1211 009a 5B00     		lsls	r3, r3, #1
 1212 009c 1A46     		mov	r2, r3
 1213 009e 544B     		ldr	r3, .L108+16
 1214 00a0 B3FBF2F3 		udiv	r3, r3, r2
 1215 00a4 ADF81230 		strh	r3, [sp, #18]	@ movhi
 1216              		.loc 6 170 0
 1217 00a8 BDF81230 		ldrh	r3, [sp, #18]
 1218 00ac 032B     		cmp	r3, #3
 1219 00ae 02D8     		bhi	.L95
 1220              		.loc 6 170 0 is_stmt 0 discriminator 2
 1221 00b0 4D48     		ldr	r0, .L108+8
 1222 00b2 FFF7FEFF 		bl	chSysHalt
 1223              	.L95:
 1224              		.loc 6 172 0 is_stmt 1
 1225 00b6 BDF81230 		ldrh	r3, [sp, #18]	@ movhi
 1226 00ba C3F30B03 		ubfx	r3, r3, #0, #12
 1227 00be 9AB2     		uxth	r2, r3
 1228 00c0 BDF81030 		ldrh	r3, [sp, #16]	@ movhi
 1229 00c4 1343     		orrs	r3, r3, r2
 1230 00c6 ADF81030 		strh	r3, [sp, #16]	@ movhi
 1231              		.loc 6 175 0
 1232 00ca 059B     		ldr	r3, [sp, #20]
 1233 00cc 2B22     		movs	r2, #43
 1234 00ce 1A62     		str	r2, [r3, #32]
 1235 00d0 6EE0     		b	.L106
 1236              	.L92:
 1237              		.loc 6 177 0
 1238 00d2 069B     		ldr	r3, [sp, #24]
 1239 00d4 474A     		ldr	r2, .L108+20
 1240 00d6 9342     		cmp	r3, r2
 1241 00d8 6ADC     		bgt	.L106
 1242              		.loc 6 179 0 discriminator 1
 1243 00da 9DF80F30 		ldrb	r3, [sp, #15]	@ zero_extendqisi2
 1244 00de 022B     		cmp	r3, #2
 1245 00e0 06D0     		beq	.L97
 1246              		.loc 6 179 0 is_stmt 0 discriminator 2
 1247 00e2 9DF80F30 		ldrb	r3, [sp, #15]	@ zero_extendqisi2
 1248 00e6 032B     		cmp	r3, #3
 1249 00e8 02D0     		beq	.L97
 1250              		.loc 6 179 0 discriminator 3
ARM GAS  C:\Users\PCHAUT~1\AppData\Local\Temp\ccR4smAG.s 			page 23


 1251 00ea 3F48     		ldr	r0, .L108+8
 1252 00ec FFF7FEFF 		bl	chSysHalt
 1253              	.L97:
 1254              		.loc 6 183 0 is_stmt 1
 1255 00f0 9DF80F30 		ldrb	r3, [sp, #15]	@ zero_extendqisi2
 1256 00f4 022B     		cmp	r3, #2
 1257 00f6 1AD1     		bne	.L98
 1258              		.loc 6 185 0 discriminator 1
 1259 00f8 069A     		ldr	r2, [sp, #24]
 1260 00fa 1346     		mov	r3, r2
 1261 00fc 5B00     		lsls	r3, r3, #1
 1262 00fe 1344     		add	r3, r3, r2
 1263 0100 1A46     		mov	r2, r3
 1264 0102 3B4B     		ldr	r3, .L108+16
 1265 0104 B3FBF2F1 		udiv	r1, r3, r2
 1266 0108 02FB01F2 		mul	r2, r2, r1
 1267 010c 9B1A     		subs	r3, r3, r2
 1268 010e 002B     		cmp	r3, #0
 1269 0110 02D0     		beq	.L99
 1270              		.loc 6 185 0 is_stmt 0 discriminator 2
 1271 0112 3548     		ldr	r0, .L108+8
 1272 0114 FFF7FEFF 		bl	chSysHalt
 1273              	.L99:
 1274              		.loc 6 187 0 is_stmt 1
 1275 0118 069A     		ldr	r2, [sp, #24]
 1276 011a 1346     		mov	r3, r2
 1277 011c 5B00     		lsls	r3, r3, #1
 1278 011e 1344     		add	r3, r3, r2
 1279 0120 1A46     		mov	r2, r3
 1280 0122 334B     		ldr	r3, .L108+16
 1281 0124 B3FBF2F3 		udiv	r3, r3, r2
 1282 0128 ADF81230 		strh	r3, [sp, #18]	@ movhi
 1283 012c 27E0     		b	.L107
 1284              	.L98:
 1285              		.loc 6 189 0
 1286 012e 9DF80F30 		ldrb	r3, [sp, #15]	@ zero_extendqisi2
 1287 0132 032B     		cmp	r3, #3
 1288 0134 23D1     		bne	.L107
 1289              		.loc 6 191 0 discriminator 1
 1290 0136 069A     		ldr	r2, [sp, #24]
 1291 0138 1346     		mov	r3, r2
 1292 013a 9B00     		lsls	r3, r3, #2
 1293 013c 1344     		add	r3, r3, r2
 1294 013e 9A00     		lsls	r2, r3, #2
 1295 0140 1344     		add	r3, r3, r2
 1296 0142 1A46     		mov	r2, r3
 1297 0144 2A4B     		ldr	r3, .L108+16
 1298 0146 B3FBF2F1 		udiv	r1, r3, r2
 1299 014a 02FB01F2 		mul	r2, r2, r1
 1300 014e 9B1A     		subs	r3, r3, r2
 1301 0150 002B     		cmp	r3, #0
 1302 0152 02D0     		beq	.L101
 1303              		.loc 6 191 0 is_stmt 0 discriminator 2
 1304 0154 2448     		ldr	r0, .L108+8
 1305 0156 FFF7FEFF 		bl	chSysHalt
 1306              	.L101:
 1307              		.loc 6 193 0 is_stmt 1
ARM GAS  C:\Users\PCHAUT~1\AppData\Local\Temp\ccR4smAG.s 			page 24


 1308 015a 069A     		ldr	r2, [sp, #24]
 1309 015c 1346     		mov	r3, r2
 1310 015e 9B00     		lsls	r3, r3, #2
 1311 0160 1344     		add	r3, r3, r2
 1312 0162 9A00     		lsls	r2, r3, #2
 1313 0164 1344     		add	r3, r3, r2
 1314 0166 1A46     		mov	r2, r3
 1315 0168 214B     		ldr	r3, .L108+16
 1316 016a B3FBF2F3 		udiv	r3, r3, r2
 1317 016e ADF81230 		strh	r3, [sp, #18]	@ movhi
 1318              		.loc 6 194 0
 1319 0172 BDF81030 		ldrh	r3, [sp, #16]	@ movhi
 1320 0176 43F48043 		orr	r3, r3, #16384
 1321 017a ADF81030 		strh	r3, [sp, #16]	@ movhi
 1322              	.L107:
 1323              		.loc 6 197 0 discriminator 1
 1324 017e BDF81230 		ldrh	r3, [sp, #18]
 1325 0182 002B     		cmp	r3, #0
 1326 0184 02D1     		bne	.L102
 1327              		.loc 6 197 0 is_stmt 0 discriminator 2
 1328 0186 1848     		ldr	r0, .L108+8
 1329 0188 FFF7FEFF 		bl	chSysHalt
 1330              	.L102:
 1331              		.loc 6 199 0 is_stmt 1
 1332 018c BDF81230 		ldrh	r3, [sp, #18]	@ movhi
 1333 0190 C3F30B03 		ubfx	r3, r3, #0, #12
 1334 0194 9AB2     		uxth	r2, r3
 1335 0196 BDF81030 		ldrh	r3, [sp, #16]	@ movhi
 1336 019a 1343     		orrs	r3, r3, r2
 1337 019c 9BB2     		uxth	r3, r3
 1338 019e 6FEA4343 		mvn	r3, r3, lsl #17
 1339 01a2 6FEA5343 		mvn	r3, r3, lsr #17
 1340 01a6 ADF81030 		strh	r3, [sp, #16]	@ movhi
 1341              		.loc 6 202 0
 1342 01aa 059B     		ldr	r3, [sp, #20]
 1343 01ac 0D22     		movs	r2, #13
 1344 01ae 1A62     		str	r2, [r3, #32]
 1345              	.L106:
 1346              		.loc 6 205 0 discriminator 1
 1347 01b0 BDF81230 		ldrh	r3, [sp, #18]
 1348 01b4 B3F5805F 		cmp	r3, #4096
 1349 01b8 02D3     		bcc	.L103
 1350              		.loc 6 205 0 is_stmt 0 discriminator 2
 1351 01ba 0B48     		ldr	r0, .L108+8
 1352 01bc FFF7FEFF 		bl	chSysHalt
 1353              	.L103:
 1354              		.loc 6 207 0 is_stmt 1
 1355 01c0 BDF81020 		ldrh	r2, [sp, #16]
 1356 01c4 059B     		ldr	r3, [sp, #20]
 1357 01c6 DA61     		str	r2, [r3, #28]
 1358              		.loc 6 208 0
 1359 01c8 00BF     		nop
 1360 01ca 054B     		ldr	r3, .L108
 1361 01cc 079A     		ldr	r2, [sp, #28]
 1362 01ce 1B68     		ldr	r3, [r3]
 1363 01d0 9A42     		cmp	r2, r3
 1364 01d2 01D0     		beq	.L104
ARM GAS  C:\Users\PCHAUT~1\AppData\Local\Temp\ccR4smAG.s 			page 25


 1365 01d4 FFF7FEFF 		bl	__stack_chk_fail
 1366              	.L104:
 1367 01d8 09B0     		add	sp, sp, #36
 1368              		.cfi_def_cfa_offset 4
 1369              		@ sp needed
 1370 01da 5DF804FB 		ldr	pc, [sp], #4
 1371              	.L109:
 1372 01de 00BF     		.align	2
 1373              	.L108:
 1374 01e0 00000000 		.word	__stack_chk_guard
 1375 01e4 00093D00 		.word	4000000
 1376 01e8 00000000 		.word	__func__.9857
 1377 01ec A0860100 		.word	100000
 1378 01f0 80DE8002 		.word	42000000
 1379 01f4 801A0600 		.word	400000
 1380              		.cfi_endproc
 1381              	.LFE257:
 1382              		.size	i2c_lld_set_clock, .-i2c_lld_set_clock
 1383              		.section	.text.i2c_lld_set_opmode,"ax",%progbits
 1384              		.align	1
 1385              		.p2align 4,,15
 1386              		.syntax unified
 1387              		.thumb
 1388              		.thumb_func
 1389              		.fpu fpv4-sp-d16
 1390              		.type	i2c_lld_set_opmode, %function
 1391              	i2c_lld_set_opmode:
 1392              	.LFB258:
 1393              		.loc 6 217 0
 1394              		.cfi_startproc
 1395              		@ args = 0, pretend = 0, frame = 24
 1396              		@ frame_needed = 0, uses_anonymous_args = 0
 1397 0000 00B5     		push	{lr}
 1398              		.cfi_def_cfa_offset 4
 1399              		.cfi_offset 14, -4
 1400 0002 87B0     		sub	sp, sp, #28
 1401              		.cfi_def_cfa_offset 32
 1402 0004 0190     		str	r0, [sp, #4]
 1403              		.loc 6 217 0
 1404 0006 204B     		ldr	r3, .L116
 1405 0008 1B68     		ldr	r3, [r3]
 1406 000a 0593     		str	r3, [sp, #20]
 1407              		.loc 6 218 0
 1408 000c 019B     		ldr	r3, [sp, #4]
 1409 000e 9B6B     		ldr	r3, [r3, #56]
 1410 0010 0493     		str	r3, [sp, #16]
 1411              		.loc 6 219 0
 1412 0012 019B     		ldr	r3, [sp, #4]
 1413 0014 5B68     		ldr	r3, [r3, #4]
 1414 0016 1B78     		ldrb	r3, [r3]
 1415 0018 8DF80D30 		strb	r3, [sp, #13]
 1416              		.loc 6 222 0
 1417 001c 049B     		ldr	r3, [sp, #16]
 1418 001e 1B68     		ldr	r3, [r3]
 1419 0020 ADF80E30 		strh	r3, [sp, #14]	@ movhi
 1420              		.loc 6 223 0
 1421 0024 9DF80D30 		ldrb	r3, [sp, #13]	@ zero_extendqisi2
ARM GAS  C:\Users\PCHAUT~1\AppData\Local\Temp\ccR4smAG.s 			page 26


 1422 0028 022B     		cmp	r3, #2
 1423 002a 0AD0     		beq	.L112
 1424 002c 032B     		cmp	r3, #3
 1425 002e 15D0     		beq	.L113
 1426 0030 012B     		cmp	r3, #1
 1427 0032 1AD1     		bne	.L111
 1428              		.loc 6 225 0
 1429 0034 BDF80E30 		ldrh	r3, [sp, #14]	@ movhi
 1430 0038 23F00A03 		bic	r3, r3, #10
 1431 003c ADF80E30 		strh	r3, [sp, #14]	@ movhi
 1432              		.loc 6 226 0
 1433 0040 13E0     		b	.L111
 1434              	.L112:
 1435              		.loc 6 228 0
 1436 0042 BDF80E30 		ldrh	r3, [sp, #14]	@ movhi
 1437 0046 43F00203 		orr	r3, r3, #2
 1438 004a ADF80E30 		strh	r3, [sp, #14]	@ movhi
 1439              		.loc 6 229 0
 1440 004e BDF80E30 		ldrh	r3, [sp, #14]	@ movhi
 1441 0052 23F00803 		bic	r3, r3, #8
 1442 0056 ADF80E30 		strh	r3, [sp, #14]	@ movhi
 1443              		.loc 6 230 0
 1444 005a 06E0     		b	.L111
 1445              	.L113:
 1446              		.loc 6 232 0
 1447 005c BDF80E30 		ldrh	r3, [sp, #14]	@ movhi
 1448 0060 43F00A03 		orr	r3, r3, #10
 1449 0064 ADF80E30 		strh	r3, [sp, #14]	@ movhi
 1450              		.loc 6 233 0
 1451 0068 00BF     		nop
 1452              	.L111:
 1453              		.loc 6 235 0
 1454 006a BDF80E20 		ldrh	r2, [sp, #14]
 1455 006e 049B     		ldr	r3, [sp, #16]
 1456 0070 1A60     		str	r2, [r3]
 1457              		.loc 6 236 0
 1458 0072 00BF     		nop
 1459 0074 044B     		ldr	r3, .L116
 1460 0076 059A     		ldr	r2, [sp, #20]
 1461 0078 1B68     		ldr	r3, [r3]
 1462 007a 9A42     		cmp	r2, r3
 1463 007c 01D0     		beq	.L115
 1464 007e FFF7FEFF 		bl	__stack_chk_fail
 1465              	.L115:
 1466 0082 07B0     		add	sp, sp, #28
 1467              		.cfi_def_cfa_offset 4
 1468              		@ sp needed
 1469 0084 5DF804FB 		ldr	pc, [sp], #4
 1470              	.L117:
 1471              		.align	2
 1472              	.L116:
 1473 0088 00000000 		.word	__stack_chk_guard
 1474              		.cfi_endproc
 1475              	.LFE258:
 1476              		.size	i2c_lld_set_opmode, .-i2c_lld_set_opmode
 1477              		.section	.text.i2c_lld_serve_event_interrupt,"ax",%progbits
 1478              		.align	1
ARM GAS  C:\Users\PCHAUT~1\AppData\Local\Temp\ccR4smAG.s 			page 27


 1479              		.p2align 4,,15
 1480              		.syntax unified
 1481              		.thumb
 1482              		.thumb_func
 1483              		.fpu fpv4-sp-d16
 1484              		.type	i2c_lld_serve_event_interrupt, %function
 1485              	i2c_lld_serve_event_interrupt:
 1486              	.LFB259:
 1487              		.loc 6 245 0
 1488              		.cfi_startproc
 1489              		@ args = 0, pretend = 0, frame = 24
 1490              		@ frame_needed = 0, uses_anonymous_args = 0
 1491 0000 00B5     		push	{lr}
 1492              		.cfi_def_cfa_offset 4
 1493              		.cfi_offset 14, -4
 1494 0002 87B0     		sub	sp, sp, #28
 1495              		.cfi_def_cfa_offset 32
 1496 0004 0190     		str	r0, [sp, #4]
 1497              		.loc 6 245 0
 1498 0006 604B     		ldr	r3, .L134
 1499 0008 1B68     		ldr	r3, [r3]
 1500 000a 0593     		str	r3, [sp, #20]
 1501              		.loc 6 246 0
 1502 000c 019B     		ldr	r3, [sp, #4]
 1503 000e 9B6B     		ldr	r3, [r3, #56]
 1504 0010 0293     		str	r3, [sp, #8]
 1505              		.loc 6 247 0
 1506 0012 029B     		ldr	r3, [sp, #8]
 1507 0014 9B69     		ldr	r3, [r3, #24]
 1508 0016 0393     		str	r3, [sp, #12]
 1509              		.loc 6 248 0
 1510 0018 029B     		ldr	r3, [sp, #8]
 1511 001a 5B69     		ldr	r3, [r3, #20]
 1512 001c 0493     		str	r3, [sp, #16]
 1513              		.loc 6 253 0
 1514 001e 039B     		ldr	r3, [sp, #12]
 1515 0020 1A04     		lsls	r2, r3, #16
 1516 0022 049B     		ldr	r3, [sp, #16]
 1517 0024 1343     		orrs	r3, r3, r2
 1518 0026 23F07F43 		bic	r3, r3, #-16777216
 1519 002a 584A     		ldr	r2, .L134+4
 1520 002c 9342     		cmp	r3, r2
 1521 002e 31D0     		beq	.L120
 1522 0030 564A     		ldr	r2, .L134+4
 1523 0032 9342     		cmp	r3, r2
 1524 0034 06D8     		bhi	.L121
 1525 0036 564A     		ldr	r2, .L134+8
 1526 0038 9342     		cmp	r3, r2
 1527 003a 0AD0     		beq	.L122
 1528 003c 554A     		ldr	r2, .L134+12
 1529 003e 9342     		cmp	r3, r2
 1530 0040 30D0     		beq	.L123
 1531              		.loc 6 290 0
 1532 0042 8FE0     		b	.L128
 1533              	.L121:
 1534              		.loc 6 253 0
 1535 0044 544A     		ldr	r2, .L134+16
ARM GAS  C:\Users\PCHAUT~1\AppData\Local\Temp\ccR4smAG.s 			page 28


 1536 0046 9342     		cmp	r3, r2
 1537 0048 4FD0     		beq	.L124
 1538 004a 544A     		ldr	r2, .L134+20
 1539 004c 9342     		cmp	r3, r2
 1540 004e 5DD0     		beq	.L125
 1541              		.loc 6 290 0
 1542 0050 88E0     		b	.L128
 1543              	.L122:
 1544              		.loc 6 255 0
 1545 0052 019B     		ldr	r3, [sp, #4]
 1546 0054 9B8C     		ldrh	r3, [r3, #36]
 1547 0056 1B0A     		lsrs	r3, r3, #8
 1548 0058 9BB2     		uxth	r3, r3
 1549 005a 002B     		cmp	r3, #0
 1550 005c 14D0     		beq	.L126
 1551              		.loc 6 257 0
 1552 005e 019B     		ldr	r3, [sp, #4]
 1553 0060 9B8C     		ldrh	r3, [r3, #36]
 1554 0062 1B0A     		lsrs	r3, r3, #8
 1555 0064 9BB2     		uxth	r3, r3
 1556 0066 03F00603 		and	r3, r3, #6
 1557 006a 9AB2     		uxth	r2, r3
 1558 006c 019B     		ldr	r3, [sp, #4]
 1559 006e 9B8C     		ldrh	r3, [r3, #36]
 1560 0070 03F00103 		and	r3, r3, #1
 1561 0074 9BB2     		uxth	r3, r3
 1562 0076 1343     		orrs	r3, r3, r2
 1563 0078 9BB2     		uxth	r3, r3
 1564 007a 43F0F003 		orr	r3, r3, #240
 1565 007e 9BB2     		uxth	r3, r3
 1566 0080 1A46     		mov	r2, r3
 1567 0082 029B     		ldr	r3, [sp, #8]
 1568 0084 1A61     		str	r2, [r3, #16]
 1569              		.loc 6 261 0
 1570 0086 6DE0     		b	.L128
 1571              	.L126:
 1572              		.loc 6 259 0
 1573 0088 019B     		ldr	r3, [sp, #4]
 1574 008a 9B8C     		ldrh	r3, [r3, #36]
 1575 008c 1A46     		mov	r2, r3
 1576 008e 029B     		ldr	r3, [sp, #8]
 1577 0090 1A61     		str	r2, [r3, #16]
 1578              		.loc 6 261 0
 1579 0092 67E0     		b	.L128
 1580              	.L120:
 1581              		.loc 6 264 0
 1582 0094 019B     		ldr	r3, [sp, #4]
 1583 0096 9B8C     		ldrh	r3, [r3, #36]
 1584 0098 5B08     		lsrs	r3, r3, #1
 1585 009a 9BB2     		uxth	r3, r3
 1586 009c DAB2     		uxtb	r2, r3
 1587 009e 029B     		ldr	r3, [sp, #8]
 1588 00a0 1A61     		str	r2, [r3, #16]
 1589              		.loc 6 265 0
 1590 00a2 5FE0     		b	.L128
 1591              	.L123:
 1592              		.loc 6 267 0
ARM GAS  C:\Users\PCHAUT~1\AppData\Local\Temp\ccR4smAG.s 			page 29


 1593 00a4 029B     		ldr	r3, [sp, #8]
 1594 00a6 5B68     		ldr	r3, [r3, #4]
 1595 00a8 23F40072 		bic	r2, r3, #512
 1596 00ac 029B     		ldr	r3, [sp, #8]
 1597 00ae 5A60     		str	r2, [r3, #4]
 1598              		.loc 6 268 0
 1599 00b0 019B     		ldr	r3, [sp, #4]
 1600 00b2 1B6B     		ldr	r3, [r3, #48]
 1601 00b4 1B68     		ldr	r3, [r3]
 1602 00b6 1A68     		ldr	r2, [r3]
 1603 00b8 019B     		ldr	r3, [sp, #4]
 1604 00ba 1B6B     		ldr	r3, [r3, #48]
 1605 00bc 1B68     		ldr	r3, [r3]
 1606 00be 42F00102 		orr	r2, r2, #1
 1607 00c2 1A60     		str	r2, [r3]
 1608              		.loc 6 269 0
 1609 00c4 029B     		ldr	r3, [sp, #8]
 1610 00c6 5B68     		ldr	r3, [r3, #4]
 1611 00c8 43F48052 		orr	r2, r3, #4096
 1612 00cc 029B     		ldr	r3, [sp, #8]
 1613 00ce 5A60     		str	r2, [r3, #4]
 1614              		.loc 6 270 0
 1615 00d0 019B     		ldr	r3, [sp, #4]
 1616 00d2 1B6B     		ldr	r3, [r3, #48]
 1617 00d4 1B68     		ldr	r3, [r3]
 1618 00d6 5B68     		ldr	r3, [r3, #4]
 1619 00d8 012B     		cmp	r3, #1
 1620 00da 42D8     		bhi	.L133
 1621              		.loc 6 271 0
 1622 00dc 029B     		ldr	r3, [sp, #8]
 1623 00de 1B68     		ldr	r3, [r3]
 1624 00e0 23F48062 		bic	r2, r3, #1024
 1625 00e4 029B     		ldr	r3, [sp, #8]
 1626 00e6 1A60     		str	r2, [r3]
 1627              		.loc 6 272 0
 1628 00e8 3BE0     		b	.L133
 1629              	.L124:
 1630              		.loc 6 274 0
 1631 00ea 029B     		ldr	r3, [sp, #8]
 1632 00ec 5B68     		ldr	r3, [r3, #4]
 1633 00ee 23F40072 		bic	r2, r3, #512
 1634 00f2 029B     		ldr	r3, [sp, #8]
 1635 00f4 5A60     		str	r2, [r3, #4]
 1636              		.loc 6 275 0
 1637 00f6 019B     		ldr	r3, [sp, #4]
 1638 00f8 5B6B     		ldr	r3, [r3, #52]
 1639 00fa 1B68     		ldr	r3, [r3]
 1640 00fc 1A68     		ldr	r2, [r3]
 1641 00fe 019B     		ldr	r3, [sp, #4]
 1642 0100 5B6B     		ldr	r3, [r3, #52]
 1643 0102 1B68     		ldr	r3, [r3]
 1644 0104 42F00102 		orr	r2, r2, #1
 1645 0108 1A60     		str	r2, [r3]
 1646              		.loc 6 276 0
 1647 010a 2BE0     		b	.L128
 1648              	.L125:
 1649              		.loc 6 279 0
ARM GAS  C:\Users\PCHAUT~1\AppData\Local\Temp\ccR4smAG.s 			page 30


 1650 010c 019B     		ldr	r3, [sp, #4]
 1651 010e 1B6B     		ldr	r3, [r3, #48]
 1652 0110 1B68     		ldr	r3, [r3]
 1653 0112 5B68     		ldr	r3, [r3, #4]
 1654 0114 002B     		cmp	r3, #0
 1655 0116 0DD0     		beq	.L130
 1656              		.loc 6 281 0
 1657 0118 019B     		ldr	r3, [sp, #4]
 1658 011a 9B8C     		ldrh	r3, [r3, #36]
 1659 011c 43F00103 		orr	r3, r3, #1
 1660 0120 9AB2     		uxth	r2, r3
 1661 0122 019B     		ldr	r3, [sp, #4]
 1662 0124 9A84     		strh	r2, [r3, #36]	@ movhi
 1663              		.loc 6 282 0
 1664 0126 029B     		ldr	r3, [sp, #8]
 1665 0128 1B68     		ldr	r3, [r3]
 1666 012a 43F4A062 		orr	r2, r3, #1280
 1667 012e 029B     		ldr	r3, [sp, #8]
 1668 0130 1A60     		str	r2, [r3]
 1669              		.loc 6 283 0
 1670 0132 1EE0     		b	.L118
 1671              	.L130:
 1672              		.loc 6 285 0
 1673 0134 029B     		ldr	r3, [sp, #8]
 1674 0136 5B68     		ldr	r3, [r3, #4]
 1675 0138 23F40072 		bic	r2, r3, #512
 1676 013c 029B     		ldr	r3, [sp, #8]
 1677 013e 5A60     		str	r2, [r3, #4]
 1678              		.loc 6 286 0
 1679 0140 029B     		ldr	r3, [sp, #8]
 1680 0142 1B68     		ldr	r3, [r3]
 1681 0144 43F40072 		orr	r2, r3, #512
 1682 0148 029B     		ldr	r3, [sp, #8]
 1683 014a 1A60     		str	r2, [r3]
 1684              		.loc 6 287 0
 1685 014c FFF7FEFF 		bl	osalSysLockFromISR
 1686 0150 019B     		ldr	r3, [sp, #4]
 1687 0152 2033     		adds	r3, r3, #32
 1688 0154 0021     		movs	r1, #0
 1689 0156 1846     		mov	r0, r3
 1690 0158 FFF7FEFF 		bl	osalThreadResumeI
 1691 015c FFF7FEFF 		bl	osalSysUnlockFromISR
 1692              		.loc 6 288 0
 1693 0160 00E0     		b	.L128
 1694              	.L133:
 1695              		.loc 6 272 0
 1696 0162 00BF     		nop
 1697              	.L128:
 1698              		.loc 6 293 0
 1699 0164 049B     		ldr	r3, [sp, #16]
 1700 0166 03F00A03 		and	r3, r3, #10
 1701 016a 002B     		cmp	r3, #0
 1702 016c 01D0     		beq	.L118
 1703              		.loc 6 294 0
 1704 016e 029B     		ldr	r3, [sp, #8]
 1705 0170 9B69     		ldr	r3, [r3, #24]
 1706              	.L118:
ARM GAS  C:\Users\PCHAUT~1\AppData\Local\Temp\ccR4smAG.s 			page 31


 1707              		.loc 6 295 0
 1708 0172 054B     		ldr	r3, .L134
 1709 0174 059A     		ldr	r2, [sp, #20]
 1710 0176 1B68     		ldr	r3, [r3]
 1711 0178 9A42     		cmp	r2, r3
 1712 017a 01D0     		beq	.L132
 1713 017c FFF7FEFF 		bl	__stack_chk_fail
 1714              	.L132:
 1715 0180 07B0     		add	sp, sp, #28
 1716              		.cfi_def_cfa_offset 4
 1717              		@ sp needed
 1718 0182 5DF804FB 		ldr	pc, [sp], #4
 1719              	.L135:
 1720 0186 00BF     		.align	2
 1721              	.L134:
 1722 0188 00000000 		.word	__stack_chk_guard
 1723 018c 08000300 		.word	196616
 1724 0190 01000300 		.word	196609
 1725 0194 02000300 		.word	196610
 1726 0198 82000700 		.word	458882
 1727 019c 84000700 		.word	458884
 1728              		.cfi_endproc
 1729              	.LFE259:
 1730              		.size	i2c_lld_serve_event_interrupt, .-i2c_lld_serve_event_interrupt
 1731              		.section	.rodata
 1732              		.align	2
 1733              	.LC0:
 1734 0000 444D4120 		.ascii	"DMA failure\000"
 1734      6661696C 
 1734      75726500 
 1735              		.section	.text.i2c_lld_serve_rx_end_irq,"ax",%progbits
 1736              		.align	1
 1737              		.p2align 4,,15
 1738              		.syntax unified
 1739              		.thumb
 1740              		.thumb_func
 1741              		.fpu fpv4-sp-d16
 1742              		.type	i2c_lld_serve_rx_end_irq, %function
 1743              	i2c_lld_serve_rx_end_irq:
 1744              	.LFB260:
 1745              		.loc 6 305 0
 1746              		.cfi_startproc
 1747              		@ args = 0, pretend = 0, frame = 16
 1748              		@ frame_needed = 0, uses_anonymous_args = 0
 1749 0000 00B5     		push	{lr}
 1750              		.cfi_def_cfa_offset 4
 1751              		.cfi_offset 14, -4
 1752 0002 85B0     		sub	sp, sp, #20
 1753              		.cfi_def_cfa_offset 24
 1754 0004 0190     		str	r0, [sp, #4]
 1755 0006 0091     		str	r1, [sp]
 1756              		.loc 6 305 0
 1757 0008 294B     		ldr	r3, .L140
 1758 000a 1B68     		ldr	r3, [r3]
 1759 000c 0393     		str	r3, [sp, #12]
 1760              		.loc 6 306 0
 1761 000e 019B     		ldr	r3, [sp, #4]
ARM GAS  C:\Users\PCHAUT~1\AppData\Local\Temp\ccR4smAG.s 			page 32


 1762 0010 9B6B     		ldr	r3, [r3, #56]
 1763 0012 0293     		str	r3, [sp, #8]
 1764              		.loc 6 310 0
 1765 0014 009B     		ldr	r3, [sp]
 1766 0016 03F00C03 		and	r3, r3, #12
 1767 001a 002B     		cmp	r3, #0
 1768 001c 02D0     		beq	.L137
 1769              		.loc 6 311 0
 1770 001e 2548     		ldr	r0, .L140+4
 1771 0020 FFF7FEFF 		bl	osalSysHalt
 1772              	.L137:
 1773              		.loc 6 317 0
 1774 0024 019B     		ldr	r3, [sp, #4]
 1775 0026 1B6B     		ldr	r3, [r3, #48]
 1776 0028 1B68     		ldr	r3, [r3]
 1777 002a 1A68     		ldr	r2, [r3]
 1778 002c 019B     		ldr	r3, [sp, #4]
 1779 002e 1B6B     		ldr	r3, [r3, #48]
 1780 0030 1B68     		ldr	r3, [r3]
 1781 0032 22F01F02 		bic	r2, r2, #31
 1782 0036 1A60     		str	r2, [r3]
 1783 0038 00BF     		nop
 1784              	.L138:
 1785              		.loc 6 317 0 is_stmt 0 discriminator 2
 1786 003a 019B     		ldr	r3, [sp, #4]
 1787 003c 1B6B     		ldr	r3, [r3, #48]
 1788 003e 1B68     		ldr	r3, [r3]
 1789 0040 1B68     		ldr	r3, [r3]
 1790 0042 03F00103 		and	r3, r3, #1
 1791 0046 002B     		cmp	r3, #0
 1792 0048 F7D1     		bne	.L138
 1793              		.loc 6 317 0 discriminator 3
 1794 004a 019B     		ldr	r3, [sp, #4]
 1795 004c 1B6B     		ldr	r3, [r3, #48]
 1796 004e 1B7A     		ldrb	r3, [r3, #8]	@ zero_extendqisi2
 1797 0050 1A46     		mov	r2, r3
 1798 0052 3D23     		movs	r3, #61
 1799 0054 03FA02F2 		lsl	r2, r3, r2
 1800 0058 019B     		ldr	r3, [sp, #4]
 1801 005a 1B6B     		ldr	r3, [r3, #48]
 1802 005c 5B68     		ldr	r3, [r3, #4]
 1803 005e 1A60     		str	r2, [r3]
 1804              		.loc 6 319 0 is_stmt 1 discriminator 3
 1805 0060 029B     		ldr	r3, [sp, #8]
 1806 0062 5B68     		ldr	r3, [r3, #4]
 1807 0064 23F48052 		bic	r2, r3, #4096
 1808 0068 029B     		ldr	r3, [sp, #8]
 1809 006a 5A60     		str	r2, [r3, #4]
 1810              		.loc 6 320 0 discriminator 3
 1811 006c 029B     		ldr	r3, [sp, #8]
 1812 006e 1B68     		ldr	r3, [r3]
 1813 0070 23F48062 		bic	r2, r3, #1024
 1814 0074 029B     		ldr	r3, [sp, #8]
 1815 0076 1A60     		str	r2, [r3]
 1816              		.loc 6 321 0 discriminator 3
 1817 0078 029B     		ldr	r3, [sp, #8]
 1818 007a 1B68     		ldr	r3, [r3]
ARM GAS  C:\Users\PCHAUT~1\AppData\Local\Temp\ccR4smAG.s 			page 33


 1819 007c 43F40072 		orr	r2, r3, #512
 1820 0080 029B     		ldr	r3, [sp, #8]
 1821 0082 1A60     		str	r2, [r3]
 1822              		.loc 6 322 0 discriminator 3
 1823 0084 FFF7FEFF 		bl	osalSysLockFromISR
 1824 0088 019B     		ldr	r3, [sp, #4]
 1825 008a 2033     		adds	r3, r3, #32
 1826 008c 0021     		movs	r1, #0
 1827 008e 1846     		mov	r0, r3
 1828 0090 FFF7FEFF 		bl	osalThreadResumeI
 1829 0094 FFF7FEFF 		bl	osalSysUnlockFromISR
 1830              		.loc 6 323 0 discriminator 3
 1831 0098 00BF     		nop
 1832 009a 054B     		ldr	r3, .L140
 1833 009c 039A     		ldr	r2, [sp, #12]
 1834 009e 1B68     		ldr	r3, [r3]
 1835 00a0 9A42     		cmp	r2, r3
 1836 00a2 01D0     		beq	.L139
 1837              		.loc 6 323 0 is_stmt 0
 1838 00a4 FFF7FEFF 		bl	__stack_chk_fail
 1839              	.L139:
 1840 00a8 05B0     		add	sp, sp, #20
 1841              		.cfi_def_cfa_offset 4
 1842              		@ sp needed
 1843 00aa 5DF804FB 		ldr	pc, [sp], #4
 1844              	.L141:
 1845 00ae 00BF     		.align	2
 1846              	.L140:
 1847 00b0 00000000 		.word	__stack_chk_guard
 1848 00b4 00000000 		.word	.LC0
 1849              		.cfi_endproc
 1850              	.LFE260:
 1851              		.size	i2c_lld_serve_rx_end_irq, .-i2c_lld_serve_rx_end_irq
 1852              		.section	.text.i2c_lld_serve_tx_end_irq,"ax",%progbits
 1853              		.align	1
 1854              		.p2align 4,,15
 1855              		.syntax unified
 1856              		.thumb
 1857              		.thumb_func
 1858              		.fpu fpv4-sp-d16
 1859              		.type	i2c_lld_serve_tx_end_irq, %function
 1860              	i2c_lld_serve_tx_end_irq:
 1861              	.LFB261:
 1862              		.loc 6 332 0 is_stmt 1
 1863              		.cfi_startproc
 1864              		@ args = 0, pretend = 0, frame = 16
 1865              		@ frame_needed = 0, uses_anonymous_args = 0
 1866 0000 00B5     		push	{lr}
 1867              		.cfi_def_cfa_offset 4
 1868              		.cfi_offset 14, -4
 1869 0002 85B0     		sub	sp, sp, #20
 1870              		.cfi_def_cfa_offset 24
 1871 0004 0190     		str	r0, [sp, #4]
 1872 0006 0091     		str	r1, [sp]
 1873              		.loc 6 332 0
 1874 0008 1E4B     		ldr	r3, .L146
 1875 000a 1B68     		ldr	r3, [r3]
ARM GAS  C:\Users\PCHAUT~1\AppData\Local\Temp\ccR4smAG.s 			page 34


 1876 000c 0393     		str	r3, [sp, #12]
 1877              		.loc 6 333 0
 1878 000e 019B     		ldr	r3, [sp, #4]
 1879 0010 9B6B     		ldr	r3, [r3, #56]
 1880 0012 0293     		str	r3, [sp, #8]
 1881              		.loc 6 337 0
 1882 0014 009B     		ldr	r3, [sp]
 1883 0016 03F00C03 		and	r3, r3, #12
 1884 001a 002B     		cmp	r3, #0
 1885 001c 02D0     		beq	.L143
 1886              		.loc 6 338 0
 1887 001e 1A48     		ldr	r0, .L146+4
 1888 0020 FFF7FEFF 		bl	osalSysHalt
 1889              	.L143:
 1890              		.loc 6 344 0
 1891 0024 019B     		ldr	r3, [sp, #4]
 1892 0026 5B6B     		ldr	r3, [r3, #52]
 1893 0028 1B68     		ldr	r3, [r3]
 1894 002a 1A68     		ldr	r2, [r3]
 1895 002c 019B     		ldr	r3, [sp, #4]
 1896 002e 5B6B     		ldr	r3, [r3, #52]
 1897 0030 1B68     		ldr	r3, [r3]
 1898 0032 22F01F02 		bic	r2, r2, #31
 1899 0036 1A60     		str	r2, [r3]
 1900 0038 00BF     		nop
 1901              	.L144:
 1902              		.loc 6 344 0 is_stmt 0 discriminator 2
 1903 003a 019B     		ldr	r3, [sp, #4]
 1904 003c 5B6B     		ldr	r3, [r3, #52]
 1905 003e 1B68     		ldr	r3, [r3]
 1906 0040 1B68     		ldr	r3, [r3]
 1907 0042 03F00103 		and	r3, r3, #1
 1908 0046 002B     		cmp	r3, #0
 1909 0048 F7D1     		bne	.L144
 1910              		.loc 6 344 0 discriminator 3
 1911 004a 019B     		ldr	r3, [sp, #4]
 1912 004c 5B6B     		ldr	r3, [r3, #52]
 1913 004e 1B7A     		ldrb	r3, [r3, #8]	@ zero_extendqisi2
 1914 0050 1A46     		mov	r2, r3
 1915 0052 3D23     		movs	r3, #61
 1916 0054 03FA02F2 		lsl	r2, r3, r2
 1917 0058 019B     		ldr	r3, [sp, #4]
 1918 005a 5B6B     		ldr	r3, [r3, #52]
 1919 005c 5B68     		ldr	r3, [r3, #4]
 1920 005e 1A60     		str	r2, [r3]
 1921              		.loc 6 348 0 is_stmt 1 discriminator 3
 1922 0060 029B     		ldr	r3, [sp, #8]
 1923 0062 5B68     		ldr	r3, [r3, #4]
 1924 0064 43F40072 		orr	r2, r3, #512
 1925 0068 029B     		ldr	r3, [sp, #8]
 1926 006a 5A60     		str	r2, [r3, #4]
 1927              		.loc 6 349 0 discriminator 3
 1928 006c 00BF     		nop
 1929 006e 054B     		ldr	r3, .L146
 1930 0070 039A     		ldr	r2, [sp, #12]
 1931 0072 1B68     		ldr	r3, [r3]
 1932 0074 9A42     		cmp	r2, r3
ARM GAS  C:\Users\PCHAUT~1\AppData\Local\Temp\ccR4smAG.s 			page 35


 1933 0076 01D0     		beq	.L145
 1934              		.loc 6 349 0 is_stmt 0
 1935 0078 FFF7FEFF 		bl	__stack_chk_fail
 1936              	.L145:
 1937 007c 05B0     		add	sp, sp, #20
 1938              		.cfi_def_cfa_offset 4
 1939              		@ sp needed
 1940 007e 5DF804FB 		ldr	pc, [sp], #4
 1941              	.L147:
 1942 0082 00BF     		.align	2
 1943              	.L146:
 1944 0084 00000000 		.word	__stack_chk_guard
 1945 0088 00000000 		.word	.LC0
 1946              		.cfi_endproc
 1947              	.LFE261:
 1948              		.size	i2c_lld_serve_tx_end_irq, .-i2c_lld_serve_tx_end_irq
 1949              		.section	.text.i2c_lld_serve_error_interrupt,"ax",%progbits
 1950              		.align	1
 1951              		.p2align 4,,15
 1952              		.syntax unified
 1953              		.thumb
 1954              		.thumb_func
 1955              		.fpu fpv4-sp-d16
 1956              		.type	i2c_lld_serve_error_interrupt, %function
 1957              	i2c_lld_serve_error_interrupt:
 1958              	.LFB262:
 1959              		.loc 6 359 0 is_stmt 1
 1960              		.cfi_startproc
 1961              		@ args = 0, pretend = 0, frame = 16
 1962              		@ frame_needed = 0, uses_anonymous_args = 0
 1963 0000 00B5     		push	{lr}
 1964              		.cfi_def_cfa_offset 4
 1965              		.cfi_offset 14, -4
 1966 0002 85B0     		sub	sp, sp, #20
 1967              		.cfi_def_cfa_offset 24
 1968 0004 0190     		str	r0, [sp, #4]
 1969 0006 0B46     		mov	r3, r1
 1970 0008 ADF80230 		strh	r3, [sp, #2]	@ movhi
 1971              		.loc 6 359 0
 1972 000c 5E4B     		ldr	r3, .L161
 1973 000e 1B68     		ldr	r3, [r3]
 1974 0010 0393     		str	r3, [sp, #12]
 1975              		.loc 6 362 0
 1976 0012 019B     		ldr	r3, [sp, #4]
 1977 0014 5B6B     		ldr	r3, [r3, #52]
 1978 0016 1B68     		ldr	r3, [r3]
 1979 0018 1A68     		ldr	r2, [r3]
 1980 001a 019B     		ldr	r3, [sp, #4]
 1981 001c 5B6B     		ldr	r3, [r3, #52]
 1982 001e 1B68     		ldr	r3, [r3]
 1983 0020 22F01F02 		bic	r2, r2, #31
 1984 0024 1A60     		str	r2, [r3]
 1985 0026 00BF     		nop
 1986              	.L149:
 1987              		.loc 6 362 0 is_stmt 0 discriminator 2
 1988 0028 019B     		ldr	r3, [sp, #4]
 1989 002a 5B6B     		ldr	r3, [r3, #52]
ARM GAS  C:\Users\PCHAUT~1\AppData\Local\Temp\ccR4smAG.s 			page 36


 1990 002c 1B68     		ldr	r3, [r3]
 1991 002e 1B68     		ldr	r3, [r3]
 1992 0030 03F00103 		and	r3, r3, #1
 1993 0034 002B     		cmp	r3, #0
 1994 0036 F7D1     		bne	.L149
 1995              		.loc 6 362 0 discriminator 3
 1996 0038 019B     		ldr	r3, [sp, #4]
 1997 003a 5B6B     		ldr	r3, [r3, #52]
 1998 003c 1B7A     		ldrb	r3, [r3, #8]	@ zero_extendqisi2
 1999 003e 1A46     		mov	r2, r3
 2000 0040 3D23     		movs	r3, #61
 2001 0042 03FA02F2 		lsl	r2, r3, r2
 2002 0046 019B     		ldr	r3, [sp, #4]
 2003 0048 5B6B     		ldr	r3, [r3, #52]
 2004 004a 5B68     		ldr	r3, [r3, #4]
 2005 004c 1A60     		str	r2, [r3]
 2006              		.loc 6 363 0 is_stmt 1 discriminator 3
 2007 004e 019B     		ldr	r3, [sp, #4]
 2008 0050 1B6B     		ldr	r3, [r3, #48]
 2009 0052 1B68     		ldr	r3, [r3]
 2010 0054 1A68     		ldr	r2, [r3]
 2011 0056 019B     		ldr	r3, [sp, #4]
 2012 0058 1B6B     		ldr	r3, [r3, #48]
 2013 005a 1B68     		ldr	r3, [r3]
 2014 005c 22F01F02 		bic	r2, r2, #31
 2015 0060 1A60     		str	r2, [r3]
 2016 0062 00BF     		nop
 2017              	.L150:
 2018              		.loc 6 363 0 is_stmt 0 discriminator 2
 2019 0064 019B     		ldr	r3, [sp, #4]
 2020 0066 1B6B     		ldr	r3, [r3, #48]
 2021 0068 1B68     		ldr	r3, [r3]
 2022 006a 1B68     		ldr	r3, [r3]
 2023 006c 03F00103 		and	r3, r3, #1
 2024 0070 002B     		cmp	r3, #0
 2025 0072 F7D1     		bne	.L150
 2026              		.loc 6 363 0 discriminator 3
 2027 0074 019B     		ldr	r3, [sp, #4]
 2028 0076 1B6B     		ldr	r3, [r3, #48]
 2029 0078 1B7A     		ldrb	r3, [r3, #8]	@ zero_extendqisi2
 2030 007a 1A46     		mov	r2, r3
 2031 007c 3D23     		movs	r3, #61
 2032 007e 03FA02F2 		lsl	r2, r3, r2
 2033 0082 019B     		ldr	r3, [sp, #4]
 2034 0084 1B6B     		ldr	r3, [r3, #48]
 2035 0086 5B68     		ldr	r3, [r3, #4]
 2036 0088 1A60     		str	r2, [r3]
 2037              		.loc 6 365 0 is_stmt 1 discriminator 3
 2038 008a 019B     		ldr	r3, [sp, #4]
 2039 008c 0022     		movs	r2, #0
 2040 008e 9A60     		str	r2, [r3, #8]
 2041              		.loc 6 367 0 discriminator 3
 2042 0090 BDF80230 		ldrh	r3, [sp, #2]
 2043 0094 03F48073 		and	r3, r3, #256
 2044 0098 002B     		cmp	r3, #0
 2045 009a 05D0     		beq	.L151
 2046              		.loc 6 368 0
ARM GAS  C:\Users\PCHAUT~1\AppData\Local\Temp\ccR4smAG.s 			page 37


 2047 009c 019B     		ldr	r3, [sp, #4]
 2048 009e 9B68     		ldr	r3, [r3, #8]
 2049 00a0 43F00102 		orr	r2, r3, #1
 2050 00a4 019B     		ldr	r3, [sp, #4]
 2051 00a6 9A60     		str	r2, [r3, #8]
 2052              	.L151:
 2053              		.loc 6 370 0
 2054 00a8 BDF80230 		ldrh	r3, [sp, #2]
 2055 00ac 03F40073 		and	r3, r3, #512
 2056 00b0 002B     		cmp	r3, #0
 2057 00b2 05D0     		beq	.L152
 2058              		.loc 6 371 0
 2059 00b4 019B     		ldr	r3, [sp, #4]
 2060 00b6 9B68     		ldr	r3, [r3, #8]
 2061 00b8 43F00202 		orr	r2, r3, #2
 2062 00bc 019B     		ldr	r3, [sp, #4]
 2063 00be 9A60     		str	r2, [r3, #8]
 2064              	.L152:
 2065              		.loc 6 373 0
 2066 00c0 BDF80230 		ldrh	r3, [sp, #2]
 2067 00c4 03F48063 		and	r3, r3, #1024
 2068 00c8 002B     		cmp	r3, #0
 2069 00ca 15D0     		beq	.L153
 2070              		.loc 6 374 0
 2071 00cc 019B     		ldr	r3, [sp, #4]
 2072 00ce 9B6B     		ldr	r3, [r3, #56]
 2073 00d0 5A68     		ldr	r2, [r3, #4]
 2074 00d2 019B     		ldr	r3, [sp, #4]
 2075 00d4 9B6B     		ldr	r3, [r3, #56]
 2076 00d6 22F40072 		bic	r2, r2, #512
 2077 00da 5A60     		str	r2, [r3, #4]
 2078              		.loc 6 375 0
 2079 00dc 019B     		ldr	r3, [sp, #4]
 2080 00de 9B6B     		ldr	r3, [r3, #56]
 2081 00e0 1A68     		ldr	r2, [r3]
 2082 00e2 019B     		ldr	r3, [sp, #4]
 2083 00e4 9B6B     		ldr	r3, [r3, #56]
 2084 00e6 42F40072 		orr	r2, r2, #512
 2085 00ea 1A60     		str	r2, [r3]
 2086              		.loc 6 376 0
 2087 00ec 019B     		ldr	r3, [sp, #4]
 2088 00ee 9B68     		ldr	r3, [r3, #8]
 2089 00f0 43F00402 		orr	r2, r3, #4
 2090 00f4 019B     		ldr	r3, [sp, #4]
 2091 00f6 9A60     		str	r2, [r3, #8]
 2092              	.L153:
 2093              		.loc 6 379 0
 2094 00f8 BDF80230 		ldrh	r3, [sp, #2]
 2095 00fc 03F40063 		and	r3, r3, #2048
 2096 0100 002B     		cmp	r3, #0
 2097 0102 05D0     		beq	.L154
 2098              		.loc 6 380 0
 2099 0104 019B     		ldr	r3, [sp, #4]
 2100 0106 9B68     		ldr	r3, [r3, #8]
 2101 0108 43F00802 		orr	r2, r3, #8
 2102 010c 019B     		ldr	r3, [sp, #4]
 2103 010e 9A60     		str	r2, [r3, #8]
ARM GAS  C:\Users\PCHAUT~1\AppData\Local\Temp\ccR4smAG.s 			page 38


 2104              	.L154:
 2105              		.loc 6 382 0
 2106 0110 BDF80230 		ldrh	r3, [sp, #2]
 2107 0114 03F48043 		and	r3, r3, #16384
 2108 0118 002B     		cmp	r3, #0
 2109 011a 05D0     		beq	.L155
 2110              		.loc 6 383 0
 2111 011c 019B     		ldr	r3, [sp, #4]
 2112 011e 9B68     		ldr	r3, [r3, #8]
 2113 0120 43F02002 		orr	r2, r3, #32
 2114 0124 019B     		ldr	r3, [sp, #4]
 2115 0126 9A60     		str	r2, [r3, #8]
 2116              	.L155:
 2117              		.loc 6 385 0
 2118 0128 BDF80230 		ldrh	r3, [sp, #2]
 2119 012c 03F48053 		and	r3, r3, #4096
 2120 0130 002B     		cmp	r3, #0
 2121 0132 05D0     		beq	.L156
 2122              		.loc 6 386 0
 2123 0134 019B     		ldr	r3, [sp, #4]
 2124 0136 9B68     		ldr	r3, [r3, #8]
 2125 0138 43F01002 		orr	r2, r3, #16
 2126 013c 019B     		ldr	r3, [sp, #4]
 2127 013e 9A60     		str	r2, [r3, #8]
 2128              	.L156:
 2129              		.loc 6 388 0
 2130 0140 BDF90230 		ldrsh	r3, [sp, #2]
 2131 0144 002B     		cmp	r3, #0
 2132 0146 05DA     		bge	.L157
 2133              		.loc 6 389 0
 2134 0148 019B     		ldr	r3, [sp, #4]
 2135 014a 9B68     		ldr	r3, [r3, #8]
 2136 014c 43F04002 		orr	r2, r3, #64
 2137 0150 019B     		ldr	r3, [sp, #4]
 2138 0152 9A60     		str	r2, [r3, #8]
 2139              	.L157:
 2140              		.loc 6 392 0
 2141 0154 019B     		ldr	r3, [sp, #4]
 2142 0156 9B68     		ldr	r3, [r3, #8]
 2143 0158 002B     		cmp	r3, #0
 2144 015a 0AD0     		beq	.L160
 2145              		.loc 6 393 0
 2146 015c FFF7FEFF 		bl	osalSysLockFromISR
 2147 0160 019B     		ldr	r3, [sp, #4]
 2148 0162 2033     		adds	r3, r3, #32
 2149 0164 6FF00101 		mvn	r1, #1
 2150 0168 1846     		mov	r0, r3
 2151 016a FFF7FEFF 		bl	osalThreadResumeI
 2152 016e FFF7FEFF 		bl	osalSysUnlockFromISR
 2153              	.L160:
 2154              		.loc 6 394 0
 2155 0172 00BF     		nop
 2156 0174 044B     		ldr	r3, .L161
 2157 0176 039A     		ldr	r2, [sp, #12]
 2158 0178 1B68     		ldr	r3, [r3]
 2159 017a 9A42     		cmp	r2, r3
 2160 017c 01D0     		beq	.L159
ARM GAS  C:\Users\PCHAUT~1\AppData\Local\Temp\ccR4smAG.s 			page 39


 2161 017e FFF7FEFF 		bl	__stack_chk_fail
 2162              	.L159:
 2163 0182 05B0     		add	sp, sp, #20
 2164              		.cfi_def_cfa_offset 4
 2165              		@ sp needed
 2166 0184 5DF804FB 		ldr	pc, [sp], #4
 2167              	.L162:
 2168              		.align	2
 2169              	.L161:
 2170 0188 00000000 		.word	__stack_chk_guard
 2171              		.cfi_endproc
 2172              	.LFE262:
 2173              		.size	i2c_lld_serve_error_interrupt, .-i2c_lld_serve_error_interrupt
 2174              		.section	.text.VectorBC,"ax",%progbits
 2175              		.align	1
 2176              		.p2align 4,,15
 2177              		.global	VectorBC
 2178              		.syntax unified
 2179              		.thumb
 2180              		.thumb_func
 2181              		.fpu fpv4-sp-d16
 2182              		.type	VectorBC, %function
 2183              	VectorBC:
 2184              	.LFB263:
 2185              		.loc 6 406 0
 2186              		.cfi_startproc
 2187              		@ args = 0, pretend = 0, frame = 8
 2188              		@ frame_needed = 0, uses_anonymous_args = 0
 2189 0000 00B5     		push	{lr}
 2190              		.cfi_def_cfa_offset 4
 2191              		.cfi_offset 14, -4
 2192 0002 83B0     		sub	sp, sp, #12
 2193              		.cfi_def_cfa_offset 16
 2194              		.loc 6 406 0
 2195 0004 0C4B     		ldr	r3, .L165
 2196 0006 1B68     		ldr	r3, [r3]
 2197 0008 0193     		str	r3, [sp, #4]
 2198              		.loc 6 408 0
 2199 000a FFF7FEFF 		bl	_stats_increase_irq
 2200 000e FFF7FEFF 		bl	_dbg_check_enter_isr
 2201              		.loc 6 410 0
 2202 0012 0A48     		ldr	r0, .L165+4
 2203 0014 FFF7FEFF 		bl	i2c_lld_serve_event_interrupt
 2204              		.loc 6 412 0
 2205 0018 FFF7FEFF 		bl	_dbg_check_leave_isr
 2206 001c FFF7FEFF 		bl	_port_irq_epilogue
 2207              		.loc 6 413 0
 2208 0020 00BF     		nop
 2209 0022 054B     		ldr	r3, .L165
 2210 0024 019A     		ldr	r2, [sp, #4]
 2211 0026 1B68     		ldr	r3, [r3]
 2212 0028 9A42     		cmp	r2, r3
 2213 002a 01D0     		beq	.L164
 2214 002c FFF7FEFF 		bl	__stack_chk_fail
 2215              	.L164:
 2216 0030 03B0     		add	sp, sp, #12
 2217              		.cfi_def_cfa_offset 4
ARM GAS  C:\Users\PCHAUT~1\AppData\Local\Temp\ccR4smAG.s 			page 40


 2218              		@ sp needed
 2219 0032 5DF804FB 		ldr	pc, [sp], #4
 2220              	.L166:
 2221 0036 00BF     		.align	2
 2222              	.L165:
 2223 0038 00000000 		.word	__stack_chk_guard
 2224 003c 00000000 		.word	I2CD1
 2225              		.cfi_endproc
 2226              	.LFE263:
 2227              		.size	VectorBC, .-VectorBC
 2228              		.section	.text.VectorC0,"ax",%progbits
 2229              		.align	1
 2230              		.p2align 4,,15
 2231              		.global	VectorC0
 2232              		.syntax unified
 2233              		.thumb
 2234              		.thumb_func
 2235              		.fpu fpv4-sp-d16
 2236              		.type	VectorC0, %function
 2237              	VectorC0:
 2238              	.LFB264:
 2239              		.loc 6 418 0
 2240              		.cfi_startproc
 2241              		@ args = 0, pretend = 0, frame = 8
 2242              		@ frame_needed = 0, uses_anonymous_args = 0
 2243 0000 00B5     		push	{lr}
 2244              		.cfi_def_cfa_offset 4
 2245              		.cfi_offset 14, -4
 2246 0002 83B0     		sub	sp, sp, #12
 2247              		.cfi_def_cfa_offset 16
 2248              		.loc 6 418 0
 2249 0004 144B     		ldr	r3, .L169
 2250 0006 1B68     		ldr	r3, [r3]
 2251 0008 0193     		str	r3, [sp, #4]
 2252              		.loc 6 419 0
 2253 000a 144B     		ldr	r3, .L169+4
 2254 000c 9B6B     		ldr	r3, [r3, #56]
 2255 000e 5B69     		ldr	r3, [r3, #20]
 2256 0010 ADF80230 		strh	r3, [sp, #2]	@ movhi
 2257              		.loc 6 421 0
 2258 0014 FFF7FEFF 		bl	_stats_increase_irq
 2259 0018 FFF7FEFF 		bl	_dbg_check_enter_isr
 2260              		.loc 6 423 0
 2261 001c BDF80230 		ldrh	r3, [sp, #2]
 2262 0020 03F45F43 		and	r3, r3, #57088
 2263 0024 DA43     		mvns	r2, r3
 2264 0026 0D4B     		ldr	r3, .L169+4
 2265 0028 9B6B     		ldr	r3, [r3, #56]
 2266 002a 5A61     		str	r2, [r3, #20]
 2267              		.loc 6 424 0
 2268 002c BDF80230 		ldrh	r3, [sp, #2]
 2269 0030 1946     		mov	r1, r3
 2270 0032 0A48     		ldr	r0, .L169+4
 2271 0034 FFF7FEFF 		bl	i2c_lld_serve_error_interrupt
 2272              		.loc 6 426 0
 2273 0038 FFF7FEFF 		bl	_dbg_check_leave_isr
 2274 003c FFF7FEFF 		bl	_port_irq_epilogue
ARM GAS  C:\Users\PCHAUT~1\AppData\Local\Temp\ccR4smAG.s 			page 41


 2275              		.loc 6 427 0
 2276 0040 00BF     		nop
 2277 0042 054B     		ldr	r3, .L169
 2278 0044 019A     		ldr	r2, [sp, #4]
 2279 0046 1B68     		ldr	r3, [r3]
 2280 0048 9A42     		cmp	r2, r3
 2281 004a 01D0     		beq	.L168
 2282 004c FFF7FEFF 		bl	__stack_chk_fail
 2283              	.L168:
 2284 0050 03B0     		add	sp, sp, #12
 2285              		.cfi_def_cfa_offset 4
 2286              		@ sp needed
 2287 0052 5DF804FB 		ldr	pc, [sp], #4
 2288              	.L170:
 2289 0056 00BF     		.align	2
 2290              	.L169:
 2291 0058 00000000 		.word	__stack_chk_guard
 2292 005c 00000000 		.word	I2CD1
 2293              		.cfi_endproc
 2294              	.LFE264:
 2295              		.size	VectorC0, .-VectorC0
 2296              		.section	.text.i2c_lld_init,"ax",%progbits
 2297              		.align	1
 2298              		.p2align 4,,15
 2299              		.global	i2c_lld_init
 2300              		.syntax unified
 2301              		.thumb
 2302              		.thumb_func
 2303              		.fpu fpv4-sp-d16
 2304              		.type	i2c_lld_init, %function
 2305              	i2c_lld_init:
 2306              	.LFB265:
 2307              		.loc 6 503 0
 2308              		.cfi_startproc
 2309              		@ args = 0, pretend = 0, frame = 8
 2310              		@ frame_needed = 0, uses_anonymous_args = 0
 2311 0000 00B5     		push	{lr}
 2312              		.cfi_def_cfa_offset 4
 2313              		.cfi_offset 14, -4
 2314 0002 83B0     		sub	sp, sp, #12
 2315              		.cfi_def_cfa_offset 16
 2316              		.loc 6 503 0
 2317 0004 0E4B     		ldr	r3, .L173
 2318 0006 1B68     		ldr	r3, [r3]
 2319 0008 0193     		str	r3, [sp, #4]
 2320              		.loc 6 506 0
 2321 000a 0E48     		ldr	r0, .L173+4
 2322 000c FFF7FEFF 		bl	i2cObjectInit
 2323              		.loc 6 507 0
 2324 0010 0C4B     		ldr	r3, .L173+4
 2325 0012 0022     		movs	r2, #0
 2326 0014 1A62     		str	r2, [r3, #32]
 2327              		.loc 6 508 0
 2328 0016 0B4B     		ldr	r3, .L173+4
 2329 0018 0B4A     		ldr	r2, .L173+8
 2330 001a 9A63     		str	r2, [r3, #56]
 2331              		.loc 6 509 0
ARM GAS  C:\Users\PCHAUT~1\AppData\Local\Temp\ccR4smAG.s 			page 42


 2332 001c 094B     		ldr	r3, .L173+4
 2333 001e 0B4A     		ldr	r2, .L173+12
 2334 0020 1A63     		str	r2, [r3, #48]
 2335              		.loc 6 510 0
 2336 0022 084B     		ldr	r3, .L173+4
 2337 0024 0A4A     		ldr	r2, .L173+16
 2338 0026 5A63     		str	r2, [r3, #52]
 2339              		.loc 6 528 0
 2340 0028 00BF     		nop
 2341 002a 054B     		ldr	r3, .L173
 2342 002c 019A     		ldr	r2, [sp, #4]
 2343 002e 1B68     		ldr	r3, [r3]
 2344 0030 9A42     		cmp	r2, r3
 2345 0032 01D0     		beq	.L172
 2346 0034 FFF7FEFF 		bl	__stack_chk_fail
 2347              	.L172:
 2348 0038 03B0     		add	sp, sp, #12
 2349              		.cfi_def_cfa_offset 4
 2350              		@ sp needed
 2351 003a 5DF804FB 		ldr	pc, [sp], #4
 2352              	.L174:
 2353 003e 00BF     		.align	2
 2354              	.L173:
 2355 0040 00000000 		.word	__stack_chk_guard
 2356 0044 00000000 		.word	I2CD1
 2357 0048 00540040 		.word	1073763328
 2358 004c 00000000 		.word	_stm32_dma_streams
 2359 0050 54000000 		.word	_stm32_dma_streams+84
 2360              		.cfi_endproc
 2361              	.LFE265:
 2362              		.size	i2c_lld_init, .-i2c_lld_init
 2363              		.section	.text.i2c_lld_start,"ax",%progbits
 2364              		.align	1
 2365              		.p2align 4,,15
 2366              		.global	i2c_lld_start
 2367              		.syntax unified
 2368              		.thumb
 2369              		.thumb_func
 2370              		.fpu fpv4-sp-d16
 2371              		.type	i2c_lld_start, %function
 2372              	i2c_lld_start:
 2373              	.LFB266:
 2374              		.loc 6 537 0
 2375              		.cfi_startproc
 2376              		@ args = 0, pretend = 0, frame = 24
 2377              		@ frame_needed = 0, uses_anonymous_args = 0
 2378 0000 00B5     		push	{lr}
 2379              		.cfi_def_cfa_offset 4
 2380              		.cfi_offset 14, -4
 2381 0002 87B0     		sub	sp, sp, #28
 2382              		.cfi_def_cfa_offset 32
 2383 0004 0190     		str	r0, [sp, #4]
 2384              		.loc 6 537 0
 2385 0006 474B     		ldr	r3, .L180
 2386 0008 1B68     		ldr	r3, [r3]
 2387 000a 0593     		str	r3, [sp, #20]
 2388              		.loc 6 538 0
ARM GAS  C:\Users\PCHAUT~1\AppData\Local\Temp\ccR4smAG.s 			page 43


 2389 000c 019B     		ldr	r3, [sp, #4]
 2390 000e 9B6B     		ldr	r3, [r3, #56]
 2391 0010 0493     		str	r3, [sp, #16]
 2392              		.loc 6 540 0
 2393 0012 019B     		ldr	r3, [sp, #4]
 2394 0014 40F25642 		movw	r2, #1110
 2395 0018 DA62     		str	r2, [r3, #44]
 2396              		.loc 6 544 0
 2397 001a 019B     		ldr	r3, [sp, #4]
 2398 001c 40F21642 		movw	r2, #1046
 2399 0020 9A62     		str	r2, [r3, #40]
 2400              		.loc 6 550 0
 2401 0022 019B     		ldr	r3, [sp, #4]
 2402 0024 1B78     		ldrb	r3, [r3]	@ zero_extendqisi2
 2403 0026 012B     		cmp	r3, #1
 2404 0028 4CD1     		bne	.L176
 2405              		.loc 6 553 0
 2406 002a 019B     		ldr	r3, [sp, #4]
 2407 002c 3E4A     		ldr	r2, .L180+4
 2408 002e 9342     		cmp	r3, r2
 2409 0030 48D1     		bne	.L176
 2410              	.LBB10:
 2411              		.loc 6 556 0
 2412 0032 3E4B     		ldr	r3, .L180+8
 2413 0034 1B6A     		ldr	r3, [r3, #32]
 2414 0036 3D4A     		ldr	r2, .L180+8
 2415 0038 43F40013 		orr	r3, r3, #2097152
 2416 003c 1362     		str	r3, [r2, #32]
 2417 003e 3B4B     		ldr	r3, .L180+8
 2418 0040 0022     		movs	r2, #0
 2419 0042 1A62     		str	r2, [r3, #32]
 2420              		.loc 6 557 0
 2421 0044 019B     		ldr	r3, [sp, #4]
 2422 0046 186B     		ldr	r0, [r3, #48]
 2423 0048 019B     		ldr	r3, [sp, #4]
 2424 004a 394A     		ldr	r2, .L180+12
 2425 004c 0521     		movs	r1, #5
 2426 004e FFF7FEFF 		bl	dmaStreamAllocate
 2427 0052 0346     		mov	r3, r0
 2428 0054 8DF80F30 		strb	r3, [sp, #15]
 2429              		.loc 6 561 0
 2430 0058 9DF80F30 		ldrb	r3, [sp, #15]	@ zero_extendqisi2
 2431 005c 002B     		cmp	r3, #0
 2432 005e 02D0     		beq	.L177
 2433              		.loc 6 561 0 is_stmt 0 discriminator 2
 2434 0060 3448     		ldr	r0, .L180+16
 2435 0062 FFF7FEFF 		bl	chSysHalt
 2436              	.L177:
 2437              		.loc 6 562 0 is_stmt 1
 2438 0066 019B     		ldr	r3, [sp, #4]
 2439 0068 586B     		ldr	r0, [r3, #52]
 2440 006a 019B     		ldr	r3, [sp, #4]
 2441 006c 324A     		ldr	r2, .L180+20
 2442 006e 0521     		movs	r1, #5
 2443 0070 FFF7FEFF 		bl	dmaStreamAllocate
 2444 0074 0346     		mov	r3, r0
 2445 0076 8DF80F30 		strb	r3, [sp, #15]
ARM GAS  C:\Users\PCHAUT~1\AppData\Local\Temp\ccR4smAG.s 			page 44


 2446              		.loc 6 566 0
 2447 007a 9DF80F30 		ldrb	r3, [sp, #15]	@ zero_extendqisi2
 2448 007e 002B     		cmp	r3, #0
 2449 0080 02D0     		beq	.L178
 2450              		.loc 6 566 0 is_stmt 0 discriminator 2
 2451 0082 2C48     		ldr	r0, .L180+16
 2452 0084 FFF7FEFF 		bl	chSysHalt
 2453              	.L178:
 2454              		.loc 6 567 0 is_stmt 1
 2455 0088 284B     		ldr	r3, .L180+8
 2456 008a 1B6C     		ldr	r3, [r3, #64]
 2457 008c 274A     		ldr	r2, .L180+8
 2458 008e 43F40013 		orr	r3, r3, #2097152
 2459 0092 1364     		str	r3, [r2, #64]
 2460              		.loc 6 568 0
 2461 0094 0521     		movs	r1, #5
 2462 0096 1F20     		movs	r0, #31
 2463 0098 FFF7FEFF 		bl	nvicEnableVector
 2464              		.loc 6 569 0
 2465 009c 0521     		movs	r1, #5
 2466 009e 2020     		movs	r0, #32
 2467 00a0 FFF7FEFF 		bl	nvicEnableVector
 2468              		.loc 6 571 0
 2469 00a4 019B     		ldr	r3, [sp, #4]
 2470 00a6 9B6A     		ldr	r3, [r3, #40]
 2471 00a8 43F00073 		orr	r3, r3, #33554432
 2472 00ac 43F44033 		orr	r3, r3, #196608
 2473 00b0 019A     		ldr	r2, [sp, #4]
 2474 00b2 9362     		str	r3, [r2, #40]
 2475              		.loc 6 573 0
 2476 00b4 019B     		ldr	r3, [sp, #4]
 2477 00b6 DB6A     		ldr	r3, [r3, #44]
 2478 00b8 43F00073 		orr	r3, r3, #33554432
 2479 00bc 43F44033 		orr	r3, r3, #196608
 2480 00c0 019A     		ldr	r2, [sp, #4]
 2481 00c2 D362     		str	r3, [r2, #44]
 2482              	.L176:
 2483              	.LBE10:
 2484              		.loc 6 632 0
 2485 00c4 049B     		ldr	r3, [sp, #16]
 2486 00c6 03F11002 		add	r2, r3, #16
 2487 00ca 019B     		ldr	r3, [sp, #4]
 2488 00cc 1B6B     		ldr	r3, [r3, #48]
 2489 00ce 1B68     		ldr	r3, [r3]
 2490 00d0 9A60     		str	r2, [r3, #8]
 2491              		.loc 6 633 0
 2492 00d2 049B     		ldr	r3, [sp, #16]
 2493 00d4 03F11002 		add	r2, r3, #16
 2494 00d8 019B     		ldr	r3, [sp, #4]
 2495 00da 5B6B     		ldr	r3, [r3, #52]
 2496 00dc 1B68     		ldr	r3, [r3]
 2497 00de 9A60     		str	r2, [r3, #8]
 2498              		.loc 6 636 0
 2499 00e0 049B     		ldr	r3, [sp, #16]
 2500 00e2 4FF40042 		mov	r2, #32768
 2501 00e6 1A60     		str	r2, [r3]
 2502              		.loc 6 637 0
ARM GAS  C:\Users\PCHAUT~1\AppData\Local\Temp\ccR4smAG.s 			page 45


 2503 00e8 049B     		ldr	r3, [sp, #16]
 2504 00ea 0022     		movs	r2, #0
 2505 00ec 1A60     		str	r2, [r3]
 2506              		.loc 6 638 0
 2507 00ee 049B     		ldr	r3, [sp, #16]
 2508 00f0 4FF41062 		mov	r2, #2304
 2509 00f4 5A60     		str	r2, [r3, #4]
 2510              		.loc 6 641 0
 2511 00f6 0198     		ldr	r0, [sp, #4]
 2512 00f8 FFF7FEFF 		bl	i2c_lld_set_clock
 2513              		.loc 6 642 0
 2514 00fc 0198     		ldr	r0, [sp, #4]
 2515 00fe FFF7FEFF 		bl	i2c_lld_set_opmode
 2516              		.loc 6 645 0
 2517 0102 049B     		ldr	r3, [sp, #16]
 2518 0104 1B68     		ldr	r3, [r3]
 2519 0106 43F00102 		orr	r2, r3, #1
 2520 010a 049B     		ldr	r3, [sp, #16]
 2521 010c 1A60     		str	r2, [r3]
 2522              		.loc 6 646 0
 2523 010e 00BF     		nop
 2524 0110 044B     		ldr	r3, .L180
 2525 0112 059A     		ldr	r2, [sp, #20]
 2526 0114 1B68     		ldr	r3, [r3]
 2527 0116 9A42     		cmp	r2, r3
 2528 0118 01D0     		beq	.L179
 2529 011a FFF7FEFF 		bl	__stack_chk_fail
 2530              	.L179:
 2531 011e 07B0     		add	sp, sp, #28
 2532              		.cfi_def_cfa_offset 4
 2533              		@ sp needed
 2534 0120 5DF804FB 		ldr	pc, [sp], #4
 2535              	.L181:
 2536              		.align	2
 2537              	.L180:
 2538 0124 00000000 		.word	__stack_chk_guard
 2539 0128 00000000 		.word	I2CD1
 2540 012c 00380240 		.word	1073887232
 2541 0130 00000000 		.word	i2c_lld_serve_rx_end_irq
 2542 0134 00000000 		.word	__func__.9922
 2543 0138 00000000 		.word	i2c_lld_serve_tx_end_irq
 2544              		.cfi_endproc
 2545              	.LFE266:
 2546              		.size	i2c_lld_start, .-i2c_lld_start
 2547              		.section	.text.i2c_lld_stop,"ax",%progbits
 2548              		.align	1
 2549              		.p2align 4,,15
 2550              		.global	i2c_lld_stop
 2551              		.syntax unified
 2552              		.thumb
 2553              		.thumb_func
 2554              		.fpu fpv4-sp-d16
 2555              		.type	i2c_lld_stop, %function
 2556              	i2c_lld_stop:
 2557              	.LFB267:
 2558              		.loc 6 655 0
 2559              		.cfi_startproc
ARM GAS  C:\Users\PCHAUT~1\AppData\Local\Temp\ccR4smAG.s 			page 46


 2560              		@ args = 0, pretend = 0, frame = 16
 2561              		@ frame_needed = 0, uses_anonymous_args = 0
 2562 0000 00B5     		push	{lr}
 2563              		.cfi_def_cfa_offset 4
 2564              		.cfi_offset 14, -4
 2565 0002 85B0     		sub	sp, sp, #20
 2566              		.cfi_def_cfa_offset 24
 2567 0004 0190     		str	r0, [sp, #4]
 2568              		.loc 6 655 0
 2569 0006 174B     		ldr	r3, .L186
 2570 0008 1B68     		ldr	r3, [r3]
 2571 000a 0393     		str	r3, [sp, #12]
 2572              		.loc 6 658 0
 2573 000c 019B     		ldr	r3, [sp, #4]
 2574 000e 1B78     		ldrb	r3, [r3]	@ zero_extendqisi2
 2575 0010 012B     		cmp	r3, #1
 2576 0012 1CD0     		beq	.L185
 2577              		.loc 6 661 0
 2578 0014 0198     		ldr	r0, [sp, #4]
 2579 0016 FFF7FEFF 		bl	i2c_lld_abort_operation
 2580              		.loc 6 662 0
 2581 001a 019B     		ldr	r3, [sp, #4]
 2582 001c 5B6B     		ldr	r3, [r3, #52]
 2583 001e 1846     		mov	r0, r3
 2584 0020 FFF7FEFF 		bl	dmaStreamRelease
 2585              		.loc 6 663 0
 2586 0024 019B     		ldr	r3, [sp, #4]
 2587 0026 1B6B     		ldr	r3, [r3, #48]
 2588 0028 1846     		mov	r0, r3
 2589 002a FFF7FEFF 		bl	dmaStreamRelease
 2590              		.loc 6 666 0
 2591 002e 019B     		ldr	r3, [sp, #4]
 2592 0030 0D4A     		ldr	r2, .L186+4
 2593 0032 9342     		cmp	r3, r2
 2594 0034 0BD1     		bne	.L185
 2595              		.loc 6 667 0
 2596 0036 1F20     		movs	r0, #31
 2597 0038 FFF7FEFF 		bl	nvicDisableVector
 2598              		.loc 6 668 0
 2599 003c 2020     		movs	r0, #32
 2600 003e FFF7FEFF 		bl	nvicDisableVector
 2601              		.loc 6 669 0
 2602 0042 0A4B     		ldr	r3, .L186+8
 2603 0044 1B6C     		ldr	r3, [r3, #64]
 2604 0046 094A     		ldr	r2, .L186+8
 2605 0048 23F40013 		bic	r3, r3, #2097152
 2606 004c 1364     		str	r3, [r2, #64]
 2607              	.L185:
 2608              		.loc 6 689 0
 2609 004e 00BF     		nop
 2610 0050 044B     		ldr	r3, .L186
 2611 0052 039A     		ldr	r2, [sp, #12]
 2612 0054 1B68     		ldr	r3, [r3]
 2613 0056 9A42     		cmp	r2, r3
 2614 0058 01D0     		beq	.L184
 2615 005a FFF7FEFF 		bl	__stack_chk_fail
 2616              	.L184:
ARM GAS  C:\Users\PCHAUT~1\AppData\Local\Temp\ccR4smAG.s 			page 47


 2617 005e 05B0     		add	sp, sp, #20
 2618              		.cfi_def_cfa_offset 4
 2619              		@ sp needed
 2620 0060 5DF804FB 		ldr	pc, [sp], #4
 2621              	.L187:
 2622              		.align	2
 2623              	.L186:
 2624 0064 00000000 		.word	__stack_chk_guard
 2625 0068 00000000 		.word	I2CD1
 2626 006c 00380240 		.word	1073887232
 2627              		.cfi_endproc
 2628              	.LFE267:
 2629              		.size	i2c_lld_stop, .-i2c_lld_stop
 2630              		.section	.text.i2c_lld_master_receive_timeout,"ax",%progbits
 2631              		.align	1
 2632              		.p2align 4,,15
 2633              		.global	i2c_lld_master_receive_timeout
 2634              		.syntax unified
 2635              		.thumb
 2636              		.thumb_func
 2637              		.fpu fpv4-sp-d16
 2638              		.type	i2c_lld_master_receive_timeout, %function
 2639              	i2c_lld_master_receive_timeout:
 2640              	.LFB268:
 2641              		.loc 6 716 0
 2642              		.cfi_startproc
 2643              		@ args = 4, pretend = 0, frame = 40
 2644              		@ frame_needed = 0, uses_anonymous_args = 0
 2645 0000 00B5     		push	{lr}
 2646              		.cfi_def_cfa_offset 4
 2647              		.cfi_offset 14, -4
 2648 0002 8BB0     		sub	sp, sp, #44
 2649              		.cfi_def_cfa_offset 48
 2650 0004 0590     		str	r0, [sp, #20]
 2651 0006 0392     		str	r2, [sp, #12]
 2652 0008 0293     		str	r3, [sp, #8]
 2653 000a 0B46     		mov	r3, r1	@ movhi
 2654 000c ADF81230 		strh	r3, [sp, #18]	@ movhi
 2655 0010 0C9B     		ldr	r3, [sp, #48]
 2656 0012 0193     		str	r3, [sp, #4]
 2657              		.loc 6 716 0
 2658 0014 354B     		ldr	r3, .L197
 2659 0016 1B68     		ldr	r3, [r3]
 2660 0018 0993     		str	r3, [sp, #36]
 2661              		.loc 6 717 0
 2662 001a 059B     		ldr	r3, [sp, #20]
 2663 001c 9B6B     		ldr	r3, [r3, #56]
 2664 001e 0693     		str	r3, [sp, #24]
 2665              		.loc 6 725 0
 2666 0020 059B     		ldr	r3, [sp, #20]
 2667 0022 0022     		movs	r2, #0
 2668 0024 9A60     		str	r2, [r3, #8]
 2669              		.loc 6 728 0
 2670 0026 BDF81230 		ldrh	r3, [sp, #18]
 2671 002a 5B00     		lsls	r3, r3, #1
 2672 002c 1BB2     		sxth	r3, r3
 2673 002e 43F00103 		orr	r3, r3, #1
ARM GAS  C:\Users\PCHAUT~1\AppData\Local\Temp\ccR4smAG.s 			page 48


 2674 0032 1BB2     		sxth	r3, r3
 2675 0034 9AB2     		uxth	r2, r3
 2676 0036 059B     		ldr	r3, [sp, #20]
 2677 0038 9A84     		strh	r2, [r3, #36]	@ movhi
 2678              		.loc 6 731 0
 2679 003a FFF7FEFF 		bl	osalSysUnlock
 2680              		.loc 6 734 0
 2681 003e 059B     		ldr	r3, [sp, #20]
 2682 0040 1B6B     		ldr	r3, [r3, #48]
 2683 0042 1B68     		ldr	r3, [r3]
 2684 0044 059A     		ldr	r2, [sp, #20]
 2685 0046 926A     		ldr	r2, [r2, #40]
 2686 0048 1A60     		str	r2, [r3]
 2687              		.loc 6 735 0
 2688 004a 059B     		ldr	r3, [sp, #20]
 2689 004c 1B6B     		ldr	r3, [r3, #48]
 2690 004e 1B68     		ldr	r3, [r3]
 2691 0050 039A     		ldr	r2, [sp, #12]
 2692 0052 DA60     		str	r2, [r3, #12]
 2693              		.loc 6 736 0
 2694 0054 059B     		ldr	r3, [sp, #20]
 2695 0056 1B6B     		ldr	r3, [r3, #48]
 2696 0058 1B68     		ldr	r3, [r3]
 2697 005a 029A     		ldr	r2, [sp, #8]
 2698 005c 5A60     		str	r2, [r3, #4]
 2699              		.loc 6 739 0
 2700 005e FFF7FEFF 		bl	osalOsGetSystemTimeX
 2701 0062 0790     		str	r0, [sp, #28]
 2702              		.loc 6 740 0
 2703 0064 079B     		ldr	r3, [sp, #28]
 2704 0066 3233     		adds	r3, r3, #50
 2705 0068 0893     		str	r3, [sp, #32]
 2706              	.L193:
 2707              		.loc 6 745 0
 2708 006a FFF7FEFF 		bl	osalSysLock
 2709              		.loc 6 749 0
 2710 006e 069B     		ldr	r3, [sp, #24]
 2711 0070 9B69     		ldr	r3, [r3, #24]
 2712 0072 03F00203 		and	r3, r3, #2
 2713 0076 002B     		cmp	r3, #0
 2714 0078 05D1     		bne	.L189
 2715              		.loc 6 749 0 is_stmt 0 discriminator 1
 2716 007a 069B     		ldr	r3, [sp, #24]
 2717 007c 1B68     		ldr	r3, [r3]
 2718 007e 03F40073 		and	r3, r3, #512
 2719 0082 002B     		cmp	r3, #0
 2720 0084 13D0     		beq	.L196
 2721              	.L189:
 2722              		.loc 6 754 0 is_stmt 1
 2723 0086 FFF7FEFF 		bl	osalOsGetSystemTimeX
 2724 008a 0346     		mov	r3, r0
 2725 008c 089A     		ldr	r2, [sp, #32]
 2726 008e 0799     		ldr	r1, [sp, #28]
 2727 0090 1846     		mov	r0, r3
 2728 0092 FFF7FEFF 		bl	osalOsIsTimeWithinX
 2729 0096 0346     		mov	r3, r0
 2730 0098 83F00103 		eor	r3, r3, #1
ARM GAS  C:\Users\PCHAUT~1\AppData\Local\Temp\ccR4smAG.s 			page 49


 2731 009c DBB2     		uxtb	r3, r3
 2732 009e 002B     		cmp	r3, #0
 2733 00a0 02D0     		beq	.L191
 2734              		.loc 6 755 0
 2735 00a2 4FF0FF33 		mov	r3, #-1
 2736 00a6 16E0     		b	.L192
 2737              	.L191:
 2738              		.loc 6 757 0
 2739 00a8 FFF7FEFF 		bl	osalSysUnlock
 2740              		.loc 6 745 0
 2741 00ac DDE7     		b	.L193
 2742              	.L196:
 2743              		.loc 6 750 0
 2744 00ae 00BF     		nop
 2745              		.loc 6 761 0
 2746 00b0 069B     		ldr	r3, [sp, #24]
 2747 00b2 5B68     		ldr	r3, [r3, #4]
 2748 00b4 43F40072 		orr	r2, r3, #512
 2749 00b8 069B     		ldr	r3, [sp, #24]
 2750 00ba 5A60     		str	r2, [r3, #4]
 2751              		.loc 6 762 0
 2752 00bc 069B     		ldr	r3, [sp, #24]
 2753 00be 1B68     		ldr	r3, [r3]
 2754 00c0 43F4A062 		orr	r2, r3, #1280
 2755 00c4 069B     		ldr	r3, [sp, #24]
 2756 00c6 1A60     		str	r2, [r3]
 2757              		.loc 6 765 0
 2758 00c8 059B     		ldr	r3, [sp, #20]
 2759 00ca 2033     		adds	r3, r3, #32
 2760 00cc 0199     		ldr	r1, [sp, #4]
 2761 00ce 1846     		mov	r0, r3
 2762 00d0 FFF7FEFF 		bl	osalThreadSuspendTimeoutS
 2763 00d4 0346     		mov	r3, r0
 2764              	.L192:
 2765              		.loc 6 766 0
 2766 00d6 1846     		mov	r0, r3
 2767 00d8 044B     		ldr	r3, .L197
 2768 00da 099A     		ldr	r2, [sp, #36]
 2769 00dc 1B68     		ldr	r3, [r3]
 2770 00de 9A42     		cmp	r2, r3
 2771 00e0 01D0     		beq	.L194
 2772 00e2 FFF7FEFF 		bl	__stack_chk_fail
 2773              	.L194:
 2774 00e6 0BB0     		add	sp, sp, #44
 2775              		.cfi_def_cfa_offset 4
 2776              		@ sp needed
 2777 00e8 5DF804FB 		ldr	pc, [sp], #4
 2778              	.L198:
 2779              		.align	2
 2780              	.L197:
 2781 00ec 00000000 		.word	__stack_chk_guard
 2782              		.cfi_endproc
 2783              	.LFE268:
 2784              		.size	i2c_lld_master_receive_timeout, .-i2c_lld_master_receive_timeout
 2785              		.section	.text.i2c_lld_master_transmit_timeout,"ax",%progbits
 2786              		.align	1
 2787              		.p2align 4,,15
ARM GAS  C:\Users\PCHAUT~1\AppData\Local\Temp\ccR4smAG.s 			page 50


 2788              		.global	i2c_lld_master_transmit_timeout
 2789              		.syntax unified
 2790              		.thumb
 2791              		.thumb_func
 2792              		.fpu fpv4-sp-d16
 2793              		.type	i2c_lld_master_transmit_timeout, %function
 2794              	i2c_lld_master_transmit_timeout:
 2795              	.LFB269:
 2796              		.loc 6 796 0
 2797              		.cfi_startproc
 2798              		@ args = 12, pretend = 0, frame = 48
 2799              		@ frame_needed = 0, uses_anonymous_args = 0
 2800 0000 00B5     		push	{lr}
 2801              		.cfi_def_cfa_offset 4
 2802              		.cfi_offset 14, -4
 2803 0002 8DB0     		sub	sp, sp, #52
 2804              		.cfi_def_cfa_offset 56
 2805 0004 0790     		str	r0, [sp, #28]
 2806 0006 0592     		str	r2, [sp, #20]
 2807 0008 0493     		str	r3, [sp, #16]
 2808 000a 0B46     		mov	r3, r1	@ movhi
 2809 000c ADF81A30 		strh	r3, [sp, #26]	@ movhi
 2810 0010 0E9B     		ldr	r3, [sp, #56]
 2811 0012 0393     		str	r3, [sp, #12]
 2812 0014 0F9B     		ldr	r3, [sp, #60]
 2813 0016 0293     		str	r3, [sp, #8]
 2814 0018 109B     		ldr	r3, [sp, #64]
 2815 001a 0193     		str	r3, [sp, #4]
 2816              		.loc 6 796 0
 2817 001c 3B4B     		ldr	r3, .L208
 2818 001e 1B68     		ldr	r3, [r3]
 2819 0020 0B93     		str	r3, [sp, #44]
 2820              		.loc 6 797 0
 2821 0022 079B     		ldr	r3, [sp, #28]
 2822 0024 9B6B     		ldr	r3, [r3, #56]
 2823 0026 0893     		str	r3, [sp, #32]
 2824              		.loc 6 805 0
 2825 0028 079B     		ldr	r3, [sp, #28]
 2826 002a 0022     		movs	r2, #0
 2827 002c 9A60     		str	r2, [r3, #8]
 2828              		.loc 6 808 0
 2829 002e BDF81A30 		ldrh	r3, [sp, #26]	@ movhi
 2830 0032 5B00     		lsls	r3, r3, #1
 2831 0034 9AB2     		uxth	r2, r3
 2832 0036 079B     		ldr	r3, [sp, #28]
 2833 0038 9A84     		strh	r2, [r3, #36]	@ movhi
 2834              		.loc 6 811 0
 2835 003a FFF7FEFF 		bl	osalSysUnlock
 2836              		.loc 6 814 0
 2837 003e 079B     		ldr	r3, [sp, #28]
 2838 0040 5B6B     		ldr	r3, [r3, #52]
 2839 0042 1B68     		ldr	r3, [r3]
 2840 0044 079A     		ldr	r2, [sp, #28]
 2841 0046 D26A     		ldr	r2, [r2, #44]
 2842 0048 1A60     		str	r2, [r3]
 2843              		.loc 6 815 0
 2844 004a 079B     		ldr	r3, [sp, #28]
ARM GAS  C:\Users\PCHAUT~1\AppData\Local\Temp\ccR4smAG.s 			page 51


 2845 004c 5B6B     		ldr	r3, [r3, #52]
 2846 004e 1B68     		ldr	r3, [r3]
 2847 0050 059A     		ldr	r2, [sp, #20]
 2848 0052 DA60     		str	r2, [r3, #12]
 2849              		.loc 6 816 0
 2850 0054 079B     		ldr	r3, [sp, #28]
 2851 0056 5B6B     		ldr	r3, [r3, #52]
 2852 0058 1B68     		ldr	r3, [r3]
 2853 005a 049A     		ldr	r2, [sp, #16]
 2854 005c 5A60     		str	r2, [r3, #4]
 2855              		.loc 6 819 0
 2856 005e 079B     		ldr	r3, [sp, #28]
 2857 0060 1B6B     		ldr	r3, [r3, #48]
 2858 0062 1B68     		ldr	r3, [r3]
 2859 0064 079A     		ldr	r2, [sp, #28]
 2860 0066 926A     		ldr	r2, [r2, #40]
 2861 0068 1A60     		str	r2, [r3]
 2862              		.loc 6 820 0
 2863 006a 079B     		ldr	r3, [sp, #28]
 2864 006c 1B6B     		ldr	r3, [r3, #48]
 2865 006e 1B68     		ldr	r3, [r3]
 2866 0070 039A     		ldr	r2, [sp, #12]
 2867 0072 DA60     		str	r2, [r3, #12]
 2868              		.loc 6 821 0
 2869 0074 079B     		ldr	r3, [sp, #28]
 2870 0076 1B6B     		ldr	r3, [r3, #48]
 2871 0078 1B68     		ldr	r3, [r3]
 2872 007a 029A     		ldr	r2, [sp, #8]
 2873 007c 5A60     		str	r2, [r3, #4]
 2874              		.loc 6 824 0
 2875 007e FFF7FEFF 		bl	osalOsGetSystemTimeX
 2876 0082 0990     		str	r0, [sp, #36]
 2877              		.loc 6 825 0
 2878 0084 099B     		ldr	r3, [sp, #36]
 2879 0086 3233     		adds	r3, r3, #50
 2880 0088 0A93     		str	r3, [sp, #40]
 2881              	.L204:
 2882              		.loc 6 830 0
 2883 008a FFF7FEFF 		bl	osalSysLock
 2884              		.loc 6 834 0
 2885 008e 089B     		ldr	r3, [sp, #32]
 2886 0090 9B69     		ldr	r3, [r3, #24]
 2887 0092 03F00203 		and	r3, r3, #2
 2888 0096 002B     		cmp	r3, #0
 2889 0098 05D1     		bne	.L200
 2890              		.loc 6 834 0 is_stmt 0 discriminator 1
 2891 009a 089B     		ldr	r3, [sp, #32]
 2892 009c 1B68     		ldr	r3, [r3]
 2893 009e 03F40073 		and	r3, r3, #512
 2894 00a2 002B     		cmp	r3, #0
 2895 00a4 13D0     		beq	.L207
 2896              	.L200:
 2897              		.loc 6 839 0 is_stmt 1
 2898 00a6 FFF7FEFF 		bl	osalOsGetSystemTimeX
 2899 00aa 0346     		mov	r3, r0
 2900 00ac 0A9A     		ldr	r2, [sp, #40]
 2901 00ae 0999     		ldr	r1, [sp, #36]
ARM GAS  C:\Users\PCHAUT~1\AppData\Local\Temp\ccR4smAG.s 			page 52


 2902 00b0 1846     		mov	r0, r3
 2903 00b2 FFF7FEFF 		bl	osalOsIsTimeWithinX
 2904 00b6 0346     		mov	r3, r0
 2905 00b8 83F00103 		eor	r3, r3, #1
 2906 00bc DBB2     		uxtb	r3, r3
 2907 00be 002B     		cmp	r3, #0
 2908 00c0 02D0     		beq	.L202
 2909              		.loc 6 840 0
 2910 00c2 4FF0FF33 		mov	r3, #-1
 2911 00c6 16E0     		b	.L203
 2912              	.L202:
 2913              		.loc 6 842 0
 2914 00c8 FFF7FEFF 		bl	osalSysUnlock
 2915              		.loc 6 830 0
 2916 00cc DDE7     		b	.L204
 2917              	.L207:
 2918              		.loc 6 835 0
 2919 00ce 00BF     		nop
 2920              		.loc 6 846 0
 2921 00d0 089B     		ldr	r3, [sp, #32]
 2922 00d2 5B68     		ldr	r3, [r3, #4]
 2923 00d4 43F40072 		orr	r2, r3, #512
 2924 00d8 089B     		ldr	r3, [sp, #32]
 2925 00da 5A60     		str	r2, [r3, #4]
 2926              		.loc 6 847 0
 2927 00dc 089B     		ldr	r3, [sp, #32]
 2928 00de 1B68     		ldr	r3, [r3]
 2929 00e0 43F48072 		orr	r2, r3, #256
 2930 00e4 089B     		ldr	r3, [sp, #32]
 2931 00e6 1A60     		str	r2, [r3]
 2932              		.loc 6 850 0
 2933 00e8 079B     		ldr	r3, [sp, #28]
 2934 00ea 2033     		adds	r3, r3, #32
 2935 00ec 0199     		ldr	r1, [sp, #4]
 2936 00ee 1846     		mov	r0, r3
 2937 00f0 FFF7FEFF 		bl	osalThreadSuspendTimeoutS
 2938 00f4 0346     		mov	r3, r0
 2939              	.L203:
 2940              		.loc 6 851 0
 2941 00f6 1846     		mov	r0, r3
 2942 00f8 044B     		ldr	r3, .L208
 2943 00fa 0B9A     		ldr	r2, [sp, #44]
 2944 00fc 1B68     		ldr	r3, [r3]
 2945 00fe 9A42     		cmp	r2, r3
 2946 0100 01D0     		beq	.L205
 2947 0102 FFF7FEFF 		bl	__stack_chk_fail
 2948              	.L205:
 2949 0106 0DB0     		add	sp, sp, #52
 2950              		.cfi_def_cfa_offset 4
 2951              		@ sp needed
 2952 0108 5DF804FB 		ldr	pc, [sp], #4
 2953              	.L209:
 2954              		.align	2
 2955              	.L208:
 2956 010c 00000000 		.word	__stack_chk_guard
 2957              		.cfi_endproc
 2958              	.LFE269:
ARM GAS  C:\Users\PCHAUT~1\AppData\Local\Temp\ccR4smAG.s 			page 53


 2959              		.size	i2c_lld_master_transmit_timeout, .-i2c_lld_master_transmit_timeout
 2960              		.section	.rodata.__func__.9857,"a",%progbits
 2961              		.align	2
 2962              		.type	__func__.9857, %object
 2963              		.size	__func__.9857, 18
 2964              	__func__.9857:
 2965 0000 6932635F 		.ascii	"i2c_lld_set_clock\000"
 2965      6C6C645F 
 2965      7365745F 
 2965      636C6F63 
 2965      6B00
 2966              		.section	.rodata.__func__.9922,"a",%progbits
 2967              		.align	2
 2968              		.type	__func__.9922, %object
 2969              		.size	__func__.9922, 14
 2970              	__func__.9922:
 2971 0000 6932635F 		.ascii	"i2c_lld_start\000"
 2971      6C6C645F 
 2971      73746172 
 2971      7400
 2972              		.section	.rodata.__func__.7153,"a",%progbits
 2973              		.align	2
 2974              		.type	__func__.7153, %object
 2975              		.size	__func__.7153, 12
 2976              	__func__.7153:
 2977 0000 63685379 		.ascii	"chSysUnlock\000"
 2977      73556E6C 
 2977      6F636B00 
 2978              		.text
 2979              	.Letext0:
 2980              		.file 7 "c:\\users\\pchautems\\documents\\robotiquetp\\eclipse_e-puck2\\tools\\gcc-arm-none-eabi-7
 2981              		.file 8 "c:\\users\\pchautems\\documents\\robotiquetp\\eclipse_e-puck2\\tools\\gcc-arm-none-eabi-7
 2982              		.file 9 "c:\\users\\pchautems\\documents\\robotiquetp\\eclipse_e-puck2\\tools\\gcc-arm-none-eabi-7
 2983              		.file 10 "../lib/e-puck2_main-processor/ChibiOS//os/rt/ports/ARMCMx/compilers/GCC/chtypes.h"
 2984              		.file 11 "../lib/e-puck2_main-processor/ChibiOS//os/rt/include/chsystypes.h"
 2985              		.file 12 "../lib/e-puck2_main-processor/ChibiOS//os/rt/include/chschd.h"
 2986              		.file 13 "../lib/e-puck2_main-processor/ChibiOS//os/ext/CMSIS/include/core_cm4.h"
 2987              		.file 14 "../lib/e-puck2_main-processor/ChibiOS//os/ext/CMSIS/ST/system_stm32f4xx.h"
 2988              		.file 15 "../lib/e-puck2_main-processor/ChibiOS//os/ext/CMSIS/ST/stm32f407xx.h"
 2989              		.file 16 "../lib/e-puck2_main-processor/ChibiOS//os/rt/ports/ARMCMx/chcore.h"
 2990              		.file 17 "../lib/e-puck2_main-processor/ChibiOS//os/rt/include/chdebug.h"
 2991              		.file 18 "../lib/e-puck2_main-processor/ChibiOS//os/rt/include/chtm.h"
 2992              		.file 19 "../lib/e-puck2_main-processor/ChibiOS//os/rt/include/chstats.h"
 2993              		.file 20 "../lib/e-puck2_main-processor/ChibiOS//os/rt/include/chsem.h"
 2994              		.file 21 "../lib/e-puck2_main-processor/ChibiOS//os/rt/include/chmtx.h"
 2995              		.file 22 "../lib/e-puck2_main-processor/ChibiOS//os/rt/include/chregistry.h"
 2996              		.file 23 "../lib/e-puck2_main-processor/ChibiOS//os/rt/include/chevents.h"
 2997              		.file 24 "../lib/e-puck2_main-processor/ChibiOS//os/rt/include/chqueues.h"
 2998              		.file 25 "../lib/e-puck2_main-processor/ChibiOS//os/hal/ports/STM32/STM32F4xx/stm32_dma.h"
 2999              		.file 26 "../lib/e-puck2_main-processor/ChibiOS//os/hal/include/hal_ioblock.h"
 3000              		.file 27 "../lib/e-puck2_main-processor/ChibiOS//os/hal/ports/STM32/LLD/GPIOv2/pal_lld.h"
 3001              		.file 28 "../lib/e-puck2_main-processor/ChibiOS//os/hal/include/adc.h"
 3002              		.file 29 "../lib/e-puck2_main-processor/ChibiOS//os/hal/ports/STM32/STM32F4xx/adc_lld.h"
 3003              		.file 30 "../lib/e-puck2_main-processor/ChibiOS//os/hal/include/can.h"
 3004              		.file 31 "../lib/e-puck2_main-processor/ChibiOS//os/hal/ports/STM32/LLD/can_lld.h"
 3005              		.file 32 "../lib/e-puck2_main-processor/ChibiOS//os/hal/include/dac.h"
 3006              		.file 33 "../lib/e-puck2_main-processor/ChibiOS//os/hal/ports/STM32/LLD/DACv1/dac_lld.h"
ARM GAS  C:\Users\PCHAUT~1\AppData\Local\Temp\ccR4smAG.s 			page 54


 3007              		.file 34 "../lib/e-puck2_main-processor/ChibiOS//os/hal/include/ext.h"
 3008              		.file 35 "../lib/e-puck2_main-processor/ChibiOS//os/hal/ports/STM32/LLD/ext_lld.h"
 3009              		.file 36 "../lib/e-puck2_main-processor/ChibiOS//os/hal/include/gpt.h"
 3010              		.file 37 "../lib/e-puck2_main-processor/ChibiOS//os/hal/ports/STM32/LLD/TIMv1/gpt_lld.h"
 3011              		.file 38 "../lib/e-puck2_main-processor/ChibiOS//os/hal/ports/STM32/LLD/TIMv1/stm32_tim.h"
 3012              		.file 39 "../lib/e-puck2_main-processor/ChibiOS//os/hal/include/i2c.h"
 3013              		.file 40 "../lib/e-puck2_main-processor/ChibiOS//os/hal/ports/STM32/LLD/I2Cv1/i2c_lld.h"
 3014              		.file 41 "../lib/e-puck2_main-processor/ChibiOS//os/hal/include/i2s.h"
 3015              		.file 42 "../lib/e-puck2_main-processor/ChibiOS//os/hal/ports/STM32/LLD/SPIv1/i2s_lld.h"
 3016              		.file 43 "../lib/e-puck2_main-processor/ChibiOS//os/hal/include/pwm.h"
 3017              		.file 44 "../lib/e-puck2_main-processor/ChibiOS//os/hal/ports/STM32/LLD/TIMv1/pwm_lld.h"
 3018              		.file 45 "../lib/e-puck2_main-processor/ChibiOS//os/hal/include/serial.h"
 3019              		.file 46 "../lib/e-puck2_main-processor/ChibiOS//os/hal/ports/STM32/LLD/USARTv1/serial_lld.h"
 3020              		.file 47 "../lib/e-puck2_main-processor/ChibiOS//os/hal/include/sdc.h"
 3021              		.file 48 "../lib/e-puck2_main-processor/ChibiOS//os/hal/ports/STM32/LLD/sdc_lld.h"
 3022              		.file 49 "../lib/e-puck2_main-processor/ChibiOS//os/hal/include/spi.h"
 3023              		.file 50 "../lib/e-puck2_main-processor/ChibiOS//os/hal/ports/STM32/LLD/SPIv1/spi_lld.h"
 3024              		.file 51 "../lib/e-puck2_main-processor/ChibiOS//os/hal/include/usb.h"
 3025              		.file 52 "../lib/e-puck2_main-processor/ChibiOS//os/hal/ports/STM32/LLD/OTGv1/usb_lld.h"
 3026              		.file 53 "../lib/e-puck2_main-processor/ChibiOS//os/hal/ports/STM32/LLD/OTGv1/stm32_otg.h"