ARM GAS  C:\Users\PCHAUT~1\AppData\Local\Temp\ccR4smAG.s 			page 1


   1              		.cpu cortex-m4
   2              		.eabi_attribute 27, 1
   3              		.eabi_attribute 28, 1
   4              		.eabi_attribute 20, 1
   5              		.eabi_attribute 21, 1
   6              		.eabi_attribute 23, 3
   7              		.eabi_attribute 24, 1
   8              		.eabi_attribute 25, 1
   9              		.eabi_attribute 26, 1
  10              		.eabi_attribute 30, 6
  11              		.eabi_attribute 34, 1
  12              		.eabi_attribute 18, 4
  13              		.file	"i2c_lld.c"
  14              		.text
  15              	.Ltext0:
  16              		.cfi_sections	.debug_frame
  17              		.section	.text.port_lock,"ax",%progbits
  18              		.align	1
  19              		.p2align 4,,15
  20              		.syntax unified
  21              		.thumb
  22              		.thumb_func
  23              		.fpu fpv4-sp-d16
  24              		.type	port_lock, %function
  25              	port_lock:
  26              	.LFB116:
  27              		.file 1 "../lib/e-puck2_main-processor/ChibiOS//os/rt/ports/ARMCMx/chcore_v7m.h"
  28              		.loc 1 444 0
  29              		.cfi_startproc
  30              		@ args = 0, pretend = 0, frame = 8
  31              		@ frame_needed = 0, uses_anonymous_args = 0
  32 0000 00B5     		push	{lr}
  33              		.cfi_def_cfa_offset 4
  34              		.cfi_offset 14, -4
  35 0002 83B0     		sub	sp, sp, #12
  36              		.cfi_def_cfa_offset 16
  37              		.loc 1 444 0
  38 0004 094B     		ldr	r3, .L3
  39 0006 1B68     		ldr	r3, [r3]
  40 0008 0193     		str	r3, [sp, #4]
  41 000a 2023     		movs	r3, #32
  42 000c 0093     		str	r3, [sp]
  43              	.LBB6:
  44              	.LBB7:
  45              		.file 2 "../lib/e-puck2_main-processor/ChibiOS//os/ext/CMSIS/include/core_cmFunc.h"
  46              		.loc 2 546 0
  47 000e 009B     		ldr	r3, [sp]
  48              		.syntax unified
  49              	@ 546 "../lib/e-puck2_main-processor/ChibiOS//os/ext/CMSIS/include/core_cmFunc.h" 1
  50 0010 83F31188 		MSR basepri, r3
  51              	@ 0 "" 2
  52              		.thumb
  53              		.syntax unified
  54              	.LBE7:
  55              	.LBE6:
  56              		.loc 1 451 0
  57 0014 00BF     		nop
ARM GAS  C:\Users\PCHAUT~1\AppData\Local\Temp\ccR4smAG.s 			page 2


  58 0016 054B     		ldr	r3, .L3
  59 0018 019A     		ldr	r2, [sp, #4]
  60 001a 1B68     		ldr	r3, [r3]
  61 001c 9A42     		cmp	r2, r3
  62 001e 01D0     		beq	.L2
  63 0020 FFF7FEFF 		bl	__stack_chk_fail
  64              	.L2:
  65 0024 03B0     		add	sp, sp, #12
  66              		.cfi_def_cfa_offset 4
  67              		@ sp needed
  68 0026 5DF804FB 		ldr	pc, [sp], #4
  69              	.L4:
  70 002a 00BF     		.align	2
  71              	.L3:
  72 002c 00000000 		.word	__stack_chk_guard
  73              		.cfi_endproc
  74              	.LFE116:
  75              		.size	port_lock, .-port_lock
  76              		.section	.text.port_unlock,"ax",%progbits
  77              		.align	1
  78              		.p2align 4,,15
  79              		.syntax unified
  80              		.thumb
  81              		.thumb_func
  82              		.fpu fpv4-sp-d16
  83              		.type	port_unlock, %function
  84              	port_unlock:
  85              	.LFB117:
  86              		.loc 1 458 0
  87              		.cfi_startproc
  88              		@ args = 0, pretend = 0, frame = 8
  89              		@ frame_needed = 0, uses_anonymous_args = 0
  90 0000 00B5     		push	{lr}
  91              		.cfi_def_cfa_offset 4
  92              		.cfi_offset 14, -4
  93 0002 83B0     		sub	sp, sp, #12
  94              		.cfi_def_cfa_offset 16
  95              		.loc 1 458 0
  96 0004 094B     		ldr	r3, .L7
  97 0006 1B68     		ldr	r3, [r3]
  98 0008 0193     		str	r3, [sp, #4]
  99 000a 0023     		movs	r3, #0
 100 000c 0093     		str	r3, [sp]
 101              	.LBB8:
 102              	.LBB9:
 103              		.loc 2 546 0
 104 000e 009B     		ldr	r3, [sp]
 105              		.syntax unified
 106              	@ 546 "../lib/e-puck2_main-processor/ChibiOS//os/ext/CMSIS/include/core_cmFunc.h" 1
 107 0010 83F31188 		MSR basepri, r3
 108              	@ 0 "" 2
 109              		.thumb
 110              		.syntax unified
 111              	.LBE9:
 112              	.LBE8:
 113              		.loc 1 465 0
 114 0014 00BF     		nop
ARM GAS  C:\Users\PCHAUT~1\AppData\Local\Temp\ccR4smAG.s 			page 3


 115 0016 054B     		ldr	r3, .L7
 116 0018 019A     		ldr	r2, [sp, #4]
 117 001a 1B68     		ldr	r3, [r3]
 118 001c 9A42     		cmp	r2, r3
 119 001e 01D0     		beq	.L6
 120 0020 FFF7FEFF 		bl	__stack_chk_fail
 121              	.L6:
 122 0024 03B0     		add	sp, sp, #12
 123              		.cfi_def_cfa_offset 4
 124              		@ sp needed
 125 0026 5DF804FB 		ldr	pc, [sp], #4
 126              	.L8:
 127 002a 00BF     		.align	2
 128              	.L7:
 129 002c 00000000 		.word	__stack_chk_guard
 130              		.cfi_endproc
 131              	.LFE117:
 132              		.size	port_unlock, .-port_unlock
 133              		.section	.text.port_lock_from_isr,"ax",%progbits
 134              		.align	1
 135              		.p2align 4,,15
 136              		.syntax unified
 137              		.thumb
 138              		.thumb_func
 139              		.fpu fpv4-sp-d16
 140              		.type	port_lock_from_isr, %function
 141              	port_lock_from_isr:
 142              	.LFB118:
 143              		.loc 1 473 0
 144              		.cfi_startproc
 145              		@ args = 0, pretend = 0, frame = 8
 146              		@ frame_needed = 0, uses_anonymous_args = 0
 147 0000 00B5     		push	{lr}
 148              		.cfi_def_cfa_offset 4
 149              		.cfi_offset 14, -4
 150 0002 83B0     		sub	sp, sp, #12
 151              		.cfi_def_cfa_offset 16
 152              		.loc 1 473 0
 153 0004 074B     		ldr	r3, .L11
 154 0006 1B68     		ldr	r3, [r3]
 155 0008 0193     		str	r3, [sp, #4]
 156              		.loc 1 475 0
 157 000a FFF7FEFF 		bl	port_lock
 158              		.loc 1 476 0
 159 000e 00BF     		nop
 160 0010 044B     		ldr	r3, .L11
 161 0012 019A     		ldr	r2, [sp, #4]
 162 0014 1B68     		ldr	r3, [r3]
 163 0016 9A42     		cmp	r2, r3
 164 0018 01D0     		beq	.L10
 165 001a FFF7FEFF 		bl	__stack_chk_fail
 166              	.L10:
 167 001e 03B0     		add	sp, sp, #12
 168              		.cfi_def_cfa_offset 4
 169              		@ sp needed
 170 0020 5DF804FB 		ldr	pc, [sp], #4
 171              	.L12:
ARM GAS  C:\Users\PCHAUT~1\AppData\Local\Temp\ccR4smAG.s 			page 4


 172              		.align	2
 173              	.L11:
 174 0024 00000000 		.word	__stack_chk_guard
 175              		.cfi_endproc
 176              	.LFE118:
 177              		.size	port_lock_from_isr, .-port_lock_from_isr
 178              		.section	.text.port_unlock_from_isr,"ax",%progbits
 179              		.align	1
 180              		.p2align 4,,15
 181              		.syntax unified
 182              		.thumb
 183              		.thumb_func
 184              		.fpu fpv4-sp-d16
 185              		.type	port_unlock_from_isr, %function
 186              	port_unlock_from_isr:
 187              	.LFB119:
 188              		.loc 1 484 0
 189              		.cfi_startproc
 190              		@ args = 0, pretend = 0, frame = 8
 191              		@ frame_needed = 0, uses_anonymous_args = 0
 192 0000 00B5     		push	{lr}
 193              		.cfi_def_cfa_offset 4
 194              		.cfi_offset 14, -4
 195 0002 83B0     		sub	sp, sp, #12
 196              		.cfi_def_cfa_offset 16
 197              		.loc 1 484 0
 198 0004 074B     		ldr	r3, .L15
 199 0006 1B68     		ldr	r3, [r3]
 200 0008 0193     		str	r3, [sp, #4]
 201              		.loc 1 486 0
 202 000a FFF7FEFF 		bl	port_unlock
 203              		.loc 1 487 0
 204 000e 00BF     		nop
 205 0010 044B     		ldr	r3, .L15
 206 0012 019A     		ldr	r2, [sp, #4]
 207 0014 1B68     		ldr	r3, [r3]
 208 0016 9A42     		cmp	r2, r3
 209 0018 01D0     		beq	.L14
 210 001a FFF7FEFF 		bl	__stack_chk_fail
 211              	.L14:
 212 001e 03B0     		add	sp, sp, #12
 213              		.cfi_def_cfa_offset 4
 214              		@ sp needed
 215 0020 5DF804FB 		ldr	pc, [sp], #4
 216              	.L16:
 217              		.align	2
 218              	.L15:
 219 0024 00000000 		.word	__stack_chk_guard
 220              		.cfi_endproc
 221              	.LFE119:
 222              		.size	port_unlock_from_isr, .-port_unlock_from_isr
 223              		.section	.text.chSysLock,"ax",%progbits
 224              		.align	1
 225              		.p2align 4,,15
 226              		.syntax unified
 227              		.thumb
 228              		.thumb_func
ARM GAS  C:\Users\PCHAUT~1\AppData\Local\Temp\ccR4smAG.s 			page 5


 229              		.fpu fpv4-sp-d16
 230              		.type	chSysLock, %function
 231              	chSysLock:
 232              	.LFB145:
 233              		.file 3 "../lib/e-puck2_main-processor/ChibiOS//os/rt/include/chsys.h"
 234              		.loc 3 346 0
 235              		.cfi_startproc
 236              		@ args = 0, pretend = 0, frame = 8
 237              		@ frame_needed = 0, uses_anonymous_args = 0
 238 0000 00B5     		push	{lr}
 239              		.cfi_def_cfa_offset 4
 240              		.cfi_offset 14, -4
 241 0002 83B0     		sub	sp, sp, #12
 242              		.cfi_def_cfa_offset 16
 243              		.loc 3 346 0
 244 0004 094B     		ldr	r3, .L19
 245 0006 1B68     		ldr	r3, [r3]
 246 0008 0193     		str	r3, [sp, #4]
 247              		.loc 3 348 0
 248 000a FFF7FEFF 		bl	port_lock
 249              		.loc 3 349 0
 250 000e FFF7FEFF 		bl	_stats_start_measure_crit_thd
 251              		.loc 3 350 0
 252 0012 FFF7FEFF 		bl	_dbg_check_lock
 253              		.loc 3 351 0
 254 0016 00BF     		nop
 255 0018 044B     		ldr	r3, .L19
 256 001a 019A     		ldr	r2, [sp, #4]
 257 001c 1B68     		ldr	r3, [r3]
 258 001e 9A42     		cmp	r2, r3
 259 0020 01D0     		beq	.L18
 260 0022 FFF7FEFF 		bl	__stack_chk_fail
 261              	.L18:
 262 0026 03B0     		add	sp, sp, #12
 263              		.cfi_def_cfa_offset 4
 264              		@ sp needed
 265 0028 5DF804FB 		ldr	pc, [sp], #4
 266              	.L20:
 267              		.align	2
 268              	.L19:
 269 002c 00000000 		.word	__stack_chk_guard
 270              		.cfi_endproc
 271              	.LFE145:
 272              		.size	chSysLock, .-chSysLock
 273              		.section	.text.chSysUnlock,"ax",%progbits
 274              		.align	1
 275              		.p2align 4,,15
 276              		.syntax unified
 277              		.thumb
 278              		.thumb_func
 279              		.fpu fpv4-sp-d16
 280              		.type	chSysUnlock, %function
 281              	chSysUnlock:
 282              	.LFB146:
 283              		.loc 3 358 0
 284              		.cfi_startproc
 285              		@ args = 0, pretend = 0, frame = 8
ARM GAS  C:\Users\PCHAUT~1\AppData\Local\Temp\ccR4smAG.s 			page 6


 286              		@ frame_needed = 0, uses_anonymous_args = 0
 287 0000 00B5     		push	{lr}
 288              		.cfi_def_cfa_offset 4
 289              		.cfi_offset 14, -4
 290 0002 83B0     		sub	sp, sp, #12
 291              		.cfi_def_cfa_offset 16
 292              		.loc 3 358 0
 293 0004 114B     		ldr	r3, .L24
 294 0006 1B68     		ldr	r3, [r3]
 295 0008 0193     		str	r3, [sp, #4]
 296              		.loc 3 360 0
 297 000a FFF7FEFF 		bl	_dbg_check_unlock
 298              		.loc 3 361 0
 299 000e FFF7FEFF 		bl	_stats_stop_measure_crit_thd
 300              		.loc 3 367 0
 301 0012 0F4B     		ldr	r3, .L24+4
 302 0014 1B68     		ldr	r3, [r3]
 303 0016 0E4A     		ldr	r2, .L24+4
 304 0018 9342     		cmp	r3, r2
 305 001a 0AD0     		beq	.L22
 306              		.loc 3 367 0 is_stmt 0 discriminator 2
 307 001c 0C4B     		ldr	r3, .L24+4
 308 001e 9B69     		ldr	r3, [r3, #24]
 309 0020 9A68     		ldr	r2, [r3, #8]
 310 0022 0B4B     		ldr	r3, .L24+4
 311 0024 1B68     		ldr	r3, [r3]
 312 0026 9B68     		ldr	r3, [r3, #8]
 313 0028 9A42     		cmp	r2, r3
 314 002a 02D2     		bcs	.L22
 315              		.loc 3 367 0 discriminator 3
 316 002c 0948     		ldr	r0, .L24+8
 317 002e FFF7FEFF 		bl	chSysHalt
 318              	.L22:
 319              		.loc 3 371 0 is_stmt 1
 320 0032 FFF7FEFF 		bl	port_unlock
 321              		.loc 3 372 0
 322 0036 00BF     		nop
 323 0038 044B     		ldr	r3, .L24
 324 003a 019A     		ldr	r2, [sp, #4]
 325 003c 1B68     		ldr	r3, [r3]
 326 003e 9A42     		cmp	r2, r3
 327 0040 01D0     		beq	.L23
 328 0042 FFF7FEFF 		bl	__stack_chk_fail
 329              	.L23:
 330 0046 03B0     		add	sp, sp, #12
 331              		.cfi_def_cfa_offset 4
 332              		@ sp needed
 333 0048 5DF804FB 		ldr	pc, [sp], #4
 334              	.L25:
 335              		.align	2
 336              	.L24:
 337 004c 00000000 		.word	__stack_chk_guard
 338 0050 00000000 		.word	ch
 339 0054 00000000 		.word	__func__.7153
 340              		.cfi_endproc
 341              	.LFE146:
 342              		.size	chSysUnlock, .-chSysUnlock
ARM GAS  C:\Users\PCHAUT~1\AppData\Local\Temp\ccR4smAG.s 			page 7


 343              		.section	.text.chSysLockFromISR,"ax",%progbits
 344              		.align	1
 345              		.p2align 4,,15
 346              		.syntax unified
 347              		.thumb
 348              		.thumb_func
 349              		.fpu fpv4-sp-d16
 350              		.type	chSysLockFromISR, %function
 351              	chSysLockFromISR:
 352              	.LFB147:
 353              		.loc 3 386 0
 354              		.cfi_startproc
 355              		@ args = 0, pretend = 0, frame = 8
 356              		@ frame_needed = 0, uses_anonymous_args = 0
 357 0000 00B5     		push	{lr}
 358              		.cfi_def_cfa_offset 4
 359              		.cfi_offset 14, -4
 360 0002 83B0     		sub	sp, sp, #12
 361              		.cfi_def_cfa_offset 16
 362              		.loc 3 386 0
 363 0004 094B     		ldr	r3, .L28
 364 0006 1B68     		ldr	r3, [r3]
 365 0008 0193     		str	r3, [sp, #4]
 366              		.loc 3 388 0
 367 000a FFF7FEFF 		bl	port_lock_from_isr
 368              		.loc 3 389 0
 369 000e FFF7FEFF 		bl	_stats_start_measure_crit_isr
 370              		.loc 3 390 0
 371 0012 FFF7FEFF 		bl	_dbg_check_lock_from_isr
 372              		.loc 3 391 0
 373 0016 00BF     		nop
 374 0018 044B     		ldr	r3, .L28
 375 001a 019A     		ldr	r2, [sp, #4]
 376 001c 1B68     		ldr	r3, [r3]
 377 001e 9A42     		cmp	r2, r3
 378 0020 01D0     		beq	.L27
 379 0022 FFF7FEFF 		bl	__stack_chk_fail
 380              	.L27:
 381 0026 03B0     		add	sp, sp, #12
 382              		.cfi_def_cfa_offset 4
 383              		@ sp needed
 384 0028 5DF804FB 		ldr	pc, [sp], #4
 385              	.L29:
 386              		.align	2
 387              	.L28:
 388 002c 00000000 		.word	__stack_chk_guard
 389              		.cfi_endproc
 390              	.LFE147:
 391              		.size	chSysLockFromISR, .-chSysLockFromISR
 392              		.section	.text.chSysUnlockFromISR,"ax",%progbits
 393              		.align	1
 394              		.p2align 4,,15
 395              		.syntax unified
 396              		.thumb
 397              		.thumb_func
 398              		.fpu fpv4-sp-d16
 399              		.type	chSysUnlockFromISR, %function
ARM GAS  C:\Users\PCHAUT~1\AppData\Local\Temp\ccR4smAG.s 			page 8


 400              	chSysUnlockFromISR:
 401              	.LFB148:
 402              		.loc 3 406 0
 403              		.cfi_startproc
 404              		@ args = 0, pretend = 0, frame = 8
 405              		@ frame_needed = 0, uses_anonymous_args = 0
 406 0000 00B5     		push	{lr}
 407              		.cfi_def_cfa_offset 4
 408              		.cfi_offset 14, -4
 409 0002 83B0     		sub	sp, sp, #12
 410              		.cfi_def_cfa_offset 16
 411              		.loc 3 406 0
 412 0004 094B     		ldr	r3, .L32
 413 0006 1B68     		ldr	r3, [r3]
 414 0008 0193     		str	r3, [sp, #4]
 415              		.loc 3 408 0
 416 000a FFF7FEFF 		bl	_dbg_check_unlock_from_isr
 417              		.loc 3 409 0
 418 000e FFF7FEFF 		bl	_stats_stop_measure_crit_isr
 419              		.loc 3 410 0
 420 0012 FFF7FEFF 		bl	port_unlock_from_isr
 421              		.loc 3 411 0
 422 0016 00BF     		nop
 423 0018 044B     		ldr	r3, .L32
 424 001a 019A     		ldr	r2, [sp, #4]
 425 001c 1B68     		ldr	r3, [r3]
 426 001e 9A42     		cmp	r2, r3
 427 0020 01D0     		beq	.L31
 428 0022 FFF7FEFF 		bl	__stack_chk_fail
 429              	.L31:
 430 0026 03B0     		add	sp, sp, #12
 431              		.cfi_def_cfa_offset 4
 432              		@ sp needed
 433 0028 5DF804FB 		ldr	pc, [sp], #4
 434              	.L33:
 435              		.align	2
 436              	.L32:
 437 002c 00000000 		.word	__stack_chk_guard
 438              		.cfi_endproc
 439              	.LFE148:
 440              		.size	chSysUnlockFromISR, .-chSysUnlockFromISR
 441              		.section	.text.chVTGetSystemTimeX,"ax",%progbits
 442              		.align	1
 443              		.p2align 4,,15
 444              		.syntax unified
 445              		.thumb
 446              		.thumb_func
 447              		.fpu fpv4-sp-d16
 448              		.type	chVTGetSystemTimeX, %function
 449              	chVTGetSystemTimeX:
 450              	.LFB153:
 451              		.file 4 "../lib/e-puck2_main-processor/ChibiOS//os/rt/include/chvt.h"
 452              		.loc 4 228 0
 453              		.cfi_startproc
 454              		@ args = 0, pretend = 0, frame = 8
 455              		@ frame_needed = 0, uses_anonymous_args = 0
 456 0000 00B5     		push	{lr}
ARM GAS  C:\Users\PCHAUT~1\AppData\Local\Temp\ccR4smAG.s 			page 9


 457              		.cfi_def_cfa_offset 4
 458              		.cfi_offset 14, -4
 459 0002 83B0     		sub	sp, sp, #12
 460              		.cfi_def_cfa_offset 16
 461              		.loc 4 228 0
 462 0004 074B     		ldr	r3, .L37
 463 0006 1B68     		ldr	r3, [r3]
 464 0008 0193     		str	r3, [sp, #4]
 465              		.loc 4 231 0
 466 000a 074B     		ldr	r3, .L37+4
 467 000c 9B6A     		ldr	r3, [r3, #40]
 468              		.loc 4 235 0
 469 000e 1846     		mov	r0, r3
 470 0010 044B     		ldr	r3, .L37
 471 0012 019A     		ldr	r2, [sp, #4]
 472 0014 1B68     		ldr	r3, [r3]
 473 0016 9A42     		cmp	r2, r3
 474 0018 01D0     		beq	.L36
 475 001a FFF7FEFF 		bl	__stack_chk_fail
 476              	.L36:
 477 001e 03B0     		add	sp, sp, #12
 478              		.cfi_def_cfa_offset 4
 479              		@ sp needed
 480 0020 5DF804FB 		ldr	pc, [sp], #4
 481              	.L38:
 482              		.align	2
 483              	.L37:
 484 0024 00000000 		.word	__stack_chk_guard
 485 0028 00000000 		.word	ch
 486              		.cfi_endproc
 487              	.LFE153:
 488              		.size	chVTGetSystemTimeX, .-chVTGetSystemTimeX
 489              		.section	.text.chVTIsTimeWithinX,"ax",%progbits
 490              		.align	1
 491              		.p2align 4,,15
 492              		.syntax unified
 493              		.thumb
 494              		.thumb_func
 495              		.fpu fpv4-sp-d16
 496              		.type	chVTIsTimeWithinX, %function
 497              	chVTIsTimeWithinX:
 498              	.LFB156:
 499              		.loc 4 286 0
 500              		.cfi_startproc
 501              		@ args = 0, pretend = 0, frame = 24
 502              		@ frame_needed = 0, uses_anonymous_args = 0
 503 0000 00B5     		push	{lr}
 504              		.cfi_def_cfa_offset 4
 505              		.cfi_offset 14, -4
 506 0002 87B0     		sub	sp, sp, #28
 507              		.cfi_def_cfa_offset 32
 508 0004 0390     		str	r0, [sp, #12]
 509 0006 0291     		str	r1, [sp, #8]
 510 0008 0192     		str	r2, [sp, #4]
 511              		.loc 4 286 0
 512 000a 0C4B     		ldr	r3, .L42
 513 000c 1B68     		ldr	r3, [r3]
ARM GAS  C:\Users\PCHAUT~1\AppData\Local\Temp\ccR4smAG.s 			page 10


 514 000e 0593     		str	r3, [sp, #20]
 515              		.loc 4 288 0
 516 0010 039A     		ldr	r2, [sp, #12]
 517 0012 029B     		ldr	r3, [sp, #8]
 518 0014 D21A     		subs	r2, r2, r3
 519 0016 0199     		ldr	r1, [sp, #4]
 520 0018 029B     		ldr	r3, [sp, #8]
 521 001a CB1A     		subs	r3, r1, r3
 522 001c 9A42     		cmp	r2, r3
 523 001e 34BF     		ite	cc
 524 0020 0123     		movcc	r3, #1
 525 0022 0023     		movcs	r3, #0
 526 0024 DBB2     		uxtb	r3, r3
 527              		.loc 4 289 0
 528 0026 1846     		mov	r0, r3
 529 0028 044B     		ldr	r3, .L42
 530 002a 059A     		ldr	r2, [sp, #20]
 531 002c 1B68     		ldr	r3, [r3]
 532 002e 9A42     		cmp	r2, r3
 533 0030 01D0     		beq	.L41
 534 0032 FFF7FEFF 		bl	__stack_chk_fail
 535              	.L41:
 536 0036 07B0     		add	sp, sp, #28
 537              		.cfi_def_cfa_offset 4
 538              		@ sp needed
 539 0038 5DF804FB 		ldr	pc, [sp], #4
 540              	.L43:
 541              		.align	2
 542              	.L42:
 543 003c 00000000 		.word	__stack_chk_guard
 544              		.cfi_endproc
 545              	.LFE156:
 546              		.size	chVTIsTimeWithinX, .-chVTIsTimeWithinX
 547              		.section	.text.osalSysHalt,"ax",%progbits
 548              		.align	1
 549              		.p2align 4,,15
 550              		.syntax unified
 551              		.thumb
 552              		.thumb_func
 553              		.fpu fpv4-sp-d16
 554              		.type	osalSysHalt, %function
 555              	osalSysHalt:
 556              	.LFB220:
 557              		.file 5 "../lib/e-puck2_main-processor/ChibiOS//os/hal/osal/rt/osal.h"
 558              		.loc 5 414 0
 559              		.cfi_startproc
 560              		@ args = 0, pretend = 0, frame = 16
 561              		@ frame_needed = 0, uses_anonymous_args = 0
 562 0000 00B5     		push	{lr}
 563              		.cfi_def_cfa_offset 4
 564              		.cfi_offset 14, -4
 565 0002 85B0     		sub	sp, sp, #20
 566              		.cfi_def_cfa_offset 24
 567 0004 0190     		str	r0, [sp, #4]
 568              		.loc 5 414 0
 569 0006 084B     		ldr	r3, .L46
 570 0008 1B68     		ldr	r3, [r3]
ARM GAS  C:\Users\PCHAUT~1\AppData\Local\Temp\ccR4smAG.s 			page 11


 571 000a 0393     		str	r3, [sp, #12]
 572              		.loc 5 416 0
 573 000c 0198     		ldr	r0, [sp, #4]
 574 000e FFF7FEFF 		bl	chSysHalt
 575              		.loc 5 417 0
 576 0012 00BF     		nop
 577 0014 044B     		ldr	r3, .L46
 578 0016 039A     		ldr	r2, [sp, #12]
 579 0018 1B68     		ldr	r3, [r3]
 580 001a 9A42     		cmp	r2, r3
 581 001c 01D0     		beq	.L45
 582 001e FFF7FEFF 		bl	__stack_chk_fail
 583              	.L45:
 584 0022 05B0     		add	sp, sp, #20
 585              		.cfi_def_cfa_offset 4
 586              		@ sp needed
 587 0024 5DF804FB 		ldr	pc, [sp], #4
 588              	.L47:
 589              		.align	2
 590              	.L46:
 591 0028 00000000 		.word	__stack_chk_guard
 592              		.cfi_endproc
 593              	.LFE220:
 594              		.size	osalSysHalt, .-osalSysHalt
 595              		.section	.text.osalSysLock,"ax",%progbits
 596              		.align	1
 597              		.p2align 4,,15
 598              		.syntax unified
 599              		.thumb
 600              		.thumb_func
 601              		.fpu fpv4-sp-d16
 602              		.type	osalSysLock, %function
 603              	osalSysLock:
 604              	.LFB223:
 605              		.loc 5 445 0
 606              		.cfi_startproc
 607              		@ args = 0, pretend = 0, frame = 8
 608              		@ frame_needed = 0, uses_anonymous_args = 0
 609 0000 00B5     		push	{lr}
 610              		.cfi_def_cfa_offset 4
 611              		.cfi_offset 14, -4
 612 0002 83B0     		sub	sp, sp, #12
 613              		.cfi_def_cfa_offset 16
 614              		.loc 5 445 0
 615 0004 074B     		ldr	r3, .L50
 616 0006 1B68     		ldr	r3, [r3]
 617 0008 0193     		str	r3, [sp, #4]
 618              		.loc 5 447 0
 619 000a FFF7FEFF 		bl	chSysLock
 620              		.loc 5 448 0
 621 000e 00BF     		nop
 622 0010 044B     		ldr	r3, .L50
 623 0012 019A     		ldr	r2, [sp, #4]
 624 0014 1B68     		ldr	r3, [r3]
 625 0016 9A42     		cmp	r2, r3
 626 0018 01D0     		beq	.L49
 627 001a FFF7FEFF 		bl	__stack_chk_fail
ARM GAS  C:\Users\PCHAUT~1\AppData\Local\Temp\ccR4smAG.s 			page 12


 628              	.L49:
 629 001e 03B0     		add	sp, sp, #12
 630              		.cfi_def_cfa_offset 4
 631              		@ sp needed
 632 0020 5DF804FB 		ldr	pc, [sp], #4
 633              	.L51:
 634              		.align	2
 635              	.L50:
 636 0024 00000000 		.word	__stack_chk_guard
 637              		.cfi_endproc
 638              	.LFE223:
 639              		.size	osalSysLock, .-osalSysLock
 640              		.section	.text.osalSysUnlock,"ax",%progbits
 641              		.align	1
 642              		.p2align 4,,15
 643              		.syntax unified
 644              		.thumb
 645              		.thumb_func
 646              		.fpu fpv4-sp-d16
 647              		.type	osalSysUnlock, %function
 648              	osalSysUnlock:
 649              	.LFB224:
 650              		.loc 5 456 0
 651              		.cfi_startproc
 652              		@ args = 0, pretend = 0, frame = 8
 653              		@ frame_needed = 0, uses_anonymous_args = 0
 654 0000 00B5     		push	{lr}
 655              		.cfi_def_cfa_offset 4
 656              		.cfi_offset 14, -4
 657 0002 83B0     		sub	sp, sp, #12
 658              		.cfi_def_cfa_offset 16
 659              		.loc 5 456 0
 660 0004 074B     		ldr	r3, .L54
 661 0006 1B68     		ldr	r3, [r3]
 662 0008 0193     		str	r3, [sp, #4]
 663              		.loc 5 458 0
 664 000a FFF7FEFF 		bl	chSysUnlock
 665              		.loc 5 459 0
 666 000e 00BF     		nop
 667 0010 044B     		ldr	r3, .L54
 668 0012 019A     		ldr	r2, [sp, #4]
 669 0014 1B68     		ldr	r3, [r3]
 670 0016 9A42     		cmp	r2, r3
 671 0018 01D0     		beq	.L53
 672 001a FFF7FEFF 		bl	__stack_chk_fail
 673              	.L53:
 674 001e 03B0     		add	sp, sp, #12
 675              		.cfi_def_cfa_offset 4
 676              		@ sp needed
 677 0020 5DF804FB 		ldr	pc, [sp], #4
 678              	.L55:
 679              		.align	2
 680              	.L54:
 681 0024 00000000 		.word	__stack_chk_guard
 682              		.cfi_endproc
 683              	.LFE224:
 684              		.size	osalSysUnlock, .-osalSysUnlock
ARM GAS  C:\Users\PCHAUT~1\AppData\Local\Temp\ccR4smAG.s 			page 13


 685              		.section	.text.osalSysLockFromISR,"ax",%progbits
 686              		.align	1
 687              		.p2align 4,,15
 688              		.syntax unified
 689              		.thumb
 690              		.thumb_func
 691              		.fpu fpv4-sp-d16
 692              		.type	osalSysLockFromISR, %function
 693              	osalSysLockFromISR:
 694              	.LFB225:
 695              		.loc 5 467 0
 696              		.cfi_startproc
 697              		@ args = 0, pretend = 0, frame = 8
 698              		@ frame_needed = 0, uses_anonymous_args = 0
 699 0000 00B5     		push	{lr}
 700              		.cfi_def_cfa_offset 4
 701              		.cfi_offset 14, -4
 702 0002 83B0     		sub	sp, sp, #12
 703              		.cfi_def_cfa_offset 16
 704              		.loc 5 467 0
 705 0004 074B     		ldr	r3, .L58
 706 0006 1B68     		ldr	r3, [r3]
 707 0008 0193     		str	r3, [sp, #4]
 708              		.loc 5 469 0
 709 000a FFF7FEFF 		bl	chSysLockFromISR
 710              		.loc 5 470 0
 711 000e 00BF     		nop
 712 0010 044B     		ldr	r3, .L58
 713 0012 019A     		ldr	r2, [sp, #4]
 714 0014 1B68     		ldr	r3, [r3]
 715 0016 9A42     		cmp	r2, r3
 716 0018 01D0     		beq	.L57
 717 001a FFF7FEFF 		bl	__stack_chk_fail
 718              	.L57:
 719 001e 03B0     		add	sp, sp, #12
 720              		.cfi_def_cfa_offset 4
 721              		@ sp needed
 722 0020 5DF804FB 		ldr	pc, [sp], #4
 723              	.L59:
 724              		.align	2
 725              	.L58:
 726 0024 00000000 		.word	__stack_chk_guard
 727              		.cfi_endproc
 728              	.LFE225:
 729              		.size	osalSysLockFromISR, .-osalSysLockFromISR
 730              		.section	.text.osalSysUnlockFromISR,"ax",%progbits
 731              		.align	1
 732              		.p2align 4,,15
 733              		.syntax unified
 734              		.thumb
 735              		.thumb_func
 736              		.fpu fpv4-sp-d16
 737              		.type	osalSysUnlockFromISR, %function
 738              	osalSysUnlockFromISR:
 739              	.LFB226:
 740              		.loc 5 478 0
 741              		.cfi_startproc
ARM GAS  C:\Users\PCHAUT~1\AppData\Local\Temp\ccR4smAG.s 			page 14


 742              		@ args = 0, pretend = 0, frame = 8
 743              		@ frame_needed = 0, uses_anonymous_args = 0
 744 0000 00B5     		push	{lr}
 745              		.cfi_def_cfa_offset 4
 746              		.cfi_offset 14, -4
 747 0002 83B0     		sub	sp, sp, #12
 748              		.cfi_def_cfa_offset 16
 749              		.loc 5 478 0
 750 0004 074B     		ldr	r3, .L62
 751 0006 1B68     		ldr	r3, [r3]
 752 0008 0193     		str	r3, [sp, #4]
 753              		.loc 5 480 0
 754 000a FFF7FEFF 		bl	chSysUnlockFromISR
 755              		.loc 5 481 0
 756 000e 00BF     		nop
 757 0010 044B     		ldr	r3, .L62
 758 0012 019A     		ldr	r2, [sp, #4]
 759 0014 1B68     		ldr	r3, [r3]
 760 0016 9A42     		cmp	r2, r3
 761 0018 01D0     		beq	.L61
 762 001a FFF7FEFF 		bl	__stack_chk_fail
 763              	.L61:
 764 001e 03B0     		add	sp, sp, #12
 765              		.cfi_def_cfa_offset 4
 766              		@ sp needed
 767 0020 5DF804FB 		ldr	pc, [sp], #4
 768              	.L63:
 769              		.align	2
 770              	.L62:
 771 0024 00000000 		.word	__stack_chk_guard
 772              		.cfi_endproc
 773              	.LFE226:
 774              		.size	osalSysUnlockFromISR, .-osalSysUnlockFromISR
 775              		.section	.text.osalOsGetSystemTimeX,"ax",%progbits
 776              		.align	1
 777              		.p2align 4,,15
 778              		.syntax unified
 779              		.thumb
 780              		.thumb_func
 781              		.fpu fpv4-sp-d16
 782              		.type	osalOsGetSystemTimeX, %function
 783              	osalOsGetSystemTimeX:
 784              	.LFB232:
 785              		.loc 5 570 0
 786              		.cfi_startproc
 787              		@ args = 0, pretend = 0, frame = 8
 788              		@ frame_needed = 0, uses_anonymous_args = 0
 789 0000 00B5     		push	{lr}
 790              		.cfi_def_cfa_offset 4
 791              		.cfi_offset 14, -4
 792 0002 83B0     		sub	sp, sp, #12
 793              		.cfi_def_cfa_offset 16
 794              		.loc 5 570 0
 795 0004 084B     		ldr	r3, .L67
 796 0006 1B68     		ldr	r3, [r3]
 797 0008 0193     		str	r3, [sp, #4]
 798              		.loc 5 572 0
ARM GAS  C:\Users\PCHAUT~1\AppData\Local\Temp\ccR4smAG.s 			page 15


 799 000a FFF7FEFF 		bl	chVTGetSystemTimeX
 800 000e 0346     		mov	r3, r0
 801              		.loc 5 573 0
 802 0010 1846     		mov	r0, r3
 803 0012 054B     		ldr	r3, .L67
 804 0014 019A     		ldr	r2, [sp, #4]
 805 0016 1B68     		ldr	r3, [r3]
 806 0018 9A42     		cmp	r2, r3
 807 001a 01D0     		beq	.L66
 808 001c FFF7FEFF 		bl	__stack_chk_fail
 809              	.L66:
 810 0020 03B0     		add	sp, sp, #12
 811              		.cfi_def_cfa_offset 4
 812              		@ sp needed
 813 0022 5DF804FB 		ldr	pc, [sp], #4
 814              	.L68:
 815 0026 00BF     		.align	2
 816              	.L67:
 817 0028 00000000 		.word	__stack_chk_guard
 818              		.cfi_endproc
 819              	.LFE232:
 820              		.size	osalOsGetSystemTimeX, .-osalOsGetSystemTimeX
 821              		.section	.text.osalOsIsTimeWithinX,"ax",%progbits
 822              		.align	1
 823              		.p2align 4,,15
 824              		.syntax unified
 825              		.thumb
 826              		.thumb_func
 827              		.fpu fpv4-sp-d16
 828              		.type	osalOsIsTimeWithinX, %function
 829              	osalOsIsTimeWithinX:
 830              	.LFB233:
 831              		.loc 5 591 0
 832              		.cfi_startproc
 833              		@ args = 0, pretend = 0, frame = 24
 834              		@ frame_needed = 0, uses_anonymous_args = 0
 835 0000 00B5     		push	{lr}
 836              		.cfi_def_cfa_offset 4
 837              		.cfi_offset 14, -4
 838 0002 87B0     		sub	sp, sp, #28
 839              		.cfi_def_cfa_offset 32
 840 0004 0390     		str	r0, [sp, #12]
 841 0006 0291     		str	r1, [sp, #8]
 842 0008 0192     		str	r2, [sp, #4]
 843              		.loc 5 591 0
 844 000a 0A4B     		ldr	r3, .L72
 845 000c 1B68     		ldr	r3, [r3]
 846 000e 0593     		str	r3, [sp, #20]
 847              		.loc 5 593 0
 848 0010 019A     		ldr	r2, [sp, #4]
 849 0012 0299     		ldr	r1, [sp, #8]
 850 0014 0398     		ldr	r0, [sp, #12]
 851 0016 FFF7FEFF 		bl	chVTIsTimeWithinX
 852 001a 0346     		mov	r3, r0
 853              		.loc 5 594 0
 854 001c 1846     		mov	r0, r3
 855 001e 054B     		ldr	r3, .L72
ARM GAS  C:\Users\PCHAUT~1\AppData\Local\Temp\ccR4smAG.s 			page 16


 856 0020 059A     		ldr	r2, [sp, #20]
 857 0022 1B68     		ldr	r3, [r3]
 858 0024 9A42     		cmp	r2, r3
 859 0026 01D0     		beq	.L71
 860 0028 FFF7FEFF 		bl	__stack_chk_fail
 861              	.L71:
 862 002c 07B0     		add	sp, sp, #28
 863              		.cfi_def_cfa_offset 4
 864              		@ sp needed
 865 002e 5DF804FB 		ldr	pc, [sp], #4
 866              	.L73:
 867 0032 00BF     		.align	2
 868              	.L72:
 869 0034 00000000 		.word	__stack_chk_guard
 870              		.cfi_endproc
 871              	.LFE233:
 872              		.size	osalOsIsTimeWithinX, .-osalOsIsTimeWithinX
 873              		.section	.text.osalThreadSuspendTimeoutS,"ax",%progbits
 874              		.align	1
 875              		.p2align 4,,15
 876              		.syntax unified
 877              		.thumb
 878              		.thumb_func
 879              		.fpu fpv4-sp-d16
 880              		.type	osalThreadSuspendTimeoutS, %function
 881              	osalThreadSuspendTimeoutS:
 882              	.LFB237:
 883              		.loc 5 665 0
 884              		.cfi_startproc
 885              		@ args = 0, pretend = 0, frame = 16
 886              		@ frame_needed = 0, uses_anonymous_args = 0
 887 0000 00B5     		push	{lr}
 888              		.cfi_def_cfa_offset 4
 889              		.cfi_offset 14, -4
 890 0002 85B0     		sub	sp, sp, #20
 891              		.cfi_def_cfa_offset 24
 892 0004 0190     		str	r0, [sp, #4]
 893 0006 0091     		str	r1, [sp]
 894              		.loc 5 665 0
 895 0008 094B     		ldr	r3, .L77
 896 000a 1B68     		ldr	r3, [r3]
 897 000c 0393     		str	r3, [sp, #12]
 898              		.loc 5 667 0
 899 000e 0099     		ldr	r1, [sp]
 900 0010 0198     		ldr	r0, [sp, #4]
 901 0012 FFF7FEFF 		bl	chThdSuspendTimeoutS
 902 0016 0346     		mov	r3, r0
 903              		.loc 5 668 0
 904 0018 1846     		mov	r0, r3
 905 001a 054B     		ldr	r3, .L77
 906 001c 039A     		ldr	r2, [sp, #12]
 907 001e 1B68     		ldr	r3, [r3]
 908 0020 9A42     		cmp	r2, r3
 909 0022 01D0     		beq	.L76
 910 0024 FFF7FEFF 		bl	__stack_chk_fail
 911              	.L76:
 912 0028 05B0     		add	sp, sp, #20
ARM GAS  C:\Users\PCHAUT~1\AppData\Local\Temp\ccR4smAG.s 			page 17


 913              		.cfi_def_cfa_offset 4
 914              		@ sp needed
 915 002a 5DF804FB 		ldr	pc, [sp], #4
 916              	.L78:
 917 002e 00BF     		.align	2
 918              	.L77:
 919 0030 00000000 		.word	__stack_chk_guard
 920              		.cfi_endproc
 921              	.LFE237:
 922              		.size	osalThreadSuspendTimeoutS, .-osalThreadSuspendTimeoutS
 923              		.section	.text.osalThreadResumeI,"ax",%progbits
 924              		.align	1
 925              		.p2align 4,,15
 926              		.syntax unified
 927              		.thumb
 928              		.thumb_func
 929              		.fpu fpv4-sp-d16
 930              		.type	osalThreadResumeI, %function
 931              	osalThreadResumeI:
 932              	.LFB238:
 933              		.loc 5 680 0
 934              		.cfi_startproc
 935              		@ args = 0, pretend = 0, frame = 16
 936              		@ frame_needed = 0, uses_anonymous_args = 0
 937 0000 00B5     		push	{lr}
 938              		.cfi_def_cfa_offset 4
 939              		.cfi_offset 14, -4
 940 0002 85B0     		sub	sp, sp, #20
 941              		.cfi_def_cfa_offset 24
 942 0004 0190     		str	r0, [sp, #4]
 943 0006 0091     		str	r1, [sp]
 944              		.loc 5 680 0
 945 0008 084B     		ldr	r3, .L81
 946 000a 1B68     		ldr	r3, [r3]
 947 000c 0393     		str	r3, [sp, #12]
 948              		.loc 5 682 0
 949 000e 0099     		ldr	r1, [sp]
 950 0010 0198     		ldr	r0, [sp, #4]
 951 0012 FFF7FEFF 		bl	chThdResumeI
 952              		.loc 5 683 0
 953 0016 00BF     		nop
 954 0018 044B     		ldr	r3, .L81
 955 001a 039A     		ldr	r2, [sp, #12]
 956 001c 1B68     		ldr	r3, [r3]
 957 001e 9A42     		cmp	r2, r3
 958 0020 01D0     		beq	.L80
 959 0022 FFF7FEFF 		bl	__stack_chk_fail
 960              	.L80:
 961 0026 05B0     		add	sp, sp, #20
 962              		.cfi_def_cfa_offset 4
 963              		@ sp needed
 964 0028 5DF804FB 		ldr	pc, [sp], #4
 965              	.L82:
 966              		.align	2
 967              	.L81:
 968 002c 00000000 		.word	__stack_chk_guard
 969              		.cfi_endproc
ARM GAS  C:\Users\PCHAUT~1\AppData\Local\Temp\ccR4smAG.s 			page 18


 970              	.LFE238:
 971              		.size	osalThreadResumeI, .-osalThreadResumeI
 972              		.global	I2CD1
 973              		.section	.bss.I2CD1,"aw",%nobits
 974              		.align	2
 975              		.type	I2CD1, %object
 976              		.size	I2CD1, 60
 977              	I2CD1:
 978 0000 00000000 		.space	60
 978      00000000 
 978      00000000 
 978      00000000 
 978      00000000 
 979              		.section	.text.i2c_lld_abort_operation,"ax",%progbits
 980              		.align	1
 981              		.p2align 4,,15
 982              		.syntax unified
 983              		.thumb
 984              		.thumb_func
 985              		.fpu fpv4-sp-d16
 986              		.type	i2c_lld_abort_operation, %function
 987              	i2c_lld_abort_operation:
 988              	.LFB256:
 989              		.file 6 "../lib/e-puck2_main-processor/ChibiOS//os/hal/ports/STM32/LLD/I2Cv1/i2c_lld.c"
 990              		.loc 6 122 0
 991              		.cfi_startproc
 992              		@ args = 0, pretend = 0, frame = 16
 993              		@ frame_needed = 0, uses_anonymous_args = 0
 994 0000 00B5     		push	{lr}
 995              		.cfi_def_cfa_offset 4
 996              		.cfi_offset 14, -4
 997 0002 85B0     		sub	sp, sp, #20
 998              		.cfi_def_cfa_offset 24
 999 0004 0190     		str	r0, [sp, #4]
 1000              		.loc 6 122 0
 1001 0006 2D4B     		ldr	r3, .L87
 1002 0008 1B68     		ldr	r3, [r3]
 1003 000a 0393     		str	r3, [sp, #12]
 1004              		.loc 6 123 0
 1005 000c 019B     		ldr	r3, [sp, #4]
 1006 000e 9B6B     		ldr	r3, [r3, #56]
 1007 0010 0293     		str	r3, [sp, #8]
 1008              		.loc 6 126 0
 1009 0012 029B     		ldr	r3, [sp, #8]
 1010 0014 4FF40042 		mov	r2, #32768
 1011 0018 1A60     		str	r2, [r3]
 1012              		.loc 6 127 0
 1013 001a 029B     		ldr	r3, [sp, #8]
 1014 001c 0022     		movs	r2, #0
 1015 001e 1A60     		str	r2, [r3]
 1016              		.loc 6 128 0
 1017 0020 029B     		ldr	r3, [sp, #8]
 1018 0022 0022     		movs	r2, #0
 1019 0024 5A60     		str	r2, [r3, #4]
 1020              		.loc 6 129 0
 1021 0026 029B     		ldr	r3, [sp, #8]
 1022 0028 0022     		movs	r2, #0
ARM GAS  C:\Users\PCHAUT~1\AppData\Local\Temp\ccR4smAG.s 			page 19


 1023 002a 5A61     		str	r2, [r3, #20]
 1024              		.loc 6 132 0
 1025 002c 019B     		ldr	r3, [sp, #4]
 1026 002e 5B6B     		ldr	r3, [r3, #52]
 1027 0030 1B68     		ldr	r3, [r3]
 1028 0032 1A68     		ldr	r2, [r3]
 1029 0034 019B     		ldr	r3, [sp, #4]
 1030 0036 5B6B     		ldr	r3, [r3, #52]
 1031 0038 1B68     		ldr	r3, [r3]
 1032 003a 22F01F02 		bic	r2, r2, #31
 1033 003e 1A60     		str	r2, [r3]
 1034 0040 00BF     		nop
 1035              	.L84:
 1036              		.loc 6 132 0 is_stmt 0 discriminator 2
 1037 0042 019B     		ldr	r3, [sp, #4]
 1038 0044 5B6B     		ldr	r3, [r3, #52]
 1039 0046 1B68     		ldr	r3, [r3]
 1040 0048 1B68     		ldr	r3, [r3]
 1041 004a 03F00103 		and	r3, r3, #1
 1042 004e 002B     		cmp	r3, #0
 1043 0050 F7D1     		bne	.L84
 1044              		.loc 6 132 0 discriminator 3
 1045 0052 019B     		ldr	r3, [sp, #4]
 1046 0054 5B6B     		ldr	r3, [r3, #52]
 1047 0056 1B7A     		ldrb	r3, [r3, #8]	@ zero_extendqisi2
 1048 0058 1A46     		mov	r2, r3
 1049 005a 3D23     		movs	r3, #61
 1050 005c 03FA02F2 		lsl	r2, r3, r2
 1051 0060 019B     		ldr	r3, [sp, #4]
 1052 0062 5B6B     		ldr	r3, [r3, #52]
 1053 0064 5B68     		ldr	r3, [r3, #4]
 1054 0066 1A60     		str	r2, [r3]
 1055              		.loc 6 133 0 is_stmt 1 discriminator 3
 1056 0068 019B     		ldr	r3, [sp, #4]
 1057 006a 1B6B     		ldr	r3, [r3, #48]
 1058 006c 1B68     		ldr	r3, [r3]
 1059 006e 1A68     		ldr	r2, [r3]
 1060 0070 019B     		ldr	r3, [sp, #4]
 1061 0072 1B6B     		ldr	r3, [r3, #48]
 1062 0074 1B68     		ldr	r3, [r3]
 1063 0076 22F01F02 		bic	r2, r2, #31
 1064 007a 1A60     		str	r2, [r3]
 1065 007c 00BF     		nop
 1066              	.L85:
 1067              		.loc 6 133 0 is_stmt 0 discriminator 2
 1068 007e 019B     		ldr	r3, [sp, #4]
 1069 0080 1B6B     		ldr	r3, [r3, #48]
 1070 0082 1B68     		ldr	r3, [r3]
 1071 0084 1B68     		ldr	r3, [r3]
 1072 0086 03F00103 		and	r3, r3, #1
 1073 008a 002B     		cmp	r3, #0
 1074 008c F7D1     		bne	.L85
 1075              		.loc 6 133 0 discriminator 3
 1076 008e 019B     		ldr	r3, [sp, #4]
 1077 0090 1B6B     		ldr	r3, [r3, #48]
 1078 0092 1B7A     		ldrb	r3, [r3, #8]	@ zero_extendqisi2
 1079 0094 1A46     		mov	r2, r3
ARM GAS  C:\Users\PCHAUT~1\AppData\Local\Temp\ccR4smAG.s 			page 20


 1080 0096 3D23     		movs	r3, #61
 1081 0098 03FA02F2 		lsl	r2, r3, r2
 1082 009c 019B     		ldr	r3, [sp, #4]
 1083 009e 1B6B     		ldr	r3, [r3, #48]
 1084 00a0 5B68     		ldr	r3, [r3, #4]
 1085 00a2 1A60     		str	r2, [r3]
 1086              		.loc 6 134 0 is_stmt 1 discriminator 3
 1087 00a4 00BF     		nop
 1088 00a6 054B     		ldr	r3, .L87
 1089 00a8 039A     		ldr	r2, [sp, #12]
 1090 00aa 1B68     		ldr	r3, [r3]
 1091 00ac 9A42     		cmp	r2, r3
 1092 00ae 01D0     		beq	.L86
 1093              		.loc 6 134 0 is_stmt 0
 1094 00b0 FFF7FEFF 		bl	__stack_chk_fail
 1095              	.L86:
 1096 00b4 05B0     		add	sp, sp, #20
 1097              		.cfi_def_cfa_offset 4
 1098              		@ sp needed
 1099 00b6 5DF804FB 		ldr	pc, [sp], #4
 1100              	.L88:
 1101 00ba 00BF     		.align	2
 1102              	.L87:
 1103 00bc 00000000 		.word	__stack_chk_guard
 1104              		.cfi_endproc
 1105              	.LFE256:
 1106              		.size	i2c_lld_abort_operation, .-i2c_lld_abort_operation
 1107              		.section	.text.i2c_lld_set_clock,"ax",%progbits
 1108              		.align	1
 1109              		.p2align 4,,15
 1110              		.syntax unified
 1111              		.thumb
 1112              		.thumb_func
 1113              		.fpu fpv4-sp-d16
 1114              		.type	i2c_lld_set_clock, %function
 1115              	i2c_lld_set_clock:
 1116              	.LFB257:
 1117              		.loc 6 143 0 is_stmt 1
 1118              		.cfi_startproc
 1119              		@ args = 0, pretend = 0, frame = 32
 1120              		@ frame_needed = 0, uses_anonymous_args = 0
 1121 0000 00B5     		push	{lr}
 1122              		.cfi_def_cfa_offset 4
 1123              		.cfi_offset 14, -4
 1124 0002 89B0     		sub	sp, sp, #36
 1125              		.cfi_def_cfa_offset 40
 1126 0004 0190     		str	r0, [sp, #4]
 1127              		.loc 6 143 0
 1128 0006 764B     		ldr	r3, .L108
 1129 0008 1B68     		ldr	r3, [r3]
 1130 000a 0793     		str	r3, [sp, #28]
 1131              		.loc 6 144 0
 1132 000c 019B     		ldr	r3, [sp, #4]
 1133 000e 9B6B     		ldr	r3, [r3, #56]
 1134 0010 0593     		str	r3, [sp, #20]
 1135              		.loc 6 146 0
 1136 0012 019B     		ldr	r3, [sp, #4]
ARM GAS  C:\Users\PCHAUT~1\AppData\Local\Temp\ccR4smAG.s 			page 21


 1137 0014 5B68     		ldr	r3, [r3, #4]
 1138 0016 5B68     		ldr	r3, [r3, #4]
 1139 0018 0693     		str	r3, [sp, #24]
 1140              		.loc 6 147 0
 1141 001a 019B     		ldr	r3, [sp, #4]
 1142 001c 5B68     		ldr	r3, [r3, #4]
 1143 001e 1B7A     		ldrb	r3, [r3, #8]
 1144 0020 8DF80F30 		strb	r3, [sp, #15]
 1145              		.loc 6 149 0
 1146 0024 019B     		ldr	r3, [sp, #4]
 1147 0026 002B     		cmp	r3, #0
 1148 0028 06D0     		beq	.L90
 1149              		.loc 6 149 0 is_stmt 0 discriminator 3
 1150 002a 069B     		ldr	r3, [sp, #24]
 1151 002c 002B     		cmp	r3, #0
 1152 002e 03DD     		ble	.L90
 1153              		.loc 6 149 0 discriminator 5
 1154 0030 069B     		ldr	r3, [sp, #24]
 1155 0032 6C4A     		ldr	r2, .L108+4
 1156 0034 9342     		cmp	r3, r2
 1157 0036 02DD     		ble	.L91
 1158              	.L90:
 1159              		.loc 6 149 0 discriminator 6
 1160 0038 6B48     		ldr	r0, .L108+8
 1161 003a FFF7FEFF 		bl	chSysHalt
 1162              	.L91:
 1163              		.loc 6 154 0 is_stmt 1
 1164 003e 059B     		ldr	r3, [sp, #20]
 1165 0040 5A68     		ldr	r2, [r3, #4]
 1166 0042 4FF6C073 		movw	r3, #65472
 1167 0046 1340     		ands	r3, r3, r2
 1168 0048 059A     		ldr	r2, [sp, #20]
 1169 004a 5360     		str	r3, [r2, #4]
 1170              		.loc 6 155 0
 1171 004c 059B     		ldr	r3, [sp, #20]
 1172 004e 5B68     		ldr	r3, [r3, #4]
 1173 0050 43F02A02 		orr	r2, r3, #42
 1174 0054 059B     		ldr	r3, [sp, #20]
 1175 0056 5A60     		str	r2, [r3, #4]
 1176              		.loc 6 158 0
 1177 0058 0023     		movs	r3, #0
 1178 005a ADF81030 		strh	r3, [sp, #16]	@ movhi
 1179              		.loc 6 159 0
 1180 005e 40F6FF73 		movw	r3, #4095
 1181 0062 ADF81230 		strh	r3, [sp, #18]	@ movhi
 1182              		.loc 6 161 0
 1183 0066 069B     		ldr	r3, [sp, #24]
 1184 0068 604A     		ldr	r2, .L108+12
 1185 006a 9342     		cmp	r3, r2
 1186 006c 31DC     		bgt	.L92
 1187              		.loc 6 163 0 discriminator 1
 1188 006e 9DF80F30 		ldrb	r3, [sp, #15]	@ zero_extendqisi2
 1189 0072 012B     		cmp	r3, #1
 1190 0074 02D0     		beq	.L105
 1191              		.loc 6 163 0 is_stmt 0 discriminator 2
 1192 0076 5C48     		ldr	r0, .L108+8
 1193 0078 FFF7FEFF 		bl	chSysHalt
ARM GAS  C:\Users\PCHAUT~1\AppData\Local\Temp\ccR4smAG.s 			page 22


 1194              	.L105:
 1195              		.loc 6 166 0 is_stmt 1 discriminator 1
 1196 007c 069B     		ldr	r3, [sp, #24]
 1197 007e 5B00     		lsls	r3, r3, #1
 1198 0080 1A46     		mov	r2, r3
 1199 0082 5B4B     		ldr	r3, .L108+16
 1200 0084 B3FBF2F1 		udiv	r1, r3, r2
 1201 0088 02FB01F2 		mul	r2, r2, r1
 1202 008c 9B1A     		subs	r3, r3, r2
 1203 008e 002B     		cmp	r3, #0
 1204 0090 02D0     		beq	.L94
 1205              		.loc 6 166 0 is_stmt 0 discriminator 2
 1206 0092 5548     		ldr	r0, .L108+8
 1207 0094 FFF7FEFF 		bl	chSysHalt
 1208              	.L94:
 1209              		.loc 6 168 0 is_stmt 1
 1210 0098 069B     		ldr	r3, [sp, #24]
 1211 009a 5B00     		lsls	r3, r3, #1
 1212 009c 1A46     		mov	r2, r3
 1213 009e 544B     		ldr	r3, .L108+16
 1214 00a0 B3FBF2F3 		udiv	r3, r3, r2
 1215 00a4 ADF81230 		strh	r3, [sp, #18]	@ movhi
 1216              		.loc 6 170 0
 1217 00a8 BDF81230 		ldrh	r3, [sp, #18]
 1218 00ac 032B     		cmp	r3, #3
 1219 00ae 02D8     		bhi	.L95
 1220              		.loc 6 170 0 is_stmt 0 discriminator 2
 1221 00b0 4D48     		ldr	r0, .L108+8
 1222 00b2 FFF7FEFF 		bl	chSysHalt
 1223              	.L95:
 1224              		.loc 6 172 0 is_stmt 1
 1225 00b6 BDF81230 		ldrh	r3, [sp, #18]	@ movhi
 1226 00ba C3F30B03 		ubfx	r3, r3, #0, #12
 1227 00be 9AB2     		uxth	r2, r3
 1228 00c0 BDF81030 		ldrh	r3, [sp, #16]	@ movhi
 1229 00c4 1343     		orrs	r3, r3, r2
 1230 00c6 ADF81030 		strh	r3, [sp, #16]	@ movhi
 1231              		.loc 6 175 0
 1232 00ca 059B     		ldr	r3, [sp, #20]
 1233 00cc 2B22     		movs	r2, #43
 1234 00ce 1A62     		str	r2, [r3, #32]
 1235 00d0 6EE0     		b	.L106
 1236              	.L92:
 1237              		.loc 6 177 0
 1238 00d2 069B     		ldr	r3, [sp, #24]
 1239 00d4 474A     		ldr	r2, .L108+20
 1240 00d6 9342     		cmp	r3, r2
 1241 00d8 6ADC     		bgt	.L106
 1242              		.loc 6 179 0 discriminator 1
 1243 00da 9DF80F30 		ldrb	r3, [sp, #15]	@ zero_extendqisi2
 1244 00de 022B     		cmp	r3, #2
 1245 00e0 06D0     		beq	.L97
 1246              		.loc 6 179 0 is_stmt 0 discriminator 2
 1247 00e2 9DF80F30 		ldrb	r3, [sp, #15]	@ zero_extendqisi2
 1248 00e6 032B     		cmp	r3, #3
 1249 00e8 02D0     		beq	.L97
 1250              		.loc 6 179 0 discriminator 3
ARM GAS  C:\Users\PCHAUT~1\AppData\Local\Temp\ccR4smAG.s 			page 23


 1251 00ea 3F48     		ldr	r0, .L108+8
 1252 00ec FFF7FEFF 		bl	chSysHalt
 1253              	.L97:
 1254              		.loc 6 183 0 is_stmt 1
 1255 00f0 9DF80F30 		ldrb	r3, [sp, #15]	@ zero_extendqisi2
 1256 00f4 022B     		cmp	r3, #2
 1257 00f6 1AD1     		bne	.L98
 1258              		.loc 6 185 0 discriminator 1
 1259 00f8 069A     		ldr	r2, [sp, #24]
 1260 00fa 1346     		mov	r3, r2
 1261 00fc 5B00     		lsls	r3, r3, #1
 1262 00fe 1344     		add	r3, r3, r2
 1263 0100 1A46     		mov	r2, r3
 1264 0102 3B4B     		ldr	r3, .L108+16
 1265 0104 B3FBF2F1 		udiv	r1, r3, r2
 1266 0108 02FB01F2 		mul	r2, r2, r1
 1267 010c 9B1A     		subs	r3, r3, r2
 1268 010e 002B     		cmp	r3, #0
 1269 0110 02D0     		beq	.L99
 1270              		.loc 6 185 0 is_stmt 0 discriminator 2
 1271 0112 3548     		ldr	r0, .L108+8
 1272 0114 FFF7FEFF 		bl	chSysHalt
 1273              	.L99:
 1274              		.loc 6 187 0 is_stmt 1
 1275 0118 069A     		ldr	r2, [sp, #24]
 1276 011a 1346     		mov	r3, r2
 1277 011c 5B00     		lsls	r3, r3, #1
 1278 011e 1344     		add	r3, r3, r2
 1279 0120 1A46     		mov	r2, r3
 1280 0122 334B     		ldr	r3, .L108+16
 1281 0124 B3FBF2F3 		udiv	r3, r3, r2
 1282 0128 ADF81230 		strh	r3, [sp, #18]	@ movhi
 1283 012c 27E0     		b	.L107
 1284              	.L98:
 1285              		.loc 6 189 0
 1286 012e 9DF80F30 		ldrb	r3, [sp, #15]	@ zero_extendqisi2
 1287 0132 032B     		cmp	r3, #3
 1288 0134 23D1     		bne	.L107
 1289              		.loc 6 191 0 discriminator 1
 1290 0136 069A     		ldr	r2, [sp, #24]
 1291 0138 1346     		mov	r3, r2
 1292 013a 9B00     		lsls	r3, r3, #2
 1293 013c 1344     		add	r3, r3, r2
 1294 013e 9A00     		lsls	r2, r3, #2
 1295 0140 1344     		add	r3, r3, r2
 1296 0142 1A46     		mov	r2, r3
 1297 0144 2A4B     		ldr	r3, .L108+16
 1298 0146 B3FBF2F1 		udiv	r1, r3, r2
 1299 014a 02FB01F2 		mul	r2, r2, r1
 1300 014e 9B1A     		subs	r3, r3, r2
 1301 0150 002B     		cmp	r3, #0
 1302 0152 02D0     		beq	.L101
 1303              		.loc 6 191 0 is_stmt 0 discriminator 2
 1304 0154 2448     		ldr	r0, .L108+8
 1305 0156 FFF7FEFF 		bl	chSysHalt
 1306              	.L101:
 1307              		.loc 6 193 0 is_stmt 1
ARM GAS  C:\Users\PCHAUT~1\AppData\Local\Temp\ccR4smAG.s 			page 24


 1308 015a 069A     		ldr	r2, [sp, #24]
 1309 015c 1346     		mov	r3, r2
 1310 015e 9B00     		lsls	r3, r3, #2
 1311 0160 1344     		add	r3, r3, r2
 1312 0162 9A00     		lsls	r2, r3, #2
 1313 0164 1344     		add	r3, r3, r2
 1314 0166 1A46     		mov	r2, r3
 1315 0168 214B     		ldr	r3, .L108+16
 1316 016a B3FBF2F3 		udiv	r3, r3, r2
 1317 016e ADF81230 		strh	r3, [sp, #18]	@ movhi
 1318              		.loc 6 194 0
 1319 0172 BDF81030 		ldrh	r3, [sp, #16]	@ movhi
 1320 0176 43F48043 		orr	r3, r3, #16384
 1321 017a ADF81030 		strh	r3, [sp, #16]	@ movhi
 1322              	.L107:
 1323              		.loc 6 197 0 discriminator 1
 1324 017e BDF81230 		ldrh	r3, [sp, #18]
 1325 0182 002B     		cmp	r3, #0
 1326 0184 02D1     		bne	.L102
 1327              		.loc 6 197 0 is_stmt 0 discriminator 2
 1328 0186 1848     		ldr	r0, .L108+8
 1329 0188 FFF7FEFF 		bl	chSysHalt
 1330              	.L102:
 1331              		.loc 6 199 0 is_stmt 1
 1332 018c BDF81230 		ldrh	r3, [sp, #18]	@ movhi
 1333 0190 C3F30B03 		ubfx	r3, r3, #0, #12
 1334 0194 9AB2     		uxth	r2, r3
 1335 0196 BDF81030 		ldrh	r3, [sp, #16]	@ movhi
 1336 019a 1343     		orrs	r3, r3, r2
 1337 019c 9BB2     		uxth	r3, r3
 1338 019e 6FEA4343 		mvn	r3, r3, lsl #17
 1339 01a2 6FEA5343 		mvn	r3, r3, lsr #17
 1340 01a6 ADF81030 		strh	r3, [sp, #16]	@ movhi
 1341              		.loc 6 202 0
 1342 01aa 059B     		ldr	r3, [sp, #20]
 1343 01ac 0D22     		movs	r2, #13
 1344 01ae 1A62     		str	r2, [r3, #32]
 1345              	.L106:
 1346              		.loc 6 205 0 discriminator 1
 1347 01b0 BDF81230 		ldrh	r3, [sp, #18]
 1348 01b4 B3F5805F 		cmp	r3, #4096
 1349 01b8 02D3     		bcc	.L103
 1350              		.loc 6 205 0 is_stmt 0 discriminator 2
 1351 01ba 0B48     		ldr	r0, .L108+8
 1352 01bc FFF7FEFF 		bl	chSysHalt
 1353              	.L103:
 1354              		.loc 6 207 0 is_stmt 1
 1355 01c0 BDF81020 		ldrh	r2, [sp, #16]
 1356 01c4 059B     		ldr	r3, [sp, #20]
 1357 01c6 DA61     		str	r2, [r3, #28]
 1358              		.loc 6 208 0
 1359 01c8 00BF     		nop
 1360 01ca 054B     		ldr	r3, .L108
 1361 01cc 079A     		ldr	r2, [sp, #28]
 1362 01ce 1B68     		ldr	r3, [r3]
 1363 01d0 9A42     		cmp	r2, r3
 1364 01d2 01D0     		beq	.L104
ARM GAS  C:\Users\PCHAUT~1\AppData\Local\Temp\ccR4smAG.s 			page 25


 1365 01d4 FFF7FEFF 		bl	__stack_chk_fail
 1366              	.L104:
 1367 01d8 09B0     		add	sp, sp, #36
 1368              		.cfi_def_cfa_offset 4
 1369              		@ sp needed
 1370 01da 5DF804FB 		ldr	pc, [sp], #4
 1371              	.L109:
 1372 01de 00BF     		.align	2
 1373              	.L108:
 1374 01e0 00000000 		.word	__stack_chk_guard
 1375 01e4 00093D00 		.word	4000000
 1376 01e8 00000000 		.word	__func__.9857
 1377 01ec A0860100 		.word	100000
 1378 01f0 80DE8002 		.word	42000000
 1379 01f4 801A0600 		.word	400000
 1380              		.cfi_endproc
 1381              	.LFE257:
 1382              		.size	i2c_lld_set_clock, .-i2c_lld_set_clock
 1383              		.section	.text.i2c_lld_set_opmode,"ax",%progbits
 1384              		.align	1
 1385              		.p2align 4,,15
 1386              		.syntax unified
 1387              		.thumb
 1388              		.thumb_func
 1389              		.fpu fpv4-sp-d16
 1390              		.type	i2c_lld_set_opmode, %function
 1391              	i2c_lld_set_opmode:
 1392              	.LFB258:
 1393              		.loc 6 217 0
 1394              		.cfi_startproc
 1395              		@ args = 0, pretend = 0, frame = 24
 1396              		@ frame_needed = 0, uses_anonymous_args = 0
 1397 0000 00B5     		push	{lr}
 1398              		.cfi_def_cfa_offset 4
 1399              		.cfi_offset 14, -4
 1400 0002 87B0     		sub	sp, sp, #28
 1401              		.cfi_def_cfa_offset 32
 1402 0004 0190     		str	r0, [sp, #4]
 1403              		.loc 6 217 0
 1404 0006 204B     		ldr	r3, .L116
 1405 0008 1B68     		ldr	r3, [r3]
 1406 000a 0593     		str	r3, [sp, #20]
 1407              		.loc 6 218 0
 1408 000c 019B     		ldr	r3, [sp, #4]
 1409 000e 9B6B     		ldr	r3, [r3, #56]
 1410 0010 0493     		str	r3, [sp, #16]
 1411              		.loc 6 219 0
 1412 0012 019B     		ldr	r3, [sp, #4]
 1413 0014 5B68     		ldr	r3, [r3, #4]
 1414 0016 1B78     		ldrb	r3, [r3]
 1415 0018 8DF80D30 		strb	r3, [sp, #13]
 1416              		.loc 6 222 0
 1417 001c 049B     		ldr	r3, [sp, #16]
 1418 001e 1B68     		ldr	r3, [r3]
 1419 0020 ADF80E30 		strh	r3, [sp, #14]	@ movhi
 1420              		.loc 6 223 0
 1421 0024 9DF80D30 		ldrb	r3, [sp, #13]	@ zero_extendqisi2
ARM GAS  C:\Users\PCHAUT~1\AppData\Local\Temp\ccR4smAG.s 			page 26


 1422 0028 022B     		cmp	r3, #2
 1423 002a 0AD0     		beq	.L112
 1424 002c 032B     		cmp	r3, #3
 1425 002e 15D0     		beq	.L113
 1426 0030 012B     		cmp	r3, #1
 1427 0032 1AD1     		bne	.L111
 1428              		.loc 6 225 0
 1429 0034 BDF80E30 		ldrh	r3, [sp, #14]	@ movhi
 1430 0038 23F00A03 		bic	r3, r3, #10
 1431 003c ADF80E30 		strh	r3, [sp, #14]	@ movhi
 1432              		.loc 6 226 0
 1433 0040 13E0     		b	.L111
 1434              	.L112:
 1435              		.loc 6 228 0
 1436 0042 BDF80E30 		ldrh	r3, [sp, #14]	@ movhi
 1437 0046 43F00203 		orr	r3, r3, #2
 1438 004a ADF80E30 		strh	r3, [sp, #14]	@ movhi
 1439              		.loc 6 229 0
 1440 004e BDF80E30 		ldrh	r3, [sp, #14]	@ movhi
 1441 0052 23F00803 		bic	r3, r3, #8
 1442 0056 ADF80E30 		strh	r3, [sp, #14]	@ movhi
 1443              		.loc 6 230 0
 1444 005a 06E0     		b	.L111
 1445              	.L113:
 1446              		.loc 6 232 0
 1447 005c BDF80E30 		ldrh	r3, [sp, #14]	@ movhi
 1448 0060 43F00A03 		orr	r3, r3, #10
 1449 0064 ADF80E30 		strh	r3, [sp, #14]	@ movhi
 1450              		.loc 6 233 0
 1451 0068 00BF     		nop
 1452              	.L111:
 1453              		.loc 6 235 0
 1454 006a BDF80E20 		ldrh	r2, [sp, #14]
 1455 006e 049B     		ldr	r3, [sp, #16]
 1456 0070 1A60     		str	r2, [r3]
 1457              		.loc 6 236 0
 1458 0072 00BF     		nop
 1459 0074 044B     		ldr	r3, .L116
 1460 0076 059A     		ldr	r2, [sp, #20]
 1461 0078 1B68     		ldr	r3, [r3]
 1462 007a 9A42     		cmp	r2, r3
 1463 007c 01D0     		beq	.L115
 1464 007e FFF7FEFF 		bl	__stack_chk_fail
 1465              	.L115:
 1466 0082 07B0     		add	sp, sp, #28
 1467              		.cfi_def_cfa_offset 4
 1468              		@ sp needed
 1469 0084 5DF804FB 		ldr	pc, [sp], #4
 1470              	.L117:
 1471              		.align	2
 1472              	.L116:
 1473 0088 00000000 		.word	__stack_chk_guard
 1474              		.cfi_endproc
 1475              	.LFE258:
 1476              		.size	i2c_lld_set_opmode, .-i2c_lld_set_opmode
 1477              		.section	.text.i2c_lld_serve_event_interrupt,"ax",%progbits
 1478              		.align	1
ARM GAS  C:\Users\PCHAUT~1\AppData\Local\Temp\ccR4smAG.s 			page 27


 1479              		.p2align 4,,15
 1480              		.syntax unified
 1481              		.thumb
 1482              		.thumb_func
 1483              		.fpu fpv4-sp-d16
 1484              		.type	i2c_lld_serve_event_interrupt, %function
 1485              	i2c_lld_serve_event_interrupt:
 1486              	.LFB259:
 1487              		.loc 6 245 0
 1488              		.cfi_startproc
 1489              		@ args = 0, pretend = 0, frame = 24
 1490              		@ frame_needed = 0, uses_anonymous_args = 0
 1491 0000 00B5     		push	{lr}
 1492              		.cfi_def_cfa_offset 4
 1493              		.cfi_offset 14, -4
 1494 0002 87B0     		sub	sp, sp, #28
 1495              		.cfi_def_cfa_offset 32
 1496 0004 0190     		str	r0, [sp, #4]
 1497              		.loc 6 245 0
 1498 0006 604B     		ldr	r3, .L134
 1499 0008 1B68     		ldr	r3, [r3]
 1500 000a 0593     		str	r3, [sp, #20]
 1501              		.loc 6 246 0
 1502 000c 019B     		ldr	r3, [sp, #4]
 1503 000e 9B6B     		ldr	r3, [r3, #56]
 1504 0010 0293     		str	r3, [sp, #8]
 1505              		.loc 6 247 0
 1506 0012 029B     		ldr	r3, [sp, #8]
 1507 0014 9B69     		ldr	r3, [r3, #24]
 1508 0016 0393     		str	r3, [sp, #12]
 1509              		.loc 6 248 0
 1510 0018 029B     		ldr	r3, [sp, #8]
 1511 001a 5B69     		ldr	r3, [r3, #20]
 1512 001c 0493     		str	r3, [sp, #16]
 1513              		.loc 6 253 0
 1514 001e 039B     		ldr	r3, [sp, #12]
 1515 0020 1A04     		lsls	r2, r3, #16
 1516 0022 049B     		ldr	r3, [sp, #16]
 1517 0024 1343     		orrs	r3, r3, r2
 1518 0026 23F07F43 		bic	r3, r3, #-16777216
 1519 002a 584A     		ldr	r2, .L134+4
 1520 002c 9342     		cmp	r3, r2
 1521 002e 31D0     		beq	.L120
 1522 0030 564A     		ldr	r2, .L134+4
 1523 0032 9342     		cmp	r3, r2
 1524 0034 06D8     		bhi	.L121
 1525 0036 564A     		ldr	r2, .L134+8
 1526 0038 9342     		cmp	r3, r2
 1527 003a 0AD0     		beq	.L122
 1528 003c 554A     		ldr	r2, .L134+12
 1529 003e 9342     		cmp	r3, r2
 1530 0040 30D0     		beq	.L123
 1531              		.loc 6 290 0
 1532 0042 8FE0     		b	.L128
 1533              	.L121:
 1534              		.loc 6 253 0
 1535 0044 544A     		ldr	r2, .L134+16
ARM GAS  C:\Users\PCHAUT~1\AppData\Local\Temp\ccR4smAG.s 			page 28


 1536 0046 9342     		cmp	r3, r2
 1537 0048 4FD0     		beq	.L124
 1538 004a 544A     		ldr	r2, .L134+20
 1539 004c 9342     		cmp	r3, r2
 1540 004e 5DD0     		beq	.L125
 1541              		.loc 6 290 0
 1542 0050 88E0     		b	.L128
 1543              	.L122:
 1544              		.loc 6 255 0
 1545 0052 019B     		ldr	r3, [sp, #4]
 1546 0054 9B8C     		ldrh	r3, [r3, #36]
 1547 0056 1B0A     		lsrs	r3, r3, #8
 1548 0058 9BB2     		uxth	r3, r3
 1549 005a 002B     		cmp	r3, #0
 1550 005c 14D0     		beq	.L126
 1551              		.loc 6 257 0
 1552 005e 019B     		ldr	r3, [sp, #4]
 1553 0060 9B8C     		ldrh	r3, [r3, #36]
 1554 0062 1B0A     		lsrs	r3, r3, #8
 1555 0064 9BB2     		uxth	r3, r3
 1556 0066 03F00603 		and	r3, r3, #6
 1557 006a 9AB2     		uxth	r2, r3
 1558 006c 019B     		ldr	r3, [sp, #4]
 1559 006e 9B8C     		ldrh	r3, [r3, #36]
 1560 0070 03F00103 		and	r3, r3, #1
 1561 0074 9BB2     		uxth	r3, r3
 1562 0076 1343     		orrs	r3, r3, r2
 1563 0078 9BB2     		uxth	r3, r3
 1564 007a 43F0F003 		orr	r3, r3, #240
 1565 007e 9BB2     		uxth	r3, r3
 1566 0080 1A46     		mov	r2, r3
 1567 0082 029B     		ldr	r3, [sp, #8]
 1568 0084 1A61     		str	r2, [r3, #16]
 1569              		.loc 6 261 0
 1570 0086 6DE0     		b	.L128
 1571              	.L126:
 1572              		.loc 6 259 0
 1573 0088 019B     		ldr	r3, [sp, #4]
 1574 008a 9B8C     		ldrh	r3, [r3, #36]
 1575 008c 1A46     		mov	r2, r3
 1576 008e 029B     		ldr	r3, [sp, #8]
 1577 0090 1A61     		str	r2, [r3, #16]
 1578              		.loc 6 261 0
 1579 0092 67E0     		b	.L128
 1580              	.L120:
 1581              		.loc 6 264 0
 1582 0094 019B     		ldr	r3, [sp, #4]
 1583 0096 9B8C     		ldrh	r3, [r3, #36]
 1584 0098 5B08     		lsrs	r3, r3, #1
 1585 009a 9BB2     		uxth	r3, r3
 1586 009c DAB2     		uxtb	r2, r3
 1587 009e 029B     		ldr	r3, [sp, #8]
 1588 00a0 1A61     		str	r2, [r3, #16]
 1589              		.loc 6 265 0
 1590 00a2 5FE0     		b	.L128
 1591              	.L123:
 1592              		.loc 6 267 0
ARM GAS  C:\Users\PCHAUT~1\AppData\Local\Temp\ccR4smAG.s 			page 29


 1593 00a4 029B     		ldr	r3, [sp, #8]
 1594 00a6 5B68     		ldr	r3, [r3, #4]
 1595 00a8 23F40072 		bic	r2, r3, #512
 1596 00ac 029B     		ldr	r3, [sp, #8]
 1597 00ae 5A60     		str	r2, [r3, #4]
 1598              		.loc 6 268 0
 1599 00b0 019B     		ldr	r3, [sp, #4]
 1600 00b2 1B6B     		ldr	r3, [r3, #48]
 1601 00b4 1B68     		ldr	r3, [r3]
 1602 00b6 1A68     		ldr	r2, [r3]
 1603 00b8 019B     		ldr	r3, [sp, #4]
 1604 00ba 1B6B     		ldr	r3, [r3, #48]
 1605 00bc 1B68     		ldr	r3, [r3]
 1606 00be 42F00102 		orr	r2, r2, #1
 1607 00c2 1A60     		str	r2, [r3]
 1608              		.loc 6 269 0
 1609 00c4 029B     		ldr	r3, [sp, #8]
 1610 00c6 5B68     		ldr	r3, [r3, #4]
 1611 00c8 43F48052 		orr	r2, r3, #4096
 1612 00cc 029B     		ldr	r3, [sp, #8]
 1613 00ce 5A60     		str	r2, [r3, #4]
 1614              		.loc 6 270 0
 1615 00d0 019B     		ldr	r3, [sp, #4]
 1616 00d2 1B6B     		ldr	r3, [r3, #48]
 1617 00d4 1B68     		ldr	r3, [r3]
 1618 00d6 5B68     		ldr	r3, [r3, #4]
 1619 00d8 012B     		cmp	r3, #1
 1620 00da 42D8     		bhi	.L133
 1621              		.loc 6 271 0
 1622 00dc 029B     		ldr	r3, [sp, #8]
 1623 00de 1B68     		ldr	r3, [r3]
 1624 00e0 23F48062 		bic	r2, r3, #1024
 1625 00e4 029B     		ldr	r3, [sp, #8]
 1626 00e6 1A60     		str	r2, [r3]
 1627              		.loc 6 272 0
 1628 00e8 3BE0     		b	.L133
 1629              	.L124:
 1630              		.loc 6 274 0
 1631 00ea 029B     		ldr	r3, [sp, #8]
 1632 00ec 5B68     		ldr	r3, [r3, #4]
 1633 00ee 23F40072 		bic	r2, r3, #512
 1634 00f2 029B     		ldr	r3, [sp, #8]
 1635 00f4 5A60     		str	r2, [r3, #4]
 1636              		.loc 6 275 0
 1637 00f6 019B     		ldr	r3, [sp, #4]
 1638 00f8 5B6B     		ldr	r3, [r3, #52]
 1639 00fa 1B68     		ldr	r3, [r3]
 1640 00fc 1A68     		ldr	r2, [r3]
 1641 00fe 019B     		ldr	r3, [sp, #4]
 1642 0100 5B6B     		ldr	r3, [r3, #52]
 1643 0102 1B68     		ldr	r3, [r3]
 1644 0104 42F00102 		orr	r2, r2, #1
 1645 0108 1A60     		str	r2, [r3]
 1646              		.loc 6 276 0
 1647 010a 2BE0     		b	.L128
 1648              	.L125:
 1649              		.loc 6 279 0
ARM GAS  C:\Users\PCHAUT~1\AppData\Local\Temp\ccR4smAG.s 			page 30


 1650 010c 019B     		ldr	r3, [sp, #4]
 1651 010e 1B6B     		ldr	r3, [r3, #48]
 1652 0110 1B68     		ldr	r3, [r3]
 1653 0112 5B68     		ldr	r3, [r3, #4]
 1654 0114 002B     		cmp	r3, #0
 1655 0116 0DD0     		beq	.L130
 1656              		.loc 6 281 0
 1657 0118 019B     		ldr	r3, [sp, #4]
 1658 011a 9B8C     		ldrh	r3, [r3, #36]
 1659 011c 43F00103 		orr	r3, r3, #1
 1660 0120 9AB2     		uxth	r2, r3
 1661 0122 019B     		ldr	r3, [sp, #4]
 1662 0124 9A84     		strh	r2, [r3, #36]	@ movhi
 1663              		.loc 6 282 0
 1664 0126 029B     		ldr	r3, [sp, #8]
 1665 0128 1B68     		ldr	r3, [r3]
 1666 012a 43F4A062 		orr	r2, r3, #1280
 1667 012e 029B     		ldr	r3, [sp, #8]
 1668 0130 1A60     		str	r2, [r3]
 1669              		.loc 6 283 0
 1670 0132 1EE0     		b	.L118
 1671              	.L130:
 1672              		.loc 6 285 0
 1673 0134 029B     		ldr	r3, [sp, #8]
 1674 0136 5B68     		ldr	r3, [r3, #4]
 1675 0138 23F40072 		bic	r2, r3, #512
 1676 013c 029B     		ldr	r3, [sp, #8]
 1677 013e 5A60     		str	r2, [r3, #4]
 1678              		.loc 6 286 0
 1679 0140 029B     		ldr	r3, [sp, #8]
 1680 0142 1B68     		ldr	r3, [r3]
 1681 0144 43F40072 		orr	r2, r3, #512
 1682 0148 029B     		ldr	r3, [sp, #8]
 1683 014a 1A60     		str	r2, [r3]
 1684              		.loc 6 287 0
 1685 014c FFF7FEFF 		bl	osalSysLockFromISR
 1686 0150 019B     		ldr	r3, [sp, #4]
 1687 0152 2033     		adds	r3, r3, #32
 1688 0154 0021     		movs	r1, #0
 1689 0156 1846     		mov	r0, r3
 1690 0158 FFF7FEFF 		bl	osalThreadResumeI
 1691 015c FFF7FEFF 		bl	osalSysUnlockFromISR
 1692              		.loc 6 288 0
 1693 0160 00E0     		b	.L128
 1694              	.L133:
 1695              		.loc 6 272 0
 1696 0162 00BF     		nop
 1697              	.L128:
 1698              		.loc 6 293 0
 1699 0164 049B     		ldr	r3, [sp, #16]
 1700 0166 03F00A03 		and	r3, r3, #10
 1701 016a 002B     		cmp	r3, #0
 1702 016c 01D0     		beq	.L118
 1703              		.loc 6 294 0
 1704 016e 029B     		ldr	r3, [sp, #8]
 1705 0170 9B69     		ldr	r3, [r3, #24]
 1706              	.L118:
ARM GAS  C:\Users\PCHAUT~1\AppData\Local\Temp\ccR4smAG.s 			page 31


 1707              		.loc 6 295 0
 1708 0172 054B     		ldr	r3, .L134
 1709 0174 059A     		ldr	r2, [sp, #20]
 1710 0176 1B68     		ldr	r3, [r3]
 1711 0178 9A42     		cmp	r2, r3
 1712 017a 01D0     		beq	.L132
 1713 017c FFF7FEFF 		bl	__stack_chk_fail
 1714              	.L132:
 1715 0180 07B0     		add	sp, sp, #28
 1716              		.cfi_def_cfa_offset 4
 1717              		@ sp needed
 1718 0182 5DF804FB 		ldr	pc, [sp], #4
 1719              	.L135:
 1720 0186 00BF     		.align	2
 1721              	.L134:
 1722 0188 00000000 		.word	__stack_chk_guard
 1723 018c 08000300 		.word	196616
 1724 0190 01000300 		.word	196609
 1725 0194 02000300 		.word	196610
 1726 0198 82000700 		.word	458882
 1727 019c 84000700 		.word	458884
 1728              		.cfi_endproc
 1729              	.LFE259:
 1730              		.size	i2c_lld_serve_event_interrupt, .-i2c_lld_serve_event_interrupt
 1731              		.section	.rodata
 1732              		.align	2
 1733              	.LC0:
 1734 0000 444D4120 		.ascii	"DMA failure\000"
 1734      6661696C 
 1734      75726500 
 1735              		.section	.text.i2c_lld_serve_rx_end_irq,"ax",%progbits
 1736              		.align	1
 1737              		.p2align 4,,15
 1738              		.syntax unified
 1739              		.thumb
 1740              		.thumb_func
 1741              		.fpu fpv4-sp-d16
 1742              		.type	i2c_lld_serve_rx_end_irq, %function
 1743              	i2c_lld_serve_rx_end_irq:
 1744              	.LFB260:
 1745              		.loc 6 305 0
 1746              		.cfi_startproc
 1747              		@ args = 0, pretend = 0, frame = 16
 1748              		@ frame_needed = 0, uses_anonymous_args = 0
 1749 0000 00B5     		push	{lr}
 1750              		.cfi_def_cfa_offset 4
 1751              		.cfi_offset 14, -4
 1752 0002 85B0     		sub	sp, sp, #20
 1753              		.cfi_def_cfa_offset 24
 1754 0004 0190     		str	r0, [sp, #4]
 1755 0006 0091     		str	r1, [sp]
 1756              		.loc 6 305 0
 1757 0008 294B     		ldr	r3, .L140
 1758 000a 1B68     		ldr	r3, [r3]
 1759 000c 0393     		str	r3, [sp, #12]
 1760              		.loc 6 306 0
 1761 000e 019B     		ldr	r3, [sp, #4]
ARM GAS  C:\Users\PCHAUT~1\AppData\Local\Temp\ccR4smAG.s 			page 32


 1762 0010 9B6B     		ldr	r3, [r3, #56]
 1763 0012 0293     		str	r3, [sp, #8]
 1764              		.loc 6 310 0
 1765 0014 009B     		ldr	r3, [sp]
 1766 0016 03F00C03 		and	r3, r3, #12
 1767 001a 002B     		cmp	r3, #0
 1768 001c 02D0     		beq	.L137
 1769              		.loc 6 311 0
 1770 001e 2548     		ldr	r0, .L140+4
 1771 0020 FFF7FEFF 		bl	osalSysHalt
 1772              	.L137:
 1773              		.loc 6 317 0
 1774 0024 019B     		ldr	r3, [sp, #4]
 1775 0026 1B6B     		ldr	r3, [r3, #48]
 1776 0028 1B68     		ldr	r3, [r3]
 1777 002a 1A68     		ldr	r2, [r3]
 1778 002c 019B     		ldr	r3, [sp, #4]
 1779 002e 1B6B     		ldr	r3, [r3, #48]
 1780 0030 1B68     		ldr	r3, [r3]
 1781 0032 22F01F02 		bic	r2, r2, #31
 1782 0036 1A60     		str	r2, [r3]
 1783 0038 00BF     		nop
 1784              	.L138:
 1785              		.loc 6 317 0 is_stmt 0 discriminator 2
 1786 003a 019B     		ldr	r3, [sp, #4]
 1787 003c 1B6B     		ldr	r3, [r3, #48]
 1788 003e 1B68     		ldr	r3, [r3]
 1789 0040 1B68     		ldr	r3, [r3]
 1790 0042 03F00103 		and	r3, r3, #1
 1791 0046 002B     		cmp	r3, #0
 1792 0048 F7D1     		bne	.L138
 1793              		.loc 6 317 0 discriminator 3
 1794 004a 019B     		ldr	r3, [sp, #4]
 1795 004c 1B6B     		ldr	r3, [r3, #48]
 1796 004e 1B7A     		ldrb	r3, [r3, #8]	@ zero_extendqisi2
 1797 0050 1A46     		mov	r2, r3
 1798 0052 3D23     		movs	r3, #61
 1799 0054 03FA02F2 		lsl	r2, r3, r2
 1800 0058 019B     		ldr	r3, [sp, #4]
 1801 005a 1B6B     		ldr	r3, [r3, #48]
 1802 005c 5B68     		ldr	r3, [r3, #4]
 1803 005e 1A60     		str	r2, [r3]
 1804              		.loc 6 319 0 is_stmt 1 discriminator 3
 1805 0060 029B     		ldr	r3, [sp, #8]
 1806 0062 5B68     		ldr	r3, [r3, #4]
 1807 0064 23F48052 		bic	r2, r3, #4096
 1808 0068 029B     		ldr	r3, [sp, #8]
 1809 006a 5A60     		str	r2, [r3, #4]
 1810              		.loc 6 320 0 discriminator 3
 1811 006c 029B     		ldr	r3, [sp, #8]
 1812 006e 1B68     		ldr	r3, [r3]
 1813 0070 23F48062 		bic	r2, r3, #1024
 1814 0074 029B     		ldr	r3, [sp, #8]
 1815 0076 1A60     		str	r2, [r3]
 1816              		.loc 6 321 0 discriminator 3
 1817 0078 029B     		ldr	r3, [sp, #8]
 1818 007a 1B68     		ldr	r3, [r3]
ARM GAS  C:\Users\PCHAUT~1\AppData\Local\Temp\ccR4smAG.s 			page 33


 1819 007c 43F40072 		orr	r2, r3, #512
 1820 0080 029B     		ldr	r3, [sp, #8]
 1821 0082 1A60     		str	r2, [r3]
 1822              		.loc 6 322 0 discriminator 3
 1823 0084 FFF7FEFF 		bl	osalSysLockFromISR
 1824 0088 019B     		ldr	r3, [sp, #4]
 1825 008a 2033     		adds	r3, r3, #32
 1826 008c 0021     		movs	r1, #0
 1827 008e 1846     		mov	r0, r3
 1828 0090 FFF7FEFF 		bl	osalThreadResumeI
 1829 0094 FFF7FEFF 		bl	osalSysUnlockFromISR
 1830              		.loc 6 323 0 discriminator 3
 1831 0098 00BF     		nop
 1832 009a 054B     		ldr	r3, .L140
 1833 009c 039A     		ldr	r2, [sp, #12]
 1834 009e 1B68     		ldr	r3, [r3]
 1835 00a0 9A42     		cmp	r2, r3
 1836 00a2 01D0     		beq	.L139
 1837              		.loc 6 323 0 is_stmt 0
 1838 00a4 FFF7FEFF 		bl	__stack_chk_fail
 1839              	.L139:
 1840 00a8 05B0     		add	sp, sp, #20
 1841              		.cfi_def_cfa_offset 4
 1842              		@ sp needed
 1843 00aa 5DF804FB 		ldr	pc, [sp], #4
 1844              	.L141:
 1845 00ae 00BF     		.align	2
 1846              	.L140:
 1847 00b0 00000000 		.word	__stack_chk_guard
 1848 00b4 00000000 		.word	.LC0
 1849              		.cfi_endproc
 1850              	.LFE260:
 1851              		.size	i2c_lld_serve_rx_end_irq, .-i2c_lld_serve_rx_end_irq
 1852              		.section	.text.i2c_lld_serve_tx_end_irq,"ax",%progbits
 1853              		.align	1
 1854              		.p2align 4,,15
 1855              		.syntax unified
 1856              		.thumb
 1857              		.thumb_func
 1858              		.fpu fpv4-sp-d16
 1859              		.type	i2c_lld_serve_tx_end_irq, %function
 1860              	i2c_lld_serve_tx_end_irq:
 1861              	.LFB261:
 1862              		.loc 6 332 0 is_stmt 1
 1863              		.cfi_startproc
 1864              		@ args = 0, pretend = 0, frame = 16
 1865              		@ frame_needed = 0, uses_anonymous_args = 0
 1866 0000 00B5     		push	{lr}
 1867              		.cfi_def_cfa_offset 4
 1868              		.cfi_offset 14, -4
 1869 0002 85B0     		sub	sp, sp, #20
 1870              		.cfi_def_cfa_offset 24
 1871 0004 0190     		str	r0, [sp, #4]
 1872 0006 0091     		str	r1, [sp]
 1873              		.loc 6 332 0
 1874 0008 1E4B     		ldr	r3, .L146
 1875 000a 1B68     		ldr	r3, [r3]
ARM GAS  C:\Users\PCHAUT~1\AppData\Local\Temp\ccR4smAG.s 			page 34


 1876 000c 0393     		str	r3, [sp, #12]
 1877              		.loc 6 333 0
 1878 000e 019B     		ldr	r3, [sp, #4]
 1879 0010 9B6B     		ldr	r3, [r3, #56]
 1880 0012 0293     		str	r3, [sp, #8]
 1881              		.loc 6 337 0
 1882 0014 009B     		ldr	r3, [sp]
 1883 0016 03F00C03 		and	r3, r3, #12
 1884 001a 002B     		cmp	r3, #0
 1885 001c 02D0     		beq	.L143
 1886              		.loc 6 338 0
 1887 001e 1A48     		ldr	r0, .L146+4
 1888 0020 FFF7FEFF 		bl	osalSysHalt
 1889              	.L143:
 1890              		.loc 6 344 0
 1891 0024 019B     		ldr	r3, [sp, #4]
 1892 0026 5B6B     		ldr	r3, [r3, #52]
 1893 0028 1B68     		ldr	r3, [r3]
 1894 002a 1A68     		ldr	r2, [r3]
 1895 002c 019B     		ldr	r3, [sp, #4]
 1896 002e 5B6B     		ldr	r3, [r3, #52]
 1897 0030 1B68     		ldr	r3, [r3]
 1898 0032 22F01F02 		bic	r2, r2, #31
 1899 0036 1A60     		str	r2, [r3]
 1900 0038 00BF     		nop
 1901              	.L144:
 1902              		.loc 6 344 0 is_stmt 0 discriminator 2
 1903 003a 019B     		ldr	r3, [sp, #4]
 1904 003c 5B6B     		ldr	r3, [r3, #52]
 1905 003e 1B68     		ldr	r3, [r3]
 1906 0040 1B68     		ldr	r3, [r3]
 1907 0042 03F00103 		and	r3, r3, #1
 1908 0046 002B     		cmp	r3, #0
 1909 0048 F7D1     		bne	.L144
 1910              		.loc 6 344 0 discriminator 3
 1911 004a 019B     		ldr	r3, [sp, #4]
 1912 004c 5B6B     		ldr	r3, [r3, #52]
 1913 004e 1B7A     		ldrb	r3, [r3, #8]	@ zero_extendqisi2
 1914 0050 1A46     		mov	r2, r3
 1915 0052 3D23     		movs	r3, #61
 1916 0054 03FA02F2 		lsl	r2, r3, r2
 1917 0058 019B     		ldr	r3, [sp, #4]
 1918 005a 5B6B     		ldr	r3, [r3, #52]
 1919 005c 5B68     		ldr	r3, [r3, #4]
 1920 005e 1A60     		str	r2, [r3]
 1921              		.loc 6 348 0 is_stmt 1 discriminator 3
 1922 0060 029B     		ldr	r3, [sp, #8]
 1923 0062 5B68     		ldr	r3, [r3, #4]
 1924 0064 43F40072 		orr	r2, r3, #512
 1925 0068 029B     		ldr	r3, [sp, #8]
 1926 006a 5A60     		str	r2, [r3, #4]
 1927              		.loc 6 349 0 discriminator 3
 1928 006c 00BF     		nop
 1929 006e 054B     		ldr	r3, .L146
 1930 0070 039A     		ldr	r2, [sp, #12]
 1931 0072 1B68     		ldr	r3, [r3]
 1932 0074 9A42     		cmp	r2, r3
ARM GAS  C:\Users\PCHAUT~1\AppData\Local\Temp\ccR4smAG.s 			page 35


 1933 0076 01D0     		beq	.L145
 1934              		.loc 6 349 0 is_stmt 0
 1935 0078 FFF7FEFF 		bl	__stack_chk_fail
 1936              	.L145:
 1937 007c 05B0     		add	sp, sp, #20
 1938              		.cfi_def_cfa_offset 4
 1939              		@ sp needed
 1940 007e 5DF804FB 		ldr	pc, [sp], #4
 1941              	.L147:
 1942 0082 00BF     		.align	2
 1943              	.L146:
 1944 0084 00000000 		.word	__stack_chk_guard
 1945 0088 00000000 		.word	.LC0
 1946              		.cfi_endproc
 1947              	.LFE261:
 1948              		.size	i2c_lld_serve_tx_end_irq, .-i2c_lld_serve_tx_end_irq
 1949              		.section	.text.i2c_lld_serve_error_interrupt,"ax",%progbits
 1950              		.align	1
 1951              		.p2align 4,,15
 1952              		.syntax unified
 1953              		.thumb
 1954              		.thumb_func
 1955              		.fpu fpv4-sp-d16
 1956              		.type	i2c_lld_serve_error_interrupt, %function
 1957              	i2c_lld_serve_error_interrupt:
 1958              	.LFB262:
 1959              		.loc 6 359 0 is_stmt 1
 1960              		.cfi_startproc
 1961              		@ args = 0, pretend = 0, frame = 16
 1962              		@ frame_needed = 0, uses_anonymous_args = 0
 1963 0000 00B5     		push	{lr}
 1964              		.cfi_def_cfa_offset 4
 1965              		.cfi_offset 14, -4
 1966 0002 85B0     		sub	sp, sp, #20
 1967              		.cfi_def_cfa_offset 24
 1968 0004 0190     		str	r0, [sp, #4]
 1969 0006 0B46     		mov	r3, r1
 1970 0008 ADF80230 		strh	r3, [sp, #2]	@ movhi
 1971              		.loc 6 359 0
 1972 000c 5E4B     		ldr	r3, .L161
 1973 000e 1B68     		ldr	r3, [r3]
 1974 0010 0393     		str	r3, [sp, #12]
 1975              		.loc 6 362 0
 1976 0012 019B     		ldr	r3, [sp, #4]
 1977 0014 5B6B     		ldr	r3, [r3, #52]
 1978 0016 1B68     		ldr	r3, [r3]
 1979 0018 1A68     		ldr	r2, [r3]
 1980 001a 019B     		ldr	r3, [sp, #4]
 1981 001c 5B6B     		ldr	r3, [r3, #52]
 1982 001e 1B68     		ldr	r3, [r3]
 1983 0020 22F01F02 		bic	r2, r2, #31
 1984 0024 1A60     		str	r2, [r3]
 1985 0026 00BF     		nop
 1986              	.L149:
 1987              		.loc 6 362 0 is_stmt 0 discriminator 2
 1988 0028 019B     		ldr	r3, [sp, #4]
 1989 002a 5B6B     		ldr	r3, [r3, #52]
ARM GAS  C:\Users\PCHAUT~1\AppData\Local\Temp\ccR4smAG.s 			page 36


 1990 002c 1B68     		ldr	r3, [r3]
 1991 002e 1B68     		ldr	r3, [r3]
 1992 0030 03F00103 		and	r3, r3, #1
 1993 0034 002B     		cmp	r3, #0
 1994 0036 F7D1     		bne	.L149
 1995              		.loc 6 362 0 discriminator 3
 1996 0038 019B     		ldr	r3, [sp, #4]
 1997 003a 5B6B     		ldr	r3, [r3, #52]
 1998 003c 1B7A     		ldrb	r3, [r3, #8]	@ zero_extendqisi2
 1999 003e 1A46     		mov	r2, r3
 2000 0040 3D23     		movs	r3, #61
 2001 0042 03FA02F2 		lsl	r2, r3, r2
 2002 0046 019B     		ldr	r3, [sp, #4]
 2003 0048 5B6B     		ldr	r3, [r3, #52]
 2004 004a 5B68     		ldr	r3, [r3, #4]
 2005 004c 1A60     		str	r2, [r3]
 2006              		.loc 6 363 0 is_stmt 1 discriminator 3
 2007 004e 019B     		ldr	r3, [sp, #4]
 2008 0050 1B6B     		ldr	r3, [r3, #48]
 2009 0052 1B68     		ldr	r3, [r3]
 2010 0054 1A68     		ldr	r2, [r3]
 2011 0056 019B     		ldr	r3, [sp, #4]
 2012 0058 1B6B     		ldr	r3, [r3, #48]
 2013 005a 1B68     		ldr	r3, [r3]
 2014 005c 22F01F02 		bic	r2, r2, #31
 2015 0060 1A60     		str	r2, [r3]
 2016 0062 00BF     		nop
 2017              	.L150:
 2018              		.loc 6 363 0 is_stmt 0 discriminator 2
 2019 0064 019B     		ldr	r3, [sp, #4]
 2020 0066 1B6B     		ldr	r3, [r3, #48]
 2021 0068 1B68     		ldr	r3, [r3]
 2022 006a 1B68     		ldr	r3, [r3]
 2023 006c 03F00103 		and	r3, r3, #1
 2024 0070 002B     		cmp	r3, #0
 2025 0072 F7D1     		bne	.L150
 2026              		.loc 6 363 0 discriminator 3
 2027 0074 019B     		ldr	r3, [sp, #4]
 2028 0076 1B6B     		ldr	r3, [r3, #48]
 2029 0078 1B7A     		ldrb	r3, [r3, #8]	@ zero_extendqisi2
 2030 007a 1A46     		mov	r2, r3
 2031 007c 3D23     		movs	r3, #61
 2032 007e 03FA02F2 		lsl	r2, r3, r2
 2033 0082 019B     		ldr	r3, [sp, #4]
 2034 0084 1B6B     		ldr	r3, [r3, #48]
 2035 0086 5B68     		ldr	r3, [r3, #4]
 2036 0088 1A60     		str	r2, [r3]
 2037              		.loc 6 365 0 is_stmt 1 discriminator 3
 2038 008a 019B     		ldr	r3, [sp, #4]
 2039 008c 0022     		movs	r2, #0
 2040 008e 9A60     		str	r2, [r3, #8]
 2041              		.loc 6 367 0 discriminator 3
 2042 0090 BDF80230 		ldrh	r3, [sp, #2]
 2043 0094 03F48073 		and	r3, r3, #256
 2044 0098 002B     		cmp	r3, #0
 2045 009a 05D0     		beq	.L151
 2046              		.loc 6 368 0
ARM GAS  C:\Users\PCHAUT~1\AppData\Local\Temp\ccR4smAG.s 			page 37


 2047 009c 019B     		ldr	r3, [sp, #4]
 2048 009e 9B68     		ldr	r3, [r3, #8]
 2049 00a0 43F00102 		orr	r2, r3, #1
 2050 00a4 019B     		ldr	r3, [sp, #4]
 2051 00a6 9A60     		str	r2, [r3, #8]
 2052              	.L151:
 2053              		.loc 6 370 0
 2054 00a8 BDF80230 		ldrh	r3, [sp, #2]
 2055 00ac 03F40073 		and	r3, r3, #512
 2056 00b0 002B     		cmp	r3, #0
 2057 00b2 05D0     		beq	.L152
 2058              		.loc 6 371 0
 2059 00b4 019B     		ldr	r3, [sp, #4]
 2060 00b6 9B68     		ldr	r3, [r3, #8]
 2061 00b8 43F00202 		orr	r2, r3, #2
 2062 00bc 019B     		ldr	r3, [sp, #4]
 2063 00be 9A60     		str	r2, [r3, #8]
 2064              	.L152:
 2065              		.loc 6 373 0
 2066 00c0 BDF80230 		ldrh	r3, [sp, #2]
 2067 00c4 03F48063 		and	r3, r3, #1024
 2068 00c8 002B     		cmp	r3, #0
 2069 00ca 15D0     		beq	.L153
 2070              		.loc 6 374 0
 2071 00cc 019B     		ldr	r3, [sp, #4]
 2072 00ce 9B6B     		ldr	r3, [r3, #56]
 2073 00d0 5A68     		ldr	r2, [r3, #4]
 2074 00d2 019B     		ldr	r3, [sp, #4]
 2075 00d4 9B6B     		ldr	r3, [r3, #56]
 2076 00d6 22F40072 		bic	r2, r2, #512
 2077 00da 5A60     		str	r2, [r3, #4]
 2078              		.loc 6 375 0
 2079 00dc 019B     		ldr	r3, [sp, #4]
 2080 00de 9B6B     		ldr	r3, [r3, #56]
 2081 00e0 1A68     		ldr	r2, [r3]
 2082 00e2 019B     		ldr	r3, [sp, #4]
 2083 00e4 9B6B     		ldr	r3, [r3, #56]
 2084 00e6 42F40072 		orr	r2, r2, #512
 2085 00ea 1A60     		str	r2, [r3]
 2086              		.loc 6 376 0
 2087 00ec 019B     		ldr	r3, [sp, #4]
 2088 00ee 9B68     		ldr	r3, [r3, #8]
 2089 00f0 43F00402 		orr	r2, r3, #4
 2090 00f4 019B     		ldr	r3, [sp, #4]
 2091 00f6 9A60     		str	r2, [r3, #8]
 2092              	.L153:
 2093              		.loc 6 379 0
 2094 00f8 BDF80230 		ldrh	r3, [sp, #2]
 2095 00fc 03F40063 		and	r3, r3, #2048
 2096 0100 002B     		cmp	r3, #0
 2097 0102 05D0     		beq	.L154
 2098              		.loc 6 380 0
 2099 0104 019B     		ldr	r3, [sp, #4]
 2100 0106 9B68     		ldr	r3, [r3, #8]
 2101 0108 43F00802 		orr	r2, r3, #8
 2102 010c 019B     		ldr	r3, [sp, #4]
 2103 010e 9A60     		str	r2, [r3, #8]
ARM GAS  C:\Users\PCHAUT~1\AppData\Local\Temp\ccR4smAG.s 			page 38


 2104              	.L154:
 2105              		.loc 6 382 0
 2106 0110 BDF80230 		ldrh	r3, [sp, #2]
 2107 0114 03F48043 		and	r3, r3, #16384
 2108 0118 002B     		cmp	r3, #0
 2109 011a 05D0     		beq	.L155
 2110              		.loc 6 383 0
 2111 011c 019B     		ldr	r3, [sp, #4]
 2112 011e 9B68     		ldr	r3, [r3, #8]
 2113 0120 43F02002 		orr	r2, r3, #32
 2114 0124 019B     		ldr	r3, [sp, #4]
 2115 0126 9A60     		str	r2, [r3, #8]
 2116              	.L155:
 2117              		.loc 6 385 0
 2118 0128 BDF80230 		ldrh	r3, [sp, #2]
 2119 012c 03F48053 		and	r3, r3, #4096
 2120 0130 002B     		cmp	r3, #0
 2121 0132 05D0     		beq	.L156
 2122              		.loc 6 386 0
 2123 0134 019B     		ldr	r3, [sp, #4]
 2124 0136 9B68     		ldr	r3, [r3, #8]
 2125 0138 43F01002 		orr	r2, r3, #16
 2126 013c 019B     		ldr	r3, [sp, #4]
 2127 013e 9A60     		str	r2, [r3, #8]
 2128              	.L156:
 2129              		.loc 6 388 0
 2130 0140 BDF90230 		ldrsh	r3, [sp, #2]
 2131 0144 002B     		cmp	r3, #0
 2132 0146 05DA     		bge	.L157
 2133              		.loc 6 389 0
 2134 0148 019B     		ldr	r3, [sp, #4]
 2135 014a 9B68     		ldr	r3, [r3, #8]
 2136 014c 43F04002 		orr	r2, r3, #64
 2137 0150 019B     		ldr	r3, [sp, #4]
 2138 0152 9A60     		str	r2, [r3, #8]
 2139              	.L157:
 2140              		.loc 6 392 0
 2141 0154 019B     		ldr	r3, [sp, #4]
 2142 0156 9B68     		ldr	r3, [r3, #8]
 2143 0158 002B     		cmp	r3, #0
 2144 015a 0AD0     		beq	.L160
 2145              		.loc 6 393 0
 2146 015c FFF7FEFF 		bl	osalSysLockFromISR
 2147 0160 019B     		ldr	r3, [sp, #4]
 2148 0162 2033     		adds	r3, r3, #32
 2149 0164 6FF00101 		mvn	r1, #1
 2150 0168 1846     		mov	r0, r3
 2151 016a FFF7FEFF 		bl	osalThreadResumeI
 2152 016e FFF7FEFF 		bl	osalSysUnlockFromISR
 2153              	.L160:
 2154              		.loc 6 394 0
 2155 0172 00BF     		nop
 2156 0174 044B     		ldr	r3, .L161
 2157 0176 039A     		ldr	r2, [sp, #12]
 2158 0178 1B68     		ldr	r3, [r3]
 2159 017a 9A42     		cmp	r2, r3
 2160 017c 01D0     		beq	.L159
ARM GAS  C:\Users\PCHAUT~1\AppData\Local\Temp\ccR4smAG.s 			page 39


 2161 017e FFF7FEFF 		bl	__stack_chk_fail
 2162              	.L159:
 2163 0182 05B0     		add	sp, sp, #20
 2164              		.cfi_def_cfa_offset 4
 2165              		@ sp needed
 2166 0184 5DF804FB 		ldr	pc, [sp], #4
 2167              	.L162:
 2168              		.align	2
 2169              	.L161:
 2170 0188 00000000 		.word	__stack_chk_guard
 2171              		.cfi_endproc
 2172              	.LFE262:
 2173              		.size	i2c_lld_serve_error_interrupt, .-i2c_lld_serve_error_interrupt
 2174              		.section	.text.VectorBC,"ax",%progbits
 2175              		.align	1
 2176              		.p2align 4,,15
 2177              		.global	VectorBC
 2178              		.syntax unified
 2179              		.thumb
 2180              		.thumb_func
 2181              		.fpu fpv4-sp-d16
 2182              		.type	VectorBC, %function
 2183              	VectorBC:
 2184              	.LFB263:
 2185              		.loc 6 406 0
 2186              		.cfi_startproc
 2187              		@ args = 0, pretend = 0, frame = 8
 2188              		@ frame_needed = 0, uses_anonymous_args = 0
 2189 0000 00B5     		push	{lr}
 2190              		.cfi_def_cfa_offset 4
 2191              		.cfi_offset 14, -4
 2192 0002 83B0     		sub	sp, sp, #12
 2193              		.cfi_def_cfa_offset 16
 2194              		.loc 6 406 0
 2195 0004 0C4B     		ldr	r3, .L165
 2196 0006 1B68     		ldr	r3, [r3]
 2197 0008 0193     		str	r3, [sp, #4]
 2198              		.loc 6 408 0
 2199 000a FFF7FEFF 		bl	_stats_increase_irq
 2200 000e FFF7FEFF 		bl	_dbg_check_enter_isr
 2201              		.loc 6 410 0
 2202 0012 0A48     		ldr	r0, .L165+4
 2203 0014 FFF7FEFF 		bl	i2c_lld_serve_event_interrupt
 2204              		.loc 6 412 0
 2205 0018 FFF7FEFF 		bl	_dbg_check_leave_isr
 2206 001c FFF7FEFF 		bl	_port_irq_epilogue
 2207              		.loc 6 413 0
 2208 0020 00BF     		nop
 2209 0022 054B     		ldr	r3, .L165
 2210 0024 019A     		ldr	r2, [sp, #4]
 2211 0026 1B68     		ldr	r3, [r3]
 2212 0028 9A42     		cmp	r2, r3
 2213 002a 01D0     		beq	.L164
 2214 002c FFF7FEFF 		bl	__stack_chk_fail
 2215              	.L164:
 2216 0030 03B0     		add	sp, sp, #12
 2217              		.cfi_def_cfa_offset 4
ARM GAS  C:\Users\PCHAUT~1\AppData\Local\Temp\ccR4smAG.s 			page 40


 2218              		@ sp needed
 2219 0032 5DF804FB 		ldr	pc, [sp], #4
 2220              	.L166:
 2221 0036 00BF     		.align	2
 2222              	.L165:
 2223 0038 00000000 		.word	__stack_chk_guard
 2224 003c 00000000 		.word	I2CD1
 2225              		.cfi_endproc
 2226              	.LFE263:
 2227              		.size	VectorBC, .-VectorBC
 2228              		.section	.text.VectorC0,"ax",%progbits
 2229              		.align	1
 2230              		.p2align 4,,15
 2231              		.global	VectorC0
 2232              		.syntax unified
 2233              		.thumb
 2234              		.thumb_func
 2235              		.fpu fpv4-sp-d16
 2236              		.type	VectorC0, %function
 2237              	VectorC0:
 2238              	.LFB264:
 2239              		.loc 6 418 0
 2240              		.cfi_startproc
 2241              		@ args = 0, pretend = 0, frame = 8
 2242              		@ frame_needed = 0, uses_anonymous_args = 0
 2243 0000 00B5     		push	{lr}
 2244              		.cfi_def_cfa_offset 4
 2245              		.cfi_offset 14, -4
 2246 0002 83B0     		sub	sp, sp, #12
 2247              		.cfi_def_cfa_offset 16
 2248              		.loc 6 418 0
 2249 0004 144B     		ldr	r3, .L169
 2250 0006 1B68     		ldr	r3, [r3]
 2251 0008 0193     		str	r3, [sp, #4]
 2252              		.loc 6 419 0
 2253 000a 144B     		ldr	r3, .L169+4
 2254 000c 9B6B     		ldr	r3, [r3, #56]
 2255 000e 5B69     		ldr	r3, [r3, #20]
 2256 0010 ADF80230 		strh	r3, [sp, #2]	@ movhi
 2257              		.loc 6 421 0
 2258 0014 FFF7FEFF 		bl	_stats_increase_irq
 2259 0018 FFF7FEFF 		bl	_dbg_check_enter_isr
 2260              		.loc 6 423 0
 2261 001c BDF80230 		ldrh	r3, [sp, #2]
 2262 0020 03F45F43 		and	r3, r3, #57088
 2263 0024 DA43     		mvns	r2, r3
 2264 0026 0D4B     		ldr	r3, .L169+4
 2265 0028 9B6B     		ldr	r3, [r3, #56]
 2266 002a 5A61     		str	r2, [r3, #20]
 2267              		.loc 6 424 0
 2268 002c BDF80230 		ldrh	r3, [sp, #2]
 2269 0030 1946     		mov	r1, r3
 2270 0032 0A48     		ldr	r0, .L169+4
 2271 0034 FFF7FEFF 		bl	i2c_lld_serve_error_interrupt
 2272              		.loc 6 426 0
 2273 0038 FFF7FEFF 		bl	_dbg_check_leave_isr
 2274 003c FFF7FEFF 		bl	_port_irq_epilogue
ARM GAS  C:\Users\PCHAUT~1\AppData\Local\Temp\ccR4smAG.s 			page 41


 2275              		.loc 6 427 0
 2276 0040 00BF     		nop
 2277 0042 054B     		ldr	r3, .L169
 2278 0044 019A     		ldr	r2, [sp, #4]
 2279 0046 1B68     		ldr	r3, [r3]
 2280 0048 9A42     		cmp	r2, r3
 2281 004a 01D0     		beq	.L168
 2282 004c FFF7FEFF 		bl	__stack_chk_fail
 2283              	.L168:
 2284 0050 03B0     		add	sp, sp, #12
 2285              		.cfi_def_cfa_offset 4
 2286              		@ sp needed
 2287 0052 5DF804FB 		ldr	pc, [sp], #4
 2288              	.L170:
 2289 0056 00BF     		.align	2
 2290              	.L169:
 2291 0058 00000000 		.word	__stack_chk_guard
 2292 005c 00000000 		.word	I2CD1
 2293              		.cfi_endproc
 2294              	.LFE264:
 2295              		.size	VectorC0, .-VectorC0
 2296              		.section	.text.i2c_lld_init,"ax",%progbits
 2297              		.align	1
 2298              		.p2align 4,,15
 2299              		.global	i2c_lld_init
 2300              		.syntax unified
 2301              		.thumb
 2302              		.thumb_func
 2303              		.fpu fpv4-sp-d16
 2304              		.type	i2c_lld_init, %function
 2305              	i2c_lld_init:
 2306              	.LFB265:
 2307              		.loc 6 503 0
 2308              		.cfi_startproc
 2309              		@ args = 0, pretend = 0, frame = 8
 2310              		@ frame_needed = 0, uses_anonymous_args = 0
 2311 0000 00B5     		push	{lr}
 2312              		.cfi_def_cfa_offset 4
 2313              		.cfi_offset 14, -4
 2314 0002 83B0     		sub	sp, sp, #12
 2315              		.cfi_def_cfa_offset 16
 2316              		.loc 6 503 0
 2317 0004 0E4B     		ldr	r3, .L173
 2318 0006 1B68     		ldr	r3, [r3]
 2319 0008 0193     		str	r3, [sp, #4]
 2320              		.loc 6 506 0
 2321 000a 0E48     		ldr	r0, .L173+4
 2322 000c FFF7FEFF 		bl	i2cObjectInit
 2323              		.loc 6 507 0
 2324 0010 0C4B     		ldr	r3, .L173+4
 2325 0012 0022     		movs	r2, #0
 2326 0014 1A62     		str	r2, [r3, #32]
 2327              		.loc 6 508 0
 2328 0016 0B4B     		ldr	r3, .L173+4
 2329 0018 0B4A     		ldr	r2, .L173+8
 2330 001a 9A63     		str	r2, [r3, #56]
 2331              		.loc 6 509 0
ARM GAS  C:\Users\PCHAUT~1\AppData\Local\Temp\ccR4smAG.s 			page 42


 2332 001c 094B     		ldr	r3, .L173+4
 2333 001e 0B4A     		ldr	r2, .L173+12
 2334 0020 1A63     		str	r2, [r3, #48]
 2335              		.loc 6 510 0
 2336 0022 084B     		ldr	r3, .L173+4
 2337 0024 0A4A     		ldr	r2, .L173+16
 2338 0026 5A63     		str	r2, [r3, #52]
 2339              		.loc 6 528 0
 2340 0028 00BF     		nop
 2341 002a 054B     		ldr	r3, .L173
 2342 002c 019A     		ldr	r2, [sp, #4]
 2343 002e 1B68     		ldr	r3, [r3]
 2344 0030 9A42     		cmp	r2, r3
 2345 0032 01D0     		beq	.L172
 2346 0034 FFF7FEFF 		bl	__stack_chk_fail
 2347              	.L172:
 2348 0038 03B0     		add	sp, sp, #12
 2349              		.cfi_def_cfa_offset 4
 2350              		@ sp needed
 2351 003a 5DF804FB 		ldr	pc, [sp], #4
 2352              	.L174:
 2353 003e 00BF     		.align	2
 2354              	.L173:
 2355 0040 00000000 		.word	__stack_chk_guard
 2356 0044 00000000 		.word	I2CD1
 2357 0048 00540040 		.word	1073763328
 2358 004c 00000000 		.word	_stm32_dma_streams
 2359 0050 54000000 		.word	_stm32_dma_streams+84
 2360              		.cfi_endproc
 2361              	.LFE265:
 2362              		.size	i2c_lld_init, .-i2c_lld_init
 2363              		.section	.text.i2c_lld_start,"ax",%progbits
 2364              		.align	1
 2365              		.p2align 4,,15
 2366              		.global	i2c_lld_start
 2367              		.syntax unified
 2368              		.thumb
 2369              		.thumb_func
 2370              		.fpu fpv4-sp-d16
 2371              		.type	i2c_lld_start, %function
 2372              	i2c_lld_start:
 2373              	.LFB266:
 2374              		.loc 6 537 0
 2375              		.cfi_startproc
 2376              		@ args = 0, pretend = 0, frame = 24
 2377              		@ frame_needed = 0, uses_anonymous_args = 0
 2378 0000 00B5     		push	{lr}
 2379              		.cfi_def_cfa_offset 4
 2380              		.cfi_offset 14, -4
 2381 0002 87B0     		sub	sp, sp, #28
 2382              		.cfi_def_cfa_offset 32
 2383 0004 0190     		str	r0, [sp, #4]
 2384              		.loc 6 537 0
 2385 0006 474B     		ldr	r3, .L180
 2386 0008 1B68     		ldr	r3, [r3]
 2387 000a 0593     		str	r3, [sp, #20]
 2388              		.loc 6 538 0
ARM GAS  C:\Users\PCHAUT~1\AppData\Local\Temp\ccR4smAG.s 			page 43


 2389 000c 019B     		ldr	r3, [sp, #4]
 2390 000e 9B6B     		ldr	r3, [r3, #56]
 2391 0010 0493     		str	r3, [sp, #16]
 2392              		.loc 6 540 0
 2393 0012 019B     		ldr	r3, [sp, #4]
 2394 0014 40F25642 		movw	r2, #1110
 2395 0018 DA62     		str	r2, [r3, #44]
 2396              		.loc 6 544 0
 2397 001a 019B     		ldr	r3, [sp, #4]
 2398 001c 40F21642 		movw	r2, #1046
 2399 0020 9A62     		str	r2, [r3, #40]
 2400              		.loc 6 550 0
 2401 0022 019B     		ldr	r3, [sp, #4]
 2402 0024 1B78     		ldrb	r3, [r3]	@ zero_extendqisi2
 2403 0026 012B     		cmp	r3, #1
 2404 0028 4CD1     		bne	.L176
 2405              		.loc 6 553 0
 2406 002a 019B     		ldr	r3, [sp, #4]
 2407 002c 3E4A     		ldr	r2, .L180+4
 2408 002e 9342     		cmp	r3, r2
 2409 0030 48D1     		bne	.L176
 2410              	.LBB10:
 2411              		.loc 6 556 0
 2412 0032 3E4B     		ldr	r3, .L180+8
 2413 0034 1B6A     		ldr	r3, [r3, #32]
 2414 0036 3D4A     		ldr	r2, .L180+8
 2415 0038 43F40013 		orr	r3, r3, #2097152
 2416 003c 1362     		str	r3, [r2, #32]
 2417 003e 3B4B     		ldr	r3, .L180+8
 2418 0040 0022     		movs	r2, #0
 2419 0042 1A62     		str	r2, [r3, #32]
 2420              		.loc 6 557 0
 2421 0044 019B     		ldr	r3, [sp, #4]
 2422 0046 186B     		ldr	r0, [r3, #48]
 2423 0048 019B     		ldr	r3, [sp, #4]
 2424 004a 394A     		ldr	r2, .L180+12
 2425 004c 0521     		movs	r1, #5
 2426 004e FFF7FEFF 		bl	dmaStreamAllocate
 2427 0052 0346     		mov	r3, r0
 2428 0054 8DF80F30 		strb	r3, [sp, #15]
 2429              		.loc 6 561 0
 2430 0058 9DF80F30 		ldrb	r3, [sp, #15]	@ zero_extendqisi2
 2431 005c 002B     		cmp	r3, #0
 2432 005e 02D0     		beq	.L177
 2433              		.loc 6 561 0 is_stmt 0 discriminator 2
 2434 0060 3448     		ldr	r0, .L180+16
 2435 0062 FFF7FEFF 		bl	chSysHalt
 2436              	.L177:
 2437              		.loc 6 562 0 is_stmt 1
 2438 0066 019B     		ldr	r3, [sp, #4]
 2439 0068 586B     		ldr	r0, [r3, #52]
 2440 006a 019B     		ldr	r3, [sp, #4]
 2441 006c 324A     		ldr	r2, .L180+20
 2442 006e 0521     		movs	r1, #5
 2443 0070 FFF7FEFF 		bl	dmaStreamAllocate
 2444 0074 0346     		mov	r3, r0
 2445 0076 8DF80F30 		strb	r3, [sp, #15]
ARM GAS  C:\Users\PCHAUT~1\AppData\Local\Temp\ccR4smAG.s 			page 44


 2446              		.loc 6 566 0
 2447 007a 9DF80F30 		ldrb	r3, [sp, #15]	@ zero_extendqisi2
 2448 007e 002B     		cmp	r3, #0
 2449 0080 02D0     		beq	.L178
 2450              		.loc 6 566 0 is_stmt 0 discriminator 2
 2451 0082 2C48     		ldr	r0, .L180+16
 2452 0084 FFF7FEFF 		bl	chSysHalt
 2453              	.L178:
 2454              		.loc 6 567 0 is_stmt 1
 2455 0088 284B     		ldr	r3, .L180+8
 2456 008a 1B6C     		ldr	r3, [r3, #64]
 2457 008c 274A     		ldr	r2, .L180+8
 2458 008e 43F40013 		orr	r3, r3, #2097152
 2459 0092 1364     		str	r3, [r2, #64]
 2460              		.loc 6 568 0
 2461 0094 0521     		movs	r1, #5
 2462 0096 1F20     		movs	r0, #31
 2463 0098 FFF7FEFF 		bl	nvicEnableVector
 2464              		.loc 6 569 0
 2465 009c 0521     		movs	r1, #5
 2466 009e 2020     		movs	r0, #32
 2467 00a0 FFF7FEFF 		bl	nvicEnableVector
 2468              		.loc 6 571 0
 2469 00a4 019B     		ldr	r3, [sp, #4]
 2470 00a6 9B6A     		ldr	r3, [r3, #40]
 2471 00a8 43F00073 		orr	r3, r3, #33554432
 2472 00ac 43F44033 		orr	r3, r3, #196608
 2473 00b0 019A     		ldr	r2, [sp, #4]
 2474 00b2 9362     		str	r3, [r2, #40]
 2475              		.loc 6 573 0
 2476 00b4 019B     		ldr	r3, [sp, #4]
 2477 00b6 DB6A     		ldr	r3, [r3, #44]
 2478 00b8 43F00073 		orr	r3, r3, #33554432
 2479 00bc 43F44033 		orr	r3, r3, #196608
 2480 00c0 019A     		ldr	r2, [sp, #4]
 2481 00c2 D362     		str	r3, [r2, #44]
 2482              	.L176:
 2483              	.LBE10:
 2484              		.loc 6 632 0
 2485 00c4 049B     		ldr	r3, [sp, #16]
 2486 00c6 03F11002 		add	r2, r3, #16
 2487 00ca 019B     		ldr	r3, [sp, #4]
 2488 00cc 1B6B     		ldr	r3, [r3, #48]
 2489 00ce 1B68     		ldr	r3, [r3]
 2490 00d0 9A60     		str	r2, [r3, #8]
 2491              		.loc 6 633 0
 2492 00d2 049B     		ldr	r3, [sp, #16]
 2493 00d4 03F11002 		add	r2, r3, #16
 2494 00d8 019B     		ldr	r3, [sp, #4]
 2495 00da 5B6B     		ldr	r3, [r3, #52]
 2496 00dc 1B68     		ldr	r3, [r3]
 2497 00de 9A60     		str	r2, [r3, #8]
 2498              		.loc 6 636 0
 2499 00e0 049B     		ldr	r3, [sp, #16]
 2500 00e2 4FF40042 		mov	r2, #32768
 2501 00e6 1A60     		str	r2, [r3]
 2502              		.loc 6 637 0
ARM GAS  C:\Users\PCHAUT~1\AppData\Local\Temp\ccR4smAG.s 			page 45


 2503 00e8 049B     		ldr	r3, [sp, #16]
 2504 00ea 0022     		movs	r2, #0
 2505 00ec 1A60     		str	r2, [r3]
 2506              		.loc 6 638 0
 2507 00ee 049B     		ldr	r3, [sp, #16]
 2508 00f0 4FF41062 		mov	r2, #2304
 2509 00f4 5A60     		str	r2, [r3, #4]
 2510              		.loc 6 641 0
 2511 00f6 0198     		ldr	r0, [sp, #4]
 2512 00f8 FFF7FEFF 		bl	i2c_lld_set_clock
 2513              		.loc 6 642 0
 2514 00fc 0198     		ldr	r0, [sp, #4]
 2515 00fe FFF7FEFF 		bl	i2c_lld_set_opmode
 2516              		.loc 6 645 0
 2517 0102 049B     		ldr	r3, [sp, #16]
 2518 0104 1B68     		ldr	r3, [r3]
 2519 0106 43F00102 		orr	r2, r3, #1
 2520 010a 049B     		ldr	r3, [sp, #16]
 2521 010c 1A60     		str	r2, [r3]
 2522              		.loc 6 646 0
 2523 010e 00BF     		nop
 2524 0110 044B     		ldr	r3, .L180
 2525 0112 059A     		ldr	r2, [sp, #20]
 2526 0114 1B68     		ldr	r3, [r3]
 2527 0116 9A42     		cmp	r2, r3
 2528 0118 01D0     		beq	.L179
 2529 011a FFF7FEFF 		bl	__stack_chk_fail
 2530              	.L179:
 2531 011e 07B0     		add	sp, sp, #28
 2532              		.cfi_def_cfa_offset 4
 2533              		@ sp needed
 2534 0120 5DF804FB 		ldr	pc, [sp], #4
 2535              	.L181:
 2536              		.align	2
 2537              	.L180:
 2538 0124 00000000 		.word	__stack_chk_guard
 2539 0128 00000000 		.word	I2CD1
 2540 012c 00380240 		.word	1073887232
 2541 0130 00000000 		.word	i2c_lld_serve_rx_end_irq
 2542 0134 00000000 		.word	__func__.9922
 2543 0138 00000000 		.word	i2c_lld_serve_tx_end_irq
 2544              		.cfi_endproc
 2545              	.LFE266:
 2546              		.size	i2c_lld_start, .-i2c_lld_start
 2547              		.section	.text.i2c_lld_stop,"ax",%progbits
 2548              		.align	1
 2549              		.p2align 4,,15
 2550              		.global	i2c_lld_stop
 2551              		.syntax unified
 2552              		.thumb
 2553              		.thumb_func
 2554              		.fpu fpv4-sp-d16
 2555              		.type	i2c_lld_stop, %function
 2556              	i2c_lld_stop:
 2557              	.LFB267:
 2558              		.loc 6 655 0
 2559              		.cfi_startproc
ARM GAS  C:\Users\PCHAUT~1\AppData\Local\Temp\ccR4smAG.s 			page 46


 2560              		@ args = 0, pretend = 0, frame = 16
 2561              		@ frame_needed = 0, uses_anonymous_args = 0
 2562 0000 00B5     		push	{lr}
 2563              		.cfi_def_cfa_offset 4
 2564              		.cfi_offset 14, -4
 2565 0002 85B0     		sub	sp, sp, #20
 2566              		.cfi_def_cfa_offset 24
 2567 0004 0190     		str	r0, [sp, #4]
 2568              		.loc 6 655 0
 2569 0006 174B     		ldr	r3, .L186
 2570 0008 1B68     		ldr	r3, [r3]
 2571 000a 0393     		str	r3, [sp, #12]
 2572              		.loc 6 658 0
 2573 000c 019B     		ldr	r3, [sp, #4]
 2574 000e 1B78     		ldrb	r3, [r3]	@ zero_extendqisi2
 2575 0010 012B     		cmp	r3, #1
 2576 0012 1CD0     		beq	.L185
 2577              		.loc 6 661 0
 2578 0014 0198     		ldr	r0, [sp, #4]
 2579 0016 FFF7FEFF 		bl	i2c_lld_abort_operation
 2580              		.loc 6 662 0
 2581 001a 019B     		ldr	r3, [sp, #4]
 2582 001c 5B6B     		ldr	r3, [r3, #52]
 2583 001e 1846     		mov	r0, r3
 2584 0020 FFF7FEFF 		bl	dmaStreamRelease
 2585              		.loc 6 663 0
 2586 0024 019B     		ldr	r3, [sp, #4]
 2587 0026 1B6B     		ldr	r3, [r3, #48]
 2588 0028 1846     		mov	r0, r3
 2589 002a FFF7FEFF 		bl	dmaStreamRelease
 2590              		.loc 6 666 0
 2591 002e 019B     		ldr	r3, [sp, #4]
 2592 0030 0D4A     		ldr	r2, .L186+4
 2593 0032 9342     		cmp	r3, r2
 2594 0034 0BD1     		bne	.L185
 2595              		.loc 6 667 0
 2596 0036 1F20     		movs	r0, #31
 2597 0038 FFF7FEFF 		bl	nvicDisableVector
 2598              		.loc 6 668 0
 2599 003c 2020     		movs	r0, #32
 2600 003e FFF7FEFF 		bl	nvicDisableVector
 2601              		.loc 6 669 0
 2602 0042 0A4B     		ldr	r3, .L186+8
 2603 0044 1B6C     		ldr	r3, [r3, #64]
 2604 0046 094A     		ldr	r2, .L186+8
 2605 0048 23F40013 		bic	r3, r3, #2097152
 2606 004c 1364     		str	r3, [r2, #64]
 2607              	.L185:
 2608              		.loc 6 689 0
 2609 004e 00BF     		nop
 2610 0050 044B     		ldr	r3, .L186
 2611 0052 039A     		ldr	r2, [sp, #12]
 2612 0054 1B68     		ldr	r3, [r3]
 2613 0056 9A42     		cmp	r2, r3
 2614 0058 01D0     		beq	.L184
 2615 005a FFF7FEFF 		bl	__stack_chk_fail
 2616              	.L184:
ARM GAS  C:\Users\PCHAUT~1\AppData\Local\Temp\ccR4smAG.s 			page 47


 2617 005e 05B0     		add	sp, sp, #20
 2618              		.cfi_def_cfa_offset 4
 2619              		@ sp needed
 2620 0060 5DF804FB 		ldr	pc, [sp], #4
 2621              	.L187:
 2622              		.align	2
 2623              	.L186:
 2624 0064 00000000 		.word	__stack_chk_guard
 2625 0068 00000000 		.word	I2CD1
 2626 006c 00380240 		.word	1073887232
 2627              		.cfi_endproc
 2628              	.LFE267:
 2629              		.size	i2c_lld_stop, .-i2c_lld_stop
 2630              		.section	.text.i2c_lld_master_receive_timeout,"ax",%progbits
 2631              		.align	1
 2632              		.p2align 4,,15
 2633              		.global	i2c_lld_master_receive_timeout
 2634              		.syntax unified
 2635              		.thumb
 2636              		.thumb_func
 2637              		.fpu fpv4-sp-d16
 2638              		.type	i2c_lld_master_receive_timeout, %function
 2639              	i2c_lld_master_receive_timeout:
 2640              	.LFB268:
 2641              		.loc 6 716 0
 2642              		.cfi_startproc
 2643              		@ args = 4, pretend = 0, frame = 40
 2644              		@ frame_needed = 0, uses_anonymous_args = 0
 2645 0000 00B5     		push	{lr}
 2646              		.cfi_def_cfa_offset 4
 2647              		.cfi_offset 14, -4
 2648 0002 8BB0     		sub	sp, sp, #44
 2649              		.cfi_def_cfa_offset 48
 2650 0004 0590     		str	r0, [sp, #20]
 2651 0006 0392     		str	r2, [sp, #12]
 2652 0008 0293     		str	r3, [sp, #8]
 2653 000a 0B46     		mov	r3, r1	@ movhi
 2654 000c ADF81230 		strh	r3, [sp, #18]	@ movhi
 2655 0010 0C9B     		ldr	r3, [sp, #48]
 2656 0012 0193     		str	r3, [sp, #4]
 2657              		.loc 6 716 0
 2658 0014 354B     		ldr	r3, .L197
 2659 0016 1B68     		ldr	r3, [r3]
 2660 0018 0993     		str	r3, [sp, #36]
 2661              		.loc 6 717 0
 2662 001a 059B     		ldr	r3, [sp, #20]
 2663 001c 9B6B     		ldr	r3, [r3, #56]
 2664 001e 0693     		str	r3, [sp, #24]
 2665              		.loc 6 725 0
 2666 0020 059B     		ldr	r3, [sp, #20]
 2667 0022 0022     		movs	r2, #0
 2668 0024 9A60     		str	r2, [r3, #8]
 2669              		.loc 6 728 0
 2670 0026 BDF81230 		ldrh	r3, [sp, #18]
 2671 002a 5B00     		lsls	r3, r3, #1
 2672 002c 1BB2     		sxth	r3, r3
 2673 002e 43F00103 		orr	r3, r3, #1
ARM GAS  C:\Users\PCHAUT~1\AppData\Local\Temp\ccR4smAG.s 			page 48


 2674 0032 1BB2     		sxth	r3, r3
 2675 0034 9AB2     		uxth	r2, r3
 2676 0036 059B     		ldr	r3, [sp, #20]
 2677 0038 9A84     		strh	r2, [r3, #36]	@ movhi
 2678              		.loc 6 731 0
 2679 003a FFF7FEFF 		bl	osalSysUnlock
 2680              		.loc 6 734 0
 2681 003e 059B     		ldr	r3, [sp, #20]
 2682 0040 1B6B     		ldr	r3, [r3, #48]
 2683 0042 1B68     		ldr	r3, [r3]
 2684 0044 059A     		ldr	r2, [sp, #20]
 2685 0046 926A     		ldr	r2, [r2, #40]
 2686 0048 1A60     		str	r2, [r3]
 2687              		.loc 6 735 0
 2688 004a 059B     		ldr	r3, [sp, #20]
 2689 004c 1B6B     		ldr	r3, [r3, #48]
 2690 004e 1B68     		ldr	r3, [r3]
 2691 0050 039A     		ldr	r2, [sp, #12]
 2692 0052 DA60     		str	r2, [r3, #12]
 2693              		.loc 6 736 0
 2694 0054 059B     		ldr	r3, [sp, #20]
 2695 0056 1B6B     		ldr	r3, [r3, #48]
 2696 0058 1B68     		ldr	r3, [r3]
 2697 005a 029A     		ldr	r2, [sp, #8]
 2698 005c 5A60     		str	r2, [r3, #4]
 2699              		.loc 6 739 0
 2700 005e FFF7FEFF 		bl	osalOsGetSystemTimeX
 2701 0062 0790     		str	r0, [sp, #28]
 2702              		.loc 6 740 0
 2703 0064 079B     		ldr	r3, [sp, #28]
 2704 0066 3233     		adds	r3, r3, #50
 2705 0068 0893     		str	r3, [sp, #32]
 2706              	.L193:
 2707              		.loc 6 745 0
 2708 006a FFF7FEFF 		bl	osalSysLock
 2709              		.loc 6 749 0
 2710 006e 069B     		ldr	r3, [sp, #24]
 2711 0070 9B69     		ldr	r3, [r3, #24]
 2712 0072 03F00203 		and	r3, r3, #2
 2713 0076 002B     		cmp	r3, #0
 2714 0078 05D1     		bne	.L189
 2715              		.loc 6 749 0 is_stmt 0 discriminator 1
 2716 007a 069B     		ldr	r3, [sp, #24]
 2717 007c 1B68     		ldr	r3, [r3]
 2718 007e 03F40073 		and	r3, r3, #512
 2719 0082 002B     		cmp	r3, #0
 2720 0084 13D0     		beq	.L196
 2721              	.L189:
 2722              		.loc 6 754 0 is_stmt 1
 2723 0086 FFF7FEFF 		bl	osalOsGetSystemTimeX
 2724 008a 0346     		mov	r3, r0
 2725 008c 089A     		ldr	r2, [sp, #32]
 2726 008e 0799     		ldr	r1, [sp, #28]
 2727 0090 1846     		mov	r0, r3
 2728 0092 FFF7FEFF 		bl	osalOsIsTimeWithinX
 2729 0096 0346     		mov	r3, r0
 2730 0098 83F00103 		eor	r3, r3, #1
ARM GAS  C:\Users\PCHAUT~1\AppData\Local\Temp\ccR4smAG.s 			page 49


 2731 009c DBB2     		uxtb	r3, r3
 2732 009e 002B     		cmp	r3, #0
 2733 00a0 02D0     		beq	.L191
 2734              		.loc 6 755 0
 2735 00a2 4FF0FF33 		mov	r3, #-1
 2736 00a6 16E0     		b	.L192
 2737              	.L191:
 2738              		.loc 6 757 0
 2739 00a8 FFF7FEFF 		bl	osalSysUnlock
 2740              		.loc 6 745 0
 2741 00ac DDE7     		b	.L193
 2742              	.L196:
 2743              		.loc 6 750 0
 2744 00ae 00BF     		nop
 2745              		.loc 6 761 0
 2746 00b0 069B     		ldr	r3, [sp, #24]
 2747 00b2 5B68     		ldr	r3, [r3, #4]
 2748 00b4 43F40072 		orr	r2, r3, #512
 2749 00b8 069B     		ldr	r3, [sp, #24]
 2750 00ba 5A60     		str	r2, [r3, #4]
 2751              		.loc 6 762 0
 2752 00bc 069B     		ldr	r3, [sp, #24]
 2753 00be 1B68     		ldr	r3, [r3]
 2754 00c0 43F4A062 		orr	r2, r3, #1280
 2755 00c4 069B     		ldr	r3, [sp, #24]
 2756 00c6 1A60     		str	r2, [r3]
 2757              		.loc 6 765 0
 2758 00c8 059B     		ldr	r3, [sp, #20]
 2759 00ca 2033     		adds	r3, r3, #32
 2760 00cc 0199     		ldr	r1, [sp, #4]
 2761 00ce 1846     		mov	r0, r3
 2762 00d0 FFF7FEFF 		bl	osalThreadSuspendTimeoutS
 2763 00d4 0346     		mov	r3, r0
 2764              	.L192:
 2765              		.loc 6 766 0
 2766 00d6 1846     		mov	r0, r3
 2767 00d8 044B     		ldr	r3, .L197
 2768 00da 099A     		ldr	r2, [sp, #36]
 2769 00dc 1B68     		ldr	r3, [r3]
 2770 00de 9A42     		cmp	r2, r3
 2771 00e0 01D0     		beq	.L194
 2772 00e2 FFF7FEFF 		bl	__stack_chk_fail
 2773              	.L194:
 2774 00e6 0BB0     		add	sp, sp, #44
 2775              		.cfi_def_cfa_offset 4
 2776              		@ sp needed
 2777 00e8 5DF804FB 		ldr	pc, [sp], #4
 2778              	.L198:
 2779              		.align	2
 2780              	.L197:
 2781 00ec 00000000 		.word	__stack_chk_guard
 2782              		.cfi_endproc
 2783              	.LFE268:
 2784              		.size	i2c_lld_master_receive_timeout, .-i2c_lld_master_receive_timeout
 2785              		.section	.text.i2c_lld_master_transmit_timeout,"ax",%progbits
 2786              		.align	1
 2787              		.p2align 4,,15
ARM GAS  C:\Users\PCHAUT~1\AppData\Local\Temp\ccR4smAG.s 			page 50


 2788              		.global	i2c_lld_master_transmit_timeout
 2789              		.syntax unified
 2790              		.thumb
 2791              		.thumb_func
 2792              		.fpu fpv4-sp-d16
 2793              		.type	i2c_lld_master_transmit_timeout, %function
 2794              	i2c_lld_master_transmit_timeout:
 2795              	.LFB269:
 2796              		.loc 6 796 0
 2797              		.cfi_startproc
 2798              		@ args = 12, pretend = 0, frame = 48
 2799              		@ frame_needed = 0, uses_anonymous_args = 0
 2800 0000 00B5     		push	{lr}
 2801              		.cfi_def_cfa_offset 4
 2802              		.cfi_offset 14, -4
 2803 0002 8DB0     		sub	sp, sp, #52
 2804              		.cfi_def_cfa_offset 56
 2805 0004 0790     		str	r0, [sp, #28]
 2806 0006 0592     		str	r2, [sp, #20]
 2807 0008 0493     		str	r3, [sp, #16]
 2808 000a 0B46     		mov	r3, r1	@ movhi
 2809 000c ADF81A30 		strh	r3, [sp, #26]	@ movhi
 2810 0010 0E9B     		ldr	r3, [sp, #56]
 2811 0012 0393     		str	r3, [sp, #12]
 2812 0014 0F9B     		ldr	r3, [sp, #60]
 2813 0016 0293     		str	r3, [sp, #8]
 2814 0018 109B     		ldr	r3, [sp, #64]
 2815 001a 0193     		str	r3, [sp, #4]
 2816              		.loc 6 796 0
 2817 001c 3B4B     		ldr	r3, .L208
 2818 001e 1B68     		ldr	r3, [r3]
 2819 0020 0B93     		str	r3, [sp, #44]
 2820              		.loc 6 797 0
 2821 0022 079B     		ldr	r3, [sp, #28]
 2822 0024 9B6B     		ldr	r3, [r3, #56]
 2823 0026 0893     		str	r3, [sp, #32]
 2824              		.loc 6 805 0
 2825 0028 079B     		ldr	r3, [sp, #28]
 2826 002a 0022     		movs	r2, #0
 2827 002c 9A60     		str	r2, [r3, #8]
 2828              		.loc 6 808 0
 2829 002e BDF81A30 		ldrh	r3, [sp, #26]	@ movhi
 2830 0032 5B00     		lsls	r3, r3, #1
 2831 0034 9AB2     		uxth	r2, r3
 2832 0036 079B     		ldr	r3, [sp, #28]
 2833 0038 9A84     		strh	r2, [r3, #36]	@ movhi
 2834              		.loc 6 811 0
 2835 003a FFF7FEFF 		bl	osalSysUnlock
 2836              		.loc 6 814 0
 2837 003e 079B     		ldr	r3, [sp, #28]
 2838 0040 5B6B     		ldr	r3, [r3, #52]
 2839 0042 1B68     		ldr	r3, [r3]
 2840 0044 079A     		ldr	r2, [sp, #28]
 2841 0046 D26A     		ldr	r2, [r2, #44]
 2842 0048 1A60     		str	r2, [r3]
 2843              		.loc 6 815 0
 2844 004a 079B     		ldr	r3, [sp, #28]
ARM GAS  C:\Users\PCHAUT~1\AppData\Local\Temp\ccR4smAG.s 			page 51


 2845 004c 5B6B     		ldr	r3, [r3, #52]
 2846 004e 1B68     		ldr	r3, [r3]
 2847 0050 059A     		ldr	r2, [sp, #20]
 2848 0052 DA60     		str	r2, [r3, #12]
 2849              		.loc 6 816 0
 2850 0054 079B     		ldr	r3, [sp, #28]
 2851 0056 5B6B     		ldr	r3, [r3, #52]
 2852 0058 1B68     		ldr	r3, [r3]
 2853 005a 049A     		ldr	r2, [sp, #16]
 2854 005c 5A60     		str	r2, [r3, #4]
 2855              		.loc 6 819 0
 2856 005e 079B     		ldr	r3, [sp, #28]
 2857 0060 1B6B     		ldr	r3, [r3, #48]
 2858 0062 1B68     		ldr	r3, [r3]
 2859 0064 079A     		ldr	r2, [sp, #28]
 2860 0066 926A     		ldr	r2, [r2, #40]
 2861 0068 1A60     		str	r2, [r3]
 2862              		.loc 6 820 0
 2863 006a 079B     		ldr	r3, [sp, #28]
 2864 006c 1B6B     		ldr	r3, [r3, #48]
 2865 006e 1B68     		ldr	r3, [r3]
 2866 0070 039A     		ldr	r2, [sp, #12]
 2867 0072 DA60     		str	r2, [r3, #12]
 2868              		.loc 6 821 0
 2869 0074 079B     		ldr	r3, [sp, #28]
 2870 0076 1B6B     		ldr	r3, [r3, #48]
 2871 0078 1B68     		ldr	r3, [r3]
 2872 007a 029A     		ldr	r2, [sp, #8]
 2873 007c 5A60     		str	r2, [r3, #4]
 2874              		.loc 6 824 0
 2875 007e FFF7FEFF 		bl	osalOsGetSystemTimeX
 2876 0082 0990     		str	r0, [sp, #36]
 2877              		.loc 6 825 0
 2878 0084 099B     		ldr	r3, [sp, #36]
 2879 0086 3233     		adds	r3, r3, #50
 2880 0088 0A93     		str	r3, [sp, #40]
 2881              	.L204:
 2882              		.loc 6 830 0
 2883 008a FFF7FEFF 		bl	osalSysLock
 2884              		.loc 6 834 0
 2885 008e 089B     		ldr	r3, [sp, #32]
 2886 0090 9B69     		ldr	r3, [r3, #24]
 2887 0092 03F00203 		and	r3, r3, #2
 2888 0096 002B     		cmp	r3, #0
 2889 0098 05D1     		bne	.L200
 2890              		.loc 6 834 0 is_stmt 0 discriminator 1
 2891 009a 089B     		ldr	r3, [sp, #32]
 2892 009c 1B68     		ldr	r3, [r3]
 2893 009e 03F40073 		and	r3, r3, #512
 2894 00a2 002B     		cmp	r3, #0
 2895 00a4 13D0     		beq	.L207
 2896              	.L200:
 2897              		.loc 6 839 0 is_stmt 1
 2898 00a6 FFF7FEFF 		bl	osalOsGetSystemTimeX
 2899 00aa 0346     		mov	r3, r0
 2900 00ac 0A9A     		ldr	r2, [sp, #40]
 2901 00ae 0999     		ldr	r1, [sp, #36]
ARM GAS  C:\Users\PCHAUT~1\AppData\Local\Temp\ccR4smAG.s 			page 52


 2902 00b0 1846     		mov	r0, r3
 2903 00b2 FFF7FEFF 		bl	osalOsIsTimeWithinX
 2904 00b6 0346     		mov	r3, r0
 2905 00b8 83F00103 		eor	r3, r3, #1
 2906 00bc DBB2     		uxtb	r3, r3
 2907 00be 002B     		cmp	r3, #0
 2908 00c0 02D0     		beq	.L202
 2909              		.loc 6 840 0
 2910 00c2 4FF0FF33 		mov	r3, #-1
 2911 00c6 16E0     		b	.L203
 2912              	.L202:
 2913              		.loc 6 842 0
 2914 00c8 FFF7FEFF 		bl	osalSysUnlock
 2915              		.loc 6 830 0
 2916 00cc DDE7     		b	.L204
 2917              	.L207:
 2918              		.loc 6 835 0
 2919 00ce 00BF     		nop
 2920              		.loc 6 846 0
 2921 00d0 089B     		ldr	r3, [sp, #32]
 2922 00d2 5B68     		ldr	r3, [r3, #4]
 2923 00d4 43F40072 		orr	r2, r3, #512
 2924 00d8 089B     		ldr	r3, [sp, #32]
 2925 00da 5A60     		str	r2, [r3, #4]
 2926              		.loc 6 847 0
 2927 00dc 089B     		ldr	r3, [sp, #32]
 2928 00de 1B68     		ldr	r3, [r3]
 2929 00e0 43F48072 		orr	r2, r3, #256
 2930 00e4 089B     		ldr	r3, [sp, #32]
 2931 00e6 1A60     		str	r2, [r3]
 2932              		.loc 6 850 0
 2933 00e8 079B     		ldr	r3, [sp, #28]
 2934 00ea 2033     		adds	r3, r3, #32
 2935 00ec 0199     		ldr	r1, [sp, #4]
 2936 00ee 1846     		mov	r0, r3
 2937 00f0 FFF7FEFF 		bl	osalThreadSuspendTimeoutS
 2938 00f4 0346     		mov	r3, r0
 2939              	.L203:
 2940              		.loc 6 851 0
 2941 00f6 1846     		mov	r0, r3
 2942 00f8 044B     		ldr	r3, .L208
 2943 00fa 0B9A     		ldr	r2, [sp, #44]
 2944 00fc 1B68     		ldr	r3, [r3]
 2945 00fe 9A42     		cmp	r2, r3
 2946 0100 01D0     		beq	.L205
 2947 0102 FFF7FEFF 		bl	__stack_chk_fail
 2948              	.L205:
 2949 0106 0DB0     		add	sp, sp, #52
 2950              		.cfi_def_cfa_offset 4
 2951              		@ sp needed
 2952 0108 5DF804FB 		ldr	pc, [sp], #4
 2953              	.L209:
 2954              		.align	2
 2955              	.L208:
 2956 010c 00000000 		.word	__stack_chk_guard
 2957              		.cfi_endproc
 2958              	.LFE269:
ARM GAS  C:\Users\PCHAUT~1\AppData\Local\Temp\ccR4smAG.s 			page 53


 2959              		.size	i2c_lld_master_transmit_timeout, .-i2c_lld_master_transmit_timeout
 2960              		.section	.rodata.__func__.9857,"a",%progbits
 2961              		.align	2
 2962              		.type	__func__.9857, %object
 2963              		.size	__func__.9857, 18
 2964              	__func__.9857:
 2965 0000 6932635F 		.ascii	"i2c_lld_set_clock\000"
 2965      6C6C645F 
 2965      7365745F 
 2965      636C6F63 
 2965      6B00
 2966              		.section	.rodata.__func__.9922,"a",%progbits
 2967              		.align	2
 2968              		.type	__func__.9922, %object
 2969              		.size	__func__.9922, 14
 2970              	__func__.9922:
 2971 0000 6932635F 		.ascii	"i2c_lld_start\000"
 2971      6C6C645F 
 2971      73746172 
 2971      7400
 2972              		.section	.rodata.__func__.7153,"a",%progbits
 2973              		.align	2
 2974              		.type	__func__.7153, %object
 2975              		.size	__func__.7153, 12
 2976              	__func__.7153:
 2977 0000 63685379 		.ascii	"chSysUnlock\000"
 2977      73556E6C 
 2977      6F636B00 
 2978              		.text
 2979              	.Letext0:
 2980              		.file 7 "c:\\users\\pchautems\\documents\\robotiquetp\\eclipse_e-puck2\\tools\\gcc-arm-none-eabi-7
 2981              		.file 8 "c:\\users\\pchautems\\documents\\robotiquetp\\eclipse_e-puck2\\tools\\gcc-arm-none-eabi-7
 2982              		.file 9 "c:\\users\\pchautems\\documents\\robotiquetp\\eclipse_e-puck2\\tools\\gcc-arm-none-eabi-7
 2983              		.file 10 "../lib/e-puck2_main-processor/ChibiOS//os/rt/ports/ARMCMx/compilers/GCC/chtypes.h"
 2984              		.file 11 "../lib/e-puck2_main-processor/ChibiOS//os/rt/include/chsystypes.h"
 2985              		.file 12 "../lib/e-puck2_main-processor/ChibiOS//os/rt/include/chschd.h"
 2986              		.file 13 "../lib/e-puck2_main-processor/ChibiOS//os/ext/CMSIS/include/core_cm4.h"
 2987              		.file 14 "../lib/e-puck2_main-processor/ChibiOS//os/ext/CMSIS/ST/system_stm32f4xx.h"
 2988              		.file 15 "../lib/e-puck2_main-processor/ChibiOS//os/ext/CMSIS/ST/stm32f407xx.h"
 2989              		.file 16 "../lib/e-puck2_main-processor/ChibiOS//os/rt/ports/ARMCMx/chcore.h"
 2990              		.file 17 "../lib/e-puck2_main-processor/ChibiOS//os/rt/include/chdebug.h"
 2991              		.file 18 "../lib/e-puck2_main-processor/ChibiOS//os/rt/include/chtm.h"
 2992              		.file 19 "../lib/e-puck2_main-processor/ChibiOS//os/rt/include/chstats.h"
 2993              		.file 20 "../lib/e-puck2_main-processor/ChibiOS//os/rt/include/chsem.h"
 2994              		.file 21 "../lib/e-puck2_main-processor/ChibiOS//os/rt/include/chmtx.h"
 2995              		.file 22 "../lib/e-puck2_main-processor/ChibiOS//os/rt/include/chregistry.h"
 2996              		.file 23 "../lib/e-puck2_main-processor/ChibiOS//os/rt/include/chevents.h"
 2997              		.file 24 "../lib/e-puck2_main-processor/ChibiOS//os/rt/include/chqueues.h"
 2998              		.file 25 "../lib/e-puck2_main-processor/ChibiOS//os/hal/ports/STM32/STM32F4xx/stm32_dma.h"
 2999              		.file 26 "../lib/e-puck2_main-processor/ChibiOS//os/hal/include/hal_ioblock.h"
 3000              		.file 27 "../lib/e-puck2_main-processor/ChibiOS//os/hal/ports/STM32/LLD/GPIOv2/pal_lld.h"
 3001              		.file 28 "../lib/e-puck2_main-processor/ChibiOS//os/hal/include/adc.h"
 3002              		.file 29 "../lib/e-puck2_main-processor/ChibiOS//os/hal/ports/STM32/STM32F4xx/adc_lld.h"
 3003              		.file 30 "../lib/e-puck2_main-processor/ChibiOS//os/hal/include/can.h"
 3004              		.file 31 "../lib/e-puck2_main-processor/ChibiOS//os/hal/ports/STM32/LLD/can_lld.h"
 3005              		.file 32 "../lib/e-puck2_main-processor/ChibiOS//os/hal/include/dac.h"
 3006              		.file 33 "../lib/e-puck2_main-processor/ChibiOS//os/hal/ports/STM32/LLD/DACv1/dac_lld.h"
ARM GAS  C:\Users\PCHAUT~1\AppData\Local\Temp\ccR4smAG.s 			page 54


 3007              		.file 34 "../lib/e-puck2_main-processor/ChibiOS//os/hal/include/ext.h"
 3008              		.file 35 "../lib/e-puck2_main-processor/ChibiOS//os/hal/ports/STM32/LLD/ext_lld.h"
 3009              		.file 36 "../lib/e-puck2_main-processor/ChibiOS//os/hal/include/gpt.h"
 3010              		.file 37 "../lib/e-puck2_main-processor/ChibiOS//os/hal/ports/STM32/LLD/TIMv1/gpt_lld.h"
 3011              		.file 38 "../lib/e-puck2_main-processor/ChibiOS//os/hal/ports/STM32/LLD/TIMv1/stm32_tim.h"
 3012              		.file 39 "../lib/e-puck2_main-processor/ChibiOS//os/hal/include/i2c.h"
 3013              		.file 40 "../lib/e-puck2_main-processor/ChibiOS//os/hal/ports/STM32/LLD/I2Cv1/i2c_lld.h"
 3014              		.file 41 "../lib/e-puck2_main-processor/ChibiOS//os/hal/include/i2s.h"
 3015              		.file 42 "../lib/e-puck2_main-processor/ChibiOS//os/hal/ports/STM32/LLD/SPIv1/i2s_lld.h"
 3016              		.file 43 "../lib/e-puck2_main-processor/ChibiOS//os/hal/include/pwm.h"
 3017              		.file 44 "../lib/e-puck2_main-processor/ChibiOS//os/hal/ports/STM32/LLD/TIMv1/pwm_lld.h"
 3018              		.file 45 "../lib/e-puck2_main-processor/ChibiOS//os/hal/include/serial.h"
 3019              		.file 46 "../lib/e-puck2_main-processor/ChibiOS//os/hal/ports/STM32/LLD/USARTv1/serial_lld.h"
 3020              		.file 47 "../lib/e-puck2_main-processor/ChibiOS//os/hal/include/sdc.h"
 3021              		.file 48 "../lib/e-puck2_main-processor/ChibiOS//os/hal/ports/STM32/LLD/sdc_lld.h"
 3022              		.file 49 "../lib/e-puck2_main-processor/ChibiOS//os/hal/include/spi.h"
 3023              		.file 50 "../lib/e-puck2_main-processor/ChibiOS//os/hal/ports/STM32/LLD/SPIv1/spi_lld.h"
 3024              		.file 51 "../lib/e-puck2_main-processor/ChibiOS//os/hal/include/usb.h"
 3025              		.file 52 "../lib/e-puck2_main-processor/ChibiOS//os/hal/ports/STM32/LLD/OTGv1/usb_lld.h"
 3026              		.file 53 "../lib/e-puck2_main-processor/ChibiOS//os/hal/ports/STM32/LLD/OTGv1/stm32_otg.h"
 3027              		.section	.debug_info,"",%progbits
 3028              	.Ldebug_info0:
 3029 0000 9F3F0000 		.4byte	0x3f9f
 3030 0004 0400     		.2byte	0x4
 3031 0006 00000000 		.4byte	.Ldebug_abbrev0
 3032 000a 04       		.byte	0x4
 3033 000b 01       		.uleb128 0x1
 3034 000c 03090000 		.4byte	.LASF868
 3035 0010 0C       		.byte	0xc
 3036 0011 AC230000 		.4byte	.LASF869
 3037 0015 BD000000 		.4byte	.LASF870
 3038 0019 00000000 		.4byte	.Ldebug_ranges0+0
 3039 001d 00000000 		.4byte	0
 3040 0021 00000000 		.4byte	.Ldebug_line0
 3041 0025 02       		.uleb128 0x2
 3042 0026 04       		.byte	0x4
 3043 0027 05       		.byte	0x5
 3044 0028 696E7400 		.ascii	"int\000"
 3045 002c 03       		.uleb128 0x3
 3046 002d 150E0000 		.4byte	.LASF4
 3047 0031 07       		.byte	0x7
 3048 0032 D8       		.byte	0xd8
 3049 0033 37000000 		.4byte	0x37
 3050 0037 04       		.uleb128 0x4
 3051 0038 04       		.byte	0x4
 3052 0039 07       		.byte	0x7
 3053 003a 0C240000 		.4byte	.LASF0
 3054 003e 04       		.uleb128 0x4
 3055 003f 08       		.byte	0x8
 3056 0040 05       		.byte	0x5
 3057 0041 E2210000 		.4byte	.LASF1
 3058 0045 04       		.uleb128 0x4
 3059 0046 08       		.byte	0x8
 3060 0047 04       		.byte	0x4
 3061 0048 2D190000 		.4byte	.LASF2
 3062 004c 04       		.uleb128 0x4
 3063 004d 01       		.byte	0x1
ARM GAS  C:\Users\PCHAUT~1\AppData\Local\Temp\ccR4smAG.s 			page 55


 3064 004e 06       		.byte	0x6
 3065 004f 0C150000 		.4byte	.LASF3
 3066 0053 03       		.uleb128 0x3
 3067 0054 44010000 		.4byte	.LASF5
 3068 0058 08       		.byte	0x8
 3069 0059 2B       		.byte	0x2b
 3070 005a 5E000000 		.4byte	0x5e
 3071 005e 04       		.uleb128 0x4
 3072 005f 01       		.byte	0x1
 3073 0060 08       		.byte	0x8
 3074 0061 A90A0000 		.4byte	.LASF6
 3075 0065 03       		.uleb128 0x3
 3076 0066 F3070000 		.4byte	.LASF7
 3077 006a 08       		.byte	0x8
 3078 006b 37       		.byte	0x37
 3079 006c 70000000 		.4byte	0x70
 3080 0070 04       		.uleb128 0x4
 3081 0071 02       		.byte	0x2
 3082 0072 05       		.byte	0x5
 3083 0073 5B240000 		.4byte	.LASF8
 3084 0077 03       		.uleb128 0x3
 3085 0078 FD070000 		.4byte	.LASF9
 3086 007c 08       		.byte	0x8
 3087 007d 39       		.byte	0x39
 3088 007e 82000000 		.4byte	0x82
 3089 0082 04       		.uleb128 0x4
 3090 0083 02       		.byte	0x2
 3091 0084 07       		.byte	0x7
 3092 0085 F1140000 		.4byte	.LASF10
 3093 0089 03       		.uleb128 0x3
 3094 008a 8B1D0000 		.4byte	.LASF11
 3095 008e 08       		.byte	0x8
 3096 008f 4D       		.byte	0x4d
 3097 0090 94000000 		.4byte	0x94
 3098 0094 04       		.uleb128 0x4
 3099 0095 04       		.byte	0x4
 3100 0096 05       		.byte	0x5
 3101 0097 E0170000 		.4byte	.LASF12
 3102 009b 03       		.uleb128 0x3
 3103 009c 951D0000 		.4byte	.LASF13
 3104 00a0 08       		.byte	0x8
 3105 00a1 4F       		.byte	0x4f
 3106 00a2 A6000000 		.4byte	0xa6
 3107 00a6 04       		.uleb128 0x4
 3108 00a7 04       		.byte	0x4
 3109 00a8 07       		.byte	0x7
 3110 00a9 79190000 		.4byte	.LASF14
 3111 00ad 03       		.uleb128 0x3
 3112 00ae 27110000 		.4byte	.LASF15
 3113 00b2 08       		.byte	0x8
 3114 00b3 69       		.byte	0x69
 3115 00b4 B8000000 		.4byte	0xb8
 3116 00b8 04       		.uleb128 0x4
 3117 00b9 08       		.byte	0x8
 3118 00ba 07       		.byte	0x7
 3119 00bb 8A1F0000 		.4byte	.LASF16
 3120 00bf 03       		.uleb128 0x3
ARM GAS  C:\Users\PCHAUT~1\AppData\Local\Temp\ccR4smAG.s 			page 56


 3121 00c0 320E0000 		.4byte	.LASF17
 3122 00c4 09       		.byte	0x9
 3123 00c5 18       		.byte	0x18
 3124 00c6 53000000 		.4byte	0x53
 3125 00ca 05       		.uleb128 0x5
 3126 00cb BF000000 		.4byte	0xbf
 3127 00cf 03       		.uleb128 0x3
 3128 00d0 D4140000 		.4byte	.LASF18
 3129 00d4 09       		.byte	0x9
 3130 00d5 20       		.byte	0x20
 3131 00d6 65000000 		.4byte	0x65
 3132 00da 03       		.uleb128 0x3
 3133 00db 6C020000 		.4byte	.LASF19
 3134 00df 09       		.byte	0x9
 3135 00e0 24       		.byte	0x24
 3136 00e1 77000000 		.4byte	0x77
 3137 00e5 03       		.uleb128 0x3
 3138 00e6 E2030000 		.4byte	.LASF20
 3139 00ea 09       		.byte	0x9
 3140 00eb 2C       		.byte	0x2c
 3141 00ec 89000000 		.4byte	0x89
 3142 00f0 06       		.uleb128 0x6
 3143 00f1 E5000000 		.4byte	0xe5
 3144 00f5 03       		.uleb128 0x3
 3145 00f6 D6180000 		.4byte	.LASF21
 3146 00fa 09       		.byte	0x9
 3147 00fb 30       		.byte	0x30
 3148 00fc 9B000000 		.4byte	0x9b
 3149 0100 06       		.uleb128 0x6
 3150 0101 F5000000 		.4byte	0xf5
 3151 0105 05       		.uleb128 0x5
 3152 0106 00010000 		.4byte	0x100
 3153 010a 03       		.uleb128 0x3
 3154 010b 040C0000 		.4byte	.LASF22
 3155 010f 09       		.byte	0x9
 3156 0110 3C       		.byte	0x3c
 3157 0111 AD000000 		.4byte	0xad
 3158 0115 03       		.uleb128 0x3
 3159 0116 A90D0000 		.4byte	.LASF23
 3160 011a 0A       		.byte	0xa
 3161 011b 45       		.byte	0x45
 3162 011c F5000000 		.4byte	0xf5
 3163 0120 03       		.uleb128 0x3
 3164 0121 51060000 		.4byte	.LASF24
 3165 0125 0A       		.byte	0xa
 3166 0126 46       		.byte	0x46
 3167 0127 0A010000 		.4byte	0x10a
 3168 012b 03       		.uleb128 0x3
 3169 012c C3120000 		.4byte	.LASF25
 3170 0130 0A       		.byte	0xa
 3171 0131 48       		.byte	0x48
 3172 0132 BF000000 		.4byte	0xbf
 3173 0136 03       		.uleb128 0x3
 3174 0137 63200000 		.4byte	.LASF26
 3175 013b 0A       		.byte	0xa
 3176 013c 49       		.byte	0x49
 3177 013d BF000000 		.4byte	0xbf
ARM GAS  C:\Users\PCHAUT~1\AppData\Local\Temp\ccR4smAG.s 			page 57


 3178 0141 03       		.uleb128 0x3
 3179 0142 78120000 		.4byte	.LASF27
 3180 0146 0A       		.byte	0xa
 3181 0147 4A       		.byte	0x4a
 3182 0148 BF000000 		.4byte	0xbf
 3183 014c 03       		.uleb128 0x3
 3184 014d 42140000 		.4byte	.LASF28
 3185 0151 0A       		.byte	0xa
 3186 0152 4B       		.byte	0x4b
 3187 0153 BF000000 		.4byte	0xbf
 3188 0157 03       		.uleb128 0x3
 3189 0158 16070000 		.4byte	.LASF29
 3190 015c 0A       		.byte	0xa
 3191 015d 4C       		.byte	0x4c
 3192 015e F5000000 		.4byte	0xf5
 3193 0162 03       		.uleb128 0x3
 3194 0163 7E000000 		.4byte	.LASF30
 3195 0167 0A       		.byte	0xa
 3196 0168 4D       		.byte	0x4d
 3197 0169 E5000000 		.4byte	0xe5
 3198 016d 03       		.uleb128 0x3
 3199 016e 42190000 		.4byte	.LASF31
 3200 0172 0A       		.byte	0xa
 3201 0173 4F       		.byte	0x4f
 3202 0174 F5000000 		.4byte	0xf5
 3203 0178 03       		.uleb128 0x3
 3204 0179 4F220000 		.4byte	.LASF32
 3205 017d 0A       		.byte	0xa
 3206 017e 50       		.byte	0x50
 3207 017f F5000000 		.4byte	0xf5
 3208 0183 03       		.uleb128 0x3
 3209 0184 A81B0000 		.4byte	.LASF33
 3210 0188 0A       		.byte	0xa
 3211 0189 51       		.byte	0x51
 3212 018a E5000000 		.4byte	0xe5
 3213 018e 03       		.uleb128 0x3
 3214 018f 30150000 		.4byte	.LASF34
 3215 0193 0A       		.byte	0xa
 3216 0194 52       		.byte	0x52
 3217 0195 F5000000 		.4byte	0xf5
 3218 0199 03       		.uleb128 0x3
 3219 019a F6030000 		.4byte	.LASF35
 3220 019e 0B       		.byte	0xb
 3221 019f 33       		.byte	0x33
 3222 01a0 F5000000 		.4byte	0xf5
 3223 01a4 06       		.uleb128 0x6
 3224 01a5 99010000 		.4byte	0x199
 3225 01a9 03       		.uleb128 0x3
 3226 01aa 9A030000 		.4byte	.LASF36
 3227 01ae 0B       		.byte	0xb
 3228 01af 3F       		.byte	0x3f
 3229 01b0 B4010000 		.4byte	0x1b4
 3230 01b4 07       		.uleb128 0x7
 3231 01b5 E10A0000 		.4byte	.LASF60
 3232 01b9 68       		.byte	0x68
 3233 01ba 0C       		.byte	0xc
 3234 01bb C2       		.byte	0xc2
ARM GAS  C:\Users\PCHAUT~1\AppData\Local\Temp\ccR4smAG.s 			page 58


 3235 01bc D2020000 		.4byte	0x2d2
 3236 01c0 08       		.uleb128 0x8
 3237 01c1 ED110000 		.4byte	.LASF37
 3238 01c5 0C       		.byte	0xc
 3239 01c6 C3       		.byte	0xc3
 3240 01c7 DD020000 		.4byte	0x2dd
 3241 01cb 00       		.byte	0
 3242 01cc 08       		.uleb128 0x8
 3243 01cd 5A0E0000 		.4byte	.LASF38
 3244 01d1 0C       		.byte	0xc
 3245 01d2 C5       		.byte	0xc5
 3246 01d3 DD020000 		.4byte	0x2dd
 3247 01d7 04       		.byte	0x4
 3248 01d8 08       		.uleb128 0x8
 3249 01d9 10110000 		.4byte	.LASF39
 3250 01dd 0C       		.byte	0xc
 3251 01de C7       		.byte	0xc7
 3252 01df 57010000 		.4byte	0x157
 3253 01e3 08       		.byte	0x8
 3254 01e4 08       		.uleb128 0x8
 3255 01e5 880B0000 		.4byte	.LASF40
 3256 01e9 0C       		.byte	0xc
 3257 01ea C8       		.byte	0xc8
 3258 01eb A6100000 		.4byte	0x10a6
 3259 01ef 0C       		.byte	0xc
 3260 01f0 08       		.uleb128 0x8
 3261 01f1 FC020000 		.4byte	.LASF41
 3262 01f5 0C       		.byte	0xc
 3263 01f6 CA       		.byte	0xca
 3264 01f7 DD020000 		.4byte	0x2dd
 3265 01fb 10       		.byte	0x10
 3266 01fc 08       		.uleb128 0x8
 3267 01fd C3220000 		.4byte	.LASF42
 3268 0201 0C       		.byte	0xc
 3269 0202 CB       		.byte	0xcb
 3270 0203 DD020000 		.4byte	0x2dd
 3271 0207 14       		.byte	0x14
 3272 0208 08       		.uleb128 0x8
 3273 0209 C5200000 		.4byte	.LASF43
 3274 020d 0C       		.byte	0xc
 3275 020e D2       		.byte	0xd2
 3276 020f 1C140000 		.4byte	0x141c
 3277 0213 18       		.byte	0x18
 3278 0214 08       		.uleb128 0x8
 3279 0215 891B0000 		.4byte	.LASF44
 3280 0219 0C       		.byte	0xc
 3281 021a D8       		.byte	0xd8
 3282 021b 33140000 		.4byte	0x1433
 3283 021f 1C       		.byte	0x1c
 3284 0220 08       		.uleb128 0x8
 3285 0221 50250000 		.4byte	.LASF45
 3286 0225 0C       		.byte	0xc
 3287 0226 DD       		.byte	0xdd
 3288 0227 36010000 		.4byte	0x136
 3289 022b 20       		.byte	0x20
 3290 022c 08       		.uleb128 0x8
 3291 022d 29200000 		.4byte	.LASF46
ARM GAS  C:\Users\PCHAUT~1\AppData\Local\Temp\ccR4smAG.s 			page 59


 3292 0231 0C       		.byte	0xc
 3293 0232 E1       		.byte	0xe1
 3294 0233 2B010000 		.4byte	0x12b
 3295 0237 21       		.byte	0x21
 3296 0238 08       		.uleb128 0x8
 3297 0239 BF170000 		.4byte	.LASF47
 3298 023d 0C       		.byte	0xc
 3299 023e E6       		.byte	0xe6
 3300 023f 41010000 		.4byte	0x141
 3301 0243 22       		.byte	0x22
 3302 0244 08       		.uleb128 0x8
 3303 0245 26150000 		.4byte	.LASF48
 3304 0249 0C       		.byte	0xc
 3305 024a EC       		.byte	0xec
 3306 024b 4C010000 		.4byte	0x14c
 3307 024f 23       		.byte	0x23
 3308 0250 08       		.uleb128 0x8
 3309 0251 B8170000 		.4byte	.LASF49
 3310 0255 0C       		.byte	0xc
 3311 0256 F3       		.byte	0xf3
 3312 0257 A4010000 		.4byte	0x1a4
 3313 025b 24       		.byte	0x24
 3314 025c 09       		.uleb128 0x9
 3315 025d 705F7500 		.ascii	"p_u\000"
 3316 0261 0C       		.byte	0xc
 3317 0262 3101     		.2byte	0x131
 3318 0264 4B130000 		.4byte	0x134b
 3319 0268 28       		.byte	0x28
 3320 0269 0A       		.uleb128 0xa
 3321 026a A4050000 		.4byte	.LASF50
 3322 026e 0C       		.byte	0xc
 3323 026f 3601     		.2byte	0x136
 3324 0271 E3020000 		.4byte	0x2e3
 3325 0275 2C       		.byte	0x2c
 3326 0276 0A       		.uleb128 0xa
 3327 0277 C2150000 		.4byte	.LASF51
 3328 027b 0C       		.byte	0xc
 3329 027c 3C01     		.2byte	0x13c
 3330 027e 07030000 		.4byte	0x307
 3331 0282 30       		.byte	0x30
 3332 0283 0A       		.uleb128 0xa
 3333 0284 20080000 		.4byte	.LASF52
 3334 0288 0C       		.byte	0xc
 3335 0289 4001     		.2byte	0x140
 3336 028b 62010000 		.4byte	0x162
 3337 028f 38       		.byte	0x38
 3338 0290 0A       		.uleb128 0xa
 3339 0291 2B1E0000 		.4byte	.LASF53
 3340 0295 0C       		.byte	0xc
 3341 0296 4601     		.2byte	0x146
 3342 0298 6D010000 		.4byte	0x16d
 3343 029c 3C       		.byte	0x3c
 3344 029d 0A       		.uleb128 0xa
 3345 029e 4E200000 		.4byte	.LASF54
 3346 02a2 0C       		.byte	0xc
 3347 02a3 4D01     		.2byte	0x14d
 3348 02a5 16140000 		.4byte	0x1416
ARM GAS  C:\Users\PCHAUT~1\AppData\Local\Temp\ccR4smAG.s 			page 60


 3349 02a9 40       		.byte	0x40
 3350 02aa 0A       		.uleb128 0xa
 3351 02ab DD1C0000 		.4byte	.LASF55
 3352 02af 0C       		.byte	0xc
 3353 02b0 5101     		.2byte	0x151
 3354 02b2 57010000 		.4byte	0x157
 3355 02b6 44       		.byte	0x44
 3356 02b7 0A       		.uleb128 0xa
 3357 02b8 80120000 		.4byte	.LASF56
 3358 02bc 0C       		.byte	0xc
 3359 02bd 5801     		.2byte	0x158
 3360 02bf BA030000 		.4byte	0x3ba
 3361 02c3 48       		.byte	0x48
 3362 02c4 0A       		.uleb128 0xa
 3363 02c5 99250000 		.4byte	.LASF57
 3364 02c9 0C       		.byte	0xc
 3365 02ca 5E01     		.2byte	0x15e
 3366 02cc FC120000 		.4byte	0x12fc
 3367 02d0 50       		.byte	0x50
 3368 02d1 00       		.byte	0
 3369 02d2 03       		.uleb128 0x3
 3370 02d3 2A230000 		.4byte	.LASF58
 3371 02d7 0B       		.byte	0xb
 3372 02d8 44       		.byte	0x44
 3373 02d9 DD020000 		.4byte	0x2dd
 3374 02dd 0B       		.uleb128 0xb
 3375 02de 04       		.byte	0x4
 3376 02df A9010000 		.4byte	0x1a9
 3377 02e3 03       		.uleb128 0x3
 3378 02e4 EB050000 		.4byte	.LASF59
 3379 02e8 0B       		.byte	0xb
 3380 02e9 49       		.byte	0x49
 3381 02ea EE020000 		.4byte	0x2ee
 3382 02ee 07       		.uleb128 0x7
 3383 02ef 6A250000 		.4byte	.LASF61
 3384 02f3 04       		.byte	0x4
 3385 02f4 0C       		.byte	0xc
 3386 02f5 B0       		.byte	0xb0
 3387 02f6 07030000 		.4byte	0x307
 3388 02fa 08       		.uleb128 0x8
 3389 02fb ED110000 		.4byte	.LASF37
 3390 02ff 0C       		.byte	0xc
 3391 0300 B1       		.byte	0xb1
 3392 0301 DD020000 		.4byte	0x2dd
 3393 0305 00       		.byte	0
 3394 0306 00       		.byte	0
 3395 0307 03       		.uleb128 0x3
 3396 0308 75170000 		.4byte	.LASF62
 3397 030c 0B       		.byte	0xb
 3398 030d 50       		.byte	0x50
 3399 030e 12030000 		.4byte	0x312
 3400 0312 07       		.uleb128 0x7
 3401 0313 EB020000 		.4byte	.LASF63
 3402 0317 08       		.byte	0x8
 3403 0318 0C       		.byte	0xc
 3404 0319 B7       		.byte	0xb7
 3405 031a 37030000 		.4byte	0x337
ARM GAS  C:\Users\PCHAUT~1\AppData\Local\Temp\ccR4smAG.s 			page 61


 3406 031e 08       		.uleb128 0x8
 3407 031f ED110000 		.4byte	.LASF37
 3408 0323 0C       		.byte	0xc
 3409 0324 B8       		.byte	0xb8
 3410 0325 DD020000 		.4byte	0x2dd
 3411 0329 00       		.byte	0
 3412 032a 08       		.uleb128 0x8
 3413 032b 5A0E0000 		.4byte	.LASF38
 3414 032f 0C       		.byte	0xc
 3415 0330 B9       		.byte	0xb9
 3416 0331 DD020000 		.4byte	0x2dd
 3417 0335 04       		.byte	0x4
 3418 0336 00       		.byte	0
 3419 0337 03       		.uleb128 0x3
 3420 0338 D40A0000 		.4byte	.LASF64
 3421 033c 0B       		.byte	0xb
 3422 033d 57       		.byte	0x57
 3423 033e 42030000 		.4byte	0x342
 3424 0342 0C       		.uleb128 0xc
 3425 0343 771D0000 		.4byte	.LASF65
 3426 0347 1C       		.byte	0x1c
 3427 0348 0C       		.byte	0xc
 3428 0349 9001     		.2byte	0x190
 3429 034b 9E030000 		.4byte	0x39e
 3430 034f 0A       		.uleb128 0xa
 3431 0350 4D1A0000 		.4byte	.LASF66
 3432 0354 0C       		.byte	0xc
 3433 0355 9101     		.2byte	0x191
 3434 0357 07030000 		.4byte	0x307
 3435 035b 00       		.byte	0
 3436 035c 0A       		.uleb128 0xa
 3437 035d 551F0000 		.4byte	.LASF67
 3438 0361 0C       		.byte	0xc
 3439 0362 9201     		.2byte	0x192
 3440 0364 57010000 		.4byte	0x157
 3441 0368 08       		.byte	0x8
 3442 0369 0A       		.uleb128 0xa
 3443 036a 890D0000 		.4byte	.LASF68
 3444 036e 0C       		.byte	0xc
 3445 036f 9401     		.2byte	0x194
 3446 0371 A6100000 		.4byte	0x10a6
 3447 0375 0C       		.byte	0xc
 3448 0376 0A       		.uleb128 0xa
 3449 0377 BD130000 		.4byte	.LASF69
 3450 037b 0C       		.byte	0xc
 3451 037c 9701     		.2byte	0x197
 3452 037e DD020000 		.4byte	0x2dd
 3453 0382 10       		.byte	0x10
 3454 0383 0A       		.uleb128 0xa
 3455 0384 4A0E0000 		.4byte	.LASF70
 3456 0388 0C       		.byte	0xc
 3457 0389 9801     		.2byte	0x198
 3458 038b DD020000 		.4byte	0x2dd
 3459 038f 14       		.byte	0x14
 3460 0390 0A       		.uleb128 0xa
 3461 0391 B20B0000 		.4byte	.LASF71
 3462 0395 0C       		.byte	0xc
ARM GAS  C:\Users\PCHAUT~1\AppData\Local\Temp\ccR4smAG.s 			page 62


 3463 0396 9B01     		.2byte	0x19b
 3464 0398 DD020000 		.4byte	0x2dd
 3465 039c 18       		.byte	0x18
 3466 039d 00       		.byte	0
 3467 039e 03       		.uleb128 0x3
 3468 039f 941C0000 		.4byte	.LASF72
 3469 03a3 0B       		.byte	0xb
 3470 03a4 5C       		.byte	0x5c
 3471 03a5 A9030000 		.4byte	0x3a9
 3472 03a9 0B       		.uleb128 0xb
 3473 03aa 04       		.byte	0x4
 3474 03ab AF030000 		.4byte	0x3af
 3475 03af 0D       		.uleb128 0xd
 3476 03b0 BA030000 		.4byte	0x3ba
 3477 03b4 0E       		.uleb128 0xe
 3478 03b5 BA030000 		.4byte	0x3ba
 3479 03b9 00       		.byte	0
 3480 03ba 0F       		.uleb128 0xf
 3481 03bb 04       		.byte	0x4
 3482 03bc 03       		.uleb128 0x3
 3483 03bd 6D0D0000 		.4byte	.LASF73
 3484 03c1 0B       		.byte	0xb
 3485 03c2 61       		.byte	0x61
 3486 03c3 C7030000 		.4byte	0x3c7
 3487 03c7 0C       		.uleb128 0xc
 3488 03c8 18200000 		.4byte	.LASF74
 3489 03cc 14       		.byte	0x14
 3490 03cd 0C       		.byte	0xc
 3491 03ce 6B01     		.2byte	0x16b
 3492 03d0 16040000 		.4byte	0x416
 3493 03d4 0A       		.uleb128 0xa
 3494 03d5 8F0D0000 		.4byte	.LASF75
 3495 03d9 0C       		.byte	0xc
 3496 03da 6C01     		.2byte	0x16c
 3497 03dc 39140000 		.4byte	0x1439
 3498 03e0 00       		.byte	0
 3499 03e1 0A       		.uleb128 0xa
 3500 03e2 890A0000 		.4byte	.LASF76
 3501 03e6 0C       		.byte	0xc
 3502 03e7 6D01     		.2byte	0x16d
 3503 03e9 39140000 		.4byte	0x1439
 3504 03ed 04       		.byte	0x4
 3505 03ee 0A       		.uleb128 0xa
 3506 03ef 94140000 		.4byte	.LASF77
 3507 03f3 0C       		.byte	0xc
 3508 03f4 6E01     		.2byte	0x16e
 3509 03f6 99010000 		.4byte	0x199
 3510 03fa 08       		.byte	0x8
 3511 03fb 0A       		.uleb128 0xa
 3512 03fc 03200000 		.4byte	.LASF78
 3513 0400 0C       		.byte	0xc
 3514 0401 6F01     		.2byte	0x16f
 3515 0403 9E030000 		.4byte	0x39e
 3516 0407 0C       		.byte	0xc
 3517 0408 0A       		.uleb128 0xa
 3518 0409 8E0B0000 		.4byte	.LASF79
 3519 040d 0C       		.byte	0xc
ARM GAS  C:\Users\PCHAUT~1\AppData\Local\Temp\ccR4smAG.s 			page 63


 3520 040e 7101     		.2byte	0x171
 3521 0410 BA030000 		.4byte	0x3ba
 3522 0414 10       		.byte	0x10
 3523 0415 00       		.byte	0
 3524 0416 03       		.uleb128 0x3
 3525 0417 17210000 		.4byte	.LASF80
 3526 041b 0B       		.byte	0xb
 3527 041c 66       		.byte	0x66
 3528 041d 21040000 		.4byte	0x421
 3529 0421 0C       		.uleb128 0xc
 3530 0422 C4030000 		.4byte	.LASF81
 3531 0426 10       		.byte	0x10
 3532 0427 0C       		.byte	0xc
 3533 0428 7B01     		.2byte	0x17b
 3534 042a 63040000 		.4byte	0x463
 3535 042e 0A       		.uleb128 0xa
 3536 042f 8F0D0000 		.4byte	.LASF75
 3537 0433 0C       		.byte	0xc
 3538 0434 7C01     		.2byte	0x17c
 3539 0436 39140000 		.4byte	0x1439
 3540 043a 00       		.byte	0
 3541 043b 0A       		.uleb128 0xa
 3542 043c 890A0000 		.4byte	.LASF76
 3543 0440 0C       		.byte	0xc
 3544 0441 7E01     		.2byte	0x17e
 3545 0443 39140000 		.4byte	0x1439
 3546 0447 04       		.byte	0x4
 3547 0448 0A       		.uleb128 0xa
 3548 0449 94140000 		.4byte	.LASF77
 3549 044d 0C       		.byte	0xc
 3550 044e 8001     		.2byte	0x180
 3551 0450 99010000 		.4byte	0x199
 3552 0454 08       		.byte	0x8
 3553 0455 0A       		.uleb128 0xa
 3554 0456 DE010000 		.4byte	.LASF82
 3555 045a 0C       		.byte	0xc
 3556 045b 8201     		.2byte	0x182
 3557 045d A4010000 		.4byte	0x1a4
 3558 0461 0C       		.byte	0xc
 3559 0462 00       		.byte	0
 3560 0463 03       		.uleb128 0x3
 3561 0464 5C0B0000 		.4byte	.LASF83
 3562 0468 0B       		.byte	0xb
 3563 0469 6B       		.byte	0x6b
 3564 046a 6E040000 		.4byte	0x46e
 3565 046e 10       		.uleb128 0x10
 3566 046f A01D0000 		.4byte	.LASF84
 3567 0473 1404     		.2byte	0x414
 3568 0475 0C       		.byte	0xc
 3569 0476 A201     		.2byte	0x1a2
 3570 0478 B1040000 		.4byte	0x4b1
 3571 047c 0A       		.uleb128 0xa
 3572 047d 9F130000 		.4byte	.LASF85
 3573 0481 0C       		.byte	0xc
 3574 0482 AA01     		.2byte	0x1aa
 3575 0484 22140000 		.4byte	0x1422
 3576 0488 00       		.byte	0
ARM GAS  C:\Users\PCHAUT~1\AppData\Local\Temp\ccR4smAG.s 			page 64


 3577 0489 0A       		.uleb128 0xa
 3578 048a 74130000 		.4byte	.LASF86
 3579 048e 0C       		.byte	0xc
 3580 048f AF01     		.2byte	0x1af
 3581 0491 83010000 		.4byte	0x183
 3582 0495 04       		.byte	0x4
 3583 0496 0A       		.uleb128 0xa
 3584 0497 E2020000 		.4byte	.LASF87
 3585 049b 0C       		.byte	0xc
 3586 049c B301     		.2byte	0x1b3
 3587 049e 83010000 		.4byte	0x183
 3588 04a2 08       		.byte	0x8
 3589 04a3 0A       		.uleb128 0xa
 3590 04a4 CB160000 		.4byte	.LASF88
 3591 04a8 0C       		.byte	0xc
 3592 04a9 B901     		.2byte	0x1b9
 3593 04ab 8E120000 		.4byte	0x128e
 3594 04af 0C       		.byte	0xc
 3595 04b0 00       		.byte	0
 3596 04b1 03       		.uleb128 0x3
 3597 04b2 38010000 		.4byte	.LASF89
 3598 04b6 0B       		.byte	0xb
 3599 04b7 70       		.byte	0x70
 3600 04b8 BC040000 		.4byte	0x4bc
 3601 04bc 10       		.uleb128 0x10
 3602 04bd B0160000 		.4byte	.LASF90
 3603 04c1 7006     		.2byte	0x670
 3604 04c3 0C       		.byte	0xc
 3605 04c4 C201     		.2byte	0x1c2
 3606 04c6 29050000 		.4byte	0x529
 3607 04ca 0A       		.uleb128 0xa
 3608 04cb E5050000 		.4byte	.LASF91
 3609 04cf 0C       		.byte	0xc
 3610 04d0 C601     		.2byte	0x1c6
 3611 04d2 37030000 		.4byte	0x337
 3612 04d6 00       		.byte	0
 3613 04d7 0A       		.uleb128 0xa
 3614 04d8 8E050000 		.4byte	.LASF92
 3615 04dc 0C       		.byte	0xc
 3616 04dd CA01     		.2byte	0x1ca
 3617 04df 16040000 		.4byte	0x416
 3618 04e3 1C       		.byte	0x1c
 3619 04e4 09       		.uleb128 0x9
 3620 04e5 64626700 		.ascii	"dbg\000"
 3621 04e9 0C       		.byte	0xc
 3622 04ea CE01     		.2byte	0x1ce
 3623 04ec 63040000 		.4byte	0x463
 3624 04f0 2C       		.byte	0x2c
 3625 04f1 11       		.uleb128 0x11
 3626 04f2 E9170000 		.4byte	.LASF93
 3627 04f6 0C       		.byte	0xc
 3628 04f7 D201     		.2byte	0x1d2
 3629 04f9 A9010000 		.4byte	0x1a9
 3630 04fd 4004     		.2byte	0x440
 3631 04ff 12       		.uleb128 0x12
 3632 0500 746D00   		.ascii	"tm\000"
 3633 0503 0C       		.byte	0xc
ARM GAS  C:\Users\PCHAUT~1\AppData\Local\Temp\ccR4smAG.s 			page 65


 3634 0504 D701     		.2byte	0x1d7
 3635 0506 AE120000 		.4byte	0x12ae
 3636 050a A804     		.2byte	0x4a8
 3637 050c 11       		.uleb128 0x11
 3638 050d 1C0E0000 		.4byte	.LASF94
 3639 0511 0C       		.byte	0xc
 3640 0512 DD01     		.2byte	0x1dd
 3641 0514 40130000 		.4byte	0x1340
 3642 0518 B004     		.2byte	0x4b0
 3643 051a 11       		.uleb128 0x11
 3644 051b E01F0000 		.4byte	.LASF95
 3645 051f 0C       		.byte	0xc
 3646 0520 E301     		.2byte	0x1e3
 3647 0522 3F140000 		.4byte	0x143f
 3648 0526 E804     		.2byte	0x4e8
 3649 0528 00       		.byte	0
 3650 0529 13       		.uleb128 0x13
 3651 052a 05       		.byte	0x5
 3652 052b 01       		.byte	0x1
 3653 052c 4C000000 		.4byte	0x4c
 3654 0530 0F       		.byte	0xf
 3655 0531 56       		.byte	0x56
 3656 0532 4D070000 		.4byte	0x74d
 3657 0536 14       		.uleb128 0x14
 3658 0537 4A1E0000 		.4byte	.LASF96
 3659 053b 72       		.sleb128 -14
 3660 053c 14       		.uleb128 0x14
 3661 053d 9D140000 		.4byte	.LASF97
 3662 0541 74       		.sleb128 -12
 3663 0542 14       		.uleb128 0x14
 3664 0543 8B250000 		.4byte	.LASF98
 3665 0547 75       		.sleb128 -11
 3666 0548 14       		.uleb128 0x14
 3667 0549 B3120000 		.4byte	.LASF99
 3668 054d 76       		.sleb128 -10
 3669 054e 14       		.uleb128 0x14
 3670 054f 4C050000 		.4byte	.LASF100
 3671 0553 7B       		.sleb128 -5
 3672 0554 14       		.uleb128 0x14
 3673 0555 55010000 		.4byte	.LASF101
 3674 0559 7C       		.sleb128 -4
 3675 055a 14       		.uleb128 0x14
 3676 055b 6B210000 		.4byte	.LASF102
 3677 055f 7E       		.sleb128 -2
 3678 0560 14       		.uleb128 0x14
 3679 0561 CC1D0000 		.4byte	.LASF103
 3680 0565 7F       		.sleb128 -1
 3681 0566 15       		.uleb128 0x15
 3682 0567 69060000 		.4byte	.LASF104
 3683 056b 00       		.byte	0
 3684 056c 15       		.uleb128 0x15
 3685 056d 8F230000 		.4byte	.LASF105
 3686 0571 01       		.byte	0x1
 3687 0572 15       		.uleb128 0x15
 3688 0573 DF0B0000 		.4byte	.LASF106
 3689 0577 02       		.byte	0x2
 3690 0578 15       		.uleb128 0x15
ARM GAS  C:\Users\PCHAUT~1\AppData\Local\Temp\ccR4smAG.s 			page 66


 3691 0579 100F0000 		.4byte	.LASF107
 3692 057d 03       		.byte	0x3
 3693 057e 15       		.uleb128 0x15
 3694 057f DD0F0000 		.4byte	.LASF108
 3695 0583 04       		.byte	0x4
 3696 0584 15       		.uleb128 0x15
 3697 0585 5B030000 		.4byte	.LASF109
 3698 0589 05       		.byte	0x5
 3699 058a 15       		.uleb128 0x15
 3700 058b A70B0000 		.4byte	.LASF110
 3701 058f 06       		.byte	0x6
 3702 0590 15       		.uleb128 0x15
 3703 0591 220B0000 		.4byte	.LASF111
 3704 0595 07       		.byte	0x7
 3705 0596 15       		.uleb128 0x15
 3706 0597 5F0A0000 		.4byte	.LASF112
 3707 059b 08       		.byte	0x8
 3708 059c 15       		.uleb128 0x15
 3709 059d 8B190000 		.4byte	.LASF113
 3710 05a1 09       		.byte	0x9
 3711 05a2 15       		.uleb128 0x15
 3712 05a3 0D190000 		.4byte	.LASF114
 3713 05a7 0A       		.byte	0xa
 3714 05a8 15       		.uleb128 0x15
 3715 05a9 2B130000 		.4byte	.LASF115
 3716 05ad 0B       		.byte	0xb
 3717 05ae 15       		.uleb128 0x15
 3718 05af 501D0000 		.4byte	.LASF116
 3719 05b3 0C       		.byte	0xc
 3720 05b4 15       		.uleb128 0x15
 3721 05b5 011D0000 		.4byte	.LASF117
 3722 05b9 0D       		.byte	0xd
 3723 05ba 15       		.uleb128 0x15
 3724 05bb 5C1C0000 		.4byte	.LASF118
 3725 05bf 0E       		.byte	0xe
 3726 05c0 15       		.uleb128 0x15
 3727 05c1 A0060000 		.4byte	.LASF119
 3728 05c5 0F       		.byte	0xf
 3729 05c6 15       		.uleb128 0x15
 3730 05c7 BD050000 		.4byte	.LASF120
 3731 05cb 10       		.byte	0x10
 3732 05cc 15       		.uleb128 0x15
 3733 05cd 3A050000 		.4byte	.LASF121
 3734 05d1 11       		.byte	0x11
 3735 05d2 15       		.uleb128 0x15
 3736 05d3 22020000 		.4byte	.LASF122
 3737 05d7 12       		.byte	0x12
 3738 05d8 15       		.uleb128 0x15
 3739 05d9 30120000 		.4byte	.LASF123
 3740 05dd 13       		.byte	0x13
 3741 05de 15       		.uleb128 0x15
 3742 05df 300F0000 		.4byte	.LASF124
 3743 05e3 14       		.byte	0x14
 3744 05e4 15       		.uleb128 0x15
 3745 05e5 870E0000 		.4byte	.LASF125
 3746 05e9 15       		.byte	0x15
 3747 05ea 15       		.uleb128 0x15
ARM GAS  C:\Users\PCHAUT~1\AppData\Local\Temp\ccR4smAG.s 			page 67


 3748 05eb 361E0000 		.4byte	.LASF126
 3749 05ef 16       		.byte	0x16
 3750 05f0 15       		.uleb128 0x15
 3751 05f1 C70E0000 		.4byte	.LASF127
 3752 05f5 17       		.byte	0x17
 3753 05f6 15       		.uleb128 0x15
 3754 05f7 DF130000 		.4byte	.LASF128
 3755 05fb 18       		.byte	0x18
 3756 05fc 15       		.uleb128 0x15
 3757 05fd 1A1F0000 		.4byte	.LASF129
 3758 0601 19       		.byte	0x19
 3759 0602 15       		.uleb128 0x15
 3760 0603 3A210000 		.4byte	.LASF130
 3761 0607 1A       		.byte	0x1a
 3762 0608 15       		.uleb128 0x15
 3763 0609 57180000 		.4byte	.LASF131
 3764 060d 1B       		.byte	0x1b
 3765 060e 15       		.uleb128 0x15
 3766 060f 52000000 		.4byte	.LASF132
 3767 0613 1C       		.byte	0x1c
 3768 0614 15       		.uleb128 0x15
 3769 0615 19250000 		.4byte	.LASF133
 3770 0619 1D       		.byte	0x1d
 3771 061a 15       		.uleb128 0x15
 3772 061b 65240000 		.4byte	.LASF134
 3773 061f 1E       		.byte	0x1e
 3774 0620 15       		.uleb128 0x15
 3775 0621 EF1A0000 		.4byte	.LASF135
 3776 0625 1F       		.byte	0x1f
 3777 0626 15       		.uleb128 0x15
 3778 0627 2D210000 		.4byte	.LASF136
 3779 062b 20       		.byte	0x20
 3780 062c 15       		.uleb128 0x15
 3781 062d 0A1B0000 		.4byte	.LASF137
 3782 0631 21       		.byte	0x21
 3783 0632 15       		.uleb128 0x15
 3784 0633 80210000 		.4byte	.LASF138
 3785 0637 22       		.byte	0x22
 3786 0638 15       		.uleb128 0x15
 3787 0639 630D0000 		.4byte	.LASF139
 3788 063d 23       		.byte	0x23
 3789 063e 15       		.uleb128 0x15
 3790 063f DB0C0000 		.4byte	.LASF140
 3791 0643 24       		.byte	0x24
 3792 0644 15       		.uleb128 0x15
 3793 0645 171B0000 		.4byte	.LASF141
 3794 0649 25       		.byte	0x25
 3795 064a 15       		.uleb128 0x15
 3796 064b B61A0000 		.4byte	.LASF142
 3797 064f 26       		.byte	0x26
 3798 0650 15       		.uleb128 0x15
 3799 0651 301A0000 		.4byte	.LASF143
 3800 0655 27       		.byte	0x27
 3801 0656 15       		.uleb128 0x15
 3802 0657 61160000 		.4byte	.LASF144
 3803 065b 28       		.byte	0x28
 3804 065c 15       		.uleb128 0x15
ARM GAS  C:\Users\PCHAUT~1\AppData\Local\Temp\ccR4smAG.s 			page 68


 3805 065d 70040000 		.4byte	.LASF145
 3806 0661 29       		.byte	0x29
 3807 0662 15       		.uleb128 0x15
 3808 0663 3D130000 		.4byte	.LASF146
 3809 0667 2A       		.byte	0x2a
 3810 0668 15       		.uleb128 0x15
 3811 0669 18010000 		.4byte	.LASF147
 3812 066d 2B       		.byte	0x2b
 3813 066e 15       		.uleb128 0x15
 3814 066f EE220000 		.4byte	.LASF148
 3815 0673 2C       		.byte	0x2c
 3816 0674 15       		.uleb128 0x15
 3817 0675 51170000 		.4byte	.LASF149
 3818 0679 2D       		.byte	0x2d
 3819 067a 15       		.uleb128 0x15
 3820 067b F5060000 		.4byte	.LASF150
 3821 067f 2E       		.byte	0x2e
 3822 0680 15       		.uleb128 0x15
 3823 0681 2F160000 		.4byte	.LASF151
 3824 0685 2F       		.byte	0x2f
 3825 0686 15       		.uleb128 0x15
 3826 0687 4C160000 		.4byte	.LASF152
 3827 068b 30       		.byte	0x30
 3828 068c 15       		.uleb128 0x15
 3829 068d 20040000 		.4byte	.LASF153
 3830 0691 31       		.byte	0x31
 3831 0692 15       		.uleb128 0x15
 3832 0693 28100000 		.4byte	.LASF154
 3833 0697 32       		.byte	0x32
 3834 0698 15       		.uleb128 0x15
 3835 0699 D21B0000 		.4byte	.LASF155
 3836 069d 33       		.byte	0x33
 3837 069e 15       		.uleb128 0x15
 3838 069f 18190000 		.4byte	.LASF156
 3839 06a3 34       		.byte	0x34
 3840 06a4 15       		.uleb128 0x15
 3841 06a5 421C0000 		.4byte	.LASF157
 3842 06a9 35       		.byte	0x35
 3843 06aa 15       		.uleb128 0x15
 3844 06ab D9150000 		.4byte	.LASF158
 3845 06af 36       		.byte	0x36
 3846 06b0 15       		.uleb128 0x15
 3847 06b1 FB0E0000 		.4byte	.LASF159
 3848 06b5 37       		.byte	0x37
 3849 06b6 15       		.uleb128 0x15
 3850 06b7 54190000 		.4byte	.LASF160
 3851 06bb 38       		.byte	0x38
 3852 06bc 15       		.uleb128 0x15
 3853 06bd DF180000 		.4byte	.LASF161
 3854 06c1 39       		.byte	0x39
 3855 06c2 15       		.uleb128 0x15
 3856 06c3 75020000 		.4byte	.LASF162
 3857 06c7 3A       		.byte	0x3a
 3858 06c8 15       		.uleb128 0x15
 3859 06c9 FD010000 		.4byte	.LASF163
 3860 06cd 3B       		.byte	0x3b
 3861 06ce 15       		.uleb128 0x15
ARM GAS  C:\Users\PCHAUT~1\AppData\Local\Temp\ccR4smAG.s 			page 69


 3862 06cf 86010000 		.4byte	.LASF164
 3863 06d3 3C       		.byte	0x3c
 3864 06d4 15       		.uleb128 0x15
 3865 06d5 B91D0000 		.4byte	.LASF165
 3866 06d9 3D       		.byte	0x3d
 3867 06da 15       		.uleb128 0x15
 3868 06db 01010000 		.4byte	.LASF166
 3869 06df 3E       		.byte	0x3e
 3870 06e0 15       		.uleb128 0x15
 3871 06e1 49120000 		.4byte	.LASF167
 3872 06e5 3F       		.byte	0x3f
 3873 06e6 15       		.uleb128 0x15
 3874 06e7 A7150000 		.4byte	.LASF168
 3875 06eb 40       		.byte	0x40
 3876 06ec 15       		.uleb128 0x15
 3877 06ed 18150000 		.4byte	.LASF169
 3878 06f1 41       		.byte	0x41
 3879 06f2 15       		.uleb128 0x15
 3880 06f3 BF240000 		.4byte	.LASF170
 3881 06f7 42       		.byte	0x42
 3882 06f8 15       		.uleb128 0x15
 3883 06f9 5C000000 		.4byte	.LASF171
 3884 06fd 43       		.byte	0x43
 3885 06fe 15       		.uleb128 0x15
 3886 06ff 5F120000 		.4byte	.LASF172
 3887 0703 44       		.byte	0x44
 3888 0704 15       		.uleb128 0x15
 3889 0705 8B110000 		.4byte	.LASF173
 3890 0709 45       		.byte	0x45
 3891 070a 15       		.uleb128 0x15
 3892 070b 32110000 		.4byte	.LASF174
 3893 070f 46       		.byte	0x46
 3894 0710 15       		.uleb128 0x15
 3895 0711 B5020000 		.4byte	.LASF175
 3896 0715 47       		.byte	0x47
 3897 0716 15       		.uleb128 0x15
 3898 0717 231B0000 		.4byte	.LASF176
 3899 071b 48       		.byte	0x48
 3900 071c 15       		.uleb128 0x15
 3901 071d 9B210000 		.4byte	.LASF177
 3902 0721 49       		.byte	0x49
 3903 0722 15       		.uleb128 0x15
 3904 0723 941B0000 		.4byte	.LASF178
 3905 0727 4A       		.byte	0x4a
 3906 0728 15       		.uleb128 0x15
 3907 0729 FD0A0000 		.4byte	.LASF179
 3908 072d 4B       		.byte	0x4b
 3909 072e 15       		.uleb128 0x15
 3910 072f 98010000 		.4byte	.LASF180
 3911 0733 4C       		.byte	0x4c
 3912 0734 15       		.uleb128 0x15
 3913 0735 4B110000 		.4byte	.LASF181
 3914 0739 4D       		.byte	0x4d
 3915 073a 15       		.uleb128 0x15
 3916 073b 37040000 		.4byte	.LASF182
 3917 073f 4E       		.byte	0x4e
 3918 0740 15       		.uleb128 0x15
ARM GAS  C:\Users\PCHAUT~1\AppData\Local\Temp\ccR4smAG.s 			page 70


 3919 0741 D01A0000 		.4byte	.LASF183
 3920 0745 50       		.byte	0x50
 3921 0746 15       		.uleb128 0x15
 3922 0747 5D140000 		.4byte	.LASF184
 3923 074b 51       		.byte	0x51
 3924 074c 00       		.byte	0
 3925 074d 16       		.uleb128 0x16
 3926 074e F5000000 		.4byte	0xf5
 3927 0752 5D070000 		.4byte	0x75d
 3928 0756 17       		.uleb128 0x17
 3929 0757 37000000 		.4byte	0x37
 3930 075b 01       		.byte	0x1
 3931 075c 00       		.byte	0
 3932 075d 16       		.uleb128 0x16
 3933 075e F5000000 		.4byte	0xf5
 3934 0762 6D070000 		.4byte	0x76d
 3935 0766 17       		.uleb128 0x17
 3936 0767 37000000 		.4byte	0x37
 3937 076b 07       		.byte	0x7
 3938 076c 00       		.byte	0
 3939 076d 18       		.uleb128 0x18
 3940 076e 6D1F0000 		.4byte	.LASF185
 3941 0772 0D       		.byte	0xd
 3942 0773 A706     		.2byte	0x6a7
 3943 0775 F0000000 		.4byte	0xf0
 3944 0779 19       		.uleb128 0x19
 3945 077a F9150000 		.4byte	.LASF186
 3946 077e 0E       		.byte	0xe
 3947 077f 4C       		.byte	0x4c
 3948 0780 F5000000 		.4byte	0xf5
 3949 0784 1A       		.uleb128 0x1a
 3950 0785 50       		.byte	0x50
 3951 0786 0F       		.byte	0xf
 3952 0787 C4       		.byte	0xc4
 3953 0788 7B080000 		.4byte	0x87b
 3954 078c 1B       		.uleb128 0x1b
 3955 078d 535200   		.ascii	"SR\000"
 3956 0790 0F       		.byte	0xf
 3957 0791 C6       		.byte	0xc6
 3958 0792 00010000 		.4byte	0x100
 3959 0796 00       		.byte	0
 3960 0797 1B       		.uleb128 0x1b
 3961 0798 43523100 		.ascii	"CR1\000"
 3962 079c 0F       		.byte	0xf
 3963 079d C7       		.byte	0xc7
 3964 079e 00010000 		.4byte	0x100
 3965 07a2 04       		.byte	0x4
 3966 07a3 1B       		.uleb128 0x1b
 3967 07a4 43523200 		.ascii	"CR2\000"
 3968 07a8 0F       		.byte	0xf
 3969 07a9 C8       		.byte	0xc8
 3970 07aa 00010000 		.4byte	0x100
 3971 07ae 08       		.byte	0x8
 3972 07af 08       		.uleb128 0x8
 3973 07b0 0F030000 		.4byte	.LASF187
 3974 07b4 0F       		.byte	0xf
 3975 07b5 C9       		.byte	0xc9
ARM GAS  C:\Users\PCHAUT~1\AppData\Local\Temp\ccR4smAG.s 			page 71


 3976 07b6 00010000 		.4byte	0x100
 3977 07ba 0C       		.byte	0xc
 3978 07bb 08       		.uleb128 0x8
 3979 07bc 15030000 		.4byte	.LASF188
 3980 07c0 0F       		.byte	0xf
 3981 07c1 CA       		.byte	0xca
 3982 07c2 00010000 		.4byte	0x100
 3983 07c6 10       		.byte	0x10
 3984 07c7 08       		.uleb128 0x8
 3985 07c8 950B0000 		.4byte	.LASF189
 3986 07cc 0F       		.byte	0xf
 3987 07cd CB       		.byte	0xcb
 3988 07ce 00010000 		.4byte	0x100
 3989 07d2 14       		.byte	0x14
 3990 07d3 08       		.uleb128 0x8
 3991 07d4 9B0B0000 		.4byte	.LASF190
 3992 07d8 0F       		.byte	0xf
 3993 07d9 CC       		.byte	0xcc
 3994 07da 00010000 		.4byte	0x100
 3995 07de 18       		.byte	0x18
 3996 07df 08       		.uleb128 0x8
 3997 07e0 A10B0000 		.4byte	.LASF191
 3998 07e4 0F       		.byte	0xf
 3999 07e5 CD       		.byte	0xcd
 4000 07e6 00010000 		.4byte	0x100
 4001 07ea 1C       		.byte	0x1c
 4002 07eb 08       		.uleb128 0x8
 4003 07ec F7100000 		.4byte	.LASF192
 4004 07f0 0F       		.byte	0xf
 4005 07f1 CE       		.byte	0xce
 4006 07f2 00010000 		.4byte	0x100
 4007 07f6 20       		.byte	0x20
 4008 07f7 1B       		.uleb128 0x1b
 4009 07f8 48545200 		.ascii	"HTR\000"
 4010 07fc 0F       		.byte	0xf
 4011 07fd CF       		.byte	0xcf
 4012 07fe 00010000 		.4byte	0x100
 4013 0802 24       		.byte	0x24
 4014 0803 1B       		.uleb128 0x1b
 4015 0804 4C545200 		.ascii	"LTR\000"
 4016 0808 0F       		.byte	0xf
 4017 0809 D0       		.byte	0xd0
 4018 080a 00010000 		.4byte	0x100
 4019 080e 28       		.byte	0x28
 4020 080f 08       		.uleb128 0x8
 4021 0810 DE120000 		.4byte	.LASF193
 4022 0814 0F       		.byte	0xf
 4023 0815 D1       		.byte	0xd1
 4024 0816 00010000 		.4byte	0x100
 4025 081a 2C       		.byte	0x2c
 4026 081b 08       		.uleb128 0x8
 4027 081c E3120000 		.4byte	.LASF194
 4028 0820 0F       		.byte	0xf
 4029 0821 D2       		.byte	0xd2
 4030 0822 00010000 		.4byte	0x100
 4031 0826 30       		.byte	0x30
 4032 0827 08       		.uleb128 0x8
ARM GAS  C:\Users\PCHAUT~1\AppData\Local\Temp\ccR4smAG.s 			page 72


 4033 0828 E8120000 		.4byte	.LASF195
 4034 082c 0F       		.byte	0xf
 4035 082d D3       		.byte	0xd3
 4036 082e 00010000 		.4byte	0x100
 4037 0832 34       		.byte	0x34
 4038 0833 08       		.uleb128 0x8
 4039 0834 4C0D0000 		.4byte	.LASF196
 4040 0838 0F       		.byte	0xf
 4041 0839 D4       		.byte	0xd4
 4042 083a 00010000 		.4byte	0x100
 4043 083e 38       		.byte	0x38
 4044 083f 08       		.uleb128 0x8
 4045 0840 D9200000 		.4byte	.LASF197
 4046 0844 0F       		.byte	0xf
 4047 0845 D5       		.byte	0xd5
 4048 0846 00010000 		.4byte	0x100
 4049 084a 3C       		.byte	0x3c
 4050 084b 08       		.uleb128 0x8
 4051 084c DE200000 		.4byte	.LASF198
 4052 0850 0F       		.byte	0xf
 4053 0851 D6       		.byte	0xd6
 4054 0852 00010000 		.4byte	0x100
 4055 0856 40       		.byte	0x40
 4056 0857 08       		.uleb128 0x8
 4057 0858 E3200000 		.4byte	.LASF199
 4058 085c 0F       		.byte	0xf
 4059 085d D7       		.byte	0xd7
 4060 085e 00010000 		.4byte	0x100
 4061 0862 44       		.byte	0x44
 4062 0863 08       		.uleb128 0x8
 4063 0864 E8200000 		.4byte	.LASF200
 4064 0868 0F       		.byte	0xf
 4065 0869 D8       		.byte	0xd8
 4066 086a 00010000 		.4byte	0x100
 4067 086e 48       		.byte	0x48
 4068 086f 1B       		.uleb128 0x1b
 4069 0870 445200   		.ascii	"DR\000"
 4070 0873 0F       		.byte	0xf
 4071 0874 D9       		.byte	0xd9
 4072 0875 00010000 		.4byte	0x100
 4073 0879 4C       		.byte	0x4c
 4074 087a 00       		.byte	0
 4075 087b 03       		.uleb128 0x3
 4076 087c E5140000 		.4byte	.LASF201
 4077 0880 0F       		.byte	0xf
 4078 0881 DA       		.byte	0xda
 4079 0882 84070000 		.4byte	0x784
 4080 0886 1A       		.uleb128 0x1a
 4081 0887 10       		.byte	0x10
 4082 0888 0F       		.byte	0xf
 4083 0889 E9       		.byte	0xe9
 4084 088a BF080000 		.4byte	0x8bf
 4085 088e 1B       		.uleb128 0x1b
 4086 088f 54495200 		.ascii	"TIR\000"
 4087 0893 0F       		.byte	0xf
 4088 0894 EB       		.byte	0xeb
 4089 0895 00010000 		.4byte	0x100
ARM GAS  C:\Users\PCHAUT~1\AppData\Local\Temp\ccR4smAG.s 			page 73


 4090 0899 00       		.byte	0
 4091 089a 08       		.uleb128 0x8
 4092 089b B6100000 		.4byte	.LASF202
 4093 089f 0F       		.byte	0xf
 4094 08a0 EC       		.byte	0xec
 4095 08a1 00010000 		.4byte	0x100
 4096 08a5 04       		.byte	0x4
 4097 08a6 08       		.uleb128 0x8
 4098 08a7 DB170000 		.4byte	.LASF203
 4099 08ab 0F       		.byte	0xf
 4100 08ac ED       		.byte	0xed
 4101 08ad 00010000 		.4byte	0x100
 4102 08b1 08       		.byte	0x8
 4103 08b2 08       		.uleb128 0x8
 4104 08b3 37150000 		.4byte	.LASF204
 4105 08b7 0F       		.byte	0xf
 4106 08b8 EE       		.byte	0xee
 4107 08b9 00010000 		.4byte	0x100
 4108 08bd 0C       		.byte	0xc
 4109 08be 00       		.byte	0
 4110 08bf 03       		.uleb128 0x3
 4111 08c0 CF050000 		.4byte	.LASF205
 4112 08c4 0F       		.byte	0xf
 4113 08c5 EF       		.byte	0xef
 4114 08c6 86080000 		.4byte	0x886
 4115 08ca 1A       		.uleb128 0x1a
 4116 08cb 10       		.byte	0x10
 4117 08cc 0F       		.byte	0xf
 4118 08cd F5       		.byte	0xf5
 4119 08ce 03090000 		.4byte	0x903
 4120 08d2 1B       		.uleb128 0x1b
 4121 08d3 52495200 		.ascii	"RIR\000"
 4122 08d7 0F       		.byte	0xf
 4123 08d8 F7       		.byte	0xf7
 4124 08d9 00010000 		.4byte	0x100
 4125 08dd 00       		.byte	0
 4126 08de 08       		.uleb128 0x8
 4127 08df 431D0000 		.4byte	.LASF206
 4128 08e3 0F       		.byte	0xf
 4129 08e4 F8       		.byte	0xf8
 4130 08e5 00010000 		.4byte	0x100
 4131 08e9 04       		.byte	0x4
 4132 08ea 08       		.uleb128 0x8
 4133 08eb 08190000 		.4byte	.LASF207
 4134 08ef 0F       		.byte	0xf
 4135 08f0 F9       		.byte	0xf9
 4136 08f1 00010000 		.4byte	0x100
 4137 08f5 08       		.byte	0x8
 4138 08f6 08       		.uleb128 0x8
 4139 08f7 9D160000 		.4byte	.LASF208
 4140 08fb 0F       		.byte	0xf
 4141 08fc FA       		.byte	0xfa
 4142 08fd 00010000 		.4byte	0x100
 4143 0901 0C       		.byte	0xc
 4144 0902 00       		.byte	0
 4145 0903 03       		.uleb128 0x3
 4146 0904 9D1C0000 		.4byte	.LASF209
ARM GAS  C:\Users\PCHAUT~1\AppData\Local\Temp\ccR4smAG.s 			page 74


 4147 0908 0F       		.byte	0xf
 4148 0909 FB       		.byte	0xfb
 4149 090a CA080000 		.4byte	0x8ca
 4150 090e 1C       		.uleb128 0x1c
 4151 090f 08       		.byte	0x8
 4152 0910 0F       		.byte	0xf
 4153 0911 0101     		.2byte	0x101
 4154 0913 32090000 		.4byte	0x932
 4155 0917 09       		.uleb128 0x9
 4156 0918 46523100 		.ascii	"FR1\000"
 4157 091c 0F       		.byte	0xf
 4158 091d 0301     		.2byte	0x103
 4159 091f 00010000 		.4byte	0x100
 4160 0923 00       		.byte	0
 4161 0924 09       		.uleb128 0x9
 4162 0925 46523200 		.ascii	"FR2\000"
 4163 0929 0F       		.byte	0xf
 4164 092a 0401     		.2byte	0x104
 4165 092c 00010000 		.4byte	0x100
 4166 0930 04       		.byte	0x4
 4167 0931 00       		.byte	0
 4168 0932 1D       		.uleb128 0x1d
 4169 0933 BB100000 		.4byte	.LASF210
 4170 0937 0F       		.byte	0xf
 4171 0938 0501     		.2byte	0x105
 4172 093a 0E090000 		.4byte	0x90e
 4173 093e 1E       		.uleb128 0x1e
 4174 093f 2003     		.2byte	0x320
 4175 0941 0F       		.byte	0xf
 4176 0942 0B01     		.2byte	0x10b
 4177 0944 740A0000 		.4byte	0xa74
 4178 0948 09       		.uleb128 0x9
 4179 0949 4D435200 		.ascii	"MCR\000"
 4180 094d 0F       		.byte	0xf
 4181 094e 0D01     		.2byte	0x10d
 4182 0950 00010000 		.4byte	0x100
 4183 0954 00       		.byte	0
 4184 0955 09       		.uleb128 0x9
 4185 0956 4D535200 		.ascii	"MSR\000"
 4186 095a 0F       		.byte	0xf
 4187 095b 0E01     		.2byte	0x10e
 4188 095d 00010000 		.4byte	0x100
 4189 0961 04       		.byte	0x4
 4190 0962 09       		.uleb128 0x9
 4191 0963 54535200 		.ascii	"TSR\000"
 4192 0967 0F       		.byte	0xf
 4193 0968 0F01     		.2byte	0x10f
 4194 096a 00010000 		.4byte	0x100
 4195 096e 08       		.byte	0x8
 4196 096f 0A       		.uleb128 0xa
 4197 0970 480F0000 		.4byte	.LASF211
 4198 0974 0F       		.byte	0xf
 4199 0975 1001     		.2byte	0x110
 4200 0977 00010000 		.4byte	0x100
 4201 097b 0C       		.byte	0xc
 4202 097c 0A       		.uleb128 0xa
 4203 097d F90F0000 		.4byte	.LASF212
ARM GAS  C:\Users\PCHAUT~1\AppData\Local\Temp\ccR4smAG.s 			page 75


 4204 0981 0F       		.byte	0xf
 4205 0982 1101     		.2byte	0x111
 4206 0984 00010000 		.4byte	0x100
 4207 0988 10       		.byte	0x10
 4208 0989 09       		.uleb128 0x9
 4209 098a 49455200 		.ascii	"IER\000"
 4210 098e 0F       		.byte	0xf
 4211 098f 1201     		.2byte	0x112
 4212 0991 00010000 		.4byte	0x100
 4213 0995 14       		.byte	0x14
 4214 0996 09       		.uleb128 0x9
 4215 0997 45535200 		.ascii	"ESR\000"
 4216 099b 0F       		.byte	0xf
 4217 099c 1301     		.2byte	0x113
 4218 099e 00010000 		.4byte	0x100
 4219 09a2 18       		.byte	0x18
 4220 09a3 09       		.uleb128 0x9
 4221 09a4 42545200 		.ascii	"BTR\000"
 4222 09a8 0F       		.byte	0xf
 4223 09a9 1401     		.2byte	0x114
 4224 09ab 00010000 		.4byte	0x100
 4225 09af 1C       		.byte	0x1c
 4226 09b0 0A       		.uleb128 0xa
 4227 09b1 6B1E0000 		.4byte	.LASF213
 4228 09b5 0F       		.byte	0xf
 4229 09b6 1501     		.2byte	0x115
 4230 09b8 740A0000 		.4byte	0xa74
 4231 09bc 20       		.byte	0x20
 4232 09bd 11       		.uleb128 0x11
 4233 09be B6110000 		.4byte	.LASF214
 4234 09c2 0F       		.byte	0xf
 4235 09c3 1601     		.2byte	0x116
 4236 09c5 840A0000 		.4byte	0xa84
 4237 09c9 8001     		.2byte	0x180
 4238 09cb 11       		.uleb128 0x11
 4239 09cc 66220000 		.4byte	.LASF215
 4240 09d0 0F       		.byte	0xf
 4241 09d1 1701     		.2byte	0x117
 4242 09d3 940A0000 		.4byte	0xa94
 4243 09d7 B001     		.2byte	0x1b0
 4244 09d9 11       		.uleb128 0x11
 4245 09da 751E0000 		.4byte	.LASF216
 4246 09de 0F       		.byte	0xf
 4247 09df 1801     		.2byte	0x118
 4248 09e1 A40A0000 		.4byte	0xaa4
 4249 09e5 D001     		.2byte	0x1d0
 4250 09e7 12       		.uleb128 0x12
 4251 09e8 464D5200 		.ascii	"FMR\000"
 4252 09ec 0F       		.byte	0xf
 4253 09ed 1901     		.2byte	0x119
 4254 09ef 00010000 		.4byte	0x100
 4255 09f3 0002     		.2byte	0x200
 4256 09f5 11       		.uleb128 0x11
 4257 09f6 240C0000 		.4byte	.LASF217
 4258 09fa 0F       		.byte	0xf
 4259 09fb 1A01     		.2byte	0x11a
 4260 09fd 00010000 		.4byte	0x100
ARM GAS  C:\Users\PCHAUT~1\AppData\Local\Temp\ccR4smAG.s 			page 76


 4261 0a01 0402     		.2byte	0x204
 4262 0a03 11       		.uleb128 0x11
 4263 0a04 7F1E0000 		.4byte	.LASF218
 4264 0a08 0F       		.byte	0xf
 4265 0a09 1B01     		.2byte	0x11b
 4266 0a0b F5000000 		.4byte	0xf5
 4267 0a0f 0802     		.2byte	0x208
 4268 0a11 11       		.uleb128 0x11
 4269 0a12 5E200000 		.4byte	.LASF219
 4270 0a16 0F       		.byte	0xf
 4271 0a17 1C01     		.2byte	0x11c
 4272 0a19 00010000 		.4byte	0x100
 4273 0a1d 0C02     		.2byte	0x20c
 4274 0a1f 11       		.uleb128 0x11
 4275 0a20 891E0000 		.4byte	.LASF220
 4276 0a24 0F       		.byte	0xf
 4277 0a25 1D01     		.2byte	0x11d
 4278 0a27 F5000000 		.4byte	0xf5
 4279 0a2b 1002     		.2byte	0x210
 4280 0a2d 11       		.uleb128 0x11
 4281 0a2e 66190000 		.4byte	.LASF221
 4282 0a32 0F       		.byte	0xf
 4283 0a33 1E01     		.2byte	0x11e
 4284 0a35 00010000 		.4byte	0x100
 4285 0a39 1402     		.2byte	0x214
 4286 0a3b 11       		.uleb128 0x11
 4287 0a3c 931E0000 		.4byte	.LASF222
 4288 0a40 0F       		.byte	0xf
 4289 0a41 1F01     		.2byte	0x11f
 4290 0a43 F5000000 		.4byte	0xf5
 4291 0a47 1802     		.2byte	0x218
 4292 0a49 11       		.uleb128 0x11
 4293 0a4a 7F040000 		.4byte	.LASF223
 4294 0a4e 0F       		.byte	0xf
 4295 0a4f 2001     		.2byte	0x120
 4296 0a51 00010000 		.4byte	0x100
 4297 0a55 1C02     		.2byte	0x21c
 4298 0a57 11       		.uleb128 0x11
 4299 0a58 9D1E0000 		.4byte	.LASF224
 4300 0a5c 0F       		.byte	0xf
 4301 0a5d 2101     		.2byte	0x121
 4302 0a5f 5D070000 		.4byte	0x75d
 4303 0a63 2002     		.2byte	0x220
 4304 0a65 11       		.uleb128 0x11
 4305 0a66 73060000 		.4byte	.LASF225
 4306 0a6a 0F       		.byte	0xf
 4307 0a6b 2201     		.2byte	0x122
 4308 0a6d B40A0000 		.4byte	0xab4
 4309 0a71 4002     		.2byte	0x240
 4310 0a73 00       		.byte	0
 4311 0a74 16       		.uleb128 0x16
 4312 0a75 F5000000 		.4byte	0xf5
 4313 0a79 840A0000 		.4byte	0xa84
 4314 0a7d 17       		.uleb128 0x17
 4315 0a7e 37000000 		.4byte	0x37
 4316 0a82 57       		.byte	0x57
 4317 0a83 00       		.byte	0
ARM GAS  C:\Users\PCHAUT~1\AppData\Local\Temp\ccR4smAG.s 			page 77


 4318 0a84 16       		.uleb128 0x16
 4319 0a85 BF080000 		.4byte	0x8bf
 4320 0a89 940A0000 		.4byte	0xa94
 4321 0a8d 17       		.uleb128 0x17
 4322 0a8e 37000000 		.4byte	0x37
 4323 0a92 02       		.byte	0x2
 4324 0a93 00       		.byte	0
 4325 0a94 16       		.uleb128 0x16
 4326 0a95 03090000 		.4byte	0x903
 4327 0a99 A40A0000 		.4byte	0xaa4
 4328 0a9d 17       		.uleb128 0x17
 4329 0a9e 37000000 		.4byte	0x37
 4330 0aa2 01       		.byte	0x1
 4331 0aa3 00       		.byte	0
 4332 0aa4 16       		.uleb128 0x16
 4333 0aa5 F5000000 		.4byte	0xf5
 4334 0aa9 B40A0000 		.4byte	0xab4
 4335 0aad 17       		.uleb128 0x17
 4336 0aae 37000000 		.4byte	0x37
 4337 0ab2 0B       		.byte	0xb
 4338 0ab3 00       		.byte	0
 4339 0ab4 16       		.uleb128 0x16
 4340 0ab5 32090000 		.4byte	0x932
 4341 0ab9 C40A0000 		.4byte	0xac4
 4342 0abd 17       		.uleb128 0x17
 4343 0abe 37000000 		.4byte	0x37
 4344 0ac2 1B       		.byte	0x1b
 4345 0ac3 00       		.byte	0
 4346 0ac4 1D       		.uleb128 0x1d
 4347 0ac5 EB0D0000 		.4byte	.LASF226
 4348 0ac9 0F       		.byte	0xf
 4349 0aca 2301     		.2byte	0x123
 4350 0acc 3E090000 		.4byte	0x93e
 4351 0ad0 1C       		.uleb128 0x1c
 4352 0ad1 38       		.byte	0x38
 4353 0ad2 0F       		.byte	0xf
 4354 0ad3 3601     		.2byte	0x136
 4355 0ad5 8E0B0000 		.4byte	0xb8e
 4356 0ad9 09       		.uleb128 0x9
 4357 0ada 435200   		.ascii	"CR\000"
 4358 0add 0F       		.byte	0xf
 4359 0ade 3801     		.2byte	0x138
 4360 0ae0 00010000 		.4byte	0x100
 4361 0ae4 00       		.byte	0
 4362 0ae5 0A       		.uleb128 0xa
 4363 0ae6 75160000 		.4byte	.LASF227
 4364 0aea 0F       		.byte	0xf
 4365 0aeb 3901     		.2byte	0x139
 4366 0aed 00010000 		.4byte	0x100
 4367 0af1 04       		.byte	0x4
 4368 0af2 0A       		.uleb128 0xa
 4369 0af3 C31E0000 		.4byte	.LASF228
 4370 0af7 0F       		.byte	0xf
 4371 0af8 3A01     		.2byte	0x13a
 4372 0afa 00010000 		.4byte	0x100
 4373 0afe 08       		.byte	0x8
 4374 0aff 0A       		.uleb128 0xa
ARM GAS  C:\Users\PCHAUT~1\AppData\Local\Temp\ccR4smAG.s 			page 78


 4375 0b00 561B0000 		.4byte	.LASF229
 4376 0b04 0F       		.byte	0xf
 4377 0b05 3B01     		.2byte	0x13b
 4378 0b07 00010000 		.4byte	0x100
 4379 0b0b 0C       		.byte	0xc
 4380 0b0c 0A       		.uleb128 0xa
 4381 0b0d 6B0B0000 		.4byte	.LASF230
 4382 0b11 0F       		.byte	0xf
 4383 0b12 3C01     		.2byte	0x13c
 4384 0b14 00010000 		.4byte	0x100
 4385 0b18 10       		.byte	0x10
 4386 0b19 0A       		.uleb128 0xa
 4387 0b1a CB1E0000 		.4byte	.LASF231
 4388 0b1e 0F       		.byte	0xf
 4389 0b1f 3D01     		.2byte	0x13d
 4390 0b21 00010000 		.4byte	0x100
 4391 0b25 14       		.byte	0x14
 4392 0b26 0A       		.uleb128 0xa
 4393 0b27 5E1B0000 		.4byte	.LASF232
 4394 0b2b 0F       		.byte	0xf
 4395 0b2c 3E01     		.2byte	0x13e
 4396 0b2e 00010000 		.4byte	0x100
 4397 0b32 18       		.byte	0x18
 4398 0b33 0A       		.uleb128 0xa
 4399 0b34 720B0000 		.4byte	.LASF233
 4400 0b38 0F       		.byte	0xf
 4401 0b39 3F01     		.2byte	0x13f
 4402 0b3b 00010000 		.4byte	0x100
 4403 0b3f 1C       		.byte	0x1c
 4404 0b40 0A       		.uleb128 0xa
 4405 0b41 121F0000 		.4byte	.LASF234
 4406 0b45 0F       		.byte	0xf
 4407 0b46 4001     		.2byte	0x140
 4408 0b48 00010000 		.4byte	0x100
 4409 0b4c 20       		.byte	0x20
 4410 0b4d 0A       		.uleb128 0xa
 4411 0b4e 731B0000 		.4byte	.LASF235
 4412 0b52 0F       		.byte	0xf
 4413 0b53 4101     		.2byte	0x141
 4414 0b55 00010000 		.4byte	0x100
 4415 0b59 24       		.byte	0x24
 4416 0b5a 0A       		.uleb128 0xa
 4417 0b5b 7D220000 		.4byte	.LASF236
 4418 0b5f 0F       		.byte	0xf
 4419 0b60 4201     		.2byte	0x142
 4420 0b62 00010000 		.4byte	0x100
 4421 0b66 28       		.byte	0x28
 4422 0b67 0A       		.uleb128 0xa
 4423 0b68 E9010000 		.4byte	.LASF237
 4424 0b6c 0F       		.byte	0xf
 4425 0b6d 4301     		.2byte	0x143
 4426 0b6f 00010000 		.4byte	0x100
 4427 0b73 2C       		.byte	0x2c
 4428 0b74 0A       		.uleb128 0xa
 4429 0b75 EE010000 		.4byte	.LASF238
 4430 0b79 0F       		.byte	0xf
 4431 0b7a 4401     		.2byte	0x144
ARM GAS  C:\Users\PCHAUT~1\AppData\Local\Temp\ccR4smAG.s 			page 79


 4432 0b7c 00010000 		.4byte	0x100
 4433 0b80 30       		.byte	0x30
 4434 0b81 09       		.uleb128 0x9
 4435 0b82 535200   		.ascii	"SR\000"
 4436 0b85 0F       		.byte	0xf
 4437 0b86 4501     		.2byte	0x145
 4438 0b88 00010000 		.4byte	0x100
 4439 0b8c 34       		.byte	0x34
 4440 0b8d 00       		.byte	0
 4441 0b8e 1D       		.uleb128 0x1d
 4442 0b8f B51C0000 		.4byte	.LASF239
 4443 0b93 0F       		.byte	0xf
 4444 0b94 4601     		.2byte	0x146
 4445 0b96 D00A0000 		.4byte	0xad0
 4446 0b9a 1C       		.uleb128 0x1c
 4447 0b9b 18       		.byte	0x18
 4448 0b9c 0F       		.byte	0xf
 4449 0b9d 6B01     		.2byte	0x16b
 4450 0b9f F10B0000 		.4byte	0xbf1
 4451 0ba3 09       		.uleb128 0x9
 4452 0ba4 435200   		.ascii	"CR\000"
 4453 0ba7 0F       		.byte	0xf
 4454 0ba8 6D01     		.2byte	0x16d
 4455 0baa 00010000 		.4byte	0x100
 4456 0bae 00       		.byte	0
 4457 0baf 0A       		.uleb128 0xa
 4458 0bb0 CB1F0000 		.4byte	.LASF240
 4459 0bb4 0F       		.byte	0xf
 4460 0bb5 6E01     		.2byte	0x16e
 4461 0bb7 00010000 		.4byte	0x100
 4462 0bbb 04       		.byte	0x4
 4463 0bbc 09       		.uleb128 0x9
 4464 0bbd 50415200 		.ascii	"PAR\000"
 4465 0bc1 0F       		.byte	0xf
 4466 0bc2 6F01     		.2byte	0x16f
 4467 0bc4 00010000 		.4byte	0x100
 4468 0bc8 08       		.byte	0x8
 4469 0bc9 0A       		.uleb128 0xa
 4470 0bca 2A040000 		.4byte	.LASF241
 4471 0bce 0F       		.byte	0xf
 4472 0bcf 7001     		.2byte	0x170
 4473 0bd1 00010000 		.4byte	0x100
 4474 0bd5 0C       		.byte	0xc
 4475 0bd6 0A       		.uleb128 0xa
 4476 0bd7 52080000 		.4byte	.LASF242
 4477 0bdb 0F       		.byte	0xf
 4478 0bdc 7101     		.2byte	0x171
 4479 0bde 00010000 		.4byte	0x100
 4480 0be2 10       		.byte	0x10
 4481 0be3 09       		.uleb128 0x9
 4482 0be4 46435200 		.ascii	"FCR\000"
 4483 0be8 0F       		.byte	0xf
 4484 0be9 7201     		.2byte	0x172
 4485 0beb 00010000 		.4byte	0x100
 4486 0bef 14       		.byte	0x14
 4487 0bf0 00       		.byte	0
 4488 0bf1 1D       		.uleb128 0x1d
ARM GAS  C:\Users\PCHAUT~1\AppData\Local\Temp\ccR4smAG.s 			page 80


 4489 0bf2 5C080000 		.4byte	.LASF243
 4490 0bf6 0F       		.byte	0xf
 4491 0bf7 7301     		.2byte	0x173
 4492 0bf9 9A0B0000 		.4byte	0xb9a
 4493 0bfd 16       		.uleb128 0x16
 4494 0bfe 00010000 		.4byte	0x100
 4495 0c02 0D0C0000 		.4byte	0xc0d
 4496 0c06 17       		.uleb128 0x17
 4497 0c07 37000000 		.4byte	0x37
 4498 0c0b 01       		.byte	0x1
 4499 0c0c 00       		.byte	0
 4500 0c0d 06       		.uleb128 0x6
 4501 0c0e FD0B0000 		.4byte	0xbfd
 4502 0c12 16       		.uleb128 0x16
 4503 0c13 00010000 		.4byte	0x100
 4504 0c17 220C0000 		.4byte	0xc22
 4505 0c1b 17       		.uleb128 0x17
 4506 0c1c 37000000 		.4byte	0x37
 4507 0c20 03       		.byte	0x3
 4508 0c21 00       		.byte	0
 4509 0c22 06       		.uleb128 0x6
 4510 0c23 120C0000 		.4byte	0xc12
 4511 0c27 1C       		.uleb128 0x1c
 4512 0c28 28       		.byte	0x28
 4513 0c29 0F       		.byte	0xf
 4514 0c2a 3F02     		.2byte	0x23f
 4515 0c2c B20C0000 		.4byte	0xcb2
 4516 0c30 09       		.uleb128 0x9
 4517 0c31 43523100 		.ascii	"CR1\000"
 4518 0c35 0F       		.byte	0xf
 4519 0c36 4102     		.2byte	0x241
 4520 0c38 00010000 		.4byte	0x100
 4521 0c3c 00       		.byte	0
 4522 0c3d 09       		.uleb128 0x9
 4523 0c3e 43523200 		.ascii	"CR2\000"
 4524 0c42 0F       		.byte	0xf
 4525 0c43 4202     		.2byte	0x242
 4526 0c45 00010000 		.4byte	0x100
 4527 0c49 04       		.byte	0x4
 4528 0c4a 0A       		.uleb128 0xa
 4529 0c4b 81250000 		.4byte	.LASF244
 4530 0c4f 0F       		.byte	0xf
 4531 0c50 4302     		.2byte	0x243
 4532 0c52 00010000 		.4byte	0x100
 4533 0c56 08       		.byte	0x8
 4534 0c57 0A       		.uleb128 0xa
 4535 0c58 86250000 		.4byte	.LASF245
 4536 0c5c 0F       		.byte	0xf
 4537 0c5d 4402     		.2byte	0x244
 4538 0c5f 00010000 		.4byte	0x100
 4539 0c63 0C       		.byte	0xc
 4540 0c64 09       		.uleb128 0x9
 4541 0c65 445200   		.ascii	"DR\000"
 4542 0c68 0F       		.byte	0xf
 4543 0c69 4502     		.2byte	0x245
 4544 0c6b 00010000 		.4byte	0x100
 4545 0c6f 10       		.byte	0x10
ARM GAS  C:\Users\PCHAUT~1\AppData\Local\Temp\ccR4smAG.s 			page 81


 4546 0c70 09       		.uleb128 0x9
 4547 0c71 53523100 		.ascii	"SR1\000"
 4548 0c75 0F       		.byte	0xf
 4549 0c76 4602     		.2byte	0x246
 4550 0c78 00010000 		.4byte	0x100
 4551 0c7c 14       		.byte	0x14
 4552 0c7d 09       		.uleb128 0x9
 4553 0c7e 53523200 		.ascii	"SR2\000"
 4554 0c82 0F       		.byte	0xf
 4555 0c83 4702     		.2byte	0x247
 4556 0c85 00010000 		.4byte	0x100
 4557 0c89 18       		.byte	0x18
 4558 0c8a 09       		.uleb128 0x9
 4559 0c8b 43435200 		.ascii	"CCR\000"
 4560 0c8f 0F       		.byte	0xf
 4561 0c90 4802     		.2byte	0x248
 4562 0c92 00010000 		.4byte	0x100
 4563 0c96 1C       		.byte	0x1c
 4564 0c97 0A       		.uleb128 0xa
 4565 0c98 95050000 		.4byte	.LASF246
 4566 0c9c 0F       		.byte	0xf
 4567 0c9d 4902     		.2byte	0x249
 4568 0c9f 00010000 		.4byte	0x100
 4569 0ca3 20       		.byte	0x20
 4570 0ca4 0A       		.uleb128 0xa
 4571 0ca5 B5150000 		.4byte	.LASF247
 4572 0ca9 0F       		.byte	0xf
 4573 0caa 4A02     		.2byte	0x24a
 4574 0cac 00010000 		.4byte	0x100
 4575 0cb0 24       		.byte	0x24
 4576 0cb1 00       		.byte	0
 4577 0cb2 1D       		.uleb128 0x1d
 4578 0cb3 91160000 		.4byte	.LASF248
 4579 0cb7 0F       		.byte	0xf
 4580 0cb8 4B02     		.2byte	0x24b
 4581 0cba 270C0000 		.4byte	0xc27
 4582 0cbe 1C       		.uleb128 0x1c
 4583 0cbf 88       		.byte	0x88
 4584 0cc0 0F       		.byte	0xf
 4585 0cc1 6702     		.2byte	0x267
 4586 0cc3 4D0E0000 		.4byte	0xe4d
 4587 0cc7 09       		.uleb128 0x9
 4588 0cc8 435200   		.ascii	"CR\000"
 4589 0ccb 0F       		.byte	0xf
 4590 0ccc 6902     		.2byte	0x269
 4591 0cce 00010000 		.4byte	0x100
 4592 0cd2 00       		.byte	0
 4593 0cd3 0A       		.uleb128 0xa
 4594 0cd4 6E1C0000 		.4byte	.LASF249
 4595 0cd8 0F       		.byte	0xf
 4596 0cd9 6A02     		.2byte	0x26a
 4597 0cdb 00010000 		.4byte	0x100
 4598 0cdf 04       		.byte	0x4
 4599 0ce0 0A       		.uleb128 0xa
 4600 0ce1 58140000 		.4byte	.LASF250
 4601 0ce5 0F       		.byte	0xf
 4602 0ce6 6B02     		.2byte	0x26b
ARM GAS  C:\Users\PCHAUT~1\AppData\Local\Temp\ccR4smAG.s 			page 82


 4603 0ce8 00010000 		.4byte	0x100
 4604 0cec 08       		.byte	0x8
 4605 0ced 09       		.uleb128 0x9
 4606 0cee 43495200 		.ascii	"CIR\000"
 4607 0cf2 0F       		.byte	0xf
 4608 0cf3 6C02     		.2byte	0x26c
 4609 0cf5 00010000 		.4byte	0x100
 4610 0cf9 0C       		.byte	0xc
 4611 0cfa 0A       		.uleb128 0xa
 4612 0cfb 10250000 		.4byte	.LASF251
 4613 0cff 0F       		.byte	0xf
 4614 0d00 6D02     		.2byte	0x26d
 4615 0d02 00010000 		.4byte	0x100
 4616 0d06 10       		.byte	0x10
 4617 0d07 0A       		.uleb128 0xa
 4618 0d08 B70C0000 		.4byte	.LASF252
 4619 0d0c 0F       		.byte	0xf
 4620 0d0d 6E02     		.2byte	0x26e
 4621 0d0f 00010000 		.4byte	0x100
 4622 0d13 14       		.byte	0x14
 4623 0d14 0A       		.uleb128 0xa
 4624 0d15 1F180000 		.4byte	.LASF253
 4625 0d19 0F       		.byte	0xf
 4626 0d1a 6F02     		.2byte	0x26f
 4627 0d1c 00010000 		.4byte	0x100
 4628 0d20 18       		.byte	0x18
 4629 0d21 0A       		.uleb128 0xa
 4630 0d22 6B1E0000 		.4byte	.LASF213
 4631 0d26 0F       		.byte	0xf
 4632 0d27 7002     		.2byte	0x270
 4633 0d29 F5000000 		.4byte	0xf5
 4634 0d2d 1C       		.byte	0x1c
 4635 0d2e 0A       		.uleb128 0xa
 4636 0d2f C5040000 		.4byte	.LASF254
 4637 0d33 0F       		.byte	0xf
 4638 0d34 7102     		.2byte	0x271
 4639 0d36 00010000 		.4byte	0x100
 4640 0d3a 20       		.byte	0x20
 4641 0d3b 0A       		.uleb128 0xa
 4642 0d3c E4110000 		.4byte	.LASF255
 4643 0d40 0F       		.byte	0xf
 4644 0d41 7202     		.2byte	0x272
 4645 0d43 00010000 		.4byte	0x100
 4646 0d47 24       		.byte	0x24
 4647 0d48 0A       		.uleb128 0xa
 4648 0d49 751E0000 		.4byte	.LASF216
 4649 0d4d 0F       		.byte	0xf
 4650 0d4e 7302     		.2byte	0x273
 4651 0d50 4D070000 		.4byte	0x74d
 4652 0d54 28       		.byte	0x28
 4653 0d55 0A       		.uleb128 0xa
 4654 0d56 D7130000 		.4byte	.LASF256
 4655 0d5a 0F       		.byte	0xf
 4656 0d5b 7402     		.2byte	0x274
 4657 0d5d 00010000 		.4byte	0x100
 4658 0d61 30       		.byte	0x30
 4659 0d62 0A       		.uleb128 0xa
ARM GAS  C:\Users\PCHAUT~1\AppData\Local\Temp\ccR4smAG.s 			page 83


 4660 0d63 08250000 		.4byte	.LASF257
 4661 0d67 0F       		.byte	0xf
 4662 0d68 7502     		.2byte	0x275
 4663 0d6a 00010000 		.4byte	0x100
 4664 0d6e 34       		.byte	0x34
 4665 0d6f 0A       		.uleb128 0xa
 4666 0d70 CB120000 		.4byte	.LASF258
 4667 0d74 0F       		.byte	0xf
 4668 0d75 7602     		.2byte	0x276
 4669 0d77 00010000 		.4byte	0x100
 4670 0d7b 38       		.byte	0x38
 4671 0d7c 0A       		.uleb128 0xa
 4672 0d7d 7F1E0000 		.4byte	.LASF218
 4673 0d81 0F       		.byte	0xf
 4674 0d82 7702     		.2byte	0x277
 4675 0d84 F5000000 		.4byte	0xf5
 4676 0d88 3C       		.byte	0x3c
 4677 0d89 0A       		.uleb128 0xa
 4678 0d8a 520E0000 		.4byte	.LASF259
 4679 0d8e 0F       		.byte	0xf
 4680 0d8f 7802     		.2byte	0x278
 4681 0d91 00010000 		.4byte	0x100
 4682 0d95 40       		.byte	0x40
 4683 0d96 0A       		.uleb128 0xa
 4684 0d97 2A070000 		.4byte	.LASF260
 4685 0d9b 0F       		.byte	0xf
 4686 0d9c 7902     		.2byte	0x279
 4687 0d9e 00010000 		.4byte	0x100
 4688 0da2 44       		.byte	0x44
 4689 0da3 0A       		.uleb128 0xa
 4690 0da4 891E0000 		.4byte	.LASF220
 4691 0da8 0F       		.byte	0xf
 4692 0da9 7A02     		.2byte	0x27a
 4693 0dab 4D070000 		.4byte	0x74d
 4694 0daf 48       		.byte	0x48
 4695 0db0 0A       		.uleb128 0xa
 4696 0db1 B51F0000 		.4byte	.LASF261
 4697 0db5 0F       		.byte	0xf
 4698 0db6 7B02     		.2byte	0x27b
 4699 0db8 00010000 		.4byte	0x100
 4700 0dbc 50       		.byte	0x50
 4701 0dbd 0A       		.uleb128 0xa
 4702 0dbe 7E0B0000 		.4byte	.LASF262
 4703 0dc2 0F       		.byte	0xf
 4704 0dc3 7C02     		.2byte	0x27c
 4705 0dc5 00010000 		.4byte	0x100
 4706 0dc9 54       		.byte	0x54
 4707 0dca 0A       		.uleb128 0xa
 4708 0dcb 180B0000 		.4byte	.LASF263
 4709 0dcf 0F       		.byte	0xf
 4710 0dd0 7D02     		.2byte	0x27d
 4711 0dd2 00010000 		.4byte	0x100
 4712 0dd6 58       		.byte	0x58
 4713 0dd7 0A       		.uleb128 0xa
 4714 0dd8 931E0000 		.4byte	.LASF222
 4715 0ddc 0F       		.byte	0xf
 4716 0ddd 7E02     		.2byte	0x27e
ARM GAS  C:\Users\PCHAUT~1\AppData\Local\Temp\ccR4smAG.s 			page 84


 4717 0ddf F5000000 		.4byte	0xf5
 4718 0de3 5C       		.byte	0x5c
 4719 0de4 0A       		.uleb128 0xa
 4720 0de5 87180000 		.4byte	.LASF264
 4721 0de9 0F       		.byte	0xf
 4722 0dea 7F02     		.2byte	0x27f
 4723 0dec 00010000 		.4byte	0x100
 4724 0df0 60       		.byte	0x60
 4725 0df1 0A       		.uleb128 0xa
 4726 0df2 F6200000 		.4byte	.LASF265
 4727 0df6 0F       		.byte	0xf
 4728 0df7 8002     		.2byte	0x280
 4729 0df9 00010000 		.4byte	0x100
 4730 0dfd 64       		.byte	0x64
 4731 0dfe 0A       		.uleb128 0xa
 4732 0dff 9D1E0000 		.4byte	.LASF224
 4733 0e03 0F       		.byte	0xf
 4734 0e04 8102     		.2byte	0x281
 4735 0e06 4D070000 		.4byte	0x74d
 4736 0e0a 68       		.byte	0x68
 4737 0e0b 0A       		.uleb128 0xa
 4738 0e0c 621D0000 		.4byte	.LASF266
 4739 0e10 0F       		.byte	0xf
 4740 0e11 8202     		.2byte	0x282
 4741 0e13 00010000 		.4byte	0x100
 4742 0e17 70       		.byte	0x70
 4743 0e18 09       		.uleb128 0x9
 4744 0e19 43535200 		.ascii	"CSR\000"
 4745 0e1d 0F       		.byte	0xf
 4746 0e1e 8302     		.2byte	0x283
 4747 0e20 00010000 		.4byte	0x100
 4748 0e24 74       		.byte	0x74
 4749 0e25 0A       		.uleb128 0xa
 4750 0e26 A71E0000 		.4byte	.LASF267
 4751 0e2a 0F       		.byte	0xf
 4752 0e2b 8402     		.2byte	0x284
 4753 0e2d 4D070000 		.4byte	0x74d
 4754 0e31 78       		.byte	0x78
 4755 0e32 0A       		.uleb128 0xa
 4756 0e33 71150000 		.4byte	.LASF268
 4757 0e37 0F       		.byte	0xf
 4758 0e38 8502     		.2byte	0x285
 4759 0e3a 00010000 		.4byte	0x100
 4760 0e3e 80       		.byte	0x80
 4761 0e3f 0A       		.uleb128 0xa
 4762 0e40 C0160000 		.4byte	.LASF269
 4763 0e44 0F       		.byte	0xf
 4764 0e45 8602     		.2byte	0x286
 4765 0e47 00010000 		.4byte	0x100
 4766 0e4b 84       		.byte	0x84
 4767 0e4c 00       		.byte	0
 4768 0e4d 1D       		.uleb128 0x1d
 4769 0e4e 0F020000 		.4byte	.LASF270
 4770 0e52 0F       		.byte	0xf
 4771 0e53 8802     		.2byte	0x288
 4772 0e55 BE0C0000 		.4byte	0xcbe
 4773 0e59 1C       		.uleb128 0x1c
ARM GAS  C:\Users\PCHAUT~1\AppData\Local\Temp\ccR4smAG.s 			page 85


 4774 0e5a 84       		.byte	0x84
 4775 0e5b 0F       		.byte	0xf
 4776 0e5c BF02     		.2byte	0x2bf
 4777 0e5e 670F0000 		.4byte	0xf67
 4778 0e62 0A       		.uleb128 0xa
 4779 0e63 BA160000 		.4byte	.LASF271
 4780 0e67 0F       		.byte	0xf
 4781 0e68 C102     		.2byte	0x2c1
 4782 0e6a 00010000 		.4byte	0x100
 4783 0e6e 00       		.byte	0
 4784 0e6f 0A       		.uleb128 0xa
 4785 0e70 B5200000 		.4byte	.LASF272
 4786 0e74 0F       		.byte	0xf
 4787 0e75 C202     		.2byte	0x2c2
 4788 0e77 00010000 		.4byte	0x100
 4789 0e7b 04       		.byte	0x4
 4790 0e7c 09       		.uleb128 0x9
 4791 0e7d 41524700 		.ascii	"ARG\000"
 4792 0e81 0F       		.byte	0xf
 4793 0e82 C302     		.2byte	0x2c3
 4794 0e84 00010000 		.4byte	0x100
 4795 0e88 08       		.byte	0x8
 4796 0e89 09       		.uleb128 0x9
 4797 0e8a 434D4400 		.ascii	"CMD\000"
 4798 0e8e 0F       		.byte	0xf
 4799 0e8f C402     		.2byte	0x2c4
 4800 0e91 00010000 		.4byte	0x100
 4801 0e95 0C       		.byte	0xc
 4802 0e96 0A       		.uleb128 0xa
 4803 0e97 0B1A0000 		.4byte	.LASF273
 4804 0e9b 0F       		.byte	0xf
 4805 0e9c C502     		.2byte	0x2c5
 4806 0e9e 05010000 		.4byte	0x105
 4807 0ea2 10       		.byte	0x10
 4808 0ea3 0A       		.uleb128 0xa
 4809 0ea4 94060000 		.4byte	.LASF274
 4810 0ea8 0F       		.byte	0xf
 4811 0ea9 C602     		.2byte	0x2c6
 4812 0eab 05010000 		.4byte	0x105
 4813 0eaf 14       		.byte	0x14
 4814 0eb0 0A       		.uleb128 0xa
 4815 0eb1 9A060000 		.4byte	.LASF275
 4816 0eb5 0F       		.byte	0xf
 4817 0eb6 C702     		.2byte	0x2c7
 4818 0eb8 05010000 		.4byte	0x105
 4819 0ebc 18       		.byte	0x18
 4820 0ebd 0A       		.uleb128 0xa
 4821 0ebe F0040000 		.4byte	.LASF276
 4822 0ec2 0F       		.byte	0xf
 4823 0ec3 C802     		.2byte	0x2c8
 4824 0ec5 05010000 		.4byte	0x105
 4825 0ec9 1C       		.byte	0x1c
 4826 0eca 0A       		.uleb128 0xa
 4827 0ecb B2060000 		.4byte	.LASF277
 4828 0ecf 0F       		.byte	0xf
 4829 0ed0 C902     		.2byte	0x2c9
 4830 0ed2 05010000 		.4byte	0x105
ARM GAS  C:\Users\PCHAUT~1\AppData\Local\Temp\ccR4smAG.s 			page 86


 4831 0ed6 20       		.byte	0x20
 4832 0ed7 0A       		.uleb128 0xa
 4833 0ed8 B6130000 		.4byte	.LASF278
 4834 0edc 0F       		.byte	0xf
 4835 0edd CA02     		.2byte	0x2ca
 4836 0edf 00010000 		.4byte	0x100
 4837 0ee3 24       		.byte	0x24
 4838 0ee4 0A       		.uleb128 0xa
 4839 0ee5 6C150000 		.4byte	.LASF279
 4840 0ee9 0F       		.byte	0xf
 4841 0eea CB02     		.2byte	0x2cb
 4842 0eec 00010000 		.4byte	0x100
 4843 0ef0 28       		.byte	0x28
 4844 0ef1 0A       		.uleb128 0xa
 4845 0ef2 98230000 		.4byte	.LASF280
 4846 0ef6 0F       		.byte	0xf
 4847 0ef7 CC02     		.2byte	0x2cc
 4848 0ef9 00010000 		.4byte	0x100
 4849 0efd 2C       		.byte	0x2c
 4850 0efe 0A       		.uleb128 0xa
 4851 0eff 7A250000 		.4byte	.LASF281
 4852 0f03 0F       		.byte	0xf
 4853 0f04 CD02     		.2byte	0x2cd
 4854 0f06 05010000 		.4byte	0x105
 4855 0f0a 30       		.byte	0x30
 4856 0f0b 09       		.uleb128 0x9
 4857 0f0c 53544100 		.ascii	"STA\000"
 4858 0f10 0F       		.byte	0xf
 4859 0f11 CE02     		.2byte	0x2ce
 4860 0f13 05010000 		.4byte	0x105
 4861 0f17 34       		.byte	0x34
 4862 0f18 09       		.uleb128 0x9
 4863 0f19 49435200 		.ascii	"ICR\000"
 4864 0f1d 0F       		.byte	0xf
 4865 0f1e CF02     		.2byte	0x2cf
 4866 0f20 00010000 		.4byte	0x100
 4867 0f24 38       		.byte	0x38
 4868 0f25 0A       		.uleb128 0xa
 4869 0f26 42020000 		.4byte	.LASF282
 4870 0f2a 0F       		.byte	0xf
 4871 0f2b D002     		.2byte	0x2d0
 4872 0f2d 00010000 		.4byte	0x100
 4873 0f31 3C       		.byte	0x3c
 4874 0f32 0A       		.uleb128 0xa
 4875 0f33 6B1E0000 		.4byte	.LASF213
 4876 0f37 0F       		.byte	0xf
 4877 0f38 D102     		.2byte	0x2d1
 4878 0f3a 4D070000 		.4byte	0x74d
 4879 0f3e 40       		.byte	0x40
 4880 0f3f 0A       		.uleb128 0xa
 4881 0f40 6E140000 		.4byte	.LASF283
 4882 0f44 0F       		.byte	0xf
 4883 0f45 D202     		.2byte	0x2d2
 4884 0f47 05010000 		.4byte	0x105
 4885 0f4b 48       		.byte	0x48
 4886 0f4c 0A       		.uleb128 0xa
 4887 0f4d 751E0000 		.4byte	.LASF216
ARM GAS  C:\Users\PCHAUT~1\AppData\Local\Temp\ccR4smAG.s 			page 87


 4888 0f51 0F       		.byte	0xf
 4889 0f52 D302     		.2byte	0x2d3
 4890 0f54 670F0000 		.4byte	0xf67
 4891 0f58 4C       		.byte	0x4c
 4892 0f59 0A       		.uleb128 0xa
 4893 0f5a B70A0000 		.4byte	.LASF284
 4894 0f5e 0F       		.byte	0xf
 4895 0f5f D402     		.2byte	0x2d4
 4896 0f61 00010000 		.4byte	0x100
 4897 0f65 80       		.byte	0x80
 4898 0f66 00       		.byte	0
 4899 0f67 16       		.uleb128 0x16
 4900 0f68 F5000000 		.4byte	0xf5
 4901 0f6c 770F0000 		.4byte	0xf77
 4902 0f70 17       		.uleb128 0x17
 4903 0f71 37000000 		.4byte	0x37
 4904 0f75 0C       		.byte	0xc
 4905 0f76 00       		.byte	0
 4906 0f77 1D       		.uleb128 0x1d
 4907 0f78 A11F0000 		.4byte	.LASF285
 4908 0f7c 0F       		.byte	0xf
 4909 0f7d D502     		.2byte	0x2d5
 4910 0f7f 590E0000 		.4byte	0xe59
 4911 0f83 1C       		.uleb128 0x1c
 4912 0f84 24       		.byte	0x24
 4913 0f85 0F       		.byte	0xf
 4914 0f86 DB02     		.2byte	0x2db
 4915 0f88 00100000 		.4byte	0x1000
 4916 0f8c 09       		.uleb128 0x9
 4917 0f8d 43523100 		.ascii	"CR1\000"
 4918 0f91 0F       		.byte	0xf
 4919 0f92 DD02     		.2byte	0x2dd
 4920 0f94 00010000 		.4byte	0x100
 4921 0f98 00       		.byte	0
 4922 0f99 09       		.uleb128 0x9
 4923 0f9a 43523200 		.ascii	"CR2\000"
 4924 0f9e 0F       		.byte	0xf
 4925 0f9f DE02     		.2byte	0x2de
 4926 0fa1 00010000 		.4byte	0x100
 4927 0fa5 04       		.byte	0x4
 4928 0fa6 09       		.uleb128 0x9
 4929 0fa7 535200   		.ascii	"SR\000"
 4930 0faa 0F       		.byte	0xf
 4931 0fab DF02     		.2byte	0x2df
 4932 0fad 00010000 		.4byte	0x100
 4933 0fb1 08       		.byte	0x8
 4934 0fb2 09       		.uleb128 0x9
 4935 0fb3 445200   		.ascii	"DR\000"
 4936 0fb6 0F       		.byte	0xf
 4937 0fb7 E002     		.2byte	0x2e0
 4938 0fb9 00010000 		.4byte	0x100
 4939 0fbd 0C       		.byte	0xc
 4940 0fbe 0A       		.uleb128 0xa
 4941 0fbf E3070000 		.4byte	.LASF286
 4942 0fc3 0F       		.byte	0xf
 4943 0fc4 E102     		.2byte	0x2e1
 4944 0fc6 00010000 		.4byte	0x100
ARM GAS  C:\Users\PCHAUT~1\AppData\Local\Temp\ccR4smAG.s 			page 88


 4945 0fca 10       		.byte	0x10
 4946 0fcb 0A       		.uleb128 0xa
 4947 0fcc 8B0C0000 		.4byte	.LASF287
 4948 0fd0 0F       		.byte	0xf
 4949 0fd1 E202     		.2byte	0x2e2
 4950 0fd3 00010000 		.4byte	0x100
 4951 0fd7 14       		.byte	0x14
 4952 0fd8 0A       		.uleb128 0xa
 4953 0fd9 BC0B0000 		.4byte	.LASF288
 4954 0fdd 0F       		.byte	0xf
 4955 0fde E302     		.2byte	0x2e3
 4956 0fe0 00010000 		.4byte	0x100
 4957 0fe4 18       		.byte	0x18
 4958 0fe5 0A       		.uleb128 0xa
 4959 0fe6 C5210000 		.4byte	.LASF289
 4960 0fea 0F       		.byte	0xf
 4961 0feb E402     		.2byte	0x2e4
 4962 0fed 00010000 		.4byte	0x100
 4963 0ff1 1C       		.byte	0x1c
 4964 0ff2 0A       		.uleb128 0xa
 4965 0ff3 AE070000 		.4byte	.LASF290
 4966 0ff7 0F       		.byte	0xf
 4967 0ff8 E502     		.2byte	0x2e5
 4968 0ffa 00010000 		.4byte	0x100
 4969 0ffe 20       		.byte	0x20
 4970 0fff 00       		.byte	0
 4971 1000 1D       		.uleb128 0x1d
 4972 1001 F71F0000 		.4byte	.LASF291
 4973 1005 0F       		.byte	0xf
 4974 1006 E602     		.2byte	0x2e6
 4975 1008 830F0000 		.4byte	0xf83
 4976 100c 1C       		.uleb128 0x1c
 4977 100d 1C       		.byte	0x1c
 4978 100e 0F       		.byte	0xf
 4979 100f 0903     		.2byte	0x309
 4980 1011 6F100000 		.4byte	0x106f
 4981 1015 09       		.uleb128 0x9
 4982 1016 535200   		.ascii	"SR\000"
 4983 1019 0F       		.byte	0xf
 4984 101a 0B03     		.2byte	0x30b
 4985 101c 00010000 		.4byte	0x100
 4986 1020 00       		.byte	0
 4987 1021 09       		.uleb128 0x9
 4988 1022 445200   		.ascii	"DR\000"
 4989 1025 0F       		.byte	0xf
 4990 1026 0C03     		.2byte	0x30c
 4991 1028 00010000 		.4byte	0x100
 4992 102c 04       		.byte	0x4
 4993 102d 09       		.uleb128 0x9
 4994 102e 42525200 		.ascii	"BRR\000"
 4995 1032 0F       		.byte	0xf
 4996 1033 0D03     		.2byte	0x30d
 4997 1035 00010000 		.4byte	0x100
 4998 1039 08       		.byte	0x8
 4999 103a 09       		.uleb128 0x9
 5000 103b 43523100 		.ascii	"CR1\000"
 5001 103f 0F       		.byte	0xf
ARM GAS  C:\Users\PCHAUT~1\AppData\Local\Temp\ccR4smAG.s 			page 89


 5002 1040 0E03     		.2byte	0x30e
 5003 1042 00010000 		.4byte	0x100
 5004 1046 0C       		.byte	0xc
 5005 1047 09       		.uleb128 0x9
 5006 1048 43523200 		.ascii	"CR2\000"
 5007 104c 0F       		.byte	0xf
 5008 104d 0F03     		.2byte	0x30f
 5009 104f 00010000 		.4byte	0x100
 5010 1053 10       		.byte	0x10
 5011 1054 09       		.uleb128 0x9
 5012 1055 43523300 		.ascii	"CR3\000"
 5013 1059 0F       		.byte	0xf
 5014 105a 1003     		.2byte	0x310
 5015 105c 00010000 		.4byte	0x100
 5016 1060 14       		.byte	0x14
 5017 1061 0A       		.uleb128 0xa
 5018 1062 82230000 		.4byte	.LASF292
 5019 1066 0F       		.byte	0xf
 5020 1067 1103     		.2byte	0x311
 5021 1069 00010000 		.4byte	0x100
 5022 106d 18       		.byte	0x18
 5023 106e 00       		.byte	0
 5024 106f 1D       		.uleb128 0x1d
 5025 1070 8C240000 		.4byte	.LASF293
 5026 1074 0F       		.byte	0xf
 5027 1075 1203     		.2byte	0x312
 5028 1077 0C100000 		.4byte	0x100c
 5029 107b 16       		.uleb128 0x16
 5030 107c 00010000 		.4byte	0x100
 5031 1080 8B100000 		.4byte	0x108b
 5032 1084 17       		.uleb128 0x17
 5033 1085 37000000 		.4byte	0x37
 5034 1089 0E       		.byte	0xe
 5035 108a 00       		.byte	0
 5036 108b 06       		.uleb128 0x6
 5037 108c 7B100000 		.4byte	0x107b
 5038 1090 03       		.uleb128 0x3
 5039 1091 39190000 		.4byte	.LASF294
 5040 1095 10       		.byte	0x10
 5041 1096 65       		.byte	0x65
 5042 1097 BA030000 		.4byte	0x3ba
 5043 109b 03       		.uleb128 0x3
 5044 109c 540A0000 		.4byte	.LASF295
 5045 10a0 10       		.byte	0x10
 5046 10a1 6D       		.byte	0x6d
 5047 10a2 0A010000 		.4byte	0x10a
 5048 10a6 07       		.uleb128 0x7
 5049 10a7 9F180000 		.4byte	.LASF296
 5050 10ab 04       		.byte	0x4
 5051 10ac 10       		.byte	0x10
 5052 10ad 89       		.byte	0x89
 5053 10ae BF100000 		.4byte	0x10bf
 5054 10b2 1B       		.uleb128 0x1b
 5055 10b3 72313300 		.ascii	"r13\000"
 5056 10b7 10       		.byte	0x10
 5057 10b8 8A       		.byte	0x8a
 5058 10b9 00120000 		.4byte	0x1200
ARM GAS  C:\Users\PCHAUT~1\AppData\Local\Temp\ccR4smAG.s 			page 90


 5059 10bd 00       		.byte	0
 5060 10be 00       		.byte	0
 5061 10bf 07       		.uleb128 0x7
 5062 10c0 23000000 		.4byte	.LASF297
 5063 10c4 64       		.byte	0x64
 5064 10c5 01       		.byte	0x1
 5065 10c6 F4       		.byte	0xf4
 5066 10c7 00120000 		.4byte	0x1200
 5067 10cb 1B       		.uleb128 0x1b
 5068 10cc 73313600 		.ascii	"s16\000"
 5069 10d0 01       		.byte	0x1
 5070 10d1 F6       		.byte	0xf6
 5071 10d2 90100000 		.4byte	0x1090
 5072 10d6 00       		.byte	0
 5073 10d7 1B       		.uleb128 0x1b
 5074 10d8 73313700 		.ascii	"s17\000"
 5075 10dc 01       		.byte	0x1
 5076 10dd F7       		.byte	0xf7
 5077 10de 90100000 		.4byte	0x1090
 5078 10e2 04       		.byte	0x4
 5079 10e3 1B       		.uleb128 0x1b
 5080 10e4 73313800 		.ascii	"s18\000"
 5081 10e8 01       		.byte	0x1
 5082 10e9 F8       		.byte	0xf8
 5083 10ea 90100000 		.4byte	0x1090
 5084 10ee 08       		.byte	0x8
 5085 10ef 1B       		.uleb128 0x1b
 5086 10f0 73313900 		.ascii	"s19\000"
 5087 10f4 01       		.byte	0x1
 5088 10f5 F9       		.byte	0xf9
 5089 10f6 90100000 		.4byte	0x1090
 5090 10fa 0C       		.byte	0xc
 5091 10fb 1B       		.uleb128 0x1b
 5092 10fc 73323000 		.ascii	"s20\000"
 5093 1100 01       		.byte	0x1
 5094 1101 FA       		.byte	0xfa
 5095 1102 90100000 		.4byte	0x1090
 5096 1106 10       		.byte	0x10
 5097 1107 1B       		.uleb128 0x1b
 5098 1108 73323100 		.ascii	"s21\000"
 5099 110c 01       		.byte	0x1
 5100 110d FB       		.byte	0xfb
 5101 110e 90100000 		.4byte	0x1090
 5102 1112 14       		.byte	0x14
 5103 1113 1B       		.uleb128 0x1b
 5104 1114 73323200 		.ascii	"s22\000"
 5105 1118 01       		.byte	0x1
 5106 1119 FC       		.byte	0xfc
 5107 111a 90100000 		.4byte	0x1090
 5108 111e 18       		.byte	0x18
 5109 111f 1B       		.uleb128 0x1b
 5110 1120 73323300 		.ascii	"s23\000"
 5111 1124 01       		.byte	0x1
 5112 1125 FD       		.byte	0xfd
 5113 1126 90100000 		.4byte	0x1090
 5114 112a 1C       		.byte	0x1c
 5115 112b 1B       		.uleb128 0x1b
ARM GAS  C:\Users\PCHAUT~1\AppData\Local\Temp\ccR4smAG.s 			page 91


 5116 112c 73323400 		.ascii	"s24\000"
 5117 1130 01       		.byte	0x1
 5118 1131 FE       		.byte	0xfe
 5119 1132 90100000 		.4byte	0x1090
 5120 1136 20       		.byte	0x20
 5121 1137 1B       		.uleb128 0x1b
 5122 1138 73323500 		.ascii	"s25\000"
 5123 113c 01       		.byte	0x1
 5124 113d FF       		.byte	0xff
 5125 113e 90100000 		.4byte	0x1090
 5126 1142 24       		.byte	0x24
 5127 1143 09       		.uleb128 0x9
 5128 1144 73323600 		.ascii	"s26\000"
 5129 1148 01       		.byte	0x1
 5130 1149 0001     		.2byte	0x100
 5131 114b 90100000 		.4byte	0x1090
 5132 114f 28       		.byte	0x28
 5133 1150 09       		.uleb128 0x9
 5134 1151 73323700 		.ascii	"s27\000"
 5135 1155 01       		.byte	0x1
 5136 1156 0101     		.2byte	0x101
 5137 1158 90100000 		.4byte	0x1090
 5138 115c 2C       		.byte	0x2c
 5139 115d 09       		.uleb128 0x9
 5140 115e 73323800 		.ascii	"s28\000"
 5141 1162 01       		.byte	0x1
 5142 1163 0201     		.2byte	0x102
 5143 1165 90100000 		.4byte	0x1090
 5144 1169 30       		.byte	0x30
 5145 116a 09       		.uleb128 0x9
 5146 116b 73323900 		.ascii	"s29\000"
 5147 116f 01       		.byte	0x1
 5148 1170 0301     		.2byte	0x103
 5149 1172 90100000 		.4byte	0x1090
 5150 1176 34       		.byte	0x34
 5151 1177 09       		.uleb128 0x9
 5152 1178 73333000 		.ascii	"s30\000"
 5153 117c 01       		.byte	0x1
 5154 117d 0401     		.2byte	0x104
 5155 117f 90100000 		.4byte	0x1090
 5156 1183 38       		.byte	0x38
 5157 1184 09       		.uleb128 0x9
 5158 1185 73333100 		.ascii	"s31\000"
 5159 1189 01       		.byte	0x1
 5160 118a 0501     		.2byte	0x105
 5161 118c 90100000 		.4byte	0x1090
 5162 1190 3C       		.byte	0x3c
 5163 1191 09       		.uleb128 0x9
 5164 1192 723400   		.ascii	"r4\000"
 5165 1195 01       		.byte	0x1
 5166 1196 0701     		.2byte	0x107
 5167 1198 90100000 		.4byte	0x1090
 5168 119c 40       		.byte	0x40
 5169 119d 09       		.uleb128 0x9
 5170 119e 723500   		.ascii	"r5\000"
 5171 11a1 01       		.byte	0x1
 5172 11a2 0801     		.2byte	0x108
ARM GAS  C:\Users\PCHAUT~1\AppData\Local\Temp\ccR4smAG.s 			page 92


 5173 11a4 90100000 		.4byte	0x1090
 5174 11a8 44       		.byte	0x44
 5175 11a9 09       		.uleb128 0x9
 5176 11aa 723600   		.ascii	"r6\000"
 5177 11ad 01       		.byte	0x1
 5178 11ae 0901     		.2byte	0x109
 5179 11b0 90100000 		.4byte	0x1090
 5180 11b4 48       		.byte	0x48
 5181 11b5 09       		.uleb128 0x9
 5182 11b6 723700   		.ascii	"r7\000"
 5183 11b9 01       		.byte	0x1
 5184 11ba 0A01     		.2byte	0x10a
 5185 11bc 90100000 		.4byte	0x1090
 5186 11c0 4C       		.byte	0x4c
 5187 11c1 09       		.uleb128 0x9
 5188 11c2 723800   		.ascii	"r8\000"
 5189 11c5 01       		.byte	0x1
 5190 11c6 0B01     		.2byte	0x10b
 5191 11c8 90100000 		.4byte	0x1090
 5192 11cc 50       		.byte	0x50
 5193 11cd 09       		.uleb128 0x9
 5194 11ce 723900   		.ascii	"r9\000"
 5195 11d1 01       		.byte	0x1
 5196 11d2 0C01     		.2byte	0x10c
 5197 11d4 90100000 		.4byte	0x1090
 5198 11d8 54       		.byte	0x54
 5199 11d9 09       		.uleb128 0x9
 5200 11da 72313000 		.ascii	"r10\000"
 5201 11de 01       		.byte	0x1
 5202 11df 0D01     		.2byte	0x10d
 5203 11e1 90100000 		.4byte	0x1090
 5204 11e5 58       		.byte	0x58
 5205 11e6 09       		.uleb128 0x9
 5206 11e7 72313100 		.ascii	"r11\000"
 5207 11eb 01       		.byte	0x1
 5208 11ec 0E01     		.2byte	0x10e
 5209 11ee 90100000 		.4byte	0x1090
 5210 11f2 5C       		.byte	0x5c
 5211 11f3 09       		.uleb128 0x9
 5212 11f4 6C7200   		.ascii	"lr\000"
 5213 11f7 01       		.byte	0x1
 5214 11f8 0F01     		.2byte	0x10f
 5215 11fa 90100000 		.4byte	0x1090
 5216 11fe 60       		.byte	0x60
 5217 11ff 00       		.byte	0
 5218 1200 0B       		.uleb128 0xb
 5219 1201 04       		.byte	0x4
 5220 1202 BF100000 		.4byte	0x10bf
 5221 1206 1A       		.uleb128 0x1a
 5222 1207 10       		.byte	0x10
 5223 1208 11       		.byte	0x11
 5224 1209 51       		.byte	0x51
 5225 120a 3F120000 		.4byte	0x123f
 5226 120e 08       		.uleb128 0x8
 5227 120f E91E0000 		.4byte	.LASF298
 5228 1213 11       		.byte	0x11
 5229 1214 55       		.byte	0x55
ARM GAS  C:\Users\PCHAUT~1\AppData\Local\Temp\ccR4smAG.s 			page 93


 5230 1215 99010000 		.4byte	0x199
 5231 1219 00       		.byte	0
 5232 121a 08       		.uleb128 0x8
 5233 121b C8190000 		.4byte	.LASF299
 5234 121f 11       		.byte	0x11
 5235 1220 59       		.byte	0x59
 5236 1221 DD020000 		.4byte	0x2dd
 5237 1225 04       		.byte	0x4
 5238 1226 08       		.uleb128 0x8
 5239 1227 420D0000 		.4byte	.LASF300
 5240 122b 11       		.byte	0x11
 5241 122c 5D       		.byte	0x5d
 5242 122d BA030000 		.4byte	0x3ba
 5243 1231 08       		.byte	0x8
 5244 1232 08       		.uleb128 0x8
 5245 1233 420B0000 		.4byte	.LASF301
 5246 1237 11       		.byte	0x11
 5247 1238 61       		.byte	0x61
 5248 1239 BF000000 		.4byte	0xbf
 5249 123d 0C       		.byte	0xc
 5250 123e 00       		.byte	0
 5251 123f 03       		.uleb128 0x3
 5252 1240 F70D0000 		.4byte	.LASF302
 5253 1244 11       		.byte	0x11
 5254 1245 62       		.byte	0x62
 5255 1246 06120000 		.4byte	0x1206
 5256 124a 1F       		.uleb128 0x1f
 5257 124b 0804     		.2byte	0x408
 5258 124d 11       		.byte	0x11
 5259 124e 67       		.byte	0x67
 5260 124f 78120000 		.4byte	0x1278
 5261 1253 08       		.uleb128 0x8
 5262 1254 8C060000 		.4byte	.LASF303
 5263 1258 11       		.byte	0x11
 5264 1259 6B       		.byte	0x6b
 5265 125a 37000000 		.4byte	0x37
 5266 125e 00       		.byte	0
 5267 125f 08       		.uleb128 0x8
 5268 1260 B3140000 		.4byte	.LASF304
 5269 1264 11       		.byte	0x11
 5270 1265 6F       		.byte	0x6f
 5271 1266 78120000 		.4byte	0x1278
 5272 126a 04       		.byte	0x4
 5273 126b 08       		.uleb128 0x8
 5274 126c BC0A0000 		.4byte	.LASF305
 5275 1270 11       		.byte	0x11
 5276 1271 73       		.byte	0x73
 5277 1272 7E120000 		.4byte	0x127e
 5278 1276 08       		.byte	0x8
 5279 1277 00       		.byte	0
 5280 1278 0B       		.uleb128 0xb
 5281 1279 04       		.byte	0x4
 5282 127a 3F120000 		.4byte	0x123f
 5283 127e 16       		.uleb128 0x16
 5284 127f 3F120000 		.4byte	0x123f
 5285 1283 8E120000 		.4byte	0x128e
 5286 1287 17       		.uleb128 0x17
ARM GAS  C:\Users\PCHAUT~1\AppData\Local\Temp\ccR4smAG.s 			page 94


 5287 1288 37000000 		.4byte	0x37
 5288 128c 3F       		.byte	0x3f
 5289 128d 00       		.byte	0
 5290 128e 03       		.uleb128 0x3
 5291 128f 2F000000 		.4byte	.LASF306
 5292 1293 11       		.byte	0x11
 5293 1294 74       		.byte	0x74
 5294 1295 4A120000 		.4byte	0x124a
 5295 1299 1A       		.uleb128 0x1a
 5296 129a 04       		.byte	0x4
 5297 129b 12       		.byte	0x12
 5298 129c 38       		.byte	0x38
 5299 129d AE120000 		.4byte	0x12ae
 5300 12a1 08       		.uleb128 0x8
 5301 12a2 AE1F0000 		.4byte	.LASF307
 5302 12a6 12       		.byte	0x12
 5303 12a7 3C       		.byte	0x3c
 5304 12a8 15010000 		.4byte	0x115
 5305 12ac 00       		.byte	0
 5306 12ad 00       		.byte	0
 5307 12ae 03       		.uleb128 0x3
 5308 12af 5E230000 		.4byte	.LASF308
 5309 12b3 12       		.byte	0x12
 5310 12b4 3D       		.byte	0x3d
 5311 12b5 99120000 		.4byte	0x1299
 5312 12b9 1A       		.uleb128 0x1a
 5313 12ba 18       		.byte	0x18
 5314 12bb 12       		.byte	0x12
 5315 12bc 48       		.byte	0x48
 5316 12bd FC120000 		.4byte	0x12fc
 5317 12c1 08       		.uleb128 0x8
 5318 12c2 BF070000 		.4byte	.LASF309
 5319 12c6 12       		.byte	0x12
 5320 12c7 49       		.byte	0x49
 5321 12c8 15010000 		.4byte	0x115
 5322 12cc 00       		.byte	0
 5323 12cd 08       		.uleb128 0x8
 5324 12ce D8010000 		.4byte	.LASF310
 5325 12d2 12       		.byte	0x12
 5326 12d3 4A       		.byte	0x4a
 5327 12d4 15010000 		.4byte	0x115
 5328 12d8 04       		.byte	0x4
 5329 12d9 08       		.uleb128 0x8
 5330 12da C2180000 		.4byte	.LASF311
 5331 12de 12       		.byte	0x12
 5332 12df 4B       		.byte	0x4b
 5333 12e0 15010000 		.4byte	0x115
 5334 12e4 08       		.byte	0x8
 5335 12e5 1B       		.uleb128 0x1b
 5336 12e6 6E00     		.ascii	"n\000"
 5337 12e8 12       		.byte	0x12
 5338 12e9 4C       		.byte	0x4c
 5339 12ea 8E010000 		.4byte	0x18e
 5340 12ee 0C       		.byte	0xc
 5341 12ef 08       		.uleb128 0x8
 5342 12f0 71180000 		.4byte	.LASF312
 5343 12f4 12       		.byte	0x12
ARM GAS  C:\Users\PCHAUT~1\AppData\Local\Temp\ccR4smAG.s 			page 95


 5344 12f5 4D       		.byte	0x4d
 5345 12f6 20010000 		.4byte	0x120
 5346 12fa 10       		.byte	0x10
 5347 12fb 00       		.byte	0
 5348 12fc 03       		.uleb128 0x3
 5349 12fd 16220000 		.4byte	.LASF313
 5350 1301 12       		.byte	0x12
 5351 1302 4E       		.byte	0x4e
 5352 1303 B9120000 		.4byte	0x12b9
 5353 1307 1A       		.uleb128 0x1a
 5354 1308 38       		.byte	0x38
 5355 1309 13       		.byte	0x13
 5356 130a 38       		.byte	0x38
 5357 130b 40130000 		.4byte	0x1340
 5358 130f 08       		.uleb128 0x8
 5359 1310 1E070000 		.4byte	.LASF314
 5360 1314 13       		.byte	0x13
 5361 1315 39       		.byte	0x39
 5362 1316 8E010000 		.4byte	0x18e
 5363 131a 00       		.byte	0
 5364 131b 08       		.uleb128 0x8
 5365 131c 0D0C0000 		.4byte	.LASF315
 5366 1320 13       		.byte	0x13
 5367 1321 3A       		.byte	0x3a
 5368 1322 8E010000 		.4byte	0x18e
 5369 1326 04       		.byte	0x4
 5370 1327 08       		.uleb128 0x8
 5371 1328 A8210000 		.4byte	.LASF316
 5372 132c 13       		.byte	0x13
 5373 132d 3B       		.byte	0x3b
 5374 132e FC120000 		.4byte	0x12fc
 5375 1332 08       		.byte	0x8
 5376 1333 08       		.uleb128 0x8
 5377 1334 9D000000 		.4byte	.LASF317
 5378 1338 13       		.byte	0x13
 5379 1339 3D       		.byte	0x3d
 5380 133a FC120000 		.4byte	0x12fc
 5381 133e 20       		.byte	0x20
 5382 133f 00       		.byte	0
 5383 1340 03       		.uleb128 0x3
 5384 1341 AE050000 		.4byte	.LASF318
 5385 1345 13       		.byte	0x13
 5386 1346 3F       		.byte	0x3f
 5387 1347 07130000 		.4byte	0x1307
 5388 134b 20       		.uleb128 0x20
 5389 134c 04       		.byte	0x4
 5390 134d 0C       		.byte	0xc
 5391 134e FA       		.byte	0xfa
 5392 134f A8130000 		.4byte	0x13a8
 5393 1353 21       		.uleb128 0x21
 5394 1354 A5100000 		.4byte	.LASF319
 5395 1358 0C       		.byte	0xc
 5396 1359 0101     		.2byte	0x101
 5397 135b 62010000 		.4byte	0x162
 5398 135f 21       		.uleb128 0x21
 5399 1360 49080000 		.4byte	.LASF320
 5400 1364 0C       		.byte	0xc
ARM GAS  C:\Users\PCHAUT~1\AppData\Local\Temp\ccR4smAG.s 			page 96


 5401 1365 0801     		.2byte	0x108
 5402 1367 62010000 		.4byte	0x162
 5403 136b 21       		.uleb128 0x21
 5404 136c C11C0000 		.4byte	.LASF321
 5405 1370 0C       		.byte	0xc
 5406 1371 0F01     		.2byte	0x10f
 5407 1373 BA030000 		.4byte	0x3ba
 5408 1377 21       		.uleb128 0x21
 5409 1378 91180000 		.4byte	.LASF322
 5410 137c 0C       		.byte	0xc
 5411 137d 1601     		.2byte	0x116
 5412 137f A8130000 		.4byte	0x13a8
 5413 1383 21       		.uleb128 0x21
 5414 1384 4E010000 		.4byte	.LASF323
 5415 1388 0C       		.byte	0xc
 5416 1389 1E01     		.2byte	0x11e
 5417 138b D3130000 		.4byte	0x13d3
 5418 138f 21       		.uleb128 0x21
 5419 1390 FA1C0000 		.4byte	.LASF324
 5420 1394 0C       		.byte	0xc
 5421 1395 2701     		.2byte	0x127
 5422 1397 16140000 		.4byte	0x1416
 5423 139b 21       		.uleb128 0x21
 5424 139c 31200000 		.4byte	.LASF325
 5425 13a0 0C       		.byte	0xc
 5426 13a1 2F01     		.2byte	0x12f
 5427 13a3 6D010000 		.4byte	0x16d
 5428 13a7 00       		.byte	0
 5429 13a8 0B       		.uleb128 0xb
 5430 13a9 04       		.byte	0x4
 5431 13aa D2020000 		.4byte	0x2d2
 5432 13ae 07       		.uleb128 0x7
 5433 13af 17170000 		.4byte	.LASF326
 5434 13b3 0C       		.byte	0xc
 5435 13b4 14       		.byte	0x14
 5436 13b5 34       		.byte	0x34
 5437 13b6 D3130000 		.4byte	0x13d3
 5438 13ba 08       		.uleb128 0x8
 5439 13bb 93210000 		.4byte	.LASF327
 5440 13bf 14       		.byte	0x14
 5441 13c0 35       		.byte	0x35
 5442 13c1 07030000 		.4byte	0x307
 5443 13c5 00       		.byte	0
 5444 13c6 08       		.uleb128 0x8
 5445 13c7 CE0A0000 		.4byte	.LASF328
 5446 13cb 14       		.byte	0x14
 5447 13cc 37       		.byte	0x37
 5448 13cd 83010000 		.4byte	0x183
 5449 13d1 08       		.byte	0x8
 5450 13d2 00       		.byte	0
 5451 13d3 0B       		.uleb128 0xb
 5452 13d4 04       		.byte	0x4
 5453 13d5 AE130000 		.4byte	0x13ae
 5454 13d9 07       		.uleb128 0x7
 5455 13da A00C0000 		.4byte	.LASF329
 5456 13de 14       		.byte	0x14
 5457 13df 15       		.byte	0x15
ARM GAS  C:\Users\PCHAUT~1\AppData\Local\Temp\ccR4smAG.s 			page 97


 5458 13e0 39       		.byte	0x39
 5459 13e1 16140000 		.4byte	0x1416
 5460 13e5 08       		.uleb128 0x8
 5461 13e6 02180000 		.4byte	.LASF330
 5462 13ea 15       		.byte	0x15
 5463 13eb 3A       		.byte	0x3a
 5464 13ec 07030000 		.4byte	0x307
 5465 13f0 00       		.byte	0
 5466 13f1 08       		.uleb128 0x8
 5467 13f2 F1150000 		.4byte	.LASF331
 5468 13f6 15       		.byte	0x15
 5469 13f7 3C       		.byte	0x3c
 5470 13f8 DD020000 		.4byte	0x2dd
 5471 13fc 08       		.byte	0x8
 5472 13fd 08       		.uleb128 0x8
 5473 13fe 1B020000 		.4byte	.LASF332
 5474 1402 15       		.byte	0x15
 5475 1403 3E       		.byte	0x3e
 5476 1404 71150000 		.4byte	0x1571
 5477 1408 0C       		.byte	0xc
 5478 1409 08       		.uleb128 0x8
 5479 140a AC080000 		.4byte	.LASF333
 5480 140e 15       		.byte	0x15
 5481 140f 41       		.byte	0x41
 5482 1410 83010000 		.4byte	0x183
 5483 1414 10       		.byte	0x10
 5484 1415 00       		.byte	0
 5485 1416 0B       		.uleb128 0xb
 5486 1417 04       		.byte	0x4
 5487 1418 D9130000 		.4byte	0x13d9
 5488 141c 0B       		.uleb128 0xb
 5489 141d 04       		.byte	0x4
 5490 141e 2E140000 		.4byte	0x142e
 5491 1422 06       		.uleb128 0x6
 5492 1423 1C140000 		.4byte	0x141c
 5493 1427 04       		.uleb128 0x4
 5494 1428 01       		.byte	0x1
 5495 1429 08       		.byte	0x8
 5496 142a 2B1A0000 		.4byte	.LASF334
 5497 142e 05       		.uleb128 0x5
 5498 142f 27140000 		.4byte	0x1427
 5499 1433 0B       		.uleb128 0xb
 5500 1434 04       		.byte	0x4
 5501 1435 9B100000 		.4byte	0x109b
 5502 1439 0B       		.uleb128 0xb
 5503 143a 04       		.byte	0x4
 5504 143b BC030000 		.4byte	0x3bc
 5505 143f 16       		.uleb128 0x16
 5506 1440 9B100000 		.4byte	0x109b
 5507 1444 4F140000 		.4byte	0x144f
 5508 1448 17       		.uleb128 0x17
 5509 1449 37000000 		.4byte	0x37
 5510 144d 30       		.byte	0x30
 5511 144e 00       		.byte	0
 5512 144f 22       		.uleb128 0x22
 5513 1450 636800   		.ascii	"ch\000"
 5514 1453 0C       		.byte	0xc
ARM GAS  C:\Users\PCHAUT~1\AppData\Local\Temp\ccR4smAG.s 			page 98


 5515 1454 0902     		.2byte	0x209
 5516 1456 B1040000 		.4byte	0x4b1
 5517 145a 1A       		.uleb128 0x1a
 5518 145b 16       		.byte	0x16
 5519 145c 16       		.byte	0x16
 5520 145d 34       		.byte	0x34
 5521 145e 3B150000 		.4byte	0x153b
 5522 1462 08       		.uleb128 0x8
 5523 1463 CD210000 		.4byte	.LASF335
 5524 1467 16       		.byte	0x16
 5525 1468 35       		.byte	0x35
 5526 1469 3B150000 		.4byte	0x153b
 5527 146d 00       		.byte	0
 5528 146e 08       		.uleb128 0x8
 5529 146f 87230000 		.4byte	.LASF336
 5530 1473 16       		.byte	0x16
 5531 1474 36       		.byte	0x36
 5532 1475 BF000000 		.4byte	0xbf
 5533 1479 04       		.byte	0x4
 5534 147a 08       		.uleb128 0x8
 5535 147b 44030000 		.4byte	.LASF337
 5536 147f 16       		.byte	0x16
 5537 1480 37       		.byte	0x37
 5538 1481 BF000000 		.4byte	0xbf
 5539 1485 05       		.byte	0x5
 5540 1486 08       		.uleb128 0x8
 5541 1487 56160000 		.4byte	.LASF338
 5542 148b 16       		.byte	0x16
 5543 148c 38       		.byte	0x38
 5544 148d DA000000 		.4byte	0xda
 5545 1491 06       		.byte	0x6
 5546 1492 08       		.uleb128 0x8
 5547 1493 41000000 		.4byte	.LASF339
 5548 1497 16       		.byte	0x16
 5549 1498 39       		.byte	0x39
 5550 1499 BF000000 		.4byte	0xbf
 5551 149d 08       		.byte	0x8
 5552 149e 08       		.uleb128 0x8
 5553 149f 4C140000 		.4byte	.LASF340
 5554 14a3 16       		.byte	0x16
 5555 14a4 3A       		.byte	0x3a
 5556 14a5 BF000000 		.4byte	0xbf
 5557 14a9 09       		.byte	0x9
 5558 14aa 08       		.uleb128 0x8
 5559 14ab 9E230000 		.4byte	.LASF341
 5560 14af 16       		.byte	0x16
 5561 14b0 3B       		.byte	0x3b
 5562 14b1 BF000000 		.4byte	0xbf
 5563 14b5 0A       		.byte	0xa
 5564 14b6 08       		.uleb128 0x8
 5565 14b7 F9210000 		.4byte	.LASF342
 5566 14bb 16       		.byte	0x16
 5567 14bc 3C       		.byte	0x3c
 5568 14bd BF000000 		.4byte	0xbf
 5569 14c1 0B       		.byte	0xb
 5570 14c2 08       		.uleb128 0x8
 5571 14c3 FA050000 		.4byte	.LASF343
ARM GAS  C:\Users\PCHAUT~1\AppData\Local\Temp\ccR4smAG.s 			page 99


 5572 14c7 16       		.byte	0x16
 5573 14c8 3D       		.byte	0x3d
 5574 14c9 BF000000 		.4byte	0xbf
 5575 14cd 0C       		.byte	0xc
 5576 14ce 08       		.uleb128 0x8
 5577 14cf 0A0D0000 		.4byte	.LASF344
 5578 14d3 16       		.byte	0x16
 5579 14d4 3E       		.byte	0x3e
 5580 14d5 BF000000 		.4byte	0xbf
 5581 14d9 0D       		.byte	0xd
 5582 14da 08       		.uleb128 0x8
 5583 14db 44060000 		.4byte	.LASF345
 5584 14df 16       		.byte	0x16
 5585 14e0 3F       		.byte	0x3f
 5586 14e1 BF000000 		.4byte	0xbf
 5587 14e5 0E       		.byte	0xe
 5588 14e6 08       		.uleb128 0x8
 5589 14e7 610E0000 		.4byte	.LASF346
 5590 14eb 16       		.byte	0x16
 5591 14ec 40       		.byte	0x40
 5592 14ed BF000000 		.4byte	0xbf
 5593 14f1 0F       		.byte	0xf
 5594 14f2 08       		.uleb128 0x8
 5595 14f3 10040000 		.4byte	.LASF347
 5596 14f7 16       		.byte	0x16
 5597 14f8 41       		.byte	0x41
 5598 14f9 BF000000 		.4byte	0xbf
 5599 14fd 10       		.byte	0x10
 5600 14fe 08       		.uleb128 0x8
 5601 14ff CE080000 		.4byte	.LASF348
 5602 1503 16       		.byte	0x16
 5603 1504 43       		.byte	0x43
 5604 1505 BF000000 		.4byte	0xbf
 5605 1509 11       		.byte	0x11
 5606 150a 08       		.uleb128 0x8
 5607 150b 1B030000 		.4byte	.LASF349
 5608 150f 16       		.byte	0x16
 5609 1510 44       		.byte	0x44
 5610 1511 BF000000 		.4byte	0xbf
 5611 1515 12       		.byte	0x12
 5612 1516 08       		.uleb128 0x8
 5613 1517 CD150000 		.4byte	.LASF350
 5614 151b 16       		.byte	0x16
 5615 151c 45       		.byte	0x45
 5616 151d BF000000 		.4byte	0xbf
 5617 1521 13       		.byte	0x13
 5618 1522 08       		.uleb128 0x8
 5619 1523 071C0000 		.4byte	.LASF351
 5620 1527 16       		.byte	0x16
 5621 1528 46       		.byte	0x46
 5622 1529 BF000000 		.4byte	0xbf
 5623 152d 14       		.byte	0x14
 5624 152e 08       		.uleb128 0x8
 5625 152f 2C010000 		.4byte	.LASF352
 5626 1533 16       		.byte	0x16
 5627 1534 48       		.byte	0x48
 5628 1535 BF000000 		.4byte	0xbf
ARM GAS  C:\Users\PCHAUT~1\AppData\Local\Temp\ccR4smAG.s 			page 100


 5629 1539 15       		.byte	0x15
 5630 153a 00       		.byte	0
 5631 153b 16       		.uleb128 0x16
 5632 153c 27140000 		.4byte	0x1427
 5633 1540 4B150000 		.4byte	0x154b
 5634 1544 17       		.uleb128 0x17
 5635 1545 37000000 		.4byte	0x37
 5636 1549 03       		.byte	0x3
 5637 154a 00       		.byte	0
 5638 154b 03       		.uleb128 0x3
 5639 154c F2130000 		.4byte	.LASF353
 5640 1550 16       		.byte	0x16
 5641 1551 49       		.byte	0x49
 5642 1552 5A140000 		.4byte	0x145a
 5643 1556 05       		.uleb128 0x5
 5644 1557 4B150000 		.4byte	0x154b
 5645 155b 19       		.uleb128 0x19
 5646 155c 160C0000 		.4byte	.LASF354
 5647 1560 16       		.byte	0x16
 5648 1561 6E       		.byte	0x6e
 5649 1562 56150000 		.4byte	0x1556
 5650 1566 03       		.uleb128 0x3
 5651 1567 231E0000 		.4byte	.LASF355
 5652 156b 15       		.byte	0x15
 5653 156c 34       		.byte	0x34
 5654 156d D9130000 		.4byte	0x13d9
 5655 1571 0B       		.uleb128 0xb
 5656 1572 04       		.byte	0x4
 5657 1573 66150000 		.4byte	0x1566
 5658 1577 03       		.uleb128 0x3
 5659 1578 510C0000 		.4byte	.LASF356
 5660 157c 17       		.byte	0x17
 5661 157d 34       		.byte	0x34
 5662 157e 82150000 		.4byte	0x1582
 5663 1582 07       		.uleb128 0x7
 5664 1583 4C240000 		.4byte	.LASF357
 5665 1587 14       		.byte	0x14
 5666 1588 17       		.byte	0x17
 5667 1589 39       		.byte	0x39
 5668 158a CB150000 		.4byte	0x15cb
 5669 158e 08       		.uleb128 0x8
 5670 158f C9020000 		.4byte	.LASF358
 5671 1593 17       		.byte	0x17
 5672 1594 3A       		.byte	0x3a
 5673 1595 CB150000 		.4byte	0x15cb
 5674 1599 00       		.byte	0
 5675 159a 08       		.uleb128 0x8
 5676 159b 68050000 		.4byte	.LASF359
 5677 159f 17       		.byte	0x17
 5678 15a0 3D       		.byte	0x3d
 5679 15a1 DD020000 		.4byte	0x2dd
 5680 15a5 04       		.byte	0x4
 5681 15a6 08       		.uleb128 0x8
 5682 15a7 A3030000 		.4byte	.LASF360
 5683 15ab 17       		.byte	0x17
 5684 15ac 3F       		.byte	0x3f
 5685 15ad 6D010000 		.4byte	0x16d
ARM GAS  C:\Users\PCHAUT~1\AppData\Local\Temp\ccR4smAG.s 			page 101


 5686 15b1 08       		.byte	0x8
 5687 15b2 08       		.uleb128 0x8
 5688 15b3 38200000 		.4byte	.LASF361
 5689 15b7 17       		.byte	0x17
 5690 15b8 41       		.byte	0x41
 5691 15b9 78010000 		.4byte	0x178
 5692 15bd 0C       		.byte	0xc
 5693 15be 08       		.uleb128 0x8
 5694 15bf B30E0000 		.4byte	.LASF362
 5695 15c3 17       		.byte	0x17
 5696 15c4 43       		.byte	0x43
 5697 15c5 78010000 		.4byte	0x178
 5698 15c9 10       		.byte	0x10
 5699 15ca 00       		.byte	0
 5700 15cb 0B       		.uleb128 0xb
 5701 15cc 04       		.byte	0x4
 5702 15cd 77150000 		.4byte	0x1577
 5703 15d1 07       		.uleb128 0x7
 5704 15d2 41200000 		.4byte	.LASF363
 5705 15d6 04       		.byte	0x4
 5706 15d7 17       		.byte	0x17
 5707 15d8 4A       		.byte	0x4a
 5708 15d9 EA150000 		.4byte	0x15ea
 5709 15dd 08       		.uleb128 0x8
 5710 15de D01F0000 		.4byte	.LASF364
 5711 15e2 17       		.byte	0x17
 5712 15e3 4B       		.byte	0x4b
 5713 15e4 CB150000 		.4byte	0x15cb
 5714 15e8 00       		.byte	0
 5715 15e9 00       		.byte	0
 5716 15ea 03       		.uleb128 0x3
 5717 15eb 7C140000 		.4byte	.LASF365
 5718 15ef 17       		.byte	0x17
 5719 15f0 4E       		.byte	0x4e
 5720 15f1 D1150000 		.4byte	0x15d1
 5721 15f5 03       		.uleb128 0x3
 5722 15f6 F00E0000 		.4byte	.LASF366
 5723 15fa 18       		.byte	0x18
 5724 15fb 3F       		.byte	0x3f
 5725 15fc 00160000 		.4byte	0x1600
 5726 1600 07       		.uleb128 0x7
 5727 1601 17110000 		.4byte	.LASF367
 5728 1605 24       		.byte	0x24
 5729 1606 18       		.byte	0x18
 5730 1607 4D       		.byte	0x4d
 5731 1608 6D160000 		.4byte	0x166d
 5732 160c 08       		.uleb128 0x8
 5733 160d 631F0000 		.4byte	.LASF368
 5734 1611 18       		.byte	0x18
 5735 1612 4E       		.byte	0x4e
 5736 1613 07030000 		.4byte	0x307
 5737 1617 00       		.byte	0
 5738 1618 08       		.uleb128 0x8
 5739 1619 D91D0000 		.4byte	.LASF369
 5740 161d 18       		.byte	0x18
 5741 161e 4F       		.byte	0x4f
 5742 161f 2C000000 		.4byte	0x2c
ARM GAS  C:\Users\PCHAUT~1\AppData\Local\Temp\ccR4smAG.s 			page 102


 5743 1623 08       		.byte	0x8
 5744 1624 08       		.uleb128 0x8
 5745 1625 DB110000 		.4byte	.LASF370
 5746 1629 18       		.byte	0x18
 5747 162a 50       		.byte	0x50
 5748 162b 8F160000 		.4byte	0x168f
 5749 162f 0C       		.byte	0xc
 5750 1630 08       		.uleb128 0x8
 5751 1631 EA040000 		.4byte	.LASF371
 5752 1635 18       		.byte	0x18
 5753 1636 51       		.byte	0x51
 5754 1637 8F160000 		.4byte	0x168f
 5755 163b 10       		.byte	0x10
 5756 163c 08       		.uleb128 0x8
 5757 163d D6190000 		.4byte	.LASF372
 5758 1641 18       		.byte	0x18
 5759 1642 53       		.byte	0x53
 5760 1643 8F160000 		.4byte	0x168f
 5761 1647 14       		.byte	0x14
 5762 1648 08       		.uleb128 0x8
 5763 1649 97180000 		.4byte	.LASF373
 5764 164d 18       		.byte	0x18
 5765 164e 54       		.byte	0x54
 5766 164f 8F160000 		.4byte	0x168f
 5767 1653 18       		.byte	0x18
 5768 1654 08       		.uleb128 0x8
 5769 1655 F11C0000 		.4byte	.LASF374
 5770 1659 18       		.byte	0x18
 5771 165a 55       		.byte	0x55
 5772 165b 6D160000 		.4byte	0x166d
 5773 165f 1C       		.byte	0x1c
 5774 1660 08       		.uleb128 0x8
 5775 1661 AF1A0000 		.4byte	.LASF375
 5776 1665 18       		.byte	0x18
 5777 1666 56       		.byte	0x56
 5778 1667 BA030000 		.4byte	0x3ba
 5779 166b 20       		.byte	0x20
 5780 166c 00       		.byte	0
 5781 166d 03       		.uleb128 0x3
 5782 166e B0040000 		.4byte	.LASF376
 5783 1672 18       		.byte	0x18
 5784 1673 42       		.byte	0x42
 5785 1674 78160000 		.4byte	0x1678
 5786 1678 0B       		.uleb128 0xb
 5787 1679 04       		.byte	0x4
 5788 167a 7E160000 		.4byte	0x167e
 5789 167e 0D       		.uleb128 0xd
 5790 167f 89160000 		.4byte	0x1689
 5791 1683 0E       		.uleb128 0xe
 5792 1684 89160000 		.4byte	0x1689
 5793 1688 00       		.byte	0
 5794 1689 0B       		.uleb128 0xb
 5795 168a 04       		.byte	0x4
 5796 168b F5150000 		.4byte	0x15f5
 5797 168f 0B       		.uleb128 0xb
 5798 1690 04       		.byte	0x4
 5799 1691 BF000000 		.4byte	0xbf
ARM GAS  C:\Users\PCHAUT~1\AppData\Local\Temp\ccR4smAG.s 			page 103


 5800 1695 03       		.uleb128 0x3
 5801 1696 05060000 		.4byte	.LASF377
 5802 169a 18       		.byte	0x18
 5803 169b 64       		.byte	0x64
 5804 169c F5150000 		.4byte	0x15f5
 5805 16a0 03       		.uleb128 0x3
 5806 16a1 9A240000 		.4byte	.LASF378
 5807 16a5 18       		.byte	0x18
 5808 16a6 71       		.byte	0x71
 5809 16a7 F5150000 		.4byte	0x15f5
 5810 16ab 23       		.uleb128 0x23
 5811 16ac 2C000000 		.4byte	0x2c
 5812 16b0 C4160000 		.4byte	0x16c4
 5813 16b4 0E       		.uleb128 0xe
 5814 16b5 BA030000 		.4byte	0x3ba
 5815 16b9 0E       		.uleb128 0xe
 5816 16ba C4160000 		.4byte	0x16c4
 5817 16be 0E       		.uleb128 0xe
 5818 16bf 2C000000 		.4byte	0x2c
 5819 16c3 00       		.byte	0
 5820 16c4 0B       		.uleb128 0xb
 5821 16c5 04       		.byte	0x4
 5822 16c6 CA000000 		.4byte	0xca
 5823 16ca 0B       		.uleb128 0xb
 5824 16cb 04       		.byte	0x4
 5825 16cc AB160000 		.4byte	0x16ab
 5826 16d0 23       		.uleb128 0x23
 5827 16d1 2C000000 		.4byte	0x2c
 5828 16d5 E9160000 		.4byte	0x16e9
 5829 16d9 0E       		.uleb128 0xe
 5830 16da BA030000 		.4byte	0x3ba
 5831 16de 0E       		.uleb128 0xe
 5832 16df 8F160000 		.4byte	0x168f
 5833 16e3 0E       		.uleb128 0xe
 5834 16e4 2C000000 		.4byte	0x2c
 5835 16e8 00       		.byte	0
 5836 16e9 0B       		.uleb128 0xb
 5837 16ea 04       		.byte	0x4
 5838 16eb D0160000 		.4byte	0x16d0
 5839 16ef 23       		.uleb128 0x23
 5840 16f0 62010000 		.4byte	0x162
 5841 16f4 03170000 		.4byte	0x1703
 5842 16f8 0E       		.uleb128 0xe
 5843 16f9 BA030000 		.4byte	0x3ba
 5844 16fd 0E       		.uleb128 0xe
 5845 16fe BF000000 		.4byte	0xbf
 5846 1702 00       		.byte	0
 5847 1703 0B       		.uleb128 0xb
 5848 1704 04       		.byte	0x4
 5849 1705 EF160000 		.4byte	0x16ef
 5850 1709 23       		.uleb128 0x23
 5851 170a 62010000 		.4byte	0x162
 5852 170e 18170000 		.4byte	0x1718
 5853 1712 0E       		.uleb128 0xe
 5854 1713 BA030000 		.4byte	0x3ba
 5855 1717 00       		.byte	0
 5856 1718 0B       		.uleb128 0xb
ARM GAS  C:\Users\PCHAUT~1\AppData\Local\Temp\ccR4smAG.s 			page 104


 5857 1719 04       		.byte	0x4
 5858 171a 09170000 		.4byte	0x1709
 5859 171e 1A       		.uleb128 0x1a
 5860 171f 0C       		.byte	0xc
 5861 1720 19       		.byte	0x19
 5862 1721 DA       		.byte	0xda
 5863 1722 63170000 		.4byte	0x1763
 5864 1726 08       		.uleb128 0x8
 5865 1727 33240000 		.4byte	.LASF379
 5866 172b 19       		.byte	0x19
 5867 172c DB       		.byte	0xdb
 5868 172d 63170000 		.4byte	0x1763
 5869 1731 00       		.byte	0
 5870 1732 08       		.uleb128 0x8
 5871 1733 88100000 		.4byte	.LASF380
 5872 1737 19       		.byte	0x19
 5873 1738 DC       		.byte	0xdc
 5874 1739 69170000 		.4byte	0x1769
 5875 173d 04       		.byte	0x4
 5876 173e 08       		.uleb128 0x8
 5877 173f D7040000 		.4byte	.LASF381
 5878 1743 19       		.byte	0x19
 5879 1744 DD       		.byte	0xdd
 5880 1745 BF000000 		.4byte	0xbf
 5881 1749 08       		.byte	0x8
 5882 174a 08       		.uleb128 0x8
 5883 174b 191E0000 		.4byte	.LASF382
 5884 174f 19       		.byte	0x19
 5885 1750 DF       		.byte	0xdf
 5886 1751 BF000000 		.4byte	0xbf
 5887 1755 09       		.byte	0x9
 5888 1756 08       		.uleb128 0x8
 5889 1757 DB030000 		.4byte	.LASF383
 5890 175b 19       		.byte	0x19
 5891 175c E0       		.byte	0xe0
 5892 175d BF000000 		.4byte	0xbf
 5893 1761 0A       		.byte	0xa
 5894 1762 00       		.byte	0
 5895 1763 0B       		.uleb128 0xb
 5896 1764 04       		.byte	0x4
 5897 1765 F10B0000 		.4byte	0xbf1
 5898 1769 0B       		.uleb128 0xb
 5899 176a 04       		.byte	0x4
 5900 176b 00010000 		.4byte	0x100
 5901 176f 03       		.uleb128 0x3
 5902 1770 F2120000 		.4byte	.LASF384
 5903 1774 19       		.byte	0x19
 5904 1775 E1       		.byte	0xe1
 5905 1776 1E170000 		.4byte	0x171e
 5906 177a 05       		.uleb128 0x5
 5907 177b 6F170000 		.4byte	0x176f
 5908 177f 03       		.uleb128 0x3
 5909 1780 961A0000 		.4byte	.LASF385
 5910 1784 19       		.byte	0x19
 5911 1785 EA       		.byte	0xea
 5912 1786 8A170000 		.4byte	0x178a
 5913 178a 0B       		.uleb128 0xb
ARM GAS  C:\Users\PCHAUT~1\AppData\Local\Temp\ccR4smAG.s 			page 105


 5914 178b 04       		.byte	0x4
 5915 178c 90170000 		.4byte	0x1790
 5916 1790 0D       		.uleb128 0xd
 5917 1791 A0170000 		.4byte	0x17a0
 5918 1795 0E       		.uleb128 0xe
 5919 1796 BA030000 		.4byte	0x3ba
 5920 179a 0E       		.uleb128 0xe
 5921 179b F5000000 		.4byte	0xf5
 5922 179f 00       		.byte	0
 5923 17a0 16       		.uleb128 0x16
 5924 17a1 7A170000 		.4byte	0x177a
 5925 17a5 B0170000 		.4byte	0x17b0
 5926 17a9 17       		.uleb128 0x17
 5927 17aa 37000000 		.4byte	0x37
 5928 17ae 0F       		.byte	0xf
 5929 17af 00       		.byte	0
 5930 17b0 05       		.uleb128 0x5
 5931 17b1 A0170000 		.4byte	0x17a0
 5932 17b5 18       		.uleb128 0x18
 5933 17b6 431B0000 		.4byte	.LASF386
 5934 17ba 19       		.byte	0x19
 5935 17bb BB01     		.2byte	0x1bb
 5936 17bd B0170000 		.4byte	0x17b0
 5937 17c1 23       		.uleb128 0x23
 5938 17c2 62010000 		.4byte	0x162
 5939 17c6 DA170000 		.4byte	0x17da
 5940 17ca 0E       		.uleb128 0xe
 5941 17cb BA030000 		.4byte	0x3ba
 5942 17cf 0E       		.uleb128 0xe
 5943 17d0 BF000000 		.4byte	0xbf
 5944 17d4 0E       		.uleb128 0xe
 5945 17d5 99010000 		.4byte	0x199
 5946 17d9 00       		.byte	0
 5947 17da 0B       		.uleb128 0xb
 5948 17db 04       		.byte	0x4
 5949 17dc C1170000 		.4byte	0x17c1
 5950 17e0 23       		.uleb128 0x23
 5951 17e1 62010000 		.4byte	0x162
 5952 17e5 F4170000 		.4byte	0x17f4
 5953 17e9 0E       		.uleb128 0xe
 5954 17ea BA030000 		.4byte	0x3ba
 5955 17ee 0E       		.uleb128 0xe
 5956 17ef 99010000 		.4byte	0x199
 5957 17f3 00       		.byte	0
 5958 17f4 0B       		.uleb128 0xb
 5959 17f5 04       		.byte	0x4
 5960 17f6 E0170000 		.4byte	0x17e0
 5961 17fa 23       		.uleb128 0x23
 5962 17fb 2C000000 		.4byte	0x2c
 5963 17ff 18180000 		.4byte	0x1818
 5964 1803 0E       		.uleb128 0xe
 5965 1804 BA030000 		.4byte	0x3ba
 5966 1808 0E       		.uleb128 0xe
 5967 1809 C4160000 		.4byte	0x16c4
 5968 180d 0E       		.uleb128 0xe
 5969 180e 2C000000 		.4byte	0x2c
 5970 1812 0E       		.uleb128 0xe
ARM GAS  C:\Users\PCHAUT~1\AppData\Local\Temp\ccR4smAG.s 			page 106


 5971 1813 99010000 		.4byte	0x199
 5972 1817 00       		.byte	0
 5973 1818 0B       		.uleb128 0xb
 5974 1819 04       		.byte	0x4
 5975 181a FA170000 		.4byte	0x17fa
 5976 181e 23       		.uleb128 0x23
 5977 181f 2C000000 		.4byte	0x2c
 5978 1823 3C180000 		.4byte	0x183c
 5979 1827 0E       		.uleb128 0xe
 5980 1828 BA030000 		.4byte	0x3ba
 5981 182c 0E       		.uleb128 0xe
 5982 182d 8F160000 		.4byte	0x168f
 5983 1831 0E       		.uleb128 0xe
 5984 1832 2C000000 		.4byte	0x2c
 5985 1836 0E       		.uleb128 0xe
 5986 1837 99010000 		.4byte	0x199
 5987 183b 00       		.byte	0
 5988 183c 0B       		.uleb128 0xb
 5989 183d 04       		.byte	0x4
 5990 183e 1E180000 		.4byte	0x181e
 5991 1842 13       		.uleb128 0x13
 5992 1843 07       		.byte	0x7
 5993 1844 01       		.byte	0x1
 5994 1845 5E000000 		.4byte	0x5e
 5995 1849 1A       		.byte	0x1a
 5996 184a 28       		.byte	0x28
 5997 184b 86180000 		.4byte	0x1886
 5998 184f 15       		.uleb128 0x15
 5999 1850 BC010000 		.4byte	.LASF387
 6000 1854 00       		.byte	0
 6001 1855 15       		.uleb128 0x15
 6002 1856 B60F0000 		.4byte	.LASF388
 6003 185a 01       		.byte	0x1
 6004 185b 15       		.uleb128 0x15
 6005 185c 460C0000 		.4byte	.LASF389
 6006 1860 02       		.byte	0x2
 6007 1861 15       		.uleb128 0x15
 6008 1862 4D1C0000 		.4byte	.LASF390
 6009 1866 03       		.byte	0x3
 6010 1867 15       		.uleb128 0x15
 6011 1868 0A230000 		.4byte	.LASF391
 6012 186c 04       		.byte	0x4
 6013 186d 15       		.uleb128 0x15
 6014 186e E9070000 		.4byte	.LASF392
 6015 1872 05       		.byte	0x5
 6016 1873 15       		.uleb128 0x15
 6017 1874 F91D0000 		.4byte	.LASF393
 6018 1878 06       		.byte	0x6
 6019 1879 15       		.uleb128 0x15
 6020 187a FC180000 		.4byte	.LASF394
 6021 187e 07       		.byte	0x7
 6022 187f 15       		.uleb128 0x15
 6023 1880 CB220000 		.4byte	.LASF395
 6024 1884 08       		.byte	0x8
 6025 1885 00       		.byte	0
 6026 1886 03       		.uleb128 0x3
 6027 1887 85170000 		.4byte	.LASF396
ARM GAS  C:\Users\PCHAUT~1\AppData\Local\Temp\ccR4smAG.s 			page 107


 6028 188b 1A       		.byte	0x1a
 6029 188c 32       		.byte	0x32
 6030 188d 42180000 		.4byte	0x1842
 6031 1891 1A       		.uleb128 0x1a
 6032 1892 08       		.byte	0x8
 6033 1893 1A       		.byte	0x1a
 6034 1894 37       		.byte	0x37
 6035 1895 B2180000 		.4byte	0x18b2
 6036 1899 08       		.uleb128 0x8
 6037 189a 96070000 		.4byte	.LASF397
 6038 189e 1A       		.byte	0x1a
 6039 189f 38       		.byte	0x38
 6040 18a0 F5000000 		.4byte	0xf5
 6041 18a4 00       		.byte	0
 6042 18a5 08       		.uleb128 0x8
 6043 18a6 481D0000 		.4byte	.LASF398
 6044 18aa 1A       		.byte	0x1a
 6045 18ab 39       		.byte	0x39
 6046 18ac F5000000 		.4byte	0xf5
 6047 18b0 04       		.byte	0x4
 6048 18b1 00       		.byte	0
 6049 18b2 03       		.uleb128 0x3
 6050 18b3 7A1F0000 		.4byte	.LASF399
 6051 18b7 1A       		.byte	0x1a
 6052 18b8 3A       		.byte	0x3a
 6053 18b9 91180000 		.4byte	0x1891
 6054 18bd 23       		.uleb128 0x23
 6055 18be CC180000 		.4byte	0x18cc
 6056 18c2 CC180000 		.4byte	0x18cc
 6057 18c6 0E       		.uleb128 0xe
 6058 18c7 BA030000 		.4byte	0x3ba
 6059 18cb 00       		.byte	0
 6060 18cc 04       		.uleb128 0x4
 6061 18cd 01       		.byte	0x1
 6062 18ce 02       		.byte	0x2
 6063 18cf 67010000 		.4byte	.LASF400
 6064 18d3 0B       		.uleb128 0xb
 6065 18d4 04       		.byte	0x4
 6066 18d5 BD180000 		.4byte	0x18bd
 6067 18d9 23       		.uleb128 0x23
 6068 18da CC180000 		.4byte	0x18cc
 6069 18de F7180000 		.4byte	0x18f7
 6070 18e2 0E       		.uleb128 0xe
 6071 18e3 BA030000 		.4byte	0x3ba
 6072 18e7 0E       		.uleb128 0xe
 6073 18e8 F5000000 		.4byte	0xf5
 6074 18ec 0E       		.uleb128 0xe
 6075 18ed 8F160000 		.4byte	0x168f
 6076 18f1 0E       		.uleb128 0xe
 6077 18f2 F5000000 		.4byte	0xf5
 6078 18f6 00       		.byte	0
 6079 18f7 0B       		.uleb128 0xb
 6080 18f8 04       		.byte	0x4
 6081 18f9 D9180000 		.4byte	0x18d9
 6082 18fd 23       		.uleb128 0x23
 6083 18fe CC180000 		.4byte	0x18cc
 6084 1902 1B190000 		.4byte	0x191b
ARM GAS  C:\Users\PCHAUT~1\AppData\Local\Temp\ccR4smAG.s 			page 108


 6085 1906 0E       		.uleb128 0xe
 6086 1907 BA030000 		.4byte	0x3ba
 6087 190b 0E       		.uleb128 0xe
 6088 190c F5000000 		.4byte	0xf5
 6089 1910 0E       		.uleb128 0xe
 6090 1911 C4160000 		.4byte	0x16c4
 6091 1915 0E       		.uleb128 0xe
 6092 1916 F5000000 		.4byte	0xf5
 6093 191a 00       		.byte	0
 6094 191b 0B       		.uleb128 0xb
 6095 191c 04       		.byte	0x4
 6096 191d FD180000 		.4byte	0x18fd
 6097 1921 23       		.uleb128 0x23
 6098 1922 CC180000 		.4byte	0x18cc
 6099 1926 35190000 		.4byte	0x1935
 6100 192a 0E       		.uleb128 0xe
 6101 192b BA030000 		.4byte	0x3ba
 6102 192f 0E       		.uleb128 0xe
 6103 1930 35190000 		.4byte	0x1935
 6104 1934 00       		.byte	0
 6105 1935 0B       		.uleb128 0xb
 6106 1936 04       		.byte	0x4
 6107 1937 B2180000 		.4byte	0x18b2
 6108 193b 0B       		.uleb128 0xb
 6109 193c 04       		.byte	0x4
 6110 193d 21190000 		.4byte	0x1921
 6111 1941 16       		.uleb128 0x16
 6112 1942 F5000000 		.4byte	0xf5
 6113 1946 51190000 		.4byte	0x1951
 6114 194a 17       		.uleb128 0x17
 6115 194b 37000000 		.4byte	0x37
 6116 194f 03       		.byte	0x3
 6117 1950 00       		.byte	0
 6118 1951 1A       		.uleb128 0x1a
 6119 1952 04       		.byte	0x4
 6120 1953 1B       		.byte	0x1b
 6121 1954 B3       		.byte	0xb3
 6122 1955 72190000 		.4byte	0x1972
 6123 1959 1B       		.uleb128 0x1b
 6124 195a 73657400 		.ascii	"set\000"
 6125 195e 1B       		.byte	0x1b
 6126 195f B4       		.byte	0xb4
 6127 1960 DA000000 		.4byte	0xda
 6128 1964 00       		.byte	0
 6129 1965 08       		.uleb128 0x8
 6130 1966 E00D0000 		.4byte	.LASF401
 6131 196a 1B       		.byte	0x1b
 6132 196b B5       		.byte	0xb5
 6133 196c DA000000 		.4byte	0xda
 6134 1970 02       		.byte	0x2
 6135 1971 00       		.byte	0
 6136 1972 20       		.uleb128 0x20
 6137 1973 04       		.byte	0x4
 6138 1974 1B       		.byte	0x1b
 6139 1975 B1       		.byte	0xb1
 6140 1976 8D190000 		.4byte	0x198d
 6141 197a 24       		.uleb128 0x24
ARM GAS  C:\Users\PCHAUT~1\AppData\Local\Temp\ccR4smAG.s 			page 109


 6142 197b 5700     		.ascii	"W\000"
 6143 197d 1B       		.byte	0x1b
 6144 197e B2       		.byte	0xb2
 6145 197f F5000000 		.4byte	0xf5
 6146 1983 24       		.uleb128 0x24
 6147 1984 4800     		.ascii	"H\000"
 6148 1986 1B       		.byte	0x1b
 6149 1987 B6       		.byte	0xb6
 6150 1988 51190000 		.4byte	0x1951
 6151 198c 00       		.byte	0
 6152 198d 06       		.uleb128 0x6
 6153 198e 72190000 		.4byte	0x1972
 6154 1992 1A       		.uleb128 0x1a
 6155 1993 2C       		.byte	0x2c
 6156 1994 1B       		.byte	0x1b
 6157 1995 A9       		.byte	0xa9
 6158 1996 1F1A0000 		.4byte	0x1a1f
 6159 199a 08       		.uleb128 0x8
 6160 199b 441E0000 		.4byte	.LASF402
 6161 199f 1B       		.byte	0x1b
 6162 19a0 AB       		.byte	0xab
 6163 19a1 00010000 		.4byte	0x100
 6164 19a5 00       		.byte	0
 6165 19a6 08       		.uleb128 0x8
 6166 19a7 64030000 		.4byte	.LASF403
 6167 19ab 1B       		.byte	0x1b
 6168 19ac AC       		.byte	0xac
 6169 19ad 00010000 		.4byte	0x100
 6170 19b1 04       		.byte	0x4
 6171 19b2 08       		.uleb128 0x8
 6172 19b3 890F0000 		.4byte	.LASF404
 6173 19b7 1B       		.byte	0x1b
 6174 19b8 AD       		.byte	0xad
 6175 19b9 00010000 		.4byte	0x100
 6176 19bd 08       		.byte	0x8
 6177 19be 08       		.uleb128 0x8
 6178 19bf 851D0000 		.4byte	.LASF405
 6179 19c3 1B       		.byte	0x1b
 6180 19c4 AE       		.byte	0xae
 6181 19c5 00010000 		.4byte	0x100
 6182 19c9 0C       		.byte	0xc
 6183 19ca 1B       		.uleb128 0x1b
 6184 19cb 49445200 		.ascii	"IDR\000"
 6185 19cf 1B       		.byte	0x1b
 6186 19d0 AF       		.byte	0xaf
 6187 19d1 00010000 		.4byte	0x100
 6188 19d5 10       		.byte	0x10
 6189 19d6 1B       		.uleb128 0x1b
 6190 19d7 4F445200 		.ascii	"ODR\000"
 6191 19db 1B       		.byte	0x1b
 6192 19dc B0       		.byte	0xb0
 6193 19dd 00010000 		.4byte	0x100
 6194 19e1 14       		.byte	0x14
 6195 19e2 08       		.uleb128 0x8
 6196 19e3 ED120000 		.4byte	.LASF406
 6197 19e7 1B       		.byte	0x1b
 6198 19e8 B7       		.byte	0xb7
ARM GAS  C:\Users\PCHAUT~1\AppData\Local\Temp\ccR4smAG.s 			page 110


 6199 19e9 8D190000 		.4byte	0x198d
 6200 19ed 18       		.byte	0x18
 6201 19ee 08       		.uleb128 0x8
 6202 19ef C7180000 		.4byte	.LASF407
 6203 19f3 1B       		.byte	0x1b
 6204 19f4 B8       		.byte	0xb8
 6205 19f5 00010000 		.4byte	0x100
 6206 19f9 1C       		.byte	0x1c
 6207 19fa 08       		.uleb128 0x8
 6208 19fb 021C0000 		.4byte	.LASF408
 6209 19ff 1B       		.byte	0x1b
 6210 1a00 B9       		.byte	0xb9
 6211 1a01 00010000 		.4byte	0x100
 6212 1a05 20       		.byte	0x20
 6213 1a06 08       		.uleb128 0x8
 6214 1a07 FD1B0000 		.4byte	.LASF409
 6215 1a0b 1B       		.byte	0x1b
 6216 1a0c BA       		.byte	0xba
 6217 1a0d 00010000 		.4byte	0x100
 6218 1a11 24       		.byte	0x24
 6219 1a12 1B       		.uleb128 0x1b
 6220 1a13 42525200 		.ascii	"BRR\000"
 6221 1a17 1B       		.byte	0x1b
 6222 1a18 BB       		.byte	0xbb
 6223 1a19 00010000 		.4byte	0x100
 6224 1a1d 28       		.byte	0x28
 6225 1a1e 00       		.byte	0
 6226 1a1f 03       		.uleb128 0x3
 6227 1a20 98100000 		.4byte	.LASF410
 6228 1a24 1B       		.byte	0x1b
 6229 1a25 BC       		.byte	0xbc
 6230 1a26 92190000 		.4byte	0x1992
 6231 1a2a 1A       		.uleb128 0x1a
 6232 1a2b 1C       		.byte	0x1c
 6233 1a2c 1B       		.byte	0x1b
 6234 1a2d C1       		.byte	0xc1
 6235 1a2e 871A0000 		.4byte	0x1a87
 6236 1a32 08       		.uleb128 0x8
 6237 1a33 8D210000 		.4byte	.LASF411
 6238 1a37 1B       		.byte	0x1b
 6239 1a38 C3       		.byte	0xc3
 6240 1a39 F5000000 		.4byte	0xf5
 6241 1a3d 00       		.byte	0
 6242 1a3e 08       		.uleb128 0x8
 6243 1a3f 54030000 		.4byte	.LASF412
 6244 1a43 1B       		.byte	0x1b
 6245 1a44 C5       		.byte	0xc5
 6246 1a45 F5000000 		.4byte	0xf5
 6247 1a49 04       		.byte	0x4
 6248 1a4a 08       		.uleb128 0x8
 6249 1a4b AD020000 		.4byte	.LASF413
 6250 1a4f 1B       		.byte	0x1b
 6251 1a50 C7       		.byte	0xc7
 6252 1a51 F5000000 		.4byte	0xf5
 6253 1a55 08       		.byte	0x8
 6254 1a56 08       		.uleb128 0x8
 6255 1a57 86200000 		.4byte	.LASF414
ARM GAS  C:\Users\PCHAUT~1\AppData\Local\Temp\ccR4smAG.s 			page 111


 6256 1a5b 1B       		.byte	0x1b
 6257 1a5c C9       		.byte	0xc9
 6258 1a5d F5000000 		.4byte	0xf5
 6259 1a61 0C       		.byte	0xc
 6260 1a62 1B       		.uleb128 0x1b
 6261 1a63 6F647200 		.ascii	"odr\000"
 6262 1a67 1B       		.byte	0x1b
 6263 1a68 CB       		.byte	0xcb
 6264 1a69 F5000000 		.4byte	0xf5
 6265 1a6d 10       		.byte	0x10
 6266 1a6e 08       		.uleb128 0x8
 6267 1a6f 051E0000 		.4byte	.LASF415
 6268 1a73 1B       		.byte	0x1b
 6269 1a74 CD       		.byte	0xcd
 6270 1a75 F5000000 		.4byte	0xf5
 6271 1a79 14       		.byte	0x14
 6272 1a7a 08       		.uleb128 0x8
 6273 1a7b 84000000 		.4byte	.LASF416
 6274 1a7f 1B       		.byte	0x1b
 6275 1a80 CF       		.byte	0xcf
 6276 1a81 F5000000 		.4byte	0xf5
 6277 1a85 18       		.byte	0x18
 6278 1a86 00       		.byte	0
 6279 1a87 03       		.uleb128 0x3
 6280 1a88 301B0000 		.4byte	.LASF417
 6281 1a8c 1B       		.byte	0x1b
 6282 1a8d D0       		.byte	0xd0
 6283 1a8e 2A1A0000 		.4byte	0x1a2a
 6284 1a92 1A       		.uleb128 0x1a
 6285 1a93 FC       		.byte	0xfc
 6286 1a94 1B       		.byte	0x1b
 6287 1a95 D9       		.byte	0xd9
 6288 1a96 071B0000 		.4byte	0x1b07
 6289 1a9a 08       		.uleb128 0x8
 6290 1a9b 20110000 		.4byte	.LASF418
 6291 1a9f 1B       		.byte	0x1b
 6292 1aa0 DC       		.byte	0xdc
 6293 1aa1 871A0000 		.4byte	0x1a87
 6294 1aa5 00       		.byte	0
 6295 1aa6 08       		.uleb128 0x8
 6296 1aa7 3D030000 		.4byte	.LASF419
 6297 1aab 1B       		.byte	0x1b
 6298 1aac E0       		.byte	0xe0
 6299 1aad 871A0000 		.4byte	0x1a87
 6300 1ab1 1C       		.byte	0x1c
 6301 1ab2 08       		.uleb128 0x8
 6302 1ab3 2B020000 		.4byte	.LASF420
 6303 1ab7 1B       		.byte	0x1b
 6304 1ab8 E4       		.byte	0xe4
 6305 1ab9 871A0000 		.4byte	0x1a87
 6306 1abd 38       		.byte	0x38
 6307 1abe 08       		.uleb128 0x8
 6308 1abf D40E0000 		.4byte	.LASF421
 6309 1ac3 1B       		.byte	0x1b
 6310 1ac4 E8       		.byte	0xe8
 6311 1ac5 871A0000 		.4byte	0x1a87
 6312 1ac9 54       		.byte	0x54
ARM GAS  C:\Users\PCHAUT~1\AppData\Local\Temp\ccR4smAG.s 			page 112


 6313 1aca 08       		.uleb128 0x8
 6314 1acb 461A0000 		.4byte	.LASF422
 6315 1acf 1B       		.byte	0x1b
 6316 1ad0 EC       		.byte	0xec
 6317 1ad1 871A0000 		.4byte	0x1a87
 6318 1ad5 70       		.byte	0x70
 6319 1ad6 08       		.uleb128 0x8
 6320 1ad7 3A250000 		.4byte	.LASF423
 6321 1adb 1B       		.byte	0x1b
 6322 1adc F0       		.byte	0xf0
 6323 1add 871A0000 		.4byte	0x1a87
 6324 1ae1 8C       		.byte	0x8c
 6325 1ae2 08       		.uleb128 0x8
 6326 1ae3 CA0C0000 		.4byte	.LASF424
 6327 1ae7 1B       		.byte	0x1b
 6328 1ae8 F4       		.byte	0xf4
 6329 1ae9 871A0000 		.4byte	0x1a87
 6330 1aed A8       		.byte	0xa8
 6331 1aee 08       		.uleb128 0x8
 6332 1aef 33180000 		.4byte	.LASF425
 6333 1af3 1B       		.byte	0x1b
 6334 1af4 F8       		.byte	0xf8
 6335 1af5 871A0000 		.4byte	0x1a87
 6336 1af9 C4       		.byte	0xc4
 6337 1afa 08       		.uleb128 0x8
 6338 1afb D7220000 		.4byte	.LASF426
 6339 1aff 1B       		.byte	0x1b
 6340 1b00 FC       		.byte	0xfc
 6341 1b01 871A0000 		.4byte	0x1a87
 6342 1b05 E0       		.byte	0xe0
 6343 1b06 00       		.byte	0
 6344 1b07 03       		.uleb128 0x3
 6345 1b08 290C0000 		.4byte	.LASF427
 6346 1b0c 1B       		.byte	0x1b
 6347 1b0d FE       		.byte	0xfe
 6348 1b0e 921A0000 		.4byte	0x1a92
 6349 1b12 05       		.uleb128 0x5
 6350 1b13 071B0000 		.4byte	0x1b07
 6351 1b17 1D       		.uleb128 0x1d
 6352 1b18 3A180000 		.4byte	.LASF428
 6353 1b1c 1B       		.byte	0x1b
 6354 1b1d 1B01     		.2byte	0x11b
 6355 1b1f 231B0000 		.4byte	0x1b23
 6356 1b23 0B       		.uleb128 0xb
 6357 1b24 04       		.byte	0x4
 6358 1b25 1F1A0000 		.4byte	0x1a1f
 6359 1b29 18       		.uleb128 0x18
 6360 1b2a FA1E0000 		.4byte	.LASF429
 6361 1b2e 1B       		.byte	0x1b
 6362 1b2f DA01     		.2byte	0x1da
 6363 1b31 121B0000 		.4byte	0x1b12
 6364 1b35 13       		.uleb128 0x13
 6365 1b36 07       		.byte	0x7
 6366 1b37 01       		.byte	0x1
 6367 1b38 5E000000 		.4byte	0x5e
 6368 1b3c 1C       		.byte	0x1c
 6369 1b3d 46       		.byte	0x46
ARM GAS  C:\Users\PCHAUT~1\AppData\Local\Temp\ccR4smAG.s 			page 113


 6370 1b3e 671B0000 		.4byte	0x1b67
 6371 1b42 15       		.uleb128 0x15
 6372 1b43 92080000 		.4byte	.LASF430
 6373 1b47 00       		.byte	0
 6374 1b48 15       		.uleb128 0x15
 6375 1b49 3C150000 		.4byte	.LASF431
 6376 1b4d 01       		.byte	0x1
 6377 1b4e 15       		.uleb128 0x15
 6378 1b4f 0D210000 		.4byte	.LASF432
 6379 1b53 02       		.byte	0x2
 6380 1b54 15       		.uleb128 0x15
 6381 1b55 D3120000 		.4byte	.LASF433
 6382 1b59 03       		.byte	0x3
 6383 1b5a 15       		.uleb128 0x15
 6384 1b5b E8060000 		.4byte	.LASF434
 6385 1b5f 04       		.byte	0x4
 6386 1b60 15       		.uleb128 0x15
 6387 1b61 A9120000 		.4byte	.LASF435
 6388 1b65 05       		.byte	0x5
 6389 1b66 00       		.byte	0
 6390 1b67 03       		.uleb128 0x3
 6391 1b68 BA040000 		.4byte	.LASF436
 6392 1b6c 1C       		.byte	0x1c
 6393 1b6d 4D       		.byte	0x4d
 6394 1b6e 351B0000 		.4byte	0x1b35
 6395 1b72 1D       		.uleb128 0x1d
 6396 1b73 C1110000 		.4byte	.LASF437
 6397 1b77 1D       		.byte	0x1d
 6398 1b78 2701     		.2byte	0x127
 6399 1b7a DA000000 		.4byte	0xda
 6400 1b7e 1D       		.uleb128 0x1d
 6401 1b7f 811C0000 		.4byte	.LASF438
 6402 1b83 1D       		.byte	0x1d
 6403 1b84 2C01     		.2byte	0x12c
 6404 1b86 DA000000 		.4byte	0xda
 6405 1b8a 25       		.uleb128 0x25
 6406 1b8b 07       		.byte	0x7
 6407 1b8c 01       		.byte	0x1
 6408 1b8d 5E000000 		.4byte	0x5e
 6409 1b91 1D       		.byte	0x1d
 6410 1b92 3301     		.2byte	0x133
 6411 1b94 A51B0000 		.4byte	0x1ba5
 6412 1b98 15       		.uleb128 0x15
 6413 1b99 5A0F0000 		.4byte	.LASF439
 6414 1b9d 00       		.byte	0
 6415 1b9e 15       		.uleb128 0x15
 6416 1b9f D1020000 		.4byte	.LASF440
 6417 1ba3 01       		.byte	0x1
 6418 1ba4 00       		.byte	0
 6419 1ba5 1D       		.uleb128 0x1d
 6420 1ba6 32220000 		.4byte	.LASF441
 6421 1baa 1D       		.byte	0x1d
 6422 1bab 3601     		.2byte	0x136
 6423 1bad 8A1B0000 		.4byte	0x1b8a
 6424 1bb1 1D       		.uleb128 0x1d
 6425 1bb2 FE0F0000 		.4byte	.LASF442
 6426 1bb6 1D       		.byte	0x1d
ARM GAS  C:\Users\PCHAUT~1\AppData\Local\Temp\ccR4smAG.s 			page 114


 6427 1bb7 3B01     		.2byte	0x13b
 6428 1bb9 BD1B0000 		.4byte	0x1bbd
 6429 1bbd 0C       		.uleb128 0xc
 6430 1bbe FE0F0000 		.4byte	.LASF442
 6431 1bc2 38       		.byte	0x38
 6432 1bc3 1D       		.byte	0x1d
 6433 1bc4 9F01     		.2byte	0x19f
 6434 1bc6 4D1C0000 		.4byte	0x1c4d
 6435 1bca 0A       		.uleb128 0xa
 6436 1bcb 3C020000 		.4byte	.LASF443
 6437 1bcf 1D       		.byte	0x1d
 6438 1bd0 A301     		.2byte	0x1a3
 6439 1bd2 671B0000 		.4byte	0x1b67
 6440 1bd6 00       		.byte	0
 6441 1bd7 0A       		.uleb128 0xa
 6442 1bd8 341C0000 		.4byte	.LASF444
 6443 1bdc 1D       		.byte	0x1d
 6444 1bdd A701     		.2byte	0x1a7
 6445 1bdf 741D0000 		.4byte	0x1d74
 6446 1be3 04       		.byte	0x4
 6447 1be4 0A       		.uleb128 0xa
 6448 1be5 47020000 		.4byte	.LASF445
 6449 1be9 1D       		.byte	0x1d
 6450 1bea AB01     		.2byte	0x1ab
 6451 1bec 7A1C0000 		.4byte	0x1c7a
 6452 1bf0 08       		.byte	0x8
 6453 1bf1 0A       		.uleb128 0xa
 6454 1bf2 4E190000 		.4byte	.LASF446
 6455 1bf6 1D       		.byte	0x1d
 6456 1bf7 AF01     		.2byte	0x1af
 6457 1bf9 2C000000 		.4byte	0x2c
 6458 1bfd 0C       		.byte	0xc
 6459 1bfe 0A       		.uleb128 0xa
 6460 1bff 0D1F0000 		.4byte	.LASF447
 6461 1c03 1D       		.byte	0x1d
 6462 1c04 B301     		.2byte	0x1b3
 6463 1c06 7A1D0000 		.4byte	0x1d7a
 6464 1c0a 10       		.byte	0x10
 6465 1c0b 0A       		.uleb128 0xa
 6466 1c0c 6D070000 		.4byte	.LASF448
 6467 1c10 1D       		.byte	0x1d
 6468 1c11 B801     		.2byte	0x1b8
 6469 1c13 D2020000 		.4byte	0x2d2
 6470 1c17 14       		.byte	0x14
 6471 1c18 0A       		.uleb128 0xa
 6472 1c19 B10D0000 		.4byte	.LASF449
 6473 1c1d 1D       		.byte	0x1d
 6474 1c1e BE01     		.2byte	0x1be
 6475 1c20 66150000 		.4byte	0x1566
 6476 1c24 18       		.byte	0x18
 6477 1c25 09       		.uleb128 0x9
 6478 1c26 61646300 		.ascii	"adc\000"
 6479 1c2a 1D       		.byte	0x1d
 6480 1c2b C701     		.2byte	0x1c7
 6481 1c2d 801D0000 		.4byte	0x1d80
 6482 1c31 2C       		.byte	0x2c
 6483 1c32 0A       		.uleb128 0xa
ARM GAS  C:\Users\PCHAUT~1\AppData\Local\Temp\ccR4smAG.s 			page 115


 6484 1c33 D00B0000 		.4byte	.LASF450
 6485 1c37 1D       		.byte	0x1d
 6486 1c38 CB01     		.2byte	0x1cb
 6487 1c3a 861D0000 		.4byte	0x1d86
 6488 1c3e 30       		.byte	0x30
 6489 1c3f 0A       		.uleb128 0xa
 6490 1c40 69180000 		.4byte	.LASF451
 6491 1c44 1D       		.byte	0x1d
 6492 1c45 CF01     		.2byte	0x1cf
 6493 1c47 F5000000 		.4byte	0xf5
 6494 1c4b 34       		.byte	0x34
 6495 1c4c 00       		.byte	0
 6496 1c4d 1D       		.uleb128 0x1d
 6497 1c4e 7B1B0000 		.4byte	.LASF452
 6498 1c52 1D       		.byte	0x1d
 6499 1c53 4501     		.2byte	0x145
 6500 1c55 591C0000 		.4byte	0x1c59
 6501 1c59 0B       		.uleb128 0xb
 6502 1c5a 04       		.byte	0x4
 6503 1c5b 5F1C0000 		.4byte	0x1c5f
 6504 1c5f 0D       		.uleb128 0xd
 6505 1c60 741C0000 		.4byte	0x1c74
 6506 1c64 0E       		.uleb128 0xe
 6507 1c65 741C0000 		.4byte	0x1c74
 6508 1c69 0E       		.uleb128 0xe
 6509 1c6a 7A1C0000 		.4byte	0x1c7a
 6510 1c6e 0E       		.uleb128 0xe
 6511 1c6f 2C000000 		.4byte	0x2c
 6512 1c73 00       		.byte	0
 6513 1c74 0B       		.uleb128 0xb
 6514 1c75 04       		.byte	0x4
 6515 1c76 B11B0000 		.4byte	0x1bb1
 6516 1c7a 0B       		.uleb128 0xb
 6517 1c7b 04       		.byte	0x4
 6518 1c7c 721B0000 		.4byte	0x1b72
 6519 1c80 1D       		.uleb128 0x1d
 6520 1c81 09160000 		.4byte	.LASF453
 6521 1c85 1D       		.byte	0x1d
 6522 1c86 4E01     		.2byte	0x14e
 6523 1c88 8C1C0000 		.4byte	0x1c8c
 6524 1c8c 0B       		.uleb128 0xb
 6525 1c8d 04       		.byte	0x4
 6526 1c8e 921C0000 		.4byte	0x1c92
 6527 1c92 0D       		.uleb128 0xd
 6528 1c93 A21C0000 		.4byte	0x1ca2
 6529 1c97 0E       		.uleb128 0xe
 6530 1c98 741C0000 		.4byte	0x1c74
 6531 1c9c 0E       		.uleb128 0xe
 6532 1c9d A51B0000 		.4byte	0x1ba5
 6533 1ca1 00       		.byte	0
 6534 1ca2 1C       		.uleb128 0x1c
 6535 1ca3 28       		.byte	0x28
 6536 1ca4 1D       		.byte	0x1d
 6537 1ca5 5801     		.2byte	0x158
 6538 1ca7 3B1D0000 		.4byte	0x1d3b
 6539 1cab 0A       		.uleb128 0xa
 6540 1cac 77210000 		.4byte	.LASF454
ARM GAS  C:\Users\PCHAUT~1\AppData\Local\Temp\ccR4smAG.s 			page 116


 6541 1cb0 1D       		.byte	0x1d
 6542 1cb1 5C01     		.2byte	0x15c
 6543 1cb3 CC180000 		.4byte	0x18cc
 6544 1cb7 00       		.byte	0
 6545 1cb8 0A       		.uleb128 0xa
 6546 1cb9 E2100000 		.4byte	.LASF455
 6547 1cbd 1D       		.byte	0x1d
 6548 1cbe 6001     		.2byte	0x160
 6549 1cc0 7E1B0000 		.4byte	0x1b7e
 6550 1cc4 02       		.byte	0x2
 6551 1cc5 0A       		.uleb128 0xa
 6552 1cc6 990A0000 		.4byte	.LASF456
 6553 1cca 1D       		.byte	0x1d
 6554 1ccb 6401     		.2byte	0x164
 6555 1ccd 4D1C0000 		.4byte	0x1c4d
 6556 1cd1 04       		.byte	0x4
 6557 1cd2 0A       		.uleb128 0xa
 6558 1cd3 01230000 		.4byte	.LASF457
 6559 1cd7 1D       		.byte	0x1d
 6560 1cd8 6801     		.2byte	0x168
 6561 1cda 801C0000 		.4byte	0x1c80
 6562 1cde 08       		.byte	0x8
 6563 1cdf 09       		.uleb128 0x9
 6564 1ce0 63723100 		.ascii	"cr1\000"
 6565 1ce4 1D       		.byte	0x1d
 6566 1ce5 6F01     		.2byte	0x16f
 6567 1ce7 F5000000 		.4byte	0xf5
 6568 1ceb 0C       		.byte	0xc
 6569 1cec 09       		.uleb128 0x9
 6570 1ced 63723200 		.ascii	"cr2\000"
 6571 1cf1 1D       		.byte	0x1d
 6572 1cf2 7601     		.2byte	0x176
 6573 1cf4 F5000000 		.4byte	0xf5
 6574 1cf8 10       		.byte	0x10
 6575 1cf9 0A       		.uleb128 0xa
 6576 1cfa 69170000 		.4byte	.LASF458
 6577 1cfe 1D       		.byte	0x1d
 6578 1cff 7C01     		.2byte	0x17c
 6579 1d01 F5000000 		.4byte	0xf5
 6580 1d05 14       		.byte	0x14
 6581 1d06 0A       		.uleb128 0xa
 6582 1d07 6F170000 		.4byte	.LASF459
 6583 1d0b 1D       		.byte	0x1d
 6584 1d0c 8201     		.2byte	0x182
 6585 1d0e F5000000 		.4byte	0xf5
 6586 1d12 18       		.byte	0x18
 6587 1d13 0A       		.uleb128 0xa
 6588 1d14 B7010000 		.4byte	.LASF460
 6589 1d18 1D       		.byte	0x1d
 6590 1d19 8701     		.2byte	0x187
 6591 1d1b F5000000 		.4byte	0xf5
 6592 1d1f 1C       		.byte	0x1c
 6593 1d20 0A       		.uleb128 0xa
 6594 1d21 19240000 		.4byte	.LASF461
 6595 1d25 1D       		.byte	0x1d
 6596 1d26 8C01     		.2byte	0x18c
 6597 1d28 F5000000 		.4byte	0xf5
ARM GAS  C:\Users\PCHAUT~1\AppData\Local\Temp\ccR4smAG.s 			page 117


 6598 1d2c 20       		.byte	0x20
 6599 1d2d 0A       		.uleb128 0xa
 6600 1d2e 1E240000 		.4byte	.LASF462
 6601 1d32 1D       		.byte	0x1d
 6602 1d33 9101     		.2byte	0x191
 6603 1d35 F5000000 		.4byte	0xf5
 6604 1d39 24       		.byte	0x24
 6605 1d3a 00       		.byte	0
 6606 1d3b 1D       		.uleb128 0x1d
 6607 1d3c 13060000 		.4byte	.LASF463
 6608 1d40 1D       		.byte	0x1d
 6609 1d41 9201     		.2byte	0x192
 6610 1d43 A21C0000 		.4byte	0x1ca2
 6611 1d47 05       		.uleb128 0x5
 6612 1d48 3B1D0000 		.4byte	0x1d3b
 6613 1d4c 1C       		.uleb128 0x1c
 6614 1d4d 04       		.byte	0x4
 6615 1d4e 1D       		.byte	0x1d
 6616 1d4f 9801     		.2byte	0x198
 6617 1d51 631D0000 		.4byte	0x1d63
 6618 1d55 0A       		.uleb128 0xa
 6619 1d56 3A240000 		.4byte	.LASF464
 6620 1d5a 1D       		.byte	0x1d
 6621 1d5b 9901     		.2byte	0x199
 6622 1d5d F5000000 		.4byte	0xf5
 6623 1d61 00       		.byte	0
 6624 1d62 00       		.byte	0
 6625 1d63 1D       		.uleb128 0x1d
 6626 1d64 16100000 		.4byte	.LASF465
 6627 1d68 1D       		.byte	0x1d
 6628 1d69 9A01     		.2byte	0x19a
 6629 1d6b 4C1D0000 		.4byte	0x1d4c
 6630 1d6f 05       		.uleb128 0x5
 6631 1d70 631D0000 		.4byte	0x1d63
 6632 1d74 0B       		.uleb128 0xb
 6633 1d75 04       		.byte	0x4
 6634 1d76 6F1D0000 		.4byte	0x1d6f
 6635 1d7a 0B       		.uleb128 0xb
 6636 1d7b 04       		.byte	0x4
 6637 1d7c 471D0000 		.4byte	0x1d47
 6638 1d80 0B       		.uleb128 0xb
 6639 1d81 04       		.byte	0x4
 6640 1d82 7B080000 		.4byte	0x87b
 6641 1d86 0B       		.uleb128 0xb
 6642 1d87 04       		.byte	0x4
 6643 1d88 7A170000 		.4byte	0x177a
 6644 1d8c 18       		.uleb128 0x18
 6645 1d8d 45180000 		.4byte	.LASF466
 6646 1d91 1D       		.byte	0x1d
 6647 1d92 1402     		.2byte	0x214
 6648 1d94 B11B0000 		.4byte	0x1bb1
 6649 1d98 18       		.uleb128 0x18
 6650 1d99 4B180000 		.4byte	.LASF467
 6651 1d9d 1D       		.byte	0x1d
 6652 1d9e 1802     		.2byte	0x218
 6653 1da0 B11B0000 		.4byte	0x1bb1
 6654 1da4 18       		.uleb128 0x18
ARM GAS  C:\Users\PCHAUT~1\AppData\Local\Temp\ccR4smAG.s 			page 118


 6655 1da5 51180000 		.4byte	.LASF468
 6656 1da9 1D       		.byte	0x1d
 6657 1daa 1C02     		.2byte	0x21c
 6658 1dac B11B0000 		.4byte	0x1bb1
 6659 1db0 13       		.uleb128 0x13
 6660 1db1 07       		.byte	0x7
 6661 1db2 01       		.byte	0x1
 6662 1db3 5E000000 		.4byte	0x5e
 6663 1db7 1E       		.byte	0x1e
 6664 1db8 5F       		.byte	0x5f
 6665 1db9 DC1D0000 		.4byte	0x1ddc
 6666 1dbd 15       		.uleb128 0x15
 6667 1dbe 4B0B0000 		.4byte	.LASF469
 6668 1dc2 00       		.byte	0
 6669 1dc3 15       		.uleb128 0x15
 6670 1dc4 0F010000 		.4byte	.LASF470
 6671 1dc8 01       		.byte	0x1
 6672 1dc9 15       		.uleb128 0x15
 6673 1dca 68000000 		.4byte	.LASF471
 6674 1dce 02       		.byte	0x2
 6675 1dcf 15       		.uleb128 0x15
 6676 1dd0 3A060000 		.4byte	.LASF472
 6677 1dd4 03       		.byte	0x3
 6678 1dd5 15       		.uleb128 0x15
 6679 1dd6 380B0000 		.4byte	.LASF473
 6680 1dda 04       		.byte	0x4
 6681 1ddb 00       		.byte	0
 6682 1ddc 03       		.uleb128 0x3
 6683 1ddd 950E0000 		.4byte	.LASF474
 6684 1de1 1E       		.byte	0x1e
 6685 1de2 65       		.byte	0x65
 6686 1de3 B01D0000 		.4byte	0x1db0
 6687 1de7 16       		.uleb128 0x16
 6688 1de8 BF000000 		.4byte	0xbf
 6689 1dec F71D0000 		.4byte	0x1df7
 6690 1df0 17       		.uleb128 0x17
 6691 1df1 37000000 		.4byte	0x37
 6692 1df5 07       		.byte	0x7
 6693 1df6 00       		.byte	0
 6694 1df7 1A       		.uleb128 0x1a
 6695 1df8 08       		.byte	0x8
 6696 1df9 1F       		.byte	0x1f
 6697 1dfa F4       		.byte	0xf4
 6698 1dfb 191E0000 		.4byte	0x1e19
 6699 1dff 1B       		.uleb128 0x1b
 6700 1e00 6D637200 		.ascii	"mcr\000"
 6701 1e04 1F       		.byte	0x1f
 6702 1e05 FA       		.byte	0xfa
 6703 1e06 F5000000 		.4byte	0xf5
 6704 1e0a 00       		.byte	0
 6705 1e0b 09       		.uleb128 0x9
 6706 1e0c 62747200 		.ascii	"btr\000"
 6707 1e10 1F       		.byte	0x1f
 6708 1e11 0001     		.2byte	0x100
 6709 1e13 F5000000 		.4byte	0xf5
 6710 1e17 04       		.byte	0x4
 6711 1e18 00       		.byte	0
ARM GAS  C:\Users\PCHAUT~1\AppData\Local\Temp\ccR4smAG.s 			page 119


 6712 1e19 1D       		.uleb128 0x1d
 6713 1e1a 3C1A0000 		.4byte	.LASF475
 6714 1e1e 1F       		.byte	0x1f
 6715 1e1f 0101     		.2byte	0x101
 6716 1e21 F71D0000 		.4byte	0x1df7
 6717 1e25 05       		.uleb128 0x5
 6718 1e26 191E0000 		.4byte	0x1e19
 6719 1e2a 1C       		.uleb128 0x1c
 6720 1e2b 30       		.byte	0x30
 6721 1e2c 1F       		.byte	0x1f
 6722 1e2d 0601     		.2byte	0x106
 6723 1e2f B61E0000 		.4byte	0x1eb6
 6724 1e33 0A       		.uleb128 0xa
 6725 1e34 3C020000 		.4byte	.LASF443
 6726 1e38 1F       		.byte	0x1f
 6727 1e39 0A01     		.2byte	0x10a
 6728 1e3b DC1D0000 		.4byte	0x1ddc
 6729 1e3f 00       		.byte	0
 6730 1e40 0A       		.uleb128 0xa
 6731 1e41 341C0000 		.4byte	.LASF444
 6732 1e45 1F       		.byte	0x1f
 6733 1e46 0E01     		.2byte	0x10e
 6734 1e48 B61E0000 		.4byte	0x1eb6
 6735 1e4c 04       		.byte	0x4
 6736 1e4d 0A       		.uleb128 0xa
 6737 1e4e C60A0000 		.4byte	.LASF476
 6738 1e52 1F       		.byte	0x1f
 6739 1e53 1201     		.2byte	0x112
 6740 1e55 07030000 		.4byte	0x307
 6741 1e59 08       		.byte	0x8
 6742 1e5a 0A       		.uleb128 0xa
 6743 1e5b E11E0000 		.4byte	.LASF477
 6744 1e5f 1F       		.byte	0x1f
 6745 1e60 1601     		.2byte	0x116
 6746 1e62 07030000 		.4byte	0x307
 6747 1e66 10       		.byte	0x10
 6748 1e67 0A       		.uleb128 0xa
 6749 1e68 131A0000 		.4byte	.LASF478
 6750 1e6c 1F       		.byte	0x1f
 6751 1e6d 2301     		.2byte	0x123
 6752 1e6f EA150000 		.4byte	0x15ea
 6753 1e73 18       		.byte	0x18
 6754 1e74 0A       		.uleb128 0xa
 6755 1e75 A90C0000 		.4byte	.LASF479
 6756 1e79 1F       		.byte	0x1f
 6757 1e7a 2A01     		.2byte	0x12a
 6758 1e7c EA150000 		.4byte	0x15ea
 6759 1e80 1C       		.byte	0x1c
 6760 1e81 0A       		.uleb128 0xa
 6761 1e82 D6100000 		.4byte	.LASF480
 6762 1e86 1F       		.byte	0x1f
 6763 1e87 3001     		.2byte	0x130
 6764 1e89 EA150000 		.4byte	0x15ea
 6765 1e8d 20       		.byte	0x20
 6766 1e8e 0A       		.uleb128 0xa
 6767 1e8f B8030000 		.4byte	.LASF481
 6768 1e93 1F       		.byte	0x1f
ARM GAS  C:\Users\PCHAUT~1\AppData\Local\Temp\ccR4smAG.s 			page 120


 6769 1e94 3501     		.2byte	0x135
 6770 1e96 EA150000 		.4byte	0x15ea
 6771 1e9a 24       		.byte	0x24
 6772 1e9b 0A       		.uleb128 0xa
 6773 1e9c 7C0A0000 		.4byte	.LASF482
 6774 1ea0 1F       		.byte	0x1f
 6775 1ea1 3901     		.2byte	0x139
 6776 1ea3 EA150000 		.4byte	0x15ea
 6777 1ea7 28       		.byte	0x28
 6778 1ea8 09       		.uleb128 0x9
 6779 1ea9 63616E00 		.ascii	"can\000"
 6780 1ead 1F       		.byte	0x1f
 6781 1eae 3F01     		.2byte	0x13f
 6782 1eb0 BC1E0000 		.4byte	0x1ebc
 6783 1eb4 2C       		.byte	0x2c
 6784 1eb5 00       		.byte	0
 6785 1eb6 0B       		.uleb128 0xb
 6786 1eb7 04       		.byte	0x4
 6787 1eb8 251E0000 		.4byte	0x1e25
 6788 1ebc 0B       		.uleb128 0xb
 6789 1ebd 04       		.byte	0x4
 6790 1ebe C40A0000 		.4byte	0xac4
 6791 1ec2 1D       		.uleb128 0x1d
 6792 1ec3 06040000 		.4byte	.LASF483
 6793 1ec7 1F       		.byte	0x1f
 6794 1ec8 4001     		.2byte	0x140
 6795 1eca 2A1E0000 		.4byte	0x1e2a
 6796 1ece 18       		.uleb128 0x18
 6797 1ecf 58200000 		.4byte	.LASF484
 6798 1ed3 1F       		.byte	0x1f
 6799 1ed4 4B01     		.2byte	0x14b
 6800 1ed6 C21E0000 		.4byte	0x1ec2
 6801 1eda 13       		.uleb128 0x13
 6802 1edb 07       		.byte	0x7
 6803 1edc 01       		.byte	0x1
 6804 1edd 5E000000 		.4byte	0x5e
 6805 1ee1 20       		.byte	0x20
 6806 1ee2 46       		.byte	0x46
 6807 1ee3 0C1F0000 		.4byte	0x1f0c
 6808 1ee7 15       		.uleb128 0x15
 6809 1ee8 761C0000 		.4byte	.LASF485
 6810 1eec 00       		.byte	0
 6811 1eed 15       		.uleb128 0x15
 6812 1eee B3210000 		.4byte	.LASF486
 6813 1ef2 01       		.byte	0x1
 6814 1ef3 15       		.uleb128 0x15
 6815 1ef4 910F0000 		.4byte	.LASF487
 6816 1ef8 02       		.byte	0x2
 6817 1ef9 15       		.uleb128 0x15
 6818 1efa 41160000 		.4byte	.LASF488
 6819 1efe 03       		.byte	0x3
 6820 1eff 15       		.uleb128 0x15
 6821 1f00 161C0000 		.4byte	.LASF489
 6822 1f04 04       		.byte	0x4
 6823 1f05 15       		.uleb128 0x15
 6824 1f06 4E100000 		.4byte	.LASF490
 6825 1f0a 05       		.byte	0x5
ARM GAS  C:\Users\PCHAUT~1\AppData\Local\Temp\ccR4smAG.s 			page 121


 6826 1f0b 00       		.byte	0
 6827 1f0c 03       		.uleb128 0x3
 6828 1f0d BD190000 		.4byte	.LASF491
 6829 1f11 20       		.byte	0x20
 6830 1f12 4D       		.byte	0x4d
 6831 1f13 DA1E0000 		.4byte	0x1eda
 6832 1f17 1A       		.uleb128 0x1a
 6833 1f18 1C       		.byte	0x1c
 6834 1f19 21       		.byte	0x21
 6835 1f1a F9       		.byte	0xf9
 6836 1f1b 7A1F0000 		.4byte	0x1f7a
 6837 1f1f 1B       		.uleb128 0x1b
 6838 1f20 64616300 		.ascii	"dac\000"
 6839 1f24 21       		.byte	0x21
 6840 1f25 FD       		.byte	0xfd
 6841 1f26 7A1F0000 		.4byte	0x1f7a
 6842 1f2a 00       		.byte	0
 6843 1f2b 0A       		.uleb128 0xa
 6844 1f2c F1180000 		.4byte	.LASF492
 6845 1f30 21       		.byte	0x21
 6846 1f31 0101     		.2byte	0x101
 6847 1f33 F5000000 		.4byte	0xf5
 6848 1f37 04       		.byte	0x4
 6849 1f38 0A       		.uleb128 0xa
 6850 1f39 74070000 		.4byte	.LASF493
 6851 1f3d 21       		.byte	0x21
 6852 1f3e 0501     		.2byte	0x105
 6853 1f40 F5000000 		.4byte	0xf5
 6854 1f44 08       		.byte	0x8
 6855 1f45 0A       		.uleb128 0xa
 6856 1f46 5A020000 		.4byte	.LASF494
 6857 1f4a 21       		.byte	0x21
 6858 1f4b 0901     		.2byte	0x109
 6859 1f4d F5000000 		.4byte	0xf5
 6860 1f51 0C       		.byte	0xc
 6861 1f52 09       		.uleb128 0x9
 6862 1f53 646D6100 		.ascii	"dma\000"
 6863 1f57 21       		.byte	0x21
 6864 1f58 0D01     		.2byte	0x10d
 6865 1f5a 861D0000 		.4byte	0x1d86
 6866 1f5e 10       		.byte	0x10
 6867 1f5f 0A       		.uleb128 0xa
 6868 1f60 69180000 		.4byte	.LASF451
 6869 1f64 21       		.byte	0x21
 6870 1f65 1101     		.2byte	0x111
 6871 1f67 F5000000 		.4byte	0xf5
 6872 1f6b 14       		.byte	0x14
 6873 1f6c 0A       		.uleb128 0xa
 6874 1f6d 0A180000 		.4byte	.LASF495
 6875 1f71 21       		.byte	0x21
 6876 1f72 1501     		.2byte	0x115
 6877 1f74 F5000000 		.4byte	0xf5
 6878 1f78 18       		.byte	0x18
 6879 1f79 00       		.byte	0
 6880 1f7a 0B       		.uleb128 0xb
 6881 1f7b 04       		.byte	0x4
 6882 1f7c 8E0B0000 		.4byte	0xb8e
ARM GAS  C:\Users\PCHAUT~1\AppData\Local\Temp\ccR4smAG.s 			page 122


 6883 1f80 1D       		.uleb128 0x1d
 6884 1f81 6B030000 		.4byte	.LASF496
 6885 1f85 21       		.byte	0x21
 6886 1f86 1601     		.2byte	0x116
 6887 1f88 171F0000 		.4byte	0x1f17
 6888 1f8c 05       		.uleb128 0x5
 6889 1f8d 801F0000 		.4byte	0x1f80
 6890 1f91 1D       		.uleb128 0x1d
 6891 1f92 BC0D0000 		.4byte	.LASF497
 6892 1f96 21       		.byte	0x21
 6893 1f97 1B01     		.2byte	0x11b
 6894 1f99 9D1F0000 		.4byte	0x1f9d
 6895 1f9d 0C       		.uleb128 0xc
 6896 1f9e BC0D0000 		.4byte	.LASF497
 6897 1fa2 30       		.byte	0x30
 6898 1fa3 21       		.byte	0x21
 6899 1fa4 7B01     		.2byte	0x17b
 6900 1fa6 13200000 		.4byte	0x2013
 6901 1faa 0A       		.uleb128 0xa
 6902 1fab 3C020000 		.4byte	.LASF443
 6903 1faf 21       		.byte	0x21
 6904 1fb0 7F01     		.2byte	0x17f
 6905 1fb2 0C1F0000 		.4byte	0x1f0c
 6906 1fb6 00       		.byte	0
 6907 1fb7 0A       		.uleb128 0xa
 6908 1fb8 0D1F0000 		.4byte	.LASF447
 6909 1fbc 21       		.byte	0x21
 6910 1fbd 8301     		.2byte	0x183
 6911 1fbf 51210000 		.4byte	0x2151
 6912 1fc3 04       		.byte	0x4
 6913 1fc4 0A       		.uleb128 0xa
 6914 1fc5 47020000 		.4byte	.LASF445
 6915 1fc9 21       		.byte	0x21
 6916 1fca 8701     		.2byte	0x187
 6917 1fcc 78200000 		.4byte	0x2078
 6918 1fd0 08       		.byte	0x8
 6919 1fd1 0A       		.uleb128 0xa
 6920 1fd2 4E190000 		.4byte	.LASF446
 6921 1fd6 21       		.byte	0x21
 6922 1fd7 8B01     		.2byte	0x18b
 6923 1fd9 DA000000 		.4byte	0xda
 6924 1fdd 0C       		.byte	0xc
 6925 1fde 0A       		.uleb128 0xa
 6926 1fdf 341C0000 		.4byte	.LASF444
 6927 1fe3 21       		.byte	0x21
 6928 1fe4 8F01     		.2byte	0x18f
 6929 1fe6 57210000 		.4byte	0x2157
 6930 1fea 10       		.byte	0x10
 6931 1feb 0A       		.uleb128 0xa
 6932 1fec 6D070000 		.4byte	.LASF448
 6933 1ff0 21       		.byte	0x21
 6934 1ff1 9401     		.2byte	0x194
 6935 1ff3 D2020000 		.4byte	0x2d2
 6936 1ff7 14       		.byte	0x14
 6937 1ff8 0A       		.uleb128 0xa
 6938 1ff9 B10D0000 		.4byte	.LASF449
 6939 1ffd 21       		.byte	0x21
ARM GAS  C:\Users\PCHAUT~1\AppData\Local\Temp\ccR4smAG.s 			page 123


 6940 1ffe 9A01     		.2byte	0x19a
 6941 2000 66150000 		.4byte	0x1566
 6942 2004 18       		.byte	0x18
 6943 2005 0A       		.uleb128 0xa
 6944 2006 65110000 		.4byte	.LASF498
 6945 200a 21       		.byte	0x21
 6946 200b A301     		.2byte	0x1a3
 6947 200d 5D210000 		.4byte	0x215d
 6948 2011 2C       		.byte	0x2c
 6949 2012 00       		.byte	0
 6950 2013 1D       		.uleb128 0x1d
 6951 2014 DE190000 		.4byte	.LASF499
 6952 2018 21       		.byte	0x21
 6953 2019 2001     		.2byte	0x120
 6954 201b DA000000 		.4byte	0xda
 6955 201f 05       		.uleb128 0x5
 6956 2020 13200000 		.4byte	0x2013
 6957 2024 25       		.uleb128 0x25
 6958 2025 07       		.byte	0x7
 6959 2026 01       		.byte	0x1
 6960 2027 5E000000 		.4byte	0x5e
 6961 202b 21       		.byte	0x21
 6962 202c 2701     		.2byte	0x127
 6963 202e 3F200000 		.4byte	0x203f
 6964 2032 15       		.uleb128 0x15
 6965 2033 701A0000 		.4byte	.LASF500
 6966 2037 00       		.byte	0
 6967 2038 15       		.uleb128 0x15
 6968 2039 6A0A0000 		.4byte	.LASF501
 6969 203d 01       		.byte	0x1
 6970 203e 00       		.byte	0
 6971 203f 1D       		.uleb128 0x1d
 6972 2040 AB110000 		.4byte	.LASF502
 6973 2044 21       		.byte	0x21
 6974 2045 2A01     		.2byte	0x12a
 6975 2047 24200000 		.4byte	0x2024
 6976 204b 1D       		.uleb128 0x1d
 6977 204c CC070000 		.4byte	.LASF503
 6978 2050 21       		.byte	0x21
 6979 2051 3401     		.2byte	0x134
 6980 2053 57200000 		.4byte	0x2057
 6981 2057 0B       		.uleb128 0xb
 6982 2058 04       		.byte	0x4
 6983 2059 5D200000 		.4byte	0x205d
 6984 205d 0D       		.uleb128 0xd
 6985 205e 72200000 		.4byte	0x2072
 6986 2062 0E       		.uleb128 0xe
 6987 2063 72200000 		.4byte	0x2072
 6988 2067 0E       		.uleb128 0xe
 6989 2068 78200000 		.4byte	0x2078
 6990 206c 0E       		.uleb128 0xe
 6991 206d 2C000000 		.4byte	0x2c
 6992 2071 00       		.byte	0
 6993 2072 0B       		.uleb128 0xb
 6994 2073 04       		.byte	0x4
 6995 2074 911F0000 		.4byte	0x1f91
 6996 2078 0B       		.uleb128 0xb
ARM GAS  C:\Users\PCHAUT~1\AppData\Local\Temp\ccR4smAG.s 			page 124


 6997 2079 04       		.byte	0x4
 6998 207a 1F200000 		.4byte	0x201f
 6999 207e 1D       		.uleb128 0x1d
 7000 207f 8C200000 		.4byte	.LASF504
 7001 2083 21       		.byte	0x21
 7002 2084 3F01     		.2byte	0x13f
 7003 2086 8A200000 		.4byte	0x208a
 7004 208a 0B       		.uleb128 0xb
 7005 208b 04       		.byte	0x4
 7006 208c 90200000 		.4byte	0x2090
 7007 2090 0D       		.uleb128 0xd
 7008 2091 A0200000 		.4byte	0x20a0
 7009 2095 0E       		.uleb128 0xe
 7010 2096 72200000 		.4byte	0x2072
 7011 209a 0E       		.uleb128 0xe
 7012 209b 3F200000 		.4byte	0x203f
 7013 209f 00       		.byte	0
 7014 20a0 25       		.uleb128 0x25
 7015 20a1 07       		.byte	0x7
 7016 20a2 01       		.byte	0x1
 7017 20a3 5E000000 		.4byte	0x5e
 7018 20a7 21       		.byte	0x21
 7019 20a8 4401     		.2byte	0x144
 7020 20aa C1200000 		.4byte	0x20c1
 7021 20ae 15       		.uleb128 0x15
 7022 20af C81C0000 		.4byte	.LASF505
 7023 20b3 00       		.byte	0
 7024 20b4 15       		.uleb128 0x15
 7025 20b5 4E130000 		.4byte	.LASF506
 7026 20b9 01       		.byte	0x1
 7027 20ba 15       		.uleb128 0x15
 7028 20bb D8160000 		.4byte	.LASF507
 7029 20bf 02       		.byte	0x2
 7030 20c0 00       		.byte	0
 7031 20c1 1D       		.uleb128 0x1d
 7032 20c2 C30B0000 		.4byte	.LASF508
 7033 20c6 21       		.byte	0x21
 7034 20c7 4D01     		.2byte	0x14d
 7035 20c9 A0200000 		.4byte	0x20a0
 7036 20cd 1C       		.uleb128 0x1c
 7037 20ce 10       		.byte	0x10
 7038 20cf 21       		.byte	0x21
 7039 20d0 5201     		.2byte	0x152
 7040 20d2 0B210000 		.4byte	0x210b
 7041 20d6 0A       		.uleb128 0xa
 7042 20d7 E2100000 		.4byte	.LASF455
 7043 20db 21       		.byte	0x21
 7044 20dc 5601     		.2byte	0x156
 7045 20de F5000000 		.4byte	0xf5
 7046 20e2 00       		.byte	0
 7047 20e3 0A       		.uleb128 0xa
 7048 20e4 990A0000 		.4byte	.LASF456
 7049 20e8 21       		.byte	0x21
 7050 20e9 5A01     		.2byte	0x15a
 7051 20eb 4B200000 		.4byte	0x204b
 7052 20ef 04       		.byte	0x4
 7053 20f0 0A       		.uleb128 0xa
ARM GAS  C:\Users\PCHAUT~1\AppData\Local\Temp\ccR4smAG.s 			page 125


 7054 20f1 01230000 		.4byte	.LASF457
 7055 20f5 21       		.byte	0x21
 7056 20f6 5E01     		.2byte	0x15e
 7057 20f8 7E200000 		.4byte	0x207e
 7058 20fc 08       		.byte	0x8
 7059 20fd 0A       		.uleb128 0xa
 7060 20fe BA140000 		.4byte	.LASF509
 7061 2102 21       		.byte	0x21
 7062 2103 6601     		.2byte	0x166
 7063 2105 F5000000 		.4byte	0xf5
 7064 2109 0C       		.byte	0xc
 7065 210a 00       		.byte	0
 7066 210b 1D       		.uleb128 0x1d
 7067 210c 88120000 		.4byte	.LASF510
 7068 2110 21       		.byte	0x21
 7069 2111 6701     		.2byte	0x167
 7070 2113 CD200000 		.4byte	0x20cd
 7071 2117 05       		.uleb128 0x5
 7072 2118 0B210000 		.4byte	0x210b
 7073 211c 1C       		.uleb128 0x1c
 7074 211d 04       		.byte	0x4
 7075 211e 21       		.byte	0x21
 7076 211f 6C01     		.2byte	0x16c
 7077 2121 40210000 		.4byte	0x2140
 7078 2125 0A       		.uleb128 0xa
 7079 2126 1F0C0000 		.4byte	.LASF511
 7080 212a 21       		.byte	0x21
 7081 212b 7101     		.2byte	0x171
 7082 212d 13200000 		.4byte	0x2013
 7083 2131 00       		.byte	0
 7084 2132 0A       		.uleb128 0xa
 7085 2133 6D010000 		.4byte	.LASF512
 7086 2137 21       		.byte	0x21
 7087 2138 7501     		.2byte	0x175
 7088 213a C1200000 		.4byte	0x20c1
 7089 213e 02       		.byte	0x2
 7090 213f 00       		.byte	0
 7091 2140 1D       		.uleb128 0x1d
 7092 2141 C60D0000 		.4byte	.LASF513
 7093 2145 21       		.byte	0x21
 7094 2146 7601     		.2byte	0x176
 7095 2148 1C210000 		.4byte	0x211c
 7096 214c 05       		.uleb128 0x5
 7097 214d 40210000 		.4byte	0x2140
 7098 2151 0B       		.uleb128 0xb
 7099 2152 04       		.byte	0x4
 7100 2153 17210000 		.4byte	0x2117
 7101 2157 0B       		.uleb128 0xb
 7102 2158 04       		.byte	0x4
 7103 2159 4C210000 		.4byte	0x214c
 7104 215d 0B       		.uleb128 0xb
 7105 215e 04       		.byte	0x4
 7106 215f 8C1F0000 		.4byte	0x1f8c
 7107 2163 18       		.uleb128 0x18
 7108 2164 00040000 		.4byte	.LASF514
 7109 2168 21       		.byte	0x21
 7110 2169 B301     		.2byte	0x1b3
ARM GAS  C:\Users\PCHAUT~1\AppData\Local\Temp\ccR4smAG.s 			page 126


 7111 216b 911F0000 		.4byte	0x1f91
 7112 216f 13       		.uleb128 0x13
 7113 2170 07       		.byte	0x7
 7114 2171 01       		.byte	0x1
 7115 2172 5E000000 		.4byte	0x5e
 7116 2176 22       		.byte	0x22
 7117 2177 3F       		.byte	0x3f
 7118 2178 8F210000 		.4byte	0x218f
 7119 217c 15       		.uleb128 0x15
 7120 217d 2D0B0000 		.4byte	.LASF515
 7121 2181 00       		.byte	0
 7122 2182 15       		.uleb128 0x15
 7123 2183 41250000 		.4byte	.LASF516
 7124 2187 01       		.byte	0x1
 7125 2188 15       		.uleb128 0x15
 7126 2189 A2020000 		.4byte	.LASF517
 7127 218d 02       		.byte	0x2
 7128 218e 00       		.byte	0
 7129 218f 03       		.uleb128 0x3
 7130 2190 AE1B0000 		.4byte	.LASF518
 7131 2194 22       		.byte	0x22
 7132 2195 43       		.byte	0x43
 7133 2196 6F210000 		.4byte	0x216f
 7134 219a 03       		.uleb128 0x3
 7135 219b C4080000 		.4byte	.LASF519
 7136 219f 22       		.byte	0x22
 7137 21a0 48       		.byte	0x48
 7138 21a1 A5210000 		.4byte	0x21a5
 7139 21a5 07       		.uleb128 0x7
 7140 21a6 C4080000 		.4byte	.LASF519
 7141 21aa 08       		.byte	0x8
 7142 21ab 23       		.byte	0x23
 7143 21ac 71       		.byte	0x71
 7144 21ad CA210000 		.4byte	0x21ca
 7145 21b1 08       		.uleb128 0x8
 7146 21b2 3C020000 		.4byte	.LASF443
 7147 21b6 23       		.byte	0x23
 7148 21b7 75       		.byte	0x75
 7149 21b8 8F210000 		.4byte	0x218f
 7150 21bc 00       		.byte	0
 7151 21bd 08       		.uleb128 0x8
 7152 21be 341C0000 		.4byte	.LASF444
 7153 21c2 23       		.byte	0x23
 7154 21c3 79       		.byte	0x79
 7155 21c4 5C220000 		.4byte	0x225c
 7156 21c8 04       		.byte	0x4
 7157 21c9 00       		.byte	0
 7158 21ca 03       		.uleb128 0x3
 7159 21cb 3D230000 		.4byte	.LASF520
 7160 21cf 23       		.byte	0x23
 7161 21d0 47       		.byte	0x47
 7162 21d1 F5000000 		.4byte	0xf5
 7163 21d5 03       		.uleb128 0x3
 7164 21d6 D31E0000 		.4byte	.LASF521
 7165 21da 23       		.byte	0x23
 7166 21db 4F       		.byte	0x4f
 7167 21dc E0210000 		.4byte	0x21e0
ARM GAS  C:\Users\PCHAUT~1\AppData\Local\Temp\ccR4smAG.s 			page 127


 7168 21e0 0B       		.uleb128 0xb
 7169 21e1 04       		.byte	0x4
 7170 21e2 E6210000 		.4byte	0x21e6
 7171 21e6 0D       		.uleb128 0xd
 7172 21e7 F6210000 		.4byte	0x21f6
 7173 21eb 0E       		.uleb128 0xe
 7174 21ec F6210000 		.4byte	0x21f6
 7175 21f0 0E       		.uleb128 0xe
 7176 21f1 CA210000 		.4byte	0x21ca
 7177 21f5 00       		.byte	0
 7178 21f6 0B       		.uleb128 0xb
 7179 21f7 04       		.byte	0x4
 7180 21f8 9A210000 		.4byte	0x219a
 7181 21fc 1A       		.uleb128 0x1a
 7182 21fd 08       		.byte	0x8
 7183 21fe 23       		.byte	0x23
 7184 21ff 54       		.byte	0x54
 7185 2200 1C220000 		.4byte	0x221c
 7186 2204 08       		.uleb128 0x8
 7187 2205 A7080000 		.4byte	.LASF522
 7188 2209 23       		.byte	0x23
 7189 220a 58       		.byte	0x58
 7190 220b F5000000 		.4byte	0xf5
 7191 220f 00       		.byte	0
 7192 2210 1B       		.uleb128 0x1b
 7193 2211 636200   		.ascii	"cb\000"
 7194 2214 23       		.byte	0x23
 7195 2215 5F       		.byte	0x5f
 7196 2216 D5210000 		.4byte	0x21d5
 7197 221a 04       		.byte	0x4
 7198 221b 00       		.byte	0
 7199 221c 03       		.uleb128 0x3
 7200 221d 780F0000 		.4byte	.LASF523
 7201 2221 23       		.byte	0x23
 7202 2222 60       		.byte	0x60
 7203 2223 FC210000 		.4byte	0x21fc
 7204 2227 1A       		.uleb128 0x1a
 7205 2228 B8       		.byte	0xb8
 7206 2229 23       		.byte	0x23
 7207 222a 66       		.byte	0x66
 7208 222b 3C220000 		.4byte	0x223c
 7209 222f 08       		.uleb128 0x8
 7210 2230 AC200000 		.4byte	.LASF524
 7211 2234 23       		.byte	0x23
 7212 2235 6A       		.byte	0x6a
 7213 2236 3C220000 		.4byte	0x223c
 7214 223a 00       		.byte	0
 7215 223b 00       		.byte	0
 7216 223c 16       		.uleb128 0x16
 7217 223d 1C220000 		.4byte	0x221c
 7218 2241 4C220000 		.4byte	0x224c
 7219 2245 17       		.uleb128 0x17
 7220 2246 37000000 		.4byte	0x37
 7221 224a 16       		.byte	0x16
 7222 224b 00       		.byte	0
 7223 224c 03       		.uleb128 0x3
 7224 224d C21D0000 		.4byte	.LASF525
ARM GAS  C:\Users\PCHAUT~1\AppData\Local\Temp\ccR4smAG.s 			page 128


 7225 2251 23       		.byte	0x23
 7226 2252 6C       		.byte	0x6c
 7227 2253 27220000 		.4byte	0x2227
 7228 2257 05       		.uleb128 0x5
 7229 2258 4C220000 		.4byte	0x224c
 7230 225c 0B       		.uleb128 0xb
 7231 225d 04       		.byte	0x4
 7232 225e 57220000 		.4byte	0x2257
 7233 2262 19       		.uleb128 0x19
 7234 2263 5A060000 		.4byte	.LASF526
 7235 2267 23       		.byte	0x23
 7236 2268 86       		.byte	0x86
 7237 2269 9A210000 		.4byte	0x219a
 7238 226d 13       		.uleb128 0x13
 7239 226e 07       		.byte	0x7
 7240 226f 01       		.byte	0x1
 7241 2270 5E000000 		.4byte	0x5e
 7242 2274 24       		.byte	0x24
 7243 2275 31       		.byte	0x31
 7244 2276 99220000 		.4byte	0x2299
 7245 227a 15       		.uleb128 0x15
 7246 227b EC160000 		.4byte	.LASF527
 7247 227f 00       		.byte	0
 7248 2280 15       		.uleb128 0x15
 7249 2281 DC140000 		.4byte	.LASF528
 7250 2285 01       		.byte	0x1
 7251 2286 15       		.uleb128 0x15
 7252 2287 B3190000 		.4byte	.LASF529
 7253 228b 02       		.byte	0x2
 7254 228c 15       		.uleb128 0x15
 7255 228d 08080000 		.4byte	.LASF530
 7256 2291 03       		.byte	0x3
 7257 2292 15       		.uleb128 0x15
 7258 2293 DE040000 		.4byte	.LASF531
 7259 2297 04       		.byte	0x4
 7260 2298 00       		.byte	0
 7261 2299 03       		.uleb128 0x3
 7262 229a 94130000 		.4byte	.LASF532
 7263 229e 24       		.byte	0x24
 7264 229f 37       		.byte	0x37
 7265 22a0 6D220000 		.4byte	0x226d
 7266 22a4 03       		.uleb128 0x3
 7267 22a5 15180000 		.4byte	.LASF533
 7268 22a9 24       		.byte	0x24
 7269 22aa 3C       		.byte	0x3c
 7270 22ab AF220000 		.4byte	0x22af
 7271 22af 0C       		.uleb128 0xc
 7272 22b0 15180000 		.4byte	.LASF533
 7273 22b4 10       		.byte	0x10
 7274 22b5 25       		.byte	0x25
 7275 22b6 9701     		.2byte	0x197
 7276 22b8 F1220000 		.4byte	0x22f1
 7277 22bc 0A       		.uleb128 0xa
 7278 22bd 3C020000 		.4byte	.LASF443
 7279 22c1 25       		.byte	0x25
 7280 22c2 9B01     		.2byte	0x19b
 7281 22c4 99220000 		.4byte	0x2299
ARM GAS  C:\Users\PCHAUT~1\AppData\Local\Temp\ccR4smAG.s 			page 129


 7282 22c8 00       		.byte	0
 7283 22c9 0A       		.uleb128 0xa
 7284 22ca 341C0000 		.4byte	.LASF444
 7285 22ce 25       		.byte	0x25
 7286 22cf 9F01     		.2byte	0x19f
 7287 22d1 86240000 		.4byte	0x2486
 7288 22d5 04       		.byte	0x4
 7289 22d6 0A       		.uleb128 0xa
 7290 22d7 DA0D0000 		.4byte	.LASF534
 7291 22db 25       		.byte	0x25
 7292 22dc A701     		.2byte	0x1a7
 7293 22de F5000000 		.4byte	0xf5
 7294 22e2 08       		.byte	0x8
 7295 22e3 09       		.uleb128 0x9
 7296 22e4 74696D00 		.ascii	"tim\000"
 7297 22e8 25       		.byte	0x25
 7298 22e9 AB01     		.2byte	0x1ab
 7299 22eb 8C240000 		.4byte	0x248c
 7300 22ef 0C       		.byte	0xc
 7301 22f0 00       		.byte	0
 7302 22f1 03       		.uleb128 0x3
 7303 22f2 CD110000 		.4byte	.LASF535
 7304 22f6 24       		.byte	0x24
 7305 22f7 43       		.byte	0x43
 7306 22f8 FC220000 		.4byte	0x22fc
 7307 22fc 0B       		.uleb128 0xb
 7308 22fd 04       		.byte	0x4
 7309 22fe 02230000 		.4byte	0x2302
 7310 2302 0D       		.uleb128 0xd
 7311 2303 0D230000 		.4byte	0x230d
 7312 2307 0E       		.uleb128 0xe
 7313 2308 0D230000 		.4byte	0x230d
 7314 230c 00       		.byte	0
 7315 230d 0B       		.uleb128 0xb
 7316 230e 04       		.byte	0x4
 7317 230f A4220000 		.4byte	0x22a4
 7318 2313 1C       		.uleb128 0x1c
 7319 2314 60       		.byte	0x60
 7320 2315 26       		.byte	0x26
 7321 2316 9E01     		.2byte	0x19e
 7322 2318 1F240000 		.4byte	0x241f
 7323 231c 09       		.uleb128 0x9
 7324 231d 43523100 		.ascii	"CR1\000"
 7325 2321 26       		.byte	0x26
 7326 2322 9F01     		.2byte	0x19f
 7327 2324 00010000 		.4byte	0x100
 7328 2328 00       		.byte	0
 7329 2329 09       		.uleb128 0x9
 7330 232a 43523200 		.ascii	"CR2\000"
 7331 232e 26       		.byte	0x26
 7332 232f A001     		.2byte	0x1a0
 7333 2331 00010000 		.4byte	0x100
 7334 2335 04       		.byte	0x4
 7335 2336 0A       		.uleb128 0xa
 7336 2337 0B200000 		.4byte	.LASF536
 7337 233b 26       		.byte	0x26
 7338 233c A101     		.2byte	0x1a1
ARM GAS  C:\Users\PCHAUT~1\AppData\Local\Temp\ccR4smAG.s 			page 130


 7339 233e 00010000 		.4byte	0x100
 7340 2342 08       		.byte	0x8
 7341 2343 0A       		.uleb128 0xa
 7342 2344 790B0000 		.4byte	.LASF537
 7343 2348 26       		.byte	0x26
 7344 2349 A201     		.2byte	0x1a2
 7345 234b 00010000 		.4byte	0x100
 7346 234f 0C       		.byte	0xc
 7347 2350 09       		.uleb128 0x9
 7348 2351 535200   		.ascii	"SR\000"
 7349 2354 26       		.byte	0x26
 7350 2355 A301     		.2byte	0x1a3
 7351 2357 00010000 		.4byte	0x100
 7352 235b 10       		.byte	0x10
 7353 235c 09       		.uleb128 0x9
 7354 235d 45475200 		.ascii	"EGR\000"
 7355 2361 26       		.byte	0x26
 7356 2362 A401     		.2byte	0x1a4
 7357 2364 00010000 		.4byte	0x100
 7358 2368 14       		.byte	0x14
 7359 2369 0A       		.uleb128 0xa
 7360 236a FA230000 		.4byte	.LASF538
 7361 236e 26       		.byte	0x26
 7362 236f A501     		.2byte	0x1a5
 7363 2371 00010000 		.4byte	0x100
 7364 2375 18       		.byte	0x18
 7365 2376 0A       		.uleb128 0xa
 7366 2377 00240000 		.4byte	.LASF539
 7367 237b 26       		.byte	0x26
 7368 237c A601     		.2byte	0x1a6
 7369 237e 00010000 		.4byte	0x100
 7370 2382 1C       		.byte	0x1c
 7371 2383 0A       		.uleb128 0xa
 7372 2384 A9070000 		.4byte	.LASF540
 7373 2388 26       		.byte	0x26
 7374 2389 A701     		.2byte	0x1a7
 7375 238b 00010000 		.4byte	0x100
 7376 238f 20       		.byte	0x20
 7377 2390 09       		.uleb128 0x9
 7378 2391 434E5400 		.ascii	"CNT\000"
 7379 2395 26       		.byte	0x26
 7380 2396 A801     		.2byte	0x1a8
 7381 2398 00010000 		.4byte	0x100
 7382 239c 24       		.byte	0x24
 7383 239d 09       		.uleb128 0x9
 7384 239e 50534300 		.ascii	"PSC\000"
 7385 23a2 26       		.byte	0x26
 7386 23a3 A901     		.2byte	0x1a9
 7387 23a5 00010000 		.4byte	0x100
 7388 23a9 28       		.byte	0x28
 7389 23aa 09       		.uleb128 0x9
 7390 23ab 41525200 		.ascii	"ARR\000"
 7391 23af 26       		.byte	0x26
 7392 23b0 AA01     		.2byte	0x1aa
 7393 23b2 00010000 		.4byte	0x100
 7394 23b6 2C       		.byte	0x2c
 7395 23b7 09       		.uleb128 0x9
ARM GAS  C:\Users\PCHAUT~1\AppData\Local\Temp\ccR4smAG.s 			page 131


 7396 23b8 52435200 		.ascii	"RCR\000"
 7397 23bc 26       		.byte	0x26
 7398 23bd AB01     		.2byte	0x1ab
 7399 23bf 00010000 		.4byte	0x100
 7400 23c3 30       		.byte	0x30
 7401 23c4 09       		.uleb128 0x9
 7402 23c5 43435200 		.ascii	"CCR\000"
 7403 23c9 26       		.byte	0x26
 7404 23ca AC01     		.2byte	0x1ac
 7405 23cc 220C0000 		.4byte	0xc22
 7406 23d0 34       		.byte	0x34
 7407 23d1 0A       		.uleb128 0xa
 7408 23d2 55020000 		.4byte	.LASF541
 7409 23d6 26       		.byte	0x26
 7410 23d7 AD01     		.2byte	0x1ad
 7411 23d9 00010000 		.4byte	0x100
 7412 23dd 44       		.byte	0x44
 7413 23de 09       		.uleb128 0x9
 7414 23df 44435200 		.ascii	"DCR\000"
 7415 23e3 26       		.byte	0x26
 7416 23e4 AE01     		.2byte	0x1ae
 7417 23e6 00010000 		.4byte	0x100
 7418 23ea 48       		.byte	0x48
 7419 23eb 0A       		.uleb128 0xa
 7420 23ec A2160000 		.4byte	.LASF542
 7421 23f0 26       		.byte	0x26
 7422 23f1 AF01     		.2byte	0x1af
 7423 23f3 00010000 		.4byte	0x100
 7424 23f7 4C       		.byte	0x4c
 7425 23f8 09       		.uleb128 0x9
 7426 23f9 4F5200   		.ascii	"OR\000"
 7427 23fc 26       		.byte	0x26
 7428 23fd B001     		.2byte	0x1b0
 7429 23ff 00010000 		.4byte	0x100
 7430 2403 50       		.byte	0x50
 7431 2404 0A       		.uleb128 0xa
 7432 2405 06240000 		.4byte	.LASF543
 7433 2409 26       		.byte	0x26
 7434 240a B101     		.2byte	0x1b1
 7435 240c 00010000 		.4byte	0x100
 7436 2410 54       		.byte	0x54
 7437 2411 0A       		.uleb128 0xa
 7438 2412 E60D0000 		.4byte	.LASF544
 7439 2416 26       		.byte	0x26
 7440 2417 B201     		.2byte	0x1b2
 7441 2419 0D0C0000 		.4byte	0xc0d
 7442 241d 58       		.byte	0x58
 7443 241e 00       		.byte	0
 7444 241f 1D       		.uleb128 0x1d
 7445 2420 341F0000 		.4byte	.LASF545
 7446 2424 26       		.byte	0x26
 7447 2425 B301     		.2byte	0x1b3
 7448 2427 13230000 		.4byte	0x2313
 7449 242b 1D       		.uleb128 0x1d
 7450 242c F9080000 		.4byte	.LASF546
 7451 2430 25       		.byte	0x25
 7452 2431 6D01     		.2byte	0x16d
ARM GAS  C:\Users\PCHAUT~1\AppData\Local\Temp\ccR4smAG.s 			page 132


 7453 2433 F5000000 		.4byte	0xf5
 7454 2437 1C       		.uleb128 0x1c
 7455 2438 10       		.byte	0x10
 7456 2439 25       		.byte	0x25
 7457 243a 7801     		.2byte	0x178
 7458 243c 75240000 		.4byte	0x2475
 7459 2440 0A       		.uleb128 0xa
 7460 2441 54230000 		.4byte	.LASF547
 7461 2445 25       		.byte	0x25
 7462 2446 7E01     		.2byte	0x17e
 7463 2448 2B240000 		.4byte	0x242b
 7464 244c 00       		.byte	0
 7465 244d 0A       		.uleb128 0xa
 7466 244e A7160000 		.4byte	.LASF548
 7467 2452 25       		.byte	0x25
 7468 2453 8501     		.2byte	0x185
 7469 2455 F1220000 		.4byte	0x22f1
 7470 2459 04       		.byte	0x4
 7471 245a 09       		.uleb128 0x9
 7472 245b 63723200 		.ascii	"cr2\000"
 7473 245f 25       		.byte	0x25
 7474 2460 8B01     		.2byte	0x18b
 7475 2462 F5000000 		.4byte	0xf5
 7476 2466 08       		.byte	0x8
 7477 2467 0A       		.uleb128 0xa
 7478 2468 510D0000 		.4byte	.LASF549
 7479 246c 25       		.byte	0x25
 7480 246d 9101     		.2byte	0x191
 7481 246f F5000000 		.4byte	0xf5
 7482 2473 0C       		.byte	0xc
 7483 2474 00       		.byte	0
 7484 2475 1D       		.uleb128 0x1d
 7485 2476 02070000 		.4byte	.LASF550
 7486 247a 25       		.byte	0x25
 7487 247b 9201     		.2byte	0x192
 7488 247d 37240000 		.4byte	0x2437
 7489 2481 05       		.uleb128 0x5
 7490 2482 75240000 		.4byte	0x2475
 7491 2486 0B       		.uleb128 0xb
 7492 2487 04       		.byte	0x4
 7493 2488 81240000 		.4byte	0x2481
 7494 248c 0B       		.uleb128 0xb
 7495 248d 04       		.byte	0x4
 7496 248e 1F240000 		.4byte	0x241f
 7497 2492 18       		.uleb128 0x18
 7498 2493 E8220000 		.4byte	.LASF551
 7499 2497 25       		.byte	0x25
 7500 2498 F201     		.2byte	0x1f2
 7501 249a A4220000 		.4byte	0x22a4
 7502 249e 18       		.uleb128 0x18
 7503 249f 3B1C0000 		.4byte	.LASF552
 7504 24a3 25       		.byte	0x25
 7505 24a4 0202     		.2byte	0x202
 7506 24a6 A4220000 		.4byte	0x22a4
 7507 24aa 13       		.uleb128 0x13
 7508 24ab 07       		.byte	0x7
 7509 24ac 01       		.byte	0x1
ARM GAS  C:\Users\PCHAUT~1\AppData\Local\Temp\ccR4smAG.s 			page 133


 7510 24ad 5E000000 		.4byte	0x5e
 7511 24b1 27       		.byte	0x27
 7512 24b2 4C       		.byte	0x4c
 7513 24b3 DC240000 		.4byte	0x24dc
 7514 24b7 15       		.uleb128 0x15
 7515 24b8 CD060000 		.4byte	.LASF553
 7516 24bc 00       		.byte	0
 7517 24bd 15       		.uleb128 0x15
 7518 24be 01120000 		.4byte	.LASF554
 7519 24c2 01       		.byte	0x1
 7520 24c3 15       		.uleb128 0x15
 7521 24c4 3B070000 		.4byte	.LASF555
 7522 24c8 02       		.byte	0x2
 7523 24c9 15       		.uleb128 0x15
 7524 24ca 0A050000 		.4byte	.LASF556
 7525 24ce 03       		.byte	0x3
 7526 24cf 15       		.uleb128 0x15
 7527 24d0 8C030000 		.4byte	.LASF557
 7528 24d4 04       		.byte	0x4
 7529 24d5 15       		.uleb128 0x15
 7530 24d6 69130000 		.4byte	.LASF558
 7531 24da 05       		.byte	0x5
 7532 24db 00       		.byte	0
 7533 24dc 03       		.uleb128 0x3
 7534 24dd 80110000 		.4byte	.LASF559
 7535 24e1 27       		.byte	0x27
 7536 24e2 53       		.byte	0x53
 7537 24e3 AA240000 		.4byte	0x24aa
 7538 24e7 1D       		.uleb128 0x1d
 7539 24e8 84050000 		.4byte	.LASF560
 7540 24ec 28       		.byte	0x28
 7541 24ed 6A01     		.2byte	0x16a
 7542 24ef DA000000 		.4byte	0xda
 7543 24f3 1D       		.uleb128 0x1d
 7544 24f4 41040000 		.4byte	.LASF561
 7545 24f8 28       		.byte	0x28
 7546 24f9 6F01     		.2byte	0x16f
 7547 24fb F5000000 		.4byte	0xf5
 7548 24ff 25       		.uleb128 0x25
 7549 2500 07       		.byte	0x7
 7550 2501 01       		.byte	0x1
 7551 2502 5E000000 		.4byte	0x5e
 7552 2506 28       		.byte	0x28
 7553 2507 7401     		.2byte	0x174
 7554 2509 20250000 		.4byte	0x2520
 7555 250d 15       		.uleb128 0x15
 7556 250e 1D050000 		.4byte	.LASF562
 7557 2512 01       		.byte	0x1
 7558 2513 15       		.uleb128 0x15
 7559 2514 89000000 		.4byte	.LASF563
 7560 2518 02       		.byte	0x2
 7561 2519 15       		.uleb128 0x15
 7562 251a EB0A0000 		.4byte	.LASF564
 7563 251e 03       		.byte	0x3
 7564 251f 00       		.byte	0
 7565 2520 1D       		.uleb128 0x1d
 7566 2521 40240000 		.4byte	.LASF565
ARM GAS  C:\Users\PCHAUT~1\AppData\Local\Temp\ccR4smAG.s 			page 134


 7567 2525 28       		.byte	0x28
 7568 2526 7801     		.2byte	0x178
 7569 2528 FF240000 		.4byte	0x24ff
 7570 252c 25       		.uleb128 0x25
 7571 252d 07       		.byte	0x7
 7572 252e 01       		.byte	0x1
 7573 252f 5E000000 		.4byte	0x5e
 7574 2533 28       		.byte	0x28
 7575 2534 7D01     		.2byte	0x17d
 7576 2536 4D250000 		.4byte	0x254d
 7577 253a 15       		.uleb128 0x15
 7578 253b 2B060000 		.4byte	.LASF566
 7579 253f 01       		.byte	0x1
 7580 2540 15       		.uleb128 0x15
 7581 2541 B2080000 		.4byte	.LASF567
 7582 2545 02       		.byte	0x2
 7583 2546 15       		.uleb128 0x15
 7584 2547 EF0B0000 		.4byte	.LASF568
 7585 254b 03       		.byte	0x3
 7586 254c 00       		.byte	0
 7587 254d 1D       		.uleb128 0x1d
 7588 254e 4E070000 		.4byte	.LASF569
 7589 2552 28       		.byte	0x28
 7590 2553 8101     		.2byte	0x181
 7591 2555 2C250000 		.4byte	0x252c
 7592 2559 1C       		.uleb128 0x1c
 7593 255a 0C       		.byte	0xc
 7594 255b 28       		.byte	0x28
 7595 255c 8601     		.2byte	0x186
 7596 255e 8A250000 		.4byte	0x258a
 7597 2562 0A       		.uleb128 0xa
 7598 2563 04150000 		.4byte	.LASF570
 7599 2567 28       		.byte	0x28
 7600 2568 8801     		.2byte	0x188
 7601 256a 20250000 		.4byte	0x2520
 7602 256e 00       		.byte	0
 7603 256f 0A       		.uleb128 0xa
 7604 2570 EA030000 		.4byte	.LASF571
 7605 2574 28       		.byte	0x28
 7606 2575 8901     		.2byte	0x189
 7607 2577 F5000000 		.4byte	0xf5
 7608 257b 04       		.byte	0x4
 7609 257c 0A       		.uleb128 0xa
 7610 257d CD240000 		.4byte	.LASF572
 7611 2581 28       		.byte	0x28
 7612 2582 8C01     		.2byte	0x18c
 7613 2584 4D250000 		.4byte	0x254d
 7614 2588 08       		.byte	0x8
 7615 2589 00       		.byte	0
 7616 258a 1D       		.uleb128 0x1d
 7617 258b 62020000 		.4byte	.LASF573
 7618 258f 28       		.byte	0x28
 7619 2590 8E01     		.2byte	0x18e
 7620 2592 59250000 		.4byte	0x2559
 7621 2596 05       		.uleb128 0x5
 7622 2597 8A250000 		.4byte	0x258a
 7623 259b 1D       		.uleb128 0x1d
ARM GAS  C:\Users\PCHAUT~1\AppData\Local\Temp\ccR4smAG.s 			page 135


 7624 259c 00050000 		.4byte	.LASF574
 7625 25a0 28       		.byte	0x28
 7626 25a1 9301     		.2byte	0x193
 7627 25a3 A7250000 		.4byte	0x25a7
 7628 25a7 0C       		.uleb128 0xc
 7629 25a8 00050000 		.4byte	.LASF574
 7630 25ac 3C       		.byte	0x3c
 7631 25ad 28       		.byte	0x28
 7632 25ae 9801     		.2byte	0x198
 7633 25b0 44260000 		.4byte	0x2644
 7634 25b4 0A       		.uleb128 0xa
 7635 25b5 3C020000 		.4byte	.LASF443
 7636 25b9 28       		.byte	0x28
 7637 25ba 9C01     		.2byte	0x19c
 7638 25bc DC240000 		.4byte	0x24dc
 7639 25c0 00       		.byte	0
 7640 25c1 0A       		.uleb128 0xa
 7641 25c2 341C0000 		.4byte	.LASF444
 7642 25c6 28       		.byte	0x28
 7643 25c7 A001     		.2byte	0x1a0
 7644 25c9 44260000 		.4byte	0x2644
 7645 25cd 04       		.byte	0x4
 7646 25ce 0A       		.uleb128 0xa
 7647 25cf D1010000 		.4byte	.LASF575
 7648 25d3 28       		.byte	0x28
 7649 25d4 A401     		.2byte	0x1a4
 7650 25d6 F3240000 		.4byte	0x24f3
 7651 25da 08       		.byte	0x8
 7652 25db 0A       		.uleb128 0xa
 7653 25dc B10D0000 		.4byte	.LASF449
 7654 25e0 28       		.byte	0x28
 7655 25e1 A901     		.2byte	0x1a9
 7656 25e3 66150000 		.4byte	0x1566
 7657 25e7 0C       		.byte	0xc
 7658 25e8 0A       		.uleb128 0xa
 7659 25e9 6D070000 		.4byte	.LASF448
 7660 25ed 28       		.byte	0x28
 7661 25ee B201     		.2byte	0x1b2
 7662 25f0 D2020000 		.4byte	0x2d2
 7663 25f4 20       		.byte	0x20
 7664 25f5 0A       		.uleb128 0xa
 7665 25f6 3E0F0000 		.4byte	.LASF576
 7666 25fa 28       		.byte	0x28
 7667 25fb B601     		.2byte	0x1b6
 7668 25fd E7240000 		.4byte	0x24e7
 7669 2601 24       		.byte	0x24
 7670 2602 0A       		.uleb128 0xa
 7671 2603 9D080000 		.4byte	.LASF577
 7672 2607 28       		.byte	0x28
 7673 2608 BA01     		.2byte	0x1ba
 7674 260a F5000000 		.4byte	0xf5
 7675 260e 28       		.byte	0x28
 7676 260f 0A       		.uleb128 0xa
 7677 2610 EF080000 		.4byte	.LASF578
 7678 2614 28       		.byte	0x28
 7679 2615 BE01     		.2byte	0x1be
 7680 2617 F5000000 		.4byte	0xf5
ARM GAS  C:\Users\PCHAUT~1\AppData\Local\Temp\ccR4smAG.s 			page 136


 7681 261b 2C       		.byte	0x2c
 7682 261c 0A       		.uleb128 0xa
 7683 261d 76010000 		.4byte	.LASF579
 7684 2621 28       		.byte	0x28
 7685 2622 C201     		.2byte	0x1c2
 7686 2624 861D0000 		.4byte	0x1d86
 7687 2628 30       		.byte	0x30
 7688 2629 0A       		.uleb128 0xa
 7689 262a 87020000 		.4byte	.LASF580
 7690 262e 28       		.byte	0x28
 7691 262f C601     		.2byte	0x1c6
 7692 2631 861D0000 		.4byte	0x1d86
 7693 2635 34       		.byte	0x34
 7694 2636 09       		.uleb128 0x9
 7695 2637 69326300 		.ascii	"i2c\000"
 7696 263b 28       		.byte	0x28
 7697 263c CA01     		.2byte	0x1ca
 7698 263e 4A260000 		.4byte	0x264a
 7699 2642 38       		.byte	0x38
 7700 2643 00       		.byte	0
 7701 2644 0B       		.uleb128 0xb
 7702 2645 04       		.byte	0x4
 7703 2646 96250000 		.4byte	0x2596
 7704 264a 0B       		.uleb128 0xb
 7705 264b 04       		.byte	0x4
 7706 264c B20C0000 		.4byte	0xcb2
 7707 2650 18       		.uleb128 0x18
 7708 2651 F4110000 		.4byte	.LASF581
 7709 2655 28       		.byte	0x28
 7710 2656 E001     		.2byte	0x1e0
 7711 2658 9B250000 		.4byte	0x259b
 7712 265c 13       		.uleb128 0x13
 7713 265d 07       		.byte	0x7
 7714 265e 01       		.byte	0x1
 7715 265f 5E000000 		.4byte	0x5e
 7716 2663 29       		.byte	0x29
 7717 2664 39       		.byte	0x39
 7718 2665 88260000 		.4byte	0x2688
 7719 2669 15       		.uleb128 0x15
 7720 266a 8D100000 		.4byte	.LASF582
 7721 266e 00       		.byte	0
 7722 266f 15       		.uleb128 0x15
 7723 2670 970D0000 		.4byte	.LASF583
 7724 2674 01       		.byte	0x1
 7725 2675 15       		.uleb128 0x15
 7726 2676 7C010000 		.4byte	.LASF584
 7727 267a 02       		.byte	0x2
 7728 267b 15       		.uleb128 0x15
 7729 267c A8190000 		.4byte	.LASF585
 7730 2680 03       		.byte	0x3
 7731 2681 15       		.uleb128 0x15
 7732 2682 5E1E0000 		.4byte	.LASF586
 7733 2686 04       		.byte	0x4
 7734 2687 00       		.byte	0
 7735 2688 03       		.uleb128 0x3
 7736 2689 50150000 		.4byte	.LASF587
 7737 268d 29       		.byte	0x29
ARM GAS  C:\Users\PCHAUT~1\AppData\Local\Temp\ccR4smAG.s 			page 137


 7738 268e 3F       		.byte	0x3f
 7739 268f 5C260000 		.4byte	0x265c
 7740 2693 03       		.uleb128 0x3
 7741 2694 B5240000 		.4byte	.LASF588
 7742 2698 2A       		.byte	0x2a
 7743 2699 E2       		.byte	0xe2
 7744 269a 9E260000 		.4byte	0x269e
 7745 269e 0C       		.uleb128 0xc
 7746 269f B5240000 		.4byte	.LASF588
 7747 26a3 20       		.byte	0x20
 7748 26a4 2A       		.byte	0x2a
 7749 26a5 1B01     		.2byte	0x11b
 7750 26a7 14270000 		.4byte	0x2714
 7751 26ab 0A       		.uleb128 0xa
 7752 26ac 3C020000 		.4byte	.LASF443
 7753 26b0 2A       		.byte	0x2a
 7754 26b1 1F01     		.2byte	0x11f
 7755 26b3 88260000 		.4byte	0x2688
 7756 26b7 00       		.byte	0
 7757 26b8 0A       		.uleb128 0xa
 7758 26b9 341C0000 		.4byte	.LASF444
 7759 26bd 2A       		.byte	0x2a
 7760 26be 2301     		.2byte	0x123
 7761 26c0 AC270000 		.4byte	0x27ac
 7762 26c4 04       		.byte	0x4
 7763 26c5 09       		.uleb128 0x9
 7764 26c6 73706900 		.ascii	"spi\000"
 7765 26ca 2A       		.byte	0x2a
 7766 26cb 2801     		.2byte	0x128
 7767 26cd B2270000 		.4byte	0x27b2
 7768 26d1 08       		.byte	0x8
 7769 26d2 09       		.uleb128 0x9
 7770 26d3 63666700 		.ascii	"cfg\000"
 7771 26d7 2A       		.byte	0x2a
 7772 26d8 2C01     		.2byte	0x12c
 7773 26da DA000000 		.4byte	0xda
 7774 26de 0C       		.byte	0xc
 7775 26df 0A       		.uleb128 0xa
 7776 26e0 76010000 		.4byte	.LASF579
 7777 26e4 2A       		.byte	0x2a
 7778 26e5 3001     		.2byte	0x130
 7779 26e7 861D0000 		.4byte	0x1d86
 7780 26eb 10       		.byte	0x10
 7781 26ec 0A       		.uleb128 0xa
 7782 26ed 87020000 		.4byte	.LASF580
 7783 26f1 2A       		.byte	0x2a
 7784 26f2 3401     		.2byte	0x134
 7785 26f4 861D0000 		.4byte	0x1d86
 7786 26f8 14       		.byte	0x14
 7787 26f9 0A       		.uleb128 0xa
 7788 26fa 9D080000 		.4byte	.LASF577
 7789 26fe 2A       		.byte	0x2a
 7790 26ff 3801     		.2byte	0x138
 7791 2701 F5000000 		.4byte	0xf5
 7792 2705 18       		.byte	0x18
 7793 2706 0A       		.uleb128 0xa
 7794 2707 EF080000 		.4byte	.LASF578
ARM GAS  C:\Users\PCHAUT~1\AppData\Local\Temp\ccR4smAG.s 			page 138


 7795 270b 2A       		.byte	0x2a
 7796 270c 3C01     		.2byte	0x13c
 7797 270e F5000000 		.4byte	0xf5
 7798 2712 1C       		.byte	0x1c
 7799 2713 00       		.byte	0
 7800 2714 03       		.uleb128 0x3
 7801 2715 DB080000 		.4byte	.LASF589
 7802 2719 2A       		.byte	0x2a
 7803 271a EB       		.byte	0xeb
 7804 271b 1F270000 		.4byte	0x271f
 7805 271f 0B       		.uleb128 0xb
 7806 2720 04       		.byte	0x4
 7807 2721 25270000 		.4byte	0x2725
 7808 2725 0D       		.uleb128 0xd
 7809 2726 3A270000 		.4byte	0x273a
 7810 272a 0E       		.uleb128 0xe
 7811 272b 3A270000 		.4byte	0x273a
 7812 272f 0E       		.uleb128 0xe
 7813 2730 2C000000 		.4byte	0x2c
 7814 2734 0E       		.uleb128 0xe
 7815 2735 2C000000 		.4byte	0x2c
 7816 2739 00       		.byte	0
 7817 273a 0B       		.uleb128 0xb
 7818 273b 04       		.byte	0x4
 7819 273c 93260000 		.4byte	0x2693
 7820 2740 1A       		.uleb128 0x1a
 7821 2741 14       		.byte	0x14
 7822 2742 2A       		.byte	0x2a
 7823 2743 F1       		.byte	0xf1
 7824 2744 94270000 		.4byte	0x2794
 7825 2748 08       		.uleb128 0x8
 7826 2749 F3010000 		.4byte	.LASF590
 7827 274d 2A       		.byte	0x2a
 7828 274e F6       		.byte	0xf6
 7829 274f 94270000 		.4byte	0x2794
 7830 2753 00       		.byte	0
 7831 2754 08       		.uleb128 0x8
 7832 2755 C7010000 		.4byte	.LASF591
 7833 2759 2A       		.byte	0x2a
 7834 275a FB       		.byte	0xfb
 7835 275b BA030000 		.4byte	0x3ba
 7836 275f 04       		.byte	0x4
 7837 2760 08       		.uleb128 0x8
 7838 2761 B70D0000 		.4byte	.LASF592
 7839 2765 2A       		.byte	0x2a
 7840 2766 FF       		.byte	0xff
 7841 2767 2C000000 		.4byte	0x2c
 7842 276b 08       		.byte	0x8
 7843 276c 0A       		.uleb128 0xa
 7844 276d 990A0000 		.4byte	.LASF456
 7845 2771 2A       		.byte	0x2a
 7846 2772 0301     		.2byte	0x103
 7847 2774 14270000 		.4byte	0x2714
 7848 2778 0C       		.byte	0xc
 7849 2779 0A       		.uleb128 0xa
 7850 277a 031A0000 		.4byte	.LASF593
 7851 277e 2A       		.byte	0x2a
ARM GAS  C:\Users\PCHAUT~1\AppData\Local\Temp\ccR4smAG.s 			page 139


 7852 277f 0F01     		.2byte	0x10f
 7853 2781 CF000000 		.4byte	0xcf
 7854 2785 10       		.byte	0x10
 7855 2786 0A       		.uleb128 0xa
 7856 2787 24070000 		.4byte	.LASF594
 7857 278b 2A       		.byte	0x2a
 7858 278c 1501     		.2byte	0x115
 7859 278e CF000000 		.4byte	0xcf
 7860 2792 12       		.byte	0x12
 7861 2793 00       		.byte	0
 7862 2794 0B       		.uleb128 0xb
 7863 2795 04       		.byte	0x4
 7864 2796 9A270000 		.4byte	0x279a
 7865 279a 26       		.uleb128 0x26
 7866 279b 1D       		.uleb128 0x1d
 7867 279c D8240000 		.4byte	.LASF595
 7868 27a0 2A       		.byte	0x2a
 7869 27a1 1601     		.2byte	0x116
 7870 27a3 40270000 		.4byte	0x2740
 7871 27a7 05       		.uleb128 0x5
 7872 27a8 9B270000 		.4byte	0x279b
 7873 27ac 0B       		.uleb128 0xb
 7874 27ad 04       		.byte	0x4
 7875 27ae A7270000 		.4byte	0x27a7
 7876 27b2 0B       		.uleb128 0xb
 7877 27b3 04       		.byte	0x4
 7878 27b4 00100000 		.4byte	0x1000
 7879 27b8 18       		.uleb128 0x18
 7880 27b9 58250000 		.4byte	.LASF596
 7881 27bd 2A       		.byte	0x2a
 7882 27be 4801     		.2byte	0x148
 7883 27c0 93260000 		.4byte	0x2693
 7884 27c4 13       		.uleb128 0x13
 7885 27c5 07       		.byte	0x7
 7886 27c6 01       		.byte	0x1
 7887 27c7 5E000000 		.4byte	0x5e
 7888 27cb 2B       		.byte	0x2b
 7889 27cc 4A       		.byte	0x4a
 7890 27cd E4270000 		.4byte	0x27e4
 7891 27d1 15       		.uleb128 0x15
 7892 27d2 B4070000 		.4byte	.LASF597
 7893 27d6 00       		.byte	0
 7894 27d7 15       		.uleb128 0x15
 7895 27d8 A00D0000 		.4byte	.LASF598
 7896 27dc 01       		.byte	0x1
 7897 27dd 15       		.uleb128 0x15
 7898 27de AC100000 		.4byte	.LASF599
 7899 27e2 02       		.byte	0x2
 7900 27e3 00       		.byte	0
 7901 27e4 03       		.uleb128 0x3
 7902 27e5 AD030000 		.4byte	.LASF600
 7903 27e9 2B       		.byte	0x2b
 7904 27ea 4E       		.byte	0x4e
 7905 27eb C4270000 		.4byte	0x27c4
 7906 27ef 03       		.uleb128 0x3
 7907 27f0 C00C0000 		.4byte	.LASF601
 7908 27f4 2B       		.byte	0x2b
ARM GAS  C:\Users\PCHAUT~1\AppData\Local\Temp\ccR4smAG.s 			page 140


 7909 27f5 53       		.byte	0x53
 7910 27f6 FA270000 		.4byte	0x27fa
 7911 27fa 0C       		.uleb128 0xc
 7912 27fb C00C0000 		.4byte	.LASF601
 7913 27ff 1C       		.byte	0x1c
 7914 2800 2C       		.byte	0x2c
 7915 2801 7901     		.2byte	0x179
 7916 2803 63280000 		.4byte	0x2863
 7917 2807 0A       		.uleb128 0xa
 7918 2808 3C020000 		.4byte	.LASF443
 7919 280c 2C       		.byte	0x2c
 7920 280d 7D01     		.2byte	0x17d
 7921 280f E4270000 		.4byte	0x27e4
 7922 2813 00       		.byte	0
 7923 2814 0A       		.uleb128 0xa
 7924 2815 341C0000 		.4byte	.LASF444
 7925 2819 2C       		.byte	0x2c
 7926 281a 8101     		.2byte	0x181
 7927 281c 5E290000 		.4byte	0x295e
 7928 2820 04       		.byte	0x4
 7929 2821 0A       		.uleb128 0xa
 7930 2822 62130000 		.4byte	.LASF602
 7931 2826 2C       		.byte	0x2c
 7932 2827 8501     		.2byte	0x185
 7933 2829 A9280000 		.4byte	0x28a9
 7934 282d 08       		.byte	0x8
 7935 282e 0A       		.uleb128 0xa
 7936 282f 681A0000 		.4byte	.LASF603
 7937 2833 2C       		.byte	0x2c
 7938 2834 8901     		.2byte	0x189
 7939 2836 9D280000 		.4byte	0x289d
 7940 283a 0C       		.byte	0xc
 7941 283b 0A       		.uleb128 0xa
 7942 283c AC200000 		.4byte	.LASF524
 7943 2840 2C       		.byte	0x2c
 7944 2841 8D01     		.2byte	0x18d
 7945 2843 91280000 		.4byte	0x2891
 7946 2847 10       		.byte	0x10
 7947 2848 0A       		.uleb128 0xa
 7948 2849 DA0D0000 		.4byte	.LASF534
 7949 284d 2C       		.byte	0x2c
 7950 284e 9501     		.2byte	0x195
 7951 2850 F5000000 		.4byte	0xf5
 7952 2854 14       		.byte	0x14
 7953 2855 09       		.uleb128 0x9
 7954 2856 74696D00 		.ascii	"tim\000"
 7955 285a 2C       		.byte	0x2c
 7956 285b 9901     		.2byte	0x199
 7957 285d 8C240000 		.4byte	0x248c
 7958 2861 18       		.byte	0x18
 7959 2862 00       		.byte	0
 7960 2863 03       		.uleb128 0x3
 7961 2864 57110000 		.4byte	.LASF604
 7962 2868 2B       		.byte	0x2b
 7963 2869 5A       		.byte	0x5a
 7964 286a 6E280000 		.4byte	0x286e
 7965 286e 0B       		.uleb128 0xb
ARM GAS  C:\Users\PCHAUT~1\AppData\Local\Temp\ccR4smAG.s 			page 141


 7966 286f 04       		.byte	0x4
 7967 2870 74280000 		.4byte	0x2874
 7968 2874 0D       		.uleb128 0xd
 7969 2875 7F280000 		.4byte	0x287f
 7970 2879 0E       		.uleb128 0xe
 7971 287a 7F280000 		.4byte	0x287f
 7972 287e 00       		.byte	0
 7973 287f 0B       		.uleb128 0xb
 7974 2880 04       		.byte	0x4
 7975 2881 EF270000 		.4byte	0x27ef
 7976 2885 1D       		.uleb128 0x1d
 7977 2886 5B150000 		.4byte	.LASF605
 7978 288a 2C       		.byte	0x2c
 7979 288b 2501     		.2byte	0x125
 7980 288d F5000000 		.4byte	0xf5
 7981 2891 1D       		.uleb128 0x1d
 7982 2892 CE170000 		.4byte	.LASF606
 7983 2896 2C       		.byte	0x2c
 7984 2897 2A01     		.2byte	0x12a
 7985 2899 BF000000 		.4byte	0xbf
 7986 289d 1D       		.uleb128 0x1d
 7987 289e 31030000 		.4byte	.LASF607
 7988 28a2 2C       		.byte	0x2c
 7989 28a3 2F01     		.2byte	0x12f
 7990 28a5 F5000000 		.4byte	0xf5
 7991 28a9 1D       		.uleb128 0x1d
 7992 28aa 7E0E0000 		.4byte	.LASF608
 7993 28ae 2C       		.byte	0x2c
 7994 28af 3401     		.2byte	0x134
 7995 28b1 F5000000 		.4byte	0xf5
 7996 28b5 1C       		.uleb128 0x1c
 7997 28b6 08       		.byte	0x8
 7998 28b7 2C       		.byte	0x2c
 7999 28b8 3901     		.2byte	0x139
 8000 28ba D9280000 		.4byte	0x28d9
 8001 28be 0A       		.uleb128 0xa
 8002 28bf A7080000 		.4byte	.LASF522
 8003 28c3 2C       		.byte	0x2c
 8004 28c4 3D01     		.2byte	0x13d
 8005 28c6 85280000 		.4byte	0x2885
 8006 28ca 00       		.byte	0
 8007 28cb 0A       		.uleb128 0xa
 8008 28cc A7160000 		.4byte	.LASF548
 8009 28d0 2C       		.byte	0x2c
 8010 28d1 4301     		.2byte	0x143
 8011 28d3 63280000 		.4byte	0x2863
 8012 28d7 04       		.byte	0x4
 8013 28d8 00       		.byte	0
 8014 28d9 1D       		.uleb128 0x1d
 8015 28da 6D0E0000 		.4byte	.LASF609
 8016 28de 2C       		.byte	0x2c
 8017 28df 4501     		.2byte	0x145
 8018 28e1 B5280000 		.4byte	0x28b5
 8019 28e5 1C       		.uleb128 0x1c
 8020 28e6 34       		.byte	0x34
 8021 28e7 2C       		.byte	0x2c
 8022 28e8 4A01     		.2byte	0x14a
ARM GAS  C:\Users\PCHAUT~1\AppData\Local\Temp\ccR4smAG.s 			page 142


 8023 28ea 3D290000 		.4byte	0x293d
 8024 28ee 0A       		.uleb128 0xa
 8025 28ef 54230000 		.4byte	.LASF547
 8026 28f3 2C       		.byte	0x2c
 8027 28f4 5001     		.2byte	0x150
 8028 28f6 F5000000 		.4byte	0xf5
 8029 28fa 00       		.byte	0
 8030 28fb 0A       		.uleb128 0xa
 8031 28fc 62130000 		.4byte	.LASF602
 8032 2900 2C       		.byte	0x2c
 8033 2901 5601     		.2byte	0x156
 8034 2903 A9280000 		.4byte	0x28a9
 8035 2907 04       		.byte	0x4
 8036 2908 0A       		.uleb128 0xa
 8037 2909 A7160000 		.4byte	.LASF548
 8038 290d 2C       		.byte	0x2c
 8039 290e 5C01     		.2byte	0x15c
 8040 2910 63280000 		.4byte	0x2863
 8041 2914 08       		.byte	0x8
 8042 2915 0A       		.uleb128 0xa
 8043 2916 AC200000 		.4byte	.LASF524
 8044 291a 2C       		.byte	0x2c
 8045 291b 6001     		.2byte	0x160
 8046 291d 3D290000 		.4byte	0x293d
 8047 2921 0C       		.byte	0xc
 8048 2922 09       		.uleb128 0x9
 8049 2923 63723200 		.ascii	"cr2\000"
 8050 2927 2C       		.byte	0x2c
 8051 2928 6601     		.2byte	0x166
 8052 292a F5000000 		.4byte	0xf5
 8053 292e 2C       		.byte	0x2c
 8054 292f 0A       		.uleb128 0xa
 8055 2930 510D0000 		.4byte	.LASF549
 8056 2934 2C       		.byte	0x2c
 8057 2935 7301     		.2byte	0x173
 8058 2937 F5000000 		.4byte	0xf5
 8059 293b 30       		.byte	0x30
 8060 293c 00       		.byte	0
 8061 293d 16       		.uleb128 0x16
 8062 293e D9280000 		.4byte	0x28d9
 8063 2942 4D290000 		.4byte	0x294d
 8064 2946 17       		.uleb128 0x17
 8065 2947 37000000 		.4byte	0x37
 8066 294b 03       		.byte	0x3
 8067 294c 00       		.byte	0
 8068 294d 1D       		.uleb128 0x1d
 8069 294e D10C0000 		.4byte	.LASF610
 8070 2952 2C       		.byte	0x2c
 8071 2953 7401     		.2byte	0x174
 8072 2955 E5280000 		.4byte	0x28e5
 8073 2959 05       		.uleb128 0x5
 8074 295a 4D290000 		.4byte	0x294d
 8075 295e 0B       		.uleb128 0xb
 8076 295f 04       		.byte	0x4
 8077 2960 59290000 		.4byte	0x2959
 8078 2964 18       		.uleb128 0x18
 8079 2965 24120000 		.4byte	.LASF611
ARM GAS  C:\Users\PCHAUT~1\AppData\Local\Temp\ccR4smAG.s 			page 143


 8080 2969 2C       		.byte	0x2c
 8081 296a BC01     		.2byte	0x1bc
 8082 296c EF270000 		.4byte	0x27ef
 8083 2970 18       		.uleb128 0x18
 8084 2971 2A120000 		.4byte	.LASF612
 8085 2975 2C       		.byte	0x2c
 8086 2976 C001     		.2byte	0x1c0
 8087 2978 EF270000 		.4byte	0x27ef
 8088 297c 18       		.uleb128 0x18
 8089 297d 76140000 		.4byte	.LASF613
 8090 2981 2C       		.byte	0x2c
 8091 2982 C401     		.2byte	0x1c4
 8092 2984 EF270000 		.4byte	0x27ef
 8093 2988 18       		.uleb128 0x18
 8094 2989 3D120000 		.4byte	.LASF614
 8095 298d 2C       		.byte	0x2c
 8096 298e C801     		.2byte	0x1c8
 8097 2990 EF270000 		.4byte	0x27ef
 8098 2994 13       		.uleb128 0x13
 8099 2995 07       		.byte	0x7
 8100 2996 01       		.byte	0x1
 8101 2997 5E000000 		.4byte	0x5e
 8102 299b 2D       		.byte	0x2d
 8103 299c 55       		.byte	0x55
 8104 299d B4290000 		.4byte	0x29b4
 8105 29a1 15       		.uleb128 0x15
 8106 29a2 0C070000 		.4byte	.LASF615
 8107 29a6 00       		.byte	0
 8108 29a7 15       		.uleb128 0x15
 8109 29a8 060E0000 		.4byte	.LASF616
 8110 29ac 01       		.byte	0x1
 8111 29ad 15       		.uleb128 0x15
 8112 29ae 32100000 		.4byte	.LASF617
 8113 29b2 02       		.byte	0x2
 8114 29b3 00       		.byte	0
 8115 29b4 03       		.uleb128 0x3
 8116 29b5 CC180000 		.4byte	.LASF618
 8117 29b9 2D       		.byte	0x2d
 8118 29ba 59       		.byte	0x59
 8119 29bb 94290000 		.4byte	0x2994
 8120 29bf 03       		.uleb128 0x3
 8121 29c0 CC200000 		.4byte	.LASF619
 8122 29c4 2D       		.byte	0x2d
 8123 29c5 5E       		.byte	0x5e
 8124 29c6 CA290000 		.4byte	0x29ca
 8125 29ca 07       		.uleb128 0x7
 8126 29cb CC200000 		.4byte	.LASF619
 8127 29cf 78       		.byte	0x78
 8128 29d0 2D       		.byte	0x2d
 8129 29d1 78       		.byte	0x78
 8130 29d2 352A0000 		.4byte	0x2a35
 8131 29d6 1B       		.uleb128 0x1b
 8132 29d7 766D7400 		.ascii	"vmt\000"
 8133 29db 2D       		.byte	0x2d
 8134 29dc 7A       		.byte	0x7a
 8135 29dd B32A0000 		.4byte	0x2ab3
 8136 29e1 00       		.byte	0
ARM GAS  C:\Users\PCHAUT~1\AppData\Local\Temp\ccR4smAG.s 			page 144


 8137 29e2 08       		.uleb128 0x8
 8138 29e3 4C000000 		.4byte	.LASF620
 8139 29e7 2D       		.byte	0x2d
 8140 29e8 7B       		.byte	0x7b
 8141 29e9 EA150000 		.4byte	0x15ea
 8142 29ed 04       		.byte	0x4
 8143 29ee 08       		.uleb128 0x8
 8144 29ef 3C020000 		.4byte	.LASF443
 8145 29f3 2D       		.byte	0x2d
 8146 29f4 7B       		.byte	0x7b
 8147 29f5 B4290000 		.4byte	0x29b4
 8148 29f9 08       		.byte	0x8
 8149 29fa 08       		.uleb128 0x8
 8150 29fb AD180000 		.4byte	.LASF621
 8151 29ff 2D       		.byte	0x2d
 8152 2a00 7B       		.byte	0x7b
 8153 2a01 95160000 		.4byte	0x1695
 8154 2a05 0C       		.byte	0xc
 8155 2a06 08       		.uleb128 0x8
 8156 2a07 71120000 		.4byte	.LASF622
 8157 2a0b 2D       		.byte	0x2d
 8158 2a0c 7B       		.byte	0x7b
 8159 2a0d A0160000 		.4byte	0x16a0
 8160 2a11 30       		.byte	0x30
 8161 2a12 1B       		.uleb128 0x1b
 8162 2a13 696200   		.ascii	"ib\000"
 8163 2a16 2D       		.byte	0x2d
 8164 2a17 7B       		.byte	0x7b
 8165 2a18 B92A0000 		.4byte	0x2ab9
 8166 2a1c 54       		.byte	0x54
 8167 2a1d 1B       		.uleb128 0x1b
 8168 2a1e 6F6200   		.ascii	"ob\000"
 8169 2a21 2D       		.byte	0x2d
 8170 2a22 7B       		.byte	0x7b
 8171 2a23 B92A0000 		.4byte	0x2ab9
 8172 2a27 64       		.byte	0x64
 8173 2a28 08       		.uleb128 0x8
 8174 2a29 901A0000 		.4byte	.LASF623
 8175 2a2d 2D       		.byte	0x2d
 8176 2a2e 7B       		.byte	0x7b
 8177 2a2f C92A0000 		.4byte	0x2ac9
 8178 2a33 74       		.byte	0x74
 8179 2a34 00       		.byte	0
 8180 2a35 22       		.uleb128 0x22
 8181 2a36 53443300 		.ascii	"SD3\000"
 8182 2a3a 2E       		.byte	0x2e
 8183 2a3b 1501     		.2byte	0x115
 8184 2a3d BF290000 		.4byte	0x29bf
 8185 2a41 07       		.uleb128 0x7
 8186 2a42 BF0F0000 		.4byte	.LASF624
 8187 2a46 20       		.byte	0x20
 8188 2a47 2D       		.byte	0x2d
 8189 2a48 6D       		.byte	0x6d
 8190 2a49 AE2A0000 		.4byte	0x2aae
 8191 2a4d 08       		.uleb128 0x8
 8192 2a4e A7180000 		.4byte	.LASF625
 8193 2a52 2D       		.byte	0x2d
ARM GAS  C:\Users\PCHAUT~1\AppData\Local\Temp\ccR4smAG.s 			page 145


 8194 2a53 6E       		.byte	0x6e
 8195 2a54 CA160000 		.4byte	0x16ca
 8196 2a58 00       		.byte	0
 8197 2a59 08       		.uleb128 0x8
 8198 2a5a 18050000 		.4byte	.LASF626
 8199 2a5e 2D       		.byte	0x2d
 8200 2a5f 6E       		.byte	0x6e
 8201 2a60 E9160000 		.4byte	0x16e9
 8202 2a64 04       		.byte	0x4
 8203 2a65 1B       		.uleb128 0x1b
 8204 2a66 70757400 		.ascii	"put\000"
 8205 2a6a 2D       		.byte	0x2d
 8206 2a6b 6E       		.byte	0x6e
 8207 2a6c 03170000 		.4byte	0x1703
 8208 2a70 08       		.byte	0x8
 8209 2a71 1B       		.uleb128 0x1b
 8210 2a72 67657400 		.ascii	"get\000"
 8211 2a76 2D       		.byte	0x2d
 8212 2a77 6E       		.byte	0x6e
 8213 2a78 18170000 		.4byte	0x1718
 8214 2a7c 0C       		.byte	0xc
 8215 2a7d 08       		.uleb128 0x8
 8216 2a7e 3D140000 		.4byte	.LASF627
 8217 2a82 2D       		.byte	0x2d
 8218 2a83 6E       		.byte	0x6e
 8219 2a84 DA170000 		.4byte	0x17da
 8220 2a88 10       		.byte	0x10
 8221 2a89 08       		.uleb128 0x8
 8222 2a8a 82180000 		.4byte	.LASF628
 8223 2a8e 2D       		.byte	0x2d
 8224 2a8f 6E       		.byte	0x6e
 8225 2a90 F4170000 		.4byte	0x17f4
 8226 2a94 14       		.byte	0x14
 8227 2a95 08       		.uleb128 0x8
 8228 2a96 DB210000 		.4byte	.LASF629
 8229 2a9a 2D       		.byte	0x2d
 8230 2a9b 6E       		.byte	0x6e
 8231 2a9c 18180000 		.4byte	0x1818
 8232 2aa0 18       		.byte	0x18
 8233 2aa1 08       		.uleb128 0x8
 8234 2aa2 86130000 		.4byte	.LASF630
 8235 2aa6 2D       		.byte	0x2d
 8236 2aa7 6E       		.byte	0x6e
 8237 2aa8 3C180000 		.4byte	0x183c
 8238 2aac 1C       		.byte	0x1c
 8239 2aad 00       		.byte	0
 8240 2aae 05       		.uleb128 0x5
 8241 2aaf 412A0000 		.4byte	0x2a41
 8242 2ab3 0B       		.uleb128 0xb
 8243 2ab4 04       		.byte	0x4
 8244 2ab5 AE2A0000 		.4byte	0x2aae
 8245 2ab9 16       		.uleb128 0x16
 8246 2aba BF000000 		.4byte	0xbf
 8247 2abe C92A0000 		.4byte	0x2ac9
 8248 2ac2 17       		.uleb128 0x17
 8249 2ac3 37000000 		.4byte	0x37
 8250 2ac7 0F       		.byte	0xf
ARM GAS  C:\Users\PCHAUT~1\AppData\Local\Temp\ccR4smAG.s 			page 146


 8251 2ac8 00       		.byte	0
 8252 2ac9 0B       		.uleb128 0xb
 8253 2aca 04       		.byte	0x4
 8254 2acb 6F100000 		.4byte	0x106f
 8255 2acf 13       		.uleb128 0x13
 8256 2ad0 07       		.byte	0x7
 8257 2ad1 01       		.byte	0x1
 8258 2ad2 5E000000 		.4byte	0x5e
 8259 2ad6 2F       		.byte	0x2f
 8260 2ad7 6C       		.byte	0x6c
 8261 2ad8 EF2A0000 		.4byte	0x2aef
 8262 2adc 15       		.uleb128 0x15
 8263 2add 77030000 		.4byte	.LASF631
 8264 2ae1 00       		.byte	0
 8265 2ae2 15       		.uleb128 0x15
 8266 2ae3 77150000 		.4byte	.LASF632
 8267 2ae7 01       		.byte	0x1
 8268 2ae8 15       		.uleb128 0x15
 8269 2ae9 16130000 		.4byte	.LASF633
 8270 2aed 02       		.byte	0x2
 8271 2aee 00       		.byte	0
 8272 2aef 03       		.uleb128 0x3
 8273 2af0 661B0000 		.4byte	.LASF634
 8274 2af4 2F       		.byte	0x2f
 8275 2af5 70       		.byte	0x70
 8276 2af6 CF2A0000 		.4byte	0x2acf
 8277 2afa 03       		.uleb128 0x3
 8278 2afb A51A0000 		.4byte	.LASF635
 8279 2aff 30       		.byte	0x30
 8280 2b00 BF       		.byte	0xbf
 8281 2b01 F5000000 		.4byte	0xf5
 8282 2b05 03       		.uleb128 0x3
 8283 2b06 28180000 		.4byte	.LASF636
 8284 2b0a 30       		.byte	0x30
 8285 2b0b C4       		.byte	0xc4
 8286 2b0c F5000000 		.4byte	0xf5
 8287 2b10 03       		.uleb128 0x3
 8288 2b11 BB200000 		.4byte	.LASF637
 8289 2b15 30       		.byte	0x30
 8290 2b16 C9       		.byte	0xc9
 8291 2b17 1B2B0000 		.4byte	0x2b1b
 8292 2b1b 07       		.uleb128 0x7
 8293 2b1c BB200000 		.4byte	.LASF637
 8294 2b20 4C       		.byte	0x4c
 8295 2b21 30       		.byte	0x30
 8296 2b22 F2       		.byte	0xf2
 8297 2b23 CA2B0000 		.4byte	0x2bca
 8298 2b27 1B       		.uleb128 0x1b
 8299 2b28 766D7400 		.ascii	"vmt\000"
 8300 2b2c 30       		.byte	0x30
 8301 2b2d F6       		.byte	0xf6
 8302 2b2e 6D2C0000 		.4byte	0x2c6d
 8303 2b32 00       		.byte	0
 8304 2b33 08       		.uleb128 0x8
 8305 2b34 3C020000 		.4byte	.LASF443
 8306 2b38 30       		.byte	0x30
 8307 2b39 F7       		.byte	0xf7
ARM GAS  C:\Users\PCHAUT~1\AppData\Local\Temp\ccR4smAG.s 			page 147


 8308 2b3a 86180000 		.4byte	0x1886
 8309 2b3e 04       		.byte	0x4
 8310 2b3f 1B       		.uleb128 0x1b
 8311 2b40 63696400 		.ascii	"cid\000"
 8312 2b44 30       		.byte	0x30
 8313 2b45 F7       		.byte	0xf7
 8314 2b46 41190000 		.4byte	0x1941
 8315 2b4a 08       		.byte	0x8
 8316 2b4b 1B       		.uleb128 0x1b
 8317 2b4c 63736400 		.ascii	"csd\000"
 8318 2b50 30       		.byte	0x30
 8319 2b51 F7       		.byte	0xf7
 8320 2b52 41190000 		.4byte	0x1941
 8321 2b56 18       		.byte	0x18
 8322 2b57 08       		.uleb128 0x8
 8323 2b58 E81C0000 		.4byte	.LASF638
 8324 2b5c 30       		.byte	0x30
 8325 2b5d F7       		.byte	0xf7
 8326 2b5e F5000000 		.4byte	0xf5
 8327 2b62 28       		.byte	0x28
 8328 2b63 08       		.uleb128 0x8
 8329 2b64 341C0000 		.4byte	.LASF444
 8330 2b68 30       		.byte	0x30
 8331 2b69 FB       		.byte	0xfb
 8332 2b6a 732C0000 		.4byte	0x2c73
 8333 2b6e 2C       		.byte	0x2c
 8334 2b6f 08       		.uleb128 0x8
 8335 2b70 CE040000 		.4byte	.LASF639
 8336 2b74 30       		.byte	0x30
 8337 2b75 FF       		.byte	0xff
 8338 2b76 FA2A0000 		.4byte	0x2afa
 8339 2b7a 30       		.byte	0x30
 8340 2b7b 0A       		.uleb128 0xa
 8341 2b7c D1010000 		.4byte	.LASF575
 8342 2b80 30       		.byte	0x30
 8343 2b81 0301     		.2byte	0x103
 8344 2b83 052B0000 		.4byte	0x2b05
 8345 2b87 34       		.byte	0x34
 8346 2b88 09       		.uleb128 0x9
 8347 2b89 72636100 		.ascii	"rca\000"
 8348 2b8d 30       		.byte	0x30
 8349 2b8e 0701     		.2byte	0x107
 8350 2b90 F5000000 		.4byte	0xf5
 8351 2b94 38       		.byte	0x38
 8352 2b95 0A       		.uleb128 0xa
 8353 2b96 6D070000 		.4byte	.LASF448
 8354 2b9a 30       		.byte	0x30
 8355 2b9b 0C01     		.2byte	0x10c
 8356 2b9d D2020000 		.4byte	0x2d2
 8357 2ba1 3C       		.byte	0x3c
 8358 2ba2 0A       		.uleb128 0xa
 8359 2ba3 69180000 		.4byte	.LASF451
 8360 2ba7 30       		.byte	0x30
 8361 2ba8 1001     		.2byte	0x110
 8362 2baa F5000000 		.4byte	0xf5
 8363 2bae 40       		.byte	0x40
 8364 2baf 09       		.uleb128 0x9
ARM GAS  C:\Users\PCHAUT~1\AppData\Local\Temp\ccR4smAG.s 			page 148


 8365 2bb0 646D6100 		.ascii	"dma\000"
 8366 2bb4 30       		.byte	0x30
 8367 2bb5 1401     		.2byte	0x114
 8368 2bb7 861D0000 		.4byte	0x1d86
 8369 2bbb 44       		.byte	0x44
 8370 2bbc 0A       		.uleb128 0xa
 8371 2bbd 70160000 		.4byte	.LASF640
 8372 2bc1 30       		.byte	0x30
 8373 2bc2 1901     		.2byte	0x119
 8374 2bc4 792C0000 		.4byte	0x2c79
 8375 2bc8 48       		.byte	0x48
 8376 2bc9 00       		.byte	0
 8377 2bca 1A       		.uleb128 0x1a
 8378 2bcb 08       		.byte	0x8
 8379 2bcc 30       		.byte	0x30
 8380 2bcd CF       		.byte	0xcf
 8381 2bce EB2B0000 		.4byte	0x2beb
 8382 2bd2 08       		.uleb128 0x8
 8383 2bd3 DB0E0000 		.4byte	.LASF641
 8384 2bd7 30       		.byte	0x30
 8385 2bd8 D8       		.byte	0xd8
 8386 2bd9 8F160000 		.4byte	0x168f
 8387 2bdd 00       		.byte	0
 8388 2bde 08       		.uleb128 0x8
 8389 2bdf 73220000 		.4byte	.LASF642
 8390 2be3 30       		.byte	0x30
 8391 2be4 DC       		.byte	0xdc
 8392 2be5 EF2A0000 		.4byte	0x2aef
 8393 2be9 04       		.byte	0x4
 8394 2bea 00       		.byte	0
 8395 2beb 03       		.uleb128 0x3
 8396 2bec E7150000 		.4byte	.LASF643
 8397 2bf0 30       		.byte	0x30
 8398 2bf1 DE       		.byte	0xde
 8399 2bf2 CA2B0000 		.4byte	0x2bca
 8400 2bf6 05       		.uleb128 0x5
 8401 2bf7 EB2B0000 		.4byte	0x2beb
 8402 2bfb 07       		.uleb128 0x7
 8403 2bfc 89220000 		.4byte	.LASF644
 8404 2c00 20       		.byte	0x20
 8405 2c01 30       		.byte	0x30
 8406 2c02 EB       		.byte	0xeb
 8407 2c03 682C0000 		.4byte	0x2c68
 8408 2c07 08       		.uleb128 0x8
 8409 2c08 5E250000 		.4byte	.LASF645
 8410 2c0c 30       		.byte	0x30
 8411 2c0d EC       		.byte	0xec
 8412 2c0e D3180000 		.4byte	0x18d3
 8413 2c12 00       		.byte	0
 8414 2c13 08       		.uleb128 0x8
 8415 2c14 560D0000 		.4byte	.LASF646
 8416 2c18 30       		.byte	0x30
 8417 2c19 EC       		.byte	0xec
 8418 2c1a D3180000 		.4byte	0x18d3
 8419 2c1e 04       		.byte	0x4
 8420 2c1f 08       		.uleb128 0x8
 8421 2c20 F10F0000 		.4byte	.LASF647
ARM GAS  C:\Users\PCHAUT~1\AppData\Local\Temp\ccR4smAG.s 			page 149


 8422 2c24 30       		.byte	0x30
 8423 2c25 EC       		.byte	0xec
 8424 2c26 D3180000 		.4byte	0x18d3
 8425 2c2a 08       		.byte	0x8
 8426 2c2b 08       		.uleb128 0x8
 8427 2c2c 32140000 		.4byte	.LASF648
 8428 2c30 30       		.byte	0x30
 8429 2c31 EC       		.byte	0xec
 8430 2c32 D3180000 		.4byte	0x18d3
 8431 2c36 0C       		.byte	0xc
 8432 2c37 08       		.uleb128 0x8
 8433 2c38 18050000 		.4byte	.LASF626
 8434 2c3c 30       		.byte	0x30
 8435 2c3d EC       		.byte	0xec
 8436 2c3e F7180000 		.4byte	0x18f7
 8437 2c42 10       		.byte	0x10
 8438 2c43 08       		.uleb128 0x8
 8439 2c44 A7180000 		.4byte	.LASF625
 8440 2c48 30       		.byte	0x30
 8441 2c49 EC       		.byte	0xec
 8442 2c4a 1B190000 		.4byte	0x191b
 8443 2c4e 14       		.byte	0x14
 8444 2c4f 08       		.uleb128 0x8
 8445 2c50 8B1A0000 		.4byte	.LASF649
 8446 2c54 30       		.byte	0x30
 8447 2c55 EC       		.byte	0xec
 8448 2c56 D3180000 		.4byte	0x18d3
 8449 2c5a 18       		.byte	0x18
 8450 2c5b 08       		.uleb128 0x8
 8451 2c5c 29220000 		.4byte	.LASF650
 8452 2c60 30       		.byte	0x30
 8453 2c61 EC       		.byte	0xec
 8454 2c62 3B190000 		.4byte	0x193b
 8455 2c66 1C       		.byte	0x1c
 8456 2c67 00       		.byte	0
 8457 2c68 05       		.uleb128 0x5
 8458 2c69 FB2B0000 		.4byte	0x2bfb
 8459 2c6d 0B       		.uleb128 0xb
 8460 2c6e 04       		.byte	0x4
 8461 2c6f 682C0000 		.4byte	0x2c68
 8462 2c73 0B       		.uleb128 0xb
 8463 2c74 04       		.byte	0x4
 8464 2c75 F62B0000 		.4byte	0x2bf6
 8465 2c79 0B       		.uleb128 0xb
 8466 2c7a 04       		.byte	0x4
 8467 2c7b 770F0000 		.4byte	0xf77
 8468 2c7f 18       		.uleb128 0x18
 8469 2c80 560B0000 		.4byte	.LASF651
 8470 2c84 30       		.byte	0x30
 8471 2c85 2501     		.2byte	0x125
 8472 2c87 102B0000 		.4byte	0x2b10
 8473 2c8b 13       		.uleb128 0x13
 8474 2c8c 07       		.byte	0x7
 8475 2c8d 01       		.byte	0x1
 8476 2c8e 5E000000 		.4byte	0x5e
 8477 2c92 31       		.byte	0x31
 8478 2c93 46       		.byte	0x46
ARM GAS  C:\Users\PCHAUT~1\AppData\Local\Temp\ccR4smAG.s 			page 150


 8479 2c94 B72C0000 		.4byte	0x2cb7
 8480 2c98 15       		.uleb128 0x15
 8481 2c99 83070000 		.4byte	.LASF652
 8482 2c9d 00       		.byte	0
 8483 2c9e 15       		.uleb128 0x15
 8484 2c9f 28030000 		.4byte	.LASF653
 8485 2ca3 01       		.byte	0x1
 8486 2ca4 15       		.uleb128 0x15
 8487 2ca5 5C220000 		.4byte	.LASF654
 8488 2ca9 02       		.byte	0x2
 8489 2caa 15       		.uleb128 0x15
 8490 2cab 6D0F0000 		.4byte	.LASF655
 8491 2caf 03       		.byte	0x3
 8492 2cb0 15       		.uleb128 0x15
 8493 2cb1 A9130000 		.4byte	.LASF656
 8494 2cb5 04       		.byte	0x4
 8495 2cb6 00       		.byte	0
 8496 2cb7 03       		.uleb128 0x3
 8497 2cb8 050F0000 		.4byte	.LASF657
 8498 2cbc 31       		.byte	0x31
 8499 2cbd 4C       		.byte	0x4c
 8500 2cbe 8B2C0000 		.4byte	0x2c8b
 8501 2cc2 1D       		.uleb128 0x1d
 8502 2cc3 6C200000 		.4byte	.LASF658
 8503 2cc7 32       		.byte	0x32
 8504 2cc8 9601     		.2byte	0x196
 8505 2cca CE2C0000 		.4byte	0x2cce
 8506 2cce 0C       		.uleb128 0xc
 8507 2ccf 6C200000 		.4byte	.LASF658
 8508 2cd3 34       		.byte	0x34
 8509 2cd4 32       		.byte	0x32
 8510 2cd5 BA01     		.2byte	0x1ba
 8511 2cd7 512D0000 		.4byte	0x2d51
 8512 2cdb 0A       		.uleb128 0xa
 8513 2cdc 3C020000 		.4byte	.LASF443
 8514 2ce0 32       		.byte	0x32
 8515 2ce1 BE01     		.2byte	0x1be
 8516 2ce3 B72C0000 		.4byte	0x2cb7
 8517 2ce7 00       		.byte	0
 8518 2ce8 0A       		.uleb128 0xa
 8519 2ce9 341C0000 		.4byte	.LASF444
 8520 2ced 32       		.byte	0x32
 8521 2cee C201     		.2byte	0x1c2
 8522 2cf0 C32D0000 		.4byte	0x2dc3
 8523 2cf4 04       		.byte	0x4
 8524 2cf5 0A       		.uleb128 0xa
 8525 2cf6 6D070000 		.4byte	.LASF448
 8526 2cfa 32       		.byte	0x32
 8527 2cfb C701     		.2byte	0x1c7
 8528 2cfd D2020000 		.4byte	0x2d2
 8529 2d01 08       		.byte	0x8
 8530 2d02 0A       		.uleb128 0xa
 8531 2d03 B10D0000 		.4byte	.LASF449
 8532 2d07 32       		.byte	0x32
 8533 2d08 CD01     		.2byte	0x1cd
 8534 2d0a 66150000 		.4byte	0x1566
 8535 2d0e 0C       		.byte	0xc
ARM GAS  C:\Users\PCHAUT~1\AppData\Local\Temp\ccR4smAG.s 			page 151


 8536 2d0f 09       		.uleb128 0x9
 8537 2d10 73706900 		.ascii	"spi\000"
 8538 2d14 32       		.byte	0x32
 8539 2d15 D601     		.2byte	0x1d6
 8540 2d17 B2270000 		.4byte	0x27b2
 8541 2d1b 20       		.byte	0x20
 8542 2d1c 0A       		.uleb128 0xa
 8543 2d1d 76010000 		.4byte	.LASF579
 8544 2d21 32       		.byte	0x32
 8545 2d22 DA01     		.2byte	0x1da
 8546 2d24 861D0000 		.4byte	0x1d86
 8547 2d28 24       		.byte	0x24
 8548 2d29 0A       		.uleb128 0xa
 8549 2d2a 87020000 		.4byte	.LASF580
 8550 2d2e 32       		.byte	0x32
 8551 2d2f DE01     		.2byte	0x1de
 8552 2d31 861D0000 		.4byte	0x1d86
 8553 2d35 28       		.byte	0x28
 8554 2d36 0A       		.uleb128 0xa
 8555 2d37 9D080000 		.4byte	.LASF577
 8556 2d3b 32       		.byte	0x32
 8557 2d3c E201     		.2byte	0x1e2
 8558 2d3e F5000000 		.4byte	0xf5
 8559 2d42 2C       		.byte	0x2c
 8560 2d43 0A       		.uleb128 0xa
 8561 2d44 EF080000 		.4byte	.LASF578
 8562 2d48 32       		.byte	0x32
 8563 2d49 E601     		.2byte	0x1e6
 8564 2d4b F5000000 		.4byte	0xf5
 8565 2d4f 30       		.byte	0x30
 8566 2d50 00       		.byte	0
 8567 2d51 1D       		.uleb128 0x1d
 8568 2d52 99150000 		.4byte	.LASF659
 8569 2d56 32       		.byte	0x32
 8570 2d57 9E01     		.2byte	0x19e
 8571 2d59 5D2D0000 		.4byte	0x2d5d
 8572 2d5d 0B       		.uleb128 0xb
 8573 2d5e 04       		.byte	0x4
 8574 2d5f 632D0000 		.4byte	0x2d63
 8575 2d63 0D       		.uleb128 0xd
 8576 2d64 6E2D0000 		.4byte	0x2d6e
 8577 2d68 0E       		.uleb128 0xe
 8578 2d69 6E2D0000 		.4byte	0x2d6e
 8579 2d6d 00       		.byte	0
 8580 2d6e 0B       		.uleb128 0xb
 8581 2d6f 04       		.byte	0x4
 8582 2d70 C22C0000 		.4byte	0x2cc2
 8583 2d74 1C       		.uleb128 0x1c
 8584 2d75 0C       		.byte	0xc
 8585 2d76 32       		.byte	0x32
 8586 2d77 A301     		.2byte	0x1a3
 8587 2d79 B22D0000 		.4byte	0x2db2
 8588 2d7d 0A       		.uleb128 0xa
 8589 2d7e 990A0000 		.4byte	.LASF456
 8590 2d82 32       		.byte	0x32
 8591 2d83 A701     		.2byte	0x1a7
 8592 2d85 512D0000 		.4byte	0x2d51
ARM GAS  C:\Users\PCHAUT~1\AppData\Local\Temp\ccR4smAG.s 			page 152


 8593 2d89 00       		.byte	0
 8594 2d8a 0A       		.uleb128 0xa
 8595 2d8b 1C230000 		.4byte	.LASF660
 8596 2d8f 32       		.byte	0x32
 8597 2d90 AC01     		.2byte	0x1ac
 8598 2d92 171B0000 		.4byte	0x1b17
 8599 2d96 04       		.byte	0x4
 8600 2d97 0A       		.uleb128 0xa
 8601 2d98 E9080000 		.4byte	.LASF661
 8602 2d9c 32       		.byte	0x32
 8603 2d9d B001     		.2byte	0x1b0
 8604 2d9f DA000000 		.4byte	0xda
 8605 2da3 08       		.byte	0x8
 8606 2da4 09       		.uleb128 0x9
 8607 2da5 63723100 		.ascii	"cr1\000"
 8608 2da9 32       		.byte	0x32
 8609 2daa B401     		.2byte	0x1b4
 8610 2dac DA000000 		.4byte	0xda
 8611 2db0 0A       		.byte	0xa
 8612 2db1 00       		.byte	0
 8613 2db2 1D       		.uleb128 0x1d
 8614 2db3 7C200000 		.4byte	.LASF662
 8615 2db7 32       		.byte	0x32
 8616 2db8 B501     		.2byte	0x1b5
 8617 2dba 742D0000 		.4byte	0x2d74
 8618 2dbe 05       		.uleb128 0x5
 8619 2dbf B22D0000 		.4byte	0x2db2
 8620 2dc3 0B       		.uleb128 0xb
 8621 2dc4 04       		.byte	0x4
 8622 2dc5 BE2D0000 		.4byte	0x2dbe
 8623 2dc9 18       		.uleb128 0x18
 8624 2dca 7C180000 		.4byte	.LASF663
 8625 2dce 32       		.byte	0x32
 8626 2dcf F201     		.2byte	0x1f2
 8627 2dd1 C22C0000 		.4byte	0x2cc2
 8628 2dd5 03       		.uleb128 0x3
 8629 2dd6 6F230000 		.4byte	.LASF664
 8630 2dda 33       		.byte	0x33
 8631 2ddb FA       		.byte	0xfa
 8632 2ddc E02D0000 		.4byte	0x2de0
 8633 2de0 10       		.uleb128 0x10
 8634 2de1 6F230000 		.4byte	.LASF664
 8635 2de5 6002     		.2byte	0x260
 8636 2de7 34       		.byte	0x34
 8637 2de8 7701     		.2byte	0x177
 8638 2dea 0C2F0000 		.4byte	0x2f0c
 8639 2dee 0A       		.uleb128 0xa
 8640 2def 3C020000 		.4byte	.LASF443
 8641 2df3 34       		.byte	0x34
 8642 2df4 7B01     		.2byte	0x17b
 8643 2df6 442F0000 		.4byte	0x2f44
 8644 2dfa 00       		.byte	0
 8645 2dfb 0A       		.uleb128 0xa
 8646 2dfc 341C0000 		.4byte	.LASF444
 8647 2e00 34       		.byte	0x34
 8648 2e01 7F01     		.2byte	0x17f
 8649 2e03 67380000 		.4byte	0x3867
ARM GAS  C:\Users\PCHAUT~1\AppData\Local\Temp\ccR4smAG.s 			page 153


 8650 2e07 04       		.byte	0x4
 8651 2e08 0A       		.uleb128 0xa
 8652 2e09 9F200000 		.4byte	.LASF665
 8653 2e0d 34       		.byte	0x34
 8654 2e0e 8301     		.2byte	0x183
 8655 2e10 DA000000 		.4byte	0xda
 8656 2e14 08       		.byte	0x8
 8657 2e15 0A       		.uleb128 0xa
 8658 2e16 4A230000 		.4byte	.LASF666
 8659 2e1a 34       		.byte	0x34
 8660 2e1b 8701     		.2byte	0x187
 8661 2e1d DA000000 		.4byte	0xda
 8662 2e21 0A       		.byte	0xa
 8663 2e22 09       		.uleb128 0x9
 8664 2e23 65706300 		.ascii	"epc\000"
 8665 2e27 34       		.byte	0x34
 8666 2e28 8B01     		.2byte	0x18b
 8667 2e2a 6D380000 		.4byte	0x386d
 8668 2e2e 0C       		.byte	0xc
 8669 2e2f 0A       		.uleb128 0xa
 8670 2e30 9F070000 		.4byte	.LASF667
 8671 2e34 34       		.byte	0x34
 8672 2e35 9201     		.2byte	0x192
 8673 2e37 83380000 		.4byte	0x3883
 8674 2e3b 1C       		.byte	0x1c
 8675 2e3c 0A       		.uleb128 0xa
 8676 2e3d 370D0000 		.4byte	.LASF668
 8677 2e41 34       		.byte	0x34
 8678 2e42 9901     		.2byte	0x199
 8679 2e44 83380000 		.4byte	0x3883
 8680 2e48 28       		.byte	0x28
 8681 2e49 0A       		.uleb128 0xa
 8682 2e4a 7F100000 		.4byte	.LASF669
 8683 2e4e 34       		.byte	0x34
 8684 2e4f 9D01     		.2byte	0x19d
 8685 2e51 892F0000 		.4byte	0x2f89
 8686 2e55 34       		.byte	0x34
 8687 2e56 0A       		.uleb128 0xa
 8688 2e57 60050000 		.4byte	.LASF670
 8689 2e5b 34       		.byte	0x34
 8690 2e5c A101     		.2byte	0x1a1
 8691 2e5e 8F160000 		.4byte	0x168f
 8692 2e62 38       		.byte	0x38
 8693 2e63 0A       		.uleb128 0xa
 8694 2e64 F4170000 		.4byte	.LASF671
 8695 2e68 34       		.byte	0x34
 8696 2e69 A501     		.2byte	0x1a5
 8697 2e6b 2C000000 		.4byte	0x2c
 8698 2e6f 3C       		.byte	0x3c
 8699 2e70 0A       		.uleb128 0xa
 8700 2e71 101E0000 		.4byte	.LASF672
 8701 2e75 34       		.byte	0x34
 8702 2e76 A901     		.2byte	0x1a9
 8703 2e78 09300000 		.4byte	0x3009
 8704 2e7c 40       		.byte	0x40
 8705 2e7d 0A       		.uleb128 0xa
 8706 2e7e 7D070000 		.4byte	.LASF673
ARM GAS  C:\Users\PCHAUT~1\AppData\Local\Temp\ccR4smAG.s 			page 154


 8707 2e82 34       		.byte	0x34
 8708 2e83 AD01     		.2byte	0x1ad
 8709 2e85 E71D0000 		.4byte	0x1de7
 8710 2e89 44       		.byte	0x44
 8711 2e8a 0A       		.uleb128 0xa
 8712 2e8b 65150000 		.4byte	.LASF674
 8713 2e8f 34       		.byte	0x34
 8714 2e90 B101     		.2byte	0x1b1
 8715 2e92 DA000000 		.4byte	0xda
 8716 2e96 4C       		.byte	0x4c
 8717 2e97 0A       		.uleb128 0xa
 8718 2e98 BA150000 		.4byte	.LASF675
 8719 2e9c 34       		.byte	0x34
 8720 2e9d B501     		.2byte	0x1b5
 8721 2e9f BF000000 		.4byte	0xbf
 8722 2ea3 4E       		.byte	0x4e
 8723 2ea4 0A       		.uleb128 0xa
 8724 2ea5 FC1A0000 		.4byte	.LASF676
 8725 2ea9 34       		.byte	0x34
 8726 2eaa B901     		.2byte	0x1b9
 8727 2eac BF000000 		.4byte	0xbf
 8728 2eb0 4F       		.byte	0x4f
 8729 2eb1 09       		.uleb128 0x9
 8730 2eb2 6F746700 		.ascii	"otg\000"
 8731 2eb6 34       		.byte	0x34
 8732 2eb7 C101     		.2byte	0x1c1
 8733 2eb9 93380000 		.4byte	0x3893
 8734 2ebd 50       		.byte	0x50
 8735 2ebe 0A       		.uleb128 0xa
 8736 2ebf BD0E0000 		.4byte	.LASF677
 8737 2ec3 34       		.byte	0x34
 8738 2ec4 C501     		.2byte	0x1c5
 8739 2ec6 99380000 		.4byte	0x3899
 8740 2eca 54       		.byte	0x54
 8741 2ecb 0A       		.uleb128 0xa
 8742 2ecc 5C1F0000 		.4byte	.LASF678
 8743 2ed0 34       		.byte	0x34
 8744 2ed1 C901     		.2byte	0x1c9
 8745 2ed3 F5000000 		.4byte	0xf5
 8746 2ed7 58       		.byte	0x58
 8747 2ed8 0A       		.uleb128 0xa
 8748 2ed9 D00D0000 		.4byte	.LASF679
 8749 2edd 34       		.byte	0x34
 8750 2ede CD01     		.2byte	0x1cd
 8751 2ee0 F5000000 		.4byte	0xf5
 8752 2ee4 5C       		.byte	0x5c
 8753 2ee5 0A       		.uleb128 0xa
 8754 2ee6 57080000 		.4byte	.LASF680
 8755 2eea 34       		.byte	0x34
 8756 2eeb D101     		.2byte	0x1d1
 8757 2eed D2020000 		.4byte	0x2d2
 8758 2ef1 60       		.byte	0x60
 8759 2ef2 09       		.uleb128 0x9
 8760 2ef3 747200   		.ascii	"tr\000"
 8761 2ef6 34       		.byte	0x34
 8762 2ef7 D601     		.2byte	0x1d6
 8763 2ef9 D2020000 		.4byte	0x2d2
ARM GAS  C:\Users\PCHAUT~1\AppData\Local\Temp\ccR4smAG.s 			page 155


 8764 2efd 64       		.byte	0x64
 8765 2efe 0A       		.uleb128 0xa
 8766 2eff 66140000 		.4byte	.LASF681
 8767 2f03 34       		.byte	0x34
 8768 2f04 DA01     		.2byte	0x1da
 8769 2f06 9F380000 		.4byte	0x389f
 8770 2f0a 68       		.byte	0x68
 8771 2f0b 00       		.byte	0
 8772 2f0c 03       		.uleb128 0x3
 8773 2f0d 100B0000 		.4byte	.LASF682
 8774 2f11 33       		.byte	0x33
 8775 2f12 FF       		.byte	0xff
 8776 2f13 BF000000 		.4byte	0xbf
 8777 2f17 25       		.uleb128 0x25
 8778 2f18 07       		.byte	0x7
 8779 2f19 01       		.byte	0x1
 8780 2f1a 5E000000 		.4byte	0x5e
 8781 2f1e 33       		.byte	0x33
 8782 2f1f 0401     		.2byte	0x104
 8783 2f21 442F0000 		.4byte	0x2f44
 8784 2f25 15       		.uleb128 0x15
 8785 2f26 28240000 		.4byte	.LASF683
 8786 2f2a 00       		.byte	0
 8787 2f2b 15       		.uleb128 0x15
 8788 2f2c 00000000 		.4byte	.LASF684
 8789 2f30 01       		.byte	0x1
 8790 2f31 15       		.uleb128 0x15
 8791 2f32 7C130000 		.4byte	.LASF685
 8792 2f36 02       		.byte	0x2
 8793 2f37 15       		.uleb128 0x15
 8794 2f38 6C190000 		.4byte	.LASF686
 8795 2f3c 03       		.byte	0x3
 8796 2f3d 15       		.uleb128 0x15
 8797 2f3e 6F080000 		.4byte	.LASF687
 8798 2f42 04       		.byte	0x4
 8799 2f43 00       		.byte	0
 8800 2f44 1D       		.uleb128 0x1d
 8801 2f45 A1250000 		.4byte	.LASF688
 8802 2f49 33       		.byte	0x33
 8803 2f4a 0A01     		.2byte	0x10a
 8804 2f4c 172F0000 		.4byte	0x2f17
 8805 2f50 25       		.uleb128 0x25
 8806 2f51 07       		.byte	0x7
 8807 2f52 01       		.byte	0x1
 8808 2f53 5E000000 		.4byte	0x5e
 8809 2f57 33       		.byte	0x33
 8810 2f58 1801     		.2byte	0x118
 8811 2f5a 892F0000 		.4byte	0x2f89
 8812 2f5e 15       		.uleb128 0x15
 8813 2f5f E31D0000 		.4byte	.LASF689
 8814 2f63 00       		.byte	0
 8815 2f64 15       		.uleb128 0x15
 8816 2f65 74100000 		.4byte	.LASF690
 8817 2f69 01       		.byte	0x1
 8818 2f6a 15       		.uleb128 0x15
 8819 2f6b B91B0000 		.4byte	.LASF691
 8820 2f6f 02       		.byte	0x2
ARM GAS  C:\Users\PCHAUT~1\AppData\Local\Temp\ccR4smAG.s 			page 156


 8821 2f70 15       		.uleb128 0x15
 8822 2f71 7D160000 		.4byte	.LASF692
 8823 2f75 03       		.byte	0x3
 8824 2f76 15       		.uleb128 0x15
 8825 2f77 45150000 		.4byte	.LASF693
 8826 2f7b 04       		.byte	0x4
 8827 2f7c 15       		.uleb128 0x15
 8828 2f7d 6C110000 		.4byte	.LASF694
 8829 2f81 05       		.byte	0x5
 8830 2f82 15       		.uleb128 0x15
 8831 2f83 CF0F0000 		.4byte	.LASF695
 8832 2f87 06       		.byte	0x6
 8833 2f88 00       		.byte	0
 8834 2f89 1D       		.uleb128 0x1d
 8835 2f8a 9D110000 		.4byte	.LASF696
 8836 2f8e 33       		.byte	0x33
 8837 2f8f 2001     		.2byte	0x120
 8838 2f91 502F0000 		.4byte	0x2f50
 8839 2f95 25       		.uleb128 0x25
 8840 2f96 07       		.byte	0x7
 8841 2f97 01       		.byte	0x1
 8842 2f98 5E000000 		.4byte	0x5e
 8843 2f9c 33       		.byte	0x33
 8844 2f9d 2501     		.2byte	0x125
 8845 2f9f C82F0000 		.4byte	0x2fc8
 8846 2fa3 15       		.uleb128 0x15
 8847 2fa4 671D0000 		.4byte	.LASF697
 8848 2fa8 00       		.byte	0
 8849 2fa9 15       		.uleb128 0x15
 8850 2faa F1190000 		.4byte	.LASF698
 8851 2fae 01       		.byte	0x1
 8852 2faf 15       		.uleb128 0x15
 8853 2fb0 1D140000 		.4byte	.LASF699
 8854 2fb4 02       		.byte	0x2
 8855 2fb5 15       		.uleb128 0x15
 8856 2fb6 C2140000 		.4byte	.LASF700
 8857 2fba 03       		.byte	0x3
 8858 2fbb 15       		.uleb128 0x15
 8859 2fbc A4220000 		.4byte	.LASF701
 8860 2fc0 04       		.byte	0x4
 8861 2fc1 15       		.uleb128 0x15
 8862 2fc2 C5130000 		.4byte	.LASF702
 8863 2fc6 05       		.byte	0x5
 8864 2fc7 00       		.byte	0
 8865 2fc8 1D       		.uleb128 0x1d
 8866 2fc9 201A0000 		.4byte	.LASF703
 8867 2fcd 33       		.byte	0x33
 8868 2fce 2C01     		.2byte	0x12c
 8869 2fd0 952F0000 		.4byte	0x2f95
 8870 2fd4 1C       		.uleb128 0x1c
 8871 2fd5 08       		.byte	0x8
 8872 2fd6 33       		.byte	0x33
 8873 2fd7 3101     		.2byte	0x131
 8874 2fd9 F82F0000 		.4byte	0x2ff8
 8875 2fdd 0A       		.uleb128 0xa
 8876 2fde E2240000 		.4byte	.LASF704
 8877 2fe2 33       		.byte	0x33
ARM GAS  C:\Users\PCHAUT~1\AppData\Local\Temp\ccR4smAG.s 			page 157


 8878 2fe3 3501     		.2byte	0x135
 8879 2fe5 2C000000 		.4byte	0x2c
 8880 2fe9 00       		.byte	0
 8881 2fea 0A       		.uleb128 0xa
 8882 2feb F6040000 		.4byte	.LASF705
 8883 2fef 33       		.byte	0x33
 8884 2ff0 3901     		.2byte	0x139
 8885 2ff2 C4160000 		.4byte	0x16c4
 8886 2ff6 04       		.byte	0x4
 8887 2ff7 00       		.byte	0
 8888 2ff8 1D       		.uleb128 0x1d
 8889 2ff9 85150000 		.4byte	.LASF706
 8890 2ffd 33       		.byte	0x33
 8891 2ffe 3A01     		.2byte	0x13a
 8892 3000 D42F0000 		.4byte	0x2fd4
 8893 3004 05       		.uleb128 0x5
 8894 3005 F82F0000 		.4byte	0x2ff8
 8895 3009 1D       		.uleb128 0x1d
 8896 300a 76240000 		.4byte	.LASF707
 8897 300e 33       		.byte	0x33
 8898 300f 4201     		.2byte	0x142
 8899 3011 15300000 		.4byte	0x3015
 8900 3015 0B       		.uleb128 0xb
 8901 3016 04       		.byte	0x4
 8902 3017 1B300000 		.4byte	0x301b
 8903 301b 0D       		.uleb128 0xd
 8904 301c 26300000 		.4byte	0x3026
 8905 3020 0E       		.uleb128 0xe
 8906 3021 26300000 		.4byte	0x3026
 8907 3025 00       		.byte	0
 8908 3026 0B       		.uleb128 0xb
 8909 3027 04       		.byte	0x4
 8910 3028 D52D0000 		.4byte	0x2dd5
 8911 302c 1D       		.uleb128 0x1d
 8912 302d 74050000 		.4byte	.LASF708
 8913 3031 33       		.byte	0x33
 8914 3032 4B01     		.2byte	0x14b
 8915 3034 38300000 		.4byte	0x3038
 8916 3038 0B       		.uleb128 0xb
 8917 3039 04       		.byte	0x4
 8918 303a 3E300000 		.4byte	0x303e
 8919 303e 0D       		.uleb128 0xd
 8920 303f 4E300000 		.4byte	0x304e
 8921 3043 0E       		.uleb128 0xe
 8922 3044 26300000 		.4byte	0x3026
 8923 3048 0E       		.uleb128 0xe
 8924 3049 0C2F0000 		.4byte	0x2f0c
 8925 304d 00       		.byte	0
 8926 304e 1D       		.uleb128 0x1d
 8927 304f 390C0000 		.4byte	.LASF709
 8928 3053 33       		.byte	0x33
 8929 3054 5401     		.2byte	0x154
 8930 3056 5A300000 		.4byte	0x305a
 8931 305a 0B       		.uleb128 0xb
 8932 305b 04       		.byte	0x4
 8933 305c 60300000 		.4byte	0x3060
 8934 3060 0D       		.uleb128 0xd
ARM GAS  C:\Users\PCHAUT~1\AppData\Local\Temp\ccR4smAG.s 			page 158


 8935 3061 70300000 		.4byte	0x3070
 8936 3065 0E       		.uleb128 0xe
 8937 3066 26300000 		.4byte	0x3026
 8938 306a 0E       		.uleb128 0xe
 8939 306b C82F0000 		.4byte	0x2fc8
 8940 306f 00       		.byte	0
 8941 3070 1D       		.uleb128 0x1d
 8942 3071 D8060000 		.4byte	.LASF710
 8943 3075 33       		.byte	0x33
 8944 3076 6001     		.2byte	0x160
 8945 3078 7C300000 		.4byte	0x307c
 8946 307c 0B       		.uleb128 0xb
 8947 307d 04       		.byte	0x4
 8948 307e 82300000 		.4byte	0x3082
 8949 3082 23       		.uleb128 0x23
 8950 3083 CC180000 		.4byte	0x18cc
 8951 3087 91300000 		.4byte	0x3091
 8952 308b 0E       		.uleb128 0xe
 8953 308c 26300000 		.4byte	0x3026
 8954 3090 00       		.byte	0
 8955 3091 1D       		.uleb128 0x1d
 8956 3092 3B100000 		.4byte	.LASF711
 8957 3096 33       		.byte	0x33
 8958 3097 6501     		.2byte	0x165
 8959 3099 9D300000 		.4byte	0x309d
 8960 309d 0B       		.uleb128 0xb
 8961 309e 04       		.byte	0x4
 8962 309f A3300000 		.4byte	0x30a3
 8963 30a3 23       		.uleb128 0x23
 8964 30a4 C1300000 		.4byte	0x30c1
 8965 30a8 C1300000 		.4byte	0x30c1
 8966 30ac 0E       		.uleb128 0xe
 8967 30ad 26300000 		.4byte	0x3026
 8968 30b1 0E       		.uleb128 0xe
 8969 30b2 BF000000 		.4byte	0xbf
 8970 30b6 0E       		.uleb128 0xe
 8971 30b7 BF000000 		.4byte	0xbf
 8972 30bb 0E       		.uleb128 0xe
 8973 30bc DA000000 		.4byte	0xda
 8974 30c0 00       		.byte	0
 8975 30c1 0B       		.uleb128 0xb
 8976 30c2 04       		.byte	0x4
 8977 30c3 04300000 		.4byte	0x3004
 8978 30c7 1A       		.uleb128 0x1a
 8979 30c8 20       		.byte	0x20
 8980 30c9 35       		.byte	0x35
 8981 30ca 35       		.byte	0x35
 8982 30cb 30310000 		.4byte	0x3130
 8983 30cf 08       		.uleb128 0x8
 8984 30d0 85030000 		.4byte	.LASF712
 8985 30d4 35       		.byte	0x35
 8986 30d5 36       		.byte	0x36
 8987 30d6 00010000 		.4byte	0x100
 8988 30da 00       		.byte	0
 8989 30db 08       		.uleb128 0x8
 8990 30dc 0E0E0000 		.4byte	.LASF713
 8991 30e0 35       		.byte	0x35
ARM GAS  C:\Users\PCHAUT~1\AppData\Local\Temp\ccR4smAG.s 			page 159


 8992 30e1 38       		.byte	0x38
 8993 30e2 00010000 		.4byte	0x100
 8994 30e6 04       		.byte	0x4
 8995 30e7 08       		.uleb128 0x8
 8996 30e8 09030000 		.4byte	.LASF714
 8997 30ec 35       		.byte	0x35
 8998 30ed 39       		.byte	0x39
 8999 30ee 00010000 		.4byte	0x100
 9000 30f2 08       		.byte	0x8
 9001 30f3 08       		.uleb128 0x8
 9002 30f4 2B1C0000 		.4byte	.LASF715
 9003 30f8 35       		.byte	0x35
 9004 30f9 3A       		.byte	0x3a
 9005 30fa 00010000 		.4byte	0x100
 9006 30fe 0C       		.byte	0xc
 9007 30ff 08       		.uleb128 0x8
 9008 3100 16140000 		.4byte	.LASF716
 9009 3104 35       		.byte	0x35
 9010 3105 3C       		.byte	0x3c
 9011 3106 00010000 		.4byte	0x100
 9012 310a 10       		.byte	0x10
 9013 310b 08       		.uleb128 0x8
 9014 310c 3A0E0000 		.4byte	.LASF717
 9015 3110 35       		.byte	0x35
 9016 3111 3E       		.byte	0x3e
 9017 3112 00010000 		.4byte	0x100
 9018 3116 14       		.byte	0x14
 9019 3117 08       		.uleb128 0x8
 9020 3118 420E0000 		.4byte	.LASF718
 9021 311c 35       		.byte	0x35
 9022 311d 3F       		.byte	0x3f
 9023 311e 00010000 		.4byte	0x100
 9024 3122 18       		.byte	0x18
 9025 3123 08       		.uleb128 0x8
 9026 3124 2F040000 		.4byte	.LASF719
 9027 3128 35       		.byte	0x35
 9028 3129 40       		.byte	0x40
 9029 312a 00010000 		.4byte	0x100
 9030 312e 1C       		.byte	0x1c
 9031 312f 00       		.byte	0
 9032 3130 03       		.uleb128 0x3
 9033 3131 DC1B0000 		.4byte	.LASF720
 9034 3135 35       		.byte	0x35
 9035 3136 41       		.byte	0x41
 9036 3137 C7300000 		.4byte	0x30c7
 9037 313b 1A       		.uleb128 0x1a
 9038 313c 20       		.byte	0x20
 9039 313d 35       		.byte	0x35
 9040 313e 46       		.byte	0x46
 9041 313f A4310000 		.4byte	0x31a4
 9042 3143 08       		.uleb128 0x8
 9043 3144 AB0E0000 		.4byte	.LASF721
 9044 3148 35       		.byte	0x35
 9045 3149 47       		.byte	0x47
 9046 314a 00010000 		.4byte	0x100
 9047 314e 00       		.byte	0
 9048 314f 08       		.uleb128 0x8
ARM GAS  C:\Users\PCHAUT~1\AppData\Local\Temp\ccR4smAG.s 			page 160


 9049 3150 FA110000 		.4byte	.LASF722
 9050 3154 35       		.byte	0x35
 9051 3155 49       		.byte	0x49
 9052 3156 00010000 		.4byte	0x100
 9053 315a 04       		.byte	0x4
 9054 315b 08       		.uleb128 0x8
 9055 315c EF1F0000 		.4byte	.LASF723
 9056 3160 35       		.byte	0x35
 9057 3161 4A       		.byte	0x4a
 9058 3162 00010000 		.4byte	0x100
 9059 3166 08       		.byte	0x8
 9060 3167 08       		.uleb128 0x8
 9061 3168 1D120000 		.4byte	.LASF724
 9062 316c 35       		.byte	0x35
 9063 316d 4C       		.byte	0x4c
 9064 316e 00010000 		.4byte	0x100
 9065 3172 0C       		.byte	0xc
 9066 3173 08       		.uleb128 0x8
 9067 3174 24170000 		.4byte	.LASF725
 9068 3178 35       		.byte	0x35
 9069 3179 4D       		.byte	0x4d
 9070 317a 00010000 		.4byte	0x100
 9071 317e 10       		.byte	0x10
 9072 317f 08       		.uleb128 0x8
 9073 3180 3A0E0000 		.4byte	.LASF717
 9074 3184 35       		.byte	0x35
 9075 3185 4F       		.byte	0x4f
 9076 3186 00010000 		.4byte	0x100
 9077 318a 14       		.byte	0x14
 9078 318b 08       		.uleb128 0x8
 9079 318c 8E070000 		.4byte	.LASF726
 9080 3190 35       		.byte	0x35
 9081 3191 50       		.byte	0x50
 9082 3192 00010000 		.4byte	0x100
 9083 3196 18       		.byte	0x18
 9084 3197 08       		.uleb128 0x8
 9085 3198 D81F0000 		.4byte	.LASF727
 9086 319c 35       		.byte	0x35
 9087 319d 52       		.byte	0x52
 9088 319e 00010000 		.4byte	0x100
 9089 31a2 1C       		.byte	0x1c
 9090 31a3 00       		.byte	0
 9091 31a4 03       		.uleb128 0x3
 9092 31a5 7A080000 		.4byte	.LASF728
 9093 31a9 35       		.byte	0x35
 9094 31aa 53       		.byte	0x53
 9095 31ab 3B310000 		.4byte	0x313b
 9096 31af 1A       		.uleb128 0x1a
 9097 31b0 20       		.byte	0x20
 9098 31b1 35       		.byte	0x35
 9099 31b2 58       		.byte	0x58
 9100 31b3 18320000 		.4byte	0x3218
 9101 31b7 08       		.uleb128 0x8
 9102 31b8 231C0000 		.4byte	.LASF729
 9103 31bc 35       		.byte	0x35
 9104 31bd 59       		.byte	0x59
 9105 31be 00010000 		.4byte	0x100
ARM GAS  C:\Users\PCHAUT~1\AppData\Local\Temp\ccR4smAG.s 			page 161


 9106 31c2 00       		.byte	0
 9107 31c3 08       		.uleb128 0x8
 9108 31c4 FA110000 		.4byte	.LASF722
 9109 31c8 35       		.byte	0x35
 9110 31c9 5B       		.byte	0x5b
 9111 31ca 00010000 		.4byte	0x100
 9112 31ce 04       		.byte	0x4
 9113 31cf 08       		.uleb128 0x8
 9114 31d0 BA180000 		.4byte	.LASF730
 9115 31d4 35       		.byte	0x35
 9116 31d5 5C       		.byte	0x5c
 9117 31d6 00010000 		.4byte	0x100
 9118 31da 08       		.byte	0x8
 9119 31db 08       		.uleb128 0x8
 9120 31dc 1D120000 		.4byte	.LASF724
 9121 31e0 35       		.byte	0x35
 9122 31e1 5E       		.byte	0x5e
 9123 31e2 00010000 		.4byte	0x100
 9124 31e6 0C       		.byte	0xc
 9125 31e7 08       		.uleb128 0x8
 9126 31e8 ED200000 		.4byte	.LASF731
 9127 31ec 35       		.byte	0x35
 9128 31ed 5F       		.byte	0x5f
 9129 31ee 00010000 		.4byte	0x100
 9130 31f2 10       		.byte	0x10
 9131 31f3 08       		.uleb128 0x8
 9132 31f4 3A0E0000 		.4byte	.LASF717
 9133 31f8 35       		.byte	0x35
 9134 31f9 61       		.byte	0x61
 9135 31fa 00010000 		.4byte	0x100
 9136 31fe 14       		.byte	0x14
 9137 31ff 08       		.uleb128 0x8
 9138 3200 420E0000 		.4byte	.LASF718
 9139 3204 35       		.byte	0x35
 9140 3205 62       		.byte	0x62
 9141 3206 00010000 		.4byte	0x100
 9142 320a 18       		.byte	0x18
 9143 320b 08       		.uleb128 0x8
 9144 320c D81F0000 		.4byte	.LASF727
 9145 3210 35       		.byte	0x35
 9146 3211 63       		.byte	0x63
 9147 3212 00010000 		.4byte	0x100
 9148 3216 1C       		.byte	0x1c
 9149 3217 00       		.byte	0
 9150 3218 03       		.uleb128 0x3
 9151 3219 26080000 		.4byte	.LASF732
 9152 321d 35       		.byte	0x35
 9153 321e 64       		.byte	0x64
 9154 321f AF310000 		.4byte	0x31af
 9155 3223 27       		.uleb128 0x27
 9156 3224 00100100 		.4byte	0x11000
 9157 3228 35       		.byte	0x35
 9158 3229 69       		.byte	0x69
 9159 322a 00350000 		.4byte	0x3500
 9160 322e 08       		.uleb128 0x8
 9161 322f 58050000 		.4byte	.LASF733
 9162 3233 35       		.byte	0x35
ARM GAS  C:\Users\PCHAUT~1\AppData\Local\Temp\ccR4smAG.s 			page 162


 9163 3234 6A       		.byte	0x6a
 9164 3235 00010000 		.4byte	0x100
 9165 3239 00       		.byte	0
 9166 323a 08       		.uleb128 0x8
 9167 323b 1F0D0000 		.4byte	.LASF734
 9168 323f 35       		.byte	0x35
 9169 3240 6B       		.byte	0x6b
 9170 3241 00010000 		.4byte	0x100
 9171 3245 04       		.byte	0x4
 9172 3246 08       		.uleb128 0x8
 9173 3247 C4070000 		.4byte	.LASF735
 9174 324b 35       		.byte	0x35
 9175 324c 6C       		.byte	0x6c
 9176 324d 00010000 		.4byte	0x100
 9177 3251 08       		.byte	0x8
 9178 3252 08       		.uleb128 0x8
 9179 3253 84240000 		.4byte	.LASF736
 9180 3257 35       		.byte	0x35
 9181 3258 6D       		.byte	0x6d
 9182 3259 00010000 		.4byte	0x100
 9183 325d 0C       		.byte	0xc
 9184 325e 08       		.uleb128 0x8
 9185 325f 8C130000 		.4byte	.LASF737
 9186 3263 35       		.byte	0x35
 9187 3264 6E       		.byte	0x6e
 9188 3265 00010000 		.4byte	0x100
 9189 3269 10       		.byte	0x10
 9190 326a 08       		.uleb128 0x8
 9191 326b 980C0000 		.4byte	.LASF738
 9192 326f 35       		.byte	0x35
 9193 3270 6F       		.byte	0x6f
 9194 3271 00010000 		.4byte	0x100
 9195 3275 14       		.byte	0x14
 9196 3276 08       		.uleb128 0x8
 9197 3277 DE1A0000 		.4byte	.LASF739
 9198 327b 35       		.byte	0x35
 9199 327c 70       		.byte	0x70
 9200 327d 00010000 		.4byte	0x100
 9201 3281 18       		.byte	0x18
 9202 3282 08       		.uleb128 0x8
 9203 3283 41080000 		.4byte	.LASF740
 9204 3287 35       		.byte	0x35
 9205 3288 71       		.byte	0x71
 9206 3289 00010000 		.4byte	0x100
 9207 328d 1C       		.byte	0x1c
 9208 328e 08       		.uleb128 0x8
 9209 328f 39080000 		.4byte	.LASF741
 9210 3293 35       		.byte	0x35
 9211 3294 73       		.byte	0x73
 9212 3295 00010000 		.4byte	0x100
 9213 3299 20       		.byte	0x20
 9214 329a 08       		.uleb128 0x8
 9215 329b 831A0000 		.4byte	.LASF742
 9216 329f 35       		.byte	0x35
 9217 32a0 75       		.byte	0x75
 9218 32a1 00010000 		.4byte	0x100
 9219 32a5 24       		.byte	0x24
ARM GAS  C:\Users\PCHAUT~1\AppData\Local\Temp\ccR4smAG.s 			page 163


 9220 32a6 08       		.uleb128 0x8
 9221 32a7 F8000000 		.4byte	.LASF743
 9222 32ab 35       		.byte	0x35
 9223 32ac 76       		.byte	0x76
 9224 32ad 00010000 		.4byte	0x100
 9225 32b1 28       		.byte	0x28
 9226 32b2 08       		.uleb128 0x8
 9227 32b3 E61A0000 		.4byte	.LASF744
 9228 32b7 35       		.byte	0x35
 9229 32b8 78       		.byte	0x78
 9230 32b9 00010000 		.4byte	0x100
 9231 32bd 2C       		.byte	0x2c
 9232 32be 08       		.uleb128 0x8
 9233 32bf 9B0F0000 		.4byte	.LASF745
 9234 32c3 35       		.byte	0x35
 9235 32c4 7A       		.byte	0x7a
 9236 32c5 00010000 		.4byte	0x100
 9237 32c9 30       		.byte	0x30
 9238 32ca 08       		.uleb128 0x8
 9239 32cb A30F0000 		.4byte	.LASF746
 9240 32cf 35       		.byte	0x35
 9241 32d0 7B       		.byte	0x7b
 9242 32d1 00010000 		.4byte	0x100
 9243 32d5 34       		.byte	0x34
 9244 32d6 08       		.uleb128 0x8
 9245 32d7 4F020000 		.4byte	.LASF747
 9246 32db 35       		.byte	0x35
 9247 32dc 7C       		.byte	0x7c
 9248 32dd 00010000 		.4byte	0x100
 9249 32e1 38       		.byte	0x38
 9250 32e2 1B       		.uleb128 0x1b
 9251 32e3 43494400 		.ascii	"CID\000"
 9252 32e7 35       		.byte	0x35
 9253 32e8 7D       		.byte	0x7d
 9254 32e9 00010000 		.4byte	0x100
 9255 32ed 3C       		.byte	0x3c
 9256 32ee 08       		.uleb128 0x8
 9257 32ef EF100000 		.4byte	.LASF748
 9258 32f3 35       		.byte	0x35
 9259 32f4 7E       		.byte	0x7e
 9260 32f5 10350000 		.4byte	0x3510
 9261 32f9 40       		.byte	0x40
 9262 32fa 28       		.uleb128 0x28
 9263 32fb F0210000 		.4byte	.LASF749
 9264 32ff 35       		.byte	0x35
 9265 3300 7F       		.byte	0x7f
 9266 3301 00010000 		.4byte	0x100
 9267 3305 0001     		.2byte	0x100
 9268 3307 28       		.uleb128 0x28
 9269 3308 C1020000 		.4byte	.LASF750
 9270 330c 35       		.byte	0x35
 9271 330d 81       		.byte	0x81
 9272 330e 8B100000 		.4byte	0x108b
 9273 3312 0401     		.2byte	0x104
 9274 3314 28       		.uleb128 0x28
 9275 3315 8B140000 		.4byte	.LASF751
 9276 3319 35       		.byte	0x35
ARM GAS  C:\Users\PCHAUT~1\AppData\Local\Temp\ccR4smAG.s 			page 164


 9277 331a 83       		.byte	0x83
 9278 331b 25350000 		.4byte	0x3525
 9279 331f 4001     		.2byte	0x140
 9280 3321 28       		.uleb128 0x28
 9281 3322 64180000 		.4byte	.LASF752
 9282 3326 35       		.byte	0x35
 9283 3327 84       		.byte	0x84
 9284 3328 00010000 		.4byte	0x100
 9285 332c 0004     		.2byte	0x400
 9286 332e 28       		.uleb128 0x28
 9287 332f 23240000 		.4byte	.LASF753
 9288 3333 35       		.byte	0x35
 9289 3334 85       		.byte	0x85
 9290 3335 00010000 		.4byte	0x100
 9291 3339 0404     		.2byte	0x404
 9292 333b 28       		.uleb128 0x28
 9293 333c AA040000 		.4byte	.LASF754
 9294 3340 35       		.byte	0x35
 9295 3341 86       		.byte	0x86
 9296 3342 00010000 		.4byte	0x100
 9297 3346 0804     		.2byte	0x408
 9298 3348 28       		.uleb128 0x28
 9299 3349 56120000 		.4byte	.LASF755
 9300 334d 35       		.byte	0x35
 9301 334e 88       		.byte	0x88
 9302 334f 00010000 		.4byte	0x100
 9303 3353 0C04     		.2byte	0x40c
 9304 3355 28       		.uleb128 0x28
 9305 3356 4C030000 		.4byte	.LASF756
 9306 335a 35       		.byte	0x35
 9307 335b 89       		.byte	0x89
 9308 335c 00010000 		.4byte	0x100
 9309 3360 1004     		.2byte	0x410
 9310 3362 28       		.uleb128 0x28
 9311 3363 4C040000 		.4byte	.LASF757
 9312 3367 35       		.byte	0x35
 9313 3368 8B       		.byte	0x8b
 9314 3369 00010000 		.4byte	0x100
 9315 336d 1404     		.2byte	0x414
 9316 336f 28       		.uleb128 0x28
 9317 3370 2E0D0000 		.4byte	.LASF758
 9318 3374 35       		.byte	0x35
 9319 3375 8D       		.byte	0x8d
 9320 3376 00010000 		.4byte	0x100
 9321 337a 1804     		.2byte	0x418
 9322 337c 28       		.uleb128 0x28
 9323 337d 3A1D0000 		.4byte	.LASF759
 9324 3381 35       		.byte	0x35
 9325 3382 8F       		.byte	0x8f
 9326 3383 3A350000 		.4byte	0x353a
 9327 3387 1C04     		.2byte	0x41c
 9328 3389 28       		.uleb128 0x28
 9329 338a 04030000 		.4byte	.LASF760
 9330 338e 35       		.byte	0x35
 9331 338f 90       		.byte	0x90
 9332 3390 00010000 		.4byte	0x100
 9333 3394 4004     		.2byte	0x440
ARM GAS  C:\Users\PCHAUT~1\AppData\Local\Temp\ccR4smAG.s 			page 165


 9334 3396 28       		.uleb128 0x28
 9335 3397 F11E0000 		.4byte	.LASF761
 9336 339b 35       		.byte	0x35
 9337 339c 92       		.byte	0x92
 9338 339d 4F350000 		.4byte	0x354f
 9339 33a1 4404     		.2byte	0x444
 9340 33a3 29       		.uleb128 0x29
 9341 33a4 686300   		.ascii	"hc\000"
 9342 33a7 35       		.byte	0x35
 9343 33a8 93       		.byte	0x93
 9344 33a9 54350000 		.4byte	0x3554
 9345 33ad 0005     		.2byte	0x500
 9346 33af 28       		.uleb128 0x28
 9347 33b0 BC210000 		.4byte	.LASF762
 9348 33b4 35       		.byte	0x35
 9349 33b5 94       		.byte	0x94
 9350 33b6 74350000 		.4byte	0x3574
 9351 33ba 0007     		.2byte	0x700
 9352 33bc 28       		.uleb128 0x28
 9353 33bd C21A0000 		.4byte	.LASF763
 9354 33c1 35       		.byte	0x35
 9355 33c2 95       		.byte	0x95
 9356 33c3 00010000 		.4byte	0x100
 9357 33c7 0008     		.2byte	0x800
 9358 33c9 28       		.uleb128 0x28
 9359 33ca 84220000 		.4byte	.LASF764
 9360 33ce 35       		.byte	0x35
 9361 33cf 96       		.byte	0x96
 9362 33d0 00010000 		.4byte	0x100
 9363 33d4 0408     		.2byte	0x804
 9364 33d6 28       		.uleb128 0x28
 9365 33d7 26060000 		.4byte	.LASF765
 9366 33db 35       		.byte	0x35
 9367 33dc 97       		.byte	0x97
 9368 33dd 00010000 		.4byte	0x100
 9369 33e1 0808     		.2byte	0x808
 9370 33e3 28       		.uleb128 0x28
 9371 33e4 28050000 		.4byte	.LASF766
 9372 33e8 35       		.byte	0x35
 9373 33e9 98       		.byte	0x98
 9374 33ea 00010000 		.4byte	0x100
 9375 33ee 0C08     		.2byte	0x80c
 9376 33f0 28       		.uleb128 0x28
 9377 33f1 170D0000 		.4byte	.LASF767
 9378 33f5 35       		.byte	0x35
 9379 33f6 99       		.byte	0x99
 9380 33f7 00010000 		.4byte	0x100
 9381 33fb 1008     		.2byte	0x810
 9382 33fd 28       		.uleb128 0x28
 9383 33fe 10200000 		.4byte	.LASF768
 9384 3402 35       		.byte	0x35
 9385 3403 9B       		.byte	0x9b
 9386 3404 00010000 		.4byte	0x100
 9387 3408 1408     		.2byte	0x814
 9388 340a 28       		.uleb128 0x28
 9389 340b 76200000 		.4byte	.LASF769
 9390 340f 35       		.byte	0x35
ARM GAS  C:\Users\PCHAUT~1\AppData\Local\Temp\ccR4smAG.s 			page 166


 9391 3410 9D       		.byte	0x9d
 9392 3411 00010000 		.4byte	0x100
 9393 3415 1808     		.2byte	0x818
 9394 3417 28       		.uleb128 0x28
 9395 3418 B01D0000 		.4byte	.LASF770
 9396 341c 35       		.byte	0x35
 9397 341d 9F       		.byte	0x9f
 9398 341e 00010000 		.4byte	0x100
 9399 3422 1C08     		.2byte	0x81c
 9400 3424 28       		.uleb128 0x28
 9401 3425 83060000 		.4byte	.LASF771
 9402 3429 35       		.byte	0x35
 9403 342a A1       		.byte	0xa1
 9404 342b 00010000 		.4byte	0x100
 9405 342f 2008     		.2byte	0x820
 9406 3431 28       		.uleb128 0x28
 9407 3432 9B050000 		.4byte	.LASF772
 9408 3436 35       		.byte	0x35
 9409 3437 A2       		.byte	0xa2
 9410 3438 00010000 		.4byte	0x100
 9411 343c 2408     		.2byte	0x824
 9412 343e 28       		.uleb128 0x28
 9413 343f C71A0000 		.4byte	.LASF773
 9414 3443 35       		.byte	0x35
 9415 3444 A3       		.byte	0xa3
 9416 3445 00010000 		.4byte	0x100
 9417 3449 2808     		.2byte	0x828
 9418 344b 28       		.uleb128 0x28
 9419 344c AB0F0000 		.4byte	.LASF774
 9420 3450 35       		.byte	0x35
 9421 3451 A5       		.byte	0xa5
 9422 3452 00010000 		.4byte	0x100
 9423 3456 2C08     		.2byte	0x82c
 9424 3458 28       		.uleb128 0x28
 9425 3459 32070000 		.4byte	.LASF775
 9426 345d 35       		.byte	0x35
 9427 345e A7       		.byte	0xa7
 9428 345f 00010000 		.4byte	0x100
 9429 3463 3008     		.2byte	0x830
 9430 3465 28       		.uleb128 0x28
 9431 3466 A00E0000 		.4byte	.LASF776
 9432 346a 35       		.byte	0x35
 9433 346b A8       		.byte	0xa8
 9434 346c 00010000 		.4byte	0x100
 9435 3470 3408     		.2byte	0x834
 9436 3472 28       		.uleb128 0x28
 9437 3473 45070000 		.4byte	.LASF777
 9438 3477 35       		.byte	0x35
 9439 3478 AA       		.byte	0xaa
 9440 3479 00010000 		.4byte	0x100
 9441 347d 3808     		.2byte	0x838
 9442 347f 28       		.uleb128 0x28
 9443 3480 5D070000 		.4byte	.LASF778
 9444 3484 35       		.byte	0x35
 9445 3485 AB       		.byte	0xab
 9446 3486 00010000 		.4byte	0x100
 9447 348a 3C08     		.2byte	0x83c
ARM GAS  C:\Users\PCHAUT~1\AppData\Local\Temp\ccR4smAG.s 			page 167


 9448 348c 28       		.uleb128 0x28
 9449 348d DA070000 		.4byte	.LASF779
 9450 3491 35       		.byte	0x35
 9451 3492 AC       		.byte	0xac
 9452 3493 89350000 		.4byte	0x3589
 9453 3497 4008     		.2byte	0x840
 9454 3499 28       		.uleb128 0x28
 9455 349a 290E0000 		.4byte	.LASF780
 9456 349e 35       		.byte	0x35
 9457 349f AD       		.byte	0xad
 9458 34a0 89350000 		.4byte	0x3589
 9459 34a4 8008     		.2byte	0x880
 9460 34a6 28       		.uleb128 0x28
 9461 34a7 0A120000 		.4byte	.LASF781
 9462 34ab 35       		.byte	0x35
 9463 34ac AE       		.byte	0xae
 9464 34ad 89350000 		.4byte	0x3589
 9465 34b1 C008     		.2byte	0x8c0
 9466 34b3 29       		.uleb128 0x29
 9467 34b4 696500   		.ascii	"ie\000"
 9468 34b7 35       		.byte	0x35
 9469 34b8 AF       		.byte	0xaf
 9470 34b9 8E350000 		.4byte	0x358e
 9471 34bd 0009     		.2byte	0x900
 9472 34bf 29       		.uleb128 0x29
 9473 34c0 6F6500   		.ascii	"oe\000"
 9474 34c3 35       		.byte	0x35
 9475 34c4 B0       		.byte	0xb0
 9476 34c5 9E350000 		.4byte	0x359e
 9477 34c9 000B     		.2byte	0xb00
 9478 34cb 28       		.uleb128 0x28
 9479 34cc 820C0000 		.4byte	.LASF782
 9480 34d0 35       		.byte	0x35
 9481 34d1 B1       		.byte	0xb1
 9482 34d2 74350000 		.4byte	0x3574
 9483 34d6 000D     		.2byte	0xd00
 9484 34d8 28       		.uleb128 0x28
 9485 34d9 9C220000 		.4byte	.LASF783
 9486 34dd 35       		.byte	0x35
 9487 34de B2       		.byte	0xb2
 9488 34df 00010000 		.4byte	0x100
 9489 34e3 000E     		.2byte	0xe00
 9490 34e5 28       		.uleb128 0x28
 9491 34e6 F9170000 		.4byte	.LASF784
 9492 34ea 35       		.byte	0x35
 9493 34eb B4       		.byte	0xb4
 9494 34ec BE350000 		.4byte	0x35be
 9495 34f0 040E     		.2byte	0xe04
 9496 34f2 28       		.uleb128 0x28
 9497 34f3 B70A0000 		.4byte	.LASF284
 9498 34f7 35       		.byte	0x35
 9499 34f8 B5       		.byte	0xb5
 9500 34f9 DA350000 		.4byte	0x35da
 9501 34fd 0010     		.2byte	0x1000
 9502 34ff 00       		.byte	0
 9503 3500 16       		.uleb128 0x16
 9504 3501 00010000 		.4byte	0x100
ARM GAS  C:\Users\PCHAUT~1\AppData\Local\Temp\ccR4smAG.s 			page 168


 9505 3505 10350000 		.4byte	0x3510
 9506 3509 17       		.uleb128 0x17
 9507 350a 37000000 		.4byte	0x37
 9508 350e 2F       		.byte	0x2f
 9509 350f 00       		.byte	0
 9510 3510 06       		.uleb128 0x6
 9511 3511 00350000 		.4byte	0x3500
 9512 3515 16       		.uleb128 0x16
 9513 3516 00010000 		.4byte	0x100
 9514 351a 25350000 		.4byte	0x3525
 9515 351e 17       		.uleb128 0x17
 9516 351f 37000000 		.4byte	0x37
 9517 3523 AF       		.byte	0xaf
 9518 3524 00       		.byte	0
 9519 3525 06       		.uleb128 0x6
 9520 3526 15350000 		.4byte	0x3515
 9521 352a 16       		.uleb128 0x16
 9522 352b 00010000 		.4byte	0x100
 9523 352f 3A350000 		.4byte	0x353a
 9524 3533 17       		.uleb128 0x17
 9525 3534 37000000 		.4byte	0x37
 9526 3538 08       		.byte	0x8
 9527 3539 00       		.byte	0
 9528 353a 06       		.uleb128 0x6
 9529 353b 2A350000 		.4byte	0x352a
 9530 353f 16       		.uleb128 0x16
 9531 3540 00010000 		.4byte	0x100
 9532 3544 4F350000 		.4byte	0x354f
 9533 3548 17       		.uleb128 0x17
 9534 3549 37000000 		.4byte	0x37
 9535 354d 2E       		.byte	0x2e
 9536 354e 00       		.byte	0
 9537 354f 06       		.uleb128 0x6
 9538 3550 3F350000 		.4byte	0x353f
 9539 3554 16       		.uleb128 0x16
 9540 3555 30310000 		.4byte	0x3130
 9541 3559 64350000 		.4byte	0x3564
 9542 355d 17       		.uleb128 0x17
 9543 355e 37000000 		.4byte	0x37
 9544 3562 0F       		.byte	0xf
 9545 3563 00       		.byte	0
 9546 3564 16       		.uleb128 0x16
 9547 3565 00010000 		.4byte	0x100
 9548 3569 74350000 		.4byte	0x3574
 9549 356d 17       		.uleb128 0x17
 9550 356e 37000000 		.4byte	0x37
 9551 3572 3F       		.byte	0x3f
 9552 3573 00       		.byte	0
 9553 3574 06       		.uleb128 0x6
 9554 3575 64350000 		.4byte	0x3564
 9555 3579 16       		.uleb128 0x16
 9556 357a 00010000 		.4byte	0x100
 9557 357e 89350000 		.4byte	0x3589
 9558 3582 17       		.uleb128 0x17
 9559 3583 37000000 		.4byte	0x37
 9560 3587 0F       		.byte	0xf
 9561 3588 00       		.byte	0
ARM GAS  C:\Users\PCHAUT~1\AppData\Local\Temp\ccR4smAG.s 			page 169


 9562 3589 06       		.uleb128 0x6
 9563 358a 79350000 		.4byte	0x3579
 9564 358e 16       		.uleb128 0x16
 9565 358f A4310000 		.4byte	0x31a4
 9566 3593 9E350000 		.4byte	0x359e
 9567 3597 17       		.uleb128 0x17
 9568 3598 37000000 		.4byte	0x37
 9569 359c 0F       		.byte	0xf
 9570 359d 00       		.byte	0
 9571 359e 16       		.uleb128 0x16
 9572 359f 18320000 		.4byte	0x3218
 9573 35a3 AE350000 		.4byte	0x35ae
 9574 35a7 17       		.uleb128 0x17
 9575 35a8 37000000 		.4byte	0x37
 9576 35ac 0F       		.byte	0xf
 9577 35ad 00       		.byte	0
 9578 35ae 16       		.uleb128 0x16
 9579 35af 00010000 		.4byte	0x100
 9580 35b3 BE350000 		.4byte	0x35be
 9581 35b7 17       		.uleb128 0x17
 9582 35b8 37000000 		.4byte	0x37
 9583 35bc 7E       		.byte	0x7e
 9584 35bd 00       		.byte	0
 9585 35be 06       		.uleb128 0x6
 9586 35bf AE350000 		.4byte	0x35ae
 9587 35c3 16       		.uleb128 0x16
 9588 35c4 00010000 		.4byte	0x100
 9589 35c8 DA350000 		.4byte	0x35da
 9590 35cc 17       		.uleb128 0x17
 9591 35cd 37000000 		.4byte	0x37
 9592 35d1 0F       		.byte	0xf
 9593 35d2 2A       		.uleb128 0x2a
 9594 35d3 37000000 		.4byte	0x37
 9595 35d7 FF03     		.2byte	0x3ff
 9596 35d9 00       		.byte	0
 9597 35da 06       		.uleb128 0x6
 9598 35db C3350000 		.4byte	0x35c3
 9599 35df 03       		.uleb128 0x3
 9600 35e0 A9240000 		.4byte	.LASF785
 9601 35e4 35       		.byte	0x35
 9602 35e5 B6       		.byte	0xb6
 9603 35e6 23320000 		.4byte	0x3223
 9604 35ea 1A       		.uleb128 0x1a
 9605 35eb 0C       		.byte	0xc
 9606 35ec 34       		.byte	0x34
 9607 35ed C6       		.byte	0xc6
 9608 35ee 17360000 		.4byte	0x3617
 9609 35f2 08       		.uleb128 0x8
 9610 35f3 470A0000 		.4byte	.LASF786
 9611 35f7 34       		.byte	0x34
 9612 35f8 C7       		.byte	0xc7
 9613 35f9 F5000000 		.4byte	0xf5
 9614 35fd 00       		.byte	0
 9615 35fe 08       		.uleb128 0x8
 9616 35ff 620C0000 		.4byte	.LASF787
 9617 3603 34       		.byte	0x34
 9618 3604 C8       		.byte	0xc8
ARM GAS  C:\Users\PCHAUT~1\AppData\Local\Temp\ccR4smAG.s 			page 170


 9619 3605 F5000000 		.4byte	0xf5
 9620 3609 04       		.byte	0x4
 9621 360a 08       		.uleb128 0x8
 9622 360b 08100000 		.4byte	.LASF788
 9623 360f 34       		.byte	0x34
 9624 3610 C9       		.byte	0xc9
 9625 3611 F5000000 		.4byte	0xf5
 9626 3615 08       		.byte	0x8
 9627 3616 00       		.byte	0
 9628 3617 03       		.uleb128 0x3
 9629 3618 6F0C0000 		.4byte	.LASF789
 9630 361c 34       		.byte	0x34
 9631 361d CA       		.byte	0xca
 9632 361e EA350000 		.4byte	0x35ea
 9633 3622 05       		.uleb128 0x5
 9634 3623 17360000 		.4byte	0x3617
 9635 3627 1A       		.uleb128 0x1a
 9636 3628 04       		.byte	0x4
 9637 3629 34       		.byte	0x34
 9638 362a DD       		.byte	0xdd
 9639 362b 3C360000 		.4byte	0x363c
 9640 362f 08       		.uleb128 0x8
 9641 3630 96220000 		.4byte	.LASF790
 9642 3634 34       		.byte	0x34
 9643 3635 E1       		.byte	0xe1
 9644 3636 C4160000 		.4byte	0x16c4
 9645 363a 00       		.byte	0
 9646 363b 00       		.byte	0
 9647 363c 1A       		.uleb128 0x1a
 9648 363d 04       		.byte	0x4
 9649 363e 34       		.byte	0x34
 9650 363f E3       		.byte	0xe3
 9651 3640 51360000 		.4byte	0x3651
 9652 3644 08       		.uleb128 0x8
 9653 3645 C60A0000 		.4byte	.LASF476
 9654 3649 34       		.byte	0x34
 9655 364a E7       		.byte	0xe7
 9656 364b 51360000 		.4byte	0x3651
 9657 364f 00       		.byte	0
 9658 3650 00       		.byte	0
 9659 3651 0B       		.uleb128 0xb
 9660 3652 04       		.byte	0x4
 9661 3653 A0160000 		.4byte	0x16a0
 9662 3657 20       		.uleb128 0x20
 9663 3658 04       		.byte	0x4
 9664 3659 34       		.byte	0x34
 9665 365a DC       		.byte	0xdc
 9666 365b 76360000 		.4byte	0x3676
 9667 365f 2B       		.uleb128 0x2b
 9668 3660 2D1F0000 		.4byte	.LASF791
 9669 3664 34       		.byte	0x34
 9670 3665 E2       		.byte	0xe2
 9671 3666 27360000 		.4byte	0x3627
 9672 366a 2B       		.uleb128 0x2b
 9673 366b 0A1E0000 		.4byte	.LASF792
 9674 366f 34       		.byte	0x34
 9675 3670 E8       		.byte	0xe8
ARM GAS  C:\Users\PCHAUT~1\AppData\Local\Temp\ccR4smAG.s 			page 171


 9676 3671 3C360000 		.4byte	0x363c
 9677 3675 00       		.byte	0
 9678 3676 1A       		.uleb128 0x1a
 9679 3677 14       		.byte	0x14
 9680 3678 34       		.byte	0x34
 9681 3679 CF       		.byte	0xcf
 9682 367a BB360000 		.4byte	0x36bb
 9683 367e 08       		.uleb128 0x8
 9684 367f 17080000 		.4byte	.LASF793
 9685 3683 34       		.byte	0x34
 9686 3684 D3       		.byte	0xd3
 9687 3685 CC180000 		.4byte	0x18cc
 9688 3689 00       		.byte	0
 9689 368a 08       		.uleb128 0x8
 9690 368b 24130000 		.4byte	.LASF794
 9691 368f 34       		.byte	0x34
 9692 3690 D7       		.byte	0xd7
 9693 3691 2C000000 		.4byte	0x2c
 9694 3695 04       		.byte	0x4
 9695 3696 08       		.uleb128 0x8
 9696 3697 330C0000 		.4byte	.LASF795
 9697 369b 34       		.byte	0x34
 9698 369c DB       		.byte	0xdb
 9699 369d 2C000000 		.4byte	0x2c
 9700 36a1 08       		.byte	0x8
 9701 36a2 08       		.uleb128 0x8
 9702 36a3 A7080000 		.4byte	.LASF522
 9703 36a7 34       		.byte	0x34
 9704 36a8 E9       		.byte	0xe9
 9705 36a9 57360000 		.4byte	0x3657
 9706 36ad 0C       		.byte	0xc
 9707 36ae 08       		.uleb128 0x8
 9708 36af 20100000 		.4byte	.LASF796
 9709 36b3 34       		.byte	0x34
 9710 36b4 ED       		.byte	0xed
 9711 36b5 2C000000 		.4byte	0x2c
 9712 36b9 10       		.byte	0x10
 9713 36ba 00       		.byte	0
 9714 36bb 03       		.uleb128 0x3
 9715 36bc FD100000 		.4byte	.LASF797
 9716 36c0 34       		.byte	0x34
 9717 36c1 EE       		.byte	0xee
 9718 36c2 76360000 		.4byte	0x3676
 9719 36c6 1C       		.uleb128 0x1c
 9720 36c7 04       		.byte	0x4
 9721 36c8 34       		.byte	0x34
 9722 36c9 0101     		.2byte	0x101
 9723 36cb DD360000 		.4byte	0x36dd
 9724 36cf 0A       		.uleb128 0xa
 9725 36d0 920C0000 		.4byte	.LASF798
 9726 36d4 34       		.byte	0x34
 9727 36d5 0501     		.2byte	0x105
 9728 36d7 8F160000 		.4byte	0x168f
 9729 36db 00       		.byte	0
 9730 36dc 00       		.byte	0
 9731 36dd 1C       		.uleb128 0x1c
 9732 36de 04       		.byte	0x4
ARM GAS  C:\Users\PCHAUT~1\AppData\Local\Temp\ccR4smAG.s 			page 172


 9733 36df 34       		.byte	0x34
 9734 36e0 0701     		.2byte	0x107
 9735 36e2 F4360000 		.4byte	0x36f4
 9736 36e6 0A       		.uleb128 0xa
 9737 36e7 E11E0000 		.4byte	.LASF477
 9738 36eb 34       		.byte	0x34
 9739 36ec 0B01     		.2byte	0x10b
 9740 36ee F4360000 		.4byte	0x36f4
 9741 36f2 00       		.byte	0
 9742 36f3 00       		.byte	0
 9743 36f4 0B       		.uleb128 0xb
 9744 36f5 04       		.byte	0x4
 9745 36f6 95160000 		.4byte	0x1695
 9746 36fa 2C       		.uleb128 0x2c
 9747 36fb 04       		.byte	0x4
 9748 36fc 34       		.byte	0x34
 9749 36fd 0001     		.2byte	0x100
 9750 36ff 1C370000 		.4byte	0x371c
 9751 3703 21       		.uleb128 0x21
 9752 3704 2D1F0000 		.4byte	.LASF791
 9753 3708 34       		.byte	0x34
 9754 3709 0601     		.2byte	0x106
 9755 370b C6360000 		.4byte	0x36c6
 9756 370f 21       		.uleb128 0x21
 9757 3710 0A1E0000 		.4byte	.LASF792
 9758 3714 34       		.byte	0x34
 9759 3715 0C01     		.2byte	0x10c
 9760 3717 DD360000 		.4byte	0x36dd
 9761 371b 00       		.byte	0
 9762 371c 1A       		.uleb128 0x1a
 9763 371d 14       		.byte	0x14
 9764 371e 34       		.byte	0x34
 9765 371f F3       		.byte	0xf3
 9766 3720 63370000 		.4byte	0x3763
 9767 3724 08       		.uleb128 0x8
 9768 3725 60060000 		.4byte	.LASF799
 9769 3729 34       		.byte	0x34
 9770 372a F7       		.byte	0xf7
 9771 372b CC180000 		.4byte	0x18cc
 9772 372f 00       		.byte	0
 9773 3730 08       		.uleb128 0x8
 9774 3731 0F140000 		.4byte	.LASF800
 9775 3735 34       		.byte	0x34
 9776 3736 FB       		.byte	0xfb
 9777 3737 2C000000 		.4byte	0x2c
 9778 373b 04       		.byte	0x4
 9779 373c 08       		.uleb128 0x8
 9780 373d 8C080000 		.4byte	.LASF801
 9781 3741 34       		.byte	0x34
 9782 3742 FF       		.byte	0xff
 9783 3743 2C000000 		.4byte	0x2c
 9784 3747 08       		.byte	0x8
 9785 3748 0A       		.uleb128 0xa
 9786 3749 A7080000 		.4byte	.LASF522
 9787 374d 34       		.byte	0x34
 9788 374e 0D01     		.2byte	0x10d
 9789 3750 FA360000 		.4byte	0x36fa
ARM GAS  C:\Users\PCHAUT~1\AppData\Local\Temp\ccR4smAG.s 			page 173


 9790 3754 0C       		.byte	0xc
 9791 3755 0A       		.uleb128 0xa
 9792 3756 20100000 		.4byte	.LASF796
 9793 375a 34       		.byte	0x34
 9794 375b 1101     		.2byte	0x111
 9795 375d 2C000000 		.4byte	0x2c
 9796 3761 10       		.byte	0x10
 9797 3762 00       		.byte	0
 9798 3763 1D       		.uleb128 0x1d
 9799 3764 261D0000 		.4byte	.LASF802
 9800 3768 34       		.byte	0x34
 9801 3769 1201     		.2byte	0x112
 9802 376b 1C370000 		.4byte	0x371c
 9803 376f 1C       		.uleb128 0x1c
 9804 3770 24       		.byte	0x24
 9805 3771 34       		.byte	0x34
 9806 3772 1801     		.2byte	0x118
 9807 3774 FB370000 		.4byte	0x37fb
 9808 3778 0A       		.uleb128 0xa
 9809 3779 C6170000 		.4byte	.LASF803
 9810 377d 34       		.byte	0x34
 9811 377e 1C01     		.2byte	0x11c
 9812 3780 F5000000 		.4byte	0xf5
 9813 3784 00       		.byte	0
 9814 3785 0A       		.uleb128 0xa
 9815 3786 A00A0000 		.4byte	.LASF804
 9816 378a 34       		.byte	0x34
 9817 378b 2701     		.2byte	0x127
 9818 378d 2C300000 		.4byte	0x302c
 9819 3791 04       		.byte	0x4
 9820 3792 0A       		.uleb128 0xa
 9821 3793 B4180000 		.4byte	.LASF805
 9822 3797 34       		.byte	0x34
 9823 3798 2D01     		.2byte	0x12d
 9824 379a 2C300000 		.4byte	0x302c
 9825 379e 08       		.byte	0x8
 9826 379f 0A       		.uleb128 0xa
 9827 37a0 270D0000 		.4byte	.LASF806
 9828 37a4 34       		.byte	0x34
 9829 37a5 3301     		.2byte	0x133
 9830 37a7 2C300000 		.4byte	0x302c
 9831 37ab 0C       		.byte	0xc
 9832 37ac 0A       		.uleb128 0xa
 9833 37ad 2F250000 		.4byte	.LASF807
 9834 37b1 34       		.byte	0x34
 9835 37b2 3901     		.2byte	0x139
 9836 37b4 DA000000 		.4byte	0xda
 9837 37b8 10       		.byte	0x10
 9838 37b9 0A       		.uleb128 0xa
 9839 37ba 7D0D0000 		.4byte	.LASF808
 9840 37be 34       		.byte	0x34
 9841 37bf 3F01     		.2byte	0x13f
 9842 37c1 DA000000 		.4byte	0xda
 9843 37c5 12       		.byte	0x12
 9844 37c6 0A       		.uleb128 0xa
 9845 37c7 79230000 		.4byte	.LASF809
 9846 37cb 34       		.byte	0x34
ARM GAS  C:\Users\PCHAUT~1\AppData\Local\Temp\ccR4smAG.s 			page 174


 9847 37cc 4401     		.2byte	0x144
 9848 37ce FB370000 		.4byte	0x37fb
 9849 37d2 14       		.byte	0x14
 9850 37d3 0A       		.uleb128 0xa
 9851 37d4 E60E0000 		.4byte	.LASF810
 9852 37d8 34       		.byte	0x34
 9853 37d9 4901     		.2byte	0x149
 9854 37db 01380000 		.4byte	0x3801
 9855 37df 18       		.byte	0x18
 9856 37e0 0A       		.uleb128 0xa
 9857 37e1 9B120000 		.4byte	.LASF811
 9858 37e5 34       		.byte	0x34
 9859 37e6 5001     		.2byte	0x150
 9860 37e8 DA000000 		.4byte	0xda
 9861 37ec 1C       		.byte	0x1c
 9862 37ed 0A       		.uleb128 0xa
 9863 37ee DE220000 		.4byte	.LASF812
 9864 37f2 34       		.byte	0x34
 9865 37f3 5601     		.2byte	0x156
 9866 37f5 8F160000 		.4byte	0x168f
 9867 37f9 20       		.byte	0x20
 9868 37fa 00       		.byte	0
 9869 37fb 0B       		.uleb128 0xb
 9870 37fc 04       		.byte	0x4
 9871 37fd BB360000 		.4byte	0x36bb
 9872 3801 0B       		.uleb128 0xb
 9873 3802 04       		.byte	0x4
 9874 3803 63370000 		.4byte	0x3763
 9875 3807 1D       		.uleb128 0x1d
 9876 3808 B11E0000 		.4byte	.LASF813
 9877 380c 34       		.byte	0x34
 9878 380d 5701     		.2byte	0x157
 9879 380f 6F370000 		.4byte	0x376f
 9880 3813 05       		.uleb128 0x5
 9881 3814 07380000 		.4byte	0x3807
 9882 3818 1C       		.uleb128 0x1c
 9883 3819 10       		.byte	0x10
 9884 381a 34       		.byte	0x34
 9885 381b 5C01     		.2byte	0x15c
 9886 381d 56380000 		.4byte	0x3856
 9887 3821 0A       		.uleb128 0xa
 9888 3822 31050000 		.4byte	.LASF814
 9889 3826 34       		.byte	0x34
 9890 3827 6101     		.2byte	0x161
 9891 3829 4E300000 		.4byte	0x304e
 9892 382d 00       		.byte	0
 9893 382e 0A       		.uleb128 0xa
 9894 382f 3D220000 		.4byte	.LASF815
 9895 3833 34       		.byte	0x34
 9896 3834 6601     		.2byte	0x166
 9897 3836 91300000 		.4byte	0x3091
 9898 383a 04       		.byte	0x4
 9899 383b 0A       		.uleb128 0xa
 9900 383c 05130000 		.4byte	.LASF816
 9901 3840 34       		.byte	0x34
 9902 3841 6C01     		.2byte	0x16c
 9903 3843 70300000 		.4byte	0x3070
ARM GAS  C:\Users\PCHAUT~1\AppData\Local\Temp\ccR4smAG.s 			page 175


 9904 3847 08       		.byte	0x8
 9905 3848 0A       		.uleb128 0xa
 9906 3849 9B020000 		.4byte	.LASF817
 9907 384d 34       		.byte	0x34
 9908 384e 7001     		.2byte	0x170
 9909 3850 09300000 		.4byte	0x3009
 9910 3854 0C       		.byte	0xc
 9911 3855 00       		.byte	0
 9912 3856 1D       		.uleb128 0x1d
 9913 3857 13120000 		.4byte	.LASF818
 9914 385b 34       		.byte	0x34
 9915 385c 7201     		.2byte	0x172
 9916 385e 18380000 		.4byte	0x3818
 9917 3862 05       		.uleb128 0x5
 9918 3863 56380000 		.4byte	0x3856
 9919 3867 0B       		.uleb128 0xb
 9920 3868 04       		.byte	0x4
 9921 3869 62380000 		.4byte	0x3862
 9922 386d 16       		.uleb128 0x16
 9923 386e 7D380000 		.4byte	0x387d
 9924 3872 7D380000 		.4byte	0x387d
 9925 3876 17       		.uleb128 0x17
 9926 3877 37000000 		.4byte	0x37
 9927 387b 03       		.byte	0x3
 9928 387c 00       		.byte	0
 9929 387d 0B       		.uleb128 0xb
 9930 387e 04       		.byte	0x4
 9931 387f 13380000 		.4byte	0x3813
 9932 3883 16       		.uleb128 0x16
 9933 3884 BA030000 		.4byte	0x3ba
 9934 3888 93380000 		.4byte	0x3893
 9935 388c 17       		.uleb128 0x17
 9936 388d 37000000 		.4byte	0x37
 9937 3891 02       		.byte	0x2
 9938 3892 00       		.byte	0
 9939 3893 0B       		.uleb128 0xb
 9940 3894 04       		.byte	0x4
 9941 3895 DF350000 		.4byte	0x35df
 9942 3899 0B       		.uleb128 0xb
 9943 389a 04       		.byte	0x4
 9944 389b 22360000 		.4byte	0x3622
 9945 389f 16       		.uleb128 0x16
 9946 38a0 9B100000 		.4byte	0x109b
 9947 38a4 AF380000 		.4byte	0x38af
 9948 38a8 17       		.uleb128 0x17
 9949 38a9 37000000 		.4byte	0x37
 9950 38ad 3E       		.byte	0x3e
 9951 38ae 00       		.byte	0
 9952 38af 18       		.uleb128 0x18
 9953 38b0 93150000 		.4byte	.LASF819
 9954 38b4 34       		.byte	0x34
 9955 38b5 0602     		.2byte	0x206
 9956 38b7 D52D0000 		.4byte	0x2dd5
 9957 38bb 2D       		.uleb128 0x2d
 9958 38bc 50260000 		.4byte	0x2650
 9959 38c0 06       		.byte	0x6
 9960 38c1 5E       		.byte	0x5e
ARM GAS  C:\Users\PCHAUT~1\AppData\Local\Temp\ccR4smAG.s 			page 176


 9961 38c2 05       		.uleb128 0x5
 9962 38c3 03       		.byte	0x3
 9963 38c4 00000000 		.4byte	I2CD1
 9964 38c8 2E       		.uleb128 0x2e
 9965 38c9 F7160000 		.4byte	.LASF825
 9966 38cd 06       		.byte	0x6
 9967 38ce 1903     		.2byte	0x319
 9968 38d0 62010000 		.4byte	0x162
 9969 38d4 00000000 		.4byte	.LFB269
 9970 38d8 10010000 		.4byte	.LFE269-.LFB269
 9971 38dc 01       		.uleb128 0x1
 9972 38dd 9C       		.byte	0x9c
 9973 38de 78390000 		.4byte	0x3978
 9974 38e2 2F       		.uleb128 0x2f
 9975 38e3 430F0000 		.4byte	.LASF820
 9976 38e7 06       		.byte	0x6
 9977 38e8 1903     		.2byte	0x319
 9978 38ea 78390000 		.4byte	0x3978
 9979 38ee 02       		.uleb128 0x2
 9980 38ef 91       		.byte	0x91
 9981 38f0 64       		.sleb128 -28
 9982 38f1 2F       		.uleb128 0x2f
 9983 38f2 3E0F0000 		.4byte	.LASF576
 9984 38f6 06       		.byte	0x6
 9985 38f7 1903     		.2byte	0x319
 9986 38f9 E7240000 		.4byte	0x24e7
 9987 38fd 02       		.uleb128 0x2
 9988 38fe 91       		.byte	0x91
 9989 38ff 62       		.sleb128 -30
 9990 3900 2F       		.uleb128 0x2f
 9991 3901 96220000 		.4byte	.LASF790
 9992 3905 06       		.byte	0x6
 9993 3906 1A03     		.2byte	0x31a
 9994 3908 C4160000 		.4byte	0x16c4
 9995 390c 02       		.uleb128 0x2
 9996 390d 91       		.byte	0x91
 9997 390e 5C       		.sleb128 -36
 9998 390f 2F       		.uleb128 0x2f
 9999 3910 CE190000 		.4byte	.LASF821
 10000 3914 06       		.byte	0x6
 10001 3915 1A03     		.2byte	0x31a
 10002 3917 2C000000 		.4byte	0x2c
 10003 391b 02       		.uleb128 0x2
 10004 391c 91       		.byte	0x91
 10005 391d 58       		.sleb128 -40
 10006 391e 2F       		.uleb128 0x2f
 10007 391f 920C0000 		.4byte	.LASF798
 10008 3923 06       		.byte	0x6
 10009 3924 1B03     		.2byte	0x31b
 10010 3926 8F160000 		.4byte	0x168f
 10011 392a 02       		.uleb128 0x2
 10012 392b 91       		.byte	0x91
 10013 392c 54       		.sleb128 -44
 10014 392d 2F       		.uleb128 0x2f
 10015 392e 910A0000 		.4byte	.LASF822
 10016 3932 06       		.byte	0x6
 10017 3933 1B03     		.2byte	0x31b
ARM GAS  C:\Users\PCHAUT~1\AppData\Local\Temp\ccR4smAG.s 			page 177


 10018 3935 2C000000 		.4byte	0x2c
 10019 3939 02       		.uleb128 0x2
 10020 393a 91       		.byte	0x91
 10021 393b 50       		.sleb128 -48
 10022 393c 2F       		.uleb128 0x2f
 10023 393d D70B0000 		.4byte	.LASF823
 10024 3941 06       		.byte	0x6
 10025 3942 1C03     		.2byte	0x31c
 10026 3944 99010000 		.4byte	0x199
 10027 3948 02       		.uleb128 0x2
 10028 3949 91       		.byte	0x91
 10029 394a 4C       		.sleb128 -52
 10030 394b 30       		.uleb128 0x30
 10031 394c 647000   		.ascii	"dp\000"
 10032 394f 06       		.byte	0x6
 10033 3950 1D03     		.2byte	0x31d
 10034 3952 4A260000 		.4byte	0x264a
 10035 3956 02       		.uleb128 0x2
 10036 3957 91       		.byte	0x91
 10037 3958 68       		.sleb128 -24
 10038 3959 31       		.uleb128 0x31
 10039 395a 43120000 		.4byte	.LASF824
 10040 395e 06       		.byte	0x6
 10041 395f 1E03     		.2byte	0x31e
 10042 3961 99010000 		.4byte	0x199
 10043 3965 02       		.uleb128 0x2
 10044 3966 91       		.byte	0x91
 10045 3967 6C       		.sleb128 -20
 10046 3968 30       		.uleb128 0x30
 10047 3969 656E6400 		.ascii	"end\000"
 10048 396d 06       		.byte	0x6
 10049 396e 1E03     		.2byte	0x31e
 10050 3970 99010000 		.4byte	0x199
 10051 3974 02       		.uleb128 0x2
 10052 3975 91       		.byte	0x91
 10053 3976 70       		.sleb128 -16
 10054 3977 00       		.byte	0
 10055 3978 0B       		.uleb128 0xb
 10056 3979 04       		.byte	0x4
 10057 397a 9B250000 		.4byte	0x259b
 10058 397e 2E       		.uleb128 0x2e
 10059 397f EB0C0000 		.4byte	.LASF826
 10060 3983 06       		.byte	0x6
 10061 3984 CA02     		.2byte	0x2ca
 10062 3986 62010000 		.4byte	0x162
 10063 398a 00000000 		.4byte	.LFB268
 10064 398e F0000000 		.4byte	.LFE268-.LFB268
 10065 3992 01       		.uleb128 0x1
 10066 3993 9C       		.byte	0x9c
 10067 3994 103A0000 		.4byte	0x3a10
 10068 3998 2F       		.uleb128 0x2f
 10069 3999 430F0000 		.4byte	.LASF820
 10070 399d 06       		.byte	0x6
 10071 399e CA02     		.2byte	0x2ca
 10072 39a0 78390000 		.4byte	0x3978
 10073 39a4 02       		.uleb128 0x2
 10074 39a5 91       		.byte	0x91
ARM GAS  C:\Users\PCHAUT~1\AppData\Local\Temp\ccR4smAG.s 			page 178


 10075 39a6 64       		.sleb128 -28
 10076 39a7 2F       		.uleb128 0x2f
 10077 39a8 3E0F0000 		.4byte	.LASF576
 10078 39ac 06       		.byte	0x6
 10079 39ad CA02     		.2byte	0x2ca
 10080 39af E7240000 		.4byte	0x24e7
 10081 39b3 02       		.uleb128 0x2
 10082 39b4 91       		.byte	0x91
 10083 39b5 62       		.sleb128 -30
 10084 39b6 2F       		.uleb128 0x2f
 10085 39b7 920C0000 		.4byte	.LASF798
 10086 39bb 06       		.byte	0x6
 10087 39bc CB02     		.2byte	0x2cb
 10088 39be 8F160000 		.4byte	0x168f
 10089 39c2 02       		.uleb128 0x2
 10090 39c3 91       		.byte	0x91
 10091 39c4 5C       		.sleb128 -36
 10092 39c5 2F       		.uleb128 0x2f
 10093 39c6 910A0000 		.4byte	.LASF822
 10094 39ca 06       		.byte	0x6
 10095 39cb CB02     		.2byte	0x2cb
 10096 39cd 2C000000 		.4byte	0x2c
 10097 39d1 02       		.uleb128 0x2
 10098 39d2 91       		.byte	0x91
 10099 39d3 58       		.sleb128 -40
 10100 39d4 2F       		.uleb128 0x2f
 10101 39d5 D70B0000 		.4byte	.LASF823
 10102 39d9 06       		.byte	0x6
 10103 39da CC02     		.2byte	0x2cc
 10104 39dc 99010000 		.4byte	0x199
 10105 39e0 02       		.uleb128 0x2
 10106 39e1 91       		.byte	0x91
 10107 39e2 54       		.sleb128 -44
 10108 39e3 30       		.uleb128 0x30
 10109 39e4 647000   		.ascii	"dp\000"
 10110 39e7 06       		.byte	0x6
 10111 39e8 CD02     		.2byte	0x2cd
 10112 39ea 4A260000 		.4byte	0x264a
 10113 39ee 02       		.uleb128 0x2
 10114 39ef 91       		.byte	0x91
 10115 39f0 68       		.sleb128 -24
 10116 39f1 31       		.uleb128 0x31
 10117 39f2 43120000 		.4byte	.LASF824
 10118 39f6 06       		.byte	0x6
 10119 39f7 CE02     		.2byte	0x2ce
 10120 39f9 99010000 		.4byte	0x199
 10121 39fd 02       		.uleb128 0x2
 10122 39fe 91       		.byte	0x91
 10123 39ff 6C       		.sleb128 -20
 10124 3a00 30       		.uleb128 0x30
 10125 3a01 656E6400 		.ascii	"end\000"
 10126 3a05 06       		.byte	0x6
 10127 3a06 CE02     		.2byte	0x2ce
 10128 3a08 99010000 		.4byte	0x199
 10129 3a0c 02       		.uleb128 0x2
 10130 3a0d 91       		.byte	0x91
 10131 3a0e 70       		.sleb128 -16
ARM GAS  C:\Users\PCHAUT~1\AppData\Local\Temp\ccR4smAG.s 			page 179


 10132 3a0f 00       		.byte	0
 10133 3a10 32       		.uleb128 0x32
 10134 3a11 4D0F0000 		.4byte	.LASF827
 10135 3a15 06       		.byte	0x6
 10136 3a16 8F02     		.2byte	0x28f
 10137 3a18 00000000 		.4byte	.LFB267
 10138 3a1c 70000000 		.4byte	.LFE267-.LFB267
 10139 3a20 01       		.uleb128 0x1
 10140 3a21 9C       		.byte	0x9c
 10141 3a22 363A0000 		.4byte	0x3a36
 10142 3a26 2F       		.uleb128 0x2f
 10143 3a27 430F0000 		.4byte	.LASF820
 10144 3a2b 06       		.byte	0x6
 10145 3a2c 8F02     		.2byte	0x28f
 10146 3a2e 78390000 		.4byte	0x3978
 10147 3a32 02       		.uleb128 0x2
 10148 3a33 91       		.byte	0x91
 10149 3a34 6C       		.sleb128 -20
 10150 3a35 00       		.byte	0
 10151 3a36 32       		.uleb128 0x32
 10152 3a37 8D020000 		.4byte	.LASF828
 10153 3a3b 06       		.byte	0x6
 10154 3a3c 1902     		.2byte	0x219
 10155 3a3e 00000000 		.4byte	.LFB266
 10156 3a42 3C010000 		.4byte	.LFE266-.LFB266
 10157 3a46 01       		.uleb128 0x1
 10158 3a47 9C       		.byte	0x9c
 10159 3a48 903A0000 		.4byte	0x3a90
 10160 3a4c 2F       		.uleb128 0x2f
 10161 3a4d 430F0000 		.4byte	.LASF820
 10162 3a51 06       		.byte	0x6
 10163 3a52 1902     		.2byte	0x219
 10164 3a54 78390000 		.4byte	0x3978
 10165 3a58 02       		.uleb128 0x2
 10166 3a59 91       		.byte	0x91
 10167 3a5a 64       		.sleb128 -28
 10168 3a5b 30       		.uleb128 0x30
 10169 3a5c 647000   		.ascii	"dp\000"
 10170 3a5f 06       		.byte	0x6
 10171 3a60 1A02     		.2byte	0x21a
 10172 3a62 4A260000 		.4byte	0x264a
 10173 3a66 02       		.uleb128 0x2
 10174 3a67 91       		.byte	0x91
 10175 3a68 70       		.sleb128 -16
 10176 3a69 33       		.uleb128 0x33
 10177 3a6a 75000000 		.4byte	.LASF845
 10178 3a6e A03A0000 		.4byte	0x3aa0
 10179 3a72 05       		.uleb128 0x5
 10180 3a73 03       		.byte	0x3
 10181 3a74 00000000 		.4byte	__func__.9922
 10182 3a78 34       		.uleb128 0x34
 10183 3a79 32000000 		.4byte	.LBB10
 10184 3a7d 92000000 		.4byte	.LBE10-.LBB10
 10185 3a81 30       		.uleb128 0x30
 10186 3a82 6200     		.ascii	"b\000"
 10187 3a84 06       		.byte	0x6
 10188 3a85 2A02     		.2byte	0x22a
ARM GAS  C:\Users\PCHAUT~1\AppData\Local\Temp\ccR4smAG.s 			page 180


 10189 3a87 CC180000 		.4byte	0x18cc
 10190 3a8b 02       		.uleb128 0x2
 10191 3a8c 91       		.byte	0x91
 10192 3a8d 6F       		.sleb128 -17
 10193 3a8e 00       		.byte	0
 10194 3a8f 00       		.byte	0
 10195 3a90 16       		.uleb128 0x16
 10196 3a91 2E140000 		.4byte	0x142e
 10197 3a95 A03A0000 		.4byte	0x3aa0
 10198 3a99 17       		.uleb128 0x17
 10199 3a9a 37000000 		.4byte	0x37
 10200 3a9e 0D       		.byte	0xd
 10201 3a9f 00       		.byte	0
 10202 3aa0 05       		.uleb128 0x5
 10203 3aa1 903A0000 		.4byte	0x3a90
 10204 3aa5 35       		.uleb128 0x35
 10205 3aa6 00210000 		.4byte	.LASF830
 10206 3aaa 06       		.byte	0x6
 10207 3aab F701     		.2byte	0x1f7
 10208 3aad 00000000 		.4byte	.LFB265
 10209 3ab1 54000000 		.4byte	.LFE265-.LFB265
 10210 3ab5 01       		.uleb128 0x1
 10211 3ab6 9C       		.byte	0x9c
 10212 3ab7 32       		.uleb128 0x32
 10213 3ab8 58100000 		.4byte	.LASF829
 10214 3abc 06       		.byte	0x6
 10215 3abd A201     		.2byte	0x1a2
 10216 3abf 00000000 		.4byte	.LFB264
 10217 3ac3 60000000 		.4byte	.LFE264-.LFB264
 10218 3ac7 01       		.uleb128 0x1
 10219 3ac8 9C       		.byte	0x9c
 10220 3ac9 DC3A0000 		.4byte	0x3adc
 10221 3acd 30       		.uleb128 0x30
 10222 3ace 737200   		.ascii	"sr\000"
 10223 3ad1 06       		.byte	0x6
 10224 3ad2 A301     		.2byte	0x1a3
 10225 3ad4 DA000000 		.4byte	0xda
 10226 3ad8 02       		.uleb128 0x2
 10227 3ad9 91       		.byte	0x91
 10228 3ada 72       		.sleb128 -14
 10229 3adb 00       		.byte	0
 10230 3adc 35       		.uleb128 0x35
 10231 3add E80F0000 		.4byte	.LASF831
 10232 3ae1 06       		.byte	0x6
 10233 3ae2 9601     		.2byte	0x196
 10234 3ae4 00000000 		.4byte	.LFB263
 10235 3ae8 40000000 		.4byte	.LFE263-.LFB263
 10236 3aec 01       		.uleb128 0x1
 10237 3aed 9C       		.byte	0x9c
 10238 3aee 36       		.uleb128 0x36
 10239 3aef 52040000 		.4byte	.LASF832
 10240 3af3 06       		.byte	0x6
 10241 3af4 6701     		.2byte	0x167
 10242 3af6 00000000 		.4byte	.LFB262
 10243 3afa 8C010000 		.4byte	.LFE262-.LFB262
 10244 3afe 01       		.uleb128 0x1
 10245 3aff 9C       		.byte	0x9c
ARM GAS  C:\Users\PCHAUT~1\AppData\Local\Temp\ccR4smAG.s 			page 181


 10246 3b00 223B0000 		.4byte	0x3b22
 10247 3b04 2F       		.uleb128 0x2f
 10248 3b05 430F0000 		.4byte	.LASF820
 10249 3b09 06       		.byte	0x6
 10250 3b0a 6701     		.2byte	0x167
 10251 3b0c 78390000 		.4byte	0x3978
 10252 3b10 02       		.uleb128 0x2
 10253 3b11 91       		.byte	0x91
 10254 3b12 6C       		.sleb128 -20
 10255 3b13 37       		.uleb128 0x37
 10256 3b14 737200   		.ascii	"sr\000"
 10257 3b17 06       		.byte	0x6
 10258 3b18 6701     		.2byte	0x167
 10259 3b1a DA000000 		.4byte	0xda
 10260 3b1e 02       		.uleb128 0x2
 10261 3b1f 91       		.byte	0x91
 10262 3b20 6A       		.sleb128 -22
 10263 3b21 00       		.byte	0
 10264 3b22 36       		.uleb128 0x36
 10265 3b23 52210000 		.4byte	.LASF833
 10266 3b27 06       		.byte	0x6
 10267 3b28 4C01     		.2byte	0x14c
 10268 3b2a 00000000 		.4byte	.LFB261
 10269 3b2e 8C000000 		.4byte	.LFE261-.LFB261
 10270 3b32 01       		.uleb128 0x1
 10271 3b33 9C       		.byte	0x9c
 10272 3b34 653B0000 		.4byte	0x3b65
 10273 3b38 2F       		.uleb128 0x2f
 10274 3b39 430F0000 		.4byte	.LASF820
 10275 3b3d 06       		.byte	0x6
 10276 3b3e 4C01     		.2byte	0x14c
 10277 3b40 78390000 		.4byte	0x3978
 10278 3b44 02       		.uleb128 0x2
 10279 3b45 91       		.byte	0x91
 10280 3b46 6C       		.sleb128 -20
 10281 3b47 2F       		.uleb128 0x2f
 10282 3b48 4A250000 		.4byte	.LASF834
 10283 3b4c 06       		.byte	0x6
 10284 3b4d 4C01     		.2byte	0x14c
 10285 3b4f F5000000 		.4byte	0xf5
 10286 3b53 02       		.uleb128 0x2
 10287 3b54 91       		.byte	0x91
 10288 3b55 68       		.sleb128 -24
 10289 3b56 30       		.uleb128 0x30
 10290 3b57 647000   		.ascii	"dp\000"
 10291 3b5a 06       		.byte	0x6
 10292 3b5b 4D01     		.2byte	0x14d
 10293 3b5d 4A260000 		.4byte	0x264a
 10294 3b61 02       		.uleb128 0x2
 10295 3b62 91       		.byte	0x91
 10296 3b63 70       		.sleb128 -16
 10297 3b64 00       		.byte	0
 10298 3b65 36       		.uleb128 0x36
 10299 3b66 90170000 		.4byte	.LASF835
 10300 3b6a 06       		.byte	0x6
 10301 3b6b 3101     		.2byte	0x131
 10302 3b6d 00000000 		.4byte	.LFB260
ARM GAS  C:\Users\PCHAUT~1\AppData\Local\Temp\ccR4smAG.s 			page 182


 10303 3b71 B8000000 		.4byte	.LFE260-.LFB260
 10304 3b75 01       		.uleb128 0x1
 10305 3b76 9C       		.byte	0x9c
 10306 3b77 A83B0000 		.4byte	0x3ba8
 10307 3b7b 2F       		.uleb128 0x2f
 10308 3b7c 430F0000 		.4byte	.LASF820
 10309 3b80 06       		.byte	0x6
 10310 3b81 3101     		.2byte	0x131
 10311 3b83 78390000 		.4byte	0x3978
 10312 3b87 02       		.uleb128 0x2
 10313 3b88 91       		.byte	0x91
 10314 3b89 6C       		.sleb128 -20
 10315 3b8a 2F       		.uleb128 0x2f
 10316 3b8b 4A250000 		.4byte	.LASF834
 10317 3b8f 06       		.byte	0x6
 10318 3b90 3101     		.2byte	0x131
 10319 3b92 F5000000 		.4byte	0xf5
 10320 3b96 02       		.uleb128 0x2
 10321 3b97 91       		.byte	0x91
 10322 3b98 68       		.sleb128 -24
 10323 3b99 30       		.uleb128 0x30
 10324 3b9a 647000   		.ascii	"dp\000"
 10325 3b9d 06       		.byte	0x6
 10326 3b9e 3201     		.2byte	0x132
 10327 3ba0 4A260000 		.4byte	0x264a
 10328 3ba4 02       		.uleb128 0x2
 10329 3ba5 91       		.byte	0x91
 10330 3ba6 70       		.sleb128 -16
 10331 3ba7 00       		.byte	0
 10332 3ba8 38       		.uleb128 0x38
 10333 3ba9 EA240000 		.4byte	.LASF836
 10334 3bad 06       		.byte	0x6
 10335 3bae F5       		.byte	0xf5
 10336 3baf 00000000 		.4byte	.LFB259
 10337 3bb3 A0010000 		.4byte	.LFE259-.LFB259
 10338 3bb7 01       		.uleb128 0x1
 10339 3bb8 9C       		.byte	0x9c
 10340 3bb9 F53B0000 		.4byte	0x3bf5
 10341 3bbd 39       		.uleb128 0x39
 10342 3bbe 430F0000 		.4byte	.LASF820
 10343 3bc2 06       		.byte	0x6
 10344 3bc3 F5       		.byte	0xf5
 10345 3bc4 78390000 		.4byte	0x3978
 10346 3bc8 02       		.uleb128 0x2
 10347 3bc9 91       		.byte	0x91
 10348 3bca 64       		.sleb128 -28
 10349 3bcb 3A       		.uleb128 0x3a
 10350 3bcc 647000   		.ascii	"dp\000"
 10351 3bcf 06       		.byte	0x6
 10352 3bd0 F6       		.byte	0xf6
 10353 3bd1 4A260000 		.4byte	0x264a
 10354 3bd5 02       		.uleb128 0x2
 10355 3bd6 91       		.byte	0x91
 10356 3bd7 68       		.sleb128 -24
 10357 3bd8 3B       		.uleb128 0x3b
 10358 3bd9 6F240000 		.4byte	.LASF837
 10359 3bdd 06       		.byte	0x6
ARM GAS  C:\Users\PCHAUT~1\AppData\Local\Temp\ccR4smAG.s 			page 183


 10360 3bde F7       		.byte	0xf7
 10361 3bdf F5000000 		.4byte	0xf5
 10362 3be3 02       		.uleb128 0x2
 10363 3be4 91       		.byte	0x91
 10364 3be5 6C       		.sleb128 -20
 10365 3be6 3B       		.uleb128 0x3b
 10366 3be7 4C000000 		.4byte	.LASF620
 10367 3beb 06       		.byte	0x6
 10368 3bec F8       		.byte	0xf8
 10369 3bed F5000000 		.4byte	0xf5
 10370 3bf1 02       		.uleb128 0x2
 10371 3bf2 91       		.byte	0x91
 10372 3bf3 70       		.sleb128 -16
 10373 3bf4 00       		.byte	0
 10374 3bf5 38       		.uleb128 0x38
 10375 3bf6 61100000 		.4byte	.LASF838
 10376 3bfa 06       		.byte	0x6
 10377 3bfb D9       		.byte	0xd9
 10378 3bfc 00000000 		.4byte	.LFB258
 10379 3c00 8C000000 		.4byte	.LFE258-.LFB258
 10380 3c04 01       		.uleb128 0x1
 10381 3c05 9C       		.byte	0x9c
 10382 3c06 423C0000 		.4byte	0x3c42
 10383 3c0a 39       		.uleb128 0x39
 10384 3c0b 430F0000 		.4byte	.LASF820
 10385 3c0f 06       		.byte	0x6
 10386 3c10 D9       		.byte	0xd9
 10387 3c11 78390000 		.4byte	0x3978
 10388 3c15 02       		.uleb128 0x2
 10389 3c16 91       		.byte	0x91
 10390 3c17 64       		.sleb128 -28
 10391 3c18 3A       		.uleb128 0x3a
 10392 3c19 647000   		.ascii	"dp\000"
 10393 3c1c 06       		.byte	0x6
 10394 3c1d DA       		.byte	0xda
 10395 3c1e 4A260000 		.4byte	0x264a
 10396 3c22 02       		.uleb128 0x2
 10397 3c23 91       		.byte	0x91
 10398 3c24 70       		.sleb128 -16
 10399 3c25 3B       		.uleb128 0x3b
 10400 3c26 23230000 		.4byte	.LASF839
 10401 3c2a 06       		.byte	0x6
 10402 3c2b DB       		.byte	0xdb
 10403 3c2c 20250000 		.4byte	0x2520
 10404 3c30 02       		.uleb128 0x2
 10405 3c31 91       		.byte	0x91
 10406 3c32 6D       		.sleb128 -19
 10407 3c33 3B       		.uleb128 0x3b
 10408 3c34 44110000 		.4byte	.LASF840
 10409 3c38 06       		.byte	0x6
 10410 3c39 DC       		.byte	0xdc
 10411 3c3a DA000000 		.4byte	0xda
 10412 3c3e 02       		.uleb128 0x2
 10413 3c3f 91       		.byte	0x91
 10414 3c40 6E       		.sleb128 -18
 10415 3c41 00       		.byte	0
 10416 3c42 38       		.uleb128 0x38
ARM GAS  C:\Users\PCHAUT~1\AppData\Local\Temp\ccR4smAG.s 			page 184


 10417 3c43 96190000 		.4byte	.LASF841
 10418 3c47 06       		.byte	0x6
 10419 3c48 8F       		.byte	0x8f
 10420 3c49 00000000 		.4byte	.LFB257
 10421 3c4d F8010000 		.4byte	.LFE257-.LFB257
 10422 3c51 01       		.uleb128 0x1
 10423 3c52 9C       		.byte	0x9c
 10424 3c53 BA3C0000 		.4byte	0x3cba
 10425 3c57 39       		.uleb128 0x39
 10426 3c58 430F0000 		.4byte	.LASF820
 10427 3c5c 06       		.byte	0x6
 10428 3c5d 8F       		.byte	0x8f
 10429 3c5e 78390000 		.4byte	0x3978
 10430 3c62 02       		.uleb128 0x2
 10431 3c63 91       		.byte	0x91
 10432 3c64 5C       		.sleb128 -36
 10433 3c65 3A       		.uleb128 0x3a
 10434 3c66 647000   		.ascii	"dp\000"
 10435 3c69 06       		.byte	0x6
 10436 3c6a 90       		.byte	0x90
 10437 3c6b 4A260000 		.4byte	0x264a
 10438 3c6f 02       		.uleb128 0x2
 10439 3c70 91       		.byte	0x91
 10440 3c71 6C       		.sleb128 -20
 10441 3c72 3B       		.uleb128 0x3b
 10442 3c73 66070000 		.4byte	.LASF842
 10443 3c77 06       		.byte	0x6
 10444 3c78 91       		.byte	0x91
 10445 3c79 DA000000 		.4byte	0xda
 10446 3c7d 02       		.uleb128 0x2
 10447 3c7e 91       		.byte	0x91
 10448 3c7f 68       		.sleb128 -24
 10449 3c80 3B       		.uleb128 0x3b
 10450 3c81 32020000 		.4byte	.LASF843
 10451 3c85 06       		.byte	0x6
 10452 3c86 91       		.byte	0x91
 10453 3c87 DA000000 		.4byte	0xda
 10454 3c8b 02       		.uleb128 0x2
 10455 3c8c 91       		.byte	0x91
 10456 3c8d 6A       		.sleb128 -22
 10457 3c8e 3B       		.uleb128 0x3b
 10458 3c8f EA030000 		.4byte	.LASF571
 10459 3c93 06       		.byte	0x6
 10460 3c94 92       		.byte	0x92
 10461 3c95 E5000000 		.4byte	0xe5
 10462 3c99 02       		.uleb128 0x2
 10463 3c9a 91       		.byte	0x91
 10464 3c9b 70       		.sleb128 -16
 10465 3c9c 3B       		.uleb128 0x3b
 10466 3c9d CD1B0000 		.4byte	.LASF844
 10467 3ca1 06       		.byte	0x6
 10468 3ca2 93       		.byte	0x93
 10469 3ca3 4D250000 		.4byte	0x254d
 10470 3ca7 02       		.uleb128 0x2
 10471 3ca8 91       		.byte	0x91
 10472 3ca9 67       		.sleb128 -25
 10473 3caa 33       		.uleb128 0x33
ARM GAS  C:\Users\PCHAUT~1\AppData\Local\Temp\ccR4smAG.s 			page 185


 10474 3cab 75000000 		.4byte	.LASF845
 10475 3caf CA3C0000 		.4byte	0x3cca
 10476 3cb3 05       		.uleb128 0x5
 10477 3cb4 03       		.byte	0x3
 10478 3cb5 00000000 		.4byte	__func__.9857
 10479 3cb9 00       		.byte	0
 10480 3cba 16       		.uleb128 0x16
 10481 3cbb 2E140000 		.4byte	0x142e
 10482 3cbf CA3C0000 		.4byte	0x3cca
 10483 3cc3 17       		.uleb128 0x17
 10484 3cc4 37000000 		.4byte	0x37
 10485 3cc8 11       		.byte	0x11
 10486 3cc9 00       		.byte	0
 10487 3cca 05       		.uleb128 0x5
 10488 3ccb BA3C0000 		.4byte	0x3cba
 10489 3ccf 38       		.uleb128 0x38
 10490 3cd0 2D170000 		.4byte	.LASF846
 10491 3cd4 06       		.byte	0x6
 10492 3cd5 7A       		.byte	0x7a
 10493 3cd6 00000000 		.4byte	.LFB256
 10494 3cda C0000000 		.4byte	.LFE256-.LFB256
 10495 3cde 01       		.uleb128 0x1
 10496 3cdf 9C       		.byte	0x9c
 10497 3ce0 003D0000 		.4byte	0x3d00
 10498 3ce4 39       		.uleb128 0x39
 10499 3ce5 430F0000 		.4byte	.LASF820
 10500 3ce9 06       		.byte	0x6
 10501 3cea 7A       		.byte	0x7a
 10502 3ceb 78390000 		.4byte	0x3978
 10503 3cef 02       		.uleb128 0x2
 10504 3cf0 91       		.byte	0x91
 10505 3cf1 6C       		.sleb128 -20
 10506 3cf2 3A       		.uleb128 0x3a
 10507 3cf3 647000   		.ascii	"dp\000"
 10508 3cf6 06       		.byte	0x6
 10509 3cf7 7B       		.byte	0x7b
 10510 3cf8 4A260000 		.4byte	0x264a
 10511 3cfc 02       		.uleb128 0x2
 10512 3cfd 91       		.byte	0x91
 10513 3cfe 70       		.sleb128 -16
 10514 3cff 00       		.byte	0
 10515 3d00 36       		.uleb128 0x36
 10516 3d01 84040000 		.4byte	.LASF847
 10517 3d05 05       		.byte	0x5
 10518 3d06 A802     		.2byte	0x2a8
 10519 3d08 00000000 		.4byte	.LFB238
 10520 3d0c 30000000 		.4byte	.LFE238-.LFB238
 10521 3d10 01       		.uleb128 0x1
 10522 3d11 9C       		.byte	0x9c
 10523 3d12 353D0000 		.4byte	0x3d35
 10524 3d16 37       		.uleb128 0x37
 10525 3d17 74727000 		.ascii	"trp\000"
 10526 3d1b 05       		.byte	0x5
 10527 3d1c A802     		.2byte	0x2a8
 10528 3d1e A8130000 		.4byte	0x13a8
 10529 3d22 02       		.uleb128 0x2
 10530 3d23 91       		.byte	0x91
ARM GAS  C:\Users\PCHAUT~1\AppData\Local\Temp\ccR4smAG.s 			page 186


 10531 3d24 6C       		.sleb128 -20
 10532 3d25 37       		.uleb128 0x37
 10533 3d26 6D736700 		.ascii	"msg\000"
 10534 3d2a 05       		.byte	0x5
 10535 3d2b A802     		.2byte	0x2a8
 10536 3d2d 62010000 		.4byte	0x162
 10537 3d31 02       		.uleb128 0x2
 10538 3d32 91       		.byte	0x91
 10539 3d33 68       		.sleb128 -24
 10540 3d34 00       		.byte	0
 10541 3d35 3C       		.uleb128 0x3c
 10542 3d36 09000000 		.4byte	.LASF848
 10543 3d3a 05       		.byte	0x5
 10544 3d3b 9802     		.2byte	0x298
 10545 3d3d 62010000 		.4byte	0x162
 10546 3d41 00000000 		.4byte	.LFB237
 10547 3d45 34000000 		.4byte	.LFE237-.LFB237
 10548 3d49 01       		.uleb128 0x1
 10549 3d4a 9C       		.byte	0x9c
 10550 3d4b 6E3D0000 		.4byte	0x3d6e
 10551 3d4f 37       		.uleb128 0x37
 10552 3d50 74727000 		.ascii	"trp\000"
 10553 3d54 05       		.byte	0x5
 10554 3d55 9802     		.2byte	0x298
 10555 3d57 A8130000 		.4byte	0x13a8
 10556 3d5b 02       		.uleb128 0x2
 10557 3d5c 91       		.byte	0x91
 10558 3d5d 6C       		.sleb128 -20
 10559 3d5e 2F       		.uleb128 0x2f
 10560 3d5f D70B0000 		.4byte	.LASF823
 10561 3d63 05       		.byte	0x5
 10562 3d64 9902     		.2byte	0x299
 10563 3d66 99010000 		.4byte	0x199
 10564 3d6a 02       		.uleb128 0x2
 10565 3d6b 91       		.byte	0x91
 10566 3d6c 68       		.sleb128 -24
 10567 3d6d 00       		.byte	0
 10568 3d6e 3C       		.uleb128 0x3c
 10569 3d6f 96040000 		.4byte	.LASF849
 10570 3d73 05       		.byte	0x5
 10571 3d74 4D02     		.2byte	0x24d
 10572 3d76 CC180000 		.4byte	0x18cc
 10573 3d7a 00000000 		.4byte	.LFB233
 10574 3d7e 38000000 		.4byte	.LFE233-.LFB233
 10575 3d82 01       		.uleb128 0x1
 10576 3d83 9C       		.byte	0x9c
 10577 3d84 B63D0000 		.4byte	0x3db6
 10578 3d88 2F       		.uleb128 0x2f
 10579 3d89 A9170000 		.4byte	.LASF850
 10580 3d8d 05       		.byte	0x5
 10581 3d8e 4D02     		.2byte	0x24d
 10582 3d90 99010000 		.4byte	0x199
 10583 3d94 02       		.uleb128 0x2
 10584 3d95 91       		.byte	0x91
 10585 3d96 6C       		.sleb128 -20
 10586 3d97 2F       		.uleb128 0x2f
 10587 3d98 43120000 		.4byte	.LASF824
ARM GAS  C:\Users\PCHAUT~1\AppData\Local\Temp\ccR4smAG.s 			page 187


 10588 3d9c 05       		.byte	0x5
 10589 3d9d 4E02     		.2byte	0x24e
 10590 3d9f 99010000 		.4byte	0x199
 10591 3da3 02       		.uleb128 0x2
 10592 3da4 91       		.byte	0x91
 10593 3da5 68       		.sleb128 -24
 10594 3da6 37       		.uleb128 0x37
 10595 3da7 656E6400 		.ascii	"end\000"
 10596 3dab 05       		.byte	0x5
 10597 3dac 4F02     		.2byte	0x24f
 10598 3dae 99010000 		.4byte	0x199
 10599 3db2 02       		.uleb128 0x2
 10600 3db3 91       		.byte	0x91
 10601 3db4 64       		.sleb128 -28
 10602 3db5 00       		.byte	0
 10603 3db6 3D       		.uleb128 0x3d
 10604 3db7 401F0000 		.4byte	.LASF858
 10605 3dbb 05       		.byte	0x5
 10606 3dbc 3A02     		.2byte	0x23a
 10607 3dbe 99010000 		.4byte	0x199
 10608 3dc2 00000000 		.4byte	.LFB232
 10609 3dc6 2C000000 		.4byte	.LFE232-.LFB232
 10610 3dca 01       		.uleb128 0x1
 10611 3dcb 9C       		.byte	0x9c
 10612 3dcc 3E       		.uleb128 0x3e
 10613 3dcd B8060000 		.4byte	.LASF851
 10614 3dd1 05       		.byte	0x5
 10615 3dd2 DE01     		.2byte	0x1de
 10616 3dd4 00000000 		.4byte	.LFB226
 10617 3dd8 28000000 		.4byte	.LFE226-.LFB226
 10618 3ddc 01       		.uleb128 0x1
 10619 3ddd 9C       		.byte	0x9c
 10620 3dde 3E       		.uleb128 0x3e
 10621 3ddf 1C160000 		.4byte	.LASF852
 10622 3de3 05       		.byte	0x5
 10623 3de4 D301     		.2byte	0x1d3
 10624 3de6 00000000 		.4byte	.LFB225
 10625 3dea 28000000 		.4byte	.LFE225-.LFB225
 10626 3dee 01       		.uleb128 0x1
 10627 3def 9C       		.byte	0x9c
 10628 3df0 3E       		.uleb128 0x3e
 10629 3df1 A9010000 		.4byte	.LASF853
 10630 3df5 05       		.byte	0x5
 10631 3df6 C801     		.2byte	0x1c8
 10632 3df8 00000000 		.4byte	.LFB224
 10633 3dfc 28000000 		.4byte	.LFE224-.LFB224
 10634 3e00 01       		.uleb128 0x1
 10635 3e01 9C       		.byte	0x9c
 10636 3e02 3E       		.uleb128 0x3e
 10637 3e03 F11B0000 		.4byte	.LASF854
 10638 3e07 05       		.byte	0x5
 10639 3e08 BD01     		.2byte	0x1bd
 10640 3e0a 00000000 		.4byte	.LFB223
 10641 3e0e 28000000 		.4byte	.LFE223-.LFB223
 10642 3e12 01       		.uleb128 0x1
 10643 3e13 9C       		.byte	0x9c
 10644 3e14 36       		.uleb128 0x36
ARM GAS  C:\Users\PCHAUT~1\AppData\Local\Temp\ccR4smAG.s 			page 188


 10645 3e15 23250000 		.4byte	.LASF855
 10646 3e19 05       		.byte	0x5
 10647 3e1a 9E01     		.2byte	0x19e
 10648 3e1c 00000000 		.4byte	.LFB220
 10649 3e20 2C000000 		.4byte	.LFE220-.LFB220
 10650 3e24 01       		.uleb128 0x1
 10651 3e25 9C       		.byte	0x9c
 10652 3e26 3A3E0000 		.4byte	0x3e3a
 10653 3e2a 2F       		.uleb128 0x2f
 10654 3e2b EA190000 		.4byte	.LASF856
 10655 3e2f 05       		.byte	0x5
 10656 3e30 9E01     		.2byte	0x19e
 10657 3e32 1C140000 		.4byte	0x141c
 10658 3e36 02       		.uleb128 0x2
 10659 3e37 91       		.byte	0x91
 10660 3e38 6C       		.sleb128 -20
 10661 3e39 00       		.byte	0
 10662 3e3a 3C       		.uleb128 0x3c
 10663 3e3b 1E0F0000 		.4byte	.LASF857
 10664 3e3f 04       		.byte	0x4
 10665 3e40 1C01     		.2byte	0x11c
 10666 3e42 CC180000 		.4byte	0x18cc
 10667 3e46 00000000 		.4byte	.LFB156
 10668 3e4a 40000000 		.4byte	.LFE156-.LFB156
 10669 3e4e 01       		.uleb128 0x1
 10670 3e4f 9C       		.byte	0x9c
 10671 3e50 823E0000 		.4byte	0x3e82
 10672 3e54 2F       		.uleb128 0x2f
 10673 3e55 A9170000 		.4byte	.LASF850
 10674 3e59 04       		.byte	0x4
 10675 3e5a 1C01     		.2byte	0x11c
 10676 3e5c 99010000 		.4byte	0x199
 10677 3e60 02       		.uleb128 0x2
 10678 3e61 91       		.byte	0x91
 10679 3e62 6C       		.sleb128 -20
 10680 3e63 2F       		.uleb128 0x2f
 10681 3e64 43120000 		.4byte	.LASF824
 10682 3e68 04       		.byte	0x4
 10683 3e69 1D01     		.2byte	0x11d
 10684 3e6b 99010000 		.4byte	0x199
 10685 3e6f 02       		.uleb128 0x2
 10686 3e70 91       		.byte	0x91
 10687 3e71 68       		.sleb128 -24
 10688 3e72 37       		.uleb128 0x37
 10689 3e73 656E6400 		.ascii	"end\000"
 10690 3e77 04       		.byte	0x4
 10691 3e78 1E01     		.2byte	0x11e
 10692 3e7a 99010000 		.4byte	0x199
 10693 3e7e 02       		.uleb128 0x2
 10694 3e7f 91       		.byte	0x91
 10695 3e80 64       		.sleb128 -28
 10696 3e81 00       		.byte	0
 10697 3e82 3F       		.uleb128 0x3f
 10698 3e83 131D0000 		.4byte	.LASF859
 10699 3e87 04       		.byte	0x4
 10700 3e88 E4       		.byte	0xe4
 10701 3e89 99010000 		.4byte	0x199
ARM GAS  C:\Users\PCHAUT~1\AppData\Local\Temp\ccR4smAG.s 			page 189


 10702 3e8d 00000000 		.4byte	.LFB153
 10703 3e91 2C000000 		.4byte	.LFE153-.LFB153
 10704 3e95 01       		.uleb128 0x1
 10705 3e96 9C       		.byte	0x9c
 10706 3e97 3E       		.uleb128 0x3e
 10707 3e98 551A0000 		.4byte	.LASF860
 10708 3e9c 03       		.byte	0x3
 10709 3e9d 9601     		.2byte	0x196
 10710 3e9f 00000000 		.4byte	.LFB148
 10711 3ea3 30000000 		.4byte	.LFE148-.LFB148
 10712 3ea7 01       		.uleb128 0x1
 10713 3ea8 9C       		.byte	0x9c
 10714 3ea9 3E       		.uleb128 0x3e
 10715 3eaa 05220000 		.4byte	.LASF861
 10716 3eae 03       		.byte	0x3
 10717 3eaf 8201     		.2byte	0x182
 10718 3eb1 00000000 		.4byte	.LFB147
 10719 3eb5 30000000 		.4byte	.LFE147-.LFB147
 10720 3eb9 01       		.uleb128 0x1
 10721 3eba 9C       		.byte	0x9c
 10722 3ebb 36       		.uleb128 0x36
 10723 3ebc BF1F0000 		.4byte	.LASF862
 10724 3ec0 03       		.byte	0x3
 10725 3ec1 6601     		.2byte	0x166
 10726 3ec3 00000000 		.4byte	.LFB146
 10727 3ec7 58000000 		.4byte	.LFE146-.LFB146
 10728 3ecb 01       		.uleb128 0x1
 10729 3ecc 9C       		.byte	0x9c
 10730 3ecd E13E0000 		.4byte	0x3ee1
 10731 3ed1 33       		.uleb128 0x33
 10732 3ed2 75000000 		.4byte	.LASF845
 10733 3ed6 F13E0000 		.4byte	0x3ef1
 10734 3eda 05       		.uleb128 0x5
 10735 3edb 03       		.byte	0x3
 10736 3edc 00000000 		.4byte	__func__.7153
 10737 3ee0 00       		.byte	0
 10738 3ee1 16       		.uleb128 0x16
 10739 3ee2 2E140000 		.4byte	0x142e
 10740 3ee6 F13E0000 		.4byte	0x3ef1
 10741 3eea 17       		.uleb128 0x17
 10742 3eeb 37000000 		.4byte	0x37
 10743 3eef 0B       		.byte	0xb
 10744 3ef0 00       		.byte	0
 10745 3ef1 05       		.uleb128 0x5
 10746 3ef2 E13E0000 		.4byte	0x3ee1
 10747 3ef6 3E       		.uleb128 0x3e
 10748 3ef7 AE170000 		.4byte	.LASF863
 10749 3efb 03       		.byte	0x3
 10750 3efc 5A01     		.2byte	0x15a
 10751 3efe 00000000 		.4byte	.LFB145
 10752 3f02 30000000 		.4byte	.LFE145-.LFB145
 10753 3f06 01       		.uleb128 0x1
 10754 3f07 9C       		.byte	0x9c
 10755 3f08 3E       		.uleb128 0x3e
 10756 3f09 A8000000 		.4byte	.LASF864
 10757 3f0d 01       		.byte	0x1
 10758 3f0e E401     		.2byte	0x1e4
ARM GAS  C:\Users\PCHAUT~1\AppData\Local\Temp\ccR4smAG.s 			page 190


 10759 3f10 00000000 		.4byte	.LFB119
 10760 3f14 28000000 		.4byte	.LFE119-.LFB119
 10761 3f18 01       		.uleb128 0x1
 10762 3f19 9C       		.byte	0x9c
 10763 3f1a 3E       		.uleb128 0x3e
 10764 3f1b FC130000 		.4byte	.LASF865
 10765 3f1f 01       		.byte	0x1
 10766 3f20 D901     		.2byte	0x1d9
 10767 3f22 00000000 		.4byte	.LFB118
 10768 3f26 28000000 		.4byte	.LFE118-.LFB118
 10769 3f2a 01       		.uleb128 0x1
 10770 3f2b 9C       		.byte	0x9c
 10771 3f2c 36       		.uleb128 0x36
 10772 3f2d 45170000 		.4byte	.LASF866
 10773 3f31 01       		.byte	0x1
 10774 3f32 CA01     		.2byte	0x1ca
 10775 3f34 00000000 		.4byte	.LFB117
 10776 3f38 30000000 		.4byte	.LFE117-.LFB117
 10777 3f3c 01       		.uleb128 0x1
 10778 3f3d 9C       		.byte	0x9c
 10779 3f3e 5C3F0000 		.4byte	0x3f5c
 10780 3f42 40       		.uleb128 0x40
 10781 3f43 8C3F0000 		.4byte	0x3f8c
 10782 3f47 0E000000 		.4byte	.LBB8
 10783 3f4b 06000000 		.4byte	.LBE8-.LBB8
 10784 3f4f 01       		.byte	0x1
 10785 3f50 CD01     		.2byte	0x1cd
 10786 3f52 41       		.uleb128 0x41
 10787 3f53 953F0000 		.4byte	0x3f95
 10788 3f57 02       		.uleb128 0x2
 10789 3f58 91       		.byte	0x91
 10790 3f59 70       		.sleb128 -16
 10791 3f5a 00       		.byte	0
 10792 3f5b 00       		.byte	0
 10793 3f5c 36       		.uleb128 0x36
 10794 3f5d 23190000 		.4byte	.LASF867
 10795 3f61 01       		.byte	0x1
 10796 3f62 BC01     		.2byte	0x1bc
 10797 3f64 00000000 		.4byte	.LFB116
 10798 3f68 30000000 		.4byte	.LFE116-.LFB116
 10799 3f6c 01       		.uleb128 0x1
 10800 3f6d 9C       		.byte	0x9c
 10801 3f6e 8C3F0000 		.4byte	0x3f8c
 10802 3f72 40       		.uleb128 0x40
 10803 3f73 8C3F0000 		.4byte	0x3f8c
 10804 3f77 0E000000 		.4byte	.LBB6
 10805 3f7b 06000000 		.4byte	.LBE6-.LBB6
 10806 3f7f 01       		.byte	0x1
 10807 3f80 BF01     		.2byte	0x1bf
 10808 3f82 41       		.uleb128 0x41
 10809 3f83 953F0000 		.4byte	0x3f95
 10810 3f87 02       		.uleb128 0x2
 10811 3f88 91       		.byte	0x91
 10812 3f89 70       		.sleb128 -16
 10813 3f8a 00       		.byte	0
 10814 3f8b 00       		.byte	0
 10815 3f8c 42       		.uleb128 0x42
ARM GAS  C:\Users\PCHAUT~1\AppData\Local\Temp\ccR4smAG.s 			page 191


 10816 3f8d B5220000 		.4byte	.LASF871
 10817 3f91 02       		.byte	0x2
 10818 3f92 2002     		.2byte	0x220
 10819 3f94 03       		.byte	0x3
 10820 3f95 43       		.uleb128 0x43
 10821 3f96 E50C0000 		.4byte	.LASF872
 10822 3f9a 02       		.byte	0x2
 10823 3f9b 2002     		.2byte	0x220
 10824 3f9d F5000000 		.4byte	0xf5
 10825 3fa1 00       		.byte	0
 10826 3fa2 00       		.byte	0
 10827              		.section	.debug_abbrev,"",%progbits
 10828              	.Ldebug_abbrev0:
 10829 0000 01       		.uleb128 0x1
 10830 0001 11       		.uleb128 0x11
 10831 0002 01       		.byte	0x1
 10832 0003 25       		.uleb128 0x25
 10833 0004 0E       		.uleb128 0xe
 10834 0005 13       		.uleb128 0x13
 10835 0006 0B       		.uleb128 0xb
 10836 0007 03       		.uleb128 0x3
 10837 0008 0E       		.uleb128 0xe
 10838 0009 1B       		.uleb128 0x1b
 10839 000a 0E       		.uleb128 0xe
 10840 000b 55       		.uleb128 0x55
 10841 000c 17       		.uleb128 0x17
 10842 000d 11       		.uleb128 0x11
 10843 000e 01       		.uleb128 0x1
 10844 000f 10       		.uleb128 0x10
 10845 0010 17       		.uleb128 0x17
 10846 0011 00       		.byte	0
 10847 0012 00       		.byte	0
 10848 0013 02       		.uleb128 0x2
 10849 0014 24       		.uleb128 0x24
 10850 0015 00       		.byte	0
 10851 0016 0B       		.uleb128 0xb
 10852 0017 0B       		.uleb128 0xb
 10853 0018 3E       		.uleb128 0x3e
 10854 0019 0B       		.uleb128 0xb
 10855 001a 03       		.uleb128 0x3
 10856 001b 08       		.uleb128 0x8
 10857 001c 00       		.byte	0
 10858 001d 00       		.byte	0
 10859 001e 03       		.uleb128 0x3
 10860 001f 16       		.uleb128 0x16
 10861 0020 00       		.byte	0
 10862 0021 03       		.uleb128 0x3
 10863 0022 0E       		.uleb128 0xe
 10864 0023 3A       		.uleb128 0x3a
 10865 0024 0B       		.uleb128 0xb
 10866 0025 3B       		.uleb128 0x3b
 10867 0026 0B       		.uleb128 0xb
 10868 0027 49       		.uleb128 0x49
 10869 0028 13       		.uleb128 0x13
 10870 0029 00       		.byte	0
 10871 002a 00       		.byte	0
 10872 002b 04       		.uleb128 0x4
ARM GAS  C:\Users\PCHAUT~1\AppData\Local\Temp\ccR4smAG.s 			page 192


 10873 002c 24       		.uleb128 0x24
 10874 002d 00       		.byte	0
 10875 002e 0B       		.uleb128 0xb
 10876 002f 0B       		.uleb128 0xb
 10877 0030 3E       		.uleb128 0x3e
 10878 0031 0B       		.uleb128 0xb
 10879 0032 03       		.uleb128 0x3
 10880 0033 0E       		.uleb128 0xe
 10881 0034 00       		.byte	0
 10882 0035 00       		.byte	0
 10883 0036 05       		.uleb128 0x5
 10884 0037 26       		.uleb128 0x26
 10885 0038 00       		.byte	0
 10886 0039 49       		.uleb128 0x49
 10887 003a 13       		.uleb128 0x13
 10888 003b 00       		.byte	0
 10889 003c 00       		.byte	0
 10890 003d 06       		.uleb128 0x6
 10891 003e 35       		.uleb128 0x35
 10892 003f 00       		.byte	0
 10893 0040 49       		.uleb128 0x49
 10894 0041 13       		.uleb128 0x13
 10895 0042 00       		.byte	0
 10896 0043 00       		.byte	0
 10897 0044 07       		.uleb128 0x7
 10898 0045 13       		.uleb128 0x13
 10899 0046 01       		.byte	0x1
 10900 0047 03       		.uleb128 0x3
 10901 0048 0E       		.uleb128 0xe
 10902 0049 0B       		.uleb128 0xb
 10903 004a 0B       		.uleb128 0xb
 10904 004b 3A       		.uleb128 0x3a
 10905 004c 0B       		.uleb128 0xb
 10906 004d 3B       		.uleb128 0x3b
 10907 004e 0B       		.uleb128 0xb
 10908 004f 01       		.uleb128 0x1
 10909 0050 13       		.uleb128 0x13
 10910 0051 00       		.byte	0
 10911 0052 00       		.byte	0
 10912 0053 08       		.uleb128 0x8
 10913 0054 0D       		.uleb128 0xd
 10914 0055 00       		.byte	0
 10915 0056 03       		.uleb128 0x3
 10916 0057 0E       		.uleb128 0xe
 10917 0058 3A       		.uleb128 0x3a
 10918 0059 0B       		.uleb128 0xb
 10919 005a 3B       		.uleb128 0x3b
 10920 005b 0B       		.uleb128 0xb
 10921 005c 49       		.uleb128 0x49
 10922 005d 13       		.uleb128 0x13
 10923 005e 38       		.uleb128 0x38
 10924 005f 0B       		.uleb128 0xb
 10925 0060 00       		.byte	0
 10926 0061 00       		.byte	0
 10927 0062 09       		.uleb128 0x9
 10928 0063 0D       		.uleb128 0xd
 10929 0064 00       		.byte	0
ARM GAS  C:\Users\PCHAUT~1\AppData\Local\Temp\ccR4smAG.s 			page 193


 10930 0065 03       		.uleb128 0x3
 10931 0066 08       		.uleb128 0x8
 10932 0067 3A       		.uleb128 0x3a
 10933 0068 0B       		.uleb128 0xb
 10934 0069 3B       		.uleb128 0x3b
 10935 006a 05       		.uleb128 0x5
 10936 006b 49       		.uleb128 0x49
 10937 006c 13       		.uleb128 0x13
 10938 006d 38       		.uleb128 0x38
 10939 006e 0B       		.uleb128 0xb
 10940 006f 00       		.byte	0
 10941 0070 00       		.byte	0
 10942 0071 0A       		.uleb128 0xa
 10943 0072 0D       		.uleb128 0xd
 10944 0073 00       		.byte	0
 10945 0074 03       		.uleb128 0x3
 10946 0075 0E       		.uleb128 0xe
 10947 0076 3A       		.uleb128 0x3a
 10948 0077 0B       		.uleb128 0xb
 10949 0078 3B       		.uleb128 0x3b
 10950 0079 05       		.uleb128 0x5
 10951 007a 49       		.uleb128 0x49
 10952 007b 13       		.uleb128 0x13
 10953 007c 38       		.uleb128 0x38
 10954 007d 0B       		.uleb128 0xb
 10955 007e 00       		.byte	0
 10956 007f 00       		.byte	0
 10957 0080 0B       		.uleb128 0xb
 10958 0081 0F       		.uleb128 0xf
 10959 0082 00       		.byte	0
 10960 0083 0B       		.uleb128 0xb
 10961 0084 0B       		.uleb128 0xb
 10962 0085 49       		.uleb128 0x49
 10963 0086 13       		.uleb128 0x13
 10964 0087 00       		.byte	0
 10965 0088 00       		.byte	0
 10966 0089 0C       		.uleb128 0xc
 10967 008a 13       		.uleb128 0x13
 10968 008b 01       		.byte	0x1
 10969 008c 03       		.uleb128 0x3
 10970 008d 0E       		.uleb128 0xe
 10971 008e 0B       		.uleb128 0xb
 10972 008f 0B       		.uleb128 0xb
 10973 0090 3A       		.uleb128 0x3a
 10974 0091 0B       		.uleb128 0xb
 10975 0092 3B       		.uleb128 0x3b
 10976 0093 05       		.uleb128 0x5
 10977 0094 01       		.uleb128 0x1
 10978 0095 13       		.uleb128 0x13
 10979 0096 00       		.byte	0
 10980 0097 00       		.byte	0
 10981 0098 0D       		.uleb128 0xd
 10982 0099 15       		.uleb128 0x15
 10983 009a 01       		.byte	0x1
 10984 009b 27       		.uleb128 0x27
 10985 009c 19       		.uleb128 0x19
 10986 009d 01       		.uleb128 0x1
ARM GAS  C:\Users\PCHAUT~1\AppData\Local\Temp\ccR4smAG.s 			page 194


 10987 009e 13       		.uleb128 0x13
 10988 009f 00       		.byte	0
 10989 00a0 00       		.byte	0
 10990 00a1 0E       		.uleb128 0xe
 10991 00a2 05       		.uleb128 0x5
 10992 00a3 00       		.byte	0
 10993 00a4 49       		.uleb128 0x49
 10994 00a5 13       		.uleb128 0x13
 10995 00a6 00       		.byte	0
 10996 00a7 00       		.byte	0
 10997 00a8 0F       		.uleb128 0xf
 10998 00a9 0F       		.uleb128 0xf
 10999 00aa 00       		.byte	0
 11000 00ab 0B       		.uleb128 0xb
 11001 00ac 0B       		.uleb128 0xb
 11002 00ad 00       		.byte	0
 11003 00ae 00       		.byte	0
 11004 00af 10       		.uleb128 0x10
 11005 00b0 13       		.uleb128 0x13
 11006 00b1 01       		.byte	0x1
 11007 00b2 03       		.uleb128 0x3
 11008 00b3 0E       		.uleb128 0xe
 11009 00b4 0B       		.uleb128 0xb
 11010 00b5 05       		.uleb128 0x5
 11011 00b6 3A       		.uleb128 0x3a
 11012 00b7 0B       		.uleb128 0xb
 11013 00b8 3B       		.uleb128 0x3b
 11014 00b9 05       		.uleb128 0x5
 11015 00ba 01       		.uleb128 0x1
 11016 00bb 13       		.uleb128 0x13
 11017 00bc 00       		.byte	0
 11018 00bd 00       		.byte	0
 11019 00be 11       		.uleb128 0x11
 11020 00bf 0D       		.uleb128 0xd
 11021 00c0 00       		.byte	0
 11022 00c1 03       		.uleb128 0x3
 11023 00c2 0E       		.uleb128 0xe
 11024 00c3 3A       		.uleb128 0x3a
 11025 00c4 0B       		.uleb128 0xb
 11026 00c5 3B       		.uleb128 0x3b
 11027 00c6 05       		.uleb128 0x5
 11028 00c7 49       		.uleb128 0x49
 11029 00c8 13       		.uleb128 0x13
 11030 00c9 38       		.uleb128 0x38
 11031 00ca 05       		.uleb128 0x5
 11032 00cb 00       		.byte	0
 11033 00cc 00       		.byte	0
 11034 00cd 12       		.uleb128 0x12
 11035 00ce 0D       		.uleb128 0xd
 11036 00cf 00       		.byte	0
 11037 00d0 03       		.uleb128 0x3
 11038 00d1 08       		.uleb128 0x8
 11039 00d2 3A       		.uleb128 0x3a
 11040 00d3 0B       		.uleb128 0xb
 11041 00d4 3B       		.uleb128 0x3b
 11042 00d5 05       		.uleb128 0x5
 11043 00d6 49       		.uleb128 0x49
ARM GAS  C:\Users\PCHAUT~1\AppData\Local\Temp\ccR4smAG.s 			page 195


 11044 00d7 13       		.uleb128 0x13
 11045 00d8 38       		.uleb128 0x38
 11046 00d9 05       		.uleb128 0x5
 11047 00da 00       		.byte	0
 11048 00db 00       		.byte	0
 11049 00dc 13       		.uleb128 0x13
 11050 00dd 04       		.uleb128 0x4
 11051 00de 01       		.byte	0x1
 11052 00df 3E       		.uleb128 0x3e
 11053 00e0 0B       		.uleb128 0xb
 11054 00e1 0B       		.uleb128 0xb
 11055 00e2 0B       		.uleb128 0xb
 11056 00e3 49       		.uleb128 0x49
 11057 00e4 13       		.uleb128 0x13
 11058 00e5 3A       		.uleb128 0x3a
 11059 00e6 0B       		.uleb128 0xb
 11060 00e7 3B       		.uleb128 0x3b
 11061 00e8 0B       		.uleb128 0xb
 11062 00e9 01       		.uleb128 0x1
 11063 00ea 13       		.uleb128 0x13
 11064 00eb 00       		.byte	0
 11065 00ec 00       		.byte	0
 11066 00ed 14       		.uleb128 0x14
 11067 00ee 28       		.uleb128 0x28
 11068 00ef 00       		.byte	0
 11069 00f0 03       		.uleb128 0x3
 11070 00f1 0E       		.uleb128 0xe
 11071 00f2 1C       		.uleb128 0x1c
 11072 00f3 0D       		.uleb128 0xd
 11073 00f4 00       		.byte	0
 11074 00f5 00       		.byte	0
 11075 00f6 15       		.uleb128 0x15
 11076 00f7 28       		.uleb128 0x28
 11077 00f8 00       		.byte	0
 11078 00f9 03       		.uleb128 0x3
 11079 00fa 0E       		.uleb128 0xe
 11080 00fb 1C       		.uleb128 0x1c
 11081 00fc 0B       		.uleb128 0xb
 11082 00fd 00       		.byte	0
 11083 00fe 00       		.byte	0
 11084 00ff 16       		.uleb128 0x16
 11085 0100 01       		.uleb128 0x1
 11086 0101 01       		.byte	0x1
 11087 0102 49       		.uleb128 0x49
 11088 0103 13       		.uleb128 0x13
 11089 0104 01       		.uleb128 0x1
 11090 0105 13       		.uleb128 0x13
 11091 0106 00       		.byte	0
 11092 0107 00       		.byte	0
 11093 0108 17       		.uleb128 0x17
 11094 0109 21       		.uleb128 0x21
 11095 010a 00       		.byte	0
 11096 010b 49       		.uleb128 0x49
 11097 010c 13       		.uleb128 0x13
 11098 010d 2F       		.uleb128 0x2f
 11099 010e 0B       		.uleb128 0xb
 11100 010f 00       		.byte	0
ARM GAS  C:\Users\PCHAUT~1\AppData\Local\Temp\ccR4smAG.s 			page 196


 11101 0110 00       		.byte	0
 11102 0111 18       		.uleb128 0x18
 11103 0112 34       		.uleb128 0x34
 11104 0113 00       		.byte	0
 11105 0114 03       		.uleb128 0x3
 11106 0115 0E       		.uleb128 0xe
 11107 0116 3A       		.uleb128 0x3a
 11108 0117 0B       		.uleb128 0xb
 11109 0118 3B       		.uleb128 0x3b
 11110 0119 05       		.uleb128 0x5
 11111 011a 49       		.uleb128 0x49
 11112 011b 13       		.uleb128 0x13
 11113 011c 3F       		.uleb128 0x3f
 11114 011d 19       		.uleb128 0x19
 11115 011e 3C       		.uleb128 0x3c
 11116 011f 19       		.uleb128 0x19
 11117 0120 00       		.byte	0
 11118 0121 00       		.byte	0
 11119 0122 19       		.uleb128 0x19
 11120 0123 34       		.uleb128 0x34
 11121 0124 00       		.byte	0
 11122 0125 03       		.uleb128 0x3
 11123 0126 0E       		.uleb128 0xe
 11124 0127 3A       		.uleb128 0x3a
 11125 0128 0B       		.uleb128 0xb
 11126 0129 3B       		.uleb128 0x3b
 11127 012a 0B       		.uleb128 0xb
 11128 012b 49       		.uleb128 0x49
 11129 012c 13       		.uleb128 0x13
 11130 012d 3F       		.uleb128 0x3f
 11131 012e 19       		.uleb128 0x19
 11132 012f 3C       		.uleb128 0x3c
 11133 0130 19       		.uleb128 0x19
 11134 0131 00       		.byte	0
 11135 0132 00       		.byte	0
 11136 0133 1A       		.uleb128 0x1a
 11137 0134 13       		.uleb128 0x13
 11138 0135 01       		.byte	0x1
 11139 0136 0B       		.uleb128 0xb
 11140 0137 0B       		.uleb128 0xb
 11141 0138 3A       		.uleb128 0x3a
 11142 0139 0B       		.uleb128 0xb
 11143 013a 3B       		.uleb128 0x3b
 11144 013b 0B       		.uleb128 0xb
 11145 013c 01       		.uleb128 0x1
 11146 013d 13       		.uleb128 0x13
 11147 013e 00       		.byte	0
 11148 013f 00       		.byte	0
 11149 0140 1B       		.uleb128 0x1b
 11150 0141 0D       		.uleb128 0xd
 11151 0142 00       		.byte	0
 11152 0143 03       		.uleb128 0x3
 11153 0144 08       		.uleb128 0x8
 11154 0145 3A       		.uleb128 0x3a
 11155 0146 0B       		.uleb128 0xb
 11156 0147 3B       		.uleb128 0x3b
 11157 0148 0B       		.uleb128 0xb
ARM GAS  C:\Users\PCHAUT~1\AppData\Local\Temp\ccR4smAG.s 			page 197


 11158 0149 49       		.uleb128 0x49
 11159 014a 13       		.uleb128 0x13
 11160 014b 38       		.uleb128 0x38
 11161 014c 0B       		.uleb128 0xb
 11162 014d 00       		.byte	0
 11163 014e 00       		.byte	0
 11164 014f 1C       		.uleb128 0x1c
 11165 0150 13       		.uleb128 0x13
 11166 0151 01       		.byte	0x1
 11167 0152 0B       		.uleb128 0xb
 11168 0153 0B       		.uleb128 0xb
 11169 0154 3A       		.uleb128 0x3a
 11170 0155 0B       		.uleb128 0xb
 11171 0156 3B       		.uleb128 0x3b
 11172 0157 05       		.uleb128 0x5
 11173 0158 01       		.uleb128 0x1
 11174 0159 13       		.uleb128 0x13
 11175 015a 00       		.byte	0
 11176 015b 00       		.byte	0
 11177 015c 1D       		.uleb128 0x1d
 11178 015d 16       		.uleb128 0x16
 11179 015e 00       		.byte	0
 11180 015f 03       		.uleb128 0x3
 11181 0160 0E       		.uleb128 0xe
 11182 0161 3A       		.uleb128 0x3a
 11183 0162 0B       		.uleb128 0xb
 11184 0163 3B       		.uleb128 0x3b
 11185 0164 05       		.uleb128 0x5
 11186 0165 49       		.uleb128 0x49
 11187 0166 13       		.uleb128 0x13
 11188 0167 00       		.byte	0
 11189 0168 00       		.byte	0
 11190 0169 1E       		.uleb128 0x1e
 11191 016a 13       		.uleb128 0x13
 11192 016b 01       		.byte	0x1
 11193 016c 0B       		.uleb128 0xb
 11194 016d 05       		.uleb128 0x5
 11195 016e 3A       		.uleb128 0x3a
 11196 016f 0B       		.uleb128 0xb
 11197 0170 3B       		.uleb128 0x3b
 11198 0171 05       		.uleb128 0x5
 11199 0172 01       		.uleb128 0x1
 11200 0173 13       		.uleb128 0x13
 11201 0174 00       		.byte	0
 11202 0175 00       		.byte	0
 11203 0176 1F       		.uleb128 0x1f
 11204 0177 13       		.uleb128 0x13
 11205 0178 01       		.byte	0x1
 11206 0179 0B       		.uleb128 0xb
 11207 017a 05       		.uleb128 0x5
 11208 017b 3A       		.uleb128 0x3a
 11209 017c 0B       		.uleb128 0xb
 11210 017d 3B       		.uleb128 0x3b
 11211 017e 0B       		.uleb128 0xb
 11212 017f 01       		.uleb128 0x1
 11213 0180 13       		.uleb128 0x13
 11214 0181 00       		.byte	0
ARM GAS  C:\Users\PCHAUT~1\AppData\Local\Temp\ccR4smAG.s 			page 198


 11215 0182 00       		.byte	0
 11216 0183 20       		.uleb128 0x20
 11217 0184 17       		.uleb128 0x17
 11218 0185 01       		.byte	0x1
 11219 0186 0B       		.uleb128 0xb
 11220 0187 0B       		.uleb128 0xb
 11221 0188 3A       		.uleb128 0x3a
 11222 0189 0B       		.uleb128 0xb
 11223 018a 3B       		.uleb128 0x3b
 11224 018b 0B       		.uleb128 0xb
 11225 018c 01       		.uleb128 0x1
 11226 018d 13       		.uleb128 0x13
 11227 018e 00       		.byte	0
 11228 018f 00       		.byte	0
 11229 0190 21       		.uleb128 0x21
 11230 0191 0D       		.uleb128 0xd
 11231 0192 00       		.byte	0
 11232 0193 03       		.uleb128 0x3
 11233 0194 0E       		.uleb128 0xe
 11234 0195 3A       		.uleb128 0x3a
 11235 0196 0B       		.uleb128 0xb
 11236 0197 3B       		.uleb128 0x3b
 11237 0198 05       		.uleb128 0x5
 11238 0199 49       		.uleb128 0x49
 11239 019a 13       		.uleb128 0x13
 11240 019b 00       		.byte	0
 11241 019c 00       		.byte	0
 11242 019d 22       		.uleb128 0x22
 11243 019e 34       		.uleb128 0x34
 11244 019f 00       		.byte	0
 11245 01a0 03       		.uleb128 0x3
 11246 01a1 08       		.uleb128 0x8
 11247 01a2 3A       		.uleb128 0x3a
 11248 01a3 0B       		.uleb128 0xb
 11249 01a4 3B       		.uleb128 0x3b
 11250 01a5 05       		.uleb128 0x5
 11251 01a6 49       		.uleb128 0x49
 11252 01a7 13       		.uleb128 0x13
 11253 01a8 3F       		.uleb128 0x3f
 11254 01a9 19       		.uleb128 0x19
 11255 01aa 3C       		.uleb128 0x3c
 11256 01ab 19       		.uleb128 0x19
 11257 01ac 00       		.byte	0
 11258 01ad 00       		.byte	0
 11259 01ae 23       		.uleb128 0x23
 11260 01af 15       		.uleb128 0x15
 11261 01b0 01       		.byte	0x1
 11262 01b1 27       		.uleb128 0x27
 11263 01b2 19       		.uleb128 0x19
 11264 01b3 49       		.uleb128 0x49
 11265 01b4 13       		.uleb128 0x13
 11266 01b5 01       		.uleb128 0x1
 11267 01b6 13       		.uleb128 0x13
 11268 01b7 00       		.byte	0
 11269 01b8 00       		.byte	0
 11270 01b9 24       		.uleb128 0x24
 11271 01ba 0D       		.uleb128 0xd
ARM GAS  C:\Users\PCHAUT~1\AppData\Local\Temp\ccR4smAG.s 			page 199


 11272 01bb 00       		.byte	0
 11273 01bc 03       		.uleb128 0x3
 11274 01bd 08       		.uleb128 0x8
 11275 01be 3A       		.uleb128 0x3a
 11276 01bf 0B       		.uleb128 0xb
 11277 01c0 3B       		.uleb128 0x3b
 11278 01c1 0B       		.uleb128 0xb
 11279 01c2 49       		.uleb128 0x49
 11280 01c3 13       		.uleb128 0x13
 11281 01c4 00       		.byte	0
 11282 01c5 00       		.byte	0
 11283 01c6 25       		.uleb128 0x25
 11284 01c7 04       		.uleb128 0x4
 11285 01c8 01       		.byte	0x1
 11286 01c9 3E       		.uleb128 0x3e
 11287 01ca 0B       		.uleb128 0xb
 11288 01cb 0B       		.uleb128 0xb
 11289 01cc 0B       		.uleb128 0xb
 11290 01cd 49       		.uleb128 0x49
 11291 01ce 13       		.uleb128 0x13
 11292 01cf 3A       		.uleb128 0x3a
 11293 01d0 0B       		.uleb128 0xb
 11294 01d1 3B       		.uleb128 0x3b
 11295 01d2 05       		.uleb128 0x5
 11296 01d3 01       		.uleb128 0x1
 11297 01d4 13       		.uleb128 0x13
 11298 01d5 00       		.byte	0
 11299 01d6 00       		.byte	0
 11300 01d7 26       		.uleb128 0x26
 11301 01d8 26       		.uleb128 0x26
 11302 01d9 00       		.byte	0
 11303 01da 00       		.byte	0
 11304 01db 00       		.byte	0
 11305 01dc 27       		.uleb128 0x27
 11306 01dd 13       		.uleb128 0x13
 11307 01de 01       		.byte	0x1
 11308 01df 0B       		.uleb128 0xb
 11309 01e0 06       		.uleb128 0x6
 11310 01e1 3A       		.uleb128 0x3a
 11311 01e2 0B       		.uleb128 0xb
 11312 01e3 3B       		.uleb128 0x3b
 11313 01e4 0B       		.uleb128 0xb
 11314 01e5 01       		.uleb128 0x1
 11315 01e6 13       		.uleb128 0x13
 11316 01e7 00       		.byte	0
 11317 01e8 00       		.byte	0
 11318 01e9 28       		.uleb128 0x28
 11319 01ea 0D       		.uleb128 0xd
 11320 01eb 00       		.byte	0
 11321 01ec 03       		.uleb128 0x3
 11322 01ed 0E       		.uleb128 0xe
 11323 01ee 3A       		.uleb128 0x3a
 11324 01ef 0B       		.uleb128 0xb
 11325 01f0 3B       		.uleb128 0x3b
 11326 01f1 0B       		.uleb128 0xb
 11327 01f2 49       		.uleb128 0x49
 11328 01f3 13       		.uleb128 0x13
ARM GAS  C:\Users\PCHAUT~1\AppData\Local\Temp\ccR4smAG.s 			page 200


 11329 01f4 38       		.uleb128 0x38
 11330 01f5 05       		.uleb128 0x5
 11331 01f6 00       		.byte	0
 11332 01f7 00       		.byte	0
 11333 01f8 29       		.uleb128 0x29
 11334 01f9 0D       		.uleb128 0xd
 11335 01fa 00       		.byte	0
 11336 01fb 03       		.uleb128 0x3
 11337 01fc 08       		.uleb128 0x8
 11338 01fd 3A       		.uleb128 0x3a
 11339 01fe 0B       		.uleb128 0xb
 11340 01ff 3B       		.uleb128 0x3b
 11341 0200 0B       		.uleb128 0xb
 11342 0201 49       		.uleb128 0x49
 11343 0202 13       		.uleb128 0x13
 11344 0203 38       		.uleb128 0x38
 11345 0204 05       		.uleb128 0x5
 11346 0205 00       		.byte	0
 11347 0206 00       		.byte	0
 11348 0207 2A       		.uleb128 0x2a
 11349 0208 21       		.uleb128 0x21
 11350 0209 00       		.byte	0
 11351 020a 49       		.uleb128 0x49
 11352 020b 13       		.uleb128 0x13
 11353 020c 2F       		.uleb128 0x2f
 11354 020d 05       		.uleb128 0x5
 11355 020e 00       		.byte	0
 11356 020f 00       		.byte	0
 11357 0210 2B       		.uleb128 0x2b
 11358 0211 0D       		.uleb128 0xd
 11359 0212 00       		.byte	0
 11360 0213 03       		.uleb128 0x3
 11361 0214 0E       		.uleb128 0xe
 11362 0215 3A       		.uleb128 0x3a
 11363 0216 0B       		.uleb128 0xb
 11364 0217 3B       		.uleb128 0x3b
 11365 0218 0B       		.uleb128 0xb
 11366 0219 49       		.uleb128 0x49
 11367 021a 13       		.uleb128 0x13
 11368 021b 00       		.byte	0
 11369 021c 00       		.byte	0
 11370 021d 2C       		.uleb128 0x2c
 11371 021e 17       		.uleb128 0x17
 11372 021f 01       		.byte	0x1
 11373 0220 0B       		.uleb128 0xb
 11374 0221 0B       		.uleb128 0xb
 11375 0222 3A       		.uleb128 0x3a
 11376 0223 0B       		.uleb128 0xb
 11377 0224 3B       		.uleb128 0x3b
 11378 0225 05       		.uleb128 0x5
 11379 0226 01       		.uleb128 0x1
 11380 0227 13       		.uleb128 0x13
 11381 0228 00       		.byte	0
 11382 0229 00       		.byte	0
 11383 022a 2D       		.uleb128 0x2d
 11384 022b 34       		.uleb128 0x34
 11385 022c 00       		.byte	0
ARM GAS  C:\Users\PCHAUT~1\AppData\Local\Temp\ccR4smAG.s 			page 201


 11386 022d 47       		.uleb128 0x47
 11387 022e 13       		.uleb128 0x13
 11388 022f 3A       		.uleb128 0x3a
 11389 0230 0B       		.uleb128 0xb
 11390 0231 3B       		.uleb128 0x3b
 11391 0232 0B       		.uleb128 0xb
 11392 0233 02       		.uleb128 0x2
 11393 0234 18       		.uleb128 0x18
 11394 0235 00       		.byte	0
 11395 0236 00       		.byte	0
 11396 0237 2E       		.uleb128 0x2e
 11397 0238 2E       		.uleb128 0x2e
 11398 0239 01       		.byte	0x1
 11399 023a 3F       		.uleb128 0x3f
 11400 023b 19       		.uleb128 0x19
 11401 023c 03       		.uleb128 0x3
 11402 023d 0E       		.uleb128 0xe
 11403 023e 3A       		.uleb128 0x3a
 11404 023f 0B       		.uleb128 0xb
 11405 0240 3B       		.uleb128 0x3b
 11406 0241 05       		.uleb128 0x5
 11407 0242 27       		.uleb128 0x27
 11408 0243 19       		.uleb128 0x19
 11409 0244 49       		.uleb128 0x49
 11410 0245 13       		.uleb128 0x13
 11411 0246 11       		.uleb128 0x11
 11412 0247 01       		.uleb128 0x1
 11413 0248 12       		.uleb128 0x12
 11414 0249 06       		.uleb128 0x6
 11415 024a 40       		.uleb128 0x40
 11416 024b 18       		.uleb128 0x18
 11417 024c 9642     		.uleb128 0x2116
 11418 024e 19       		.uleb128 0x19
 11419 024f 01       		.uleb128 0x1
 11420 0250 13       		.uleb128 0x13
 11421 0251 00       		.byte	0
 11422 0252 00       		.byte	0
 11423 0253 2F       		.uleb128 0x2f
 11424 0254 05       		.uleb128 0x5
 11425 0255 00       		.byte	0
 11426 0256 03       		.uleb128 0x3
 11427 0257 0E       		.uleb128 0xe
 11428 0258 3A       		.uleb128 0x3a
 11429 0259 0B       		.uleb128 0xb
 11430 025a 3B       		.uleb128 0x3b
 11431 025b 05       		.uleb128 0x5
 11432 025c 49       		.uleb128 0x49
 11433 025d 13       		.uleb128 0x13
 11434 025e 02       		.uleb128 0x2
 11435 025f 18       		.uleb128 0x18
 11436 0260 00       		.byte	0
 11437 0261 00       		.byte	0
 11438 0262 30       		.uleb128 0x30
 11439 0263 34       		.uleb128 0x34
 11440 0264 00       		.byte	0
 11441 0265 03       		.uleb128 0x3
 11442 0266 08       		.uleb128 0x8
ARM GAS  C:\Users\PCHAUT~1\AppData\Local\Temp\ccR4smAG.s 			page 202


 11443 0267 3A       		.uleb128 0x3a
 11444 0268 0B       		.uleb128 0xb
 11445 0269 3B       		.uleb128 0x3b
 11446 026a 05       		.uleb128 0x5
 11447 026b 49       		.uleb128 0x49
 11448 026c 13       		.uleb128 0x13
 11449 026d 02       		.uleb128 0x2
 11450 026e 18       		.uleb128 0x18
 11451 026f 00       		.byte	0
 11452 0270 00       		.byte	0
 11453 0271 31       		.uleb128 0x31
 11454 0272 34       		.uleb128 0x34
 11455 0273 00       		.byte	0
 11456 0274 03       		.uleb128 0x3
 11457 0275 0E       		.uleb128 0xe
 11458 0276 3A       		.uleb128 0x3a
 11459 0277 0B       		.uleb128 0xb
 11460 0278 3B       		.uleb128 0x3b
 11461 0279 05       		.uleb128 0x5
 11462 027a 49       		.uleb128 0x49
 11463 027b 13       		.uleb128 0x13
 11464 027c 02       		.uleb128 0x2
 11465 027d 18       		.uleb128 0x18
 11466 027e 00       		.byte	0
 11467 027f 00       		.byte	0
 11468 0280 32       		.uleb128 0x32
 11469 0281 2E       		.uleb128 0x2e
 11470 0282 01       		.byte	0x1
 11471 0283 3F       		.uleb128 0x3f
 11472 0284 19       		.uleb128 0x19
 11473 0285 03       		.uleb128 0x3
 11474 0286 0E       		.uleb128 0xe
 11475 0287 3A       		.uleb128 0x3a
 11476 0288 0B       		.uleb128 0xb
 11477 0289 3B       		.uleb128 0x3b
 11478 028a 05       		.uleb128 0x5
 11479 028b 27       		.uleb128 0x27
 11480 028c 19       		.uleb128 0x19
 11481 028d 11       		.uleb128 0x11
 11482 028e 01       		.uleb128 0x1
 11483 028f 12       		.uleb128 0x12
 11484 0290 06       		.uleb128 0x6
 11485 0291 40       		.uleb128 0x40
 11486 0292 18       		.uleb128 0x18
 11487 0293 9642     		.uleb128 0x2116
 11488 0295 19       		.uleb128 0x19
 11489 0296 01       		.uleb128 0x1
 11490 0297 13       		.uleb128 0x13
 11491 0298 00       		.byte	0
 11492 0299 00       		.byte	0
 11493 029a 33       		.uleb128 0x33
 11494 029b 34       		.uleb128 0x34
 11495 029c 00       		.byte	0
 11496 029d 03       		.uleb128 0x3
 11497 029e 0E       		.uleb128 0xe
 11498 029f 49       		.uleb128 0x49
 11499 02a0 13       		.uleb128 0x13
ARM GAS  C:\Users\PCHAUT~1\AppData\Local\Temp\ccR4smAG.s 			page 203


 11500 02a1 34       		.uleb128 0x34
 11501 02a2 19       		.uleb128 0x19
 11502 02a3 02       		.uleb128 0x2
 11503 02a4 18       		.uleb128 0x18
 11504 02a5 00       		.byte	0
 11505 02a6 00       		.byte	0
 11506 02a7 34       		.uleb128 0x34
 11507 02a8 0B       		.uleb128 0xb
 11508 02a9 01       		.byte	0x1
 11509 02aa 11       		.uleb128 0x11
 11510 02ab 01       		.uleb128 0x1
 11511 02ac 12       		.uleb128 0x12
 11512 02ad 06       		.uleb128 0x6
 11513 02ae 00       		.byte	0
 11514 02af 00       		.byte	0
 11515 02b0 35       		.uleb128 0x35
 11516 02b1 2E       		.uleb128 0x2e
 11517 02b2 00       		.byte	0
 11518 02b3 3F       		.uleb128 0x3f
 11519 02b4 19       		.uleb128 0x19
 11520 02b5 03       		.uleb128 0x3
 11521 02b6 0E       		.uleb128 0xe
 11522 02b7 3A       		.uleb128 0x3a
 11523 02b8 0B       		.uleb128 0xb
 11524 02b9 3B       		.uleb128 0x3b
 11525 02ba 05       		.uleb128 0x5
 11526 02bb 27       		.uleb128 0x27
 11527 02bc 19       		.uleb128 0x19
 11528 02bd 11       		.uleb128 0x11
 11529 02be 01       		.uleb128 0x1
 11530 02bf 12       		.uleb128 0x12
 11531 02c0 06       		.uleb128 0x6
 11532 02c1 40       		.uleb128 0x40
 11533 02c2 18       		.uleb128 0x18
 11534 02c3 9642     		.uleb128 0x2116
 11535 02c5 19       		.uleb128 0x19
 11536 02c6 00       		.byte	0
 11537 02c7 00       		.byte	0
 11538 02c8 36       		.uleb128 0x36
 11539 02c9 2E       		.uleb128 0x2e
 11540 02ca 01       		.byte	0x1
 11541 02cb 03       		.uleb128 0x3
 11542 02cc 0E       		.uleb128 0xe
 11543 02cd 3A       		.uleb128 0x3a
 11544 02ce 0B       		.uleb128 0xb
 11545 02cf 3B       		.uleb128 0x3b
 11546 02d0 05       		.uleb128 0x5
 11547 02d1 27       		.uleb128 0x27
 11548 02d2 19       		.uleb128 0x19
 11549 02d3 11       		.uleb128 0x11
 11550 02d4 01       		.uleb128 0x1
 11551 02d5 12       		.uleb128 0x12
 11552 02d6 06       		.uleb128 0x6
 11553 02d7 40       		.uleb128 0x40
 11554 02d8 18       		.uleb128 0x18
 11555 02d9 9642     		.uleb128 0x2116
 11556 02db 19       		.uleb128 0x19
ARM GAS  C:\Users\PCHAUT~1\AppData\Local\Temp\ccR4smAG.s 			page 204


 11557 02dc 01       		.uleb128 0x1
 11558 02dd 13       		.uleb128 0x13
 11559 02de 00       		.byte	0
 11560 02df 00       		.byte	0
 11561 02e0 37       		.uleb128 0x37
 11562 02e1 05       		.uleb128 0x5
 11563 02e2 00       		.byte	0
 11564 02e3 03       		.uleb128 0x3
 11565 02e4 08       		.uleb128 0x8
 11566 02e5 3A       		.uleb128 0x3a
 11567 02e6 0B       		.uleb128 0xb
 11568 02e7 3B       		.uleb128 0x3b
 11569 02e8 05       		.uleb128 0x5
 11570 02e9 49       		.uleb128 0x49
 11571 02ea 13       		.uleb128 0x13
 11572 02eb 02       		.uleb128 0x2
 11573 02ec 18       		.uleb128 0x18
 11574 02ed 00       		.byte	0
 11575 02ee 00       		.byte	0
 11576 02ef 38       		.uleb128 0x38
 11577 02f0 2E       		.uleb128 0x2e
 11578 02f1 01       		.byte	0x1
 11579 02f2 03       		.uleb128 0x3
 11580 02f3 0E       		.uleb128 0xe
 11581 02f4 3A       		.uleb128 0x3a
 11582 02f5 0B       		.uleb128 0xb
 11583 02f6 3B       		.uleb128 0x3b
 11584 02f7 0B       		.uleb128 0xb
 11585 02f8 27       		.uleb128 0x27
 11586 02f9 19       		.uleb128 0x19
 11587 02fa 11       		.uleb128 0x11
 11588 02fb 01       		.uleb128 0x1
 11589 02fc 12       		.uleb128 0x12
 11590 02fd 06       		.uleb128 0x6
 11591 02fe 40       		.uleb128 0x40
 11592 02ff 18       		.uleb128 0x18
 11593 0300 9642     		.uleb128 0x2116
 11594 0302 19       		.uleb128 0x19
 11595 0303 01       		.uleb128 0x1
 11596 0304 13       		.uleb128 0x13
 11597 0305 00       		.byte	0
 11598 0306 00       		.byte	0
 11599 0307 39       		.uleb128 0x39
 11600 0308 05       		.uleb128 0x5
 11601 0309 00       		.byte	0
 11602 030a 03       		.uleb128 0x3
 11603 030b 0E       		.uleb128 0xe
 11604 030c 3A       		.uleb128 0x3a
 11605 030d 0B       		.uleb128 0xb
 11606 030e 3B       		.uleb128 0x3b
 11607 030f 0B       		.uleb128 0xb
 11608 0310 49       		.uleb128 0x49
 11609 0311 13       		.uleb128 0x13
 11610 0312 02       		.uleb128 0x2
 11611 0313 18       		.uleb128 0x18
 11612 0314 00       		.byte	0
 11613 0315 00       		.byte	0
ARM GAS  C:\Users\PCHAUT~1\AppData\Local\Temp\ccR4smAG.s 			page 205


 11614 0316 3A       		.uleb128 0x3a
 11615 0317 34       		.uleb128 0x34
 11616 0318 00       		.byte	0
 11617 0319 03       		.uleb128 0x3
 11618 031a 08       		.uleb128 0x8
 11619 031b 3A       		.uleb128 0x3a
 11620 031c 0B       		.uleb128 0xb
 11621 031d 3B       		.uleb128 0x3b
 11622 031e 0B       		.uleb128 0xb
 11623 031f 49       		.uleb128 0x49
 11624 0320 13       		.uleb128 0x13
 11625 0321 02       		.uleb128 0x2
 11626 0322 18       		.uleb128 0x18
 11627 0323 00       		.byte	0
 11628 0324 00       		.byte	0
 11629 0325 3B       		.uleb128 0x3b
 11630 0326 34       		.uleb128 0x34
 11631 0327 00       		.byte	0
 11632 0328 03       		.uleb128 0x3
 11633 0329 0E       		.uleb128 0xe
 11634 032a 3A       		.uleb128 0x3a
 11635 032b 0B       		.uleb128 0xb
 11636 032c 3B       		.uleb128 0x3b
 11637 032d 0B       		.uleb128 0xb
 11638 032e 49       		.uleb128 0x49
 11639 032f 13       		.uleb128 0x13
 11640 0330 02       		.uleb128 0x2
 11641 0331 18       		.uleb128 0x18
 11642 0332 00       		.byte	0
 11643 0333 00       		.byte	0
 11644 0334 3C       		.uleb128 0x3c
 11645 0335 2E       		.uleb128 0x2e
 11646 0336 01       		.byte	0x1
 11647 0337 03       		.uleb128 0x3
 11648 0338 0E       		.uleb128 0xe
 11649 0339 3A       		.uleb128 0x3a
 11650 033a 0B       		.uleb128 0xb
 11651 033b 3B       		.uleb128 0x3b
 11652 033c 05       		.uleb128 0x5
 11653 033d 27       		.uleb128 0x27
 11654 033e 19       		.uleb128 0x19
 11655 033f 49       		.uleb128 0x49
 11656 0340 13       		.uleb128 0x13
 11657 0341 11       		.uleb128 0x11
 11658 0342 01       		.uleb128 0x1
 11659 0343 12       		.uleb128 0x12
 11660 0344 06       		.uleb128 0x6
 11661 0345 40       		.uleb128 0x40
 11662 0346 18       		.uleb128 0x18
 11663 0347 9642     		.uleb128 0x2116
 11664 0349 19       		.uleb128 0x19
 11665 034a 01       		.uleb128 0x1
 11666 034b 13       		.uleb128 0x13
 11667 034c 00       		.byte	0
 11668 034d 00       		.byte	0
 11669 034e 3D       		.uleb128 0x3d
 11670 034f 2E       		.uleb128 0x2e
ARM GAS  C:\Users\PCHAUT~1\AppData\Local\Temp\ccR4smAG.s 			page 206


 11671 0350 00       		.byte	0
 11672 0351 03       		.uleb128 0x3
 11673 0352 0E       		.uleb128 0xe
 11674 0353 3A       		.uleb128 0x3a
 11675 0354 0B       		.uleb128 0xb
 11676 0355 3B       		.uleb128 0x3b
 11677 0356 05       		.uleb128 0x5
 11678 0357 27       		.uleb128 0x27
 11679 0358 19       		.uleb128 0x19
 11680 0359 49       		.uleb128 0x49
 11681 035a 13       		.uleb128 0x13
 11682 035b 11       		.uleb128 0x11
 11683 035c 01       		.uleb128 0x1
 11684 035d 12       		.uleb128 0x12
 11685 035e 06       		.uleb128 0x6
 11686 035f 40       		.uleb128 0x40
 11687 0360 18       		.uleb128 0x18
 11688 0361 9642     		.uleb128 0x2116
 11689 0363 19       		.uleb128 0x19
 11690 0364 00       		.byte	0
 11691 0365 00       		.byte	0
 11692 0366 3E       		.uleb128 0x3e
 11693 0367 2E       		.uleb128 0x2e
 11694 0368 00       		.byte	0
 11695 0369 03       		.uleb128 0x3
 11696 036a 0E       		.uleb128 0xe
 11697 036b 3A       		.uleb128 0x3a
 11698 036c 0B       		.uleb128 0xb
 11699 036d 3B       		.uleb128 0x3b
 11700 036e 05       		.uleb128 0x5
 11701 036f 27       		.uleb128 0x27
 11702 0370 19       		.uleb128 0x19
 11703 0371 11       		.uleb128 0x11
 11704 0372 01       		.uleb128 0x1
 11705 0373 12       		.uleb128 0x12
 11706 0374 06       		.uleb128 0x6
 11707 0375 40       		.uleb128 0x40
 11708 0376 18       		.uleb128 0x18
 11709 0377 9642     		.uleb128 0x2116
 11710 0379 19       		.uleb128 0x19
 11711 037a 00       		.byte	0
 11712 037b 00       		.byte	0
 11713 037c 3F       		.uleb128 0x3f
 11714 037d 2E       		.uleb128 0x2e
 11715 037e 00       		.byte	0
 11716 037f 03       		.uleb128 0x3
 11717 0380 0E       		.uleb128 0xe
 11718 0381 3A       		.uleb128 0x3a
 11719 0382 0B       		.uleb128 0xb
 11720 0383 3B       		.uleb128 0x3b
 11721 0384 0B       		.uleb128 0xb
 11722 0385 27       		.uleb128 0x27
 11723 0386 19       		.uleb128 0x19
 11724 0387 49       		.uleb128 0x49
 11725 0388 13       		.uleb128 0x13
 11726 0389 11       		.uleb128 0x11
 11727 038a 01       		.uleb128 0x1
ARM GAS  C:\Users\PCHAUT~1\AppData\Local\Temp\ccR4smAG.s 			page 207


 11728 038b 12       		.uleb128 0x12
 11729 038c 06       		.uleb128 0x6
 11730 038d 40       		.uleb128 0x40
 11731 038e 18       		.uleb128 0x18
 11732 038f 9642     		.uleb128 0x2116
 11733 0391 19       		.uleb128 0x19
 11734 0392 00       		.byte	0
 11735 0393 00       		.byte	0
 11736 0394 40       		.uleb128 0x40
 11737 0395 1D       		.uleb128 0x1d
 11738 0396 01       		.byte	0x1
 11739 0397 31       		.uleb128 0x31
 11740 0398 13       		.uleb128 0x13
 11741 0399 11       		.uleb128 0x11
 11742 039a 01       		.uleb128 0x1
 11743 039b 12       		.uleb128 0x12
 11744 039c 06       		.uleb128 0x6
 11745 039d 58       		.uleb128 0x58
 11746 039e 0B       		.uleb128 0xb
 11747 039f 59       		.uleb128 0x59
 11748 03a0 05       		.uleb128 0x5
 11749 03a1 00       		.byte	0
 11750 03a2 00       		.byte	0
 11751 03a3 41       		.uleb128 0x41
 11752 03a4 05       		.uleb128 0x5
 11753 03a5 00       		.byte	0
 11754 03a6 31       		.uleb128 0x31
 11755 03a7 13       		.uleb128 0x13
 11756 03a8 02       		.uleb128 0x2
 11757 03a9 18       		.uleb128 0x18
 11758 03aa 00       		.byte	0
 11759 03ab 00       		.byte	0
 11760 03ac 42       		.uleb128 0x42
 11761 03ad 2E       		.uleb128 0x2e
 11762 03ae 01       		.byte	0x1
 11763 03af 03       		.uleb128 0x3
 11764 03b0 0E       		.uleb128 0xe
 11765 03b1 3A       		.uleb128 0x3a
 11766 03b2 0B       		.uleb128 0xb
 11767 03b3 3B       		.uleb128 0x3b
 11768 03b4 05       		.uleb128 0x5
 11769 03b5 27       		.uleb128 0x27
 11770 03b6 19       		.uleb128 0x19
 11771 03b7 20       		.uleb128 0x20
 11772 03b8 0B       		.uleb128 0xb
 11773 03b9 00       		.byte	0
 11774 03ba 00       		.byte	0
 11775 03bb 43       		.uleb128 0x43
 11776 03bc 05       		.uleb128 0x5
 11777 03bd 00       		.byte	0
 11778 03be 03       		.uleb128 0x3
 11779 03bf 0E       		.uleb128 0xe
 11780 03c0 3A       		.uleb128 0x3a
 11781 03c1 0B       		.uleb128 0xb
 11782 03c2 3B       		.uleb128 0x3b
 11783 03c3 05       		.uleb128 0x5
 11784 03c4 49       		.uleb128 0x49
ARM GAS  C:\Users\PCHAUT~1\AppData\Local\Temp\ccR4smAG.s 			page 208


 11785 03c5 13       		.uleb128 0x13
 11786 03c6 00       		.byte	0
 11787 03c7 00       		.byte	0
 11788 03c8 00       		.byte	0
 11789              		.section	.debug_aranges,"",%progbits
 11790 0000 1C010000 		.4byte	0x11c
 11791 0004 0200     		.2byte	0x2
 11792 0006 00000000 		.4byte	.Ldebug_info0
 11793 000a 04       		.byte	0x4
 11794 000b 00       		.byte	0
 11795 000c 0000     		.2byte	0
 11796 000e 0000     		.2byte	0
 11797 0010 00000000 		.4byte	.LFB116
 11798 0014 30000000 		.4byte	.LFE116-.LFB116
 11799 0018 00000000 		.4byte	.LFB117
 11800 001c 30000000 		.4byte	.LFE117-.LFB117
 11801 0020 00000000 		.4byte	.LFB118
 11802 0024 28000000 		.4byte	.LFE118-.LFB118
 11803 0028 00000000 		.4byte	.LFB119
 11804 002c 28000000 		.4byte	.LFE119-.LFB119
 11805 0030 00000000 		.4byte	.LFB145
 11806 0034 30000000 		.4byte	.LFE145-.LFB145
 11807 0038 00000000 		.4byte	.LFB146
 11808 003c 58000000 		.4byte	.LFE146-.LFB146
 11809 0040 00000000 		.4byte	.LFB147
 11810 0044 30000000 		.4byte	.LFE147-.LFB147
 11811 0048 00000000 		.4byte	.LFB148
 11812 004c 30000000 		.4byte	.LFE148-.LFB148
 11813 0050 00000000 		.4byte	.LFB153
 11814 0054 2C000000 		.4byte	.LFE153-.LFB153
 11815 0058 00000000 		.4byte	.LFB156
 11816 005c 40000000 		.4byte	.LFE156-.LFB156
 11817 0060 00000000 		.4byte	.LFB220
 11818 0064 2C000000 		.4byte	.LFE220-.LFB220
 11819 0068 00000000 		.4byte	.LFB223
 11820 006c 28000000 		.4byte	.LFE223-.LFB223
 11821 0070 00000000 		.4byte	.LFB224
 11822 0074 28000000 		.4byte	.LFE224-.LFB224
 11823 0078 00000000 		.4byte	.LFB225
 11824 007c 28000000 		.4byte	.LFE225-.LFB225
 11825 0080 00000000 		.4byte	.LFB226
 11826 0084 28000000 		.4byte	.LFE226-.LFB226
 11827 0088 00000000 		.4byte	.LFB232
 11828 008c 2C000000 		.4byte	.LFE232-.LFB232
 11829 0090 00000000 		.4byte	.LFB233
 11830 0094 38000000 		.4byte	.LFE233-.LFB233
 11831 0098 00000000 		.4byte	.LFB237
 11832 009c 34000000 		.4byte	.LFE237-.LFB237
 11833 00a0 00000000 		.4byte	.LFB238
 11834 00a4 30000000 		.4byte	.LFE238-.LFB238
 11835 00a8 00000000 		.4byte	.LFB256
 11836 00ac C0000000 		.4byte	.LFE256-.LFB256
 11837 00b0 00000000 		.4byte	.LFB257
 11838 00b4 F8010000 		.4byte	.LFE257-.LFB257
 11839 00b8 00000000 		.4byte	.LFB258
 11840 00bc 8C000000 		.4byte	.LFE258-.LFB258
 11841 00c0 00000000 		.4byte	.LFB259
ARM GAS  C:\Users\PCHAUT~1\AppData\Local\Temp\ccR4smAG.s 			page 209


 11842 00c4 A0010000 		.4byte	.LFE259-.LFB259
 11843 00c8 00000000 		.4byte	.LFB260
 11844 00cc B8000000 		.4byte	.LFE260-.LFB260
 11845 00d0 00000000 		.4byte	.LFB261
 11846 00d4 8C000000 		.4byte	.LFE261-.LFB261
 11847 00d8 00000000 		.4byte	.LFB262
 11848 00dc 8C010000 		.4byte	.LFE262-.LFB262
 11849 00e0 00000000 		.4byte	.LFB263
 11850 00e4 40000000 		.4byte	.LFE263-.LFB263
 11851 00e8 00000000 		.4byte	.LFB264
 11852 00ec 60000000 		.4byte	.LFE264-.LFB264
 11853 00f0 00000000 		.4byte	.LFB265
 11854 00f4 54000000 		.4byte	.LFE265-.LFB265
 11855 00f8 00000000 		.4byte	.LFB266
 11856 00fc 3C010000 		.4byte	.LFE266-.LFB266
 11857 0100 00000000 		.4byte	.LFB267
 11858 0104 70000000 		.4byte	.LFE267-.LFB267
 11859 0108 00000000 		.4byte	.LFB268
 11860 010c F0000000 		.4byte	.LFE268-.LFB268
 11861 0110 00000000 		.4byte	.LFB269
 11862 0114 10010000 		.4byte	.LFE269-.LFB269
 11863 0118 00000000 		.4byte	0
 11864 011c 00000000 		.4byte	0
 11865              		.section	.debug_ranges,"",%progbits
 11866              	.Ldebug_ranges0:
 11867 0000 00000000 		.4byte	.LFB116
 11868 0004 30000000 		.4byte	.LFE116
 11869 0008 00000000 		.4byte	.LFB117
 11870 000c 30000000 		.4byte	.LFE117
 11871 0010 00000000 		.4byte	.LFB118
 11872 0014 28000000 		.4byte	.LFE118
 11873 0018 00000000 		.4byte	.LFB119
 11874 001c 28000000 		.4byte	.LFE119
 11875 0020 00000000 		.4byte	.LFB145
 11876 0024 30000000 		.4byte	.LFE145
 11877 0028 00000000 		.4byte	.LFB146
 11878 002c 58000000 		.4byte	.LFE146
 11879 0030 00000000 		.4byte	.LFB147
 11880 0034 30000000 		.4byte	.LFE147
 11881 0038 00000000 		.4byte	.LFB148
 11882 003c 30000000 		.4byte	.LFE148
 11883 0040 00000000 		.4byte	.LFB153
 11884 0044 2C000000 		.4byte	.LFE153
 11885 0048 00000000 		.4byte	.LFB156
 11886 004c 40000000 		.4byte	.LFE156
 11887 0050 00000000 		.4byte	.LFB220
 11888 0054 2C000000 		.4byte	.LFE220
 11889 0058 00000000 		.4byte	.LFB223
 11890 005c 28000000 		.4byte	.LFE223
 11891 0060 00000000 		.4byte	.LFB224
 11892 0064 28000000 		.4byte	.LFE224
 11893 0068 00000000 		.4byte	.LFB225
 11894 006c 28000000 		.4byte	.LFE225
 11895 0070 00000000 		.4byte	.LFB226
 11896 0074 28000000 		.4byte	.LFE226
 11897 0078 00000000 		.4byte	.LFB232
 11898 007c 2C000000 		.4byte	.LFE232
ARM GAS  C:\Users\PCHAUT~1\AppData\Local\Temp\ccR4smAG.s 			page 210


 11899 0080 00000000 		.4byte	.LFB233
 11900 0084 38000000 		.4byte	.LFE233
 11901 0088 00000000 		.4byte	.LFB237
 11902 008c 34000000 		.4byte	.LFE237
 11903 0090 00000000 		.4byte	.LFB238
 11904 0094 30000000 		.4byte	.LFE238
 11905 0098 00000000 		.4byte	.LFB256
 11906 009c C0000000 		.4byte	.LFE256
 11907 00a0 00000000 		.4byte	.LFB257
 11908 00a4 F8010000 		.4byte	.LFE257
 11909 00a8 00000000 		.4byte	.LFB258
 11910 00ac 8C000000 		.4byte	.LFE258
 11911 00b0 00000000 		.4byte	.LFB259
 11912 00b4 A0010000 		.4byte	.LFE259
 11913 00b8 00000000 		.4byte	.LFB260
 11914 00bc B8000000 		.4byte	.LFE260
 11915 00c0 00000000 		.4byte	.LFB261
 11916 00c4 8C000000 		.4byte	.LFE261
 11917 00c8 00000000 		.4byte	.LFB262
 11918 00cc 8C010000 		.4byte	.LFE262
 11919 00d0 00000000 		.4byte	.LFB263
 11920 00d4 40000000 		.4byte	.LFE263
 11921 00d8 00000000 		.4byte	.LFB264
 11922 00dc 60000000 		.4byte	.LFE264
 11923 00e0 00000000 		.4byte	.LFB265
 11924 00e4 54000000 		.4byte	.LFE265
 11925 00e8 00000000 		.4byte	.LFB266
 11926 00ec 3C010000 		.4byte	.LFE266
 11927 00f0 00000000 		.4byte	.LFB267
 11928 00f4 70000000 		.4byte	.LFE267
 11929 00f8 00000000 		.4byte	.LFB268
 11930 00fc F0000000 		.4byte	.LFE268
 11931 0100 00000000 		.4byte	.LFB269
 11932 0104 10010000 		.4byte	.LFE269
 11933 0108 00000000 		.4byte	0
 11934 010c 00000000 		.4byte	0
 11935              		.section	.debug_line,"",%progbits
 11936              	.Ldebug_line0:
 11937 0000 F30C0000 		.section	.debug_str,"MS",%progbits,1
 11937      02003E08 
 11937      00000201 
 11937      FB0E0D00 
 11937      01010101 
 11938              	.LASF684:
 11939 0000 5553425F 		.ascii	"USB_STOP\000"
 11939      53544F50 
 11939      00
 11940              	.LASF848:
 11941 0009 6F73616C 		.ascii	"osalThreadSuspendTimeoutS\000"
 11941      54687265 
 11941      61645375 
 11941      7370656E 
 11941      6454696D 
 11942              	.LASF297:
 11943 0023 706F7274 		.ascii	"port_intctx\000"
 11943      5F696E74 
 11943      63747800 
ARM GAS  C:\Users\PCHAUT~1\AppData\Local\Temp\ccR4smAG.s 			page 211


 11944              	.LASF306:
 11945 002f 63685F74 		.ascii	"ch_trace_buffer_t\000"
 11945      72616365 
 11945      5F627566 
 11945      6665725F 
 11945      7400
 11946              	.LASF339:
 11947 0041 63685F70 		.ascii	"ch_ptrsize\000"
 11947      74727369 
 11947      7A6500
 11948              	.LASF620:
 11949 004c 6576656E 		.ascii	"event\000"
 11949      7400
 11950              	.LASF132:
 11951 0052 54494D32 		.ascii	"TIM2_IRQn\000"
 11951      5F495251 
 11951      6E00
 11952              	.LASF171:
 11953 005c 4F54475F 		.ascii	"OTG_FS_IRQn\000"
 11953      46535F49 
 11953      52516E00 
 11954              	.LASF471:
 11955 0068 43414E5F 		.ascii	"CAN_STARTING\000"
 11955      53544152 
 11955      54494E47 
 11955      00
 11956              	.LASF845:
 11957 0075 5F5F6675 		.ascii	"__func__\000"
 11957      6E635F5F 
 11957      00
 11958              	.LASF30:
 11959 007e 6D73675F 		.ascii	"msg_t\000"
 11959      7400
 11960              	.LASF416:
 11961 0084 61667268 		.ascii	"afrh\000"
 11961      00
 11962              	.LASF563:
 11963 0089 4F504D4F 		.ascii	"OPMODE_SMBUS_DEVICE\000"
 11963      44455F53 
 11963      4D425553 
 11963      5F444556 
 11963      49434500 
 11964              	.LASF317:
 11965 009d 6D5F6372 		.ascii	"m_crit_isr\000"
 11965      69745F69 
 11965      737200
 11966              	.LASF864:
 11967 00a8 706F7274 		.ascii	"port_unlock_from_isr\000"
 11967      5F756E6C 
 11967      6F636B5F 
 11967      66726F6D 
 11967      5F697372 
 11968              	.LASF870:
 11969 00bd 433A5C55 		.ascii	"C:\\Users\\Pchautems\\Documents\\RobotiqueTP\\Proje"
 11969      73657273 
 11969      5C506368 
 11969      61757465 
ARM GAS  C:\Users\PCHAUT~1\AppData\Local\Temp\ccR4smAG.s 			page 212


 11969      6D735C44 
 11970 00eb 745C6D69 		.ascii	"t\\miniprojet\000"
 11970      6E697072 
 11970      6F6A6574 
 11970      00
 11971              	.LASF743:
 11972 00f8 44494550 		.ascii	"DIEPTXF0\000"
 11972      54584630 
 11972      00
 11973              	.LASF166:
 11974 0101 4554485F 		.ascii	"ETH_WKUP_IRQn\000"
 11974      574B5550 
 11974      5F495251 
 11974      6E00
 11975              	.LASF470:
 11976 010f 43414E5F 		.ascii	"CAN_STOP\000"
 11976      53544F50 
 11976      00
 11977              	.LASF147:
 11978 0118 54494D38 		.ascii	"TIM8_BRK_TIM12_IRQn\000"
 11978      5F42524B 
 11978      5F54494D 
 11978      31325F49 
 11978      52516E00 
 11979              	.LASF352:
 11980 012c 63665F6F 		.ascii	"cf_off_time\000"
 11980      66665F74 
 11980      696D6500 
 11981              	.LASF89:
 11982 0138 63685F73 		.ascii	"ch_system_t\000"
 11982      79737465 
 11982      6D5F7400 
 11983              	.LASF5:
 11984 0144 5F5F7569 		.ascii	"__uint8_t\000"
 11984      6E74385F 
 11984      7400
 11985              	.LASF323:
 11986 014e 77747365 		.ascii	"wtsemp\000"
 11986      6D7000
 11987              	.LASF101:
 11988 0155 44656275 		.ascii	"DebugMonitor_IRQn\000"
 11988      674D6F6E 
 11988      69746F72 
 11988      5F495251 
 11988      6E00
 11989              	.LASF400:
 11990 0167 5F426F6F 		.ascii	"_Bool\000"
 11990      6C00
 11991              	.LASF512:
 11992 016d 64617461 		.ascii	"datamode\000"
 11992      6D6F6465 
 11992      00
 11993              	.LASF579:
 11994 0176 646D6172 		.ascii	"dmarx\000"
 11994      7800
 11995              	.LASF584:
 11996 017c 4932535F 		.ascii	"I2S_READY\000"
ARM GAS  C:\Users\PCHAUT~1\AppData\Local\Temp\ccR4smAG.s 			page 213


 11996      52454144 
 11996      5900
 11997              	.LASF164:
 11998 0186 444D4132 		.ascii	"DMA2_Stream4_IRQn\000"
 11998      5F537472 
 11998      65616D34 
 11998      5F495251 
 11998      6E00
 11999              	.LASF180:
 12000 0198 4F54475F 		.ascii	"OTG_HS_WKUP_IRQn\000"
 12000      48535F57 
 12000      4B55505F 
 12000      4952516E 
 12000      00
 12001              	.LASF853:
 12002 01a9 6F73616C 		.ascii	"osalSysUnlock\000"
 12002      53797355 
 12002      6E6C6F63 
 12002      6B00
 12003              	.LASF460:
 12004 01b7 73717231 		.ascii	"sqr1\000"
 12004      00
 12005              	.LASF387:
 12006 01bc 424C4B5F 		.ascii	"BLK_UNINIT\000"
 12006      554E494E 
 12006      495400
 12007              	.LASF591:
 12008 01c7 72785F62 		.ascii	"rx_buffer\000"
 12008      75666665 
 12008      7200
 12009              	.LASF575:
 12010 01d1 6572726F 		.ascii	"errors\000"
 12010      727300
 12011              	.LASF310:
 12012 01d8 776F7273 		.ascii	"worst\000"
 12012      7400
 12013              	.LASF82:
 12014 01de 76745F73 		.ascii	"vt_systime\000"
 12014      79737469 
 12014      6D6500
 12015              	.LASF237:
 12016 01e9 444F5231 		.ascii	"DOR1\000"
 12016      00
 12017              	.LASF238:
 12018 01ee 444F5232 		.ascii	"DOR2\000"
 12018      00
 12019              	.LASF590:
 12020 01f3 74785F62 		.ascii	"tx_buffer\000"
 12020      75666665 
 12020      7200
 12021              	.LASF163:
 12022 01fd 444D4132 		.ascii	"DMA2_Stream3_IRQn\000"
 12022      5F537472 
 12022      65616D33 
 12022      5F495251 
 12022      6E00
 12023              	.LASF270:
ARM GAS  C:\Users\PCHAUT~1\AppData\Local\Temp\ccR4smAG.s 			page 214


 12024 020f 5243435F 		.ascii	"RCC_TypeDef\000"
 12024      54797065 
 12024      44656600 
 12025              	.LASF332:
 12026 021b 6D5F6E65 		.ascii	"m_next\000"
 12026      787400
 12027              	.LASF122:
 12028 0222 4144435F 		.ascii	"ADC_IRQn\000"
 12028      4952516E 
 12028      00
 12029              	.LASF420:
 12030 022b 50434461 		.ascii	"PCData\000"
 12030      746100
 12031              	.LASF843:
 12032 0232 636C6F63 		.ascii	"clock_div\000"
 12032      6B5F6469 
 12032      7600
 12033              	.LASF443:
 12034 023c 73746174 		.ascii	"state\000"
 12034      6500
 12035              	.LASF282:
 12036 0242 4D41534B 		.ascii	"MASK\000"
 12036      00
 12037              	.LASF445:
 12038 0247 73616D70 		.ascii	"samples\000"
 12038      6C657300 
 12039              	.LASF747:
 12040 024f 47434346 		.ascii	"GCCFG\000"
 12040      4700
 12041              	.LASF541:
 12042 0255 42445452 		.ascii	"BDTR\000"
 12042      00
 12043              	.LASF494:
 12044 025a 7265676D 		.ascii	"regmask\000"
 12044      61736B00 
 12045              	.LASF573:
 12046 0262 49324343 		.ascii	"I2CConfig\000"
 12046      6F6E6669 
 12046      6700
 12047              	.LASF19:
 12048 026c 75696E74 		.ascii	"uint16_t\000"
 12048      31365F74 
 12048      00
 12049              	.LASF162:
 12050 0275 444D4132 		.ascii	"DMA2_Stream2_IRQn\000"
 12050      5F537472 
 12050      65616D32 
 12050      5F495251 
 12050      6E00
 12051              	.LASF580:
 12052 0287 646D6174 		.ascii	"dmatx\000"
 12052      7800
 12053              	.LASF828:
 12054 028d 6932635F 		.ascii	"i2c_lld_start\000"
 12054      6C6C645F 
 12054      73746172 
 12054      7400
ARM GAS  C:\Users\PCHAUT~1\AppData\Local\Temp\ccR4smAG.s 			page 215


 12055              	.LASF817:
 12056 029b 736F665F 		.ascii	"sof_cb\000"
 12056      636200
 12057              	.LASF517:
 12058 02a2 4558545F 		.ascii	"EXT_ACTIVE\000"
 12058      41435449 
 12058      564500
 12059              	.LASF413:
 12060 02ad 6F737065 		.ascii	"ospeedr\000"
 12060      65647200 
 12061              	.LASF175:
 12062 02b5 55534152 		.ascii	"USART6_IRQn\000"
 12062      54365F49 
 12062      52516E00 
 12063              	.LASF750:
 12064 02c1 44494550 		.ascii	"DIEPTXF\000"
 12064      54584600 
 12065              	.LASF358:
 12066 02c9 656C5F6E 		.ascii	"el_next\000"
 12066      65787400 
 12067              	.LASF440:
 12068 02d1 4144435F 		.ascii	"ADC_ERR_OVERFLOW\000"
 12068      4552525F 
 12068      4F564552 
 12068      464C4F57 
 12068      00
 12069              	.LASF87:
 12070 02e2 6C6F636B 		.ascii	"lock_cnt\000"
 12070      5F636E74 
 12070      00
 12071              	.LASF63:
 12072 02eb 63685F74 		.ascii	"ch_threads_queue\000"
 12072      68726561 
 12072      64735F71 
 12072      75657565 
 12072      00
 12073              	.LASF41:
 12074 02fc 705F6E65 		.ascii	"p_newer\000"
 12074      77657200 
 12075              	.LASF760:
 12076 0304 48505254 		.ascii	"HPRT\000"
 12076      00
 12077              	.LASF714:
 12078 0309 4843494E 		.ascii	"HCINT\000"
 12078      5400
 12079              	.LASF187:
 12080 030f 534D5052 		.ascii	"SMPR1\000"
 12080      3100
 12081              	.LASF188:
 12082 0315 534D5052 		.ascii	"SMPR2\000"
 12082      3200
 12083              	.LASF349:
 12084 031b 63665F6F 		.ascii	"cf_off_flags\000"
 12084      66665F66 
 12084      6C616773 
 12084      00
 12085              	.LASF653:
ARM GAS  C:\Users\PCHAUT~1\AppData\Local\Temp\ccR4smAG.s 			page 216


 12086 0328 5350495F 		.ascii	"SPI_STOP\000"
 12086      53544F50 
 12086      00
 12087              	.LASF607:
 12088 0331 70776D63 		.ascii	"pwmchnmsk_t\000"
 12088      686E6D73 
 12088      6B5F7400 
 12089              	.LASF419:
 12090 033d 50424461 		.ascii	"PBData\000"
 12090      746100
 12091              	.LASF337:
 12092 0344 63685F73 		.ascii	"ch_size\000"
 12092      697A6500 
 12093              	.LASF756:
 12094 034c 48505458 		.ascii	"HPTXSTS\000"
 12094      53545300 
 12095              	.LASF412:
 12096 0354 6F747970 		.ascii	"otyper\000"
 12096      657200
 12097              	.LASF109:
 12098 035b 5243435F 		.ascii	"RCC_IRQn\000"
 12098      4952516E 
 12098      00
 12099              	.LASF403:
 12100 0364 4F545950 		.ascii	"OTYPER\000"
 12100      455200
 12101              	.LASF496:
 12102 036b 64616370 		.ascii	"dacparams_t\000"
 12102      6172616D 
 12102      735F7400 
 12103              	.LASF631:
 12104 0377 5344435F 		.ascii	"SDC_MODE_1BIT\000"
 12104      4D4F4445 
 12104      5F314249 
 12104      5400
 12105              	.LASF712:
 12106 0385 48434348 		.ascii	"HCCHAR\000"
 12106      415200
 12107              	.LASF557:
 12108 038c 4932435F 		.ascii	"I2C_ACTIVE_RX\000"
 12108      41435449 
 12108      56455F52 
 12108      5800
 12109              	.LASF36:
 12110 039a 74687265 		.ascii	"thread_t\000"
 12110      61645F74 
 12110      00
 12111              	.LASF360:
 12112 03a3 656C5F65 		.ascii	"el_events\000"
 12112      76656E74 
 12112      7300
 12113              	.LASF600:
 12114 03ad 70776D73 		.ascii	"pwmstate_t\000"
 12114      74617465 
 12114      5F7400
 12115              	.LASF481:
 12116 03b8 736C6565 		.ascii	"sleep_event\000"
ARM GAS  C:\Users\PCHAUT~1\AppData\Local\Temp\ccR4smAG.s 			page 217


 12116      705F6576 
 12116      656E7400 
 12117              	.LASF81:
 12118 03c4 63685F76 		.ascii	"ch_virtual_timers_list\000"
 12118      69727475 
 12118      616C5F74 
 12118      696D6572 
 12118      735F6C69 
 12119              	.LASF383:
 12120 03db 76656374 		.ascii	"vector\000"
 12120      6F7200
 12121              	.LASF20:
 12122 03e2 696E7433 		.ascii	"int32_t\000"
 12122      325F7400 
 12123              	.LASF571:
 12124 03ea 636C6F63 		.ascii	"clock_speed\000"
 12124      6B5F7370 
 12124      65656400 
 12125              	.LASF35:
 12126 03f6 73797374 		.ascii	"systime_t\000"
 12126      696D655F 
 12126      7400
 12127              	.LASF514:
 12128 0400 44414344 		.ascii	"DACD2\000"
 12128      3200
 12129              	.LASF483:
 12130 0406 43414E44 		.ascii	"CANDriver\000"
 12130      72697665 
 12130      7200
 12131              	.LASF347:
 12132 0410 63665F6F 		.ascii	"cf_off_stklimit\000"
 12132      66665F73 
 12132      746B6C69 
 12132      6D697400 
 12133              	.LASF153:
 12134 0420 5344494F 		.ascii	"SDIO_IRQn\000"
 12134      5F495251 
 12134      6E00
 12135              	.LASF241:
 12136 042a 4D304152 		.ascii	"M0AR\000"
 12136      00
 12137              	.LASF719:
 12138 042f 72657376 		.ascii	"resvd1c\000"
 12138      64316300 
 12139              	.LASF182:
 12140 0437 44434D49 		.ascii	"DCMI_IRQn\000"
 12140      5F495251 
 12140      6E00
 12141              	.LASF561:
 12142 0441 69326366 		.ascii	"i2cflags_t\000"
 12142      6C616773 
 12142      5F7400
 12143              	.LASF757:
 12144 044c 4841494E 		.ascii	"HAINT\000"
 12144      5400
 12145              	.LASF832:
 12146 0452 6932635F 		.ascii	"i2c_lld_serve_error_interrupt\000"
ARM GAS  C:\Users\PCHAUT~1\AppData\Local\Temp\ccR4smAG.s 			page 218


 12146      6C6C645F 
 12146      73657276 
 12146      655F6572 
 12146      726F725F 
 12147              	.LASF145:
 12148 0470 5254435F 		.ascii	"RTC_Alarm_IRQn\000"
 12148      416C6172 
 12148      6D5F4952 
 12148      516E00
 12149              	.LASF223:
 12150 047f 46413152 		.ascii	"FA1R\000"
 12150      00
 12151              	.LASF847:
 12152 0484 6F73616C 		.ascii	"osalThreadResumeI\000"
 12152      54687265 
 12152      61645265 
 12152      73756D65 
 12152      4900
 12153              	.LASF849:
 12154 0496 6F73616C 		.ascii	"osalOsIsTimeWithinX\000"
 12154      4F734973 
 12154      54696D65 
 12154      57697468 
 12154      696E5800 
 12155              	.LASF754:
 12156 04aa 48464E55 		.ascii	"HFNUM\000"
 12156      4D00
 12157              	.LASF376:
 12158 04b0 716E6F74 		.ascii	"qnotify_t\000"
 12158      6966795F 
 12158      7400
 12159              	.LASF436:
 12160 04ba 61646373 		.ascii	"adcstate_t\000"
 12160      74617465 
 12160      5F7400
 12161              	.LASF254:
 12162 04c5 41504231 		.ascii	"APB1RSTR\000"
 12162      52535452 
 12162      00
 12163              	.LASF639:
 12164 04ce 63617264 		.ascii	"cardmode\000"
 12164      6D6F6465 
 12164      00
 12165              	.LASF381:
 12166 04d7 69736869 		.ascii	"ishift\000"
 12166      667400
 12167              	.LASF531:
 12168 04de 4750545F 		.ascii	"GPT_ONESHOT\000"
 12168      4F4E4553 
 12168      484F5400 
 12169              	.LASF371:
 12170 04ea 715F746F 		.ascii	"q_top\000"
 12170      7000
 12171              	.LASF276:
 12172 04f0 52455350 		.ascii	"RESP3\000"
 12172      3300
 12173              	.LASF705:
ARM GAS  C:\Users\PCHAUT~1\AppData\Local\Temp\ccR4smAG.s 			page 219


 12174 04f6 75645F73 		.ascii	"ud_string\000"
 12174      7472696E 
 12174      6700
 12175              	.LASF574:
 12176 0500 49324344 		.ascii	"I2CDriver\000"
 12176      72697665 
 12176      7200
 12177              	.LASF556:
 12178 050a 4932435F 		.ascii	"I2C_ACTIVE_TX\000"
 12178      41435449 
 12178      56455F54 
 12178      5800
 12179              	.LASF626:
 12180 0518 72656164 		.ascii	"read\000"
 12180      00
 12181              	.LASF562:
 12182 051d 4F504D4F 		.ascii	"OPMODE_I2C\000"
 12182      44455F49 
 12182      324300
 12183              	.LASF766:
 12184 0528 72657376 		.ascii	"resvd80C\000"
 12184      64383043 
 12184      00
 12185              	.LASF814:
 12186 0531 6576656E 		.ascii	"event_cb\000"
 12186      745F6362 
 12186      00
 12187              	.LASF121:
 12188 053a 444D4131 		.ascii	"DMA1_Stream6_IRQn\000"
 12188      5F537472 
 12188      65616D36 
 12188      5F495251 
 12188      6E00
 12189              	.LASF100:
 12190 054c 53564361 		.ascii	"SVCall_IRQn\000"
 12190      6C6C5F49 
 12190      52516E00 
 12191              	.LASF733:
 12192 0558 474F5447 		.ascii	"GOTGCTL\000"
 12192      43544C00 
 12193              	.LASF670:
 12194 0560 6570306E 		.ascii	"ep0next\000"
 12194      65787400 
 12195              	.LASF359:
 12196 0568 656C5F6C 		.ascii	"el_listener\000"
 12196      69737465 
 12196      6E657200 
 12197              	.LASF708:
 12198 0574 75736265 		.ascii	"usbepcallback_t\000"
 12198      7063616C 
 12198      6C626163 
 12198      6B5F7400 
 12199              	.LASF560:
 12200 0584 69326361 		.ascii	"i2caddr_t\000"
 12200      6464725F 
 12200      7400
 12201              	.LASF92:
ARM GAS  C:\Users\PCHAUT~1\AppData\Local\Temp\ccR4smAG.s 			page 220


 12202 058e 76746C69 		.ascii	"vtlist\000"
 12202      737400
 12203              	.LASF246:
 12204 0595 54524953 		.ascii	"TRISE\000"
 12204      4500
 12205              	.LASF772:
 12206 059b 72657376 		.ascii	"resvd824\000"
 12206      64383234 
 12206      00
 12207              	.LASF50:
 12208 05a4 705F7761 		.ascii	"p_waiting\000"
 12208      6974696E 
 12208      6700
 12209              	.LASF318:
 12210 05ae 6B65726E 		.ascii	"kernel_stats_t\000"
 12210      656C5F73 
 12210      74617473 
 12210      5F7400
 12211              	.LASF120:
 12212 05bd 444D4131 		.ascii	"DMA1_Stream5_IRQn\000"
 12212      5F537472 
 12212      65616D35 
 12212      5F495251 
 12212      6E00
 12213              	.LASF205:
 12214 05cf 43414E5F 		.ascii	"CAN_TxMailBox_TypeDef\000"
 12214      54784D61 
 12214      696C426F 
 12214      785F5479 
 12214      70654465 
 12215              	.LASF91:
 12216 05e5 726C6973 		.ascii	"rlist\000"
 12216      7400
 12217              	.LASF59:
 12218 05eb 74687265 		.ascii	"threads_list_t\000"
 12218      6164735F 
 12218      6C697374 
 12218      5F7400
 12219              	.LASF343:
 12220 05fa 63665F6F 		.ascii	"cf_off_ctx\000"
 12220      66665F63 
 12220      747800
 12221              	.LASF377:
 12222 0605 696E7075 		.ascii	"input_queue_t\000"
 12222      745F7175 
 12222      6575655F 
 12222      7400
 12223              	.LASF463:
 12224 0613 41444343 		.ascii	"ADCConversionGroup\000"
 12224      6F6E7665 
 12224      7273696F 
 12224      6E47726F 
 12224      757000
 12225              	.LASF765:
 12226 0626 44535453 		.ascii	"DSTS\000"
 12226      00
 12227              	.LASF566:
ARM GAS  C:\Users\PCHAUT~1\AppData\Local\Temp\ccR4smAG.s 			page 221


 12228 062b 5354445F 		.ascii	"STD_DUTY_CYCLE\000"
 12228      44555459 
 12228      5F435943 
 12228      4C4500
 12229              	.LASF472:
 12230 063a 43414E5F 		.ascii	"CAN_READY\000"
 12230      52454144 
 12230      5900
 12231              	.LASF345:
 12232 0644 63665F6F 		.ascii	"cf_off_older\000"
 12232      66665F6F 
 12232      6C646572 
 12232      00
 12233              	.LASF24:
 12234 0651 72747469 		.ascii	"rttime_t\000"
 12234      6D655F74 
 12234      00
 12235              	.LASF526:
 12236 065a 45585444 		.ascii	"EXTD1\000"
 12236      3100
 12237              	.LASF799:
 12238 0660 72787175 		.ascii	"rxqueued\000"
 12238      65756564 
 12238      00
 12239              	.LASF104:
 12240 0669 57574447 		.ascii	"WWDG_IRQn\000"
 12240      5F495251 
 12240      6E00
 12241              	.LASF225:
 12242 0673 7346696C 		.ascii	"sFilterRegister\000"
 12242      74657252 
 12242      65676973 
 12242      74657200 
 12243              	.LASF771:
 12244 0683 72657376 		.ascii	"resvd820\000"
 12244      64383230 
 12244      00
 12245              	.LASF303:
 12246 068c 74625F73 		.ascii	"tb_size\000"
 12246      697A6500 
 12247              	.LASF274:
 12248 0694 52455350 		.ascii	"RESP1\000"
 12248      3100
 12249              	.LASF275:
 12250 069a 52455350 		.ascii	"RESP2\000"
 12250      3200
 12251              	.LASF119:
 12252 06a0 444D4131 		.ascii	"DMA1_Stream4_IRQn\000"
 12252      5F537472 
 12252      65616D34 
 12252      5F495251 
 12252      6E00
 12253              	.LASF277:
 12254 06b2 52455350 		.ascii	"RESP4\000"
 12254      3400
 12255              	.LASF851:
 12256 06b8 6F73616C 		.ascii	"osalSysUnlockFromISR\000"
ARM GAS  C:\Users\PCHAUT~1\AppData\Local\Temp\ccR4smAG.s 			page 222


 12256      53797355 
 12256      6E6C6F63 
 12256      6B46726F 
 12256      6D495352 
 12257              	.LASF553:
 12258 06cd 4932435F 		.ascii	"I2C_UNINIT\000"
 12258      554E494E 
 12258      495400
 12259              	.LASF710:
 12260 06d8 75736272 		.ascii	"usbreqhandler_t\000"
 12260      65716861 
 12260      6E646C65 
 12260      725F7400 
 12261              	.LASF434:
 12262 06e8 4144435F 		.ascii	"ADC_COMPLETE\000"
 12262      434F4D50 
 12262      4C455445 
 12262      00
 12263              	.LASF150:
 12264 06f5 54494D38 		.ascii	"TIM8_CC_IRQn\000"
 12264      5F43435F 
 12264      4952516E 
 12264      00
 12265              	.LASF550:
 12266 0702 47505443 		.ascii	"GPTConfig\000"
 12266      6F6E6669 
 12266      6700
 12267              	.LASF615:
 12268 070c 53445F55 		.ascii	"SD_UNINIT\000"
 12268      4E494E49 
 12268      5400
 12269              	.LASF29:
 12270 0716 74707269 		.ascii	"tprio_t\000"
 12270      6F5F7400 
 12271              	.LASF314:
 12272 071e 6E5F6972 		.ascii	"n_irq\000"
 12272      7100
 12273              	.LASF594:
 12274 0724 69327370 		.ascii	"i2spr\000"
 12274      7200
 12275              	.LASF260:
 12276 072a 41504232 		.ascii	"APB2ENR\000"
 12276      454E5200 
 12277              	.LASF775:
 12278 0732 72657376 		.ascii	"resvd830\000"
 12278      64383330 
 12278      00
 12279              	.LASF555:
 12280 073b 4932435F 		.ascii	"I2C_READY\000"
 12280      52454144 
 12280      5900
 12281              	.LASF777:
 12282 0745 72657376 		.ascii	"resvd838\000"
 12282      64383338 
 12282      00
 12283              	.LASF569:
 12284 074e 69326364 		.ascii	"i2cdutycycle_t\000"
ARM GAS  C:\Users\PCHAUT~1\AppData\Local\Temp\ccR4smAG.s 			page 223


 12284      75747963 
 12284      79636C65 
 12284      5F7400
 12285              	.LASF778:
 12286 075d 72657376 		.ascii	"resvd83C\000"
 12286      64383343 
 12286      00
 12287              	.LASF842:
 12288 0766 72656743 		.ascii	"regCCR\000"
 12288      435200
 12289              	.LASF448:
 12290 076d 74687265 		.ascii	"thread\000"
 12290      616400
 12291              	.LASF493:
 12292 0774 72656773 		.ascii	"regshift\000"
 12292      68696674 
 12292      00
 12293              	.LASF673:
 12294 077d 73657475 		.ascii	"setup\000"
 12294      7000
 12295              	.LASF652:
 12296 0783 5350495F 		.ascii	"SPI_UNINIT\000"
 12296      554E494E 
 12296      495400
 12297              	.LASF726:
 12298 078e 44545846 		.ascii	"DTXFSTS\000"
 12298      53545300 
 12299              	.LASF397:
 12300 0796 626C6B5F 		.ascii	"blk_size\000"
 12300      73697A65 
 12300      00
 12301              	.LASF667:
 12302 079f 696E5F70 		.ascii	"in_params\000"
 12302      6172616D 
 12302      7300
 12303              	.LASF540:
 12304 07a9 43434552 		.ascii	"CCER\000"
 12304      00
 12305              	.LASF290:
 12306 07ae 49325350 		.ascii	"I2SPR\000"
 12306      5200
 12307              	.LASF597:
 12308 07b4 50574D5F 		.ascii	"PWM_UNINIT\000"
 12308      554E494E 
 12308      495400
 12309              	.LASF309:
 12310 07bf 62657374 		.ascii	"best\000"
 12310      00
 12311              	.LASF735:
 12312 07c4 47414842 		.ascii	"GAHBCFG\000"
 12312      43464700 
 12313              	.LASF503:
 12314 07cc 64616363 		.ascii	"daccallback_t\000"
 12314      616C6C62 
 12314      61636B5F 
 12314      7400
 12315              	.LASF779:
ARM GAS  C:\Users\PCHAUT~1\AppData\Local\Temp\ccR4smAG.s 			page 224


 12316 07da 72657376 		.ascii	"resvd840\000"
 12316      64383430 
 12316      00
 12317              	.LASF286:
 12318 07e3 43524350 		.ascii	"CRCPR\000"
 12318      5200
 12319              	.LASF392:
 12320 07e9 424C4B5F 		.ascii	"BLK_READY\000"
 12320      52454144 
 12320      5900
 12321              	.LASF7:
 12322 07f3 5F5F696E 		.ascii	"__int16_t\000"
 12322      7431365F 
 12322      7400
 12323              	.LASF9:
 12324 07fd 5F5F7569 		.ascii	"__uint16_t\000"
 12324      6E743136 
 12324      5F7400
 12325              	.LASF530:
 12326 0808 4750545F 		.ascii	"GPT_CONTINUOUS\000"
 12326      434F4E54 
 12326      494E554F 
 12326      555300
 12327              	.LASF793:
 12328 0817 74787175 		.ascii	"txqueued\000"
 12328      65756564 
 12328      00
 12329              	.LASF52:
 12330 0820 705F6D73 		.ascii	"p_msg\000"
 12330      6700
 12331              	.LASF732:
 12332 0826 73746D33 		.ascii	"stm32_otg_out_ep_t\000"
 12332      325F6F74 
 12332      675F6F75 
 12332      745F6570 
 12332      5F7400
 12333              	.LASF741:
 12334 0839 47525853 		.ascii	"GRXSTSP\000"
 12334      54535000 
 12335              	.LASF740:
 12336 0841 47525853 		.ascii	"GRXSTSR\000"
 12336      54535200 
 12337              	.LASF320:
 12338 0849 65786974 		.ascii	"exitcode\000"
 12338      636F6465 
 12338      00
 12339              	.LASF242:
 12340 0852 4D314152 		.ascii	"M1AR\000"
 12340      00
 12341              	.LASF680:
 12342 0857 77616974 		.ascii	"wait\000"
 12342      00
 12343              	.LASF243:
 12344 085c 444D415F 		.ascii	"DMA_Stream_TypeDef\000"
 12344      53747265 
 12344      616D5F54 
 12344      79706544 
ARM GAS  C:\Users\PCHAUT~1\AppData\Local\Temp\ccR4smAG.s 			page 225


 12344      656600
 12345              	.LASF687:
 12346 086f 5553425F 		.ascii	"USB_ACTIVE\000"
 12346      41435449 
 12346      564500
 12347              	.LASF728:
 12348 087a 73746D33 		.ascii	"stm32_otg_in_ep_t\000"
 12348      325F6F74 
 12348      675F696E 
 12348      5F65705F 
 12348      7400
 12349              	.LASF801:
 12350 088c 7278636E 		.ascii	"rxcnt\000"
 12350      7400
 12351              	.LASF430:
 12352 0892 4144435F 		.ascii	"ADC_UNINIT\000"
 12352      554E494E 
 12352      495400
 12353              	.LASF577:
 12354 089d 7278646D 		.ascii	"rxdmamode\000"
 12354      616D6F64 
 12354      6500
 12355              	.LASF522:
 12356 08a7 6D6F6465 		.ascii	"mode\000"
 12356      00
 12357              	.LASF333:
 12358 08ac 6D5F636E 		.ascii	"m_cnt\000"
 12358      7400
 12359              	.LASF567:
 12360 08b2 46415354 		.ascii	"FAST_DUTY_CYCLE_2\000"
 12360      5F445554 
 12360      595F4359 
 12360      434C455F 
 12360      3200
 12361              	.LASF519:
 12362 08c4 45585444 		.ascii	"EXTDriver\000"
 12362      72697665 
 12362      7200
 12363              	.LASF348:
 12364 08ce 63665F6F 		.ascii	"cf_off_state\000"
 12364      66665F73 
 12364      74617465 
 12364      00
 12365              	.LASF589:
 12366 08db 69327363 		.ascii	"i2scallback_t\000"
 12366      616C6C62 
 12366      61636B5F 
 12366      7400
 12367              	.LASF661:
 12368 08e9 73737061 		.ascii	"sspad\000"
 12368      6400
 12369              	.LASF578:
 12370 08ef 7478646D 		.ascii	"txdmamode\000"
 12370      616D6F64 
 12370      6500
 12371              	.LASF546:
 12372 08f9 67707466 		.ascii	"gptfreq_t\000"
ARM GAS  C:\Users\PCHAUT~1\AppData\Local\Temp\ccR4smAG.s 			page 226


 12372      7265715F 
 12372      7400
 12373              	.LASF868:
 12374 0903 474E5520 		.ascii	"GNU C11 7.2.1 20170904 (release) [ARM/embedded-7-br"
 12374      43313120 
 12374      372E322E 
 12374      31203230 
 12374      31373039 
 12375 0936 616E6368 		.ascii	"anch revision 255204] -mcpu=cortex-m4 -mfloat-abi=h"
 12375      20726576 
 12375      6973696F 
 12375      6E203235 
 12375      35323034 
 12376 0969 61726420 		.ascii	"ard -mfpu=fpv4-sp-d16 -mno-thumb-interwork -mthumb "
 12376      2D6D6670 
 12376      753D6670 
 12376      76342D73 
 12376      702D6431 
 12377 099c 2D676764 		.ascii	"-ggdb -O0 -fomit-frame-pointer -falign-functions=16"
 12377      62202D4F 
 12377      30202D66 
 12377      6F6D6974 
 12377      2D667261 
 12378 09cf 202D666E 		.ascii	" -fno-strict-aliasing -fstack-protector-all -ffunct"
 12378      6F2D7374 
 12378      72696374 
 12378      2D616C69 
 12378      6173696E 
 12379 0a02 696F6E2D 		.ascii	"ion-sections -fdata-sections -fno-common -fsingle-p"
 12379      73656374 
 12379      696F6E73 
 12379      202D6664 
 12379      6174612D 
 12380 0a35 72656369 		.ascii	"recision-constant\000"
 12380      73696F6E 
 12380      2D636F6E 
 12380      7374616E 
 12380      7400
 12381              	.LASF786:
 12382 0a47 72785F66 		.ascii	"rx_fifo_size\000"
 12382      69666F5F 
 12382      73697A65 
 12382      00
 12383              	.LASF295:
 12384 0a54 73746B61 		.ascii	"stkalign_t\000"
 12384      6C69676E 
 12384      5F7400
 12385              	.LASF112:
 12386 0a5f 45585449 		.ascii	"EXTI2_IRQn\000"
 12386      325F4952 
 12386      516E00
 12387              	.LASF501:
 12388 0a6a 4441435F 		.ascii	"DAC_ERR_UNDERFLOW\000"
 12388      4552525F 
 12388      554E4445 
 12388      52464C4F 
 12388      5700
ARM GAS  C:\Users\PCHAUT~1\AppData\Local\Temp\ccR4smAG.s 			page 227


 12389              	.LASF482:
 12390 0a7c 77616B65 		.ascii	"wakeup_event\000"
 12390      75705F65 
 12390      76656E74 
 12390      00
 12391              	.LASF76:
 12392 0a89 76745F70 		.ascii	"vt_prev\000"
 12392      72657600 
 12393              	.LASF822:
 12394 0a91 72786279 		.ascii	"rxbytes\000"
 12394      74657300 
 12395              	.LASF456:
 12396 0a99 656E645F 		.ascii	"end_cb\000"
 12396      636200
 12397              	.LASF804:
 12398 0aa0 73657475 		.ascii	"setup_cb\000"
 12398      705F6362 
 12398      00
 12399              	.LASF6:
 12400 0aa9 756E7369 		.ascii	"unsigned char\000"
 12400      676E6564 
 12400      20636861 
 12400      7200
 12401              	.LASF284:
 12402 0ab7 4649464F 		.ascii	"FIFO\000"
 12402      00
 12403              	.LASF305:
 12404 0abc 74625F62 		.ascii	"tb_buffer\000"
 12404      75666665 
 12404      7200
 12405              	.LASF476:
 12406 0ac6 74787175 		.ascii	"txqueue\000"
 12406      65756500 
 12407              	.LASF328:
 12408 0ace 735F636E 		.ascii	"s_cnt\000"
 12408      7400
 12409              	.LASF64:
 12410 0ad4 72656164 		.ascii	"ready_list_t\000"
 12410      795F6C69 
 12410      73745F74 
 12410      00
 12411              	.LASF60:
 12412 0ae1 63685F74 		.ascii	"ch_thread\000"
 12412      68726561 
 12412      6400
 12413              	.LASF564:
 12414 0aeb 4F504D4F 		.ascii	"OPMODE_SMBUS_HOST\000"
 12414      44455F53 
 12414      4D425553 
 12414      5F484F53 
 12414      5400
 12415              	.LASF179:
 12416 0afd 4F54475F 		.ascii	"OTG_HS_EP1_IN_IRQn\000"
 12416      48535F45 
 12416      50315F49 
 12416      4E5F4952 
 12416      516E00
ARM GAS  C:\Users\PCHAUT~1\AppData\Local\Temp\ccR4smAG.s 			page 228


 12417              	.LASF682:
 12418 0b10 75736265 		.ascii	"usbep_t\000"
 12418      705F7400 
 12419              	.LASF263:
 12420 0b18 41484233 		.ascii	"AHB3LPENR\000"
 12420      4C50454E 
 12420      5200
 12421              	.LASF111:
 12422 0b22 45585449 		.ascii	"EXTI1_IRQn\000"
 12422      315F4952 
 12422      516E00
 12423              	.LASF515:
 12424 0b2d 4558545F 		.ascii	"EXT_UNINIT\000"
 12424      554E494E 
 12424      495400
 12425              	.LASF473:
 12426 0b38 43414E5F 		.ascii	"CAN_SLEEP\000"
 12426      534C4545 
 12426      5000
 12427              	.LASF301:
 12428 0b42 73655F73 		.ascii	"se_state\000"
 12428      74617465 
 12428      00
 12429              	.LASF469:
 12430 0b4b 43414E5F 		.ascii	"CAN_UNINIT\000"
 12430      554E494E 
 12430      495400
 12431              	.LASF651:
 12432 0b56 53444344 		.ascii	"SDCD1\000"
 12432      3100
 12433              	.LASF83:
 12434 0b5c 73797374 		.ascii	"system_debug_t\000"
 12434      656D5F64 
 12434      65627567 
 12434      5F7400
 12435              	.LASF230:
 12436 0b6b 44485238 		.ascii	"DHR8R1\000"
 12436      523100
 12437              	.LASF233:
 12438 0b72 44485238 		.ascii	"DHR8R2\000"
 12438      523200
 12439              	.LASF537:
 12440 0b79 44494552 		.ascii	"DIER\000"
 12440      00
 12441              	.LASF262:
 12442 0b7e 41484232 		.ascii	"AHB2LPENR\000"
 12442      4C50454E 
 12442      5200
 12443              	.LASF40:
 12444 0b88 705F6374 		.ascii	"p_ctx\000"
 12444      7800
 12445              	.LASF79:
 12446 0b8e 76745F70 		.ascii	"vt_par\000"
 12446      617200
 12447              	.LASF189:
 12448 0b95 4A4F4652 		.ascii	"JOFR1\000"
 12448      3100
ARM GAS  C:\Users\PCHAUT~1\AppData\Local\Temp\ccR4smAG.s 			page 229


 12449              	.LASF190:
 12450 0b9b 4A4F4652 		.ascii	"JOFR2\000"
 12450      3200
 12451              	.LASF191:
 12452 0ba1 4A4F4652 		.ascii	"JOFR3\000"
 12452      3300
 12453              	.LASF110:
 12454 0ba7 45585449 		.ascii	"EXTI0_IRQn\000"
 12454      305F4952 
 12454      516E00
 12455              	.LASF71:
 12456 0bb2 725F6375 		.ascii	"r_current\000"
 12456      7272656E 
 12456      7400
 12457              	.LASF288:
 12458 0bbc 54584352 		.ascii	"TXCRCR\000"
 12458      435200
 12459              	.LASF508:
 12460 0bc3 64616364 		.ascii	"dacdhrmode_t\000"
 12460      68726D6F 
 12460      64655F74 
 12460      00
 12461              	.LASF450:
 12462 0bd0 646D6173 		.ascii	"dmastp\000"
 12462      747000
 12463              	.LASF823:
 12464 0bd7 74696D65 		.ascii	"timeout\000"
 12464      6F757400 
 12465              	.LASF106:
 12466 0bdf 54414D50 		.ascii	"TAMP_STAMP_IRQn\000"
 12466      5F535441 
 12466      4D505F49 
 12466      52516E00 
 12467              	.LASF568:
 12468 0bef 46415354 		.ascii	"FAST_DUTY_CYCLE_16_9\000"
 12468      5F445554 
 12468      595F4359 
 12468      434C455F 
 12468      31365F39 
 12469              	.LASF22:
 12470 0c04 75696E74 		.ascii	"uint64_t\000"
 12470      36345F74 
 12470      00
 12471              	.LASF315:
 12472 0c0d 6E5F6374 		.ascii	"n_ctxswc\000"
 12472      78737763 
 12472      00
 12473              	.LASF354:
 12474 0c16 63685F64 		.ascii	"ch_debug\000"
 12474      65627567 
 12474      00
 12475              	.LASF511:
 12476 0c1f 696E6974 		.ascii	"init\000"
 12476      00
 12477              	.LASF217:
 12478 0c24 464D3152 		.ascii	"FM1R\000"
 12478      00
ARM GAS  C:\Users\PCHAUT~1\AppData\Local\Temp\ccR4smAG.s 			page 230


 12479              	.LASF427:
 12480 0c29 50414C43 		.ascii	"PALConfig\000"
 12480      6F6E6669 
 12480      6700
 12481              	.LASF795:
 12482 0c33 7478636E 		.ascii	"txcnt\000"
 12482      7400
 12483              	.LASF709:
 12484 0c39 75736265 		.ascii	"usbeventcb_t\000"
 12484      76656E74 
 12484      63625F74 
 12484      00
 12485              	.LASF389:
 12486 0c46 424C4B5F 		.ascii	"BLK_ACTIVE\000"
 12486      41435449 
 12486      564500
 12487              	.LASF356:
 12488 0c51 6576656E 		.ascii	"event_listener_t\000"
 12488      745F6C69 
 12488      7374656E 
 12488      65725F74 
 12488      00
 12489              	.LASF787:
 12490 0c62 6F74675F 		.ascii	"otg_ram_size\000"
 12490      72616D5F 
 12490      73697A65 
 12490      00
 12491              	.LASF789:
 12492 0c6f 73746D33 		.ascii	"stm32_otg_params_t\000"
 12492      325F6F74 
 12492      675F7061 
 12492      72616D73 
 12492      5F7400
 12493              	.LASF782:
 12494 0c82 72657376 		.ascii	"resvdD00\000"
 12494      64443030 
 12494      00
 12495              	.LASF287:
 12496 0c8b 52584352 		.ascii	"RXCRCR\000"
 12496      435200
 12497              	.LASF798:
 12498 0c92 72786275 		.ascii	"rxbuf\000"
 12498      6600
 12499              	.LASF738:
 12500 0c98 47494E54 		.ascii	"GINTSTS\000"
 12500      53545300 
 12501              	.LASF329:
 12502 0ca0 63685F6D 		.ascii	"ch_mutex\000"
 12502      75746578 
 12502      00
 12503              	.LASF479:
 12504 0ca9 7478656D 		.ascii	"txempty_event\000"
 12504      7074795F 
 12504      6576656E 
 12504      7400
 12505              	.LASF252:
 12506 0cb7 41484232 		.ascii	"AHB2RSTR\000"
ARM GAS  C:\Users\PCHAUT~1\AppData\Local\Temp\ccR4smAG.s 			page 231


 12506      52535452 
 12506      00
 12507              	.LASF601:
 12508 0cc0 50574D44 		.ascii	"PWMDriver\000"
 12508      72697665 
 12508      7200
 12509              	.LASF424:
 12510 0cca 50474461 		.ascii	"PGData\000"
 12510      746100
 12511              	.LASF610:
 12512 0cd1 50574D43 		.ascii	"PWMConfig\000"
 12512      6F6E6669 
 12512      6700
 12513              	.LASF140:
 12514 0cdb 53504932 		.ascii	"SPI2_IRQn\000"
 12514      5F495251 
 12514      6E00
 12515              	.LASF872:
 12516 0ce5 76616C75 		.ascii	"value\000"
 12516      6500
 12517              	.LASF826:
 12518 0ceb 6932635F 		.ascii	"i2c_lld_master_receive_timeout\000"
 12518      6C6C645F 
 12518      6D617374 
 12518      65725F72 
 12518      65636569 
 12519              	.LASF344:
 12520 0d0a 63665F6F 		.ascii	"cf_off_newer\000"
 12520      66665F6E 
 12520      65776572 
 12520      00
 12521              	.LASF767:
 12522 0d17 44494550 		.ascii	"DIEPMSK\000"
 12522      4D534B00 
 12523              	.LASF734:
 12524 0d1f 474F5447 		.ascii	"GOTGINT\000"
 12524      494E5400 
 12525              	.LASF806:
 12526 0d27 6F75745F 		.ascii	"out_cb\000"
 12526      636200
 12527              	.LASF758:
 12528 0d2e 4841494E 		.ascii	"HAINTMSK\000"
 12528      544D534B 
 12528      00
 12529              	.LASF668:
 12530 0d37 6F75745F 		.ascii	"out_params\000"
 12530      70617261 
 12530      6D7300
 12531              	.LASF300:
 12532 0d42 73655F77 		.ascii	"se_wtobjp\000"
 12532      746F626A 
 12532      7000
 12533              	.LASF196:
 12534 0d4c 4A535152 		.ascii	"JSQR\000"
 12534      00
 12535              	.LASF549:
 12536 0d51 64696572 		.ascii	"dier\000"
ARM GAS  C:\Users\PCHAUT~1\AppData\Local\Temp\ccR4smAG.s 			page 232


 12536      00
 12537              	.LASF646:
 12538 0d56 69735F70 		.ascii	"is_protected\000"
 12538      726F7465 
 12538      63746564 
 12538      00
 12539              	.LASF139:
 12540 0d63 53504931 		.ascii	"SPI1_IRQn\000"
 12540      5F495251 
 12540      6E00
 12541              	.LASF73:
 12542 0d6d 76697274 		.ascii	"virtual_timer_t\000"
 12542      75616C5F 
 12542      74696D65 
 12542      725F7400 
 12543              	.LASF808:
 12544 0d7d 6F75745F 		.ascii	"out_maxsize\000"
 12544      6D617873 
 12544      697A6500 
 12545              	.LASF68:
 12546 0d89 725F6374 		.ascii	"r_ctx\000"
 12546      7800
 12547              	.LASF75:
 12548 0d8f 76745F6E 		.ascii	"vt_next\000"
 12548      65787400 
 12549              	.LASF583:
 12550 0d97 4932535F 		.ascii	"I2S_STOP\000"
 12550      53544F50 
 12550      00
 12551              	.LASF598:
 12552 0da0 50574D5F 		.ascii	"PWM_STOP\000"
 12552      53544F50 
 12552      00
 12553              	.LASF23:
 12554 0da9 7274636E 		.ascii	"rtcnt_t\000"
 12554      745F7400 
 12555              	.LASF449:
 12556 0db1 6D757465 		.ascii	"mutex\000"
 12556      7800
 12557              	.LASF592:
 12558 0db7 73697A65 		.ascii	"size\000"
 12558      00
 12559              	.LASF497:
 12560 0dbc 44414344 		.ascii	"DACDriver\000"
 12560      72697665 
 12560      7200
 12561              	.LASF513:
 12562 0dc6 44414343 		.ascii	"DACConfig\000"
 12562      6F6E6669 
 12562      6700
 12563              	.LASF679:
 12564 0dd0 74787065 		.ascii	"txpending\000"
 12564      6E64696E 
 12564      6700
 12565              	.LASF534:
 12566 0dda 636C6F63 		.ascii	"clock\000"
 12566      6B00
ARM GAS  C:\Users\PCHAUT~1\AppData\Local\Temp\ccR4smAG.s 			page 233


 12567              	.LASF401:
 12568 0de0 636C6561 		.ascii	"clear\000"
 12568      7200
 12569              	.LASF544:
 12570 0de6 43435852 		.ascii	"CCXR\000"
 12570      00
 12571              	.LASF226:
 12572 0deb 43414E5F 		.ascii	"CAN_TypeDef\000"
 12572      54797065 
 12572      44656600 
 12573              	.LASF302:
 12574 0df7 63685F73 		.ascii	"ch_swc_event_t\000"
 12574      77635F65 
 12574      76656E74 
 12574      5F7400
 12575              	.LASF616:
 12576 0e06 53445F53 		.ascii	"SD_STOP\000"
 12576      544F5000 
 12577              	.LASF713:
 12578 0e0e 72657376 		.ascii	"resvd8\000"
 12578      643800
 12579              	.LASF4:
 12580 0e15 73697A65 		.ascii	"size_t\000"
 12580      5F7400
 12581              	.LASF94:
 12582 0e1c 6B65726E 		.ascii	"kernel_stats\000"
 12582      656C5F73 
 12582      74617473 
 12582      00
 12583              	.LASF780:
 12584 0e29 72657376 		.ascii	"resvd880\000"
 12584      64383830 
 12584      00
 12585              	.LASF17:
 12586 0e32 75696E74 		.ascii	"uint8_t\000"
 12586      385F7400 
 12587              	.LASF717:
 12588 0e3a 72657376 		.ascii	"resvd14\000"
 12588      64313400 
 12589              	.LASF718:
 12590 0e42 72657376 		.ascii	"resvd18\000"
 12590      64313800 
 12591              	.LASF70:
 12592 0e4a 725F6F6C 		.ascii	"r_older\000"
 12592      64657200 
 12593              	.LASF259:
 12594 0e52 41504231 		.ascii	"APB1ENR\000"
 12594      454E5200 
 12595              	.LASF38:
 12596 0e5a 705F7072 		.ascii	"p_prev\000"
 12596      657600
 12597              	.LASF346:
 12598 0e61 63665F6F 		.ascii	"cf_off_name\000"
 12598      66665F6E 
 12598      616D6500 
 12599              	.LASF609:
 12600 0e6d 50574D43 		.ascii	"PWMChannelConfig\000"
ARM GAS  C:\Users\PCHAUT~1\AppData\Local\Temp\ccR4smAG.s 			page 234


 12600      68616E6E 
 12600      656C436F 
 12600      6E666967 
 12600      00
 12601              	.LASF608:
 12602 0e7e 70776D63 		.ascii	"pwmcnt_t\000"
 12602      6E745F74 
 12602      00
 12603              	.LASF125:
 12604 0e87 43414E31 		.ascii	"CAN1_RX1_IRQn\000"
 12604      5F525831 
 12604      5F495251 
 12604      6E00
 12605              	.LASF474:
 12606 0e95 63616E73 		.ascii	"canstate_t\000"
 12606      74617465 
 12606      5F7400
 12607              	.LASF776:
 12608 0ea0 44494550 		.ascii	"DIEPEMPMSK\000"
 12608      454D504D 
 12608      534B00
 12609              	.LASF721:
 12610 0eab 44494550 		.ascii	"DIEPCTL\000"
 12610      43544C00 
 12611              	.LASF362:
 12612 0eb3 656C5F77 		.ascii	"el_wflags\000"
 12612      666C6167 
 12612      7300
 12613              	.LASF677:
 12614 0ebd 6F746770 		.ascii	"otgparams\000"
 12614      6172616D 
 12614      7300
 12615              	.LASF127:
 12616 0ec7 45585449 		.ascii	"EXTI9_5_IRQn\000"
 12616      395F355F 
 12616      4952516E 
 12616      00
 12617              	.LASF421:
 12618 0ed4 50444461 		.ascii	"PDData\000"
 12618      746100
 12619              	.LASF641:
 12620 0edb 73637261 		.ascii	"scratchpad\000"
 12620      74636870 
 12620      616400
 12621              	.LASF810:
 12622 0ee6 6F75745F 		.ascii	"out_state\000"
 12622      73746174 
 12622      6500
 12623              	.LASF366:
 12624 0ef0 696F5F71 		.ascii	"io_queue_t\000"
 12624      75657565 
 12624      5F7400
 12625              	.LASF159:
 12626 0efb 54494D37 		.ascii	"TIM7_IRQn\000"
 12626      5F495251 
 12626      6E00
 12627              	.LASF657:
ARM GAS  C:\Users\PCHAUT~1\AppData\Local\Temp\ccR4smAG.s 			page 235


 12628 0f05 73706973 		.ascii	"spistate_t\000"
 12628      74617465 
 12628      5F7400
 12629              	.LASF107:
 12630 0f10 5254435F 		.ascii	"RTC_WKUP_IRQn\000"
 12630      574B5550 
 12630      5F495251 
 12630      6E00
 12631              	.LASF857:
 12632 0f1e 63685654 		.ascii	"chVTIsTimeWithinX\000"
 12632      49735469 
 12632      6D655769 
 12632      7468696E 
 12632      5800
 12633              	.LASF124:
 12634 0f30 43414E31 		.ascii	"CAN1_RX0_IRQn\000"
 12634      5F525830 
 12634      5F495251 
 12634      6E00
 12635              	.LASF576:
 12636 0f3e 61646472 		.ascii	"addr\000"
 12636      00
 12637              	.LASF820:
 12638 0f43 69326370 		.ascii	"i2cp\000"
 12638      00
 12639              	.LASF211:
 12640 0f48 52463052 		.ascii	"RF0R\000"
 12640      00
 12641              	.LASF827:
 12642 0f4d 6932635F 		.ascii	"i2c_lld_stop\000"
 12642      6C6C645F 
 12642      73746F70 
 12642      00
 12643              	.LASF439:
 12644 0f5a 4144435F 		.ascii	"ADC_ERR_DMAFAILURE\000"
 12644      4552525F 
 12644      444D4146 
 12644      41494C55 
 12644      524500
 12645              	.LASF655:
 12646 0f6d 5350495F 		.ascii	"SPI_ACTIVE\000"
 12646      41435449 
 12646      564500
 12647              	.LASF523:
 12648 0f78 45585443 		.ascii	"EXTChannelConfig\000"
 12648      68616E6E 
 12648      656C436F 
 12648      6E666967 
 12648      00
 12649              	.LASF404:
 12650 0f89 4F535045 		.ascii	"OSPEEDR\000"
 12650      45445200 
 12651              	.LASF487:
 12652 0f91 4441435F 		.ascii	"DAC_READY\000"
 12652      52454144 
 12652      5900
 12653              	.LASF745:
ARM GAS  C:\Users\PCHAUT~1\AppData\Local\Temp\ccR4smAG.s 			page 236


 12654 0f9b 72657376 		.ascii	"resvd30\000"
 12654      64333000 
 12655              	.LASF746:
 12656 0fa3 72657376 		.ascii	"resvd34\000"
 12656      64333400 
 12657              	.LASF774:
 12658 0fab 44564255 		.ascii	"DVBUSPULSE\000"
 12658      5350554C 
 12658      534500
 12659              	.LASF388:
 12660 0fb6 424C4B5F 		.ascii	"BLK_STOP\000"
 12660      53544F50 
 12660      00
 12661              	.LASF624:
 12662 0fbf 53657269 		.ascii	"SerialDriverVMT\000"
 12662      616C4472 
 12662      69766572 
 12662      564D5400 
 12663              	.LASF695:
 12664 0fcf 5553425F 		.ascii	"USB_EP0_ERROR\000"
 12664      4550305F 
 12664      4552524F 
 12664      5200
 12665              	.LASF108:
 12666 0fdd 464C4153 		.ascii	"FLASH_IRQn\000"
 12666      485F4952 
 12666      516E00
 12667              	.LASF831:
 12668 0fe8 56656374 		.ascii	"VectorBC\000"
 12668      6F724243 
 12668      00
 12669              	.LASF647:
 12670 0ff1 636F6E6E 		.ascii	"connect\000"
 12670      65637400 
 12671              	.LASF212:
 12672 0ff9 52463152 		.ascii	"RF1R\000"
 12672      00
 12673              	.LASF442:
 12674 0ffe 41444344 		.ascii	"ADCDriver\000"
 12674      72697665 
 12674      7200
 12675              	.LASF788:
 12676 1008 6E756D5F 		.ascii	"num_endpoints\000"
 12676      656E6470 
 12676      6F696E74 
 12676      7300
 12677              	.LASF465:
 12678 1016 41444343 		.ascii	"ADCConfig\000"
 12678      6F6E6669 
 12678      6700
 12679              	.LASF796:
 12680 1020 746F7473 		.ascii	"totsize\000"
 12680      697A6500 
 12681              	.LASF154:
 12682 1028 54494D35 		.ascii	"TIM5_IRQn\000"
 12682      5F495251 
 12682      6E00
ARM GAS  C:\Users\PCHAUT~1\AppData\Local\Temp\ccR4smAG.s 			page 237


 12683              	.LASF617:
 12684 1032 53445F52 		.ascii	"SD_READY\000"
 12684      45414459 
 12684      00
 12685              	.LASF711:
 12686 103b 75736267 		.ascii	"usbgetdescriptor_t\000"
 12686      65746465 
 12686      73637269 
 12686      70746F72 
 12686      5F7400
 12687              	.LASF490:
 12688 104e 4441435F 		.ascii	"DAC_ERROR\000"
 12688      4552524F 
 12688      5200
 12689              	.LASF829:
 12690 1058 56656374 		.ascii	"VectorC0\000"
 12690      6F724330 
 12690      00
 12691              	.LASF838:
 12692 1061 6932635F 		.ascii	"i2c_lld_set_opmode\000"
 12692      6C6C645F 
 12692      7365745F 
 12692      6F706D6F 
 12692      646500
 12693              	.LASF690:
 12694 1074 5553425F 		.ascii	"USB_EP0_TX\000"
 12694      4550305F 
 12694      545800
 12695              	.LASF669:
 12696 107f 65703073 		.ascii	"ep0state\000"
 12696      74617465 
 12696      00
 12697              	.LASF380:
 12698 1088 69666372 		.ascii	"ifcr\000"
 12698      00
 12699              	.LASF582:
 12700 108d 4932535F 		.ascii	"I2S_UNINIT\000"
 12700      554E494E 
 12700      495400
 12701              	.LASF410:
 12702 1098 73746D33 		.ascii	"stm32_gpio_t\000"
 12702      325F6770 
 12702      696F5F74 
 12702      00
 12703              	.LASF319:
 12704 10a5 7264796D 		.ascii	"rdymsg\000"
 12704      736700
 12705              	.LASF599:
 12706 10ac 50574D5F 		.ascii	"PWM_READY\000"
 12706      52454144 
 12706      5900
 12707              	.LASF202:
 12708 10b6 54445452 		.ascii	"TDTR\000"
 12708      00
 12709              	.LASF210:
 12710 10bb 43414E5F 		.ascii	"CAN_FilterRegister_TypeDef\000"
 12710      46696C74 
ARM GAS  C:\Users\PCHAUT~1\AppData\Local\Temp\ccR4smAG.s 			page 238


 12710      65725265 
 12710      67697374 
 12710      65725F54 
 12711              	.LASF480:
 12712 10d6 6572726F 		.ascii	"error_event\000"
 12712      725F6576 
 12712      656E7400 
 12713              	.LASF455:
 12714 10e2 6E756D5F 		.ascii	"num_channels\000"
 12714      6368616E 
 12714      6E656C73 
 12714      00
 12715              	.LASF748:
 12716 10ef 72657376 		.ascii	"resvd58\000"
 12716      64353800 
 12717              	.LASF192:
 12718 10f7 4A4F4652 		.ascii	"JOFR4\000"
 12718      3400
 12719              	.LASF797:
 12720 10fd 55534249 		.ascii	"USBInEndpointState\000"
 12720      6E456E64 
 12720      706F696E 
 12720      74537461 
 12720      746500
 12721              	.LASF39:
 12722 1110 705F7072 		.ascii	"p_prio\000"
 12722      696F00
 12723              	.LASF367:
 12724 1117 696F5F71 		.ascii	"io_queue\000"
 12724      75657565 
 12724      00
 12725              	.LASF418:
 12726 1120 50414461 		.ascii	"PAData\000"
 12726      746100
 12727              	.LASF15:
 12728 1127 5F5F7569 		.ascii	"__uint64_t\000"
 12728      6E743634 
 12728      5F7400
 12729              	.LASF174:
 12730 1132 444D4132 		.ascii	"DMA2_Stream7_IRQn\000"
 12730      5F537472 
 12730      65616D37 
 12730      5F495251 
 12730      6E00
 12731              	.LASF840:
 12732 1144 72656743 		.ascii	"regCR1\000"
 12732      523100
 12733              	.LASF181:
 12734 114b 4F54475F 		.ascii	"OTG_HS_IRQn\000"
 12734      48535F49 
 12734      52516E00 
 12735              	.LASF604:
 12736 1157 70776D63 		.ascii	"pwmcallback_t\000"
 12736      616C6C62 
 12736      61636B5F 
 12736      7400
 12737              	.LASF498:
ARM GAS  C:\Users\PCHAUT~1\AppData\Local\Temp\ccR4smAG.s 			page 239


 12738 1165 70617261 		.ascii	"params\000"
 12738      6D7300
 12739              	.LASF694:
 12740 116c 5553425F 		.ascii	"USB_EP0_SENDING_STS\000"
 12740      4550305F 
 12740      53454E44 
 12740      494E475F 
 12740      53545300 
 12741              	.LASF559:
 12742 1180 69326373 		.ascii	"i2cstate_t\000"
 12742      74617465 
 12742      5F7400
 12743              	.LASF173:
 12744 118b 444D4132 		.ascii	"DMA2_Stream6_IRQn\000"
 12744      5F537472 
 12744      65616D36 
 12744      5F495251 
 12744      6E00
 12745              	.LASF696:
 12746 119d 75736265 		.ascii	"usbep0state_t\000"
 12746      70307374 
 12746      6174655F 
 12746      7400
 12747              	.LASF502:
 12748 11ab 64616365 		.ascii	"dacerror_t\000"
 12748      72726F72 
 12748      5F7400
 12749              	.LASF214:
 12750 11b6 7354784D 		.ascii	"sTxMailBox\000"
 12750      61696C42 
 12750      6F7800
 12751              	.LASF437:
 12752 11c1 61646373 		.ascii	"adcsample_t\000"
 12752      616D706C 
 12752      655F7400 
 12753              	.LASF535:
 12754 11cd 67707463 		.ascii	"gptcallback_t\000"
 12754      616C6C62 
 12754      61636B5F 
 12754      7400
 12755              	.LASF370:
 12756 11db 715F6275 		.ascii	"q_buffer\000"
 12756      66666572 
 12756      00
 12757              	.LASF255:
 12758 11e4 41504232 		.ascii	"APB2RSTR\000"
 12758      52535452 
 12758      00
 12759              	.LASF37:
 12760 11ed 705F6E65 		.ascii	"p_next\000"
 12760      787400
 12761              	.LASF581:
 12762 11f4 49324344 		.ascii	"I2CD1\000"
 12762      3100
 12763              	.LASF722:
 12764 11fa 72657376 		.ascii	"resvd4\000"
 12764      643400
ARM GAS  C:\Users\PCHAUT~1\AppData\Local\Temp\ccR4smAG.s 			page 240


 12765              	.LASF554:
 12766 1201 4932435F 		.ascii	"I2C_STOP\000"
 12766      53544F50 
 12766      00
 12767              	.LASF781:
 12768 120a 72657376 		.ascii	"resvd8C0\000"
 12768      64384330 
 12768      00
 12769              	.LASF818:
 12770 1213 55534243 		.ascii	"USBConfig\000"
 12770      6F6E6669 
 12770      6700
 12771              	.LASF724:
 12772 121d 72657376 		.ascii	"resvdC\000"
 12772      644300
 12773              	.LASF611:
 12774 1224 50574D44 		.ascii	"PWMD2\000"
 12774      3200
 12775              	.LASF612:
 12776 122a 50574D44 		.ascii	"PWMD3\000"
 12776      3300
 12777              	.LASF123:
 12778 1230 43414E31 		.ascii	"CAN1_TX_IRQn\000"
 12778      5F54585F 
 12778      4952516E 
 12778      00
 12779              	.LASF614:
 12780 123d 50574D44 		.ascii	"PWMD5\000"
 12780      3500
 12781              	.LASF824:
 12782 1243 73746172 		.ascii	"start\000"
 12782      7400
 12783              	.LASF167:
 12784 1249 43414E32 		.ascii	"CAN2_TX_IRQn\000"
 12784      5F54585F 
 12784      4952516E 
 12784      00
 12785              	.LASF755:
 12786 1256 72657376 		.ascii	"resvd40C\000"
 12786      64343043 
 12786      00
 12787              	.LASF172:
 12788 125f 444D4132 		.ascii	"DMA2_Stream5_IRQn\000"
 12788      5F537472 
 12788      65616D35 
 12788      5F495251 
 12788      6E00
 12789              	.LASF622:
 12790 1271 6F717565 		.ascii	"oqueue\000"
 12790      756500
 12791              	.LASF27:
 12792 1278 74726566 		.ascii	"trefs_t\000"
 12792      735F7400 
 12793              	.LASF56:
 12794 1280 705F6D70 		.ascii	"p_mpool\000"
 12794      6F6F6C00 
 12795              	.LASF510:
ARM GAS  C:\Users\PCHAUT~1\AppData\Local\Temp\ccR4smAG.s 			page 241


 12796 1288 44414343 		.ascii	"DACConversionGroup\000"
 12796      6F6E7665 
 12796      7273696F 
 12796      6E47726F 
 12796      757000
 12797              	.LASF811:
 12798 129b 696E5F6D 		.ascii	"in_multiplier\000"
 12798      756C7469 
 12798      706C6965 
 12798      7200
 12799              	.LASF435:
 12800 12a9 4144435F 		.ascii	"ADC_ERROR\000"
 12800      4552524F 
 12800      5200
 12801              	.LASF99:
 12802 12b3 55736167 		.ascii	"UsageFault_IRQn\000"
 12802      65466175 
 12802      6C745F49 
 12802      52516E00 
 12803              	.LASF25:
 12804 12c3 746D6F64 		.ascii	"tmode_t\000"
 12804      655F7400 
 12805              	.LASF258:
 12806 12cb 41484233 		.ascii	"AHB3ENR\000"
 12806      454E5200 
 12807              	.LASF433:
 12808 12d3 4144435F 		.ascii	"ADC_ACTIVE\000"
 12808      41435449 
 12808      564500
 12809              	.LASF193:
 12810 12de 53515231 		.ascii	"SQR1\000"
 12810      00
 12811              	.LASF194:
 12812 12e3 53515232 		.ascii	"SQR2\000"
 12812      00
 12813              	.LASF195:
 12814 12e8 53515233 		.ascii	"SQR3\000"
 12814      00
 12815              	.LASF406:
 12816 12ed 42535252 		.ascii	"BSRR\000"
 12816      00
 12817              	.LASF384:
 12818 12f2 73746D33 		.ascii	"stm32_dma_stream_t\000"
 12818      325F646D 
 12818      615F7374 
 12818      7265616D 
 12818      5F7400
 12819              	.LASF816:
 12820 1305 72657175 		.ascii	"requests_hook_cb\000"
 12820      65737473 
 12820      5F686F6F 
 12820      6B5F6362 
 12820      00
 12821              	.LASF633:
 12822 1316 5344435F 		.ascii	"SDC_MODE_8BIT\000"
 12822      4D4F4445 
 12822      5F384249 
ARM GAS  C:\Users\PCHAUT~1\AppData\Local\Temp\ccR4smAG.s 			page 242


 12822      5400
 12823              	.LASF794:
 12824 1324 74787369 		.ascii	"txsize\000"
 12824      7A6500
 12825              	.LASF115:
 12826 132b 444D4131 		.ascii	"DMA1_Stream0_IRQn\000"
 12826      5F537472 
 12826      65616D30 
 12826      5F495251 
 12826      6E00
 12827              	.LASF146:
 12828 133d 4F54475F 		.ascii	"OTG_FS_WKUP_IRQn\000"
 12828      46535F57 
 12828      4B55505F 
 12828      4952516E 
 12828      00
 12829              	.LASF506:
 12830 134e 4441435F 		.ascii	"DAC_DHRM_12BIT_LEFT\000"
 12830      4448524D 
 12830      5F313242 
 12830      49545F4C 
 12830      45465400 
 12831              	.LASF602:
 12832 1362 70657269 		.ascii	"period\000"
 12832      6F6400
 12833              	.LASF558:
 12834 1369 4932435F 		.ascii	"I2C_LOCKED\000"
 12834      4C4F434B 
 12834      454400
 12835              	.LASF86:
 12836 1374 6973725F 		.ascii	"isr_cnt\000"
 12836      636E7400 
 12837              	.LASF685:
 12838 137c 5553425F 		.ascii	"USB_READY\000"
 12838      52454144 
 12838      5900
 12839              	.LASF630:
 12840 1386 72656164 		.ascii	"readt\000"
 12840      7400
 12841              	.LASF737:
 12842 138c 47525354 		.ascii	"GRSTCTL\000"
 12842      43544C00 
 12843              	.LASF532:
 12844 1394 67707473 		.ascii	"gptstate_t\000"
 12844      74617465 
 12844      5F7400
 12845              	.LASF85:
 12846 139f 70616E69 		.ascii	"panic_msg\000"
 12846      635F6D73 
 12846      6700
 12847              	.LASF656:
 12848 13a9 5350495F 		.ascii	"SPI_COMPLETE\000"
 12848      434F4D50 
 12848      4C455445 
 12848      00
 12849              	.LASF278:
 12850 13b6 4454494D 		.ascii	"DTIMER\000"
ARM GAS  C:\Users\PCHAUT~1\AppData\Local\Temp\ccR4smAG.s 			page 243


 12850      455200
 12851              	.LASF69:
 12852 13bd 725F6E65 		.ascii	"r_newer\000"
 12852      77657200 
 12853              	.LASF702:
 12854 13c5 5553425F 		.ascii	"USB_EVENT_STALLED\000"
 12854      4556454E 
 12854      545F5354 
 12854      414C4C45 
 12854      4400
 12855              	.LASF256:
 12856 13d7 41484231 		.ascii	"AHB1ENR\000"
 12856      454E5200 
 12857              	.LASF128:
 12858 13df 54494D31 		.ascii	"TIM1_BRK_TIM9_IRQn\000"
 12858      5F42524B 
 12858      5F54494D 
 12858      395F4952 
 12858      516E00
 12859              	.LASF353:
 12860 13f2 63686465 		.ascii	"chdebug_t\000"
 12860      6275675F 
 12860      7400
 12861              	.LASF865:
 12862 13fc 706F7274 		.ascii	"port_lock_from_isr\000"
 12862      5F6C6F63 
 12862      6B5F6672 
 12862      6F6D5F69 
 12862      737200
 12863              	.LASF800:
 12864 140f 72787369 		.ascii	"rxsize\000"
 12864      7A6500
 12865              	.LASF716:
 12866 1416 48435453 		.ascii	"HCTSIZ\000"
 12866      495A00
 12867              	.LASF699:
 12868 141d 5553425F 		.ascii	"USB_EVENT_CONFIGURED\000"
 12868      4556454E 
 12868      545F434F 
 12868      4E464947 
 12868      55524544 
 12869              	.LASF648:
 12870 1432 64697363 		.ascii	"disconnect\000"
 12870      6F6E6E65 
 12870      637400
 12871              	.LASF627:
 12872 143d 70757474 		.ascii	"putt\000"
 12872      00
 12873              	.LASF28:
 12874 1442 74736C69 		.ascii	"tslices_t\000"
 12874      6365735F 
 12874      7400
 12875              	.LASF340:
 12876 144c 63685F74 		.ascii	"ch_timesize\000"
 12876      696D6573 
 12876      697A6500 
 12877              	.LASF250:
ARM GAS  C:\Users\PCHAUT~1\AppData\Local\Temp\ccR4smAG.s 			page 244


 12878 1458 43464752 		.ascii	"CFGR\000"
 12878      00
 12879              	.LASF184:
 12880 145d 4650555F 		.ascii	"FPU_IRQn\000"
 12880      4952516E 
 12880      00
 12881              	.LASF681:
 12882 1466 77615F70 		.ascii	"wa_pump\000"
 12882      756D7000 
 12883              	.LASF283:
 12884 146e 4649464F 		.ascii	"FIFOCNT\000"
 12884      434E5400 
 12885              	.LASF613:
 12886 1476 50574D44 		.ascii	"PWMD4\000"
 12886      3400
 12887              	.LASF365:
 12888 147c 6576656E 		.ascii	"event_source_t\000"
 12888      745F736F 
 12888      75726365 
 12888      5F7400
 12889              	.LASF751:
 12890 148b 72657376 		.ascii	"resvd140\000"
 12890      64313430 
 12890      00
 12891              	.LASF77:
 12892 1494 76745F64 		.ascii	"vt_delta\000"
 12892      656C7461 
 12892      00
 12893              	.LASF97:
 12894 149d 4D656D6F 		.ascii	"MemoryManagement_IRQn\000"
 12894      72794D61 
 12894      6E616765 
 12894      6D656E74 
 12894      5F495251 
 12895              	.LASF304:
 12896 14b3 74625F70 		.ascii	"tb_ptr\000"
 12896      747200
 12897              	.LASF509:
 12898 14ba 74726967 		.ascii	"trigger\000"
 12898      67657200 
 12899              	.LASF700:
 12900 14c2 5553425F 		.ascii	"USB_EVENT_SUSPEND\000"
 12900      4556454E 
 12900      545F5355 
 12900      5350454E 
 12900      4400
 12901              	.LASF18:
 12902 14d4 696E7431 		.ascii	"int16_t\000"
 12902      365F7400 
 12903              	.LASF528:
 12904 14dc 4750545F 		.ascii	"GPT_STOP\000"
 12904      53544F50 
 12904      00
 12905              	.LASF201:
 12906 14e5 4144435F 		.ascii	"ADC_TypeDef\000"
 12906      54797065 
 12906      44656600 
ARM GAS  C:\Users\PCHAUT~1\AppData\Local\Temp\ccR4smAG.s 			page 245


 12907              	.LASF10:
 12908 14f1 73686F72 		.ascii	"short unsigned int\000"
 12908      7420756E 
 12908      7369676E 
 12908      65642069 
 12908      6E7400
 12909              	.LASF570:
 12910 1504 6F705F6D 		.ascii	"op_mode\000"
 12910      6F646500 
 12911              	.LASF3:
 12912 150c 7369676E 		.ascii	"signed char\000"
 12912      65642063 
 12912      68617200 
 12913              	.LASF169:
 12914 1518 43414E32 		.ascii	"CAN2_RX1_IRQn\000"
 12914      5F525831 
 12914      5F495251 
 12914      6E00
 12915              	.LASF48:
 12916 1526 705F7072 		.ascii	"p_preempt\000"
 12916      65656D70 
 12916      7400
 12917              	.LASF34:
 12918 1530 75636E74 		.ascii	"ucnt_t\000"
 12918      5F7400
 12919              	.LASF204:
 12920 1537 54444852 		.ascii	"TDHR\000"
 12920      00
 12921              	.LASF431:
 12922 153c 4144435F 		.ascii	"ADC_STOP\000"
 12922      53544F50 
 12922      00
 12923              	.LASF693:
 12924 1545 5553425F 		.ascii	"USB_EP0_RX\000"
 12924      4550305F 
 12924      525800
 12925              	.LASF587:
 12926 1550 69327373 		.ascii	"i2sstate_t\000"
 12926      74617465 
 12926      5F7400
 12927              	.LASF605:
 12928 155b 70776D6D 		.ascii	"pwmmode_t\000"
 12928      6F64655F 
 12928      7400
 12929              	.LASF674:
 12930 1565 73746174 		.ascii	"status\000"
 12930      757300
 12931              	.LASF279:
 12932 156c 444C454E 		.ascii	"DLEN\000"
 12932      00
 12933              	.LASF268:
 12934 1571 53534347 		.ascii	"SSCGR\000"
 12934      5200
 12935              	.LASF632:
 12936 1577 5344435F 		.ascii	"SDC_MODE_4BIT\000"
 12936      4D4F4445 
 12936      5F344249 
ARM GAS  C:\Users\PCHAUT~1\AppData\Local\Temp\ccR4smAG.s 			page 246


 12936      5400
 12937              	.LASF706:
 12938 1585 55534244 		.ascii	"USBDescriptor\000"
 12938      65736372 
 12938      6970746F 
 12938      7200
 12939              	.LASF819:
 12940 1593 55534244 		.ascii	"USBD1\000"
 12940      3100
 12941              	.LASF659:
 12942 1599 73706963 		.ascii	"spicallback_t\000"
 12942      616C6C62 
 12942      61636B5F 
 12942      7400
 12943              	.LASF168:
 12944 15a7 43414E32 		.ascii	"CAN2_RX0_IRQn\000"
 12944      5F525830 
 12944      5F495251 
 12944      6E00
 12945              	.LASF247:
 12946 15b5 464C5452 		.ascii	"FLTR\000"
 12946      00
 12947              	.LASF675:
 12948 15ba 61646472 		.ascii	"address\000"
 12948      65737300 
 12949              	.LASF51:
 12950 15c2 705F6D73 		.ascii	"p_msgqueue\000"
 12950      67717565 
 12950      756500
 12951              	.LASF350:
 12952 15cd 63665F6F 		.ascii	"cf_off_refs\000"
 12952      66665F72 
 12952      65667300 
 12953              	.LASF158:
 12954 15d9 54494D36 		.ascii	"TIM6_DAC_IRQn\000"
 12954      5F444143 
 12954      5F495251 
 12954      6E00
 12955              	.LASF643:
 12956 15e7 53444343 		.ascii	"SDCConfig\000"
 12956      6F6E6669 
 12956      6700
 12957              	.LASF331:
 12958 15f1 6D5F6F77 		.ascii	"m_owner\000"
 12958      6E657200 
 12959              	.LASF186:
 12960 15f9 53797374 		.ascii	"SystemCoreClock\000"
 12960      656D436F 
 12960      7265436C 
 12960      6F636B00 
 12961              	.LASF453:
 12962 1609 61646365 		.ascii	"adcerrorcallback_t\000"
 12962      72726F72 
 12962      63616C6C 
 12962      6261636B 
 12962      5F7400
 12963              	.LASF852:
ARM GAS  C:\Users\PCHAUT~1\AppData\Local\Temp\ccR4smAG.s 			page 247


 12964 161c 6F73616C 		.ascii	"osalSysLockFromISR\000"
 12964      5379734C 
 12964      6F636B46 
 12964      726F6D49 
 12964      535200
 12965              	.LASF151:
 12966 162f 444D4131 		.ascii	"DMA1_Stream7_IRQn\000"
 12966      5F537472 
 12966      65616D37 
 12966      5F495251 
 12966      6E00
 12967              	.LASF488:
 12968 1641 4441435F 		.ascii	"DAC_ACTIVE\000"
 12968      41435449 
 12968      564500
 12969              	.LASF152:
 12970 164c 46534D43 		.ascii	"FSMC_IRQn\000"
 12970      5F495251 
 12970      6E00
 12971              	.LASF338:
 12972 1656 63685F76 		.ascii	"ch_version\000"
 12972      65727369 
 12972      6F6E00
 12973              	.LASF144:
 12974 1661 45585449 		.ascii	"EXTI15_10_IRQn\000"
 12974      31355F31 
 12974      305F4952 
 12974      516E00
 12975              	.LASF640:
 12976 1670 7364696F 		.ascii	"sdio\000"
 12976      00
 12977              	.LASF227:
 12978 1675 53575452 		.ascii	"SWTRIGR\000"
 12978      49475200 
 12979              	.LASF692:
 12980 167d 5553425F 		.ascii	"USB_EP0_WAITING_STS\000"
 12980      4550305F 
 12980      57414954 
 12980      494E475F 
 12980      53545300 
 12981              	.LASF248:
 12982 1691 4932435F 		.ascii	"I2C_TypeDef\000"
 12982      54797065 
 12982      44656600 
 12983              	.LASF208:
 12984 169d 52444852 		.ascii	"RDHR\000"
 12984      00
 12985              	.LASF542:
 12986 16a2 444D4152 		.ascii	"DMAR\000"
 12986      00
 12987              	.LASF548:
 12988 16a7 63616C6C 		.ascii	"callback\000"
 12988      6261636B 
 12988      00
 12989              	.LASF90:
 12990 16b0 63685F73 		.ascii	"ch_system\000"
 12990      79737465 
ARM GAS  C:\Users\PCHAUT~1\AppData\Local\Temp\ccR4smAG.s 			page 248


 12990      6D00
 12991              	.LASF271:
 12992 16ba 504F5745 		.ascii	"POWER\000"
 12992      5200
 12993              	.LASF269:
 12994 16c0 504C4C49 		.ascii	"PLLI2SCFGR\000"
 12994      32534346 
 12994      475200
 12995              	.LASF88:
 12996 16cb 74726163 		.ascii	"trace_buffer\000"
 12996      655F6275 
 12996      66666572 
 12996      00
 12997              	.LASF507:
 12998 16d8 4441435F 		.ascii	"DAC_DHRM_8BIT_RIGHT\000"
 12998      4448524D 
 12998      5F384249 
 12998      545F5249 
 12998      47485400 
 12999              	.LASF527:
 13000 16ec 4750545F 		.ascii	"GPT_UNINIT\000"
 13000      554E494E 
 13000      495400
 13001              	.LASF825:
 13002 16f7 6932635F 		.ascii	"i2c_lld_master_transmit_timeout\000"
 13002      6C6C645F 
 13002      6D617374 
 13002      65725F74 
 13002      72616E73 
 13003              	.LASF326:
 13004 1717 63685F73 		.ascii	"ch_semaphore\000"
 13004      656D6170 
 13004      686F7265 
 13004      00
 13005              	.LASF725:
 13006 1724 44494550 		.ascii	"DIEPTSIZ\000"
 13006      5453495A 
 13006      00
 13007              	.LASF846:
 13008 172d 6932635F 		.ascii	"i2c_lld_abort_operation\000"
 13008      6C6C645F 
 13008      61626F72 
 13008      745F6F70 
 13008      65726174 
 13009              	.LASF866:
 13010 1745 706F7274 		.ascii	"port_unlock\000"
 13010      5F756E6C 
 13010      6F636B00 
 13011              	.LASF149:
 13012 1751 54494D38 		.ascii	"TIM8_TRG_COM_TIM14_IRQn\000"
 13012      5F545247 
 13012      5F434F4D 
 13012      5F54494D 
 13012      31345F49 
 13013              	.LASF458:
 13014 1769 736D7072 		.ascii	"smpr1\000"
 13014      3100
ARM GAS  C:\Users\PCHAUT~1\AppData\Local\Temp\ccR4smAG.s 			page 249


 13015              	.LASF459:
 13016 176f 736D7072 		.ascii	"smpr2\000"
 13016      3200
 13017              	.LASF62:
 13018 1775 74687265 		.ascii	"threads_queue_t\000"
 13018      6164735F 
 13018      71756575 
 13018      655F7400 
 13019              	.LASF396:
 13020 1785 626C6B73 		.ascii	"blkstate_t\000"
 13020      74617465 
 13020      5F7400
 13021              	.LASF835:
 13022 1790 6932635F 		.ascii	"i2c_lld_serve_rx_end_irq\000"
 13022      6C6C645F 
 13022      73657276 
 13022      655F7278 
 13022      5F656E64 
 13023              	.LASF850:
 13024 17a9 74696D65 		.ascii	"time\000"
 13024      00
 13025              	.LASF863:
 13026 17ae 63685379 		.ascii	"chSysLock\000"
 13026      734C6F63 
 13026      6B00
 13027              	.LASF49:
 13028 17b8 705F7469 		.ascii	"p_time\000"
 13028      6D6500
 13029              	.LASF47:
 13030 17bf 705F7265 		.ascii	"p_refs\000"
 13030      667300
 13031              	.LASF803:
 13032 17c6 65705F6D 		.ascii	"ep_mode\000"
 13032      6F646500 
 13033              	.LASF606:
 13034 17ce 70776D63 		.ascii	"pwmchannel_t\000"
 13034      68616E6E 
 13034      656C5F74 
 13034      00
 13035              	.LASF203:
 13036 17db 54444C52 		.ascii	"TDLR\000"
 13036      00
 13037              	.LASF12:
 13038 17e0 6C6F6E67 		.ascii	"long int\000"
 13038      20696E74 
 13038      00
 13039              	.LASF93:
 13040 17e9 6D61696E 		.ascii	"mainthread\000"
 13040      74687265 
 13040      616400
 13041              	.LASF671:
 13042 17f4 6570306E 		.ascii	"ep0n\000"
 13042      00
 13043              	.LASF784:
 13044 17f9 72657376 		.ascii	"resvdE04\000"
 13044      64453034 
 13044      00
ARM GAS  C:\Users\PCHAUT~1\AppData\Local\Temp\ccR4smAG.s 			page 250


 13045              	.LASF330:
 13046 1802 6D5F7175 		.ascii	"m_queue\000"
 13046      65756500 
 13047              	.LASF495:
 13048 180a 646D6169 		.ascii	"dmairqprio\000"
 13048      72717072 
 13048      696F00
 13049              	.LASF533:
 13050 1815 47505444 		.ascii	"GPTDriver\000"
 13050      72697665 
 13050      7200
 13051              	.LASF253:
 13052 181f 41484233 		.ascii	"AHB3RSTR\000"
 13052      52535452 
 13052      00
 13053              	.LASF636:
 13054 1828 73646366 		.ascii	"sdcflags_t\000"
 13054      6C616773 
 13054      5F7400
 13055              	.LASF425:
 13056 1833 50484461 		.ascii	"PHData\000"
 13056      746100
 13057              	.LASF428:
 13058 183a 696F706F 		.ascii	"ioportid_t\000"
 13058      72746964 
 13058      5F7400
 13059              	.LASF466:
 13060 1845 41444344 		.ascii	"ADCD1\000"
 13060      3100
 13061              	.LASF467:
 13062 184b 41444344 		.ascii	"ADCD2\000"
 13062      3200
 13063              	.LASF468:
 13064 1851 41444344 		.ascii	"ADCD3\000"
 13064      3300
 13065              	.LASF131:
 13066 1857 54494D31 		.ascii	"TIM1_CC_IRQn\000"
 13066      5F43435F 
 13066      4952516E 
 13066      00
 13067              	.LASF752:
 13068 1864 48434647 		.ascii	"HCFG\000"
 13068      00
 13069              	.LASF451:
 13070 1869 646D616D 		.ascii	"dmamode\000"
 13070      6F646500 
 13071              	.LASF312:
 13072 1871 63756D75 		.ascii	"cumulative\000"
 13072      6C617469 
 13072      766500
 13073              	.LASF663:
 13074 187c 53504944 		.ascii	"SPID1\000"
 13074      3100
 13075              	.LASF628:
 13076 1882 67657474 		.ascii	"gett\000"
 13076      00
 13077              	.LASF264:
ARM GAS  C:\Users\PCHAUT~1\AppData\Local\Temp\ccR4smAG.s 			page 251


 13078 1887 41504231 		.ascii	"APB1LPENR\000"
 13078      4C50454E 
 13078      5200
 13079              	.LASF322:
 13080 1891 77747472 		.ascii	"wttrp\000"
 13080      7000
 13081              	.LASF373:
 13082 1897 715F7264 		.ascii	"q_rdptr\000"
 13082      70747200 
 13083              	.LASF296:
 13084 189f 636F6E74 		.ascii	"context\000"
 13084      65787400 
 13085              	.LASF625:
 13086 18a7 77726974 		.ascii	"write\000"
 13086      6500
 13087              	.LASF621:
 13088 18ad 69717565 		.ascii	"iqueue\000"
 13088      756500
 13089              	.LASF805:
 13090 18b4 696E5F63 		.ascii	"in_cb\000"
 13090      6200
 13091              	.LASF730:
 13092 18ba 444F4550 		.ascii	"DOEPINT\000"
 13092      494E5400 
 13093              	.LASF311:
 13094 18c2 6C617374 		.ascii	"last\000"
 13094      00
 13095              	.LASF407:
 13096 18c7 4C434B52 		.ascii	"LCKR\000"
 13096      00
 13097              	.LASF618:
 13098 18cc 73647374 		.ascii	"sdstate_t\000"
 13098      6174655F 
 13098      7400
 13099              	.LASF21:
 13100 18d6 75696E74 		.ascii	"uint32_t\000"
 13100      33325F74 
 13100      00
 13101              	.LASF161:
 13102 18df 444D4132 		.ascii	"DMA2_Stream1_IRQn\000"
 13102      5F537472 
 13102      65616D31 
 13102      5F495251 
 13102      6E00
 13103              	.LASF492:
 13104 18f1 64617461 		.ascii	"dataoffset\000"
 13104      6F666673 
 13104      657400
 13105              	.LASF394:
 13106 18fc 424C4B5F 		.ascii	"BLK_WRITING\000"
 13106      57524954 
 13106      494E4700 
 13107              	.LASF207:
 13108 1908 52444C52 		.ascii	"RDLR\000"
 13108      00
 13109              	.LASF114:
 13110 190d 45585449 		.ascii	"EXTI4_IRQn\000"
ARM GAS  C:\Users\PCHAUT~1\AppData\Local\Temp\ccR4smAG.s 			page 252


 13110      345F4952 
 13110      516E00
 13111              	.LASF156:
 13112 1918 55415254 		.ascii	"UART4_IRQn\000"
 13112      345F4952 
 13112      516E00
 13113              	.LASF867:
 13114 1923 706F7274 		.ascii	"port_lock\000"
 13114      5F6C6F63 
 13114      6B00
 13115              	.LASF2:
 13116 192d 6C6F6E67 		.ascii	"long double\000"
 13116      20646F75 
 13116      626C6500 
 13117              	.LASF294:
 13118 1939 72656761 		.ascii	"regarm_t\000"
 13118      726D5F74 
 13118      00
 13119              	.LASF31:
 13120 1942 6576656E 		.ascii	"eventmask_t\000"
 13120      746D6173 
 13120      6B5F7400 
 13121              	.LASF446:
 13122 194e 64657074 		.ascii	"depth\000"
 13122      6800
 13123              	.LASF160:
 13124 1954 444D4132 		.ascii	"DMA2_Stream0_IRQn\000"
 13124      5F537472 
 13124      65616D30 
 13124      5F495251 
 13124      6E00
 13125              	.LASF221:
 13126 1966 46464131 		.ascii	"FFA1R\000"
 13126      5200
 13127              	.LASF686:
 13128 196c 5553425F 		.ascii	"USB_SELECTED\000"
 13128      53454C45 
 13128      43544544 
 13128      00
 13129              	.LASF14:
 13130 1979 6C6F6E67 		.ascii	"long unsigned int\000"
 13130      20756E73 
 13130      69676E65 
 13130      6420696E 
 13130      7400
 13131              	.LASF113:
 13132 198b 45585449 		.ascii	"EXTI3_IRQn\000"
 13132      335F4952 
 13132      516E00
 13133              	.LASF841:
 13134 1996 6932635F 		.ascii	"i2c_lld_set_clock\000"
 13134      6C6C645F 
 13134      7365745F 
 13134      636C6F63 
 13134      6B00
 13135              	.LASF585:
 13136 19a8 4932535F 		.ascii	"I2S_ACTIVE\000"
ARM GAS  C:\Users\PCHAUT~1\AppData\Local\Temp\ccR4smAG.s 			page 253


 13136      41435449 
 13136      564500
 13137              	.LASF529:
 13138 19b3 4750545F 		.ascii	"GPT_READY\000"
 13138      52454144 
 13138      5900
 13139              	.LASF491:
 13140 19bd 64616373 		.ascii	"dacstate_t\000"
 13140      74617465 
 13140      5F7400
 13141              	.LASF299:
 13142 19c8 73655F74 		.ascii	"se_tp\000"
 13142      7000
 13143              	.LASF821:
 13144 19ce 74786279 		.ascii	"txbytes\000"
 13144      74657300 
 13145              	.LASF372:
 13146 19d6 715F7772 		.ascii	"q_wrptr\000"
 13146      70747200 
 13147              	.LASF499:
 13148 19de 64616373 		.ascii	"dacsample_t\000"
 13148      616D706C 
 13148      655F7400 
 13149              	.LASF856:
 13150 19ea 72656173 		.ascii	"reason\000"
 13150      6F6E00
 13151              	.LASF698:
 13152 19f1 5553425F 		.ascii	"USB_EVENT_ADDRESS\000"
 13152      4556454E 
 13152      545F4144 
 13152      44524553 
 13152      5300
 13153              	.LASF593:
 13154 1a03 69327363 		.ascii	"i2scfgr\000"
 13154      66677200 
 13155              	.LASF273:
 13156 1a0b 52455350 		.ascii	"RESPCMD\000"
 13156      434D4400 
 13157              	.LASF478:
 13158 1a13 72786675 		.ascii	"rxfull_event\000"
 13158      6C6C5F65 
 13158      76656E74 
 13158      00
 13159              	.LASF703:
 13160 1a20 75736265 		.ascii	"usbevent_t\000"
 13160      76656E74 
 13160      5F7400
 13161              	.LASF334:
 13162 1a2b 63686172 		.ascii	"char\000"
 13162      00
 13163              	.LASF143:
 13164 1a30 55534152 		.ascii	"USART3_IRQn\000"
 13164      54335F49 
 13164      52516E00 
 13165              	.LASF475:
 13166 1a3c 43414E43 		.ascii	"CANConfig\000"
 13166      6F6E6669 
ARM GAS  C:\Users\PCHAUT~1\AppData\Local\Temp\ccR4smAG.s 			page 254


 13166      6700
 13167              	.LASF422:
 13168 1a46 50454461 		.ascii	"PEData\000"
 13168      746100
 13169              	.LASF66:
 13170 1a4d 725F7175 		.ascii	"r_queue\000"
 13170      65756500 
 13171              	.LASF860:
 13172 1a55 63685379 		.ascii	"chSysUnlockFromISR\000"
 13172      73556E6C 
 13172      6F636B46 
 13172      726F6D49 
 13172      535200
 13173              	.LASF603:
 13174 1a68 656E6162 		.ascii	"enabled\000"
 13174      6C656400 
 13175              	.LASF500:
 13176 1a70 4441435F 		.ascii	"DAC_ERR_DMAFAILURE\000"
 13176      4552525F 
 13176      444D4146 
 13176      41494C55 
 13176      524500
 13177              	.LASF742:
 13178 1a83 47525846 		.ascii	"GRXFSIZ\000"
 13178      53495A00 
 13179              	.LASF649:
 13180 1a8b 73796E63 		.ascii	"sync\000"
 13180      00
 13181              	.LASF623:
 13182 1a90 75736172 		.ascii	"usart\000"
 13182      7400
 13183              	.LASF385:
 13184 1a96 73746D33 		.ascii	"stm32_dmaisr_t\000"
 13184      325F646D 
 13184      61697372 
 13184      5F7400
 13185              	.LASF635:
 13186 1aa5 7364636D 		.ascii	"sdcmode_t\000"
 13186      6F64655F 
 13186      7400
 13187              	.LASF375:
 13188 1aaf 715F6C69 		.ascii	"q_link\000"
 13188      6E6B00
 13189              	.LASF142:
 13190 1ab6 55534152 		.ascii	"USART2_IRQn\000"
 13190      54325F49 
 13190      52516E00 
 13191              	.LASF763:
 13192 1ac2 44434647 		.ascii	"DCFG\000"
 13192      00
 13193              	.LASF773:
 13194 1ac7 44564255 		.ascii	"DVBUSDIS\000"
 13194      53444953 
 13194      00
 13195              	.LASF183:
 13196 1ad0 48415348 		.ascii	"HASH_RNG_IRQn\000"
 13196      5F524E47 
ARM GAS  C:\Users\PCHAUT~1\AppData\Local\Temp\ccR4smAG.s 			page 255


 13196      5F495251 
 13196      6E00
 13197              	.LASF739:
 13198 1ade 47494E54 		.ascii	"GINTMSK\000"
 13198      4D534B00 
 13199              	.LASF744:
 13200 1ae6 484E5054 		.ascii	"HNPTXSTS\000"
 13200      58535453 
 13200      00
 13201              	.LASF135:
 13202 1aef 49324331 		.ascii	"I2C1_EV_IRQn\000"
 13202      5F45565F 
 13202      4952516E 
 13202      00
 13203              	.LASF676:
 13204 1afc 636F6E66 		.ascii	"configuration\000"
 13204      69677572 
 13204      6174696F 
 13204      6E00
 13205              	.LASF137:
 13206 1b0a 49324332 		.ascii	"I2C2_EV_IRQn\000"
 13206      5F45565F 
 13206      4952516E 
 13206      00
 13207              	.LASF141:
 13208 1b17 55534152 		.ascii	"USART1_IRQn\000"
 13208      54315F49 
 13208      52516E00 
 13209              	.LASF176:
 13210 1b23 49324333 		.ascii	"I2C3_EV_IRQn\000"
 13210      5F45565F 
 13210      4952516E 
 13210      00
 13211              	.LASF417:
 13212 1b30 73746D33 		.ascii	"stm32_gpio_setup_t\000"
 13212      325F6770 
 13212      696F5F73 
 13212      65747570 
 13212      5F7400
 13213              	.LASF386:
 13214 1b43 5F73746D 		.ascii	"_stm32_dma_streams\000"
 13214      33325F64 
 13214      6D615F73 
 13214      74726561 
 13214      6D7300
 13215              	.LASF229:
 13216 1b56 44485231 		.ascii	"DHR12L1\000"
 13216      324C3100 
 13217              	.LASF232:
 13218 1b5e 44485231 		.ascii	"DHR12L2\000"
 13218      324C3200 
 13219              	.LASF634:
 13220 1b66 73646362 		.ascii	"sdcbusmode_t\000"
 13220      75736D6F 
 13220      64655F74 
 13220      00
 13221              	.LASF235:
ARM GAS  C:\Users\PCHAUT~1\AppData\Local\Temp\ccR4smAG.s 			page 256


 13222 1b73 44485231 		.ascii	"DHR12LD\000"
 13222      324C4400 
 13223              	.LASF452:
 13224 1b7b 61646363 		.ascii	"adccallback_t\000"
 13224      616C6C62 
 13224      61636B5F 
 13224      7400
 13225              	.LASF44:
 13226 1b89 705F7374 		.ascii	"p_stklimit\000"
 13226      6B6C696D 
 13226      697400
 13227              	.LASF178:
 13228 1b94 4F54475F 		.ascii	"OTG_HS_EP1_OUT_IRQn\000"
 13228      48535F45 
 13228      50315F4F 
 13228      55545F49 
 13228      52516E00 
 13229              	.LASF33:
 13230 1ba8 636E745F 		.ascii	"cnt_t\000"
 13230      7400
 13231              	.LASF518:
 13232 1bae 65787473 		.ascii	"extstate_t\000"
 13232      74617465 
 13232      5F7400
 13233              	.LASF691:
 13234 1bb9 5553425F 		.ascii	"USB_EP0_WAITING_TX0\000"
 13234      4550305F 
 13234      57414954 
 13234      494E475F 
 13234      54583000 
 13235              	.LASF844:
 13236 1bcd 64757479 		.ascii	"duty\000"
 13236      00
 13237              	.LASF155:
 13238 1bd2 53504933 		.ascii	"SPI3_IRQn\000"
 13238      5F495251 
 13238      6E00
 13239              	.LASF720:
 13240 1bdc 73746D33 		.ascii	"stm32_otg_host_chn_t\000"
 13240      325F6F74 
 13240      675F686F 
 13240      73745F63 
 13240      686E5F74 
 13241              	.LASF854:
 13242 1bf1 6F73616C 		.ascii	"osalSysLock\000"
 13242      5379734C 
 13242      6F636B00 
 13243              	.LASF409:
 13244 1bfd 41465248 		.ascii	"AFRH\000"
 13244      00
 13245              	.LASF408:
 13246 1c02 4146524C 		.ascii	"AFRL\000"
 13246      00
 13247              	.LASF351:
 13248 1c07 63665F6F 		.ascii	"cf_off_preempt\000"
 13248      66665F70 
 13248      7265656D 
ARM GAS  C:\Users\PCHAUT~1\AppData\Local\Temp\ccR4smAG.s 			page 257


 13248      707400
 13249              	.LASF489:
 13250 1c16 4441435F 		.ascii	"DAC_COMPLETE\000"
 13250      434F4D50 
 13250      4C455445 
 13250      00
 13251              	.LASF729:
 13252 1c23 444F4550 		.ascii	"DOEPCTL\000"
 13252      43544C00 
 13253              	.LASF715:
 13254 1c2b 4843494E 		.ascii	"HCINTMSK\000"
 13254      544D534B 
 13254      00
 13255              	.LASF444:
 13256 1c34 636F6E66 		.ascii	"config\000"
 13256      696700
 13257              	.LASF552:
 13258 1c3b 47505444 		.ascii	"GPTD11\000"
 13258      313100
 13259              	.LASF157:
 13260 1c42 55415254 		.ascii	"UART5_IRQn\000"
 13260      355F4952 
 13260      516E00
 13261              	.LASF390:
 13262 1c4d 424C4B5F 		.ascii	"BLK_CONNECTING\000"
 13262      434F4E4E 
 13262      45435449 
 13262      4E4700
 13263              	.LASF118:
 13264 1c5c 444D4131 		.ascii	"DMA1_Stream3_IRQn\000"
 13264      5F537472 
 13264      65616D33 
 13264      5F495251 
 13264      6E00
 13265              	.LASF249:
 13266 1c6e 504C4C43 		.ascii	"PLLCFGR\000"
 13266      46475200 
 13267              	.LASF485:
 13268 1c76 4441435F 		.ascii	"DAC_UNINIT\000"
 13268      554E494E 
 13268      495400
 13269              	.LASF438:
 13270 1c81 6164635F 		.ascii	"adc_channels_num_t\000"
 13270      6368616E 
 13270      6E656C73 
 13270      5F6E756D 
 13270      5F7400
 13271              	.LASF72:
 13272 1c94 76746675 		.ascii	"vtfunc_t\000"
 13272      6E635F74 
 13272      00
 13273              	.LASF209:
 13274 1c9d 43414E5F 		.ascii	"CAN_FIFOMailBox_TypeDef\000"
 13274      4649464F 
 13274      4D61696C 
 13274      426F785F 
 13274      54797065 
ARM GAS  C:\Users\PCHAUT~1\AppData\Local\Temp\ccR4smAG.s 			page 258


 13275              	.LASF239:
 13276 1cb5 4441435F 		.ascii	"DAC_TypeDef\000"
 13276      54797065 
 13276      44656600 
 13277              	.LASF321:
 13278 1cc1 77746F62 		.ascii	"wtobjp\000"
 13278      6A7000
 13279              	.LASF505:
 13280 1cc8 4441435F 		.ascii	"DAC_DHRM_12BIT_RIGHT\000"
 13280      4448524D 
 13280      5F313242 
 13280      49545F52 
 13280      49474854 
 13281              	.LASF55:
 13282 1cdd 705F7265 		.ascii	"p_realprio\000"
 13282      616C7072 
 13282      696F00
 13283              	.LASF638:
 13284 1ce8 63617061 		.ascii	"capacity\000"
 13284      63697479 
 13284      00
 13285              	.LASF374:
 13286 1cf1 715F6E6F 		.ascii	"q_notify\000"
 13286      74696679 
 13286      00
 13287              	.LASF324:
 13288 1cfa 77746D74 		.ascii	"wtmtxp\000"
 13288      787000
 13289              	.LASF117:
 13290 1d01 444D4131 		.ascii	"DMA1_Stream2_IRQn\000"
 13290      5F537472 
 13290      65616D32 
 13290      5F495251 
 13290      6E00
 13291              	.LASF859:
 13292 1d13 63685654 		.ascii	"chVTGetSystemTimeX\000"
 13292      47657453 
 13292      79737465 
 13292      6D54696D 
 13292      655800
 13293              	.LASF802:
 13294 1d26 5553424F 		.ascii	"USBOutEndpointState\000"
 13294      7574456E 
 13294      64706F69 
 13294      6E745374 
 13294      61746500 
 13295              	.LASF759:
 13296 1d3a 72657376 		.ascii	"resvd41C\000"
 13296      64343143 
 13296      00
 13297              	.LASF206:
 13298 1d43 52445452 		.ascii	"RDTR\000"
 13298      00
 13299              	.LASF398:
 13300 1d48 626C6B5F 		.ascii	"blk_num\000"
 13300      6E756D00 
 13301              	.LASF116:
ARM GAS  C:\Users\PCHAUT~1\AppData\Local\Temp\ccR4smAG.s 			page 259


 13302 1d50 444D4131 		.ascii	"DMA1_Stream1_IRQn\000"
 13302      5F537472 
 13302      65616D31 
 13302      5F495251 
 13302      6E00
 13303              	.LASF266:
 13304 1d62 42444352 		.ascii	"BDCR\000"
 13304      00
 13305              	.LASF697:
 13306 1d67 5553425F 		.ascii	"USB_EVENT_RESET\000"
 13306      4556454E 
 13306      545F5245 
 13306      53455400 
 13307              	.LASF65:
 13308 1d77 63685F72 		.ascii	"ch_ready_list\000"
 13308      65616479 
 13308      5F6C6973 
 13308      7400
 13309              	.LASF405:
 13310 1d85 50555044 		.ascii	"PUPDR\000"
 13310      5200
 13311              	.LASF11:
 13312 1d8b 5F5F696E 		.ascii	"__int32_t\000"
 13312      7433325F 
 13312      7400
 13313              	.LASF13:
 13314 1d95 5F5F7569 		.ascii	"__uint32_t\000"
 13314      6E743332 
 13314      5F7400
 13315              	.LASF84:
 13316 1da0 63685F73 		.ascii	"ch_system_debug\000"
 13316      79737465 
 13316      6D5F6465 
 13316      62756700 
 13317              	.LASF770:
 13318 1db0 4441494E 		.ascii	"DAINTMSK\000"
 13318      544D534B 
 13318      00
 13319              	.LASF165:
 13320 1db9 4554485F 		.ascii	"ETH_IRQn\000"
 13320      4952516E 
 13320      00
 13321              	.LASF525:
 13322 1dc2 45585443 		.ascii	"EXTConfig\000"
 13322      6F6E6669 
 13322      6700
 13323              	.LASF103:
 13324 1dcc 53797354 		.ascii	"SysTick_IRQn\000"
 13324      69636B5F 
 13324      4952516E 
 13324      00
 13325              	.LASF369:
 13326 1dd9 715F636F 		.ascii	"q_counter\000"
 13326      756E7465 
 13326      7200
 13327              	.LASF689:
 13328 1de3 5553425F 		.ascii	"USB_EP0_WAITING_SETUP\000"
ARM GAS  C:\Users\PCHAUT~1\AppData\Local\Temp\ccR4smAG.s 			page 260


 13328      4550305F 
 13328      57414954 
 13328      494E475F 
 13328      53455455 
 13329              	.LASF393:
 13330 1df9 424C4B5F 		.ascii	"BLK_READING\000"
 13330      52454144 
 13330      494E4700 
 13331              	.LASF415:
 13332 1e05 6166726C 		.ascii	"afrl\000"
 13332      00
 13333              	.LASF792:
 13334 1e0a 71756575 		.ascii	"queue\000"
 13334      6500
 13335              	.LASF672:
 13336 1e10 65703065 		.ascii	"ep0endcb\000"
 13336      6E646362 
 13336      00
 13337              	.LASF382:
 13338 1e19 73656C66 		.ascii	"selfindex\000"
 13338      696E6465 
 13338      7800
 13339              	.LASF355:
 13340 1e23 6D757465 		.ascii	"mutex_t\000"
 13340      785F7400 
 13341              	.LASF53:
 13342 1e2b 705F6570 		.ascii	"p_epending\000"
 13342      656E6469 
 13342      6E6700
 13343              	.LASF126:
 13344 1e36 43414E31 		.ascii	"CAN1_SCE_IRQn\000"
 13344      5F534345 
 13344      5F495251 
 13344      6E00
 13345              	.LASF402:
 13346 1e44 4D4F4445 		.ascii	"MODER\000"
 13346      5200
 13347              	.LASF96:
 13348 1e4a 4E6F6E4D 		.ascii	"NonMaskableInt_IRQn\000"
 13348      61736B61 
 13348      626C6549 
 13348      6E745F49 
 13348      52516E00 
 13349              	.LASF586:
 13350 1e5e 4932535F 		.ascii	"I2S_COMPLETE\000"
 13350      434F4D50 
 13350      4C455445 
 13350      00
 13351              	.LASF213:
 13352 1e6b 52455345 		.ascii	"RESERVED0\000"
 13352      52564544 
 13352      3000
 13353              	.LASF216:
 13354 1e75 52455345 		.ascii	"RESERVED1\000"
 13354      52564544 
 13354      3100
 13355              	.LASF218:
ARM GAS  C:\Users\PCHAUT~1\AppData\Local\Temp\ccR4smAG.s 			page 261


 13356 1e7f 52455345 		.ascii	"RESERVED2\000"
 13356      52564544 
 13356      3200
 13357              	.LASF220:
 13358 1e89 52455345 		.ascii	"RESERVED3\000"
 13358      52564544 
 13358      3300
 13359              	.LASF222:
 13360 1e93 52455345 		.ascii	"RESERVED4\000"
 13360      52564544 
 13360      3400
 13361              	.LASF224:
 13362 1e9d 52455345 		.ascii	"RESERVED5\000"
 13362      52564544 
 13362      3500
 13363              	.LASF267:
 13364 1ea7 52455345 		.ascii	"RESERVED6\000"
 13364      52564544 
 13364      3600
 13365              	.LASF813:
 13366 1eb1 55534245 		.ascii	"USBEndpointConfig\000"
 13366      6E64706F 
 13366      696E7443 
 13366      6F6E6669 
 13366      6700
 13367              	.LASF228:
 13368 1ec3 44485231 		.ascii	"DHR12R1\000"
 13368      32523100 
 13369              	.LASF231:
 13370 1ecb 44485231 		.ascii	"DHR12R2\000"
 13370      32523200 
 13371              	.LASF521:
 13372 1ed3 65787463 		.ascii	"extcallback_t\000"
 13372      616C6C62 
 13372      61636B5F 
 13372      7400
 13373              	.LASF477:
 13374 1ee1 72787175 		.ascii	"rxqueue\000"
 13374      65756500 
 13375              	.LASF298:
 13376 1ee9 73655F74 		.ascii	"se_time\000"
 13376      696D6500 
 13377              	.LASF761:
 13378 1ef1 72657376 		.ascii	"resvd444\000"
 13378      64343434 
 13378      00
 13379              	.LASF429:
 13380 1efa 70616C5F 		.ascii	"pal_default_config\000"
 13380      64656661 
 13380      756C745F 
 13380      636F6E66 
 13380      696700
 13381              	.LASF447:
 13382 1f0d 67727070 		.ascii	"grpp\000"
 13382      00
 13383              	.LASF234:
 13384 1f12 44485231 		.ascii	"DHR12RD\000"
ARM GAS  C:\Users\PCHAUT~1\AppData\Local\Temp\ccR4smAG.s 			page 262


 13384      32524400 
 13385              	.LASF129:
 13386 1f1a 54494D31 		.ascii	"TIM1_UP_TIM10_IRQn\000"
 13386      5F55505F 
 13386      54494D31 
 13386      305F4952 
 13386      516E00
 13387              	.LASF791:
 13388 1f2d 6C696E65 		.ascii	"linear\000"
 13388      617200
 13389              	.LASF545:
 13390 1f34 73746D33 		.ascii	"stm32_tim_t\000"
 13390      325F7469 
 13390      6D5F7400 
 13391              	.LASF858:
 13392 1f40 6F73616C 		.ascii	"osalOsGetSystemTimeX\000"
 13392      4F734765 
 13392      74537973 
 13392      74656D54 
 13392      696D6558 
 13393              	.LASF67:
 13394 1f55 725F7072 		.ascii	"r_prio\000"
 13394      696F00
 13395              	.LASF678:
 13396 1f5c 706D6E65 		.ascii	"pmnext\000"
 13396      787400
 13397              	.LASF368:
 13398 1f63 715F7761 		.ascii	"q_waiting\000"
 13398      6974696E 
 13398      6700
 13399              	.LASF185:
 13400 1f6d 49544D5F 		.ascii	"ITM_RxBuffer\000"
 13400      52784275 
 13400      66666572 
 13400      00
 13401              	.LASF399:
 13402 1f7a 426C6F63 		.ascii	"BlockDeviceInfo\000"
 13402      6B446576 
 13402      69636549 
 13402      6E666F00 
 13403              	.LASF16:
 13404 1f8a 6C6F6E67 		.ascii	"long long unsigned int\000"
 13404      206C6F6E 
 13404      6720756E 
 13404      7369676E 
 13404      65642069 
 13405              	.LASF285:
 13406 1fa1 5344494F 		.ascii	"SDIO_TypeDef\000"
 13406      5F547970 
 13406      65446566 
 13406      00
 13407              	.LASF307:
 13408 1fae 6F666673 		.ascii	"offset\000"
 13408      657400
 13409              	.LASF261:
 13410 1fb5 41484231 		.ascii	"AHB1LPENR\000"
 13410      4C50454E 
ARM GAS  C:\Users\PCHAUT~1\AppData\Local\Temp\ccR4smAG.s 			page 263


 13410      5200
 13411              	.LASF862:
 13412 1fbf 63685379 		.ascii	"chSysUnlock\000"
 13412      73556E6C 
 13412      6F636B00 
 13413              	.LASF240:
 13414 1fcb 4E445452 		.ascii	"NDTR\000"
 13414      00
 13415              	.LASF364:
 13416 1fd0 65735F6E 		.ascii	"es_next\000"
 13416      65787400 
 13417              	.LASF727:
 13418 1fd8 72657376 		.ascii	"resvd1C\000"
 13418      64314300 
 13419              	.LASF95:
 13420 1fe0 69646C65 		.ascii	"idle_thread_wa\000"
 13420      5F746872 
 13420      6561645F 
 13420      776100
 13421              	.LASF723:
 13422 1fef 44494550 		.ascii	"DIEPINT\000"
 13422      494E5400 
 13423              	.LASF291:
 13424 1ff7 5350495F 		.ascii	"SPI_TypeDef\000"
 13424      54797065 
 13424      44656600 
 13425              	.LASF78:
 13426 2003 76745F66 		.ascii	"vt_func\000"
 13426      756E6300 
 13427              	.LASF536:
 13428 200b 534D4352 		.ascii	"SMCR\000"
 13428      00
 13429              	.LASF768:
 13430 2010 444F4550 		.ascii	"DOEPMSK\000"
 13430      4D534B00 
 13431              	.LASF74:
 13432 2018 63685F76 		.ascii	"ch_virtual_timer\000"
 13432      69727475 
 13432      616C5F74 
 13432      696D6572 
 13432      00
 13433              	.LASF46:
 13434 2029 705F666C 		.ascii	"p_flags\000"
 13434      61677300 
 13435              	.LASF325:
 13436 2031 65776D61 		.ascii	"ewmask\000"
 13436      736B00
 13437              	.LASF361:
 13438 2038 656C5F66 		.ascii	"el_flags\000"
 13438      6C616773 
 13438      00
 13439              	.LASF363:
 13440 2041 6576656E 		.ascii	"event_source\000"
 13440      745F736F 
 13440      75726365 
 13440      00
 13441              	.LASF54:
ARM GAS  C:\Users\PCHAUT~1\AppData\Local\Temp\ccR4smAG.s 			page 264


 13442 204e 705F6D74 		.ascii	"p_mtxlist\000"
 13442      786C6973 
 13442      7400
 13443              	.LASF484:
 13444 2058 43414E44 		.ascii	"CAND1\000"
 13444      3100
 13445              	.LASF219:
 13446 205e 46533152 		.ascii	"FS1R\000"
 13446      00
 13447              	.LASF26:
 13448 2063 74737461 		.ascii	"tstate_t\000"
 13448      74655F74 
 13448      00
 13449              	.LASF658:
 13450 206c 53504944 		.ascii	"SPIDriver\000"
 13450      72697665 
 13450      7200
 13451              	.LASF769:
 13452 2076 4441494E 		.ascii	"DAINT\000"
 13452      5400
 13453              	.LASF662:
 13454 207c 53504943 		.ascii	"SPIConfig\000"
 13454      6F6E6669 
 13454      6700
 13455              	.LASF414:
 13456 2086 70757064 		.ascii	"pupdr\000"
 13456      7200
 13457              	.LASF504:
 13458 208c 64616365 		.ascii	"dacerrorcallback_t\000"
 13458      72726F72 
 13458      63616C6C 
 13458      6261636B 
 13458      5F7400
 13459              	.LASF665:
 13460 209f 7472616E 		.ascii	"transmitting\000"
 13460      736D6974 
 13460      74696E67 
 13460      00
 13461              	.LASF524:
 13462 20ac 6368616E 		.ascii	"channels\000"
 13462      6E656C73 
 13462      00
 13463              	.LASF272:
 13464 20b5 434C4B43 		.ascii	"CLKCR\000"
 13464      5200
 13465              	.LASF637:
 13466 20bb 53444344 		.ascii	"SDCDriver\000"
 13466      72697665 
 13466      7200
 13467              	.LASF43:
 13468 20c5 705F6E61 		.ascii	"p_name\000"
 13468      6D6500
 13469              	.LASF619:
 13470 20cc 53657269 		.ascii	"SerialDriver\000"
 13470      616C4472 
 13470      69766572 
 13470      00
ARM GAS  C:\Users\PCHAUT~1\AppData\Local\Temp\ccR4smAG.s 			page 265


 13471              	.LASF197:
 13472 20d9 4A445231 		.ascii	"JDR1\000"
 13472      00
 13473              	.LASF198:
 13474 20de 4A445232 		.ascii	"JDR2\000"
 13474      00
 13475              	.LASF199:
 13476 20e3 4A445233 		.ascii	"JDR3\000"
 13476      00
 13477              	.LASF200:
 13478 20e8 4A445234 		.ascii	"JDR4\000"
 13478      00
 13479              	.LASF731:
 13480 20ed 444F4550 		.ascii	"DOEPTSIZ\000"
 13480      5453495A 
 13480      00
 13481              	.LASF265:
 13482 20f6 41504232 		.ascii	"APB2LPENR\000"
 13482      4C50454E 
 13482      5200
 13483              	.LASF830:
 13484 2100 6932635F 		.ascii	"i2c_lld_init\000"
 13484      6C6C645F 
 13484      696E6974 
 13484      00
 13485              	.LASF432:
 13486 210d 4144435F 		.ascii	"ADC_READY\000"
 13486      52454144 
 13486      5900
 13487              	.LASF80:
 13488 2117 76697274 		.ascii	"virtual_timers_list_t\000"
 13488      75616C5F 
 13488      74696D65 
 13488      72735F6C 
 13488      6973745F 
 13489              	.LASF136:
 13490 212d 49324331 		.ascii	"I2C1_ER_IRQn\000"
 13490      5F45525F 
 13490      4952516E 
 13490      00
 13491              	.LASF130:
 13492 213a 54494D31 		.ascii	"TIM1_TRG_COM_TIM11_IRQn\000"
 13492      5F545247 
 13492      5F434F4D 
 13492      5F54494D 
 13492      31315F49 
 13493              	.LASF833:
 13494 2152 6932635F 		.ascii	"i2c_lld_serve_tx_end_irq\000"
 13494      6C6C645F 
 13494      73657276 
 13494      655F7478 
 13494      5F656E64 
 13495              	.LASF102:
 13496 216b 50656E64 		.ascii	"PendSV_IRQn\000"
 13496      53565F49 
 13496      52516E00 
 13497              	.LASF454:
ARM GAS  C:\Users\PCHAUT~1\AppData\Local\Temp\ccR4smAG.s 			page 266


 13498 2177 63697263 		.ascii	"circular\000"
 13498      756C6172 
 13498      00
 13499              	.LASF138:
 13500 2180 49324332 		.ascii	"I2C2_ER_IRQn\000"
 13500      5F45525F 
 13500      4952516E 
 13500      00
 13501              	.LASF411:
 13502 218d 6D6F6465 		.ascii	"moder\000"
 13502      7200
 13503              	.LASF327:
 13504 2193 735F7175 		.ascii	"s_queue\000"
 13504      65756500 
 13505              	.LASF177:
 13506 219b 49324333 		.ascii	"I2C3_ER_IRQn\000"
 13506      5F45525F 
 13506      4952516E 
 13506      00
 13507              	.LASF316:
 13508 21a8 6D5F6372 		.ascii	"m_crit_thd\000"
 13508      69745F74 
 13508      686400
 13509              	.LASF486:
 13510 21b3 4441435F 		.ascii	"DAC_STOP\000"
 13510      53544F50 
 13510      00
 13511              	.LASF762:
 13512 21bc 72657376 		.ascii	"resvd700\000"
 13512      64373030 
 13512      00
 13513              	.LASF289:
 13514 21c5 49325343 		.ascii	"I2SCFGR\000"
 13514      46475200 
 13515              	.LASF335:
 13516 21cd 63685F69 		.ascii	"ch_identifier\000"
 13516      64656E74 
 13516      69666965 
 13516      7200
 13517              	.LASF629:
 13518 21db 77726974 		.ascii	"writet\000"
 13518      657400
 13519              	.LASF1:
 13520 21e2 6C6F6E67 		.ascii	"long long int\000"
 13520      206C6F6E 
 13520      6720696E 
 13520      7400
 13521              	.LASF749:
 13522 21f0 48505458 		.ascii	"HPTXFSIZ\000"
 13522      4653495A 
 13522      00
 13523              	.LASF342:
 13524 21f9 63665F6F 		.ascii	"cf_off_prio\000"
 13524      66665F70 
 13524      72696F00 
 13525              	.LASF861:
 13526 2205 63685379 		.ascii	"chSysLockFromISR\000"
ARM GAS  C:\Users\PCHAUT~1\AppData\Local\Temp\ccR4smAG.s 			page 267


 13526      734C6F63 
 13526      6B46726F 
 13526      6D495352 
 13526      00
 13527              	.LASF313:
 13528 2216 74696D65 		.ascii	"time_measurement_t\000"
 13528      5F6D6561 
 13528      73757265 
 13528      6D656E74 
 13528      5F7400
 13529              	.LASF650:
 13530 2229 6765745F 		.ascii	"get_info\000"
 13530      696E666F 
 13530      00
 13531              	.LASF441:
 13532 2232 61646365 		.ascii	"adcerror_t\000"
 13532      72726F72 
 13532      5F7400
 13533              	.LASF815:
 13534 223d 6765745F 		.ascii	"get_descriptor_cb\000"
 13534      64657363 
 13534      72697074 
 13534      6F725F63 
 13534      6200
 13535              	.LASF32:
 13536 224f 6576656E 		.ascii	"eventflags_t\000"
 13536      74666C61 
 13536      67735F74 
 13536      00
 13537              	.LASF654:
 13538 225c 5350495F 		.ascii	"SPI_READY\000"
 13538      52454144 
 13538      5900
 13539              	.LASF215:
 13540 2266 73464946 		.ascii	"sFIFOMailBox\000"
 13540      4F4D6169 
 13540      6C426F78 
 13540      00
 13541              	.LASF642:
 13542 2273 6275735F 		.ascii	"bus_width\000"
 13542      77696474 
 13542      6800
 13543              	.LASF236:
 13544 227d 44485238 		.ascii	"DHR8RD\000"
 13544      524400
 13545              	.LASF764:
 13546 2284 4443544C 		.ascii	"DCTL\000"
 13546      00
 13547              	.LASF644:
 13548 2289 53444344 		.ascii	"SDCDriverVMT\000"
 13548      72697665 
 13548      72564D54 
 13548      00
 13549              	.LASF790:
 13550 2296 74786275 		.ascii	"txbuf\000"
 13550      6600
 13551              	.LASF783:
ARM GAS  C:\Users\PCHAUT~1\AppData\Local\Temp\ccR4smAG.s 			page 268


 13552 229c 50434743 		.ascii	"PCGCCTL\000"
 13552      43544C00 
 13553              	.LASF701:
 13554 22a4 5553425F 		.ascii	"USB_EVENT_WAKEUP\000"
 13554      4556454E 
 13554      545F5741 
 13554      4B455550 
 13554      00
 13555              	.LASF871:
 13556 22b5 5F5F7365 		.ascii	"__set_BASEPRI\000"
 13556      745F4241 
 13556      53455052 
 13556      4900
 13557              	.LASF42:
 13558 22c3 705F6F6C 		.ascii	"p_older\000"
 13558      64657200 
 13559              	.LASF395:
 13560 22cb 424C4B5F 		.ascii	"BLK_SYNCING\000"
 13560      53594E43 
 13560      494E4700 
 13561              	.LASF426:
 13562 22d7 50494461 		.ascii	"PIData\000"
 13562      746100
 13563              	.LASF812:
 13564 22de 73657475 		.ascii	"setup_buf\000"
 13564      705F6275 
 13564      6600
 13565              	.LASF551:
 13566 22e8 47505444 		.ascii	"GPTD6\000"
 13566      3600
 13567              	.LASF148:
 13568 22ee 54494D38 		.ascii	"TIM8_UP_TIM13_IRQn\000"
 13568      5F55505F 
 13568      54494D31 
 13568      335F4952 
 13568      516E00
 13569              	.LASF457:
 13570 2301 6572726F 		.ascii	"error_cb\000"
 13570      725F6362 
 13570      00
 13571              	.LASF391:
 13572 230a 424C4B5F 		.ascii	"BLK_DISCONNECTING\000"
 13572      44495343 
 13572      4F4E4E45 
 13572      4354494E 
 13572      4700
 13573              	.LASF660:
 13574 231c 7373706F 		.ascii	"ssport\000"
 13574      727400
 13575              	.LASF839:
 13576 2323 6F706D6F 		.ascii	"opmode\000"
 13576      646500
 13577              	.LASF58:
 13578 232a 74687265 		.ascii	"thread_reference_t\000"
 13578      61645F72 
 13578      65666572 
 13578      656E6365 
ARM GAS  C:\Users\PCHAUT~1\AppData\Local\Temp\ccR4smAG.s 			page 269


 13578      5F7400
 13579              	.LASF520:
 13580 233d 65787063 		.ascii	"expchannel_t\000"
 13580      68616E6E 
 13580      656C5F74 
 13580      00
 13581              	.LASF666:
 13582 234a 72656365 		.ascii	"receiving\000"
 13582      6976696E 
 13582      6700
 13583              	.LASF547:
 13584 2354 66726571 		.ascii	"frequency\000"
 13584      75656E63 
 13584      7900
 13585              	.LASF308:
 13586 235e 746D5F63 		.ascii	"tm_calibration_t\000"
 13586      616C6962 
 13586      72617469 
 13586      6F6E5F74 
 13586      00
 13587              	.LASF664:
 13588 236f 55534244 		.ascii	"USBDriver\000"
 13588      72697665 
 13588      7200
 13589              	.LASF809:
 13590 2379 696E5F73 		.ascii	"in_state\000"
 13590      74617465 
 13590      00
 13591              	.LASF292:
 13592 2382 47545052 		.ascii	"GTPR\000"
 13592      00
 13593              	.LASF336:
 13594 2387 63685F7A 		.ascii	"ch_zero\000"
 13594      65726F00 
 13595              	.LASF105:
 13596 238f 5056445F 		.ascii	"PVD_IRQn\000"
 13596      4952516E 
 13596      00
 13597              	.LASF280:
 13598 2398 44435452 		.ascii	"DCTRL\000"
 13598      4C00
 13599              	.LASF341:
 13600 239e 63685F74 		.ascii	"ch_threadsize\000"
 13600      68726561 
 13600      6473697A 
 13600      6500
 13601              	.LASF869:
 13602 23ac 2E2E2F6C 		.ascii	"../lib/e-puck2_main-processor/ChibiOS//os/hal/ports"
 13602      69622F65 
 13602      2D707563 
 13602      6B325F6D 
 13602      61696E2D 
 13603 23df 2F53544D 		.ascii	"/STM32/LLD/I2Cv1/i2c_lld.c\000"
 13603      33322F4C 
 13603      4C442F49 
 13603      32437631 
 13603      2F693263 
ARM GAS  C:\Users\PCHAUT~1\AppData\Local\Temp\ccR4smAG.s 			page 270


 13604              	.LASF538:
 13605 23fa 43434D52 		.ascii	"CCMR1\000"
 13605      3100
 13606              	.LASF539:
 13607 2400 43434D52 		.ascii	"CCMR2\000"
 13607      3200
 13608              	.LASF543:
 13609 2406 43434D52 		.ascii	"CCMR3\000"
 13609      3300
 13610              	.LASF0:
 13611 240c 756E7369 		.ascii	"unsigned int\000"
 13611      676E6564 
 13611      20696E74 
 13611      00
 13612              	.LASF461:
 13613 2419 73717232 		.ascii	"sqr2\000"
 13613      00
 13614              	.LASF462:
 13615 241e 73717233 		.ascii	"sqr3\000"
 13615      00
 13616              	.LASF753:
 13617 2423 48464952 		.ascii	"HFIR\000"
 13617      00
 13618              	.LASF683:
 13619 2428 5553425F 		.ascii	"USB_UNINIT\000"
 13619      554E494E 
 13619      495400
 13620              	.LASF379:
 13621 2433 73747265 		.ascii	"stream\000"
 13621      616D00
 13622              	.LASF464:
 13623 243a 64756D6D 		.ascii	"dummy\000"
 13623      7900
 13624              	.LASF565:
 13625 2440 6932636F 		.ascii	"i2copmode_t\000"
 13625      706D6F64 
 13625      655F7400 
 13626              	.LASF357:
 13627 244c 6576656E 		.ascii	"event_listener\000"
 13627      745F6C69 
 13627      7374656E 
 13627      657200
 13628              	.LASF8:
 13629 245b 73686F72 		.ascii	"short int\000"
 13629      7420696E 
 13629      7400
 13630              	.LASF134:
 13631 2465 54494D34 		.ascii	"TIM4_IRQn\000"
 13631      5F495251 
 13631      6E00
 13632              	.LASF837:
 13633 246f 72656753 		.ascii	"regSR2\000"
 13633      523200
 13634              	.LASF707:
 13635 2476 75736263 		.ascii	"usbcallback_t\000"
 13635      616C6C62 
 13635      61636B5F 
ARM GAS  C:\Users\PCHAUT~1\AppData\Local\Temp\ccR4smAG.s 			page 271


 13635      7400
 13636              	.LASF736:
 13637 2484 47555342 		.ascii	"GUSBCFG\000"
 13637      43464700 
 13638              	.LASF293:
 13639 248c 55534152 		.ascii	"USART_TypeDef\000"
 13639      545F5479 
 13639      70654465 
 13639      6600
 13640              	.LASF378:
 13641 249a 6F757470 		.ascii	"output_queue_t\000"
 13641      75745F71 
 13641      75657565 
 13641      5F7400
 13642              	.LASF785:
 13643 24a9 73746D33 		.ascii	"stm32_otg_t\000"
 13643      325F6F74 
 13643      675F7400 
 13644              	.LASF588:
 13645 24b5 49325344 		.ascii	"I2SDriver\000"
 13645      72697665 
 13645      7200
 13646              	.LASF170:
 13647 24bf 43414E32 		.ascii	"CAN2_SCE_IRQn\000"
 13647      5F534345 
 13647      5F495251 
 13647      6E00
 13648              	.LASF572:
 13649 24cd 64757479 		.ascii	"duty_cycle\000"
 13649      5F637963 
 13649      6C6500
 13650              	.LASF595:
 13651 24d8 49325343 		.ascii	"I2SConfig\000"
 13651      6F6E6669 
 13651      6700
 13652              	.LASF704:
 13653 24e2 75645F73 		.ascii	"ud_size\000"
 13653      697A6500 
 13654              	.LASF836:
 13655 24ea 6932635F 		.ascii	"i2c_lld_serve_event_interrupt\000"
 13655      6C6C645F 
 13655      73657276 
 13655      655F6576 
 13655      656E745F 
 13656              	.LASF257:
 13657 2508 41484232 		.ascii	"AHB2ENR\000"
 13657      454E5200 
 13658              	.LASF251:
 13659 2510 41484231 		.ascii	"AHB1RSTR\000"
 13659      52535452 
 13659      00
 13660              	.LASF133:
 13661 2519 54494D33 		.ascii	"TIM3_IRQn\000"
 13661      5F495251 
 13661      6E00
 13662              	.LASF855:
 13663 2523 6F73616C 		.ascii	"osalSysHalt\000"
ARM GAS  C:\Users\PCHAUT~1\AppData\Local\Temp\ccR4smAG.s 			page 272


 13663      53797348 
 13663      616C7400 
 13664              	.LASF807:
 13665 252f 696E5F6D 		.ascii	"in_maxsize\000"
 13665      61787369 
 13665      7A6500
 13666              	.LASF423:
 13667 253a 50464461 		.ascii	"PFData\000"
 13667      746100
 13668              	.LASF516:
 13669 2541 4558545F 		.ascii	"EXT_STOP\000"
 13669      53544F50 
 13669      00
 13670              	.LASF834:
 13671 254a 666C6167 		.ascii	"flags\000"
 13671      7300
 13672              	.LASF45:
 13673 2550 705F7374 		.ascii	"p_state\000"
 13673      61746500 
 13674              	.LASF596:
 13675 2558 49325344 		.ascii	"I2SD2\000"
 13675      3200
 13676              	.LASF645:
 13677 255e 69735F69 		.ascii	"is_inserted\000"
 13677      6E736572 
 13677      74656400 
 13678              	.LASF61:
 13679 256a 63685F74 		.ascii	"ch_threads_list\000"
 13679      68726561 
 13679      64735F6C 
 13679      69737400 
 13680              	.LASF281:
 13681 257a 44434F55 		.ascii	"DCOUNT\000"
 13681      4E5400
 13682              	.LASF244:
 13683 2581 4F415231 		.ascii	"OAR1\000"
 13683      00
 13684              	.LASF245:
 13685 2586 4F415232 		.ascii	"OAR2\000"
 13685      00
 13686              	.LASF98:
 13687 258b 42757346 		.ascii	"BusFault_IRQn\000"
 13687      61756C74 
 13687      5F495251 
 13687      6E00
 13688              	.LASF57:
 13689 2599 705F7374 		.ascii	"p_stats\000"
 13689      61747300 
 13690              	.LASF688:
 13691 25a1 75736273 		.ascii	"usbstate_t\000"
 13691      74617465 
 13691      5F7400
 13692              		.ident	"GCC: (GNU Tools for Arm Embedded Processors 7-2017-q4-major) 7.2.1 20170904 (release) [ARM
ARM GAS  C:\Users\PCHAUT~1\AppData\Local\Temp\ccR4smAG.s 			page 273


DEFINED SYMBOLS
                            *ABS*:00000000 i2c_lld.c
C:\Users\PCHAUT~1\AppData\Local\Temp\ccR4smAG.s:18     .text.port_lock:00000000 $t
C:\Users\PCHAUT~1\AppData\Local\Temp\ccR4smAG.s:25     .text.port_lock:00000000 port_lock
C:\Users\PCHAUT~1\AppData\Local\Temp\ccR4smAG.s:72     .text.port_lock:0000002c $d
C:\Users\PCHAUT~1\AppData\Local\Temp\ccR4smAG.s:77     .text.port_unlock:00000000 $t
C:\Users\PCHAUT~1\AppData\Local\Temp\ccR4smAG.s:84     .text.port_unlock:00000000 port_unlock
C:\Users\PCHAUT~1\AppData\Local\Temp\ccR4smAG.s:129    .text.port_unlock:0000002c $d
C:\Users\PCHAUT~1\AppData\Local\Temp\ccR4smAG.s:134    .text.port_lock_from_isr:00000000 $t
C:\Users\PCHAUT~1\AppData\Local\Temp\ccR4smAG.s:141    .text.port_lock_from_isr:00000000 port_lock_from_isr
C:\Users\PCHAUT~1\AppData\Local\Temp\ccR4smAG.s:174    .text.port_lock_from_isr:00000024 $d
C:\Users\PCHAUT~1\AppData\Local\Temp\ccR4smAG.s:179    .text.port_unlock_from_isr:00000000 $t
C:\Users\PCHAUT~1\AppData\Local\Temp\ccR4smAG.s:186    .text.port_unlock_from_isr:00000000 port_unlock_from_isr
C:\Users\PCHAUT~1\AppData\Local\Temp\ccR4smAG.s:219    .text.port_unlock_from_isr:00000024 $d
C:\Users\PCHAUT~1\AppData\Local\Temp\ccR4smAG.s:224    .text.chSysLock:00000000 $t
C:\Users\PCHAUT~1\AppData\Local\Temp\ccR4smAG.s:231    .text.chSysLock:00000000 chSysLock
C:\Users\PCHAUT~1\AppData\Local\Temp\ccR4smAG.s:269    .text.chSysLock:0000002c $d
C:\Users\PCHAUT~1\AppData\Local\Temp\ccR4smAG.s:274    .text.chSysUnlock:00000000 $t
C:\Users\PCHAUT~1\AppData\Local\Temp\ccR4smAG.s:281    .text.chSysUnlock:00000000 chSysUnlock
C:\Users\PCHAUT~1\AppData\Local\Temp\ccR4smAG.s:337    .text.chSysUnlock:0000004c $d
C:\Users\PCHAUT~1\AppData\Local\Temp\ccR4smAG.s:2976   .rodata.__func__.7153:00000000 __func__.7153
C:\Users\PCHAUT~1\AppData\Local\Temp\ccR4smAG.s:344    .text.chSysLockFromISR:00000000 $t
C:\Users\PCHAUT~1\AppData\Local\Temp\ccR4smAG.s:351    .text.chSysLockFromISR:00000000 chSysLockFromISR
C:\Users\PCHAUT~1\AppData\Local\Temp\ccR4smAG.s:388    .text.chSysLockFromISR:0000002c $d
C:\Users\PCHAUT~1\AppData\Local\Temp\ccR4smAG.s:393    .text.chSysUnlockFromISR:00000000 $t
C:\Users\PCHAUT~1\AppData\Local\Temp\ccR4smAG.s:400    .text.chSysUnlockFromISR:00000000 chSysUnlockFromISR
C:\Users\PCHAUT~1\AppData\Local\Temp\ccR4smAG.s:437    .text.chSysUnlockFromISR:0000002c $d
C:\Users\PCHAUT~1\AppData\Local\Temp\ccR4smAG.s:442    .text.chVTGetSystemTimeX:00000000 $t
C:\Users\PCHAUT~1\AppData\Local\Temp\ccR4smAG.s:449    .text.chVTGetSystemTimeX:00000000 chVTGetSystemTimeX
C:\Users\PCHAUT~1\AppData\Local\Temp\ccR4smAG.s:484    .text.chVTGetSystemTimeX:00000024 $d
C:\Users\PCHAUT~1\AppData\Local\Temp\ccR4smAG.s:490    .text.chVTIsTimeWithinX:00000000 $t
C:\Users\PCHAUT~1\AppData\Local\Temp\ccR4smAG.s:497    .text.chVTIsTimeWithinX:00000000 chVTIsTimeWithinX
C:\Users\PCHAUT~1\AppData\Local\Temp\ccR4smAG.s:543    .text.chVTIsTimeWithinX:0000003c $d
C:\Users\PCHAUT~1\AppData\Local\Temp\ccR4smAG.s:548    .text.osalSysHalt:00000000 $t
C:\Users\PCHAUT~1\AppData\Local\Temp\ccR4smAG.s:555    .text.osalSysHalt:00000000 osalSysHalt
C:\Users\PCHAUT~1\AppData\Local\Temp\ccR4smAG.s:591    .text.osalSysHalt:00000028 $d
C:\Users\PCHAUT~1\AppData\Local\Temp\ccR4smAG.s:596    .text.osalSysLock:00000000 $t
C:\Users\PCHAUT~1\AppData\Local\Temp\ccR4smAG.s:603    .text.osalSysLock:00000000 osalSysLock
C:\Users\PCHAUT~1\AppData\Local\Temp\ccR4smAG.s:636    .text.osalSysLock:00000024 $d
C:\Users\PCHAUT~1\AppData\Local\Temp\ccR4smAG.s:641    .text.osalSysUnlock:00000000 $t
C:\Users\PCHAUT~1\AppData\Local\Temp\ccR4smAG.s:648    .text.osalSysUnlock:00000000 osalSysUnlock
C:\Users\PCHAUT~1\AppData\Local\Temp\ccR4smAG.s:681    .text.osalSysUnlock:00000024 $d
C:\Users\PCHAUT~1\AppData\Local\Temp\ccR4smAG.s:686    .text.osalSysLockFromISR:00000000 $t
C:\Users\PCHAUT~1\AppData\Local\Temp\ccR4smAG.s:693    .text.osalSysLockFromISR:00000000 osalSysLockFromISR
C:\Users\PCHAUT~1\AppData\Local\Temp\ccR4smAG.s:726    .text.osalSysLockFromISR:00000024 $d
C:\Users\PCHAUT~1\AppData\Local\Temp\ccR4smAG.s:731    .text.osalSysUnlockFromISR:00000000 $t
C:\Users\PCHAUT~1\AppData\Local\Temp\ccR4smAG.s:738    .text.osalSysUnlockFromISR:00000000 osalSysUnlockFromISR
C:\Users\PCHAUT~1\AppData\Local\Temp\ccR4smAG.s:771    .text.osalSysUnlockFromISR:00000024 $d
C:\Users\PCHAUT~1\AppData\Local\Temp\ccR4smAG.s:776    .text.osalOsGetSystemTimeX:00000000 $t
C:\Users\PCHAUT~1\AppData\Local\Temp\ccR4smAG.s:783    .text.osalOsGetSystemTimeX:00000000 osalOsGetSystemTimeX
C:\Users\PCHAUT~1\AppData\Local\Temp\ccR4smAG.s:817    .text.osalOsGetSystemTimeX:00000028 $d
C:\Users\PCHAUT~1\AppData\Local\Temp\ccR4smAG.s:822    .text.osalOsIsTimeWithinX:00000000 $t
C:\Users\PCHAUT~1\AppData\Local\Temp\ccR4smAG.s:829    .text.osalOsIsTimeWithinX:00000000 osalOsIsTimeWithinX
C:\Users\PCHAUT~1\AppData\Local\Temp\ccR4smAG.s:869    .text.osalOsIsTimeWithinX:00000034 $d
C:\Users\PCHAUT~1\AppData\Local\Temp\ccR4smAG.s:874    .text.osalThreadSuspendTimeoutS:00000000 $t
C:\Users\PCHAUT~1\AppData\Local\Temp\ccR4smAG.s:881    .text.osalThreadSuspendTimeoutS:00000000 osalThreadSuspendTimeoutS
C:\Users\PCHAUT~1\AppData\Local\Temp\ccR4smAG.s:919    .text.osalThreadSuspendTimeoutS:00000030 $d
ARM GAS  C:\Users\PCHAUT~1\AppData\Local\Temp\ccR4smAG.s 			page 274


C:\Users\PCHAUT~1\AppData\Local\Temp\ccR4smAG.s:924    .text.osalThreadResumeI:00000000 $t
C:\Users\PCHAUT~1\AppData\Local\Temp\ccR4smAG.s:931    .text.osalThreadResumeI:00000000 osalThreadResumeI
C:\Users\PCHAUT~1\AppData\Local\Temp\ccR4smAG.s:968    .text.osalThreadResumeI:0000002c $d
C:\Users\PCHAUT~1\AppData\Local\Temp\ccR4smAG.s:977    .bss.I2CD1:00000000 I2CD1
C:\Users\PCHAUT~1\AppData\Local\Temp\ccR4smAG.s:974    .bss.I2CD1:00000000 $d
C:\Users\PCHAUT~1\AppData\Local\Temp\ccR4smAG.s:980    .text.i2c_lld_abort_operation:00000000 $t
C:\Users\PCHAUT~1\AppData\Local\Temp\ccR4smAG.s:987    .text.i2c_lld_abort_operation:00000000 i2c_lld_abort_operation
C:\Users\PCHAUT~1\AppData\Local\Temp\ccR4smAG.s:1103   .text.i2c_lld_abort_operation:000000bc $d
C:\Users\PCHAUT~1\AppData\Local\Temp\ccR4smAG.s:1108   .text.i2c_lld_set_clock:00000000 $t
C:\Users\PCHAUT~1\AppData\Local\Temp\ccR4smAG.s:1115   .text.i2c_lld_set_clock:00000000 i2c_lld_set_clock
C:\Users\PCHAUT~1\AppData\Local\Temp\ccR4smAG.s:1374   .text.i2c_lld_set_clock:000001e0 $d
C:\Users\PCHAUT~1\AppData\Local\Temp\ccR4smAG.s:2964   .rodata.__func__.9857:00000000 __func__.9857
C:\Users\PCHAUT~1\AppData\Local\Temp\ccR4smAG.s:1384   .text.i2c_lld_set_opmode:00000000 $t
C:\Users\PCHAUT~1\AppData\Local\Temp\ccR4smAG.s:1391   .text.i2c_lld_set_opmode:00000000 i2c_lld_set_opmode
C:\Users\PCHAUT~1\AppData\Local\Temp\ccR4smAG.s:1473   .text.i2c_lld_set_opmode:00000088 $d
C:\Users\PCHAUT~1\AppData\Local\Temp\ccR4smAG.s:1478   .text.i2c_lld_serve_event_interrupt:00000000 $t
C:\Users\PCHAUT~1\AppData\Local\Temp\ccR4smAG.s:1485   .text.i2c_lld_serve_event_interrupt:00000000 i2c_lld_serve_event_interrupt
C:\Users\PCHAUT~1\AppData\Local\Temp\ccR4smAG.s:1722   .text.i2c_lld_serve_event_interrupt:00000188 $d
C:\Users\PCHAUT~1\AppData\Local\Temp\ccR4smAG.s:1732   .rodata:00000000 $d
C:\Users\PCHAUT~1\AppData\Local\Temp\ccR4smAG.s:1736   .text.i2c_lld_serve_rx_end_irq:00000000 $t
C:\Users\PCHAUT~1\AppData\Local\Temp\ccR4smAG.s:1743   .text.i2c_lld_serve_rx_end_irq:00000000 i2c_lld_serve_rx_end_irq
C:\Users\PCHAUT~1\AppData\Local\Temp\ccR4smAG.s:1847   .text.i2c_lld_serve_rx_end_irq:000000b0 $d
C:\Users\PCHAUT~1\AppData\Local\Temp\ccR4smAG.s:1853   .text.i2c_lld_serve_tx_end_irq:00000000 $t
C:\Users\PCHAUT~1\AppData\Local\Temp\ccR4smAG.s:1860   .text.i2c_lld_serve_tx_end_irq:00000000 i2c_lld_serve_tx_end_irq
C:\Users\PCHAUT~1\AppData\Local\Temp\ccR4smAG.s:1944   .text.i2c_lld_serve_tx_end_irq:00000084 $d
C:\Users\PCHAUT~1\AppData\Local\Temp\ccR4smAG.s:1950   .text.i2c_lld_serve_error_interrupt:00000000 $t
C:\Users\PCHAUT~1\AppData\Local\Temp\ccR4smAG.s:1957   .text.i2c_lld_serve_error_interrupt:00000000 i2c_lld_serve_error_interrupt
C:\Users\PCHAUT~1\AppData\Local\Temp\ccR4smAG.s:2170   .text.i2c_lld_serve_error_interrupt:00000188 $d
C:\Users\PCHAUT~1\AppData\Local\Temp\ccR4smAG.s:2175   .text.VectorBC:00000000 $t
C:\Users\PCHAUT~1\AppData\Local\Temp\ccR4smAG.s:2183   .text.VectorBC:00000000 VectorBC
C:\Users\PCHAUT~1\AppData\Local\Temp\ccR4smAG.s:2223   .text.VectorBC:00000038 $d
C:\Users\PCHAUT~1\AppData\Local\Temp\ccR4smAG.s:2229   .text.VectorC0:00000000 $t
C:\Users\PCHAUT~1\AppData\Local\Temp\ccR4smAG.s:2237   .text.VectorC0:00000000 VectorC0
C:\Users\PCHAUT~1\AppData\Local\Temp\ccR4smAG.s:2291   .text.VectorC0:00000058 $d
C:\Users\PCHAUT~1\AppData\Local\Temp\ccR4smAG.s:2297   .text.i2c_lld_init:00000000 $t
C:\Users\PCHAUT~1\AppData\Local\Temp\ccR4smAG.s:2305   .text.i2c_lld_init:00000000 i2c_lld_init
C:\Users\PCHAUT~1\AppData\Local\Temp\ccR4smAG.s:2355   .text.i2c_lld_init:00000040 $d
C:\Users\PCHAUT~1\AppData\Local\Temp\ccR4smAG.s:2364   .text.i2c_lld_start:00000000 $t
C:\Users\PCHAUT~1\AppData\Local\Temp\ccR4smAG.s:2372   .text.i2c_lld_start:00000000 i2c_lld_start
C:\Users\PCHAUT~1\AppData\Local\Temp\ccR4smAG.s:2538   .text.i2c_lld_start:00000124 $d
C:\Users\PCHAUT~1\AppData\Local\Temp\ccR4smAG.s:2970   .rodata.__func__.9922:00000000 __func__.9922
C:\Users\PCHAUT~1\AppData\Local\Temp\ccR4smAG.s:2548   .text.i2c_lld_stop:00000000 $t
C:\Users\PCHAUT~1\AppData\Local\Temp\ccR4smAG.s:2556   .text.i2c_lld_stop:00000000 i2c_lld_stop
C:\Users\PCHAUT~1\AppData\Local\Temp\ccR4smAG.s:2624   .text.i2c_lld_stop:00000064 $d
C:\Users\PCHAUT~1\AppData\Local\Temp\ccR4smAG.s:2631   .text.i2c_lld_master_receive_timeout:00000000 $t
C:\Users\PCHAUT~1\AppData\Local\Temp\ccR4smAG.s:2639   .text.i2c_lld_master_receive_timeout:00000000 i2c_lld_master_receive_timeout
C:\Users\PCHAUT~1\AppData\Local\Temp\ccR4smAG.s:2781   .text.i2c_lld_master_receive_timeout:000000ec $d
C:\Users\PCHAUT~1\AppData\Local\Temp\ccR4smAG.s:2786   .text.i2c_lld_master_transmit_timeout:00000000 $t
C:\Users\PCHAUT~1\AppData\Local\Temp\ccR4smAG.s:2794   .text.i2c_lld_master_transmit_timeout:00000000 i2c_lld_master_transmit_timeout
C:\Users\PCHAUT~1\AppData\Local\Temp\ccR4smAG.s:2956   .text.i2c_lld_master_transmit_timeout:0000010c $d
C:\Users\PCHAUT~1\AppData\Local\Temp\ccR4smAG.s:2961   .rodata.__func__.9857:00000000 $d
C:\Users\PCHAUT~1\AppData\Local\Temp\ccR4smAG.s:2967   .rodata.__func__.9922:00000000 $d
C:\Users\PCHAUT~1\AppData\Local\Temp\ccR4smAG.s:2973   .rodata.__func__.7153:00000000 $d

UNDEFINED SYMBOLS
__stack_chk_fail
__stack_chk_guard
ARM GAS  C:\Users\PCHAUT~1\AppData\Local\Temp\ccR4smAG.s 			page 275


_stats_start_measure_crit_thd
_dbg_check_lock
_dbg_check_unlock
_stats_stop_measure_crit_thd
chSysHalt
ch
_stats_start_measure_crit_isr
_dbg_check_lock_from_isr
_dbg_check_unlock_from_isr
_stats_stop_measure_crit_isr
chThdSuspendTimeoutS
chThdResumeI
_stats_increase_irq
_dbg_check_enter_isr
_dbg_check_leave_isr
_port_irq_epilogue
i2cObjectInit
_stm32_dma_streams
dmaStreamAllocate
nvicEnableVector
dmaStreamRelease
nvicDisableVector
