ARM GAS  C:\Users\PCHAUT~1\AppData\Local\Temp\ccReaIrK.s 			page 1


   1              		.cpu cortex-m4
   2              		.eabi_attribute 27, 1
   3              		.eabi_attribute 28, 1
   4              		.eabi_attribute 20, 1
   5              		.eabi_attribute 21, 1
   6              		.eabi_attribute 23, 3
   7              		.eabi_attribute 24, 1
   8              		.eabi_attribute 25, 1
   9              		.eabi_attribute 26, 1
  10              		.eabi_attribute 30, 6
  11              		.eabi_attribute 34, 1
  12              		.eabi_attribute 18, 4
  13              		.file	"i2c_bus.c"
  14              		.text
  15              	.Ltext0:
  16              		.cfi_sections	.debug_frame
  17              		.section	.bss.errors,"aw",%nobits
  18              		.align	2
  19              		.type	errors, %object
  20              		.size	errors, 4
  21              	errors:
  22 0000 00000000 		.space	4
  23              		.section	.data.timeout,"aw",%progbits
  24              		.align	2
  25              		.type	timeout, %object
  26              		.size	timeout, 4
  27              	timeout:
  28 0000 04000000 		.word	4
  29              		.section	.text.i2c_start,"ax",%progbits
  30              		.align	1
  31              		.p2align 4,,15
  32              		.global	i2c_start
  33              		.syntax unified
  34              		.thumb
  35              		.thumb_func
  36              		.fpu fpv4-sp-d16
  37              		.type	i2c_start, %function
  38              	i2c_start:
  39              	.LFB256:
  40              		.file 1 "../lib/e-puck2_main-processor/src/i2c_bus.c"
  41              		.loc 1 8 0
  42              		.cfi_startproc
  43              		@ args = 0, pretend = 0, frame = 8
  44              		@ frame_needed = 0, uses_anonymous_args = 0
  45 0000 00B5     		push	{lr}
  46              		.cfi_def_cfa_offset 4
  47              		.cfi_offset 14, -4
  48 0002 83B0     		sub	sp, sp, #12
  49              		.cfi_def_cfa_offset 16
  50              		.loc 1 8 0
  51 0004 1E4B     		ldr	r3, .L8
  52 0006 1B68     		ldr	r3, [r3]
  53 0008 0193     		str	r3, [sp, #4]
  54              		.loc 1 10 0
  55 000a 1E4B     		ldr	r3, .L8+4
  56 000c 1B78     		ldrb	r3, [r3]	@ zero_extendqisi2
  57 000e 012B     		cmp	r3, #1
ARM GAS  C:\Users\PCHAUT~1\AppData\Local\Temp\ccReaIrK.s 			page 2


  58 0010 2BD1     		bne	.L7
  59              		.loc 1 26 0
  60 0012 0522     		movs	r2, #5
  61 0014 4FF48071 		mov	r1, #256
  62 0018 1B48     		ldr	r0, .L8+8
  63 001a FFF7FEFF 		bl	_pal_lld_setgroupmode
  64              	.LBB2:
  65              		.loc 1 28 0
  66 001e 0023     		movs	r3, #0
  67 0020 8DF80330 		strb	r3, [sp, #3]
  68 0024 0DE0     		b	.L4
  69              	.L5:
  70              		.loc 1 29 0 discriminator 3
  71 0026 184B     		ldr	r3, .L8+8
  72 0028 5B69     		ldr	r3, [r3, #20]
  73 002a 174A     		ldr	r2, .L8+8
  74 002c 83F48073 		eor	r3, r3, #256
  75 0030 5361     		str	r3, [r2, #20]
  76              		.loc 1 30 0 discriminator 3
  77 0032 0120     		movs	r0, #1
  78 0034 FFF7FEFF 		bl	chThdSleep
  79              		.loc 1 28 0 discriminator 3
  80 0038 9DF80330 		ldrb	r3, [sp, #3]	@ zero_extendqisi2
  81 003c 0133     		adds	r3, r3, #1
  82 003e 8DF80330 		strb	r3, [sp, #3]
  83              	.L4:
  84              		.loc 1 28 0 is_stmt 0 discriminator 1
  85 0042 9DF80330 		ldrb	r3, [sp, #3]	@ zero_extendqisi2
  86 0046 1F2B     		cmp	r3, #31
  87 0048 EDD9     		bls	.L5
  88              	.LBE2:
  89              		.loc 1 33 0 is_stmt 1
  90 004a 0F4B     		ldr	r3, .L8+8
  91 004c 4FF48072 		mov	r2, #256
  92 0050 1A83     		strh	r2, [r3, #24]	@ movhi
  93              		.loc 1 35 0
  94 0052 40F20622 		movw	r2, #518
  95 0056 4FF48071 		mov	r1, #256
  96 005a 0B48     		ldr	r0, .L8+8
  97 005c FFF7FEFF 		bl	_pal_lld_setgroupmode
  98              		.loc 1 36 0
  99 0060 0A49     		ldr	r1, .L8+12
 100 0062 0848     		ldr	r0, .L8+4
 101 0064 FFF7FEFF 		bl	i2cStart
 102 0068 00E0     		b	.L1
 103              	.L7:
 104              		.loc 1 11 0
 105 006a 00BF     		nop
 106              	.L1:
 107              		.loc 1 37 0
 108 006c 044B     		ldr	r3, .L8
 109 006e 019A     		ldr	r2, [sp, #4]
 110 0070 1B68     		ldr	r3, [r3]
 111 0072 9A42     		cmp	r2, r3
 112 0074 01D0     		beq	.L6
 113 0076 FFF7FEFF 		bl	__stack_chk_fail
 114              	.L6:
ARM GAS  C:\Users\PCHAUT~1\AppData\Local\Temp\ccReaIrK.s 			page 3


 115 007a 03B0     		add	sp, sp, #12
 116              		.cfi_def_cfa_offset 4
 117              		@ sp needed
 118 007c 5DF804FB 		ldr	pc, [sp], #4
 119              	.L9:
 120              		.align	2
 121              	.L8:
 122 0080 00000000 		.word	__stack_chk_guard
 123 0084 00000000 		.word	I2CD1
 124 0088 00040240 		.word	1073873920
 125 008c 00000000 		.word	i2c_cfg1.9862
 126              		.cfi_endproc
 127              	.LFE256:
 128              		.size	i2c_start, .-i2c_start
 129              		.section	.text.i2c_stop,"ax",%progbits
 130              		.align	1
 131              		.p2align 4,,15
 132              		.global	i2c_stop
 133              		.syntax unified
 134              		.thumb
 135              		.thumb_func
 136              		.fpu fpv4-sp-d16
 137              		.type	i2c_stop, %function
 138              	i2c_stop:
 139              	.LFB257:
 140              		.loc 1 39 0
 141              		.cfi_startproc
 142              		@ args = 0, pretend = 0, frame = 8
 143              		@ frame_needed = 0, uses_anonymous_args = 0
 144 0000 00B5     		push	{lr}
 145              		.cfi_def_cfa_offset 4
 146              		.cfi_offset 14, -4
 147 0002 83B0     		sub	sp, sp, #12
 148              		.cfi_def_cfa_offset 16
 149              		.loc 1 39 0
 150 0004 084B     		ldr	r3, .L12
 151 0006 1B68     		ldr	r3, [r3]
 152 0008 0193     		str	r3, [sp, #4]
 153              		.loc 1 40 0
 154 000a 0848     		ldr	r0, .L12+4
 155 000c FFF7FEFF 		bl	i2cStop
 156              		.loc 1 41 0
 157 0010 00BF     		nop
 158 0012 054B     		ldr	r3, .L12
 159 0014 019A     		ldr	r2, [sp, #4]
 160 0016 1B68     		ldr	r3, [r3]
 161 0018 9A42     		cmp	r2, r3
 162 001a 01D0     		beq	.L11
 163 001c FFF7FEFF 		bl	__stack_chk_fail
 164              	.L11:
 165 0020 03B0     		add	sp, sp, #12
 166              		.cfi_def_cfa_offset 4
 167              		@ sp needed
 168 0022 5DF804FB 		ldr	pc, [sp], #4
 169              	.L13:
 170 0026 00BF     		.align	2
 171              	.L12:
ARM GAS  C:\Users\PCHAUT~1\AppData\Local\Temp\ccReaIrK.s 			page 4


 172 0028 00000000 		.word	__stack_chk_guard
 173 002c 00000000 		.word	I2CD1
 174              		.cfi_endproc
 175              	.LFE257:
 176              		.size	i2c_stop, .-i2c_stop
 177              		.section	.text.get_last_i2c_error,"ax",%progbits
 178              		.align	1
 179              		.p2align 4,,15
 180              		.global	get_last_i2c_error
 181              		.syntax unified
 182              		.thumb
 183              		.thumb_func
 184              		.fpu fpv4-sp-d16
 185              		.type	get_last_i2c_error, %function
 186              	get_last_i2c_error:
 187              	.LFB258:
 188              		.loc 1 43 0
 189              		.cfi_startproc
 190              		@ args = 0, pretend = 0, frame = 8
 191              		@ frame_needed = 0, uses_anonymous_args = 0
 192 0000 00B5     		push	{lr}
 193              		.cfi_def_cfa_offset 4
 194              		.cfi_offset 14, -4
 195 0002 83B0     		sub	sp, sp, #12
 196              		.cfi_def_cfa_offset 16
 197              		.loc 1 43 0
 198 0004 074B     		ldr	r3, .L17
 199 0006 1B68     		ldr	r3, [r3]
 200 0008 0193     		str	r3, [sp, #4]
 201              		.loc 1 44 0
 202 000a 074B     		ldr	r3, .L17+4
 203 000c 1B68     		ldr	r3, [r3]
 204              		.loc 1 45 0
 205 000e 1846     		mov	r0, r3
 206 0010 044B     		ldr	r3, .L17
 207 0012 019A     		ldr	r2, [sp, #4]
 208 0014 1B68     		ldr	r3, [r3]
 209 0016 9A42     		cmp	r2, r3
 210 0018 01D0     		beq	.L16
 211 001a FFF7FEFF 		bl	__stack_chk_fail
 212              	.L16:
 213 001e 03B0     		add	sp, sp, #12
 214              		.cfi_def_cfa_offset 4
 215              		@ sp needed
 216 0020 5DF804FB 		ldr	pc, [sp], #4
 217              	.L18:
 218              		.align	2
 219              	.L17:
 220 0024 00000000 		.word	__stack_chk_guard
 221 0028 00000000 		.word	errors
 222              		.cfi_endproc
 223              	.LFE258:
 224              		.size	get_last_i2c_error, .-get_last_i2c_error
 225              		.section	.text.read_reg,"ax",%progbits
 226              		.align	1
 227              		.p2align 4,,15
 228              		.global	read_reg
ARM GAS  C:\Users\PCHAUT~1\AppData\Local\Temp\ccReaIrK.s 			page 5


 229              		.syntax unified
 230              		.thumb
 231              		.thumb_func
 232              		.fpu fpv4-sp-d16
 233              		.type	read_reg, %function
 234              	read_reg:
 235              	.LFB259:
 236              		.loc 1 47 0
 237              		.cfi_startproc
 238              		@ args = 0, pretend = 0, frame = 24
 239              		@ frame_needed = 0, uses_anonymous_args = 0
 240 0000 00B5     		push	{lr}
 241              		.cfi_def_cfa_offset 4
 242              		.cfi_offset 14, -4
 243 0002 8BB0     		sub	sp, sp, #44
 244              		.cfi_def_cfa_offset 48
 245 0004 0346     		mov	r3, r0
 246 0006 0492     		str	r2, [sp, #16]
 247 0008 8DF81730 		strb	r3, [sp, #23]
 248 000c 0B46     		mov	r3, r1
 249 000e 8DF81630 		strb	r3, [sp, #22]
 250              		.loc 1 47 0
 251 0012 254B     		ldr	r3, .L25
 252 0014 1B68     		ldr	r3, [r3]
 253 0016 0993     		str	r3, [sp, #36]
 254              		.loc 1 49 0
 255 0018 9DF81630 		ldrb	r3, [sp, #22]
 256 001c 8DF81C30 		strb	r3, [sp, #28]
 257              		.loc 1 50 0
 258 0020 0023     		movs	r3, #0
 259 0022 8DF82030 		strb	r3, [sp, #32]
 260              		.loc 1 52 0
 261 0026 2148     		ldr	r0, .L25+4
 262 0028 FFF7FEFF 		bl	i2cAcquireBus
 263              		.loc 1 53 0
 264 002c 1F4B     		ldr	r3, .L25+4
 265 002e 1B78     		ldrb	r3, [r3]	@ zero_extendqisi2
 266 0030 012B     		cmp	r3, #1
 267 0032 26D0     		beq	.L20
 268              	.LBB3:
 269              		.loc 1 54 0
 270 0034 9DF81730 		ldrb	r3, [sp, #23]	@ zero_extendqisi2
 271 0038 99B2     		uxth	r1, r3
 272 003a 1D4B     		ldr	r3, .L25+8
 273 003c 1B68     		ldr	r3, [r3]
 274 003e 07AA     		add	r2, sp, #28
 275 0040 0293     		str	r3, [sp, #8]
 276 0042 0123     		movs	r3, #1
 277 0044 0193     		str	r3, [sp, #4]
 278 0046 08AB     		add	r3, sp, #32
 279 0048 0093     		str	r3, [sp]
 280 004a 0123     		movs	r3, #1
 281 004c 1748     		ldr	r0, .L25+4
 282 004e FFF7FEFF 		bl	i2cMasterTransmitTimeout
 283 0052 0690     		str	r0, [sp, #24]
 284              		.loc 1 55 0
 285 0054 069B     		ldr	r3, [sp, #24]
ARM GAS  C:\Users\PCHAUT~1\AppData\Local\Temp\ccReaIrK.s 			page 6


 286 0056 002B     		cmp	r3, #0
 287 0058 13D0     		beq	.L20
 288              		.loc 1 56 0
 289 005a 1448     		ldr	r0, .L25+4
 290 005c FFF7FEFF 		bl	i2cGetErrors
 291 0060 0246     		mov	r2, r0
 292 0062 144B     		ldr	r3, .L25+12
 293 0064 1A60     		str	r2, [r3]
 294              		.loc 1 57 0
 295 0066 114B     		ldr	r3, .L25+4
 296 0068 1B78     		ldrb	r3, [r3]	@ zero_extendqisi2
 297 006a 052B     		cmp	r3, #5
 298 006c 03D1     		bne	.L21
 299              		.loc 1 58 0
 300 006e FFF7FEFF 		bl	i2c_stop
 301              		.loc 1 59 0
 302 0072 FFF7FEFF 		bl	i2c_start
 303              	.L21:
 304              		.loc 1 61 0
 305 0076 0D48     		ldr	r0, .L25+4
 306 0078 FFF7FEFF 		bl	i2cReleaseBus
 307              		.loc 1 62 0
 308 007c 069B     		ldr	r3, [sp, #24]
 309 007e 5BB2     		sxtb	r3, r3
 310 0080 07E0     		b	.L23
 311              	.L20:
 312              	.LBE3:
 313              		.loc 1 65 0
 314 0082 0A48     		ldr	r0, .L25+4
 315 0084 FFF7FEFF 		bl	i2cReleaseBus
 316              		.loc 1 67 0
 317 0088 9DF82020 		ldrb	r2, [sp, #32]	@ zero_extendqisi2
 318 008c 049B     		ldr	r3, [sp, #16]
 319 008e 1A70     		strb	r2, [r3]
 320              		.loc 1 69 0
 321 0090 0023     		movs	r3, #0
 322              	.L23:
 323              		.loc 1 70 0 discriminator 1
 324 0092 1846     		mov	r0, r3
 325 0094 044B     		ldr	r3, .L25
 326 0096 099A     		ldr	r2, [sp, #36]
 327 0098 1B68     		ldr	r3, [r3]
 328 009a 9A42     		cmp	r2, r3
 329 009c 01D0     		beq	.L24
 330              		.loc 1 70 0 is_stmt 0
 331 009e FFF7FEFF 		bl	__stack_chk_fail
 332              	.L24:
 333 00a2 0BB0     		add	sp, sp, #44
 334              		.cfi_def_cfa_offset 4
 335              		@ sp needed
 336 00a4 5DF804FB 		ldr	pc, [sp], #4
 337              	.L26:
 338              		.align	2
 339              	.L25:
 340 00a8 00000000 		.word	__stack_chk_guard
 341 00ac 00000000 		.word	I2CD1
 342 00b0 00000000 		.word	timeout
ARM GAS  C:\Users\PCHAUT~1\AppData\Local\Temp\ccReaIrK.s 			page 7


 343 00b4 00000000 		.word	errors
 344              		.cfi_endproc
 345              	.LFE259:
 346              		.size	read_reg, .-read_reg
 347              		.section	.text.write_reg,"ax",%progbits
 348              		.align	1
 349              		.p2align 4,,15
 350              		.global	write_reg
 351              		.syntax unified
 352              		.thumb
 353              		.thumb_func
 354              		.fpu fpv4-sp-d16
 355              		.type	write_reg, %function
 356              	write_reg:
 357              	.LFB260:
 358              		.loc 1 73 0 is_stmt 1
 359              		.cfi_startproc
 360              		@ args = 0, pretend = 0, frame = 24
 361              		@ frame_needed = 0, uses_anonymous_args = 0
 362 0000 00B5     		push	{lr}
 363              		.cfi_def_cfa_offset 4
 364              		.cfi_offset 14, -4
 365 0002 8BB0     		sub	sp, sp, #44
 366              		.cfi_def_cfa_offset 48
 367 0004 0346     		mov	r3, r0
 368 0006 8DF81730 		strb	r3, [sp, #23]
 369 000a 0B46     		mov	r3, r1
 370 000c 8DF81630 		strb	r3, [sp, #22]
 371 0010 1346     		mov	r3, r2
 372 0012 8DF81530 		strb	r3, [sp, #21]
 373              		.loc 1 73 0
 374 0016 254B     		ldr	r3, .L33
 375 0018 1B68     		ldr	r3, [r3]
 376 001a 0993     		str	r3, [sp, #36]
 377              		.loc 1 75 0
 378 001c 9DF81630 		ldrb	r3, [sp, #22]
 379 0020 8DF82030 		strb	r3, [sp, #32]
 380 0024 9DF81530 		ldrb	r3, [sp, #21]
 381 0028 8DF82130 		strb	r3, [sp, #33]
 382              		.loc 1 76 0
 383 002c 0023     		movs	r3, #0
 384 002e 8DF81C30 		strb	r3, [sp, #28]
 385              		.loc 1 78 0
 386 0032 1F48     		ldr	r0, .L33+4
 387 0034 FFF7FEFF 		bl	i2cAcquireBus
 388              		.loc 1 79 0
 389 0038 1D4B     		ldr	r3, .L33+4
 390 003a 1B78     		ldrb	r3, [r3]	@ zero_extendqisi2
 391 003c 012B     		cmp	r3, #1
 392 003e 26D0     		beq	.L28
 393              	.LBB4:
 394              		.loc 1 80 0
 395 0040 9DF81730 		ldrb	r3, [sp, #23]	@ zero_extendqisi2
 396 0044 99B2     		uxth	r1, r3
 397 0046 1B4B     		ldr	r3, .L33+8
 398 0048 1B68     		ldr	r3, [r3]
 399 004a 08AA     		add	r2, sp, #32
ARM GAS  C:\Users\PCHAUT~1\AppData\Local\Temp\ccReaIrK.s 			page 8


 400 004c 0293     		str	r3, [sp, #8]
 401 004e 0023     		movs	r3, #0
 402 0050 0193     		str	r3, [sp, #4]
 403 0052 07AB     		add	r3, sp, #28
 404 0054 0093     		str	r3, [sp]
 405 0056 0223     		movs	r3, #2
 406 0058 1548     		ldr	r0, .L33+4
 407 005a FFF7FEFF 		bl	i2cMasterTransmitTimeout
 408 005e 0690     		str	r0, [sp, #24]
 409              		.loc 1 81 0
 410 0060 069B     		ldr	r3, [sp, #24]
 411 0062 002B     		cmp	r3, #0
 412 0064 13D0     		beq	.L28
 413              		.loc 1 82 0
 414 0066 1248     		ldr	r0, .L33+4
 415 0068 FFF7FEFF 		bl	i2cGetErrors
 416 006c 0246     		mov	r2, r0
 417 006e 124B     		ldr	r3, .L33+12
 418 0070 1A60     		str	r2, [r3]
 419              		.loc 1 83 0
 420 0072 0F4B     		ldr	r3, .L33+4
 421 0074 1B78     		ldrb	r3, [r3]	@ zero_extendqisi2
 422 0076 052B     		cmp	r3, #5
 423 0078 03D1     		bne	.L29
 424              		.loc 1 84 0
 425 007a FFF7FEFF 		bl	i2c_stop
 426              		.loc 1 85 0
 427 007e FFF7FEFF 		bl	i2c_start
 428              	.L29:
 429              		.loc 1 87 0
 430 0082 0B48     		ldr	r0, .L33+4
 431 0084 FFF7FEFF 		bl	i2cReleaseBus
 432              		.loc 1 88 0
 433 0088 069B     		ldr	r3, [sp, #24]
 434 008a 5BB2     		sxtb	r3, r3
 435 008c 03E0     		b	.L31
 436              	.L28:
 437              	.LBE4:
 438              		.loc 1 91 0
 439 008e 0848     		ldr	r0, .L33+4
 440 0090 FFF7FEFF 		bl	i2cReleaseBus
 441              		.loc 1 93 0
 442 0094 0023     		movs	r3, #0
 443              	.L31:
 444              		.loc 1 94 0 discriminator 1
 445 0096 1846     		mov	r0, r3
 446 0098 044B     		ldr	r3, .L33
 447 009a 099A     		ldr	r2, [sp, #36]
 448 009c 1B68     		ldr	r3, [r3]
 449 009e 9A42     		cmp	r2, r3
 450 00a0 01D0     		beq	.L32
 451              		.loc 1 94 0 is_stmt 0
 452 00a2 FFF7FEFF 		bl	__stack_chk_fail
 453              	.L32:
 454 00a6 0BB0     		add	sp, sp, #44
 455              		.cfi_def_cfa_offset 4
 456              		@ sp needed
ARM GAS  C:\Users\PCHAUT~1\AppData\Local\Temp\ccReaIrK.s 			page 9


 457 00a8 5DF804FB 		ldr	pc, [sp], #4
 458              	.L34:
 459              		.align	2
 460              	.L33:
 461 00ac 00000000 		.word	__stack_chk_guard
 462 00b0 00000000 		.word	I2CD1
 463 00b4 00000000 		.word	timeout
 464 00b8 00000000 		.word	errors
 465              		.cfi_endproc
 466              	.LFE260:
 467              		.size	write_reg, .-write_reg
 468              		.section	.text.read_reg_multi,"ax",%progbits
 469              		.align	1
 470              		.p2align 4,,15
 471              		.global	read_reg_multi
 472              		.syntax unified
 473              		.thumb
 474              		.thumb_func
 475              		.fpu fpv4-sp-d16
 476              		.type	read_reg_multi, %function
 477              	read_reg_multi:
 478              	.LFB261:
 479              		.loc 1 96 0 is_stmt 1
 480              		.cfi_startproc
 481              		@ args = 0, pretend = 0, frame = 16
 482              		@ frame_needed = 0, uses_anonymous_args = 0
 483 0000 00B5     		push	{lr}
 484              		.cfi_def_cfa_offset 4
 485              		.cfi_offset 14, -4
 486 0002 89B0     		sub	sp, sp, #36
 487              		.cfi_def_cfa_offset 40
 488 0004 0492     		str	r2, [sp, #16]
 489 0006 1A46     		mov	r2, r3
 490 0008 0346     		mov	r3, r0
 491 000a 8DF81730 		strb	r3, [sp, #23]
 492 000e 0B46     		mov	r3, r1
 493 0010 8DF81630 		strb	r3, [sp, #22]
 494 0014 1346     		mov	r3, r2
 495 0016 8DF81530 		strb	r3, [sp, #21]
 496              		.loc 1 96 0
 497 001a 214B     		ldr	r3, .L40
 498 001c 1B68     		ldr	r3, [r3]
 499 001e 0793     		str	r3, [sp, #28]
 500              		.loc 1 98 0
 501 0020 2048     		ldr	r0, .L40+4
 502 0022 FFF7FEFF 		bl	i2cAcquireBus
 503              		.loc 1 99 0
 504 0026 1F4B     		ldr	r3, .L40+4
 505 0028 1B78     		ldrb	r3, [r3]	@ zero_extendqisi2
 506 002a 012B     		cmp	r3, #1
 507 002c 29D0     		beq	.L36
 508              	.LBB5:
 509              		.loc 1 100 0
 510 002e 9DF81730 		ldrb	r3, [sp, #23]	@ zero_extendqisi2
 511 0032 99B2     		uxth	r1, r3
 512 0034 9DF91530 		ldrsb	r3, [sp, #21]
 513 0038 1B4A     		ldr	r2, .L40+8
ARM GAS  C:\Users\PCHAUT~1\AppData\Local\Temp\ccReaIrK.s 			page 10


 514 003a 1268     		ldr	r2, [r2]
 515 003c 0DF11600 		add	r0, sp, #22
 516 0040 0292     		str	r2, [sp, #8]
 517 0042 0193     		str	r3, [sp, #4]
 518 0044 049B     		ldr	r3, [sp, #16]
 519 0046 0093     		str	r3, [sp]
 520 0048 0123     		movs	r3, #1
 521 004a 0246     		mov	r2, r0
 522 004c 1548     		ldr	r0, .L40+4
 523 004e FFF7FEFF 		bl	i2cMasterTransmitTimeout
 524 0052 0690     		str	r0, [sp, #24]
 525              		.loc 1 101 0
 526 0054 069B     		ldr	r3, [sp, #24]
 527 0056 002B     		cmp	r3, #0
 528 0058 13D0     		beq	.L36
 529              		.loc 1 102 0
 530 005a 1248     		ldr	r0, .L40+4
 531 005c FFF7FEFF 		bl	i2cGetErrors
 532 0060 0246     		mov	r2, r0
 533 0062 124B     		ldr	r3, .L40+12
 534 0064 1A60     		str	r2, [r3]
 535              		.loc 1 103 0
 536 0066 0F4B     		ldr	r3, .L40+4
 537 0068 1B78     		ldrb	r3, [r3]	@ zero_extendqisi2
 538 006a 052B     		cmp	r3, #5
 539 006c 03D1     		bne	.L37
 540              		.loc 1 104 0
 541 006e FFF7FEFF 		bl	i2c_stop
 542              		.loc 1 105 0
 543 0072 FFF7FEFF 		bl	i2c_start
 544              	.L37:
 545              		.loc 1 107 0
 546 0076 0B48     		ldr	r0, .L40+4
 547 0078 FFF7FEFF 		bl	i2cReleaseBus
 548              		.loc 1 108 0
 549 007c 069B     		ldr	r3, [sp, #24]
 550 007e 5BB2     		sxtb	r3, r3
 551 0080 03E0     		b	.L38
 552              	.L36:
 553              	.LBE5:
 554              		.loc 1 111 0
 555 0082 0848     		ldr	r0, .L40+4
 556 0084 FFF7FEFF 		bl	i2cReleaseBus
 557              		.loc 1 113 0
 558 0088 0023     		movs	r3, #0
 559              	.L38:
 560              		.loc 1 114 0
 561 008a 1846     		mov	r0, r3
 562 008c 044B     		ldr	r3, .L40
 563 008e 079A     		ldr	r2, [sp, #28]
 564 0090 1B68     		ldr	r3, [r3]
 565 0092 9A42     		cmp	r2, r3
 566 0094 01D0     		beq	.L39
 567 0096 FFF7FEFF 		bl	__stack_chk_fail
 568              	.L39:
 569 009a 09B0     		add	sp, sp, #36
 570              		.cfi_def_cfa_offset 4
ARM GAS  C:\Users\PCHAUT~1\AppData\Local\Temp\ccReaIrK.s 			page 11


 571              		@ sp needed
 572 009c 5DF804FB 		ldr	pc, [sp], #4
 573              	.L41:
 574              		.align	2
 575              	.L40:
 576 00a0 00000000 		.word	__stack_chk_guard
 577 00a4 00000000 		.word	I2CD1
 578 00a8 00000000 		.word	timeout
 579 00ac 00000000 		.word	errors
 580              		.cfi_endproc
 581              	.LFE261:
 582              		.size	read_reg_multi, .-read_reg_multi
 583              		.section	.rodata.i2c_cfg1.9862,"a",%progbits
 584              		.align	2
 585              		.type	i2c_cfg1.9862, %object
 586              		.size	i2c_cfg1.9862, 12
 587              	i2c_cfg1.9862:
 588 0000 01       		.byte	1
 589 0001 000000   		.space	3
 590 0004 400D0300 		.word	200000
 591 0008 02       		.byte	2
 592 0009 000000   		.space	3
 593              		.text
 594              	.Letext0:
 595              		.file 2 "c:\\users\\pchautems\\documents\\robotiquetp\\eclipse_e-puck2\\tools\\gcc-arm-none-eabi-7
 596              		.file 3 "c:\\users\\pchautems\\documents\\robotiquetp\\eclipse_e-puck2\\tools\\gcc-arm-none-eabi-7
 597              		.file 4 "c:\\users\\pchautems\\documents\\robotiquetp\\eclipse_e-puck2\\tools\\gcc-arm-none-eabi-7
 598              		.file 5 "../lib/e-puck2_main-processor/ChibiOS//os/rt/ports/ARMCMx/compilers/GCC/chtypes.h"
 599              		.file 6 "../lib/e-puck2_main-processor/ChibiOS//os/rt/include/chsystypes.h"
 600              		.file 7 "../lib/e-puck2_main-processor/ChibiOS//os/rt/include/chschd.h"
 601              		.file 8 "../lib/e-puck2_main-processor/ChibiOS//os/ext/CMSIS/include/core_cm4.h"
 602              		.file 9 "../lib/e-puck2_main-processor/ChibiOS//os/ext/CMSIS/ST/system_stm32f4xx.h"
 603              		.file 10 "../lib/e-puck2_main-processor/ChibiOS//os/ext/CMSIS/ST/stm32f407xx.h"
 604              		.file 11 "../lib/e-puck2_main-processor/ChibiOS//os/rt/ports/ARMCMx/chcore.h"
 605              		.file 12 "../lib/e-puck2_main-processor/ChibiOS//os/rt/ports/ARMCMx/chcore_v7m.h"
 606              		.file 13 "../lib/e-puck2_main-processor/ChibiOS//os/rt/include/chdebug.h"
 607              		.file 14 "../lib/e-puck2_main-processor/ChibiOS//os/rt/include/chtm.h"
 608              		.file 15 "../lib/e-puck2_main-processor/ChibiOS//os/rt/include/chstats.h"
 609              		.file 16 "../lib/e-puck2_main-processor/ChibiOS//os/rt/include/chsem.h"
 610              		.file 17 "../lib/e-puck2_main-processor/ChibiOS//os/rt/include/chmtx.h"
 611              		.file 18 "../lib/e-puck2_main-processor/ChibiOS//os/rt/include/chregistry.h"
 612              		.file 19 "../lib/e-puck2_main-processor/ChibiOS//os/rt/include/chevents.h"
 613              		.file 20 "../lib/e-puck2_main-processor/ChibiOS//os/rt/include/chqueues.h"
 614              		.file 21 "../lib/e-puck2_main-processor/ChibiOS//os/hal/ports/STM32/STM32F4xx/stm32_dma.h"
 615              		.file 22 "../lib/e-puck2_main-processor/ChibiOS//os/hal/include/hal_ioblock.h"
 616              		.file 23 "../lib/e-puck2_main-processor/ChibiOS//os/hal/ports/STM32/LLD/GPIOv2/pal_lld.h"
 617              		.file 24 "../lib/e-puck2_main-processor/ChibiOS//os/hal/include/adc.h"
 618              		.file 25 "../lib/e-puck2_main-processor/ChibiOS//os/hal/ports/STM32/STM32F4xx/adc_lld.h"
 619              		.file 26 "../lib/e-puck2_main-processor/ChibiOS//os/hal/include/can.h"
 620              		.file 27 "../lib/e-puck2_main-processor/ChibiOS//os/hal/ports/STM32/LLD/can_lld.h"
 621              		.file 28 "../lib/e-puck2_main-processor/ChibiOS//os/hal/include/dac.h"
 622              		.file 29 "../lib/e-puck2_main-processor/ChibiOS//os/hal/ports/STM32/LLD/DACv1/dac_lld.h"
 623              		.file 30 "../lib/e-puck2_main-processor/ChibiOS//os/hal/include/ext.h"
 624              		.file 31 "../lib/e-puck2_main-processor/ChibiOS//os/hal/ports/STM32/LLD/ext_lld.h"
 625              		.file 32 "../lib/e-puck2_main-processor/ChibiOS//os/hal/include/gpt.h"
 626              		.file 33 "../lib/e-puck2_main-processor/ChibiOS//os/hal/ports/STM32/LLD/TIMv1/gpt_lld.h"
 627              		.file 34 "../lib/e-puck2_main-processor/ChibiOS//os/hal/ports/STM32/LLD/TIMv1/stm32_tim.h"
ARM GAS  C:\Users\PCHAUT~1\AppData\Local\Temp\ccReaIrK.s 			page 12


 628              		.file 35 "../lib/e-puck2_main-processor/ChibiOS//os/hal/include/i2c.h"
 629              		.file 36 "../lib/e-puck2_main-processor/ChibiOS//os/hal/ports/STM32/LLD/I2Cv1/i2c_lld.h"
 630              		.file 37 "../lib/e-puck2_main-processor/ChibiOS//os/hal/include/i2s.h"
 631              		.file 38 "../lib/e-puck2_main-processor/ChibiOS//os/hal/ports/STM32/LLD/SPIv1/i2s_lld.h"
 632              		.file 39 "../lib/e-puck2_main-processor/ChibiOS//os/hal/include/pwm.h"
 633              		.file 40 "../lib/e-puck2_main-processor/ChibiOS//os/hal/ports/STM32/LLD/TIMv1/pwm_lld.h"
 634              		.file 41 "../lib/e-puck2_main-processor/ChibiOS//os/hal/include/serial.h"
 635              		.file 42 "../lib/e-puck2_main-processor/ChibiOS//os/hal/ports/STM32/LLD/USARTv1/serial_lld.h"
 636              		.file 43 "../lib/e-puck2_main-processor/ChibiOS//os/hal/include/sdc.h"
 637              		.file 44 "../lib/e-puck2_main-processor/ChibiOS//os/hal/ports/STM32/LLD/sdc_lld.h"
 638              		.file 45 "../lib/e-puck2_main-processor/ChibiOS//os/hal/include/spi.h"
 639              		.file 46 "../lib/e-puck2_main-processor/ChibiOS//os/hal/ports/STM32/LLD/SPIv1/spi_lld.h"
 640              		.file 47 "../lib/e-puck2_main-processor/ChibiOS//os/hal/include/usb.h"
 641              		.file 48 "../lib/e-puck2_main-processor/ChibiOS//os/hal/ports/STM32/LLD/OTGv1/usb_lld.h"
 642              		.file 49 "../lib/e-puck2_main-processor/ChibiOS//os/hal/ports/STM32/LLD/OTGv1/stm32_otg.h"