ARM GAS  C:\Users\PCHAUT~1\AppData\Local\Temp\ccDlnzcK.s 			page 1


   1              		.cpu cortex-m4
   2              		.eabi_attribute 27, 1
   3              		.eabi_attribute 28, 1
   4              		.eabi_attribute 20, 1
   5              		.eabi_attribute 21, 1
   6              		.eabi_attribute 23, 3
   7              		.eabi_attribute 24, 1
   8              		.eabi_attribute 25, 1
   9              		.eabi_attribute 26, 1
  10              		.eabi_attribute 30, 6
  11              		.eabi_attribute 34, 1
  12              		.eabi_attribute 18, 4
  13              		.file	"i2s.c"
  14              		.text
  15              	.Ltext0:
  16              		.cfi_sections	.debug_frame
  17              		.section	.text.port_lock,"ax",%progbits
  18              		.align	1
  19              		.p2align 4,,15
  20              		.syntax unified
  21              		.thumb
  22              		.thumb_func
  23              		.fpu fpv4-sp-d16
  24              		.type	port_lock, %function
  25              	port_lock:
  26              	.LFB116:
  27              		.file 1 "../lib/e-puck2_main-processor/ChibiOS//os/rt/ports/ARMCMx/chcore_v7m.h"
  28              		.loc 1 444 0
  29              		.cfi_startproc
  30              		@ args = 0, pretend = 0, frame = 8
  31              		@ frame_needed = 0, uses_anonymous_args = 0
  32 0000 00B5     		push	{lr}
  33              		.cfi_def_cfa_offset 4
  34              		.cfi_offset 14, -4
  35 0002 83B0     		sub	sp, sp, #12
  36              		.cfi_def_cfa_offset 16
  37              		.loc 1 444 0
  38 0004 094B     		ldr	r3, .L3
  39 0006 1B68     		ldr	r3, [r3]
  40 0008 0193     		str	r3, [sp, #4]
  41 000a 2023     		movs	r3, #32
  42 000c 0093     		str	r3, [sp]
  43              	.LBB6:
  44              	.LBB7:
  45              		.file 2 "../lib/e-puck2_main-processor/ChibiOS//os/ext/CMSIS/include/core_cmFunc.h"
  46              		.loc 2 546 0
  47 000e 009B     		ldr	r3, [sp]
  48              		.syntax unified
  49              	@ 546 "../lib/e-puck2_main-processor/ChibiOS//os/ext/CMSIS/include/core_cmFunc.h" 1
  50 0010 83F31188 		MSR basepri, r3
  51              	@ 0 "" 2
  52              		.thumb
  53              		.syntax unified
  54              	.LBE7:
  55              	.LBE6:
  56              		.loc 1 451 0
  57 0014 00BF     		nop
ARM GAS  C:\Users\PCHAUT~1\AppData\Local\Temp\ccDlnzcK.s 			page 2


  58 0016 054B     		ldr	r3, .L3
  59 0018 019A     		ldr	r2, [sp, #4]
  60 001a 1B68     		ldr	r3, [r3]
  61 001c 9A42     		cmp	r2, r3
  62 001e 01D0     		beq	.L2
  63 0020 FFF7FEFF 		bl	__stack_chk_fail
  64              	.L2:
  65 0024 03B0     		add	sp, sp, #12
  66              		.cfi_def_cfa_offset 4
  67              		@ sp needed
  68 0026 5DF804FB 		ldr	pc, [sp], #4
  69              	.L4:
  70 002a 00BF     		.align	2
  71              	.L3:
  72 002c 00000000 		.word	__stack_chk_guard
  73              		.cfi_endproc
  74              	.LFE116:
  75              		.size	port_lock, .-port_lock
  76              		.section	.text.port_unlock,"ax",%progbits
  77              		.align	1
  78              		.p2align 4,,15
  79              		.syntax unified
  80              		.thumb
  81              		.thumb_func
  82              		.fpu fpv4-sp-d16
  83              		.type	port_unlock, %function
  84              	port_unlock:
  85              	.LFB117:
  86              		.loc 1 458 0
  87              		.cfi_startproc
  88              		@ args = 0, pretend = 0, frame = 8
  89              		@ frame_needed = 0, uses_anonymous_args = 0
  90 0000 00B5     		push	{lr}
  91              		.cfi_def_cfa_offset 4
  92              		.cfi_offset 14, -4
  93 0002 83B0     		sub	sp, sp, #12
  94              		.cfi_def_cfa_offset 16
  95              		.loc 1 458 0
  96 0004 094B     		ldr	r3, .L7
  97 0006 1B68     		ldr	r3, [r3]
  98 0008 0193     		str	r3, [sp, #4]
  99 000a 0023     		movs	r3, #0
 100 000c 0093     		str	r3, [sp]
 101              	.LBB8:
 102              	.LBB9:
 103              		.loc 2 546 0
 104 000e 009B     		ldr	r3, [sp]
 105              		.syntax unified
 106              	@ 546 "../lib/e-puck2_main-processor/ChibiOS//os/ext/CMSIS/include/core_cmFunc.h" 1
 107 0010 83F31188 		MSR basepri, r3
 108              	@ 0 "" 2
 109              		.thumb
 110              		.syntax unified
 111              	.LBE9:
 112              	.LBE8:
 113              		.loc 1 465 0
 114 0014 00BF     		nop
ARM GAS  C:\Users\PCHAUT~1\AppData\Local\Temp\ccDlnzcK.s 			page 3


 115 0016 054B     		ldr	r3, .L7
 116 0018 019A     		ldr	r2, [sp, #4]
 117 001a 1B68     		ldr	r3, [r3]
 118 001c 9A42     		cmp	r2, r3
 119 001e 01D0     		beq	.L6
 120 0020 FFF7FEFF 		bl	__stack_chk_fail
 121              	.L6:
 122 0024 03B0     		add	sp, sp, #12
 123              		.cfi_def_cfa_offset 4
 124              		@ sp needed
 125 0026 5DF804FB 		ldr	pc, [sp], #4
 126              	.L8:
 127 002a 00BF     		.align	2
 128              	.L7:
 129 002c 00000000 		.word	__stack_chk_guard
 130              		.cfi_endproc
 131              	.LFE117:
 132              		.size	port_unlock, .-port_unlock
 133              		.section	.text.chSysLock,"ax",%progbits
 134              		.align	1
 135              		.p2align 4,,15
 136              		.syntax unified
 137              		.thumb
 138              		.thumb_func
 139              		.fpu fpv4-sp-d16
 140              		.type	chSysLock, %function
 141              	chSysLock:
 142              	.LFB145:
 143              		.file 3 "../lib/e-puck2_main-processor/ChibiOS//os/rt/include/chsys.h"
 144              		.loc 3 346 0
 145              		.cfi_startproc
 146              		@ args = 0, pretend = 0, frame = 8
 147              		@ frame_needed = 0, uses_anonymous_args = 0
 148 0000 00B5     		push	{lr}
 149              		.cfi_def_cfa_offset 4
 150              		.cfi_offset 14, -4
 151 0002 83B0     		sub	sp, sp, #12
 152              		.cfi_def_cfa_offset 16
 153              		.loc 3 346 0
 154 0004 094B     		ldr	r3, .L11
 155 0006 1B68     		ldr	r3, [r3]
 156 0008 0193     		str	r3, [sp, #4]
 157              		.loc 3 348 0
 158 000a FFF7FEFF 		bl	port_lock
 159              		.loc 3 349 0
 160 000e FFF7FEFF 		bl	_stats_start_measure_crit_thd
 161              		.loc 3 350 0
 162 0012 FFF7FEFF 		bl	_dbg_check_lock
 163              		.loc 3 351 0
 164 0016 00BF     		nop
 165 0018 044B     		ldr	r3, .L11
 166 001a 019A     		ldr	r2, [sp, #4]
 167 001c 1B68     		ldr	r3, [r3]
 168 001e 9A42     		cmp	r2, r3
 169 0020 01D0     		beq	.L10
 170 0022 FFF7FEFF 		bl	__stack_chk_fail
 171              	.L10:
ARM GAS  C:\Users\PCHAUT~1\AppData\Local\Temp\ccDlnzcK.s 			page 4


 172 0026 03B0     		add	sp, sp, #12
 173              		.cfi_def_cfa_offset 4
 174              		@ sp needed
 175 0028 5DF804FB 		ldr	pc, [sp], #4
 176              	.L12:
 177              		.align	2
 178              	.L11:
 179 002c 00000000 		.word	__stack_chk_guard
 180              		.cfi_endproc
 181              	.LFE145:
 182              		.size	chSysLock, .-chSysLock
 183              		.section	.text.chSysUnlock,"ax",%progbits
 184              		.align	1
 185              		.p2align 4,,15
 186              		.syntax unified
 187              		.thumb
 188              		.thumb_func
 189              		.fpu fpv4-sp-d16
 190              		.type	chSysUnlock, %function
 191              	chSysUnlock:
 192              	.LFB146:
 193              		.loc 3 358 0
 194              		.cfi_startproc
 195              		@ args = 0, pretend = 0, frame = 8
 196              		@ frame_needed = 0, uses_anonymous_args = 0
 197 0000 00B5     		push	{lr}
 198              		.cfi_def_cfa_offset 4
 199              		.cfi_offset 14, -4
 200 0002 83B0     		sub	sp, sp, #12
 201              		.cfi_def_cfa_offset 16
 202              		.loc 3 358 0
 203 0004 114B     		ldr	r3, .L16
 204 0006 1B68     		ldr	r3, [r3]
 205 0008 0193     		str	r3, [sp, #4]
 206              		.loc 3 360 0
 207 000a FFF7FEFF 		bl	_dbg_check_unlock
 208              		.loc 3 361 0
 209 000e FFF7FEFF 		bl	_stats_stop_measure_crit_thd
 210              		.loc 3 367 0
 211 0012 0F4B     		ldr	r3, .L16+4
 212 0014 1B68     		ldr	r3, [r3]
 213 0016 0E4A     		ldr	r2, .L16+4
 214 0018 9342     		cmp	r3, r2
 215 001a 0AD0     		beq	.L14
 216              		.loc 3 367 0 is_stmt 0 discriminator 2
 217 001c 0C4B     		ldr	r3, .L16+4
 218 001e 9B69     		ldr	r3, [r3, #24]
 219 0020 9A68     		ldr	r2, [r3, #8]
 220 0022 0B4B     		ldr	r3, .L16+4
 221 0024 1B68     		ldr	r3, [r3]
 222 0026 9B68     		ldr	r3, [r3, #8]
 223 0028 9A42     		cmp	r2, r3
 224 002a 02D2     		bcs	.L14
 225              		.loc 3 367 0 discriminator 3
 226 002c 0948     		ldr	r0, .L16+8
 227 002e FFF7FEFF 		bl	chSysHalt
 228              	.L14:
ARM GAS  C:\Users\PCHAUT~1\AppData\Local\Temp\ccDlnzcK.s 			page 5


 229              		.loc 3 371 0 is_stmt 1
 230 0032 FFF7FEFF 		bl	port_unlock
 231              		.loc 3 372 0
 232 0036 00BF     		nop
 233 0038 044B     		ldr	r3, .L16
 234 003a 019A     		ldr	r2, [sp, #4]
 235 003c 1B68     		ldr	r3, [r3]
 236 003e 9A42     		cmp	r2, r3
 237 0040 01D0     		beq	.L15
 238 0042 FFF7FEFF 		bl	__stack_chk_fail
 239              	.L15:
 240 0046 03B0     		add	sp, sp, #12
 241              		.cfi_def_cfa_offset 4
 242              		@ sp needed
 243 0048 5DF804FB 		ldr	pc, [sp], #4
 244              	.L17:
 245              		.align	2
 246              	.L16:
 247 004c 00000000 		.word	__stack_chk_guard
 248 0050 00000000 		.word	ch
 249 0054 00000000 		.word	__func__.7153
 250              		.cfi_endproc
 251              	.LFE146:
 252              		.size	chSysUnlock, .-chSysUnlock
 253              		.section	.text.osalSysLock,"ax",%progbits
 254              		.align	1
 255              		.p2align 4,,15
 256              		.syntax unified
 257              		.thumb
 258              		.thumb_func
 259              		.fpu fpv4-sp-d16
 260              		.type	osalSysLock, %function
 261              	osalSysLock:
 262              	.LFB223:
 263              		.file 4 "../lib/e-puck2_main-processor/ChibiOS//os/hal/osal/rt/osal.h"
 264              		.loc 4 445 0
 265              		.cfi_startproc
 266              		@ args = 0, pretend = 0, frame = 8
 267              		@ frame_needed = 0, uses_anonymous_args = 0
 268 0000 00B5     		push	{lr}
 269              		.cfi_def_cfa_offset 4
 270              		.cfi_offset 14, -4
 271 0002 83B0     		sub	sp, sp, #12
 272              		.cfi_def_cfa_offset 16
 273              		.loc 4 445 0
 274 0004 074B     		ldr	r3, .L20
 275 0006 1B68     		ldr	r3, [r3]
 276 0008 0193     		str	r3, [sp, #4]
 277              		.loc 4 447 0
 278 000a FFF7FEFF 		bl	chSysLock
 279              		.loc 4 448 0
 280 000e 00BF     		nop
 281 0010 044B     		ldr	r3, .L20
 282 0012 019A     		ldr	r2, [sp, #4]
 283 0014 1B68     		ldr	r3, [r3]
 284 0016 9A42     		cmp	r2, r3
 285 0018 01D0     		beq	.L19
ARM GAS  C:\Users\PCHAUT~1\AppData\Local\Temp\ccDlnzcK.s 			page 6


 286 001a FFF7FEFF 		bl	__stack_chk_fail
 287              	.L19:
 288 001e 03B0     		add	sp, sp, #12
 289              		.cfi_def_cfa_offset 4
 290              		@ sp needed
 291 0020 5DF804FB 		ldr	pc, [sp], #4
 292              	.L21:
 293              		.align	2
 294              	.L20:
 295 0024 00000000 		.word	__stack_chk_guard
 296              		.cfi_endproc
 297              	.LFE223:
 298              		.size	osalSysLock, .-osalSysLock
 299              		.section	.text.osalSysUnlock,"ax",%progbits
 300              		.align	1
 301              		.p2align 4,,15
 302              		.syntax unified
 303              		.thumb
 304              		.thumb_func
 305              		.fpu fpv4-sp-d16
 306              		.type	osalSysUnlock, %function
 307              	osalSysUnlock:
 308              	.LFB224:
 309              		.loc 4 456 0
 310              		.cfi_startproc
 311              		@ args = 0, pretend = 0, frame = 8
 312              		@ frame_needed = 0, uses_anonymous_args = 0
 313 0000 00B5     		push	{lr}
 314              		.cfi_def_cfa_offset 4
 315              		.cfi_offset 14, -4
 316 0002 83B0     		sub	sp, sp, #12
 317              		.cfi_def_cfa_offset 16
 318              		.loc 4 456 0
 319 0004 074B     		ldr	r3, .L24
 320 0006 1B68     		ldr	r3, [r3]
 321 0008 0193     		str	r3, [sp, #4]
 322              		.loc 4 458 0
 323 000a FFF7FEFF 		bl	chSysUnlock
 324              		.loc 4 459 0
 325 000e 00BF     		nop
 326 0010 044B     		ldr	r3, .L24
 327 0012 019A     		ldr	r2, [sp, #4]
 328 0014 1B68     		ldr	r3, [r3]
 329 0016 9A42     		cmp	r2, r3
 330 0018 01D0     		beq	.L23
 331 001a FFF7FEFF 		bl	__stack_chk_fail
 332              	.L23:
 333 001e 03B0     		add	sp, sp, #12
 334              		.cfi_def_cfa_offset 4
 335              		@ sp needed
 336 0020 5DF804FB 		ldr	pc, [sp], #4
 337              	.L25:
 338              		.align	2
 339              	.L24:
 340 0024 00000000 		.word	__stack_chk_guard
 341              		.cfi_endproc
 342              	.LFE224:
ARM GAS  C:\Users\PCHAUT~1\AppData\Local\Temp\ccDlnzcK.s 			page 7


 343              		.size	osalSysUnlock, .-osalSysUnlock
 344              		.section	.text.i2sInit,"ax",%progbits
 345              		.align	1
 346              		.p2align 4,,15
 347              		.global	i2sInit
 348              		.syntax unified
 349              		.thumb
 350              		.thumb_func
 351              		.fpu fpv4-sp-d16
 352              		.type	i2sInit, %function
 353              	i2sInit:
 354              	.LFB256:
 355              		.file 5 "../lib/e-puck2_main-processor/ChibiOS//os/hal/src/i2s.c"
 356              		.loc 5 56 0
 357              		.cfi_startproc
 358              		@ args = 0, pretend = 0, frame = 8
 359              		@ frame_needed = 0, uses_anonymous_args = 0
 360 0000 00B5     		push	{lr}
 361              		.cfi_def_cfa_offset 4
 362              		.cfi_offset 14, -4
 363 0002 83B0     		sub	sp, sp, #12
 364              		.cfi_def_cfa_offset 16
 365              		.loc 5 56 0
 366 0004 074B     		ldr	r3, .L28
 367 0006 1B68     		ldr	r3, [r3]
 368 0008 0193     		str	r3, [sp, #4]
 369              		.loc 5 58 0
 370 000a FFF7FEFF 		bl	i2s_lld_init
 371              		.loc 5 59 0
 372 000e 00BF     		nop
 373 0010 044B     		ldr	r3, .L28
 374 0012 019A     		ldr	r2, [sp, #4]
 375 0014 1B68     		ldr	r3, [r3]
 376 0016 9A42     		cmp	r2, r3
 377 0018 01D0     		beq	.L27
 378 001a FFF7FEFF 		bl	__stack_chk_fail
 379              	.L27:
 380 001e 03B0     		add	sp, sp, #12
 381              		.cfi_def_cfa_offset 4
 382              		@ sp needed
 383 0020 5DF804FB 		ldr	pc, [sp], #4
 384              	.L29:
 385              		.align	2
 386              	.L28:
 387 0024 00000000 		.word	__stack_chk_guard
 388              		.cfi_endproc
 389              	.LFE256:
 390              		.size	i2sInit, .-i2sInit
 391              		.section	.text.i2sObjectInit,"ax",%progbits
 392              		.align	1
 393              		.p2align 4,,15
 394              		.global	i2sObjectInit
 395              		.syntax unified
 396              		.thumb
 397              		.thumb_func
 398              		.fpu fpv4-sp-d16
 399              		.type	i2sObjectInit, %function
ARM GAS  C:\Users\PCHAUT~1\AppData\Local\Temp\ccDlnzcK.s 			page 8


 400              	i2sObjectInit:
 401              	.LFB257:
 402              		.loc 5 68 0
 403              		.cfi_startproc
 404              		@ args = 0, pretend = 0, frame = 16
 405              		@ frame_needed = 0, uses_anonymous_args = 0
 406 0000 00B5     		push	{lr}
 407              		.cfi_def_cfa_offset 4
 408              		.cfi_offset 14, -4
 409 0002 85B0     		sub	sp, sp, #20
 410              		.cfi_def_cfa_offset 24
 411 0004 0190     		str	r0, [sp, #4]
 412              		.loc 5 68 0
 413 0006 0A4B     		ldr	r3, .L32
 414 0008 1B68     		ldr	r3, [r3]
 415 000a 0393     		str	r3, [sp, #12]
 416              		.loc 5 70 0
 417 000c 019B     		ldr	r3, [sp, #4]
 418 000e 0122     		movs	r2, #1
 419 0010 1A70     		strb	r2, [r3]
 420              		.loc 5 71 0
 421 0012 019B     		ldr	r3, [sp, #4]
 422 0014 0022     		movs	r2, #0
 423 0016 5A60     		str	r2, [r3, #4]
 424              		.loc 5 72 0
 425 0018 00BF     		nop
 426 001a 054B     		ldr	r3, .L32
 427 001c 039A     		ldr	r2, [sp, #12]
 428 001e 1B68     		ldr	r3, [r3]
 429 0020 9A42     		cmp	r2, r3
 430 0022 01D0     		beq	.L31
 431 0024 FFF7FEFF 		bl	__stack_chk_fail
 432              	.L31:
 433 0028 05B0     		add	sp, sp, #20
 434              		.cfi_def_cfa_offset 4
 435              		@ sp needed
 436 002a 5DF804FB 		ldr	pc, [sp], #4
 437              	.L33:
 438 002e 00BF     		.align	2
 439              	.L32:
 440 0030 00000000 		.word	__stack_chk_guard
 441              		.cfi_endproc
 442              	.LFE257:
 443              		.size	i2sObjectInit, .-i2sObjectInit
 444              		.section	.text.i2sStart,"ax",%progbits
 445              		.align	1
 446              		.p2align 4,,15
 447              		.global	i2sStart
 448              		.syntax unified
 449              		.thumb
 450              		.thumb_func
 451              		.fpu fpv4-sp-d16
 452              		.type	i2sStart, %function
 453              	i2sStart:
 454              	.LFB258:
 455              		.loc 5 82 0
 456              		.cfi_startproc
ARM GAS  C:\Users\PCHAUT~1\AppData\Local\Temp\ccDlnzcK.s 			page 9


 457              		@ args = 0, pretend = 0, frame = 16
 458              		@ frame_needed = 0, uses_anonymous_args = 0
 459 0000 00B5     		push	{lr}
 460              		.cfi_def_cfa_offset 4
 461              		.cfi_offset 14, -4
 462 0002 85B0     		sub	sp, sp, #20
 463              		.cfi_def_cfa_offset 24
 464 0004 0190     		str	r0, [sp, #4]
 465 0006 0091     		str	r1, [sp]
 466              		.loc 5 82 0
 467 0008 174B     		ldr	r3, .L39
 468 000a 1B68     		ldr	r3, [r3]
 469 000c 0393     		str	r3, [sp, #12]
 470              		.loc 5 84 0
 471 000e 019B     		ldr	r3, [sp, #4]
 472 0010 002B     		cmp	r3, #0
 473 0012 02D0     		beq	.L35
 474              		.loc 5 84 0 is_stmt 0 discriminator 3
 475 0014 009B     		ldr	r3, [sp]
 476 0016 002B     		cmp	r3, #0
 477 0018 02D1     		bne	.L36
 478              	.L35:
 479              		.loc 5 84 0 discriminator 4
 480 001a 1448     		ldr	r0, .L39+4
 481 001c FFF7FEFF 		bl	chSysHalt
 482              	.L36:
 483              		.loc 5 86 0 is_stmt 1
 484 0020 FFF7FEFF 		bl	osalSysLock
 485              		.loc 5 87 0
 486 0024 019B     		ldr	r3, [sp, #4]
 487 0026 1B78     		ldrb	r3, [r3]	@ zero_extendqisi2
 488 0028 012B     		cmp	r3, #1
 489 002a 06D0     		beq	.L37
 490              		.loc 5 87 0 is_stmt 0 discriminator 2
 491 002c 019B     		ldr	r3, [sp, #4]
 492 002e 1B78     		ldrb	r3, [r3]	@ zero_extendqisi2
 493 0030 022B     		cmp	r3, #2
 494 0032 02D0     		beq	.L37
 495              		.loc 5 87 0 discriminator 3
 496 0034 0D48     		ldr	r0, .L39+4
 497 0036 FFF7FEFF 		bl	chSysHalt
 498              	.L37:
 499              		.loc 5 89 0 is_stmt 1
 500 003a 019B     		ldr	r3, [sp, #4]
 501 003c 009A     		ldr	r2, [sp]
 502 003e 5A60     		str	r2, [r3, #4]
 503              		.loc 5 90 0
 504 0040 0198     		ldr	r0, [sp, #4]
 505 0042 FFF7FEFF 		bl	i2s_lld_start
 506              		.loc 5 91 0
 507 0046 019B     		ldr	r3, [sp, #4]
 508 0048 0222     		movs	r2, #2
 509 004a 1A70     		strb	r2, [r3]
 510              		.loc 5 92 0
 511 004c FFF7FEFF 		bl	osalSysUnlock
 512              		.loc 5 93 0
 513 0050 00BF     		nop
ARM GAS  C:\Users\PCHAUT~1\AppData\Local\Temp\ccDlnzcK.s 			page 10


 514 0052 054B     		ldr	r3, .L39
 515 0054 039A     		ldr	r2, [sp, #12]
 516 0056 1B68     		ldr	r3, [r3]
 517 0058 9A42     		cmp	r2, r3
 518 005a 01D0     		beq	.L38
 519 005c FFF7FEFF 		bl	__stack_chk_fail
 520              	.L38:
 521 0060 05B0     		add	sp, sp, #20
 522              		.cfi_def_cfa_offset 4
 523              		@ sp needed
 524 0062 5DF804FB 		ldr	pc, [sp], #4
 525              	.L40:
 526 0066 00BF     		.align	2
 527              	.L39:
 528 0068 00000000 		.word	__stack_chk_guard
 529 006c 00000000 		.word	__func__.9848
 530              		.cfi_endproc
 531              	.LFE258:
 532              		.size	i2sStart, .-i2sStart
 533              		.section	.text.i2sStop,"ax",%progbits
 534              		.align	1
 535              		.p2align 4,,15
 536              		.global	i2sStop
 537              		.syntax unified
 538              		.thumb
 539              		.thumb_func
 540              		.fpu fpv4-sp-d16
 541              		.type	i2sStop, %function
 542              	i2sStop:
 543              	.LFB259:
 544              		.loc 5 102 0
 545              		.cfi_startproc
 546              		@ args = 0, pretend = 0, frame = 16
 547              		@ frame_needed = 0, uses_anonymous_args = 0
 548 0000 00B5     		push	{lr}
 549              		.cfi_def_cfa_offset 4
 550              		.cfi_offset 14, -4
 551 0002 85B0     		sub	sp, sp, #20
 552              		.cfi_def_cfa_offset 24
 553 0004 0190     		str	r0, [sp, #4]
 554              		.loc 5 102 0
 555 0006 144B     		ldr	r3, .L45
 556 0008 1B68     		ldr	r3, [r3]
 557 000a 0393     		str	r3, [sp, #12]
 558              		.loc 5 104 0
 559 000c 019B     		ldr	r3, [sp, #4]
 560 000e 002B     		cmp	r3, #0
 561 0010 02D1     		bne	.L42
 562              		.loc 5 104 0 is_stmt 0 discriminator 2
 563 0012 1248     		ldr	r0, .L45+4
 564 0014 FFF7FEFF 		bl	chSysHalt
 565              	.L42:
 566              		.loc 5 106 0 is_stmt 1
 567 0018 FFF7FEFF 		bl	osalSysLock
 568              		.loc 5 107 0
 569 001c 019B     		ldr	r3, [sp, #4]
 570 001e 1B78     		ldrb	r3, [r3]	@ zero_extendqisi2
ARM GAS  C:\Users\PCHAUT~1\AppData\Local\Temp\ccDlnzcK.s 			page 11


 571 0020 012B     		cmp	r3, #1
 572 0022 06D0     		beq	.L43
 573              		.loc 5 107 0 is_stmt 0 discriminator 2
 574 0024 019B     		ldr	r3, [sp, #4]
 575 0026 1B78     		ldrb	r3, [r3]	@ zero_extendqisi2
 576 0028 022B     		cmp	r3, #2
 577 002a 02D0     		beq	.L43
 578              		.loc 5 107 0 discriminator 3
 579 002c 0B48     		ldr	r0, .L45+4
 580 002e FFF7FEFF 		bl	chSysHalt
 581              	.L43:
 582              		.loc 5 109 0 is_stmt 1
 583 0032 0198     		ldr	r0, [sp, #4]
 584 0034 FFF7FEFF 		bl	i2s_lld_stop
 585              		.loc 5 110 0
 586 0038 019B     		ldr	r3, [sp, #4]
 587 003a 0122     		movs	r2, #1
 588 003c 1A70     		strb	r2, [r3]
 589              		.loc 5 111 0
 590 003e FFF7FEFF 		bl	osalSysUnlock
 591              		.loc 5 112 0
 592 0042 00BF     		nop
 593 0044 044B     		ldr	r3, .L45
 594 0046 039A     		ldr	r2, [sp, #12]
 595 0048 1B68     		ldr	r3, [r3]
 596 004a 9A42     		cmp	r2, r3
 597 004c 01D0     		beq	.L44
 598 004e FFF7FEFF 		bl	__stack_chk_fail
 599              	.L44:
 600 0052 05B0     		add	sp, sp, #20
 601              		.cfi_def_cfa_offset 4
 602              		@ sp needed
 603 0054 5DF804FB 		ldr	pc, [sp], #4
 604              	.L46:
 605              		.align	2
 606              	.L45:
 607 0058 00000000 		.word	__stack_chk_guard
 608 005c 00000000 		.word	__func__.9852
 609              		.cfi_endproc
 610              	.LFE259:
 611              		.size	i2sStop, .-i2sStop
 612              		.section	.text.i2sStartExchange,"ax",%progbits
 613              		.align	1
 614              		.p2align 4,,15
 615              		.global	i2sStartExchange
 616              		.syntax unified
 617              		.thumb
 618              		.thumb_func
 619              		.fpu fpv4-sp-d16
 620              		.type	i2sStartExchange, %function
 621              	i2sStartExchange:
 622              	.LFB260:
 623              		.loc 5 121 0
 624              		.cfi_startproc
 625              		@ args = 0, pretend = 0, frame = 16
 626              		@ frame_needed = 0, uses_anonymous_args = 0
 627 0000 00B5     		push	{lr}
ARM GAS  C:\Users\PCHAUT~1\AppData\Local\Temp\ccDlnzcK.s 			page 12


 628              		.cfi_def_cfa_offset 4
 629              		.cfi_offset 14, -4
 630 0002 85B0     		sub	sp, sp, #20
 631              		.cfi_def_cfa_offset 24
 632 0004 0190     		str	r0, [sp, #4]
 633              		.loc 5 121 0
 634 0006 124B     		ldr	r3, .L51
 635 0008 1B68     		ldr	r3, [r3]
 636 000a 0393     		str	r3, [sp, #12]
 637              		.loc 5 123 0
 638 000c 019B     		ldr	r3, [sp, #4]
 639 000e 002B     		cmp	r3, #0
 640 0010 02D1     		bne	.L48
 641              		.loc 5 123 0 is_stmt 0 discriminator 2
 642 0012 1048     		ldr	r0, .L51+4
 643 0014 FFF7FEFF 		bl	chSysHalt
 644              	.L48:
 645              		.loc 5 125 0 is_stmt 1
 646 0018 FFF7FEFF 		bl	osalSysLock
 647              		.loc 5 126 0
 648 001c 019B     		ldr	r3, [sp, #4]
 649 001e 1B78     		ldrb	r3, [r3]	@ zero_extendqisi2
 650 0020 022B     		cmp	r3, #2
 651 0022 02D0     		beq	.L49
 652              		.loc 5 126 0 is_stmt 0 discriminator 2
 653 0024 0B48     		ldr	r0, .L51+4
 654 0026 FFF7FEFF 		bl	chSysHalt
 655              	.L49:
 656              		.loc 5 127 0 is_stmt 1
 657 002a 0198     		ldr	r0, [sp, #4]
 658 002c FFF7FEFF 		bl	i2s_lld_start_exchange
 659 0030 019B     		ldr	r3, [sp, #4]
 660 0032 0322     		movs	r2, #3
 661 0034 1A70     		strb	r2, [r3]
 662              		.loc 5 128 0
 663 0036 FFF7FEFF 		bl	osalSysUnlock
 664              		.loc 5 129 0
 665 003a 00BF     		nop
 666 003c 044B     		ldr	r3, .L51
 667 003e 039A     		ldr	r2, [sp, #12]
 668 0040 1B68     		ldr	r3, [r3]
 669 0042 9A42     		cmp	r2, r3
 670 0044 01D0     		beq	.L50
 671 0046 FFF7FEFF 		bl	__stack_chk_fail
 672              	.L50:
 673 004a 05B0     		add	sp, sp, #20
 674              		.cfi_def_cfa_offset 4
 675              		@ sp needed
 676 004c 5DF804FB 		ldr	pc, [sp], #4
 677              	.L52:
 678              		.align	2
 679              	.L51:
 680 0050 00000000 		.word	__stack_chk_guard
 681 0054 00000000 		.word	__func__.9856
 682              		.cfi_endproc
 683              	.LFE260:
 684              		.size	i2sStartExchange, .-i2sStartExchange
ARM GAS  C:\Users\PCHAUT~1\AppData\Local\Temp\ccDlnzcK.s 			page 13


 685              		.section	.text.i2sStopExchange,"ax",%progbits
 686              		.align	1
 687              		.p2align 4,,15
 688              		.global	i2sStopExchange
 689              		.syntax unified
 690              		.thumb
 691              		.thumb_func
 692              		.fpu fpv4-sp-d16
 693              		.type	i2sStopExchange, %function
 694              	i2sStopExchange:
 695              	.LFB261:
 696              		.loc 5 140 0
 697              		.cfi_startproc
 698              		@ args = 0, pretend = 0, frame = 16
 699              		@ frame_needed = 0, uses_anonymous_args = 0
 700 0000 00B5     		push	{lr}
 701              		.cfi_def_cfa_offset 4
 702              		.cfi_offset 14, -4
 703 0002 85B0     		sub	sp, sp, #20
 704              		.cfi_def_cfa_offset 24
 705 0004 0190     		str	r0, [sp, #4]
 706              		.loc 5 140 0
 707 0006 164B     		ldr	r3, .L57
 708 0008 1B68     		ldr	r3, [r3]
 709 000a 0393     		str	r3, [sp, #12]
 710              		.loc 5 142 0
 711 000c 019B     		ldr	r3, [sp, #4]
 712 000e 002B     		cmp	r3, #0
 713 0010 02D1     		bne	.L54
 714              		.loc 5 142 0 is_stmt 0 discriminator 2
 715 0012 1448     		ldr	r0, .L57+4
 716 0014 FFF7FEFF 		bl	chSysHalt
 717              	.L54:
 718              		.loc 5 144 0 is_stmt 1
 719 0018 FFF7FEFF 		bl	osalSysLock
 720              		.loc 5 145 0
 721 001c 019B     		ldr	r3, [sp, #4]
 722 001e 1B78     		ldrb	r3, [r3]	@ zero_extendqisi2
 723 0020 022B     		cmp	r3, #2
 724 0022 0AD0     		beq	.L55
 725              		.loc 5 145 0 is_stmt 0 discriminator 2
 726 0024 019B     		ldr	r3, [sp, #4]
 727 0026 1B78     		ldrb	r3, [r3]	@ zero_extendqisi2
 728 0028 032B     		cmp	r3, #3
 729 002a 06D0     		beq	.L55
 730              		.loc 5 145 0 discriminator 3
 731 002c 019B     		ldr	r3, [sp, #4]
 732 002e 1B78     		ldrb	r3, [r3]	@ zero_extendqisi2
 733 0030 042B     		cmp	r3, #4
 734 0032 02D0     		beq	.L55
 735              		.loc 5 145 0 discriminator 4
 736 0034 0B48     		ldr	r0, .L57+4
 737 0036 FFF7FEFF 		bl	chSysHalt
 738              	.L55:
 739              		.loc 5 149 0 is_stmt 1
 740 003a 0198     		ldr	r0, [sp, #4]
 741 003c FFF7FEFF 		bl	i2s_lld_stop_exchange
ARM GAS  C:\Users\PCHAUT~1\AppData\Local\Temp\ccDlnzcK.s 			page 14


 742 0040 019B     		ldr	r3, [sp, #4]
 743 0042 0222     		movs	r2, #2
 744 0044 1A70     		strb	r2, [r3]
 745              		.loc 5 150 0
 746 0046 FFF7FEFF 		bl	osalSysUnlock
 747              		.loc 5 151 0
 748 004a 00BF     		nop
 749 004c 044B     		ldr	r3, .L57
 750 004e 039A     		ldr	r2, [sp, #12]
 751 0050 1B68     		ldr	r3, [r3]
 752 0052 9A42     		cmp	r2, r3
 753 0054 01D0     		beq	.L56
 754 0056 FFF7FEFF 		bl	__stack_chk_fail
 755              	.L56:
 756 005a 05B0     		add	sp, sp, #20
 757              		.cfi_def_cfa_offset 4
 758              		@ sp needed
 759 005c 5DF804FB 		ldr	pc, [sp], #4
 760              	.L58:
 761              		.align	2
 762              	.L57:
 763 0060 00000000 		.word	__stack_chk_guard
 764 0064 00000000 		.word	__func__.9860
 765              		.cfi_endproc
 766              	.LFE261:
 767              		.size	i2sStopExchange, .-i2sStopExchange
 768              		.section	.rodata.__func__.9848,"a",%progbits
 769              		.align	2
 770              		.type	__func__.9848, %object
 771              		.size	__func__.9848, 9
 772              	__func__.9848:
 773 0000 69327353 		.ascii	"i2sStart\000"
 773      74617274 
 773      00
 774              		.section	.rodata.__func__.7153,"a",%progbits
 775              		.align	2
 776              		.type	__func__.7153, %object
 777              		.size	__func__.7153, 12
 778              	__func__.7153:
 779 0000 63685379 		.ascii	"chSysUnlock\000"
 779      73556E6C 
 779      6F636B00 
 780              		.section	.rodata.__func__.9852,"a",%progbits
 781              		.align	2
 782              		.type	__func__.9852, %object
 783              		.size	__func__.9852, 8
 784              	__func__.9852:
 785 0000 69327353 		.ascii	"i2sStop\000"
 785      746F7000 
 786              		.section	.rodata.__func__.9856,"a",%progbits
 787              		.align	2
 788              		.type	__func__.9856, %object
 789              		.size	__func__.9856, 17
 790              	__func__.9856:
 791 0000 69327353 		.ascii	"i2sStartExchange\000"
 791      74617274 
 791      45786368 
ARM GAS  C:\Users\PCHAUT~1\AppData\Local\Temp\ccDlnzcK.s 			page 15


 791      616E6765 
 791      00
 792              		.section	.rodata.__func__.9860,"a",%progbits
 793              		.align	2
 794              		.type	__func__.9860, %object
 795              		.size	__func__.9860, 16
 796              	__func__.9860:
 797 0000 69327353 		.ascii	"i2sStopExchange\000"
 797      746F7045 
 797      78636861 
 797      6E676500 
 798              		.text
 799              	.Letext0:
 800              		.file 6 "c:\\users\\pchautems\\documents\\robotiquetp\\eclipse_e-puck2\\tools\\gcc-arm-none-eabi-7
 801              		.file 7 "c:\\users\\pchautems\\documents\\robotiquetp\\eclipse_e-puck2\\tools\\gcc-arm-none-eabi-7
 802              		.file 8 "c:\\users\\pchautems\\documents\\robotiquetp\\eclipse_e-puck2\\tools\\gcc-arm-none-eabi-7
 803              		.file 9 "../lib/e-puck2_main-processor/ChibiOS//os/rt/ports/ARMCMx/compilers/GCC/chtypes.h"
 804              		.file 10 "../lib/e-puck2_main-processor/ChibiOS//os/rt/include/chsystypes.h"
 805              		.file 11 "../lib/e-puck2_main-processor/ChibiOS//os/rt/include/chschd.h"
 806              		.file 12 "../lib/e-puck2_main-processor/ChibiOS//os/ext/CMSIS/include/core_cm4.h"
 807              		.file 13 "../lib/e-puck2_main-processor/ChibiOS//os/ext/CMSIS/ST/system_stm32f4xx.h"
 808              		.file 14 "../lib/e-puck2_main-processor/ChibiOS//os/ext/CMSIS/ST/stm32f407xx.h"
 809              		.file 15 "../lib/e-puck2_main-processor/ChibiOS//os/rt/ports/ARMCMx/chcore.h"
 810              		.file 16 "../lib/e-puck2_main-processor/ChibiOS//os/rt/include/chdebug.h"
 811              		.file 17 "../lib/e-puck2_main-processor/ChibiOS//os/rt/include/chtm.h"
 812              		.file 18 "../lib/e-puck2_main-processor/ChibiOS//os/rt/include/chstats.h"
 813              		.file 19 "../lib/e-puck2_main-processor/ChibiOS//os/rt/include/chsem.h"
 814              		.file 20 "../lib/e-puck2_main-processor/ChibiOS//os/rt/include/chmtx.h"
 815              		.file 21 "../lib/e-puck2_main-processor/ChibiOS//os/rt/include/chregistry.h"
 816              		.file 22 "../lib/e-puck2_main-processor/ChibiOS//os/rt/include/chevents.h"
 817              		.file 23 "../lib/e-puck2_main-processor/ChibiOS//os/rt/include/chqueues.h"
 818              		.file 24 "../lib/e-puck2_main-processor/ChibiOS//os/hal/ports/STM32/STM32F4xx/stm32_dma.h"
 819              		.file 25 "../lib/e-puck2_main-processor/ChibiOS//os/hal/include/hal_ioblock.h"
 820              		.file 26 "../lib/e-puck2_main-processor/ChibiOS//os/hal/ports/STM32/LLD/GPIOv2/pal_lld.h"
 821              		.file 27 "../lib/e-puck2_main-processor/ChibiOS//os/hal/include/adc.h"
 822              		.file 28 "../lib/e-puck2_main-processor/ChibiOS//os/hal/ports/STM32/STM32F4xx/adc_lld.h"
 823              		.file 29 "../lib/e-puck2_main-processor/ChibiOS//os/hal/include/can.h"
 824              		.file 30 "../lib/e-puck2_main-processor/ChibiOS//os/hal/ports/STM32/LLD/can_lld.h"
 825              		.file 31 "../lib/e-puck2_main-processor/ChibiOS//os/hal/include/dac.h"
 826              		.file 32 "../lib/e-puck2_main-processor/ChibiOS//os/hal/ports/STM32/LLD/DACv1/dac_lld.h"
 827              		.file 33 "../lib/e-puck2_main-processor/ChibiOS//os/hal/include/ext.h"
 828              		.file 34 "../lib/e-puck2_main-processor/ChibiOS//os/hal/ports/STM32/LLD/ext_lld.h"
 829              		.file 35 "../lib/e-puck2_main-processor/ChibiOS//os/hal/include/gpt.h"
 830              		.file 36 "../lib/e-puck2_main-processor/ChibiOS//os/hal/ports/STM32/LLD/TIMv1/gpt_lld.h"
 831              		.file 37 "../lib/e-puck2_main-processor/ChibiOS//os/hal/ports/STM32/LLD/TIMv1/stm32_tim.h"
 832              		.file 38 "../lib/e-puck2_main-processor/ChibiOS//os/hal/include/i2c.h"
 833              		.file 39 "../lib/e-puck2_main-processor/ChibiOS//os/hal/ports/STM32/LLD/I2Cv1/i2c_lld.h"
 834              		.file 40 "../lib/e-puck2_main-processor/ChibiOS//os/hal/include/i2s.h"
 835              		.file 41 "../lib/e-puck2_main-processor/ChibiOS//os/hal/ports/STM32/LLD/SPIv1/i2s_lld.h"
 836              		.file 42 "../lib/e-puck2_main-processor/ChibiOS//os/hal/include/pwm.h"
 837              		.file 43 "../lib/e-puck2_main-processor/ChibiOS//os/hal/ports/STM32/LLD/TIMv1/pwm_lld.h"
 838              		.file 44 "../lib/e-puck2_main-processor/ChibiOS//os/hal/include/serial.h"
 839              		.file 45 "../lib/e-puck2_main-processor/ChibiOS//os/hal/ports/STM32/LLD/USARTv1/serial_lld.h"
 840              		.file 46 "../lib/e-puck2_main-processor/ChibiOS//os/hal/include/sdc.h"
 841              		.file 47 "../lib/e-puck2_main-processor/ChibiOS//os/hal/ports/STM32/LLD/sdc_lld.h"
 842              		.file 48 "../lib/e-puck2_main-processor/ChibiOS//os/hal/include/spi.h"
 843              		.file 49 "../lib/e-puck2_main-processor/ChibiOS//os/hal/ports/STM32/LLD/SPIv1/spi_lld.h"
ARM GAS  C:\Users\PCHAUT~1\AppData\Local\Temp\ccDlnzcK.s 			page 16


 844              		.file 50 "../lib/e-puck2_main-processor/ChibiOS//os/hal/include/usb.h"
 845              		.file 51 "../lib/e-puck2_main-processor/ChibiOS//os/hal/ports/STM32/LLD/OTGv1/usb_lld.h"
 846              		.file 52 "../lib/e-puck2_main-processor/ChibiOS//os/hal/ports/STM32/LLD/OTGv1/stm32_otg.h"