ARM GAS  C:\Users\PCHAUT~1\AppData\Local\Temp\ccpkTUf2.s 			page 1


   1              		.cpu cortex-m4
   2              		.eabi_attribute 27, 1
   3              		.eabi_attribute 28, 1
   4              		.eabi_attribute 20, 1
   5              		.eabi_attribute 21, 1
   6              		.eabi_attribute 23, 3
   7              		.eabi_attribute 24, 1
   8              		.eabi_attribute 25, 1
   9              		.eabi_attribute 26, 1
  10              		.eabi_attribute 30, 6
  11              		.eabi_attribute 34, 1
  12              		.eabi_attribute 18, 4
  13              		.file	"ir_remote.c"
  14              		.text
  15              	.Ltext0:
  16              		.cfi_sections	.debug_frame
  17              		.section	.text.port_lock,"ax",%progbits
  18              		.align	1
  19              		.p2align 4,,15
  20              		.syntax unified
  21              		.thumb
  22              		.thumb_func
  23              		.fpu fpv4-sp-d16
  24              		.type	port_lock, %function
  25              	port_lock:
  26              	.LFB116:
  27              		.file 1 "../lib/e-puck2_main-processor/ChibiOS//os/rt/ports/ARMCMx/chcore_v7m.h"
  28              		.loc 1 444 0
  29              		.cfi_startproc
  30              		@ args = 0, pretend = 0, frame = 8
  31              		@ frame_needed = 0, uses_anonymous_args = 0
  32 0000 00B5     		push	{lr}
  33              		.cfi_def_cfa_offset 4
  34              		.cfi_offset 14, -4
  35 0002 83B0     		sub	sp, sp, #12
  36              		.cfi_def_cfa_offset 16
  37              		.loc 1 444 0
  38 0004 094B     		ldr	r3, .L3
  39 0006 1B68     		ldr	r3, [r3]
  40 0008 0193     		str	r3, [sp, #4]
  41 000a 2023     		movs	r3, #32
  42 000c 0093     		str	r3, [sp]
  43              	.LBB6:
  44              	.LBB7:
  45              		.file 2 "../lib/e-puck2_main-processor/ChibiOS//os/ext/CMSIS/include/core_cmFunc.h"
  46              		.loc 2 546 0
  47 000e 009B     		ldr	r3, [sp]
  48              		.syntax unified
  49              	@ 546 "../lib/e-puck2_main-processor/ChibiOS//os/ext/CMSIS/include/core_cmFunc.h" 1
  50 0010 83F31188 		MSR basepri, r3
  51              	@ 0 "" 2
  52              		.thumb
  53              		.syntax unified
  54              	.LBE7:
  55              	.LBE6:
  56              		.loc 1 451 0
  57 0014 00BF     		nop
ARM GAS  C:\Users\PCHAUT~1\AppData\Local\Temp\ccpkTUf2.s 			page 2


  58 0016 054B     		ldr	r3, .L3
  59 0018 019A     		ldr	r2, [sp, #4]
  60 001a 1B68     		ldr	r3, [r3]
  61 001c 9A42     		cmp	r2, r3
  62 001e 01D0     		beq	.L2
  63 0020 FFF7FEFF 		bl	__stack_chk_fail
  64              	.L2:
  65 0024 03B0     		add	sp, sp, #12
  66              		.cfi_def_cfa_offset 4
  67              		@ sp needed
  68 0026 5DF804FB 		ldr	pc, [sp], #4
  69              	.L4:
  70 002a 00BF     		.align	2
  71              	.L3:
  72 002c 00000000 		.word	__stack_chk_guard
  73              		.cfi_endproc
  74              	.LFE116:
  75              		.size	port_lock, .-port_lock
  76              		.section	.text.port_unlock,"ax",%progbits
  77              		.align	1
  78              		.p2align 4,,15
  79              		.syntax unified
  80              		.thumb
  81              		.thumb_func
  82              		.fpu fpv4-sp-d16
  83              		.type	port_unlock, %function
  84              	port_unlock:
  85              	.LFB117:
  86              		.loc 1 458 0
  87              		.cfi_startproc
  88              		@ args = 0, pretend = 0, frame = 8
  89              		@ frame_needed = 0, uses_anonymous_args = 0
  90 0000 00B5     		push	{lr}
  91              		.cfi_def_cfa_offset 4
  92              		.cfi_offset 14, -4
  93 0002 83B0     		sub	sp, sp, #12
  94              		.cfi_def_cfa_offset 16
  95              		.loc 1 458 0
  96 0004 094B     		ldr	r3, .L7
  97 0006 1B68     		ldr	r3, [r3]
  98 0008 0193     		str	r3, [sp, #4]
  99 000a 0023     		movs	r3, #0
 100 000c 0093     		str	r3, [sp]
 101              	.LBB8:
 102              	.LBB9:
 103              		.loc 2 546 0
 104 000e 009B     		ldr	r3, [sp]
 105              		.syntax unified
 106              	@ 546 "../lib/e-puck2_main-processor/ChibiOS//os/ext/CMSIS/include/core_cmFunc.h" 1
 107 0010 83F31188 		MSR basepri, r3
 108              	@ 0 "" 2
 109              		.thumb
 110              		.syntax unified
 111              	.LBE9:
 112              	.LBE8:
 113              		.loc 1 465 0
 114 0014 00BF     		nop
ARM GAS  C:\Users\PCHAUT~1\AppData\Local\Temp\ccpkTUf2.s 			page 3


 115 0016 054B     		ldr	r3, .L7
 116 0018 019A     		ldr	r2, [sp, #4]
 117 001a 1B68     		ldr	r3, [r3]
 118 001c 9A42     		cmp	r2, r3
 119 001e 01D0     		beq	.L6
 120 0020 FFF7FEFF 		bl	__stack_chk_fail
 121              	.L6:
 122 0024 03B0     		add	sp, sp, #12
 123              		.cfi_def_cfa_offset 4
 124              		@ sp needed
 125 0026 5DF804FB 		ldr	pc, [sp], #4
 126              	.L8:
 127 002a 00BF     		.align	2
 128              	.L7:
 129 002c 00000000 		.word	__stack_chk_guard
 130              		.cfi_endproc
 131              	.LFE117:
 132              		.size	port_unlock, .-port_unlock
 133              		.section	.text.chSysLock,"ax",%progbits
 134              		.align	1
 135              		.p2align 4,,15
 136              		.syntax unified
 137              		.thumb
 138              		.thumb_func
 139              		.fpu fpv4-sp-d16
 140              		.type	chSysLock, %function
 141              	chSysLock:
 142              	.LFB145:
 143              		.file 3 "../lib/e-puck2_main-processor/ChibiOS//os/rt/include/chsys.h"
 144              		.loc 3 346 0
 145              		.cfi_startproc
 146              		@ args = 0, pretend = 0, frame = 8
 147              		@ frame_needed = 0, uses_anonymous_args = 0
 148 0000 00B5     		push	{lr}
 149              		.cfi_def_cfa_offset 4
 150              		.cfi_offset 14, -4
 151 0002 83B0     		sub	sp, sp, #12
 152              		.cfi_def_cfa_offset 16
 153              		.loc 3 346 0
 154 0004 094B     		ldr	r3, .L11
 155 0006 1B68     		ldr	r3, [r3]
 156 0008 0193     		str	r3, [sp, #4]
 157              		.loc 3 348 0
 158 000a FFF7FEFF 		bl	port_lock
 159              		.loc 3 349 0
 160 000e FFF7FEFF 		bl	_stats_start_measure_crit_thd
 161              		.loc 3 350 0
 162 0012 FFF7FEFF 		bl	_dbg_check_lock
 163              		.loc 3 351 0
 164 0016 00BF     		nop
 165 0018 044B     		ldr	r3, .L11
 166 001a 019A     		ldr	r2, [sp, #4]
 167 001c 1B68     		ldr	r3, [r3]
 168 001e 9A42     		cmp	r2, r3
 169 0020 01D0     		beq	.L10
 170 0022 FFF7FEFF 		bl	__stack_chk_fail
 171              	.L10:
ARM GAS  C:\Users\PCHAUT~1\AppData\Local\Temp\ccpkTUf2.s 			page 4


 172 0026 03B0     		add	sp, sp, #12
 173              		.cfi_def_cfa_offset 4
 174              		@ sp needed
 175 0028 5DF804FB 		ldr	pc, [sp], #4
 176              	.L12:
 177              		.align	2
 178              	.L11:
 179 002c 00000000 		.word	__stack_chk_guard
 180              		.cfi_endproc
 181              	.LFE145:
 182              		.size	chSysLock, .-chSysLock
 183              		.section	.text.chSysUnlock,"ax",%progbits
 184              		.align	1
 185              		.p2align 4,,15
 186              		.syntax unified
 187              		.thumb
 188              		.thumb_func
 189              		.fpu fpv4-sp-d16
 190              		.type	chSysUnlock, %function
 191              	chSysUnlock:
 192              	.LFB146:
 193              		.loc 3 358 0
 194              		.cfi_startproc
 195              		@ args = 0, pretend = 0, frame = 8
 196              		@ frame_needed = 0, uses_anonymous_args = 0
 197 0000 00B5     		push	{lr}
 198              		.cfi_def_cfa_offset 4
 199              		.cfi_offset 14, -4
 200 0002 83B0     		sub	sp, sp, #12
 201              		.cfi_def_cfa_offset 16
 202              		.loc 3 358 0
 203 0004 114B     		ldr	r3, .L16
 204 0006 1B68     		ldr	r3, [r3]
 205 0008 0193     		str	r3, [sp, #4]
 206              		.loc 3 360 0
 207 000a FFF7FEFF 		bl	_dbg_check_unlock
 208              		.loc 3 361 0
 209 000e FFF7FEFF 		bl	_stats_stop_measure_crit_thd
 210              		.loc 3 367 0
 211 0012 0F4B     		ldr	r3, .L16+4
 212 0014 1B68     		ldr	r3, [r3]
 213 0016 0E4A     		ldr	r2, .L16+4
 214 0018 9342     		cmp	r3, r2
 215 001a 0AD0     		beq	.L14
 216              		.loc 3 367 0 is_stmt 0 discriminator 2
 217 001c 0C4B     		ldr	r3, .L16+4
 218 001e 9B69     		ldr	r3, [r3, #24]
 219 0020 9A68     		ldr	r2, [r3, #8]
 220 0022 0B4B     		ldr	r3, .L16+4
 221 0024 1B68     		ldr	r3, [r3]
 222 0026 9B68     		ldr	r3, [r3, #8]
 223 0028 9A42     		cmp	r2, r3
 224 002a 02D2     		bcs	.L14
 225              		.loc 3 367 0 discriminator 3
 226 002c 0948     		ldr	r0, .L16+8
 227 002e FFF7FEFF 		bl	chSysHalt
 228              	.L14:
ARM GAS  C:\Users\PCHAUT~1\AppData\Local\Temp\ccpkTUf2.s 			page 5


 229              		.loc 3 371 0 is_stmt 1
 230 0032 FFF7FEFF 		bl	port_unlock
 231              		.loc 3 372 0
 232 0036 00BF     		nop
 233 0038 044B     		ldr	r3, .L16
 234 003a 019A     		ldr	r2, [sp, #4]
 235 003c 1B68     		ldr	r3, [r3]
 236 003e 9A42     		cmp	r2, r3
 237 0040 01D0     		beq	.L15
 238 0042 FFF7FEFF 		bl	__stack_chk_fail
 239              	.L15:
 240 0046 03B0     		add	sp, sp, #12
 241              		.cfi_def_cfa_offset 4
 242              		@ sp needed
 243 0048 5DF804FB 		ldr	pc, [sp], #4
 244              	.L17:
 245              		.align	2
 246              	.L16:
 247 004c 00000000 		.word	__stack_chk_guard
 248 0050 00000000 		.word	ch
 249 0054 00000000 		.word	__func__.7153
 250              		.cfi_endproc
 251              	.LFE146:
 252              		.size	chSysUnlock, .-chSysUnlock
 253              		.section	.text.chVTGetSystemTimeX,"ax",%progbits
 254              		.align	1
 255              		.p2align 4,,15
 256              		.syntax unified
 257              		.thumb
 258              		.thumb_func
 259              		.fpu fpv4-sp-d16
 260              		.type	chVTGetSystemTimeX, %function
 261              	chVTGetSystemTimeX:
 262              	.LFB153:
 263              		.file 4 "../lib/e-puck2_main-processor/ChibiOS//os/rt/include/chvt.h"
 264              		.loc 4 228 0
 265              		.cfi_startproc
 266              		@ args = 0, pretend = 0, frame = 8
 267              		@ frame_needed = 0, uses_anonymous_args = 0
 268 0000 00B5     		push	{lr}
 269              		.cfi_def_cfa_offset 4
 270              		.cfi_offset 14, -4
 271 0002 83B0     		sub	sp, sp, #12
 272              		.cfi_def_cfa_offset 16
 273              		.loc 4 228 0
 274 0004 074B     		ldr	r3, .L21
 275 0006 1B68     		ldr	r3, [r3]
 276 0008 0193     		str	r3, [sp, #4]
 277              		.loc 4 231 0
 278 000a 074B     		ldr	r3, .L21+4
 279 000c 9B6A     		ldr	r3, [r3, #40]
 280              		.loc 4 235 0
 281 000e 1846     		mov	r0, r3
 282 0010 044B     		ldr	r3, .L21
 283 0012 019A     		ldr	r2, [sp, #4]
 284 0014 1B68     		ldr	r3, [r3]
 285 0016 9A42     		cmp	r2, r3
ARM GAS  C:\Users\PCHAUT~1\AppData\Local\Temp\ccpkTUf2.s 			page 6


 286 0018 01D0     		beq	.L20
 287 001a FFF7FEFF 		bl	__stack_chk_fail
 288              	.L20:
 289 001e 03B0     		add	sp, sp, #12
 290              		.cfi_def_cfa_offset 4
 291              		@ sp needed
 292 0020 5DF804FB 		ldr	pc, [sp], #4
 293              	.L22:
 294              		.align	2
 295              	.L21:
 296 0024 00000000 		.word	__stack_chk_guard
 297 0028 00000000 		.word	ch
 298              		.cfi_endproc
 299              	.LFE153:
 300              		.size	chVTGetSystemTimeX, .-chVTGetSystemTimeX
 301              		.section	.text.chVTGetSystemTime,"ax",%progbits
 302              		.align	1
 303              		.p2align 4,,15
 304              		.syntax unified
 305              		.thumb
 306              		.thumb_func
 307              		.fpu fpv4-sp-d16
 308              		.type	chVTGetSystemTime, %function
 309              	chVTGetSystemTime:
 310              	.LFB154:
 311              		.loc 4 247 0
 312              		.cfi_startproc
 313              		@ args = 0, pretend = 0, frame = 8
 314              		@ frame_needed = 0, uses_anonymous_args = 0
 315 0000 00B5     		push	{lr}
 316              		.cfi_def_cfa_offset 4
 317              		.cfi_offset 14, -4
 318 0002 83B0     		sub	sp, sp, #12
 319              		.cfi_def_cfa_offset 16
 320              		.loc 4 247 0
 321 0004 0A4B     		ldr	r3, .L26
 322 0006 1B68     		ldr	r3, [r3]
 323 0008 0193     		str	r3, [sp, #4]
 324              		.loc 4 250 0
 325 000a FFF7FEFF 		bl	chSysLock
 326              		.loc 4 251 0
 327 000e FFF7FEFF 		bl	chVTGetSystemTimeX
 328 0012 0090     		str	r0, [sp]
 329              		.loc 4 252 0
 330 0014 FFF7FEFF 		bl	chSysUnlock
 331              		.loc 4 254 0
 332 0018 009B     		ldr	r3, [sp]
 333              		.loc 4 255 0
 334 001a 1846     		mov	r0, r3
 335 001c 044B     		ldr	r3, .L26
 336 001e 019A     		ldr	r2, [sp, #4]
 337 0020 1B68     		ldr	r3, [r3]
 338 0022 9A42     		cmp	r2, r3
 339 0024 01D0     		beq	.L25
 340 0026 FFF7FEFF 		bl	__stack_chk_fail
 341              	.L25:
 342 002a 03B0     		add	sp, sp, #12
ARM GAS  C:\Users\PCHAUT~1\AppData\Local\Temp\ccpkTUf2.s 			page 7


 343              		.cfi_def_cfa_offset 4
 344              		@ sp needed
 345 002c 5DF804FB 		ldr	pc, [sp], #4
 346              	.L27:
 347              		.align	2
 348              	.L26:
 349 0030 00000000 		.word	__stack_chk_guard
 350              		.cfi_endproc
 351              	.LFE154:
 352              		.size	chVTGetSystemTime, .-chVTGetSystemTime
 353              		.section	.text.chRegSetThreadName,"ax",%progbits
 354              		.align	1
 355              		.p2align 4,,15
 356              		.syntax unified
 357              		.thumb
 358              		.thumb_func
 359              		.fpu fpv4-sp-d16
 360              		.type	chRegSetThreadName, %function
 361              	chRegSetThreadName:
 362              	.LFB176:
 363              		.file 5 "../lib/e-puck2_main-processor/ChibiOS//os/rt/include/chregistry.h"
 364              		.loc 5 132 0
 365              		.cfi_startproc
 366              		@ args = 0, pretend = 0, frame = 16
 367              		@ frame_needed = 0, uses_anonymous_args = 0
 368 0000 00B5     		push	{lr}
 369              		.cfi_def_cfa_offset 4
 370              		.cfi_offset 14, -4
 371 0002 85B0     		sub	sp, sp, #20
 372              		.cfi_def_cfa_offset 24
 373 0004 0190     		str	r0, [sp, #4]
 374              		.loc 5 132 0
 375 0006 094B     		ldr	r3, .L30
 376 0008 1B68     		ldr	r3, [r3]
 377 000a 0393     		str	r3, [sp, #12]
 378              		.loc 5 135 0
 379 000c 084B     		ldr	r3, .L30+4
 380 000e 9B69     		ldr	r3, [r3, #24]
 381 0010 019A     		ldr	r2, [sp, #4]
 382 0012 9A61     		str	r2, [r3, #24]
 383              		.loc 5 139 0
 384 0014 00BF     		nop
 385 0016 054B     		ldr	r3, .L30
 386 0018 039A     		ldr	r2, [sp, #12]
 387 001a 1B68     		ldr	r3, [r3]
 388 001c 9A42     		cmp	r2, r3
 389 001e 01D0     		beq	.L29
 390 0020 FFF7FEFF 		bl	__stack_chk_fail
 391              	.L29:
 392 0024 05B0     		add	sp, sp, #20
 393              		.cfi_def_cfa_offset 4
 394              		@ sp needed
 395 0026 5DF804FB 		ldr	pc, [sp], #4
 396              	.L31:
 397 002a 00BF     		.align	2
 398              	.L30:
 399 002c 00000000 		.word	__stack_chk_guard
ARM GAS  C:\Users\PCHAUT~1\AppData\Local\Temp\ccpkTUf2.s 			page 8


 400 0030 00000000 		.word	ch
 401              		.cfi_endproc
 402              	.LFE176:
 403              		.size	chRegSetThreadName, .-chRegSetThreadName
 404              		.section	.bss.ir_remote_values,"aw",%nobits
 405              		.align	2
 406              		.type	ir_remote_values, %object
 407              		.size	ir_remote_values, 3
 408              	ir_remote_values:
 409 0000 000000   		.space	3
 410              		.global	trans
 411              		.section	.rodata.trans,"a",%progbits
 412              		.align	2
 413              		.type	trans, %object
 414              		.size	trans, 4
 415              	trans:
 416 0000 01       		.byte	1
 417 0001 91       		.byte	-111
 418 0002 9B       		.byte	-101
 419 0003 FB       		.byte	-5
 420              		.section	.text.reset_counter_gpt,"ax",%progbits
 421              		.align	1
 422              		.p2align 4,,15
 423              		.syntax unified
 424              		.thumb
 425              		.thumb_func
 426              		.fpu fpv4-sp-d16
 427              		.type	reset_counter_gpt, %function
 428              	reset_counter_gpt:
 429              	.LFB257:
 430              		.file 6 "../lib/e-puck2_main-processor/src/ir_remote.c"
 431              		.loc 6 101 0
 432              		.cfi_startproc
 433              		@ args = 0, pretend = 0, frame = 16
 434              		@ frame_needed = 0, uses_anonymous_args = 0
 435 0000 00B5     		push	{lr}
 436              		.cfi_def_cfa_offset 4
 437              		.cfi_offset 14, -4
 438 0002 85B0     		sub	sp, sp, #20
 439              		.cfi_def_cfa_offset 24
 440 0004 0190     		str	r0, [sp, #4]
 441              		.loc 6 101 0
 442 0006 094B     		ldr	r3, .L34
 443 0008 1B68     		ldr	r3, [r3]
 444 000a 0393     		str	r3, [sp, #12]
 445              		.loc 6 102 0
 446 000c 019B     		ldr	r3, [sp, #4]
 447 000e DB68     		ldr	r3, [r3, #12]
 448 0010 0022     		movs	r2, #0
 449 0012 5A62     		str	r2, [r3, #36]
 450              		.loc 6 103 0
 451 0014 00BF     		nop
 452 0016 054B     		ldr	r3, .L34
 453 0018 039A     		ldr	r2, [sp, #12]
 454 001a 1B68     		ldr	r3, [r3]
 455 001c 9A42     		cmp	r2, r3
 456 001e 01D0     		beq	.L33
ARM GAS  C:\Users\PCHAUT~1\AppData\Local\Temp\ccpkTUf2.s 			page 9


 457 0020 FFF7FEFF 		bl	__stack_chk_fail
 458              	.L33:
 459 0024 05B0     		add	sp, sp, #20
 460              		.cfi_def_cfa_offset 4
 461              		@ sp needed
 462 0026 5DF804FB 		ldr	pc, [sp], #4
 463              	.L35:
 464 002a 00BF     		.align	2
 465              	.L34:
 466 002c 00000000 		.word	__stack_chk_guard
 467              		.cfi_endproc
 468              	.LFE257:
 469              		.size	reset_counter_gpt, .-reset_counter_gpt
 470              		.section	.text.RC5_reset,"ax",%progbits
 471              		.align	1
 472              		.p2align 4,,15
 473              		.syntax unified
 474              		.thumb
 475              		.thumb_func
 476              		.fpu fpv4-sp-d16
 477              		.type	RC5_reset, %function
 478              	RC5_reset:
 479              	.LFB258:
 480              		.loc 6 112 0
 481              		.cfi_startproc
 482              		@ args = 0, pretend = 0, frame = 16
 483              		@ frame_needed = 0, uses_anonymous_args = 0
 484 0000 00B5     		push	{lr}
 485              		.cfi_def_cfa_offset 4
 486              		.cfi_offset 14, -4
 487 0002 85B0     		sub	sp, sp, #20
 488              		.cfi_def_cfa_offset 24
 489 0004 0190     		str	r0, [sp, #4]
 490              		.loc 6 112 0
 491 0006 0D4B     		ldr	r3, .L38
 492 0008 1B68     		ldr	r3, [r3]
 493 000a 0393     		str	r3, [sp, #12]
 494              		.loc 6 113 0
 495 000c 019B     		ldr	r3, [sp, #4]
 496 000e 0122     		movs	r2, #1
 497 0010 5A70     		strb	r2, [r3, #1]
 498              		.loc 6 114 0
 499 0012 019B     		ldr	r3, [sp, #4]
 500 0014 0122     		movs	r2, #1
 501 0016 DA60     		str	r2, [r3, #12]
 502              		.loc 6 115 0
 503 0018 019B     		ldr	r3, [sp, #4]
 504 001a 0122     		movs	r2, #1
 505 001c 1A61     		str	r2, [r3, #16]
 506              		.loc 6 116 0
 507 001e 019B     		ldr	r3, [sp, #4]
 508 0020 0022     		movs	r2, #0
 509 0022 5A60     		str	r2, [r3, #4]
 510              		.loc 6 117 0
 511 0024 00BF     		nop
 512 0026 054B     		ldr	r3, .L38
 513 0028 039A     		ldr	r2, [sp, #12]
ARM GAS  C:\Users\PCHAUT~1\AppData\Local\Temp\ccpkTUf2.s 			page 10


 514 002a 1B68     		ldr	r3, [r3]
 515 002c 9A42     		cmp	r2, r3
 516 002e 01D0     		beq	.L37
 517 0030 FFF7FEFF 		bl	__stack_chk_fail
 518              	.L37:
 519 0034 05B0     		add	sp, sp, #20
 520              		.cfi_def_cfa_offset 4
 521              		@ sp needed
 522 0036 5DF804FB 		ldr	pc, [sp], #4
 523              	.L39:
 524 003a 00BF     		.align	2
 525              	.L38:
 526 003c 00000000 		.word	__stack_chk_guard
 527              		.cfi_endproc
 528              	.LFE258:
 529              		.size	RC5_reset, .-RC5_reset
 530              		.section	.text.RC5_decodeEvent,"ax",%progbits
 531              		.align	1
 532              		.p2align 4,,15
 533              		.syntax unified
 534              		.thumb
 535              		.thumb_func
 536              		.fpu fpv4-sp-d16
 537              		.type	RC5_decodeEvent, %function
 538              	RC5_decodeEvent:
 539              	.LFB259:
 540              		.loc 6 127 0
 541              		.cfi_startproc
 542              		@ args = 0, pretend = 0, frame = 16
 543              		@ frame_needed = 0, uses_anonymous_args = 0
 544 0000 00B5     		push	{lr}
 545              		.cfi_def_cfa_offset 4
 546              		.cfi_offset 14, -4
 547 0002 85B0     		sub	sp, sp, #20
 548              		.cfi_def_cfa_offset 24
 549 0004 0190     		str	r0, [sp, #4]
 550 0006 0B46     		mov	r3, r1
 551 0008 8DF80330 		strb	r3, [sp, #3]
 552              		.loc 6 127 0
 553 000c 244B     		ldr	r3, .L46
 554 000e 1B68     		ldr	r3, [r3]
 555 0010 0393     		str	r3, [sp, #12]
 556              		.loc 6 129 0
 557 0012 019B     		ldr	r3, [sp, #4]
 558 0014 5B78     		ldrb	r3, [r3, #1]	@ zero_extendqisi2
 559 0016 1A46     		mov	r2, r3
 560 0018 224B     		ldr	r3, .L46+4
 561 001a 9B5C     		ldrb	r3, [r3, r2]	@ zero_extendqisi2
 562 001c 1A46     		mov	r2, r3
 563 001e 9DF80330 		ldrb	r3, [sp, #3]	@ zero_extendqisi2
 564 0022 42FA03F3 		asr	r3, r2, r3
 565 0026 DBB2     		uxtb	r3, r3
 566 0028 03F00303 		and	r3, r3, #3
 567 002c 8DF80B30 		strb	r3, [sp, #11]
 568              		.loc 6 130 0
 569 0030 019B     		ldr	r3, [sp, #4]
 570 0032 5B78     		ldrb	r3, [r3, #1]	@ zero_extendqisi2
ARM GAS  C:\Users\PCHAUT~1\AppData\Local\Temp\ccpkTUf2.s 			page 11


 571 0034 9DF80B20 		ldrb	r2, [sp, #11]	@ zero_extendqisi2
 572 0038 9A42     		cmp	r2, r3
 573 003a 03D1     		bne	.L41
 574              		.loc 6 132 0
 575 003c 0198     		ldr	r0, [sp, #4]
 576 003e FFF7FEFF 		bl	RC5_reset
 577              		.loc 6 145 0
 578 0042 21E0     		b	.L45
 579              	.L41:
 580              		.loc 6 134 0
 581 0044 019B     		ldr	r3, [sp, #4]
 582 0046 9DF80B20 		ldrb	r2, [sp, #11]
 583 004a 5A70     		strb	r2, [r3, #1]
 584              		.loc 6 135 0
 585 004c 9DF80B30 		ldrb	r3, [sp, #11]	@ zero_extendqisi2
 586 0050 022B     		cmp	r3, #2
 587 0052 0AD1     		bne	.L43
 588              		.loc 6 137 0
 589 0054 019B     		ldr	r3, [sp, #4]
 590 0056 1B69     		ldr	r3, [r3, #16]
 591 0058 5A00     		lsls	r2, r3, #1
 592 005a 019B     		ldr	r3, [sp, #4]
 593 005c 1A61     		str	r2, [r3, #16]
 594              		.loc 6 138 0
 595 005e 019B     		ldr	r3, [sp, #4]
 596 0060 DB68     		ldr	r3, [r3, #12]
 597 0062 5A1C     		adds	r2, r3, #1
 598 0064 019B     		ldr	r3, [sp, #4]
 599 0066 DA60     		str	r2, [r3, #12]
 600              		.loc 6 145 0
 601 0068 0EE0     		b	.L45
 602              	.L43:
 603              		.loc 6 139 0
 604 006a 9DF80B30 		ldrb	r3, [sp, #11]	@ zero_extendqisi2
 605 006e 012B     		cmp	r3, #1
 606 0070 0AD1     		bne	.L45
 607              		.loc 6 141 0
 608 0072 019B     		ldr	r3, [sp, #4]
 609 0074 1B69     		ldr	r3, [r3, #16]
 610 0076 5B00     		lsls	r3, r3, #1
 611 0078 5A1C     		adds	r2, r3, #1
 612 007a 019B     		ldr	r3, [sp, #4]
 613 007c 1A61     		str	r2, [r3, #16]
 614              		.loc 6 142 0
 615 007e 019B     		ldr	r3, [sp, #4]
 616 0080 DB68     		ldr	r3, [r3, #12]
 617 0082 5A1C     		adds	r2, r3, #1
 618 0084 019B     		ldr	r3, [sp, #4]
 619 0086 DA60     		str	r2, [r3, #12]
 620              	.L45:
 621              		.loc 6 145 0
 622 0088 00BF     		nop
 623 008a 054B     		ldr	r3, .L46
 624 008c 039A     		ldr	r2, [sp, #12]
 625 008e 1B68     		ldr	r3, [r3]
 626 0090 9A42     		cmp	r2, r3
 627 0092 01D0     		beq	.L44
ARM GAS  C:\Users\PCHAUT~1\AppData\Local\Temp\ccpkTUf2.s 			page 12


 628 0094 FFF7FEFF 		bl	__stack_chk_fail
 629              	.L44:
 630 0098 05B0     		add	sp, sp, #20
 631              		.cfi_def_cfa_offset 4
 632              		@ sp needed
 633 009a 5DF804FB 		ldr	pc, [sp], #4
 634              	.L47:
 635 009e 00BF     		.align	2
 636              	.L46:
 637 00a0 00000000 		.word	__stack_chk_guard
 638 00a4 00000000 		.word	trans
 639              		.cfi_endproc
 640              	.LFE259:
 641              		.size	RC5_decodeEvent, .-RC5_decodeEvent
 642              		.section	.text.RC5_decodePulse,"ax",%progbits
 643              		.align	1
 644              		.p2align 4,,15
 645              		.syntax unified
 646              		.thumb
 647              		.thumb_func
 648              		.fpu fpv4-sp-d16
 649              		.type	RC5_decodePulse, %function
 650              	RC5_decodePulse:
 651              	.LFB260:
 652              		.loc 6 156 0
 653              		.cfi_startproc
 654              		@ args = 0, pretend = 0, frame = 24
 655              		@ frame_needed = 0, uses_anonymous_args = 0
 656 0000 00B5     		push	{lr}
 657              		.cfi_def_cfa_offset 4
 658              		.cfi_offset 14, -4
 659 0002 87B0     		sub	sp, sp, #28
 660              		.cfi_def_cfa_offset 32
 661 0004 0390     		str	r0, [sp, #12]
 662 0006 0B46     		mov	r3, r1
 663 0008 0192     		str	r2, [sp, #4]
 664 000a 8DF80B30 		strb	r3, [sp, #11]
 665              		.loc 6 156 0
 666 000e 1E4B     		ldr	r3, .L57
 667 0010 1B68     		ldr	r3, [r3]
 668 0012 0593     		str	r3, [sp, #20]
 669              		.loc 6 157 0
 670 0014 019B     		ldr	r3, [sp, #4]
 671 0016 B3F5DE7F 		cmp	r3, #444
 672 001a 10D3     		bcc	.L49
 673              		.loc 6 157 0 is_stmt 0 discriminator 1
 674 001c 019B     		ldr	r3, [sp, #4]
 675 001e 40F23552 		movw	r2, #1333
 676 0022 9342     		cmp	r3, r2
 677 0024 0BD8     		bhi	.L49
 678              		.loc 6 158 0 is_stmt 1
 679 0026 9DF80B30 		ldrb	r3, [sp, #11]	@ zero_extendqisi2
 680 002a 002B     		cmp	r3, #0
 681 002c 01D0     		beq	.L50
 682              		.loc 6 158 0 is_stmt 0 discriminator 1
 683 002e 0223     		movs	r3, #2
 684 0030 00E0     		b	.L51
ARM GAS  C:\Users\PCHAUT~1\AppData\Local\Temp\ccpkTUf2.s 			page 13


 685              	.L50:
 686              		.loc 6 158 0 discriminator 2
 687 0032 0023     		movs	r3, #0
 688              	.L51:
 689              		.loc 6 158 0 discriminator 4
 690 0034 1946     		mov	r1, r3
 691 0036 0398     		ldr	r0, [sp, #12]
 692 0038 FFF7FEFF 		bl	RC5_decodeEvent
 693 003c 18E0     		b	.L52
 694              	.L49:
 695              		.loc 6 159 0 is_stmt 1
 696 003e 019B     		ldr	r3, [sp, #4]
 697 0040 40F23552 		movw	r2, #1333
 698 0044 9342     		cmp	r3, r2
 699 0046 10D9     		bls	.L53
 700              		.loc 6 159 0 is_stmt 0 discriminator 1
 701 0048 019B     		ldr	r3, [sp, #4]
 702 004a 40F6AE02 		movw	r2, #2222
 703 004e 9342     		cmp	r3, r2
 704 0050 0BD8     		bhi	.L53
 705              		.loc 6 160 0 is_stmt 1
 706 0052 9DF80B30 		ldrb	r3, [sp, #11]	@ zero_extendqisi2
 707 0056 002B     		cmp	r3, #0
 708 0058 01D0     		beq	.L54
 709              		.loc 6 160 0 is_stmt 0 discriminator 1
 710 005a 0623     		movs	r3, #6
 711 005c 00E0     		b	.L55
 712              	.L54:
 713              		.loc 6 160 0 discriminator 2
 714 005e 0423     		movs	r3, #4
 715              	.L55:
 716              		.loc 6 160 0 discriminator 4
 717 0060 1946     		mov	r1, r3
 718 0062 0398     		ldr	r0, [sp, #12]
 719 0064 FFF7FEFF 		bl	RC5_decodeEvent
 720 0068 02E0     		b	.L52
 721              	.L53:
 722              		.loc 6 163 0 is_stmt 1
 723 006a 0398     		ldr	r0, [sp, #12]
 724 006c FFF7FEFF 		bl	RC5_reset
 725              	.L52:
 726              		.loc 6 165 0
 727 0070 00BF     		nop
 728 0072 054B     		ldr	r3, .L57
 729 0074 059A     		ldr	r2, [sp, #20]
 730 0076 1B68     		ldr	r3, [r3]
 731 0078 9A42     		cmp	r2, r3
 732 007a 01D0     		beq	.L56
 733 007c FFF7FEFF 		bl	__stack_chk_fail
 734              	.L56:
 735 0080 07B0     		add	sp, sp, #28
 736              		.cfi_def_cfa_offset 4
 737              		@ sp needed
 738 0082 5DF804FB 		ldr	pc, [sp], #4
 739              	.L58:
 740 0086 00BF     		.align	2
 741              	.L57:
ARM GAS  C:\Users\PCHAUT~1\AppData\Local\Temp\ccpkTUf2.s 			page 14


 742 0088 00000000 		.word	__stack_chk_guard
 743              		.cfi_endproc
 744              	.LFE260:
 745              		.size	RC5_decodePulse, .-RC5_decodePulse
 746              		.section	.text.RC5_read_message,"ax",%progbits
 747              		.align	1
 748              		.p2align 4,,15
 749              		.syntax unified
 750              		.thumb
 751              		.thumb_func
 752              		.fpu fpv4-sp-d16
 753              		.type	RC5_read_message, %function
 754              	RC5_read_message:
 755              	.LFB261:
 756              		.loc 6 178 0
 757              		.cfi_startproc
 758              		@ args = 0, pretend = 0, frame = 24
 759              		@ frame_needed = 0, uses_anonymous_args = 0
 760 0000 00B5     		push	{lr}
 761              		.cfi_def_cfa_offset 4
 762              		.cfi_offset 14, -4
 763 0002 87B0     		sub	sp, sp, #28
 764              		.cfi_def_cfa_offset 32
 765 0004 0190     		str	r0, [sp, #4]
 766 0006 0091     		str	r1, [sp]
 767              		.loc 6 178 0
 768 0008 1F4B     		ldr	r3, .L64
 769 000a 1B68     		ldr	r3, [r3]
 770 000c 0593     		str	r3, [sp, #20]
 771              		.loc 6 185 0
 772 000e 1F4B     		ldr	r3, .L64+4
 773 0010 1B69     		ldr	r3, [r3, #16]
 774 0012 DB08     		lsrs	r3, r3, #3
 775 0014 03F00103 		and	r3, r3, #1
 776 0018 0293     		str	r3, [sp, #8]
 777              		.loc 6 187 0
 778 001a 019B     		ldr	r3, [sp, #4]
 779 001c 9B68     		ldr	r3, [r3, #8]
 780 001e 029A     		ldr	r2, [sp, #8]
 781 0020 9A42     		cmp	r2, r3
 782 0022 15D0     		beq	.L60
 783              	.LBB10:
 784              		.loc 6 188 0
 785 0024 1A4B     		ldr	r3, .L64+8
 786 0026 DB68     		ldr	r3, [r3, #12]
 787 0028 5B6A     		ldr	r3, [r3, #36]
 788 002a 0393     		str	r3, [sp, #12]
 789              		.loc 6 189 0
 790 002c 019B     		ldr	r3, [sp, #4]
 791 002e 5B68     		ldr	r3, [r3, #4]
 792 0030 039A     		ldr	r2, [sp, #12]
 793 0032 D31A     		subs	r3, r2, r3
 794 0034 0493     		str	r3, [sp, #16]
 795              		.loc 6 191 0
 796 0036 019B     		ldr	r3, [sp, #4]
 797 0038 029A     		ldr	r2, [sp, #8]
 798 003a 9A60     		str	r2, [r3, #8]
ARM GAS  C:\Users\PCHAUT~1\AppData\Local\Temp\ccpkTUf2.s 			page 15


 799              		.loc 6 192 0
 800 003c 1448     		ldr	r0, .L64+8
 801 003e FFF7FEFF 		bl	reset_counter_gpt
 802              		.loc 6 193 0
 803 0042 029B     		ldr	r3, [sp, #8]
 804 0044 DBB2     		uxtb	r3, r3
 805 0046 049A     		ldr	r2, [sp, #16]
 806 0048 1946     		mov	r1, r3
 807 004a 0198     		ldr	r0, [sp, #4]
 808 004c FFF7FEFF 		bl	RC5_decodePulse
 809              	.L60:
 810              	.LBE10:
 811              		.loc 6 196 0
 812 0050 019B     		ldr	r3, [sp, #4]
 813 0052 DB68     		ldr	r3, [r3, #12]
 814 0054 0E2B     		cmp	r3, #14
 815 0056 0BD1     		bne	.L61
 816              		.loc 6 197 0
 817 0058 019B     		ldr	r3, [sp, #4]
 818 005a 1A69     		ldr	r2, [r3, #16]
 819 005c 009B     		ldr	r3, [sp]
 820 005e 1A60     		str	r2, [r3]
 821              		.loc 6 198 0
 822 0060 019B     		ldr	r3, [sp, #4]
 823 0062 0022     		movs	r2, #0
 824 0064 1A61     		str	r2, [r3, #16]
 825              		.loc 6 199 0
 826 0066 019B     		ldr	r3, [sp, #4]
 827 0068 0022     		movs	r2, #0
 828 006a DA60     		str	r2, [r3, #12]
 829              		.loc 6 200 0
 830 006c 0123     		movs	r3, #1
 831 006e 00E0     		b	.L62
 832              	.L61:
 833              		.loc 6 202 0
 834 0070 0023     		movs	r3, #0
 835              	.L62:
 836              		.loc 6 204 0
 837 0072 1846     		mov	r0, r3
 838 0074 044B     		ldr	r3, .L64
 839 0076 059A     		ldr	r2, [sp, #20]
 840 0078 1B68     		ldr	r3, [r3]
 841 007a 9A42     		cmp	r2, r3
 842 007c 01D0     		beq	.L63
 843 007e FFF7FEFF 		bl	__stack_chk_fail
 844              	.L63:
 845 0082 07B0     		add	sp, sp, #28
 846              		.cfi_def_cfa_offset 4
 847              		@ sp needed
 848 0084 5DF804FB 		ldr	pc, [sp], #4
 849              	.L65:
 850              		.align	2
 851              	.L64:
 852 0088 00000000 		.word	__stack_chk_guard
 853 008c 000C0240 		.word	1073875968
 854 0090 00000000 		.word	GPTD11
 855              		.cfi_endproc
ARM GAS  C:\Users\PCHAUT~1\AppData\Local\Temp\ccpkTUf2.s 			page 16


 856              	.LFE261:
 857              		.size	RC5_read_message, .-RC5_read_message
 858              		.section	.text.RC5_read,"ax",%progbits
 859              		.align	1
 860              		.p2align 4,,15
 861              		.syntax unified
 862              		.thumb
 863              		.thumb_func
 864              		.fpu fpv4-sp-d16
 865              		.type	RC5_read, %function
 866              	RC5_read:
 867              	.LFB262:
 868              		.loc 6 218 0
 869              		.cfi_startproc
 870              		@ args = 0, pretend = 0, frame = 32
 871              		@ frame_needed = 0, uses_anonymous_args = 0
 872 0000 00B5     		push	{lr}
 873              		.cfi_def_cfa_offset 4
 874              		.cfi_offset 14, -4
 875 0002 89B0     		sub	sp, sp, #36
 876              		.cfi_def_cfa_offset 40
 877 0004 0390     		str	r0, [sp, #12]
 878 0006 0291     		str	r1, [sp, #8]
 879 0008 0192     		str	r2, [sp, #4]
 880 000a 0093     		str	r3, [sp]
 881              		.loc 6 218 0
 882 000c 1D4B     		ldr	r3, .L71
 883 000e 1B68     		ldr	r3, [r3]
 884 0010 0793     		str	r3, [sp, #28]
 885              		.loc 6 220 0
 886 0012 06AB     		add	r3, sp, #24
 887 0014 1946     		mov	r1, r3
 888 0016 0398     		ldr	r0, [sp, #12]
 889 0018 FFF7FEFF 		bl	RC5_read_message
 890 001c 0346     		mov	r3, r0
 891 001e 002B     		cmp	r3, #0
 892 0020 24D0     		beq	.L67
 893              	.LBB11:
 894              		.loc 6 221 0
 895 0022 069B     		ldr	r3, [sp, #24]
 896 0024 DB0A     		lsrs	r3, r3, #11
 897 0026 DBB2     		uxtb	r3, r3
 898 0028 03F00103 		and	r3, r3, #1
 899 002c DAB2     		uxtb	r2, r3
 900 002e 029B     		ldr	r3, [sp, #8]
 901 0030 1A70     		strb	r2, [r3]
 902              		.loc 6 222 0
 903 0032 069B     		ldr	r3, [sp, #24]
 904 0034 9B09     		lsrs	r3, r3, #6
 905 0036 DBB2     		uxtb	r3, r3
 906 0038 03F01F03 		and	r3, r3, #31
 907 003c DAB2     		uxtb	r2, r3
 908 003e 019B     		ldr	r3, [sp, #4]
 909 0040 1A70     		strb	r2, [r3]
 910              		.loc 6 227 0
 911 0042 069B     		ldr	r3, [sp, #24]
 912 0044 DB43     		mvns	r3, r3
ARM GAS  C:\Users\PCHAUT~1\AppData\Local\Temp\ccpkTUf2.s 			page 17


 913 0046 5B09     		lsrs	r3, r3, #5
 914 0048 DBB2     		uxtb	r3, r3
 915 004a 23F07F03 		bic	r3, r3, #127
 916 004e 8DF81730 		strb	r3, [sp, #23]
 917              		.loc 6 228 0
 918 0052 069B     		ldr	r3, [sp, #24]
 919 0054 DBB2     		uxtb	r3, r3
 920 0056 03F03F03 		and	r3, r3, #63
 921 005a DAB2     		uxtb	r2, r3
 922 005c 9DF81730 		ldrb	r3, [sp, #23]
 923 0060 1343     		orrs	r3, r3, r2
 924 0062 DAB2     		uxtb	r2, r3
 925 0064 009B     		ldr	r3, [sp]
 926 0066 1A70     		strb	r2, [r3]
 927              		.loc 6 230 0
 928 0068 0123     		movs	r3, #1
 929 006a 00E0     		b	.L69
 930              	.L67:
 931              	.LBE11:
 932              		.loc 6 232 0
 933 006c 0023     		movs	r3, #0
 934              	.L69:
 935              		.loc 6 234 0 discriminator 1
 936 006e 1846     		mov	r0, r3
 937 0070 044B     		ldr	r3, .L71
 938 0072 079A     		ldr	r2, [sp, #28]
 939 0074 1B68     		ldr	r3, [r3]
 940 0076 9A42     		cmp	r2, r3
 941 0078 01D0     		beq	.L70
 942              		.loc 6 234 0 is_stmt 0
 943 007a FFF7FEFF 		bl	__stack_chk_fail
 944              	.L70:
 945 007e 09B0     		add	sp, sp, #36
 946              		.cfi_def_cfa_offset 4
 947              		@ sp needed
 948 0080 5DF804FB 		ldr	pc, [sp], #4
 949              	.L72:
 950              		.align	2
 951              	.L71:
 952 0084 00000000 		.word	__stack_chk_guard
 953              		.cfi_endproc
 954              	.LFE262:
 955              		.size	RC5_read, .-RC5_read
 956              		.section	.rodata.gpt11cfg,"a",%progbits
 957              		.align	2
 958              		.type	gpt11cfg, %object
 959              		.size	gpt11cfg, 16
 960              	gpt11cfg:
 961 0000 40420F00 		.word	1000000
 962 0004 00000000 		.word	0
 963 0008 00000000 		.word	0
 964 000c 00000000 		.word	0
 965              		.section	.rodata
 966              		.align	2
 967              	.LC0:
 968 0000 2F69725F 		.ascii	"/ir_remote\000"
 968      72656D6F 
ARM GAS  C:\Users\PCHAUT~1\AppData\Local\Temp\ccpkTUf2.s 			page 18


 968      746500
 969              		.section	.text.remote_motion_thd,"ax",%progbits
 970              		.align	1
 971              		.p2align 4,,15
 972              		.syntax unified
 973              		.thumb
 974              		.thumb_func
 975              		.fpu fpv4-sp-d16
 976              		.type	remote_motion_thd, %function
 977              	remote_motion_thd:
 978              	.LFB263:
 979              		.loc 6 248 0 is_stmt 1
 980              		.cfi_startproc
 981              		@ args = 0, pretend = 0, frame = 24
 982              		@ frame_needed = 0, uses_anonymous_args = 0
 983 0000 00B5     		push	{lr}
 984              		.cfi_def_cfa_offset 4
 985              		.cfi_offset 14, -4
 986 0002 87B0     		sub	sp, sp, #28
 987              		.cfi_def_cfa_offset 32
 988 0004 0190     		str	r0, [sp, #4]
 989              		.loc 6 248 0
 990 0006 554B     		ldr	r3, .L87
 991 0008 1B68     		ldr	r3, [r3]
 992 000a 0593     		str	r3, [sp, #20]
 993              		.loc 6 250 0
 994 000c 5448     		ldr	r0, .L87+4
 995 000e FFF7FEFF 		bl	chRegSetThreadName
 996              		.loc 6 252 0
 997 0012 5449     		ldr	r1, .L87+8
 998 0014 5448     		ldr	r0, .L87+12
 999 0016 FFF7FEFF 		bl	messagebus_find_topic_blocking
 1000 001a 0390     		str	r0, [sp, #12]
 1001              	.L85:
 1002              		.loc 6 257 0
 1003 001c FFF7FEFF 		bl	chVTGetSystemTime
 1004 0020 0490     		str	r0, [sp, #16]
 1005              		.loc 6 259 0
 1006 0022 02AB     		add	r3, sp, #8
 1007 0024 0322     		movs	r2, #3
 1008 0026 1946     		mov	r1, r3
 1009 0028 0398     		ldr	r0, [sp, #12]
 1010 002a FFF7FEFF 		bl	messagebus_topic_wait
 1011              		.loc 6 261 0
 1012 002e 9DF80A30 		ldrb	r3, [sp, #10]	@ zero_extendqisi2
 1013 0032 013B     		subs	r3, r3, #1
 1014 0034 202B     		cmp	r3, #32
 1015 0036 00F28A80 		bhi	.L74
 1016 003a 01A2     		adr	r2, .L76
 1017 003c 52F823F0 		ldr	pc, [r2, r3, lsl #2]
 1018              		.p2align 2
 1019              	.L76:
 1020 0040 23010000 		.word	.L75+1
 1021 0044 D3000000 		.word	.L77+1
 1022 0048 13010000 		.word	.L78+1
 1023 004c 03010000 		.word	.L79+1
 1024 0050 C5000000 		.word	.L80+1
ARM GAS  C:\Users\PCHAUT~1\AppData\Local\Temp\ccpkTUf2.s 			page 19


 1025 0054 F3000000 		.word	.L81+1
 1026 0058 41010000 		.word	.L82+1
 1027 005c E5000000 		.word	.L83+1
 1028 0060 33010000 		.word	.L84+1
 1029 0064 4F010000 		.word	.L74+1
 1030 0068 4F010000 		.word	.L74+1
 1031 006c C5000000 		.word	.L80+1
 1032 0070 4F010000 		.word	.L74+1
 1033 0074 4F010000 		.word	.L74+1
 1034 0078 4F010000 		.word	.L74+1
 1035 007c F3000000 		.word	.L81+1
 1036 0080 03010000 		.word	.L79+1
 1037 0084 4F010000 		.word	.L74+1
 1038 0088 4F010000 		.word	.L74+1
 1039 008c 4F010000 		.word	.L74+1
 1040 0090 4F010000 		.word	.L74+1
 1041 0094 4F010000 		.word	.L74+1
 1042 0098 4F010000 		.word	.L74+1
 1043 009c 4F010000 		.word	.L74+1
 1044 00a0 4F010000 		.word	.L74+1
 1045 00a4 4F010000 		.word	.L74+1
 1046 00a8 4F010000 		.word	.L74+1
 1047 00ac 4F010000 		.word	.L74+1
 1048 00b0 4F010000 		.word	.L74+1
 1049 00b4 4F010000 		.word	.L74+1
 1050 00b8 4F010000 		.word	.L74+1
 1051 00bc D3000000 		.word	.L77+1
 1052 00c0 E5000000 		.word	.L83+1
 1053              		.p2align 1
 1054              	.L80:
 1055              		.loc 6 266 0
 1056 00c4 0020     		movs	r0, #0
 1057 00c6 FFF7FEFF 		bl	left_motor_set_speed
 1058              		.loc 6 267 0
 1059 00ca 0020     		movs	r0, #0
 1060 00cc FFF7FEFF 		bl	right_motor_set_speed
 1061              		.loc 6 268 0
 1062 00d0 3DE0     		b	.L74
 1063              	.L77:
 1064              		.loc 6 272 0
 1065 00d2 4FF41670 		mov	r0, #600
 1066 00d6 FFF7FEFF 		bl	left_motor_set_speed
 1067              		.loc 6 273 0
 1068 00da 4FF41670 		mov	r0, #600
 1069 00de FFF7FEFF 		bl	right_motor_set_speed
 1070              		.loc 6 274 0
 1071 00e2 34E0     		b	.L74
 1072              	.L83:
 1073              		.loc 6 278 0
 1074 00e4 2148     		ldr	r0, .L87+16
 1075 00e6 FFF7FEFF 		bl	left_motor_set_speed
 1076              		.loc 6 279 0
 1077 00ea 2048     		ldr	r0, .L87+16
 1078 00ec FFF7FEFF 		bl	right_motor_set_speed
 1079              		.loc 6 280 0
 1080 00f0 2DE0     		b	.L74
 1081              	.L81:
ARM GAS  C:\Users\PCHAUT~1\AppData\Local\Temp\ccpkTUf2.s 			page 20


 1082              		.loc 6 284 0
 1083 00f2 4FF41670 		mov	r0, #600
 1084 00f6 FFF7FEFF 		bl	left_motor_set_speed
 1085              		.loc 6 285 0
 1086 00fa 1C48     		ldr	r0, .L87+16
 1087 00fc FFF7FEFF 		bl	right_motor_set_speed
 1088              		.loc 6 286 0
 1089 0100 25E0     		b	.L74
 1090              	.L79:
 1091              		.loc 6 290 0
 1092 0102 1A48     		ldr	r0, .L87+16
 1093 0104 FFF7FEFF 		bl	left_motor_set_speed
 1094              		.loc 6 291 0
 1095 0108 4FF41670 		mov	r0, #600
 1096 010c FFF7FEFF 		bl	right_motor_set_speed
 1097              		.loc 6 292 0
 1098 0110 1DE0     		b	.L74
 1099              	.L78:
 1100              		.loc 6 295 0
 1101 0112 4FF41670 		mov	r0, #600
 1102 0116 FFF7FEFF 		bl	left_motor_set_speed
 1103              		.loc 6 296 0
 1104 011a 0020     		movs	r0, #0
 1105 011c FFF7FEFF 		bl	right_motor_set_speed
 1106              		.loc 6 297 0
 1107 0120 15E0     		b	.L74
 1108              	.L75:
 1109              		.loc 6 300 0
 1110 0122 0020     		movs	r0, #0
 1111 0124 FFF7FEFF 		bl	left_motor_set_speed
 1112              		.loc 6 301 0
 1113 0128 4FF41670 		mov	r0, #600
 1114 012c FFF7FEFF 		bl	right_motor_set_speed
 1115              		.loc 6 302 0
 1116 0130 0DE0     		b	.L74
 1117              	.L84:
 1118              		.loc 6 305 0
 1119 0132 0E48     		ldr	r0, .L87+16
 1120 0134 FFF7FEFF 		bl	left_motor_set_speed
 1121              		.loc 6 306 0
 1122 0138 0020     		movs	r0, #0
 1123 013a FFF7FEFF 		bl	right_motor_set_speed
 1124              		.loc 6 307 0
 1125 013e 06E0     		b	.L74
 1126              	.L82:
 1127              		.loc 6 310 0
 1128 0140 0020     		movs	r0, #0
 1129 0142 FFF7FEFF 		bl	left_motor_set_speed
 1130              		.loc 6 311 0
 1131 0146 0948     		ldr	r0, .L87+16
 1132 0148 FFF7FEFF 		bl	right_motor_set_speed
 1133              		.loc 6 312 0
 1134 014c 00BF     		nop
 1135              	.L74:
 1136              		.loc 6 316 0
 1137 014e 049B     		ldr	r3, [sp, #16]
 1138 0150 C833     		adds	r3, r3, #200
ARM GAS  C:\Users\PCHAUT~1\AppData\Local\Temp\ccpkTUf2.s 			page 21


 1139 0152 1946     		mov	r1, r3
 1140 0154 0498     		ldr	r0, [sp, #16]
 1141 0156 FFF7FEFF 		bl	chThdSleepUntilWindowed
 1142              		.loc 6 257 0
 1143 015a 5FE7     		b	.L85
 1144              	.L88:
 1145              		.align	2
 1146              	.L87:
 1147 015c 00000000 		.word	__stack_chk_guard
 1148 0160 00000000 		.word	__FUNCTION__.11425
 1149 0164 00000000 		.word	.LC0
 1150 0168 00000000 		.word	bus
 1151 016c A8FDFFFF 		.word	-600
 1152              		.cfi_endproc
 1153              	.LFE263:
 1154              		.size	remote_motion_thd, .-remote_motion_thd
 1155              		.section	.text.remote_cmd_recv_thd,"ax",%progbits
 1156              		.align	1
 1157              		.p2align 4,,15
 1158              		.syntax unified
 1159              		.thumb
 1160              		.thumb_func
 1161              		.fpu fpv4-sp-d16
 1162              		.type	remote_cmd_recv_thd, %function
 1163              	remote_cmd_recv_thd:
 1164              	.LFB264:
 1165              		.loc 6 327 0
 1166              		.cfi_startproc
 1167              		@ args = 0, pretend = 0, frame = 176
 1168              		@ frame_needed = 0, uses_anonymous_args = 0
 1169 0000 00B5     		push	{lr}
 1170              		.cfi_def_cfa_offset 4
 1171              		.cfi_offset 14, -4
 1172 0002 AFB0     		sub	sp, sp, #188
 1173              		.cfi_def_cfa_offset 192
 1174 0004 0390     		str	r0, [sp, #12]
 1175              		.loc 6 327 0
 1176 0006 214B     		ldr	r3, .L93
 1177 0008 1B68     		ldr	r3, [r3]
 1178 000a 2D93     		str	r3, [sp, #180]
 1179              		.loc 6 329 0
 1180 000c 2048     		ldr	r0, .L93+4
 1181 000e FFF7FEFF 		bl	chRegSetThreadName
 1182              		.loc 6 333 0
 1183 0012 07A9     		add	r1, sp, #28
 1184 0014 0223     		movs	r3, #2
 1185 0016 0222     		movs	r2, #2
 1186 0018 1E48     		ldr	r0, .L93+8
 1187 001a FFF7FEFF 		bl	chEvtRegisterMaskWithFlags
 1188              		.loc 6 338 0
 1189 001e 0CAB     		add	r3, sp, #48
 1190 0020 1846     		mov	r0, r3
 1191 0022 FFF7FEFF 		bl	RC5_reset
 1192              		.loc 6 342 0
 1193 0026 11AB     		add	r3, sp, #68
 1194 0028 1193     		str	r3, [sp, #68]
 1195 002a 11AB     		add	r3, sp, #68
ARM GAS  C:\Users\PCHAUT~1\AppData\Local\Temp\ccpkTUf2.s 			page 22


 1196 002c 1293     		str	r3, [sp, #72]
 1197 002e 0023     		movs	r3, #0
 1198 0030 1393     		str	r3, [sp, #76]
 1199 0032 0023     		movs	r3, #0
 1200 0034 1493     		str	r3, [sp, #80]
 1201 0036 0023     		movs	r3, #0
 1202 0038 1593     		str	r3, [sp, #84]
 1203              		.loc 6 343 0
 1204 003a 05AB     		add	r3, sp, #20
 1205 003c 0593     		str	r3, [sp, #20]
 1206 003e 05AB     		add	r3, sp, #20
 1207 0040 0693     		str	r3, [sp, #24]
 1208              		.loc 6 344 0
 1209 0042 05AA     		add	r2, sp, #20
 1210 0044 11A9     		add	r1, sp, #68
 1211 0046 16A8     		add	r0, sp, #88
 1212 0048 0323     		movs	r3, #3
 1213 004a 0093     		str	r3, [sp]
 1214 004c 124B     		ldr	r3, .L93+12
 1215 004e FFF7FEFF 		bl	messagebus_topic_init
 1216              		.loc 6 345 0
 1217 0052 16AB     		add	r3, sp, #88
 1218 0054 114A     		ldr	r2, .L93+16
 1219 0056 1946     		mov	r1, r3
 1220 0058 1148     		ldr	r0, .L93+20
 1221 005a FFF7FEFF 		bl	messagebus_advertise_topic
 1222              	.L91:
 1223              		.loc 6 349 0
 1224 005e 0220     		movs	r0, #2
 1225 0060 FFF7FEFF 		bl	chEvtWaitAny
 1226              		.loc 6 351 0
 1227 0064 07AB     		add	r3, sp, #28
 1228 0066 1846     		mov	r0, r3
 1229 0068 FFF7FEFF 		bl	chEvtGetAndClearFlags
 1230              		.loc 6 354 0
 1231 006c 0CA8     		add	r0, sp, #48
 1232 006e 0D4B     		ldr	r3, .L93+24
 1233 0070 0D4A     		ldr	r2, .L93+28
 1234 0072 0949     		ldr	r1, .L93+12
 1235 0074 FFF7FEFF 		bl	RC5_read
 1236 0078 0346     		mov	r3, r0
 1237 007a 002B     		cmp	r3, #0
 1238 007c EFD0     		beq	.L91
 1239              		.loc 6 356 0
 1240 007e 16AB     		add	r3, sp, #88
 1241 0080 0322     		movs	r2, #3
 1242 0082 0549     		ldr	r1, .L93+12
 1243 0084 1846     		mov	r0, r3
 1244 0086 FFF7FEFF 		bl	messagebus_topic_publish
 1245              		.loc 6 349 0
 1246 008a E8E7     		b	.L91
 1247              	.L94:
 1248              		.align	2
 1249              	.L93:
 1250 008c 00000000 		.word	__stack_chk_guard
 1251 0090 00000000 		.word	__FUNCTION__.11448
 1252 0094 00000000 		.word	exti_events
ARM GAS  C:\Users\PCHAUT~1\AppData\Local\Temp\ccpkTUf2.s 			page 23


 1253 0098 00000000 		.word	ir_remote_values
 1254 009c 00000000 		.word	.LC0
 1255 00a0 00000000 		.word	bus
 1256 00a4 02000000 		.word	ir_remote_values+2
 1257 00a8 01000000 		.word	ir_remote_values+1
 1258              		.cfi_endproc
 1259              	.LFE264:
 1260              		.size	remote_cmd_recv_thd, .-remote_cmd_recv_thd
 1261              		.section	.text.ir_remote_start,"ax",%progbits
 1262              		.align	1
 1263              		.p2align 4,,15
 1264              		.global	ir_remote_start
 1265              		.syntax unified
 1266              		.thumb
 1267              		.thumb_func
 1268              		.fpu fpv4-sp-d16
 1269              		.type	ir_remote_start, %function
 1270              	ir_remote_start:
 1271              	.LFB265:
 1272              		.loc 6 367 0
 1273              		.cfi_startproc
 1274              		@ args = 0, pretend = 0, frame = 8
 1275              		@ frame_needed = 0, uses_anonymous_args = 0
 1276 0000 00B5     		push	{lr}
 1277              		.cfi_def_cfa_offset 4
 1278              		.cfi_offset 14, -4
 1279 0002 85B0     		sub	sp, sp, #20
 1280              		.cfi_def_cfa_offset 24
 1281              		.loc 6 367 0
 1282 0004 144B     		ldr	r3, .L97
 1283 0006 1B68     		ldr	r3, [r3]
 1284 0008 0393     		str	r3, [sp, #12]
 1285              		.loc 6 368 0
 1286 000a 1449     		ldr	r1, .L97+4
 1287 000c 1448     		ldr	r0, .L97+8
 1288 000e FFF7FEFF 		bl	gptStart
 1289              		.loc 6 369 0
 1290 0012 4FF6FF71 		movw	r1, #65535
 1291 0016 1248     		ldr	r0, .L97+8
 1292 0018 FFF7FEFF 		bl	gptStartContinuous
 1293              		.loc 6 372 0
 1294 001c 0023     		movs	r3, #0
 1295 001e 0093     		str	r3, [sp]
 1296 0020 104B     		ldr	r3, .L97+12
 1297 0022 4022     		movs	r2, #64
 1298 0024 4FF4FC71 		mov	r1, #504
 1299 0028 0F48     		ldr	r0, .L97+16
 1300 002a FFF7FEFF 		bl	chThdCreateStatic
 1301              		.loc 6 375 0
 1302 002e 0023     		movs	r3, #0
 1303 0030 0093     		str	r3, [sp]
 1304 0032 0E4B     		ldr	r3, .L97+20
 1305 0034 4022     		movs	r2, #64
 1306 0036 4FF41E71 		mov	r1, #632
 1307 003a 0D48     		ldr	r0, .L97+24
 1308 003c FFF7FEFF 		bl	chThdCreateStatic
 1309              		.loc 6 376 0
ARM GAS  C:\Users\PCHAUT~1\AppData\Local\Temp\ccpkTUf2.s 			page 24


 1310 0040 00BF     		nop
 1311 0042 054B     		ldr	r3, .L97
 1312 0044 039A     		ldr	r2, [sp, #12]
 1313 0046 1B68     		ldr	r3, [r3]
 1314 0048 9A42     		cmp	r2, r3
 1315 004a 01D0     		beq	.L96
 1316 004c FFF7FEFF 		bl	__stack_chk_fail
 1317              	.L96:
 1318 0050 05B0     		add	sp, sp, #20
 1319              		.cfi_def_cfa_offset 4
 1320              		@ sp needed
 1321 0052 5DF804FB 		ldr	pc, [sp], #4
 1322              	.L98:
 1323 0056 00BF     		.align	2
 1324              	.L97:
 1325 0058 00000000 		.word	__stack_chk_guard
 1326 005c 00000000 		.word	gpt11cfg
 1327 0060 00000000 		.word	GPTD11
 1328 0064 00000000 		.word	remote_motion_thd
 1329 0068 00000000 		.word	remote_motion_thd_wa.11458
 1330 006c 00000000 		.word	remote_cmd_recv_thd
 1331 0070 00000000 		.word	remote_cmd_recv_thd_wa.11459
 1332              		.cfi_endproc
 1333              	.LFE265:
 1334              		.size	ir_remote_start, .-ir_remote_start
 1335              		.section	.text.ir_remote_get_toggle,"ax",%progbits
 1336              		.align	1
 1337              		.p2align 4,,15
 1338              		.global	ir_remote_get_toggle
 1339              		.syntax unified
 1340              		.thumb
 1341              		.thumb_func
 1342              		.fpu fpv4-sp-d16
 1343              		.type	ir_remote_get_toggle, %function
 1344              	ir_remote_get_toggle:
 1345              	.LFB266:
 1346              		.loc 6 378 0
 1347              		.cfi_startproc
 1348              		@ args = 0, pretend = 0, frame = 8
 1349              		@ frame_needed = 0, uses_anonymous_args = 0
 1350 0000 00B5     		push	{lr}
 1351              		.cfi_def_cfa_offset 4
 1352              		.cfi_offset 14, -4
 1353 0002 83B0     		sub	sp, sp, #12
 1354              		.cfi_def_cfa_offset 16
 1355              		.loc 6 378 0
 1356 0004 074B     		ldr	r3, .L102
 1357 0006 1B68     		ldr	r3, [r3]
 1358 0008 0193     		str	r3, [sp, #4]
 1359              		.loc 6 379 0
 1360 000a 074B     		ldr	r3, .L102+4
 1361 000c 1B78     		ldrb	r3, [r3]	@ zero_extendqisi2
 1362              		.loc 6 380 0
 1363 000e 1846     		mov	r0, r3
 1364 0010 044B     		ldr	r3, .L102
 1365 0012 019A     		ldr	r2, [sp, #4]
 1366 0014 1B68     		ldr	r3, [r3]
ARM GAS  C:\Users\PCHAUT~1\AppData\Local\Temp\ccpkTUf2.s 			page 25


 1367 0016 9A42     		cmp	r2, r3
 1368 0018 01D0     		beq	.L101
 1369 001a FFF7FEFF 		bl	__stack_chk_fail
 1370              	.L101:
 1371 001e 03B0     		add	sp, sp, #12
 1372              		.cfi_def_cfa_offset 4
 1373              		@ sp needed
 1374 0020 5DF804FB 		ldr	pc, [sp], #4
 1375              	.L103:
 1376              		.align	2
 1377              	.L102:
 1378 0024 00000000 		.word	__stack_chk_guard
 1379 0028 00000000 		.word	ir_remote_values
 1380              		.cfi_endproc
 1381              	.LFE266:
 1382              		.size	ir_remote_get_toggle, .-ir_remote_get_toggle
 1383              		.section	.text.ir_remote_get_address,"ax",%progbits
 1384              		.align	1
 1385              		.p2align 4,,15
 1386              		.global	ir_remote_get_address
 1387              		.syntax unified
 1388              		.thumb
 1389              		.thumb_func
 1390              		.fpu fpv4-sp-d16
 1391              		.type	ir_remote_get_address, %function
 1392              	ir_remote_get_address:
 1393              	.LFB267:
 1394              		.loc 6 382 0
 1395              		.cfi_startproc
 1396              		@ args = 0, pretend = 0, frame = 8
 1397              		@ frame_needed = 0, uses_anonymous_args = 0
 1398 0000 00B5     		push	{lr}
 1399              		.cfi_def_cfa_offset 4
 1400              		.cfi_offset 14, -4
 1401 0002 83B0     		sub	sp, sp, #12
 1402              		.cfi_def_cfa_offset 16
 1403              		.loc 6 382 0
 1404 0004 074B     		ldr	r3, .L107
 1405 0006 1B68     		ldr	r3, [r3]
 1406 0008 0193     		str	r3, [sp, #4]
 1407              		.loc 6 383 0
 1408 000a 074B     		ldr	r3, .L107+4
 1409 000c 5B78     		ldrb	r3, [r3, #1]	@ zero_extendqisi2
 1410              		.loc 6 384 0
 1411 000e 1846     		mov	r0, r3
 1412 0010 044B     		ldr	r3, .L107
 1413 0012 019A     		ldr	r2, [sp, #4]
 1414 0014 1B68     		ldr	r3, [r3]
 1415 0016 9A42     		cmp	r2, r3
 1416 0018 01D0     		beq	.L106
 1417 001a FFF7FEFF 		bl	__stack_chk_fail
 1418              	.L106:
 1419 001e 03B0     		add	sp, sp, #12
 1420              		.cfi_def_cfa_offset 4
 1421              		@ sp needed
 1422 0020 5DF804FB 		ldr	pc, [sp], #4
 1423              	.L108:
ARM GAS  C:\Users\PCHAUT~1\AppData\Local\Temp\ccpkTUf2.s 			page 26


 1424              		.align	2
 1425              	.L107:
 1426 0024 00000000 		.word	__stack_chk_guard
 1427 0028 00000000 		.word	ir_remote_values
 1428              		.cfi_endproc
 1429              	.LFE267:
 1430              		.size	ir_remote_get_address, .-ir_remote_get_address
 1431              		.section	.text.ir_remote_get_data,"ax",%progbits
 1432              		.align	1
 1433              		.p2align 4,,15
 1434              		.global	ir_remote_get_data
 1435              		.syntax unified
 1436              		.thumb
 1437              		.thumb_func
 1438              		.fpu fpv4-sp-d16
 1439              		.type	ir_remote_get_data, %function
 1440              	ir_remote_get_data:
 1441              	.LFB268:
 1442              		.loc 6 386 0
 1443              		.cfi_startproc
 1444              		@ args = 0, pretend = 0, frame = 8
 1445              		@ frame_needed = 0, uses_anonymous_args = 0
 1446 0000 00B5     		push	{lr}
 1447              		.cfi_def_cfa_offset 4
 1448              		.cfi_offset 14, -4
 1449 0002 83B0     		sub	sp, sp, #12
 1450              		.cfi_def_cfa_offset 16
 1451              		.loc 6 386 0
 1452 0004 074B     		ldr	r3, .L112
 1453 0006 1B68     		ldr	r3, [r3]
 1454 0008 0193     		str	r3, [sp, #4]
 1455              		.loc 6 387 0
 1456 000a 074B     		ldr	r3, .L112+4
 1457 000c 9B78     		ldrb	r3, [r3, #2]	@ zero_extendqisi2
 1458              		.loc 6 388 0
 1459 000e 1846     		mov	r0, r3
 1460 0010 044B     		ldr	r3, .L112
 1461 0012 019A     		ldr	r2, [sp, #4]
 1462 0014 1B68     		ldr	r3, [r3]
 1463 0016 9A42     		cmp	r2, r3
 1464 0018 01D0     		beq	.L111
 1465 001a FFF7FEFF 		bl	__stack_chk_fail
 1466              	.L111:
 1467 001e 03B0     		add	sp, sp, #12
 1468              		.cfi_def_cfa_offset 4
 1469              		@ sp needed
 1470 0020 5DF804FB 		ldr	pc, [sp], #4
 1471              	.L113:
 1472              		.align	2
 1473              	.L112:
 1474 0024 00000000 		.word	__stack_chk_guard
 1475 0028 00000000 		.word	ir_remote_values
 1476              		.cfi_endproc
 1477              	.LFE268:
 1478              		.size	ir_remote_get_data, .-ir_remote_get_data
 1479              		.section	.rodata.__FUNCTION__.11425,"a",%progbits
 1480              		.align	2
ARM GAS  C:\Users\PCHAUT~1\AppData\Local\Temp\ccpkTUf2.s 			page 27


 1481              		.type	__FUNCTION__.11425, %object
 1482              		.size	__FUNCTION__.11425, 18
 1483              	__FUNCTION__.11425:
 1484 0000 72656D6F 		.ascii	"remote_motion_thd\000"
 1484      74655F6D 
 1484      6F74696F 
 1484      6E5F7468 
 1484      6400
 1485              		.section	.rodata.__func__.7153,"a",%progbits
 1486              		.align	2
 1487              		.type	__func__.7153, %object
 1488              		.size	__func__.7153, 12
 1489              	__func__.7153:
 1490 0000 63685379 		.ascii	"chSysUnlock\000"
 1490      73556E6C 
 1490      6F636B00 
 1491              		.section	.rodata.__FUNCTION__.11448,"a",%progbits
 1492              		.align	2
 1493              		.type	__FUNCTION__.11448, %object
 1494              		.size	__FUNCTION__.11448, 20
 1495              	__FUNCTION__.11448:
 1496 0000 72656D6F 		.ascii	"remote_cmd_recv_thd\000"
 1496      74655F63 
 1496      6D645F72 
 1496      6563765F 
 1496      74686400 
 1497              		.section	.bss.remote_motion_thd_wa.11458,"aw",%nobits
 1498              		.align	3
 1499              		.type	remote_motion_thd_wa.11458, %object
 1500              		.size	remote_motion_thd_wa.11458, 504
 1501              	remote_motion_thd_wa.11458:
 1502 0000 00000000 		.space	504
 1502      00000000 
 1502      00000000 
 1502      00000000 
 1502      00000000 
 1503              		.section	.bss.remote_cmd_recv_thd_wa.11459,"aw",%nobits
 1504              		.align	3
 1505              		.type	remote_cmd_recv_thd_wa.11459, %object
 1506              		.size	remote_cmd_recv_thd_wa.11459, 632
 1507              	remote_cmd_recv_thd_wa.11459:
 1508 0000 00000000 		.space	632
 1508      00000000 
 1508      00000000 
 1508      00000000 
 1508      00000000 
 1509              		.text
 1510              	.Letext0:
 1511              		.file 7 "c:\\users\\pchautems\\documents\\robotiquetp\\eclipse_e-puck2\\tools\\gcc-arm-none-eabi-7
 1512              		.file 8 "c:\\users\\pchautems\\documents\\robotiquetp\\eclipse_e-puck2\\tools\\gcc-arm-none-eabi-7
 1513              		.file 9 "c:\\users\\pchautems\\documents\\robotiquetp\\eclipse_e-puck2\\tools\\gcc-arm-none-eabi-7
 1514              		.file 10 "../lib/e-puck2_main-processor/ChibiOS//os/rt/ports/ARMCMx/compilers/GCC/chtypes.h"
 1515              		.file 11 "../lib/e-puck2_main-processor/ChibiOS//os/rt/include/chsystypes.h"
 1516              		.file 12 "../lib/e-puck2_main-processor/ChibiOS//os/rt/include/chschd.h"
 1517              		.file 13 "../lib/e-puck2_main-processor/ChibiOS//os/ext/CMSIS/include/core_cm4.h"
 1518              		.file 14 "../lib/e-puck2_main-processor/ChibiOS//os/ext/CMSIS/ST/system_stm32f4xx.h"
 1519              		.file 15 "../lib/e-puck2_main-processor/ChibiOS//os/ext/CMSIS/ST/stm32f407xx.h"
ARM GAS  C:\Users\PCHAUT~1\AppData\Local\Temp\ccpkTUf2.s 			page 28


 1520              		.file 16 "../lib/e-puck2_main-processor/ChibiOS//os/rt/ports/ARMCMx/chcore.h"
 1521              		.file 17 "../lib/e-puck2_main-processor/ChibiOS//os/rt/include/chdebug.h"
 1522              		.file 18 "../lib/e-puck2_main-processor/ChibiOS//os/rt/include/chtm.h"
 1523              		.file 19 "../lib/e-puck2_main-processor/ChibiOS//os/rt/include/chstats.h"
 1524              		.file 20 "../lib/e-puck2_main-processor/ChibiOS//os/rt/include/chsem.h"
 1525              		.file 21 "../lib/e-puck2_main-processor/ChibiOS//os/rt/include/chmtx.h"
 1526              		.file 22 "../lib/e-puck2_main-processor/ChibiOS//os/rt/include/chcond.h"
 1527              		.file 23 "../lib/e-puck2_main-processor/ChibiOS//os/rt/include/chevents.h"
 1528              		.file 24 "../lib/e-puck2_main-processor/ChibiOS//os/rt/include/chqueues.h"
 1529              		.file 25 "../lib/e-puck2_main-processor/ChibiOS//os/hal/ports/STM32/STM32F4xx/stm32_dma.h"
 1530              		.file 26 "../lib/e-puck2_main-processor/ChibiOS//os/hal/include/hal_ioblock.h"
 1531              		.file 27 "../lib/e-puck2_main-processor/ChibiOS//os/hal/ports/STM32/LLD/GPIOv2/pal_lld.h"
 1532              		.file 28 "../lib/e-puck2_main-processor/ChibiOS//os/hal/include/adc.h"
 1533              		.file 29 "../lib/e-puck2_main-processor/ChibiOS//os/hal/ports/STM32/STM32F4xx/adc_lld.h"
 1534              		.file 30 "../lib/e-puck2_main-processor/ChibiOS//os/hal/include/can.h"
 1535              		.file 31 "../lib/e-puck2_main-processor/ChibiOS//os/hal/ports/STM32/LLD/can_lld.h"
 1536              		.file 32 "../lib/e-puck2_main-processor/ChibiOS//os/hal/include/dac.h"
 1537              		.file 33 "../lib/e-puck2_main-processor/ChibiOS//os/hal/ports/STM32/LLD/DACv1/dac_lld.h"
 1538              		.file 34 "../lib/e-puck2_main-processor/ChibiOS//os/hal/include/ext.h"
 1539              		.file 35 "../lib/e-puck2_main-processor/ChibiOS//os/hal/ports/STM32/LLD/ext_lld.h"
 1540              		.file 36 "../lib/e-puck2_main-processor/ChibiOS//os/hal/include/gpt.h"
 1541              		.file 37 "../lib/e-puck2_main-processor/ChibiOS//os/hal/ports/STM32/LLD/TIMv1/gpt_lld.h"
 1542              		.file 38 "../lib/e-puck2_main-processor/ChibiOS//os/hal/ports/STM32/LLD/TIMv1/stm32_tim.h"
 1543              		.file 39 "../lib/e-puck2_main-processor/ChibiOS//os/hal/include/i2c.h"
 1544              		.file 40 "../lib/e-puck2_main-processor/ChibiOS//os/hal/ports/STM32/LLD/I2Cv1/i2c_lld.h"
 1545              		.file 41 "../lib/e-puck2_main-processor/ChibiOS//os/hal/include/i2s.h"
 1546              		.file 42 "../lib/e-puck2_main-processor/ChibiOS//os/hal/ports/STM32/LLD/SPIv1/i2s_lld.h"
 1547              		.file 43 "../lib/e-puck2_main-processor/ChibiOS//os/hal/include/pwm.h"
 1548              		.file 44 "../lib/e-puck2_main-processor/ChibiOS//os/hal/ports/STM32/LLD/TIMv1/pwm_lld.h"
 1549              		.file 45 "../lib/e-puck2_main-processor/ChibiOS//os/hal/include/serial.h"
 1550              		.file 46 "../lib/e-puck2_main-processor/ChibiOS//os/hal/ports/STM32/LLD/USARTv1/serial_lld.h"
 1551              		.file 47 "../lib/e-puck2_main-processor/ChibiOS//os/hal/include/sdc.h"
 1552              		.file 48 "../lib/e-puck2_main-processor/ChibiOS//os/hal/ports/STM32/LLD/sdc_lld.h"
 1553              		.file 49 "../lib/e-puck2_main-processor/ChibiOS//os/hal/include/spi.h"
 1554              		.file 50 "../lib/e-puck2_main-processor/ChibiOS//os/hal/ports/STM32/LLD/SPIv1/spi_lld.h"
 1555              		.file 51 "../lib/e-puck2_main-processor/ChibiOS//os/hal/include/usb.h"
 1556              		.file 52 "../lib/e-puck2_main-processor/ChibiOS//os/hal/ports/STM32/LLD/OTGv1/usb_lld.h"
 1557              		.file 53 "../lib/e-puck2_main-processor/ChibiOS//os/hal/ports/STM32/LLD/OTGv1/stm32_otg.h"
 1558              		.file 54 "../lib/e-puck2_main-processor/ChibiOS//os/hal/include/serial_usb.h"
 1559              		.file 55 "../lib/e-puck2_main-processor/src/ir_remote.h"
 1560              		.file 56 "../lib/e-puck2_main-processor/src/exti.h"
 1561              		.file 57 "../lib/e-puck2_main-processor/ChibiOS_ext/os/hal/include/../ports/STM32/STM32F4xx/dcmi_l
 1562              		.file 58 "c:\\users\\pchautems\\documents\\robotiquetp\\eclipse_e-puck2\\tools\\gcc-arm-none-eabi-
 1563              		.file 59 "c:\\users\\pchautems\\documents\\robotiquetp\\eclipse_e-puck2\\tools\\gcc-arm-none-eabi-
 1564              		.file 60 "c:\\users\\pchautems\\documents\\robotiquetp\\eclipse_e-puck2\\tools\\gcc-arm-none-eabi-
 1565              		.file 61 "../lib/e-puck2_main-processor/src/msgbus/messagebus.h"
 1566              		.file 62 "c:\\users\\pchautems\\documents\\robotiquetp\\eclipse_e-puck2\\tools\\gcc-arm-none-eabi-
 1567              		.file 63 "c:\\users\\pchautems\\documents\\robotiquetp\\eclipse_e-puck2\\tools\\gcc-arm-none-eabi-
 1568              		.file 64 "../lib/e-puck2_main-processor/src/parameter/parameter.h"
 1569              		.file 65 "./main.h"
 1570              		.file 66 "../lib/e-puck2_main-processor/ChibiOS//os/various/shell.h"
 1571              		.file 67 "../lib/e-puck2_main-processor/src/usbcfg.h"