ARM GAS  C:\Users\PCHAUT~1\AppData\Local\Temp\ccILrOdh.s 			page 1


   1              		.cpu cortex-m4
   2              		.eabi_attribute 27, 1
   3              		.eabi_attribute 28, 1
   4              		.eabi_attribute 20, 1
   5              		.eabi_attribute 21, 1
   6              		.eabi_attribute 23, 3
   7              		.eabi_attribute 24, 1
   8              		.eabi_attribute 25, 1
   9              		.eabi_attribute 26, 1
  10              		.eabi_attribute 30, 6
  11              		.eabi_attribute 34, 1
  12              		.eabi_attribute 18, 4
  13              		.file	"malloc_lock.c"
  14              		.text
  15              	.Ltext0:
  16              		.cfi_sections	.debug_frame
  17              		.section	.data.lock,"aw",%progbits
  18              		.align	2
  19              		.type	lock, %object
  20              		.size	lock, 20
  21              	lock:
  22 0000 00000000 		.word	lock
  23 0004 00000000 		.word	lock
  24 0008 00000000 		.word	0
  25 000c 00000000 		.word	0
  26 0010 00000000 		.word	0
  27              		.section	.text.__malloc_lock,"ax",%progbits
  28              		.align	1
  29              		.p2align 4,,15
  30              		.global	__malloc_lock
  31              		.syntax unified
  32              		.thumb
  33              		.thumb_func
  34              		.fpu fpv4-sp-d16
  35              		.type	__malloc_lock, %function
  36              	__malloc_lock:
  37              	.LFB219:
  38              		.file 1 "../lib/e-puck2_main-processor/src/chibios-syscalls/malloc_lock.c"
  39              		.loc 1 11 0
  40              		.cfi_startproc
  41              		@ args = 0, pretend = 0, frame = 16
  42              		@ frame_needed = 0, uses_anonymous_args = 0
  43 0000 00B5     		push	{lr}
  44              		.cfi_def_cfa_offset 4
  45              		.cfi_offset 14, -4
  46 0002 85B0     		sub	sp, sp, #20
  47              		.cfi_def_cfa_offset 24
  48 0004 0190     		str	r0, [sp, #4]
  49              		.loc 1 11 0
  50 0006 084B     		ldr	r3, .L3
  51 0008 1B68     		ldr	r3, [r3]
  52 000a 0393     		str	r3, [sp, #12]
  53              		.loc 1 13 0
  54 000c 0748     		ldr	r0, .L3+4
  55 000e FFF7FEFF 		bl	chMtxLock
  56              		.loc 1 14 0
  57 0012 00BF     		nop
ARM GAS  C:\Users\PCHAUT~1\AppData\Local\Temp\ccILrOdh.s 			page 2


  58 0014 044B     		ldr	r3, .L3
  59 0016 039A     		ldr	r2, [sp, #12]
  60 0018 1B68     		ldr	r3, [r3]
  61 001a 9A42     		cmp	r2, r3
  62 001c 01D0     		beq	.L2
  63 001e FFF7FEFF 		bl	__stack_chk_fail
  64              	.L2:
  65 0022 05B0     		add	sp, sp, #20
  66              		.cfi_def_cfa_offset 4
  67              		@ sp needed
  68 0024 5DF804FB 		ldr	pc, [sp], #4
  69              	.L4:
  70              		.align	2
  71              	.L3:
  72 0028 00000000 		.word	__stack_chk_guard
  73 002c 00000000 		.word	lock
  74              		.cfi_endproc
  75              	.LFE219:
  76              		.size	__malloc_lock, .-__malloc_lock
  77              		.section	.text.__malloc_unlock,"ax",%progbits
  78              		.align	1
  79              		.p2align 4,,15
  80              		.global	__malloc_unlock
  81              		.syntax unified
  82              		.thumb
  83              		.thumb_func
  84              		.fpu fpv4-sp-d16
  85              		.type	__malloc_unlock, %function
  86              	__malloc_unlock:
  87              	.LFB220:
  88              		.loc 1 17 0
  89              		.cfi_startproc
  90              		@ args = 0, pretend = 0, frame = 16
  91              		@ frame_needed = 0, uses_anonymous_args = 0
  92 0000 00B5     		push	{lr}
  93              		.cfi_def_cfa_offset 4
  94              		.cfi_offset 14, -4
  95 0002 85B0     		sub	sp, sp, #20
  96              		.cfi_def_cfa_offset 24
  97 0004 0190     		str	r0, [sp, #4]
  98              		.loc 1 17 0
  99 0006 084B     		ldr	r3, .L7
 100 0008 1B68     		ldr	r3, [r3]
 101 000a 0393     		str	r3, [sp, #12]
 102              		.loc 1 19 0
 103 000c 0748     		ldr	r0, .L7+4
 104 000e FFF7FEFF 		bl	chMtxUnlock
 105              		.loc 1 20 0
 106 0012 00BF     		nop
 107 0014 044B     		ldr	r3, .L7
 108 0016 039A     		ldr	r2, [sp, #12]
 109 0018 1B68     		ldr	r3, [r3]
 110 001a 9A42     		cmp	r2, r3
 111 001c 01D0     		beq	.L6
 112 001e FFF7FEFF 		bl	__stack_chk_fail
 113              	.L6:
 114 0022 05B0     		add	sp, sp, #20
ARM GAS  C:\Users\PCHAUT~1\AppData\Local\Temp\ccILrOdh.s 			page 3


 115              		.cfi_def_cfa_offset 4
 116              		@ sp needed
 117 0024 5DF804FB 		ldr	pc, [sp], #4
 118              	.L8:
 119              		.align	2
 120              	.L7:
 121 0028 00000000 		.word	__stack_chk_guard
 122 002c 00000000 		.word	lock
 123              		.cfi_endproc
 124              	.LFE220:
 125              		.size	__malloc_unlock, .-__malloc_unlock
 126              		.text
 127              	.Letext0:
 128              		.file 2 "c:\\users\\pchautems\\documents\\robotiquetp\\eclipse_e-puck2\\tools\\gcc-arm-none-eabi-7
 129              		.file 3 "c:\\users\\pchautems\\documents\\robotiquetp\\eclipse_e-puck2\\tools\\gcc-arm-none-eabi-7
 130              		.file 4 "c:\\users\\pchautems\\documents\\robotiquetp\\eclipse_e-puck2\\tools\\gcc-arm-none-eabi-7
 131              		.file 5 "../lib/e-puck2_main-processor/ChibiOS//os/rt/ports/ARMCMx/compilers/GCC/chtypes.h"
 132              		.file 6 "../lib/e-puck2_main-processor/ChibiOS//os/rt/include/chsystypes.h"
 133              		.file 7 "../lib/e-puck2_main-processor/ChibiOS//os/rt/include/chschd.h"
 134              		.file 8 "../lib/e-puck2_main-processor/ChibiOS//os/ext/CMSIS/include/core_cm4.h"
 135              		.file 9 "../lib/e-puck2_main-processor/ChibiOS//os/ext/CMSIS/ST/system_stm32f4xx.h"
 136              		.file 10 "../lib/e-puck2_main-processor/ChibiOS//os/rt/ports/ARMCMx/chcore.h"
 137              		.file 11 "../lib/e-puck2_main-processor/ChibiOS//os/rt/ports/ARMCMx/chcore_v7m.h"
 138              		.file 12 "../lib/e-puck2_main-processor/ChibiOS//os/rt/include/chdebug.h"
 139              		.file 13 "../lib/e-puck2_main-processor/ChibiOS//os/rt/include/chtm.h"
 140              		.file 14 "../lib/e-puck2_main-processor/ChibiOS//os/rt/include/chstats.h"
 141              		.file 15 "../lib/e-puck2_main-processor/ChibiOS//os/rt/include/chsem.h"
 142              		.file 16 "../lib/e-puck2_main-processor/ChibiOS//os/rt/include/chmtx.h"
 143              		.file 17 "../lib/e-puck2_main-processor/ChibiOS//os/rt/include/chregistry.h"
 144              		.file 18 "c:\\users\\pchautems\\documents\\robotiquetp\\eclipse_e-puck2\\tools\\gcc-arm-none-eabi-
 145              		.file 19 "c:\\users\\pchautems\\documents\\robotiquetp\\eclipse_e-puck2\\tools\\gcc-arm-none-eabi-
 146              		.file 20 "c:\\users\\pchautems\\documents\\robotiquetp\\eclipse_e-puck2\\tools\\gcc-arm-none-eabi-
 147              		.section	.debug_info,"",%progbits
 148              	.Ldebug_info0:
 149 0000 57120000 		.4byte	0x1257
 150 0004 0400     		.2byte	0x4
 151 0006 00000000 		.4byte	.Ldebug_abbrev0
 152 000a 04       		.byte	0x4
 153 000b 01       		.uleb128 0x1
 154 000c D8050000 		.4byte	.LASF268
 155 0010 0C       		.byte	0xc
 156 0011 0F000000 		.4byte	.LASF269
 157 0015 96070000 		.4byte	.LASF270
 158 0019 00000000 		.4byte	.Ldebug_ranges0+0
 159 001d 00000000 		.4byte	0
 160 0021 00000000 		.4byte	.Ldebug_line0
 161 0025 02       		.uleb128 0x2
 162 0026 04       		.byte	0x4
 163 0027 05       		.byte	0x5
 164 0028 696E7400 		.ascii	"int\000"
 165 002c 03       		.uleb128 0x3
 166 002d 08000000 		.4byte	.LASF4
 167 0031 02       		.byte	0x2
 168 0032 D8       		.byte	0xd8
 169 0033 37000000 		.4byte	0x37
 170 0037 04       		.uleb128 0x4
 171 0038 04       		.byte	0x4
ARM GAS  C:\Users\PCHAUT~1\AppData\Local\Temp\ccILrOdh.s 			page 4


 172 0039 07       		.byte	0x7
 173 003a 79070000 		.4byte	.LASF0
 174 003e 04       		.uleb128 0x4
 175 003f 08       		.byte	0x8
 176 0040 05       		.byte	0x5
 177 0041 78050000 		.4byte	.LASF1
 178 0045 04       		.uleb128 0x4
 179 0046 08       		.byte	0x8
 180 0047 04       		.byte	0x4
 181 0048 8F080000 		.4byte	.LASF2
 182 004c 04       		.uleb128 0x4
 183 004d 01       		.byte	0x1
 184 004e 06       		.byte	0x6
 185 004f 89020000 		.4byte	.LASF3
 186 0053 03       		.uleb128 0x3
 187 0054 A8010000 		.4byte	.LASF5
 188 0058 03       		.byte	0x3
 189 0059 2B       		.byte	0x2b
 190 005a 5E000000 		.4byte	0x5e
 191 005e 04       		.uleb128 0x4
 192 005f 01       		.byte	0x1
 193 0060 08       		.byte	0x8
 194 0061 C1020000 		.4byte	.LASF6
 195 0065 04       		.uleb128 0x4
 196 0066 02       		.byte	0x2
 197 0067 05       		.byte	0x5
 198 0068 6E0A0000 		.4byte	.LASF7
 199 006c 03       		.uleb128 0x3
 200 006d 55030000 		.4byte	.LASF8
 201 0071 03       		.byte	0x3
 202 0072 39       		.byte	0x39
 203 0073 77000000 		.4byte	0x77
 204 0077 04       		.uleb128 0x4
 205 0078 02       		.byte	0x2
 206 0079 07       		.byte	0x7
 207 007a 660B0000 		.4byte	.LASF9
 208 007e 03       		.uleb128 0x3
 209 007f BD0B0000 		.4byte	.LASF10
 210 0083 03       		.byte	0x3
 211 0084 4D       		.byte	0x4d
 212 0085 89000000 		.4byte	0x89
 213 0089 04       		.uleb128 0x4
 214 008a 04       		.byte	0x4
 215 008b 05       		.byte	0x5
 216 008c F1010000 		.4byte	.LASF11
 217 0090 03       		.uleb128 0x3
 218 0091 62050000 		.4byte	.LASF12
 219 0095 03       		.byte	0x3
 220 0096 4F       		.byte	0x4f
 221 0097 9B000000 		.4byte	0x9b
 222 009b 04       		.uleb128 0x4
 223 009c 04       		.byte	0x4
 224 009d 07       		.byte	0x7
 225 009e 4E040000 		.4byte	.LASF13
 226 00a2 03       		.uleb128 0x3
 227 00a3 3B040000 		.4byte	.LASF14
 228 00a7 03       		.byte	0x3
ARM GAS  C:\Users\PCHAUT~1\AppData\Local\Temp\ccILrOdh.s 			page 5


 229 00a8 69       		.byte	0x69
 230 00a9 AD000000 		.4byte	0xad
 231 00ad 04       		.uleb128 0x4
 232 00ae 08       		.byte	0x8
 233 00af 07       		.byte	0x7
 234 00b0 2E090000 		.4byte	.LASF15
 235 00b4 03       		.uleb128 0x3
 236 00b5 9F020000 		.4byte	.LASF16
 237 00b9 04       		.byte	0x4
 238 00ba 18       		.byte	0x18
 239 00bb 53000000 		.4byte	0x53
 240 00bf 03       		.uleb128 0x3
 241 00c0 4D090000 		.4byte	.LASF17
 242 00c4 04       		.byte	0x4
 243 00c5 24       		.byte	0x24
 244 00c6 6C000000 		.4byte	0x6c
 245 00ca 03       		.uleb128 0x3
 246 00cb C0000000 		.4byte	.LASF18
 247 00cf 04       		.byte	0x4
 248 00d0 2C       		.byte	0x2c
 249 00d1 7E000000 		.4byte	0x7e
 250 00d5 05       		.uleb128 0x5
 251 00d6 CA000000 		.4byte	0xca
 252 00da 03       		.uleb128 0x3
 253 00db 420B0000 		.4byte	.LASF19
 254 00df 04       		.byte	0x4
 255 00e0 30       		.byte	0x30
 256 00e1 90000000 		.4byte	0x90
 257 00e5 03       		.uleb128 0x3
 258 00e6 780A0000 		.4byte	.LASF20
 259 00ea 04       		.byte	0x4
 260 00eb 3C       		.byte	0x3c
 261 00ec A2000000 		.4byte	0xa2
 262 00f0 03       		.uleb128 0x3
 263 00f1 86070000 		.4byte	.LASF21
 264 00f5 05       		.byte	0x5
 265 00f6 45       		.byte	0x45
 266 00f7 DA000000 		.4byte	0xda
 267 00fb 03       		.uleb128 0x3
 268 00fc 49020000 		.4byte	.LASF22
 269 0100 05       		.byte	0x5
 270 0101 46       		.byte	0x46
 271 0102 E5000000 		.4byte	0xe5
 272 0106 03       		.uleb128 0x3
 273 0107 1D0A0000 		.4byte	.LASF23
 274 010b 05       		.byte	0x5
 275 010c 48       		.byte	0x48
 276 010d B4000000 		.4byte	0xb4
 277 0111 03       		.uleb128 0x3
 278 0112 40020000 		.4byte	.LASF24
 279 0116 05       		.byte	0x5
 280 0117 49       		.byte	0x49
 281 0118 B4000000 		.4byte	0xb4
 282 011c 03       		.uleb128 0x3
 283 011d FA0A0000 		.4byte	.LASF25
 284 0121 05       		.byte	0x5
 285 0122 4A       		.byte	0x4a
ARM GAS  C:\Users\PCHAUT~1\AppData\Local\Temp\ccILrOdh.s 			page 6


 286 0123 B4000000 		.4byte	0xb4
 287 0127 03       		.uleb128 0x3
 288 0128 96090000 		.4byte	.LASF26
 289 012c 05       		.byte	0x5
 290 012d 4B       		.byte	0x4b
 291 012e B4000000 		.4byte	0xb4
 292 0132 03       		.uleb128 0x3
 293 0133 97000000 		.4byte	.LASF27
 294 0137 05       		.byte	0x5
 295 0138 4C       		.byte	0x4c
 296 0139 DA000000 		.4byte	0xda
 297 013d 03       		.uleb128 0x3
 298 013e 62090000 		.4byte	.LASF28
 299 0142 05       		.byte	0x5
 300 0143 4D       		.byte	0x4d
 301 0144 CA000000 		.4byte	0xca
 302 0148 03       		.uleb128 0x3
 303 0149 A7020000 		.4byte	.LASF29
 304 014d 05       		.byte	0x5
 305 014e 4F       		.byte	0x4f
 306 014f DA000000 		.4byte	0xda
 307 0153 03       		.uleb128 0x3
 308 0154 A1030000 		.4byte	.LASF30
 309 0158 05       		.byte	0x5
 310 0159 51       		.byte	0x51
 311 015a CA000000 		.4byte	0xca
 312 015e 03       		.uleb128 0x3
 313 015f F0040000 		.4byte	.LASF31
 314 0163 05       		.byte	0x5
 315 0164 52       		.byte	0x52
 316 0165 DA000000 		.4byte	0xda
 317 0169 03       		.uleb128 0x3
 318 016a 6E000000 		.4byte	.LASF32
 319 016e 06       		.byte	0x6
 320 016f 33       		.byte	0x33
 321 0170 DA000000 		.4byte	0xda
 322 0174 05       		.uleb128 0x5
 323 0175 69010000 		.4byte	0x169
 324 0179 03       		.uleb128 0x3
 325 017a 86080000 		.4byte	.LASF33
 326 017e 06       		.byte	0x6
 327 017f 3F       		.byte	0x3f
 328 0180 84010000 		.4byte	0x184
 329 0184 06       		.uleb128 0x6
 330 0185 A0040000 		.4byte	.LASF57
 331 0189 68       		.byte	0x68
 332 018a 07       		.byte	0x7
 333 018b C2       		.byte	0xc2
 334 018c A2020000 		.4byte	0x2a2
 335 0190 07       		.uleb128 0x7
 336 0191 FA010000 		.4byte	.LASF34
 337 0195 07       		.byte	0x7
 338 0196 C3       		.byte	0xc3
 339 0197 AD020000 		.4byte	0x2ad
 340 019b 00       		.byte	0
 341 019c 07       		.uleb128 0x7
 342 019d 2A020000 		.4byte	.LASF35
ARM GAS  C:\Users\PCHAUT~1\AppData\Local\Temp\ccILrOdh.s 			page 7


 343 01a1 07       		.byte	0x7
 344 01a2 C5       		.byte	0xc5
 345 01a3 AD020000 		.4byte	0x2ad
 346 01a7 04       		.byte	0x4
 347 01a8 07       		.uleb128 0x7
 348 01a9 4E030000 		.4byte	.LASF36
 349 01ad 07       		.byte	0x7
 350 01ae C7       		.byte	0xc7
 351 01af 32010000 		.4byte	0x132
 352 01b3 08       		.byte	0x8
 353 01b4 07       		.uleb128 0x7
 354 01b5 8B000000 		.4byte	.LASF37
 355 01b9 07       		.byte	0x7
 356 01ba C8       		.byte	0xc8
 357 01bb 26050000 		.4byte	0x526
 358 01bf 0C       		.byte	0xc
 359 01c0 07       		.uleb128 0x7
 360 01c1 DB010000 		.4byte	.LASF38
 361 01c5 07       		.byte	0x7
 362 01c6 CA       		.byte	0xca
 363 01c7 AD020000 		.4byte	0x2ad
 364 01cb 10       		.byte	0x10
 365 01cc 07       		.uleb128 0x7
 366 01cd 45090000 		.4byte	.LASF39
 367 01d1 07       		.byte	0x7
 368 01d2 CB       		.byte	0xcb
 369 01d3 AD020000 		.4byte	0x2ad
 370 01d7 14       		.byte	0x14
 371 01d8 07       		.uleb128 0x7
 372 01d9 E20B0000 		.4byte	.LASF40
 373 01dd 07       		.byte	0x7
 374 01de D2       		.byte	0xd2
 375 01df 9C080000 		.4byte	0x89c
 376 01e3 18       		.byte	0x18
 377 01e4 07       		.uleb128 0x7
 378 01e5 B20B0000 		.4byte	.LASF41
 379 01e9 07       		.byte	0x7
 380 01ea D8       		.byte	0xd8
 381 01eb B3080000 		.4byte	0x8b3
 382 01ef 1C       		.byte	0x1c
 383 01f0 07       		.uleb128 0x7
 384 01f1 1D0C0000 		.4byte	.LASF42
 385 01f5 07       		.byte	0x7
 386 01f6 DD       		.byte	0xdd
 387 01f7 11010000 		.4byte	0x111
 388 01fb 20       		.byte	0x20
 389 01fc 07       		.uleb128 0x7
 390 01fd 62070000 		.4byte	.LASF43
 391 0201 07       		.byte	0x7
 392 0202 E1       		.byte	0xe1
 393 0203 06010000 		.4byte	0x106
 394 0207 21       		.byte	0x21
 395 0208 07       		.uleb128 0x7
 396 0209 D1070000 		.4byte	.LASF44
 397 020d 07       		.byte	0x7
 398 020e E6       		.byte	0xe6
 399 020f 1C010000 		.4byte	0x11c
ARM GAS  C:\Users\PCHAUT~1\AppData\Local\Temp\ccILrOdh.s 			page 8


 400 0213 22       		.byte	0x22
 401 0214 07       		.uleb128 0x7
 402 0215 95020000 		.4byte	.LASF45
 403 0219 07       		.byte	0x7
 404 021a EC       		.byte	0xec
 405 021b 27010000 		.4byte	0x127
 406 021f 23       		.byte	0x23
 407 0220 07       		.uleb128 0x7
 408 0221 61080000 		.4byte	.LASF46
 409 0225 07       		.byte	0x7
 410 0226 F3       		.byte	0xf3
 411 0227 74010000 		.4byte	0x174
 412 022b 24       		.byte	0x24
 413 022c 08       		.uleb128 0x8
 414 022d 705F7500 		.ascii	"p_u\000"
 415 0231 07       		.byte	0x7
 416 0232 3101     		.2byte	0x131
 417 0234 CB070000 		.4byte	0x7cb
 418 0238 28       		.byte	0x28
 419 0239 09       		.uleb128 0x9
 420 023a 4E070000 		.4byte	.LASF47
 421 023e 07       		.byte	0x7
 422 023f 3601     		.2byte	0x136
 423 0241 B3020000 		.4byte	0x2b3
 424 0245 2C       		.byte	0x2c
 425 0246 09       		.uleb128 0x9
 426 0247 A8000000 		.4byte	.LASF48
 427 024b 07       		.byte	0x7
 428 024c 3C01     		.2byte	0x13c
 429 024e D7020000 		.4byte	0x2d7
 430 0252 30       		.byte	0x30
 431 0253 09       		.uleb128 0x9
 432 0254 170C0000 		.4byte	.LASF49
 433 0258 07       		.byte	0x7
 434 0259 4001     		.2byte	0x140
 435 025b 3D010000 		.4byte	0x13d
 436 025f 38       		.byte	0x38
 437 0260 09       		.uleb128 0x9
 438 0261 CE030000 		.4byte	.LASF50
 439 0265 07       		.byte	0x7
 440 0266 4601     		.2byte	0x146
 441 0268 48010000 		.4byte	0x148
 442 026c 3C       		.byte	0x3c
 443 026d 09       		.uleb128 0x9
 444 026e 62020000 		.4byte	.LASF51
 445 0272 07       		.byte	0x7
 446 0273 4D01     		.2byte	0x14d
 447 0275 96080000 		.4byte	0x896
 448 0279 40       		.byte	0x40
 449 027a 09       		.uleb128 0x9
 450 027b AE080000 		.4byte	.LASF52
 451 027f 07       		.byte	0x7
 452 0280 5101     		.2byte	0x151
 453 0282 32010000 		.4byte	0x132
 454 0286 44       		.byte	0x44
 455 0287 09       		.uleb128 0x9
 456 0288 8E070000 		.4byte	.LASF53
ARM GAS  C:\Users\PCHAUT~1\AppData\Local\Temp\ccILrOdh.s 			page 9


 457 028c 07       		.byte	0x7
 458 028d 5801     		.2byte	0x158
 459 028f 8A030000 		.4byte	0x38a
 460 0293 48       		.byte	0x48
 461 0294 09       		.uleb128 0x9
 462 0295 00000000 		.4byte	.LASF54
 463 0299 07       		.byte	0x7
 464 029a 5E01     		.2byte	0x15e
 465 029c 7C070000 		.4byte	0x77c
 466 02a0 50       		.byte	0x50
 467 02a1 00       		.byte	0
 468 02a2 03       		.uleb128 0x3
 469 02a3 9B080000 		.4byte	.LASF55
 470 02a7 06       		.byte	0x6
 471 02a8 44       		.byte	0x44
 472 02a9 AD020000 		.4byte	0x2ad
 473 02ad 0A       		.uleb128 0xa
 474 02ae 04       		.byte	0x4
 475 02af 79010000 		.4byte	0x179
 476 02b3 03       		.uleb128 0x3
 477 02b4 190B0000 		.4byte	.LASF56
 478 02b8 06       		.byte	0x6
 479 02b9 49       		.byte	0x49
 480 02ba BE020000 		.4byte	0x2be
 481 02be 06       		.uleb128 0x6
 482 02bf FF040000 		.4byte	.LASF58
 483 02c3 04       		.byte	0x4
 484 02c4 07       		.byte	0x7
 485 02c5 B0       		.byte	0xb0
 486 02c6 D7020000 		.4byte	0x2d7
 487 02ca 07       		.uleb128 0x7
 488 02cb FA010000 		.4byte	.LASF34
 489 02cf 07       		.byte	0x7
 490 02d0 B1       		.byte	0xb1
 491 02d1 AD020000 		.4byte	0x2ad
 492 02d5 00       		.byte	0
 493 02d6 00       		.byte	0
 494 02d7 03       		.uleb128 0x3
 495 02d8 52020000 		.4byte	.LASF59
 496 02dc 06       		.byte	0x6
 497 02dd 50       		.byte	0x50
 498 02de E2020000 		.4byte	0x2e2
 499 02e2 06       		.uleb128 0x6
 500 02e3 68090000 		.4byte	.LASF60
 501 02e7 08       		.byte	0x8
 502 02e8 07       		.byte	0x7
 503 02e9 B7       		.byte	0xb7
 504 02ea 07030000 		.4byte	0x307
 505 02ee 07       		.uleb128 0x7
 506 02ef FA010000 		.4byte	.LASF34
 507 02f3 07       		.byte	0x7
 508 02f4 B8       		.byte	0xb8
 509 02f5 AD020000 		.4byte	0x2ad
 510 02f9 00       		.byte	0
 511 02fa 07       		.uleb128 0x7
 512 02fb 2A020000 		.4byte	.LASF35
 513 02ff 07       		.byte	0x7
ARM GAS  C:\Users\PCHAUT~1\AppData\Local\Temp\ccILrOdh.s 			page 10


 514 0300 B9       		.byte	0xb9
 515 0301 AD020000 		.4byte	0x2ad
 516 0305 04       		.byte	0x4
 517 0306 00       		.byte	0
 518 0307 03       		.uleb128 0x3
 519 0308 D7040000 		.4byte	.LASF61
 520 030c 06       		.byte	0x6
 521 030d 57       		.byte	0x57
 522 030e 12030000 		.4byte	0x312
 523 0312 0B       		.uleb128 0xb
 524 0313 E5030000 		.4byte	.LASF62
 525 0317 1C       		.byte	0x1c
 526 0318 07       		.byte	0x7
 527 0319 9001     		.2byte	0x190
 528 031b 6E030000 		.4byte	0x36e
 529 031f 09       		.uleb128 0x9
 530 0320 F7090000 		.4byte	.LASF63
 531 0324 07       		.byte	0x7
 532 0325 9101     		.2byte	0x191
 533 0327 D7020000 		.4byte	0x2d7
 534 032b 00       		.byte	0
 535 032c 09       		.uleb128 0x9
 536 032d 930A0000 		.4byte	.LASF64
 537 0331 07       		.byte	0x7
 538 0332 9201     		.2byte	0x192
 539 0334 32010000 		.4byte	0x132
 540 0338 08       		.byte	0x8
 541 0339 09       		.uleb128 0x9
 542 033a BA000000 		.4byte	.LASF65
 543 033e 07       		.byte	0x7
 544 033f 9401     		.2byte	0x194
 545 0341 26050000 		.4byte	0x526
 546 0345 0C       		.byte	0xc
 547 0346 09       		.uleb128 0x9
 548 0347 FF020000 		.4byte	.LASF66
 549 034b 07       		.byte	0x7
 550 034c 9701     		.2byte	0x197
 551 034e AD020000 		.4byte	0x2ad
 552 0352 10       		.byte	0x10
 553 0353 09       		.uleb128 0x9
 554 0354 400A0000 		.4byte	.LASF67
 555 0358 07       		.byte	0x7
 556 0359 9801     		.2byte	0x198
 557 035b AD020000 		.4byte	0x2ad
 558 035f 14       		.byte	0x14
 559 0360 09       		.uleb128 0x9
 560 0361 A0090000 		.4byte	.LASF68
 561 0365 07       		.byte	0x7
 562 0366 9B01     		.2byte	0x19b
 563 0368 AD020000 		.4byte	0x2ad
 564 036c 18       		.byte	0x18
 565 036d 00       		.byte	0
 566 036e 03       		.uleb128 0x3
 567 036f E8000000 		.4byte	.LASF69
 568 0373 06       		.byte	0x6
 569 0374 5C       		.byte	0x5c
 570 0375 79030000 		.4byte	0x379
ARM GAS  C:\Users\PCHAUT~1\AppData\Local\Temp\ccILrOdh.s 			page 11


 571 0379 0A       		.uleb128 0xa
 572 037a 04       		.byte	0x4
 573 037b 7F030000 		.4byte	0x37f
 574 037f 0C       		.uleb128 0xc
 575 0380 8A030000 		.4byte	0x38a
 576 0384 0D       		.uleb128 0xd
 577 0385 8A030000 		.4byte	0x38a
 578 0389 00       		.byte	0
 579 038a 0E       		.uleb128 0xe
 580 038b 04       		.byte	0x4
 581 038c 03       		.uleb128 0x3
 582 038d C7040000 		.4byte	.LASF70
 583 0391 06       		.byte	0x6
 584 0392 61       		.byte	0x61
 585 0393 97030000 		.4byte	0x397
 586 0397 0B       		.uleb128 0xb
 587 0398 EF080000 		.4byte	.LASF71
 588 039c 14       		.byte	0x14
 589 039d 07       		.byte	0x7
 590 039e 6B01     		.2byte	0x16b
 591 03a0 E6030000 		.4byte	0x3e6
 592 03a4 09       		.uleb128 0x9
 593 03a5 A0050000 		.4byte	.LASF72
 594 03a9 07       		.byte	0x7
 595 03aa 6C01     		.2byte	0x16c
 596 03ac B9080000 		.4byte	0x8b9
 597 03b0 00       		.byte	0
 598 03b1 09       		.uleb128 0x9
 599 03b2 B9050000 		.4byte	.LASF73
 600 03b6 07       		.byte	0x7
 601 03b7 6D01     		.2byte	0x16d
 602 03b9 B9080000 		.4byte	0x8b9
 603 03bd 04       		.byte	0x4
 604 03be 09       		.uleb128 0x9
 605 03bf D7080000 		.4byte	.LASF74
 606 03c3 07       		.byte	0x7
 607 03c4 6E01     		.2byte	0x16e
 608 03c6 69010000 		.4byte	0x169
 609 03ca 08       		.byte	0x8
 610 03cb 09       		.uleb128 0x9
 611 03cc A7030000 		.4byte	.LASF75
 612 03d0 07       		.byte	0x7
 613 03d1 6F01     		.2byte	0x16f
 614 03d3 6E030000 		.4byte	0x36e
 615 03d7 0C       		.byte	0xc
 616 03d8 09       		.uleb128 0x9
 617 03d9 92010000 		.4byte	.LASF76
 618 03dd 07       		.byte	0x7
 619 03de 7101     		.2byte	0x171
 620 03e0 8A030000 		.4byte	0x38a
 621 03e4 10       		.byte	0x10
 622 03e5 00       		.byte	0
 623 03e6 03       		.uleb128 0x3
 624 03e7 AA040000 		.4byte	.LASF77
 625 03eb 06       		.byte	0x6
 626 03ec 66       		.byte	0x66
 627 03ed F1030000 		.4byte	0x3f1
ARM GAS  C:\Users\PCHAUT~1\AppData\Local\Temp\ccILrOdh.s 			page 12


 628 03f1 0B       		.uleb128 0xb
 629 03f2 F1000000 		.4byte	.LASF78
 630 03f6 10       		.byte	0x10
 631 03f7 07       		.byte	0x7
 632 03f8 7B01     		.2byte	0x17b
 633 03fa 33040000 		.4byte	0x433
 634 03fe 09       		.uleb128 0x9
 635 03ff A0050000 		.4byte	.LASF72
 636 0403 07       		.byte	0x7
 637 0404 7C01     		.2byte	0x17c
 638 0406 B9080000 		.4byte	0x8b9
 639 040a 00       		.byte	0
 640 040b 09       		.uleb128 0x9
 641 040c B9050000 		.4byte	.LASF73
 642 0410 07       		.byte	0x7
 643 0411 7E01     		.2byte	0x17e
 644 0413 B9080000 		.4byte	0x8b9
 645 0417 04       		.byte	0x4
 646 0418 09       		.uleb128 0x9
 647 0419 D7080000 		.4byte	.LASF74
 648 041d 07       		.byte	0x7
 649 041e 8001     		.2byte	0x180
 650 0420 69010000 		.4byte	0x169
 651 0424 08       		.byte	0x8
 652 0425 09       		.uleb128 0x9
 653 0426 350A0000 		.4byte	.LASF79
 654 042a 07       		.byte	0x7
 655 042b 8201     		.2byte	0x182
 656 042d 74010000 		.4byte	0x174
 657 0431 0C       		.byte	0xc
 658 0432 00       		.byte	0
 659 0433 03       		.uleb128 0x3
 660 0434 24030000 		.4byte	.LASF80
 661 0438 06       		.byte	0x6
 662 0439 6B       		.byte	0x6b
 663 043a 3E040000 		.4byte	0x43e
 664 043e 0F       		.uleb128 0xf
 665 043f 9A0A0000 		.4byte	.LASF81
 666 0443 1404     		.2byte	0x414
 667 0445 07       		.byte	0x7
 668 0446 A201     		.2byte	0x1a2
 669 0448 81040000 		.4byte	0x481
 670 044c 09       		.uleb128 0x9
 671 044d CF020000 		.4byte	.LASF82
 672 0451 07       		.byte	0x7
 673 0452 AA01     		.2byte	0x1aa
 674 0454 A2080000 		.4byte	0x8a2
 675 0458 00       		.byte	0
 676 0459 09       		.uleb128 0x9
 677 045a 14040000 		.4byte	.LASF83
 678 045e 07       		.byte	0x7
 679 045f AF01     		.2byte	0x1af
 680 0461 53010000 		.4byte	0x153
 681 0465 04       		.byte	0x4
 682 0466 09       		.uleb128 0x9
 683 0467 50010000 		.4byte	.LASF84
 684 046b 07       		.byte	0x7
ARM GAS  C:\Users\PCHAUT~1\AppData\Local\Temp\ccILrOdh.s 			page 13


 685 046c B301     		.2byte	0x1b3
 686 046e 53010000 		.4byte	0x153
 687 0472 08       		.byte	0x8
 688 0473 09       		.uleb128 0x9
 689 0474 F2020000 		.4byte	.LASF85
 690 0478 07       		.byte	0x7
 691 0479 B901     		.2byte	0x1b9
 692 047b 0E070000 		.4byte	0x70e
 693 047f 0C       		.byte	0xc
 694 0480 00       		.byte	0
 695 0481 03       		.uleb128 0x3
 696 0482 830B0000 		.4byte	.LASF86
 697 0486 06       		.byte	0x6
 698 0487 70       		.byte	0x70
 699 0488 8C040000 		.4byte	0x48c
 700 048c 0F       		.uleb128 0xf
 701 048d 280B0000 		.4byte	.LASF87
 702 0491 7006     		.2byte	0x670
 703 0493 07       		.byte	0x7
 704 0494 C201     		.2byte	0x1c2
 705 0496 F9040000 		.4byte	0x4f9
 706 049a 09       		.uleb128 0x9
 707 049b 170A0000 		.4byte	.LASF88
 708 049f 07       		.byte	0x7
 709 04a0 C601     		.2byte	0x1c6
 710 04a2 07030000 		.4byte	0x307
 711 04a6 00       		.byte	0
 712 04a7 09       		.uleb128 0x9
 713 04a8 CA0A0000 		.4byte	.LASF89
 714 04ac 07       		.byte	0x7
 715 04ad CA01     		.2byte	0x1ca
 716 04af E6030000 		.4byte	0x3e6
 717 04b3 1C       		.byte	0x1c
 718 04b4 08       		.uleb128 0x8
 719 04b5 64626700 		.ascii	"dbg\000"
 720 04b9 07       		.byte	0x7
 721 04ba CE01     		.2byte	0x1ce
 722 04bc 33040000 		.4byte	0x433
 723 04c0 2C       		.byte	0x2c
 724 04c1 10       		.uleb128 0x10
 725 04c2 CC090000 		.4byte	.LASF90
 726 04c6 07       		.byte	0x7
 727 04c7 D201     		.2byte	0x1d2
 728 04c9 79010000 		.4byte	0x179
 729 04cd 4004     		.2byte	0x440
 730 04cf 11       		.uleb128 0x11
 731 04d0 746D00   		.ascii	"tm\000"
 732 04d3 07       		.byte	0x7
 733 04d4 D701     		.2byte	0x1d7
 734 04d6 2E070000 		.4byte	0x72e
 735 04da A804     		.2byte	0x4a8
 736 04dc 10       		.uleb128 0x10
 737 04dd 14090000 		.4byte	.LASF91
 738 04e1 07       		.byte	0x7
 739 04e2 DD01     		.2byte	0x1dd
 740 04e4 C0070000 		.4byte	0x7c0
 741 04e8 B004     		.2byte	0x4b0
ARM GAS  C:\Users\PCHAUT~1\AppData\Local\Temp\ccILrOdh.s 			page 14


 742 04ea 10       		.uleb128 0x10
 743 04eb 6A070000 		.4byte	.LASF92
 744 04ef 07       		.byte	0x7
 745 04f0 E301     		.2byte	0x1e3
 746 04f2 BF080000 		.4byte	0x8bf
 747 04f6 E804     		.2byte	0x4e8
 748 04f8 00       		.byte	0
 749 04f9 12       		.uleb128 0x12
 750 04fa 32070000 		.4byte	.LASF93
 751 04fe 08       		.byte	0x8
 752 04ff A706     		.2byte	0x6a7
 753 0501 D5000000 		.4byte	0xd5
 754 0505 13       		.uleb128 0x13
 755 0506 83040000 		.4byte	.LASF94
 756 050a 09       		.byte	0x9
 757 050b 4C       		.byte	0x4c
 758 050c DA000000 		.4byte	0xda
 759 0510 03       		.uleb128 0x3
 760 0511 6C020000 		.4byte	.LASF95
 761 0515 0A       		.byte	0xa
 762 0516 65       		.byte	0x65
 763 0517 8A030000 		.4byte	0x38a
 764 051b 03       		.uleb128 0x3
 765 051c 84030000 		.4byte	.LASF96
 766 0520 0A       		.byte	0xa
 767 0521 6D       		.byte	0x6d
 768 0522 E5000000 		.4byte	0xe5
 769 0526 06       		.uleb128 0x6
 770 0527 B3020000 		.4byte	.LASF97
 771 052b 04       		.byte	0x4
 772 052c 0A       		.byte	0xa
 773 052d 89       		.byte	0x89
 774 052e 3F050000 		.4byte	0x53f
 775 0532 14       		.uleb128 0x14
 776 0533 72313300 		.ascii	"r13\000"
 777 0537 0A       		.byte	0xa
 778 0538 8A       		.byte	0x8a
 779 0539 80060000 		.4byte	0x680
 780 053d 00       		.byte	0
 781 053e 00       		.byte	0
 782 053f 06       		.uleb128 0x6
 783 0540 B9080000 		.4byte	.LASF98
 784 0544 64       		.byte	0x64
 785 0545 0B       		.byte	0xb
 786 0546 F4       		.byte	0xf4
 787 0547 80060000 		.4byte	0x680
 788 054b 14       		.uleb128 0x14
 789 054c 73313600 		.ascii	"s16\000"
 790 0550 0B       		.byte	0xb
 791 0551 F6       		.byte	0xf6
 792 0552 10050000 		.4byte	0x510
 793 0556 00       		.byte	0
 794 0557 14       		.uleb128 0x14
 795 0558 73313700 		.ascii	"s17\000"
 796 055c 0B       		.byte	0xb
 797 055d F7       		.byte	0xf7
 798 055e 10050000 		.4byte	0x510
ARM GAS  C:\Users\PCHAUT~1\AppData\Local\Temp\ccILrOdh.s 			page 15


 799 0562 04       		.byte	0x4
 800 0563 14       		.uleb128 0x14
 801 0564 73313800 		.ascii	"s18\000"
 802 0568 0B       		.byte	0xb
 803 0569 F8       		.byte	0xf8
 804 056a 10050000 		.4byte	0x510
 805 056e 08       		.byte	0x8
 806 056f 14       		.uleb128 0x14
 807 0570 73313900 		.ascii	"s19\000"
 808 0574 0B       		.byte	0xb
 809 0575 F9       		.byte	0xf9
 810 0576 10050000 		.4byte	0x510
 811 057a 0C       		.byte	0xc
 812 057b 14       		.uleb128 0x14
 813 057c 73323000 		.ascii	"s20\000"
 814 0580 0B       		.byte	0xb
 815 0581 FA       		.byte	0xfa
 816 0582 10050000 		.4byte	0x510
 817 0586 10       		.byte	0x10
 818 0587 14       		.uleb128 0x14
 819 0588 73323100 		.ascii	"s21\000"
 820 058c 0B       		.byte	0xb
 821 058d FB       		.byte	0xfb
 822 058e 10050000 		.4byte	0x510
 823 0592 14       		.byte	0x14
 824 0593 14       		.uleb128 0x14
 825 0594 73323200 		.ascii	"s22\000"
 826 0598 0B       		.byte	0xb
 827 0599 FC       		.byte	0xfc
 828 059a 10050000 		.4byte	0x510
 829 059e 18       		.byte	0x18
 830 059f 14       		.uleb128 0x14
 831 05a0 73323300 		.ascii	"s23\000"
 832 05a4 0B       		.byte	0xb
 833 05a5 FD       		.byte	0xfd
 834 05a6 10050000 		.4byte	0x510
 835 05aa 1C       		.byte	0x1c
 836 05ab 14       		.uleb128 0x14
 837 05ac 73323400 		.ascii	"s24\000"
 838 05b0 0B       		.byte	0xb
 839 05b1 FE       		.byte	0xfe
 840 05b2 10050000 		.4byte	0x510
 841 05b6 20       		.byte	0x20
 842 05b7 14       		.uleb128 0x14
 843 05b8 73323500 		.ascii	"s25\000"
 844 05bc 0B       		.byte	0xb
 845 05bd FF       		.byte	0xff
 846 05be 10050000 		.4byte	0x510
 847 05c2 24       		.byte	0x24
 848 05c3 08       		.uleb128 0x8
 849 05c4 73323600 		.ascii	"s26\000"
 850 05c8 0B       		.byte	0xb
 851 05c9 0001     		.2byte	0x100
 852 05cb 10050000 		.4byte	0x510
 853 05cf 28       		.byte	0x28
 854 05d0 08       		.uleb128 0x8
 855 05d1 73323700 		.ascii	"s27\000"
ARM GAS  C:\Users\PCHAUT~1\AppData\Local\Temp\ccILrOdh.s 			page 16


 856 05d5 0B       		.byte	0xb
 857 05d6 0101     		.2byte	0x101
 858 05d8 10050000 		.4byte	0x510
 859 05dc 2C       		.byte	0x2c
 860 05dd 08       		.uleb128 0x8
 861 05de 73323800 		.ascii	"s28\000"
 862 05e2 0B       		.byte	0xb
 863 05e3 0201     		.2byte	0x102
 864 05e5 10050000 		.4byte	0x510
 865 05e9 30       		.byte	0x30
 866 05ea 08       		.uleb128 0x8
 867 05eb 73323900 		.ascii	"s29\000"
 868 05ef 0B       		.byte	0xb
 869 05f0 0301     		.2byte	0x103
 870 05f2 10050000 		.4byte	0x510
 871 05f6 34       		.byte	0x34
 872 05f7 08       		.uleb128 0x8
 873 05f8 73333000 		.ascii	"s30\000"
 874 05fc 0B       		.byte	0xb
 875 05fd 0401     		.2byte	0x104
 876 05ff 10050000 		.4byte	0x510
 877 0603 38       		.byte	0x38
 878 0604 08       		.uleb128 0x8
 879 0605 73333100 		.ascii	"s31\000"
 880 0609 0B       		.byte	0xb
 881 060a 0501     		.2byte	0x105
 882 060c 10050000 		.4byte	0x510
 883 0610 3C       		.byte	0x3c
 884 0611 08       		.uleb128 0x8
 885 0612 723400   		.ascii	"r4\000"
 886 0615 0B       		.byte	0xb
 887 0616 0701     		.2byte	0x107
 888 0618 10050000 		.4byte	0x510
 889 061c 40       		.byte	0x40
 890 061d 08       		.uleb128 0x8
 891 061e 723500   		.ascii	"r5\000"
 892 0621 0B       		.byte	0xb
 893 0622 0801     		.2byte	0x108
 894 0624 10050000 		.4byte	0x510
 895 0628 44       		.byte	0x44
 896 0629 08       		.uleb128 0x8
 897 062a 723600   		.ascii	"r6\000"
 898 062d 0B       		.byte	0xb
 899 062e 0901     		.2byte	0x109
 900 0630 10050000 		.4byte	0x510
 901 0634 48       		.byte	0x48
 902 0635 08       		.uleb128 0x8
 903 0636 723700   		.ascii	"r7\000"
 904 0639 0B       		.byte	0xb
 905 063a 0A01     		.2byte	0x10a
 906 063c 10050000 		.4byte	0x510
 907 0640 4C       		.byte	0x4c
 908 0641 08       		.uleb128 0x8
 909 0642 723800   		.ascii	"r8\000"
 910 0645 0B       		.byte	0xb
 911 0646 0B01     		.2byte	0x10b
 912 0648 10050000 		.4byte	0x510
ARM GAS  C:\Users\PCHAUT~1\AppData\Local\Temp\ccILrOdh.s 			page 17


 913 064c 50       		.byte	0x50
 914 064d 08       		.uleb128 0x8
 915 064e 723900   		.ascii	"r9\000"
 916 0651 0B       		.byte	0xb
 917 0652 0C01     		.2byte	0x10c
 918 0654 10050000 		.4byte	0x510
 919 0658 54       		.byte	0x54
 920 0659 08       		.uleb128 0x8
 921 065a 72313000 		.ascii	"r10\000"
 922 065e 0B       		.byte	0xb
 923 065f 0D01     		.2byte	0x10d
 924 0661 10050000 		.4byte	0x510
 925 0665 58       		.byte	0x58
 926 0666 08       		.uleb128 0x8
 927 0667 72313100 		.ascii	"r11\000"
 928 066b 0B       		.byte	0xb
 929 066c 0E01     		.2byte	0x10e
 930 066e 10050000 		.4byte	0x510
 931 0672 5C       		.byte	0x5c
 932 0673 08       		.uleb128 0x8
 933 0674 6C7200   		.ascii	"lr\000"
 934 0677 0B       		.byte	0xb
 935 0678 0F01     		.2byte	0x10f
 936 067a 10050000 		.4byte	0x510
 937 067e 60       		.byte	0x60
 938 067f 00       		.byte	0
 939 0680 0A       		.uleb128 0xa
 940 0681 04       		.byte	0x4
 941 0682 3F050000 		.4byte	0x53f
 942 0686 15       		.uleb128 0x15
 943 0687 10       		.byte	0x10
 944 0688 0C       		.byte	0xc
 945 0689 51       		.byte	0x51
 946 068a BF060000 		.4byte	0x6bf
 947 068e 07       		.uleb128 0x7
 948 068f DA0B0000 		.4byte	.LASF99
 949 0693 0C       		.byte	0xc
 950 0694 55       		.byte	0x55
 951 0695 69010000 		.4byte	0x169
 952 0699 00       		.byte	0
 953 069a 07       		.uleb128 0x7
 954 069b 71010000 		.4byte	.LASF100
 955 069f 0C       		.byte	0xc
 956 06a0 59       		.byte	0x59
 957 06a1 AD020000 		.4byte	0x2ad
 958 06a5 04       		.byte	0x4
 959 06a6 07       		.uleb128 0x7
 960 06a7 58070000 		.4byte	.LASF101
 961 06ab 0C       		.byte	0xc
 962 06ac 5D       		.byte	0x5d
 963 06ad 8A030000 		.4byte	0x38a
 964 06b1 08       		.byte	0x8
 965 06b2 07       		.uleb128 0x7
 966 06b3 27040000 		.4byte	.LASF102
 967 06b7 0C       		.byte	0xc
 968 06b8 61       		.byte	0x61
 969 06b9 B4000000 		.4byte	0xb4
ARM GAS  C:\Users\PCHAUT~1\AppData\Local\Temp\ccILrOdh.s 			page 18


 970 06bd 0C       		.byte	0xc
 971 06be 00       		.byte	0
 972 06bf 03       		.uleb128 0x3
 973 06c0 1D050000 		.4byte	.LASF103
 974 06c4 0C       		.byte	0xc
 975 06c5 62       		.byte	0x62
 976 06c6 86060000 		.4byte	0x686
 977 06ca 16       		.uleb128 0x16
 978 06cb 0804     		.2byte	0x408
 979 06cd 0C       		.byte	0xc
 980 06ce 67       		.byte	0x67
 981 06cf F8060000 		.4byte	0x6f8
 982 06d3 07       		.uleb128 0x7
 983 06d4 D0050000 		.4byte	.LASF104
 984 06d8 0C       		.byte	0xc
 985 06d9 6B       		.byte	0x6b
 986 06da 37000000 		.4byte	0x37
 987 06de 00       		.byte	0
 988 06df 07       		.uleb128 0x7
 989 06e0 F00B0000 		.4byte	.LASF105
 990 06e4 0C       		.byte	0xc
 991 06e5 6F       		.byte	0x6f
 992 06e6 F8060000 		.4byte	0x6f8
 993 06ea 04       		.byte	0x4
 994 06eb 07       		.uleb128 0x7
 995 06ec 4F080000 		.4byte	.LASF106
 996 06f0 0C       		.byte	0xc
 997 06f1 73       		.byte	0x73
 998 06f2 FE060000 		.4byte	0x6fe
 999 06f6 08       		.byte	0x8
 1000 06f7 00       		.byte	0
 1001 06f8 0A       		.uleb128 0xa
 1002 06f9 04       		.byte	0x4
 1003 06fa BF060000 		.4byte	0x6bf
 1004 06fe 17       		.uleb128 0x17
 1005 06ff BF060000 		.4byte	0x6bf
 1006 0703 0E070000 		.4byte	0x70e
 1007 0707 18       		.uleb128 0x18
 1008 0708 37000000 		.4byte	0x37
 1009 070c 3F       		.byte	0x3f
 1010 070d 00       		.byte	0
 1011 070e 03       		.uleb128 0x3
 1012 070f BC030000 		.4byte	.LASF107
 1013 0713 0C       		.byte	0xc
 1014 0714 74       		.byte	0x74
 1015 0715 CA060000 		.4byte	0x6ca
 1016 0719 15       		.uleb128 0x15
 1017 071a 04       		.byte	0x4
 1018 071b 0D       		.byte	0xd
 1019 071c 38       		.byte	0x38
 1020 071d 2E070000 		.4byte	0x72e
 1021 0721 07       		.uleb128 0x7
 1022 0722 48080000 		.4byte	.LASF108
 1023 0726 0D       		.byte	0xd
 1024 0727 3C       		.byte	0x3c
 1025 0728 F0000000 		.4byte	0xf0
 1026 072c 00       		.byte	0
ARM GAS  C:\Users\PCHAUT~1\AppData\Local\Temp\ccILrOdh.s 			page 19


 1027 072d 00       		.byte	0
 1028 072e 03       		.uleb128 0x3
 1029 072f 480A0000 		.4byte	.LASF109
 1030 0733 0D       		.byte	0xd
 1031 0734 3D       		.byte	0x3d
 1032 0735 19070000 		.4byte	0x719
 1033 0739 15       		.uleb128 0x15
 1034 073a 18       		.byte	0x18
 1035 073b 0D       		.byte	0xd
 1036 073c 48       		.byte	0x48
 1037 073d 7C070000 		.4byte	0x77c
 1038 0741 07       		.uleb128 0x7
 1039 0742 E7090000 		.4byte	.LASF110
 1040 0746 0D       		.byte	0xd
 1041 0747 49       		.byte	0x49
 1042 0748 F0000000 		.4byte	0xf0
 1043 074c 00       		.byte	0
 1044 074d 07       		.uleb128 0x7
 1045 074e 9B030000 		.4byte	.LASF111
 1046 0752 0D       		.byte	0xd
 1047 0753 4A       		.byte	0x4a
 1048 0754 F0000000 		.4byte	0xf0
 1049 0758 04       		.byte	0x4
 1050 0759 07       		.uleb128 0x7
 1051 075a 120C0000 		.4byte	.LASF112
 1052 075e 0D       		.byte	0xd
 1053 075f 4B       		.byte	0x4b
 1054 0760 F0000000 		.4byte	0xf0
 1055 0764 08       		.byte	0x8
 1056 0765 14       		.uleb128 0x14
 1057 0766 6E00     		.ascii	"n\000"
 1058 0768 0D       		.byte	0xd
 1059 0769 4C       		.byte	0x4c
 1060 076a 5E010000 		.4byte	0x15e
 1061 076e 0C       		.byte	0xc
 1062 076f 07       		.uleb128 0x7
 1063 0770 7E020000 		.4byte	.LASF113
 1064 0774 0D       		.byte	0xd
 1065 0775 4D       		.byte	0x4d
 1066 0776 FB000000 		.4byte	0xfb
 1067 077a 10       		.byte	0x10
 1068 077b 00       		.byte	0
 1069 077c 03       		.uleb128 0x3
 1070 077d 77010000 		.4byte	.LASF114
 1071 0781 0D       		.byte	0xd
 1072 0782 4E       		.byte	0x4e
 1073 0783 39070000 		.4byte	0x739
 1074 0787 15       		.uleb128 0x15
 1075 0788 38       		.byte	0x38
 1076 0789 0E       		.byte	0xe
 1077 078a 38       		.byte	0x38
 1078 078b C0070000 		.4byte	0x7c0
 1079 078f 07       		.uleb128 0x7
 1080 0790 34050000 		.4byte	.LASF115
 1081 0794 0E       		.byte	0xe
 1082 0795 39       		.byte	0x39
 1083 0796 5E010000 		.4byte	0x15e
ARM GAS  C:\Users\PCHAUT~1\AppData\Local\Temp\ccILrOdh.s 			page 20


 1084 079a 00       		.byte	0
 1085 079b 07       		.uleb128 0x7
 1086 079c 67030000 		.4byte	.LASF116
 1087 07a0 0E       		.byte	0xe
 1088 07a1 3A       		.byte	0x3a
 1089 07a2 5E010000 		.4byte	0x15e
 1090 07a6 04       		.byte	0x4
 1091 07a7 07       		.uleb128 0x7
 1092 07a8 30040000 		.4byte	.LASF117
 1093 07ac 0E       		.byte	0xe
 1094 07ad 3B       		.byte	0x3b
 1095 07ae 7C070000 		.4byte	0x77c
 1096 07b2 08       		.byte	0x8
 1097 07b3 07       		.uleb128 0x7
 1098 07b4 1C040000 		.4byte	.LASF118
 1099 07b8 0E       		.byte	0xe
 1100 07b9 3D       		.byte	0x3d
 1101 07ba 7C070000 		.4byte	0x77c
 1102 07be 20       		.byte	0x20
 1103 07bf 00       		.byte	0
 1104 07c0 03       		.uleb128 0x3
 1105 07c1 FD070000 		.4byte	.LASF119
 1106 07c5 0E       		.byte	0xe
 1107 07c6 3F       		.byte	0x3f
 1108 07c7 87070000 		.4byte	0x787
 1109 07cb 19       		.uleb128 0x19
 1110 07cc 04       		.byte	0x4
 1111 07cd 07       		.byte	0x7
 1112 07ce FA       		.byte	0xfa
 1113 07cf 28080000 		.4byte	0x828
 1114 07d3 1A       		.uleb128 0x1a
 1115 07d4 5A0B0000 		.4byte	.LASF120
 1116 07d8 07       		.byte	0x7
 1117 07d9 0101     		.2byte	0x101
 1118 07db 3D010000 		.4byte	0x13d
 1119 07df 1A       		.uleb128 0x1a
 1120 07e0 9F010000 		.4byte	.LASF121
 1121 07e4 07       		.byte	0x7
 1122 07e5 0801     		.2byte	0x108
 1123 07e7 3D010000 		.4byte	0x13d
 1124 07eb 1A       		.uleb128 0x1a
 1125 07ec 60030000 		.4byte	.LASF122
 1126 07f0 07       		.byte	0x7
 1127 07f1 0F01     		.2byte	0x10f
 1128 07f3 8A030000 		.4byte	0x38a
 1129 07f7 1A       		.uleb128 0x1a
 1130 07f8 BB020000 		.4byte	.LASF123
 1131 07fc 07       		.byte	0x7
 1132 07fd 1601     		.2byte	0x116
 1133 07ff 28080000 		.4byte	0x828
 1134 0803 1A       		.uleb128 0x1a
 1135 0804 5B000000 		.4byte	.LASF124
 1136 0808 07       		.byte	0x7
 1137 0809 1E01     		.2byte	0x11e
 1138 080b 53080000 		.4byte	0x853
 1139 080f 1A       		.uleb128 0x1a
 1140 0810 D9030000 		.4byte	.LASF125
ARM GAS  C:\Users\PCHAUT~1\AppData\Local\Temp\ccILrOdh.s 			page 21


 1141 0814 07       		.byte	0x7
 1142 0815 2701     		.2byte	0x127
 1143 0817 96080000 		.4byte	0x896
 1144 081b 1A       		.uleb128 0x1a
 1145 081c B2010000 		.4byte	.LASF126
 1146 0820 07       		.byte	0x7
 1147 0821 2F01     		.2byte	0x12f
 1148 0823 48010000 		.4byte	0x148
 1149 0827 00       		.byte	0
 1150 0828 0A       		.uleb128 0xa
 1151 0829 04       		.byte	0x4
 1152 082a A2020000 		.4byte	0x2a2
 1153 082e 06       		.uleb128 0x6
 1154 082f 93040000 		.4byte	.LASF127
 1155 0833 0C       		.byte	0xc
 1156 0834 0F       		.byte	0xf
 1157 0835 34       		.byte	0x34
 1158 0836 53080000 		.4byte	0x853
 1159 083a 07       		.uleb128 0x7
 1160 083b 590A0000 		.4byte	.LASF128
 1161 083f 0F       		.byte	0xf
 1162 0840 35       		.byte	0x35
 1163 0841 D7020000 		.4byte	0x2d7
 1164 0845 00       		.byte	0
 1165 0846 07       		.uleb128 0x7
 1166 0847 00090000 		.4byte	.LASF129
 1167 084b 0F       		.byte	0xf
 1168 084c 37       		.byte	0x37
 1169 084d 53010000 		.4byte	0x153
 1170 0851 08       		.byte	0x8
 1171 0852 00       		.byte	0
 1172 0853 0A       		.uleb128 0xa
 1173 0854 04       		.byte	0x4
 1174 0855 2E080000 		.4byte	0x82e
 1175 0859 06       		.uleb128 0x6
 1176 085a 810A0000 		.4byte	.LASF130
 1177 085e 14       		.byte	0x14
 1178 085f 10       		.byte	0x10
 1179 0860 39       		.byte	0x39
 1180 0861 96080000 		.4byte	0x896
 1181 0865 07       		.uleb128 0x7
 1182 0866 91050000 		.4byte	.LASF131
 1183 086a 10       		.byte	0x10
 1184 086b 3A       		.byte	0x3a
 1185 086c D7020000 		.4byte	0x2d7
 1186 0870 00       		.byte	0
 1187 0871 07       		.uleb128 0x7
 1188 0872 8A010000 		.4byte	.LASF132
 1189 0876 10       		.byte	0x10
 1190 0877 3C       		.byte	0x3c
 1191 0878 AD020000 		.4byte	0x2ad
 1192 087c 08       		.byte	0x8
 1193 087d 07       		.uleb128 0x7
 1194 087e E90B0000 		.4byte	.LASF133
 1195 0882 10       		.byte	0x10
 1196 0883 3E       		.byte	0x3e
 1197 0884 F1090000 		.4byte	0x9f1
ARM GAS  C:\Users\PCHAUT~1\AppData\Local\Temp\ccILrOdh.s 			page 22


 1198 0888 0C       		.byte	0xc
 1199 0889 07       		.uleb128 0x7
 1200 088a 38030000 		.4byte	.LASF134
 1201 088e 10       		.byte	0x10
 1202 088f 41       		.byte	0x41
 1203 0890 53010000 		.4byte	0x153
 1204 0894 10       		.byte	0x10
 1205 0895 00       		.byte	0
 1206 0896 0A       		.uleb128 0xa
 1207 0897 04       		.byte	0x4
 1208 0898 59080000 		.4byte	0x859
 1209 089c 0A       		.uleb128 0xa
 1210 089d 04       		.byte	0x4
 1211 089e AE080000 		.4byte	0x8ae
 1212 08a2 05       		.uleb128 0x5
 1213 08a3 9C080000 		.4byte	0x89c
 1214 08a7 04       		.uleb128 0x4
 1215 08a8 01       		.byte	0x1
 1216 08a9 08       		.byte	0x8
 1217 08aa 33030000 		.4byte	.LASF135
 1218 08ae 1B       		.uleb128 0x1b
 1219 08af A7080000 		.4byte	0x8a7
 1220 08b3 0A       		.uleb128 0xa
 1221 08b4 04       		.byte	0x4
 1222 08b5 1B050000 		.4byte	0x51b
 1223 08b9 0A       		.uleb128 0xa
 1224 08ba 04       		.byte	0x4
 1225 08bb 8C030000 		.4byte	0x38c
 1226 08bf 17       		.uleb128 0x17
 1227 08c0 1B050000 		.4byte	0x51b
 1228 08c4 CF080000 		.4byte	0x8cf
 1229 08c8 18       		.uleb128 0x18
 1230 08c9 37000000 		.4byte	0x37
 1231 08cd 30       		.byte	0x30
 1232 08ce 00       		.byte	0
 1233 08cf 1C       		.uleb128 0x1c
 1234 08d0 636800   		.ascii	"ch\000"
 1235 08d3 07       		.byte	0x7
 1236 08d4 0902     		.2byte	0x209
 1237 08d6 81040000 		.4byte	0x481
 1238 08da 15       		.uleb128 0x15
 1239 08db 16       		.byte	0x16
 1240 08dc 11       		.byte	0x11
 1241 08dd 34       		.byte	0x34
 1242 08de BB090000 		.4byte	0x9bb
 1243 08e2 07       		.uleb128 0x7
 1244 08e3 7D000000 		.4byte	.LASF136
 1245 08e7 11       		.byte	0x11
 1246 08e8 35       		.byte	0x35
 1247 08e9 BB090000 		.4byte	0x9bb
 1248 08ed 00       		.byte	0
 1249 08ee 07       		.uleb128 0x7
 1250 08ef 60040000 		.4byte	.LASF137
 1251 08f3 11       		.byte	0x11
 1252 08f4 36       		.byte	0x36
 1253 08f5 B4000000 		.4byte	0xb4
 1254 08f9 04       		.byte	0x4
ARM GAS  C:\Users\PCHAUT~1\AppData\Local\Temp\ccILrOdh.s 			page 23


 1255 08fa 07       		.uleb128 0x7
 1256 08fb 990B0000 		.4byte	.LASF138
 1257 08ff 11       		.byte	0x11
 1258 0900 37       		.byte	0x37
 1259 0901 B4000000 		.4byte	0xb4
 1260 0905 05       		.byte	0x5
 1261 0906 07       		.uleb128 0x7
 1262 0907 86050000 		.4byte	.LASF139
 1263 090b 11       		.byte	0x11
 1264 090c 38       		.byte	0x38
 1265 090d BF000000 		.4byte	0xbf
 1266 0911 06       		.byte	0x6
 1267 0912 07       		.uleb128 0x7
 1268 0913 59010000 		.4byte	.LASF140
 1269 0917 11       		.byte	0x11
 1270 0918 39       		.byte	0x39
 1271 0919 B4000000 		.4byte	0xb4
 1272 091d 08       		.byte	0x8
 1273 091e 07       		.uleb128 0x7
 1274 091f D8070000 		.4byte	.LASF141
 1275 0923 11       		.byte	0x11
 1276 0924 3A       		.byte	0x3a
 1277 0925 B4000000 		.4byte	0xb4
 1278 0929 09       		.byte	0x9
 1279 092a 07       		.uleb128 0x7
 1280 092b BF010000 		.4byte	.LASF142
 1281 092f 11       		.byte	0x11
 1282 0930 3B       		.byte	0x3b
 1283 0931 B4000000 		.4byte	0xb4
 1284 0935 0A       		.byte	0xa
 1285 0936 07       		.uleb128 0x7
 1286 0937 8F030000 		.4byte	.LASF143
 1287 093b 11       		.byte	0x11
 1288 093c 3C       		.byte	0x3c
 1289 093d B4000000 		.4byte	0xb4
 1290 0941 0B       		.byte	0xb
 1291 0942 07       		.uleb128 0x7
 1292 0943 DD000000 		.4byte	.LASF144
 1293 0947 11       		.byte	0x11
 1294 0948 3D       		.byte	0x3d
 1295 0949 B4000000 		.4byte	0xb4
 1296 094d 0C       		.byte	0xc
 1297 094e 07       		.uleb128 0x7
 1298 094f 77030000 		.4byte	.LASF145
 1299 0953 11       		.byte	0x11
 1300 0954 3E       		.byte	0x3e
 1301 0955 B4000000 		.4byte	0xb4
 1302 0959 0D       		.byte	0xd
 1303 095a 07       		.uleb128 0x7
 1304 095b B40A0000 		.4byte	.LASF146
 1305 095f 11       		.byte	0x11
 1306 0960 3F       		.byte	0x3f
 1307 0961 B4000000 		.4byte	0xb4
 1308 0965 0E       		.byte	0xe
 1309 0966 07       		.uleb128 0x7
 1310 0967 62000000 		.4byte	.LASF147
 1311 096b 11       		.byte	0x11
ARM GAS  C:\Users\PCHAUT~1\AppData\Local\Temp\ccILrOdh.s 			page 24


 1312 096c 40       		.byte	0x40
 1313 096d B4000000 		.4byte	0xb4
 1314 0971 0F       		.byte	0xf
 1315 0972 07       		.uleb128 0x7
 1316 0973 090B0000 		.4byte	.LASF148
 1317 0977 11       		.byte	0x11
 1318 0978 41       		.byte	0x41
 1319 0979 B4000000 		.4byte	0xb4
 1320 097d 10       		.byte	0x10
 1321 097e 07       		.uleb128 0x7
 1322 097f 17020000 		.4byte	.LASF149
 1323 0983 11       		.byte	0x11
 1324 0984 43       		.byte	0x43
 1325 0985 B4000000 		.4byte	0xb4
 1326 0989 11       		.byte	0x11
 1327 098a 07       		.uleb128 0x7
 1328 098b 81090000 		.4byte	.LASF150
 1329 098f 11       		.byte	0x11
 1330 0990 44       		.byte	0x44
 1331 0991 B4000000 		.4byte	0xb4
 1332 0995 12       		.byte	0x12
 1333 0996 07       		.uleb128 0x7
 1334 0997 68080000 		.4byte	.LASF151
 1335 099b 11       		.byte	0x11
 1336 099c 45       		.byte	0x45
 1337 099d B4000000 		.4byte	0xb4
 1338 09a1 13       		.byte	0x13
 1339 09a2 07       		.uleb128 0x7
 1340 09a3 53050000 		.4byte	.LASF152
 1341 09a7 11       		.byte	0x11
 1342 09a8 46       		.byte	0x46
 1343 09a9 B4000000 		.4byte	0xb4
 1344 09ad 14       		.byte	0x14
 1345 09ae 07       		.uleb128 0x7
 1346 09af C5080000 		.4byte	.LASF153
 1347 09b3 11       		.byte	0x11
 1348 09b4 48       		.byte	0x48
 1349 09b5 B4000000 		.4byte	0xb4
 1350 09b9 15       		.byte	0x15
 1351 09ba 00       		.byte	0
 1352 09bb 17       		.uleb128 0x17
 1353 09bc A7080000 		.4byte	0x8a7
 1354 09c0 CB090000 		.4byte	0x9cb
 1355 09c4 18       		.uleb128 0x18
 1356 09c5 37000000 		.4byte	0x37
 1357 09c9 03       		.byte	0x3
 1358 09ca 00       		.byte	0
 1359 09cb 03       		.uleb128 0x3
 1360 09cc 8F0B0000 		.4byte	.LASF154
 1361 09d0 11       		.byte	0x11
 1362 09d1 49       		.byte	0x49
 1363 09d2 DA080000 		.4byte	0x8da
 1364 09d6 1B       		.uleb128 0x1b
 1365 09d7 CB090000 		.4byte	0x9cb
 1366 09db 13       		.uleb128 0x13
 1367 09dc 9F000000 		.4byte	.LASF155
 1368 09e0 11       		.byte	0x11
ARM GAS  C:\Users\PCHAUT~1\AppData\Local\Temp\ccILrOdh.s 			page 25


 1369 09e1 6E       		.byte	0x6e
 1370 09e2 D6090000 		.4byte	0x9d6
 1371 09e6 03       		.uleb128 0x3
 1372 09e7 F20A0000 		.4byte	.LASF156
 1373 09eb 10       		.byte	0x10
 1374 09ec 34       		.byte	0x34
 1375 09ed 59080000 		.4byte	0x859
 1376 09f1 0A       		.uleb128 0xa
 1377 09f2 04       		.byte	0x4
 1378 09f3 E6090000 		.4byte	0x9e6
 1379 09f7 03       		.uleb128 0x3
 1380 09f8 EA0A0000 		.4byte	.LASF157
 1381 09fc 12       		.byte	0x12
 1382 09fd 22       		.byte	0x22
 1383 09fe 020A0000 		.4byte	0xa02
 1384 0a02 0A       		.uleb128 0xa
 1385 0a03 04       		.byte	0x4
 1386 0a04 080A0000 		.4byte	0xa08
 1387 0a08 1D       		.uleb128 0x1d
 1388 0a09 F3030000 		.4byte	.LASF263
 1389 0a0d 03       		.uleb128 0x3
 1390 0a0e 530B0000 		.4byte	.LASF158
 1391 0a12 13       		.byte	0x13
 1392 0a13 2C       		.byte	0x2c
 1393 0a14 89000000 		.4byte	0x89
 1394 0a18 03       		.uleb128 0x3
 1395 0a19 E0080000 		.4byte	.LASF159
 1396 0a1d 13       		.byte	0x13
 1397 0a1e 72       		.byte	0x72
 1398 0a1f 89000000 		.4byte	0x89
 1399 0a23 1E       		.uleb128 0x1e
 1400 0a24 040A0000 		.4byte	.LASF160
 1401 0a28 02       		.byte	0x2
 1402 0a29 6501     		.2byte	0x165
 1403 0a2b 37000000 		.4byte	0x37
 1404 0a2f 19       		.uleb128 0x19
 1405 0a30 04       		.byte	0x4
 1406 0a31 13       		.byte	0x13
 1407 0a32 A6       		.byte	0xa6
 1408 0a33 4E0A0000 		.4byte	0xa4e
 1409 0a37 1F       		.uleb128 0x1f
 1410 0a38 99010000 		.4byte	.LASF161
 1411 0a3c 13       		.byte	0x13
 1412 0a3d A8       		.byte	0xa8
 1413 0a3e 230A0000 		.4byte	0xa23
 1414 0a42 1F       		.uleb128 0x1f
 1415 0a43 E8080000 		.4byte	.LASF162
 1416 0a47 13       		.byte	0x13
 1417 0a48 A9       		.byte	0xa9
 1418 0a49 4E0A0000 		.4byte	0xa4e
 1419 0a4d 00       		.byte	0
 1420 0a4e 17       		.uleb128 0x17
 1421 0a4f 5E000000 		.4byte	0x5e
 1422 0a53 5E0A0000 		.4byte	0xa5e
 1423 0a57 18       		.uleb128 0x18
 1424 0a58 37000000 		.4byte	0x37
 1425 0a5c 03       		.byte	0x3
ARM GAS  C:\Users\PCHAUT~1\AppData\Local\Temp\ccILrOdh.s 			page 26


 1426 0a5d 00       		.byte	0
 1427 0a5e 15       		.uleb128 0x15
 1428 0a5f 08       		.byte	0x8
 1429 0a60 13       		.byte	0x13
 1430 0a61 A3       		.byte	0xa3
 1431 0a62 7F0A0000 		.4byte	0xa7f
 1432 0a66 07       		.uleb128 0x7
 1433 0a67 74080000 		.4byte	.LASF163
 1434 0a6b 13       		.byte	0x13
 1435 0a6c A5       		.byte	0xa5
 1436 0a6d 25000000 		.4byte	0x25
 1437 0a71 00       		.byte	0
 1438 0a72 07       		.uleb128 0x7
 1439 0a73 46040000 		.4byte	.LASF164
 1440 0a77 13       		.byte	0x13
 1441 0a78 AA       		.byte	0xaa
 1442 0a79 2F0A0000 		.4byte	0xa2f
 1443 0a7d 04       		.byte	0x4
 1444 0a7e 00       		.byte	0
 1445 0a7f 03       		.uleb128 0x3
 1446 0a80 EC090000 		.4byte	.LASF165
 1447 0a84 13       		.byte	0x13
 1448 0a85 AB       		.byte	0xab
 1449 0a86 5E0A0000 		.4byte	0xa5e
 1450 0a8a 03       		.uleb128 0x3
 1451 0a8b D7090000 		.4byte	.LASF166
 1452 0a8f 13       		.byte	0x13
 1453 0a90 AF       		.byte	0xaf
 1454 0a91 F7090000 		.4byte	0x9f7
 1455 0a95 0A       		.uleb128 0xa
 1456 0a96 04       		.byte	0x4
 1457 0a97 A7080000 		.4byte	0x8a7
 1458 0a9b 03       		.uleb128 0x3
 1459 0a9c 3A0B0000 		.4byte	.LASF167
 1460 0aa0 14       		.byte	0x14
 1461 0aa1 16       		.byte	0x16
 1462 0aa2 9B000000 		.4byte	0x9b
 1463 0aa6 06       		.uleb128 0x6
 1464 0aa7 F7040000 		.4byte	.LASF168
 1465 0aab 18       		.byte	0x18
 1466 0aac 14       		.byte	0x14
 1467 0aad 2F       		.byte	0x2f
 1468 0aae F90A0000 		.4byte	0xaf9
 1469 0ab2 07       		.uleb128 0x7
 1470 0ab3 0B0A0000 		.4byte	.LASF169
 1471 0ab7 14       		.byte	0x14
 1472 0ab8 31       		.byte	0x31
 1473 0ab9 F90A0000 		.4byte	0xaf9
 1474 0abd 00       		.byte	0
 1475 0abe 14       		.uleb128 0x14
 1476 0abf 5F6B00   		.ascii	"_k\000"
 1477 0ac2 14       		.byte	0x14
 1478 0ac3 32       		.byte	0x32
 1479 0ac4 25000000 		.4byte	0x25
 1480 0ac8 04       		.byte	0x4
 1481 0ac9 07       		.uleb128 0x7
 1482 0aca 2C050000 		.4byte	.LASF170
ARM GAS  C:\Users\PCHAUT~1\AppData\Local\Temp\ccILrOdh.s 			page 27


 1483 0ace 14       		.byte	0x14
 1484 0acf 32       		.byte	0x32
 1485 0ad0 25000000 		.4byte	0x25
 1486 0ad4 08       		.byte	0x8
 1487 0ad5 07       		.uleb128 0x7
 1488 0ad6 3F070000 		.4byte	.LASF171
 1489 0ada 14       		.byte	0x14
 1490 0adb 32       		.byte	0x32
 1491 0adc 25000000 		.4byte	0x25
 1492 0ae0 0C       		.byte	0xc
 1493 0ae1 07       		.uleb128 0x7
 1494 0ae2 E0030000 		.4byte	.LASF172
 1495 0ae6 14       		.byte	0x14
 1496 0ae7 32       		.byte	0x32
 1497 0ae8 25000000 		.4byte	0x25
 1498 0aec 10       		.byte	0x10
 1499 0aed 14       		.uleb128 0x14
 1500 0aee 5F7800   		.ascii	"_x\000"
 1501 0af1 14       		.byte	0x14
 1502 0af2 33       		.byte	0x33
 1503 0af3 FF0A0000 		.4byte	0xaff
 1504 0af7 14       		.byte	0x14
 1505 0af8 00       		.byte	0
 1506 0af9 0A       		.uleb128 0xa
 1507 0afa 04       		.byte	0x4
 1508 0afb A60A0000 		.4byte	0xaa6
 1509 0aff 17       		.uleb128 0x17
 1510 0b00 9B0A0000 		.4byte	0xa9b
 1511 0b04 0F0B0000 		.4byte	0xb0f
 1512 0b08 18       		.uleb128 0x18
 1513 0b09 37000000 		.4byte	0x37
 1514 0b0d 00       		.byte	0
 1515 0b0e 00       		.byte	0
 1516 0b0f 06       		.uleb128 0x6
 1517 0b10 10010000 		.4byte	.LASF173
 1518 0b14 24       		.byte	0x24
 1519 0b15 14       		.byte	0x14
 1520 0b16 37       		.byte	0x37
 1521 0b17 880B0000 		.4byte	0xb88
 1522 0b1b 07       		.uleb128 0x7
 1523 0b1c 2C010000 		.4byte	.LASF174
 1524 0b20 14       		.byte	0x14
 1525 0b21 39       		.byte	0x39
 1526 0b22 25000000 		.4byte	0x25
 1527 0b26 00       		.byte	0
 1528 0b27 07       		.uleb128 0x7
 1529 0b28 F70B0000 		.4byte	.LASF175
 1530 0b2c 14       		.byte	0x14
 1531 0b2d 3A       		.byte	0x3a
 1532 0b2e 25000000 		.4byte	0x25
 1533 0b32 04       		.byte	0x4
 1534 0b33 07       		.uleb128 0x7
 1535 0b34 790B0000 		.4byte	.LASF176
 1536 0b38 14       		.byte	0x14
 1537 0b39 3B       		.byte	0x3b
 1538 0b3a 25000000 		.4byte	0x25
 1539 0b3e 08       		.byte	0x8
ARM GAS  C:\Users\PCHAUT~1\AppData\Local\Temp\ccILrOdh.s 			page 28


 1540 0b3f 07       		.uleb128 0x7
 1541 0b40 F3070000 		.4byte	.LASF177
 1542 0b44 14       		.byte	0x14
 1543 0b45 3C       		.byte	0x3c
 1544 0b46 25000000 		.4byte	0x25
 1545 0b4a 0C       		.byte	0xc
 1546 0b4b 07       		.uleb128 0x7
 1547 0b4c 75020000 		.4byte	.LASF178
 1548 0b50 14       		.byte	0x14
 1549 0b51 3D       		.byte	0x3d
 1550 0b52 25000000 		.4byte	0x25
 1551 0b56 10       		.byte	0x10
 1552 0b57 07       		.uleb128 0x7
 1553 0b58 AA0A0000 		.4byte	.LASF179
 1554 0b5c 14       		.byte	0x14
 1555 0b5d 3E       		.byte	0x3e
 1556 0b5e 25000000 		.4byte	0x25
 1557 0b62 14       		.byte	0x14
 1558 0b63 07       		.uleb128 0x7
 1559 0b64 7C080000 		.4byte	.LASF180
 1560 0b68 14       		.byte	0x14
 1561 0b69 3F       		.byte	0x3f
 1562 0b6a 25000000 		.4byte	0x25
 1563 0b6e 18       		.byte	0x18
 1564 0b6f 07       		.uleb128 0x7
 1565 0b70 1A030000 		.4byte	.LASF181
 1566 0b74 14       		.byte	0x14
 1567 0b75 40       		.byte	0x40
 1568 0b76 25000000 		.4byte	0x25
 1569 0b7a 1C       		.byte	0x1c
 1570 0b7b 07       		.uleb128 0x7
 1571 0b7c CF0B0000 		.4byte	.LASF182
 1572 0b80 14       		.byte	0x14
 1573 0b81 41       		.byte	0x41
 1574 0b82 25000000 		.4byte	0x25
 1575 0b86 20       		.byte	0x20
 1576 0b87 00       		.byte	0
 1577 0b88 20       		.uleb128 0x20
 1578 0b89 CD010000 		.4byte	.LASF183
 1579 0b8d 0801     		.2byte	0x108
 1580 0b8f 14       		.byte	0x14
 1581 0b90 4A       		.byte	0x4a
 1582 0b91 C80B0000 		.4byte	0xbc8
 1583 0b95 07       		.uleb128 0x7
 1584 0b96 C70B0000 		.4byte	.LASF184
 1585 0b9a 14       		.byte	0x14
 1586 0b9b 4B       		.byte	0x4b
 1587 0b9c C80B0000 		.4byte	0xbc8
 1588 0ba0 00       		.byte	0
 1589 0ba1 07       		.uleb128 0x7
 1590 0ba2 56090000 		.4byte	.LASF185
 1591 0ba6 14       		.byte	0x14
 1592 0ba7 4C       		.byte	0x4c
 1593 0ba8 C80B0000 		.4byte	0xbc8
 1594 0bac 80       		.byte	0x80
 1595 0bad 21       		.uleb128 0x21
 1596 0bae 8A0A0000 		.4byte	.LASF186
ARM GAS  C:\Users\PCHAUT~1\AppData\Local\Temp\ccILrOdh.s 			page 29


 1597 0bb2 14       		.byte	0x14
 1598 0bb3 4E       		.byte	0x4e
 1599 0bb4 9B0A0000 		.4byte	0xa9b
 1600 0bb8 0001     		.2byte	0x100
 1601 0bba 21       		.uleb128 0x21
 1602 0bbb E20A0000 		.4byte	.LASF187
 1603 0bbf 14       		.byte	0x14
 1604 0bc0 51       		.byte	0x51
 1605 0bc1 9B0A0000 		.4byte	0xa9b
 1606 0bc5 0401     		.2byte	0x104
 1607 0bc7 00       		.byte	0
 1608 0bc8 17       		.uleb128 0x17
 1609 0bc9 8A030000 		.4byte	0x38a
 1610 0bcd D80B0000 		.4byte	0xbd8
 1611 0bd1 18       		.uleb128 0x18
 1612 0bd2 37000000 		.4byte	0x37
 1613 0bd6 1F       		.byte	0x1f
 1614 0bd7 00       		.byte	0
 1615 0bd8 20       		.uleb128 0x20
 1616 0bd9 59080000 		.4byte	.LASF188
 1617 0bdd 9001     		.2byte	0x190
 1618 0bdf 14       		.byte	0x14
 1619 0be0 5D       		.byte	0x5d
 1620 0be1 160C0000 		.4byte	0xc16
 1621 0be5 07       		.uleb128 0x7
 1622 0be6 0B0A0000 		.4byte	.LASF169
 1623 0bea 14       		.byte	0x14
 1624 0beb 5E       		.byte	0x5e
 1625 0bec 160C0000 		.4byte	0xc16
 1626 0bf0 00       		.byte	0
 1627 0bf1 07       		.uleb128 0x7
 1628 0bf2 D60A0000 		.4byte	.LASF189
 1629 0bf6 14       		.byte	0x14
 1630 0bf7 5F       		.byte	0x5f
 1631 0bf8 25000000 		.4byte	0x25
 1632 0bfc 04       		.byte	0x4
 1633 0bfd 07       		.uleb128 0x7
 1634 0bfe 3F010000 		.4byte	.LASF190
 1635 0c02 14       		.byte	0x14
 1636 0c03 61       		.byte	0x61
 1637 0c04 1C0C0000 		.4byte	0xc1c
 1638 0c08 08       		.byte	0x8
 1639 0c09 07       		.uleb128 0x7
 1640 0c0a CD010000 		.4byte	.LASF183
 1641 0c0e 14       		.byte	0x14
 1642 0c0f 62       		.byte	0x62
 1643 0c10 880B0000 		.4byte	0xb88
 1644 0c14 88       		.byte	0x88
 1645 0c15 00       		.byte	0
 1646 0c16 0A       		.uleb128 0xa
 1647 0c17 04       		.byte	0x4
 1648 0c18 D80B0000 		.4byte	0xbd8
 1649 0c1c 17       		.uleb128 0x17
 1650 0c1d 2C0C0000 		.4byte	0xc2c
 1651 0c21 2C0C0000 		.4byte	0xc2c
 1652 0c25 18       		.uleb128 0x18
 1653 0c26 37000000 		.4byte	0x37
ARM GAS  C:\Users\PCHAUT~1\AppData\Local\Temp\ccILrOdh.s 			page 30


 1654 0c2a 1F       		.byte	0x1f
 1655 0c2b 00       		.byte	0
 1656 0c2c 0A       		.uleb128 0xa
 1657 0c2d 04       		.byte	0x4
 1658 0c2e 320C0000 		.4byte	0xc32
 1659 0c32 22       		.uleb128 0x22
 1660 0c33 06       		.uleb128 0x6
 1661 0c34 DB0A0000 		.4byte	.LASF191
 1662 0c38 08       		.byte	0x8
 1663 0c39 14       		.byte	0x14
 1664 0c3a 75       		.byte	0x75
 1665 0c3b 580C0000 		.4byte	0xc58
 1666 0c3f 07       		.uleb128 0x7
 1667 0c40 AA090000 		.4byte	.LASF192
 1668 0c44 14       		.byte	0x14
 1669 0c45 76       		.byte	0x76
 1670 0c46 580C0000 		.4byte	0xc58
 1671 0c4a 00       		.byte	0
 1672 0c4b 07       		.uleb128 0x7
 1673 0c4c 24020000 		.4byte	.LASF193
 1674 0c50 14       		.byte	0x14
 1675 0c51 77       		.byte	0x77
 1676 0c52 25000000 		.4byte	0x25
 1677 0c56 04       		.byte	0x4
 1678 0c57 00       		.byte	0
 1679 0c58 0A       		.uleb128 0xa
 1680 0c59 04       		.byte	0x4
 1681 0c5a 5E000000 		.4byte	0x5e
 1682 0c5e 06       		.uleb128 0x6
 1683 0c5f 68040000 		.4byte	.LASF194
 1684 0c63 68       		.byte	0x68
 1685 0c64 14       		.byte	0x14
 1686 0c65 B5       		.byte	0xb5
 1687 0c66 880D0000 		.4byte	0xd88
 1688 0c6a 14       		.uleb128 0x14
 1689 0c6b 5F7000   		.ascii	"_p\000"
 1690 0c6e 14       		.byte	0x14
 1691 0c6f B6       		.byte	0xb6
 1692 0c70 580C0000 		.4byte	0xc58
 1693 0c74 00       		.byte	0
 1694 0c75 14       		.uleb128 0x14
 1695 0c76 5F7200   		.ascii	"_r\000"
 1696 0c79 14       		.byte	0x14
 1697 0c7a B7       		.byte	0xb7
 1698 0c7b 25000000 		.4byte	0x25
 1699 0c7f 04       		.byte	0x4
 1700 0c80 14       		.uleb128 0x14
 1701 0c81 5F7700   		.ascii	"_w\000"
 1702 0c84 14       		.byte	0x14
 1703 0c85 B8       		.byte	0xb8
 1704 0c86 25000000 		.4byte	0x25
 1705 0c8a 08       		.byte	0x8
 1706 0c8b 07       		.uleb128 0x7
 1707 0c8c 41080000 		.4byte	.LASF195
 1708 0c90 14       		.byte	0x14
 1709 0c91 B9       		.byte	0xb9
 1710 0c92 65000000 		.4byte	0x65
ARM GAS  C:\Users\PCHAUT~1\AppData\Local\Temp\ccILrOdh.s 			page 31


 1711 0c96 0C       		.byte	0xc
 1712 0c97 07       		.uleb128 0x7
 1713 0c98 B9010000 		.4byte	.LASF196
 1714 0c9c 14       		.byte	0x14
 1715 0c9d BA       		.byte	0xba
 1716 0c9e 65000000 		.4byte	0x65
 1717 0ca2 0E       		.byte	0xe
 1718 0ca3 14       		.uleb128 0x14
 1719 0ca4 5F626600 		.ascii	"_bf\000"
 1720 0ca8 14       		.byte	0x14
 1721 0ca9 BB       		.byte	0xbb
 1722 0caa 330C0000 		.4byte	0xc33
 1723 0cae 10       		.byte	0x10
 1724 0caf 07       		.uleb128 0x7
 1725 0cb0 C10A0000 		.4byte	.LASF197
 1726 0cb4 14       		.byte	0x14
 1727 0cb5 BC       		.byte	0xbc
 1728 0cb6 25000000 		.4byte	0x25
 1729 0cba 18       		.byte	0x18
 1730 0cbb 07       		.uleb128 0x7
 1731 0cbc AF030000 		.4byte	.LASF198
 1732 0cc0 14       		.byte	0x14
 1733 0cc1 C3       		.byte	0xc3
 1734 0cc2 8A030000 		.4byte	0x38a
 1735 0cc6 1C       		.byte	0x1c
 1736 0cc7 07       		.uleb128 0x7
 1737 0cc8 91000000 		.4byte	.LASF199
 1738 0ccc 14       		.byte	0x14
 1739 0ccd C5       		.byte	0xc5
 1740 0cce E30E0000 		.4byte	0xee3
 1741 0cd2 20       		.byte	0x20
 1742 0cd3 07       		.uleb128 0x7
 1743 0cd4 B3000000 		.4byte	.LASF200
 1744 0cd8 14       		.byte	0x14
 1745 0cd9 C7       		.byte	0xc7
 1746 0cda 070F0000 		.4byte	0xf07
 1747 0cde 24       		.byte	0x24
 1748 0cdf 07       		.uleb128 0x7
 1749 0ce0 D1080000 		.4byte	.LASF201
 1750 0ce4 14       		.byte	0x14
 1751 0ce5 CA       		.byte	0xca
 1752 0ce6 2B0F0000 		.4byte	0xf2b
 1753 0cea 28       		.byte	0x28
 1754 0ceb 07       		.uleb128 0x7
 1755 0cec 3E030000 		.4byte	.LASF202
 1756 0cf0 14       		.byte	0x14
 1757 0cf1 CB       		.byte	0xcb
 1758 0cf2 450F0000 		.4byte	0xf45
 1759 0cf6 2C       		.byte	0x2c
 1760 0cf7 14       		.uleb128 0x14
 1761 0cf8 5F756200 		.ascii	"_ub\000"
 1762 0cfc 14       		.byte	0x14
 1763 0cfd CE       		.byte	0xce
 1764 0cfe 330C0000 		.4byte	0xc33
 1765 0d02 30       		.byte	0x30
 1766 0d03 14       		.uleb128 0x14
 1767 0d04 5F757000 		.ascii	"_up\000"
ARM GAS  C:\Users\PCHAUT~1\AppData\Local\Temp\ccILrOdh.s 			page 32


 1768 0d08 14       		.byte	0x14
 1769 0d09 CF       		.byte	0xcf
 1770 0d0a 580C0000 		.4byte	0xc58
 1771 0d0e 38       		.byte	0x38
 1772 0d0f 14       		.uleb128 0x14
 1773 0d10 5F757200 		.ascii	"_ur\000"
 1774 0d14 14       		.byte	0x14
 1775 0d15 D0       		.byte	0xd0
 1776 0d16 25000000 		.4byte	0x25
 1777 0d1a 3C       		.byte	0x3c
 1778 0d1b 07       		.uleb128 0x7
 1779 0d1c 11080000 		.4byte	.LASF203
 1780 0d20 14       		.byte	0x14
 1781 0d21 D3       		.byte	0xd3
 1782 0d22 4B0F0000 		.4byte	0xf4b
 1783 0d26 40       		.byte	0x40
 1784 0d27 07       		.uleb128 0x7
 1785 0d28 26010000 		.4byte	.LASF204
 1786 0d2c 14       		.byte	0x14
 1787 0d2d D4       		.byte	0xd4
 1788 0d2e 5B0F0000 		.4byte	0xf5b
 1789 0d32 43       		.byte	0x43
 1790 0d33 14       		.uleb128 0x14
 1791 0d34 5F6C6200 		.ascii	"_lb\000"
 1792 0d38 14       		.byte	0x14
 1793 0d39 D7       		.byte	0xd7
 1794 0d3a 330C0000 		.4byte	0xc33
 1795 0d3e 44       		.byte	0x44
 1796 0d3f 07       		.uleb128 0x7
 1797 0d40 45070000 		.4byte	.LASF205
 1798 0d44 14       		.byte	0x14
 1799 0d45 DA       		.byte	0xda
 1800 0d46 25000000 		.4byte	0x25
 1801 0d4a 4C       		.byte	0x4c
 1802 0d4b 07       		.uleb128 0x7
 1803 0d4c 04040000 		.4byte	.LASF206
 1804 0d50 14       		.byte	0x14
 1805 0d51 DB       		.byte	0xdb
 1806 0d52 0D0A0000 		.4byte	0xa0d
 1807 0d56 50       		.byte	0x50
 1808 0d57 07       		.uleb128 0x7
 1809 0d58 110A0000 		.4byte	.LASF207
 1810 0d5c 14       		.byte	0x14
 1811 0d5d DE       		.byte	0xde
 1812 0d5e A60D0000 		.4byte	0xda6
 1813 0d62 54       		.byte	0x54
 1814 0d63 07       		.uleb128 0x7
 1815 0d64 4A010000 		.4byte	.LASF208
 1816 0d68 14       		.byte	0x14
 1817 0d69 E2       		.byte	0xe2
 1818 0d6a 8A0A0000 		.4byte	0xa8a
 1819 0d6e 58       		.byte	0x58
 1820 0d6f 07       		.uleb128 0x7
 1821 0d70 2D080000 		.4byte	.LASF209
 1822 0d74 14       		.byte	0x14
 1823 0d75 E4       		.byte	0xe4
 1824 0d76 7F0A0000 		.4byte	0xa7f
ARM GAS  C:\Users\PCHAUT~1\AppData\Local\Temp\ccILrOdh.s 			page 33


 1825 0d7a 5C       		.byte	0x5c
 1826 0d7b 07       		.uleb128 0x7
 1827 0d7c 7B040000 		.4byte	.LASF210
 1828 0d80 14       		.byte	0x14
 1829 0d81 E5       		.byte	0xe5
 1830 0d82 25000000 		.4byte	0x25
 1831 0d86 64       		.byte	0x64
 1832 0d87 00       		.byte	0
 1833 0d88 23       		.uleb128 0x23
 1834 0d89 25000000 		.4byte	0x25
 1835 0d8d A60D0000 		.4byte	0xda6
 1836 0d91 0D       		.uleb128 0xd
 1837 0d92 A60D0000 		.4byte	0xda6
 1838 0d96 0D       		.uleb128 0xd
 1839 0d97 8A030000 		.4byte	0x38a
 1840 0d9b 0D       		.uleb128 0xd
 1841 0d9c 950A0000 		.4byte	0xa95
 1842 0da0 0D       		.uleb128 0xd
 1843 0da1 25000000 		.4byte	0x25
 1844 0da5 00       		.byte	0
 1845 0da6 0A       		.uleb128 0xa
 1846 0da7 04       		.byte	0x4
 1847 0da8 B10D0000 		.4byte	0xdb1
 1848 0dac 1B       		.uleb128 0x1b
 1849 0dad A60D0000 		.4byte	0xda6
 1850 0db1 0F       		.uleb128 0xf
 1851 0db2 6A010000 		.4byte	.LASF211
 1852 0db6 2804     		.2byte	0x428
 1853 0db8 14       		.byte	0x14
 1854 0db9 3902     		.2byte	0x239
 1855 0dbb E30E0000 		.4byte	0xee3
 1856 0dbf 09       		.uleb128 0x9
 1857 0dc0 C0040000 		.4byte	.LASF212
 1858 0dc4 14       		.byte	0x14
 1859 0dc5 3B02     		.2byte	0x23b
 1860 0dc7 25000000 		.4byte	0x25
 1861 0dcb 00       		.byte	0
 1862 0dcc 09       		.uleb128 0x9
 1863 0dcd 70030000 		.4byte	.LASF213
 1864 0dd1 14       		.byte	0x14
 1865 0dd2 4002     		.2byte	0x240
 1866 0dd4 B20F0000 		.4byte	0xfb2
 1867 0dd8 04       		.byte	0x4
 1868 0dd9 09       		.uleb128 0x9
 1869 0dda 8E090000 		.4byte	.LASF214
 1870 0dde 14       		.byte	0x14
 1871 0ddf 4002     		.2byte	0x240
 1872 0de1 B20F0000 		.4byte	0xfb2
 1873 0de5 08       		.byte	0x8
 1874 0de6 09       		.uleb128 0x9
 1875 0de7 17080000 		.4byte	.LASF215
 1876 0deb 14       		.byte	0x14
 1877 0dec 4002     		.2byte	0x240
 1878 0dee B20F0000 		.4byte	0xfb2
 1879 0df2 0C       		.byte	0xc
 1880 0df3 09       		.uleb128 0x9
 1881 0df4 D10A0000 		.4byte	.LASF216
ARM GAS  C:\Users\PCHAUT~1\AppData\Local\Temp\ccILrOdh.s 			page 34


 1882 0df8 14       		.byte	0x14
 1883 0df9 4202     		.2byte	0x242
 1884 0dfb 25000000 		.4byte	0x25
 1885 0dff 10       		.byte	0x10
 1886 0e00 09       		.uleb128 0x9
 1887 0e01 6D050000 		.4byte	.LASF217
 1888 0e05 14       		.byte	0x14
 1889 0e06 4302     		.2byte	0x243
 1890 0e08 94110000 		.4byte	0x1194
 1891 0e0c 14       		.byte	0x14
 1892 0e0d 09       		.uleb128 0x9
 1893 0e0e D9020000 		.4byte	.LASF218
 1894 0e12 14       		.byte	0x14
 1895 0e13 4602     		.2byte	0x246
 1896 0e15 25000000 		.4byte	0x25
 1897 0e19 30       		.byte	0x30
 1898 0e1a 09       		.uleb128 0x9
 1899 0e1b 320B0000 		.4byte	.LASF219
 1900 0e1f 14       		.byte	0x14
 1901 0e20 4702     		.2byte	0x247
 1902 0e22 A9110000 		.4byte	0x11a9
 1903 0e26 34       		.byte	0x34
 1904 0e27 09       		.uleb128 0x9
 1905 0e28 70040000 		.4byte	.LASF220
 1906 0e2c 14       		.byte	0x14
 1907 0e2d 4902     		.2byte	0x249
 1908 0e2f 25000000 		.4byte	0x25
 1909 0e33 38       		.byte	0x38
 1910 0e34 09       		.uleb128 0x9
 1911 0e35 40050000 		.4byte	.LASF221
 1912 0e39 14       		.byte	0x14
 1913 0e3a 4B02     		.2byte	0x24b
 1914 0e3c BA110000 		.4byte	0x11ba
 1915 0e40 3C       		.byte	0x3c
 1916 0e41 09       		.uleb128 0x9
 1917 0e42 4B0B0000 		.4byte	.LASF222
 1918 0e46 14       		.byte	0x14
 1919 0e47 4E02     		.2byte	0x24e
 1920 0e49 F90A0000 		.4byte	0xaf9
 1921 0e4d 40       		.byte	0x40
 1922 0e4e 09       		.uleb128 0x9
 1923 0e4f 0D020000 		.4byte	.LASF223
 1924 0e53 14       		.byte	0x14
 1925 0e54 4F02     		.2byte	0x24f
 1926 0e56 25000000 		.4byte	0x25
 1927 0e5a 44       		.byte	0x44
 1928 0e5b 09       		.uleb128 0x9
 1929 0e5c B7030000 		.4byte	.LASF224
 1930 0e60 14       		.byte	0x14
 1931 0e61 5002     		.2byte	0x250
 1932 0e63 F90A0000 		.4byte	0xaf9
 1933 0e67 48       		.byte	0x48
 1934 0e68 09       		.uleb128 0x9
 1935 0e69 1C070000 		.4byte	.LASF225
 1936 0e6d 14       		.byte	0x14
 1937 0e6e 5102     		.2byte	0x251
 1938 0e70 C0110000 		.4byte	0x11c0
ARM GAS  C:\Users\PCHAUT~1\AppData\Local\Temp\ccILrOdh.s 			page 35


 1939 0e74 4C       		.byte	0x4c
 1940 0e75 09       		.uleb128 0x9
 1941 0e76 D5000000 		.4byte	.LASF226
 1942 0e7a 14       		.byte	0x14
 1943 0e7b 5402     		.2byte	0x254
 1944 0e7d 25000000 		.4byte	0x25
 1945 0e81 50       		.byte	0x50
 1946 0e82 09       		.uleb128 0x9
 1947 0e83 0C040000 		.4byte	.LASF227
 1948 0e87 14       		.byte	0x14
 1949 0e88 5502     		.2byte	0x255
 1950 0e8a 950A0000 		.4byte	0xa95
 1951 0e8e 54       		.byte	0x54
 1952 0e8f 09       		.uleb128 0x9
 1953 0e90 0C080000 		.4byte	.LASF228
 1954 0e94 14       		.byte	0x14
 1955 0e95 7802     		.2byte	0x278
 1956 0e97 72110000 		.4byte	0x1172
 1957 0e9b 58       		.byte	0x58
 1958 0e9c 10       		.uleb128 0x10
 1959 0e9d 59080000 		.4byte	.LASF188
 1960 0ea1 14       		.byte	0x14
 1961 0ea2 7C02     		.2byte	0x27c
 1962 0ea4 160C0000 		.4byte	0xc16
 1963 0ea8 4801     		.2byte	0x148
 1964 0eaa 10       		.uleb128 0x10
 1965 0eab 4A050000 		.4byte	.LASF229
 1966 0eaf 14       		.byte	0x14
 1967 0eb0 7D02     		.2byte	0x27d
 1968 0eb2 D80B0000 		.4byte	0xbd8
 1969 0eb6 4C01     		.2byte	0x14c
 1970 0eb8 10       		.uleb128 0x10
 1971 0eb9 FA030000 		.4byte	.LASF230
 1972 0ebd 14       		.byte	0x14
 1973 0ebe 8102     		.2byte	0x281
 1974 0ec0 D1110000 		.4byte	0x11d1
 1975 0ec4 DC02     		.2byte	0x2dc
 1976 0ec6 10       		.uleb128 0x10
 1977 0ec7 A8050000 		.4byte	.LASF231
 1978 0ecb 14       		.byte	0x14
 1979 0ecc 8602     		.2byte	0x286
 1980 0ece 770F0000 		.4byte	0xf77
 1981 0ed2 E002     		.2byte	0x2e0
 1982 0ed4 10       		.uleb128 0x10
 1983 0ed5 78000000 		.4byte	.LASF232
 1984 0ed9 14       		.byte	0x14
 1985 0eda 8802     		.2byte	0x288
 1986 0edc DD110000 		.4byte	0x11dd
 1987 0ee0 EC02     		.2byte	0x2ec
 1988 0ee2 00       		.byte	0
 1989 0ee3 0A       		.uleb128 0xa
 1990 0ee4 04       		.byte	0x4
 1991 0ee5 880D0000 		.4byte	0xd88
 1992 0ee9 23       		.uleb128 0x23
 1993 0eea 25000000 		.4byte	0x25
 1994 0eee 070F0000 		.4byte	0xf07
 1995 0ef2 0D       		.uleb128 0xd
ARM GAS  C:\Users\PCHAUT~1\AppData\Local\Temp\ccILrOdh.s 			page 36


 1996 0ef3 A60D0000 		.4byte	0xda6
 1997 0ef7 0D       		.uleb128 0xd
 1998 0ef8 8A030000 		.4byte	0x38a
 1999 0efc 0D       		.uleb128 0xd
 2000 0efd 9C080000 		.4byte	0x89c
 2001 0f01 0D       		.uleb128 0xd
 2002 0f02 25000000 		.4byte	0x25
 2003 0f06 00       		.byte	0
 2004 0f07 0A       		.uleb128 0xa
 2005 0f08 04       		.byte	0x4
 2006 0f09 E90E0000 		.4byte	0xee9
 2007 0f0d 23       		.uleb128 0x23
 2008 0f0e 180A0000 		.4byte	0xa18
 2009 0f12 2B0F0000 		.4byte	0xf2b
 2010 0f16 0D       		.uleb128 0xd
 2011 0f17 A60D0000 		.4byte	0xda6
 2012 0f1b 0D       		.uleb128 0xd
 2013 0f1c 8A030000 		.4byte	0x38a
 2014 0f20 0D       		.uleb128 0xd
 2015 0f21 180A0000 		.4byte	0xa18
 2016 0f25 0D       		.uleb128 0xd
 2017 0f26 25000000 		.4byte	0x25
 2018 0f2a 00       		.byte	0
 2019 0f2b 0A       		.uleb128 0xa
 2020 0f2c 04       		.byte	0x4
 2021 0f2d 0D0F0000 		.4byte	0xf0d
 2022 0f31 23       		.uleb128 0x23
 2023 0f32 25000000 		.4byte	0x25
 2024 0f36 450F0000 		.4byte	0xf45
 2025 0f3a 0D       		.uleb128 0xd
 2026 0f3b A60D0000 		.4byte	0xda6
 2027 0f3f 0D       		.uleb128 0xd
 2028 0f40 8A030000 		.4byte	0x38a
 2029 0f44 00       		.byte	0
 2030 0f45 0A       		.uleb128 0xa
 2031 0f46 04       		.byte	0x4
 2032 0f47 310F0000 		.4byte	0xf31
 2033 0f4b 17       		.uleb128 0x17
 2034 0f4c 5E000000 		.4byte	0x5e
 2035 0f50 5B0F0000 		.4byte	0xf5b
 2036 0f54 18       		.uleb128 0x18
 2037 0f55 37000000 		.4byte	0x37
 2038 0f59 02       		.byte	0x2
 2039 0f5a 00       		.byte	0
 2040 0f5b 17       		.uleb128 0x17
 2041 0f5c 5E000000 		.4byte	0x5e
 2042 0f60 6B0F0000 		.4byte	0xf6b
 2043 0f64 18       		.uleb128 0x18
 2044 0f65 37000000 		.4byte	0x37
 2045 0f69 00       		.byte	0
 2046 0f6a 00       		.byte	0
 2047 0f6b 1E       		.uleb128 0x1e
 2048 0f6c E0090000 		.4byte	.LASF233
 2049 0f70 14       		.byte	0x14
 2050 0f71 1F01     		.2byte	0x11f
 2051 0f73 5E0C0000 		.4byte	0xc5e
 2052 0f77 0B       		.uleb128 0xb
ARM GAS  C:\Users\PCHAUT~1\AppData\Local\Temp\ccILrOdh.s 			page 37


 2053 0f78 2C070000 		.4byte	.LASF234
 2054 0f7c 0C       		.byte	0xc
 2055 0f7d 14       		.byte	0x14
 2056 0f7e 2301     		.2byte	0x123
 2057 0f80 AC0F0000 		.4byte	0xfac
 2058 0f84 09       		.uleb128 0x9
 2059 0f85 0B0A0000 		.4byte	.LASF169
 2060 0f89 14       		.byte	0x14
 2061 0f8a 2501     		.2byte	0x125
 2062 0f8c AC0F0000 		.4byte	0xfac
 2063 0f90 00       		.byte	0
 2064 0f91 09       		.uleb128 0x9
 2065 0f92 99050000 		.4byte	.LASF235
 2066 0f96 14       		.byte	0x14
 2067 0f97 2601     		.2byte	0x126
 2068 0f99 25000000 		.4byte	0x25
 2069 0f9d 04       		.byte	0x4
 2070 0f9e 09       		.uleb128 0x9
 2071 0f9f 26070000 		.4byte	.LASF236
 2072 0fa3 14       		.byte	0x14
 2073 0fa4 2701     		.2byte	0x127
 2074 0fa6 B20F0000 		.4byte	0xfb2
 2075 0faa 08       		.byte	0x8
 2076 0fab 00       		.byte	0
 2077 0fac 0A       		.uleb128 0xa
 2078 0fad 04       		.byte	0x4
 2079 0fae 770F0000 		.4byte	0xf77
 2080 0fb2 0A       		.uleb128 0xa
 2081 0fb3 04       		.byte	0x4
 2082 0fb4 6B0F0000 		.4byte	0xf6b
 2083 0fb8 0B       		.uleb128 0xb
 2084 0fb9 79090000 		.4byte	.LASF237
 2085 0fbd 0E       		.byte	0xe
 2086 0fbe 14       		.byte	0x14
 2087 0fbf 3F01     		.2byte	0x13f
 2088 0fc1 ED0F0000 		.4byte	0xfed
 2089 0fc5 09       		.uleb128 0x9
 2090 0fc6 44010000 		.4byte	.LASF238
 2091 0fca 14       		.byte	0x14
 2092 0fcb 4001     		.2byte	0x140
 2093 0fcd ED0F0000 		.4byte	0xfed
 2094 0fd1 00       		.byte	0
 2095 0fd2 09       		.uleb128 0x9
 2096 0fd3 64010000 		.4byte	.LASF239
 2097 0fd7 14       		.byte	0x14
 2098 0fd8 4101     		.2byte	0x141
 2099 0fda ED0F0000 		.4byte	0xfed
 2100 0fde 06       		.byte	0x6
 2101 0fdf 09       		.uleb128 0x9
 2102 0fe0 610B0000 		.4byte	.LASF240
 2103 0fe4 14       		.byte	0x14
 2104 0fe5 4201     		.2byte	0x142
 2105 0fe7 77000000 		.4byte	0x77
 2106 0feb 0C       		.byte	0xc
 2107 0fec 00       		.byte	0
 2108 0fed 17       		.uleb128 0x17
 2109 0fee 77000000 		.4byte	0x77
ARM GAS  C:\Users\PCHAUT~1\AppData\Local\Temp\ccILrOdh.s 			page 38


 2110 0ff2 FD0F0000 		.4byte	0xffd
 2111 0ff6 18       		.uleb128 0x18
 2112 0ff7 37000000 		.4byte	0x37
 2113 0ffb 02       		.byte	0x2
 2114 0ffc 00       		.byte	0
 2115 0ffd 24       		.uleb128 0x24
 2116 0ffe D0       		.byte	0xd0
 2117 0fff 14       		.byte	0x14
 2118 1000 5902     		.2byte	0x259
 2119 1002 FE100000 		.4byte	0x10fe
 2120 1006 09       		.uleb128 0x9
 2121 1007 21090000 		.4byte	.LASF241
 2122 100b 14       		.byte	0x14
 2123 100c 5B02     		.2byte	0x25b
 2124 100e 37000000 		.4byte	0x37
 2125 1012 00       		.byte	0
 2126 1013 09       		.uleb128 0x9
 2127 1014 B0090000 		.4byte	.LASF242
 2128 1018 14       		.byte	0x14
 2129 1019 5C02     		.2byte	0x25c
 2130 101b 950A0000 		.4byte	0xa95
 2131 101f 04       		.byte	0x4
 2132 1020 09       		.uleb128 0x9
 2133 1021 C8000000 		.4byte	.LASF243
 2134 1025 14       		.byte	0x14
 2135 1026 5D02     		.2byte	0x25d
 2136 1028 FE100000 		.4byte	0x10fe
 2137 102c 08       		.byte	0x8
 2138 102d 09       		.uleb128 0x9
 2139 102e 31020000 		.4byte	.LASF244
 2140 1032 14       		.byte	0x14
 2141 1033 5E02     		.2byte	0x25e
 2142 1035 0F0B0000 		.4byte	0xb0f
 2143 1039 24       		.byte	0x24
 2144 103a 09       		.uleb128 0x9
 2145 103b C1050000 		.4byte	.LASF245
 2146 103f 14       		.byte	0x14
 2147 1040 5F02     		.2byte	0x25f
 2148 1042 25000000 		.4byte	0x25
 2149 1046 48       		.byte	0x48
 2150 1047 09       		.uleb128 0x9
 2151 1048 36080000 		.4byte	.LASF246
 2152 104c 14       		.byte	0x14
 2153 104d 6002     		.2byte	0x260
 2154 104f AD000000 		.4byte	0xad
 2155 1053 50       		.byte	0x50
 2156 1054 09       		.uleb128 0x9
 2157 1055 FF090000 		.4byte	.LASF247
 2158 1059 14       		.byte	0x14
 2159 105a 6102     		.2byte	0x261
 2160 105c B80F0000 		.4byte	0xfb8
 2161 1060 58       		.byte	0x58
 2162 1061 09       		.uleb128 0x9
 2163 1062 610A0000 		.4byte	.LASF248
 2164 1066 14       		.byte	0x14
 2165 1067 6202     		.2byte	0x262
 2166 1069 7F0A0000 		.4byte	0xa7f
ARM GAS  C:\Users\PCHAUT~1\AppData\Local\Temp\ccILrOdh.s 			page 39


 2167 106d 68       		.byte	0x68
 2168 106e 09       		.uleb128 0x9
 2169 106f 06090000 		.4byte	.LASF249
 2170 1073 14       		.byte	0x14
 2171 1074 6302     		.2byte	0x263
 2172 1076 7F0A0000 		.4byte	0xa7f
 2173 107a 70       		.byte	0x70
 2174 107b 09       		.uleb128 0x9
 2175 107c 1F080000 		.4byte	.LASF250
 2176 1080 14       		.byte	0x14
 2177 1081 6402     		.2byte	0x264
 2178 1083 7F0A0000 		.4byte	0xa7f
 2179 1087 78       		.byte	0x78
 2180 1088 09       		.uleb128 0x9
 2181 1089 35010000 		.4byte	.LASF251
 2182 108d 14       		.byte	0x14
 2183 108e 6502     		.2byte	0x265
 2184 1090 0E110000 		.4byte	0x110e
 2185 1094 80       		.byte	0x80
 2186 1095 09       		.uleb128 0x9
 2187 1096 E4040000 		.4byte	.LASF252
 2188 109a 14       		.byte	0x14
 2189 109b 6602     		.2byte	0x266
 2190 109d 1E110000 		.4byte	0x111e
 2191 10a1 88       		.byte	0x88
 2192 10a2 09       		.uleb128 0x9
 2193 10a3 000C0000 		.4byte	.LASF253
 2194 10a7 14       		.byte	0x14
 2195 10a8 6702     		.2byte	0x267
 2196 10aa 25000000 		.4byte	0x25
 2197 10ae A0       		.byte	0xa0
 2198 10af 09       		.uleb128 0x9
 2199 10b0 E3010000 		.4byte	.LASF254
 2200 10b4 14       		.byte	0x14
 2201 10b5 6802     		.2byte	0x268
 2202 10b7 7F0A0000 		.4byte	0xa7f
 2203 10bb A4       		.byte	0xa4
 2204 10bc 09       		.uleb128 0x9
 2205 10bd BD090000 		.4byte	.LASF255
 2206 10c1 14       		.byte	0x14
 2207 10c2 6902     		.2byte	0x269
 2208 10c4 7F0A0000 		.4byte	0xa7f
 2209 10c8 AC       		.byte	0xac
 2210 10c9 09       		.uleb128 0x9
 2211 10ca A10B0000 		.4byte	.LASF256
 2212 10ce 14       		.byte	0x14
 2213 10cf 6A02     		.2byte	0x26a
 2214 10d1 7F0A0000 		.4byte	0xa7f
 2215 10d5 B4       		.byte	0xb4
 2216 10d6 09       		.uleb128 0x9
 2217 10d7 E4070000 		.4byte	.LASF257
 2218 10db 14       		.byte	0x14
 2219 10dc 6B02     		.2byte	0x26b
 2220 10de 7F0A0000 		.4byte	0xa7f
 2221 10e2 BC       		.byte	0xbc
 2222 10e3 09       		.uleb128 0x9
 2223 10e4 15010000 		.4byte	.LASF258
ARM GAS  C:\Users\PCHAUT~1\AppData\Local\Temp\ccILrOdh.s 			page 40


 2224 10e8 14       		.byte	0x14
 2225 10e9 6C02     		.2byte	0x26c
 2226 10eb 7F0A0000 		.4byte	0xa7f
 2227 10ef C4       		.byte	0xc4
 2228 10f0 09       		.uleb128 0x9
 2229 10f1 45030000 		.4byte	.LASF259
 2230 10f5 14       		.byte	0x14
 2231 10f6 6D02     		.2byte	0x26d
 2232 10f8 25000000 		.4byte	0x25
 2233 10fc CC       		.byte	0xcc
 2234 10fd 00       		.byte	0
 2235 10fe 17       		.uleb128 0x17
 2236 10ff A7080000 		.4byte	0x8a7
 2237 1103 0E110000 		.4byte	0x110e
 2238 1107 18       		.uleb128 0x18
 2239 1108 37000000 		.4byte	0x37
 2240 110c 19       		.byte	0x19
 2241 110d 00       		.byte	0
 2242 110e 17       		.uleb128 0x17
 2243 110f A7080000 		.4byte	0x8a7
 2244 1113 1E110000 		.4byte	0x111e
 2245 1117 18       		.uleb128 0x18
 2246 1118 37000000 		.4byte	0x37
 2247 111c 07       		.byte	0x7
 2248 111d 00       		.byte	0
 2249 111e 17       		.uleb128 0x17
 2250 111f A7080000 		.4byte	0x8a7
 2251 1123 2E110000 		.4byte	0x112e
 2252 1127 18       		.uleb128 0x18
 2253 1128 37000000 		.4byte	0x37
 2254 112c 17       		.byte	0x17
 2255 112d 00       		.byte	0
 2256 112e 24       		.uleb128 0x24
 2257 112f F0       		.byte	0xf0
 2258 1130 14       		.byte	0x14
 2259 1131 7202     		.2byte	0x272
 2260 1133 52110000 		.4byte	0x1152
 2261 1137 09       		.uleb128 0x9
 2262 1138 020B0000 		.4byte	.LASF260
 2263 113c 14       		.byte	0x14
 2264 113d 7502     		.2byte	0x275
 2265 113f 52110000 		.4byte	0x1152
 2266 1143 00       		.byte	0
 2267 1144 09       		.uleb128 0x9
 2268 1145 B0050000 		.4byte	.LASF261
 2269 1149 14       		.byte	0x14
 2270 114a 7602     		.2byte	0x276
 2271 114c 62110000 		.4byte	0x1162
 2272 1150 78       		.byte	0x78
 2273 1151 00       		.byte	0
 2274 1152 17       		.uleb128 0x17
 2275 1153 580C0000 		.4byte	0xc58
 2276 1157 62110000 		.4byte	0x1162
 2277 115b 18       		.uleb128 0x18
 2278 115c 37000000 		.4byte	0x37
 2279 1160 1D       		.byte	0x1d
 2280 1161 00       		.byte	0
ARM GAS  C:\Users\PCHAUT~1\AppData\Local\Temp\ccILrOdh.s 			page 41


 2281 1162 17       		.uleb128 0x17
 2282 1163 37000000 		.4byte	0x37
 2283 1167 72110000 		.4byte	0x1172
 2284 116b 18       		.uleb128 0x18
 2285 116c 37000000 		.4byte	0x37
 2286 1170 1D       		.byte	0x1d
 2287 1171 00       		.byte	0
 2288 1172 25       		.uleb128 0x25
 2289 1173 F0       		.byte	0xf0
 2290 1174 14       		.byte	0x14
 2291 1175 5702     		.2byte	0x257
 2292 1177 94110000 		.4byte	0x1194
 2293 117b 1A       		.uleb128 0x1a
 2294 117c 6A010000 		.4byte	.LASF211
 2295 1180 14       		.byte	0x14
 2296 1181 6E02     		.2byte	0x26e
 2297 1183 FD0F0000 		.4byte	0xffd
 2298 1187 1A       		.uleb128 0x1a
 2299 1188 08010000 		.4byte	.LASF262
 2300 118c 14       		.byte	0x14
 2301 118d 7702     		.2byte	0x277
 2302 118f 2E110000 		.4byte	0x112e
 2303 1193 00       		.byte	0
 2304 1194 17       		.uleb128 0x17
 2305 1195 A7080000 		.4byte	0x8a7
 2306 1199 A4110000 		.4byte	0x11a4
 2307 119d 18       		.uleb128 0x18
 2308 119e 37000000 		.4byte	0x37
 2309 11a2 18       		.byte	0x18
 2310 11a3 00       		.byte	0
 2311 11a4 1D       		.uleb128 0x1d
 2312 11a5 50000000 		.4byte	.LASF264
 2313 11a9 0A       		.uleb128 0xa
 2314 11aa 04       		.byte	0x4
 2315 11ab A4110000 		.4byte	0x11a4
 2316 11af 0C       		.uleb128 0xc
 2317 11b0 BA110000 		.4byte	0x11ba
 2318 11b4 0D       		.uleb128 0xd
 2319 11b5 A60D0000 		.4byte	0xda6
 2320 11b9 00       		.byte	0
 2321 11ba 0A       		.uleb128 0xa
 2322 11bb 04       		.byte	0x4
 2323 11bc AF110000 		.4byte	0x11af
 2324 11c0 0A       		.uleb128 0xa
 2325 11c1 04       		.byte	0x4
 2326 11c2 F90A0000 		.4byte	0xaf9
 2327 11c6 0C       		.uleb128 0xc
 2328 11c7 D1110000 		.4byte	0x11d1
 2329 11cb 0D       		.uleb128 0xd
 2330 11cc 25000000 		.4byte	0x25
 2331 11d0 00       		.byte	0
 2332 11d1 0A       		.uleb128 0xa
 2333 11d2 04       		.byte	0x4
 2334 11d3 D7110000 		.4byte	0x11d7
 2335 11d7 0A       		.uleb128 0xa
 2336 11d8 04       		.byte	0x4
 2337 11d9 C6110000 		.4byte	0x11c6
ARM GAS  C:\Users\PCHAUT~1\AppData\Local\Temp\ccILrOdh.s 			page 42


 2338 11dd 17       		.uleb128 0x17
 2339 11de 6B0F0000 		.4byte	0xf6b
 2340 11e2 ED110000 		.4byte	0x11ed
 2341 11e6 18       		.uleb128 0x18
 2342 11e7 37000000 		.4byte	0x37
 2343 11eb 02       		.byte	0x2
 2344 11ec 00       		.byte	0
 2345 11ed 12       		.uleb128 0x12
 2346 11ee 01020000 		.4byte	.LASF265
 2347 11f2 14       		.byte	0x14
 2348 11f3 0703     		.2byte	0x307
 2349 11f5 A60D0000 		.4byte	0xda6
 2350 11f9 12       		.uleb128 0x12
 2351 11fa 07030000 		.4byte	.LASF266
 2352 11fe 14       		.byte	0x14
 2353 11ff 0803     		.2byte	0x308
 2354 1201 AC0D0000 		.4byte	0xdac
 2355 1205 26       		.uleb128 0x26
 2356 1206 0D0C0000 		.4byte	.LASF271
 2357 120a 01       		.byte	0x1
 2358 120b 04       		.byte	0x4
 2359 120c E6090000 		.4byte	0x9e6
 2360 1210 05       		.uleb128 0x5
 2361 1211 03       		.byte	0x3
 2362 1212 00000000 		.4byte	lock
 2363 1216 27       		.uleb128 0x27
 2364 1217 250A0000 		.4byte	.LASF272
 2365 121b 01       		.byte	0x1
 2366 121c 10       		.byte	0x10
 2367 121d 00000000 		.4byte	.LFB220
 2368 1221 30000000 		.4byte	.LFE220-.LFB220
 2369 1225 01       		.uleb128 0x1
 2370 1226 9C       		.byte	0x9c
 2371 1227 3A120000 		.4byte	0x123a
 2372 122b 28       		.uleb128 0x28
 2373 122c 3A050000 		.4byte	.LASF267
 2374 1230 01       		.byte	0x1
 2375 1231 10       		.byte	0x10
 2376 1232 A60D0000 		.4byte	0xda6
 2377 1236 02       		.uleb128 0x2
 2378 1237 91       		.byte	0x91
 2379 1238 6C       		.sleb128 -20
 2380 1239 00       		.byte	0
 2381 123a 29       		.uleb128 0x29
 2382 123b 0F050000 		.4byte	.LASF273
 2383 123f 01       		.byte	0x1
 2384 1240 0A       		.byte	0xa
 2385 1241 00000000 		.4byte	.LFB219
 2386 1245 30000000 		.4byte	.LFE219-.LFB219
 2387 1249 01       		.uleb128 0x1
 2388 124a 9C       		.byte	0x9c
 2389 124b 28       		.uleb128 0x28
 2390 124c 3A050000 		.4byte	.LASF267
 2391 1250 01       		.byte	0x1
 2392 1251 0A       		.byte	0xa
 2393 1252 A60D0000 		.4byte	0xda6
 2394 1256 02       		.uleb128 0x2
ARM GAS  C:\Users\PCHAUT~1\AppData\Local\Temp\ccILrOdh.s 			page 43


 2395 1257 91       		.byte	0x91
 2396 1258 6C       		.sleb128 -20
 2397 1259 00       		.byte	0
 2398 125a 00       		.byte	0
 2399              		.section	.debug_abbrev,"",%progbits
 2400              	.Ldebug_abbrev0:
 2401 0000 01       		.uleb128 0x1
 2402 0001 11       		.uleb128 0x11
 2403 0002 01       		.byte	0x1
 2404 0003 25       		.uleb128 0x25
 2405 0004 0E       		.uleb128 0xe
 2406 0005 13       		.uleb128 0x13
 2407 0006 0B       		.uleb128 0xb
 2408 0007 03       		.uleb128 0x3
 2409 0008 0E       		.uleb128 0xe
 2410 0009 1B       		.uleb128 0x1b
 2411 000a 0E       		.uleb128 0xe
 2412 000b 55       		.uleb128 0x55
 2413 000c 17       		.uleb128 0x17
 2414 000d 11       		.uleb128 0x11
 2415 000e 01       		.uleb128 0x1
 2416 000f 10       		.uleb128 0x10
 2417 0010 17       		.uleb128 0x17
 2418 0011 00       		.byte	0
 2419 0012 00       		.byte	0
 2420 0013 02       		.uleb128 0x2
 2421 0014 24       		.uleb128 0x24
 2422 0015 00       		.byte	0
 2423 0016 0B       		.uleb128 0xb
 2424 0017 0B       		.uleb128 0xb
 2425 0018 3E       		.uleb128 0x3e
 2426 0019 0B       		.uleb128 0xb
 2427 001a 03       		.uleb128 0x3
 2428 001b 08       		.uleb128 0x8
 2429 001c 00       		.byte	0
 2430 001d 00       		.byte	0
 2431 001e 03       		.uleb128 0x3
 2432 001f 16       		.uleb128 0x16
 2433 0020 00       		.byte	0
 2434 0021 03       		.uleb128 0x3
 2435 0022 0E       		.uleb128 0xe
 2436 0023 3A       		.uleb128 0x3a
 2437 0024 0B       		.uleb128 0xb
 2438 0025 3B       		.uleb128 0x3b
 2439 0026 0B       		.uleb128 0xb
 2440 0027 49       		.uleb128 0x49
 2441 0028 13       		.uleb128 0x13
 2442 0029 00       		.byte	0
 2443 002a 00       		.byte	0
 2444 002b 04       		.uleb128 0x4
 2445 002c 24       		.uleb128 0x24
 2446 002d 00       		.byte	0
 2447 002e 0B       		.uleb128 0xb
 2448 002f 0B       		.uleb128 0xb
 2449 0030 3E       		.uleb128 0x3e
 2450 0031 0B       		.uleb128 0xb
 2451 0032 03       		.uleb128 0x3
ARM GAS  C:\Users\PCHAUT~1\AppData\Local\Temp\ccILrOdh.s 			page 44


 2452 0033 0E       		.uleb128 0xe
 2453 0034 00       		.byte	0
 2454 0035 00       		.byte	0
 2455 0036 05       		.uleb128 0x5
 2456 0037 35       		.uleb128 0x35
 2457 0038 00       		.byte	0
 2458 0039 49       		.uleb128 0x49
 2459 003a 13       		.uleb128 0x13
 2460 003b 00       		.byte	0
 2461 003c 00       		.byte	0
 2462 003d 06       		.uleb128 0x6
 2463 003e 13       		.uleb128 0x13
 2464 003f 01       		.byte	0x1
 2465 0040 03       		.uleb128 0x3
 2466 0041 0E       		.uleb128 0xe
 2467 0042 0B       		.uleb128 0xb
 2468 0043 0B       		.uleb128 0xb
 2469 0044 3A       		.uleb128 0x3a
 2470 0045 0B       		.uleb128 0xb
 2471 0046 3B       		.uleb128 0x3b
 2472 0047 0B       		.uleb128 0xb
 2473 0048 01       		.uleb128 0x1
 2474 0049 13       		.uleb128 0x13
 2475 004a 00       		.byte	0
 2476 004b 00       		.byte	0
 2477 004c 07       		.uleb128 0x7
 2478 004d 0D       		.uleb128 0xd
 2479 004e 00       		.byte	0
 2480 004f 03       		.uleb128 0x3
 2481 0050 0E       		.uleb128 0xe
 2482 0051 3A       		.uleb128 0x3a
 2483 0052 0B       		.uleb128 0xb
 2484 0053 3B       		.uleb128 0x3b
 2485 0054 0B       		.uleb128 0xb
 2486 0055 49       		.uleb128 0x49
 2487 0056 13       		.uleb128 0x13
 2488 0057 38       		.uleb128 0x38
 2489 0058 0B       		.uleb128 0xb
 2490 0059 00       		.byte	0
 2491 005a 00       		.byte	0
 2492 005b 08       		.uleb128 0x8
 2493 005c 0D       		.uleb128 0xd
 2494 005d 00       		.byte	0
 2495 005e 03       		.uleb128 0x3
 2496 005f 08       		.uleb128 0x8
 2497 0060 3A       		.uleb128 0x3a
 2498 0061 0B       		.uleb128 0xb
 2499 0062 3B       		.uleb128 0x3b
 2500 0063 05       		.uleb128 0x5
 2501 0064 49       		.uleb128 0x49
 2502 0065 13       		.uleb128 0x13
 2503 0066 38       		.uleb128 0x38
 2504 0067 0B       		.uleb128 0xb
 2505 0068 00       		.byte	0
 2506 0069 00       		.byte	0
 2507 006a 09       		.uleb128 0x9
 2508 006b 0D       		.uleb128 0xd
ARM GAS  C:\Users\PCHAUT~1\AppData\Local\Temp\ccILrOdh.s 			page 45


 2509 006c 00       		.byte	0
 2510 006d 03       		.uleb128 0x3
 2511 006e 0E       		.uleb128 0xe
 2512 006f 3A       		.uleb128 0x3a
 2513 0070 0B       		.uleb128 0xb
 2514 0071 3B       		.uleb128 0x3b
 2515 0072 05       		.uleb128 0x5
 2516 0073 49       		.uleb128 0x49
 2517 0074 13       		.uleb128 0x13
 2518 0075 38       		.uleb128 0x38
 2519 0076 0B       		.uleb128 0xb
 2520 0077 00       		.byte	0
 2521 0078 00       		.byte	0
 2522 0079 0A       		.uleb128 0xa
 2523 007a 0F       		.uleb128 0xf
 2524 007b 00       		.byte	0
 2525 007c 0B       		.uleb128 0xb
 2526 007d 0B       		.uleb128 0xb
 2527 007e 49       		.uleb128 0x49
 2528 007f 13       		.uleb128 0x13
 2529 0080 00       		.byte	0
 2530 0081 00       		.byte	0
 2531 0082 0B       		.uleb128 0xb
 2532 0083 13       		.uleb128 0x13
 2533 0084 01       		.byte	0x1
 2534 0085 03       		.uleb128 0x3
 2535 0086 0E       		.uleb128 0xe
 2536 0087 0B       		.uleb128 0xb
 2537 0088 0B       		.uleb128 0xb
 2538 0089 3A       		.uleb128 0x3a
 2539 008a 0B       		.uleb128 0xb
 2540 008b 3B       		.uleb128 0x3b
 2541 008c 05       		.uleb128 0x5
 2542 008d 01       		.uleb128 0x1
 2543 008e 13       		.uleb128 0x13
 2544 008f 00       		.byte	0
 2545 0090 00       		.byte	0
 2546 0091 0C       		.uleb128 0xc
 2547 0092 15       		.uleb128 0x15
 2548 0093 01       		.byte	0x1
 2549 0094 27       		.uleb128 0x27
 2550 0095 19       		.uleb128 0x19
 2551 0096 01       		.uleb128 0x1
 2552 0097 13       		.uleb128 0x13
 2553 0098 00       		.byte	0
 2554 0099 00       		.byte	0
 2555 009a 0D       		.uleb128 0xd
 2556 009b 05       		.uleb128 0x5
 2557 009c 00       		.byte	0
 2558 009d 49       		.uleb128 0x49
 2559 009e 13       		.uleb128 0x13
 2560 009f 00       		.byte	0
 2561 00a0 00       		.byte	0
 2562 00a1 0E       		.uleb128 0xe
 2563 00a2 0F       		.uleb128 0xf
 2564 00a3 00       		.byte	0
 2565 00a4 0B       		.uleb128 0xb
ARM GAS  C:\Users\PCHAUT~1\AppData\Local\Temp\ccILrOdh.s 			page 46


 2566 00a5 0B       		.uleb128 0xb
 2567 00a6 00       		.byte	0
 2568 00a7 00       		.byte	0
 2569 00a8 0F       		.uleb128 0xf
 2570 00a9 13       		.uleb128 0x13
 2571 00aa 01       		.byte	0x1
 2572 00ab 03       		.uleb128 0x3
 2573 00ac 0E       		.uleb128 0xe
 2574 00ad 0B       		.uleb128 0xb
 2575 00ae 05       		.uleb128 0x5
 2576 00af 3A       		.uleb128 0x3a
 2577 00b0 0B       		.uleb128 0xb
 2578 00b1 3B       		.uleb128 0x3b
 2579 00b2 05       		.uleb128 0x5
 2580 00b3 01       		.uleb128 0x1
 2581 00b4 13       		.uleb128 0x13
 2582 00b5 00       		.byte	0
 2583 00b6 00       		.byte	0
 2584 00b7 10       		.uleb128 0x10
 2585 00b8 0D       		.uleb128 0xd
 2586 00b9 00       		.byte	0
 2587 00ba 03       		.uleb128 0x3
 2588 00bb 0E       		.uleb128 0xe
 2589 00bc 3A       		.uleb128 0x3a
 2590 00bd 0B       		.uleb128 0xb
 2591 00be 3B       		.uleb128 0x3b
 2592 00bf 05       		.uleb128 0x5
 2593 00c0 49       		.uleb128 0x49
 2594 00c1 13       		.uleb128 0x13
 2595 00c2 38       		.uleb128 0x38
 2596 00c3 05       		.uleb128 0x5
 2597 00c4 00       		.byte	0
 2598 00c5 00       		.byte	0
 2599 00c6 11       		.uleb128 0x11
 2600 00c7 0D       		.uleb128 0xd
 2601 00c8 00       		.byte	0
 2602 00c9 03       		.uleb128 0x3
 2603 00ca 08       		.uleb128 0x8
 2604 00cb 3A       		.uleb128 0x3a
 2605 00cc 0B       		.uleb128 0xb
 2606 00cd 3B       		.uleb128 0x3b
 2607 00ce 05       		.uleb128 0x5
 2608 00cf 49       		.uleb128 0x49
 2609 00d0 13       		.uleb128 0x13
 2610 00d1 38       		.uleb128 0x38
 2611 00d2 05       		.uleb128 0x5
 2612 00d3 00       		.byte	0
 2613 00d4 00       		.byte	0
 2614 00d5 12       		.uleb128 0x12
 2615 00d6 34       		.uleb128 0x34
 2616 00d7 00       		.byte	0
 2617 00d8 03       		.uleb128 0x3
 2618 00d9 0E       		.uleb128 0xe
 2619 00da 3A       		.uleb128 0x3a
 2620 00db 0B       		.uleb128 0xb
 2621 00dc 3B       		.uleb128 0x3b
 2622 00dd 05       		.uleb128 0x5
ARM GAS  C:\Users\PCHAUT~1\AppData\Local\Temp\ccILrOdh.s 			page 47


 2623 00de 49       		.uleb128 0x49
 2624 00df 13       		.uleb128 0x13
 2625 00e0 3F       		.uleb128 0x3f
 2626 00e1 19       		.uleb128 0x19
 2627 00e2 3C       		.uleb128 0x3c
 2628 00e3 19       		.uleb128 0x19
 2629 00e4 00       		.byte	0
 2630 00e5 00       		.byte	0
 2631 00e6 13       		.uleb128 0x13
 2632 00e7 34       		.uleb128 0x34
 2633 00e8 00       		.byte	0
 2634 00e9 03       		.uleb128 0x3
 2635 00ea 0E       		.uleb128 0xe
 2636 00eb 3A       		.uleb128 0x3a
 2637 00ec 0B       		.uleb128 0xb
 2638 00ed 3B       		.uleb128 0x3b
 2639 00ee 0B       		.uleb128 0xb
 2640 00ef 49       		.uleb128 0x49
 2641 00f0 13       		.uleb128 0x13
 2642 00f1 3F       		.uleb128 0x3f
 2643 00f2 19       		.uleb128 0x19
 2644 00f3 3C       		.uleb128 0x3c
 2645 00f4 19       		.uleb128 0x19
 2646 00f5 00       		.byte	0
 2647 00f6 00       		.byte	0
 2648 00f7 14       		.uleb128 0x14
 2649 00f8 0D       		.uleb128 0xd
 2650 00f9 00       		.byte	0
 2651 00fa 03       		.uleb128 0x3
 2652 00fb 08       		.uleb128 0x8
 2653 00fc 3A       		.uleb128 0x3a
 2654 00fd 0B       		.uleb128 0xb
 2655 00fe 3B       		.uleb128 0x3b
 2656 00ff 0B       		.uleb128 0xb
 2657 0100 49       		.uleb128 0x49
 2658 0101 13       		.uleb128 0x13
 2659 0102 38       		.uleb128 0x38
 2660 0103 0B       		.uleb128 0xb
 2661 0104 00       		.byte	0
 2662 0105 00       		.byte	0
 2663 0106 15       		.uleb128 0x15
 2664 0107 13       		.uleb128 0x13
 2665 0108 01       		.byte	0x1
 2666 0109 0B       		.uleb128 0xb
 2667 010a 0B       		.uleb128 0xb
 2668 010b 3A       		.uleb128 0x3a
 2669 010c 0B       		.uleb128 0xb
 2670 010d 3B       		.uleb128 0x3b
 2671 010e 0B       		.uleb128 0xb
 2672 010f 01       		.uleb128 0x1
 2673 0110 13       		.uleb128 0x13
 2674 0111 00       		.byte	0
 2675 0112 00       		.byte	0
 2676 0113 16       		.uleb128 0x16
 2677 0114 13       		.uleb128 0x13
 2678 0115 01       		.byte	0x1
 2679 0116 0B       		.uleb128 0xb
ARM GAS  C:\Users\PCHAUT~1\AppData\Local\Temp\ccILrOdh.s 			page 48


 2680 0117 05       		.uleb128 0x5
 2681 0118 3A       		.uleb128 0x3a
 2682 0119 0B       		.uleb128 0xb
 2683 011a 3B       		.uleb128 0x3b
 2684 011b 0B       		.uleb128 0xb
 2685 011c 01       		.uleb128 0x1
 2686 011d 13       		.uleb128 0x13
 2687 011e 00       		.byte	0
 2688 011f 00       		.byte	0
 2689 0120 17       		.uleb128 0x17
 2690 0121 01       		.uleb128 0x1
 2691 0122 01       		.byte	0x1
 2692 0123 49       		.uleb128 0x49
 2693 0124 13       		.uleb128 0x13
 2694 0125 01       		.uleb128 0x1
 2695 0126 13       		.uleb128 0x13
 2696 0127 00       		.byte	0
 2697 0128 00       		.byte	0
 2698 0129 18       		.uleb128 0x18
 2699 012a 21       		.uleb128 0x21
 2700 012b 00       		.byte	0
 2701 012c 49       		.uleb128 0x49
 2702 012d 13       		.uleb128 0x13
 2703 012e 2F       		.uleb128 0x2f
 2704 012f 0B       		.uleb128 0xb
 2705 0130 00       		.byte	0
 2706 0131 00       		.byte	0
 2707 0132 19       		.uleb128 0x19
 2708 0133 17       		.uleb128 0x17
 2709 0134 01       		.byte	0x1
 2710 0135 0B       		.uleb128 0xb
 2711 0136 0B       		.uleb128 0xb
 2712 0137 3A       		.uleb128 0x3a
 2713 0138 0B       		.uleb128 0xb
 2714 0139 3B       		.uleb128 0x3b
 2715 013a 0B       		.uleb128 0xb
 2716 013b 01       		.uleb128 0x1
 2717 013c 13       		.uleb128 0x13
 2718 013d 00       		.byte	0
 2719 013e 00       		.byte	0
 2720 013f 1A       		.uleb128 0x1a
 2721 0140 0D       		.uleb128 0xd
 2722 0141 00       		.byte	0
 2723 0142 03       		.uleb128 0x3
 2724 0143 0E       		.uleb128 0xe
 2725 0144 3A       		.uleb128 0x3a
 2726 0145 0B       		.uleb128 0xb
 2727 0146 3B       		.uleb128 0x3b
 2728 0147 05       		.uleb128 0x5
 2729 0148 49       		.uleb128 0x49
 2730 0149 13       		.uleb128 0x13
 2731 014a 00       		.byte	0
 2732 014b 00       		.byte	0
 2733 014c 1B       		.uleb128 0x1b
 2734 014d 26       		.uleb128 0x26
 2735 014e 00       		.byte	0
 2736 014f 49       		.uleb128 0x49
ARM GAS  C:\Users\PCHAUT~1\AppData\Local\Temp\ccILrOdh.s 			page 49


 2737 0150 13       		.uleb128 0x13
 2738 0151 00       		.byte	0
 2739 0152 00       		.byte	0
 2740 0153 1C       		.uleb128 0x1c
 2741 0154 34       		.uleb128 0x34
 2742 0155 00       		.byte	0
 2743 0156 03       		.uleb128 0x3
 2744 0157 08       		.uleb128 0x8
 2745 0158 3A       		.uleb128 0x3a
 2746 0159 0B       		.uleb128 0xb
 2747 015a 3B       		.uleb128 0x3b
 2748 015b 05       		.uleb128 0x5
 2749 015c 49       		.uleb128 0x49
 2750 015d 13       		.uleb128 0x13
 2751 015e 3F       		.uleb128 0x3f
 2752 015f 19       		.uleb128 0x19
 2753 0160 3C       		.uleb128 0x3c
 2754 0161 19       		.uleb128 0x19
 2755 0162 00       		.byte	0
 2756 0163 00       		.byte	0
 2757 0164 1D       		.uleb128 0x1d
 2758 0165 13       		.uleb128 0x13
 2759 0166 00       		.byte	0
 2760 0167 03       		.uleb128 0x3
 2761 0168 0E       		.uleb128 0xe
 2762 0169 3C       		.uleb128 0x3c
 2763 016a 19       		.uleb128 0x19
 2764 016b 00       		.byte	0
 2765 016c 00       		.byte	0
 2766 016d 1E       		.uleb128 0x1e
 2767 016e 16       		.uleb128 0x16
 2768 016f 00       		.byte	0
 2769 0170 03       		.uleb128 0x3
 2770 0171 0E       		.uleb128 0xe
 2771 0172 3A       		.uleb128 0x3a
 2772 0173 0B       		.uleb128 0xb
 2773 0174 3B       		.uleb128 0x3b
 2774 0175 05       		.uleb128 0x5
 2775 0176 49       		.uleb128 0x49
 2776 0177 13       		.uleb128 0x13
 2777 0178 00       		.byte	0
 2778 0179 00       		.byte	0
 2779 017a 1F       		.uleb128 0x1f
 2780 017b 0D       		.uleb128 0xd
 2781 017c 00       		.byte	0
 2782 017d 03       		.uleb128 0x3
 2783 017e 0E       		.uleb128 0xe
 2784 017f 3A       		.uleb128 0x3a
 2785 0180 0B       		.uleb128 0xb
 2786 0181 3B       		.uleb128 0x3b
 2787 0182 0B       		.uleb128 0xb
 2788 0183 49       		.uleb128 0x49
 2789 0184 13       		.uleb128 0x13
 2790 0185 00       		.byte	0
 2791 0186 00       		.byte	0
 2792 0187 20       		.uleb128 0x20
 2793 0188 13       		.uleb128 0x13
ARM GAS  C:\Users\PCHAUT~1\AppData\Local\Temp\ccILrOdh.s 			page 50


 2794 0189 01       		.byte	0x1
 2795 018a 03       		.uleb128 0x3
 2796 018b 0E       		.uleb128 0xe
 2797 018c 0B       		.uleb128 0xb
 2798 018d 05       		.uleb128 0x5
 2799 018e 3A       		.uleb128 0x3a
 2800 018f 0B       		.uleb128 0xb
 2801 0190 3B       		.uleb128 0x3b
 2802 0191 0B       		.uleb128 0xb
 2803 0192 01       		.uleb128 0x1
 2804 0193 13       		.uleb128 0x13
 2805 0194 00       		.byte	0
 2806 0195 00       		.byte	0
 2807 0196 21       		.uleb128 0x21
 2808 0197 0D       		.uleb128 0xd
 2809 0198 00       		.byte	0
 2810 0199 03       		.uleb128 0x3
 2811 019a 0E       		.uleb128 0xe
 2812 019b 3A       		.uleb128 0x3a
 2813 019c 0B       		.uleb128 0xb
 2814 019d 3B       		.uleb128 0x3b
 2815 019e 0B       		.uleb128 0xb
 2816 019f 49       		.uleb128 0x49
 2817 01a0 13       		.uleb128 0x13
 2818 01a1 38       		.uleb128 0x38
 2819 01a2 05       		.uleb128 0x5
 2820 01a3 00       		.byte	0
 2821 01a4 00       		.byte	0
 2822 01a5 22       		.uleb128 0x22
 2823 01a6 15       		.uleb128 0x15
 2824 01a7 00       		.byte	0
 2825 01a8 27       		.uleb128 0x27
 2826 01a9 19       		.uleb128 0x19
 2827 01aa 00       		.byte	0
 2828 01ab 00       		.byte	0
 2829 01ac 23       		.uleb128 0x23
 2830 01ad 15       		.uleb128 0x15
 2831 01ae 01       		.byte	0x1
 2832 01af 27       		.uleb128 0x27
 2833 01b0 19       		.uleb128 0x19
 2834 01b1 49       		.uleb128 0x49
 2835 01b2 13       		.uleb128 0x13
 2836 01b3 01       		.uleb128 0x1
 2837 01b4 13       		.uleb128 0x13
 2838 01b5 00       		.byte	0
 2839 01b6 00       		.byte	0
 2840 01b7 24       		.uleb128 0x24
 2841 01b8 13       		.uleb128 0x13
 2842 01b9 01       		.byte	0x1
 2843 01ba 0B       		.uleb128 0xb
 2844 01bb 0B       		.uleb128 0xb
 2845 01bc 3A       		.uleb128 0x3a
 2846 01bd 0B       		.uleb128 0xb
 2847 01be 3B       		.uleb128 0x3b
 2848 01bf 05       		.uleb128 0x5
 2849 01c0 01       		.uleb128 0x1
 2850 01c1 13       		.uleb128 0x13
ARM GAS  C:\Users\PCHAUT~1\AppData\Local\Temp\ccILrOdh.s 			page 51


 2851 01c2 00       		.byte	0
 2852 01c3 00       		.byte	0
 2853 01c4 25       		.uleb128 0x25
 2854 01c5 17       		.uleb128 0x17
 2855 01c6 01       		.byte	0x1
 2856 01c7 0B       		.uleb128 0xb
 2857 01c8 0B       		.uleb128 0xb
 2858 01c9 3A       		.uleb128 0x3a
 2859 01ca 0B       		.uleb128 0xb
 2860 01cb 3B       		.uleb128 0x3b
 2861 01cc 05       		.uleb128 0x5
 2862 01cd 01       		.uleb128 0x1
 2863 01ce 13       		.uleb128 0x13
 2864 01cf 00       		.byte	0
 2865 01d0 00       		.byte	0
 2866 01d1 26       		.uleb128 0x26
 2867 01d2 34       		.uleb128 0x34
 2868 01d3 00       		.byte	0
 2869 01d4 03       		.uleb128 0x3
 2870 01d5 0E       		.uleb128 0xe
 2871 01d6 3A       		.uleb128 0x3a
 2872 01d7 0B       		.uleb128 0xb
 2873 01d8 3B       		.uleb128 0x3b
 2874 01d9 0B       		.uleb128 0xb
 2875 01da 49       		.uleb128 0x49
 2876 01db 13       		.uleb128 0x13
 2877 01dc 02       		.uleb128 0x2
 2878 01dd 18       		.uleb128 0x18
 2879 01de 00       		.byte	0
 2880 01df 00       		.byte	0
 2881 01e0 27       		.uleb128 0x27
 2882 01e1 2E       		.uleb128 0x2e
 2883 01e2 01       		.byte	0x1
 2884 01e3 3F       		.uleb128 0x3f
 2885 01e4 19       		.uleb128 0x19
 2886 01e5 03       		.uleb128 0x3
 2887 01e6 0E       		.uleb128 0xe
 2888 01e7 3A       		.uleb128 0x3a
 2889 01e8 0B       		.uleb128 0xb
 2890 01e9 3B       		.uleb128 0x3b
 2891 01ea 0B       		.uleb128 0xb
 2892 01eb 27       		.uleb128 0x27
 2893 01ec 19       		.uleb128 0x19
 2894 01ed 11       		.uleb128 0x11
 2895 01ee 01       		.uleb128 0x1
 2896 01ef 12       		.uleb128 0x12
 2897 01f0 06       		.uleb128 0x6
 2898 01f1 40       		.uleb128 0x40
 2899 01f2 18       		.uleb128 0x18
 2900 01f3 9642     		.uleb128 0x2116
 2901 01f5 19       		.uleb128 0x19
 2902 01f6 01       		.uleb128 0x1
 2903 01f7 13       		.uleb128 0x13
 2904 01f8 00       		.byte	0
 2905 01f9 00       		.byte	0
 2906 01fa 28       		.uleb128 0x28
 2907 01fb 05       		.uleb128 0x5
ARM GAS  C:\Users\PCHAUT~1\AppData\Local\Temp\ccILrOdh.s 			page 52


 2908 01fc 00       		.byte	0
 2909 01fd 03       		.uleb128 0x3
 2910 01fe 0E       		.uleb128 0xe
 2911 01ff 3A       		.uleb128 0x3a
 2912 0200 0B       		.uleb128 0xb
 2913 0201 3B       		.uleb128 0x3b
 2914 0202 0B       		.uleb128 0xb
 2915 0203 49       		.uleb128 0x49
 2916 0204 13       		.uleb128 0x13
 2917 0205 02       		.uleb128 0x2
 2918 0206 18       		.uleb128 0x18
 2919 0207 00       		.byte	0
 2920 0208 00       		.byte	0
 2921 0209 29       		.uleb128 0x29
 2922 020a 2E       		.uleb128 0x2e
 2923 020b 01       		.byte	0x1
 2924 020c 3F       		.uleb128 0x3f
 2925 020d 19       		.uleb128 0x19
 2926 020e 03       		.uleb128 0x3
 2927 020f 0E       		.uleb128 0xe
 2928 0210 3A       		.uleb128 0x3a
 2929 0211 0B       		.uleb128 0xb
 2930 0212 3B       		.uleb128 0x3b
 2931 0213 0B       		.uleb128 0xb
 2932 0214 27       		.uleb128 0x27
 2933 0215 19       		.uleb128 0x19
 2934 0216 11       		.uleb128 0x11
 2935 0217 01       		.uleb128 0x1
 2936 0218 12       		.uleb128 0x12
 2937 0219 06       		.uleb128 0x6
 2938 021a 40       		.uleb128 0x40
 2939 021b 18       		.uleb128 0x18
 2940 021c 9642     		.uleb128 0x2116
 2941 021e 19       		.uleb128 0x19
 2942 021f 00       		.byte	0
 2943 0220 00       		.byte	0
 2944 0221 00       		.byte	0
 2945              		.section	.debug_aranges,"",%progbits
 2946 0000 24000000 		.4byte	0x24
 2947 0004 0200     		.2byte	0x2
 2948 0006 00000000 		.4byte	.Ldebug_info0
 2949 000a 04       		.byte	0x4
 2950 000b 00       		.byte	0
 2951 000c 0000     		.2byte	0
 2952 000e 0000     		.2byte	0
 2953 0010 00000000 		.4byte	.LFB219
 2954 0014 30000000 		.4byte	.LFE219-.LFB219
 2955 0018 00000000 		.4byte	.LFB220
 2956 001c 30000000 		.4byte	.LFE220-.LFB220
 2957 0020 00000000 		.4byte	0
 2958 0024 00000000 		.4byte	0
 2959              		.section	.debug_ranges,"",%progbits
 2960              	.Ldebug_ranges0:
 2961 0000 00000000 		.4byte	.LFB219
 2962 0004 30000000 		.4byte	.LFE219
 2963 0008 00000000 		.4byte	.LFB220
 2964 000c 30000000 		.4byte	.LFE220
ARM GAS  C:\Users\PCHAUT~1\AppData\Local\Temp\ccILrOdh.s 			page 53


 2965 0010 00000000 		.4byte	0
 2966 0014 00000000 		.4byte	0
 2967              		.section	.debug_line,"",%progbits
 2968              	.Ldebug_line0:
 2969 0000 3D040000 		.section	.debug_str,"MS",%progbits,1
 2969      02001304 
 2969      00000201 
 2969      FB0E0D00 
 2969      01010101 
 2970              	.LASF54:
 2971 0000 705F7374 		.ascii	"p_stats\000"
 2971      61747300 
 2972              	.LASF4:
 2973 0008 73697A65 		.ascii	"size_t\000"
 2973      5F7400
 2974              	.LASF269:
 2975 000f 2E2E2F6C 		.ascii	"../lib/e-puck2_main-processor/src/chibios-syscalls/"
 2975      69622F65 
 2975      2D707563 
 2975      6B325F6D 
 2975      61696E2D 
 2976 0042 6D616C6C 		.ascii	"malloc_lock.c\000"
 2976      6F635F6C 
 2976      6F636B2E 
 2976      6300
 2977              	.LASF264:
 2978 0050 5F5F6C6F 		.ascii	"__locale_t\000"
 2978      63616C65 
 2978      5F7400
 2979              	.LASF124:
 2980 005b 77747365 		.ascii	"wtsemp\000"
 2980      6D7000
 2981              	.LASF147:
 2982 0062 63665F6F 		.ascii	"cf_off_name\000"
 2982      66665F6E 
 2982      616D6500 
 2983              	.LASF32:
 2984 006e 73797374 		.ascii	"systime_t\000"
 2984      696D655F 
 2984      7400
 2985              	.LASF232:
 2986 0078 5F5F7366 		.ascii	"__sf\000"
 2986      00
 2987              	.LASF136:
 2988 007d 63685F69 		.ascii	"ch_identifier\000"
 2988      64656E74 
 2988      69666965 
 2988      7200
 2989              	.LASF37:
 2990 008b 705F6374 		.ascii	"p_ctx\000"
 2990      7800
 2991              	.LASF199:
 2992 0091 5F726561 		.ascii	"_read\000"
 2992      6400
 2993              	.LASF27:
 2994 0097 74707269 		.ascii	"tprio_t\000"
 2994      6F5F7400 
ARM GAS  C:\Users\PCHAUT~1\AppData\Local\Temp\ccILrOdh.s 			page 54


 2995              	.LASF155:
 2996 009f 63685F64 		.ascii	"ch_debug\000"
 2996      65627567 
 2996      00
 2997              	.LASF48:
 2998 00a8 705F6D73 		.ascii	"p_msgqueue\000"
 2998      67717565 
 2998      756500
 2999              	.LASF200:
 3000 00b3 5F777269 		.ascii	"_write\000"
 3000      746500
 3001              	.LASF65:
 3002 00ba 725F6374 		.ascii	"r_ctx\000"
 3002      7800
 3003              	.LASF18:
 3004 00c0 696E7433 		.ascii	"int32_t\000"
 3004      325F7400 
 3005              	.LASF243:
 3006 00c8 5F617363 		.ascii	"_asctime_buf\000"
 3006      74696D65 
 3006      5F627566 
 3006      00
 3007              	.LASF226:
 3008 00d5 5F637674 		.ascii	"_cvtlen\000"
 3008      6C656E00 
 3009              	.LASF144:
 3010 00dd 63665F6F 		.ascii	"cf_off_ctx\000"
 3010      66665F63 
 3010      747800
 3011              	.LASF69:
 3012 00e8 76746675 		.ascii	"vtfunc_t\000"
 3012      6E635F74 
 3012      00
 3013              	.LASF78:
 3014 00f1 63685F76 		.ascii	"ch_virtual_timers_list\000"
 3014      69727475 
 3014      616C5F74 
 3014      696D6572 
 3014      735F6C69 
 3015              	.LASF262:
 3016 0108 5F756E75 		.ascii	"_unused\000"
 3016      73656400 
 3017              	.LASF173:
 3018 0110 5F5F746D 		.ascii	"__tm\000"
 3018      00
 3019              	.LASF258:
 3020 0115 5F776373 		.ascii	"_wcsrtombs_state\000"
 3020      72746F6D 
 3020      62735F73 
 3020      74617465 
 3020      00
 3021              	.LASF204:
 3022 0126 5F6E6275 		.ascii	"_nbuf\000"
 3022      6600
 3023              	.LASF174:
 3024 012c 5F5F746D 		.ascii	"__tm_sec\000"
 3024      5F736563 
ARM GAS  C:\Users\PCHAUT~1\AppData\Local\Temp\ccILrOdh.s 			page 55


 3024      00
 3025              	.LASF251:
 3026 0135 5F6C3634 		.ascii	"_l64a_buf\000"
 3026      615F6275 
 3026      6600
 3027              	.LASF190:
 3028 013f 5F666E73 		.ascii	"_fns\000"
 3028      00
 3029              	.LASF238:
 3030 0144 5F736565 		.ascii	"_seed\000"
 3030      6400
 3031              	.LASF208:
 3032 014a 5F6C6F63 		.ascii	"_lock\000"
 3032      6B00
 3033              	.LASF84:
 3034 0150 6C6F636B 		.ascii	"lock_cnt\000"
 3034      5F636E74 
 3034      00
 3035              	.LASF140:
 3036 0159 63685F70 		.ascii	"ch_ptrsize\000"
 3036      74727369 
 3036      7A6500
 3037              	.LASF239:
 3038 0164 5F6D756C 		.ascii	"_mult\000"
 3038      7400
 3039              	.LASF211:
 3040 016a 5F726565 		.ascii	"_reent\000"
 3040      6E7400
 3041              	.LASF100:
 3042 0171 73655F74 		.ascii	"se_tp\000"
 3042      7000
 3043              	.LASF114:
 3044 0177 74696D65 		.ascii	"time_measurement_t\000"
 3044      5F6D6561 
 3044      73757265 
 3044      6D656E74 
 3044      5F7400
 3045              	.LASF132:
 3046 018a 6D5F6F77 		.ascii	"m_owner\000"
 3046      6E657200 
 3047              	.LASF76:
 3048 0192 76745F70 		.ascii	"vt_par\000"
 3048      617200
 3049              	.LASF161:
 3050 0199 5F5F7763 		.ascii	"__wch\000"
 3050      6800
 3051              	.LASF121:
 3052 019f 65786974 		.ascii	"exitcode\000"
 3052      636F6465 
 3052      00
 3053              	.LASF5:
 3054 01a8 5F5F7569 		.ascii	"__uint8_t\000"
 3054      6E74385F 
 3054      7400
 3055              	.LASF126:
 3056 01b2 65776D61 		.ascii	"ewmask\000"
 3056      736B00
ARM GAS  C:\Users\PCHAUT~1\AppData\Local\Temp\ccILrOdh.s 			page 56


 3057              	.LASF196:
 3058 01b9 5F66696C 		.ascii	"_file\000"
 3058      6500
 3059              	.LASF142:
 3060 01bf 63685F74 		.ascii	"ch_threadsize\000"
 3060      68726561 
 3060      6473697A 
 3060      6500
 3061              	.LASF183:
 3062 01cd 5F6F6E5F 		.ascii	"_on_exit_args\000"
 3062      65786974 
 3062      5F617267 
 3062      7300
 3063              	.LASF38:
 3064 01db 705F6E65 		.ascii	"p_newer\000"
 3064      77657200 
 3065              	.LASF254:
 3066 01e3 5F6D6272 		.ascii	"_mbrlen_state\000"
 3066      6C656E5F 
 3066      73746174 
 3066      6500
 3067              	.LASF11:
 3068 01f1 6C6F6E67 		.ascii	"long int\000"
 3068      20696E74 
 3068      00
 3069              	.LASF34:
 3070 01fa 705F6E65 		.ascii	"p_next\000"
 3070      787400
 3071              	.LASF265:
 3072 0201 5F696D70 		.ascii	"_impure_ptr\000"
 3072      7572655F 
 3072      70747200 
 3073              	.LASF223:
 3074 020d 5F726573 		.ascii	"_result_k\000"
 3074      756C745F 
 3074      6B00
 3075              	.LASF149:
 3076 0217 63665F6F 		.ascii	"cf_off_state\000"
 3076      66665F73 
 3076      74617465 
 3076      00
 3077              	.LASF193:
 3078 0224 5F73697A 		.ascii	"_size\000"
 3078      6500
 3079              	.LASF35:
 3080 022a 705F7072 		.ascii	"p_prev\000"
 3080      657600
 3081              	.LASF244:
 3082 0231 5F6C6F63 		.ascii	"_localtime_buf\000"
 3082      616C7469 
 3082      6D655F62 
 3082      756600
 3083              	.LASF24:
 3084 0240 74737461 		.ascii	"tstate_t\000"
 3084      74655F74 
 3084      00
 3085              	.LASF22:
ARM GAS  C:\Users\PCHAUT~1\AppData\Local\Temp\ccILrOdh.s 			page 57


 3086 0249 72747469 		.ascii	"rttime_t\000"
 3086      6D655F74 
 3086      00
 3087              	.LASF59:
 3088 0252 74687265 		.ascii	"threads_queue_t\000"
 3088      6164735F 
 3088      71756575 
 3088      655F7400 
 3089              	.LASF51:
 3090 0262 705F6D74 		.ascii	"p_mtxlist\000"
 3090      786C6973 
 3090      7400
 3091              	.LASF95:
 3092 026c 72656761 		.ascii	"regarm_t\000"
 3092      726D5F74 
 3092      00
 3093              	.LASF178:
 3094 0275 5F5F746D 		.ascii	"__tm_mon\000"
 3094      5F6D6F6E 
 3094      00
 3095              	.LASF113:
 3096 027e 63756D75 		.ascii	"cumulative\000"
 3096      6C617469 
 3096      766500
 3097              	.LASF3:
 3098 0289 7369676E 		.ascii	"signed char\000"
 3098      65642063 
 3098      68617200 
 3099              	.LASF45:
 3100 0295 705F7072 		.ascii	"p_preempt\000"
 3100      65656D70 
 3100      7400
 3101              	.LASF16:
 3102 029f 75696E74 		.ascii	"uint8_t\000"
 3102      385F7400 
 3103              	.LASF29:
 3104 02a7 6576656E 		.ascii	"eventmask_t\000"
 3104      746D6173 
 3104      6B5F7400 
 3105              	.LASF97:
 3106 02b3 636F6E74 		.ascii	"context\000"
 3106      65787400 
 3107              	.LASF123:
 3108 02bb 77747472 		.ascii	"wttrp\000"
 3108      7000
 3109              	.LASF6:
 3110 02c1 756E7369 		.ascii	"unsigned char\000"
 3110      676E6564 
 3110      20636861 
 3110      7200
 3111              	.LASF82:
 3112 02cf 70616E69 		.ascii	"panic_msg\000"
 3112      635F6D73 
 3112      6700
 3113              	.LASF218:
 3114 02d9 5F756E73 		.ascii	"_unspecified_locale_info\000"
 3114      70656369 
ARM GAS  C:\Users\PCHAUT~1\AppData\Local\Temp\ccILrOdh.s 			page 58


 3114      66696564 
 3114      5F6C6F63 
 3114      616C655F 
 3115              	.LASF85:
 3116 02f2 74726163 		.ascii	"trace_buffer\000"
 3116      655F6275 
 3116      66666572 
 3116      00
 3117              	.LASF66:
 3118 02ff 725F6E65 		.ascii	"r_newer\000"
 3118      77657200 
 3119              	.LASF266:
 3120 0307 5F676C6F 		.ascii	"_global_impure_ptr\000"
 3120      62616C5F 
 3120      696D7075 
 3120      72655F70 
 3120      747200
 3121              	.LASF181:
 3122 031a 5F5F746D 		.ascii	"__tm_yday\000"
 3122      5F796461 
 3122      7900
 3123              	.LASF80:
 3124 0324 73797374 		.ascii	"system_debug_t\000"
 3124      656D5F64 
 3124      65627567 
 3124      5F7400
 3125              	.LASF135:
 3126 0333 63686172 		.ascii	"char\000"
 3126      00
 3127              	.LASF134:
 3128 0338 6D5F636E 		.ascii	"m_cnt\000"
 3128      7400
 3129              	.LASF202:
 3130 033e 5F636C6F 		.ascii	"_close\000"
 3130      736500
 3131              	.LASF259:
 3132 0345 5F685F65 		.ascii	"_h_errno\000"
 3132      72726E6F 
 3132      00
 3133              	.LASF36:
 3134 034e 705F7072 		.ascii	"p_prio\000"
 3134      696F00
 3135              	.LASF8:
 3136 0355 5F5F7569 		.ascii	"__uint16_t\000"
 3136      6E743136 
 3136      5F7400
 3137              	.LASF122:
 3138 0360 77746F62 		.ascii	"wtobjp\000"
 3138      6A7000
 3139              	.LASF116:
 3140 0367 6E5F6374 		.ascii	"n_ctxswc\000"
 3140      78737763 
 3140      00
 3141              	.LASF213:
 3142 0370 5F737464 		.ascii	"_stdin\000"
 3142      696E00
 3143              	.LASF145:
ARM GAS  C:\Users\PCHAUT~1\AppData\Local\Temp\ccILrOdh.s 			page 59


 3144 0377 63665F6F 		.ascii	"cf_off_newer\000"
 3144      66665F6E 
 3144      65776572 
 3144      00
 3145              	.LASF96:
 3146 0384 73746B61 		.ascii	"stkalign_t\000"
 3146      6C69676E 
 3146      5F7400
 3147              	.LASF143:
 3148 038f 63665F6F 		.ascii	"cf_off_prio\000"
 3148      66665F70 
 3148      72696F00 
 3149              	.LASF111:
 3150 039b 776F7273 		.ascii	"worst\000"
 3150      7400
 3151              	.LASF30:
 3152 03a1 636E745F 		.ascii	"cnt_t\000"
 3152      7400
 3153              	.LASF75:
 3154 03a7 76745F66 		.ascii	"vt_func\000"
 3154      756E6300 
 3155              	.LASF198:
 3156 03af 5F636F6F 		.ascii	"_cookie\000"
 3156      6B696500 
 3157              	.LASF224:
 3158 03b7 5F703573 		.ascii	"_p5s\000"
 3158      00
 3159              	.LASF107:
 3160 03bc 63685F74 		.ascii	"ch_trace_buffer_t\000"
 3160      72616365 
 3160      5F627566 
 3160      6665725F 
 3160      7400
 3161              	.LASF50:
 3162 03ce 705F6570 		.ascii	"p_epending\000"
 3162      656E6469 
 3162      6E6700
 3163              	.LASF125:
 3164 03d9 77746D74 		.ascii	"wtmtxp\000"
 3164      787000
 3165              	.LASF172:
 3166 03e0 5F776473 		.ascii	"_wds\000"
 3166      00
 3167              	.LASF62:
 3168 03e5 63685F72 		.ascii	"ch_ready_list\000"
 3168      65616479 
 3168      5F6C6973 
 3168      7400
 3169              	.LASF263:
 3170 03f3 5F5F6C6F 		.ascii	"__lock\000"
 3170      636B00
 3171              	.LASF230:
 3172 03fa 5F736967 		.ascii	"_sig_func\000"
 3172      5F66756E 
 3172      6300
 3173              	.LASF206:
 3174 0404 5F6F6666 		.ascii	"_offset\000"
ARM GAS  C:\Users\PCHAUT~1\AppData\Local\Temp\ccILrOdh.s 			page 60


 3174      73657400 
 3175              	.LASF227:
 3176 040c 5F637674 		.ascii	"_cvtbuf\000"
 3176      62756600 
 3177              	.LASF83:
 3178 0414 6973725F 		.ascii	"isr_cnt\000"
 3178      636E7400 
 3179              	.LASF118:
 3180 041c 6D5F6372 		.ascii	"m_crit_isr\000"
 3180      69745F69 
 3180      737200
 3181              	.LASF102:
 3182 0427 73655F73 		.ascii	"se_state\000"
 3182      74617465 
 3182      00
 3183              	.LASF117:
 3184 0430 6D5F6372 		.ascii	"m_crit_thd\000"
 3184      69745F74 
 3184      686400
 3185              	.LASF14:
 3186 043b 5F5F7569 		.ascii	"__uint64_t\000"
 3186      6E743634 
 3186      5F7400
 3187              	.LASF164:
 3188 0446 5F5F7661 		.ascii	"__value\000"
 3188      6C756500 
 3189              	.LASF13:
 3190 044e 6C6F6E67 		.ascii	"long unsigned int\000"
 3190      20756E73 
 3190      69676E65 
 3190      6420696E 
 3190      7400
 3191              	.LASF137:
 3192 0460 63685F7A 		.ascii	"ch_zero\000"
 3192      65726F00 
 3193              	.LASF194:
 3194 0468 5F5F7346 		.ascii	"__sFILE\000"
 3194      494C4500 
 3195              	.LASF220:
 3196 0470 5F5F7364 		.ascii	"__sdidinit\000"
 3196      6964696E 
 3196      697400
 3197              	.LASF210:
 3198 047b 5F666C61 		.ascii	"_flags2\000"
 3198      67733200 
 3199              	.LASF94:
 3200 0483 53797374 		.ascii	"SystemCoreClock\000"
 3200      656D436F 
 3200      7265436C 
 3200      6F636B00 
 3201              	.LASF127:
 3202 0493 63685F73 		.ascii	"ch_semaphore\000"
 3202      656D6170 
 3202      686F7265 
 3202      00
 3203              	.LASF57:
 3204 04a0 63685F74 		.ascii	"ch_thread\000"
ARM GAS  C:\Users\PCHAUT~1\AppData\Local\Temp\ccILrOdh.s 			page 61


 3204      68726561 
 3204      6400
 3205              	.LASF77:
 3206 04aa 76697274 		.ascii	"virtual_timers_list_t\000"
 3206      75616C5F 
 3206      74696D65 
 3206      72735F6C 
 3206      6973745F 
 3207              	.LASF212:
 3208 04c0 5F657272 		.ascii	"_errno\000"
 3208      6E6F00
 3209              	.LASF70:
 3210 04c7 76697274 		.ascii	"virtual_timer_t\000"
 3210      75616C5F 
 3210      74696D65 
 3210      725F7400 
 3211              	.LASF61:
 3212 04d7 72656164 		.ascii	"ready_list_t\000"
 3212      795F6C69 
 3212      73745F74 
 3212      00
 3213              	.LASF252:
 3214 04e4 5F736967 		.ascii	"_signal_buf\000"
 3214      6E616C5F 
 3214      62756600 
 3215              	.LASF31:
 3216 04f0 75636E74 		.ascii	"ucnt_t\000"
 3216      5F7400
 3217              	.LASF168:
 3218 04f7 5F426967 		.ascii	"_Bigint\000"
 3218      696E7400 
 3219              	.LASF58:
 3220 04ff 63685F74 		.ascii	"ch_threads_list\000"
 3220      68726561 
 3220      64735F6C 
 3220      69737400 
 3221              	.LASF273:
 3222 050f 5F5F6D61 		.ascii	"__malloc_lock\000"
 3222      6C6C6F63 
 3222      5F6C6F63 
 3222      6B00
 3223              	.LASF103:
 3224 051d 63685F73 		.ascii	"ch_swc_event_t\000"
 3224      77635F65 
 3224      76656E74 
 3224      5F7400
 3225              	.LASF170:
 3226 052c 5F6D6178 		.ascii	"_maxwds\000"
 3226      77647300 
 3227              	.LASF115:
 3228 0534 6E5F6972 		.ascii	"n_irq\000"
 3228      7100
 3229              	.LASF267:
 3230 053a 7265656E 		.ascii	"reent\000"
 3230      7400
 3231              	.LASF221:
 3232 0540 5F5F636C 		.ascii	"__cleanup\000"
ARM GAS  C:\Users\PCHAUT~1\AppData\Local\Temp\ccILrOdh.s 			page 62


 3232      65616E75 
 3232      7000
 3233              	.LASF229:
 3234 054a 5F617465 		.ascii	"_atexit0\000"
 3234      78697430 
 3234      00
 3235              	.LASF152:
 3236 0553 63665F6F 		.ascii	"cf_off_preempt\000"
 3236      66665F70 
 3236      7265656D 
 3236      707400
 3237              	.LASF12:
 3238 0562 5F5F7569 		.ascii	"__uint32_t\000"
 3238      6E743332 
 3238      5F7400
 3239              	.LASF217:
 3240 056d 5F656D65 		.ascii	"_emergency\000"
 3240      7267656E 
 3240      637900
 3241              	.LASF1:
 3242 0578 6C6F6E67 		.ascii	"long long int\000"
 3242      206C6F6E 
 3242      6720696E 
 3242      7400
 3243              	.LASF139:
 3244 0586 63685F76 		.ascii	"ch_version\000"
 3244      65727369 
 3244      6F6E00
 3245              	.LASF131:
 3246 0591 6D5F7175 		.ascii	"m_queue\000"
 3246      65756500 
 3247              	.LASF235:
 3248 0599 5F6E696F 		.ascii	"_niobs\000"
 3248      627300
 3249              	.LASF72:
 3250 05a0 76745F6E 		.ascii	"vt_next\000"
 3250      65787400 
 3251              	.LASF231:
 3252 05a8 5F5F7367 		.ascii	"__sglue\000"
 3252      6C756500 
 3253              	.LASF261:
 3254 05b0 5F6E6D61 		.ascii	"_nmalloc\000"
 3254      6C6C6F63 
 3254      00
 3255              	.LASF73:
 3256 05b9 76745F70 		.ascii	"vt_prev\000"
 3256      72657600 
 3257              	.LASF245:
 3258 05c1 5F67616D 		.ascii	"_gamma_signgam\000"
 3258      6D615F73 
 3258      69676E67 
 3258      616D00
 3259              	.LASF104:
 3260 05d0 74625F73 		.ascii	"tb_size\000"
 3260      697A6500 
 3261              	.LASF268:
 3262 05d8 474E5520 		.ascii	"GNU C11 7.2.1 20170904 (release) [ARM/embedded-7-br"
ARM GAS  C:\Users\PCHAUT~1\AppData\Local\Temp\ccILrOdh.s 			page 63


 3262      43313120 
 3262      372E322E 
 3262      31203230 
 3262      31373039 
 3263 060b 616E6368 		.ascii	"anch revision 255204] -mcpu=cortex-m4 -mfloat-abi=h"
 3263      20726576 
 3263      6973696F 
 3263      6E203235 
 3263      35323034 
 3264 063e 61726420 		.ascii	"ard -mfpu=fpv4-sp-d16 -mno-thumb-interwork -mthumb "
 3264      2D6D6670 
 3264      753D6670 
 3264      76342D73 
 3264      702D6431 
 3265 0671 2D676764 		.ascii	"-ggdb -O0 -fomit-frame-pointer -falign-functions=16"
 3265      62202D4F 
 3265      30202D66 
 3265      6F6D6974 
 3265      2D667261 
 3266 06a4 202D666E 		.ascii	" -fno-strict-aliasing -fstack-protector-all -ffunct"
 3266      6F2D7374 
 3266      72696374 
 3266      2D616C69 
 3266      6173696E 
 3267 06d7 696F6E2D 		.ascii	"ion-sections -fdata-sections -fno-common -fsingle-p"
 3267      73656374 
 3267      696F6E73 
 3267      202D6664 
 3267      6174612D 
 3268 070a 72656369 		.ascii	"recision-constant\000"
 3268      73696F6E 
 3268      2D636F6E 
 3268      7374616E 
 3268      7400
 3269              	.LASF225:
 3270 071c 5F667265 		.ascii	"_freelist\000"
 3270      656C6973 
 3270      7400
 3271              	.LASF236:
 3272 0726 5F696F62 		.ascii	"_iobs\000"
 3272      7300
 3273              	.LASF234:
 3274 072c 5F676C75 		.ascii	"_glue\000"
 3274      6500
 3275              	.LASF93:
 3276 0732 49544D5F 		.ascii	"ITM_RxBuffer\000"
 3276      52784275 
 3276      66666572 
 3276      00
 3277              	.LASF171:
 3278 073f 5F736967 		.ascii	"_sign\000"
 3278      6E00
 3279              	.LASF205:
 3280 0745 5F626C6B 		.ascii	"_blksize\000"
 3280      73697A65 
 3280      00
 3281              	.LASF47:
ARM GAS  C:\Users\PCHAUT~1\AppData\Local\Temp\ccILrOdh.s 			page 64


 3282 074e 705F7761 		.ascii	"p_waiting\000"
 3282      6974696E 
 3282      6700
 3283              	.LASF101:
 3284 0758 73655F77 		.ascii	"se_wtobjp\000"
 3284      746F626A 
 3284      7000
 3285              	.LASF43:
 3286 0762 705F666C 		.ascii	"p_flags\000"
 3286      61677300 
 3287              	.LASF92:
 3288 076a 69646C65 		.ascii	"idle_thread_wa\000"
 3288      5F746872 
 3288      6561645F 
 3288      776100
 3289              	.LASF0:
 3290 0779 756E7369 		.ascii	"unsigned int\000"
 3290      676E6564 
 3290      20696E74 
 3290      00
 3291              	.LASF21:
 3292 0786 7274636E 		.ascii	"rtcnt_t\000"
 3292      745F7400 
 3293              	.LASF53:
 3294 078e 705F6D70 		.ascii	"p_mpool\000"
 3294      6F6F6C00 
 3295              	.LASF270:
 3296 0796 433A5C55 		.ascii	"C:\\Users\\Pchautems\\Documents\\RobotiqueTP\\Proje"
 3296      73657273 
 3296      5C506368 
 3296      61757465 
 3296      6D735C44 
 3297 07c4 745C6D69 		.ascii	"t\\miniprojet\000"
 3297      6E697072 
 3297      6F6A6574 
 3297      00
 3298              	.LASF44:
 3299 07d1 705F7265 		.ascii	"p_refs\000"
 3299      667300
 3300              	.LASF141:
 3301 07d8 63685F74 		.ascii	"ch_timesize\000"
 3301      696D6573 
 3301      697A6500 
 3302              	.LASF257:
 3303 07e4 5F776372 		.ascii	"_wcrtomb_state\000"
 3303      746F6D62 
 3303      5F737461 
 3303      746500
 3304              	.LASF177:
 3305 07f3 5F5F746D 		.ascii	"__tm_mday\000"
 3305      5F6D6461 
 3305      7900
 3306              	.LASF119:
 3307 07fd 6B65726E 		.ascii	"kernel_stats_t\000"
 3307      656C5F73 
 3307      74617473 
 3307      5F7400
ARM GAS  C:\Users\PCHAUT~1\AppData\Local\Temp\ccILrOdh.s 			page 65


 3308              	.LASF228:
 3309 080c 5F6E6577 		.ascii	"_new\000"
 3309      00
 3310              	.LASF203:
 3311 0811 5F756275 		.ascii	"_ubuf\000"
 3311      6600
 3312              	.LASF215:
 3313 0817 5F737464 		.ascii	"_stderr\000"
 3313      65727200 
 3314              	.LASF250:
 3315 081f 5F776374 		.ascii	"_wctomb_state\000"
 3315      6F6D625F 
 3315      73746174 
 3315      6500
 3316              	.LASF209:
 3317 082d 5F6D6273 		.ascii	"_mbstate\000"
 3317      74617465 
 3317      00
 3318              	.LASF246:
 3319 0836 5F72616E 		.ascii	"_rand_next\000"
 3319      645F6E65 
 3319      787400
 3320              	.LASF195:
 3321 0841 5F666C61 		.ascii	"_flags\000"
 3321      677300
 3322              	.LASF108:
 3323 0848 6F666673 		.ascii	"offset\000"
 3323      657400
 3324              	.LASF106:
 3325 084f 74625F62 		.ascii	"tb_buffer\000"
 3325      75666665 
 3325      7200
 3326              	.LASF188:
 3327 0859 5F617465 		.ascii	"_atexit\000"
 3327      78697400 
 3328              	.LASF46:
 3329 0861 705F7469 		.ascii	"p_time\000"
 3329      6D6500
 3330              	.LASF151:
 3331 0868 63665F6F 		.ascii	"cf_off_refs\000"
 3331      66665F72 
 3331      65667300 
 3332              	.LASF163:
 3333 0874 5F5F636F 		.ascii	"__count\000"
 3333      756E7400 
 3334              	.LASF180:
 3335 087c 5F5F746D 		.ascii	"__tm_wday\000"
 3335      5F776461 
 3335      7900
 3336              	.LASF33:
 3337 0886 74687265 		.ascii	"thread_t\000"
 3337      61645F74 
 3337      00
 3338              	.LASF2:
 3339 088f 6C6F6E67 		.ascii	"long double\000"
 3339      20646F75 
 3339      626C6500 
ARM GAS  C:\Users\PCHAUT~1\AppData\Local\Temp\ccILrOdh.s 			page 66


 3340              	.LASF55:
 3341 089b 74687265 		.ascii	"thread_reference_t\000"
 3341      61645F72 
 3341      65666572 
 3341      656E6365 
 3341      5F7400
 3342              	.LASF52:
 3343 08ae 705F7265 		.ascii	"p_realprio\000"
 3343      616C7072 
 3343      696F00
 3344              	.LASF98:
 3345 08b9 706F7274 		.ascii	"port_intctx\000"
 3345      5F696E74 
 3345      63747800 
 3346              	.LASF153:
 3347 08c5 63665F6F 		.ascii	"cf_off_time\000"
 3347      66665F74 
 3347      696D6500 
 3348              	.LASF201:
 3349 08d1 5F736565 		.ascii	"_seek\000"
 3349      6B00
 3350              	.LASF74:
 3351 08d7 76745F64 		.ascii	"vt_delta\000"
 3351      656C7461 
 3351      00
 3352              	.LASF159:
 3353 08e0 5F66706F 		.ascii	"_fpos_t\000"
 3353      735F7400 
 3354              	.LASF162:
 3355 08e8 5F5F7763 		.ascii	"__wchb\000"
 3355      686200
 3356              	.LASF71:
 3357 08ef 63685F76 		.ascii	"ch_virtual_timer\000"
 3357      69727475 
 3357      616C5F74 
 3357      696D6572 
 3357      00
 3358              	.LASF129:
 3359 0900 735F636E 		.ascii	"s_cnt\000"
 3359      7400
 3360              	.LASF249:
 3361 0906 5F6D6274 		.ascii	"_mbtowc_state\000"
 3361      6F77635F 
 3361      73746174 
 3361      6500
 3362              	.LASF91:
 3363 0914 6B65726E 		.ascii	"kernel_stats\000"
 3363      656C5F73 
 3363      74617473 
 3363      00
 3364              	.LASF241:
 3365 0921 5F756E75 		.ascii	"_unused_rand\000"
 3365      7365645F 
 3365      72616E64 
 3365      00
 3366              	.LASF15:
 3367 092e 6C6F6E67 		.ascii	"long long unsigned int\000"
ARM GAS  C:\Users\PCHAUT~1\AppData\Local\Temp\ccILrOdh.s 			page 67


 3367      206C6F6E 
 3367      6720756E 
 3367      7369676E 
 3367      65642069 
 3368              	.LASF39:
 3369 0945 705F6F6C 		.ascii	"p_older\000"
 3369      64657200 
 3370              	.LASF17:
 3371 094d 75696E74 		.ascii	"uint16_t\000"
 3371      31365F74 
 3371      00
 3372              	.LASF185:
 3373 0956 5F64736F 		.ascii	"_dso_handle\000"
 3373      5F68616E 
 3373      646C6500 
 3374              	.LASF28:
 3375 0962 6D73675F 		.ascii	"msg_t\000"
 3375      7400
 3376              	.LASF60:
 3377 0968 63685F74 		.ascii	"ch_threads_queue\000"
 3377      68726561 
 3377      64735F71 
 3377      75657565 
 3377      00
 3378              	.LASF237:
 3379 0979 5F72616E 		.ascii	"_rand48\000"
 3379      64343800 
 3380              	.LASF150:
 3381 0981 63665F6F 		.ascii	"cf_off_flags\000"
 3381      66665F66 
 3381      6C616773 
 3381      00
 3382              	.LASF214:
 3383 098e 5F737464 		.ascii	"_stdout\000"
 3383      6F757400 
 3384              	.LASF26:
 3385 0996 74736C69 		.ascii	"tslices_t\000"
 3385      6365735F 
 3385      7400
 3386              	.LASF68:
 3387 09a0 725F6375 		.ascii	"r_current\000"
 3387      7272656E 
 3387      7400
 3388              	.LASF192:
 3389 09aa 5F626173 		.ascii	"_base\000"
 3389      6500
 3390              	.LASF242:
 3391 09b0 5F737472 		.ascii	"_strtok_last\000"
 3391      746F6B5F 
 3391      6C617374 
 3391      00
 3392              	.LASF255:
 3393 09bd 5F6D6272 		.ascii	"_mbrtowc_state\000"
 3393      746F7763 
 3393      5F737461 
 3393      746500
 3394              	.LASF90:
ARM GAS  C:\Users\PCHAUT~1\AppData\Local\Temp\ccILrOdh.s 			page 68


 3395 09cc 6D61696E 		.ascii	"mainthread\000"
 3395      74687265 
 3395      616400
 3396              	.LASF166:
 3397 09d7 5F666C6F 		.ascii	"_flock_t\000"
 3397      636B5F74 
 3397      00
 3398              	.LASF233:
 3399 09e0 5F5F4649 		.ascii	"__FILE\000"
 3399      4C4500
 3400              	.LASF110:
 3401 09e7 62657374 		.ascii	"best\000"
 3401      00
 3402              	.LASF165:
 3403 09ec 5F6D6273 		.ascii	"_mbstate_t\000"
 3403      74617465 
 3403      5F7400
 3404              	.LASF63:
 3405 09f7 725F7175 		.ascii	"r_queue\000"
 3405      65756500 
 3406              	.LASF247:
 3407 09ff 5F723438 		.ascii	"_r48\000"
 3407      00
 3408              	.LASF160:
 3409 0a04 77696E74 		.ascii	"wint_t\000"
 3409      5F7400
 3410              	.LASF169:
 3411 0a0b 5F6E6578 		.ascii	"_next\000"
 3411      7400
 3412              	.LASF207:
 3413 0a11 5F646174 		.ascii	"_data\000"
 3413      6100
 3414              	.LASF88:
 3415 0a17 726C6973 		.ascii	"rlist\000"
 3415      7400
 3416              	.LASF23:
 3417 0a1d 746D6F64 		.ascii	"tmode_t\000"
 3417      655F7400 
 3418              	.LASF272:
 3419 0a25 5F5F6D61 		.ascii	"__malloc_unlock\000"
 3419      6C6C6F63 
 3419      5F756E6C 
 3419      6F636B00 
 3420              	.LASF79:
 3421 0a35 76745F73 		.ascii	"vt_systime\000"
 3421      79737469 
 3421      6D6500
 3422              	.LASF67:
 3423 0a40 725F6F6C 		.ascii	"r_older\000"
 3423      64657200 
 3424              	.LASF109:
 3425 0a48 746D5F63 		.ascii	"tm_calibration_t\000"
 3425      616C6962 
 3425      72617469 
 3425      6F6E5F74 
 3425      00
 3426              	.LASF128:
ARM GAS  C:\Users\PCHAUT~1\AppData\Local\Temp\ccILrOdh.s 			page 69


 3427 0a59 735F7175 		.ascii	"s_queue\000"
 3427      65756500 
 3428              	.LASF248:
 3429 0a61 5F6D626C 		.ascii	"_mblen_state\000"
 3429      656E5F73 
 3429      74617465 
 3429      00
 3430              	.LASF7:
 3431 0a6e 73686F72 		.ascii	"short int\000"
 3431      7420696E 
 3431      7400
 3432              	.LASF20:
 3433 0a78 75696E74 		.ascii	"uint64_t\000"
 3433      36345F74 
 3433      00
 3434              	.LASF130:
 3435 0a81 63685F6D 		.ascii	"ch_mutex\000"
 3435      75746578 
 3435      00
 3436              	.LASF186:
 3437 0a8a 5F666E74 		.ascii	"_fntypes\000"
 3437      79706573 
 3437      00
 3438              	.LASF64:
 3439 0a93 725F7072 		.ascii	"r_prio\000"
 3439      696F00
 3440              	.LASF81:
 3441 0a9a 63685F73 		.ascii	"ch_system_debug\000"
 3441      79737465 
 3441      6D5F6465 
 3441      62756700 
 3442              	.LASF179:
 3443 0aaa 5F5F746D 		.ascii	"__tm_year\000"
 3443      5F796561 
 3443      7200
 3444              	.LASF146:
 3445 0ab4 63665F6F 		.ascii	"cf_off_older\000"
 3445      66665F6F 
 3445      6C646572 
 3445      00
 3446              	.LASF197:
 3447 0ac1 5F6C6266 		.ascii	"_lbfsize\000"
 3447      73697A65 
 3447      00
 3448              	.LASF89:
 3449 0aca 76746C69 		.ascii	"vtlist\000"
 3449      737400
 3450              	.LASF216:
 3451 0ad1 5F696E63 		.ascii	"_inc\000"
 3451      00
 3452              	.LASF189:
 3453 0ad6 5F696E64 		.ascii	"_ind\000"
 3453      00
 3454              	.LASF191:
 3455 0adb 5F5F7362 		.ascii	"__sbuf\000"
 3455      756600
 3456              	.LASF187:
ARM GAS  C:\Users\PCHAUT~1\AppData\Local\Temp\ccILrOdh.s 			page 70


 3457 0ae2 5F69735F 		.ascii	"_is_cxa\000"
 3457      63786100 
 3458              	.LASF157:
 3459 0aea 5F4C4F43 		.ascii	"_LOCK_T\000"
 3459      4B5F5400 
 3460              	.LASF156:
 3461 0af2 6D757465 		.ascii	"mutex_t\000"
 3461      785F7400 
 3462              	.LASF25:
 3463 0afa 74726566 		.ascii	"trefs_t\000"
 3463      735F7400 
 3464              	.LASF260:
 3465 0b02 5F6E6578 		.ascii	"_nextf\000"
 3465      746600
 3466              	.LASF148:
 3467 0b09 63665F6F 		.ascii	"cf_off_stklimit\000"
 3467      66665F73 
 3467      746B6C69 
 3467      6D697400 
 3468              	.LASF56:
 3469 0b19 74687265 		.ascii	"threads_list_t\000"
 3469      6164735F 
 3469      6C697374 
 3469      5F7400
 3470              	.LASF87:
 3471 0b28 63685F73 		.ascii	"ch_system\000"
 3471      79737465 
 3471      6D00
 3472              	.LASF219:
 3473 0b32 5F6C6F63 		.ascii	"_locale\000"
 3473      616C6500 
 3474              	.LASF167:
 3475 0b3a 5F5F554C 		.ascii	"__ULong\000"
 3475      6F6E6700 
 3476              	.LASF19:
 3477 0b42 75696E74 		.ascii	"uint32_t\000"
 3477      33325F74 
 3477      00
 3478              	.LASF222:
 3479 0b4b 5F726573 		.ascii	"_result\000"
 3479      756C7400 
 3480              	.LASF158:
 3481 0b53 5F6F6666 		.ascii	"_off_t\000"
 3481      5F7400
 3482              	.LASF120:
 3483 0b5a 7264796D 		.ascii	"rdymsg\000"
 3483      736700
 3484              	.LASF240:
 3485 0b61 5F616464 		.ascii	"_add\000"
 3485      00
 3486              	.LASF9:
 3487 0b66 73686F72 		.ascii	"short unsigned int\000"
 3487      7420756E 
 3487      7369676E 
 3487      65642069 
 3487      6E7400
 3488              	.LASF176:
ARM GAS  C:\Users\PCHAUT~1\AppData\Local\Temp\ccILrOdh.s 			page 71


 3489 0b79 5F5F746D 		.ascii	"__tm_hour\000"
 3489      5F686F75 
 3489      7200
 3490              	.LASF86:
 3491 0b83 63685F73 		.ascii	"ch_system_t\000"
 3491      79737465 
 3491      6D5F7400 
 3492              	.LASF154:
 3493 0b8f 63686465 		.ascii	"chdebug_t\000"
 3493      6275675F 
 3493      7400
 3494              	.LASF138:
 3495 0b99 63685F73 		.ascii	"ch_size\000"
 3495      697A6500 
 3496              	.LASF256:
 3497 0ba1 5F6D6273 		.ascii	"_mbsrtowcs_state\000"
 3497      72746F77 
 3497      63735F73 
 3497      74617465 
 3497      00
 3498              	.LASF41:
 3499 0bb2 705F7374 		.ascii	"p_stklimit\000"
 3499      6B6C696D 
 3499      697400
 3500              	.LASF10:
 3501 0bbd 5F5F696E 		.ascii	"__int32_t\000"
 3501      7433325F 
 3501      7400
 3502              	.LASF184:
 3503 0bc7 5F666E61 		.ascii	"_fnargs\000"
 3503      72677300 
 3504              	.LASF182:
 3505 0bcf 5F5F746D 		.ascii	"__tm_isdst\000"
 3505      5F697364 
 3505      737400
 3506              	.LASF99:
 3507 0bda 73655F74 		.ascii	"se_time\000"
 3507      696D6500 
 3508              	.LASF40:
 3509 0be2 705F6E61 		.ascii	"p_name\000"
 3509      6D6500
 3510              	.LASF133:
 3511 0be9 6D5F6E65 		.ascii	"m_next\000"
 3511      787400
 3512              	.LASF105:
 3513 0bf0 74625F70 		.ascii	"tb_ptr\000"
 3513      747200
 3514              	.LASF175:
 3515 0bf7 5F5F746D 		.ascii	"__tm_min\000"
 3515      5F6D696E 
 3515      00
 3516              	.LASF253:
 3517 0c00 5F676574 		.ascii	"_getdate_err\000"
 3517      64617465 
 3517      5F657272 
 3517      00
 3518              	.LASF271:
ARM GAS  C:\Users\PCHAUT~1\AppData\Local\Temp\ccILrOdh.s 			page 72


 3519 0c0d 6C6F636B 		.ascii	"lock\000"
 3519      00
 3520              	.LASF112:
 3521 0c12 6C617374 		.ascii	"last\000"
 3521      00
 3522              	.LASF49:
 3523 0c17 705F6D73 		.ascii	"p_msg\000"
 3523      6700
 3524              	.LASF42:
 3525 0c1d 705F7374 		.ascii	"p_state\000"
 3525      61746500 
 3526              		.ident	"GCC: (GNU Tools for Arm Embedded Processors 7-2017-q4-major) 7.2.1 20170904 (release) [ARM
ARM GAS  C:\Users\PCHAUT~1\AppData\Local\Temp\ccILrOdh.s 			page 73


DEFINED SYMBOLS
                            *ABS*:00000000 malloc_lock.c
C:\Users\PCHAUT~1\AppData\Local\Temp\ccILrOdh.s:18     .data.lock:00000000 $d
C:\Users\PCHAUT~1\AppData\Local\Temp\ccILrOdh.s:21     .data.lock:00000000 lock
C:\Users\PCHAUT~1\AppData\Local\Temp\ccILrOdh.s:28     .text.__malloc_lock:00000000 $t
C:\Users\PCHAUT~1\AppData\Local\Temp\ccILrOdh.s:36     .text.__malloc_lock:00000000 __malloc_lock
C:\Users\PCHAUT~1\AppData\Local\Temp\ccILrOdh.s:72     .text.__malloc_lock:00000028 $d
C:\Users\PCHAUT~1\AppData\Local\Temp\ccILrOdh.s:78     .text.__malloc_unlock:00000000 $t
C:\Users\PCHAUT~1\AppData\Local\Temp\ccILrOdh.s:86     .text.__malloc_unlock:00000000 __malloc_unlock
C:\Users\PCHAUT~1\AppData\Local\Temp\ccILrOdh.s:121    .text.__malloc_unlock:00000028 $d

UNDEFINED SYMBOLS
chMtxLock
__stack_chk_fail
__stack_chk_guard
chMtxUnlock
