ARM GAS  C:\Users\PCHAUT~1\AppData\Local\Temp\ccILrOdh.s 			page 1


   1              		.cpu cortex-m4
   2              		.eabi_attribute 27, 1
   3              		.eabi_attribute 28, 1
   4              		.eabi_attribute 20, 1
   5              		.eabi_attribute 21, 1
   6              		.eabi_attribute 23, 3
   7              		.eabi_attribute 24, 1
   8              		.eabi_attribute 25, 1
   9              		.eabi_attribute 26, 1
  10              		.eabi_attribute 30, 6
  11              		.eabi_attribute 34, 1
  12              		.eabi_attribute 18, 4
  13              		.file	"malloc_lock.c"
  14              		.text
  15              	.Ltext0:
  16              		.cfi_sections	.debug_frame
  17              		.section	.data.lock,"aw",%progbits
  18              		.align	2
  19              		.type	lock, %object
  20              		.size	lock, 20
  21              	lock:
  22 0000 00000000 		.word	lock
  23 0004 00000000 		.word	lock
  24 0008 00000000 		.word	0
  25 000c 00000000 		.word	0
  26 0010 00000000 		.word	0
  27              		.section	.text.__malloc_lock,"ax",%progbits
  28              		.align	1
  29              		.p2align 4,,15
  30              		.global	__malloc_lock
  31              		.syntax unified
  32              		.thumb
  33              		.thumb_func
  34              		.fpu fpv4-sp-d16
  35              		.type	__malloc_lock, %function
  36              	__malloc_lock:
  37              	.LFB219:
  38              		.file 1 "../lib/e-puck2_main-processor/src/chibios-syscalls/malloc_lock.c"
  39              		.loc 1 11 0
  40              		.cfi_startproc
  41              		@ args = 0, pretend = 0, frame = 16
  42              		@ frame_needed = 0, uses_anonymous_args = 0
  43 0000 00B5     		push	{lr}
  44              		.cfi_def_cfa_offset 4
  45              		.cfi_offset 14, -4
  46 0002 85B0     		sub	sp, sp, #20
  47              		.cfi_def_cfa_offset 24
  48 0004 0190     		str	r0, [sp, #4]
  49              		.loc 1 11 0
  50 0006 084B     		ldr	r3, .L3
  51 0008 1B68     		ldr	r3, [r3]
  52 000a 0393     		str	r3, [sp, #12]
  53              		.loc 1 13 0
  54 000c 0748     		ldr	r0, .L3+4
  55 000e FFF7FEFF 		bl	chMtxLock
  56              		.loc 1 14 0
  57 0012 00BF     		nop
ARM GAS  C:\Users\PCHAUT~1\AppData\Local\Temp\ccILrOdh.s 			page 2


  58 0014 044B     		ldr	r3, .L3
  59 0016 039A     		ldr	r2, [sp, #12]
  60 0018 1B68     		ldr	r3, [r3]
  61 001a 9A42     		cmp	r2, r3
  62 001c 01D0     		beq	.L2
  63 001e FFF7FEFF 		bl	__stack_chk_fail
  64              	.L2:
  65 0022 05B0     		add	sp, sp, #20
  66              		.cfi_def_cfa_offset 4
  67              		@ sp needed
  68 0024 5DF804FB 		ldr	pc, [sp], #4
  69              	.L4:
  70              		.align	2
  71              	.L3:
  72 0028 00000000 		.word	__stack_chk_guard
  73 002c 00000000 		.word	lock
  74              		.cfi_endproc
  75              	.LFE219:
  76              		.size	__malloc_lock, .-__malloc_lock
  77              		.section	.text.__malloc_unlock,"ax",%progbits
  78              		.align	1
  79              		.p2align 4,,15
  80              		.global	__malloc_unlock
  81              		.syntax unified
  82              		.thumb
  83              		.thumb_func
  84              		.fpu fpv4-sp-d16
  85              		.type	__malloc_unlock, %function
  86              	__malloc_unlock:
  87              	.LFB220:
  88              		.loc 1 17 0
  89              		.cfi_startproc
  90              		@ args = 0, pretend = 0, frame = 16
  91              		@ frame_needed = 0, uses_anonymous_args = 0
  92 0000 00B5     		push	{lr}
  93              		.cfi_def_cfa_offset 4
  94              		.cfi_offset 14, -4
  95 0002 85B0     		sub	sp, sp, #20
  96              		.cfi_def_cfa_offset 24
  97 0004 0190     		str	r0, [sp, #4]
  98              		.loc 1 17 0
  99 0006 084B     		ldr	r3, .L7
 100 0008 1B68     		ldr	r3, [r3]
 101 000a 0393     		str	r3, [sp, #12]
 102              		.loc 1 19 0
 103 000c 0748     		ldr	r0, .L7+4
 104 000e FFF7FEFF 		bl	chMtxUnlock
 105              		.loc 1 20 0
 106 0012 00BF     		nop
 107 0014 044B     		ldr	r3, .L7
 108 0016 039A     		ldr	r2, [sp, #12]
 109 0018 1B68     		ldr	r3, [r3]
 110 001a 9A42     		cmp	r2, r3
 111 001c 01D0     		beq	.L6
 112 001e FFF7FEFF 		bl	__stack_chk_fail
 113              	.L6:
 114 0022 05B0     		add	sp, sp, #20
ARM GAS  C:\Users\PCHAUT~1\AppData\Local\Temp\ccILrOdh.s 			page 3


 115              		.cfi_def_cfa_offset 4
 116              		@ sp needed
 117 0024 5DF804FB 		ldr	pc, [sp], #4
 118              	.L8:
 119              		.align	2
 120              	.L7:
 121 0028 00000000 		.word	__stack_chk_guard
 122 002c 00000000 		.word	lock
 123              		.cfi_endproc
 124              	.LFE220:
 125              		.size	__malloc_unlock, .-__malloc_unlock
 126              		.text
 127              	.Letext0:
 128              		.file 2 "c:\\users\\pchautems\\documents\\robotiquetp\\eclipse_e-puck2\\tools\\gcc-arm-none-eabi-7
 129              		.file 3 "c:\\users\\pchautems\\documents\\robotiquetp\\eclipse_e-puck2\\tools\\gcc-arm-none-eabi-7
 130              		.file 4 "c:\\users\\pchautems\\documents\\robotiquetp\\eclipse_e-puck2\\tools\\gcc-arm-none-eabi-7
 131              		.file 5 "../lib/e-puck2_main-processor/ChibiOS//os/rt/ports/ARMCMx/compilers/GCC/chtypes.h"
 132              		.file 6 "../lib/e-puck2_main-processor/ChibiOS//os/rt/include/chsystypes.h"
 133              		.file 7 "../lib/e-puck2_main-processor/ChibiOS//os/rt/include/chschd.h"
 134              		.file 8 "../lib/e-puck2_main-processor/ChibiOS//os/ext/CMSIS/include/core_cm4.h"
 135              		.file 9 "../lib/e-puck2_main-processor/ChibiOS//os/ext/CMSIS/ST/system_stm32f4xx.h"
 136              		.file 10 "../lib/e-puck2_main-processor/ChibiOS//os/rt/ports/ARMCMx/chcore.h"
 137              		.file 11 "../lib/e-puck2_main-processor/ChibiOS//os/rt/ports/ARMCMx/chcore_v7m.h"
 138              		.file 12 "../lib/e-puck2_main-processor/ChibiOS//os/rt/include/chdebug.h"
 139              		.file 13 "../lib/e-puck2_main-processor/ChibiOS//os/rt/include/chtm.h"
 140              		.file 14 "../lib/e-puck2_main-processor/ChibiOS//os/rt/include/chstats.h"
 141              		.file 15 "../lib/e-puck2_main-processor/ChibiOS//os/rt/include/chsem.h"
 142              		.file 16 "../lib/e-puck2_main-processor/ChibiOS//os/rt/include/chmtx.h"
 143              		.file 17 "../lib/e-puck2_main-processor/ChibiOS//os/rt/include/chregistry.h"
 144              		.file 18 "c:\\users\\pchautems\\documents\\robotiquetp\\eclipse_e-puck2\\tools\\gcc-arm-none-eabi-
 145              		.file 19 "c:\\users\\pchautems\\documents\\robotiquetp\\eclipse_e-puck2\\tools\\gcc-arm-none-eabi-
 146              		.file 20 "c:\\users\\pchautems\\documents\\robotiquetp\\eclipse_e-puck2\\tools\\gcc-arm-none-eabi-