ARM GAS  C:\Users\PCHAUT~1\AppData\Local\Temp\cccXcjMI.s 			page 1


   1              		.cpu cortex-m4
   2              		.eabi_attribute 27, 1
   3              		.eabi_attribute 28, 1
   4              		.eabi_attribute 20, 1
   5              		.eabi_attribute 21, 1
   6              		.eabi_attribute 23, 3
   7              		.eabi_attribute 24, 1
   8              		.eabi_attribute 25, 1
   9              		.eabi_attribute 26, 1
  10              		.eabi_attribute 30, 6
  11              		.eabi_attribute 34, 1
  12              		.eabi_attribute 18, 4
  13              		.file	"memory_protection.c"
  14              		.text
  15              	.Ltext0:
  16              		.cfi_sections	.debug_frame
  17              		.section	.text.port_lock,"ax",%progbits
  18              		.align	1
  19              		.p2align 4,,15
  20              		.syntax unified
  21              		.thumb
  22              		.thumb_func
  23              		.fpu fpv4-sp-d16
  24              		.type	port_lock, %function
  25              	port_lock:
  26              	.LFB119:
  27              		.file 1 "../lib/e-puck2_main-processor/ChibiOS//os/rt/ports/ARMCMx/chcore_v7m.h"
  28              		.loc 1 444 0
  29              		.cfi_startproc
  30              		@ args = 0, pretend = 0, frame = 8
  31              		@ frame_needed = 0, uses_anonymous_args = 0
  32 0000 00B5     		push	{lr}
  33              		.cfi_def_cfa_offset 4
  34              		.cfi_offset 14, -4
  35 0002 83B0     		sub	sp, sp, #12
  36              		.cfi_def_cfa_offset 16
  37              		.loc 1 444 0
  38 0004 094B     		ldr	r3, .L3
  39 0006 1B68     		ldr	r3, [r3]
  40 0008 0193     		str	r3, [sp, #4]
  41 000a 2023     		movs	r3, #32
  42 000c 0093     		str	r3, [sp]
  43              	.LBB12:
  44              	.LBB13:
  45              		.file 2 "../lib/e-puck2_main-processor/ChibiOS//os/ext/CMSIS/include/core_cmFunc.h"
  46              		.loc 2 546 0
  47 000e 009B     		ldr	r3, [sp]
  48              		.syntax unified
  49              	@ 546 "../lib/e-puck2_main-processor/ChibiOS//os/ext/CMSIS/include/core_cmFunc.h" 1
  50 0010 83F31188 		MSR basepri, r3
  51              	@ 0 "" 2
  52              		.thumb
  53              		.syntax unified
  54              	.LBE13:
  55              	.LBE12:
  56              		.loc 1 451 0
  57 0014 00BF     		nop
ARM GAS  C:\Users\PCHAUT~1\AppData\Local\Temp\cccXcjMI.s 			page 2


  58 0016 054B     		ldr	r3, .L3
  59 0018 019A     		ldr	r2, [sp, #4]
  60 001a 1B68     		ldr	r3, [r3]
  61 001c 9A42     		cmp	r2, r3
  62 001e 01D0     		beq	.L2
  63 0020 FFF7FEFF 		bl	__stack_chk_fail
  64              	.L2:
  65 0024 03B0     		add	sp, sp, #12
  66              		.cfi_def_cfa_offset 4
  67              		@ sp needed
  68 0026 5DF804FB 		ldr	pc, [sp], #4
  69              	.L4:
  70 002a 00BF     		.align	2
  71              	.L3:
  72 002c 00000000 		.word	__stack_chk_guard
  73              		.cfi_endproc
  74              	.LFE119:
  75              		.size	port_lock, .-port_lock
  76              		.section	.text.port_unlock,"ax",%progbits
  77              		.align	1
  78              		.p2align 4,,15
  79              		.syntax unified
  80              		.thumb
  81              		.thumb_func
  82              		.fpu fpv4-sp-d16
  83              		.type	port_unlock, %function
  84              	port_unlock:
  85              	.LFB120:
  86              		.loc 1 458 0
  87              		.cfi_startproc
  88              		@ args = 0, pretend = 0, frame = 8
  89              		@ frame_needed = 0, uses_anonymous_args = 0
  90 0000 00B5     		push	{lr}
  91              		.cfi_def_cfa_offset 4
  92              		.cfi_offset 14, -4
  93 0002 83B0     		sub	sp, sp, #12
  94              		.cfi_def_cfa_offset 16
  95              		.loc 1 458 0
  96 0004 094B     		ldr	r3, .L7
  97 0006 1B68     		ldr	r3, [r3]
  98 0008 0193     		str	r3, [sp, #4]
  99 000a 0023     		movs	r3, #0
 100 000c 0093     		str	r3, [sp]
 101              	.LBB14:
 102              	.LBB15:
 103              		.loc 2 546 0
 104 000e 009B     		ldr	r3, [sp]
 105              		.syntax unified
 106              	@ 546 "../lib/e-puck2_main-processor/ChibiOS//os/ext/CMSIS/include/core_cmFunc.h" 1
 107 0010 83F31188 		MSR basepri, r3
 108              	@ 0 "" 2
 109              		.thumb
 110              		.syntax unified
 111              	.LBE15:
 112              	.LBE14:
 113              		.loc 1 465 0
 114 0014 00BF     		nop
ARM GAS  C:\Users\PCHAUT~1\AppData\Local\Temp\cccXcjMI.s 			page 3


 115 0016 054B     		ldr	r3, .L7
 116 0018 019A     		ldr	r2, [sp, #4]
 117 001a 1B68     		ldr	r3, [r3]
 118 001c 9A42     		cmp	r2, r3
 119 001e 01D0     		beq	.L6
 120 0020 FFF7FEFF 		bl	__stack_chk_fail
 121              	.L6:
 122 0024 03B0     		add	sp, sp, #12
 123              		.cfi_def_cfa_offset 4
 124              		@ sp needed
 125 0026 5DF804FB 		ldr	pc, [sp], #4
 126              	.L8:
 127 002a 00BF     		.align	2
 128              	.L7:
 129 002c 00000000 		.word	__stack_chk_guard
 130              		.cfi_endproc
 131              	.LFE120:
 132              		.size	port_unlock, .-port_unlock
 133              		.section	.text.chSysLock,"ax",%progbits
 134              		.align	1
 135              		.p2align 4,,15
 136              		.syntax unified
 137              		.thumb
 138              		.thumb_func
 139              		.fpu fpv4-sp-d16
 140              		.type	chSysLock, %function
 141              	chSysLock:
 142              	.LFB148:
 143              		.file 3 "../lib/e-puck2_main-processor/ChibiOS//os/rt/include/chsys.h"
 144              		.loc 3 346 0
 145              		.cfi_startproc
 146              		@ args = 0, pretend = 0, frame = 8
 147              		@ frame_needed = 0, uses_anonymous_args = 0
 148 0000 00B5     		push	{lr}
 149              		.cfi_def_cfa_offset 4
 150              		.cfi_offset 14, -4
 151 0002 83B0     		sub	sp, sp, #12
 152              		.cfi_def_cfa_offset 16
 153              		.loc 3 346 0
 154 0004 094B     		ldr	r3, .L11
 155 0006 1B68     		ldr	r3, [r3]
 156 0008 0193     		str	r3, [sp, #4]
 157              		.loc 3 348 0
 158 000a FFF7FEFF 		bl	port_lock
 159              		.loc 3 349 0
 160 000e FFF7FEFF 		bl	_stats_start_measure_crit_thd
 161              		.loc 3 350 0
 162 0012 FFF7FEFF 		bl	_dbg_check_lock
 163              		.loc 3 351 0
 164 0016 00BF     		nop
 165 0018 044B     		ldr	r3, .L11
 166 001a 019A     		ldr	r2, [sp, #4]
 167 001c 1B68     		ldr	r3, [r3]
 168 001e 9A42     		cmp	r2, r3
 169 0020 01D0     		beq	.L10
 170 0022 FFF7FEFF 		bl	__stack_chk_fail
 171              	.L10:
ARM GAS  C:\Users\PCHAUT~1\AppData\Local\Temp\cccXcjMI.s 			page 4


 172 0026 03B0     		add	sp, sp, #12
 173              		.cfi_def_cfa_offset 4
 174              		@ sp needed
 175 0028 5DF804FB 		ldr	pc, [sp], #4
 176              	.L12:
 177              		.align	2
 178              	.L11:
 179 002c 00000000 		.word	__stack_chk_guard
 180              		.cfi_endproc
 181              	.LFE148:
 182              		.size	chSysLock, .-chSysLock
 183              		.section	.text.chSysUnlock,"ax",%progbits
 184              		.align	1
 185              		.p2align 4,,15
 186              		.syntax unified
 187              		.thumb
 188              		.thumb_func
 189              		.fpu fpv4-sp-d16
 190              		.type	chSysUnlock, %function
 191              	chSysUnlock:
 192              	.LFB149:
 193              		.loc 3 358 0
 194              		.cfi_startproc
 195              		@ args = 0, pretend = 0, frame = 8
 196              		@ frame_needed = 0, uses_anonymous_args = 0
 197 0000 00B5     		push	{lr}
 198              		.cfi_def_cfa_offset 4
 199              		.cfi_offset 14, -4
 200 0002 83B0     		sub	sp, sp, #12
 201              		.cfi_def_cfa_offset 16
 202              		.loc 3 358 0
 203 0004 114B     		ldr	r3, .L16
 204 0006 1B68     		ldr	r3, [r3]
 205 0008 0193     		str	r3, [sp, #4]
 206              		.loc 3 360 0
 207 000a FFF7FEFF 		bl	_dbg_check_unlock
 208              		.loc 3 361 0
 209 000e FFF7FEFF 		bl	_stats_stop_measure_crit_thd
 210              		.loc 3 367 0
 211 0012 0F4B     		ldr	r3, .L16+4
 212 0014 1B68     		ldr	r3, [r3]
 213 0016 0E4A     		ldr	r2, .L16+4
 214 0018 9342     		cmp	r3, r2
 215 001a 0AD0     		beq	.L14
 216              		.loc 3 367 0 is_stmt 0 discriminator 2
 217 001c 0C4B     		ldr	r3, .L16+4
 218 001e 9B69     		ldr	r3, [r3, #24]
 219 0020 9A68     		ldr	r2, [r3, #8]
 220 0022 0B4B     		ldr	r3, .L16+4
 221 0024 1B68     		ldr	r3, [r3]
 222 0026 9B68     		ldr	r3, [r3, #8]
 223 0028 9A42     		cmp	r2, r3
 224 002a 02D2     		bcs	.L14
 225              		.loc 3 367 0 discriminator 3
 226 002c 0948     		ldr	r0, .L16+8
 227 002e FFF7FEFF 		bl	chSysHalt
 228              	.L14:
ARM GAS  C:\Users\PCHAUT~1\AppData\Local\Temp\cccXcjMI.s 			page 5


 229              		.loc 3 371 0 is_stmt 1
 230 0032 FFF7FEFF 		bl	port_unlock
 231              		.loc 3 372 0
 232 0036 00BF     		nop
 233 0038 044B     		ldr	r3, .L16
 234 003a 019A     		ldr	r2, [sp, #4]
 235 003c 1B68     		ldr	r3, [r3]
 236 003e 9A42     		cmp	r2, r3
 237 0040 01D0     		beq	.L15
 238 0042 FFF7FEFF 		bl	__stack_chk_fail
 239              	.L15:
 240 0046 03B0     		add	sp, sp, #12
 241              		.cfi_def_cfa_offset 4
 242              		@ sp needed
 243 0048 5DF804FB 		ldr	pc, [sp], #4
 244              	.L17:
 245              		.align	2
 246              	.L16:
 247 004c 00000000 		.word	__stack_chk_guard
 248 0050 00000000 		.word	ch
 249 0054 00000000 		.word	__func__.8875
 250              		.cfi_endproc
 251              	.LFE149:
 252              		.size	chSysUnlock, .-chSysUnlock
 253              		.section	.text.mpu_enable,"ax",%progbits
 254              		.align	1
 255              		.p2align 4,,15
 256              		.global	mpu_enable
 257              		.syntax unified
 258              		.thumb
 259              		.thumb_func
 260              		.fpu fpv4-sp-d16
 261              		.type	mpu_enable, %function
 262              	mpu_enable:
 263              	.LFB259:
 264              		.file 4 "../lib/e-puck2_main-processor/src/memory_protection.c"
 265              		.loc 4 35 0
 266              		.cfi_startproc
 267              		@ args = 0, pretend = 0, frame = 8
 268              		@ frame_needed = 0, uses_anonymous_args = 0
 269 0000 00B5     		push	{lr}
 270              		.cfi_def_cfa_offset 4
 271              		.cfi_offset 14, -4
 272 0002 83B0     		sub	sp, sp, #12
 273              		.cfi_def_cfa_offset 16
 274              		.loc 4 35 0
 275 0004 094B     		ldr	r3, .L20
 276 0006 1B68     		ldr	r3, [r3]
 277 0008 0193     		str	r3, [sp, #4]
 278              		.loc 4 36 0
 279 000a 094B     		ldr	r3, .L20+4
 280 000c 5B68     		ldr	r3, [r3, #4]
 281 000e 084A     		ldr	r2, .L20+4
 282 0010 43F00103 		orr	r3, r3, #1
 283 0014 5360     		str	r3, [r2, #4]
 284              		.loc 4 37 0
 285 0016 00BF     		nop
ARM GAS  C:\Users\PCHAUT~1\AppData\Local\Temp\cccXcjMI.s 			page 6


 286 0018 044B     		ldr	r3, .L20
 287 001a 019A     		ldr	r2, [sp, #4]
 288 001c 1B68     		ldr	r3, [r3]
 289 001e 9A42     		cmp	r2, r3
 290 0020 01D0     		beq	.L19
 291 0022 FFF7FEFF 		bl	__stack_chk_fail
 292              	.L19:
 293 0026 03B0     		add	sp, sp, #12
 294              		.cfi_def_cfa_offset 4
 295              		@ sp needed
 296 0028 5DF804FB 		ldr	pc, [sp], #4
 297              	.L21:
 298              		.align	2
 299              	.L20:
 300 002c 00000000 		.word	__stack_chk_guard
 301 0030 90ED00E0 		.word	-536810096
 302              		.cfi_endproc
 303              	.LFE259:
 304              		.size	mpu_enable, .-mpu_enable
 305              		.section	.text.mpu_disable,"ax",%progbits
 306              		.align	1
 307              		.p2align 4,,15
 308              		.global	mpu_disable
 309              		.syntax unified
 310              		.thumb
 311              		.thumb_func
 312              		.fpu fpv4-sp-d16
 313              		.type	mpu_disable, %function
 314              	mpu_disable:
 315              	.LFB260:
 316              		.loc 4 40 0
 317              		.cfi_startproc
 318              		@ args = 0, pretend = 0, frame = 8
 319              		@ frame_needed = 0, uses_anonymous_args = 0
 320 0000 00B5     		push	{lr}
 321              		.cfi_def_cfa_offset 4
 322              		.cfi_offset 14, -4
 323 0002 83B0     		sub	sp, sp, #12
 324              		.cfi_def_cfa_offset 16
 325              		.loc 4 40 0
 326 0004 094B     		ldr	r3, .L24
 327 0006 1B68     		ldr	r3, [r3]
 328 0008 0193     		str	r3, [sp, #4]
 329              		.loc 4 41 0
 330 000a 094B     		ldr	r3, .L24+4
 331 000c 5B68     		ldr	r3, [r3, #4]
 332 000e 084A     		ldr	r2, .L24+4
 333 0010 23F00103 		bic	r3, r3, #1
 334 0014 5360     		str	r3, [r2, #4]
 335              		.loc 4 42 0
 336 0016 00BF     		nop
 337 0018 044B     		ldr	r3, .L24
 338 001a 019A     		ldr	r2, [sp, #4]
 339 001c 1B68     		ldr	r3, [r3]
 340 001e 9A42     		cmp	r2, r3
 341 0020 01D0     		beq	.L23
 342 0022 FFF7FEFF 		bl	__stack_chk_fail
ARM GAS  C:\Users\PCHAUT~1\AppData\Local\Temp\cccXcjMI.s 			page 7


 343              	.L23:
 344 0026 03B0     		add	sp, sp, #12
 345              		.cfi_def_cfa_offset 4
 346              		@ sp needed
 347 0028 5DF804FB 		ldr	pc, [sp], #4
 348              	.L25:
 349              		.align	2
 350              	.L24:
 351 002c 00000000 		.word	__stack_chk_guard
 352 0030 90ED00E0 		.word	-536810096
 353              		.cfi_endproc
 354              	.LFE260:
 355              		.size	mpu_disable, .-mpu_disable
 356              		.section	.text.mpu_configure_region,"ax",%progbits
 357              		.align	1
 358              		.p2align 4,,15
 359              		.global	mpu_configure_region
 360              		.syntax unified
 361              		.thumb
 362              		.thumb_func
 363              		.fpu fpv4-sp-d16
 364              		.type	mpu_configure_region, %function
 365              	mpu_configure_region:
 366              	.LFB261:
 367              		.loc 4 46 0
 368              		.cfi_startproc
 369              		@ args = 4, pretend = 0, frame = 24
 370              		@ frame_needed = 0, uses_anonymous_args = 0
 371 0000 00B5     		push	{lr}
 372              		.cfi_def_cfa_offset 4
 373              		.cfi_offset 14, -4
 374 0002 87B0     		sub	sp, sp, #28
 375              		.cfi_def_cfa_offset 32
 376 0004 0390     		str	r0, [sp, #12]
 377 0006 0291     		str	r1, [sp, #8]
 378 0008 0192     		str	r2, [sp, #4]
 379 000a 8DF80330 		strb	r3, [sp, #3]
 380 000e 9DF82030 		ldrb	r3, [sp, #32]
 381 0012 8DF80230 		strb	r3, [sp, #2]
 382              		.loc 4 46 0
 383 0016 244B     		ldr	r3, .L30
 384 0018 1B68     		ldr	r3, [r3]
 385 001a 0593     		str	r3, [sp, #20]
 386              		.loc 4 47 0
 387 001c 0023     		movs	r3, #0
 388 001e 0493     		str	r3, [sp, #16]
 389              		.loc 4 49 0
 390 0020 019B     		ldr	r3, [sp, #4]
 391 0022 042B     		cmp	r3, #4
 392 0024 02D8     		bhi	.L27
 393              		.loc 4 49 0 is_stmt 0 discriminator 2
 394 0026 2148     		ldr	r0, .L30+4
 395 0028 FFF7FEFF 		bl	chSysHalt
 396              	.L27:
 397              		.loc 4 52 0 is_stmt 1
 398 002c 039B     		ldr	r3, [sp, #12]
 399 002e 03F00F03 		and	r3, r3, #15
ARM GAS  C:\Users\PCHAUT~1\AppData\Local\Temp\cccXcjMI.s 			page 8


 400 0032 0393     		str	r3, [sp, #12]
 401              		.loc 4 53 0
 402 0034 029B     		ldr	r3, [sp, #8]
 403 0036 23F01F03 		bic	r3, r3, #31
 404 003a 0293     		str	r3, [sp, #8]
 405              		.loc 4 56 0
 406 003c 9DF80230 		ldrb	r3, [sp, #2]
 407 0040 83F00103 		eor	r3, r3, #1
 408 0044 DBB2     		uxtb	r3, r3
 409 0046 002B     		cmp	r3, #0
 410 0048 03D0     		beq	.L28
 411              		.loc 4 57 0
 412 004a 049B     		ldr	r3, [sp, #16]
 413 004c 03F18053 		add	r3, r3, #268435456
 414 0050 0493     		str	r3, [sp, #16]
 415              	.L28:
 416              		.loc 4 61 0
 417 0052 9DF80330 		ldrb	r3, [sp, #3]	@ zero_extendqisi2
 418 0056 1B06     		lsls	r3, r3, #24
 419 0058 049A     		ldr	r2, [sp, #16]
 420 005a 1344     		add	r3, r3, r2
 421 005c 0493     		str	r3, [sp, #16]
 422              		.loc 4 62 0
 423 005e 019B     		ldr	r3, [sp, #4]
 424 0060 013B     		subs	r3, r3, #1
 425 0062 5A00     		lsls	r2, r3, #1
 426 0064 049B     		ldr	r3, [sp, #16]
 427 0066 1344     		add	r3, r3, r2
 428 0068 0493     		str	r3, [sp, #16]
 429              		.loc 4 63 0
 430 006a 049B     		ldr	r3, [sp, #16]
 431 006c 0133     		adds	r3, r3, #1
 432 006e 0493     		str	r3, [sp, #16]
 433              		.loc 4 65 0
 434 0070 FFF7FEFF 		bl	chSysLock
 435              		.loc 4 68 0
 436 0074 029A     		ldr	r2, [sp, #8]
 437 0076 039B     		ldr	r3, [sp, #12]
 438 0078 1344     		add	r3, r3, r2
 439 007a 0D4A     		ldr	r2, .L30+8
 440 007c 1033     		adds	r3, r3, #16
 441 007e D360     		str	r3, [r2, #12]
 442              		.loc 4 69 0
 443 0080 0B4A     		ldr	r2, .L30+8
 444 0082 049B     		ldr	r3, [sp, #16]
 445 0084 1361     		str	r3, [r2, #16]
 446              		.loc 4 71 0
 447 0086 FFF7FEFF 		bl	chSysUnlock
 448              	.LBB16:
 449              	.LBB17:
 450              		.file 5 "../lib/e-puck2_main-processor/ChibiOS//os/ext/CMSIS/include/core_cmInstr.h"
 451              		.loc 5 371 0
 452              		.syntax unified
 453              	@ 371 "../lib/e-puck2_main-processor/ChibiOS//os/ext/CMSIS/include/core_cmInstr.h" 1
 454 008a BFF36F8F 		isb
 455              	@ 0 "" 2
 456              		.thumb
ARM GAS  C:\Users\PCHAUT~1\AppData\Local\Temp\cccXcjMI.s 			page 9


 457              		.syntax unified
 458              	.LBE17:
 459              	.LBE16:
 460              	.LBB18:
 461              	.LBB19:
 462              		.loc 5 382 0
 463              		.syntax unified
 464              	@ 382 "../lib/e-puck2_main-processor/ChibiOS//os/ext/CMSIS/include/core_cmInstr.h" 1
 465 008e BFF34F8F 		dsb
 466              	@ 0 "" 2
 467              		.thumb
 468              		.syntax unified
 469              	.LBE19:
 470              	.LBE18:
 471              		.loc 4 76 0
 472 0092 00BF     		nop
 473 0094 044B     		ldr	r3, .L30
 474 0096 059A     		ldr	r2, [sp, #20]
 475 0098 1B68     		ldr	r3, [r3]
 476 009a 9A42     		cmp	r2, r3
 477 009c 01D0     		beq	.L29
 478 009e FFF7FEFF 		bl	__stack_chk_fail
 479              	.L29:
 480 00a2 07B0     		add	sp, sp, #28
 481              		.cfi_def_cfa_offset 4
 482              		@ sp needed
 483 00a4 5DF804FB 		ldr	pc, [sp], #4
 484              	.L31:
 485              		.align	2
 486              	.L30:
 487 00a8 00000000 		.word	__stack_chk_guard
 488 00ac 00000000 		.word	__func__.11595
 489 00b0 90ED00E0 		.word	-536810096
 490              		.cfi_endproc
 491              	.LFE261:
 492              		.size	mpu_configure_region, .-mpu_configure_region
 493              		.section	.text.mpu_init,"ax",%progbits
 494              		.align	1
 495              		.p2align 4,,15
 496              		.global	mpu_init
 497              		.syntax unified
 498              		.thumb
 499              		.thumb_func
 500              		.fpu fpv4-sp-d16
 501              		.type	mpu_init, %function
 502              	mpu_init:
 503              	.LFB262:
 504              		.loc 4 79 0
 505              		.cfi_startproc
 506              		@ args = 0, pretend = 0, frame = 16
 507              		@ frame_needed = 0, uses_anonymous_args = 0
 508 0000 00B5     		push	{lr}
 509              		.cfi_def_cfa_offset 4
 510              		.cfi_offset 14, -4
 511 0002 87B0     		sub	sp, sp, #28
 512              		.cfi_def_cfa_offset 32
 513              		.loc 4 79 0
ARM GAS  C:\Users\PCHAUT~1\AppData\Local\Temp\cccXcjMI.s 			page 10


 514 0004 184B     		ldr	r3, .L34
 515 0006 1B68     		ldr	r3, [r3]
 516 0008 0593     		str	r3, [sp, #20]
 517              		.loc 4 81 0
 518 000a 184B     		ldr	r3, .L34+4
 519 000c 5B68     		ldr	r3, [r3, #4]
 520 000e 174A     		ldr	r2, .L34+4
 521 0010 43F00403 		orr	r3, r3, #4
 522 0014 5360     		str	r3, [r2, #4]
 523              		.loc 4 84 0
 524 0016 164B     		ldr	r3, .L34+8
 525 0018 5B6A     		ldr	r3, [r3, #36]
 526 001a 154A     		ldr	r2, .L34+8
 527 001c 43F48033 		orr	r3, r3, #65536
 528 0020 5362     		str	r3, [r2, #36]
 529              		.loc 4 87 0
 530 0022 0023     		movs	r3, #0
 531 0024 0093     		str	r3, [sp]
 532 0026 0023     		movs	r3, #0
 533 0028 0522     		movs	r2, #5
 534 002a 0021     		movs	r1, #0
 535 002c 0720     		movs	r0, #7
 536 002e FFF7FEFF 		bl	mpu_configure_region
 537              		.loc 4 94 0
 538 0032 4FF00053 		mov	r3, #536870912
 539 0036 0393     		str	r3, [sp, #12]
 540              		.loc 4 95 0
 541 0038 1D23     		movs	r3, #29
 542 003a 0493     		str	r3, [sp, #16]
 543              		.loc 4 96 0
 544 003c 049A     		ldr	r2, [sp, #16]
 545 003e 0023     		movs	r3, #0
 546 0040 0093     		str	r3, [sp]
 547 0042 0323     		movs	r3, #3
 548 0044 0399     		ldr	r1, [sp, #12]
 549 0046 0020     		movs	r0, #0
 550 0048 FFF7FEFF 		bl	mpu_configure_region
 551              		.loc 4 98 0
 552 004c FFF7FEFF 		bl	mpu_enable
 553              		.loc 4 99 0
 554 0050 00BF     		nop
 555 0052 054B     		ldr	r3, .L34
 556 0054 059A     		ldr	r2, [sp, #20]
 557 0056 1B68     		ldr	r3, [r3]
 558 0058 9A42     		cmp	r2, r3
 559 005a 01D0     		beq	.L33
 560 005c FFF7FEFF 		bl	__stack_chk_fail
 561              	.L33:
 562 0060 07B0     		add	sp, sp, #28
 563              		.cfi_def_cfa_offset 4
 564              		@ sp needed
 565 0062 5DF804FB 		ldr	pc, [sp], #4
 566              	.L35:
 567 0066 00BF     		.align	2
 568              	.L34:
 569 0068 00000000 		.word	__stack_chk_guard
 570 006c 90ED00E0 		.word	-536810096
ARM GAS  C:\Users\PCHAUT~1\AppData\Local\Temp\cccXcjMI.s 			page 11


 571 0070 00ED00E0 		.word	-536810240
 572              		.cfi_endproc
 573              	.LFE262:
 574              		.size	mpu_init, .-mpu_init
 575              		.section	.rodata
 576              		.align	2
 577              	.LC0:
 578 0000 496E7661 		.ascii	"Invalid access to %p (pc=%p)\000"
 578      6C696420 
 578      61636365 
 578      73732074 
 578      6F202570 
 579 001d 000000   		.align	2
 580              	.LC1:
 581 0020 4A756D70 		.ascii	"Jumped to XN region %p (lr_thd=%p)\000"
 581      65642074 
 581      6F20584E 
 581      20726567 
 581      696F6E20 
 582              		.section	.text.MemManage_Handler,"ax",%progbits
 583              		.align	1
 584              		.p2align 4,,15
 585              		.global	MemManage_Handler
 586              		.syntax unified
 587              		.thumb
 588              		.thumb_func
 589              		.fpu fpv4-sp-d16
 590              		.type	MemManage_Handler, %function
 591              	MemManage_Handler:
 592              	.LFB263:
 593              		.loc 4 102 0
 594              		.cfi_startproc
 595              		@ args = 0, pretend = 0, frame = 112
 596              		@ frame_needed = 0, uses_anonymous_args = 0
 597 0000 10B5     		push	{r4, lr}
 598              		.cfi_def_cfa_offset 8
 599              		.cfi_offset 4, -8
 600              		.cfi_offset 14, -4
 601 0002 9EB0     		sub	sp, sp, #120
 602              		.cfi_def_cfa_offset 128
 603              		.loc 4 102 0
 604 0004 204B     		ldr	r3, .L41
 605 0006 1B68     		ldr	r3, [r3]
 606 0008 1D93     		str	r3, [sp, #116]
 607              		.loc 4 106 0
 608 000a 2049     		ldr	r1, .L41+4
 609 000c 2048     		ldr	r0, .L41+8
 610 000e FFF7FEFF 		bl	strcpy
 611              	.LBB20:
 612              	.LBB21:
 613              		.loc 2 428 0
 614              		.syntax unified
 615              	@ 428 "../lib/e-puck2_main-processor/ChibiOS//os/ext/CMSIS/include/core_cmFunc.h" 1
 616 0012 EFF30983 		MRS r3, psp
 617              	
 618              	@ 0 "" 2
 619              		.thumb
ARM GAS  C:\Users\PCHAUT~1\AppData\Local\Temp\cccXcjMI.s 			page 12


 620              		.syntax unified
 621 0016 1C46     		mov	r4, r3
 622              		.loc 2 429 0
 623 0018 2346     		mov	r3, r4
 624              	.LBE21:
 625              	.LBE20:
 626              		.loc 4 111 0
 627 001a 1946     		mov	r1, r3
 628 001c 03AB     		add	r3, sp, #12
 629 001e 6822     		movs	r2, #104
 630 0020 1846     		mov	r0, r3
 631 0022 FFF7FEFF 		bl	memcpy
 632              		.loc 4 114 0
 633 0026 1B4B     		ldr	r3, .L41+12
 634 0028 9B6A     		ldr	r3, [r3, #40]
 635 002a DBB2     		uxtb	r3, r3
 636 002c 0293     		str	r3, [sp, #8]
 637              		.loc 4 117 0
 638 002e 029B     		ldr	r3, [sp, #8]
 639 0030 03F00203 		and	r3, r3, #2
 640 0034 002B     		cmp	r3, #0
 641 0036 0AD0     		beq	.L38
 642              		.loc 4 119 0
 643 0038 164B     		ldr	r3, .L41+12
 644 003a 5B6B     		ldr	r3, [r3, #52]
 645              		.loc 4 118 0
 646 003c 1A46     		mov	r2, r3
 647 003e 099B     		ldr	r3, [sp, #36]
 648 0040 0093     		str	r3, [sp]
 649 0042 1346     		mov	r3, r2
 650 0044 144A     		ldr	r2, .L41+16
 651 0046 8021     		movs	r1, #128
 652 0048 1148     		ldr	r0, .L41+8
 653 004a FFF7FEFF 		bl	snprintf
 654              	.L38:
 655              		.loc 4 123 0
 656 004e 029B     		ldr	r3, [sp, #8]
 657 0050 03F00103 		and	r3, r3, #1
 658 0054 002B     		cmp	r3, #0
 659 0056 0AD0     		beq	.L39
 660              		.loc 4 126 0
 661 0058 0E4B     		ldr	r3, .L41+12
 662 005a 5B6B     		ldr	r3, [r3, #52]
 663              		.loc 4 124 0
 664 005c 1A46     		mov	r2, r3
 665 005e 089B     		ldr	r3, [sp, #32]
 666 0060 0093     		str	r3, [sp]
 667 0062 1346     		mov	r3, r2
 668 0064 0D4A     		ldr	r2, .L41+20
 669 0066 8021     		movs	r1, #128
 670 0068 0948     		ldr	r0, .L41+8
 671 006a FFF7FEFF 		bl	snprintf
 672              	.L39:
 673              		.loc 4 129 0
 674 006e 0848     		ldr	r0, .L41+8
 675 0070 FFF7FEFF 		bl	chSysHalt
 676              		.loc 4 130 0
ARM GAS  C:\Users\PCHAUT~1\AppData\Local\Temp\cccXcjMI.s 			page 13


 677 0074 00BF     		nop
 678 0076 044B     		ldr	r3, .L41
 679 0078 1D9A     		ldr	r2, [sp, #116]
 680 007a 1B68     		ldr	r3, [r3]
 681 007c 9A42     		cmp	r2, r3
 682 007e 01D0     		beq	.L40
 683 0080 FFF7FEFF 		bl	__stack_chk_fail
 684              	.L40:
 685 0084 1EB0     		add	sp, sp, #120
 686              		.cfi_def_cfa_offset 8
 687              		@ sp needed
 688 0086 10BD     		pop	{r4, pc}
 689              	.L42:
 690              		.align	2
 691              	.L41:
 692 0088 00000000 		.word	__stack_chk_guard
 693 008c 00000000 		.word	__FUNCTION__.11605
 694 0090 00000000 		.word	msg.11604
 695 0094 00ED00E0 		.word	-536810240
 696 0098 00000000 		.word	.LC0
 697 009c 20000000 		.word	.LC1
 698              		.cfi_endproc
 699              	.LFE263:
 700              		.size	MemManage_Handler, .-MemManage_Handler
 701              		.section	.rodata.__func__.11595,"a",%progbits
 702              		.align	2
 703              		.type	__func__.11595, %object
 704              		.size	__func__.11595, 21
 705              	__func__.11595:
 706 0000 6D70755F 		.ascii	"mpu_configure_region\000"
 706      636F6E66 
 706      69677572 
 706      655F7265 
 706      67696F6E 
 707              		.section	.rodata.__func__.8875,"a",%progbits
 708              		.align	2
 709              		.type	__func__.8875, %object
 710              		.size	__func__.8875, 12
 711              	__func__.8875:
 712 0000 63685379 		.ascii	"chSysUnlock\000"
 712      73556E6C 
 712      6F636B00 
 713              		.section	.bss.msg.11604,"aw",%nobits
 714              		.align	2
 715              		.type	msg.11604, %object
 716              		.size	msg.11604, 128
 717              	msg.11604:
 718 0000 00000000 		.space	128
 718      00000000 
 718      00000000 
 718      00000000 
 718      00000000 
 719              		.section	.rodata.__FUNCTION__.11605,"a",%progbits
 720              		.align	2
 721              		.type	__FUNCTION__.11605, %object
 722              		.size	__FUNCTION__.11605, 18
 723              	__FUNCTION__.11605:
ARM GAS  C:\Users\PCHAUT~1\AppData\Local\Temp\cccXcjMI.s 			page 14


 724 0000 4D656D4D 		.ascii	"MemManage_Handler\000"
 724      616E6167 
 724      655F4861 
 724      6E646C65 
 724      7200
 725              		.text
 726              	.Letext0:
 727              		.file 6 "c:\\users\\pchautems\\documents\\robotiquetp\\eclipse_e-puck2\\tools\\gcc-arm-none-eabi-7
 728              		.file 7 "c:\\users\\pchautems\\documents\\robotiquetp\\eclipse_e-puck2\\tools\\gcc-arm-none-eabi-7
 729              		.file 8 "c:\\users\\pchautems\\documents\\robotiquetp\\eclipse_e-puck2\\tools\\gcc-arm-none-eabi-7
 730              		.file 9 "c:\\users\\pchautems\\documents\\robotiquetp\\eclipse_e-puck2\\tools\\gcc-arm-none-eabi-7
 731              		.file 10 "c:\\users\\pchautems\\documents\\robotiquetp\\eclipse_e-puck2\\tools\\gcc-arm-none-eabi-
 732              		.file 11 "c:\\users\\pchautems\\documents\\robotiquetp\\eclipse_e-puck2\\tools\\gcc-arm-none-eabi-
 733              		.file 12 "c:\\users\\pchautems\\documents\\robotiquetp\\eclipse_e-puck2\\tools\\gcc-arm-none-eabi-
 734              		.file 13 "../lib/e-puck2_main-processor/ChibiOS//os/rt/ports/ARMCMx/compilers/GCC/chtypes.h"
 735              		.file 14 "../lib/e-puck2_main-processor/ChibiOS//os/rt/include/chsystypes.h"
 736              		.file 15 "../lib/e-puck2_main-processor/ChibiOS//os/rt/include/chschd.h"
 737              		.file 16 "../lib/e-puck2_main-processor/ChibiOS//os/ext/CMSIS/include/core_cm4.h"
 738              		.file 17 "../lib/e-puck2_main-processor/ChibiOS//os/ext/CMSIS/ST/system_stm32f4xx.h"
 739              		.file 18 "../lib/e-puck2_main-processor/ChibiOS//os/ext/CMSIS/ST/stm32f407xx.h"
 740              		.file 19 "../lib/e-puck2_main-processor/ChibiOS//os/rt/ports/ARMCMx/chcore.h"
 741              		.file 20 "../lib/e-puck2_main-processor/ChibiOS//os/rt/include/chdebug.h"
 742              		.file 21 "../lib/e-puck2_main-processor/ChibiOS//os/rt/include/chtm.h"
 743              		.file 22 "../lib/e-puck2_main-processor/ChibiOS//os/rt/include/chstats.h"
 744              		.file 23 "../lib/e-puck2_main-processor/ChibiOS//os/rt/include/chsem.h"
 745              		.file 24 "../lib/e-puck2_main-processor/ChibiOS//os/rt/include/chmtx.h"
 746              		.file 25 "../lib/e-puck2_main-processor/ChibiOS//os/rt/include/chregistry.h"
 747              		.file 26 "../lib/e-puck2_main-processor/ChibiOS//os/rt/include/chevents.h"
 748              		.file 27 "../lib/e-puck2_main-processor/ChibiOS//os/rt/include/chqueues.h"
 749              		.file 28 "../lib/e-puck2_main-processor/ChibiOS//os/hal/ports/STM32/STM32F4xx/stm32_dma.h"
 750              		.file 29 "../lib/e-puck2_main-processor/ChibiOS//os/hal/include/hal_ioblock.h"
 751              		.file 30 "../lib/e-puck2_main-processor/ChibiOS//os/hal/ports/STM32/LLD/GPIOv2/pal_lld.h"
 752              		.file 31 "../lib/e-puck2_main-processor/ChibiOS//os/hal/include/adc.h"
 753              		.file 32 "../lib/e-puck2_main-processor/ChibiOS//os/hal/ports/STM32/STM32F4xx/adc_lld.h"
 754              		.file 33 "../lib/e-puck2_main-processor/ChibiOS//os/hal/include/can.h"
 755              		.file 34 "../lib/e-puck2_main-processor/ChibiOS//os/hal/ports/STM32/LLD/can_lld.h"
 756              		.file 35 "../lib/e-puck2_main-processor/ChibiOS//os/hal/include/dac.h"
 757              		.file 36 "../lib/e-puck2_main-processor/ChibiOS//os/hal/ports/STM32/LLD/DACv1/dac_lld.h"
 758              		.file 37 "../lib/e-puck2_main-processor/ChibiOS//os/hal/include/ext.h"
 759              		.file 38 "../lib/e-puck2_main-processor/ChibiOS//os/hal/ports/STM32/LLD/ext_lld.h"
 760              		.file 39 "../lib/e-puck2_main-processor/ChibiOS//os/hal/include/gpt.h"
 761              		.file 40 "../lib/e-puck2_main-processor/ChibiOS//os/hal/ports/STM32/LLD/TIMv1/gpt_lld.h"
 762              		.file 41 "../lib/e-puck2_main-processor/ChibiOS//os/hal/ports/STM32/LLD/TIMv1/stm32_tim.h"
 763              		.file 42 "../lib/e-puck2_main-processor/ChibiOS//os/hal/include/i2c.h"
 764              		.file 43 "../lib/e-puck2_main-processor/ChibiOS//os/hal/ports/STM32/LLD/I2Cv1/i2c_lld.h"
 765              		.file 44 "../lib/e-puck2_main-processor/ChibiOS//os/hal/include/i2s.h"
 766              		.file 45 "../lib/e-puck2_main-processor/ChibiOS//os/hal/ports/STM32/LLD/SPIv1/i2s_lld.h"
 767              		.file 46 "../lib/e-puck2_main-processor/ChibiOS//os/hal/include/pwm.h"
 768              		.file 47 "../lib/e-puck2_main-processor/ChibiOS//os/hal/ports/STM32/LLD/TIMv1/pwm_lld.h"
 769              		.file 48 "../lib/e-puck2_main-processor/ChibiOS//os/hal/include/serial.h"
 770              		.file 49 "../lib/e-puck2_main-processor/ChibiOS//os/hal/ports/STM32/LLD/USARTv1/serial_lld.h"
 771              		.file 50 "../lib/e-puck2_main-processor/ChibiOS//os/hal/include/sdc.h"
 772              		.file 51 "../lib/e-puck2_main-processor/ChibiOS//os/hal/ports/STM32/LLD/sdc_lld.h"
 773              		.file 52 "../lib/e-puck2_main-processor/ChibiOS//os/hal/include/spi.h"
 774              		.file 53 "../lib/e-puck2_main-processor/ChibiOS//os/hal/ports/STM32/LLD/SPIv1/spi_lld.h"
 775              		.file 54 "../lib/e-puck2_main-processor/ChibiOS//os/hal/include/usb.h"
 776              		.file 55 "../lib/e-puck2_main-processor/ChibiOS//os/hal/ports/STM32/LLD/OTGv1/usb_lld.h"
ARM GAS  C:\Users\PCHAUT~1\AppData\Local\Temp\cccXcjMI.s 			page 15


 777              		.file 56 "../lib/e-puck2_main-processor/ChibiOS//os/hal/ports/STM32/LLD/OTGv1/stm32_otg.h"
 778              		.file 57 "../lib/e-puck2_main-processor/src/memory_protection.h"