ARM GAS  C:\Users\PCHAUT~1\AppData\Local\Temp\ccJh8K3O.s 			page 1


   1              		.cpu cortex-m4
   2              		.eabi_attribute 27, 1
   3              		.eabi_attribute 28, 1
   4              		.eabi_attribute 20, 1
   5              		.eabi_attribute 21, 1
   6              		.eabi_attribute 23, 3
   7              		.eabi_attribute 24, 1
   8              		.eabi_attribute 25, 1
   9              		.eabi_attribute 26, 1
  10              		.eabi_attribute 30, 6
  11              		.eabi_attribute 34, 1
  12              		.eabi_attribute 18, 4
  13              		.file	"messagebus.c"
  14              		.text
  15              	.Ltext0:
  16              		.cfi_sections	.debug_frame
  17              		.section	.text.topic_by_name,"ax",%progbits
  18              		.align	1
  19              		.p2align 4,,15
  20              		.syntax unified
  21              		.thumb
  22              		.thumb_func
  23              		.fpu fpv4-sp-d16
  24              		.type	topic_by_name, %function
  25              	topic_by_name:
  26              	.LFB0:
  27              		.file 1 "../lib/e-puck2_main-processor/src/msgbus/messagebus.c"
  28              		.loc 1 5 0
  29              		.cfi_startproc
  30              		@ args = 0, pretend = 0, frame = 16
  31              		@ frame_needed = 0, uses_anonymous_args = 0
  32 0000 00B5     		push	{lr}
  33              		.cfi_def_cfa_offset 4
  34              		.cfi_offset 14, -4
  35 0002 85B0     		sub	sp, sp, #20
  36              		.cfi_def_cfa_offset 24
  37 0004 0190     		str	r0, [sp, #4]
  38 0006 0091     		str	r1, [sp]
  39              		.loc 1 5 0
  40 0008 114B     		ldr	r3, .L7
  41 000a 1B68     		ldr	r3, [r3]
  42 000c 0393     		str	r3, [sp, #12]
  43              		.loc 1 7 0
  44 000e 019B     		ldr	r3, [sp, #4]
  45 0010 1B68     		ldr	r3, [r3]
  46 0012 0293     		str	r3, [sp, #8]
  47 0014 0DE0     		b	.L2
  48              	.L5:
  49              		.loc 1 8 0
  50 0016 029B     		ldr	r3, [sp, #8]
  51 0018 1033     		adds	r3, r3, #16
  52 001a 1946     		mov	r1, r3
  53 001c 0098     		ldr	r0, [sp]
  54 001e FFF7FEFF 		bl	strcmp
  55 0022 0346     		mov	r3, r0
  56 0024 002B     		cmp	r3, #0
  57 0026 01D1     		bne	.L3
ARM GAS  C:\Users\PCHAUT~1\AppData\Local\Temp\ccJh8K3O.s 			page 2


  58              		.loc 1 9 0
  59 0028 029B     		ldr	r3, [sp, #8]
  60 002a 06E0     		b	.L4
  61              	.L3:
  62              		.loc 1 7 0 discriminator 2
  63 002c 029B     		ldr	r3, [sp, #8]
  64 002e 9B6D     		ldr	r3, [r3, #88]
  65 0030 0293     		str	r3, [sp, #8]
  66              	.L2:
  67              		.loc 1 7 0 is_stmt 0 discriminator 1
  68 0032 029B     		ldr	r3, [sp, #8]
  69 0034 002B     		cmp	r3, #0
  70 0036 EED1     		bne	.L5
  71              		.loc 1 13 0 is_stmt 1
  72 0038 0023     		movs	r3, #0
  73              	.L4:
  74              		.loc 1 14 0
  75 003a 1846     		mov	r0, r3
  76 003c 044B     		ldr	r3, .L7
  77 003e 039A     		ldr	r2, [sp, #12]
  78 0040 1B68     		ldr	r3, [r3]
  79 0042 9A42     		cmp	r2, r3
  80 0044 01D0     		beq	.L6
  81 0046 FFF7FEFF 		bl	__stack_chk_fail
  82              	.L6:
  83 004a 05B0     		add	sp, sp, #20
  84              		.cfi_def_cfa_offset 4
  85              		@ sp needed
  86 004c 5DF804FB 		ldr	pc, [sp], #4
  87              	.L8:
  88              		.align	2
  89              	.L7:
  90 0050 00000000 		.word	__stack_chk_guard
  91              		.cfi_endproc
  92              	.LFE0:
  93              		.size	topic_by_name, .-topic_by_name
  94              		.section	.text.messagebus_init,"ax",%progbits
  95              		.align	1
  96              		.p2align 4,,15
  97              		.global	messagebus_init
  98              		.syntax unified
  99              		.thumb
 100              		.thumb_func
 101              		.fpu fpv4-sp-d16
 102              		.type	messagebus_init, %function
 103              	messagebus_init:
 104              	.LFB1:
 105              		.loc 1 17 0
 106              		.cfi_startproc
 107              		@ args = 0, pretend = 0, frame = 24
 108              		@ frame_needed = 0, uses_anonymous_args = 0
 109 0000 00B5     		push	{lr}
 110              		.cfi_def_cfa_offset 4
 111              		.cfi_offset 14, -4
 112 0002 87B0     		sub	sp, sp, #28
 113              		.cfi_def_cfa_offset 32
 114 0004 0390     		str	r0, [sp, #12]
ARM GAS  C:\Users\PCHAUT~1\AppData\Local\Temp\ccJh8K3O.s 			page 3


 115 0006 0291     		str	r1, [sp, #8]
 116 0008 0192     		str	r2, [sp, #4]
 117              		.loc 1 17 0
 118 000a 0C4B     		ldr	r3, .L11
 119 000c 1B68     		ldr	r3, [r3]
 120 000e 0593     		str	r3, [sp, #20]
 121              		.loc 1 18 0
 122 0010 0C22     		movs	r2, #12
 123 0012 0021     		movs	r1, #0
 124 0014 0398     		ldr	r0, [sp, #12]
 125 0016 FFF7FEFF 		bl	memset
 126              		.loc 1 19 0
 127 001a 039B     		ldr	r3, [sp, #12]
 128 001c 029A     		ldr	r2, [sp, #8]
 129 001e 5A60     		str	r2, [r3, #4]
 130              		.loc 1 20 0
 131 0020 039B     		ldr	r3, [sp, #12]
 132 0022 019A     		ldr	r2, [sp, #4]
 133 0024 9A60     		str	r2, [r3, #8]
 134              		.loc 1 21 0
 135 0026 00BF     		nop
 136 0028 044B     		ldr	r3, .L11
 137 002a 059A     		ldr	r2, [sp, #20]
 138 002c 1B68     		ldr	r3, [r3]
 139 002e 9A42     		cmp	r2, r3
 140 0030 01D0     		beq	.L10
 141 0032 FFF7FEFF 		bl	__stack_chk_fail
 142              	.L10:
 143 0036 07B0     		add	sp, sp, #28
 144              		.cfi_def_cfa_offset 4
 145              		@ sp needed
 146 0038 5DF804FB 		ldr	pc, [sp], #4
 147              	.L12:
 148              		.align	2
 149              	.L11:
 150 003c 00000000 		.word	__stack_chk_guard
 151              		.cfi_endproc
 152              	.LFE1:
 153              		.size	messagebus_init, .-messagebus_init
 154              		.section	.text.messagebus_topic_init,"ax",%progbits
 155              		.align	1
 156              		.p2align 4,,15
 157              		.global	messagebus_topic_init
 158              		.syntax unified
 159              		.thumb
 160              		.thumb_func
 161              		.fpu fpv4-sp-d16
 162              		.type	messagebus_topic_init, %function
 163              	messagebus_topic_init:
 164              	.LFB2:
 165              		.loc 1 25 0
 166              		.cfi_startproc
 167              		@ args = 4, pretend = 0, frame = 32
 168              		@ frame_needed = 0, uses_anonymous_args = 0
 169 0000 00B5     		push	{lr}
 170              		.cfi_def_cfa_offset 4
 171              		.cfi_offset 14, -4
ARM GAS  C:\Users\PCHAUT~1\AppData\Local\Temp\ccJh8K3O.s 			page 4


 172 0002 89B0     		sub	sp, sp, #36
 173              		.cfi_def_cfa_offset 40
 174 0004 0590     		str	r0, [sp, #20]
 175 0006 0491     		str	r1, [sp, #16]
 176 0008 0392     		str	r2, [sp, #12]
 177 000a 0293     		str	r3, [sp, #8]
 178 000c 0A9B     		ldr	r3, [sp, #40]
 179 000e 0193     		str	r3, [sp, #4]
 180              		.loc 1 25 0
 181 0010 0F4B     		ldr	r3, .L15
 182 0012 1B68     		ldr	r3, [r3]
 183 0014 0793     		str	r3, [sp, #28]
 184              		.loc 1 26 0
 185 0016 5C22     		movs	r2, #92
 186 0018 0021     		movs	r1, #0
 187 001a 0598     		ldr	r0, [sp, #20]
 188 001c FFF7FEFF 		bl	memset
 189              		.loc 1 27 0
 190 0020 059B     		ldr	r3, [sp, #20]
 191 0022 029A     		ldr	r2, [sp, #8]
 192 0024 1A60     		str	r2, [r3]
 193              		.loc 1 28 0
 194 0026 059B     		ldr	r3, [sp, #20]
 195 0028 019A     		ldr	r2, [sp, #4]
 196 002a 5A60     		str	r2, [r3, #4]
 197              		.loc 1 29 0
 198 002c 059B     		ldr	r3, [sp, #20]
 199 002e 049A     		ldr	r2, [sp, #16]
 200 0030 9A60     		str	r2, [r3, #8]
 201              		.loc 1 30 0
 202 0032 059B     		ldr	r3, [sp, #20]
 203 0034 039A     		ldr	r2, [sp, #12]
 204 0036 DA60     		str	r2, [r3, #12]
 205              		.loc 1 31 0
 206 0038 00BF     		nop
 207 003a 054B     		ldr	r3, .L15
 208 003c 079A     		ldr	r2, [sp, #28]
 209 003e 1B68     		ldr	r3, [r3]
 210 0040 9A42     		cmp	r2, r3
 211 0042 01D0     		beq	.L14
 212 0044 FFF7FEFF 		bl	__stack_chk_fail
 213              	.L14:
 214 0048 09B0     		add	sp, sp, #36
 215              		.cfi_def_cfa_offset 4
 216              		@ sp needed
 217 004a 5DF804FB 		ldr	pc, [sp], #4
 218              	.L16:
 219 004e 00BF     		.align	2
 220              	.L15:
 221 0050 00000000 		.word	__stack_chk_guard
 222              		.cfi_endproc
 223              	.LFE2:
 224              		.size	messagebus_topic_init, .-messagebus_topic_init
 225              		.section	.text.messagebus_advertise_topic,"ax",%progbits
 226              		.align	1
 227              		.p2align 4,,15
 228              		.global	messagebus_advertise_topic
ARM GAS  C:\Users\PCHAUT~1\AppData\Local\Temp\ccJh8K3O.s 			page 5


 229              		.syntax unified
 230              		.thumb
 231              		.thumb_func
 232              		.fpu fpv4-sp-d16
 233              		.type	messagebus_advertise_topic, %function
 234              	messagebus_advertise_topic:
 235              	.LFB3:
 236              		.loc 1 34 0
 237              		.cfi_startproc
 238              		@ args = 0, pretend = 0, frame = 24
 239              		@ frame_needed = 0, uses_anonymous_args = 0
 240 0000 00B5     		push	{lr}
 241              		.cfi_def_cfa_offset 4
 242              		.cfi_offset 14, -4
 243 0002 87B0     		sub	sp, sp, #28
 244              		.cfi_def_cfa_offset 32
 245 0004 0390     		str	r0, [sp, #12]
 246 0006 0291     		str	r1, [sp, #8]
 247 0008 0192     		str	r2, [sp, #4]
 248              		.loc 1 34 0
 249 000a 1B4B     		ldr	r3, .L20
 250 000c 1B68     		ldr	r3, [r3]
 251 000e 0593     		str	r3, [sp, #20]
 252              		.loc 1 35 0
 253 0010 029B     		ldr	r3, [sp, #8]
 254 0012 1033     		adds	r3, r3, #16
 255 0014 4122     		movs	r2, #65
 256 0016 0021     		movs	r1, #0
 257 0018 1846     		mov	r0, r3
 258 001a FFF7FEFF 		bl	memset
 259              		.loc 1 36 0
 260 001e 029B     		ldr	r3, [sp, #8]
 261 0020 1033     		adds	r3, r3, #16
 262 0022 4022     		movs	r2, #64
 263 0024 0199     		ldr	r1, [sp, #4]
 264 0026 1846     		mov	r0, r3
 265 0028 FFF7FEFF 		bl	strncpy
 266              		.loc 1 38 0
 267 002c 039B     		ldr	r3, [sp, #12]
 268 002e 5B68     		ldr	r3, [r3, #4]
 269 0030 1846     		mov	r0, r3
 270 0032 FFF7FEFF 		bl	messagebus_lock_acquire
 271              		.loc 1 40 0
 272 0036 039B     		ldr	r3, [sp, #12]
 273 0038 1B68     		ldr	r3, [r3]
 274 003a 002B     		cmp	r3, #0
 275 003c 03D0     		beq	.L18
 276              		.loc 1 41 0
 277 003e 039B     		ldr	r3, [sp, #12]
 278 0040 1A68     		ldr	r2, [r3]
 279 0042 029B     		ldr	r3, [sp, #8]
 280 0044 9A65     		str	r2, [r3, #88]
 281              	.L18:
 282              		.loc 1 43 0
 283 0046 039B     		ldr	r3, [sp, #12]
 284 0048 029A     		ldr	r2, [sp, #8]
 285 004a 1A60     		str	r2, [r3]
ARM GAS  C:\Users\PCHAUT~1\AppData\Local\Temp\ccJh8K3O.s 			page 6


 286              		.loc 1 45 0
 287 004c 039B     		ldr	r3, [sp, #12]
 288 004e 9B68     		ldr	r3, [r3, #8]
 289 0050 1846     		mov	r0, r3
 290 0052 FFF7FEFF 		bl	messagebus_condvar_broadcast
 291              		.loc 1 47 0
 292 0056 039B     		ldr	r3, [sp, #12]
 293 0058 5B68     		ldr	r3, [r3, #4]
 294 005a 1846     		mov	r0, r3
 295 005c FFF7FEFF 		bl	messagebus_lock_release
 296              		.loc 1 48 0
 297 0060 00BF     		nop
 298 0062 054B     		ldr	r3, .L20
 299 0064 059A     		ldr	r2, [sp, #20]
 300 0066 1B68     		ldr	r3, [r3]
 301 0068 9A42     		cmp	r2, r3
 302 006a 01D0     		beq	.L19
 303 006c FFF7FEFF 		bl	__stack_chk_fail
 304              	.L19:
 305 0070 07B0     		add	sp, sp, #28
 306              		.cfi_def_cfa_offset 4
 307              		@ sp needed
 308 0072 5DF804FB 		ldr	pc, [sp], #4
 309              	.L21:
 310 0076 00BF     		.align	2
 311              	.L20:
 312 0078 00000000 		.word	__stack_chk_guard
 313              		.cfi_endproc
 314              	.LFE3:
 315              		.size	messagebus_advertise_topic, .-messagebus_advertise_topic
 316              		.section	.text.messagebus_find_topic,"ax",%progbits
 317              		.align	1
 318              		.p2align 4,,15
 319              		.global	messagebus_find_topic
 320              		.syntax unified
 321              		.thumb
 322              		.thumb_func
 323              		.fpu fpv4-sp-d16
 324              		.type	messagebus_find_topic, %function
 325              	messagebus_find_topic:
 326              	.LFB4:
 327              		.loc 1 51 0
 328              		.cfi_startproc
 329              		@ args = 0, pretend = 0, frame = 16
 330              		@ frame_needed = 0, uses_anonymous_args = 0
 331 0000 00B5     		push	{lr}
 332              		.cfi_def_cfa_offset 4
 333              		.cfi_offset 14, -4
 334 0002 85B0     		sub	sp, sp, #20
 335              		.cfi_def_cfa_offset 24
 336 0004 0190     		str	r0, [sp, #4]
 337 0006 0091     		str	r1, [sp]
 338              		.loc 1 51 0
 339 0008 0E4B     		ldr	r3, .L25
 340 000a 1B68     		ldr	r3, [r3]
 341 000c 0393     		str	r3, [sp, #12]
 342              		.loc 1 54 0
ARM GAS  C:\Users\PCHAUT~1\AppData\Local\Temp\ccJh8K3O.s 			page 7


 343 000e 019B     		ldr	r3, [sp, #4]
 344 0010 5B68     		ldr	r3, [r3, #4]
 345 0012 1846     		mov	r0, r3
 346 0014 FFF7FEFF 		bl	messagebus_lock_acquire
 347              		.loc 1 56 0
 348 0018 0099     		ldr	r1, [sp]
 349 001a 0198     		ldr	r0, [sp, #4]
 350 001c FFF7FEFF 		bl	topic_by_name
 351 0020 0290     		str	r0, [sp, #8]
 352              		.loc 1 58 0
 353 0022 019B     		ldr	r3, [sp, #4]
 354 0024 5B68     		ldr	r3, [r3, #4]
 355 0026 1846     		mov	r0, r3
 356 0028 FFF7FEFF 		bl	messagebus_lock_release
 357              		.loc 1 60 0
 358 002c 029B     		ldr	r3, [sp, #8]
 359              		.loc 1 61 0
 360 002e 1846     		mov	r0, r3
 361 0030 044B     		ldr	r3, .L25
 362 0032 039A     		ldr	r2, [sp, #12]
 363 0034 1B68     		ldr	r3, [r3]
 364 0036 9A42     		cmp	r2, r3
 365 0038 01D0     		beq	.L24
 366 003a FFF7FEFF 		bl	__stack_chk_fail
 367              	.L24:
 368 003e 05B0     		add	sp, sp, #20
 369              		.cfi_def_cfa_offset 4
 370              		@ sp needed
 371 0040 5DF804FB 		ldr	pc, [sp], #4
 372              	.L26:
 373              		.align	2
 374              	.L25:
 375 0044 00000000 		.word	__stack_chk_guard
 376              		.cfi_endproc
 377              	.LFE4:
 378              		.size	messagebus_find_topic, .-messagebus_find_topic
 379              		.section	.text.messagebus_find_topic_blocking,"ax",%progbits
 380              		.align	1
 381              		.p2align 4,,15
 382              		.global	messagebus_find_topic_blocking
 383              		.syntax unified
 384              		.thumb
 385              		.thumb_func
 386              		.fpu fpv4-sp-d16
 387              		.type	messagebus_find_topic_blocking, %function
 388              	messagebus_find_topic_blocking:
 389              	.LFB5:
 390              		.loc 1 64 0
 391              		.cfi_startproc
 392              		@ args = 0, pretend = 0, frame = 16
 393              		@ frame_needed = 0, uses_anonymous_args = 0
 394 0000 00B5     		push	{lr}
 395              		.cfi_def_cfa_offset 4
 396              		.cfi_offset 14, -4
 397 0002 85B0     		sub	sp, sp, #20
 398              		.cfi_def_cfa_offset 24
 399 0004 0190     		str	r0, [sp, #4]
ARM GAS  C:\Users\PCHAUT~1\AppData\Local\Temp\ccJh8K3O.s 			page 8


 400 0006 0091     		str	r1, [sp]
 401              		.loc 1 64 0
 402 0008 154B     		ldr	r3, .L32
 403 000a 1B68     		ldr	r3, [r3]
 404 000c 0393     		str	r3, [sp, #12]
 405              		.loc 1 65 0
 406 000e 0023     		movs	r3, #0
 407 0010 0293     		str	r3, [sp, #8]
 408              		.loc 1 67 0
 409 0012 019B     		ldr	r3, [sp, #4]
 410 0014 5B68     		ldr	r3, [r3, #4]
 411 0016 1846     		mov	r0, r3
 412 0018 FFF7FEFF 		bl	messagebus_lock_acquire
 413              		.loc 1 69 0
 414 001c 0CE0     		b	.L28
 415              	.L29:
 416              		.loc 1 70 0
 417 001e 0099     		ldr	r1, [sp]
 418 0020 0198     		ldr	r0, [sp, #4]
 419 0022 FFF7FEFF 		bl	topic_by_name
 420 0026 0290     		str	r0, [sp, #8]
 421              		.loc 1 72 0
 422 0028 029B     		ldr	r3, [sp, #8]
 423 002a 002B     		cmp	r3, #0
 424 002c 04D1     		bne	.L28
 425              		.loc 1 73 0
 426 002e 019B     		ldr	r3, [sp, #4]
 427 0030 9B68     		ldr	r3, [r3, #8]
 428 0032 1846     		mov	r0, r3
 429 0034 FFF7FEFF 		bl	messagebus_condvar_wait
 430              	.L28:
 431              		.loc 1 69 0
 432 0038 029B     		ldr	r3, [sp, #8]
 433 003a 002B     		cmp	r3, #0
 434 003c EFD0     		beq	.L29
 435              		.loc 1 77 0
 436 003e 019B     		ldr	r3, [sp, #4]
 437 0040 5B68     		ldr	r3, [r3, #4]
 438 0042 1846     		mov	r0, r3
 439 0044 FFF7FEFF 		bl	messagebus_lock_release
 440              		.loc 1 79 0
 441 0048 029B     		ldr	r3, [sp, #8]
 442              		.loc 1 80 0
 443 004a 1846     		mov	r0, r3
 444 004c 044B     		ldr	r3, .L32
 445 004e 039A     		ldr	r2, [sp, #12]
 446 0050 1B68     		ldr	r3, [r3]
 447 0052 9A42     		cmp	r2, r3
 448 0054 01D0     		beq	.L31
 449 0056 FFF7FEFF 		bl	__stack_chk_fail
 450              	.L31:
 451 005a 05B0     		add	sp, sp, #20
 452              		.cfi_def_cfa_offset 4
 453              		@ sp needed
 454 005c 5DF804FB 		ldr	pc, [sp], #4
 455              	.L33:
 456              		.align	2
ARM GAS  C:\Users\PCHAUT~1\AppData\Local\Temp\ccJh8K3O.s 			page 9


 457              	.L32:
 458 0060 00000000 		.word	__stack_chk_guard
 459              		.cfi_endproc
 460              	.LFE5:
 461              		.size	messagebus_find_topic_blocking, .-messagebus_find_topic_blocking
 462              		.section	.text.messagebus_topic_publish,"ax",%progbits
 463              		.align	1
 464              		.p2align 4,,15
 465              		.global	messagebus_topic_publish
 466              		.syntax unified
 467              		.thumb
 468              		.thumb_func
 469              		.fpu fpv4-sp-d16
 470              		.type	messagebus_topic_publish, %function
 471              	messagebus_topic_publish:
 472              	.LFB6:
 473              		.loc 1 83 0
 474              		.cfi_startproc
 475              		@ args = 0, pretend = 0, frame = 24
 476              		@ frame_needed = 0, uses_anonymous_args = 0
 477 0000 00B5     		push	{lr}
 478              		.cfi_def_cfa_offset 4
 479              		.cfi_offset 14, -4
 480 0002 87B0     		sub	sp, sp, #28
 481              		.cfi_def_cfa_offset 32
 482 0004 0390     		str	r0, [sp, #12]
 483 0006 0291     		str	r1, [sp, #8]
 484 0008 0192     		str	r2, [sp, #4]
 485              		.loc 1 83 0
 486 000a 284B     		ldr	r3, .L40
 487 000c 1B68     		ldr	r3, [r3]
 488 000e 0593     		str	r3, [sp, #20]
 489              		.loc 1 84 0
 490 0010 039B     		ldr	r3, [sp, #12]
 491 0012 5B68     		ldr	r3, [r3, #4]
 492 0014 019A     		ldr	r2, [sp, #4]
 493 0016 9A42     		cmp	r2, r3
 494 0018 01D9     		bls	.L35
 495              		.loc 1 85 0
 496 001a 0023     		movs	r3, #0
 497 001c 3AE0     		b	.L36
 498              	.L35:
 499              		.loc 1 88 0
 500 001e 039B     		ldr	r3, [sp, #12]
 501 0020 9B68     		ldr	r3, [r3, #8]
 502 0022 1846     		mov	r0, r3
 503 0024 FFF7FEFF 		bl	messagebus_lock_acquire
 504              		.loc 1 90 0
 505 0028 039B     		ldr	r3, [sp, #12]
 506 002a 1B68     		ldr	r3, [r3]
 507 002c 019A     		ldr	r2, [sp, #4]
 508 002e 0299     		ldr	r1, [sp, #8]
 509 0030 1846     		mov	r0, r3
 510 0032 FFF7FEFF 		bl	memcpy
 511              		.loc 1 91 0
 512 0036 039B     		ldr	r3, [sp, #12]
 513 0038 0122     		movs	r2, #1
ARM GAS  C:\Users\PCHAUT~1\AppData\Local\Temp\ccJh8K3O.s 			page 10


 514 003a 83F85120 		strb	r2, [r3, #81]
 515              		.loc 1 92 0
 516 003e 039B     		ldr	r3, [sp, #12]
 517 0040 DB68     		ldr	r3, [r3, #12]
 518 0042 1846     		mov	r0, r3
 519 0044 FFF7FEFF 		bl	messagebus_condvar_broadcast
 520              		.loc 1 95 0
 521 0048 039B     		ldr	r3, [sp, #12]
 522 004a 5B6D     		ldr	r3, [r3, #84]
 523 004c 0493     		str	r3, [sp, #16]
 524 004e 18E0     		b	.L37
 525              	.L38:
 526              		.loc 1 96 0 discriminator 3
 527 0050 049B     		ldr	r3, [sp, #16]
 528 0052 1B68     		ldr	r3, [r3]
 529 0054 1B68     		ldr	r3, [r3]
 530 0056 1846     		mov	r0, r3
 531 0058 FFF7FEFF 		bl	messagebus_lock_acquire
 532              		.loc 1 97 0 discriminator 3
 533 005c 049B     		ldr	r3, [sp, #16]
 534 005e 1B68     		ldr	r3, [r3]
 535 0060 039A     		ldr	r2, [sp, #12]
 536 0062 9A60     		str	r2, [r3, #8]
 537              		.loc 1 98 0 discriminator 3
 538 0064 049B     		ldr	r3, [sp, #16]
 539 0066 1B68     		ldr	r3, [r3]
 540 0068 5B68     		ldr	r3, [r3, #4]
 541 006a 1846     		mov	r0, r3
 542 006c FFF7FEFF 		bl	messagebus_condvar_broadcast
 543              		.loc 1 99 0 discriminator 3
 544 0070 049B     		ldr	r3, [sp, #16]
 545 0072 1B68     		ldr	r3, [r3]
 546 0074 1B68     		ldr	r3, [r3]
 547 0076 1846     		mov	r0, r3
 548 0078 FFF7FEFF 		bl	messagebus_lock_release
 549              		.loc 1 95 0 discriminator 3
 550 007c 049B     		ldr	r3, [sp, #16]
 551 007e 5B68     		ldr	r3, [r3, #4]
 552 0080 0493     		str	r3, [sp, #16]
 553              	.L37:
 554              		.loc 1 95 0 is_stmt 0 discriminator 1
 555 0082 049B     		ldr	r3, [sp, #16]
 556 0084 002B     		cmp	r3, #0
 557 0086 E3D1     		bne	.L38
 558              		.loc 1 102 0 is_stmt 1
 559 0088 039B     		ldr	r3, [sp, #12]
 560 008a 9B68     		ldr	r3, [r3, #8]
 561 008c 1846     		mov	r0, r3
 562 008e FFF7FEFF 		bl	messagebus_lock_release
 563              		.loc 1 104 0
 564 0092 0123     		movs	r3, #1
 565              	.L36:
 566              		.loc 1 105 0
 567 0094 1846     		mov	r0, r3
 568 0096 054B     		ldr	r3, .L40
 569 0098 059A     		ldr	r2, [sp, #20]
 570 009a 1B68     		ldr	r3, [r3]
ARM GAS  C:\Users\PCHAUT~1\AppData\Local\Temp\ccJh8K3O.s 			page 11


 571 009c 9A42     		cmp	r2, r3
 572 009e 01D0     		beq	.L39
 573 00a0 FFF7FEFF 		bl	__stack_chk_fail
 574              	.L39:
 575 00a4 07B0     		add	sp, sp, #28
 576              		.cfi_def_cfa_offset 4
 577              		@ sp needed
 578 00a6 5DF804FB 		ldr	pc, [sp], #4
 579              	.L41:
 580 00aa 00BF     		.align	2
 581              	.L40:
 582 00ac 00000000 		.word	__stack_chk_guard
 583              		.cfi_endproc
 584              	.LFE6:
 585              		.size	messagebus_topic_publish, .-messagebus_topic_publish
 586              		.section	.text.messagebus_topic_read,"ax",%progbits
 587              		.align	1
 588              		.p2align 4,,15
 589              		.global	messagebus_topic_read
 590              		.syntax unified
 591              		.thumb
 592              		.thumb_func
 593              		.fpu fpv4-sp-d16
 594              		.type	messagebus_topic_read, %function
 595              	messagebus_topic_read:
 596              	.LFB7:
 597              		.loc 1 108 0
 598              		.cfi_startproc
 599              		@ args = 0, pretend = 0, frame = 24
 600              		@ frame_needed = 0, uses_anonymous_args = 0
 601 0000 00B5     		push	{lr}
 602              		.cfi_def_cfa_offset 4
 603              		.cfi_offset 14, -4
 604 0002 87B0     		sub	sp, sp, #28
 605              		.cfi_def_cfa_offset 32
 606 0004 0390     		str	r0, [sp, #12]
 607 0006 0291     		str	r1, [sp, #8]
 608 0008 0192     		str	r2, [sp, #4]
 609              		.loc 1 108 0
 610 000a 164B     		ldr	r3, .L46
 611 000c 1B68     		ldr	r3, [r3]
 612 000e 0593     		str	r3, [sp, #20]
 613              		.loc 1 109 0
 614 0010 0023     		movs	r3, #0
 615 0012 8DF81330 		strb	r3, [sp, #19]
 616              		.loc 1 110 0
 617 0016 039B     		ldr	r3, [sp, #12]
 618 0018 9B68     		ldr	r3, [r3, #8]
 619 001a 1846     		mov	r0, r3
 620 001c FFF7FEFF 		bl	messagebus_lock_acquire
 621              		.loc 1 112 0
 622 0020 039B     		ldr	r3, [sp, #12]
 623 0022 93F85130 		ldrb	r3, [r3, #81]	@ zero_extendqisi2
 624 0026 002B     		cmp	r3, #0
 625 0028 09D0     		beq	.L43
 626              		.loc 1 113 0
 627 002a 0123     		movs	r3, #1
ARM GAS  C:\Users\PCHAUT~1\AppData\Local\Temp\ccJh8K3O.s 			page 12


 628 002c 8DF81330 		strb	r3, [sp, #19]
 629              		.loc 1 114 0
 630 0030 039B     		ldr	r3, [sp, #12]
 631 0032 1B68     		ldr	r3, [r3]
 632 0034 019A     		ldr	r2, [sp, #4]
 633 0036 1946     		mov	r1, r3
 634 0038 0298     		ldr	r0, [sp, #8]
 635 003a FFF7FEFF 		bl	memcpy
 636              	.L43:
 637              		.loc 1 117 0
 638 003e 039B     		ldr	r3, [sp, #12]
 639 0040 9B68     		ldr	r3, [r3, #8]
 640 0042 1846     		mov	r0, r3
 641 0044 FFF7FEFF 		bl	messagebus_lock_release
 642              		.loc 1 119 0
 643 0048 9DF81330 		ldrb	r3, [sp, #19]	@ zero_extendqisi2
 644              		.loc 1 120 0
 645 004c 1846     		mov	r0, r3
 646 004e 054B     		ldr	r3, .L46
 647 0050 059A     		ldr	r2, [sp, #20]
 648 0052 1B68     		ldr	r3, [r3]
 649 0054 9A42     		cmp	r2, r3
 650 0056 01D0     		beq	.L45
 651 0058 FFF7FEFF 		bl	__stack_chk_fail
 652              	.L45:
 653 005c 07B0     		add	sp, sp, #28
 654              		.cfi_def_cfa_offset 4
 655              		@ sp needed
 656 005e 5DF804FB 		ldr	pc, [sp], #4
 657              	.L47:
 658 0062 00BF     		.align	2
 659              	.L46:
 660 0064 00000000 		.word	__stack_chk_guard
 661              		.cfi_endproc
 662              	.LFE7:
 663              		.size	messagebus_topic_read, .-messagebus_topic_read
 664              		.section	.text.messagebus_topic_wait,"ax",%progbits
 665              		.align	1
 666              		.p2align 4,,15
 667              		.global	messagebus_topic_wait
 668              		.syntax unified
 669              		.thumb
 670              		.thumb_func
 671              		.fpu fpv4-sp-d16
 672              		.type	messagebus_topic_wait, %function
 673              	messagebus_topic_wait:
 674              	.LFB8:
 675              		.loc 1 123 0
 676              		.cfi_startproc
 677              		@ args = 0, pretend = 0, frame = 24
 678              		@ frame_needed = 0, uses_anonymous_args = 0
 679 0000 00B5     		push	{lr}
 680              		.cfi_def_cfa_offset 4
 681              		.cfi_offset 14, -4
 682 0002 87B0     		sub	sp, sp, #28
 683              		.cfi_def_cfa_offset 32
 684 0004 0390     		str	r0, [sp, #12]
ARM GAS  C:\Users\PCHAUT~1\AppData\Local\Temp\ccJh8K3O.s 			page 13


 685 0006 0291     		str	r1, [sp, #8]
 686 0008 0192     		str	r2, [sp, #4]
 687              		.loc 1 123 0
 688 000a 124B     		ldr	r3, .L50
 689 000c 1B68     		ldr	r3, [r3]
 690 000e 0593     		str	r3, [sp, #20]
 691              		.loc 1 124 0
 692 0010 039B     		ldr	r3, [sp, #12]
 693 0012 9B68     		ldr	r3, [r3, #8]
 694 0014 1846     		mov	r0, r3
 695 0016 FFF7FEFF 		bl	messagebus_lock_acquire
 696              		.loc 1 125 0
 697 001a 039B     		ldr	r3, [sp, #12]
 698 001c DB68     		ldr	r3, [r3, #12]
 699 001e 1846     		mov	r0, r3
 700 0020 FFF7FEFF 		bl	messagebus_condvar_wait
 701              		.loc 1 127 0
 702 0024 039B     		ldr	r3, [sp, #12]
 703 0026 1B68     		ldr	r3, [r3]
 704 0028 019A     		ldr	r2, [sp, #4]
 705 002a 1946     		mov	r1, r3
 706 002c 0298     		ldr	r0, [sp, #8]
 707 002e FFF7FEFF 		bl	memcpy
 708              		.loc 1 129 0
 709 0032 039B     		ldr	r3, [sp, #12]
 710 0034 9B68     		ldr	r3, [r3, #8]
 711 0036 1846     		mov	r0, r3
 712 0038 FFF7FEFF 		bl	messagebus_lock_release
 713              		.loc 1 130 0
 714 003c 00BF     		nop
 715 003e 054B     		ldr	r3, .L50
 716 0040 059A     		ldr	r2, [sp, #20]
 717 0042 1B68     		ldr	r3, [r3]
 718 0044 9A42     		cmp	r2, r3
 719 0046 01D0     		beq	.L49
 720 0048 FFF7FEFF 		bl	__stack_chk_fail
 721              	.L49:
 722 004c 07B0     		add	sp, sp, #28
 723              		.cfi_def_cfa_offset 4
 724              		@ sp needed
 725 004e 5DF804FB 		ldr	pc, [sp], #4
 726              	.L51:
 727 0052 00BF     		.align	2
 728              	.L50:
 729 0054 00000000 		.word	__stack_chk_guard
 730              		.cfi_endproc
 731              	.LFE8:
 732              		.size	messagebus_topic_wait, .-messagebus_topic_wait
 733              		.section	.text.messagebus_watchgroup_init,"ax",%progbits
 734              		.align	1
 735              		.p2align 4,,15
 736              		.global	messagebus_watchgroup_init
 737              		.syntax unified
 738              		.thumb
 739              		.thumb_func
 740              		.fpu fpv4-sp-d16
 741              		.type	messagebus_watchgroup_init, %function
ARM GAS  C:\Users\PCHAUT~1\AppData\Local\Temp\ccJh8K3O.s 			page 14


 742              	messagebus_watchgroup_init:
 743              	.LFB9:
 744              		.loc 1 134 0
 745              		.cfi_startproc
 746              		@ args = 0, pretend = 0, frame = 24
 747              		@ frame_needed = 0, uses_anonymous_args = 0
 748 0000 00B5     		push	{lr}
 749              		.cfi_def_cfa_offset 4
 750              		.cfi_offset 14, -4
 751 0002 87B0     		sub	sp, sp, #28
 752              		.cfi_def_cfa_offset 32
 753 0004 0390     		str	r0, [sp, #12]
 754 0006 0291     		str	r1, [sp, #8]
 755 0008 0192     		str	r2, [sp, #4]
 756              		.loc 1 134 0
 757 000a 0A4B     		ldr	r3, .L54
 758 000c 1B68     		ldr	r3, [r3]
 759 000e 0593     		str	r3, [sp, #20]
 760              		.loc 1 135 0
 761 0010 039B     		ldr	r3, [sp, #12]
 762 0012 029A     		ldr	r2, [sp, #8]
 763 0014 1A60     		str	r2, [r3]
 764              		.loc 1 136 0
 765 0016 039B     		ldr	r3, [sp, #12]
 766 0018 019A     		ldr	r2, [sp, #4]
 767 001a 5A60     		str	r2, [r3, #4]
 768              		.loc 1 137 0
 769 001c 00BF     		nop
 770 001e 054B     		ldr	r3, .L54
 771 0020 059A     		ldr	r2, [sp, #20]
 772 0022 1B68     		ldr	r3, [r3]
 773 0024 9A42     		cmp	r2, r3
 774 0026 01D0     		beq	.L53
 775 0028 FFF7FEFF 		bl	__stack_chk_fail
 776              	.L53:
 777 002c 07B0     		add	sp, sp, #28
 778              		.cfi_def_cfa_offset 4
 779              		@ sp needed
 780 002e 5DF804FB 		ldr	pc, [sp], #4
 781              	.L55:
 782 0032 00BF     		.align	2
 783              	.L54:
 784 0034 00000000 		.word	__stack_chk_guard
 785              		.cfi_endproc
 786              	.LFE9:
 787              		.size	messagebus_watchgroup_init, .-messagebus_watchgroup_init
 788              		.section	.text.messagebus_watchgroup_watch,"ax",%progbits
 789              		.align	1
 790              		.p2align 4,,15
 791              		.global	messagebus_watchgroup_watch
 792              		.syntax unified
 793              		.thumb
 794              		.thumb_func
 795              		.fpu fpv4-sp-d16
 796              		.type	messagebus_watchgroup_watch, %function
 797              	messagebus_watchgroup_watch:
 798              	.LFB10:
ARM GAS  C:\Users\PCHAUT~1\AppData\Local\Temp\ccJh8K3O.s 			page 15


 799              		.loc 1 142 0
 800              		.cfi_startproc
 801              		@ args = 0, pretend = 0, frame = 24
 802              		@ frame_needed = 0, uses_anonymous_args = 0
 803 0000 00B5     		push	{lr}
 804              		.cfi_def_cfa_offset 4
 805              		.cfi_offset 14, -4
 806 0002 87B0     		sub	sp, sp, #28
 807              		.cfi_def_cfa_offset 32
 808 0004 0390     		str	r0, [sp, #12]
 809 0006 0291     		str	r1, [sp, #8]
 810 0008 0192     		str	r2, [sp, #4]
 811              		.loc 1 142 0
 812 000a 184B     		ldr	r3, .L59
 813 000c 1B68     		ldr	r3, [r3]
 814 000e 0593     		str	r3, [sp, #20]
 815              		.loc 1 143 0
 816 0010 019B     		ldr	r3, [sp, #4]
 817 0012 9B68     		ldr	r3, [r3, #8]
 818 0014 1846     		mov	r0, r3
 819 0016 FFF7FEFF 		bl	messagebus_lock_acquire
 820              		.loc 1 144 0
 821 001a 029B     		ldr	r3, [sp, #8]
 822 001c 1B68     		ldr	r3, [r3]
 823 001e 1846     		mov	r0, r3
 824 0020 FFF7FEFF 		bl	messagebus_lock_acquire
 825              		.loc 1 146 0
 826 0024 039B     		ldr	r3, [sp, #12]
 827 0026 029A     		ldr	r2, [sp, #8]
 828 0028 1A60     		str	r2, [r3]
 829              		.loc 1 148 0
 830 002a 019B     		ldr	r3, [sp, #4]
 831 002c 5B6D     		ldr	r3, [r3, #84]
 832 002e 002B     		cmp	r3, #0
 833 0030 03D0     		beq	.L57
 834              		.loc 1 149 0
 835 0032 019B     		ldr	r3, [sp, #4]
 836 0034 5A6D     		ldr	r2, [r3, #84]
 837 0036 039B     		ldr	r3, [sp, #12]
 838 0038 5A60     		str	r2, [r3, #4]
 839              	.L57:
 840              		.loc 1 151 0
 841 003a 019B     		ldr	r3, [sp, #4]
 842 003c 039A     		ldr	r2, [sp, #12]
 843 003e 5A65     		str	r2, [r3, #84]
 844              		.loc 1 153 0
 845 0040 029B     		ldr	r3, [sp, #8]
 846 0042 1B68     		ldr	r3, [r3]
 847 0044 1846     		mov	r0, r3
 848 0046 FFF7FEFF 		bl	messagebus_lock_release
 849              		.loc 1 154 0
 850 004a 019B     		ldr	r3, [sp, #4]
 851 004c 9B68     		ldr	r3, [r3, #8]
 852 004e 1846     		mov	r0, r3
 853 0050 FFF7FEFF 		bl	messagebus_lock_release
 854              		.loc 1 155 0
 855 0054 00BF     		nop
ARM GAS  C:\Users\PCHAUT~1\AppData\Local\Temp\ccJh8K3O.s 			page 16


 856 0056 054B     		ldr	r3, .L59
 857 0058 059A     		ldr	r2, [sp, #20]
 858 005a 1B68     		ldr	r3, [r3]
 859 005c 9A42     		cmp	r2, r3
 860 005e 01D0     		beq	.L58
 861 0060 FFF7FEFF 		bl	__stack_chk_fail
 862              	.L58:
 863 0064 07B0     		add	sp, sp, #28
 864              		.cfi_def_cfa_offset 4
 865              		@ sp needed
 866 0066 5DF804FB 		ldr	pc, [sp], #4
 867              	.L60:
 868 006a 00BF     		.align	2
 869              	.L59:
 870 006c 00000000 		.word	__stack_chk_guard
 871              		.cfi_endproc
 872              	.LFE10:
 873              		.size	messagebus_watchgroup_watch, .-messagebus_watchgroup_watch
 874              		.section	.text.messagebus_watchgroup_wait,"ax",%progbits
 875              		.align	1
 876              		.p2align 4,,15
 877              		.global	messagebus_watchgroup_wait
 878              		.syntax unified
 879              		.thumb
 880              		.thumb_func
 881              		.fpu fpv4-sp-d16
 882              		.type	messagebus_watchgroup_wait, %function
 883              	messagebus_watchgroup_wait:
 884              	.LFB11:
 885              		.loc 1 158 0
 886              		.cfi_startproc
 887              		@ args = 0, pretend = 0, frame = 16
 888              		@ frame_needed = 0, uses_anonymous_args = 0
 889 0000 00B5     		push	{lr}
 890              		.cfi_def_cfa_offset 4
 891              		.cfi_offset 14, -4
 892 0002 85B0     		sub	sp, sp, #20
 893              		.cfi_def_cfa_offset 24
 894 0004 0190     		str	r0, [sp, #4]
 895              		.loc 1 158 0
 896 0006 104B     		ldr	r3, .L64
 897 0008 1B68     		ldr	r3, [r3]
 898 000a 0393     		str	r3, [sp, #12]
 899              		.loc 1 161 0
 900 000c 019B     		ldr	r3, [sp, #4]
 901 000e 1B68     		ldr	r3, [r3]
 902 0010 1846     		mov	r0, r3
 903 0012 FFF7FEFF 		bl	messagebus_lock_acquire
 904              		.loc 1 162 0
 905 0016 019B     		ldr	r3, [sp, #4]
 906 0018 5B68     		ldr	r3, [r3, #4]
 907 001a 1846     		mov	r0, r3
 908 001c FFF7FEFF 		bl	messagebus_condvar_wait
 909              		.loc 1 164 0
 910 0020 019B     		ldr	r3, [sp, #4]
 911 0022 9B68     		ldr	r3, [r3, #8]
 912 0024 0293     		str	r3, [sp, #8]
ARM GAS  C:\Users\PCHAUT~1\AppData\Local\Temp\ccJh8K3O.s 			page 17


 913              		.loc 1 166 0
 914 0026 019B     		ldr	r3, [sp, #4]
 915 0028 1B68     		ldr	r3, [r3]
 916 002a 1846     		mov	r0, r3
 917 002c FFF7FEFF 		bl	messagebus_lock_release
 918              		.loc 1 168 0
 919 0030 029B     		ldr	r3, [sp, #8]
 920              		.loc 1 169 0
 921 0032 1846     		mov	r0, r3
 922 0034 044B     		ldr	r3, .L64
 923 0036 039A     		ldr	r2, [sp, #12]
 924 0038 1B68     		ldr	r3, [r3]
 925 003a 9A42     		cmp	r2, r3
 926 003c 01D0     		beq	.L63
 927 003e FFF7FEFF 		bl	__stack_chk_fail
 928              	.L63:
 929 0042 05B0     		add	sp, sp, #20
 930              		.cfi_def_cfa_offset 4
 931              		@ sp needed
 932 0044 5DF804FB 		ldr	pc, [sp], #4
 933              	.L65:
 934              		.align	2
 935              	.L64:
 936 0048 00000000 		.word	__stack_chk_guard
 937              		.cfi_endproc
 938              	.LFE11:
 939              		.size	messagebus_watchgroup_wait, .-messagebus_watchgroup_wait
 940              		.text
 941              	.Letext0:
 942              		.file 2 "c:\\users\\pchautems\\documents\\robotiquetp\\eclipse_e-puck2\\tools\\gcc-arm-none-eabi-7
 943              		.file 3 "c:\\users\\pchautems\\documents\\robotiquetp\\eclipse_e-puck2\\tools\\gcc-arm-none-eabi-7
 944              		.file 4 "c:\\users\\pchautems\\documents\\robotiquetp\\eclipse_e-puck2\\tools\\gcc-arm-none-eabi-7
 945              		.file 5 "c:\\users\\pchautems\\documents\\robotiquetp\\eclipse_e-puck2\\tools\\gcc-arm-none-eabi-7
 946              		.file 6 "../lib/e-puck2_main-processor/src/msgbus/messagebus.h"
 947              		.file 7 "c:\\users\\pchautems\\documents\\robotiquetp\\eclipse_e-puck2\\tools\\gcc-arm-none-eabi-7
 948              		.section	.debug_info,"",%progbits
 949              	.Ldebug_info0:
 950 0000 8A0D0000 		.4byte	0xd8a
 951 0004 0400     		.2byte	0x4
 952 0006 00000000 		.4byte	.Ldebug_abbrev0
 953 000a 04       		.byte	0x4
 954 000b 01       		.uleb128 0x1
 955 000c 3B010000 		.4byte	.LASF165
 956 0010 0C       		.byte	0xc
 957 0011 E4060000 		.4byte	.LASF166
 958 0015 EC050000 		.4byte	.LASF167
 959 0019 00000000 		.4byte	.Ldebug_ranges0+0
 960 001d 00000000 		.4byte	0
 961 0021 00000000 		.4byte	.Ldebug_line0
 962 0025 02       		.uleb128 0x2
 963 0026 01       		.byte	0x1
 964 0027 06       		.byte	0x6
 965 0028 DE000000 		.4byte	.LASF0
 966 002c 02       		.uleb128 0x2
 967 002d 01       		.byte	0x1
 968 002e 08       		.byte	0x8
 969 002f 24050000 		.4byte	.LASF1
ARM GAS  C:\Users\PCHAUT~1\AppData\Local\Temp\ccJh8K3O.s 			page 18


 970 0033 02       		.uleb128 0x2
 971 0034 02       		.byte	0x2
 972 0035 05       		.byte	0x5
 973 0036 86050000 		.4byte	.LASF2
 974 003a 02       		.uleb128 0x2
 975 003b 02       		.byte	0x2
 976 003c 07       		.byte	0x7
 977 003d D1030000 		.4byte	.LASF3
 978 0041 02       		.uleb128 0x2
 979 0042 04       		.byte	0x4
 980 0043 05       		.byte	0x5
 981 0044 32010000 		.4byte	.LASF4
 982 0048 02       		.uleb128 0x2
 983 0049 04       		.byte	0x4
 984 004a 07       		.byte	0x7
 985 004b AD030000 		.4byte	.LASF5
 986 004f 02       		.uleb128 0x2
 987 0050 08       		.byte	0x8
 988 0051 05       		.byte	0x5
 989 0052 D0000000 		.4byte	.LASF6
 990 0056 02       		.uleb128 0x2
 991 0057 08       		.byte	0x8
 992 0058 07       		.byte	0x7
 993 0059 5F000000 		.4byte	.LASF7
 994 005d 03       		.uleb128 0x3
 995 005e 04       		.byte	0x4
 996 005f 05       		.byte	0x5
 997 0060 696E7400 		.ascii	"int\000"
 998 0064 02       		.uleb128 0x2
 999 0065 04       		.byte	0x4
 1000 0066 07       		.byte	0x7
 1001 0067 74030000 		.4byte	.LASF8
 1002 006b 04       		.uleb128 0x4
 1003 006c 12000000 		.4byte	.LASF10
 1004 0070 02       		.byte	0x2
 1005 0071 D8       		.byte	0xd8
 1006 0072 64000000 		.4byte	0x64
 1007 0076 02       		.uleb128 0x2
 1008 0077 08       		.byte	0x8
 1009 0078 04       		.byte	0x4
 1010 0079 95040000 		.4byte	.LASF9
 1011 007d 04       		.uleb128 0x4
 1012 007e 27040000 		.4byte	.LASF11
 1013 0082 03       		.byte	0x3
 1014 0083 22       		.byte	0x22
 1015 0084 88000000 		.4byte	0x88
 1016 0088 05       		.uleb128 0x5
 1017 0089 04       		.byte	0x4
 1018 008a 8E000000 		.4byte	0x8e
 1019 008e 06       		.uleb128 0x6
 1020 008f 6E060000 		.4byte	.LASF144
 1021 0093 04       		.uleb128 0x4
 1022 0094 E6040000 		.4byte	.LASF12
 1023 0098 04       		.byte	0x4
 1024 0099 2C       		.byte	0x2c
 1025 009a 41000000 		.4byte	0x41
 1026 009e 04       		.uleb128 0x4
ARM GAS  C:\Users\PCHAUT~1\AppData\Local\Temp\ccJh8K3O.s 			page 19


 1027 009f B3060000 		.4byte	.LASF13
 1028 00a3 04       		.byte	0x4
 1029 00a4 72       		.byte	0x72
 1030 00a5 41000000 		.4byte	0x41
 1031 00a9 07       		.uleb128 0x7
 1032 00aa 37040000 		.4byte	.LASF14
 1033 00ae 02       		.byte	0x2
 1034 00af 6501     		.2byte	0x165
 1035 00b1 64000000 		.4byte	0x64
 1036 00b5 08       		.uleb128 0x8
 1037 00b6 04       		.byte	0x4
 1038 00b7 04       		.byte	0x4
 1039 00b8 A6       		.byte	0xa6
 1040 00b9 D4000000 		.4byte	0xd4
 1041 00bd 09       		.uleb128 0x9
 1042 00be 21040000 		.4byte	.LASF15
 1043 00c2 04       		.byte	0x4
 1044 00c3 A8       		.byte	0xa8
 1045 00c4 A9000000 		.4byte	0xa9
 1046 00c8 09       		.uleb128 0x9
 1047 00c9 81030000 		.4byte	.LASF16
 1048 00cd 04       		.byte	0x4
 1049 00ce A9       		.byte	0xa9
 1050 00cf D4000000 		.4byte	0xd4
 1051 00d3 00       		.byte	0
 1052 00d4 0A       		.uleb128 0xa
 1053 00d5 2C000000 		.4byte	0x2c
 1054 00d9 E4000000 		.4byte	0xe4
 1055 00dd 0B       		.uleb128 0xb
 1056 00de 64000000 		.4byte	0x64
 1057 00e2 03       		.byte	0x3
 1058 00e3 00       		.byte	0
 1059 00e4 0C       		.uleb128 0xc
 1060 00e5 08       		.byte	0x8
 1061 00e6 04       		.byte	0x4
 1062 00e7 A3       		.byte	0xa3
 1063 00e8 05010000 		.4byte	0x105
 1064 00ec 0D       		.uleb128 0xd
 1065 00ed 66060000 		.4byte	.LASF17
 1066 00f1 04       		.byte	0x4
 1067 00f2 A5       		.byte	0xa5
 1068 00f3 5D000000 		.4byte	0x5d
 1069 00f7 00       		.byte	0
 1070 00f8 0D       		.uleb128 0xd
 1071 00f9 75060000 		.4byte	.LASF18
 1072 00fd 04       		.byte	0x4
 1073 00fe AA       		.byte	0xaa
 1074 00ff B5000000 		.4byte	0xb5
 1075 0103 04       		.byte	0x4
 1076 0104 00       		.byte	0
 1077 0105 04       		.uleb128 0x4
 1078 0106 AE050000 		.4byte	.LASF19
 1079 010a 04       		.byte	0x4
 1080 010b AB       		.byte	0xab
 1081 010c E4000000 		.4byte	0xe4
 1082 0110 04       		.uleb128 0x4
 1083 0111 31030000 		.4byte	.LASF20
ARM GAS  C:\Users\PCHAUT~1\AppData\Local\Temp\ccJh8K3O.s 			page 20


 1084 0115 04       		.byte	0x4
 1085 0116 AF       		.byte	0xaf
 1086 0117 7D000000 		.4byte	0x7d
 1087 011b 0E       		.uleb128 0xe
 1088 011c 04       		.byte	0x4
 1089 011d 05       		.uleb128 0x5
 1090 011e 04       		.byte	0x4
 1091 011f 23010000 		.4byte	0x123
 1092 0123 02       		.uleb128 0x2
 1093 0124 01       		.byte	0x1
 1094 0125 08       		.byte	0x8
 1095 0126 D0060000 		.4byte	.LASF21
 1096 012a 0F       		.uleb128 0xf
 1097 012b 23010000 		.4byte	0x123
 1098 012f 10       		.uleb128 0x10
 1099 0130 2F040000 		.4byte	.LASF22
 1100 0134 05       		.byte	0x5
 1101 0135 10       		.byte	0x10
 1102 0136 3A010000 		.4byte	0x13a
 1103 013a 05       		.uleb128 0x5
 1104 013b 04       		.byte	0x4
 1105 013c 1D010000 		.4byte	0x11d
 1106 0140 10       		.uleb128 0x10
 1107 0141 86040000 		.4byte	.LASF23
 1108 0145 05       		.byte	0x5
 1109 0146 E8       		.byte	0xe8
 1110 0147 1D010000 		.4byte	0x11d
 1111 014b 10       		.uleb128 0x10
 1112 014c A1040000 		.4byte	.LASF24
 1113 0150 05       		.byte	0x5
 1114 0151 E9       		.byte	0xe9
 1115 0152 5D000000 		.4byte	0x5d
 1116 0156 10       		.uleb128 0x10
 1117 0157 1A070000 		.4byte	.LASF25
 1118 015b 05       		.byte	0x5
 1119 015c E9       		.byte	0xe9
 1120 015d 5D000000 		.4byte	0x5d
 1121 0161 10       		.uleb128 0x10
 1122 0162 9E030000 		.4byte	.LASF26
 1123 0166 05       		.byte	0x5
 1124 0167 E9       		.byte	0xe9
 1125 0168 5D000000 		.4byte	0x5d
 1126 016c 10       		.uleb128 0x10
 1127 016d 64040000 		.4byte	.LASF27
 1128 0171 05       		.byte	0x5
 1129 0172 EB       		.byte	0xeb
 1130 0173 5D000000 		.4byte	0x5d
 1131 0177 11       		.uleb128 0x11
 1132 0178 19040000 		.4byte	.LASF37
 1133 017c 5C       		.byte	0x5c
 1134 017d 06       		.byte	0x6
 1135 017e 0C       		.byte	0xc
 1136 017f E4010000 		.4byte	0x1e4
 1137 0183 0D       		.uleb128 0xd
 1138 0184 C2020000 		.4byte	.LASF28
 1139 0188 06       		.byte	0x6
 1140 0189 0D       		.byte	0xd
ARM GAS  C:\Users\PCHAUT~1\AppData\Local\Temp\ccJh8K3O.s 			page 21


 1141 018a 1B010000 		.4byte	0x11b
 1142 018e 00       		.byte	0
 1143 018f 0D       		.uleb128 0xd
 1144 0190 F2000000 		.4byte	.LASF29
 1145 0194 06       		.byte	0x6
 1146 0195 0E       		.byte	0xe
 1147 0196 6B000000 		.4byte	0x6b
 1148 019a 04       		.byte	0x4
 1149 019b 0D       		.uleb128 0xd
 1150 019c 7B080000 		.4byte	.LASF30
 1151 01a0 06       		.byte	0x6
 1152 01a1 0F       		.byte	0xf
 1153 01a2 1B010000 		.4byte	0x11b
 1154 01a6 08       		.byte	0x8
 1155 01a7 0D       		.uleb128 0xd
 1156 01a8 7E040000 		.4byte	.LASF31
 1157 01ac 06       		.byte	0x6
 1158 01ad 10       		.byte	0x10
 1159 01ae 1B010000 		.4byte	0x11b
 1160 01b2 0C       		.byte	0xc
 1161 01b3 0D       		.uleb128 0xd
 1162 01b4 C5030000 		.4byte	.LASF32
 1163 01b8 06       		.byte	0x6
 1164 01b9 11       		.byte	0x11
 1165 01ba E4010000 		.4byte	0x1e4
 1166 01be 10       		.byte	0x10
 1167 01bf 0D       		.uleb128 0xd
 1168 01c0 12010000 		.4byte	.LASF33
 1169 01c4 06       		.byte	0x6
 1170 01c5 12       		.byte	0x12
 1171 01c6 F4010000 		.4byte	0x1f4
 1172 01ca 51       		.byte	0x51
 1173 01cb 0D       		.uleb128 0xd
 1174 01cc 27070000 		.4byte	.LASF34
 1175 01d0 06       		.byte	0x6
 1176 01d1 13       		.byte	0x13
 1177 01d2 20020000 		.4byte	0x220
 1178 01d6 54       		.byte	0x54
 1179 01d7 0D       		.uleb128 0xd
 1180 01d8 C2000000 		.4byte	.LASF35
 1181 01dc 06       		.byte	0x6
 1182 01dd 14       		.byte	0x14
 1183 01de 26020000 		.4byte	0x226
 1184 01e2 58       		.byte	0x58
 1185 01e3 00       		.byte	0
 1186 01e4 0A       		.uleb128 0xa
 1187 01e5 23010000 		.4byte	0x123
 1188 01e9 F4010000 		.4byte	0x1f4
 1189 01ed 0B       		.uleb128 0xb
 1190 01ee 64000000 		.4byte	0x64
 1191 01f2 40       		.byte	0x40
 1192 01f3 00       		.byte	0
 1193 01f4 02       		.uleb128 0x2
 1194 01f5 01       		.byte	0x1
 1195 01f6 02       		.byte	0x2
 1196 01f7 1E050000 		.4byte	.LASF36
 1197 01fb 11       		.uleb128 0x11
ARM GAS  C:\Users\PCHAUT~1\AppData\Local\Temp\ccJh8K3O.s 			page 22


 1198 01fc 7D060000 		.4byte	.LASF38
 1199 0200 08       		.byte	0x8
 1200 0201 06       		.byte	0x6
 1201 0202 25       		.byte	0x25
 1202 0203 20020000 		.4byte	0x220
 1203 0207 0D       		.uleb128 0xd
 1204 0208 24010000 		.4byte	.LASF39
 1205 020c 06       		.byte	0x6
 1206 020d 26       		.byte	0x26
 1207 020e C6020000 		.4byte	0x2c6
 1208 0212 00       		.byte	0
 1209 0213 0D       		.uleb128 0xd
 1210 0214 C2000000 		.4byte	.LASF35
 1211 0218 06       		.byte	0x6
 1212 0219 27       		.byte	0x27
 1213 021a 20020000 		.4byte	0x220
 1214 021e 04       		.byte	0x4
 1215 021f 00       		.byte	0
 1216 0220 05       		.uleb128 0x5
 1217 0221 04       		.byte	0x4
 1218 0222 FB010000 		.4byte	0x1fb
 1219 0226 05       		.uleb128 0x5
 1220 0227 04       		.byte	0x4
 1221 0228 77010000 		.4byte	0x177
 1222 022c 04       		.uleb128 0x4
 1223 022d ED030000 		.4byte	.LASF40
 1224 0231 06       		.byte	0x6
 1225 0232 15       		.byte	0x15
 1226 0233 77010000 		.4byte	0x177
 1227 0237 0C       		.uleb128 0xc
 1228 0238 04       		.byte	0x4
 1229 0239 06       		.byte	0x6
 1230 023a 18       		.byte	0x18
 1231 023b 4C020000 		.4byte	0x24c
 1232 023f 0D       		.uleb128 0xd
 1233 0240 61060000 		.4byte	.LASF41
 1234 0244 06       		.byte	0x6
 1235 0245 19       		.byte	0x19
 1236 0246 4C020000 		.4byte	0x24c
 1237 024a 00       		.byte	0
 1238 024b 00       		.byte	0
 1239 024c 05       		.uleb128 0x5
 1240 024d 04       		.byte	0x4
 1241 024e 2C020000 		.4byte	0x22c
 1242 0252 0C       		.uleb128 0xc
 1243 0253 0C       		.byte	0xc
 1244 0254 06       		.byte	0x6
 1245 0255 17       		.byte	0x17
 1246 0256 7F020000 		.4byte	0x27f
 1247 025a 0D       		.uleb128 0xd
 1248 025b 55070000 		.4byte	.LASF42
 1249 025f 06       		.byte	0x6
 1250 0260 1A       		.byte	0x1a
 1251 0261 37020000 		.4byte	0x237
 1252 0265 00       		.byte	0
 1253 0266 0D       		.uleb128 0xd
 1254 0267 7B080000 		.4byte	.LASF30
ARM GAS  C:\Users\PCHAUT~1\AppData\Local\Temp\ccJh8K3O.s 			page 23


 1255 026b 06       		.byte	0x6
 1256 026c 1B       		.byte	0x1b
 1257 026d 1B010000 		.4byte	0x11b
 1258 0271 04       		.byte	0x4
 1259 0272 0D       		.uleb128 0xd
 1260 0273 7E040000 		.4byte	.LASF31
 1261 0277 06       		.byte	0x6
 1262 0278 1C       		.byte	0x1c
 1263 0279 1B010000 		.4byte	0x11b
 1264 027d 08       		.byte	0x8
 1265 027e 00       		.byte	0
 1266 027f 04       		.uleb128 0x4
 1267 0280 41000000 		.4byte	.LASF43
 1268 0284 06       		.byte	0x6
 1269 0285 1D       		.byte	0x1d
 1270 0286 52020000 		.4byte	0x252
 1271 028a 11       		.uleb128 0x11
 1272 028b 4D050000 		.4byte	.LASF44
 1273 028f 0C       		.byte	0xc
 1274 0290 06       		.byte	0x6
 1275 0291 1F       		.byte	0x1f
 1276 0292 BB020000 		.4byte	0x2bb
 1277 0296 0D       		.uleb128 0xd
 1278 0297 7B080000 		.4byte	.LASF30
 1279 029b 06       		.byte	0x6
 1280 029c 20       		.byte	0x20
 1281 029d 1B010000 		.4byte	0x11b
 1282 02a1 00       		.byte	0
 1283 02a2 0D       		.uleb128 0xd
 1284 02a3 7E040000 		.4byte	.LASF31
 1285 02a7 06       		.byte	0x6
 1286 02a8 21       		.byte	0x21
 1287 02a9 1B010000 		.4byte	0x11b
 1288 02ad 04       		.byte	0x4
 1289 02ae 0D       		.uleb128 0xd
 1290 02af AA020000 		.4byte	.LASF45
 1291 02b3 06       		.byte	0x6
 1292 02b4 22       		.byte	0x22
 1293 02b5 4C020000 		.4byte	0x24c
 1294 02b9 08       		.byte	0x8
 1295 02ba 00       		.byte	0
 1296 02bb 04       		.uleb128 0x4
 1297 02bc 65050000 		.4byte	.LASF46
 1298 02c0 06       		.byte	0x6
 1299 02c1 23       		.byte	0x23
 1300 02c2 8A020000 		.4byte	0x28a
 1301 02c6 05       		.uleb128 0x5
 1302 02c7 04       		.byte	0x4
 1303 02c8 BB020000 		.4byte	0x2bb
 1304 02cc 04       		.uleb128 0x4
 1305 02cd 92060000 		.4byte	.LASF47
 1306 02d1 06       		.byte	0x6
 1307 02d2 28       		.byte	0x28
 1308 02d3 FB010000 		.4byte	0x1fb
 1309 02d7 04       		.uleb128 0x4
 1310 02d8 9B070000 		.4byte	.LASF48
 1311 02dc 07       		.byte	0x7
ARM GAS  C:\Users\PCHAUT~1\AppData\Local\Temp\ccJh8K3O.s 			page 24


 1312 02dd 16       		.byte	0x16
 1313 02de 48000000 		.4byte	0x48
 1314 02e2 11       		.uleb128 0x11
 1315 02e3 42030000 		.4byte	.LASF49
 1316 02e7 18       		.byte	0x18
 1317 02e8 07       		.byte	0x7
 1318 02e9 2F       		.byte	0x2f
 1319 02ea 35030000 		.4byte	0x335
 1320 02ee 0D       		.uleb128 0xd
 1321 02ef 59030000 		.4byte	.LASF50
 1322 02f3 07       		.byte	0x7
 1323 02f4 31       		.byte	0x31
 1324 02f5 35030000 		.4byte	0x335
 1325 02f9 00       		.byte	0
 1326 02fa 12       		.uleb128 0x12
 1327 02fb 5F6B00   		.ascii	"_k\000"
 1328 02fe 07       		.byte	0x7
 1329 02ff 32       		.byte	0x32
 1330 0300 5D000000 		.4byte	0x5d
 1331 0304 04       		.byte	0x4
 1332 0305 0D       		.uleb128 0xd
 1333 0306 52060000 		.4byte	.LASF51
 1334 030a 07       		.byte	0x7
 1335 030b 32       		.byte	0x32
 1336 030c 5D000000 		.4byte	0x5d
 1337 0310 08       		.byte	0x8
 1338 0311 0D       		.uleb128 0xd
 1339 0312 2B030000 		.4byte	.LASF52
 1340 0316 07       		.byte	0x7
 1341 0317 32       		.byte	0x32
 1342 0318 5D000000 		.4byte	0x5d
 1343 031c 0C       		.byte	0xc
 1344 031d 0D       		.uleb128 0xd
 1345 031e D0070000 		.4byte	.LASF53
 1346 0322 07       		.byte	0x7
 1347 0323 32       		.byte	0x32
 1348 0324 5D000000 		.4byte	0x5d
 1349 0328 10       		.byte	0x10
 1350 0329 12       		.uleb128 0x12
 1351 032a 5F7800   		.ascii	"_x\000"
 1352 032d 07       		.byte	0x7
 1353 032e 33       		.byte	0x33
 1354 032f 3B030000 		.4byte	0x33b
 1355 0333 14       		.byte	0x14
 1356 0334 00       		.byte	0
 1357 0335 05       		.uleb128 0x5
 1358 0336 04       		.byte	0x4
 1359 0337 E2020000 		.4byte	0x2e2
 1360 033b 0A       		.uleb128 0xa
 1361 033c D7020000 		.4byte	0x2d7
 1362 0340 4B030000 		.4byte	0x34b
 1363 0344 0B       		.uleb128 0xb
 1364 0345 64000000 		.4byte	0x64
 1365 0349 00       		.byte	0
 1366 034a 00       		.byte	0
 1367 034b 11       		.uleb128 0x11
 1368 034c 6F030000 		.4byte	.LASF54
ARM GAS  C:\Users\PCHAUT~1\AppData\Local\Temp\ccJh8K3O.s 			page 25


 1369 0350 24       		.byte	0x24
 1370 0351 07       		.byte	0x7
 1371 0352 37       		.byte	0x37
 1372 0353 C4030000 		.4byte	0x3c4
 1373 0357 0D       		.uleb128 0xd
 1374 0358 C7000000 		.4byte	.LASF55
 1375 035c 07       		.byte	0x7
 1376 035d 39       		.byte	0x39
 1377 035e 5D000000 		.4byte	0x5d
 1378 0362 00       		.byte	0
 1379 0363 0D       		.uleb128 0xd
 1380 0364 D5060000 		.4byte	.LASF56
 1381 0368 07       		.byte	0x7
 1382 0369 3A       		.byte	0x3a
 1383 036a 5D000000 		.4byte	0x5d
 1384 036e 04       		.byte	0x4
 1385 036f 0D       		.uleb128 0xd
 1386 0370 03010000 		.4byte	.LASF57
 1387 0374 07       		.byte	0x7
 1388 0375 3B       		.byte	0x3b
 1389 0376 5D000000 		.4byte	0x5d
 1390 037a 08       		.byte	0x8
 1391 037b 0D       		.uleb128 0xd
 1392 037c 80080000 		.4byte	.LASF58
 1393 0380 07       		.byte	0x7
 1394 0381 3C       		.byte	0x3c
 1395 0382 5D000000 		.4byte	0x5d
 1396 0386 0C       		.byte	0xc
 1397 0387 0D       		.uleb128 0xd
 1398 0388 CA040000 		.4byte	.LASF59
 1399 038c 07       		.byte	0x7
 1400 038d 3D       		.byte	0x3d
 1401 038e 5D000000 		.4byte	0x5d
 1402 0392 10       		.byte	0x10
 1403 0393 0D       		.uleb128 0xd
 1404 0394 74040000 		.4byte	.LASF60
 1405 0398 07       		.byte	0x7
 1406 0399 3E       		.byte	0x3e
 1407 039a 5D000000 		.4byte	0x5d
 1408 039e 14       		.byte	0x14
 1409 039f 0D       		.uleb128 0xd
 1410 03a0 D5070000 		.4byte	.LASF61
 1411 03a4 07       		.byte	0x7
 1412 03a5 3F       		.byte	0x3f
 1413 03a6 5D000000 		.4byte	0x5d
 1414 03aa 18       		.byte	0x18
 1415 03ab 0D       		.uleb128 0xd
 1416 03ac 90050000 		.4byte	.LASF62
 1417 03b0 07       		.byte	0x7
 1418 03b1 40       		.byte	0x40
 1419 03b2 5D000000 		.4byte	0x5d
 1420 03b6 1C       		.byte	0x1c
 1421 03b7 0D       		.uleb128 0xd
 1422 03b8 42080000 		.4byte	.LASF63
 1423 03bc 07       		.byte	0x7
 1424 03bd 41       		.byte	0x41
 1425 03be 5D000000 		.4byte	0x5d
ARM GAS  C:\Users\PCHAUT~1\AppData\Local\Temp\ccJh8K3O.s 			page 26


 1426 03c2 20       		.byte	0x20
 1427 03c3 00       		.byte	0
 1428 03c4 13       		.uleb128 0x13
 1429 03c5 BB060000 		.4byte	.LASF64
 1430 03c9 0801     		.2byte	0x108
 1431 03cb 07       		.byte	0x7
 1432 03cc 4A       		.byte	0x4a
 1433 03cd 04040000 		.4byte	0x404
 1434 03d1 0D       		.uleb128 0xd
 1435 03d2 10030000 		.4byte	.LASF65
 1436 03d6 07       		.byte	0x7
 1437 03d7 4B       		.byte	0x4b
 1438 03d8 04040000 		.4byte	0x404
 1439 03dc 00       		.byte	0
 1440 03dd 0D       		.uleb128 0xd
 1441 03de 00000000 		.4byte	.LASF66
 1442 03e2 07       		.byte	0x7
 1443 03e3 4C       		.byte	0x4c
 1444 03e4 04040000 		.4byte	0x404
 1445 03e8 80       		.byte	0x80
 1446 03e9 14       		.uleb128 0x14
 1447 03ea 4C070000 		.4byte	.LASF67
 1448 03ee 07       		.byte	0x7
 1449 03ef 4E       		.byte	0x4e
 1450 03f0 D7020000 		.4byte	0x2d7
 1451 03f4 0001     		.2byte	0x100
 1452 03f6 14       		.uleb128 0x14
 1453 03f7 86020000 		.4byte	.LASF68
 1454 03fb 07       		.byte	0x7
 1455 03fc 51       		.byte	0x51
 1456 03fd D7020000 		.4byte	0x2d7
 1457 0401 0401     		.2byte	0x104
 1458 0403 00       		.byte	0
 1459 0404 0A       		.uleb128 0xa
 1460 0405 1B010000 		.4byte	0x11b
 1461 0409 14040000 		.4byte	0x414
 1462 040d 0B       		.uleb128 0xb
 1463 040e 64000000 		.4byte	0x64
 1464 0412 1F       		.byte	0x1f
 1465 0413 00       		.byte	0
 1466 0414 13       		.uleb128 0x13
 1467 0415 D3040000 		.4byte	.LASF69
 1468 0419 9001     		.2byte	0x190
 1469 041b 07       		.byte	0x7
 1470 041c 5D       		.byte	0x5d
 1471 041d 52040000 		.4byte	0x452
 1472 0421 0D       		.uleb128 0xd
 1473 0422 59030000 		.4byte	.LASF50
 1474 0426 07       		.byte	0x7
 1475 0427 5E       		.byte	0x5e
 1476 0428 52040000 		.4byte	0x452
 1477 042c 00       		.byte	0
 1478 042d 0D       		.uleb128 0xd
 1479 042e E7050000 		.4byte	.LASF70
 1480 0432 07       		.byte	0x7
 1481 0433 5F       		.byte	0x5f
 1482 0434 5D000000 		.4byte	0x5d
ARM GAS  C:\Users\PCHAUT~1\AppData\Local\Temp\ccJh8K3O.s 			page 27


 1483 0438 04       		.byte	0x4
 1484 0439 0D       		.uleb128 0xd
 1485 043a 18030000 		.4byte	.LASF71
 1486 043e 07       		.byte	0x7
 1487 043f 61       		.byte	0x61
 1488 0440 58040000 		.4byte	0x458
 1489 0444 08       		.byte	0x8
 1490 0445 0D       		.uleb128 0xd
 1491 0446 BB060000 		.4byte	.LASF64
 1492 044a 07       		.byte	0x7
 1493 044b 62       		.byte	0x62
 1494 044c C4030000 		.4byte	0x3c4
 1495 0450 88       		.byte	0x88
 1496 0451 00       		.byte	0
 1497 0452 05       		.uleb128 0x5
 1498 0453 04       		.byte	0x4
 1499 0454 14040000 		.4byte	0x414
 1500 0458 0A       		.uleb128 0xa
 1501 0459 68040000 		.4byte	0x468
 1502 045d 68040000 		.4byte	0x468
 1503 0461 0B       		.uleb128 0xb
 1504 0462 64000000 		.4byte	0x64
 1505 0466 1F       		.byte	0x1f
 1506 0467 00       		.byte	0
 1507 0468 05       		.uleb128 0x5
 1508 0469 04       		.byte	0x4
 1509 046a 6E040000 		.4byte	0x46e
 1510 046e 15       		.uleb128 0x15
 1511 046f 11       		.uleb128 0x11
 1512 0470 9A050000 		.4byte	.LASF72
 1513 0474 08       		.byte	0x8
 1514 0475 07       		.byte	0x7
 1515 0476 75       		.byte	0x75
 1516 0477 94040000 		.4byte	0x494
 1517 047b 0D       		.uleb128 0xd
 1518 047c FD000000 		.4byte	.LASF73
 1519 0480 07       		.byte	0x7
 1520 0481 76       		.byte	0x76
 1521 0482 94040000 		.4byte	0x494
 1522 0486 00       		.byte	0
 1523 0487 0D       		.uleb128 0xd
 1524 0488 0C000000 		.4byte	.LASF74
 1525 048c 07       		.byte	0x7
 1526 048d 77       		.byte	0x77
 1527 048e 5D000000 		.4byte	0x5d
 1528 0492 04       		.byte	0x4
 1529 0493 00       		.byte	0
 1530 0494 05       		.uleb128 0x5
 1531 0495 04       		.byte	0x4
 1532 0496 2C000000 		.4byte	0x2c
 1533 049a 11       		.uleb128 0x11
 1534 049b B9050000 		.4byte	.LASF75
 1535 049f 68       		.byte	0x68
 1536 04a0 07       		.byte	0x7
 1537 04a1 B5       		.byte	0xb5
 1538 04a2 C4050000 		.4byte	0x5c4
 1539 04a6 12       		.uleb128 0x12
ARM GAS  C:\Users\PCHAUT~1\AppData\Local\Temp\ccJh8K3O.s 			page 28


 1540 04a7 5F7000   		.ascii	"_p\000"
 1541 04aa 07       		.byte	0x7
 1542 04ab B6       		.byte	0xb6
 1543 04ac 94040000 		.4byte	0x494
 1544 04b0 00       		.byte	0
 1545 04b1 12       		.uleb128 0x12
 1546 04b2 5F7200   		.ascii	"_r\000"
 1547 04b5 07       		.byte	0x7
 1548 04b6 B7       		.byte	0xb7
 1549 04b7 5D000000 		.4byte	0x5d
 1550 04bb 04       		.byte	0x4
 1551 04bc 12       		.uleb128 0x12
 1552 04bd 5F7700   		.ascii	"_w\000"
 1553 04c0 07       		.byte	0x7
 1554 04c1 B8       		.byte	0xb8
 1555 04c2 5D000000 		.4byte	0x5d
 1556 04c6 08       		.byte	0x8
 1557 04c7 0D       		.uleb128 0xd
 1558 04c8 7F020000 		.4byte	.LASF76
 1559 04cc 07       		.byte	0x7
 1560 04cd B9       		.byte	0xb9
 1561 04ce 33000000 		.4byte	0x33
 1562 04d2 0C       		.byte	0xc
 1563 04d3 0D       		.uleb128 0xd
 1564 04d4 BF030000 		.4byte	.LASF77
 1565 04d8 07       		.byte	0x7
 1566 04d9 BA       		.byte	0xba
 1567 04da 33000000 		.4byte	0x33
 1568 04de 0E       		.byte	0xe
 1569 04df 12       		.uleb128 0x12
 1570 04e0 5F626600 		.ascii	"_bf\000"
 1571 04e4 07       		.byte	0x7
 1572 04e5 BB       		.byte	0xbb
 1573 04e6 6F040000 		.4byte	0x46f
 1574 04ea 10       		.byte	0x10
 1575 04eb 0D       		.uleb128 0xd
 1576 04ec 76000000 		.4byte	.LASF78
 1577 04f0 07       		.byte	0x7
 1578 04f1 BC       		.byte	0xbc
 1579 04f2 5D000000 		.4byte	0x5d
 1580 04f6 18       		.byte	0x18
 1581 04f7 0D       		.uleb128 0xd
 1582 04f8 1C010000 		.4byte	.LASF79
 1583 04fc 07       		.byte	0x7
 1584 04fd C3       		.byte	0xc3
 1585 04fe 1B010000 		.4byte	0x11b
 1586 0502 1C       		.byte	0x1c
 1587 0503 0D       		.uleb128 0xd
 1588 0504 5F030000 		.4byte	.LASF80
 1589 0508 07       		.byte	0x7
 1590 0509 C5       		.byte	0xc5
 1591 050a 1F070000 		.4byte	0x71f
 1592 050e 20       		.byte	0x20
 1593 050f 0D       		.uleb128 0xd
 1594 0510 6D040000 		.4byte	.LASF81
 1595 0514 07       		.byte	0x7
 1596 0515 C7       		.byte	0xc7
ARM GAS  C:\Users\PCHAUT~1\AppData\Local\Temp\ccJh8K3O.s 			page 29


 1597 0516 49070000 		.4byte	0x749
 1598 051a 24       		.byte	0x24
 1599 051b 0D       		.uleb128 0xd
 1600 051c 30070000 		.4byte	.LASF82
 1601 0520 07       		.byte	0x7
 1602 0521 CA       		.byte	0xca
 1603 0522 6D070000 		.4byte	0x76d
 1604 0526 28       		.byte	0x28
 1605 0527 0D       		.uleb128 0xd
 1606 0528 5C080000 		.4byte	.LASF83
 1607 052c 07       		.byte	0x7
 1608 052d CB       		.byte	0xcb
 1609 052e 87070000 		.4byte	0x787
 1610 0532 2C       		.byte	0x2c
 1611 0533 12       		.uleb128 0x12
 1612 0534 5F756200 		.ascii	"_ub\000"
 1613 0538 07       		.byte	0x7
 1614 0539 CE       		.byte	0xce
 1615 053a 6F040000 		.4byte	0x46f
 1616 053e 30       		.byte	0x30
 1617 053f 12       		.uleb128 0x12
 1618 0540 5F757000 		.ascii	"_up\000"
 1619 0544 07       		.byte	0x7
 1620 0545 CF       		.byte	0xcf
 1621 0546 94040000 		.4byte	0x494
 1622 054a 38       		.byte	0x38
 1623 054b 12       		.uleb128 0x12
 1624 054c 5F757200 		.ascii	"_ur\000"
 1625 0550 07       		.byte	0x7
 1626 0551 D0       		.byte	0xd0
 1627 0552 5D000000 		.4byte	0x5d
 1628 0556 3C       		.byte	0x3c
 1629 0557 0D       		.uleb128 0xd
 1630 0558 95020000 		.4byte	.LASF84
 1631 055c 07       		.byte	0x7
 1632 055d D3       		.byte	0xd3
 1633 055e 8D070000 		.4byte	0x78d
 1634 0562 40       		.byte	0x40
 1635 0563 0D       		.uleb128 0xd
 1636 0564 34080000 		.4byte	.LASF85
 1637 0568 07       		.byte	0x7
 1638 0569 D4       		.byte	0xd4
 1639 056a 9D070000 		.4byte	0x79d
 1640 056e 43       		.byte	0x43
 1641 056f 12       		.uleb128 0x12
 1642 0570 5F6C6200 		.ascii	"_lb\000"
 1643 0574 07       		.byte	0x7
 1644 0575 D7       		.byte	0xd7
 1645 0576 6F040000 		.4byte	0x46f
 1646 057a 44       		.byte	0x44
 1647 057b 0D       		.uleb128 0xd
 1648 057c 9B020000 		.4byte	.LASF86
 1649 0580 07       		.byte	0x7
 1650 0581 DA       		.byte	0xda
 1651 0582 5D000000 		.4byte	0x5d
 1652 0586 4C       		.byte	0x4c
 1653 0587 0D       		.uleb128 0xd
ARM GAS  C:\Users\PCHAUT~1\AppData\Local\Temp\ccJh8K3O.s 			page 30


 1654 0588 8D040000 		.4byte	.LASF87
 1655 058c 07       		.byte	0x7
 1656 058d DB       		.byte	0xdb
 1657 058e 93000000 		.4byte	0x93
 1658 0592 50       		.byte	0x50
 1659 0593 0D       		.uleb128 0xd
 1660 0594 2C000000 		.4byte	.LASF88
 1661 0598 07       		.byte	0x7
 1662 0599 DE       		.byte	0xde
 1663 059a E2050000 		.4byte	0x5e2
 1664 059e 54       		.byte	0x54
 1665 059f 0D       		.uleb128 0xd
 1666 05a0 3E040000 		.4byte	.LASF89
 1667 05a4 07       		.byte	0x7
 1668 05a5 E2       		.byte	0xe2
 1669 05a6 10010000 		.4byte	0x110
 1670 05aa 58       		.byte	0x58
 1671 05ab 0D       		.uleb128 0xd
 1672 05ac C1050000 		.4byte	.LASF90
 1673 05b0 07       		.byte	0x7
 1674 05b1 E4       		.byte	0xe4
 1675 05b2 05010000 		.4byte	0x105
 1676 05b6 5C       		.byte	0x5c
 1677 05b7 0D       		.uleb128 0xd
 1678 05b8 44040000 		.4byte	.LASF91
 1679 05bc 07       		.byte	0x7
 1680 05bd E5       		.byte	0xe5
 1681 05be 5D000000 		.4byte	0x5d
 1682 05c2 64       		.byte	0x64
 1683 05c3 00       		.byte	0
 1684 05c4 16       		.uleb128 0x16
 1685 05c5 5D000000 		.4byte	0x5d
 1686 05c9 E2050000 		.4byte	0x5e2
 1687 05cd 17       		.uleb128 0x17
 1688 05ce E2050000 		.4byte	0x5e2
 1689 05d2 17       		.uleb128 0x17
 1690 05d3 1B010000 		.4byte	0x11b
 1691 05d7 17       		.uleb128 0x17
 1692 05d8 1D010000 		.4byte	0x11d
 1693 05dc 17       		.uleb128 0x17
 1694 05dd 5D000000 		.4byte	0x5d
 1695 05e1 00       		.byte	0
 1696 05e2 05       		.uleb128 0x5
 1697 05e3 04       		.byte	0x4
 1698 05e4 ED050000 		.4byte	0x5ed
 1699 05e8 0F       		.uleb128 0xf
 1700 05e9 E2050000 		.4byte	0x5e2
 1701 05ed 18       		.uleb128 0x18
 1702 05ee 5A060000 		.4byte	.LASF92
 1703 05f2 2804     		.2byte	0x428
 1704 05f4 07       		.byte	0x7
 1705 05f5 3902     		.2byte	0x239
 1706 05f7 1F070000 		.4byte	0x71f
 1707 05fb 19       		.uleb128 0x19
 1708 05fc C9060000 		.4byte	.LASF93
 1709 0600 07       		.byte	0x7
 1710 0601 3B02     		.2byte	0x23b
ARM GAS  C:\Users\PCHAUT~1\AppData\Local\Temp\ccJh8K3O.s 			page 31


 1711 0603 5D000000 		.4byte	0x5d
 1712 0607 00       		.byte	0
 1713 0608 19       		.uleb128 0x19
 1714 0609 8E020000 		.4byte	.LASF94
 1715 060d 07       		.byte	0x7
 1716 060e 4002     		.2byte	0x240
 1717 0610 F4070000 		.4byte	0x7f4
 1718 0614 04       		.byte	0x4
 1719 0615 19       		.uleb128 0x19
 1720 0616 96030000 		.4byte	.LASF95
 1721 061a 07       		.byte	0x7
 1722 061b 4002     		.2byte	0x240
 1723 061d F4070000 		.4byte	0x7f4
 1724 0621 08       		.byte	0x8
 1725 0622 19       		.uleb128 0x19
 1726 0623 3A030000 		.4byte	.LASF96
 1727 0627 07       		.byte	0x7
 1728 0628 4002     		.2byte	0x240
 1729 062a F4070000 		.4byte	0x7f4
 1730 062e 0C       		.byte	0xc
 1731 062f 19       		.uleb128 0x19
 1732 0630 E2050000 		.4byte	.LASF97
 1733 0634 07       		.byte	0x7
 1734 0635 4202     		.2byte	0x242
 1735 0637 5D000000 		.4byte	0x5d
 1736 063b 10       		.byte	0x10
 1737 063c 19       		.uleb128 0x19
 1738 063d 21000000 		.4byte	.LASF98
 1739 0641 07       		.byte	0x7
 1740 0642 4302     		.2byte	0x243
 1741 0644 D6090000 		.4byte	0x9d6
 1742 0648 14       		.byte	0x14
 1743 0649 19       		.uleb128 0x19
 1744 064a 39060000 		.4byte	.LASF99
 1745 064e 07       		.byte	0x7
 1746 064f 4602     		.2byte	0x246
 1747 0651 5D000000 		.4byte	0x5d
 1748 0655 30       		.byte	0x30
 1749 0656 19       		.uleb128 0x19
 1750 0657 27060000 		.4byte	.LASF100
 1751 065b 07       		.byte	0x7
 1752 065c 4702     		.2byte	0x247
 1753 065e EB090000 		.4byte	0x9eb
 1754 0662 34       		.byte	0x34
 1755 0663 19       		.uleb128 0x19
 1756 0664 DB040000 		.4byte	.LASF101
 1757 0668 07       		.byte	0x7
 1758 0669 4902     		.2byte	0x249
 1759 066b 5D000000 		.4byte	0x5d
 1760 066f 38       		.byte	0x38
 1761 0670 19       		.uleb128 0x19
 1762 0671 2F060000 		.4byte	.LASF102
 1763 0675 07       		.byte	0x7
 1764 0676 4B02     		.2byte	0x24b
 1765 0678 FC090000 		.4byte	0x9fc
 1766 067c 3C       		.byte	0x3c
 1767 067d 19       		.uleb128 0x19
ARM GAS  C:\Users\PCHAUT~1\AppData\Local\Temp\ccJh8K3O.s 			page 32


 1768 067e 4C040000 		.4byte	.LASF103
 1769 0682 07       		.byte	0x7
 1770 0683 4E02     		.2byte	0x24e
 1771 0685 35030000 		.4byte	0x335
 1772 0689 40       		.byte	0x40
 1773 068a 19       		.uleb128 0x19
 1774 068b 65030000 		.4byte	.LASF104
 1775 068f 07       		.byte	0x7
 1776 0690 4F02     		.2byte	0x24f
 1777 0692 5D000000 		.4byte	0x5d
 1778 0696 44       		.byte	0x44
 1779 0697 19       		.uleb128 0x19
 1780 0698 76080000 		.4byte	.LASF105
 1781 069c 07       		.byte	0x7
 1782 069d 5002     		.2byte	0x250
 1783 069f 35030000 		.4byte	0x335
 1784 06a3 48       		.byte	0x48
 1785 06a4 19       		.uleb128 0x19
 1786 06a5 06050000 		.4byte	.LASF106
 1787 06a9 07       		.byte	0x7
 1788 06aa 5102     		.2byte	0x251
 1789 06ac 020A0000 		.4byte	0xa02
 1790 06b0 4C       		.byte	0x4c
 1791 06b1 19       		.uleb128 0x19
 1792 06b2 A5030000 		.4byte	.LASF107
 1793 06b6 07       		.byte	0x7
 1794 06b7 5402     		.2byte	0x254
 1795 06b9 5D000000 		.4byte	0x5d
 1796 06bd 50       		.byte	0x50
 1797 06be 19       		.uleb128 0x19
 1798 06bf BA020000 		.4byte	.LASF108
 1799 06c3 07       		.byte	0x7
 1800 06c4 5502     		.2byte	0x255
 1801 06c6 1D010000 		.4byte	0x11d
 1802 06ca 54       		.byte	0x54
 1803 06cb 19       		.uleb128 0x19
 1804 06cc 48050000 		.4byte	.LASF109
 1805 06d0 07       		.byte	0x7
 1806 06d1 7802     		.2byte	0x278
 1807 06d3 B4090000 		.4byte	0x9b4
 1808 06d7 58       		.byte	0x58
 1809 06d8 1A       		.uleb128 0x1a
 1810 06d9 D3040000 		.4byte	.LASF69
 1811 06dd 07       		.byte	0x7
 1812 06de 7C02     		.2byte	0x27c
 1813 06e0 52040000 		.4byte	0x452
 1814 06e4 4801     		.2byte	0x148
 1815 06e6 1A       		.uleb128 0x1a
 1816 06e7 E4030000 		.4byte	.LASF110
 1817 06eb 07       		.byte	0x7
 1818 06ec 7D02     		.2byte	0x27d
 1819 06ee 14040000 		.4byte	0x414
 1820 06f2 4C01     		.2byte	0x14c
 1821 06f4 1A       		.uleb128 0x1a
 1822 06f5 0E080000 		.4byte	.LASF111
 1823 06f9 07       		.byte	0x7
 1824 06fa 8102     		.2byte	0x281
ARM GAS  C:\Users\PCHAUT~1\AppData\Local\Temp\ccJh8K3O.s 			page 33


 1825 06fc 130A0000 		.4byte	0xa13
 1826 0700 DC02     		.2byte	0x2dc
 1827 0702 1A       		.uleb128 0x1a
 1828 0703 2A010000 		.4byte	.LASF112
 1829 0707 07       		.byte	0x7
 1830 0708 8602     		.2byte	0x286
 1831 070a B9070000 		.4byte	0x7b9
 1832 070e E002     		.2byte	0x2e0
 1833 0710 1A       		.uleb128 0x1a
 1834 0711 0D010000 		.4byte	.LASF113
 1835 0715 07       		.byte	0x7
 1836 0716 8802     		.2byte	0x288
 1837 0718 1F0A0000 		.4byte	0xa1f
 1838 071c EC02     		.2byte	0x2ec
 1839 071e 00       		.byte	0
 1840 071f 05       		.uleb128 0x5
 1841 0720 04       		.byte	0x4
 1842 0721 C4050000 		.4byte	0x5c4
 1843 0725 16       		.uleb128 0x16
 1844 0726 5D000000 		.4byte	0x5d
 1845 072a 43070000 		.4byte	0x743
 1846 072e 17       		.uleb128 0x17
 1847 072f E2050000 		.4byte	0x5e2
 1848 0733 17       		.uleb128 0x17
 1849 0734 1B010000 		.4byte	0x11b
 1850 0738 17       		.uleb128 0x17
 1851 0739 43070000 		.4byte	0x743
 1852 073d 17       		.uleb128 0x17
 1853 073e 5D000000 		.4byte	0x5d
 1854 0742 00       		.byte	0
 1855 0743 05       		.uleb128 0x5
 1856 0744 04       		.byte	0x4
 1857 0745 2A010000 		.4byte	0x12a
 1858 0749 05       		.uleb128 0x5
 1859 074a 04       		.byte	0x4
 1860 074b 25070000 		.4byte	0x725
 1861 074f 16       		.uleb128 0x16
 1862 0750 9E000000 		.4byte	0x9e
 1863 0754 6D070000 		.4byte	0x76d
 1864 0758 17       		.uleb128 0x17
 1865 0759 E2050000 		.4byte	0x5e2
 1866 075d 17       		.uleb128 0x17
 1867 075e 1B010000 		.4byte	0x11b
 1868 0762 17       		.uleb128 0x17
 1869 0763 9E000000 		.4byte	0x9e
 1870 0767 17       		.uleb128 0x17
 1871 0768 5D000000 		.4byte	0x5d
 1872 076c 00       		.byte	0
 1873 076d 05       		.uleb128 0x5
 1874 076e 04       		.byte	0x4
 1875 076f 4F070000 		.4byte	0x74f
 1876 0773 16       		.uleb128 0x16
 1877 0774 5D000000 		.4byte	0x5d
 1878 0778 87070000 		.4byte	0x787
 1879 077c 17       		.uleb128 0x17
 1880 077d E2050000 		.4byte	0x5e2
 1881 0781 17       		.uleb128 0x17
ARM GAS  C:\Users\PCHAUT~1\AppData\Local\Temp\ccJh8K3O.s 			page 34


 1882 0782 1B010000 		.4byte	0x11b
 1883 0786 00       		.byte	0
 1884 0787 05       		.uleb128 0x5
 1885 0788 04       		.byte	0x4
 1886 0789 73070000 		.4byte	0x773
 1887 078d 0A       		.uleb128 0xa
 1888 078e 2C000000 		.4byte	0x2c
 1889 0792 9D070000 		.4byte	0x79d
 1890 0796 0B       		.uleb128 0xb
 1891 0797 64000000 		.4byte	0x64
 1892 079b 02       		.byte	0x2
 1893 079c 00       		.byte	0
 1894 079d 0A       		.uleb128 0xa
 1895 079e 2C000000 		.4byte	0x2c
 1896 07a2 AD070000 		.4byte	0x7ad
 1897 07a6 0B       		.uleb128 0xb
 1898 07a7 64000000 		.4byte	0x64
 1899 07ab 00       		.byte	0
 1900 07ac 00       		.byte	0
 1901 07ad 07       		.uleb128 0x7
 1902 07ae A7050000 		.4byte	.LASF114
 1903 07b2 07       		.byte	0x7
 1904 07b3 1F01     		.2byte	0x11f
 1905 07b5 9A040000 		.4byte	0x49a
 1906 07b9 1B       		.uleb128 0x1b
 1907 07ba DF070000 		.4byte	.LASF115
 1908 07be 0C       		.byte	0xc
 1909 07bf 07       		.byte	0x7
 1910 07c0 2301     		.2byte	0x123
 1911 07c2 EE070000 		.4byte	0x7ee
 1912 07c6 19       		.uleb128 0x19
 1913 07c7 59030000 		.4byte	.LASF50
 1914 07cb 07       		.byte	0x7
 1915 07cc 2501     		.2byte	0x125
 1916 07ce EE070000 		.4byte	0x7ee
 1917 07d2 00       		.byte	0
 1918 07d3 19       		.uleb128 0x19
 1919 07d4 CA030000 		.4byte	.LASF116
 1920 07d8 07       		.byte	0x7
 1921 07d9 2601     		.2byte	0x126
 1922 07db 5D000000 		.4byte	0x5d
 1923 07df 04       		.byte	0x4
 1924 07e0 19       		.uleb128 0x19
 1925 07e1 A1050000 		.4byte	.LASF117
 1926 07e5 07       		.byte	0x7
 1927 07e6 2701     		.2byte	0x127
 1928 07e8 F4070000 		.4byte	0x7f4
 1929 07ec 08       		.byte	0x8
 1930 07ed 00       		.byte	0
 1931 07ee 05       		.uleb128 0x5
 1932 07ef 04       		.byte	0x4
 1933 07f0 B9070000 		.4byte	0x7b9
 1934 07f4 05       		.uleb128 0x5
 1935 07f5 04       		.byte	0x4
 1936 07f6 AD070000 		.4byte	0x7ad
 1937 07fa 1B       		.uleb128 0x1b
 1938 07fb 19000000 		.4byte	.LASF118
ARM GAS  C:\Users\PCHAUT~1\AppData\Local\Temp\ccJh8K3O.s 			page 35


 1939 07ff 0E       		.byte	0xe
 1940 0800 07       		.byte	0x7
 1941 0801 3F01     		.2byte	0x13f
 1942 0803 2F080000 		.4byte	0x82f
 1943 0807 19       		.uleb128 0x19
 1944 0808 DE060000 		.4byte	.LASF119
 1945 080c 07       		.byte	0x7
 1946 080d 4001     		.2byte	0x140
 1947 080f 2F080000 		.4byte	0x82f
 1948 0813 00       		.byte	0
 1949 0814 19       		.uleb128 0x19
 1950 0815 21070000 		.4byte	.LASF120
 1951 0819 07       		.byte	0x7
 1952 081a 4101     		.2byte	0x141
 1953 081c 2F080000 		.4byte	0x82f
 1954 0820 06       		.byte	0x6
 1955 0821 19       		.uleb128 0x19
 1956 0822 77070000 		.4byte	.LASF121
 1957 0826 07       		.byte	0x7
 1958 0827 4201     		.2byte	0x142
 1959 0829 3A000000 		.4byte	0x3a
 1960 082d 0C       		.byte	0xc
 1961 082e 00       		.byte	0
 1962 082f 0A       		.uleb128 0xa
 1963 0830 3A000000 		.4byte	0x3a
 1964 0834 3F080000 		.4byte	0x83f
 1965 0838 0B       		.uleb128 0xb
 1966 0839 64000000 		.4byte	0x64
 1967 083d 02       		.byte	0x2
 1968 083e 00       		.byte	0
 1969 083f 1C       		.uleb128 0x1c
 1970 0840 D0       		.byte	0xd0
 1971 0841 07       		.byte	0x7
 1972 0842 5902     		.2byte	0x259
 1973 0844 40090000 		.4byte	0x940
 1974 0848 19       		.uleb128 0x19
 1975 0849 C3070000 		.4byte	.LASF122
 1976 084d 07       		.byte	0x7
 1977 084e 5B02     		.2byte	0x25b
 1978 0850 64000000 		.4byte	0x64
 1979 0854 00       		.byte	0
 1980 0855 19       		.uleb128 0x19
 1981 0856 F5020000 		.4byte	.LASF123
 1982 085a 07       		.byte	0x7
 1983 085b 5C02     		.2byte	0x25c
 1984 085d 1D010000 		.4byte	0x11d
 1985 0861 04       		.byte	0x4
 1986 0862 19       		.uleb128 0x19
 1987 0863 0C040000 		.4byte	.LASF124
 1988 0867 07       		.byte	0x7
 1989 0868 5D02     		.2byte	0x25d
 1990 086a 40090000 		.4byte	0x940
 1991 086e 08       		.byte	0x8
 1992 086f 19       		.uleb128 0x19
 1993 0870 4D080000 		.4byte	.LASF125
 1994 0874 07       		.byte	0x7
 1995 0875 5E02     		.2byte	0x25e
ARM GAS  C:\Users\PCHAUT~1\AppData\Local\Temp\ccJh8K3O.s 			page 36


 1996 0877 4B030000 		.4byte	0x34b
 1997 087b 24       		.byte	0x24
 1998 087c 19       		.uleb128 0x19
 1999 087d 4A030000 		.4byte	.LASF126
 2000 0881 07       		.byte	0x7
 2001 0882 5F02     		.2byte	0x25f
 2002 0884 5D000000 		.4byte	0x5d
 2003 0888 48       		.byte	0x48
 2004 0889 19       		.uleb128 0x19
 2005 088a CA050000 		.4byte	.LASF127
 2006 088e 07       		.byte	0x7
 2007 088f 6002     		.2byte	0x260
 2008 0891 56000000 		.4byte	0x56
 2009 0895 50       		.byte	0x50
 2010 0896 19       		.uleb128 0x19
 2011 0897 63080000 		.4byte	.LASF128
 2012 089b 07       		.byte	0x7
 2013 089c 6102     		.2byte	0x261
 2014 089e FA070000 		.4byte	0x7fa
 2015 08a2 58       		.byte	0x58
 2016 08a3 19       		.uleb128 0x19
 2017 08a4 D5050000 		.4byte	.LASF129
 2018 08a8 07       		.byte	0x7
 2019 08a9 6202     		.2byte	0x262
 2020 08ab 05010000 		.4byte	0x105
 2021 08af 68       		.byte	0x68
 2022 08b0 19       		.uleb128 0x19
 2023 08b1 68080000 		.4byte	.LASF130
 2024 08b5 07       		.byte	0x7
 2025 08b6 6302     		.2byte	0x263
 2026 08b8 05010000 		.4byte	0x105
 2027 08bc 70       		.byte	0x70
 2028 08bd 19       		.uleb128 0x19
 2029 08be 10050000 		.4byte	.LASF131
 2030 08c2 07       		.byte	0x7
 2031 08c3 6402     		.2byte	0x264
 2032 08c5 05010000 		.4byte	0x105
 2033 08c9 78       		.byte	0x78
 2034 08ca 19       		.uleb128 0x19
 2035 08cb EE070000 		.4byte	.LASF132
 2036 08cf 07       		.byte	0x7
 2037 08d0 6502     		.2byte	0x265
 2038 08d2 50090000 		.4byte	0x950
 2039 08d6 80       		.byte	0x80
 2040 08d7 19       		.uleb128 0x19
 2041 08d8 00040000 		.4byte	.LASF133
 2042 08dc 07       		.byte	0x7
 2043 08dd 6602     		.2byte	0x266
 2044 08df 60090000 		.4byte	0x960
 2045 08e3 88       		.byte	0x88
 2046 08e4 19       		.uleb128 0x19
 2047 08e5 A3070000 		.4byte	.LASF134
 2048 08e9 07       		.byte	0x7
 2049 08ea 6702     		.2byte	0x267
 2050 08ec 5D000000 		.4byte	0x5d
 2051 08f0 A0       		.byte	0xa0
 2052 08f1 19       		.uleb128 0x19
ARM GAS  C:\Users\PCHAUT~1\AppData\Local\Temp\ccJh8K3O.s 			page 37


 2053 08f2 02030000 		.4byte	.LASF135
 2054 08f6 07       		.byte	0x7
 2055 08f7 6802     		.2byte	0x268
 2056 08f9 05010000 		.4byte	0x105
 2057 08fd A4       		.byte	0xa4
 2058 08fe 19       		.uleb128 0x19
 2059 08ff B3000000 		.4byte	.LASF136
 2060 0903 07       		.byte	0x7
 2061 0904 6902     		.2byte	0x269
 2062 0906 05010000 		.4byte	0x105
 2063 090a AC       		.byte	0xac
 2064 090b 19       		.uleb128 0x19
 2065 090c E4020000 		.4byte	.LASF137
 2066 0910 07       		.byte	0x7
 2067 0911 6A02     		.2byte	0x26a
 2068 0913 05010000 		.4byte	0x105
 2069 0917 B4       		.byte	0xb4
 2070 0918 19       		.uleb128 0x19
 2071 0919 32000000 		.4byte	.LASF138
 2072 091d 07       		.byte	0x7
 2073 091e 6B02     		.2byte	0x26b
 2074 0920 05010000 		.4byte	0x105
 2075 0924 BC       		.byte	0xbc
 2076 0925 19       		.uleb128 0x19
 2077 0926 4E000000 		.4byte	.LASF139
 2078 092a 07       		.byte	0x7
 2079 092b 6C02     		.2byte	0x26c
 2080 092d 05010000 		.4byte	0x105
 2081 0931 C4       		.byte	0xc4
 2082 0932 19       		.uleb128 0x19
 2083 0933 7D050000 		.4byte	.LASF140
 2084 0937 07       		.byte	0x7
 2085 0938 6D02     		.2byte	0x26d
 2086 093a 5D000000 		.4byte	0x5d
 2087 093e CC       		.byte	0xcc
 2088 093f 00       		.byte	0
 2089 0940 0A       		.uleb128 0xa
 2090 0941 23010000 		.4byte	0x123
 2091 0945 50090000 		.4byte	0x950
 2092 0949 0B       		.uleb128 0xb
 2093 094a 64000000 		.4byte	0x64
 2094 094e 19       		.byte	0x19
 2095 094f 00       		.byte	0
 2096 0950 0A       		.uleb128 0xa
 2097 0951 23010000 		.4byte	0x123
 2098 0955 60090000 		.4byte	0x960
 2099 0959 0B       		.uleb128 0xb
 2100 095a 64000000 		.4byte	0x64
 2101 095e 07       		.byte	0x7
 2102 095f 00       		.byte	0
 2103 0960 0A       		.uleb128 0xa
 2104 0961 23010000 		.4byte	0x123
 2105 0965 70090000 		.4byte	0x970
 2106 0969 0B       		.uleb128 0xb
 2107 096a 64000000 		.4byte	0x64
 2108 096e 17       		.byte	0x17
 2109 096f 00       		.byte	0
ARM GAS  C:\Users\PCHAUT~1\AppData\Local\Temp\ccJh8K3O.s 			page 38


 2110 0970 1C       		.uleb128 0x1c
 2111 0971 F0       		.byte	0xf0
 2112 0972 07       		.byte	0x7
 2113 0973 7202     		.2byte	0x272
 2114 0975 94090000 		.4byte	0x994
 2115 0979 19       		.uleb128 0x19
 2116 097a A8040000 		.4byte	.LASF141
 2117 097e 07       		.byte	0x7
 2118 097f 7502     		.2byte	0x275
 2119 0981 94090000 		.4byte	0x994
 2120 0985 00       		.byte	0
 2121 0986 19       		.uleb128 0x19
 2122 0987 E5070000 		.4byte	.LASF142
 2123 098b 07       		.byte	0x7
 2124 098c 7602     		.2byte	0x276
 2125 098e A4090000 		.4byte	0x9a4
 2126 0992 78       		.byte	0x78
 2127 0993 00       		.byte	0
 2128 0994 0A       		.uleb128 0xa
 2129 0995 94040000 		.4byte	0x494
 2130 0999 A4090000 		.4byte	0x9a4
 2131 099d 0B       		.uleb128 0xb
 2132 099e 64000000 		.4byte	0x64
 2133 09a2 1D       		.byte	0x1d
 2134 09a3 00       		.byte	0
 2135 09a4 0A       		.uleb128 0xa
 2136 09a5 64000000 		.4byte	0x64
 2137 09a9 B4090000 		.4byte	0x9b4
 2138 09ad 0B       		.uleb128 0xb
 2139 09ae 64000000 		.4byte	0x64
 2140 09b2 1D       		.byte	0x1d
 2141 09b3 00       		.byte	0
 2142 09b4 1D       		.uleb128 0x1d
 2143 09b5 F0       		.byte	0xf0
 2144 09b6 07       		.byte	0x7
 2145 09b7 5702     		.2byte	0x257
 2146 09b9 D6090000 		.4byte	0x9d6
 2147 09bd 1E       		.uleb128 0x1e
 2148 09be 5A060000 		.4byte	.LASF92
 2149 09c2 07       		.byte	0x7
 2150 09c3 6E02     		.2byte	0x26e
 2151 09c5 3F080000 		.4byte	0x83f
 2152 09c9 1E       		.uleb128 0x1e
 2153 09ca 3A080000 		.4byte	.LASF143
 2154 09ce 07       		.byte	0x7
 2155 09cf 7702     		.2byte	0x277
 2156 09d1 70090000 		.4byte	0x970
 2157 09d5 00       		.byte	0
 2158 09d6 0A       		.uleb128 0xa
 2159 09d7 23010000 		.4byte	0x123
 2160 09db E6090000 		.4byte	0x9e6
 2161 09df 0B       		.uleb128 0xb
 2162 09e0 64000000 		.4byte	0x64
 2163 09e4 18       		.byte	0x18
 2164 09e5 00       		.byte	0
 2165 09e6 06       		.uleb128 0x6
 2166 09e7 9D000000 		.4byte	.LASF145
ARM GAS  C:\Users\PCHAUT~1\AppData\Local\Temp\ccJh8K3O.s 			page 39


 2167 09eb 05       		.uleb128 0x5
 2168 09ec 04       		.byte	0x4
 2169 09ed E6090000 		.4byte	0x9e6
 2170 09f1 1F       		.uleb128 0x1f
 2171 09f2 FC090000 		.4byte	0x9fc
 2172 09f6 17       		.uleb128 0x17
 2173 09f7 E2050000 		.4byte	0x5e2
 2174 09fb 00       		.byte	0
 2175 09fc 05       		.uleb128 0x5
 2176 09fd 04       		.byte	0x4
 2177 09fe F1090000 		.4byte	0x9f1
 2178 0a02 05       		.uleb128 0x5
 2179 0a03 04       		.byte	0x4
 2180 0a04 35030000 		.4byte	0x335
 2181 0a08 1F       		.uleb128 0x1f
 2182 0a09 130A0000 		.4byte	0xa13
 2183 0a0d 17       		.uleb128 0x17
 2184 0a0e 5D000000 		.4byte	0x5d
 2185 0a12 00       		.byte	0
 2186 0a13 05       		.uleb128 0x5
 2187 0a14 04       		.byte	0x4
 2188 0a15 190A0000 		.4byte	0xa19
 2189 0a19 05       		.uleb128 0x5
 2190 0a1a 04       		.byte	0x4
 2191 0a1b 080A0000 		.4byte	0xa08
 2192 0a1f 0A       		.uleb128 0xa
 2193 0a20 AD070000 		.4byte	0x7ad
 2194 0a24 2F0A0000 		.4byte	0xa2f
 2195 0a28 0B       		.uleb128 0xb
 2196 0a29 64000000 		.4byte	0x64
 2197 0a2d 02       		.byte	0x2
 2198 0a2e 00       		.byte	0
 2199 0a2f 20       		.uleb128 0x20
 2200 0a30 A7060000 		.4byte	.LASF146
 2201 0a34 07       		.byte	0x7
 2202 0a35 0703     		.2byte	0x307
 2203 0a37 E2050000 		.4byte	0x5e2
 2204 0a3b 20       		.uleb128 0x20
 2205 0a3c B0070000 		.4byte	.LASF147
 2206 0a40 07       		.byte	0x7
 2207 0a41 0803     		.2byte	0x308
 2208 0a43 E8050000 		.4byte	0x5e8
 2209 0a47 21       		.uleb128 0x21
 2210 0a48 5C070000 		.4byte	.LASF154
 2211 0a4c 01       		.byte	0x1
 2212 0a4d 9D       		.byte	0x9d
 2213 0a4e 4C020000 		.4byte	0x24c
 2214 0a52 00000000 		.4byte	.LFB11
 2215 0a56 4C000000 		.4byte	.LFE11-.LFB11
 2216 0a5a 01       		.uleb128 0x1
 2217 0a5b 9C       		.byte	0x9c
 2218 0a5c 7D0A0000 		.4byte	0xa7d
 2219 0a60 22       		.uleb128 0x22
 2220 0a61 24010000 		.4byte	.LASF39
 2221 0a65 01       		.byte	0x1
 2222 0a66 9D       		.byte	0x9d
 2223 0a67 C6020000 		.4byte	0x2c6
ARM GAS  C:\Users\PCHAUT~1\AppData\Local\Temp\ccJh8K3O.s 			page 40


 2224 0a6b 02       		.uleb128 0x2
 2225 0a6c 91       		.byte	0x91
 2226 0a6d 6C       		.sleb128 -20
 2227 0a6e 23       		.uleb128 0x23
 2228 0a6f 72657300 		.ascii	"res\000"
 2229 0a73 01       		.byte	0x1
 2230 0a74 9F       		.byte	0x9f
 2231 0a75 4C020000 		.4byte	0x24c
 2232 0a79 02       		.uleb128 0x2
 2233 0a7a 91       		.byte	0x91
 2234 0a7b 70       		.sleb128 -16
 2235 0a7c 00       		.byte	0
 2236 0a7d 24       		.uleb128 0x24
 2237 0a7e 18080000 		.4byte	.LASF150
 2238 0a82 01       		.byte	0x1
 2239 0a83 8B       		.byte	0x8b
 2240 0a84 00000000 		.4byte	.LFB10
 2241 0a88 70000000 		.4byte	.LFE10-.LFB10
 2242 0a8c 01       		.uleb128 0x1
 2243 0a8d 9C       		.byte	0x9c
 2244 0a8e BD0A0000 		.4byte	0xabd
 2245 0a92 22       		.uleb128 0x22
 2246 0a93 95000000 		.4byte	.LASF148
 2247 0a97 01       		.byte	0x1
 2248 0a98 8B       		.byte	0x8b
 2249 0a99 BD0A0000 		.4byte	0xabd
 2250 0a9d 02       		.uleb128 0x2
 2251 0a9e 91       		.byte	0x91
 2252 0a9f 6C       		.sleb128 -20
 2253 0aa0 22       		.uleb128 0x22
 2254 0aa1 24010000 		.4byte	.LASF39
 2255 0aa5 01       		.byte	0x1
 2256 0aa6 8C       		.byte	0x8c
 2257 0aa7 C6020000 		.4byte	0x2c6
 2258 0aab 02       		.uleb128 0x2
 2259 0aac 91       		.byte	0x91
 2260 0aad 68       		.sleb128 -24
 2261 0aae 22       		.uleb128 0x22
 2262 0aaf A4020000 		.4byte	.LASF149
 2263 0ab3 01       		.byte	0x1
 2264 0ab4 8D       		.byte	0x8d
 2265 0ab5 4C020000 		.4byte	0x24c
 2266 0ab9 02       		.uleb128 0x2
 2267 0aba 91       		.byte	0x91
 2268 0abb 64       		.sleb128 -28
 2269 0abc 00       		.byte	0
 2270 0abd 05       		.uleb128 0x5
 2271 0abe 04       		.byte	0x4
 2272 0abf CC020000 		.4byte	0x2cc
 2273 0ac3 24       		.uleb128 0x24
 2274 0ac4 C9020000 		.4byte	.LASF151
 2275 0ac8 01       		.byte	0x1
 2276 0ac9 84       		.byte	0x84
 2277 0aca 00000000 		.4byte	.LFB9
 2278 0ace 38000000 		.4byte	.LFE9-.LFB9
 2279 0ad2 01       		.uleb128 0x1
 2280 0ad3 9C       		.byte	0x9c
ARM GAS  C:\Users\PCHAUT~1\AppData\Local\Temp\ccJh8K3O.s 			page 41


 2281 0ad4 030B0000 		.4byte	0xb03
 2282 0ad8 22       		.uleb128 0x22
 2283 0ad9 24010000 		.4byte	.LASF39
 2284 0add 01       		.byte	0x1
 2285 0ade 84       		.byte	0x84
 2286 0adf C6020000 		.4byte	0x2c6
 2287 0ae3 02       		.uleb128 0x2
 2288 0ae4 91       		.byte	0x91
 2289 0ae5 6C       		.sleb128 -20
 2290 0ae6 22       		.uleb128 0x22
 2291 0ae7 7B080000 		.4byte	.LASF30
 2292 0aeb 01       		.byte	0x1
 2293 0aec 84       		.byte	0x84
 2294 0aed 1B010000 		.4byte	0x11b
 2295 0af1 02       		.uleb128 0x2
 2296 0af2 91       		.byte	0x91
 2297 0af3 68       		.sleb128 -24
 2298 0af4 22       		.uleb128 0x22
 2299 0af5 7E040000 		.4byte	.LASF31
 2300 0af9 01       		.byte	0x1
 2301 0afa 85       		.byte	0x85
 2302 0afb 1B010000 		.4byte	0x11b
 2303 0aff 02       		.uleb128 0x2
 2304 0b00 91       		.byte	0x91
 2305 0b01 64       		.sleb128 -28
 2306 0b02 00       		.byte	0
 2307 0b03 24       		.uleb128 0x24
 2308 0b04 F8070000 		.4byte	.LASF152
 2309 0b08 01       		.byte	0x1
 2310 0b09 7A       		.byte	0x7a
 2311 0b0a 00000000 		.4byte	.LFB8
 2312 0b0e 58000000 		.4byte	.LFE8-.LFB8
 2313 0b12 01       		.uleb128 0x1
 2314 0b13 9C       		.byte	0x9c
 2315 0b14 430B0000 		.4byte	0xb43
 2316 0b18 22       		.uleb128 0x22
 2317 0b19 A4020000 		.4byte	.LASF149
 2318 0b1d 01       		.byte	0x1
 2319 0b1e 7A       		.byte	0x7a
 2320 0b1f 4C020000 		.4byte	0x24c
 2321 0b23 02       		.uleb128 0x2
 2322 0b24 91       		.byte	0x91
 2323 0b25 6C       		.sleb128 -20
 2324 0b26 25       		.uleb128 0x25
 2325 0b27 62756600 		.ascii	"buf\000"
 2326 0b2b 01       		.byte	0x1
 2327 0b2c 7A       		.byte	0x7a
 2328 0b2d 1B010000 		.4byte	0x11b
 2329 0b31 02       		.uleb128 0x2
 2330 0b32 91       		.byte	0x91
 2331 0b33 68       		.sleb128 -24
 2332 0b34 22       		.uleb128 0x22
 2333 0b35 EA000000 		.4byte	.LASF153
 2334 0b39 01       		.byte	0x1
 2335 0b3a 7A       		.byte	0x7a
 2336 0b3b 6B000000 		.4byte	0x6b
 2337 0b3f 02       		.uleb128 0x2
ARM GAS  C:\Users\PCHAUT~1\AppData\Local\Temp\ccJh8K3O.s 			page 42


 2338 0b40 91       		.byte	0x91
 2339 0b41 64       		.sleb128 -28
 2340 0b42 00       		.byte	0
 2341 0b43 21       		.uleb128 0x21
 2342 0b44 32050000 		.4byte	.LASF155
 2343 0b48 01       		.byte	0x1
 2344 0b49 6B       		.byte	0x6b
 2345 0b4a F4010000 		.4byte	0x1f4
 2346 0b4e 00000000 		.4byte	.LFB7
 2347 0b52 68000000 		.4byte	.LFE7-.LFB7
 2348 0b56 01       		.uleb128 0x1
 2349 0b57 9C       		.byte	0x9c
 2350 0b58 950B0000 		.4byte	0xb95
 2351 0b5c 22       		.uleb128 0x22
 2352 0b5d A4020000 		.4byte	.LASF149
 2353 0b61 01       		.byte	0x1
 2354 0b62 6B       		.byte	0x6b
 2355 0b63 4C020000 		.4byte	0x24c
 2356 0b67 02       		.uleb128 0x2
 2357 0b68 91       		.byte	0x91
 2358 0b69 6C       		.sleb128 -20
 2359 0b6a 25       		.uleb128 0x25
 2360 0b6b 62756600 		.ascii	"buf\000"
 2361 0b6f 01       		.byte	0x1
 2362 0b70 6B       		.byte	0x6b
 2363 0b71 1B010000 		.4byte	0x11b
 2364 0b75 02       		.uleb128 0x2
 2365 0b76 91       		.byte	0x91
 2366 0b77 68       		.sleb128 -24
 2367 0b78 22       		.uleb128 0x22
 2368 0b79 EA000000 		.4byte	.LASF153
 2369 0b7d 01       		.byte	0x1
 2370 0b7e 6B       		.byte	0x6b
 2371 0b7f 6B000000 		.4byte	0x6b
 2372 0b83 02       		.uleb128 0x2
 2373 0b84 91       		.byte	0x91
 2374 0b85 64       		.sleb128 -28
 2375 0b86 26       		.uleb128 0x26
 2376 0b87 8A080000 		.4byte	.LASF156
 2377 0b8b 01       		.byte	0x1
 2378 0b8c 6D       		.byte	0x6d
 2379 0b8d F4010000 		.4byte	0x1f4
 2380 0b91 02       		.uleb128 0x2
 2381 0b92 91       		.byte	0x91
 2382 0b93 73       		.sleb128 -13
 2383 0b94 00       		.byte	0
 2384 0b95 21       		.uleb128 0x21
 2385 0b96 ED040000 		.4byte	.LASF157
 2386 0b9a 01       		.byte	0x1
 2387 0b9b 52       		.byte	0x52
 2388 0b9c F4010000 		.4byte	0x1f4
 2389 0ba0 00000000 		.4byte	.LFB6
 2390 0ba4 B0000000 		.4byte	.LFE6-.LFB6
 2391 0ba8 01       		.uleb128 0x1
 2392 0ba9 9C       		.byte	0x9c
 2393 0baa E50B0000 		.4byte	0xbe5
 2394 0bae 22       		.uleb128 0x22
ARM GAS  C:\Users\PCHAUT~1\AppData\Local\Temp\ccJh8K3O.s 			page 43


 2395 0baf A4020000 		.4byte	.LASF149
 2396 0bb3 01       		.byte	0x1
 2397 0bb4 52       		.byte	0x52
 2398 0bb5 4C020000 		.4byte	0x24c
 2399 0bb9 02       		.uleb128 0x2
 2400 0bba 91       		.byte	0x91
 2401 0bbb 6C       		.sleb128 -20
 2402 0bbc 25       		.uleb128 0x25
 2403 0bbd 62756600 		.ascii	"buf\000"
 2404 0bc1 01       		.byte	0x1
 2405 0bc2 52       		.byte	0x52
 2406 0bc3 1B010000 		.4byte	0x11b
 2407 0bc7 02       		.uleb128 0x2
 2408 0bc8 91       		.byte	0x91
 2409 0bc9 68       		.sleb128 -24
 2410 0bca 22       		.uleb128 0x22
 2411 0bcb EA000000 		.4byte	.LASF153
 2412 0bcf 01       		.byte	0x1
 2413 0bd0 52       		.byte	0x52
 2414 0bd1 6B000000 		.4byte	0x6b
 2415 0bd5 02       		.uleb128 0x2
 2416 0bd6 91       		.byte	0x91
 2417 0bd7 64       		.sleb128 -28
 2418 0bd8 23       		.uleb128 0x23
 2419 0bd9 7700     		.ascii	"w\000"
 2420 0bdb 01       		.byte	0x1
 2421 0bdc 5E       		.byte	0x5e
 2422 0bdd BD0A0000 		.4byte	0xabd
 2423 0be1 02       		.uleb128 0x2
 2424 0be2 91       		.byte	0x91
 2425 0be3 70       		.sleb128 -16
 2426 0be4 00       		.byte	0
 2427 0be5 21       		.uleb128 0x21
 2428 0be6 7C070000 		.4byte	.LASF158
 2429 0bea 01       		.byte	0x1
 2430 0beb 3F       		.byte	0x3f
 2431 0bec 4C020000 		.4byte	0x24c
 2432 0bf0 00000000 		.4byte	.LFB5
 2433 0bf4 64000000 		.4byte	.LFE5-.LFB5
 2434 0bf8 01       		.uleb128 0x1
 2435 0bf9 9C       		.byte	0x9c
 2436 0bfa 290C0000 		.4byte	0xc29
 2437 0bfe 25       		.uleb128 0x25
 2438 0bff 62757300 		.ascii	"bus\000"
 2439 0c03 01       		.byte	0x1
 2440 0c04 3F       		.byte	0x3f
 2441 0c05 290C0000 		.4byte	0xc29
 2442 0c09 02       		.uleb128 0x2
 2443 0c0a 91       		.byte	0x91
 2444 0c0b 6C       		.sleb128 -20
 2445 0c0c 22       		.uleb128 0x22
 2446 0c0d C5030000 		.4byte	.LASF32
 2447 0c11 01       		.byte	0x1
 2448 0c12 3F       		.byte	0x3f
 2449 0c13 43070000 		.4byte	0x743
 2450 0c17 02       		.uleb128 0x2
 2451 0c18 91       		.byte	0x91
ARM GAS  C:\Users\PCHAUT~1\AppData\Local\Temp\ccJh8K3O.s 			page 44


 2452 0c19 68       		.sleb128 -24
 2453 0c1a 23       		.uleb128 0x23
 2454 0c1b 72657300 		.ascii	"res\000"
 2455 0c1f 01       		.byte	0x1
 2456 0c20 41       		.byte	0x41
 2457 0c21 4C020000 		.4byte	0x24c
 2458 0c25 02       		.uleb128 0x2
 2459 0c26 91       		.byte	0x91
 2460 0c27 70       		.sleb128 -16
 2461 0c28 00       		.byte	0
 2462 0c29 05       		.uleb128 0x5
 2463 0c2a 04       		.byte	0x4
 2464 0c2b 7F020000 		.4byte	0x27f
 2465 0c2f 21       		.uleb128 0x21
 2466 0c30 36070000 		.4byte	.LASF159
 2467 0c34 01       		.byte	0x1
 2468 0c35 32       		.byte	0x32
 2469 0c36 4C020000 		.4byte	0x24c
 2470 0c3a 00000000 		.4byte	.LFB4
 2471 0c3e 48000000 		.4byte	.LFE4-.LFB4
 2472 0c42 01       		.uleb128 0x1
 2473 0c43 9C       		.byte	0x9c
 2474 0c44 730C0000 		.4byte	0xc73
 2475 0c48 25       		.uleb128 0x25
 2476 0c49 62757300 		.ascii	"bus\000"
 2477 0c4d 01       		.byte	0x1
 2478 0c4e 32       		.byte	0x32
 2479 0c4f 290C0000 		.4byte	0xc29
 2480 0c53 02       		.uleb128 0x2
 2481 0c54 91       		.byte	0x91
 2482 0c55 6C       		.sleb128 -20
 2483 0c56 22       		.uleb128 0x22
 2484 0c57 C5030000 		.4byte	.LASF32
 2485 0c5b 01       		.byte	0x1
 2486 0c5c 32       		.byte	0x32
 2487 0c5d 43070000 		.4byte	0x743
 2488 0c61 02       		.uleb128 0x2
 2489 0c62 91       		.byte	0x91
 2490 0c63 68       		.sleb128 -24
 2491 0c64 23       		.uleb128 0x23
 2492 0c65 72657300 		.ascii	"res\000"
 2493 0c69 01       		.byte	0x1
 2494 0c6a 34       		.byte	0x34
 2495 0c6b 4C020000 		.4byte	0x24c
 2496 0c6f 02       		.uleb128 0x2
 2497 0c70 91       		.byte	0x91
 2498 0c71 70       		.sleb128 -16
 2499 0c72 00       		.byte	0
 2500 0c73 24       		.uleb128 0x24
 2501 0c74 AF040000 		.4byte	.LASF160
 2502 0c78 01       		.byte	0x1
 2503 0c79 21       		.byte	0x21
 2504 0c7a 00000000 		.4byte	.LFB3
 2505 0c7e 7C000000 		.4byte	.LFE3-.LFB3
 2506 0c82 01       		.uleb128 0x1
 2507 0c83 9C       		.byte	0x9c
 2508 0c84 B30C0000 		.4byte	0xcb3
ARM GAS  C:\Users\PCHAUT~1\AppData\Local\Temp\ccJh8K3O.s 			page 45


 2509 0c88 25       		.uleb128 0x25
 2510 0c89 62757300 		.ascii	"bus\000"
 2511 0c8d 01       		.byte	0x1
 2512 0c8e 21       		.byte	0x21
 2513 0c8f 290C0000 		.4byte	0xc29
 2514 0c93 02       		.uleb128 0x2
 2515 0c94 91       		.byte	0x91
 2516 0c95 6C       		.sleb128 -20
 2517 0c96 22       		.uleb128 0x22
 2518 0c97 A4020000 		.4byte	.LASF149
 2519 0c9b 01       		.byte	0x1
 2520 0c9c 21       		.byte	0x21
 2521 0c9d 4C020000 		.4byte	0x24c
 2522 0ca1 02       		.uleb128 0x2
 2523 0ca2 91       		.byte	0x91
 2524 0ca3 68       		.sleb128 -24
 2525 0ca4 22       		.uleb128 0x22
 2526 0ca5 C5030000 		.4byte	.LASF32
 2527 0ca9 01       		.byte	0x1
 2528 0caa 21       		.byte	0x21
 2529 0cab 43070000 		.4byte	0x743
 2530 0caf 02       		.uleb128 0x2
 2531 0cb0 91       		.byte	0x91
 2532 0cb1 64       		.sleb128 -28
 2533 0cb2 00       		.byte	0
 2534 0cb3 24       		.uleb128 0x24
 2535 0cb4 7F000000 		.4byte	.LASF161
 2536 0cb8 01       		.byte	0x1
 2537 0cb9 17       		.byte	0x17
 2538 0cba 00000000 		.4byte	.LFB2
 2539 0cbe 54000000 		.4byte	.LFE2-.LFB2
 2540 0cc2 01       		.uleb128 0x1
 2541 0cc3 9C       		.byte	0x9c
 2542 0cc4 0F0D0000 		.4byte	0xd0f
 2543 0cc8 22       		.uleb128 0x22
 2544 0cc9 A4020000 		.4byte	.LASF149
 2545 0ccd 01       		.byte	0x1
 2546 0cce 17       		.byte	0x17
 2547 0ccf 4C020000 		.4byte	0x24c
 2548 0cd3 02       		.uleb128 0x2
 2549 0cd4 91       		.byte	0x91
 2550 0cd5 6C       		.sleb128 -20
 2551 0cd6 22       		.uleb128 0x22
 2552 0cd7 A8000000 		.4byte	.LASF162
 2553 0cdb 01       		.byte	0x1
 2554 0cdc 17       		.byte	0x17
 2555 0cdd 1B010000 		.4byte	0x11b
 2556 0ce1 02       		.uleb128 0x2
 2557 0ce2 91       		.byte	0x91
 2558 0ce3 68       		.sleb128 -24
 2559 0ce4 22       		.uleb128 0x22
 2560 0ce5 1D030000 		.4byte	.LASF163
 2561 0ce9 01       		.byte	0x1
 2562 0cea 17       		.byte	0x17
 2563 0ceb 1B010000 		.4byte	0x11b
 2564 0cef 02       		.uleb128 0x2
 2565 0cf0 91       		.byte	0x91
ARM GAS  C:\Users\PCHAUT~1\AppData\Local\Temp\ccJh8K3O.s 			page 46


 2566 0cf1 64       		.sleb128 -28
 2567 0cf2 22       		.uleb128 0x22
 2568 0cf3 C2020000 		.4byte	.LASF28
 2569 0cf7 01       		.byte	0x1
 2570 0cf8 18       		.byte	0x18
 2571 0cf9 1B010000 		.4byte	0x11b
 2572 0cfd 02       		.uleb128 0x2
 2573 0cfe 91       		.byte	0x91
 2574 0cff 60       		.sleb128 -32
 2575 0d00 22       		.uleb128 0x22
 2576 0d01 F2000000 		.4byte	.LASF29
 2577 0d05 01       		.byte	0x1
 2578 0d06 18       		.byte	0x18
 2579 0d07 6B000000 		.4byte	0x6b
 2580 0d0b 02       		.uleb128 0x2
 2581 0d0c 91       		.byte	0x91
 2582 0d0d 5C       		.sleb128 -36
 2583 0d0e 00       		.byte	0
 2584 0d0f 24       		.uleb128 0x24
 2585 0d10 54040000 		.4byte	.LASF164
 2586 0d14 01       		.byte	0x1
 2587 0d15 10       		.byte	0x10
 2588 0d16 00000000 		.4byte	.LFB1
 2589 0d1a 40000000 		.4byte	.LFE1-.LFB1
 2590 0d1e 01       		.uleb128 0x1
 2591 0d1f 9C       		.byte	0x9c
 2592 0d20 4F0D0000 		.4byte	0xd4f
 2593 0d24 25       		.uleb128 0x25
 2594 0d25 62757300 		.ascii	"bus\000"
 2595 0d29 01       		.byte	0x1
 2596 0d2a 10       		.byte	0x10
 2597 0d2b 290C0000 		.4byte	0xc29
 2598 0d2f 02       		.uleb128 0x2
 2599 0d30 91       		.byte	0x91
 2600 0d31 6C       		.sleb128 -20
 2601 0d32 22       		.uleb128 0x22
 2602 0d33 7B080000 		.4byte	.LASF30
 2603 0d37 01       		.byte	0x1
 2604 0d38 10       		.byte	0x10
 2605 0d39 1B010000 		.4byte	0x11b
 2606 0d3d 02       		.uleb128 0x2
 2607 0d3e 91       		.byte	0x91
 2608 0d3f 68       		.sleb128 -24
 2609 0d40 22       		.uleb128 0x22
 2610 0d41 7E040000 		.4byte	.LASF31
 2611 0d45 01       		.byte	0x1
 2612 0d46 10       		.byte	0x10
 2613 0d47 1B010000 		.4byte	0x11b
 2614 0d4b 02       		.uleb128 0x2
 2615 0d4c 91       		.byte	0x91
 2616 0d4d 64       		.sleb128 -28
 2617 0d4e 00       		.byte	0
 2618 0d4f 27       		.uleb128 0x27
 2619 0d50 88030000 		.4byte	.LASF168
 2620 0d54 01       		.byte	0x1
 2621 0d55 04       		.byte	0x4
 2622 0d56 4C020000 		.4byte	0x24c
ARM GAS  C:\Users\PCHAUT~1\AppData\Local\Temp\ccJh8K3O.s 			page 47


 2623 0d5a 00000000 		.4byte	.LFB0
 2624 0d5e 54000000 		.4byte	.LFE0-.LFB0
 2625 0d62 01       		.uleb128 0x1
 2626 0d63 9C       		.byte	0x9c
 2627 0d64 25       		.uleb128 0x25
 2628 0d65 62757300 		.ascii	"bus\000"
 2629 0d69 01       		.byte	0x1
 2630 0d6a 04       		.byte	0x4
 2631 0d6b 290C0000 		.4byte	0xc29
 2632 0d6f 02       		.uleb128 0x2
 2633 0d70 91       		.byte	0x91
 2634 0d71 6C       		.sleb128 -20
 2635 0d72 22       		.uleb128 0x22
 2636 0d73 C5030000 		.4byte	.LASF32
 2637 0d77 01       		.byte	0x1
 2638 0d78 04       		.byte	0x4
 2639 0d79 43070000 		.4byte	0x743
 2640 0d7d 02       		.uleb128 0x2
 2641 0d7e 91       		.byte	0x91
 2642 0d7f 68       		.sleb128 -24
 2643 0d80 23       		.uleb128 0x23
 2644 0d81 7400     		.ascii	"t\000"
 2645 0d83 01       		.byte	0x1
 2646 0d84 06       		.byte	0x6
 2647 0d85 4C020000 		.4byte	0x24c
 2648 0d89 02       		.uleb128 0x2
 2649 0d8a 91       		.byte	0x91
 2650 0d8b 70       		.sleb128 -16
 2651 0d8c 00       		.byte	0
 2652 0d8d 00       		.byte	0
 2653              		.section	.debug_abbrev,"",%progbits
 2654              	.Ldebug_abbrev0:
 2655 0000 01       		.uleb128 0x1
 2656 0001 11       		.uleb128 0x11
 2657 0002 01       		.byte	0x1
 2658 0003 25       		.uleb128 0x25
 2659 0004 0E       		.uleb128 0xe
 2660 0005 13       		.uleb128 0x13
 2661 0006 0B       		.uleb128 0xb
 2662 0007 03       		.uleb128 0x3
 2663 0008 0E       		.uleb128 0xe
 2664 0009 1B       		.uleb128 0x1b
 2665 000a 0E       		.uleb128 0xe
 2666 000b 55       		.uleb128 0x55
 2667 000c 17       		.uleb128 0x17
 2668 000d 11       		.uleb128 0x11
 2669 000e 01       		.uleb128 0x1
 2670 000f 10       		.uleb128 0x10
 2671 0010 17       		.uleb128 0x17
 2672 0011 00       		.byte	0
 2673 0012 00       		.byte	0
 2674 0013 02       		.uleb128 0x2
 2675 0014 24       		.uleb128 0x24
 2676 0015 00       		.byte	0
 2677 0016 0B       		.uleb128 0xb
 2678 0017 0B       		.uleb128 0xb
 2679 0018 3E       		.uleb128 0x3e
ARM GAS  C:\Users\PCHAUT~1\AppData\Local\Temp\ccJh8K3O.s 			page 48


 2680 0019 0B       		.uleb128 0xb
 2681 001a 03       		.uleb128 0x3
 2682 001b 0E       		.uleb128 0xe
 2683 001c 00       		.byte	0
 2684 001d 00       		.byte	0
 2685 001e 03       		.uleb128 0x3
 2686 001f 24       		.uleb128 0x24
 2687 0020 00       		.byte	0
 2688 0021 0B       		.uleb128 0xb
 2689 0022 0B       		.uleb128 0xb
 2690 0023 3E       		.uleb128 0x3e
 2691 0024 0B       		.uleb128 0xb
 2692 0025 03       		.uleb128 0x3
 2693 0026 08       		.uleb128 0x8
 2694 0027 00       		.byte	0
 2695 0028 00       		.byte	0
 2696 0029 04       		.uleb128 0x4
 2697 002a 16       		.uleb128 0x16
 2698 002b 00       		.byte	0
 2699 002c 03       		.uleb128 0x3
 2700 002d 0E       		.uleb128 0xe
 2701 002e 3A       		.uleb128 0x3a
 2702 002f 0B       		.uleb128 0xb
 2703 0030 3B       		.uleb128 0x3b
 2704 0031 0B       		.uleb128 0xb
 2705 0032 49       		.uleb128 0x49
 2706 0033 13       		.uleb128 0x13
 2707 0034 00       		.byte	0
 2708 0035 00       		.byte	0
 2709 0036 05       		.uleb128 0x5
 2710 0037 0F       		.uleb128 0xf
 2711 0038 00       		.byte	0
 2712 0039 0B       		.uleb128 0xb
 2713 003a 0B       		.uleb128 0xb
 2714 003b 49       		.uleb128 0x49
 2715 003c 13       		.uleb128 0x13
 2716 003d 00       		.byte	0
 2717 003e 00       		.byte	0
 2718 003f 06       		.uleb128 0x6
 2719 0040 13       		.uleb128 0x13
 2720 0041 00       		.byte	0
 2721 0042 03       		.uleb128 0x3
 2722 0043 0E       		.uleb128 0xe
 2723 0044 3C       		.uleb128 0x3c
 2724 0045 19       		.uleb128 0x19
 2725 0046 00       		.byte	0
 2726 0047 00       		.byte	0
 2727 0048 07       		.uleb128 0x7
 2728 0049 16       		.uleb128 0x16
 2729 004a 00       		.byte	0
 2730 004b 03       		.uleb128 0x3
 2731 004c 0E       		.uleb128 0xe
 2732 004d 3A       		.uleb128 0x3a
 2733 004e 0B       		.uleb128 0xb
 2734 004f 3B       		.uleb128 0x3b
 2735 0050 05       		.uleb128 0x5
 2736 0051 49       		.uleb128 0x49
ARM GAS  C:\Users\PCHAUT~1\AppData\Local\Temp\ccJh8K3O.s 			page 49


 2737 0052 13       		.uleb128 0x13
 2738 0053 00       		.byte	0
 2739 0054 00       		.byte	0
 2740 0055 08       		.uleb128 0x8
 2741 0056 17       		.uleb128 0x17
 2742 0057 01       		.byte	0x1
 2743 0058 0B       		.uleb128 0xb
 2744 0059 0B       		.uleb128 0xb
 2745 005a 3A       		.uleb128 0x3a
 2746 005b 0B       		.uleb128 0xb
 2747 005c 3B       		.uleb128 0x3b
 2748 005d 0B       		.uleb128 0xb
 2749 005e 01       		.uleb128 0x1
 2750 005f 13       		.uleb128 0x13
 2751 0060 00       		.byte	0
 2752 0061 00       		.byte	0
 2753 0062 09       		.uleb128 0x9
 2754 0063 0D       		.uleb128 0xd
 2755 0064 00       		.byte	0
 2756 0065 03       		.uleb128 0x3
 2757 0066 0E       		.uleb128 0xe
 2758 0067 3A       		.uleb128 0x3a
 2759 0068 0B       		.uleb128 0xb
 2760 0069 3B       		.uleb128 0x3b
 2761 006a 0B       		.uleb128 0xb
 2762 006b 49       		.uleb128 0x49
 2763 006c 13       		.uleb128 0x13
 2764 006d 00       		.byte	0
 2765 006e 00       		.byte	0
 2766 006f 0A       		.uleb128 0xa
 2767 0070 01       		.uleb128 0x1
 2768 0071 01       		.byte	0x1
 2769 0072 49       		.uleb128 0x49
 2770 0073 13       		.uleb128 0x13
 2771 0074 01       		.uleb128 0x1
 2772 0075 13       		.uleb128 0x13
 2773 0076 00       		.byte	0
 2774 0077 00       		.byte	0
 2775 0078 0B       		.uleb128 0xb
 2776 0079 21       		.uleb128 0x21
 2777 007a 00       		.byte	0
 2778 007b 49       		.uleb128 0x49
 2779 007c 13       		.uleb128 0x13
 2780 007d 2F       		.uleb128 0x2f
 2781 007e 0B       		.uleb128 0xb
 2782 007f 00       		.byte	0
 2783 0080 00       		.byte	0
 2784 0081 0C       		.uleb128 0xc
 2785 0082 13       		.uleb128 0x13
 2786 0083 01       		.byte	0x1
 2787 0084 0B       		.uleb128 0xb
 2788 0085 0B       		.uleb128 0xb
 2789 0086 3A       		.uleb128 0x3a
 2790 0087 0B       		.uleb128 0xb
 2791 0088 3B       		.uleb128 0x3b
 2792 0089 0B       		.uleb128 0xb
 2793 008a 01       		.uleb128 0x1
ARM GAS  C:\Users\PCHAUT~1\AppData\Local\Temp\ccJh8K3O.s 			page 50


 2794 008b 13       		.uleb128 0x13
 2795 008c 00       		.byte	0
 2796 008d 00       		.byte	0
 2797 008e 0D       		.uleb128 0xd
 2798 008f 0D       		.uleb128 0xd
 2799 0090 00       		.byte	0
 2800 0091 03       		.uleb128 0x3
 2801 0092 0E       		.uleb128 0xe
 2802 0093 3A       		.uleb128 0x3a
 2803 0094 0B       		.uleb128 0xb
 2804 0095 3B       		.uleb128 0x3b
 2805 0096 0B       		.uleb128 0xb
 2806 0097 49       		.uleb128 0x49
 2807 0098 13       		.uleb128 0x13
 2808 0099 38       		.uleb128 0x38
 2809 009a 0B       		.uleb128 0xb
 2810 009b 00       		.byte	0
 2811 009c 00       		.byte	0
 2812 009d 0E       		.uleb128 0xe
 2813 009e 0F       		.uleb128 0xf
 2814 009f 00       		.byte	0
 2815 00a0 0B       		.uleb128 0xb
 2816 00a1 0B       		.uleb128 0xb
 2817 00a2 00       		.byte	0
 2818 00a3 00       		.byte	0
 2819 00a4 0F       		.uleb128 0xf
 2820 00a5 26       		.uleb128 0x26
 2821 00a6 00       		.byte	0
 2822 00a7 49       		.uleb128 0x49
 2823 00a8 13       		.uleb128 0x13
 2824 00a9 00       		.byte	0
 2825 00aa 00       		.byte	0
 2826 00ab 10       		.uleb128 0x10
 2827 00ac 34       		.uleb128 0x34
 2828 00ad 00       		.byte	0
 2829 00ae 03       		.uleb128 0x3
 2830 00af 0E       		.uleb128 0xe
 2831 00b0 3A       		.uleb128 0x3a
 2832 00b1 0B       		.uleb128 0xb
 2833 00b2 3B       		.uleb128 0x3b
 2834 00b3 0B       		.uleb128 0xb
 2835 00b4 49       		.uleb128 0x49
 2836 00b5 13       		.uleb128 0x13
 2837 00b6 3F       		.uleb128 0x3f
 2838 00b7 19       		.uleb128 0x19
 2839 00b8 3C       		.uleb128 0x3c
 2840 00b9 19       		.uleb128 0x19
 2841 00ba 00       		.byte	0
 2842 00bb 00       		.byte	0
 2843 00bc 11       		.uleb128 0x11
 2844 00bd 13       		.uleb128 0x13
 2845 00be 01       		.byte	0x1
 2846 00bf 03       		.uleb128 0x3
 2847 00c0 0E       		.uleb128 0xe
 2848 00c1 0B       		.uleb128 0xb
 2849 00c2 0B       		.uleb128 0xb
 2850 00c3 3A       		.uleb128 0x3a
ARM GAS  C:\Users\PCHAUT~1\AppData\Local\Temp\ccJh8K3O.s 			page 51


 2851 00c4 0B       		.uleb128 0xb
 2852 00c5 3B       		.uleb128 0x3b
 2853 00c6 0B       		.uleb128 0xb
 2854 00c7 01       		.uleb128 0x1
 2855 00c8 13       		.uleb128 0x13
 2856 00c9 00       		.byte	0
 2857 00ca 00       		.byte	0
 2858 00cb 12       		.uleb128 0x12
 2859 00cc 0D       		.uleb128 0xd
 2860 00cd 00       		.byte	0
 2861 00ce 03       		.uleb128 0x3
 2862 00cf 08       		.uleb128 0x8
 2863 00d0 3A       		.uleb128 0x3a
 2864 00d1 0B       		.uleb128 0xb
 2865 00d2 3B       		.uleb128 0x3b
 2866 00d3 0B       		.uleb128 0xb
 2867 00d4 49       		.uleb128 0x49
 2868 00d5 13       		.uleb128 0x13
 2869 00d6 38       		.uleb128 0x38
 2870 00d7 0B       		.uleb128 0xb
 2871 00d8 00       		.byte	0
 2872 00d9 00       		.byte	0
 2873 00da 13       		.uleb128 0x13
 2874 00db 13       		.uleb128 0x13
 2875 00dc 01       		.byte	0x1
 2876 00dd 03       		.uleb128 0x3
 2877 00de 0E       		.uleb128 0xe
 2878 00df 0B       		.uleb128 0xb
 2879 00e0 05       		.uleb128 0x5
 2880 00e1 3A       		.uleb128 0x3a
 2881 00e2 0B       		.uleb128 0xb
 2882 00e3 3B       		.uleb128 0x3b
 2883 00e4 0B       		.uleb128 0xb
 2884 00e5 01       		.uleb128 0x1
 2885 00e6 13       		.uleb128 0x13
 2886 00e7 00       		.byte	0
 2887 00e8 00       		.byte	0
 2888 00e9 14       		.uleb128 0x14
 2889 00ea 0D       		.uleb128 0xd
 2890 00eb 00       		.byte	0
 2891 00ec 03       		.uleb128 0x3
 2892 00ed 0E       		.uleb128 0xe
 2893 00ee 3A       		.uleb128 0x3a
 2894 00ef 0B       		.uleb128 0xb
 2895 00f0 3B       		.uleb128 0x3b
 2896 00f1 0B       		.uleb128 0xb
 2897 00f2 49       		.uleb128 0x49
 2898 00f3 13       		.uleb128 0x13
 2899 00f4 38       		.uleb128 0x38
 2900 00f5 05       		.uleb128 0x5
 2901 00f6 00       		.byte	0
 2902 00f7 00       		.byte	0
 2903 00f8 15       		.uleb128 0x15
 2904 00f9 15       		.uleb128 0x15
 2905 00fa 00       		.byte	0
 2906 00fb 27       		.uleb128 0x27
 2907 00fc 19       		.uleb128 0x19
ARM GAS  C:\Users\PCHAUT~1\AppData\Local\Temp\ccJh8K3O.s 			page 52


 2908 00fd 00       		.byte	0
 2909 00fe 00       		.byte	0
 2910 00ff 16       		.uleb128 0x16
 2911 0100 15       		.uleb128 0x15
 2912 0101 01       		.byte	0x1
 2913 0102 27       		.uleb128 0x27
 2914 0103 19       		.uleb128 0x19
 2915 0104 49       		.uleb128 0x49
 2916 0105 13       		.uleb128 0x13
 2917 0106 01       		.uleb128 0x1
 2918 0107 13       		.uleb128 0x13
 2919 0108 00       		.byte	0
 2920 0109 00       		.byte	0
 2921 010a 17       		.uleb128 0x17
 2922 010b 05       		.uleb128 0x5
 2923 010c 00       		.byte	0
 2924 010d 49       		.uleb128 0x49
 2925 010e 13       		.uleb128 0x13
 2926 010f 00       		.byte	0
 2927 0110 00       		.byte	0
 2928 0111 18       		.uleb128 0x18
 2929 0112 13       		.uleb128 0x13
 2930 0113 01       		.byte	0x1
 2931 0114 03       		.uleb128 0x3
 2932 0115 0E       		.uleb128 0xe
 2933 0116 0B       		.uleb128 0xb
 2934 0117 05       		.uleb128 0x5
 2935 0118 3A       		.uleb128 0x3a
 2936 0119 0B       		.uleb128 0xb
 2937 011a 3B       		.uleb128 0x3b
 2938 011b 05       		.uleb128 0x5
 2939 011c 01       		.uleb128 0x1
 2940 011d 13       		.uleb128 0x13
 2941 011e 00       		.byte	0
 2942 011f 00       		.byte	0
 2943 0120 19       		.uleb128 0x19
 2944 0121 0D       		.uleb128 0xd
 2945 0122 00       		.byte	0
 2946 0123 03       		.uleb128 0x3
 2947 0124 0E       		.uleb128 0xe
 2948 0125 3A       		.uleb128 0x3a
 2949 0126 0B       		.uleb128 0xb
 2950 0127 3B       		.uleb128 0x3b
 2951 0128 05       		.uleb128 0x5
 2952 0129 49       		.uleb128 0x49
 2953 012a 13       		.uleb128 0x13
 2954 012b 38       		.uleb128 0x38
 2955 012c 0B       		.uleb128 0xb
 2956 012d 00       		.byte	0
 2957 012e 00       		.byte	0
 2958 012f 1A       		.uleb128 0x1a
 2959 0130 0D       		.uleb128 0xd
 2960 0131 00       		.byte	0
 2961 0132 03       		.uleb128 0x3
 2962 0133 0E       		.uleb128 0xe
 2963 0134 3A       		.uleb128 0x3a
 2964 0135 0B       		.uleb128 0xb
ARM GAS  C:\Users\PCHAUT~1\AppData\Local\Temp\ccJh8K3O.s 			page 53


 2965 0136 3B       		.uleb128 0x3b
 2966 0137 05       		.uleb128 0x5
 2967 0138 49       		.uleb128 0x49
 2968 0139 13       		.uleb128 0x13
 2969 013a 38       		.uleb128 0x38
 2970 013b 05       		.uleb128 0x5
 2971 013c 00       		.byte	0
 2972 013d 00       		.byte	0
 2973 013e 1B       		.uleb128 0x1b
 2974 013f 13       		.uleb128 0x13
 2975 0140 01       		.byte	0x1
 2976 0141 03       		.uleb128 0x3
 2977 0142 0E       		.uleb128 0xe
 2978 0143 0B       		.uleb128 0xb
 2979 0144 0B       		.uleb128 0xb
 2980 0145 3A       		.uleb128 0x3a
 2981 0146 0B       		.uleb128 0xb
 2982 0147 3B       		.uleb128 0x3b
 2983 0148 05       		.uleb128 0x5
 2984 0149 01       		.uleb128 0x1
 2985 014a 13       		.uleb128 0x13
 2986 014b 00       		.byte	0
 2987 014c 00       		.byte	0
 2988 014d 1C       		.uleb128 0x1c
 2989 014e 13       		.uleb128 0x13
 2990 014f 01       		.byte	0x1
 2991 0150 0B       		.uleb128 0xb
 2992 0151 0B       		.uleb128 0xb
 2993 0152 3A       		.uleb128 0x3a
 2994 0153 0B       		.uleb128 0xb
 2995 0154 3B       		.uleb128 0x3b
 2996 0155 05       		.uleb128 0x5
 2997 0156 01       		.uleb128 0x1
 2998 0157 13       		.uleb128 0x13
 2999 0158 00       		.byte	0
 3000 0159 00       		.byte	0
 3001 015a 1D       		.uleb128 0x1d
 3002 015b 17       		.uleb128 0x17
 3003 015c 01       		.byte	0x1
 3004 015d 0B       		.uleb128 0xb
 3005 015e 0B       		.uleb128 0xb
 3006 015f 3A       		.uleb128 0x3a
 3007 0160 0B       		.uleb128 0xb
 3008 0161 3B       		.uleb128 0x3b
 3009 0162 05       		.uleb128 0x5
 3010 0163 01       		.uleb128 0x1
 3011 0164 13       		.uleb128 0x13
 3012 0165 00       		.byte	0
 3013 0166 00       		.byte	0
 3014 0167 1E       		.uleb128 0x1e
 3015 0168 0D       		.uleb128 0xd
 3016 0169 00       		.byte	0
 3017 016a 03       		.uleb128 0x3
 3018 016b 0E       		.uleb128 0xe
 3019 016c 3A       		.uleb128 0x3a
 3020 016d 0B       		.uleb128 0xb
 3021 016e 3B       		.uleb128 0x3b
ARM GAS  C:\Users\PCHAUT~1\AppData\Local\Temp\ccJh8K3O.s 			page 54


 3022 016f 05       		.uleb128 0x5
 3023 0170 49       		.uleb128 0x49
 3024 0171 13       		.uleb128 0x13
 3025 0172 00       		.byte	0
 3026 0173 00       		.byte	0
 3027 0174 1F       		.uleb128 0x1f
 3028 0175 15       		.uleb128 0x15
 3029 0176 01       		.byte	0x1
 3030 0177 27       		.uleb128 0x27
 3031 0178 19       		.uleb128 0x19
 3032 0179 01       		.uleb128 0x1
 3033 017a 13       		.uleb128 0x13
 3034 017b 00       		.byte	0
 3035 017c 00       		.byte	0
 3036 017d 20       		.uleb128 0x20
 3037 017e 34       		.uleb128 0x34
 3038 017f 00       		.byte	0
 3039 0180 03       		.uleb128 0x3
 3040 0181 0E       		.uleb128 0xe
 3041 0182 3A       		.uleb128 0x3a
 3042 0183 0B       		.uleb128 0xb
 3043 0184 3B       		.uleb128 0x3b
 3044 0185 05       		.uleb128 0x5
 3045 0186 49       		.uleb128 0x49
 3046 0187 13       		.uleb128 0x13
 3047 0188 3F       		.uleb128 0x3f
 3048 0189 19       		.uleb128 0x19
 3049 018a 3C       		.uleb128 0x3c
 3050 018b 19       		.uleb128 0x19
 3051 018c 00       		.byte	0
 3052 018d 00       		.byte	0
 3053 018e 21       		.uleb128 0x21
 3054 018f 2E       		.uleb128 0x2e
 3055 0190 01       		.byte	0x1
 3056 0191 3F       		.uleb128 0x3f
 3057 0192 19       		.uleb128 0x19
 3058 0193 03       		.uleb128 0x3
 3059 0194 0E       		.uleb128 0xe
 3060 0195 3A       		.uleb128 0x3a
 3061 0196 0B       		.uleb128 0xb
 3062 0197 3B       		.uleb128 0x3b
 3063 0198 0B       		.uleb128 0xb
 3064 0199 27       		.uleb128 0x27
 3065 019a 19       		.uleb128 0x19
 3066 019b 49       		.uleb128 0x49
 3067 019c 13       		.uleb128 0x13
 3068 019d 11       		.uleb128 0x11
 3069 019e 01       		.uleb128 0x1
 3070 019f 12       		.uleb128 0x12
 3071 01a0 06       		.uleb128 0x6
 3072 01a1 40       		.uleb128 0x40
 3073 01a2 18       		.uleb128 0x18
 3074 01a3 9642     		.uleb128 0x2116
 3075 01a5 19       		.uleb128 0x19
 3076 01a6 01       		.uleb128 0x1
 3077 01a7 13       		.uleb128 0x13
 3078 01a8 00       		.byte	0
ARM GAS  C:\Users\PCHAUT~1\AppData\Local\Temp\ccJh8K3O.s 			page 55


 3079 01a9 00       		.byte	0
 3080 01aa 22       		.uleb128 0x22
 3081 01ab 05       		.uleb128 0x5
 3082 01ac 00       		.byte	0
 3083 01ad 03       		.uleb128 0x3
 3084 01ae 0E       		.uleb128 0xe
 3085 01af 3A       		.uleb128 0x3a
 3086 01b0 0B       		.uleb128 0xb
 3087 01b1 3B       		.uleb128 0x3b
 3088 01b2 0B       		.uleb128 0xb
 3089 01b3 49       		.uleb128 0x49
 3090 01b4 13       		.uleb128 0x13
 3091 01b5 02       		.uleb128 0x2
 3092 01b6 18       		.uleb128 0x18
 3093 01b7 00       		.byte	0
 3094 01b8 00       		.byte	0
 3095 01b9 23       		.uleb128 0x23
 3096 01ba 34       		.uleb128 0x34
 3097 01bb 00       		.byte	0
 3098 01bc 03       		.uleb128 0x3
 3099 01bd 08       		.uleb128 0x8
 3100 01be 3A       		.uleb128 0x3a
 3101 01bf 0B       		.uleb128 0xb
 3102 01c0 3B       		.uleb128 0x3b
 3103 01c1 0B       		.uleb128 0xb
 3104 01c2 49       		.uleb128 0x49
 3105 01c3 13       		.uleb128 0x13
 3106 01c4 02       		.uleb128 0x2
 3107 01c5 18       		.uleb128 0x18
 3108 01c6 00       		.byte	0
 3109 01c7 00       		.byte	0
 3110 01c8 24       		.uleb128 0x24
 3111 01c9 2E       		.uleb128 0x2e
 3112 01ca 01       		.byte	0x1
 3113 01cb 3F       		.uleb128 0x3f
 3114 01cc 19       		.uleb128 0x19
 3115 01cd 03       		.uleb128 0x3
 3116 01ce 0E       		.uleb128 0xe
 3117 01cf 3A       		.uleb128 0x3a
 3118 01d0 0B       		.uleb128 0xb
 3119 01d1 3B       		.uleb128 0x3b
 3120 01d2 0B       		.uleb128 0xb
 3121 01d3 27       		.uleb128 0x27
 3122 01d4 19       		.uleb128 0x19
 3123 01d5 11       		.uleb128 0x11
 3124 01d6 01       		.uleb128 0x1
 3125 01d7 12       		.uleb128 0x12
 3126 01d8 06       		.uleb128 0x6
 3127 01d9 40       		.uleb128 0x40
 3128 01da 18       		.uleb128 0x18
 3129 01db 9642     		.uleb128 0x2116
 3130 01dd 19       		.uleb128 0x19
 3131 01de 01       		.uleb128 0x1
 3132 01df 13       		.uleb128 0x13
 3133 01e0 00       		.byte	0
 3134 01e1 00       		.byte	0
 3135 01e2 25       		.uleb128 0x25
ARM GAS  C:\Users\PCHAUT~1\AppData\Local\Temp\ccJh8K3O.s 			page 56


 3136 01e3 05       		.uleb128 0x5
 3137 01e4 00       		.byte	0
 3138 01e5 03       		.uleb128 0x3
 3139 01e6 08       		.uleb128 0x8
 3140 01e7 3A       		.uleb128 0x3a
 3141 01e8 0B       		.uleb128 0xb
 3142 01e9 3B       		.uleb128 0x3b
 3143 01ea 0B       		.uleb128 0xb
 3144 01eb 49       		.uleb128 0x49
 3145 01ec 13       		.uleb128 0x13
 3146 01ed 02       		.uleb128 0x2
 3147 01ee 18       		.uleb128 0x18
 3148 01ef 00       		.byte	0
 3149 01f0 00       		.byte	0
 3150 01f1 26       		.uleb128 0x26
 3151 01f2 34       		.uleb128 0x34
 3152 01f3 00       		.byte	0
 3153 01f4 03       		.uleb128 0x3
 3154 01f5 0E       		.uleb128 0xe
 3155 01f6 3A       		.uleb128 0x3a
 3156 01f7 0B       		.uleb128 0xb
 3157 01f8 3B       		.uleb128 0x3b
 3158 01f9 0B       		.uleb128 0xb
 3159 01fa 49       		.uleb128 0x49
 3160 01fb 13       		.uleb128 0x13
 3161 01fc 02       		.uleb128 0x2
 3162 01fd 18       		.uleb128 0x18
 3163 01fe 00       		.byte	0
 3164 01ff 00       		.byte	0
 3165 0200 27       		.uleb128 0x27
 3166 0201 2E       		.uleb128 0x2e
 3167 0202 01       		.byte	0x1
 3168 0203 03       		.uleb128 0x3
 3169 0204 0E       		.uleb128 0xe
 3170 0205 3A       		.uleb128 0x3a
 3171 0206 0B       		.uleb128 0xb
 3172 0207 3B       		.uleb128 0x3b
 3173 0208 0B       		.uleb128 0xb
 3174 0209 27       		.uleb128 0x27
 3175 020a 19       		.uleb128 0x19
 3176 020b 49       		.uleb128 0x49
 3177 020c 13       		.uleb128 0x13
 3178 020d 11       		.uleb128 0x11
 3179 020e 01       		.uleb128 0x1
 3180 020f 12       		.uleb128 0x12
 3181 0210 06       		.uleb128 0x6
 3182 0211 40       		.uleb128 0x40
 3183 0212 18       		.uleb128 0x18
 3184 0213 9642     		.uleb128 0x2116
 3185 0215 19       		.uleb128 0x19
 3186 0216 00       		.byte	0
 3187 0217 00       		.byte	0
 3188 0218 00       		.byte	0
 3189              		.section	.debug_aranges,"",%progbits
 3190 0000 74000000 		.4byte	0x74
 3191 0004 0200     		.2byte	0x2
 3192 0006 00000000 		.4byte	.Ldebug_info0
ARM GAS  C:\Users\PCHAUT~1\AppData\Local\Temp\ccJh8K3O.s 			page 57


 3193 000a 04       		.byte	0x4
 3194 000b 00       		.byte	0
 3195 000c 0000     		.2byte	0
 3196 000e 0000     		.2byte	0
 3197 0010 00000000 		.4byte	.LFB0
 3198 0014 54000000 		.4byte	.LFE0-.LFB0
 3199 0018 00000000 		.4byte	.LFB1
 3200 001c 40000000 		.4byte	.LFE1-.LFB1
 3201 0020 00000000 		.4byte	.LFB2
 3202 0024 54000000 		.4byte	.LFE2-.LFB2
 3203 0028 00000000 		.4byte	.LFB3
 3204 002c 7C000000 		.4byte	.LFE3-.LFB3
 3205 0030 00000000 		.4byte	.LFB4
 3206 0034 48000000 		.4byte	.LFE4-.LFB4
 3207 0038 00000000 		.4byte	.LFB5
 3208 003c 64000000 		.4byte	.LFE5-.LFB5
 3209 0040 00000000 		.4byte	.LFB6
 3210 0044 B0000000 		.4byte	.LFE6-.LFB6
 3211 0048 00000000 		.4byte	.LFB7
 3212 004c 68000000 		.4byte	.LFE7-.LFB7
 3213 0050 00000000 		.4byte	.LFB8
 3214 0054 58000000 		.4byte	.LFE8-.LFB8
 3215 0058 00000000 		.4byte	.LFB9
 3216 005c 38000000 		.4byte	.LFE9-.LFB9
 3217 0060 00000000 		.4byte	.LFB10
 3218 0064 70000000 		.4byte	.LFE10-.LFB10
 3219 0068 00000000 		.4byte	.LFB11
 3220 006c 4C000000 		.4byte	.LFE11-.LFB11
 3221 0070 00000000 		.4byte	0
 3222 0074 00000000 		.4byte	0
 3223              		.section	.debug_ranges,"",%progbits
 3224              	.Ldebug_ranges0:
 3225 0000 00000000 		.4byte	.LFB0
 3226 0004 54000000 		.4byte	.LFE0
 3227 0008 00000000 		.4byte	.LFB1
 3228 000c 40000000 		.4byte	.LFE1
 3229 0010 00000000 		.4byte	.LFB2
 3230 0014 54000000 		.4byte	.LFE2
 3231 0018 00000000 		.4byte	.LFB3
 3232 001c 7C000000 		.4byte	.LFE3
 3233 0020 00000000 		.4byte	.LFB4
 3234 0024 48000000 		.4byte	.LFE4
 3235 0028 00000000 		.4byte	.LFB5
 3236 002c 64000000 		.4byte	.LFE5
 3237 0030 00000000 		.4byte	.LFB6
 3238 0034 B0000000 		.4byte	.LFE6
 3239 0038 00000000 		.4byte	.LFB7
 3240 003c 68000000 		.4byte	.LFE7
 3241 0040 00000000 		.4byte	.LFB8
 3242 0044 58000000 		.4byte	.LFE8
 3243 0048 00000000 		.4byte	.LFB9
 3244 004c 38000000 		.4byte	.LFE9
 3245 0050 00000000 		.4byte	.LFB10
 3246 0054 70000000 		.4byte	.LFE10
 3247 0058 00000000 		.4byte	.LFB11
 3248 005c 4C000000 		.4byte	.LFE11
 3249 0060 00000000 		.4byte	0
ARM GAS  C:\Users\PCHAUT~1\AppData\Local\Temp\ccJh8K3O.s 			page 58


 3250 0064 00000000 		.4byte	0
 3251              		.section	.debug_line,"",%progbits
 3252              	.Ldebug_line0:
 3253 0000 E7020000 		.section	.debug_str,"MS",%progbits,1
 3253      0200A101 
 3253      00000201 
 3253      FB0E0D00 
 3253      01010101 
 3254              	.LASF66:
 3255 0000 5F64736F 		.ascii	"_dso_handle\000"
 3255      5F68616E 
 3255      646C6500 
 3256              	.LASF74:
 3257 000c 5F73697A 		.ascii	"_size\000"
 3257      6500
 3258              	.LASF10:
 3259 0012 73697A65 		.ascii	"size_t\000"
 3259      5F7400
 3260              	.LASF118:
 3261 0019 5F72616E 		.ascii	"_rand48\000"
 3261      64343800 
 3262              	.LASF98:
 3263 0021 5F656D65 		.ascii	"_emergency\000"
 3263      7267656E 
 3263      637900
 3264              	.LASF88:
 3265 002c 5F646174 		.ascii	"_data\000"
 3265      6100
 3266              	.LASF138:
 3267 0032 5F776372 		.ascii	"_wcrtomb_state\000"
 3267      746F6D62 
 3267      5F737461 
 3267      746500
 3268              	.LASF43:
 3269 0041 6D657373 		.ascii	"messagebus_t\000"
 3269      61676562 
 3269      75735F74 
 3269      00
 3270              	.LASF139:
 3271 004e 5F776373 		.ascii	"_wcsrtombs_state\000"
 3271      72746F6D 
 3271      62735F73 
 3271      74617465 
 3271      00
 3272              	.LASF7:
 3273 005f 6C6F6E67 		.ascii	"long long unsigned int\000"
 3273      206C6F6E 
 3273      6720756E 
 3273      7369676E 
 3273      65642069 
 3274              	.LASF78:
 3275 0076 5F6C6266 		.ascii	"_lbfsize\000"
 3275      73697A65 
 3275      00
 3276              	.LASF161:
 3277 007f 6D657373 		.ascii	"messagebus_topic_init\000"
 3277      61676562 
ARM GAS  C:\Users\PCHAUT~1\AppData\Local\Temp\ccJh8K3O.s 			page 59


 3277      75735F74 
 3277      6F706963 
 3277      5F696E69 
 3278              	.LASF148:
 3279 0095 77617463 		.ascii	"watcher\000"
 3279      68657200 
 3280              	.LASF145:
 3281 009d 5F5F6C6F 		.ascii	"__locale_t\000"
 3281      63616C65 
 3281      5F7400
 3282              	.LASF162:
 3283 00a8 746F7069 		.ascii	"topic_lock\000"
 3283      635F6C6F 
 3283      636B00
 3284              	.LASF136:
 3285 00b3 5F6D6272 		.ascii	"_mbrtowc_state\000"
 3285      746F7763 
 3285      5F737461 
 3285      746500
 3286              	.LASF35:
 3287 00c2 6E657874 		.ascii	"next\000"
 3287      00
 3288              	.LASF55:
 3289 00c7 5F5F746D 		.ascii	"__tm_sec\000"
 3289      5F736563 
 3289      00
 3290              	.LASF6:
 3291 00d0 6C6F6E67 		.ascii	"long long int\000"
 3291      206C6F6E 
 3291      6720696E 
 3291      7400
 3292              	.LASF0:
 3293 00de 7369676E 		.ascii	"signed char\000"
 3293      65642063 
 3293      68617200 
 3294              	.LASF153:
 3295 00ea 6275665F 		.ascii	"buf_len\000"
 3295      6C656E00 
 3296              	.LASF29:
 3297 00f2 62756666 		.ascii	"buffer_len\000"
 3297      65725F6C 
 3297      656E00
 3298              	.LASF73:
 3299 00fd 5F626173 		.ascii	"_base\000"
 3299      6500
 3300              	.LASF57:
 3301 0103 5F5F746D 		.ascii	"__tm_hour\000"
 3301      5F686F75 
 3301      7200
 3302              	.LASF113:
 3303 010d 5F5F7366 		.ascii	"__sf\000"
 3303      00
 3304              	.LASF33:
 3305 0112 7075626C 		.ascii	"published\000"
 3305      69736865 
 3305      6400
 3306              	.LASF79:
ARM GAS  C:\Users\PCHAUT~1\AppData\Local\Temp\ccJh8K3O.s 			page 60


 3307 011c 5F636F6F 		.ascii	"_cookie\000"
 3307      6B696500 
 3308              	.LASF39:
 3309 0124 67726F75 		.ascii	"group\000"
 3309      7000
 3310              	.LASF112:
 3311 012a 5F5F7367 		.ascii	"__sglue\000"
 3311      6C756500 
 3312              	.LASF4:
 3313 0132 6C6F6E67 		.ascii	"long int\000"
 3313      20696E74 
 3313      00
 3314              	.LASF165:
 3315 013b 474E5520 		.ascii	"GNU C11 7.2.1 20170904 (release) [ARM/embedded-7-br"
 3315      43313120 
 3315      372E322E 
 3315      31203230 
 3315      31373039 
 3316 016e 616E6368 		.ascii	"anch revision 255204] -mcpu=cortex-m4 -mfloat-abi=h"
 3316      20726576 
 3316      6973696F 
 3316      6E203235 
 3316      35323034 
 3317 01a1 61726420 		.ascii	"ard -mfpu=fpv4-sp-d16 -mno-thumb-interwork -mthumb "
 3317      2D6D6670 
 3317      753D6670 
 3317      76342D73 
 3317      702D6431 
 3318 01d4 2D676764 		.ascii	"-ggdb -O0 -fomit-frame-pointer -falign-functions=16"
 3318      62202D4F 
 3318      30202D66 
 3318      6F6D6974 
 3318      2D667261 
 3319 0207 202D666E 		.ascii	" -fno-strict-aliasing -fstack-protector-all -ffunct"
 3319      6F2D7374 
 3319      72696374 
 3319      2D616C69 
 3319      6173696E 
 3320 023a 696F6E2D 		.ascii	"ion-sections -fdata-sections -fno-common -fsingle-p"
 3320      73656374 
 3320      696F6E73 
 3320      202D6664 
 3320      6174612D 
 3321 026d 72656369 		.ascii	"recision-constant\000"
 3321      73696F6E 
 3321      2D636F6E 
 3321      7374616E 
 3321      7400
 3322              	.LASF76:
 3323 027f 5F666C61 		.ascii	"_flags\000"
 3323      677300
 3324              	.LASF68:
 3325 0286 5F69735F 		.ascii	"_is_cxa\000"
 3325      63786100 
 3326              	.LASF94:
 3327 028e 5F737464 		.ascii	"_stdin\000"
 3327      696E00
ARM GAS  C:\Users\PCHAUT~1\AppData\Local\Temp\ccJh8K3O.s 			page 61


 3328              	.LASF84:
 3329 0295 5F756275 		.ascii	"_ubuf\000"
 3329      6600
 3330              	.LASF86:
 3331 029b 5F626C6B 		.ascii	"_blksize\000"
 3331      73697A65 
 3331      00
 3332              	.LASF149:
 3333 02a4 746F7069 		.ascii	"topic\000"
 3333      6300
 3334              	.LASF45:
 3335 02aa 7075626C 		.ascii	"published_topic\000"
 3335      69736865 
 3335      645F746F 
 3335      70696300 
 3336              	.LASF108:
 3337 02ba 5F637674 		.ascii	"_cvtbuf\000"
 3337      62756600 
 3338              	.LASF28:
 3339 02c2 62756666 		.ascii	"buffer\000"
 3339      657200
 3340              	.LASF151:
 3341 02c9 6D657373 		.ascii	"messagebus_watchgroup_init\000"
 3341      61676562 
 3341      75735F77 
 3341      61746368 
 3341      67726F75 
 3342              	.LASF137:
 3343 02e4 5F6D6273 		.ascii	"_mbsrtowcs_state\000"
 3343      72746F77 
 3343      63735F73 
 3343      74617465 
 3343      00
 3344              	.LASF123:
 3345 02f5 5F737472 		.ascii	"_strtok_last\000"
 3345      746F6B5F 
 3345      6C617374 
 3345      00
 3346              	.LASF135:
 3347 0302 5F6D6272 		.ascii	"_mbrlen_state\000"
 3347      6C656E5F 
 3347      73746174 
 3347      6500
 3348              	.LASF65:
 3349 0310 5F666E61 		.ascii	"_fnargs\000"
 3349      72677300 
 3350              	.LASF71:
 3351 0318 5F666E73 		.ascii	"_fns\000"
 3351      00
 3352              	.LASF163:
 3353 031d 746F7069 		.ascii	"topic_condvar\000"
 3353      635F636F 
 3353      6E647661 
 3353      7200
 3354              	.LASF52:
 3355 032b 5F736967 		.ascii	"_sign\000"
 3355      6E00
ARM GAS  C:\Users\PCHAUT~1\AppData\Local\Temp\ccJh8K3O.s 			page 62


 3356              	.LASF20:
 3357 0331 5F666C6F 		.ascii	"_flock_t\000"
 3357      636B5F74 
 3357      00
 3358              	.LASF96:
 3359 033a 5F737464 		.ascii	"_stderr\000"
 3359      65727200 
 3360              	.LASF49:
 3361 0342 5F426967 		.ascii	"_Bigint\000"
 3361      696E7400 
 3362              	.LASF126:
 3363 034a 5F67616D 		.ascii	"_gamma_signgam\000"
 3363      6D615F73 
 3363      69676E67 
 3363      616D00
 3364              	.LASF50:
 3365 0359 5F6E6578 		.ascii	"_next\000"
 3365      7400
 3366              	.LASF80:
 3367 035f 5F726561 		.ascii	"_read\000"
 3367      6400
 3368              	.LASF104:
 3369 0365 5F726573 		.ascii	"_result_k\000"
 3369      756C745F 
 3369      6B00
 3370              	.LASF54:
 3371 036f 5F5F746D 		.ascii	"__tm\000"
 3371      00
 3372              	.LASF8:
 3373 0374 756E7369 		.ascii	"unsigned int\000"
 3373      676E6564 
 3373      20696E74 
 3373      00
 3374              	.LASF16:
 3375 0381 5F5F7763 		.ascii	"__wchb\000"
 3375      686200
 3376              	.LASF168:
 3377 0388 746F7069 		.ascii	"topic_by_name\000"
 3377      635F6279 
 3377      5F6E616D 
 3377      6500
 3378              	.LASF95:
 3379 0396 5F737464 		.ascii	"_stdout\000"
 3379      6F757400 
 3380              	.LASF26:
 3381 039e 6F70746F 		.ascii	"optopt\000"
 3381      707400
 3382              	.LASF107:
 3383 03a5 5F637674 		.ascii	"_cvtlen\000"
 3383      6C656E00 
 3384              	.LASF5:
 3385 03ad 6C6F6E67 		.ascii	"long unsigned int\000"
 3385      20756E73 
 3385      69676E65 
 3385      6420696E 
 3385      7400
 3386              	.LASF77:
ARM GAS  C:\Users\PCHAUT~1\AppData\Local\Temp\ccJh8K3O.s 			page 63


 3387 03bf 5F66696C 		.ascii	"_file\000"
 3387      6500
 3388              	.LASF32:
 3389 03c5 6E616D65 		.ascii	"name\000"
 3389      00
 3390              	.LASF116:
 3391 03ca 5F6E696F 		.ascii	"_niobs\000"
 3391      627300
 3392              	.LASF3:
 3393 03d1 73686F72 		.ascii	"short unsigned int\000"
 3393      7420756E 
 3393      7369676E 
 3393      65642069 
 3393      6E7400
 3394              	.LASF110:
 3395 03e4 5F617465 		.ascii	"_atexit0\000"
 3395      78697430 
 3395      00
 3396              	.LASF40:
 3397 03ed 6D657373 		.ascii	"messagebus_topic_t\000"
 3397      61676562 
 3397      75735F74 
 3397      6F706963 
 3397      5F7400
 3398              	.LASF133:
 3399 0400 5F736967 		.ascii	"_signal_buf\000"
 3399      6E616C5F 
 3399      62756600 
 3400              	.LASF124:
 3401 040c 5F617363 		.ascii	"_asctime_buf\000"
 3401      74696D65 
 3401      5F627566 
 3401      00
 3402              	.LASF37:
 3403 0419 746F7069 		.ascii	"topic_s\000"
 3403      635F7300 
 3404              	.LASF15:
 3405 0421 5F5F7763 		.ascii	"__wch\000"
 3405      6800
 3406              	.LASF11:
 3407 0427 5F4C4F43 		.ascii	"_LOCK_T\000"
 3407      4B5F5400 
 3408              	.LASF22:
 3409 042f 656E7669 		.ascii	"environ\000"
 3409      726F6E00 
 3410              	.LASF14:
 3411 0437 77696E74 		.ascii	"wint_t\000"
 3411      5F7400
 3412              	.LASF89:
 3413 043e 5F6C6F63 		.ascii	"_lock\000"
 3413      6B00
 3414              	.LASF91:
 3415 0444 5F666C61 		.ascii	"_flags2\000"
 3415      67733200 
 3416              	.LASF103:
 3417 044c 5F726573 		.ascii	"_result\000"
 3417      756C7400 
ARM GAS  C:\Users\PCHAUT~1\AppData\Local\Temp\ccJh8K3O.s 			page 64


 3418              	.LASF164:
 3419 0454 6D657373 		.ascii	"messagebus_init\000"
 3419      61676562 
 3419      75735F69 
 3419      6E697400 
 3420              	.LASF27:
 3421 0464 6F707472 		.ascii	"optreset\000"
 3421      65736574 
 3421      00
 3422              	.LASF81:
 3423 046d 5F777269 		.ascii	"_write\000"
 3423      746500
 3424              	.LASF60:
 3425 0474 5F5F746D 		.ascii	"__tm_year\000"
 3425      5F796561 
 3425      7200
 3426              	.LASF31:
 3427 047e 636F6E64 		.ascii	"condvar\000"
 3427      76617200 
 3428              	.LASF23:
 3429 0486 6F707461 		.ascii	"optarg\000"
 3429      726700
 3430              	.LASF87:
 3431 048d 5F6F6666 		.ascii	"_offset\000"
 3431      73657400 
 3432              	.LASF9:
 3433 0495 6C6F6E67 		.ascii	"long double\000"
 3433      20646F75 
 3433      626C6500 
 3434              	.LASF24:
 3435 04a1 6F707469 		.ascii	"optind\000"
 3435      6E6400
 3436              	.LASF141:
 3437 04a8 5F6E6578 		.ascii	"_nextf\000"
 3437      746600
 3438              	.LASF160:
 3439 04af 6D657373 		.ascii	"messagebus_advertise_topic\000"
 3439      61676562 
 3439      75735F61 
 3439      64766572 
 3439      74697365 
 3440              	.LASF59:
 3441 04ca 5F5F746D 		.ascii	"__tm_mon\000"
 3441      5F6D6F6E 
 3441      00
 3442              	.LASF69:
 3443 04d3 5F617465 		.ascii	"_atexit\000"
 3443      78697400 
 3444              	.LASF101:
 3445 04db 5F5F7364 		.ascii	"__sdidinit\000"
 3445      6964696E 
 3445      697400
 3446              	.LASF12:
 3447 04e6 5F6F6666 		.ascii	"_off_t\000"
 3447      5F7400
 3448              	.LASF157:
 3449 04ed 6D657373 		.ascii	"messagebus_topic_publish\000"
ARM GAS  C:\Users\PCHAUT~1\AppData\Local\Temp\ccJh8K3O.s 			page 65


 3449      61676562 
 3449      75735F74 
 3449      6F706963 
 3449      5F707562 
 3450              	.LASF106:
 3451 0506 5F667265 		.ascii	"_freelist\000"
 3451      656C6973 
 3451      7400
 3452              	.LASF131:
 3453 0510 5F776374 		.ascii	"_wctomb_state\000"
 3453      6F6D625F 
 3453      73746174 
 3453      6500
 3454              	.LASF36:
 3455 051e 5F426F6F 		.ascii	"_Bool\000"
 3455      6C00
 3456              	.LASF1:
 3457 0524 756E7369 		.ascii	"unsigned char\000"
 3457      676E6564 
 3457      20636861 
 3457      7200
 3458              	.LASF155:
 3459 0532 6D657373 		.ascii	"messagebus_topic_read\000"
 3459      61676562 
 3459      75735F74 
 3459      6F706963 
 3459      5F726561 
 3460              	.LASF109:
 3461 0548 5F6E6577 		.ascii	"_new\000"
 3461      00
 3462              	.LASF44:
 3463 054d 6D657373 		.ascii	"messagebus_watchgroup_s\000"
 3463      61676562 
 3463      75735F77 
 3463      61746368 
 3463      67726F75 
 3464              	.LASF46:
 3465 0565 6D657373 		.ascii	"messagebus_watchgroup_t\000"
 3465      61676562 
 3465      75735F77 
 3465      61746368 
 3465      67726F75 
 3466              	.LASF140:
 3467 057d 5F685F65 		.ascii	"_h_errno\000"
 3467      72726E6F 
 3467      00
 3468              	.LASF2:
 3469 0586 73686F72 		.ascii	"short int\000"
 3469      7420696E 
 3469      7400
 3470              	.LASF62:
 3471 0590 5F5F746D 		.ascii	"__tm_yday\000"
 3471      5F796461 
 3471      7900
 3472              	.LASF72:
 3473 059a 5F5F7362 		.ascii	"__sbuf\000"
 3473      756600
ARM GAS  C:\Users\PCHAUT~1\AppData\Local\Temp\ccJh8K3O.s 			page 66


 3474              	.LASF117:
 3475 05a1 5F696F62 		.ascii	"_iobs\000"
 3475      7300
 3476              	.LASF114:
 3477 05a7 5F5F4649 		.ascii	"__FILE\000"
 3477      4C4500
 3478              	.LASF19:
 3479 05ae 5F6D6273 		.ascii	"_mbstate_t\000"
 3479      74617465 
 3479      5F7400
 3480              	.LASF75:
 3481 05b9 5F5F7346 		.ascii	"__sFILE\000"
 3481      494C4500 
 3482              	.LASF90:
 3483 05c1 5F6D6273 		.ascii	"_mbstate\000"
 3483      74617465 
 3483      00
 3484              	.LASF127:
 3485 05ca 5F72616E 		.ascii	"_rand_next\000"
 3485      645F6E65 
 3485      787400
 3486              	.LASF129:
 3487 05d5 5F6D626C 		.ascii	"_mblen_state\000"
 3487      656E5F73 
 3487      74617465 
 3487      00
 3488              	.LASF97:
 3489 05e2 5F696E63 		.ascii	"_inc\000"
 3489      00
 3490              	.LASF70:
 3491 05e7 5F696E64 		.ascii	"_ind\000"
 3491      00
 3492              	.LASF167:
 3493 05ec 433A5C55 		.ascii	"C:\\Users\\Pchautems\\Documents\\RobotiqueTP\\Proje"
 3493      73657273 
 3493      5C506368 
 3493      61757465 
 3493      6D735C44 
 3494 061a 745C6D69 		.ascii	"t\\miniprojet\000"
 3494      6E697072 
 3494      6F6A6574 
 3494      00
 3495              	.LASF100:
 3496 0627 5F6C6F63 		.ascii	"_locale\000"
 3496      616C6500 
 3497              	.LASF102:
 3498 062f 5F5F636C 		.ascii	"__cleanup\000"
 3498      65616E75 
 3498      7000
 3499              	.LASF99:
 3500 0639 5F756E73 		.ascii	"_unspecified_locale_info\000"
 3500      70656369 
 3500      66696564 
 3500      5F6C6F63 
 3500      616C655F 
 3501              	.LASF51:
 3502 0652 5F6D6178 		.ascii	"_maxwds\000"
ARM GAS  C:\Users\PCHAUT~1\AppData\Local\Temp\ccJh8K3O.s 			page 67


 3502      77647300 
 3503              	.LASF92:
 3504 065a 5F726565 		.ascii	"_reent\000"
 3504      6E7400
 3505              	.LASF41:
 3506 0661 68656164 		.ascii	"head\000"
 3506      00
 3507              	.LASF17:
 3508 0666 5F5F636F 		.ascii	"__count\000"
 3508      756E7400 
 3509              	.LASF144:
 3510 066e 5F5F6C6F 		.ascii	"__lock\000"
 3510      636B00
 3511              	.LASF18:
 3512 0675 5F5F7661 		.ascii	"__value\000"
 3512      6C756500 
 3513              	.LASF38:
 3514 067d 6D657373 		.ascii	"messagebus_watcher_s\000"
 3514      61676562 
 3514      75735F77 
 3514      61746368 
 3514      65725F73 
 3515              	.LASF47:
 3516 0692 6D657373 		.ascii	"messagebus_watcher_t\000"
 3516      61676562 
 3516      75735F77 
 3516      61746368 
 3516      65725F74 
 3517              	.LASF146:
 3518 06a7 5F696D70 		.ascii	"_impure_ptr\000"
 3518      7572655F 
 3518      70747200 
 3519              	.LASF13:
 3520 06b3 5F66706F 		.ascii	"_fpos_t\000"
 3520      735F7400 
 3521              	.LASF64:
 3522 06bb 5F6F6E5F 		.ascii	"_on_exit_args\000"
 3522      65786974 
 3522      5F617267 
 3522      7300
 3523              	.LASF93:
 3524 06c9 5F657272 		.ascii	"_errno\000"
 3524      6E6F00
 3525              	.LASF21:
 3526 06d0 63686172 		.ascii	"char\000"
 3526      00
 3527              	.LASF56:
 3528 06d5 5F5F746D 		.ascii	"__tm_min\000"
 3528      5F6D696E 
 3528      00
 3529              	.LASF119:
 3530 06de 5F736565 		.ascii	"_seed\000"
 3530      6400
 3531              	.LASF166:
 3532 06e4 2E2E2F6C 		.ascii	"../lib/e-puck2_main-processor/src/msgbus/messagebus"
 3532      69622F65 
 3532      2D707563 
ARM GAS  C:\Users\PCHAUT~1\AppData\Local\Temp\ccJh8K3O.s 			page 68


 3532      6B325F6D 
 3532      61696E2D 
 3533 0717 2E6300   		.ascii	".c\000"
 3534              	.LASF25:
 3535 071a 6F707465 		.ascii	"opterr\000"
 3535      727200
 3536              	.LASF120:
 3537 0721 5F6D756C 		.ascii	"_mult\000"
 3537      7400
 3538              	.LASF34:
 3539 0727 77617463 		.ascii	"watchers\000"
 3539      68657273 
 3539      00
 3540              	.LASF82:
 3541 0730 5F736565 		.ascii	"_seek\000"
 3541      6B00
 3542              	.LASF159:
 3543 0736 6D657373 		.ascii	"messagebus_find_topic\000"
 3543      61676562 
 3543      75735F66 
 3543      696E645F 
 3543      746F7069 
 3544              	.LASF67:
 3545 074c 5F666E74 		.ascii	"_fntypes\000"
 3545      79706573 
 3545      00
 3546              	.LASF42:
 3547 0755 746F7069 		.ascii	"topics\000"
 3547      637300
 3548              	.LASF154:
 3549 075c 6D657373 		.ascii	"messagebus_watchgroup_wait\000"
 3549      61676562 
 3549      75735F77 
 3549      61746368 
 3549      67726F75 
 3550              	.LASF121:
 3551 0777 5F616464 		.ascii	"_add\000"
 3551      00
 3552              	.LASF158:
 3553 077c 6D657373 		.ascii	"messagebus_find_topic_blocking\000"
 3553      61676562 
 3553      75735F66 
 3553      696E645F 
 3553      746F7069 
 3554              	.LASF48:
 3555 079b 5F5F554C 		.ascii	"__ULong\000"
 3555      6F6E6700 
 3556              	.LASF134:
 3557 07a3 5F676574 		.ascii	"_getdate_err\000"
 3557      64617465 
 3557      5F657272 
 3557      00
 3558              	.LASF147:
 3559 07b0 5F676C6F 		.ascii	"_global_impure_ptr\000"
 3559      62616C5F 
 3559      696D7075 
 3559      72655F70 
ARM GAS  C:\Users\PCHAUT~1\AppData\Local\Temp\ccJh8K3O.s 			page 69


 3559      747200
 3560              	.LASF122:
 3561 07c3 5F756E75 		.ascii	"_unused_rand\000"
 3561      7365645F 
 3561      72616E64 
 3561      00
 3562              	.LASF53:
 3563 07d0 5F776473 		.ascii	"_wds\000"
 3563      00
 3564              	.LASF61:
 3565 07d5 5F5F746D 		.ascii	"__tm_wday\000"
 3565      5F776461 
 3565      7900
 3566              	.LASF115:
 3567 07df 5F676C75 		.ascii	"_glue\000"
 3567      6500
 3568              	.LASF142:
 3569 07e5 5F6E6D61 		.ascii	"_nmalloc\000"
 3569      6C6C6F63 
 3569      00
 3570              	.LASF132:
 3571 07ee 5F6C3634 		.ascii	"_l64a_buf\000"
 3571      615F6275 
 3571      6600
 3572              	.LASF152:
 3573 07f8 6D657373 		.ascii	"messagebus_topic_wait\000"
 3573      61676562 
 3573      75735F74 
 3573      6F706963 
 3573      5F776169 
 3574              	.LASF111:
 3575 080e 5F736967 		.ascii	"_sig_func\000"
 3575      5F66756E 
 3575      6300
 3576              	.LASF150:
 3577 0818 6D657373 		.ascii	"messagebus_watchgroup_watch\000"
 3577      61676562 
 3577      75735F77 
 3577      61746368 
 3577      67726F75 
 3578              	.LASF85:
 3579 0834 5F6E6275 		.ascii	"_nbuf\000"
 3579      6600
 3580              	.LASF143:
 3581 083a 5F756E75 		.ascii	"_unused\000"
 3581      73656400 
 3582              	.LASF63:
 3583 0842 5F5F746D 		.ascii	"__tm_isdst\000"
 3583      5F697364 
 3583      737400
 3584              	.LASF125:
 3585 084d 5F6C6F63 		.ascii	"_localtime_buf\000"
 3585      616C7469 
 3585      6D655F62 
 3585      756600
 3586              	.LASF83:
 3587 085c 5F636C6F 		.ascii	"_close\000"
ARM GAS  C:\Users\PCHAUT~1\AppData\Local\Temp\ccJh8K3O.s 			page 70


 3587      736500
 3588              	.LASF128:
 3589 0863 5F723438 		.ascii	"_r48\000"
 3589      00
 3590              	.LASF130:
 3591 0868 5F6D6274 		.ascii	"_mbtowc_state\000"
 3591      6F77635F 
 3591      73746174 
 3591      6500
 3592              	.LASF105:
 3593 0876 5F703573 		.ascii	"_p5s\000"
 3593      00
 3594              	.LASF30:
 3595 087b 6C6F636B 		.ascii	"lock\000"
 3595      00
 3596              	.LASF58:
 3597 0880 5F5F746D 		.ascii	"__tm_mday\000"
 3597      5F6D6461 
 3597      7900
 3598              	.LASF156:
 3599 088a 73756363 		.ascii	"success\000"
 3599      65737300 
 3600              		.ident	"GCC: (GNU Tools for Arm Embedded Processors 7-2017-q4-major) 7.2.1 20170904 (release) [ARM
ARM GAS  C:\Users\PCHAUT~1\AppData\Local\Temp\ccJh8K3O.s 			page 71


DEFINED SYMBOLS
                            *ABS*:00000000 messagebus.c
C:\Users\PCHAUT~1\AppData\Local\Temp\ccJh8K3O.s:18     .text.topic_by_name:00000000 $t
C:\Users\PCHAUT~1\AppData\Local\Temp\ccJh8K3O.s:25     .text.topic_by_name:00000000 topic_by_name
C:\Users\PCHAUT~1\AppData\Local\Temp\ccJh8K3O.s:90     .text.topic_by_name:00000050 $d
C:\Users\PCHAUT~1\AppData\Local\Temp\ccJh8K3O.s:95     .text.messagebus_init:00000000 $t
C:\Users\PCHAUT~1\AppData\Local\Temp\ccJh8K3O.s:103    .text.messagebus_init:00000000 messagebus_init
C:\Users\PCHAUT~1\AppData\Local\Temp\ccJh8K3O.s:150    .text.messagebus_init:0000003c $d
C:\Users\PCHAUT~1\AppData\Local\Temp\ccJh8K3O.s:155    .text.messagebus_topic_init:00000000 $t
C:\Users\PCHAUT~1\AppData\Local\Temp\ccJh8K3O.s:163    .text.messagebus_topic_init:00000000 messagebus_topic_init
C:\Users\PCHAUT~1\AppData\Local\Temp\ccJh8K3O.s:221    .text.messagebus_topic_init:00000050 $d
C:\Users\PCHAUT~1\AppData\Local\Temp\ccJh8K3O.s:226    .text.messagebus_advertise_topic:00000000 $t
C:\Users\PCHAUT~1\AppData\Local\Temp\ccJh8K3O.s:234    .text.messagebus_advertise_topic:00000000 messagebus_advertise_topic
C:\Users\PCHAUT~1\AppData\Local\Temp\ccJh8K3O.s:312    .text.messagebus_advertise_topic:00000078 $d
C:\Users\PCHAUT~1\AppData\Local\Temp\ccJh8K3O.s:317    .text.messagebus_find_topic:00000000 $t
C:\Users\PCHAUT~1\AppData\Local\Temp\ccJh8K3O.s:325    .text.messagebus_find_topic:00000000 messagebus_find_topic
C:\Users\PCHAUT~1\AppData\Local\Temp\ccJh8K3O.s:375    .text.messagebus_find_topic:00000044 $d
C:\Users\PCHAUT~1\AppData\Local\Temp\ccJh8K3O.s:380    .text.messagebus_find_topic_blocking:00000000 $t
C:\Users\PCHAUT~1\AppData\Local\Temp\ccJh8K3O.s:388    .text.messagebus_find_topic_blocking:00000000 messagebus_find_topic_blocking
C:\Users\PCHAUT~1\AppData\Local\Temp\ccJh8K3O.s:458    .text.messagebus_find_topic_blocking:00000060 $d
C:\Users\PCHAUT~1\AppData\Local\Temp\ccJh8K3O.s:463    .text.messagebus_topic_publish:00000000 $t
C:\Users\PCHAUT~1\AppData\Local\Temp\ccJh8K3O.s:471    .text.messagebus_topic_publish:00000000 messagebus_topic_publish
C:\Users\PCHAUT~1\AppData\Local\Temp\ccJh8K3O.s:582    .text.messagebus_topic_publish:000000ac $d
C:\Users\PCHAUT~1\AppData\Local\Temp\ccJh8K3O.s:587    .text.messagebus_topic_read:00000000 $t
C:\Users\PCHAUT~1\AppData\Local\Temp\ccJh8K3O.s:595    .text.messagebus_topic_read:00000000 messagebus_topic_read
C:\Users\PCHAUT~1\AppData\Local\Temp\ccJh8K3O.s:660    .text.messagebus_topic_read:00000064 $d
C:\Users\PCHAUT~1\AppData\Local\Temp\ccJh8K3O.s:665    .text.messagebus_topic_wait:00000000 $t
C:\Users\PCHAUT~1\AppData\Local\Temp\ccJh8K3O.s:673    .text.messagebus_topic_wait:00000000 messagebus_topic_wait
C:\Users\PCHAUT~1\AppData\Local\Temp\ccJh8K3O.s:729    .text.messagebus_topic_wait:00000054 $d
C:\Users\PCHAUT~1\AppData\Local\Temp\ccJh8K3O.s:734    .text.messagebus_watchgroup_init:00000000 $t
C:\Users\PCHAUT~1\AppData\Local\Temp\ccJh8K3O.s:742    .text.messagebus_watchgroup_init:00000000 messagebus_watchgroup_init
C:\Users\PCHAUT~1\AppData\Local\Temp\ccJh8K3O.s:784    .text.messagebus_watchgroup_init:00000034 $d
C:\Users\PCHAUT~1\AppData\Local\Temp\ccJh8K3O.s:789    .text.messagebus_watchgroup_watch:00000000 $t
C:\Users\PCHAUT~1\AppData\Local\Temp\ccJh8K3O.s:797    .text.messagebus_watchgroup_watch:00000000 messagebus_watchgroup_watch
C:\Users\PCHAUT~1\AppData\Local\Temp\ccJh8K3O.s:870    .text.messagebus_watchgroup_watch:0000006c $d
C:\Users\PCHAUT~1\AppData\Local\Temp\ccJh8K3O.s:875    .text.messagebus_watchgroup_wait:00000000 $t
C:\Users\PCHAUT~1\AppData\Local\Temp\ccJh8K3O.s:883    .text.messagebus_watchgroup_wait:00000000 messagebus_watchgroup_wait
C:\Users\PCHAUT~1\AppData\Local\Temp\ccJh8K3O.s:936    .text.messagebus_watchgroup_wait:00000048 $d

UNDEFINED SYMBOLS
strcmp
__stack_chk_fail
__stack_chk_guard
memset
strncpy
messagebus_lock_acquire
messagebus_condvar_broadcast
messagebus_lock_release
messagebus_condvar_wait
memcpy
