ARM GAS  C:\Users\PCHAUT~1\AppData\Local\Temp\ccJh8K3O.s 			page 1


   1              		.cpu cortex-m4
   2              		.eabi_attribute 27, 1
   3              		.eabi_attribute 28, 1
   4              		.eabi_attribute 20, 1
   5              		.eabi_attribute 21, 1
   6              		.eabi_attribute 23, 3
   7              		.eabi_attribute 24, 1
   8              		.eabi_attribute 25, 1
   9              		.eabi_attribute 26, 1
  10              		.eabi_attribute 30, 6
  11              		.eabi_attribute 34, 1
  12              		.eabi_attribute 18, 4
  13              		.file	"messagebus.c"
  14              		.text
  15              	.Ltext0:
  16              		.cfi_sections	.debug_frame
  17              		.section	.text.topic_by_name,"ax",%progbits
  18              		.align	1
  19              		.p2align 4,,15
  20              		.syntax unified
  21              		.thumb
  22              		.thumb_func
  23              		.fpu fpv4-sp-d16
  24              		.type	topic_by_name, %function
  25              	topic_by_name:
  26              	.LFB0:
  27              		.file 1 "../lib/e-puck2_main-processor/src/msgbus/messagebus.c"
  28              		.loc 1 5 0
  29              		.cfi_startproc
  30              		@ args = 0, pretend = 0, frame = 16
  31              		@ frame_needed = 0, uses_anonymous_args = 0
  32 0000 00B5     		push	{lr}
  33              		.cfi_def_cfa_offset 4
  34              		.cfi_offset 14, -4
  35 0002 85B0     		sub	sp, sp, #20
  36              		.cfi_def_cfa_offset 24
  37 0004 0190     		str	r0, [sp, #4]
  38 0006 0091     		str	r1, [sp]
  39              		.loc 1 5 0
  40 0008 114B     		ldr	r3, .L7
  41 000a 1B68     		ldr	r3, [r3]
  42 000c 0393     		str	r3, [sp, #12]
  43              		.loc 1 7 0
  44 000e 019B     		ldr	r3, [sp, #4]
  45 0010 1B68     		ldr	r3, [r3]
  46 0012 0293     		str	r3, [sp, #8]
  47 0014 0DE0     		b	.L2
  48              	.L5:
  49              		.loc 1 8 0
  50 0016 029B     		ldr	r3, [sp, #8]
  51 0018 1033     		adds	r3, r3, #16
  52 001a 1946     		mov	r1, r3
  53 001c 0098     		ldr	r0, [sp]
  54 001e FFF7FEFF 		bl	strcmp
  55 0022 0346     		mov	r3, r0
  56 0024 002B     		cmp	r3, #0
  57 0026 01D1     		bne	.L3
ARM GAS  C:\Users\PCHAUT~1\AppData\Local\Temp\ccJh8K3O.s 			page 2


  58              		.loc 1 9 0
  59 0028 029B     		ldr	r3, [sp, #8]
  60 002a 06E0     		b	.L4
  61              	.L3:
  62              		.loc 1 7 0 discriminator 2
  63 002c 029B     		ldr	r3, [sp, #8]
  64 002e 9B6D     		ldr	r3, [r3, #88]
  65 0030 0293     		str	r3, [sp, #8]
  66              	.L2:
  67              		.loc 1 7 0 is_stmt 0 discriminator 1
  68 0032 029B     		ldr	r3, [sp, #8]
  69 0034 002B     		cmp	r3, #0
  70 0036 EED1     		bne	.L5
  71              		.loc 1 13 0 is_stmt 1
  72 0038 0023     		movs	r3, #0
  73              	.L4:
  74              		.loc 1 14 0
  75 003a 1846     		mov	r0, r3
  76 003c 044B     		ldr	r3, .L7
  77 003e 039A     		ldr	r2, [sp, #12]
  78 0040 1B68     		ldr	r3, [r3]
  79 0042 9A42     		cmp	r2, r3
  80 0044 01D0     		beq	.L6
  81 0046 FFF7FEFF 		bl	__stack_chk_fail
  82              	.L6:
  83 004a 05B0     		add	sp, sp, #20
  84              		.cfi_def_cfa_offset 4
  85              		@ sp needed
  86 004c 5DF804FB 		ldr	pc, [sp], #4
  87              	.L8:
  88              		.align	2
  89              	.L7:
  90 0050 00000000 		.word	__stack_chk_guard
  91              		.cfi_endproc
  92              	.LFE0:
  93              		.size	topic_by_name, .-topic_by_name
  94              		.section	.text.messagebus_init,"ax",%progbits
  95              		.align	1
  96              		.p2align 4,,15
  97              		.global	messagebus_init
  98              		.syntax unified
  99              		.thumb
 100              		.thumb_func
 101              		.fpu fpv4-sp-d16
 102              		.type	messagebus_init, %function
 103              	messagebus_init:
 104              	.LFB1:
 105              		.loc 1 17 0
 106              		.cfi_startproc
 107              		@ args = 0, pretend = 0, frame = 24
 108              		@ frame_needed = 0, uses_anonymous_args = 0
 109 0000 00B5     		push	{lr}
 110              		.cfi_def_cfa_offset 4
 111              		.cfi_offset 14, -4
 112 0002 87B0     		sub	sp, sp, #28
 113              		.cfi_def_cfa_offset 32
 114 0004 0390     		str	r0, [sp, #12]
ARM GAS  C:\Users\PCHAUT~1\AppData\Local\Temp\ccJh8K3O.s 			page 3


 115 0006 0291     		str	r1, [sp, #8]
 116 0008 0192     		str	r2, [sp, #4]
 117              		.loc 1 17 0
 118 000a 0C4B     		ldr	r3, .L11
 119 000c 1B68     		ldr	r3, [r3]
 120 000e 0593     		str	r3, [sp, #20]
 121              		.loc 1 18 0
 122 0010 0C22     		movs	r2, #12
 123 0012 0021     		movs	r1, #0
 124 0014 0398     		ldr	r0, [sp, #12]
 125 0016 FFF7FEFF 		bl	memset
 126              		.loc 1 19 0
 127 001a 039B     		ldr	r3, [sp, #12]
 128 001c 029A     		ldr	r2, [sp, #8]
 129 001e 5A60     		str	r2, [r3, #4]
 130              		.loc 1 20 0
 131 0020 039B     		ldr	r3, [sp, #12]
 132 0022 019A     		ldr	r2, [sp, #4]
 133 0024 9A60     		str	r2, [r3, #8]
 134              		.loc 1 21 0
 135 0026 00BF     		nop
 136 0028 044B     		ldr	r3, .L11
 137 002a 059A     		ldr	r2, [sp, #20]
 138 002c 1B68     		ldr	r3, [r3]
 139 002e 9A42     		cmp	r2, r3
 140 0030 01D0     		beq	.L10
 141 0032 FFF7FEFF 		bl	__stack_chk_fail
 142              	.L10:
 143 0036 07B0     		add	sp, sp, #28
 144              		.cfi_def_cfa_offset 4
 145              		@ sp needed
 146 0038 5DF804FB 		ldr	pc, [sp], #4
 147              	.L12:
 148              		.align	2
 149              	.L11:
 150 003c 00000000 		.word	__stack_chk_guard
 151              		.cfi_endproc
 152              	.LFE1:
 153              		.size	messagebus_init, .-messagebus_init
 154              		.section	.text.messagebus_topic_init,"ax",%progbits
 155              		.align	1
 156              		.p2align 4,,15
 157              		.global	messagebus_topic_init
 158              		.syntax unified
 159              		.thumb
 160              		.thumb_func
 161              		.fpu fpv4-sp-d16
 162              		.type	messagebus_topic_init, %function
 163              	messagebus_topic_init:
 164              	.LFB2:
 165              		.loc 1 25 0
 166              		.cfi_startproc
 167              		@ args = 4, pretend = 0, frame = 32
 168              		@ frame_needed = 0, uses_anonymous_args = 0
 169 0000 00B5     		push	{lr}
 170              		.cfi_def_cfa_offset 4
 171              		.cfi_offset 14, -4
ARM GAS  C:\Users\PCHAUT~1\AppData\Local\Temp\ccJh8K3O.s 			page 4


 172 0002 89B0     		sub	sp, sp, #36
 173              		.cfi_def_cfa_offset 40
 174 0004 0590     		str	r0, [sp, #20]
 175 0006 0491     		str	r1, [sp, #16]
 176 0008 0392     		str	r2, [sp, #12]
 177 000a 0293     		str	r3, [sp, #8]
 178 000c 0A9B     		ldr	r3, [sp, #40]
 179 000e 0193     		str	r3, [sp, #4]
 180              		.loc 1 25 0
 181 0010 0F4B     		ldr	r3, .L15
 182 0012 1B68     		ldr	r3, [r3]
 183 0014 0793     		str	r3, [sp, #28]
 184              		.loc 1 26 0
 185 0016 5C22     		movs	r2, #92
 186 0018 0021     		movs	r1, #0
 187 001a 0598     		ldr	r0, [sp, #20]
 188 001c FFF7FEFF 		bl	memset
 189              		.loc 1 27 0
 190 0020 059B     		ldr	r3, [sp, #20]
 191 0022 029A     		ldr	r2, [sp, #8]
 192 0024 1A60     		str	r2, [r3]
 193              		.loc 1 28 0
 194 0026 059B     		ldr	r3, [sp, #20]
 195 0028 019A     		ldr	r2, [sp, #4]
 196 002a 5A60     		str	r2, [r3, #4]
 197              		.loc 1 29 0
 198 002c 059B     		ldr	r3, [sp, #20]
 199 002e 049A     		ldr	r2, [sp, #16]
 200 0030 9A60     		str	r2, [r3, #8]
 201              		.loc 1 30 0
 202 0032 059B     		ldr	r3, [sp, #20]
 203 0034 039A     		ldr	r2, [sp, #12]
 204 0036 DA60     		str	r2, [r3, #12]
 205              		.loc 1 31 0
 206 0038 00BF     		nop
 207 003a 054B     		ldr	r3, .L15
 208 003c 079A     		ldr	r2, [sp, #28]
 209 003e 1B68     		ldr	r3, [r3]
 210 0040 9A42     		cmp	r2, r3
 211 0042 01D0     		beq	.L14
 212 0044 FFF7FEFF 		bl	__stack_chk_fail
 213              	.L14:
 214 0048 09B0     		add	sp, sp, #36
 215              		.cfi_def_cfa_offset 4
 216              		@ sp needed
 217 004a 5DF804FB 		ldr	pc, [sp], #4
 218              	.L16:
 219 004e 00BF     		.align	2
 220              	.L15:
 221 0050 00000000 		.word	__stack_chk_guard
 222              		.cfi_endproc
 223              	.LFE2:
 224              		.size	messagebus_topic_init, .-messagebus_topic_init
 225              		.section	.text.messagebus_advertise_topic,"ax",%progbits
 226              		.align	1
 227              		.p2align 4,,15
 228              		.global	messagebus_advertise_topic
ARM GAS  C:\Users\PCHAUT~1\AppData\Local\Temp\ccJh8K3O.s 			page 5


 229              		.syntax unified
 230              		.thumb
 231              		.thumb_func
 232              		.fpu fpv4-sp-d16
 233              		.type	messagebus_advertise_topic, %function
 234              	messagebus_advertise_topic:
 235              	.LFB3:
 236              		.loc 1 34 0
 237              		.cfi_startproc
 238              		@ args = 0, pretend = 0, frame = 24
 239              		@ frame_needed = 0, uses_anonymous_args = 0
 240 0000 00B5     		push	{lr}
 241              		.cfi_def_cfa_offset 4
 242              		.cfi_offset 14, -4
 243 0002 87B0     		sub	sp, sp, #28
 244              		.cfi_def_cfa_offset 32
 245 0004 0390     		str	r0, [sp, #12]
 246 0006 0291     		str	r1, [sp, #8]
 247 0008 0192     		str	r2, [sp, #4]
 248              		.loc 1 34 0
 249 000a 1B4B     		ldr	r3, .L20
 250 000c 1B68     		ldr	r3, [r3]
 251 000e 0593     		str	r3, [sp, #20]
 252              		.loc 1 35 0
 253 0010 029B     		ldr	r3, [sp, #8]
 254 0012 1033     		adds	r3, r3, #16
 255 0014 4122     		movs	r2, #65
 256 0016 0021     		movs	r1, #0
 257 0018 1846     		mov	r0, r3
 258 001a FFF7FEFF 		bl	memset
 259              		.loc 1 36 0
 260 001e 029B     		ldr	r3, [sp, #8]
 261 0020 1033     		adds	r3, r3, #16
 262 0022 4022     		movs	r2, #64
 263 0024 0199     		ldr	r1, [sp, #4]
 264 0026 1846     		mov	r0, r3
 265 0028 FFF7FEFF 		bl	strncpy
 266              		.loc 1 38 0
 267 002c 039B     		ldr	r3, [sp, #12]
 268 002e 5B68     		ldr	r3, [r3, #4]
 269 0030 1846     		mov	r0, r3
 270 0032 FFF7FEFF 		bl	messagebus_lock_acquire
 271              		.loc 1 40 0
 272 0036 039B     		ldr	r3, [sp, #12]
 273 0038 1B68     		ldr	r3, [r3]
 274 003a 002B     		cmp	r3, #0
 275 003c 03D0     		beq	.L18
 276              		.loc 1 41 0
 277 003e 039B     		ldr	r3, [sp, #12]
 278 0040 1A68     		ldr	r2, [r3]
 279 0042 029B     		ldr	r3, [sp, #8]
 280 0044 9A65     		str	r2, [r3, #88]
 281              	.L18:
 282              		.loc 1 43 0
 283 0046 039B     		ldr	r3, [sp, #12]
 284 0048 029A     		ldr	r2, [sp, #8]
 285 004a 1A60     		str	r2, [r3]
ARM GAS  C:\Users\PCHAUT~1\AppData\Local\Temp\ccJh8K3O.s 			page 6


 286              		.loc 1 45 0
 287 004c 039B     		ldr	r3, [sp, #12]
 288 004e 9B68     		ldr	r3, [r3, #8]
 289 0050 1846     		mov	r0, r3
 290 0052 FFF7FEFF 		bl	messagebus_condvar_broadcast
 291              		.loc 1 47 0
 292 0056 039B     		ldr	r3, [sp, #12]
 293 0058 5B68     		ldr	r3, [r3, #4]
 294 005a 1846     		mov	r0, r3
 295 005c FFF7FEFF 		bl	messagebus_lock_release
 296              		.loc 1 48 0
 297 0060 00BF     		nop
 298 0062 054B     		ldr	r3, .L20
 299 0064 059A     		ldr	r2, [sp, #20]
 300 0066 1B68     		ldr	r3, [r3]
 301 0068 9A42     		cmp	r2, r3
 302 006a 01D0     		beq	.L19
 303 006c FFF7FEFF 		bl	__stack_chk_fail
 304              	.L19:
 305 0070 07B0     		add	sp, sp, #28
 306              		.cfi_def_cfa_offset 4
 307              		@ sp needed
 308 0072 5DF804FB 		ldr	pc, [sp], #4
 309              	.L21:
 310 0076 00BF     		.align	2
 311              	.L20:
 312 0078 00000000 		.word	__stack_chk_guard
 313              		.cfi_endproc
 314              	.LFE3:
 315              		.size	messagebus_advertise_topic, .-messagebus_advertise_topic
 316              		.section	.text.messagebus_find_topic,"ax",%progbits
 317              		.align	1
 318              		.p2align 4,,15
 319              		.global	messagebus_find_topic
 320              		.syntax unified
 321              		.thumb
 322              		.thumb_func
 323              		.fpu fpv4-sp-d16
 324              		.type	messagebus_find_topic, %function
 325              	messagebus_find_topic:
 326              	.LFB4:
 327              		.loc 1 51 0
 328              		.cfi_startproc
 329              		@ args = 0, pretend = 0, frame = 16
 330              		@ frame_needed = 0, uses_anonymous_args = 0
 331 0000 00B5     		push	{lr}
 332              		.cfi_def_cfa_offset 4
 333              		.cfi_offset 14, -4
 334 0002 85B0     		sub	sp, sp, #20
 335              		.cfi_def_cfa_offset 24
 336 0004 0190     		str	r0, [sp, #4]
 337 0006 0091     		str	r1, [sp]
 338              		.loc 1 51 0
 339 0008 0E4B     		ldr	r3, .L25
 340 000a 1B68     		ldr	r3, [r3]
 341 000c 0393     		str	r3, [sp, #12]
 342              		.loc 1 54 0
ARM GAS  C:\Users\PCHAUT~1\AppData\Local\Temp\ccJh8K3O.s 			page 7


 343 000e 019B     		ldr	r3, [sp, #4]
 344 0010 5B68     		ldr	r3, [r3, #4]
 345 0012 1846     		mov	r0, r3
 346 0014 FFF7FEFF 		bl	messagebus_lock_acquire
 347              		.loc 1 56 0
 348 0018 0099     		ldr	r1, [sp]
 349 001a 0198     		ldr	r0, [sp, #4]
 350 001c FFF7FEFF 		bl	topic_by_name
 351 0020 0290     		str	r0, [sp, #8]
 352              		.loc 1 58 0
 353 0022 019B     		ldr	r3, [sp, #4]
 354 0024 5B68     		ldr	r3, [r3, #4]
 355 0026 1846     		mov	r0, r3
 356 0028 FFF7FEFF 		bl	messagebus_lock_release
 357              		.loc 1 60 0
 358 002c 029B     		ldr	r3, [sp, #8]
 359              		.loc 1 61 0
 360 002e 1846     		mov	r0, r3
 361 0030 044B     		ldr	r3, .L25
 362 0032 039A     		ldr	r2, [sp, #12]
 363 0034 1B68     		ldr	r3, [r3]
 364 0036 9A42     		cmp	r2, r3
 365 0038 01D0     		beq	.L24
 366 003a FFF7FEFF 		bl	__stack_chk_fail
 367              	.L24:
 368 003e 05B0     		add	sp, sp, #20
 369              		.cfi_def_cfa_offset 4
 370              		@ sp needed
 371 0040 5DF804FB 		ldr	pc, [sp], #4
 372              	.L26:
 373              		.align	2
 374              	.L25:
 375 0044 00000000 		.word	__stack_chk_guard
 376              		.cfi_endproc
 377              	.LFE4:
 378              		.size	messagebus_find_topic, .-messagebus_find_topic
 379              		.section	.text.messagebus_find_topic_blocking,"ax",%progbits
 380              		.align	1
 381              		.p2align 4,,15
 382              		.global	messagebus_find_topic_blocking
 383              		.syntax unified
 384              		.thumb
 385              		.thumb_func
 386              		.fpu fpv4-sp-d16
 387              		.type	messagebus_find_topic_blocking, %function
 388              	messagebus_find_topic_blocking:
 389              	.LFB5:
 390              		.loc 1 64 0
 391              		.cfi_startproc
 392              		@ args = 0, pretend = 0, frame = 16
 393              		@ frame_needed = 0, uses_anonymous_args = 0
 394 0000 00B5     		push	{lr}
 395              		.cfi_def_cfa_offset 4
 396              		.cfi_offset 14, -4
 397 0002 85B0     		sub	sp, sp, #20
 398              		.cfi_def_cfa_offset 24
 399 0004 0190     		str	r0, [sp, #4]
ARM GAS  C:\Users\PCHAUT~1\AppData\Local\Temp\ccJh8K3O.s 			page 8


 400 0006 0091     		str	r1, [sp]
 401              		.loc 1 64 0
 402 0008 154B     		ldr	r3, .L32
 403 000a 1B68     		ldr	r3, [r3]
 404 000c 0393     		str	r3, [sp, #12]
 405              		.loc 1 65 0
 406 000e 0023     		movs	r3, #0
 407 0010 0293     		str	r3, [sp, #8]
 408              		.loc 1 67 0
 409 0012 019B     		ldr	r3, [sp, #4]
 410 0014 5B68     		ldr	r3, [r3, #4]
 411 0016 1846     		mov	r0, r3
 412 0018 FFF7FEFF 		bl	messagebus_lock_acquire
 413              		.loc 1 69 0
 414 001c 0CE0     		b	.L28
 415              	.L29:
 416              		.loc 1 70 0
 417 001e 0099     		ldr	r1, [sp]
 418 0020 0198     		ldr	r0, [sp, #4]
 419 0022 FFF7FEFF 		bl	topic_by_name
 420 0026 0290     		str	r0, [sp, #8]
 421              		.loc 1 72 0
 422 0028 029B     		ldr	r3, [sp, #8]
 423 002a 002B     		cmp	r3, #0
 424 002c 04D1     		bne	.L28
 425              		.loc 1 73 0
 426 002e 019B     		ldr	r3, [sp, #4]
 427 0030 9B68     		ldr	r3, [r3, #8]
 428 0032 1846     		mov	r0, r3
 429 0034 FFF7FEFF 		bl	messagebus_condvar_wait
 430              	.L28:
 431              		.loc 1 69 0
 432 0038 029B     		ldr	r3, [sp, #8]
 433 003a 002B     		cmp	r3, #0
 434 003c EFD0     		beq	.L29
 435              		.loc 1 77 0
 436 003e 019B     		ldr	r3, [sp, #4]
 437 0040 5B68     		ldr	r3, [r3, #4]
 438 0042 1846     		mov	r0, r3
 439 0044 FFF7FEFF 		bl	messagebus_lock_release
 440              		.loc 1 79 0
 441 0048 029B     		ldr	r3, [sp, #8]
 442              		.loc 1 80 0
 443 004a 1846     		mov	r0, r3
 444 004c 044B     		ldr	r3, .L32
 445 004e 039A     		ldr	r2, [sp, #12]
 446 0050 1B68     		ldr	r3, [r3]
 447 0052 9A42     		cmp	r2, r3
 448 0054 01D0     		beq	.L31
 449 0056 FFF7FEFF 		bl	__stack_chk_fail
 450              	.L31:
 451 005a 05B0     		add	sp, sp, #20
 452              		.cfi_def_cfa_offset 4
 453              		@ sp needed
 454 005c 5DF804FB 		ldr	pc, [sp], #4
 455              	.L33:
 456              		.align	2
ARM GAS  C:\Users\PCHAUT~1\AppData\Local\Temp\ccJh8K3O.s 			page 9


 457              	.L32:
 458 0060 00000000 		.word	__stack_chk_guard
 459              		.cfi_endproc
 460              	.LFE5:
 461              		.size	messagebus_find_topic_blocking, .-messagebus_find_topic_blocking
 462              		.section	.text.messagebus_topic_publish,"ax",%progbits
 463              		.align	1
 464              		.p2align 4,,15
 465              		.global	messagebus_topic_publish
 466              		.syntax unified
 467              		.thumb
 468              		.thumb_func
 469              		.fpu fpv4-sp-d16
 470              		.type	messagebus_topic_publish, %function
 471              	messagebus_topic_publish:
 472              	.LFB6:
 473              		.loc 1 83 0
 474              		.cfi_startproc
 475              		@ args = 0, pretend = 0, frame = 24
 476              		@ frame_needed = 0, uses_anonymous_args = 0
 477 0000 00B5     		push	{lr}
 478              		.cfi_def_cfa_offset 4
 479              		.cfi_offset 14, -4
 480 0002 87B0     		sub	sp, sp, #28
 481              		.cfi_def_cfa_offset 32
 482 0004 0390     		str	r0, [sp, #12]
 483 0006 0291     		str	r1, [sp, #8]
 484 0008 0192     		str	r2, [sp, #4]
 485              		.loc 1 83 0
 486 000a 284B     		ldr	r3, .L40
 487 000c 1B68     		ldr	r3, [r3]
 488 000e 0593     		str	r3, [sp, #20]
 489              		.loc 1 84 0
 490 0010 039B     		ldr	r3, [sp, #12]
 491 0012 5B68     		ldr	r3, [r3, #4]
 492 0014 019A     		ldr	r2, [sp, #4]
 493 0016 9A42     		cmp	r2, r3
 494 0018 01D9     		bls	.L35
 495              		.loc 1 85 0
 496 001a 0023     		movs	r3, #0
 497 001c 3AE0     		b	.L36
 498              	.L35:
 499              		.loc 1 88 0
 500 001e 039B     		ldr	r3, [sp, #12]
 501 0020 9B68     		ldr	r3, [r3, #8]
 502 0022 1846     		mov	r0, r3
 503 0024 FFF7FEFF 		bl	messagebus_lock_acquire
 504              		.loc 1 90 0
 505 0028 039B     		ldr	r3, [sp, #12]
 506 002a 1B68     		ldr	r3, [r3]
 507 002c 019A     		ldr	r2, [sp, #4]
 508 002e 0299     		ldr	r1, [sp, #8]
 509 0030 1846     		mov	r0, r3
 510 0032 FFF7FEFF 		bl	memcpy
 511              		.loc 1 91 0
 512 0036 039B     		ldr	r3, [sp, #12]
 513 0038 0122     		movs	r2, #1
ARM GAS  C:\Users\PCHAUT~1\AppData\Local\Temp\ccJh8K3O.s 			page 10


 514 003a 83F85120 		strb	r2, [r3, #81]
 515              		.loc 1 92 0
 516 003e 039B     		ldr	r3, [sp, #12]
 517 0040 DB68     		ldr	r3, [r3, #12]
 518 0042 1846     		mov	r0, r3
 519 0044 FFF7FEFF 		bl	messagebus_condvar_broadcast
 520              		.loc 1 95 0
 521 0048 039B     		ldr	r3, [sp, #12]
 522 004a 5B6D     		ldr	r3, [r3, #84]
 523 004c 0493     		str	r3, [sp, #16]
 524 004e 18E0     		b	.L37
 525              	.L38:
 526              		.loc 1 96 0 discriminator 3
 527 0050 049B     		ldr	r3, [sp, #16]
 528 0052 1B68     		ldr	r3, [r3]
 529 0054 1B68     		ldr	r3, [r3]
 530 0056 1846     		mov	r0, r3
 531 0058 FFF7FEFF 		bl	messagebus_lock_acquire
 532              		.loc 1 97 0 discriminator 3
 533 005c 049B     		ldr	r3, [sp, #16]
 534 005e 1B68     		ldr	r3, [r3]
 535 0060 039A     		ldr	r2, [sp, #12]
 536 0062 9A60     		str	r2, [r3, #8]
 537              		.loc 1 98 0 discriminator 3
 538 0064 049B     		ldr	r3, [sp, #16]
 539 0066 1B68     		ldr	r3, [r3]
 540 0068 5B68     		ldr	r3, [r3, #4]
 541 006a 1846     		mov	r0, r3
 542 006c FFF7FEFF 		bl	messagebus_condvar_broadcast
 543              		.loc 1 99 0 discriminator 3
 544 0070 049B     		ldr	r3, [sp, #16]
 545 0072 1B68     		ldr	r3, [r3]
 546 0074 1B68     		ldr	r3, [r3]
 547 0076 1846     		mov	r0, r3
 548 0078 FFF7FEFF 		bl	messagebus_lock_release
 549              		.loc 1 95 0 discriminator 3
 550 007c 049B     		ldr	r3, [sp, #16]
 551 007e 5B68     		ldr	r3, [r3, #4]
 552 0080 0493     		str	r3, [sp, #16]
 553              	.L37:
 554              		.loc 1 95 0 is_stmt 0 discriminator 1
 555 0082 049B     		ldr	r3, [sp, #16]
 556 0084 002B     		cmp	r3, #0
 557 0086 E3D1     		bne	.L38
 558              		.loc 1 102 0 is_stmt 1
 559 0088 039B     		ldr	r3, [sp, #12]
 560 008a 9B68     		ldr	r3, [r3, #8]
 561 008c 1846     		mov	r0, r3
 562 008e FFF7FEFF 		bl	messagebus_lock_release
 563              		.loc 1 104 0
 564 0092 0123     		movs	r3, #1
 565              	.L36:
 566              		.loc 1 105 0
 567 0094 1846     		mov	r0, r3
 568 0096 054B     		ldr	r3, .L40
 569 0098 059A     		ldr	r2, [sp, #20]
 570 009a 1B68     		ldr	r3, [r3]
ARM GAS  C:\Users\PCHAUT~1\AppData\Local\Temp\ccJh8K3O.s 			page 11


 571 009c 9A42     		cmp	r2, r3
 572 009e 01D0     		beq	.L39
 573 00a0 FFF7FEFF 		bl	__stack_chk_fail
 574              	.L39:
 575 00a4 07B0     		add	sp, sp, #28
 576              		.cfi_def_cfa_offset 4
 577              		@ sp needed
 578 00a6 5DF804FB 		ldr	pc, [sp], #4
 579              	.L41:
 580 00aa 00BF     		.align	2
 581              	.L40:
 582 00ac 00000000 		.word	__stack_chk_guard
 583              		.cfi_endproc
 584              	.LFE6:
 585              		.size	messagebus_topic_publish, .-messagebus_topic_publish
 586              		.section	.text.messagebus_topic_read,"ax",%progbits
 587              		.align	1
 588              		.p2align 4,,15
 589              		.global	messagebus_topic_read
 590              		.syntax unified
 591              		.thumb
 592              		.thumb_func
 593              		.fpu fpv4-sp-d16
 594              		.type	messagebus_topic_read, %function
 595              	messagebus_topic_read:
 596              	.LFB7:
 597              		.loc 1 108 0
 598              		.cfi_startproc
 599              		@ args = 0, pretend = 0, frame = 24
 600              		@ frame_needed = 0, uses_anonymous_args = 0
 601 0000 00B5     		push	{lr}
 602              		.cfi_def_cfa_offset 4
 603              		.cfi_offset 14, -4
 604 0002 87B0     		sub	sp, sp, #28
 605              		.cfi_def_cfa_offset 32
 606 0004 0390     		str	r0, [sp, #12]
 607 0006 0291     		str	r1, [sp, #8]
 608 0008 0192     		str	r2, [sp, #4]
 609              		.loc 1 108 0
 610 000a 164B     		ldr	r3, .L46
 611 000c 1B68     		ldr	r3, [r3]
 612 000e 0593     		str	r3, [sp, #20]
 613              		.loc 1 109 0
 614 0010 0023     		movs	r3, #0
 615 0012 8DF81330 		strb	r3, [sp, #19]
 616              		.loc 1 110 0
 617 0016 039B     		ldr	r3, [sp, #12]
 618 0018 9B68     		ldr	r3, [r3, #8]
 619 001a 1846     		mov	r0, r3
 620 001c FFF7FEFF 		bl	messagebus_lock_acquire
 621              		.loc 1 112 0
 622 0020 039B     		ldr	r3, [sp, #12]
 623 0022 93F85130 		ldrb	r3, [r3, #81]	@ zero_extendqisi2
 624 0026 002B     		cmp	r3, #0
 625 0028 09D0     		beq	.L43
 626              		.loc 1 113 0
 627 002a 0123     		movs	r3, #1
ARM GAS  C:\Users\PCHAUT~1\AppData\Local\Temp\ccJh8K3O.s 			page 12


 628 002c 8DF81330 		strb	r3, [sp, #19]
 629              		.loc 1 114 0
 630 0030 039B     		ldr	r3, [sp, #12]
 631 0032 1B68     		ldr	r3, [r3]
 632 0034 019A     		ldr	r2, [sp, #4]
 633 0036 1946     		mov	r1, r3
 634 0038 0298     		ldr	r0, [sp, #8]
 635 003a FFF7FEFF 		bl	memcpy
 636              	.L43:
 637              		.loc 1 117 0
 638 003e 039B     		ldr	r3, [sp, #12]
 639 0040 9B68     		ldr	r3, [r3, #8]
 640 0042 1846     		mov	r0, r3
 641 0044 FFF7FEFF 		bl	messagebus_lock_release
 642              		.loc 1 119 0
 643 0048 9DF81330 		ldrb	r3, [sp, #19]	@ zero_extendqisi2
 644              		.loc 1 120 0
 645 004c 1846     		mov	r0, r3
 646 004e 054B     		ldr	r3, .L46
 647 0050 059A     		ldr	r2, [sp, #20]
 648 0052 1B68     		ldr	r3, [r3]
 649 0054 9A42     		cmp	r2, r3
 650 0056 01D0     		beq	.L45
 651 0058 FFF7FEFF 		bl	__stack_chk_fail
 652              	.L45:
 653 005c 07B0     		add	sp, sp, #28
 654              		.cfi_def_cfa_offset 4
 655              		@ sp needed
 656 005e 5DF804FB 		ldr	pc, [sp], #4
 657              	.L47:
 658 0062 00BF     		.align	2
 659              	.L46:
 660 0064 00000000 		.word	__stack_chk_guard
 661              		.cfi_endproc
 662              	.LFE7:
 663              		.size	messagebus_topic_read, .-messagebus_topic_read
 664              		.section	.text.messagebus_topic_wait,"ax",%progbits
 665              		.align	1
 666              		.p2align 4,,15
 667              		.global	messagebus_topic_wait
 668              		.syntax unified
 669              		.thumb
 670              		.thumb_func
 671              		.fpu fpv4-sp-d16
 672              		.type	messagebus_topic_wait, %function
 673              	messagebus_topic_wait:
 674              	.LFB8:
 675              		.loc 1 123 0
 676              		.cfi_startproc
 677              		@ args = 0, pretend = 0, frame = 24
 678              		@ frame_needed = 0, uses_anonymous_args = 0
 679 0000 00B5     		push	{lr}
 680              		.cfi_def_cfa_offset 4
 681              		.cfi_offset 14, -4
 682 0002 87B0     		sub	sp, sp, #28
 683              		.cfi_def_cfa_offset 32
 684 0004 0390     		str	r0, [sp, #12]
ARM GAS  C:\Users\PCHAUT~1\AppData\Local\Temp\ccJh8K3O.s 			page 13


 685 0006 0291     		str	r1, [sp, #8]
 686 0008 0192     		str	r2, [sp, #4]
 687              		.loc 1 123 0
 688 000a 124B     		ldr	r3, .L50
 689 000c 1B68     		ldr	r3, [r3]
 690 000e 0593     		str	r3, [sp, #20]
 691              		.loc 1 124 0
 692 0010 039B     		ldr	r3, [sp, #12]
 693 0012 9B68     		ldr	r3, [r3, #8]
 694 0014 1846     		mov	r0, r3
 695 0016 FFF7FEFF 		bl	messagebus_lock_acquire
 696              		.loc 1 125 0
 697 001a 039B     		ldr	r3, [sp, #12]
 698 001c DB68     		ldr	r3, [r3, #12]
 699 001e 1846     		mov	r0, r3
 700 0020 FFF7FEFF 		bl	messagebus_condvar_wait
 701              		.loc 1 127 0
 702 0024 039B     		ldr	r3, [sp, #12]
 703 0026 1B68     		ldr	r3, [r3]
 704 0028 019A     		ldr	r2, [sp, #4]
 705 002a 1946     		mov	r1, r3
 706 002c 0298     		ldr	r0, [sp, #8]
 707 002e FFF7FEFF 		bl	memcpy
 708              		.loc 1 129 0
 709 0032 039B     		ldr	r3, [sp, #12]
 710 0034 9B68     		ldr	r3, [r3, #8]
 711 0036 1846     		mov	r0, r3
 712 0038 FFF7FEFF 		bl	messagebus_lock_release
 713              		.loc 1 130 0
 714 003c 00BF     		nop
 715 003e 054B     		ldr	r3, .L50
 716 0040 059A     		ldr	r2, [sp, #20]
 717 0042 1B68     		ldr	r3, [r3]
 718 0044 9A42     		cmp	r2, r3
 719 0046 01D0     		beq	.L49
 720 0048 FFF7FEFF 		bl	__stack_chk_fail
 721              	.L49:
 722 004c 07B0     		add	sp, sp, #28
 723              		.cfi_def_cfa_offset 4
 724              		@ sp needed
 725 004e 5DF804FB 		ldr	pc, [sp], #4
 726              	.L51:
 727 0052 00BF     		.align	2
 728              	.L50:
 729 0054 00000000 		.word	__stack_chk_guard
 730              		.cfi_endproc
 731              	.LFE8:
 732              		.size	messagebus_topic_wait, .-messagebus_topic_wait
 733              		.section	.text.messagebus_watchgroup_init,"ax",%progbits
 734              		.align	1
 735              		.p2align 4,,15
 736              		.global	messagebus_watchgroup_init
 737              		.syntax unified
 738              		.thumb
 739              		.thumb_func
 740              		.fpu fpv4-sp-d16
 741              		.type	messagebus_watchgroup_init, %function
ARM GAS  C:\Users\PCHAUT~1\AppData\Local\Temp\ccJh8K3O.s 			page 14


 742              	messagebus_watchgroup_init:
 743              	.LFB9:
 744              		.loc 1 134 0
 745              		.cfi_startproc
 746              		@ args = 0, pretend = 0, frame = 24
 747              		@ frame_needed = 0, uses_anonymous_args = 0
 748 0000 00B5     		push	{lr}
 749              		.cfi_def_cfa_offset 4
 750              		.cfi_offset 14, -4
 751 0002 87B0     		sub	sp, sp, #28
 752              		.cfi_def_cfa_offset 32
 753 0004 0390     		str	r0, [sp, #12]
 754 0006 0291     		str	r1, [sp, #8]
 755 0008 0192     		str	r2, [sp, #4]
 756              		.loc 1 134 0
 757 000a 0A4B     		ldr	r3, .L54
 758 000c 1B68     		ldr	r3, [r3]
 759 000e 0593     		str	r3, [sp, #20]
 760              		.loc 1 135 0
 761 0010 039B     		ldr	r3, [sp, #12]
 762 0012 029A     		ldr	r2, [sp, #8]
 763 0014 1A60     		str	r2, [r3]
 764              		.loc 1 136 0
 765 0016 039B     		ldr	r3, [sp, #12]
 766 0018 019A     		ldr	r2, [sp, #4]
 767 001a 5A60     		str	r2, [r3, #4]
 768              		.loc 1 137 0
 769 001c 00BF     		nop
 770 001e 054B     		ldr	r3, .L54
 771 0020 059A     		ldr	r2, [sp, #20]
 772 0022 1B68     		ldr	r3, [r3]
 773 0024 9A42     		cmp	r2, r3
 774 0026 01D0     		beq	.L53
 775 0028 FFF7FEFF 		bl	__stack_chk_fail
 776              	.L53:
 777 002c 07B0     		add	sp, sp, #28
 778              		.cfi_def_cfa_offset 4
 779              		@ sp needed
 780 002e 5DF804FB 		ldr	pc, [sp], #4
 781              	.L55:
 782 0032 00BF     		.align	2
 783              	.L54:
 784 0034 00000000 		.word	__stack_chk_guard
 785              		.cfi_endproc
 786              	.LFE9:
 787              		.size	messagebus_watchgroup_init, .-messagebus_watchgroup_init
 788              		.section	.text.messagebus_watchgroup_watch,"ax",%progbits
 789              		.align	1
 790              		.p2align 4,,15
 791              		.global	messagebus_watchgroup_watch
 792              		.syntax unified
 793              		.thumb
 794              		.thumb_func
 795              		.fpu fpv4-sp-d16
 796              		.type	messagebus_watchgroup_watch, %function
 797              	messagebus_watchgroup_watch:
 798              	.LFB10:
ARM GAS  C:\Users\PCHAUT~1\AppData\Local\Temp\ccJh8K3O.s 			page 15


 799              		.loc 1 142 0
 800              		.cfi_startproc
 801              		@ args = 0, pretend = 0, frame = 24
 802              		@ frame_needed = 0, uses_anonymous_args = 0
 803 0000 00B5     		push	{lr}
 804              		.cfi_def_cfa_offset 4
 805              		.cfi_offset 14, -4
 806 0002 87B0     		sub	sp, sp, #28
 807              		.cfi_def_cfa_offset 32
 808 0004 0390     		str	r0, [sp, #12]
 809 0006 0291     		str	r1, [sp, #8]
 810 0008 0192     		str	r2, [sp, #4]
 811              		.loc 1 142 0
 812 000a 184B     		ldr	r3, .L59
 813 000c 1B68     		ldr	r3, [r3]
 814 000e 0593     		str	r3, [sp, #20]
 815              		.loc 1 143 0
 816 0010 019B     		ldr	r3, [sp, #4]
 817 0012 9B68     		ldr	r3, [r3, #8]
 818 0014 1846     		mov	r0, r3
 819 0016 FFF7FEFF 		bl	messagebus_lock_acquire
 820              		.loc 1 144 0
 821 001a 029B     		ldr	r3, [sp, #8]
 822 001c 1B68     		ldr	r3, [r3]
 823 001e 1846     		mov	r0, r3
 824 0020 FFF7FEFF 		bl	messagebus_lock_acquire
 825              		.loc 1 146 0
 826 0024 039B     		ldr	r3, [sp, #12]
 827 0026 029A     		ldr	r2, [sp, #8]
 828 0028 1A60     		str	r2, [r3]
 829              		.loc 1 148 0
 830 002a 019B     		ldr	r3, [sp, #4]
 831 002c 5B6D     		ldr	r3, [r3, #84]
 832 002e 002B     		cmp	r3, #0
 833 0030 03D0     		beq	.L57
 834              		.loc 1 149 0
 835 0032 019B     		ldr	r3, [sp, #4]
 836 0034 5A6D     		ldr	r2, [r3, #84]
 837 0036 039B     		ldr	r3, [sp, #12]
 838 0038 5A60     		str	r2, [r3, #4]
 839              	.L57:
 840              		.loc 1 151 0
 841 003a 019B     		ldr	r3, [sp, #4]
 842 003c 039A     		ldr	r2, [sp, #12]
 843 003e 5A65     		str	r2, [r3, #84]
 844              		.loc 1 153 0
 845 0040 029B     		ldr	r3, [sp, #8]
 846 0042 1B68     		ldr	r3, [r3]
 847 0044 1846     		mov	r0, r3
 848 0046 FFF7FEFF 		bl	messagebus_lock_release
 849              		.loc 1 154 0
 850 004a 019B     		ldr	r3, [sp, #4]
 851 004c 9B68     		ldr	r3, [r3, #8]
 852 004e 1846     		mov	r0, r3
 853 0050 FFF7FEFF 		bl	messagebus_lock_release
 854              		.loc 1 155 0
 855 0054 00BF     		nop
ARM GAS  C:\Users\PCHAUT~1\AppData\Local\Temp\ccJh8K3O.s 			page 16


 856 0056 054B     		ldr	r3, .L59
 857 0058 059A     		ldr	r2, [sp, #20]
 858 005a 1B68     		ldr	r3, [r3]
 859 005c 9A42     		cmp	r2, r3
 860 005e 01D0     		beq	.L58
 861 0060 FFF7FEFF 		bl	__stack_chk_fail
 862              	.L58:
 863 0064 07B0     		add	sp, sp, #28
 864              		.cfi_def_cfa_offset 4
 865              		@ sp needed
 866 0066 5DF804FB 		ldr	pc, [sp], #4
 867              	.L60:
 868 006a 00BF     		.align	2
 869              	.L59:
 870 006c 00000000 		.word	__stack_chk_guard
 871              		.cfi_endproc
 872              	.LFE10:
 873              		.size	messagebus_watchgroup_watch, .-messagebus_watchgroup_watch
 874              		.section	.text.messagebus_watchgroup_wait,"ax",%progbits
 875              		.align	1
 876              		.p2align 4,,15
 877              		.global	messagebus_watchgroup_wait
 878              		.syntax unified
 879              		.thumb
 880              		.thumb_func
 881              		.fpu fpv4-sp-d16
 882              		.type	messagebus_watchgroup_wait, %function
 883              	messagebus_watchgroup_wait:
 884              	.LFB11:
 885              		.loc 1 158 0
 886              		.cfi_startproc
 887              		@ args = 0, pretend = 0, frame = 16
 888              		@ frame_needed = 0, uses_anonymous_args = 0
 889 0000 00B5     		push	{lr}
 890              		.cfi_def_cfa_offset 4
 891              		.cfi_offset 14, -4
 892 0002 85B0     		sub	sp, sp, #20
 893              		.cfi_def_cfa_offset 24
 894 0004 0190     		str	r0, [sp, #4]
 895              		.loc 1 158 0
 896 0006 104B     		ldr	r3, .L64
 897 0008 1B68     		ldr	r3, [r3]
 898 000a 0393     		str	r3, [sp, #12]
 899              		.loc 1 161 0
 900 000c 019B     		ldr	r3, [sp, #4]
 901 000e 1B68     		ldr	r3, [r3]
 902 0010 1846     		mov	r0, r3
 903 0012 FFF7FEFF 		bl	messagebus_lock_acquire
 904              		.loc 1 162 0
 905 0016 019B     		ldr	r3, [sp, #4]
 906 0018 5B68     		ldr	r3, [r3, #4]
 907 001a 1846     		mov	r0, r3
 908 001c FFF7FEFF 		bl	messagebus_condvar_wait
 909              		.loc 1 164 0
 910 0020 019B     		ldr	r3, [sp, #4]
 911 0022 9B68     		ldr	r3, [r3, #8]
 912 0024 0293     		str	r3, [sp, #8]
ARM GAS  C:\Users\PCHAUT~1\AppData\Local\Temp\ccJh8K3O.s 			page 17


 913              		.loc 1 166 0
 914 0026 019B     		ldr	r3, [sp, #4]
 915 0028 1B68     		ldr	r3, [r3]
 916 002a 1846     		mov	r0, r3
 917 002c FFF7FEFF 		bl	messagebus_lock_release
 918              		.loc 1 168 0
 919 0030 029B     		ldr	r3, [sp, #8]
 920              		.loc 1 169 0
 921 0032 1846     		mov	r0, r3
 922 0034 044B     		ldr	r3, .L64
 923 0036 039A     		ldr	r2, [sp, #12]
 924 0038 1B68     		ldr	r3, [r3]
 925 003a 9A42     		cmp	r2, r3
 926 003c 01D0     		beq	.L63
 927 003e FFF7FEFF 		bl	__stack_chk_fail
 928              	.L63:
 929 0042 05B0     		add	sp, sp, #20
 930              		.cfi_def_cfa_offset 4
 931              		@ sp needed
 932 0044 5DF804FB 		ldr	pc, [sp], #4
 933              	.L65:
 934              		.align	2
 935              	.L64:
 936 0048 00000000 		.word	__stack_chk_guard
 937              		.cfi_endproc
 938              	.LFE11:
 939              		.size	messagebus_watchgroup_wait, .-messagebus_watchgroup_wait
 940              		.text
 941              	.Letext0:
 942              		.file 2 "c:\\users\\pchautems\\documents\\robotiquetp\\eclipse_e-puck2\\tools\\gcc-arm-none-eabi-7
 943              		.file 3 "c:\\users\\pchautems\\documents\\robotiquetp\\eclipse_e-puck2\\tools\\gcc-arm-none-eabi-7
 944              		.file 4 "c:\\users\\pchautems\\documents\\robotiquetp\\eclipse_e-puck2\\tools\\gcc-arm-none-eabi-7
 945              		.file 5 "c:\\users\\pchautems\\documents\\robotiquetp\\eclipse_e-puck2\\tools\\gcc-arm-none-eabi-7
 946              		.file 6 "../lib/e-puck2_main-processor/src/msgbus/messagebus.h"
 947              		.file 7 "c:\\users\\pchautems\\documents\\robotiquetp\\eclipse_e-puck2\\tools\\gcc-arm-none-eabi-7