ARM GAS  C:\Users\PCHAUT~1\AppData\Local\Temp\cc7O32QA.s 			page 1


   1              		.cpu cortex-m4
   2              		.eabi_attribute 27, 1
   3              		.eabi_attribute 28, 1
   4              		.eabi_attribute 20, 1
   5              		.eabi_attribute 21, 1
   6              		.eabi_attribute 23, 3
   7              		.eabi_attribute 24, 1
   8              		.eabi_attribute 25, 1
   9              		.eabi_attribute 26, 1
  10              		.eabi_attribute 30, 6
  11              		.eabi_attribute 34, 1
  12              		.eabi_attribute 18, 4
  13              		.file	"microphone.c"
  14              		.text
  15              	.Ltext0:
  16              		.cfi_sections	.debug_frame
  17              		.section	.bss.mic_volume,"aw",%nobits
  18              		.align	2
  19              		.type	mic_volume, %object
  20              		.size	mic_volume, 8
  21              	mic_volume:
  22 0000 00000000 		.space	8
  22      00000000 
  23              		.section	.bss.mic_last,"aw",%nobits
  24              		.align	2
  25              		.type	mic_last, %object
  26              		.size	mic_last, 8
  27              	mic_last:
  28 0000 00000000 		.space	8
  28      00000000 
  29              		.section	.bss.mic_buffer_ready,"aw",%nobits
  30              		.type	mic_buffer_ready, %object
  31              		.size	mic_buffer_ready, 1
  32              	mic_buffer_ready:
  33 0000 00       		.space	1
  34              		.section	.text.mic_get_last,"ax",%progbits
  35              		.align	1
  36              		.p2align 4,,15
  37              		.global	mic_get_last
  38              		.syntax unified
  39              		.thumb
  40              		.thumb_func
  41              		.fpu fpv4-sp-d16
  42              		.type	mic_get_last, %function
  43              	mic_get_last:
  44              	.LFB256:
  45              		.file 1 "../lib/e-puck2_main-processor/src/audio/microphone.c"
  46              		.loc 1 13 0
  47              		.cfi_startproc
  48              		@ args = 0, pretend = 0, frame = 16
  49              		@ frame_needed = 0, uses_anonymous_args = 0
  50 0000 00B5     		push	{lr}
  51              		.cfi_def_cfa_offset 4
  52              		.cfi_offset 14, -4
  53 0002 85B0     		sub	sp, sp, #20
  54              		.cfi_def_cfa_offset 24
  55 0004 0346     		mov	r3, r0
ARM GAS  C:\Users\PCHAUT~1\AppData\Local\Temp\cc7O32QA.s 			page 2


  56 0006 8DF80730 		strb	r3, [sp, #7]
  57              		.loc 1 13 0
  58 000a 0C4B     		ldr	r3, .L5
  59 000c 1B68     		ldr	r3, [r3]
  60 000e 0393     		str	r3, [sp, #12]
  61              		.loc 1 14 0
  62 0010 9DF80730 		ldrb	r3, [sp, #7]	@ zero_extendqisi2
  63 0014 032B     		cmp	r3, #3
  64 0016 05D8     		bhi	.L2
  65              		.loc 1 15 0
  66 0018 9DF80730 		ldrb	r3, [sp, #7]	@ zero_extendqisi2
  67 001c 084A     		ldr	r2, .L5+4
  68 001e 32F91330 		ldrsh	r3, [r2, r3, lsl #1]
  69 0022 00E0     		b	.L3
  70              	.L2:
  71              		.loc 1 17 0
  72 0024 0023     		movs	r3, #0
  73              	.L3:
  74              		.loc 1 19 0
  75 0026 1846     		mov	r0, r3
  76 0028 044B     		ldr	r3, .L5
  77 002a 039A     		ldr	r2, [sp, #12]
  78 002c 1B68     		ldr	r3, [r3]
  79 002e 9A42     		cmp	r2, r3
  80 0030 01D0     		beq	.L4
  81 0032 FFF7FEFF 		bl	__stack_chk_fail
  82              	.L4:
  83 0036 05B0     		add	sp, sp, #20
  84              		.cfi_def_cfa_offset 4
  85              		@ sp needed
  86 0038 5DF804FB 		ldr	pc, [sp], #4
  87              	.L6:
  88              		.align	2
  89              	.L5:
  90 003c 00000000 		.word	__stack_chk_guard
  91 0040 00000000 		.word	mic_last
  92              		.cfi_endproc
  93              	.LFE256:
  94              		.size	mic_get_last, .-mic_get_last
  95              		.section	.text.mic_get_volume,"ax",%progbits
  96              		.align	1
  97              		.p2align 4,,15
  98              		.global	mic_get_volume
  99              		.syntax unified
 100              		.thumb
 101              		.thumb_func
 102              		.fpu fpv4-sp-d16
 103              		.type	mic_get_volume, %function
 104              	mic_get_volume:
 105              	.LFB257:
 106              		.loc 1 22 0
 107              		.cfi_startproc
 108              		@ args = 0, pretend = 0, frame = 16
 109              		@ frame_needed = 0, uses_anonymous_args = 0
 110 0000 00B5     		push	{lr}
 111              		.cfi_def_cfa_offset 4
 112              		.cfi_offset 14, -4
ARM GAS  C:\Users\PCHAUT~1\AppData\Local\Temp\cc7O32QA.s 			page 3


 113 0002 85B0     		sub	sp, sp, #20
 114              		.cfi_def_cfa_offset 24
 115 0004 0346     		mov	r3, r0
 116 0006 8DF80730 		strb	r3, [sp, #7]
 117              		.loc 1 22 0
 118 000a 0C4B     		ldr	r3, .L11
 119 000c 1B68     		ldr	r3, [r3]
 120 000e 0393     		str	r3, [sp, #12]
 121              		.loc 1 23 0
 122 0010 9DF80730 		ldrb	r3, [sp, #7]	@ zero_extendqisi2
 123 0014 032B     		cmp	r3, #3
 124 0016 05D8     		bhi	.L8
 125              		.loc 1 24 0
 126 0018 9DF80730 		ldrb	r3, [sp, #7]	@ zero_extendqisi2
 127 001c 084A     		ldr	r2, .L11+4
 128 001e 32F81330 		ldrh	r3, [r2, r3, lsl #1]
 129 0022 00E0     		b	.L9
 130              	.L8:
 131              		.loc 1 26 0
 132 0024 0023     		movs	r3, #0
 133              	.L9:
 134              		.loc 1 28 0
 135 0026 1846     		mov	r0, r3
 136 0028 044B     		ldr	r3, .L11
 137 002a 039A     		ldr	r2, [sp, #12]
 138 002c 1B68     		ldr	r3, [r3]
 139 002e 9A42     		cmp	r2, r3
 140 0030 01D0     		beq	.L10
 141 0032 FFF7FEFF 		bl	__stack_chk_fail
 142              	.L10:
 143 0036 05B0     		add	sp, sp, #20
 144              		.cfi_def_cfa_offset 4
 145              		@ sp needed
 146 0038 5DF804FB 		ldr	pc, [sp], #4
 147              	.L12:
 148              		.align	2
 149              	.L11:
 150 003c 00000000 		.word	__stack_chk_guard
 151 0040 00000000 		.word	mic_volume
 152              		.cfi_endproc
 153              	.LFE257:
 154              		.size	mic_get_volume, .-mic_get_volume
 155              		.section	.text.handlePCMdata,"ax",%progbits
 156              		.align	1
 157              		.p2align 4,,15
 158              		.syntax unified
 159              		.thumb
 160              		.thumb_func
 161              		.fpu fpv4-sp-d16
 162              		.type	handlePCMdata, %function
 163              	handlePCMdata:
 164              	.LFB258:
 165              		.loc 1 34 0
 166              		.cfi_startproc
 167              		@ args = 0, pretend = 0, frame = 32
 168              		@ frame_needed = 0, uses_anonymous_args = 0
 169 0000 00B5     		push	{lr}
ARM GAS  C:\Users\PCHAUT~1\AppData\Local\Temp\cc7O32QA.s 			page 4


 170              		.cfi_def_cfa_offset 4
 171              		.cfi_offset 14, -4
 172 0002 89B0     		sub	sp, sp, #36
 173              		.cfi_def_cfa_offset 40
 174 0004 0190     		str	r0, [sp, #4]
 175 0006 0B46     		mov	r3, r1
 176 0008 ADF80230 		strh	r3, [sp, #2]	@ movhi
 177              		.loc 1 34 0
 178 000c 8C4B     		ldr	r3, .L26
 179 000e 1B68     		ldr	r3, [r3]
 180 0010 0793     		str	r3, [sp, #28]
 181              		.loc 1 35 0
 182 0012 03AB     		add	r3, sp, #12
 183 0014 0022     		movs	r2, #0
 184 0016 1A60     		str	r2, [r3]
 185 0018 5A60     		str	r2, [r3, #4]
 186 001a 4FF40043 		mov	r3, #32768
 187 001e ADF80C30 		strh	r3, [sp, #12]	@ movhi
 188 0022 05AB     		add	r3, sp, #20
 189 0024 0022     		movs	r2, #0
 190 0026 1A60     		str	r2, [r3]
 191 0028 5A60     		str	r2, [r3, #4]
 192 002a 47F6FF73 		movw	r3, #32767
 193 002e ADF81430 		strh	r3, [sp, #20]	@ movhi
 194              		.loc 1 37 0
 195 0032 844B     		ldr	r3, .L26+4
 196 0034 0122     		movs	r2, #1
 197 0036 1A70     		strb	r2, [r3]
 198              	.LBB2:
 199              		.loc 1 39 0
 200 0038 0023     		movs	r3, #0
 201 003a ADF80A30 		strh	r3, [sp, #10]	@ movhi
 202 003e B0E0     		b	.L14
 203              	.L23:
 204              		.loc 1 41 0
 205 0040 BDF80A30 		ldrh	r3, [sp, #10]
 206 0044 0133     		adds	r3, r3, #1
 207 0046 5B00     		lsls	r3, r3, #1
 208 0048 019A     		ldr	r2, [sp, #4]
 209 004a 1344     		add	r3, r3, r2
 210 004c B3F90020 		ldrsh	r2, [r3]
 211 0050 BDF90E30 		ldrsh	r3, [sp, #14]
 212 0054 9A42     		cmp	r2, r3
 213 0056 09DD     		ble	.L15
 214              		.loc 1 42 0
 215 0058 BDF80A30 		ldrh	r3, [sp, #10]
 216 005c 0133     		adds	r3, r3, #1
 217 005e 5B00     		lsls	r3, r3, #1
 218 0060 019A     		ldr	r2, [sp, #4]
 219 0062 1344     		add	r3, r3, r2
 220 0064 B3F90030 		ldrsh	r3, [r3]
 221 0068 ADF80E30 		strh	r3, [sp, #14]	@ movhi
 222              	.L15:
 223              		.loc 1 44 0
 224 006c BDF80A30 		ldrh	r3, [sp, #10]
 225 0070 0133     		adds	r3, r3, #1
 226 0072 5B00     		lsls	r3, r3, #1
ARM GAS  C:\Users\PCHAUT~1\AppData\Local\Temp\cc7O32QA.s 			page 5


 227 0074 019A     		ldr	r2, [sp, #4]
 228 0076 1344     		add	r3, r3, r2
 229 0078 B3F90020 		ldrsh	r2, [r3]
 230 007c BDF91630 		ldrsh	r3, [sp, #22]
 231 0080 9A42     		cmp	r2, r3
 232 0082 09DA     		bge	.L16
 233              		.loc 1 45 0
 234 0084 BDF80A30 		ldrh	r3, [sp, #10]
 235 0088 0133     		adds	r3, r3, #1
 236 008a 5B00     		lsls	r3, r3, #1
 237 008c 019A     		ldr	r2, [sp, #4]
 238 008e 1344     		add	r3, r3, r2
 239 0090 B3F90030 		ldrsh	r3, [r3]
 240 0094 ADF81630 		strh	r3, [sp, #22]	@ movhi
 241              	.L16:
 242              		.loc 1 48 0
 243 0098 BDF80A30 		ldrh	r3, [sp, #10]
 244 009c 5B00     		lsls	r3, r3, #1
 245 009e 019A     		ldr	r2, [sp, #4]
 246 00a0 1344     		add	r3, r3, r2
 247 00a2 B3F90020 		ldrsh	r2, [r3]
 248 00a6 BDF90C30 		ldrsh	r3, [sp, #12]
 249 00aa 9A42     		cmp	r2, r3
 250 00ac 08DD     		ble	.L17
 251              		.loc 1 49 0
 252 00ae BDF80A30 		ldrh	r3, [sp, #10]
 253 00b2 5B00     		lsls	r3, r3, #1
 254 00b4 019A     		ldr	r2, [sp, #4]
 255 00b6 1344     		add	r3, r3, r2
 256 00b8 B3F90030 		ldrsh	r3, [r3]
 257 00bc ADF80C30 		strh	r3, [sp, #12]	@ movhi
 258              	.L17:
 259              		.loc 1 51 0
 260 00c0 BDF80A30 		ldrh	r3, [sp, #10]
 261 00c4 5B00     		lsls	r3, r3, #1
 262 00c6 019A     		ldr	r2, [sp, #4]
 263 00c8 1344     		add	r3, r3, r2
 264 00ca B3F90020 		ldrsh	r2, [r3]
 265 00ce BDF91430 		ldrsh	r3, [sp, #20]
 266 00d2 9A42     		cmp	r2, r3
 267 00d4 08DA     		bge	.L18
 268              		.loc 1 52 0
 269 00d6 BDF80A30 		ldrh	r3, [sp, #10]
 270 00da 5B00     		lsls	r3, r3, #1
 271 00dc 019A     		ldr	r2, [sp, #4]
 272 00de 1344     		add	r3, r3, r2
 273 00e0 B3F90030 		ldrsh	r3, [r3]
 274 00e4 ADF81430 		strh	r3, [sp, #20]	@ movhi
 275              	.L18:
 276              		.loc 1 55 0
 277 00e8 BDF80A30 		ldrh	r3, [sp, #10]
 278 00ec 0333     		adds	r3, r3, #3
 279 00ee 5B00     		lsls	r3, r3, #1
 280 00f0 019A     		ldr	r2, [sp, #4]
 281 00f2 1344     		add	r3, r3, r2
 282 00f4 B3F90020 		ldrsh	r2, [r3]
 283 00f8 BDF91230 		ldrsh	r3, [sp, #18]
ARM GAS  C:\Users\PCHAUT~1\AppData\Local\Temp\cc7O32QA.s 			page 6


 284 00fc 9A42     		cmp	r2, r3
 285 00fe 09DD     		ble	.L19
 286              		.loc 1 56 0
 287 0100 BDF80A30 		ldrh	r3, [sp, #10]
 288 0104 0333     		adds	r3, r3, #3
 289 0106 5B00     		lsls	r3, r3, #1
 290 0108 019A     		ldr	r2, [sp, #4]
 291 010a 1344     		add	r3, r3, r2
 292 010c B3F90030 		ldrsh	r3, [r3]
 293 0110 ADF81230 		strh	r3, [sp, #18]	@ movhi
 294              	.L19:
 295              		.loc 1 58 0
 296 0114 BDF80A30 		ldrh	r3, [sp, #10]
 297 0118 0333     		adds	r3, r3, #3
 298 011a 5B00     		lsls	r3, r3, #1
 299 011c 019A     		ldr	r2, [sp, #4]
 300 011e 1344     		add	r3, r3, r2
 301 0120 B3F90020 		ldrsh	r2, [r3]
 302 0124 BDF91A30 		ldrsh	r3, [sp, #26]
 303 0128 9A42     		cmp	r2, r3
 304 012a 09DA     		bge	.L20
 305              		.loc 1 59 0
 306 012c BDF80A30 		ldrh	r3, [sp, #10]
 307 0130 0333     		adds	r3, r3, #3
 308 0132 5B00     		lsls	r3, r3, #1
 309 0134 019A     		ldr	r2, [sp, #4]
 310 0136 1344     		add	r3, r3, r2
 311 0138 B3F90030 		ldrsh	r3, [r3]
 312 013c ADF81A30 		strh	r3, [sp, #26]	@ movhi
 313              	.L20:
 314              		.loc 1 62 0
 315 0140 BDF80A30 		ldrh	r3, [sp, #10]
 316 0144 0233     		adds	r3, r3, #2
 317 0146 5B00     		lsls	r3, r3, #1
 318 0148 019A     		ldr	r2, [sp, #4]
 319 014a 1344     		add	r3, r3, r2
 320 014c B3F90020 		ldrsh	r2, [r3]
 321 0150 BDF91030 		ldrsh	r3, [sp, #16]
 322 0154 9A42     		cmp	r2, r3
 323 0156 09DD     		ble	.L21
 324              		.loc 1 63 0
 325 0158 BDF80A30 		ldrh	r3, [sp, #10]
 326 015c 0233     		adds	r3, r3, #2
 327 015e 5B00     		lsls	r3, r3, #1
 328 0160 019A     		ldr	r2, [sp, #4]
 329 0162 1344     		add	r3, r3, r2
 330 0164 B3F90030 		ldrsh	r3, [r3]
 331 0168 ADF81030 		strh	r3, [sp, #16]	@ movhi
 332              	.L21:
 333              		.loc 1 65 0
 334 016c BDF80A30 		ldrh	r3, [sp, #10]
 335 0170 0233     		adds	r3, r3, #2
 336 0172 5B00     		lsls	r3, r3, #1
 337 0174 019A     		ldr	r2, [sp, #4]
 338 0176 1344     		add	r3, r3, r2
 339 0178 B3F90020 		ldrsh	r2, [r3]
 340 017c BDF91830 		ldrsh	r3, [sp, #24]
ARM GAS  C:\Users\PCHAUT~1\AppData\Local\Temp\cc7O32QA.s 			page 7


 341 0180 9A42     		cmp	r2, r3
 342 0182 09DA     		bge	.L22
 343              		.loc 1 66 0
 344 0184 BDF80A30 		ldrh	r3, [sp, #10]
 345 0188 0233     		adds	r3, r3, #2
 346 018a 5B00     		lsls	r3, r3, #1
 347 018c 019A     		ldr	r2, [sp, #4]
 348 018e 1344     		add	r3, r3, r2
 349 0190 B3F90030 		ldrsh	r3, [r3]
 350 0194 ADF81830 		strh	r3, [sp, #24]	@ movhi
 351              	.L22:
 352              		.loc 1 39 0 discriminator 2
 353 0198 BDF80A30 		ldrh	r3, [sp, #10]	@ movhi
 354 019c 0433     		adds	r3, r3, #4
 355 019e ADF80A30 		strh	r3, [sp, #10]	@ movhi
 356              	.L14:
 357              		.loc 1 39 0 is_stmt 0 discriminator 1
 358 01a2 BDF80A20 		ldrh	r2, [sp, #10]
 359 01a6 BDF80230 		ldrh	r3, [sp, #2]
 360 01aa 9A42     		cmp	r2, r3
 361 01ac FFF448AF 		bcc	.L23
 362              	.LBE2:
 363              		.loc 1 71 0 is_stmt 1
 364 01b0 BDF90C30 		ldrsh	r3, [sp, #12]
 365 01b4 9AB2     		uxth	r2, r3
 366 01b6 BDF91430 		ldrsh	r3, [sp, #20]
 367 01ba 9BB2     		uxth	r3, r3
 368 01bc D31A     		subs	r3, r2, r3
 369 01be 9AB2     		uxth	r2, r3
 370 01c0 214B     		ldr	r3, .L26+8
 371 01c2 1A80     		strh	r2, [r3]	@ movhi
 372              		.loc 1 72 0
 373 01c4 BDF90E30 		ldrsh	r3, [sp, #14]
 374 01c8 9AB2     		uxth	r2, r3
 375 01ca BDF91630 		ldrsh	r3, [sp, #22]
 376 01ce 9BB2     		uxth	r3, r3
 377 01d0 D31A     		subs	r3, r2, r3
 378 01d2 9AB2     		uxth	r2, r3
 379 01d4 1C4B     		ldr	r3, .L26+8
 380 01d6 5A80     		strh	r2, [r3, #2]	@ movhi
 381              		.loc 1 73 0
 382 01d8 BDF91030 		ldrsh	r3, [sp, #16]
 383 01dc 9AB2     		uxth	r2, r3
 384 01de BDF91830 		ldrsh	r3, [sp, #24]
 385 01e2 9BB2     		uxth	r3, r3
 386 01e4 D31A     		subs	r3, r2, r3
 387 01e6 9AB2     		uxth	r2, r3
 388 01e8 174B     		ldr	r3, .L26+8
 389 01ea 9A80     		strh	r2, [r3, #4]	@ movhi
 390              		.loc 1 74 0
 391 01ec BDF91230 		ldrsh	r3, [sp, #18]
 392 01f0 9AB2     		uxth	r2, r3
 393 01f2 BDF91A30 		ldrsh	r3, [sp, #26]
 394 01f6 9BB2     		uxth	r3, r3
 395 01f8 D31A     		subs	r3, r2, r3
 396 01fa 9AB2     		uxth	r2, r3
 397 01fc 124B     		ldr	r3, .L26+8
ARM GAS  C:\Users\PCHAUT~1\AppData\Local\Temp\cc7O32QA.s 			page 8


 398 01fe DA80     		strh	r2, [r3, #6]	@ movhi
 399              		.loc 1 75 0
 400 0200 019B     		ldr	r3, [sp, #4]
 401 0202 B3F9F824 		ldrsh	r2, [r3, #1272]
 402 0206 114B     		ldr	r3, .L26+12
 403 0208 1A80     		strh	r2, [r3]	@ movhi
 404              		.loc 1 76 0
 405 020a 019B     		ldr	r3, [sp, #4]
 406 020c B3F9FA24 		ldrsh	r2, [r3, #1274]
 407 0210 0E4B     		ldr	r3, .L26+12
 408 0212 5A80     		strh	r2, [r3, #2]	@ movhi
 409              		.loc 1 77 0
 410 0214 019B     		ldr	r3, [sp, #4]
 411 0216 B3F9FC24 		ldrsh	r2, [r3, #1276]
 412 021a 0C4B     		ldr	r3, .L26+12
 413 021c 9A80     		strh	r2, [r3, #4]	@ movhi
 414              		.loc 1 78 0
 415 021e 019B     		ldr	r3, [sp, #4]
 416 0220 B3F9FE24 		ldrsh	r2, [r3, #1278]
 417 0224 094B     		ldr	r3, .L26+12
 418 0226 DA80     		strh	r2, [r3, #6]	@ movhi
 419              		.loc 1 80 0
 420 0228 00BF     		nop
 421              		.loc 1 81 0
 422 022a 054B     		ldr	r3, .L26
 423 022c 079A     		ldr	r2, [sp, #28]
 424 022e 1B68     		ldr	r3, [r3]
 425 0230 9A42     		cmp	r2, r3
 426 0232 01D0     		beq	.L25
 427 0234 FFF7FEFF 		bl	__stack_chk_fail
 428              	.L25:
 429 0238 09B0     		add	sp, sp, #36
 430              		.cfi_def_cfa_offset 4
 431              		@ sp needed
 432 023a 5DF804FB 		ldr	pc, [sp], #4
 433              	.L27:
 434 023e 00BF     		.align	2
 435              	.L26:
 436 0240 00000000 		.word	__stack_chk_guard
 437 0244 00000000 		.word	mic_buffer_ready
 438 0248 00000000 		.word	mic_volume
 439 024c 00000000 		.word	mic_last
 440              		.cfi_endproc
 441              	.LFE258:
 442              		.size	handlePCMdata, .-handlePCMdata
 443              		.section	.text.mic_start,"ax",%progbits
 444              		.align	1
 445              		.p2align 4,,15
 446              		.global	mic_start
 447              		.syntax unified
 448              		.thumb
 449              		.thumb_func
 450              		.fpu fpv4-sp-d16
 451              		.type	mic_start, %function
 452              	mic_start:
 453              	.LFB259:
 454              		.loc 1 83 0
ARM GAS  C:\Users\PCHAUT~1\AppData\Local\Temp\cc7O32QA.s 			page 9


 455              		.cfi_startproc
 456              		@ args = 0, pretend = 0, frame = 16
 457              		@ frame_needed = 0, uses_anonymous_args = 0
 458 0000 00B5     		push	{lr}
 459              		.cfi_def_cfa_offset 4
 460              		.cfi_offset 14, -4
 461 0002 85B0     		sub	sp, sp, #20
 462              		.cfi_def_cfa_offset 24
 463 0004 0190     		str	r0, [sp, #4]
 464              		.loc 1 83 0
 465 0006 614B     		ldr	r3, .L35
 466 0008 1B68     		ldr	r3, [r3]
 467 000a 0393     		str	r3, [sp, #12]
 468              		.loc 1 85 0
 469 000c 604B     		ldr	r3, .L35+4
 470 000e 1B78     		ldrb	r3, [r3]	@ zero_extendqisi2
 471 0010 012B     		cmp	r3, #1
 472 0012 40F0B080 		bne	.L34
 473              		.loc 1 95 0
 474 0016 5F4B     		ldr	r3, .L35+8
 475 0018 5B6C     		ldr	r3, [r3, #68]
 476 001a 5E4A     		ldr	r2, .L35+8
 477 001c 43F48033 		orr	r3, r3, #65536
 478 0020 5364     		str	r3, [r2, #68]
 479              		.loc 1 96 0
 480 0022 5C4B     		ldr	r3, .L35+8
 481 0024 5B6A     		ldr	r3, [r3, #36]
 482 0026 5B4A     		ldr	r2, .L35+8
 483 0028 43F48033 		orr	r3, r3, #65536
 484 002c 5362     		str	r3, [r2, #36]
 485 002e 594B     		ldr	r3, .L35+8
 486 0030 0022     		movs	r2, #0
 487 0032 5A62     		str	r2, [r3, #36]
 488              		.loc 1 98 0
 489 0034 584B     		ldr	r3, .L35+12
 490 0036 0022     		movs	r2, #0
 491 0038 1A61     		str	r2, [r3, #16]
 492              		.loc 1 99 0
 493 003a 574B     		ldr	r3, .L35+12
 494 003c 0022     		movs	r2, #0
 495 003e DA60     		str	r2, [r3, #12]
 496              		.loc 1 102 0
 497 0040 554B     		ldr	r3, .L35+12
 498 0042 1B6A     		ldr	r3, [r3, #32]
 499 0044 544A     		ldr	r2, .L35+12
 500 0046 23F00103 		bic	r3, r3, #1
 501 004a 1362     		str	r3, [r2, #32]
 502              		.loc 1 103 0
 503 004c 524B     		ldr	r3, .L35+12
 504 004e 9B69     		ldr	r3, [r3, #24]
 505 0050 514A     		ldr	r2, .L35+12
 506 0052 23F00303 		bic	r3, r3, #3
 507 0056 9361     		str	r3, [r2, #24]
 508              		.loc 1 104 0
 509 0058 4F4B     		ldr	r3, .L35+12
 510 005a 9B69     		ldr	r3, [r3, #24]
 511 005c 4E4A     		ldr	r2, .L35+12
ARM GAS  C:\Users\PCHAUT~1\AppData\Local\Temp\cc7O32QA.s 			page 10


 512 005e 43F00103 		orr	r3, r3, #1
 513 0062 9361     		str	r3, [r2, #24]
 514              		.loc 1 105 0
 515 0064 4C4B     		ldr	r3, .L35+12
 516 0066 9B69     		ldr	r3, [r3, #24]
 517 0068 4B4A     		ldr	r2, .L35+12
 518 006a 23F0F003 		bic	r3, r3, #240
 519 006e 9361     		str	r3, [r2, #24]
 520              		.loc 1 106 0
 521 0070 494B     		ldr	r3, .L35+12
 522 0072 1B6A     		ldr	r3, [r3, #32]
 523 0074 484A     		ldr	r2, .L35+12
 524 0076 23F00A03 		bic	r3, r3, #10
 525 007a 1362     		str	r3, [r2, #32]
 526              		.loc 1 107 0
 527 007c 464B     		ldr	r3, .L35+12
 528 007e 9B69     		ldr	r3, [r3, #24]
 529 0080 454A     		ldr	r2, .L35+12
 530 0082 23F00C03 		bic	r3, r3, #12
 531 0086 9361     		str	r3, [r2, #24]
 532              		.loc 1 110 0
 533 0088 434B     		ldr	r3, .L35+12
 534 008a 9B68     		ldr	r3, [r3, #8]
 535 008c 424A     		ldr	r2, .L35+12
 536 008e 23F07003 		bic	r3, r3, #112
 537 0092 9360     		str	r3, [r2, #8]
 538              		.loc 1 111 0
 539 0094 404B     		ldr	r3, .L35+12
 540 0096 9B68     		ldr	r3, [r3, #8]
 541 0098 3F4A     		ldr	r2, .L35+12
 542 009a 43F05003 		orr	r3, r3, #80
 543 009e 9360     		str	r3, [r2, #8]
 544              		.loc 1 112 0
 545 00a0 3D4B     		ldr	r3, .L35+12
 546 00a2 9B68     		ldr	r3, [r3, #8]
 547 00a4 3C4A     		ldr	r2, .L35+12
 548 00a6 23F48033 		bic	r3, r3, #65536
 549 00aa 23F00703 		bic	r3, r3, #7
 550 00ae 9360     		str	r3, [r2, #8]
 551              		.loc 1 113 0
 552 00b0 394B     		ldr	r3, .L35+12
 553 00b2 9B68     		ldr	r3, [r3, #8]
 554 00b4 384A     		ldr	r2, .L35+12
 555 00b6 43F00703 		orr	r3, r3, #7
 556 00ba 9360     		str	r3, [r2, #8]
 557              		.loc 1 116 0
 558 00bc 364B     		ldr	r3, .L35+12
 559 00be 1B68     		ldr	r3, [r3]
 560 00c0 354A     		ldr	r2, .L35+12
 561 00c2 23F44073 		bic	r3, r3, #768
 562 00c6 1360     		str	r3, [r2]
 563              		.loc 1 117 0
 564 00c8 334B     		ldr	r3, .L35+12
 565 00ca 0122     		movs	r2, #1
 566 00cc DA62     		str	r2, [r3, #44]
 567              		.loc 1 118 0
 568 00ce 324B     		ldr	r3, .L35+12
ARM GAS  C:\Users\PCHAUT~1\AppData\Local\Temp\cc7O32QA.s 			page 11


 569 00d0 0022     		movs	r2, #0
 570 00d2 9A62     		str	r2, [r3, #40]
 571              		.loc 1 119 0
 572 00d4 304B     		ldr	r3, .L35+12
 573 00d6 0122     		movs	r2, #1
 574 00d8 5A61     		str	r2, [r3, #20]
 575              		.loc 1 120 0
 576 00da 2F4B     		ldr	r3, .L35+12
 577 00dc 1B6A     		ldr	r3, [r3, #32]
 578 00de 2E4A     		ldr	r2, .L35+12
 579 00e0 23F01003 		bic	r3, r3, #16
 580 00e4 1362     		str	r3, [r2, #32]
 581              		.loc 1 121 0
 582 00e6 2C4B     		ldr	r3, .L35+12
 583 00e8 9B69     		ldr	r3, [r3, #24]
 584 00ea 2B4A     		ldr	r2, .L35+12
 585 00ec 23F44073 		bic	r3, r3, #768
 586 00f0 9361     		str	r3, [r2, #24]
 587              		.loc 1 122 0
 588 00f2 294B     		ldr	r3, .L35+12
 589 00f4 9B69     		ldr	r3, [r3, #24]
 590 00f6 284A     		ldr	r2, .L35+12
 591 00f8 23F08073 		bic	r3, r3, #16777216
 592 00fc 23F4E043 		bic	r3, r3, #28672
 593 0100 9361     		str	r3, [r2, #24]
 594              		.loc 1 123 0
 595 0102 254B     		ldr	r3, .L35+12
 596 0104 9B69     		ldr	r3, [r3, #24]
 597 0106 244A     		ldr	r2, .L35+12
 598 0108 43F4C043 		orr	r3, r3, #24576
 599 010c 9361     		str	r3, [r2, #24]
 600              		.loc 1 124 0
 601 010e 224B     		ldr	r3, .L35+12
 602 0110 1B6A     		ldr	r3, [r3, #32]
 603 0112 214A     		ldr	r2, .L35+12
 604 0114 23F0A003 		bic	r3, r3, #160
 605 0118 1362     		str	r3, [r2, #32]
 606              		.loc 1 125 0
 607 011a 1F4B     		ldr	r3, .L35+12
 608 011c 0122     		movs	r2, #1
 609 011e 9A63     		str	r2, [r3, #56]
 610              		.loc 1 126 0
 611 0120 1D4B     		ldr	r3, .L35+12
 612 0122 9B69     		ldr	r3, [r3, #24]
 613 0124 1C4A     		ldr	r2, .L35+12
 614 0126 43F40063 		orr	r3, r3, #2048
 615 012a 9361     		str	r3, [r2, #24]
 616              		.loc 1 127 0
 617 012c 1A4B     		ldr	r3, .L35+12
 618 012e 1B6A     		ldr	r3, [r3, #32]
 619 0130 194A     		ldr	r2, .L35+12
 620 0132 23F48063 		bic	r3, r3, #1024
 621 0136 1362     		str	r3, [r2, #32]
 622              		.loc 1 130 0
 623 0138 174B     		ldr	r3, .L35+12
 624 013a 1B6A     		ldr	r3, [r3, #32]
 625 013c 164A     		ldr	r2, .L35+12
ARM GAS  C:\Users\PCHAUT~1\AppData\Local\Temp\cc7O32QA.s 			page 12


 626 013e 43F01103 		orr	r3, r3, #17
 627 0142 1362     		str	r3, [r2, #32]
 628              		.loc 1 131 0
 629 0144 144B     		ldr	r3, .L35+12
 630 0146 1B68     		ldr	r3, [r3]
 631 0148 134A     		ldr	r2, .L35+12
 632 014a 43F00103 		orr	r3, r3, #1
 633 014e 1360     		str	r3, [r2]
 634              		.loc 1 137 0
 635 0150 02AB     		add	r3, sp, #8
 636 0152 0422     		movs	r2, #4
 637 0154 0021     		movs	r1, #0
 638 0156 1846     		mov	r0, r3
 639 0158 FFF7FEFF 		bl	memset
 640              		.loc 1 138 0
 641 015c 019B     		ldr	r3, [sp, #4]
 642 015e 002B     		cmp	r3, #0
 643 0160 02D0     		beq	.L31
 644              		.loc 1 139 0
 645 0162 019B     		ldr	r3, [sp, #4]
 646 0164 0293     		str	r3, [sp, #8]
 647 0166 01E0     		b	.L32
 648              	.L31:
 649              		.loc 1 141 0
 650 0168 0C4B     		ldr	r3, .L35+16
 651 016a 0293     		str	r3, [sp, #8]
 652              	.L32:
 653              		.loc 1 142 0
 654 016c 02AB     		add	r3, sp, #8
 655 016e 1846     		mov	r0, r3
 656 0170 FFF7FEFF 		bl	mp45dt02Init
 657 0174 00E0     		b	.L28
 658              	.L34:
 659              		.loc 1 86 0
 660 0176 00BF     		nop
 661              	.L28:
 662              		.loc 1 145 0
 663 0178 044B     		ldr	r3, .L35
 664 017a 039A     		ldr	r2, [sp, #12]
 665 017c 1B68     		ldr	r3, [r3]
 666 017e 9A42     		cmp	r2, r3
 667 0180 01D0     		beq	.L33
 668 0182 FFF7FEFF 		bl	__stack_chk_fail
 669              	.L33:
 670 0186 05B0     		add	sp, sp, #20
 671              		.cfi_def_cfa_offset 4
 672              		@ sp needed
 673 0188 5DF804FB 		ldr	pc, [sp], #4
 674              	.L36:
 675              		.align	2
 676              	.L35:
 677 018c 00000000 		.word	__stack_chk_guard
 678 0190 00000000 		.word	I2SD2
 679 0194 00380240 		.word	1073887232
 680 0198 00400140 		.word	1073823744
 681 019c 00000000 		.word	handlePCMdata
 682              		.cfi_endproc
ARM GAS  C:\Users\PCHAUT~1\AppData\Local\Temp\cc7O32QA.s 			page 13


 683              	.LFE259:
 684              		.size	mic_start, .-mic_start
 685              		.section	.text.mic_get_buffer_ptr,"ax",%progbits
 686              		.align	1
 687              		.p2align 4,,15
 688              		.global	mic_get_buffer_ptr
 689              		.syntax unified
 690              		.thumb
 691              		.thumb_func
 692              		.fpu fpv4-sp-d16
 693              		.type	mic_get_buffer_ptr, %function
 694              	mic_get_buffer_ptr:
 695              	.LFB260:
 696              		.loc 1 147 0
 697              		.cfi_startproc
 698              		@ args = 0, pretend = 0, frame = 8
 699              		@ frame_needed = 0, uses_anonymous_args = 0
 700 0000 00B5     		push	{lr}
 701              		.cfi_def_cfa_offset 4
 702              		.cfi_offset 14, -4
 703 0002 83B0     		sub	sp, sp, #12
 704              		.cfi_def_cfa_offset 16
 705              		.loc 1 147 0
 706 0004 084B     		ldr	r3, .L40
 707 0006 1B68     		ldr	r3, [r3]
 708 0008 0193     		str	r3, [sp, #4]
 709              		.loc 1 148 0
 710 000a FFF7FEFF 		bl	mp45dt02BufferPtr
 711 000e 0346     		mov	r3, r0
 712              		.loc 1 149 0
 713 0010 1846     		mov	r0, r3
 714 0012 054B     		ldr	r3, .L40
 715 0014 019A     		ldr	r2, [sp, #4]
 716 0016 1B68     		ldr	r3, [r3]
 717 0018 9A42     		cmp	r2, r3
 718 001a 01D0     		beq	.L39
 719 001c FFF7FEFF 		bl	__stack_chk_fail
 720              	.L39:
 721 0020 03B0     		add	sp, sp, #12
 722              		.cfi_def_cfa_offset 4
 723              		@ sp needed
 724 0022 5DF804FB 		ldr	pc, [sp], #4
 725              	.L41:
 726 0026 00BF     		.align	2
 727              	.L40:
 728 0028 00000000 		.word	__stack_chk_guard
 729              		.cfi_endproc
 730              	.LFE260:
 731              		.size	mic_get_buffer_ptr, .-mic_get_buffer_ptr
 732              		.section	.text.mic_buffer_is_ready,"ax",%progbits
 733              		.align	1
 734              		.p2align 4,,15
 735              		.global	mic_buffer_is_ready
 736              		.syntax unified
 737              		.thumb
 738              		.thumb_func
 739              		.fpu fpv4-sp-d16
ARM GAS  C:\Users\PCHAUT~1\AppData\Local\Temp\cc7O32QA.s 			page 14


 740              		.type	mic_buffer_is_ready, %function
 741              	mic_buffer_is_ready:
 742              	.LFB261:
 743              		.loc 1 151 0
 744              		.cfi_startproc
 745              		@ args = 0, pretend = 0, frame = 8
 746              		@ frame_needed = 0, uses_anonymous_args = 0
 747 0000 00B5     		push	{lr}
 748              		.cfi_def_cfa_offset 4
 749              		.cfi_offset 14, -4
 750 0002 83B0     		sub	sp, sp, #12
 751              		.cfi_def_cfa_offset 16
 752              		.loc 1 151 0
 753 0004 074B     		ldr	r3, .L45
 754 0006 1B68     		ldr	r3, [r3]
 755 0008 0193     		str	r3, [sp, #4]
 756              		.loc 1 152 0
 757 000a 074B     		ldr	r3, .L45+4
 758 000c 1B78     		ldrb	r3, [r3]	@ zero_extendqisi2
 759              		.loc 1 153 0
 760 000e 1846     		mov	r0, r3
 761 0010 044B     		ldr	r3, .L45
 762 0012 019A     		ldr	r2, [sp, #4]
 763 0014 1B68     		ldr	r3, [r3]
 764 0016 9A42     		cmp	r2, r3
 765 0018 01D0     		beq	.L44
 766 001a FFF7FEFF 		bl	__stack_chk_fail
 767              	.L44:
 768 001e 03B0     		add	sp, sp, #12
 769              		.cfi_def_cfa_offset 4
 770              		@ sp needed
 771 0020 5DF804FB 		ldr	pc, [sp], #4
 772              	.L46:
 773              		.align	2
 774              	.L45:
 775 0024 00000000 		.word	__stack_chk_guard
 776 0028 00000000 		.word	mic_buffer_ready
 777              		.cfi_endproc
 778              	.LFE261:
 779              		.size	mic_buffer_is_ready, .-mic_buffer_is_ready
 780              		.section	.text.mic_buffer_ready_reset,"ax",%progbits
 781              		.align	1
 782              		.p2align 4,,15
 783              		.global	mic_buffer_ready_reset
 784              		.syntax unified
 785              		.thumb
 786              		.thumb_func
 787              		.fpu fpv4-sp-d16
 788              		.type	mic_buffer_ready_reset, %function
 789              	mic_buffer_ready_reset:
 790              	.LFB262:
 791              		.loc 1 155 0
 792              		.cfi_startproc
 793              		@ args = 0, pretend = 0, frame = 8
 794              		@ frame_needed = 0, uses_anonymous_args = 0
 795 0000 00B5     		push	{lr}
 796              		.cfi_def_cfa_offset 4
ARM GAS  C:\Users\PCHAUT~1\AppData\Local\Temp\cc7O32QA.s 			page 15


 797              		.cfi_offset 14, -4
 798 0002 83B0     		sub	sp, sp, #12
 799              		.cfi_def_cfa_offset 16
 800              		.loc 1 155 0
 801 0004 084B     		ldr	r3, .L49
 802 0006 1B68     		ldr	r3, [r3]
 803 0008 0193     		str	r3, [sp, #4]
 804              		.loc 1 156 0
 805 000a 084B     		ldr	r3, .L49+4
 806 000c 0022     		movs	r2, #0
 807 000e 1A70     		strb	r2, [r3]
 808              		.loc 1 157 0
 809 0010 00BF     		nop
 810 0012 054B     		ldr	r3, .L49
 811 0014 019A     		ldr	r2, [sp, #4]
 812 0016 1B68     		ldr	r3, [r3]
 813 0018 9A42     		cmp	r2, r3
 814 001a 01D0     		beq	.L48
 815 001c FFF7FEFF 		bl	__stack_chk_fail
 816              	.L48:
 817 0020 03B0     		add	sp, sp, #12
 818              		.cfi_def_cfa_offset 4
 819              		@ sp needed
 820 0022 5DF804FB 		ldr	pc, [sp], #4
 821              	.L50:
 822 0026 00BF     		.align	2
 823              	.L49:
 824 0028 00000000 		.word	__stack_chk_guard
 825 002c 00000000 		.word	mic_buffer_ready
 826              		.cfi_endproc
 827              	.LFE262:
 828              		.size	mic_buffer_ready_reset, .-mic_buffer_ready_reset
 829              		.section	.text.mic_buffer_get_size,"ax",%progbits
 830              		.align	1
 831              		.p2align 4,,15
 832              		.global	mic_buffer_get_size
 833              		.syntax unified
 834              		.thumb
 835              		.thumb_func
 836              		.fpu fpv4-sp-d16
 837              		.type	mic_buffer_get_size, %function
 838              	mic_buffer_get_size:
 839              	.LFB263:
 840              		.loc 1 159 0
 841              		.cfi_startproc
 842              		@ args = 0, pretend = 0, frame = 8
 843              		@ frame_needed = 0, uses_anonymous_args = 0
 844 0000 00B5     		push	{lr}
 845              		.cfi_def_cfa_offset 4
 846              		.cfi_offset 14, -4
 847 0002 83B0     		sub	sp, sp, #12
 848              		.cfi_def_cfa_offset 16
 849              		.loc 1 159 0
 850 0004 074B     		ldr	r3, .L54
 851 0006 1B68     		ldr	r3, [r3]
 852 0008 0193     		str	r3, [sp, #4]
 853              		.loc 1 160 0
ARM GAS  C:\Users\PCHAUT~1\AppData\Local\Temp\cc7O32QA.s 			page 16


 854 000a 4FF4A063 		mov	r3, #1280
 855              		.loc 1 161 0
 856 000e 1846     		mov	r0, r3
 857 0010 044B     		ldr	r3, .L54
 858 0012 019A     		ldr	r2, [sp, #4]
 859 0014 1B68     		ldr	r3, [r3]
 860 0016 9A42     		cmp	r2, r3
 861 0018 01D0     		beq	.L53
 862 001a FFF7FEFF 		bl	__stack_chk_fail
 863              	.L53:
 864 001e 03B0     		add	sp, sp, #12
 865              		.cfi_def_cfa_offset 4
 866              		@ sp needed
 867 0020 5DF804FB 		ldr	pc, [sp], #4
 868              	.L55:
 869              		.align	2
 870              	.L54:
 871 0024 00000000 		.word	__stack_chk_guard
 872              		.cfi_endproc
 873              	.LFE263:
 874              		.size	mic_buffer_get_size, .-mic_buffer_get_size
 875              		.text
 876              	.Letext0:
 877              		.file 2 "c:\\users\\pchautems\\documents\\robotiquetp\\eclipse_e-puck2\\tools\\gcc-arm-none-eabi-7
 878              		.file 3 "c:\\users\\pchautems\\documents\\robotiquetp\\eclipse_e-puck2\\tools\\gcc-arm-none-eabi-7
 879              		.file 4 "c:\\users\\pchautems\\documents\\robotiquetp\\eclipse_e-puck2\\tools\\gcc-arm-none-eabi-7
 880              		.file 5 "c:\\users\\pchautems\\documents\\robotiquetp\\eclipse_e-puck2\\tools\\gcc-arm-none-eabi-7
 881              		.file 6 "c:\\users\\pchautems\\documents\\robotiquetp\\eclipse_e-puck2\\tools\\gcc-arm-none-eabi-7
 882              		.file 7 "c:\\users\\pchautems\\documents\\robotiquetp\\eclipse_e-puck2\\tools\\gcc-arm-none-eabi-7
 883              		.file 8 "../lib/e-puck2_main-processor/ChibiOS//os/rt/ports/ARMCMx/compilers/GCC/chtypes.h"
 884              		.file 9 "../lib/e-puck2_main-processor/ChibiOS//os/rt/include/chsystypes.h"
 885              		.file 10 "../lib/e-puck2_main-processor/ChibiOS//os/rt/include/chschd.h"
 886              		.file 11 "../lib/e-puck2_main-processor/ChibiOS//os/ext/CMSIS/include/core_cm4.h"
 887              		.file 12 "../lib/e-puck2_main-processor/ChibiOS//os/ext/CMSIS/ST/system_stm32f4xx.h"
 888              		.file 13 "../lib/e-puck2_main-processor/ChibiOS//os/ext/CMSIS/ST/stm32f407xx.h"
 889              		.file 14 "../lib/e-puck2_main-processor/ChibiOS//os/rt/ports/ARMCMx/chcore.h"
 890              		.file 15 "../lib/e-puck2_main-processor/ChibiOS//os/rt/ports/ARMCMx/chcore_v7m.h"
 891              		.file 16 "../lib/e-puck2_main-processor/ChibiOS//os/rt/include/chdebug.h"
 892              		.file 17 "../lib/e-puck2_main-processor/ChibiOS//os/rt/include/chtm.h"
 893              		.file 18 "../lib/e-puck2_main-processor/ChibiOS//os/rt/include/chstats.h"
 894              		.file 19 "../lib/e-puck2_main-processor/ChibiOS//os/rt/include/chsem.h"
 895              		.file 20 "../lib/e-puck2_main-processor/ChibiOS//os/rt/include/chmtx.h"
 896              		.file 21 "../lib/e-puck2_main-processor/ChibiOS//os/rt/include/chregistry.h"
 897              		.file 22 "../lib/e-puck2_main-processor/ChibiOS//os/rt/include/chevents.h"
 898              		.file 23 "../lib/e-puck2_main-processor/ChibiOS//os/rt/include/chqueues.h"
 899              		.file 24 "../lib/e-puck2_main-processor/ChibiOS//os/hal/ports/STM32/STM32F4xx/stm32_dma.h"
 900              		.file 25 "../lib/e-puck2_main-processor/ChibiOS//os/hal/include/hal_ioblock.h"
 901              		.file 26 "../lib/e-puck2_main-processor/ChibiOS//os/hal/ports/STM32/LLD/GPIOv2/pal_lld.h"
 902              		.file 27 "../lib/e-puck2_main-processor/ChibiOS//os/hal/include/adc.h"
 903              		.file 28 "../lib/e-puck2_main-processor/ChibiOS//os/hal/ports/STM32/STM32F4xx/adc_lld.h"
 904              		.file 29 "../lib/e-puck2_main-processor/ChibiOS//os/hal/include/can.h"
 905              		.file 30 "../lib/e-puck2_main-processor/ChibiOS//os/hal/ports/STM32/LLD/can_lld.h"
 906              		.file 31 "../lib/e-puck2_main-processor/ChibiOS//os/hal/include/dac.h"
 907              		.file 32 "../lib/e-puck2_main-processor/ChibiOS//os/hal/ports/STM32/LLD/DACv1/dac_lld.h"
 908              		.file 33 "../lib/e-puck2_main-processor/ChibiOS//os/hal/include/ext.h"
 909              		.file 34 "../lib/e-puck2_main-processor/ChibiOS//os/hal/ports/STM32/LLD/ext_lld.h"
 910              		.file 35 "../lib/e-puck2_main-processor/ChibiOS//os/hal/include/gpt.h"
ARM GAS  C:\Users\PCHAUT~1\AppData\Local\Temp\cc7O32QA.s 			page 17


 911              		.file 36 "../lib/e-puck2_main-processor/ChibiOS//os/hal/ports/STM32/LLD/TIMv1/gpt_lld.h"
 912              		.file 37 "../lib/e-puck2_main-processor/ChibiOS//os/hal/ports/STM32/LLD/TIMv1/stm32_tim.h"
 913              		.file 38 "../lib/e-puck2_main-processor/ChibiOS//os/hal/include/i2c.h"
 914              		.file 39 "../lib/e-puck2_main-processor/ChibiOS//os/hal/ports/STM32/LLD/I2Cv1/i2c_lld.h"
 915              		.file 40 "../lib/e-puck2_main-processor/ChibiOS//os/hal/include/i2s.h"
 916              		.file 41 "../lib/e-puck2_main-processor/ChibiOS//os/hal/ports/STM32/LLD/SPIv1/i2s_lld.h"
 917              		.file 42 "../lib/e-puck2_main-processor/ChibiOS//os/hal/include/pwm.h"
 918              		.file 43 "../lib/e-puck2_main-processor/ChibiOS//os/hal/ports/STM32/LLD/TIMv1/pwm_lld.h"
 919              		.file 44 "../lib/e-puck2_main-processor/ChibiOS//os/hal/include/serial.h"
 920              		.file 45 "../lib/e-puck2_main-processor/ChibiOS//os/hal/ports/STM32/LLD/USARTv1/serial_lld.h"
 921              		.file 46 "../lib/e-puck2_main-processor/ChibiOS//os/hal/include/sdc.h"
 922              		.file 47 "../lib/e-puck2_main-processor/ChibiOS//os/hal/ports/STM32/LLD/sdc_lld.h"
 923              		.file 48 "../lib/e-puck2_main-processor/ChibiOS//os/hal/include/spi.h"
 924              		.file 49 "../lib/e-puck2_main-processor/ChibiOS//os/hal/ports/STM32/LLD/SPIv1/spi_lld.h"
 925              		.file 50 "../lib/e-puck2_main-processor/ChibiOS//os/hal/include/usb.h"
 926              		.file 51 "../lib/e-puck2_main-processor/ChibiOS//os/hal/ports/STM32/LLD/OTGv1/usb_lld.h"
 927              		.file 52 "../lib/e-puck2_main-processor/ChibiOS//os/hal/ports/STM32/LLD/OTGv1/stm32_otg.h"
 928              		.file 53 "../lib/e-puck2_main-processor/src/audio/mp45dt02_processing.h"