ARM GAS  C:\Users\PCHAUT~1\AppData\Local\Temp\ccypOybD.s 			page 1


   1              		.cpu cortex-m4
   2              		.eabi_attribute 27, 1
   3              		.eabi_attribute 28, 1
   4              		.eabi_attribute 20, 1
   5              		.eabi_attribute 21, 1
   6              		.eabi_attribute 23, 3
   7              		.eabi_attribute 24, 1
   8              		.eabi_attribute 25, 1
   9              		.eabi_attribute 26, 1
  10              		.eabi_attribute 30, 6
  11              		.eabi_attribute 34, 1
  12              		.eabi_attribute 18, 4
  13              		.file	"mpu9250.c"
  14              		.text
  15              	.Ltext0:
  16              		.cfi_sections	.debug_frame
  17              		.section	.data.imu_addr,"aw",%progbits
  18              		.type	imu_addr, %object
  19              		.size	imu_addr, 1
  20              	imu_addr:
  21 0000 68       		.byte	104
  22              		.section	.text.mpu9250_change_addr,"ax",%progbits
  23              		.align	1
  24              		.p2align 4,,15
  25              		.global	mpu9250_change_addr
  26              		.syntax unified
  27              		.thumb
  28              		.thumb_func
  29              		.fpu fpv4-sp-d16
  30              		.type	mpu9250_change_addr, %function
  31              	mpu9250_change_addr:
  32              	.LFB256:
  33              		.file 1 "../lib/e-puck2_main-processor/src/sensors/mpu9250.c"
  34              		.loc 1 22 0
  35              		.cfi_startproc
  36              		@ args = 0, pretend = 0, frame = 8
  37              		@ frame_needed = 0, uses_anonymous_args = 0
  38 0000 00B5     		push	{lr}
  39              		.cfi_def_cfa_offset 4
  40              		.cfi_offset 14, -4
  41 0002 83B0     		sub	sp, sp, #12
  42              		.cfi_def_cfa_offset 16
  43              		.loc 1 22 0
  44 0004 0C4B     		ldr	r3, .L6
  45 0006 1B68     		ldr	r3, [r3]
  46 0008 0193     		str	r3, [sp, #4]
  47              		.loc 1 23 0
  48 000a 0C4B     		ldr	r3, .L6+4
  49 000c 1B78     		ldrb	r3, [r3]	@ zero_extendqisi2
  50 000e 682B     		cmp	r3, #104
  51 0010 03D1     		bne	.L2
  52              		.loc 1 24 0
  53 0012 0A4B     		ldr	r3, .L6+4
  54 0014 6922     		movs	r2, #105
  55 0016 1A70     		strb	r2, [r3]
  56              		.loc 1 28 0
  57 0018 02E0     		b	.L5
ARM GAS  C:\Users\PCHAUT~1\AppData\Local\Temp\ccypOybD.s 			page 2


  58              	.L2:
  59              		.loc 1 26 0
  60 001a 084B     		ldr	r3, .L6+4
  61 001c 6822     		movs	r2, #104
  62 001e 1A70     		strb	r2, [r3]
  63              	.L5:
  64              		.loc 1 28 0
  65 0020 00BF     		nop
  66 0022 054B     		ldr	r3, .L6
  67 0024 019A     		ldr	r2, [sp, #4]
  68 0026 1B68     		ldr	r3, [r3]
  69 0028 9A42     		cmp	r2, r3
  70 002a 01D0     		beq	.L4
  71 002c FFF7FEFF 		bl	__stack_chk_fail
  72              	.L4:
  73 0030 03B0     		add	sp, sp, #12
  74              		.cfi_def_cfa_offset 4
  75              		@ sp needed
  76 0032 5DF804FB 		ldr	pc, [sp], #4
  77              	.L7:
  78 0036 00BF     		.align	2
  79              	.L6:
  80 0038 00000000 		.word	__stack_chk_guard
  81 003c 00000000 		.word	imu_addr
  82              		.cfi_endproc
  83              	.LFE256:
  84              		.size	mpu9250_change_addr, .-mpu9250_change_addr
  85              		.section	.text.mpu9250_read_id,"ax",%progbits
  86              		.align	1
  87              		.p2align 4,,15
  88              		.global	mpu9250_read_id
  89              		.syntax unified
  90              		.thumb
  91              		.thumb_func
  92              		.fpu fpv4-sp-d16
  93              		.type	mpu9250_read_id, %function
  94              	mpu9250_read_id:
  95              	.LFB257:
  96              		.loc 1 39 0
  97              		.cfi_startproc
  98              		@ args = 0, pretend = 0, frame = 16
  99              		@ frame_needed = 0, uses_anonymous_args = 0
 100 0000 00B5     		push	{lr}
 101              		.cfi_def_cfa_offset 4
 102              		.cfi_offset 14, -4
 103 0002 85B0     		sub	sp, sp, #20
 104              		.cfi_def_cfa_offset 24
 105 0004 0190     		str	r0, [sp, #4]
 106              		.loc 1 39 0
 107 0006 194B     		ldr	r3, .L12
 108 0008 1B68     		ldr	r3, [r3]
 109 000a 0393     		str	r3, [sp, #12]
 110              		.loc 1 40 0
 111 000c 0023     		movs	r3, #0
 112 000e 8DF80B30 		strb	r3, [sp, #11]
 113              		.loc 1 41 0
 114 0012 174B     		ldr	r3, .L12+4
ARM GAS  C:\Users\PCHAUT~1\AppData\Local\Temp\ccypOybD.s 			page 3


 115 0014 1B78     		ldrb	r3, [r3]	@ zero_extendqisi2
 116 0016 019A     		ldr	r2, [sp, #4]
 117 0018 7521     		movs	r1, #117
 118 001a 1846     		mov	r0, r3
 119 001c FFF7FEFF 		bl	read_reg
 120 0020 0346     		mov	r3, r0
 121 0022 8DF80B30 		strb	r3, [sp, #11]
 122 0026 9DF90B30 		ldrsb	r3, [sp, #11]
 123 002a 002B     		cmp	r3, #0
 124 002c 12D0     		beq	.L9
 125              		.loc 1 42 0
 126 002e FFF7FEFF 		bl	mpu9250_change_addr
 127              		.loc 1 43 0
 128 0032 0F4B     		ldr	r3, .L12+4
 129 0034 1B78     		ldrb	r3, [r3]	@ zero_extendqisi2
 130 0036 019A     		ldr	r2, [sp, #4]
 131 0038 7521     		movs	r1, #117
 132 003a 1846     		mov	r0, r3
 133 003c FFF7FEFF 		bl	read_reg
 134 0040 0346     		mov	r3, r0
 135 0042 8DF80B30 		strb	r3, [sp, #11]
 136 0046 9DF90B30 		ldrsb	r3, [sp, #11]
 137 004a 002B     		cmp	r3, #0
 138 004c 02D0     		beq	.L9
 139              		.loc 1 44 0
 140 004e 9DF90B30 		ldrsb	r3, [sp, #11]
 141 0052 00E0     		b	.L10
 142              	.L9:
 143              		.loc 1 47 0
 144 0054 0023     		movs	r3, #0
 145              	.L10:
 146              		.loc 1 48 0
 147 0056 1846     		mov	r0, r3
 148 0058 044B     		ldr	r3, .L12
 149 005a 039A     		ldr	r2, [sp, #12]
 150 005c 1B68     		ldr	r3, [r3]
 151 005e 9A42     		cmp	r2, r3
 152 0060 01D0     		beq	.L11
 153 0062 FFF7FEFF 		bl	__stack_chk_fail
 154              	.L11:
 155 0066 05B0     		add	sp, sp, #20
 156              		.cfi_def_cfa_offset 4
 157              		@ sp needed
 158 0068 5DF804FB 		ldr	pc, [sp], #4
 159              	.L13:
 160              		.align	2
 161              	.L12:
 162 006c 00000000 		.word	__stack_chk_guard
 163 0070 00000000 		.word	imu_addr
 164              		.cfi_endproc
 165              	.LFE257:
 166              		.size	mpu9250_read_id, .-mpu9250_read_id
 167              		.section	.text.read_word,"ax",%progbits
 168              		.align	1
 169              		.p2align 4,,15
 170              		.syntax unified
 171              		.thumb
ARM GAS  C:\Users\PCHAUT~1\AppData\Local\Temp\ccypOybD.s 			page 4


 172              		.thumb_func
 173              		.fpu fpv4-sp-d16
 174              		.type	read_word, %function
 175              	read_word:
 176              	.LFB258:
 177              		.loc 1 58 0
 178              		.cfi_startproc
 179              		@ args = 0, pretend = 0, frame = 16
 180              		@ frame_needed = 0, uses_anonymous_args = 0
 181 0000 00B5     		push	{lr}
 182              		.cfi_def_cfa_offset 4
 183              		.cfi_offset 14, -4
 184 0002 85B0     		sub	sp, sp, #20
 185              		.cfi_def_cfa_offset 24
 186 0004 0190     		str	r0, [sp, #4]
 187              		.loc 1 58 0
 188 0006 0B4B     		ldr	r3, .L17
 189 0008 1B68     		ldr	r3, [r3]
 190 000a 0393     		str	r3, [sp, #12]
 191              		.loc 1 59 0
 192 000c 019B     		ldr	r3, [sp, #4]
 193 000e 1B78     		ldrb	r3, [r3]	@ zero_extendqisi2
 194 0010 5BB2     		sxtb	r3, r3
 195 0012 1B02     		lsls	r3, r3, #8
 196 0014 019A     		ldr	r2, [sp, #4]
 197 0016 0132     		adds	r2, r2, #1
 198 0018 1278     		ldrb	r2, [r2]	@ zero_extendqisi2
 199 001a 1343     		orrs	r3, r3, r2
 200              		.loc 1 60 0
 201 001c 1846     		mov	r0, r3
 202 001e 054B     		ldr	r3, .L17
 203 0020 039A     		ldr	r2, [sp, #12]
 204 0022 1B68     		ldr	r3, [r3]
 205 0024 9A42     		cmp	r2, r3
 206 0026 01D0     		beq	.L16
 207 0028 FFF7FEFF 		bl	__stack_chk_fail
 208              	.L16:
 209 002c 05B0     		add	sp, sp, #20
 210              		.cfi_def_cfa_offset 4
 211              		@ sp needed
 212 002e 5DF804FB 		ldr	pc, [sp], #4
 213              	.L18:
 214 0032 00BF     		.align	2
 215              	.L17:
 216 0034 00000000 		.word	__stack_chk_guard
 217              		.cfi_endproc
 218              	.LFE258:
 219              		.size	read_word, .-read_word
 220              		.section	.text.mpu9250_setup,"ax",%progbits
 221              		.align	1
 222              		.p2align 4,,15
 223              		.global	mpu9250_setup
 224              		.syntax unified
 225              		.thumb
 226              		.thumb_func
 227              		.fpu fpv4-sp-d16
 228              		.type	mpu9250_setup, %function
ARM GAS  C:\Users\PCHAUT~1\AppData\Local\Temp\ccypOybD.s 			page 5


 229              	mpu9250_setup:
 230              	.LFB259:
 231              		.loc 1 67 0
 232              		.cfi_startproc
 233              		@ args = 0, pretend = 0, frame = 16
 234              		@ frame_needed = 0, uses_anonymous_args = 0
 235 0000 00B5     		push	{lr}
 236              		.cfi_def_cfa_offset 4
 237              		.cfi_offset 14, -4
 238 0002 85B0     		sub	sp, sp, #20
 239              		.cfi_def_cfa_offset 24
 240 0004 0190     		str	r0, [sp, #4]
 241              		.loc 1 67 0
 242 0006 874B     		ldr	r3, .L34
 243 0008 1B68     		ldr	r3, [r3]
 244 000a 0393     		str	r3, [sp, #12]
 245              		.loc 1 68 0
 246 000c 0023     		movs	r3, #0
 247 000e 8DF80B30 		strb	r3, [sp, #11]
 248              		.loc 1 69 0
 249 0012 0023     		movs	r3, #0
 250 0014 8DF80A30 		strb	r3, [sp, #10]
 251              		.loc 1 72 0
 252 0018 834B     		ldr	r3, .L34+4
 253 001a 1B78     		ldrb	r3, [r3]	@ zero_extendqisi2
 254 001c 8022     		movs	r2, #128
 255 001e 6B21     		movs	r1, #107
 256 0020 1846     		mov	r0, r3
 257 0022 FFF7FEFF 		bl	write_reg
 258 0026 0346     		mov	r3, r0
 259 0028 8DF80B30 		strb	r3, [sp, #11]
 260 002c 9DF90B30 		ldrsb	r3, [sp, #11]
 261 0030 002B     		cmp	r3, #0
 262 0032 12D0     		beq	.L20
 263              		.loc 1 73 0
 264 0034 FFF7FEFF 		bl	mpu9250_change_addr
 265              		.loc 1 74 0
 266 0038 7B4B     		ldr	r3, .L34+4
 267 003a 1B78     		ldrb	r3, [r3]	@ zero_extendqisi2
 268 003c 8022     		movs	r2, #128
 269 003e 6B21     		movs	r1, #107
 270 0040 1846     		mov	r0, r3
 271 0042 FFF7FEFF 		bl	write_reg
 272 0046 0346     		mov	r3, r0
 273 0048 8DF80B30 		strb	r3, [sp, #11]
 274 004c 9DF90B30 		ldrsb	r3, [sp, #11]
 275 0050 002B     		cmp	r3, #0
 276 0052 02D0     		beq	.L20
 277              		.loc 1 75 0
 278 0054 9DF90B30 		ldrsb	r3, [sp, #11]
 279 0058 D9E0     		b	.L30
 280              	.L20:
 281              		.loc 1 78 0
 282 005a 0120     		movs	r0, #1
 283 005c FFF7FEFF 		bl	chThdSleep
 284              	.L25:
 285              		.loc 1 80 0
ARM GAS  C:\Users\PCHAUT~1\AppData\Local\Temp\ccypOybD.s 			page 6


 286 0060 714B     		ldr	r3, .L34+4
 287 0062 1B78     		ldrb	r3, [r3]	@ zero_extendqisi2
 288 0064 0DF10A02 		add	r2, sp, #10
 289 0068 6B21     		movs	r1, #107
 290 006a 1846     		mov	r0, r3
 291 006c FFF7FEFF 		bl	read_reg
 292 0070 0346     		mov	r3, r0
 293 0072 8DF80B30 		strb	r3, [sp, #11]
 294 0076 9DF90B30 		ldrsb	r3, [sp, #11]
 295 007a 002B     		cmp	r3, #0
 296 007c 13D0     		beq	.L22
 297              		.loc 1 81 0
 298 007e FFF7FEFF 		bl	mpu9250_change_addr
 299              		.loc 1 82 0
 300 0082 694B     		ldr	r3, .L34+4
 301 0084 1B78     		ldrb	r3, [r3]	@ zero_extendqisi2
 302 0086 0DF10A02 		add	r2, sp, #10
 303 008a 6B21     		movs	r1, #107
 304 008c 1846     		mov	r0, r3
 305 008e FFF7FEFF 		bl	read_reg
 306 0092 0346     		mov	r3, r0
 307 0094 8DF80B30 		strb	r3, [sp, #11]
 308 0098 9DF90B30 		ldrsb	r3, [sp, #11]
 309 009c 002B     		cmp	r3, #0
 310 009e 02D0     		beq	.L22
 311              		.loc 1 83 0
 312 00a0 9DF90B30 		ldrsb	r3, [sp, #11]
 313 00a4 B3E0     		b	.L30
 314              	.L22:
 315              		.loc 1 86 0
 316 00a6 9DF80A30 		ldrb	r3, [sp, #10]	@ zero_extendqisi2
 317 00aa 5BB2     		sxtb	r3, r3
 318 00ac 002B     		cmp	r3, #0
 319 00ae 03DA     		bge	.L33
 320              		.loc 1 89 0
 321 00b0 0120     		movs	r0, #1
 322 00b2 FFF7FEFF 		bl	chThdSleep
 323              		.loc 1 80 0
 324 00b6 D3E7     		b	.L25
 325              	.L33:
 326              		.loc 1 87 0
 327 00b8 00BF     		nop
 328              		.loc 1 93 0
 329 00ba 5B4B     		ldr	r3, .L34+4
 330 00bc 1878     		ldrb	r0, [r3]	@ zero_extendqisi2
 331 00be 019B     		ldr	r3, [sp, #4]
 332 00c0 5B00     		lsls	r3, r3, #1
 333 00c2 DBB2     		uxtb	r3, r3
 334 00c4 03F01803 		and	r3, r3, #24
 335 00c8 DBB2     		uxtb	r3, r3
 336 00ca 1A46     		mov	r2, r3
 337 00cc 1B21     		movs	r1, #27
 338 00ce FFF7FEFF 		bl	write_reg
 339 00d2 0346     		mov	r3, r0
 340 00d4 8DF80B30 		strb	r3, [sp, #11]
 341 00d8 9DF90B30 		ldrsb	r3, [sp, #11]
 342 00dc 002B     		cmp	r3, #0
ARM GAS  C:\Users\PCHAUT~1\AppData\Local\Temp\ccypOybD.s 			page 7


 343 00de 17D0     		beq	.L26
 344              		.loc 1 94 0
 345 00e0 FFF7FEFF 		bl	mpu9250_change_addr
 346              		.loc 1 95 0
 347 00e4 504B     		ldr	r3, .L34+4
 348 00e6 1878     		ldrb	r0, [r3]	@ zero_extendqisi2
 349 00e8 019B     		ldr	r3, [sp, #4]
 350 00ea 5B00     		lsls	r3, r3, #1
 351 00ec DBB2     		uxtb	r3, r3
 352 00ee 03F01803 		and	r3, r3, #24
 353 00f2 DBB2     		uxtb	r3, r3
 354 00f4 1A46     		mov	r2, r3
 355 00f6 1B21     		movs	r1, #27
 356 00f8 FFF7FEFF 		bl	write_reg
 357 00fc 0346     		mov	r3, r0
 358 00fe 8DF80B30 		strb	r3, [sp, #11]
 359 0102 9DF90B30 		ldrsb	r3, [sp, #11]
 360 0106 002B     		cmp	r3, #0
 361 0108 02D0     		beq	.L26
 362              		.loc 1 96 0
 363 010a 9DF90B30 		ldrsb	r3, [sp, #11]
 364 010e 7EE0     		b	.L30
 365              	.L26:
 366              		.loc 1 99 0
 367 0110 0120     		movs	r0, #1
 368 0112 FFF7FEFF 		bl	chThdSleep
 369              		.loc 1 102 0
 370 0116 444B     		ldr	r3, .L34+4
 371 0118 1878     		ldrb	r0, [r3]	@ zero_extendqisi2
 372 011a 019B     		ldr	r3, [sp, #4]
 373 011c DB00     		lsls	r3, r3, #3
 374 011e DBB2     		uxtb	r3, r3
 375 0120 03F01803 		and	r3, r3, #24
 376 0124 DBB2     		uxtb	r3, r3
 377 0126 1A46     		mov	r2, r3
 378 0128 1C21     		movs	r1, #28
 379 012a FFF7FEFF 		bl	write_reg
 380 012e 0346     		mov	r3, r0
 381 0130 8DF80B30 		strb	r3, [sp, #11]
 382 0134 9DF90B30 		ldrsb	r3, [sp, #11]
 383 0138 002B     		cmp	r3, #0
 384 013a 17D0     		beq	.L27
 385              		.loc 1 103 0
 386 013c FFF7FEFF 		bl	mpu9250_change_addr
 387              		.loc 1 104 0
 388 0140 394B     		ldr	r3, .L34+4
 389 0142 1878     		ldrb	r0, [r3]	@ zero_extendqisi2
 390 0144 019B     		ldr	r3, [sp, #4]
 391 0146 DB00     		lsls	r3, r3, #3
 392 0148 DBB2     		uxtb	r3, r3
 393 014a 03F01803 		and	r3, r3, #24
 394 014e DBB2     		uxtb	r3, r3
 395 0150 1A46     		mov	r2, r3
 396 0152 1C21     		movs	r1, #28
 397 0154 FFF7FEFF 		bl	write_reg
 398 0158 0346     		mov	r3, r0
 399 015a 8DF80B30 		strb	r3, [sp, #11]
ARM GAS  C:\Users\PCHAUT~1\AppData\Local\Temp\ccypOybD.s 			page 8


 400 015e 9DF90B30 		ldrsb	r3, [sp, #11]
 401 0162 002B     		cmp	r3, #0
 402 0164 02D0     		beq	.L27
 403              		.loc 1 105 0
 404 0166 9DF90B30 		ldrsb	r3, [sp, #11]
 405 016a 50E0     		b	.L30
 406              	.L27:
 407              		.loc 1 108 0
 408 016c 0120     		movs	r0, #1
 409 016e FFF7FEFF 		bl	chThdSleep
 410              		.loc 1 111 0
 411 0172 2D4B     		ldr	r3, .L34+4
 412 0174 1878     		ldrb	r0, [r3]	@ zero_extendqisi2
 413 0176 019B     		ldr	r3, [sp, #4]
 414 0178 1B12     		asrs	r3, r3, #8
 415 017a DBB2     		uxtb	r3, r3
 416 017c 1A46     		mov	r2, r3
 417 017e 1921     		movs	r1, #25
 418 0180 FFF7FEFF 		bl	write_reg
 419 0184 0346     		mov	r3, r0
 420 0186 8DF80B30 		strb	r3, [sp, #11]
 421 018a 9DF90B30 		ldrsb	r3, [sp, #11]
 422 018e 002B     		cmp	r3, #0
 423 0190 14D0     		beq	.L28
 424              		.loc 1 112 0
 425 0192 FFF7FEFF 		bl	mpu9250_change_addr
 426              		.loc 1 113 0
 427 0196 244B     		ldr	r3, .L34+4
 428 0198 1878     		ldrb	r0, [r3]	@ zero_extendqisi2
 429 019a 019B     		ldr	r3, [sp, #4]
 430 019c 1B12     		asrs	r3, r3, #8
 431 019e DBB2     		uxtb	r3, r3
 432 01a0 1A46     		mov	r2, r3
 433 01a2 1921     		movs	r1, #25
 434 01a4 FFF7FEFF 		bl	write_reg
 435 01a8 0346     		mov	r3, r0
 436 01aa 8DF80B30 		strb	r3, [sp, #11]
 437 01ae 9DF90B30 		ldrsb	r3, [sp, #11]
 438 01b2 002B     		cmp	r3, #0
 439 01b4 02D0     		beq	.L28
 440              		.loc 1 114 0
 441 01b6 9DF90B30 		ldrsb	r3, [sp, #11]
 442 01ba 28E0     		b	.L30
 443              	.L28:
 444              		.loc 1 117 0
 445 01bc 0120     		movs	r0, #1
 446 01be FFF7FEFF 		bl	chThdSleep
 447              		.loc 1 120 0
 448 01c2 194B     		ldr	r3, .L34+4
 449 01c4 1B78     		ldrb	r3, [r3]	@ zero_extendqisi2
 450 01c6 0122     		movs	r2, #1
 451 01c8 3821     		movs	r1, #56
 452 01ca 1846     		mov	r0, r3
 453 01cc FFF7FEFF 		bl	write_reg
 454 01d0 0346     		mov	r3, r0
 455 01d2 8DF80B30 		strb	r3, [sp, #11]
 456 01d6 9DF90B30 		ldrsb	r3, [sp, #11]
ARM GAS  C:\Users\PCHAUT~1\AppData\Local\Temp\ccypOybD.s 			page 9


 457 01da 002B     		cmp	r3, #0
 458 01dc 12D0     		beq	.L29
 459              		.loc 1 121 0
 460 01de FFF7FEFF 		bl	mpu9250_change_addr
 461              		.loc 1 122 0
 462 01e2 114B     		ldr	r3, .L34+4
 463 01e4 1B78     		ldrb	r3, [r3]	@ zero_extendqisi2
 464 01e6 0122     		movs	r2, #1
 465 01e8 3821     		movs	r1, #56
 466 01ea 1846     		mov	r0, r3
 467 01ec FFF7FEFF 		bl	write_reg
 468 01f0 0346     		mov	r3, r0
 469 01f2 8DF80B30 		strb	r3, [sp, #11]
 470 01f6 9DF90B30 		ldrsb	r3, [sp, #11]
 471 01fa 002B     		cmp	r3, #0
 472 01fc 02D0     		beq	.L29
 473              		.loc 1 123 0
 474 01fe 9DF90B30 		ldrsb	r3, [sp, #11]
 475 0202 04E0     		b	.L30
 476              	.L29:
 477              		.loc 1 126 0
 478 0204 0120     		movs	r0, #1
 479 0206 FFF7FEFF 		bl	chThdSleep
 480              		.loc 1 132 0
 481 020a 9DF90B30 		ldrsb	r3, [sp, #11]
 482              	.L30:
 483              		.loc 1 134 0 discriminator 1
 484 020e 1846     		mov	r0, r3
 485 0210 044B     		ldr	r3, .L34
 486 0212 039A     		ldr	r2, [sp, #12]
 487 0214 1B68     		ldr	r3, [r3]
 488 0216 9A42     		cmp	r2, r3
 489 0218 01D0     		beq	.L31
 490              		.loc 1 134 0 is_stmt 0
 491 021a FFF7FEFF 		bl	__stack_chk_fail
 492              	.L31:
 493 021e 05B0     		add	sp, sp, #20
 494              		.cfi_def_cfa_offset 4
 495              		@ sp needed
 496 0220 5DF804FB 		ldr	pc, [sp], #4
 497              	.L35:
 498              		.align	2
 499              	.L34:
 500 0224 00000000 		.word	__stack_chk_guard
 501 0228 00000000 		.word	imu_addr
 502              		.cfi_endproc
 503              	.LFE259:
 504              		.size	mpu9250_setup, .-mpu9250_setup
 505              		.section	.text.mpu9250_magnetometer_setup,"ax",%progbits
 506              		.align	1
 507              		.p2align 4,,15
 508              		.global	mpu9250_magnetometer_setup
 509              		.syntax unified
 510              		.thumb
 511              		.thumb_func
 512              		.fpu fpv4-sp-d16
 513              		.type	mpu9250_magnetometer_setup, %function
ARM GAS  C:\Users\PCHAUT~1\AppData\Local\Temp\ccypOybD.s 			page 10


 514              	mpu9250_magnetometer_setup:
 515              	.LFB260:
 516              		.loc 1 136 0 is_stmt 1
 517              		.cfi_startproc
 518              		@ args = 0, pretend = 0, frame = 8
 519              		@ frame_needed = 0, uses_anonymous_args = 0
 520 0000 00B5     		push	{lr}
 521              		.cfi_def_cfa_offset 4
 522              		.cfi_offset 14, -4
 523 0002 83B0     		sub	sp, sp, #12
 524              		.cfi_def_cfa_offset 16
 525              		.loc 1 136 0
 526 0004 8B4B     		ldr	r3, .L47
 527 0006 1B68     		ldr	r3, [r3]
 528 0008 0193     		str	r3, [sp, #4]
 529              		.loc 1 137 0
 530 000a 0023     		movs	r3, #0
 531 000c 8DF80330 		strb	r3, [sp, #3]
 532              		.loc 1 141 0
 533 0010 894B     		ldr	r3, .L47+4
 534 0012 1B78     		ldrb	r3, [r3]	@ zero_extendqisi2
 535 0014 0222     		movs	r2, #2
 536 0016 3721     		movs	r1, #55
 537 0018 1846     		mov	r0, r3
 538 001a FFF7FEFF 		bl	write_reg
 539 001e 0346     		mov	r3, r0
 540 0020 8DF80330 		strb	r3, [sp, #3]
 541 0024 9DF90330 		ldrsb	r3, [sp, #3]
 542 0028 002B     		cmp	r3, #0
 543 002a 12D0     		beq	.L37
 544              		.loc 1 142 0
 545 002c FFF7FEFF 		bl	mpu9250_change_addr
 546              		.loc 1 143 0
 547 0030 814B     		ldr	r3, .L47+4
 548 0032 1B78     		ldrb	r3, [r3]	@ zero_extendqisi2
 549 0034 0222     		movs	r2, #2
 550 0036 3721     		movs	r1, #55
 551 0038 1846     		mov	r0, r3
 552 003a FFF7FEFF 		bl	write_reg
 553 003e 0346     		mov	r3, r0
 554 0040 8DF80330 		strb	r3, [sp, #3]
 555 0044 9DF90330 		ldrsb	r3, [sp, #3]
 556 0048 002B     		cmp	r3, #0
 557 004a 02D0     		beq	.L37
 558              		.loc 1 144 0
 559 004c 9DF90330 		ldrsb	r3, [sp, #3]
 560 0050 E5E0     		b	.L38
 561              	.L37:
 562              		.loc 1 149 0
 563 0052 1222     		movs	r2, #18
 564 0054 0A21     		movs	r1, #10
 565 0056 0C20     		movs	r0, #12
 566 0058 FFF7FEFF 		bl	write_reg
 567 005c 0346     		mov	r3, r0
 568 005e 8DF80330 		strb	r3, [sp, #3]
 569 0062 9DF90330 		ldrsb	r3, [sp, #3]
 570 0066 002B     		cmp	r3, #0
ARM GAS  C:\Users\PCHAUT~1\AppData\Local\Temp\ccypOybD.s 			page 11


 571 0068 02D0     		beq	.L39
 572              		.loc 1 150 0
 573 006a 9DF90330 		ldrsb	r3, [sp, #3]
 574 006e D6E0     		b	.L38
 575              	.L39:
 576              		.loc 1 155 0
 577 0070 714B     		ldr	r3, .L47+4
 578 0072 1B78     		ldrb	r3, [r3]	@ zero_extendqisi2
 579 0074 0022     		movs	r2, #0
 580 0076 3721     		movs	r1, #55
 581 0078 1846     		mov	r0, r3
 582 007a FFF7FEFF 		bl	write_reg
 583 007e 0346     		mov	r3, r0
 584 0080 8DF80330 		strb	r3, [sp, #3]
 585 0084 9DF90330 		ldrsb	r3, [sp, #3]
 586 0088 002B     		cmp	r3, #0
 587 008a 12D0     		beq	.L40
 588              		.loc 1 156 0
 589 008c FFF7FEFF 		bl	mpu9250_change_addr
 590              		.loc 1 157 0
 591 0090 694B     		ldr	r3, .L47+4
 592 0092 1B78     		ldrb	r3, [r3]	@ zero_extendqisi2
 593 0094 0022     		movs	r2, #0
 594 0096 3721     		movs	r1, #55
 595 0098 1846     		mov	r0, r3
 596 009a FFF7FEFF 		bl	write_reg
 597 009e 0346     		mov	r3, r0
 598 00a0 8DF80330 		strb	r3, [sp, #3]
 599 00a4 9DF90330 		ldrsb	r3, [sp, #3]
 600 00a8 002B     		cmp	r3, #0
 601 00aa 02D0     		beq	.L40
 602              		.loc 1 158 0
 603 00ac 9DF90330 		ldrsb	r3, [sp, #3]
 604 00b0 B5E0     		b	.L38
 605              	.L40:
 606              		.loc 1 170 0
 607 00b2 614B     		ldr	r3, .L47+4
 608 00b4 1B78     		ldrb	r3, [r3]	@ zero_extendqisi2
 609 00b6 5D22     		movs	r2, #93
 610 00b8 2421     		movs	r1, #36
 611 00ba 1846     		mov	r0, r3
 612 00bc FFF7FEFF 		bl	write_reg
 613 00c0 0346     		mov	r3, r0
 614 00c2 8DF80330 		strb	r3, [sp, #3]
 615 00c6 9DF90330 		ldrsb	r3, [sp, #3]
 616 00ca 002B     		cmp	r3, #0
 617 00cc 12D0     		beq	.L41
 618              		.loc 1 171 0
 619 00ce FFF7FEFF 		bl	mpu9250_change_addr
 620              		.loc 1 172 0
 621 00d2 594B     		ldr	r3, .L47+4
 622 00d4 1B78     		ldrb	r3, [r3]	@ zero_extendqisi2
 623 00d6 5D22     		movs	r2, #93
 624 00d8 2421     		movs	r1, #36
 625 00da 1846     		mov	r0, r3
 626 00dc FFF7FEFF 		bl	write_reg
 627 00e0 0346     		mov	r3, r0
ARM GAS  C:\Users\PCHAUT~1\AppData\Local\Temp\ccypOybD.s 			page 12


 628 00e2 8DF80330 		strb	r3, [sp, #3]
 629 00e6 9DF90330 		ldrsb	r3, [sp, #3]
 630 00ea 002B     		cmp	r3, #0
 631 00ec 02D0     		beq	.L41
 632              		.loc 1 173 0
 633 00ee 9DF90330 		ldrsb	r3, [sp, #3]
 634 00f2 94E0     		b	.L38
 635              	.L41:
 636              		.loc 1 176 0
 637 00f4 0120     		movs	r0, #1
 638 00f6 FFF7FEFF 		bl	chThdSleep
 639              		.loc 1 179 0
 640 00fa 4F4B     		ldr	r3, .L47+4
 641 00fc 1B78     		ldrb	r3, [r3]	@ zero_extendqisi2
 642 00fe 2022     		movs	r2, #32
 643 0100 6A21     		movs	r1, #106
 644 0102 1846     		mov	r0, r3
 645 0104 FFF7FEFF 		bl	write_reg
 646 0108 0346     		mov	r3, r0
 647 010a 8DF80330 		strb	r3, [sp, #3]
 648 010e 9DF90330 		ldrsb	r3, [sp, #3]
 649 0112 002B     		cmp	r3, #0
 650 0114 12D0     		beq	.L42
 651              		.loc 1 180 0
 652 0116 FFF7FEFF 		bl	mpu9250_change_addr
 653              		.loc 1 181 0
 654 011a 474B     		ldr	r3, .L47+4
 655 011c 1B78     		ldrb	r3, [r3]	@ zero_extendqisi2
 656 011e 2022     		movs	r2, #32
 657 0120 6A21     		movs	r1, #106
 658 0122 1846     		mov	r0, r3
 659 0124 FFF7FEFF 		bl	write_reg
 660 0128 0346     		mov	r3, r0
 661 012a 8DF80330 		strb	r3, [sp, #3]
 662 012e 9DF90330 		ldrsb	r3, [sp, #3]
 663 0132 002B     		cmp	r3, #0
 664 0134 02D0     		beq	.L42
 665              		.loc 1 182 0
 666 0136 9DF90330 		ldrsb	r3, [sp, #3]
 667 013a 70E0     		b	.L38
 668              	.L42:
 669              		.loc 1 185 0
 670 013c 0120     		movs	r0, #1
 671 013e FFF7FEFF 		bl	chThdSleep
 672              		.loc 1 188 0
 673 0142 3D4B     		ldr	r3, .L47+4
 674 0144 1B78     		ldrb	r3, [r3]	@ zero_extendqisi2
 675 0146 8C22     		movs	r2, #140
 676 0148 2521     		movs	r1, #37
 677 014a 1846     		mov	r0, r3
 678 014c FFF7FEFF 		bl	write_reg
 679 0150 0346     		mov	r3, r0
 680 0152 8DF80330 		strb	r3, [sp, #3]
 681 0156 9DF90330 		ldrsb	r3, [sp, #3]
 682 015a 002B     		cmp	r3, #0
 683 015c 12D0     		beq	.L43
 684              		.loc 1 189 0
ARM GAS  C:\Users\PCHAUT~1\AppData\Local\Temp\ccypOybD.s 			page 13


 685 015e FFF7FEFF 		bl	mpu9250_change_addr
 686              		.loc 1 190 0
 687 0162 354B     		ldr	r3, .L47+4
 688 0164 1B78     		ldrb	r3, [r3]	@ zero_extendqisi2
 689 0166 8C22     		movs	r2, #140
 690 0168 2521     		movs	r1, #37
 691 016a 1846     		mov	r0, r3
 692 016c FFF7FEFF 		bl	write_reg
 693 0170 0346     		mov	r3, r0
 694 0172 8DF80330 		strb	r3, [sp, #3]
 695 0176 9DF90330 		ldrsb	r3, [sp, #3]
 696 017a 002B     		cmp	r3, #0
 697 017c 02D0     		beq	.L43
 698              		.loc 1 191 0
 699 017e 9DF90330 		ldrsb	r3, [sp, #3]
 700 0182 4CE0     		b	.L38
 701              	.L43:
 702              		.loc 1 194 0
 703 0184 0120     		movs	r0, #1
 704 0186 FFF7FEFF 		bl	chThdSleep
 705              		.loc 1 197 0
 706 018a 2B4B     		ldr	r3, .L47+4
 707 018c 1B78     		ldrb	r3, [r3]	@ zero_extendqisi2
 708 018e 0322     		movs	r2, #3
 709 0190 2621     		movs	r1, #38
 710 0192 1846     		mov	r0, r3
 711 0194 FFF7FEFF 		bl	write_reg
 712 0198 0346     		mov	r3, r0
 713 019a 8DF80330 		strb	r3, [sp, #3]
 714 019e 9DF90330 		ldrsb	r3, [sp, #3]
 715 01a2 002B     		cmp	r3, #0
 716 01a4 12D0     		beq	.L44
 717              		.loc 1 198 0
 718 01a6 FFF7FEFF 		bl	mpu9250_change_addr
 719              		.loc 1 199 0
 720 01aa 234B     		ldr	r3, .L47+4
 721 01ac 1B78     		ldrb	r3, [r3]	@ zero_extendqisi2
 722 01ae 0322     		movs	r2, #3
 723 01b0 2621     		movs	r1, #38
 724 01b2 1846     		mov	r0, r3
 725 01b4 FFF7FEFF 		bl	write_reg
 726 01b8 0346     		mov	r3, r0
 727 01ba 8DF80330 		strb	r3, [sp, #3]
 728 01be 9DF90330 		ldrsb	r3, [sp, #3]
 729 01c2 002B     		cmp	r3, #0
 730 01c4 02D0     		beq	.L44
 731              		.loc 1 200 0
 732 01c6 9DF90330 		ldrsb	r3, [sp, #3]
 733 01ca 28E0     		b	.L38
 734              	.L44:
 735              		.loc 1 203 0
 736 01cc 0120     		movs	r0, #1
 737 01ce FFF7FEFF 		bl	chThdSleep
 738              		.loc 1 210 0
 739 01d2 194B     		ldr	r3, .L47+4
 740 01d4 1B78     		ldrb	r3, [r3]	@ zero_extendqisi2
 741 01d6 8722     		movs	r2, #135
ARM GAS  C:\Users\PCHAUT~1\AppData\Local\Temp\ccypOybD.s 			page 14


 742 01d8 2721     		movs	r1, #39
 743 01da 1846     		mov	r0, r3
 744 01dc FFF7FEFF 		bl	write_reg
 745 01e0 0346     		mov	r3, r0
 746 01e2 8DF80330 		strb	r3, [sp, #3]
 747 01e6 9DF90330 		ldrsb	r3, [sp, #3]
 748 01ea 002B     		cmp	r3, #0
 749 01ec 12D0     		beq	.L45
 750              		.loc 1 211 0
 751 01ee FFF7FEFF 		bl	mpu9250_change_addr
 752              		.loc 1 212 0
 753 01f2 114B     		ldr	r3, .L47+4
 754 01f4 1B78     		ldrb	r3, [r3]	@ zero_extendqisi2
 755 01f6 8722     		movs	r2, #135
 756 01f8 2721     		movs	r1, #39
 757 01fa 1846     		mov	r0, r3
 758 01fc FFF7FEFF 		bl	write_reg
 759 0200 0346     		mov	r3, r0
 760 0202 8DF80330 		strb	r3, [sp, #3]
 761 0206 9DF90330 		ldrsb	r3, [sp, #3]
 762 020a 002B     		cmp	r3, #0
 763 020c 02D0     		beq	.L45
 764              		.loc 1 213 0
 765 020e 9DF90330 		ldrsb	r3, [sp, #3]
 766 0212 04E0     		b	.L38
 767              	.L45:
 768              		.loc 1 216 0
 769 0214 0120     		movs	r0, #1
 770 0216 FFF7FEFF 		bl	chThdSleep
 771              		.loc 1 218 0
 772 021a 9DF90330 		ldrsb	r3, [sp, #3]
 773              	.L38:
 774              		.loc 1 219 0
 775 021e 1846     		mov	r0, r3
 776 0220 044B     		ldr	r3, .L47
 777 0222 019A     		ldr	r2, [sp, #4]
 778 0224 1B68     		ldr	r3, [r3]
 779 0226 9A42     		cmp	r2, r3
 780 0228 01D0     		beq	.L46
 781 022a FFF7FEFF 		bl	__stack_chk_fail
 782              	.L46:
 783 022e 03B0     		add	sp, sp, #12
 784              		.cfi_def_cfa_offset 4
 785              		@ sp needed
 786 0230 5DF804FB 		ldr	pc, [sp], #4
 787              	.L48:
 788              		.align	2
 789              	.L47:
 790 0234 00000000 		.word	__stack_chk_guard
 791 0238 00000000 		.word	imu_addr
 792              		.cfi_endproc
 793              	.LFE260:
 794              		.size	mpu9250_magnetometer_setup, .-mpu9250_magnetometer_setup
 795              		.section	.text.mpu9250_ping,"ax",%progbits
 796              		.align	1
 797              		.p2align 4,,15
 798              		.global	mpu9250_ping
ARM GAS  C:\Users\PCHAUT~1\AppData\Local\Temp\ccypOybD.s 			page 15


 799              		.syntax unified
 800              		.thumb
 801              		.thumb_func
 802              		.fpu fpv4-sp-d16
 803              		.type	mpu9250_ping, %function
 804              	mpu9250_ping:
 805              	.LFB261:
 806              		.loc 1 221 0
 807              		.cfi_startproc
 808              		@ args = 0, pretend = 0, frame = 8
 809              		@ frame_needed = 0, uses_anonymous_args = 0
 810 0000 00B5     		push	{lr}
 811              		.cfi_def_cfa_offset 4
 812              		.cfi_offset 14, -4
 813 0002 83B0     		sub	sp, sp, #12
 814              		.cfi_def_cfa_offset 16
 815              		.loc 1 221 0
 816 0004 0E4B     		ldr	r3, .L52
 817 0006 1B68     		ldr	r3, [r3]
 818 0008 0193     		str	r3, [sp, #4]
 819              		.loc 1 222 0
 820 000a 0023     		movs	r3, #0
 821 000c 8DF80330 		strb	r3, [sp, #3]
 822              		.loc 1 223 0
 823 0010 0DF10303 		add	r3, sp, #3
 824 0014 1846     		mov	r0, r3
 825 0016 FFF7FEFF 		bl	mpu9250_read_id
 826              		.loc 1 224 0
 827 001a 9DF80330 		ldrb	r3, [sp, #3]	@ zero_extendqisi2
 828 001e 682B     		cmp	r3, #104
 829 0020 0CBF     		ite	eq
 830 0022 0123     		moveq	r3, #1
 831 0024 0023     		movne	r3, #0
 832 0026 DBB2     		uxtb	r3, r3
 833              		.loc 1 225 0
 834 0028 1846     		mov	r0, r3
 835 002a 054B     		ldr	r3, .L52
 836 002c 019A     		ldr	r2, [sp, #4]
 837 002e 1B68     		ldr	r3, [r3]
 838 0030 9A42     		cmp	r2, r3
 839 0032 01D0     		beq	.L51
 840 0034 FFF7FEFF 		bl	__stack_chk_fail
 841              	.L51:
 842 0038 03B0     		add	sp, sp, #12
 843              		.cfi_def_cfa_offset 4
 844              		@ sp needed
 845 003a 5DF804FB 		ldr	pc, [sp], #4
 846              	.L53:
 847 003e 00BF     		.align	2
 848              	.L52:
 849 0040 00000000 		.word	__stack_chk_guard
 850              		.cfi_endproc
 851              	.LFE261:
 852              		.size	mpu9250_ping, .-mpu9250_ping
 853              		.section	.text.mpu9250_read,"ax",%progbits
 854              		.align	1
 855              		.p2align 4,,15
ARM GAS  C:\Users\PCHAUT~1\AppData\Local\Temp\ccypOybD.s 			page 16


 856              		.global	mpu9250_read
 857              		.syntax unified
 858              		.thumb
 859              		.thumb_func
 860              		.fpu fpv4-sp-d16
 861              		.type	mpu9250_read, %function
 862              	mpu9250_read:
 863              	.LFB262:
 864              		.loc 1 227 0
 865              		.cfi_startproc
 866              		@ args = 20, pretend = 0, frame = 48
 867              		@ frame_needed = 0, uses_anonymous_args = 0
 868 0000 00B5     		push	{lr}
 869              		.cfi_def_cfa_offset 4
 870              		.cfi_offset 14, -4
 871 0002 8DB0     		sub	sp, sp, #52
 872              		.cfi_def_cfa_offset 56
 873 0004 0990     		str	r0, [sp, #36]
 874 0006 0891     		str	r1, [sp, #32]
 875 0008 0792     		str	r2, [sp, #28]
 876 000a 0693     		str	r3, [sp, #24]
 877 000c 0E9B     		ldr	r3, [sp, #56]
 878 000e 0593     		str	r3, [sp, #20]
 879 0010 0F9B     		ldr	r3, [sp, #60]
 880 0012 0493     		str	r3, [sp, #16]
 881 0014 109B     		ldr	r3, [sp, #64]
 882 0016 0393     		str	r3, [sp, #12]
 883 0018 119B     		ldr	r3, [sp, #68]
 884 001a 0293     		str	r3, [sp, #8]
 885 001c 129B     		ldr	r3, [sp, #72]
 886 001e 0193     		str	r3, [sp, #4]
 887              		.loc 1 227 0
 888 0020 AC4B     		ldr	r3, .L63
 889 0022 1B68     		ldr	r3, [r3]
 890 0024 0B93     		str	r3, [sp, #44]
 891              		.loc 1 228 0
 892 0026 0023     		movs	r3, #0
 893 0028 8DF82B30 		strb	r3, [sp, #43]
 894              		.loc 1 231 0
 895 002c AA4B     		ldr	r3, .L63+4
 896 002e 1878     		ldrb	r0, [r3]	@ zero_extendqisi2
 897 0030 1623     		movs	r3, #22
 898 0032 AA4A     		ldr	r2, .L63+8
 899 0034 3A21     		movs	r1, #58
 900 0036 FFF7FEFF 		bl	read_reg_multi
 901 003a 0346     		mov	r3, r0
 902 003c 8DF82B30 		strb	r3, [sp, #43]
 903 0040 9DF92B30 		ldrsb	r3, [sp, #43]
 904 0044 002B     		cmp	r3, #0
 905 0046 12D0     		beq	.L55
 906              		.loc 1 232 0
 907 0048 FFF7FEFF 		bl	mpu9250_change_addr
 908              		.loc 1 233 0
 909 004c A24B     		ldr	r3, .L63+4
 910 004e 1878     		ldrb	r0, [r3]	@ zero_extendqisi2
 911 0050 1623     		movs	r3, #22
 912 0052 A24A     		ldr	r2, .L63+8
ARM GAS  C:\Users\PCHAUT~1\AppData\Local\Temp\ccypOybD.s 			page 17


 913 0054 3A21     		movs	r1, #58
 914 0056 FFF7FEFF 		bl	read_reg_multi
 915 005a 0346     		mov	r3, r0
 916 005c 8DF82B30 		strb	r3, [sp, #43]
 917 0060 9DF92B30 		ldrsb	r3, [sp, #43]
 918 0064 002B     		cmp	r3, #0
 919 0066 02D0     		beq	.L55
 920              		.loc 1 234 0
 921 0068 9DF92B30 		ldrsb	r3, [sp, #43]
 922 006c 26E1     		b	.L56
 923              	.L55:
 924              		.loc 1 238 0
 925 006e 019B     		ldr	r3, [sp, #4]
 926 0070 002B     		cmp	r3, #0
 927 0072 03D0     		beq	.L57
 928              		.loc 1 239 0
 929 0074 994B     		ldr	r3, .L63+8
 930 0076 1A78     		ldrb	r2, [r3]	@ zero_extendqisi2
 931 0078 019B     		ldr	r3, [sp, #4]
 932 007a 1A70     		strb	r2, [r3]
 933              	.L57:
 934              		.loc 1 241 0
 935 007c 089B     		ldr	r3, [sp, #32]
 936 007e 002B     		cmp	r3, #0
 937 0080 6ED0     		beq	.L58
 938              		.loc 1 243 0
 939 0082 9748     		ldr	r0, .L63+12
 940 0084 FFF7FEFF 		bl	read_word
 941 0088 0346     		mov	r3, r0
 942 008a 9BB2     		uxth	r3, r3
 943 008c 5B42     		negs	r3, r3
 944 008e 9BB2     		uxth	r3, r3
 945 0090 1AB2     		sxth	r2, r3
 946 0092 049B     		ldr	r3, [sp, #16]
 947 0094 1A80     		strh	r2, [r3]	@ movhi
 948              		.loc 1 244 0
 949 0096 9348     		ldr	r0, .L63+16
 950 0098 FFF7FEFF 		bl	read_word
 951 009c 0346     		mov	r3, r0
 952 009e 9BB2     		uxth	r3, r3
 953 00a0 5B42     		negs	r3, r3
 954 00a2 9AB2     		uxth	r2, r3
 955 00a4 049B     		ldr	r3, [sp, #16]
 956 00a6 0233     		adds	r3, r3, #2
 957 00a8 12B2     		sxth	r2, r2
 958 00aa 1A80     		strh	r2, [r3]	@ movhi
 959              		.loc 1 245 0
 960 00ac 8E48     		ldr	r0, .L63+20
 961 00ae FFF7FEFF 		bl	read_word
 962 00b2 0346     		mov	r3, r0
 963 00b4 9BB2     		uxth	r3, r3
 964 00b6 5B42     		negs	r3, r3
 965 00b8 9AB2     		uxth	r2, r3
 966 00ba 049B     		ldr	r3, [sp, #16]
 967 00bc 0433     		adds	r3, r3, #4
 968 00be 12B2     		sxth	r2, r2
 969 00c0 1A80     		strh	r2, [r3]	@ movhi
ARM GAS  C:\Users\PCHAUT~1\AppData\Local\Temp\ccypOybD.s 			page 18


 970              		.loc 1 246 0
 971 00c2 049B     		ldr	r3, [sp, #16]
 972 00c4 B3F90030 		ldrsh	r3, [r3]
 973 00c8 1A46     		mov	r2, r3
 974 00ca 029B     		ldr	r3, [sp, #8]
 975 00cc B3F90030 		ldrsh	r3, [r3]
 976 00d0 D31A     		subs	r3, r2, r3
 977 00d2 07EE903A 		vmov	s15, r3	@ int
 978 00d6 F8EEE77A 		vcvt.f32.s32	s15, s15
 979 00da 9FED847A 		vldr.32	s14, .L63+24
 980 00de 67EE877A 		vmul.f32	s15, s15, s14
 981 00e2 9FED837A 		vldr.32	s14, .L63+28
 982 00e6 67EE877A 		vmul.f32	s15, s15, s14
 983 00ea 089B     		ldr	r3, [sp, #32]
 984 00ec C3ED007A 		vstr.32	s15, [r3]
 985              		.loc 1 247 0
 986 00f0 049B     		ldr	r3, [sp, #16]
 987 00f2 0233     		adds	r3, r3, #2
 988 00f4 B3F90030 		ldrsh	r3, [r3]
 989 00f8 1A46     		mov	r2, r3
 990 00fa 029B     		ldr	r3, [sp, #8]
 991 00fc 0233     		adds	r3, r3, #2
 992 00fe B3F90030 		ldrsh	r3, [r3]
 993 0102 D31A     		subs	r3, r2, r3
 994 0104 07EE903A 		vmov	s15, r3	@ int
 995 0108 F8EEE77A 		vcvt.f32.s32	s15, s15
 996 010c 9FED777A 		vldr.32	s14, .L63+24
 997 0110 67EE877A 		vmul.f32	s15, s15, s14
 998 0114 089B     		ldr	r3, [sp, #32]
 999 0116 0433     		adds	r3, r3, #4
 1000 0118 9FED757A 		vldr.32	s14, .L63+28
 1001 011c 67EE877A 		vmul.f32	s15, s15, s14
 1002 0120 C3ED007A 		vstr.32	s15, [r3]
 1003              		.loc 1 250 0
 1004 0124 049B     		ldr	r3, [sp, #16]
 1005 0126 0433     		adds	r3, r3, #4
 1006 0128 B3F90030 		ldrsh	r3, [r3]
 1007 012c 1A46     		mov	r2, r3
 1008 012e 029B     		ldr	r3, [sp, #8]
 1009 0130 0433     		adds	r3, r3, #4
 1010 0132 B3F90030 		ldrsh	r3, [r3]
 1011 0136 D31A     		subs	r3, r2, r3
 1012 0138 07EE903A 		vmov	s15, r3	@ int
 1013 013c F8EEE77A 		vcvt.f32.s32	s15, s15
 1014 0140 9FED6C7A 		vldr.32	s14, .L63+32
 1015 0144 77EEC77A 		vsub.f32	s15, s15, s14
 1016 0148 9FED687A 		vldr.32	s14, .L63+24
 1017 014c 67EE877A 		vmul.f32	s15, s15, s14
 1018 0150 089B     		ldr	r3, [sp, #32]
 1019 0152 0833     		adds	r3, r3, #8
 1020 0154 9FED667A 		vldr.32	s14, .L63+28
 1021 0158 67EE877A 		vmul.f32	s15, s15, s14
 1022 015c C3ED007A 		vstr.32	s15, [r3]
 1023              	.L58:
 1024              		.loc 1 252 0
 1025 0160 079B     		ldr	r3, [sp, #28]
 1026 0162 002B     		cmp	r3, #0
ARM GAS  C:\Users\PCHAUT~1\AppData\Local\Temp\ccypOybD.s 			page 19


 1027 0164 15D0     		beq	.L59
 1028              		.loc 1 253 0
 1029 0166 6448     		ldr	r0, .L63+36
 1030 0168 FFF7FEFF 		bl	read_word
 1031 016c 07EE900A 		vmov	s15, r0	@ int
 1032 0170 F8EEE77A 		vcvt.f32.s32	s15, s15
 1033 0174 B3EE057A 		vmov.f32	s14, #2.1e+1
 1034 0178 37EEC77A 		vsub.f32	s14, s15, s14
 1035 017c DFED5F6A 		vldr.32	s13, .L63+40
 1036 0180 C7EE267A 		vdiv.f32	s15, s14, s13
 1037 0184 B3EE057A 		vmov.f32	s14, #2.1e+1
 1038 0188 77EE877A 		vadd.f32	s15, s15, s14
 1039 018c 079B     		ldr	r3, [sp, #28]
 1040 018e C3ED007A 		vstr.32	s15, [r3]
 1041              	.L59:
 1042              		.loc 1 255 0
 1043 0192 099B     		ldr	r3, [sp, #36]
 1044 0194 002B     		cmp	r3, #0
 1045 0196 55D0     		beq	.L60
 1046              		.loc 1 256 0
 1047 0198 5948     		ldr	r0, .L63+44
 1048 019a FFF7FEFF 		bl	read_word
 1049 019e 0346     		mov	r3, r0
 1050 01a0 1AB2     		sxth	r2, r3
 1051 01a2 059B     		ldr	r3, [sp, #20]
 1052 01a4 1A80     		strh	r2, [r3]	@ movhi
 1053              		.loc 1 257 0
 1054 01a6 5748     		ldr	r0, .L63+48
 1055 01a8 FFF7FEFF 		bl	read_word
 1056 01ac 0246     		mov	r2, r0
 1057 01ae 059B     		ldr	r3, [sp, #20]
 1058 01b0 0233     		adds	r3, r3, #2
 1059 01b2 12B2     		sxth	r2, r2
 1060 01b4 1A80     		strh	r2, [r3]	@ movhi
 1061              		.loc 1 258 0
 1062 01b6 5448     		ldr	r0, .L63+52
 1063 01b8 FFF7FEFF 		bl	read_word
 1064 01bc 0246     		mov	r2, r0
 1065 01be 059B     		ldr	r3, [sp, #20]
 1066 01c0 0433     		adds	r3, r3, #4
 1067 01c2 12B2     		sxth	r2, r2
 1068 01c4 1A80     		strh	r2, [r3]	@ movhi
 1069              		.loc 1 259 0
 1070 01c6 059B     		ldr	r3, [sp, #20]
 1071 01c8 B3F90030 		ldrsh	r3, [r3]
 1072 01cc 1A46     		mov	r2, r3
 1073 01ce 039B     		ldr	r3, [sp, #12]
 1074 01d0 B3F90030 		ldrsh	r3, [r3]
 1075 01d4 D31A     		subs	r3, r2, r3
 1076 01d6 07EE903A 		vmov	s15, r3	@ int
 1077 01da F8EEE77A 		vcvt.f32.s32	s15, s15
 1078 01de 9FED4B7A 		vldr.32	s14, .L63+56
 1079 01e2 67EE877A 		vmul.f32	s15, s15, s14
 1080 01e6 099B     		ldr	r3, [sp, #36]
 1081 01e8 C3ED007A 		vstr.32	s15, [r3]
 1082              		.loc 1 260 0
 1083 01ec 059B     		ldr	r3, [sp, #20]
ARM GAS  C:\Users\PCHAUT~1\AppData\Local\Temp\ccypOybD.s 			page 20


 1084 01ee 0233     		adds	r3, r3, #2
 1085 01f0 B3F90030 		ldrsh	r3, [r3]
 1086 01f4 1A46     		mov	r2, r3
 1087 01f6 039B     		ldr	r3, [sp, #12]
 1088 01f8 0233     		adds	r3, r3, #2
 1089 01fa B3F90030 		ldrsh	r3, [r3]
 1090 01fe D31A     		subs	r3, r2, r3
 1091 0200 07EE903A 		vmov	s15, r3	@ int
 1092 0204 F8EEE77A 		vcvt.f32.s32	s15, s15
 1093 0208 099B     		ldr	r3, [sp, #36]
 1094 020a 0433     		adds	r3, r3, #4
 1095 020c 9FED3F7A 		vldr.32	s14, .L63+56
 1096 0210 67EE877A 		vmul.f32	s15, s15, s14
 1097 0214 C3ED007A 		vstr.32	s15, [r3]
 1098              		.loc 1 261 0
 1099 0218 059B     		ldr	r3, [sp, #20]
 1100 021a 0433     		adds	r3, r3, #4
 1101 021c B3F90030 		ldrsh	r3, [r3]
 1102 0220 1A46     		mov	r2, r3
 1103 0222 039B     		ldr	r3, [sp, #12]
 1104 0224 0433     		adds	r3, r3, #4
 1105 0226 B3F90030 		ldrsh	r3, [r3]
 1106 022a D31A     		subs	r3, r2, r3
 1107 022c 07EE903A 		vmov	s15, r3	@ int
 1108 0230 F8EEE77A 		vcvt.f32.s32	s15, s15
 1109 0234 099B     		ldr	r3, [sp, #36]
 1110 0236 0833     		adds	r3, r3, #8
 1111 0238 9FED347A 		vldr.32	s14, .L63+56
 1112 023c 67EE877A 		vmul.f32	s15, s15, s14
 1113 0240 C3ED007A 		vstr.32	s15, [r3]
 1114              	.L60:
 1115              		.loc 1 264 0
 1116 0244 069B     		ldr	r3, [sp, #24]
 1117 0246 002B     		cmp	r3, #0
 1118 0248 37D0     		beq	.L61
 1119              		.loc 1 265 0
 1120 024a 244B     		ldr	r3, .L63+8
 1121 024c 1B7C     		ldrb	r3, [r3, #16]	@ zero_extendqisi2
 1122 024e 5BB2     		sxtb	r3, r3
 1123 0250 1B02     		lsls	r3, r3, #8
 1124 0252 224A     		ldr	r2, .L63+8
 1125 0254 D27B     		ldrb	r2, [r2, #15]	@ zero_extendqisi2
 1126 0256 1343     		orrs	r3, r3, r2
 1127 0258 07EE903A 		vmov	s15, r3	@ int
 1128 025c F8EEE77A 		vcvt.f32.s32	s15, s15
 1129 0260 9FED2B7A 		vldr.32	s14, .L63+60
 1130 0264 67EE877A 		vmul.f32	s15, s15, s14
 1131 0268 069B     		ldr	r3, [sp, #24]
 1132 026a C3ED007A 		vstr.32	s15, [r3]
 1133              		.loc 1 266 0
 1134 026e 1B4B     		ldr	r3, .L63+8
 1135 0270 9B7C     		ldrb	r3, [r3, #18]	@ zero_extendqisi2
 1136 0272 5BB2     		sxtb	r3, r3
 1137 0274 1B02     		lsls	r3, r3, #8
 1138 0276 194A     		ldr	r2, .L63+8
 1139 0278 527C     		ldrb	r2, [r2, #17]	@ zero_extendqisi2
 1140 027a 1343     		orrs	r3, r3, r2
ARM GAS  C:\Users\PCHAUT~1\AppData\Local\Temp\ccypOybD.s 			page 21


 1141 027c 07EE903A 		vmov	s15, r3	@ int
 1142 0280 F8EEE77A 		vcvt.f32.s32	s15, s15
 1143 0284 069B     		ldr	r3, [sp, #24]
 1144 0286 0433     		adds	r3, r3, #4
 1145 0288 9FED217A 		vldr.32	s14, .L63+60
 1146 028c 67EE877A 		vmul.f32	s15, s15, s14
 1147 0290 C3ED007A 		vstr.32	s15, [r3]
 1148              		.loc 1 267 0
 1149 0294 114B     		ldr	r3, .L63+8
 1150 0296 1B7D     		ldrb	r3, [r3, #20]	@ zero_extendqisi2
 1151 0298 5BB2     		sxtb	r3, r3
 1152 029a 1B02     		lsls	r3, r3, #8
 1153 029c 0F4A     		ldr	r2, .L63+8
 1154 029e D27C     		ldrb	r2, [r2, #19]	@ zero_extendqisi2
 1155 02a0 1343     		orrs	r3, r3, r2
 1156 02a2 07EE903A 		vmov	s15, r3	@ int
 1157 02a6 F8EEE77A 		vcvt.f32.s32	s15, s15
 1158 02aa 069B     		ldr	r3, [sp, #24]
 1159 02ac 0833     		adds	r3, r3, #8
 1160 02ae 9FED187A 		vldr.32	s14, .L63+60
 1161 02b2 67EE877A 		vmul.f32	s15, s15, s14
 1162 02b6 C3ED007A 		vstr.32	s15, [r3]
 1163              	.L61:
 1164              		.loc 1 270 0
 1165 02ba 0023     		movs	r3, #0
 1166              	.L56:
 1167              		.loc 1 271 0
 1168 02bc 1846     		mov	r0, r3
 1169 02be 054B     		ldr	r3, .L63
 1170 02c0 0B9A     		ldr	r2, [sp, #44]
 1171 02c2 1B68     		ldr	r3, [r3]
 1172 02c4 9A42     		cmp	r2, r3
 1173 02c6 01D0     		beq	.L62
 1174 02c8 FFF7FEFF 		bl	__stack_chk_fail
 1175              	.L62:
 1176 02cc 0DB0     		add	sp, sp, #52
 1177              		.cfi_def_cfa_offset 4
 1178              		@ sp needed
 1179 02ce 5DF804FB 		ldr	pc, [sp], #4
 1180              	.L64:
 1181 02d2 00BF     		.align	2
 1182              	.L63:
 1183 02d4 00000000 		.word	__stack_chk_guard
 1184 02d8 00000000 		.word	imu_addr
 1185 02dc 00000000 		.word	buf.10620
 1186 02e0 01000000 		.word	buf.10620+1
 1187 02e4 03000000 		.word	buf.10620+3
 1188 02e8 05000000 		.word	buf.10620+5
 1189 02ec 0AE81C41 		.word	1092413450
 1190 02f0 00008038 		.word	947912704
 1191 02f4 00008046 		.word	1182793728
 1192 02f8 07000000 		.word	buf.10620+7
 1193 02fc 5CEFA643 		.word	1135013724
 1194 0300 09000000 		.word	buf.10620+9
 1195 0304 0B000000 		.word	buf.10620+11
 1196 0308 0D000000 		.word	buf.10620+13
 1197 030c 58A00B39 		.word	957063256
ARM GAS  C:\Users\PCHAUT~1\AppData\Local\Temp\ccypOybD.s 			page 22


 1198 0310 0000163E 		.word	1041629184
 1199              		.cfi_endproc
 1200              	.LFE262:
 1201              		.size	mpu9250_read, .-mpu9250_read
 1202              		.section	.bss.buf.10620,"aw",%nobits
 1203              		.align	2
 1204              		.type	buf.10620, %object
 1205              		.size	buf.10620, 22
 1206              	buf.10620:
 1207 0000 00000000 		.space	22
 1207      00000000 
 1207      00000000 
 1207      00000000 
 1207      00000000 
 1208              		.text
 1209              	.Letext0:
 1210              		.file 2 "c:\\users\\pchautems\\documents\\robotiquetp\\eclipse_e-puck2\\tools\\gcc-arm-none-eabi-7
 1211              		.file 3 "c:\\users\\pchautems\\documents\\robotiquetp\\eclipse_e-puck2\\tools\\gcc-arm-none-eabi-7
 1212              		.file 4 "c:\\users\\pchautems\\documents\\robotiquetp\\eclipse_e-puck2\\tools\\gcc-arm-none-eabi-7
 1213              		.file 5 "c:\\users\\pchautems\\documents\\robotiquetp\\eclipse_e-puck2\\tools\\gcc-arm-none-eabi-7
 1214              		.file 6 "c:\\users\\pchautems\\documents\\robotiquetp\\eclipse_e-puck2\\tools\\gcc-arm-none-eabi-7
 1215              		.file 7 "c:\\users\\pchautems\\documents\\robotiquetp\\eclipse_e-puck2\\tools\\gcc-arm-none-eabi-7
 1216              		.file 8 "c:\\users\\pchautems\\documents\\robotiquetp\\eclipse_e-puck2\\tools\\gcc-arm-none-eabi-7
 1217              		.file 9 "../lib/e-puck2_main-processor/ChibiOS//os/rt/ports/ARMCMx/compilers/GCC/chtypes.h"
 1218              		.file 10 "../lib/e-puck2_main-processor/ChibiOS//os/rt/include/chsystypes.h"
 1219              		.file 11 "../lib/e-puck2_main-processor/ChibiOS//os/rt/include/chschd.h"
 1220              		.file 12 "../lib/e-puck2_main-processor/ChibiOS//os/ext/CMSIS/include/core_cm4.h"
 1221              		.file 13 "../lib/e-puck2_main-processor/ChibiOS//os/ext/CMSIS/ST/system_stm32f4xx.h"
 1222              		.file 14 "../lib/e-puck2_main-processor/ChibiOS//os/ext/CMSIS/ST/stm32f407xx.h"
 1223              		.file 15 "../lib/e-puck2_main-processor/ChibiOS//os/rt/ports/ARMCMx/chcore.h"
 1224              		.file 16 "../lib/e-puck2_main-processor/ChibiOS//os/rt/ports/ARMCMx/chcore_v7m.h"
 1225              		.file 17 "../lib/e-puck2_main-processor/ChibiOS//os/rt/include/chdebug.h"
 1226              		.file 18 "../lib/e-puck2_main-processor/ChibiOS//os/rt/include/chtm.h"
 1227              		.file 19 "../lib/e-puck2_main-processor/ChibiOS//os/rt/include/chstats.h"
 1228              		.file 20 "../lib/e-puck2_main-processor/ChibiOS//os/rt/include/chsem.h"
 1229              		.file 21 "../lib/e-puck2_main-processor/ChibiOS//os/rt/include/chmtx.h"
 1230              		.file 22 "../lib/e-puck2_main-processor/ChibiOS//os/rt/include/chregistry.h"
 1231              		.file 23 "../lib/e-puck2_main-processor/ChibiOS//os/rt/include/chevents.h"
 1232              		.file 24 "../lib/e-puck2_main-processor/ChibiOS//os/rt/include/chqueues.h"
 1233              		.file 25 "../lib/e-puck2_main-processor/ChibiOS//os/hal/ports/STM32/STM32F4xx/stm32_dma.h"
 1234              		.file 26 "../lib/e-puck2_main-processor/ChibiOS//os/hal/include/hal_ioblock.h"
 1235              		.file 27 "../lib/e-puck2_main-processor/ChibiOS//os/hal/ports/STM32/LLD/GPIOv2/pal_lld.h"
 1236              		.file 28 "../lib/e-puck2_main-processor/ChibiOS//os/hal/include/adc.h"
 1237              		.file 29 "../lib/e-puck2_main-processor/ChibiOS//os/hal/ports/STM32/STM32F4xx/adc_lld.h"
 1238              		.file 30 "../lib/e-puck2_main-processor/ChibiOS//os/hal/include/can.h"
 1239              		.file 31 "../lib/e-puck2_main-processor/ChibiOS//os/hal/ports/STM32/LLD/can_lld.h"
 1240              		.file 32 "../lib/e-puck2_main-processor/ChibiOS//os/hal/include/dac.h"
 1241              		.file 33 "../lib/e-puck2_main-processor/ChibiOS//os/hal/ports/STM32/LLD/DACv1/dac_lld.h"
 1242              		.file 34 "../lib/e-puck2_main-processor/ChibiOS//os/hal/include/ext.h"
 1243              		.file 35 "../lib/e-puck2_main-processor/ChibiOS//os/hal/ports/STM32/LLD/ext_lld.h"
 1244              		.file 36 "../lib/e-puck2_main-processor/ChibiOS//os/hal/include/gpt.h"
 1245              		.file 37 "../lib/e-puck2_main-processor/ChibiOS//os/hal/ports/STM32/LLD/TIMv1/gpt_lld.h"
 1246              		.file 38 "../lib/e-puck2_main-processor/ChibiOS//os/hal/ports/STM32/LLD/TIMv1/stm32_tim.h"
 1247              		.file 39 "../lib/e-puck2_main-processor/ChibiOS//os/hal/include/i2c.h"
 1248              		.file 40 "../lib/e-puck2_main-processor/ChibiOS//os/hal/ports/STM32/LLD/I2Cv1/i2c_lld.h"
 1249              		.file 41 "../lib/e-puck2_main-processor/ChibiOS//os/hal/include/i2s.h"
 1250              		.file 42 "../lib/e-puck2_main-processor/ChibiOS//os/hal/ports/STM32/LLD/SPIv1/i2s_lld.h"
ARM GAS  C:\Users\PCHAUT~1\AppData\Local\Temp\ccypOybD.s 			page 23


 1251              		.file 43 "../lib/e-puck2_main-processor/ChibiOS//os/hal/include/pwm.h"
 1252              		.file 44 "../lib/e-puck2_main-processor/ChibiOS//os/hal/ports/STM32/LLD/TIMv1/pwm_lld.h"
 1253              		.file 45 "../lib/e-puck2_main-processor/ChibiOS//os/hal/include/serial.h"
 1254              		.file 46 "../lib/e-puck2_main-processor/ChibiOS//os/hal/ports/STM32/LLD/USARTv1/serial_lld.h"
 1255              		.file 47 "../lib/e-puck2_main-processor/ChibiOS//os/hal/include/sdc.h"
 1256              		.file 48 "../lib/e-puck2_main-processor/ChibiOS//os/hal/ports/STM32/LLD/sdc_lld.h"
 1257              		.file 49 "../lib/e-puck2_main-processor/ChibiOS//os/hal/include/spi.h"
 1258              		.file 50 "../lib/e-puck2_main-processor/ChibiOS//os/hal/ports/STM32/LLD/SPIv1/spi_lld.h"
 1259              		.file 51 "../lib/e-puck2_main-processor/ChibiOS//os/hal/include/usb.h"
 1260              		.file 52 "../lib/e-puck2_main-processor/ChibiOS//os/hal/ports/STM32/LLD/OTGv1/usb_lld.h"
 1261              		.file 53 "../lib/e-puck2_main-processor/ChibiOS//os/hal/ports/STM32/LLD/OTGv1/stm32_otg.h"
 1262              		.file 54 "../lib/e-puck2_main-processor/src/sensors/mpu9250.h"