ARM GAS  C:\Users\PCHAUT~1\AppData\Local\Temp\ccvICu2w.s 			page 1


   1              		.cpu cortex-m4
   2              		.eabi_attribute 27, 1
   3              		.eabi_attribute 28, 1
   4              		.eabi_attribute 20, 1
   5              		.eabi_attribute 21, 1
   6              		.eabi_attribute 23, 3
   7              		.eabi_attribute 24, 1
   8              		.eabi_attribute 25, 1
   9              		.eabi_attribute 26, 1
  10              		.eabi_attribute 30, 6
  11              		.eabi_attribute 34, 1
  12              		.eabi_attribute 18, 4
  13              		.file	"natives.c"
  14              		.text
  15              	.Ltext0:
  16              		.cfi_sections	.debug_frame
  17              		.section	.text.AsebaNativePopArg,"ax",%progbits
  18              		.align	1
  19              		.p2align 4,,15
  20              		.syntax unified
  21              		.thumb
  22              		.thumb_func
  23              		.fpu fpv4-sp-d16
  24              		.type	AsebaNativePopArg, %function
  25              	AsebaNativePopArg:
  26              	.LFB0:
  27              		.file 1 "../lib/e-puck2_main-processor/aseba/vm/natives.h"
  28              		.loc 1 89 0
  29              		.cfi_startproc
  30              		@ args = 0, pretend = 0, frame = 16
  31              		@ frame_needed = 0, uses_anonymous_args = 0
  32 0000 00B5     		push	{lr}
  33              		.cfi_def_cfa_offset 4
  34              		.cfi_offset 14, -4
  35 0002 85B0     		sub	sp, sp, #20
  36              		.cfi_def_cfa_offset 24
  37 0004 0190     		str	r0, [sp, #4]
  38              		.loc 1 89 0
  39 0006 0F4B     		ldr	r3, .L4
  40 0008 1B68     		ldr	r3, [r3]
  41 000a 0393     		str	r3, [sp, #12]
  42              		.loc 1 90 0
  43 000c 019B     		ldr	r3, [sp, #4]
  44 000e 5A69     		ldr	r2, [r3, #20]
  45 0010 019B     		ldr	r3, [sp, #4]
  46 0012 B3F91C10 		ldrsh	r1, [r3, #28]
  47 0016 8BB2     		uxth	r3, r1
  48 0018 013B     		subs	r3, r3, #1
  49 001a 9BB2     		uxth	r3, r3
  50 001c 18B2     		sxth	r0, r3
  51 001e 019B     		ldr	r3, [sp, #4]
  52 0020 9883     		strh	r0, [r3, #28]	@ movhi
  53 0022 0B46     		mov	r3, r1
  54 0024 5B00     		lsls	r3, r3, #1
  55 0026 1344     		add	r3, r3, r2
  56 0028 B3F90030 		ldrsh	r3, [r3]
  57              		.loc 1 91 0
ARM GAS  C:\Users\PCHAUT~1\AppData\Local\Temp\ccvICu2w.s 			page 2


  58 002c 1846     		mov	r0, r3
  59 002e 054B     		ldr	r3, .L4
  60 0030 039A     		ldr	r2, [sp, #12]
  61 0032 1B68     		ldr	r3, [r3]
  62 0034 9A42     		cmp	r2, r3
  63 0036 01D0     		beq	.L3
  64 0038 FFF7FEFF 		bl	__stack_chk_fail
  65              	.L3:
  66 003c 05B0     		add	sp, sp, #20
  67              		.cfi_def_cfa_offset 4
  68              		@ sp needed
  69 003e 5DF804FB 		ldr	pc, [sp], #4
  70              	.L5:
  71 0042 00BF     		.align	2
  72              	.L4:
  73 0044 00000000 		.word	__stack_chk_guard
  74              		.cfi_endproc
  75              	.LFE0:
  76              		.size	AsebaNativePopArg, .-AsebaNativePopArg
  77              		.section	.rodata.aseba_atan_table,"a",%progbits
  78              		.align	2
  79              		.type	aseba_atan_table, %object
  80              		.size	aseba_atan_table, 322
  81              	aseba_atan_table:
  82 0000 8C02     		.short	652
  83 0002 DF02     		.short	735
  84 0004 3003     		.short	816
  85 0006 8003     		.short	896
  86 0008 D103     		.short	977
  87 000a 2204     		.short	1058
  88 000c 7304     		.short	1139
  89 000e C204     		.short	1218
  90 0010 1405     		.short	1300
  91 0012 B305     		.short	1459
  92 0014 5406     		.short	1620
  93 0016 F106     		.short	1777
  94 0018 8F07     		.short	1935
  95 001a 2D08     		.short	2093
  96 001c CA08     		.short	2250
  97 001e 6309     		.short	2403
  98 0020 FC09     		.short	2556
  99 0022 340B     		.short	2868
 100 0024 5C0C     		.short	3164
 101 0026 820D     		.short	3458
 102 0028 A40E     		.short	3748
 103 002a BD0F     		.short	4029
 104 002c D310     		.short	4307
 105 002e E211     		.short	4578
 106 0030 E712     		.short	4839
 107 0032 EF14     		.short	5359
 108 0034 CC16     		.short	5836
 109 0036 9218     		.short	6290
 110 0038 401A     		.short	6720
 111 003a D61B     		.short	7126
 112 003c 531D     		.short	7507
 113 003e B51E     		.short	7861
 114 0040 0B20     		.short	8203
ARM GAS  C:\Users\PCHAUT~1\AppData\Local\Temp\ccvICu2w.s 			page 3


 115 0042 7922     		.short	8825
 116 0044 8D24     		.short	9357
 117 0046 6F26     		.short	9839
 118 0048 1428     		.short	10260
 119 004a 9029     		.short	10640
 120 004c E02A     		.short	10976
 121 004e 112C     		.short	11281
 122 0050 252D     		.short	11557
 123 0052 052F     		.short	12037
 124 0054 8930     		.short	12425
 125 0056 D331     		.short	12755
 126 0058 EC32     		.short	13036
 127 005a DD33     		.short	13277
 128 005c AE34     		.short	13486
 129 005e 6735     		.short	13671
 130 0060 0D36     		.short	13837
 131 0062 2037     		.short	14112
 132 0064 FB37     		.short	14331
 133 0066 B238     		.short	14514
 134 0068 4A39     		.short	14666
 135 006a CC39     		.short	14796
 136 006c 3B3A     		.short	14907
 137 006e 9B3A     		.short	15003
 138 0070 F33A     		.short	15091
 139 0072 833B     		.short	15235
 140 0074 F43B     		.short	15348
 141 0076 513C     		.short	15441
 142 0078 9F3C     		.short	15519
 143 007a E13C     		.short	15585
 144 007c 1A3D     		.short	15642
 145 007e 4B3D     		.short	15691
 146 0080 783D     		.short	15736
 147 0082 C03D     		.short	15808
 148 0084 F93D     		.short	15865
 149 0086 283E     		.short	15912
 150 0088 4F3E     		.short	15951
 151 008a 703E     		.short	15984
 152 008c 8D3E     		.short	16013
 153 008e A53E     		.short	16037
 154 0090 BC3E     		.short	16060
 155 0092 E03E     		.short	16096
 156 0094 FD3E     		.short	16125
 157 0096 143F     		.short	16148
 158 0098 283F     		.short	16168
 159 009a 383F     		.short	16184
 160 009c 473F     		.short	16199
 161 009e 533F     		.short	16211
 162 00a0 5E3F     		.short	16222
 163 00a2 703F     		.short	16240
 164 00a4 7F3F     		.short	16255
 165 00a6 8A3F     		.short	16266
 166 00a8 943F     		.short	16276
 167 00aa 9C3F     		.short	16284
 168 00ac A43F     		.short	16292
 169 00ae AA3F     		.short	16298
 170 00b0 AF3F     		.short	16303
 171 00b2 B83F     		.short	16312
ARM GAS  C:\Users\PCHAUT~1\AppData\Local\Temp\ccvICu2w.s 			page 4


 172 00b4 C03F     		.short	16320
 173 00b6 C53F     		.short	16325
 174 00b8 CB3F     		.short	16331
 175 00ba CE3F     		.short	16334
 176 00bc D23F     		.short	16338
 177 00be D53F     		.short	16341
 178 00c0 D83F     		.short	16344
 179 00c2 DC3F     		.short	16348
 180 00c4 E03F     		.short	16352
 181 00c6 E33F     		.short	16355
 182 00c8 E53F     		.short	16357
 183 00ca E83F     		.short	16360
 184 00cc E93F     		.short	16361
 185 00ce EB3F     		.short	16363
 186 00d0 EC3F     		.short	16364
 187 00d2 EE3F     		.short	16366
 188 00d4 F13F     		.short	16369
 189 00d6 F13F     		.short	16369
 190 00d8 F33F     		.short	16371
 191 00da F43F     		.short	16372
 192 00dc F53F     		.short	16373
 193 00de F53F     		.short	16373
 194 00e0 F73F     		.short	16375
 195 00e2 F73F     		.short	16375
 196 00e4 F93F     		.short	16377
 197 00e6 F83F     		.short	16376
 198 00e8 FA3F     		.short	16378
 199 00ea FA3F     		.short	16378
 200 00ec FA3F     		.short	16378
 201 00ee FB3F     		.short	16379
 202 00f0 FB3F     		.short	16379
 203 00f2 FC3F     		.short	16380
 204 00f4 FC3F     		.short	16380
 205 00f6 FC3F     		.short	16380
 206 00f8 FE3F     		.short	16382
 207 00fa FD3F     		.short	16381
 208 00fc FD3F     		.short	16381
 209 00fe FD3F     		.short	16381
 210 0100 FE3F     		.short	16382
 211 0102 FE3F     		.short	16382
 212 0104 FE3F     		.short	16382
 213 0106 FE3F     		.short	16382
 214 0108 FE3F     		.short	16382
 215 010a FE3F     		.short	16382
 216 010c 0040     		.short	16384
 217 010e FF3F     		.short	16383
 218 0110 FF3F     		.short	16383
 219 0112 FF3F     		.short	16383
 220 0114 FF3F     		.short	16383
 221 0116 FF3F     		.short	16383
 222 0118 FF3F     		.short	16383
 223 011a FF3F     		.short	16383
 224 011c FF3F     		.short	16383
 225 011e FF3F     		.short	16383
 226 0120 FF3F     		.short	16383
 227 0122 FF3F     		.short	16383
 228 0124 0040     		.short	16384
ARM GAS  C:\Users\PCHAUT~1\AppData\Local\Temp\ccvICu2w.s 			page 5


 229 0126 0040     		.short	16384
 230 0128 0040     		.short	16384
 231 012a 0040     		.short	16384
 232 012c 0040     		.short	16384
 233 012e 0040     		.short	16384
 234 0130 0040     		.short	16384
 235 0132 0040     		.short	16384
 236 0134 0040     		.short	16384
 237 0136 0040     		.short	16384
 238 0138 0040     		.short	16384
 239 013a 0040     		.short	16384
 240 013c 0040     		.short	16384
 241 013e 0040     		.short	16384
 242 0140 0040     		.short	16384
 243              		.section	.text.aseba_atan2,"ax",%progbits
 244              		.align	1
 245              		.p2align 4,,15
 246              		.global	aseba_atan2
 247              		.syntax unified
 248              		.thumb
 249              		.thumb_func
 250              		.fpu fpv4-sp-d16
 251              		.type	aseba_atan2, %function
 252              	aseba_atan2:
 253              	.LFB1:
 254              		.file 2 "../lib/e-puck2_main-processor/aseba/vm/natives.c"
 255              		.loc 2 70 0
 256              		.cfi_startproc
 257              		@ args = 0, pretend = 0, frame = 40
 258              		@ frame_needed = 0, uses_anonymous_args = 0
 259 0000 00B5     		push	{lr}
 260              		.cfi_def_cfa_offset 4
 261              		.cfi_offset 14, -4
 262 0002 8BB0     		sub	sp, sp, #44
 263              		.cfi_def_cfa_offset 48
 264 0004 0346     		mov	r3, r0
 265 0006 0A46     		mov	r2, r1
 266 0008 ADF80630 		strh	r3, [sp, #6]	@ movhi
 267 000c 1346     		mov	r3, r2	@ movhi
 268 000e ADF80430 		strh	r3, [sp, #4]	@ movhi
 269              		.loc 2 70 0
 270 0012 644B     		ldr	r3, .L19
 271 0014 1B68     		ldr	r3, [r3]
 272 0016 0993     		str	r3, [sp, #36]
 273              		.loc 2 71 0
 274 0018 BDF90630 		ldrsh	r3, [sp, #6]
 275 001c 002B     		cmp	r3, #0
 276 001e 0BD1     		bne	.L7
 277              		.loc 2 73 0
 278 0020 BDF90430 		ldrsh	r3, [sp, #4]
 279 0024 002B     		cmp	r3, #0
 280 0026 01DB     		blt	.L8
 281              		.loc 2 74 0
 282 0028 0023     		movs	r3, #0
 283 002a AFE0     		b	.L9
 284              	.L8:
 285              		.loc 2 75 0
ARM GAS  C:\Users\PCHAUT~1\AppData\Local\Temp\ccvICu2w.s 			page 6


 286 002c BDF90430 		ldrsh	r3, [sp, #4]
 287 0030 002B     		cmp	r3, #0
 288 0032 01DA     		bge	.L7
 289              		.loc 2 76 0
 290 0034 5C4B     		ldr	r3, .L19+4
 291 0036 A9E0     		b	.L9
 292              	.L7:
 293              	.LBB2:
 294              		.loc 2 81 0
 295 0038 BDF90430 		ldrsh	r3, [sp, #4]
 296 003c 002B     		cmp	r3, #0
 297 003e B8BF     		it	lt
 298 0040 5B42     		rsblt	r3, r3, #0
 299 0042 ADF80E30 		strh	r3, [sp, #14]	@ movhi
 300              		.loc 2 82 0
 301 0046 BDF90630 		ldrsh	r3, [sp, #6]
 302 004a 002B     		cmp	r3, #0
 303 004c B8BF     		it	lt
 304 004e 5B42     		rsblt	r3, r3, #0
 305 0050 ADF81030 		strh	r3, [sp, #16]	@ movhi
 306              		.loc 2 83 0
 307 0054 BDF90430 		ldrsh	r3, [sp, #4]
 308 0058 002B     		cmp	r3, #0
 309 005a 04D1     		bne	.L10
 310              		.loc 2 85 0
 311 005c 4FF48043 		mov	r3, #16384
 312 0060 ADF80830 		strh	r3, [sp, #8]	@ movhi
 313 0064 86E0     		b	.L11
 314              	.L10:
 315              	.LBB3:
 316              		.loc 2 128 0
 317 0066 BDF91030 		ldrsh	r3, [sp, #16]
 318 006a 1A04     		lsls	r2, r3, #16
 319 006c BDF90E30 		ldrsh	r3, [sp, #14]
 320 0070 92FBF3F3 		sdiv	r3, r2, r3
 321 0074 0793     		str	r3, [sp, #28]
 322              		.loc 2 129 0
 323 0076 0023     		movs	r3, #0
 324 0078 ADF80A30 		strh	r3, [sp, #10]	@ movhi
 325              		.loc 2 132 0
 326 007c 0023     		movs	r3, #0
 327 007e ADF80C30 		strh	r3, [sp, #12]	@ movhi
 328 0082 11E0     		b	.L12
 329              	.L14:
 330              		.loc 2 133 0
 331 0084 BDF90C30 		ldrsh	r3, [sp, #12]
 332 0088 079A     		ldr	r2, [sp, #28]
 333 008a 42FA03F3 		asr	r3, r2, r3
 334 008e 002B     		cmp	r3, #0
 335 0090 03D0     		beq	.L13
 336              		.loc 2 134 0
 337 0092 BDF80C30 		ldrh	r3, [sp, #12]	@ movhi
 338 0096 ADF80A30 		strh	r3, [sp, #10]	@ movhi
 339              	.L13:
 340              		.loc 2 132 0 discriminator 2
 341 009a BDF90C30 		ldrsh	r3, [sp, #12]
 342 009e 9BB2     		uxth	r3, r3
ARM GAS  C:\Users\PCHAUT~1\AppData\Local\Temp\ccvICu2w.s 			page 7


 343 00a0 0133     		adds	r3, r3, #1
 344 00a2 9BB2     		uxth	r3, r3
 345 00a4 ADF80C30 		strh	r3, [sp, #12]	@ movhi
 346              	.L12:
 347              		.loc 2 132 0 is_stmt 0 discriminator 1
 348 00a8 BDF90C30 		ldrsh	r3, [sp, #12]
 349 00ac 1F2B     		cmp	r3, #31
 350 00ae E9DD     		ble	.L14
 351              	.LBB4:
 352              		.loc 2 138 0 is_stmt 1
 353 00b0 BDF80A30 		ldrh	r3, [sp, #10]
 354 00b4 0C3B     		subs	r3, r3, #12
 355 00b6 9BB2     		uxth	r3, r3
 356 00b8 ADF81230 		strh	r3, [sp, #18]	@ movhi
 357              		.loc 2 139 0
 358 00bc BDF91230 		ldrsh	r3, [sp, #18]
 359 00c0 002B     		cmp	r3, #0
 360 00c2 09DA     		bge	.L15
 361              		.loc 2 142 0
 362 00c4 4FF42373 		mov	r3, #652
 363 00c8 1A46     		mov	r2, r3
 364 00ca 079B     		ldr	r3, [sp, #28]
 365 00cc 03FB02F3 		mul	r3, r3, r2
 366 00d0 1B13     		asrs	r3, r3, #12
 367 00d2 ADF80830 		strh	r3, [sp, #8]	@ movhi
 368 00d6 42E0     		b	.L16
 369              	.L15:
 370              	.LBB5:
 371              		.loc 2 146 0
 372 00d8 BDF90A30 		ldrsh	r3, [sp, #10]
 373 00dc 0122     		movs	r2, #1
 374 00de 02FA03F3 		lsl	r3, r2, r3
 375 00e2 079A     		ldr	r2, [sp, #28]
 376 00e4 D31A     		subs	r3, r2, r3
 377 00e6 0893     		str	r3, [sp, #32]
 378              		.loc 2 147 0
 379 00e8 BDF80A30 		ldrh	r3, [sp, #10]
 380 00ec 083B     		subs	r3, r3, #8
 381 00ee 9BB2     		uxth	r3, r3
 382 00f0 ADF81430 		strh	r3, [sp, #20]	@ movhi
 383              		.loc 2 148 0
 384 00f4 BDF91430 		ldrsh	r3, [sp, #20]
 385 00f8 089A     		ldr	r2, [sp, #32]
 386 00fa 42FA03F3 		asr	r3, r2, r3
 387 00fe ADF81630 		strh	r3, [sp, #22]	@ movhi
 388              		.loc 2 149 0
 389 0102 BDF91630 		ldrsh	r3, [sp, #22]
 390 0106 5B11     		asrs	r3, r3, #5
 391 0108 ADF81830 		strh	r3, [sp, #24]	@ movhi
 392              		.loc 2 150 0
 393 010c BDF81630 		ldrh	r3, [sp, #22]	@ movhi
 394 0110 03F01F03 		and	r3, r3, #31
 395 0114 ADF81A30 		strh	r3, [sp, #26]	@ movhi
 396              		.loc 2 151 0
 397 0118 BDF91230 		ldrsh	r3, [sp, #18]
 398 011c DA00     		lsls	r2, r3, #3
 399 011e BDF91830 		ldrsh	r3, [sp, #24]
ARM GAS  C:\Users\PCHAUT~1\AppData\Local\Temp\ccvICu2w.s 			page 8


 400 0122 1344     		add	r3, r3, r2
 401 0124 214A     		ldr	r2, .L19+8
 402 0126 32F91330 		ldrsh	r3, [r2, r3, lsl #1]
 403 012a 1A46     		mov	r2, r3
 404 012c BDF91A30 		ldrsh	r3, [sp, #26]
 405 0130 C3F12003 		rsb	r3, r3, #32
 406 0134 03FB02F2 		mul	r2, r3, r2
 407 0138 BDF91230 		ldrsh	r3, [sp, #18]
 408 013c D900     		lsls	r1, r3, #3
 409 013e BDF91830 		ldrsh	r3, [sp, #24]
 410 0142 0B44     		add	r3, r3, r1
 411 0144 0133     		adds	r3, r3, #1
 412 0146 1949     		ldr	r1, .L19+8
 413 0148 31F91330 		ldrsh	r3, [r1, r3, lsl #1]
 414 014c 1946     		mov	r1, r3
 415 014e BDF91A30 		ldrsh	r3, [sp, #26]
 416 0152 03FB01F3 		mul	r3, r3, r1
 417 0156 1344     		add	r3, r3, r2
 418 0158 5B11     		asrs	r3, r3, #5
 419 015a ADF80830 		strh	r3, [sp, #8]	@ movhi
 420              	.L16:
 421              	.LBE5:
 422              		.loc 2 155 0
 423 015e BDF90430 		ldrsh	r3, [sp, #4]
 424 0162 002B     		cmp	r3, #0
 425 0164 06DA     		bge	.L11
 426              		.loc 2 156 0
 427 0166 BDF80820 		ldrh	r2, [sp, #8]
 428 016a 0F4B     		ldr	r3, .L19+4
 429 016c 9B1A     		subs	r3, r3, r2
 430 016e 9BB2     		uxth	r3, r3
 431 0170 ADF80830 		strh	r3, [sp, #8]	@ movhi
 432              	.L11:
 433              	.LBE4:
 434              	.LBE3:
 435              		.loc 2 160 0
 436 0174 BDF90630 		ldrsh	r3, [sp, #6]
 437 0178 002B     		cmp	r3, #0
 438 017a 02DD     		ble	.L17
 439              		.loc 2 161 0
 440 017c BDF90830 		ldrsh	r3, [sp, #8]
 441 0180 04E0     		b	.L9
 442              	.L17:
 443              		.loc 2 163 0
 444 0182 BDF80830 		ldrh	r3, [sp, #8]
 445 0186 5B42     		negs	r3, r3
 446 0188 9BB2     		uxth	r3, r3
 447 018a 1BB2     		sxth	r3, r3
 448              	.L9:
 449              	.LBE2:
 450              		.loc 2 165 0
 451 018c 1846     		mov	r0, r3
 452 018e 054B     		ldr	r3, .L19
 453 0190 099A     		ldr	r2, [sp, #36]
 454 0192 1B68     		ldr	r3, [r3]
 455 0194 9A42     		cmp	r2, r3
 456 0196 01D0     		beq	.L18
ARM GAS  C:\Users\PCHAUT~1\AppData\Local\Temp\ccvICu2w.s 			page 9


 457 0198 FFF7FEFF 		bl	__stack_chk_fail
 458              	.L18:
 459 019c 0BB0     		add	sp, sp, #44
 460              		.cfi_def_cfa_offset 4
 461              		@ sp needed
 462 019e 5DF804FB 		ldr	pc, [sp], #4
 463              	.L20:
 464 01a2 00BF     		.align	2
 465              	.L19:
 466 01a4 00000000 		.word	__stack_chk_guard
 467 01a8 0080FFFF 		.word	-32768
 468 01ac 00000000 		.word	aseba_atan_table
 469              		.cfi_endproc
 470              	.LFE1:
 471              		.size	aseba_atan2, .-aseba_atan2
 472              		.section	.rodata.aseba_sin_table,"a",%progbits
 473              		.align	2
 474              		.type	aseba_sin_table, %object
 475              		.size	aseba_sin_table, 258
 476              	aseba_sin_table:
 477 0000 0000     		.short	0
 478 0002 9301     		.short	403
 479 0004 2403     		.short	804
 480 0006 B704     		.short	1207
 481 0008 4806     		.short	1608
 482 000a DA07     		.short	2010
 483 000c 6B09     		.short	2411
 484 000e FC0A     		.short	2812
 485 0010 8C0C     		.short	3212
 486 0012 1C0E     		.short	3612
 487 0014 AB0F     		.short	4011
 488 0016 3B11     		.short	4411
 489 0018 C812     		.short	4808
 490 001a 5614     		.short	5206
 491 001c E315     		.short	5603
 492 001e 6E17     		.short	5998
 493 0020 F918     		.short	6393
 494 0022 831A     		.short	6787
 495 0024 0C1C     		.short	7180
 496 0026 941D     		.short	7572
 497 0028 1A1F     		.short	7962
 498 002a A020     		.short	8352
 499 002c 2422     		.short	8740
 500 002e A723     		.short	9127
 501 0030 2925     		.short	9513
 502 0032 A826     		.short	9896
 503 0034 2728     		.short	10279
 504 0036 A429     		.short	10660
 505 0038 202B     		.short	11040
 506 003a 992C     		.short	11417
 507 003c 122E     		.short	11794
 508 003e 872F     		.short	12167
 509 0040 FC30     		.short	12540
 510 0042 6F32     		.short	12911
 511 0044 DF33     		.short	13279
 512 0046 4E35     		.short	13646
 513 0048 BA36     		.short	14010
ARM GAS  C:\Users\PCHAUT~1\AppData\Local\Temp\ccvICu2w.s 			page 10


 514 004a 2538     		.short	14373
 515 004c 8D39     		.short	14733
 516 004e F33A     		.short	15091
 517 0050 573C     		.short	15447
 518 0052 B93D     		.short	15801
 519 0054 173F     		.short	16151
 520 0056 7440     		.short	16500
 521 0058 CE41     		.short	16846
 522 005a 2643     		.short	17190
 523 005c 7B44     		.short	17531
 524 005e CD45     		.short	17869
 525 0060 1D47     		.short	18205
 526 0062 6A48     		.short	18538
 527 0064 B449     		.short	18868
 528 0066 FC4A     		.short	19196
 529 0068 404C     		.short	19520
 530 006a 824D     		.short	19842
 531 006c C04E     		.short	20160
 532 006e FC4F     		.short	20476
 533 0070 3451     		.short	20788
 534 0072 6952     		.short	21097
 535 0074 9B53     		.short	21403
 536 0076 CA54     		.short	21706
 537 0078 F655     		.short	22006
 538 007a 1E57     		.short	22302
 539 007c 4358     		.short	22595
 540 007e 6459     		.short	22884
 541 0080 835A     		.short	23171
 542 0082 9D5B     		.short	23453
 543 0084 B45C     		.short	23732
 544 0086 C85D     		.short	24008
 545 0088 D75E     		.short	24279
 546 008a E45F     		.short	24548
 547 008c EC60     		.short	24812
 548 008e F161     		.short	25073
 549 0090 F262     		.short	25330
 550 0092 EF63     		.short	25583
 551 0094 E964     		.short	25833
 552 0096 DE65     		.short	26078
 553 0098 D066     		.short	26320
 554 009a BD67     		.short	26557
 555 009c A768     		.short	26791
 556 009e 8C69     		.short	27020
 557 00a0 6E6A     		.short	27246
 558 00a2 4B6B     		.short	27467
 559 00a4 246C     		.short	27684
 560 00a6 F96C     		.short	27897
 561 00a8 CA6D     		.short	28106
 562 00aa 976E     		.short	28311
 563 00ac 5F6F     		.short	28511
 564 00ae 2370     		.short	28707
 565 00b0 E370     		.short	28899
 566 00b2 9E71     		.short	29086
 567 00b4 5572     		.short	29269
 568 00b6 0873     		.short	29448
 569 00b8 B673     		.short	29622
 570 00ba 6074     		.short	29792
ARM GAS  C:\Users\PCHAUT~1\AppData\Local\Temp\ccvICu2w.s 			page 11


 571 00bc 0575     		.short	29957
 572 00be A575     		.short	30117
 573 00c0 4276     		.short	30274
 574 00c2 D976     		.short	30425
 575 00c4 6C77     		.short	30572
 576 00c6 FB77     		.short	30715
 577 00c8 8478     		.short	30852
 578 00ca 0979     		.short	30985
 579 00cc 8A79     		.short	31114
 580 00ce 067A     		.short	31238
 581 00d0 7D7A     		.short	31357
 582 00d2 EF7A     		.short	31471
 583 00d4 5D7B     		.short	31581
 584 00d6 C67B     		.short	31686
 585 00d8 2A7C     		.short	31786
 586 00da 897C     		.short	31881
 587 00dc E47C     		.short	31972
 588 00de 397D     		.short	32057
 589 00e0 8A7D     		.short	32138
 590 00e2 D77D     		.short	32215
 591 00e4 1D7E     		.short	32285
 592 00e6 607E     		.short	32352
 593 00e8 9D7E     		.short	32413
 594 00ea D67E     		.short	32470
 595 00ec 097F     		.short	32521
 596 00ee 397F     		.short	32569
 597 00f0 627F     		.short	32610
 598 00f2 877F     		.short	32647
 599 00f4 A77F     		.short	32679
 600 00f6 C27F     		.short	32706
 601 00f8 D87F     		.short	32728
 602 00fa EA7F     		.short	32746
 603 00fc F67F     		.short	32758
 604 00fe FE7F     		.short	32766
 605 0100 FF7F     		.short	32767
 606              		.section	.text.aseba_sin,"ax",%progbits
 607              		.align	1
 608              		.p2align 4,,15
 609              		.global	aseba_sin
 610              		.syntax unified
 611              		.thumb
 612              		.thumb_func
 613              		.fpu fpv4-sp-d16
 614              		.type	aseba_sin, %function
 615              	aseba_sin:
 616              	.LFB2:
 617              		.loc 2 181 0
 618              		.cfi_startproc
 619              		@ args = 0, pretend = 0, frame = 24
 620              		@ frame_needed = 0, uses_anonymous_args = 0
 621 0000 00B5     		push	{lr}
 622              		.cfi_def_cfa_offset 4
 623              		.cfi_offset 14, -4
 624 0002 87B0     		sub	sp, sp, #28
 625              		.cfi_def_cfa_offset 32
 626 0004 0346     		mov	r3, r0
 627 0006 ADF80630 		strh	r3, [sp, #6]	@ movhi
ARM GAS  C:\Users\PCHAUT~1\AppData\Local\Temp\ccvICu2w.s 			page 12


 628              		.loc 2 181 0
 629 000a 404B     		ldr	r3, .L33
 630 000c 1B68     		ldr	r3, [r3]
 631 000e 0593     		str	r3, [sp, #20]
 632              		.loc 2 186 0
 633 0010 BDF90630 		ldrsh	r3, [sp, #6]
 634 0014 002B     		cmp	r3, #0
 635 0016 1EDA     		bge	.L22
 636              		.loc 2 188 0
 637 0018 BDF90630 		ldrsh	r3, [sp, #6]
 638 001c 13F5804F 		cmn	r3, #16384
 639 0020 07DA     		bge	.L23
 640              		.loc 2 189 0
 641 0022 BDF80630 		ldrh	r3, [sp, #6]
 642 0026 A3F50043 		sub	r3, r3, #32768
 643 002a 9BB2     		uxth	r3, r3
 644 002c ADF80C30 		strh	r3, [sp, #12]	@ movhi
 645 0030 0DE0     		b	.L24
 646              	.L23:
 647              		.loc 2 190 0
 648 0032 BDF90630 		ldrsh	r3, [sp, #6]
 649 0036 13F5804F 		cmn	r3, #16384
 650 003a 06DD     		ble	.L25
 651              		.loc 2 191 0
 652 003c BDF80630 		ldrh	r3, [sp, #6]
 653 0040 5B42     		negs	r3, r3
 654 0042 9BB2     		uxth	r3, r3
 655 0044 ADF80C30 		strh	r3, [sp, #12]	@ movhi
 656 0048 01E0     		b	.L24
 657              	.L25:
 658              		.loc 2 193 0
 659 004a 314B     		ldr	r3, .L33+4
 660 004c 52E0     		b	.L26
 661              	.L24:
 662              		.loc 2 194 0
 663 004e 0123     		movs	r3, #1
 664 0050 ADF80A30 		strh	r3, [sp, #10]	@ movhi
 665 0054 1CE0     		b	.L27
 666              	.L22:
 667              		.loc 2 198 0
 668 0056 BDF90630 		ldrsh	r3, [sp, #6]
 669 005a B3F5804F 		cmp	r3, #16384
 670 005e 07DD     		ble	.L28
 671              		.loc 2 199 0
 672 0060 BDF80620 		ldrh	r2, [sp, #6]
 673 0064 2B4B     		ldr	r3, .L33+8
 674 0066 9B1A     		subs	r3, r3, r2
 675 0068 9BB2     		uxth	r3, r3
 676 006a ADF80C30 		strh	r3, [sp, #12]	@ movhi
 677 006e 0CE0     		b	.L29
 678              	.L28:
 679              		.loc 2 200 0
 680 0070 BDF90630 		ldrsh	r3, [sp, #6]
 681 0074 B3F5804F 		cmp	r3, #16384
 682 0078 04DA     		bge	.L30
 683              		.loc 2 201 0
 684 007a BDF80630 		ldrh	r3, [sp, #6]	@ movhi
ARM GAS  C:\Users\PCHAUT~1\AppData\Local\Temp\ccvICu2w.s 			page 13


 685 007e ADF80C30 		strh	r3, [sp, #12]	@ movhi
 686 0082 02E0     		b	.L29
 687              	.L30:
 688              		.loc 2 203 0
 689 0084 47F6FF73 		movw	r3, #32767
 690 0088 34E0     		b	.L26
 691              	.L29:
 692              		.loc 2 204 0
 693 008a 0023     		movs	r3, #0
 694 008c ADF80A30 		strh	r3, [sp, #10]	@ movhi
 695              	.L27:
 696              		.loc 2 207 0
 697 0090 BDF90C30 		ldrsh	r3, [sp, #12]
 698 0094 DB11     		asrs	r3, r3, #7
 699 0096 ADF80E30 		strh	r3, [sp, #14]	@ movhi
 700              		.loc 2 208 0
 701 009a BDF80C30 		ldrh	r3, [sp, #12]	@ movhi
 702 009e 03F07F03 		and	r3, r3, #127
 703 00a2 ADF81030 		strh	r3, [sp, #16]	@ movhi
 704              	.LBB6:
 705              		.loc 2 211 0
 706 00a6 BDF90E30 		ldrsh	r3, [sp, #14]
 707 00aa 1B4A     		ldr	r2, .L33+12
 708 00ac 32F91330 		ldrsh	r3, [r2, r3, lsl #1]
 709 00b0 1A46     		mov	r2, r3
 710 00b2 BDF91030 		ldrsh	r3, [sp, #16]
 711 00b6 C3F18003 		rsb	r3, r3, #128
 712 00ba 03FB02F2 		mul	r2, r3, r2
 713 00be BDF90E30 		ldrsh	r3, [sp, #14]
 714 00c2 0133     		adds	r3, r3, #1
 715 00c4 1449     		ldr	r1, .L33+12
 716 00c6 31F91330 		ldrsh	r3, [r1, r3, lsl #1]
 717 00ca 1946     		mov	r1, r3
 718 00cc BDF91030 		ldrsh	r3, [sp, #16]
 719 00d0 03FB01F3 		mul	r3, r3, r1
 720 00d4 1344     		add	r3, r3, r2
 721 00d6 DB11     		asrs	r3, r3, #7
 722 00d8 ADF81230 		strh	r3, [sp, #18]	@ movhi
 723              		.loc 2 213 0
 724 00dc BDF90A30 		ldrsh	r3, [sp, #10]
 725 00e0 002B     		cmp	r3, #0
 726 00e2 05D0     		beq	.L31
 727              		.loc 2 214 0
 728 00e4 BDF81230 		ldrh	r3, [sp, #18]
 729 00e8 5B42     		negs	r3, r3
 730 00ea 9BB2     		uxth	r3, r3
 731 00ec 1BB2     		sxth	r3, r3
 732 00ee 01E0     		b	.L26
 733              	.L31:
 734              		.loc 2 216 0
 735 00f0 BDF91230 		ldrsh	r3, [sp, #18]
 736              	.L26:
 737              	.LBE6:
 738              		.loc 2 218 0
 739 00f4 1846     		mov	r0, r3
 740 00f6 054B     		ldr	r3, .L33
 741 00f8 059A     		ldr	r2, [sp, #20]
ARM GAS  C:\Users\PCHAUT~1\AppData\Local\Temp\ccvICu2w.s 			page 14


 742 00fa 1B68     		ldr	r3, [r3]
 743 00fc 9A42     		cmp	r2, r3
 744 00fe 01D0     		beq	.L32
 745 0100 FFF7FEFF 		bl	__stack_chk_fail
 746              	.L32:
 747 0104 07B0     		add	sp, sp, #28
 748              		.cfi_def_cfa_offset 4
 749              		@ sp needed
 750 0106 5DF804FB 		ldr	pc, [sp], #4
 751              	.L34:
 752 010a 00BF     		.align	2
 753              	.L33:
 754 010c 00000000 		.word	__stack_chk_guard
 755 0110 0180FFFF 		.word	-32767
 756 0114 0080FFFF 		.word	-32768
 757 0118 00000000 		.word	aseba_sin_table
 758              		.cfi_endproc
 759              	.LFE2:
 760              		.size	aseba_sin, .-aseba_sin
 761              		.section	.text.aseba_cos,"ax",%progbits
 762              		.align	1
 763              		.p2align 4,,15
 764              		.global	aseba_cos
 765              		.syntax unified
 766              		.thumb
 767              		.thumb_func
 768              		.fpu fpv4-sp-d16
 769              		.type	aseba_cos, %function
 770              	aseba_cos:
 771              	.LFB3:
 772              		.loc 2 222 0
 773              		.cfi_startproc
 774              		@ args = 0, pretend = 0, frame = 16
 775              		@ frame_needed = 0, uses_anonymous_args = 0
 776 0000 00B5     		push	{lr}
 777              		.cfi_def_cfa_offset 4
 778              		.cfi_offset 14, -4
 779 0002 85B0     		sub	sp, sp, #20
 780              		.cfi_def_cfa_offset 24
 781 0004 0346     		mov	r3, r0
 782 0006 ADF80630 		strh	r3, [sp, #6]	@ movhi
 783              		.loc 2 222 0
 784 000a 0C4B     		ldr	r3, .L38
 785 000c 1B68     		ldr	r3, [r3]
 786 000e 0393     		str	r3, [sp, #12]
 787              		.loc 2 223 0
 788 0010 BDF80630 		ldrh	r3, [sp, #6]
 789 0014 03F58043 		add	r3, r3, #16384
 790 0018 9BB2     		uxth	r3, r3
 791 001a 1BB2     		sxth	r3, r3
 792 001c 1846     		mov	r0, r3
 793 001e FFF7FEFF 		bl	aseba_sin
 794 0022 0346     		mov	r3, r0
 795              		.loc 2 224 0
 796 0024 1846     		mov	r0, r3
 797 0026 054B     		ldr	r3, .L38
 798 0028 039A     		ldr	r2, [sp, #12]
ARM GAS  C:\Users\PCHAUT~1\AppData\Local\Temp\ccvICu2w.s 			page 15


 799 002a 1B68     		ldr	r3, [r3]
 800 002c 9A42     		cmp	r2, r3
 801 002e 01D0     		beq	.L37
 802 0030 FFF7FEFF 		bl	__stack_chk_fail
 803              	.L37:
 804 0034 05B0     		add	sp, sp, #20
 805              		.cfi_def_cfa_offset 4
 806              		@ sp needed
 807 0036 5DF804FB 		ldr	pc, [sp], #4
 808              	.L39:
 809 003a 00BF     		.align	2
 810              	.L38:
 811 003c 00000000 		.word	__stack_chk_guard
 812              		.cfi_endproc
 813              	.LFE3:
 814              		.size	aseba_cos, .-aseba_cos
 815              		.section	.text.aseba_sqrt,"ax",%progbits
 816              		.align	1
 817              		.p2align 4,,15
 818              		.global	aseba_sqrt
 819              		.syntax unified
 820              		.thumb
 821              		.thumb_func
 822              		.fpu fpv4-sp-d16
 823              		.type	aseba_sqrt, %function
 824              	aseba_sqrt:
 825              	.LFB4:
 826              		.loc 2 228 0
 827              		.cfi_startproc
 828              		@ args = 0, pretend = 0, frame = 24
 829              		@ frame_needed = 0, uses_anonymous_args = 0
 830 0000 00B5     		push	{lr}
 831              		.cfi_def_cfa_offset 4
 832              		.cfi_offset 14, -4
 833 0002 87B0     		sub	sp, sp, #28
 834              		.cfi_def_cfa_offset 32
 835 0004 0346     		mov	r3, r0
 836 0006 ADF80630 		strh	r3, [sp, #6]	@ movhi
 837              		.loc 2 228 0
 838 000a 2B4B     		ldr	r3, .L49
 839 000c 1B68     		ldr	r3, [r3]
 840 000e 0593     		str	r3, [sp, #20]
 841              		.loc 2 229 0
 842 0010 BDF80630 		ldrh	r3, [sp, #6]	@ movhi
 843 0014 ADF80E30 		strh	r3, [sp, #14]	@ movhi
 844              		.loc 2 230 0
 845 0018 0023     		movs	r3, #0
 846 001a ADF81030 		strh	r3, [sp, #16]	@ movhi
 847              		.loc 2 231 0
 848 001e 4FF48043 		mov	r3, #16384
 849 0022 ADF81230 		strh	r3, [sp, #18]	@ movhi
 850              		.loc 2 233 0
 851 0026 04E0     		b	.L41
 852              	.L42:
 853              		.loc 2 234 0
 854 0028 BDF91230 		ldrsh	r3, [sp, #18]
 855 002c 9B10     		asrs	r3, r3, #2
ARM GAS  C:\Users\PCHAUT~1\AppData\Local\Temp\ccvICu2w.s 			page 16


 856 002e ADF81230 		strh	r3, [sp, #18]	@ movhi
 857              	.L41:
 858              		.loc 2 233 0
 859 0032 BDF91220 		ldrsh	r2, [sp, #18]
 860 0036 BDF90E30 		ldrsh	r3, [sp, #14]
 861 003a 9A42     		cmp	r2, r3
 862 003c F4DC     		bgt	.L42
 863              		.loc 2 236 0
 864 003e 2AE0     		b	.L43
 865              	.L46:
 866              		.loc 2 238 0
 867 0040 BDF90E20 		ldrsh	r2, [sp, #14]
 868 0044 BDF91010 		ldrsh	r1, [sp, #16]
 869 0048 BDF91230 		ldrsh	r3, [sp, #18]
 870 004c 0B44     		add	r3, r3, r1
 871 004e 9A42     		cmp	r2, r3
 872 0050 17DB     		blt	.L44
 873              		.loc 2 240 0
 874 0052 BDF80E20 		ldrh	r2, [sp, #14]
 875 0056 BDF81010 		ldrh	r1, [sp, #16]
 876 005a BDF81230 		ldrh	r3, [sp, #18]
 877 005e 0B44     		add	r3, r3, r1
 878 0060 9BB2     		uxth	r3, r3
 879 0062 D31A     		subs	r3, r2, r3
 880 0064 9BB2     		uxth	r3, r3
 881 0066 ADF80E30 		strh	r3, [sp, #14]	@ movhi
 882              		.loc 2 241 0
 883 006a BDF91030 		ldrsh	r3, [sp, #16]
 884 006e 5B10     		asrs	r3, r3, #1
 885 0070 1BB2     		sxth	r3, r3
 886 0072 9AB2     		uxth	r2, r3
 887 0074 BDF81230 		ldrh	r3, [sp, #18]
 888 0078 1344     		add	r3, r3, r2
 889 007a 9BB2     		uxth	r3, r3
 890 007c ADF81030 		strh	r3, [sp, #16]	@ movhi
 891 0080 04E0     		b	.L45
 892              	.L44:
 893              		.loc 2 245 0
 894 0082 BDF91030 		ldrsh	r3, [sp, #16]
 895 0086 5B10     		asrs	r3, r3, #1
 896 0088 ADF81030 		strh	r3, [sp, #16]	@ movhi
 897              	.L45:
 898              		.loc 2 247 0
 899 008c BDF91230 		ldrsh	r3, [sp, #18]
 900 0090 9B10     		asrs	r3, r3, #2
 901 0092 ADF81230 		strh	r3, [sp, #18]	@ movhi
 902              	.L43:
 903              		.loc 2 236 0
 904 0096 BDF91230 		ldrsh	r3, [sp, #18]
 905 009a 002B     		cmp	r3, #0
 906 009c D0D1     		bne	.L46
 907              		.loc 2 249 0
 908 009e BDF91030 		ldrsh	r3, [sp, #16]
 909              		.loc 2 250 0
 910 00a2 1846     		mov	r0, r3
 911 00a4 044B     		ldr	r3, .L49
 912 00a6 059A     		ldr	r2, [sp, #20]
ARM GAS  C:\Users\PCHAUT~1\AppData\Local\Temp\ccvICu2w.s 			page 17


 913 00a8 1B68     		ldr	r3, [r3]
 914 00aa 9A42     		cmp	r2, r3
 915 00ac 01D0     		beq	.L48
 916 00ae FFF7FEFF 		bl	__stack_chk_fail
 917              	.L48:
 918 00b2 07B0     		add	sp, sp, #28
 919              		.cfi_def_cfa_offset 4
 920              		@ sp needed
 921 00b4 5DF804FB 		ldr	pc, [sp], #4
 922              	.L50:
 923              		.align	2
 924              	.L49:
 925 00b8 00000000 		.word	__stack_chk_guard
 926              		.cfi_endproc
 927              	.LFE4:
 928              		.size	aseba_sqrt, .-aseba_sqrt
 929              		.section	.text.aseba_comb_sort,"ax",%progbits
 930              		.align	1
 931              		.p2align 4,,15
 932              		.global	aseba_comb_sort
 933              		.syntax unified
 934              		.thumb
 935              		.thumb_func
 936              		.fpu fpv4-sp-d16
 937              		.type	aseba_comb_sort, %function
 938              	aseba_comb_sort:
 939              	.LFB5:
 940              		.loc 2 254 0
 941              		.cfi_startproc
 942              		@ args = 0, pretend = 0, frame = 24
 943              		@ frame_needed = 0, uses_anonymous_args = 0
 944 0000 00B5     		push	{lr}
 945              		.cfi_def_cfa_offset 4
 946              		.cfi_offset 14, -4
 947 0002 87B0     		sub	sp, sp, #28
 948              		.cfi_def_cfa_offset 32
 949 0004 0190     		str	r0, [sp, #4]
 950 0006 0B46     		mov	r3, r1
 951 0008 ADF80230 		strh	r3, [sp, #2]	@ movhi
 952              		.loc 2 254 0
 953 000c 3D4B     		ldr	r3, .L59
 954 000e 1B68     		ldr	r3, [r3]
 955 0010 0593     		str	r3, [sp, #20]
 956              		.loc 2 255 0
 957 0012 BDF80230 		ldrh	r3, [sp, #2]	@ movhi
 958 0016 ADF80C30 		strh	r3, [sp, #12]	@ movhi
 959              		.loc 2 256 0
 960 001a 0023     		movs	r3, #0
 961 001c ADF80E30 		strh	r3, [sp, #14]	@ movhi
 962              		.loc 2 259 0
 963 0020 5CE0     		b	.L52
 964              	.L57:
 965              		.loc 2 261 0
 966 0022 BDF80C30 		ldrh	r3, [sp, #12]
 967 0026 012B     		cmp	r3, #1
 968 0028 08D9     		bls	.L53
 969              		.loc 2 266 0
ARM GAS  C:\Users\PCHAUT~1\AppData\Local\Temp\ccvICu2w.s 			page 18


 970 002a BDF80C30 		ldrh	r3, [sp, #12]
 971 002e 9B00     		lsls	r3, r3, #2
 972 0030 354A     		ldr	r2, .L59+4
 973 0032 A2FB0323 		umull	r2, r3, r2, r3
 974 0036 9B08     		lsrs	r3, r3, #2
 975 0038 ADF80C30 		strh	r3, [sp, #12]	@ movhi
 976              	.L53:
 977              		.loc 2 270 0
 978 003c 0023     		movs	r3, #0
 979 003e ADF80E30 		strh	r3, [sp, #14]	@ movhi
 980              		.loc 2 272 0
 981 0042 0023     		movs	r3, #0
 982 0044 ADF81030 		strh	r3, [sp, #16]	@ movhi
 983 0048 3FE0     		b	.L54
 984              	.L56:
 985              		.loc 2 274 0
 986 004a BDF81030 		ldrh	r3, [sp, #16]
 987 004e 5B00     		lsls	r3, r3, #1
 988 0050 019A     		ldr	r2, [sp, #4]
 989 0052 1344     		add	r3, r3, r2
 990 0054 B3F90030 		ldrsh	r3, [r3]
 991 0058 1946     		mov	r1, r3
 992 005a BDF81020 		ldrh	r2, [sp, #16]
 993 005e BDF80C30 		ldrh	r3, [sp, #12]
 994 0062 1344     		add	r3, r3, r2
 995 0064 5B00     		lsls	r3, r3, #1
 996 0066 019A     		ldr	r2, [sp, #4]
 997 0068 1344     		add	r3, r3, r2
 998 006a B3F90030 		ldrsh	r3, [r3]
 999 006e CB1A     		subs	r3, r1, r3
 1000 0070 002B     		cmp	r3, #0
 1001 0072 25DD     		ble	.L55
 1002              	.LBB7:
 1003              		.loc 2 276 0
 1004 0074 BDF81030 		ldrh	r3, [sp, #16]
 1005 0078 5B00     		lsls	r3, r3, #1
 1006 007a 019A     		ldr	r2, [sp, #4]
 1007 007c 1344     		add	r3, r3, r2
 1008 007e 1B88     		ldrh	r3, [r3]	@ movhi
 1009 0080 ADF81230 		strh	r3, [sp, #18]	@ movhi
 1010              		.loc 2 277 0
 1011 0084 BDF81020 		ldrh	r2, [sp, #16]
 1012 0088 BDF80C30 		ldrh	r3, [sp, #12]
 1013 008c 1344     		add	r3, r3, r2
 1014 008e 5B00     		lsls	r3, r3, #1
 1015 0090 019A     		ldr	r2, [sp, #4]
 1016 0092 1A44     		add	r2, r2, r3
 1017 0094 BDF81030 		ldrh	r3, [sp, #16]
 1018 0098 5B00     		lsls	r3, r3, #1
 1019 009a 0199     		ldr	r1, [sp, #4]
 1020 009c 0B44     		add	r3, r3, r1
 1021 009e B2F90020 		ldrsh	r2, [r2]
 1022 00a2 1A80     		strh	r2, [r3]	@ movhi
 1023              		.loc 2 278 0
 1024 00a4 BDF81020 		ldrh	r2, [sp, #16]
 1025 00a8 BDF80C30 		ldrh	r3, [sp, #12]
 1026 00ac 1344     		add	r3, r3, r2
ARM GAS  C:\Users\PCHAUT~1\AppData\Local\Temp\ccvICu2w.s 			page 19


 1027 00ae 5B00     		lsls	r3, r3, #1
 1028 00b0 019A     		ldr	r2, [sp, #4]
 1029 00b2 1344     		add	r3, r3, r2
 1030 00b4 BDF81220 		ldrh	r2, [sp, #18]	@ movhi
 1031 00b8 1A80     		strh	r2, [r3]	@ movhi
 1032              		.loc 2 279 0
 1033 00ba 0123     		movs	r3, #1
 1034 00bc ADF80E30 		strh	r3, [sp, #14]	@ movhi
 1035              	.L55:
 1036              	.LBE7:
 1037              		.loc 2 272 0 discriminator 2
 1038 00c0 BDF81030 		ldrh	r3, [sp, #16]
 1039 00c4 0133     		adds	r3, r3, #1
 1040 00c6 ADF81030 		strh	r3, [sp, #16]	@ movhi
 1041              	.L54:
 1042              		.loc 2 272 0 is_stmt 0 discriminator 1
 1043 00ca BDF80C20 		ldrh	r2, [sp, #12]
 1044 00ce BDF81030 		ldrh	r3, [sp, #16]
 1045 00d2 1A44     		add	r2, r2, r3
 1046 00d4 BDF80230 		ldrh	r3, [sp, #2]
 1047 00d8 9A42     		cmp	r2, r3
 1048 00da B6DB     		blt	.L56
 1049              	.L52:
 1050              		.loc 2 259 0 is_stmt 1
 1051 00dc BDF80C30 		ldrh	r3, [sp, #12]
 1052 00e0 012B     		cmp	r3, #1
 1053 00e2 9ED8     		bhi	.L57
 1054              		.loc 2 259 0 is_stmt 0 discriminator 1
 1055 00e4 BDF80E30 		ldrh	r3, [sp, #14]
 1056 00e8 002B     		cmp	r3, #0
 1057 00ea 9AD1     		bne	.L57
 1058              		.loc 2 283 0 is_stmt 1
 1059 00ec 00BF     		nop
 1060 00ee 054B     		ldr	r3, .L59
 1061 00f0 059A     		ldr	r2, [sp, #20]
 1062 00f2 1B68     		ldr	r3, [r3]
 1063 00f4 9A42     		cmp	r2, r3
 1064 00f6 01D0     		beq	.L58
 1065 00f8 FFF7FEFF 		bl	__stack_chk_fail
 1066              	.L58:
 1067 00fc 07B0     		add	sp, sp, #28
 1068              		.cfi_def_cfa_offset 4
 1069              		@ sp needed
 1070 00fe 5DF804FB 		ldr	pc, [sp], #4
 1071              	.L60:
 1072 0102 00BF     		.align	2
 1073              	.L59:
 1074 0104 00000000 		.word	__stack_chk_guard
 1075 0108 CDCCCCCC 		.word	-858993459
 1076              		.cfi_endproc
 1077              	.LFE5:
 1078              		.size	aseba_comb_sort, .-aseba_comb_sort
 1079              		.section	.text.AsebaNative_veccopy,"ax",%progbits
 1080              		.align	1
 1081              		.p2align 4,,15
 1082              		.global	AsebaNative_veccopy
 1083              		.syntax unified
ARM GAS  C:\Users\PCHAUT~1\AppData\Local\Temp\ccvICu2w.s 			page 20


 1084              		.thumb
 1085              		.thumb_func
 1086              		.fpu fpv4-sp-d16
 1087              		.type	AsebaNative_veccopy, %function
 1088              	AsebaNative_veccopy:
 1089              	.LFB6:
 1090              		.loc 2 289 0
 1091              		.cfi_startproc
 1092              		@ args = 0, pretend = 0, frame = 24
 1093              		@ frame_needed = 0, uses_anonymous_args = 0
 1094 0000 00B5     		push	{lr}
 1095              		.cfi_def_cfa_offset 4
 1096              		.cfi_offset 14, -4
 1097 0002 87B0     		sub	sp, sp, #28
 1098              		.cfi_def_cfa_offset 32
 1099 0004 0190     		str	r0, [sp, #4]
 1100              		.loc 2 289 0
 1101 0006 224B     		ldr	r3, .L65
 1102 0008 1B68     		ldr	r3, [r3]
 1103 000a 0593     		str	r3, [sp, #20]
 1104              		.loc 2 291 0
 1105 000c 0198     		ldr	r0, [sp, #4]
 1106 000e FFF7FEFF 		bl	AsebaNativePopArg
 1107 0012 0346     		mov	r3, r0
 1108 0014 ADF80C30 		strh	r3, [sp, #12]	@ movhi
 1109              		.loc 2 292 0
 1110 0018 0198     		ldr	r0, [sp, #4]
 1111 001a FFF7FEFF 		bl	AsebaNativePopArg
 1112 001e 0346     		mov	r3, r0
 1113 0020 ADF80E30 		strh	r3, [sp, #14]	@ movhi
 1114              		.loc 2 295 0
 1115 0024 0198     		ldr	r0, [sp, #4]
 1116 0026 FFF7FEFF 		bl	AsebaNativePopArg
 1117 002a 0346     		mov	r3, r0
 1118 002c ADF81230 		strh	r3, [sp, #18]	@ movhi
 1119              		.loc 2 299 0
 1120 0030 0023     		movs	r3, #0
 1121 0032 ADF81030 		strh	r3, [sp, #16]	@ movhi
 1122 0036 19E0     		b	.L62
 1123              	.L63:
 1124              		.loc 2 301 0 discriminator 3
 1125 0038 019B     		ldr	r3, [sp, #4]
 1126 003a DA68     		ldr	r2, [r3, #12]
 1127 003c BDF80E30 		ldrh	r3, [sp, #14]
 1128 0040 591C     		adds	r1, r3, #1
 1129 0042 ADF80E10 		strh	r1, [sp, #14]	@ movhi
 1130 0046 5B00     		lsls	r3, r3, #1
 1131 0048 1A44     		add	r2, r2, r3
 1132 004a 019B     		ldr	r3, [sp, #4]
 1133 004c D968     		ldr	r1, [r3, #12]
 1134 004e BDF80C30 		ldrh	r3, [sp, #12]
 1135 0052 581C     		adds	r0, r3, #1
 1136 0054 ADF80C00 		strh	r0, [sp, #12]	@ movhi
 1137 0058 5B00     		lsls	r3, r3, #1
 1138 005a 0B44     		add	r3, r3, r1
 1139 005c B2F90020 		ldrsh	r2, [r2]
 1140 0060 1A80     		strh	r2, [r3]	@ movhi
ARM GAS  C:\Users\PCHAUT~1\AppData\Local\Temp\ccvICu2w.s 			page 21


 1141              		.loc 2 299 0 discriminator 3
 1142 0062 BDF81030 		ldrh	r3, [sp, #16]
 1143 0066 0133     		adds	r3, r3, #1
 1144 0068 ADF81030 		strh	r3, [sp, #16]	@ movhi
 1145              	.L62:
 1146              		.loc 2 299 0 is_stmt 0 discriminator 1
 1147 006c BDF81020 		ldrh	r2, [sp, #16]
 1148 0070 BDF81230 		ldrh	r3, [sp, #18]
 1149 0074 9A42     		cmp	r2, r3
 1150 0076 DFD3     		bcc	.L63
 1151              		.loc 2 303 0 is_stmt 1
 1152 0078 00BF     		nop
 1153 007a 054B     		ldr	r3, .L65
 1154 007c 059A     		ldr	r2, [sp, #20]
 1155 007e 1B68     		ldr	r3, [r3]
 1156 0080 9A42     		cmp	r2, r3
 1157 0082 01D0     		beq	.L64
 1158 0084 FFF7FEFF 		bl	__stack_chk_fail
 1159              	.L64:
 1160 0088 07B0     		add	sp, sp, #28
 1161              		.cfi_def_cfa_offset 4
 1162              		@ sp needed
 1163 008a 5DF804FB 		ldr	pc, [sp], #4
 1164              	.L66:
 1165 008e 00BF     		.align	2
 1166              	.L65:
 1167 0090 00000000 		.word	__stack_chk_guard
 1168              		.cfi_endproc
 1169              	.LFE6:
 1170              		.size	AsebaNative_veccopy, .-AsebaNative_veccopy
 1171              		.global	AsebaNativeDescription_veccopy
 1172              		.section	.rodata
 1173              		.align	2
 1174              	.LC0:
 1175 0000 6D617468 		.ascii	"math.copy\000"
 1175      2E636F70 
 1175      7900
 1176 000a 0000     		.align	2
 1177              	.LC1:
 1178 000c 636F7069 		.ascii	"copies src to dest element by element\000"
 1178      65732073 
 1178      72632074 
 1178      6F206465 
 1178      73742065 
 1179 0032 0000     		.align	2
 1180              	.LC2:
 1181 0034 64657374 		.ascii	"dest\000"
 1181      00
 1182 0039 000000   		.align	2
 1183              	.LC3:
 1184 003c 73726300 		.ascii	"src\000"
 1185              		.section	.rodata.AsebaNativeDescription_veccopy,"a",%progbits
 1186              		.align	2
 1187              		.type	AsebaNativeDescription_veccopy, %object
 1188              		.size	AsebaNativeDescription_veccopy, 32
 1189              	AsebaNativeDescription_veccopy:
 1190 0000 00000000 		.word	.LC0
ARM GAS  C:\Users\PCHAUT~1\AppData\Local\Temp\ccvICu2w.s 			page 22


 1191 0004 0C000000 		.word	.LC1
 1192 0008 FFFF     		.short	-1
 1193 000a 0000     		.space	2
 1194 000c 34000000 		.word	.LC2
 1195 0010 FFFF     		.short	-1
 1196 0012 0000     		.space	2
 1197 0014 3C000000 		.word	.LC3
 1198 0018 0000     		.short	0
 1199 001a 0000     		.space	2
 1200 001c 00000000 		.word	0
 1201              		.section	.text.AsebaNative_vecfill,"ax",%progbits
 1202              		.align	1
 1203              		.p2align 4,,15
 1204              		.global	AsebaNative_vecfill
 1205              		.syntax unified
 1206              		.thumb
 1207              		.thumb_func
 1208              		.fpu fpv4-sp-d16
 1209              		.type	AsebaNative_vecfill, %function
 1210              	AsebaNative_vecfill:
 1211              	.LFB7:
 1212              		.loc 2 318 0
 1213              		.cfi_startproc
 1214              		@ args = 0, pretend = 0, frame = 24
 1215              		@ frame_needed = 0, uses_anonymous_args = 0
 1216 0000 00B5     		push	{lr}
 1217              		.cfi_def_cfa_offset 4
 1218              		.cfi_offset 14, -4
 1219 0002 87B0     		sub	sp, sp, #28
 1220              		.cfi_def_cfa_offset 32
 1221 0004 0190     		str	r0, [sp, #4]
 1222              		.loc 2 318 0
 1223 0006 204B     		ldr	r3, .L71
 1224 0008 1B68     		ldr	r3, [r3]
 1225 000a 0593     		str	r3, [sp, #20]
 1226              		.loc 2 320 0
 1227 000c 0198     		ldr	r0, [sp, #4]
 1228 000e FFF7FEFF 		bl	AsebaNativePopArg
 1229 0012 0346     		mov	r3, r0
 1230 0014 ADF80C30 		strh	r3, [sp, #12]	@ movhi
 1231              		.loc 2 321 0
 1232 0018 0198     		ldr	r0, [sp, #4]
 1233 001a FFF7FEFF 		bl	AsebaNativePopArg
 1234 001e 0346     		mov	r3, r0
 1235 0020 ADF81030 		strh	r3, [sp, #16]	@ movhi
 1236              		.loc 2 324 0
 1237 0024 0198     		ldr	r0, [sp, #4]
 1238 0026 FFF7FEFF 		bl	AsebaNativePopArg
 1239 002a 0346     		mov	r3, r0
 1240 002c ADF81230 		strh	r3, [sp, #18]	@ movhi
 1241              		.loc 2 328 0
 1242 0030 0023     		movs	r3, #0
 1243 0032 ADF80E30 		strh	r3, [sp, #14]	@ movhi
 1244 0036 16E0     		b	.L68
 1245              	.L69:
 1246              		.loc 2 330 0 discriminator 3
 1247 0038 019B     		ldr	r3, [sp, #4]
ARM GAS  C:\Users\PCHAUT~1\AppData\Local\Temp\ccvICu2w.s 			page 23


 1248 003a DA68     		ldr	r2, [r3, #12]
 1249 003c BDF81030 		ldrh	r3, [sp, #16]
 1250 0040 5B00     		lsls	r3, r3, #1
 1251 0042 1A44     		add	r2, r2, r3
 1252 0044 019B     		ldr	r3, [sp, #4]
 1253 0046 D968     		ldr	r1, [r3, #12]
 1254 0048 BDF80C30 		ldrh	r3, [sp, #12]
 1255 004c 581C     		adds	r0, r3, #1
 1256 004e ADF80C00 		strh	r0, [sp, #12]	@ movhi
 1257 0052 5B00     		lsls	r3, r3, #1
 1258 0054 0B44     		add	r3, r3, r1
 1259 0056 B2F90020 		ldrsh	r2, [r2]
 1260 005a 1A80     		strh	r2, [r3]	@ movhi
 1261              		.loc 2 328 0 discriminator 3
 1262 005c BDF80E30 		ldrh	r3, [sp, #14]
 1263 0060 0133     		adds	r3, r3, #1
 1264 0062 ADF80E30 		strh	r3, [sp, #14]	@ movhi
 1265              	.L68:
 1266              		.loc 2 328 0 is_stmt 0 discriminator 1
 1267 0066 BDF80E20 		ldrh	r2, [sp, #14]
 1268 006a BDF81230 		ldrh	r3, [sp, #18]
 1269 006e 9A42     		cmp	r2, r3
 1270 0070 E2D3     		bcc	.L69
 1271              		.loc 2 332 0 is_stmt 1
 1272 0072 00BF     		nop
 1273 0074 044B     		ldr	r3, .L71
 1274 0076 059A     		ldr	r2, [sp, #20]
 1275 0078 1B68     		ldr	r3, [r3]
 1276 007a 9A42     		cmp	r2, r3
 1277 007c 01D0     		beq	.L70
 1278 007e FFF7FEFF 		bl	__stack_chk_fail
 1279              	.L70:
 1280 0082 07B0     		add	sp, sp, #28
 1281              		.cfi_def_cfa_offset 4
 1282              		@ sp needed
 1283 0084 5DF804FB 		ldr	pc, [sp], #4
 1284              	.L72:
 1285              		.align	2
 1286              	.L71:
 1287 0088 00000000 		.word	__stack_chk_guard
 1288              		.cfi_endproc
 1289              	.LFE7:
 1290              		.size	AsebaNative_vecfill, .-AsebaNative_vecfill
 1291              		.global	AsebaNativeDescription_vecfill
 1292              		.section	.rodata
 1293              		.align	2
 1294              	.LC4:
 1295 0040 6D617468 		.ascii	"math.fill\000"
 1295      2E66696C 
 1295      6C00
 1296 004a 0000     		.align	2
 1297              	.LC5:
 1298 004c 66696C6C 		.ascii	"fills dest with constant value\000"
 1298      73206465 
 1298      73742077 
 1298      69746820 
 1298      636F6E73 
ARM GAS  C:\Users\PCHAUT~1\AppData\Local\Temp\ccvICu2w.s 			page 24


 1299 006b 00       		.align	2
 1300              	.LC6:
 1301 006c 76616C75 		.ascii	"value\000"
 1301      6500
 1302              		.section	.rodata.AsebaNativeDescription_vecfill,"a",%progbits
 1303              		.align	2
 1304              		.type	AsebaNativeDescription_vecfill, %object
 1305              		.size	AsebaNativeDescription_vecfill, 32
 1306              	AsebaNativeDescription_vecfill:
 1307 0000 40000000 		.word	.LC4
 1308 0004 4C000000 		.word	.LC5
 1309 0008 FFFF     		.short	-1
 1310 000a 0000     		.space	2
 1311 000c 34000000 		.word	.LC2
 1312 0010 0100     		.short	1
 1313 0012 0000     		.space	2
 1314 0014 6C000000 		.word	.LC6
 1315 0018 0000     		.short	0
 1316 001a 0000     		.space	2
 1317 001c 00000000 		.word	0
 1318              		.section	.text.AsebaNative_vecaddscalar,"ax",%progbits
 1319              		.align	1
 1320              		.p2align 4,,15
 1321              		.global	AsebaNative_vecaddscalar
 1322              		.syntax unified
 1323              		.thumb
 1324              		.thumb_func
 1325              		.fpu fpv4-sp-d16
 1326              		.type	AsebaNative_vecaddscalar, %function
 1327              	AsebaNative_vecaddscalar:
 1328              	.LFB8:
 1329              		.loc 2 347 0
 1330              		.cfi_startproc
 1331              		@ args = 0, pretend = 0, frame = 24
 1332              		@ frame_needed = 0, uses_anonymous_args = 0
 1333 0000 00B5     		push	{lr}
 1334              		.cfi_def_cfa_offset 4
 1335              		.cfi_offset 14, -4
 1336 0002 87B0     		sub	sp, sp, #28
 1337              		.cfi_def_cfa_offset 32
 1338 0004 0190     		str	r0, [sp, #4]
 1339              		.loc 2 347 0
 1340 0006 2C4B     		ldr	r3, .L77
 1341 0008 1B68     		ldr	r3, [r3]
 1342 000a 0593     		str	r3, [sp, #20]
 1343              		.loc 2 349 0
 1344 000c 0198     		ldr	r0, [sp, #4]
 1345 000e FFF7FEFF 		bl	AsebaNativePopArg
 1346 0012 0346     		mov	r3, r0
 1347 0014 ADF80830 		strh	r3, [sp, #8]	@ movhi
 1348              		.loc 2 350 0
 1349 0018 0198     		ldr	r0, [sp, #4]
 1350 001a FFF7FEFF 		bl	AsebaNativePopArg
 1351 001e 0346     		mov	r3, r0
 1352 0020 ADF80A30 		strh	r3, [sp, #10]	@ movhi
 1353              		.loc 2 351 0
 1354 0024 0198     		ldr	r0, [sp, #4]
ARM GAS  C:\Users\PCHAUT~1\AppData\Local\Temp\ccvICu2w.s 			page 25


 1355 0026 FFF7FEFF 		bl	AsebaNativePopArg
 1356 002a 0346     		mov	r3, r0
 1357 002c ADF80E30 		strh	r3, [sp, #14]	@ movhi
 1358              		.loc 2 354 0
 1359 0030 0198     		ldr	r0, [sp, #4]
 1360 0032 FFF7FEFF 		bl	AsebaNativePopArg
 1361 0036 0346     		mov	r3, r0
 1362 0038 ADF81030 		strh	r3, [sp, #16]	@ movhi
 1363              		.loc 2 356 0
 1364 003c 019B     		ldr	r3, [sp, #4]
 1365 003e DA68     		ldr	r2, [r3, #12]
 1366 0040 BDF80E30 		ldrh	r3, [sp, #14]
 1367 0044 5B00     		lsls	r3, r3, #1
 1368 0046 1344     		add	r3, r3, r2
 1369 0048 1B88     		ldrh	r3, [r3]	@ movhi
 1370 004a ADF81230 		strh	r3, [sp, #18]	@ movhi
 1371              		.loc 2 358 0
 1372 004e 0023     		movs	r3, #0
 1373 0050 ADF80C30 		strh	r3, [sp, #12]	@ movhi
 1374 0054 1FE0     		b	.L74
 1375              	.L75:
 1376              		.loc 2 360 0 discriminator 3
 1377 0056 019B     		ldr	r3, [sp, #4]
 1378 0058 DA68     		ldr	r2, [r3, #12]
 1379 005a BDF80A30 		ldrh	r3, [sp, #10]
 1380 005e 591C     		adds	r1, r3, #1
 1381 0060 ADF80A10 		strh	r1, [sp, #10]	@ movhi
 1382 0064 5B00     		lsls	r3, r3, #1
 1383 0066 1344     		add	r3, r3, r2
 1384 0068 B3F90030 		ldrsh	r3, [r3]
 1385 006c 9AB2     		uxth	r2, r3
 1386 006e BDF81230 		ldrh	r3, [sp, #18]
 1387 0072 1344     		add	r3, r3, r2
 1388 0074 99B2     		uxth	r1, r3
 1389 0076 019B     		ldr	r3, [sp, #4]
 1390 0078 DA68     		ldr	r2, [r3, #12]
 1391 007a BDF80830 		ldrh	r3, [sp, #8]
 1392 007e 581C     		adds	r0, r3, #1
 1393 0080 ADF80800 		strh	r0, [sp, #8]	@ movhi
 1394 0084 5B00     		lsls	r3, r3, #1
 1395 0086 1344     		add	r3, r3, r2
 1396 0088 0AB2     		sxth	r2, r1
 1397 008a 1A80     		strh	r2, [r3]	@ movhi
 1398              		.loc 2 358 0 discriminator 3
 1399 008c BDF80C30 		ldrh	r3, [sp, #12]
 1400 0090 0133     		adds	r3, r3, #1
 1401 0092 ADF80C30 		strh	r3, [sp, #12]	@ movhi
 1402              	.L74:
 1403              		.loc 2 358 0 is_stmt 0 discriminator 1
 1404 0096 BDF80C20 		ldrh	r2, [sp, #12]
 1405 009a BDF81030 		ldrh	r3, [sp, #16]
 1406 009e 9A42     		cmp	r2, r3
 1407 00a0 D9D3     		bcc	.L75
 1408              		.loc 2 362 0 is_stmt 1
 1409 00a2 00BF     		nop
 1410 00a4 044B     		ldr	r3, .L77
 1411 00a6 059A     		ldr	r2, [sp, #20]
ARM GAS  C:\Users\PCHAUT~1\AppData\Local\Temp\ccvICu2w.s 			page 26


 1412 00a8 1B68     		ldr	r3, [r3]
 1413 00aa 9A42     		cmp	r2, r3
 1414 00ac 01D0     		beq	.L76
 1415 00ae FFF7FEFF 		bl	__stack_chk_fail
 1416              	.L76:
 1417 00b2 07B0     		add	sp, sp, #28
 1418              		.cfi_def_cfa_offset 4
 1419              		@ sp needed
 1420 00b4 5DF804FB 		ldr	pc, [sp], #4
 1421              	.L78:
 1422              		.align	2
 1423              	.L77:
 1424 00b8 00000000 		.word	__stack_chk_guard
 1425              		.cfi_endproc
 1426              	.LFE8:
 1427              		.size	AsebaNative_vecaddscalar, .-AsebaNative_vecaddscalar
 1428              		.global	AsebaNativeDescription_vecaddscalar
 1429              		.section	.rodata
 1430 0072 0000     		.align	2
 1431              	.LC7:
 1432 0074 6D617468 		.ascii	"math.addscalar\000"
 1432      2E616464 
 1432      7363616C 
 1432      617200
 1433 0083 00       		.align	2
 1434              	.LC8:
 1435 0084 61646420 		.ascii	"add scalar to each element of src and store result "
 1435      7363616C 
 1435      61722074 
 1435      6F206561 
 1435      63682065 
 1436 00b7 746F2064 		.ascii	"to dest\000"
 1436      65737400 
 1437 00bf 00       		.align	2
 1438              	.LC9:
 1439 00c0 7363616C 		.ascii	"scalar\000"
 1439      617200
 1440              		.section	.rodata.AsebaNativeDescription_vecaddscalar,"a",%progbits
 1441              		.align	2
 1442              		.type	AsebaNativeDescription_vecaddscalar, %object
 1443              		.size	AsebaNativeDescription_vecaddscalar, 40
 1444              	AsebaNativeDescription_vecaddscalar:
 1445 0000 74000000 		.word	.LC7
 1446 0004 84000000 		.word	.LC8
 1447 0008 FFFF     		.short	-1
 1448 000a 0000     		.space	2
 1449 000c 34000000 		.word	.LC2
 1450 0010 FFFF     		.short	-1
 1451 0012 0000     		.space	2
 1452 0014 3C000000 		.word	.LC3
 1453 0018 0100     		.short	1
 1454 001a 0000     		.space	2
 1455 001c C0000000 		.word	.LC9
 1456 0020 0000     		.short	0
 1457 0022 0000     		.space	2
 1458 0024 00000000 		.word	0
 1459              		.section	.text.AsebaNative_vecadd,"ax",%progbits
ARM GAS  C:\Users\PCHAUT~1\AppData\Local\Temp\ccvICu2w.s 			page 27


 1460              		.align	1
 1461              		.p2align 4,,15
 1462              		.global	AsebaNative_vecadd
 1463              		.syntax unified
 1464              		.thumb
 1465              		.thumb_func
 1466              		.fpu fpv4-sp-d16
 1467              		.type	AsebaNative_vecadd, %function
 1468              	AsebaNative_vecadd:
 1469              	.LFB9:
 1470              		.loc 2 378 0
 1471              		.cfi_startproc
 1472              		@ args = 0, pretend = 0, frame = 24
 1473              		@ frame_needed = 0, uses_anonymous_args = 0
 1474 0000 00B5     		push	{lr}
 1475              		.cfi_def_cfa_offset 4
 1476              		.cfi_offset 14, -4
 1477 0002 87B0     		sub	sp, sp, #28
 1478              		.cfi_def_cfa_offset 32
 1479 0004 0190     		str	r0, [sp, #4]
 1480              		.loc 2 378 0
 1481 0006 2D4B     		ldr	r3, .L83
 1482 0008 1B68     		ldr	r3, [r3]
 1483 000a 0593     		str	r3, [sp, #20]
 1484              		.loc 2 380 0
 1485 000c 0198     		ldr	r0, [sp, #4]
 1486 000e FFF7FEFF 		bl	AsebaNativePopArg
 1487 0012 0346     		mov	r3, r0
 1488 0014 ADF80A30 		strh	r3, [sp, #10]	@ movhi
 1489              		.loc 2 381 0
 1490 0018 0198     		ldr	r0, [sp, #4]
 1491 001a FFF7FEFF 		bl	AsebaNativePopArg
 1492 001e 0346     		mov	r3, r0
 1493 0020 ADF80C30 		strh	r3, [sp, #12]	@ movhi
 1494              		.loc 2 382 0
 1495 0024 0198     		ldr	r0, [sp, #4]
 1496 0026 FFF7FEFF 		bl	AsebaNativePopArg
 1497 002a 0346     		mov	r3, r0
 1498 002c ADF80E30 		strh	r3, [sp, #14]	@ movhi
 1499              		.loc 2 385 0
 1500 0030 0198     		ldr	r0, [sp, #4]
 1501 0032 FFF7FEFF 		bl	AsebaNativePopArg
 1502 0036 0346     		mov	r3, r0
 1503 0038 ADF81230 		strh	r3, [sp, #18]	@ movhi
 1504              		.loc 2 388 0
 1505 003c 0023     		movs	r3, #0
 1506 003e ADF81030 		strh	r3, [sp, #16]	@ movhi
 1507 0042 29E0     		b	.L80
 1508              	.L81:
 1509              		.loc 2 390 0 discriminator 3
 1510 0044 019B     		ldr	r3, [sp, #4]
 1511 0046 DA68     		ldr	r2, [r3, #12]
 1512 0048 BDF80C30 		ldrh	r3, [sp, #12]
 1513 004c 591C     		adds	r1, r3, #1
 1514 004e ADF80C10 		strh	r1, [sp, #12]	@ movhi
 1515 0052 5B00     		lsls	r3, r3, #1
 1516 0054 1344     		add	r3, r3, r2
ARM GAS  C:\Users\PCHAUT~1\AppData\Local\Temp\ccvICu2w.s 			page 28


 1517 0056 B3F90030 		ldrsh	r3, [r3]
 1518 005a 9AB2     		uxth	r2, r3
 1519 005c 019B     		ldr	r3, [sp, #4]
 1520 005e D968     		ldr	r1, [r3, #12]
 1521 0060 BDF80E30 		ldrh	r3, [sp, #14]
 1522 0064 581C     		adds	r0, r3, #1
 1523 0066 ADF80E00 		strh	r0, [sp, #14]	@ movhi
 1524 006a 5B00     		lsls	r3, r3, #1
 1525 006c 0B44     		add	r3, r3, r1
 1526 006e B3F90030 		ldrsh	r3, [r3]
 1527 0072 9BB2     		uxth	r3, r3
 1528 0074 1344     		add	r3, r3, r2
 1529 0076 99B2     		uxth	r1, r3
 1530 0078 019B     		ldr	r3, [sp, #4]
 1531 007a DA68     		ldr	r2, [r3, #12]
 1532 007c BDF80A30 		ldrh	r3, [sp, #10]
 1533 0080 581C     		adds	r0, r3, #1
 1534 0082 ADF80A00 		strh	r0, [sp, #10]	@ movhi
 1535 0086 5B00     		lsls	r3, r3, #1
 1536 0088 1344     		add	r3, r3, r2
 1537 008a 0AB2     		sxth	r2, r1
 1538 008c 1A80     		strh	r2, [r3]	@ movhi
 1539              		.loc 2 388 0 discriminator 3
 1540 008e BDF81030 		ldrh	r3, [sp, #16]
 1541 0092 0133     		adds	r3, r3, #1
 1542 0094 ADF81030 		strh	r3, [sp, #16]	@ movhi
 1543              	.L80:
 1544              		.loc 2 388 0 is_stmt 0 discriminator 1
 1545 0098 BDF81020 		ldrh	r2, [sp, #16]
 1546 009c BDF81230 		ldrh	r3, [sp, #18]
 1547 00a0 9A42     		cmp	r2, r3
 1548 00a2 CFD3     		bcc	.L81
 1549              		.loc 2 392 0 is_stmt 1
 1550 00a4 00BF     		nop
 1551 00a6 054B     		ldr	r3, .L83
 1552 00a8 059A     		ldr	r2, [sp, #20]
 1553 00aa 1B68     		ldr	r3, [r3]
 1554 00ac 9A42     		cmp	r2, r3
 1555 00ae 01D0     		beq	.L82
 1556 00b0 FFF7FEFF 		bl	__stack_chk_fail
 1557              	.L82:
 1558 00b4 07B0     		add	sp, sp, #28
 1559              		.cfi_def_cfa_offset 4
 1560              		@ sp needed
 1561 00b6 5DF804FB 		ldr	pc, [sp], #4
 1562              	.L84:
 1563 00ba 00BF     		.align	2
 1564              	.L83:
 1565 00bc 00000000 		.word	__stack_chk_guard
 1566              		.cfi_endproc
 1567              	.LFE9:
 1568              		.size	AsebaNative_vecadd, .-AsebaNative_vecadd
 1569              		.global	AsebaNativeDescription_vecadd
 1570              		.section	.rodata
 1571 00c7 00       		.align	2
 1572              	.LC10:
 1573 00c8 6D617468 		.ascii	"math.add\000"
ARM GAS  C:\Users\PCHAUT~1\AppData\Local\Temp\ccvICu2w.s 			page 29


 1573      2E616464 
 1573      00
 1574 00d1 000000   		.align	2
 1575              	.LC11:
 1576 00d4 61646473 		.ascii	"adds src1 and src2 to dest, element by element\000"
 1576      20737263 
 1576      3120616E 
 1576      64207372 
 1576      63322074 
 1577 0103 00       		.align	2
 1578              	.LC12:
 1579 0104 73726331 		.ascii	"src1\000"
 1579      00
 1580 0109 000000   		.align	2
 1581              	.LC13:
 1582 010c 73726332 		.ascii	"src2\000"
 1582      00
 1583              		.section	.rodata.AsebaNativeDescription_vecadd,"a",%progbits
 1584              		.align	2
 1585              		.type	AsebaNativeDescription_vecadd, %object
 1586              		.size	AsebaNativeDescription_vecadd, 40
 1587              	AsebaNativeDescription_vecadd:
 1588 0000 C8000000 		.word	.LC10
 1589 0004 D4000000 		.word	.LC11
 1590 0008 FFFF     		.short	-1
 1591 000a 0000     		.space	2
 1592 000c 34000000 		.word	.LC2
 1593 0010 FFFF     		.short	-1
 1594 0012 0000     		.space	2
 1595 0014 04010000 		.word	.LC12
 1596 0018 FFFF     		.short	-1
 1597 001a 0000     		.space	2
 1598 001c 0C010000 		.word	.LC13
 1599 0020 0000     		.short	0
 1600 0022 0000     		.space	2
 1601 0024 00000000 		.word	0
 1602              		.section	.text.AsebaNative_vecsub,"ax",%progbits
 1603              		.align	1
 1604              		.p2align 4,,15
 1605              		.global	AsebaNative_vecsub
 1606              		.syntax unified
 1607              		.thumb
 1608              		.thumb_func
 1609              		.fpu fpv4-sp-d16
 1610              		.type	AsebaNative_vecsub, %function
 1611              	AsebaNative_vecsub:
 1612              	.LFB10:
 1613              		.loc 2 408 0
 1614              		.cfi_startproc
 1615              		@ args = 0, pretend = 0, frame = 24
 1616              		@ frame_needed = 0, uses_anonymous_args = 0
 1617 0000 00B5     		push	{lr}
 1618              		.cfi_def_cfa_offset 4
 1619              		.cfi_offset 14, -4
 1620 0002 87B0     		sub	sp, sp, #28
 1621              		.cfi_def_cfa_offset 32
 1622 0004 0190     		str	r0, [sp, #4]
ARM GAS  C:\Users\PCHAUT~1\AppData\Local\Temp\ccvICu2w.s 			page 30


 1623              		.loc 2 408 0
 1624 0006 2D4B     		ldr	r3, .L89
 1625 0008 1B68     		ldr	r3, [r3]
 1626 000a 0593     		str	r3, [sp, #20]
 1627              		.loc 2 410 0
 1628 000c 0198     		ldr	r0, [sp, #4]
 1629 000e FFF7FEFF 		bl	AsebaNativePopArg
 1630 0012 0346     		mov	r3, r0
 1631 0014 ADF80A30 		strh	r3, [sp, #10]	@ movhi
 1632              		.loc 2 411 0
 1633 0018 0198     		ldr	r0, [sp, #4]
 1634 001a FFF7FEFF 		bl	AsebaNativePopArg
 1635 001e 0346     		mov	r3, r0
 1636 0020 ADF80C30 		strh	r3, [sp, #12]	@ movhi
 1637              		.loc 2 412 0
 1638 0024 0198     		ldr	r0, [sp, #4]
 1639 0026 FFF7FEFF 		bl	AsebaNativePopArg
 1640 002a 0346     		mov	r3, r0
 1641 002c ADF80E30 		strh	r3, [sp, #14]	@ movhi
 1642              		.loc 2 415 0
 1643 0030 0198     		ldr	r0, [sp, #4]
 1644 0032 FFF7FEFF 		bl	AsebaNativePopArg
 1645 0036 0346     		mov	r3, r0
 1646 0038 ADF81230 		strh	r3, [sp, #18]	@ movhi
 1647              		.loc 2 418 0
 1648 003c 0023     		movs	r3, #0
 1649 003e ADF81030 		strh	r3, [sp, #16]	@ movhi
 1650 0042 29E0     		b	.L86
 1651              	.L87:
 1652              		.loc 2 420 0 discriminator 3
 1653 0044 019B     		ldr	r3, [sp, #4]
 1654 0046 DA68     		ldr	r2, [r3, #12]
 1655 0048 BDF80C30 		ldrh	r3, [sp, #12]
 1656 004c 591C     		adds	r1, r3, #1
 1657 004e ADF80C10 		strh	r1, [sp, #12]	@ movhi
 1658 0052 5B00     		lsls	r3, r3, #1
 1659 0054 1344     		add	r3, r3, r2
 1660 0056 B3F90030 		ldrsh	r3, [r3]
 1661 005a 9AB2     		uxth	r2, r3
 1662 005c 019B     		ldr	r3, [sp, #4]
 1663 005e D968     		ldr	r1, [r3, #12]
 1664 0060 BDF80E30 		ldrh	r3, [sp, #14]
 1665 0064 581C     		adds	r0, r3, #1
 1666 0066 ADF80E00 		strh	r0, [sp, #14]	@ movhi
 1667 006a 5B00     		lsls	r3, r3, #1
 1668 006c 0B44     		add	r3, r3, r1
 1669 006e B3F90030 		ldrsh	r3, [r3]
 1670 0072 9BB2     		uxth	r3, r3
 1671 0074 D31A     		subs	r3, r2, r3
 1672 0076 99B2     		uxth	r1, r3
 1673 0078 019B     		ldr	r3, [sp, #4]
 1674 007a DA68     		ldr	r2, [r3, #12]
 1675 007c BDF80A30 		ldrh	r3, [sp, #10]
 1676 0080 581C     		adds	r0, r3, #1
 1677 0082 ADF80A00 		strh	r0, [sp, #10]	@ movhi
 1678 0086 5B00     		lsls	r3, r3, #1
 1679 0088 1344     		add	r3, r3, r2
ARM GAS  C:\Users\PCHAUT~1\AppData\Local\Temp\ccvICu2w.s 			page 31


 1680 008a 0AB2     		sxth	r2, r1
 1681 008c 1A80     		strh	r2, [r3]	@ movhi
 1682              		.loc 2 418 0 discriminator 3
 1683 008e BDF81030 		ldrh	r3, [sp, #16]
 1684 0092 0133     		adds	r3, r3, #1
 1685 0094 ADF81030 		strh	r3, [sp, #16]	@ movhi
 1686              	.L86:
 1687              		.loc 2 418 0 is_stmt 0 discriminator 1
 1688 0098 BDF81020 		ldrh	r2, [sp, #16]
 1689 009c BDF81230 		ldrh	r3, [sp, #18]
 1690 00a0 9A42     		cmp	r2, r3
 1691 00a2 CFD3     		bcc	.L87
 1692              		.loc 2 422 0 is_stmt 1
 1693 00a4 00BF     		nop
 1694 00a6 054B     		ldr	r3, .L89
 1695 00a8 059A     		ldr	r2, [sp, #20]
 1696 00aa 1B68     		ldr	r3, [r3]
 1697 00ac 9A42     		cmp	r2, r3
 1698 00ae 01D0     		beq	.L88
 1699 00b0 FFF7FEFF 		bl	__stack_chk_fail
 1700              	.L88:
 1701 00b4 07B0     		add	sp, sp, #28
 1702              		.cfi_def_cfa_offset 4
 1703              		@ sp needed
 1704 00b6 5DF804FB 		ldr	pc, [sp], #4
 1705              	.L90:
 1706 00ba 00BF     		.align	2
 1707              	.L89:
 1708 00bc 00000000 		.word	__stack_chk_guard
 1709              		.cfi_endproc
 1710              	.LFE10:
 1711              		.size	AsebaNative_vecsub, .-AsebaNative_vecsub
 1712              		.global	AsebaNativeDescription_vecsub
 1713              		.section	.rodata
 1714 0111 000000   		.align	2
 1715              	.LC14:
 1716 0114 6D617468 		.ascii	"math.sub\000"
 1716      2E737562 
 1716      00
 1717 011d 000000   		.align	2
 1718              	.LC15:
 1719 0120 73756273 		.ascii	"substracts src2 from src1 to dest, element by eleme"
 1719      74726163 
 1719      74732073 
 1719      72633220 
 1719      66726F6D 
 1720 0153 6E7400   		.ascii	"nt\000"
 1721              		.section	.rodata.AsebaNativeDescription_vecsub,"a",%progbits
 1722              		.align	2
 1723              		.type	AsebaNativeDescription_vecsub, %object
 1724              		.size	AsebaNativeDescription_vecsub, 40
 1725              	AsebaNativeDescription_vecsub:
 1726 0000 14010000 		.word	.LC14
 1727 0004 20010000 		.word	.LC15
 1728 0008 FFFF     		.short	-1
 1729 000a 0000     		.space	2
 1730 000c 34000000 		.word	.LC2
ARM GAS  C:\Users\PCHAUT~1\AppData\Local\Temp\ccvICu2w.s 			page 32


 1731 0010 FFFF     		.short	-1
 1732 0012 0000     		.space	2
 1733 0014 04010000 		.word	.LC12
 1734 0018 FFFF     		.short	-1
 1735 001a 0000     		.space	2
 1736 001c 0C010000 		.word	.LC13
 1737 0020 0000     		.short	0
 1738 0022 0000     		.space	2
 1739 0024 00000000 		.word	0
 1740              		.section	.text.AsebaNative_vecmul,"ax",%progbits
 1741              		.align	1
 1742              		.p2align 4,,15
 1743              		.global	AsebaNative_vecmul
 1744              		.syntax unified
 1745              		.thumb
 1746              		.thumb_func
 1747              		.fpu fpv4-sp-d16
 1748              		.type	AsebaNative_vecmul, %function
 1749              	AsebaNative_vecmul:
 1750              	.LFB11:
 1751              		.loc 2 438 0
 1752              		.cfi_startproc
 1753              		@ args = 0, pretend = 0, frame = 24
 1754              		@ frame_needed = 0, uses_anonymous_args = 0
 1755 0000 00B5     		push	{lr}
 1756              		.cfi_def_cfa_offset 4
 1757              		.cfi_offset 14, -4
 1758 0002 87B0     		sub	sp, sp, #28
 1759              		.cfi_def_cfa_offset 32
 1760 0004 0190     		str	r0, [sp, #4]
 1761              		.loc 2 438 0
 1762 0006 2D4B     		ldr	r3, .L95
 1763 0008 1B68     		ldr	r3, [r3]
 1764 000a 0593     		str	r3, [sp, #20]
 1765              		.loc 2 440 0
 1766 000c 0198     		ldr	r0, [sp, #4]
 1767 000e FFF7FEFF 		bl	AsebaNativePopArg
 1768 0012 0346     		mov	r3, r0
 1769 0014 ADF80A30 		strh	r3, [sp, #10]	@ movhi
 1770              		.loc 2 441 0
 1771 0018 0198     		ldr	r0, [sp, #4]
 1772 001a FFF7FEFF 		bl	AsebaNativePopArg
 1773 001e 0346     		mov	r3, r0
 1774 0020 ADF80C30 		strh	r3, [sp, #12]	@ movhi
 1775              		.loc 2 442 0
 1776 0024 0198     		ldr	r0, [sp, #4]
 1777 0026 FFF7FEFF 		bl	AsebaNativePopArg
 1778 002a 0346     		mov	r3, r0
 1779 002c ADF80E30 		strh	r3, [sp, #14]	@ movhi
 1780              		.loc 2 445 0
 1781 0030 0198     		ldr	r0, [sp, #4]
 1782 0032 FFF7FEFF 		bl	AsebaNativePopArg
 1783 0036 0346     		mov	r3, r0
 1784 0038 ADF81230 		strh	r3, [sp, #18]	@ movhi
 1785              		.loc 2 448 0
 1786 003c 0023     		movs	r3, #0
 1787 003e ADF81030 		strh	r3, [sp, #16]	@ movhi
ARM GAS  C:\Users\PCHAUT~1\AppData\Local\Temp\ccvICu2w.s 			page 33


 1788 0042 2AE0     		b	.L92
 1789              	.L93:
 1790              		.loc 2 450 0 discriminator 3
 1791 0044 019B     		ldr	r3, [sp, #4]
 1792 0046 DA68     		ldr	r2, [r3, #12]
 1793 0048 BDF80C30 		ldrh	r3, [sp, #12]
 1794 004c 591C     		adds	r1, r3, #1
 1795 004e ADF80C10 		strh	r1, [sp, #12]	@ movhi
 1796 0052 5B00     		lsls	r3, r3, #1
 1797 0054 1344     		add	r3, r3, r2
 1798 0056 B3F90030 		ldrsh	r3, [r3]
 1799 005a 9AB2     		uxth	r2, r3
 1800 005c 019B     		ldr	r3, [sp, #4]
 1801 005e D968     		ldr	r1, [r3, #12]
 1802 0060 BDF80E30 		ldrh	r3, [sp, #14]
 1803 0064 581C     		adds	r0, r3, #1
 1804 0066 ADF80E00 		strh	r0, [sp, #14]	@ movhi
 1805 006a 5B00     		lsls	r3, r3, #1
 1806 006c 0B44     		add	r3, r3, r1
 1807 006e B3F90030 		ldrsh	r3, [r3]
 1808 0072 9BB2     		uxth	r3, r3
 1809 0074 12FB03F3 		smulbb	r3, r2, r3
 1810 0078 99B2     		uxth	r1, r3
 1811 007a 019B     		ldr	r3, [sp, #4]
 1812 007c DA68     		ldr	r2, [r3, #12]
 1813 007e BDF80A30 		ldrh	r3, [sp, #10]
 1814 0082 581C     		adds	r0, r3, #1
 1815 0084 ADF80A00 		strh	r0, [sp, #10]	@ movhi
 1816 0088 5B00     		lsls	r3, r3, #1
 1817 008a 1344     		add	r3, r3, r2
 1818 008c 0AB2     		sxth	r2, r1
 1819 008e 1A80     		strh	r2, [r3]	@ movhi
 1820              		.loc 2 448 0 discriminator 3
 1821 0090 BDF81030 		ldrh	r3, [sp, #16]
 1822 0094 0133     		adds	r3, r3, #1
 1823 0096 ADF81030 		strh	r3, [sp, #16]	@ movhi
 1824              	.L92:
 1825              		.loc 2 448 0 is_stmt 0 discriminator 1
 1826 009a BDF81020 		ldrh	r2, [sp, #16]
 1827 009e BDF81230 		ldrh	r3, [sp, #18]
 1828 00a2 9A42     		cmp	r2, r3
 1829 00a4 CED3     		bcc	.L93
 1830              		.loc 2 452 0 is_stmt 1
 1831 00a6 00BF     		nop
 1832 00a8 044B     		ldr	r3, .L95
 1833 00aa 059A     		ldr	r2, [sp, #20]
 1834 00ac 1B68     		ldr	r3, [r3]
 1835 00ae 9A42     		cmp	r2, r3
 1836 00b0 01D0     		beq	.L94
 1837 00b2 FFF7FEFF 		bl	__stack_chk_fail
 1838              	.L94:
 1839 00b6 07B0     		add	sp, sp, #28
 1840              		.cfi_def_cfa_offset 4
 1841              		@ sp needed
 1842 00b8 5DF804FB 		ldr	pc, [sp], #4
 1843              	.L96:
 1844              		.align	2
ARM GAS  C:\Users\PCHAUT~1\AppData\Local\Temp\ccvICu2w.s 			page 34


 1845              	.L95:
 1846 00bc 00000000 		.word	__stack_chk_guard
 1847              		.cfi_endproc
 1848              	.LFE11:
 1849              		.size	AsebaNative_vecmul, .-AsebaNative_vecmul
 1850              		.global	AsebaNativeDescription_vecmul
 1851              		.section	.rodata
 1852 0156 0000     		.align	2
 1853              	.LC16:
 1854 0158 6D617468 		.ascii	"math.mul\000"
 1854      2E6D756C 
 1854      00
 1855 0161 000000   		.align	2
 1856              	.LC17:
 1857 0164 6D756C74 		.ascii	"multiplies src1 and src2 to dest, element by elemen"
 1857      69706C69 
 1857      65732073 
 1857      72633120 
 1857      616E6420 
 1858 0197 7400     		.ascii	"t\000"
 1859              		.section	.rodata.AsebaNativeDescription_vecmul,"a",%progbits
 1860              		.align	2
 1861              		.type	AsebaNativeDescription_vecmul, %object
 1862              		.size	AsebaNativeDescription_vecmul, 40
 1863              	AsebaNativeDescription_vecmul:
 1864 0000 58010000 		.word	.LC16
 1865 0004 64010000 		.word	.LC17
 1866 0008 FFFF     		.short	-1
 1867 000a 0000     		.space	2
 1868 000c 34000000 		.word	.LC2
 1869 0010 FFFF     		.short	-1
 1870 0012 0000     		.space	2
 1871 0014 04010000 		.word	.LC12
 1872 0018 FFFF     		.short	-1
 1873 001a 0000     		.space	2
 1874 001c 0C010000 		.word	.LC13
 1875 0020 0000     		.short	0
 1876 0022 0000     		.space	2
 1877 0024 00000000 		.word	0
 1878              		.section	.text.AsebaNative_vecdiv,"ax",%progbits
 1879              		.align	1
 1880              		.p2align 4,,15
 1881              		.global	AsebaNative_vecdiv
 1882              		.syntax unified
 1883              		.thumb
 1884              		.thumb_func
 1885              		.fpu fpv4-sp-d16
 1886              		.type	AsebaNative_vecdiv, %function
 1887              	AsebaNative_vecdiv:
 1888              	.LFB12:
 1889              		.loc 2 468 0
 1890              		.cfi_startproc
 1891              		@ args = 0, pretend = 0, frame = 32
 1892              		@ frame_needed = 0, uses_anonymous_args = 0
 1893 0000 00B5     		push	{lr}
 1894              		.cfi_def_cfa_offset 4
 1895              		.cfi_offset 14, -4
ARM GAS  C:\Users\PCHAUT~1\AppData\Local\Temp\ccvICu2w.s 			page 35


 1896 0002 89B0     		sub	sp, sp, #36
 1897              		.cfi_def_cfa_offset 40
 1898 0004 0190     		str	r0, [sp, #4]
 1899              		.loc 2 468 0
 1900 0006 364B     		ldr	r3, .L105
 1901 0008 1B68     		ldr	r3, [r3]
 1902 000a 0793     		str	r3, [sp, #28]
 1903              		.loc 2 470 0
 1904 000c 0198     		ldr	r0, [sp, #4]
 1905 000e FFF7FEFF 		bl	AsebaNativePopArg
 1906 0012 0346     		mov	r3, r0
 1907 0014 ADF80A30 		strh	r3, [sp, #10]	@ movhi
 1908              		.loc 2 471 0
 1909 0018 0198     		ldr	r0, [sp, #4]
 1910 001a FFF7FEFF 		bl	AsebaNativePopArg
 1911 001e 0346     		mov	r3, r0
 1912 0020 ADF80C30 		strh	r3, [sp, #12]	@ movhi
 1913              		.loc 2 472 0
 1914 0024 0198     		ldr	r0, [sp, #4]
 1915 0026 FFF7FEFF 		bl	AsebaNativePopArg
 1916 002a 0346     		mov	r3, r0
 1917 002c ADF80E30 		strh	r3, [sp, #14]	@ movhi
 1918              		.loc 2 475 0
 1919 0030 0198     		ldr	r0, [sp, #4]
 1920 0032 FFF7FEFF 		bl	AsebaNativePopArg
 1921 0036 0346     		mov	r3, r0
 1922 0038 ADF81230 		strh	r3, [sp, #18]	@ movhi
 1923              		.loc 2 478 0
 1924 003c 0023     		movs	r3, #0
 1925 003e ADF81030 		strh	r3, [sp, #16]	@ movhi
 1926 0042 3CE0     		b	.L98
 1927              	.L102:
 1928              	.LBB8:
 1929              		.loc 2 480 0
 1930 0044 019B     		ldr	r3, [sp, #4]
 1931 0046 DA68     		ldr	r2, [r3, #12]
 1932 0048 BDF80C30 		ldrh	r3, [sp, #12]
 1933 004c 591C     		adds	r1, r3, #1
 1934 004e ADF80C10 		strh	r1, [sp, #12]	@ movhi
 1935 0052 5B00     		lsls	r3, r3, #1
 1936 0054 1344     		add	r3, r3, r2
 1937 0056 B3F90030 		ldrsh	r3, [r3]
 1938 005a 0593     		str	r3, [sp, #20]
 1939              		.loc 2 481 0
 1940 005c 019B     		ldr	r3, [sp, #4]
 1941 005e DA68     		ldr	r2, [r3, #12]
 1942 0060 BDF80E30 		ldrh	r3, [sp, #14]
 1943 0064 591C     		adds	r1, r3, #1
 1944 0066 ADF80E10 		strh	r1, [sp, #14]	@ movhi
 1945 006a 5B00     		lsls	r3, r3, #1
 1946 006c 1344     		add	r3, r3, r2
 1947 006e B3F90030 		ldrsh	r3, [r3]
 1948 0072 0693     		str	r3, [sp, #24]
 1949              		.loc 2 483 0
 1950 0074 069B     		ldr	r3, [sp, #24]
 1951 0076 002B     		cmp	r3, #0
 1952 0078 0FD0     		beq	.L99
ARM GAS  C:\Users\PCHAUT~1\AppData\Local\Temp\ccvICu2w.s 			page 36


 1953              		.loc 2 485 0
 1954 007a 059A     		ldr	r2, [sp, #20]
 1955 007c 069B     		ldr	r3, [sp, #24]
 1956 007e 92FBF3F1 		sdiv	r1, r2, r3
 1957 0082 019B     		ldr	r3, [sp, #4]
 1958 0084 DA68     		ldr	r2, [r3, #12]
 1959 0086 BDF80A30 		ldrh	r3, [sp, #10]
 1960 008a 581C     		adds	r0, r3, #1
 1961 008c ADF80A00 		strh	r0, [sp, #10]	@ movhi
 1962 0090 5B00     		lsls	r3, r3, #1
 1963 0092 1344     		add	r3, r3, r2
 1964 0094 0AB2     		sxth	r2, r1
 1965 0096 1A80     		strh	r2, [r3]	@ movhi
 1966 0098 0CE0     		b	.L104
 1967              	.L99:
 1968              		.loc 2 489 0
 1969 009a 019B     		ldr	r3, [sp, #4]
 1970 009c 0222     		movs	r2, #2
 1971 009e 1A83     		strh	r2, [r3, #24]	@ movhi
 1972              		.loc 2 490 0
 1973 00a0 019B     		ldr	r3, [sp, #4]
 1974 00a2 03F11A02 		add	r2, r3, #26
 1975 00a6 0223     		movs	r3, #2
 1976 00a8 49F20701 		movw	r1, #36871
 1977 00ac 0198     		ldr	r0, [sp, #4]
 1978 00ae FFF7FEFF 		bl	AsebaSendMessage
 1979              		.loc 2 491 0
 1980 00b2 0AE0     		b	.L97
 1981              	.L104:
 1982              	.LBE8:
 1983              		.loc 2 478 0 discriminator 2
 1984 00b4 BDF81030 		ldrh	r3, [sp, #16]
 1985 00b8 0133     		adds	r3, r3, #1
 1986 00ba ADF81030 		strh	r3, [sp, #16]	@ movhi
 1987              	.L98:
 1988              		.loc 2 478 0 is_stmt 0 discriminator 1
 1989 00be BDF81020 		ldrh	r2, [sp, #16]
 1990 00c2 BDF81230 		ldrh	r3, [sp, #18]
 1991 00c6 9A42     		cmp	r2, r3
 1992 00c8 BCD3     		bcc	.L102
 1993              	.L97:
 1994              		.loc 2 494 0 is_stmt 1
 1995 00ca 054B     		ldr	r3, .L105
 1996 00cc 079A     		ldr	r2, [sp, #28]
 1997 00ce 1B68     		ldr	r3, [r3]
 1998 00d0 9A42     		cmp	r2, r3
 1999 00d2 01D0     		beq	.L103
 2000 00d4 FFF7FEFF 		bl	__stack_chk_fail
 2001              	.L103:
 2002 00d8 09B0     		add	sp, sp, #36
 2003              		.cfi_def_cfa_offset 4
 2004              		@ sp needed
 2005 00da 5DF804FB 		ldr	pc, [sp], #4
 2006              	.L106:
 2007 00de 00BF     		.align	2
 2008              	.L105:
 2009 00e0 00000000 		.word	__stack_chk_guard
ARM GAS  C:\Users\PCHAUT~1\AppData\Local\Temp\ccvICu2w.s 			page 37


 2010              		.cfi_endproc
 2011              	.LFE12:
 2012              		.size	AsebaNative_vecdiv, .-AsebaNative_vecdiv
 2013              		.global	AsebaNativeDescription_vecdiv
 2014              		.section	.rodata
 2015 0199 000000   		.align	2
 2016              	.LC18:
 2017 019c 6D617468 		.ascii	"math.div\000"
 2017      2E646976 
 2017      00
 2018 01a5 000000   		.align	2
 2019              	.LC19:
 2020 01a8 64697669 		.ascii	"divides src1 by src2 to dest, element by element\000"
 2020      64657320 
 2020      73726331 
 2020      20627920 
 2020      73726332 
 2021              		.section	.rodata.AsebaNativeDescription_vecdiv,"a",%progbits
 2022              		.align	2
 2023              		.type	AsebaNativeDescription_vecdiv, %object
 2024              		.size	AsebaNativeDescription_vecdiv, 40
 2025              	AsebaNativeDescription_vecdiv:
 2026 0000 9C010000 		.word	.LC18
 2027 0004 A8010000 		.word	.LC19
 2028 0008 FFFF     		.short	-1
 2029 000a 0000     		.space	2
 2030 000c 34000000 		.word	.LC2
 2031 0010 FFFF     		.short	-1
 2032 0012 0000     		.space	2
 2033 0014 04010000 		.word	.LC12
 2034 0018 FFFF     		.short	-1
 2035 001a 0000     		.space	2
 2036 001c 0C010000 		.word	.LC13
 2037 0020 0000     		.short	0
 2038 0022 0000     		.space	2
 2039 0024 00000000 		.word	0
 2040              		.section	.text.AsebaNative_vecmin,"ax",%progbits
 2041              		.align	1
 2042              		.p2align 4,,15
 2043              		.global	AsebaNative_vecmin
 2044              		.syntax unified
 2045              		.thumb
 2046              		.thumb_func
 2047              		.fpu fpv4-sp-d16
 2048              		.type	AsebaNative_vecmin, %function
 2049              	AsebaNative_vecmin:
 2050              	.LFB13:
 2051              		.loc 2 510 0
 2052              		.cfi_startproc
 2053              		@ args = 0, pretend = 0, frame = 32
 2054              		@ frame_needed = 0, uses_anonymous_args = 0
 2055 0000 00B5     		push	{lr}
 2056              		.cfi_def_cfa_offset 4
 2057              		.cfi_offset 14, -4
 2058 0002 89B0     		sub	sp, sp, #36
 2059              		.cfi_def_cfa_offset 40
 2060 0004 0190     		str	r0, [sp, #4]
ARM GAS  C:\Users\PCHAUT~1\AppData\Local\Temp\ccvICu2w.s 			page 38


 2061              		.loc 2 510 0
 2062 0006 314B     		ldr	r3, .L111
 2063 0008 1B68     		ldr	r3, [r3]
 2064 000a 0793     		str	r3, [sp, #28]
 2065              		.loc 2 512 0
 2066 000c 0198     		ldr	r0, [sp, #4]
 2067 000e FFF7FEFF 		bl	AsebaNativePopArg
 2068 0012 0346     		mov	r3, r0
 2069 0014 ADF80C30 		strh	r3, [sp, #12]	@ movhi
 2070              		.loc 2 513 0
 2071 0018 0198     		ldr	r0, [sp, #4]
 2072 001a FFF7FEFF 		bl	AsebaNativePopArg
 2073 001e 0346     		mov	r3, r0
 2074 0020 ADF80E30 		strh	r3, [sp, #14]	@ movhi
 2075              		.loc 2 514 0
 2076 0024 0198     		ldr	r0, [sp, #4]
 2077 0026 FFF7FEFF 		bl	AsebaNativePopArg
 2078 002a 0346     		mov	r3, r0
 2079 002c ADF81030 		strh	r3, [sp, #16]	@ movhi
 2080              		.loc 2 517 0
 2081 0030 0198     		ldr	r0, [sp, #4]
 2082 0032 FFF7FEFF 		bl	AsebaNativePopArg
 2083 0036 0346     		mov	r3, r0
 2084 0038 ADF81430 		strh	r3, [sp, #20]	@ movhi
 2085              		.loc 2 520 0
 2086 003c 0023     		movs	r3, #0
 2087 003e ADF81230 		strh	r3, [sp, #18]	@ movhi
 2088 0042 31E0     		b	.L108
 2089              	.L109:
 2090              	.LBB9:
 2091              		.loc 2 522 0 discriminator 3
 2092 0044 019B     		ldr	r3, [sp, #4]
 2093 0046 DA68     		ldr	r2, [r3, #12]
 2094 0048 BDF80E30 		ldrh	r3, [sp, #14]
 2095 004c 591C     		adds	r1, r3, #1
 2096 004e ADF80E10 		strh	r1, [sp, #14]	@ movhi
 2097 0052 5B00     		lsls	r3, r3, #1
 2098 0054 1344     		add	r3, r3, r2
 2099 0056 1B88     		ldrh	r3, [r3]	@ movhi
 2100 0058 ADF81630 		strh	r3, [sp, #22]	@ movhi
 2101              		.loc 2 523 0 discriminator 3
 2102 005c 019B     		ldr	r3, [sp, #4]
 2103 005e DA68     		ldr	r2, [r3, #12]
 2104 0060 BDF81030 		ldrh	r3, [sp, #16]
 2105 0064 591C     		adds	r1, r3, #1
 2106 0066 ADF81010 		strh	r1, [sp, #16]	@ movhi
 2107 006a 5B00     		lsls	r3, r3, #1
 2108 006c 1344     		add	r3, r3, r2
 2109 006e 1B88     		ldrh	r3, [r3]	@ movhi
 2110 0070 ADF81830 		strh	r3, [sp, #24]	@ movhi
 2111              		.loc 2 524 0 discriminator 3
 2112 0074 BDF91820 		ldrsh	r2, [sp, #24]
 2113 0078 BDF91630 		ldrsh	r3, [sp, #22]
 2114 007c 9342     		cmp	r3, r2
 2115 007e A8BF     		it	ge
 2116 0080 1346     		movge	r3, r2
 2117 0082 ADF81A30 		strh	r3, [sp, #26]	@ movhi
ARM GAS  C:\Users\PCHAUT~1\AppData\Local\Temp\ccvICu2w.s 			page 39


 2118              		.loc 2 525 0 discriminator 3
 2119 0086 019B     		ldr	r3, [sp, #4]
 2120 0088 DA68     		ldr	r2, [r3, #12]
 2121 008a BDF80C30 		ldrh	r3, [sp, #12]
 2122 008e 591C     		adds	r1, r3, #1
 2123 0090 ADF80C10 		strh	r1, [sp, #12]	@ movhi
 2124 0094 5B00     		lsls	r3, r3, #1
 2125 0096 1344     		add	r3, r3, r2
 2126 0098 BDF81A20 		ldrh	r2, [sp, #26]	@ movhi
 2127 009c 1A80     		strh	r2, [r3]	@ movhi
 2128              	.LBE9:
 2129              		.loc 2 520 0 discriminator 3
 2130 009e BDF81230 		ldrh	r3, [sp, #18]
 2131 00a2 0133     		adds	r3, r3, #1
 2132 00a4 ADF81230 		strh	r3, [sp, #18]	@ movhi
 2133              	.L108:
 2134              		.loc 2 520 0 is_stmt 0 discriminator 1
 2135 00a8 BDF81220 		ldrh	r2, [sp, #18]
 2136 00ac BDF81430 		ldrh	r3, [sp, #20]
 2137 00b0 9A42     		cmp	r2, r3
 2138 00b2 C7D3     		bcc	.L109
 2139              		.loc 2 527 0 is_stmt 1
 2140 00b4 00BF     		nop
 2141 00b6 054B     		ldr	r3, .L111
 2142 00b8 079A     		ldr	r2, [sp, #28]
 2143 00ba 1B68     		ldr	r3, [r3]
 2144 00bc 9A42     		cmp	r2, r3
 2145 00be 01D0     		beq	.L110
 2146 00c0 FFF7FEFF 		bl	__stack_chk_fail
 2147              	.L110:
 2148 00c4 09B0     		add	sp, sp, #36
 2149              		.cfi_def_cfa_offset 4
 2150              		@ sp needed
 2151 00c6 5DF804FB 		ldr	pc, [sp], #4
 2152              	.L112:
 2153 00ca 00BF     		.align	2
 2154              	.L111:
 2155 00cc 00000000 		.word	__stack_chk_guard
 2156              		.cfi_endproc
 2157              	.LFE13:
 2158              		.size	AsebaNative_vecmin, .-AsebaNative_vecmin
 2159              		.global	AsebaNativeDescription_vecmin
 2160              		.section	.rodata
 2161 01d9 000000   		.align	2
 2162              	.LC20:
 2163 01dc 6D617468 		.ascii	"math.min\000"
 2163      2E6D696E 
 2163      00
 2164 01e5 000000   		.align	2
 2165              	.LC21:
 2166 01e8 77726974 		.ascii	"writes the minimum of src1 and src2 to dest, elemen"
 2166      65732074 
 2166      6865206D 
 2166      696E696D 
 2166      756D206F 
 2167 021b 74206279 		.ascii	"t by element\000"
 2167      20656C65 
ARM GAS  C:\Users\PCHAUT~1\AppData\Local\Temp\ccvICu2w.s 			page 40


 2167      6D656E74 
 2167      00
 2168              		.section	.rodata.AsebaNativeDescription_vecmin,"a",%progbits
 2169              		.align	2
 2170              		.type	AsebaNativeDescription_vecmin, %object
 2171              		.size	AsebaNativeDescription_vecmin, 40
 2172              	AsebaNativeDescription_vecmin:
 2173 0000 DC010000 		.word	.LC20
 2174 0004 E8010000 		.word	.LC21
 2175 0008 FFFF     		.short	-1
 2176 000a 0000     		.space	2
 2177 000c 34000000 		.word	.LC2
 2178 0010 FFFF     		.short	-1
 2179 0012 0000     		.space	2
 2180 0014 04010000 		.word	.LC12
 2181 0018 FFFF     		.short	-1
 2182 001a 0000     		.space	2
 2183 001c 0C010000 		.word	.LC13
 2184 0020 0000     		.short	0
 2185 0022 0000     		.space	2
 2186 0024 00000000 		.word	0
 2187              		.section	.text.AsebaNative_vecmax,"ax",%progbits
 2188              		.align	1
 2189              		.p2align 4,,15
 2190              		.global	AsebaNative_vecmax
 2191              		.syntax unified
 2192              		.thumb
 2193              		.thumb_func
 2194              		.fpu fpv4-sp-d16
 2195              		.type	AsebaNative_vecmax, %function
 2196              	AsebaNative_vecmax:
 2197              	.LFB14:
 2198              		.loc 2 543 0
 2199              		.cfi_startproc
 2200              		@ args = 0, pretend = 0, frame = 32
 2201              		@ frame_needed = 0, uses_anonymous_args = 0
 2202 0000 00B5     		push	{lr}
 2203              		.cfi_def_cfa_offset 4
 2204              		.cfi_offset 14, -4
 2205 0002 89B0     		sub	sp, sp, #36
 2206              		.cfi_def_cfa_offset 40
 2207 0004 0190     		str	r0, [sp, #4]
 2208              		.loc 2 543 0
 2209 0006 314B     		ldr	r3, .L117
 2210 0008 1B68     		ldr	r3, [r3]
 2211 000a 0793     		str	r3, [sp, #28]
 2212              		.loc 2 545 0
 2213 000c 0198     		ldr	r0, [sp, #4]
 2214 000e FFF7FEFF 		bl	AsebaNativePopArg
 2215 0012 0346     		mov	r3, r0
 2216 0014 ADF80C30 		strh	r3, [sp, #12]	@ movhi
 2217              		.loc 2 546 0
 2218 0018 0198     		ldr	r0, [sp, #4]
 2219 001a FFF7FEFF 		bl	AsebaNativePopArg
 2220 001e 0346     		mov	r3, r0
 2221 0020 ADF80E30 		strh	r3, [sp, #14]	@ movhi
 2222              		.loc 2 547 0
ARM GAS  C:\Users\PCHAUT~1\AppData\Local\Temp\ccvICu2w.s 			page 41


 2223 0024 0198     		ldr	r0, [sp, #4]
 2224 0026 FFF7FEFF 		bl	AsebaNativePopArg
 2225 002a 0346     		mov	r3, r0
 2226 002c ADF81030 		strh	r3, [sp, #16]	@ movhi
 2227              		.loc 2 550 0
 2228 0030 0198     		ldr	r0, [sp, #4]
 2229 0032 FFF7FEFF 		bl	AsebaNativePopArg
 2230 0036 0346     		mov	r3, r0
 2231 0038 ADF81430 		strh	r3, [sp, #20]	@ movhi
 2232              		.loc 2 553 0
 2233 003c 0023     		movs	r3, #0
 2234 003e ADF81230 		strh	r3, [sp, #18]	@ movhi
 2235 0042 31E0     		b	.L114
 2236              	.L115:
 2237              	.LBB10:
 2238              		.loc 2 555 0 discriminator 3
 2239 0044 019B     		ldr	r3, [sp, #4]
 2240 0046 DA68     		ldr	r2, [r3, #12]
 2241 0048 BDF80E30 		ldrh	r3, [sp, #14]
 2242 004c 591C     		adds	r1, r3, #1
 2243 004e ADF80E10 		strh	r1, [sp, #14]	@ movhi
 2244 0052 5B00     		lsls	r3, r3, #1
 2245 0054 1344     		add	r3, r3, r2
 2246 0056 1B88     		ldrh	r3, [r3]	@ movhi
 2247 0058 ADF81630 		strh	r3, [sp, #22]	@ movhi
 2248              		.loc 2 556 0 discriminator 3
 2249 005c 019B     		ldr	r3, [sp, #4]
 2250 005e DA68     		ldr	r2, [r3, #12]
 2251 0060 BDF81030 		ldrh	r3, [sp, #16]
 2252 0064 591C     		adds	r1, r3, #1
 2253 0066 ADF81010 		strh	r1, [sp, #16]	@ movhi
 2254 006a 5B00     		lsls	r3, r3, #1
 2255 006c 1344     		add	r3, r3, r2
 2256 006e 1B88     		ldrh	r3, [r3]	@ movhi
 2257 0070 ADF81830 		strh	r3, [sp, #24]	@ movhi
 2258              		.loc 2 557 0 discriminator 3
 2259 0074 BDF91820 		ldrsh	r2, [sp, #24]
 2260 0078 BDF91630 		ldrsh	r3, [sp, #22]
 2261 007c 9342     		cmp	r3, r2
 2262 007e B8BF     		it	lt
 2263 0080 1346     		movlt	r3, r2
 2264 0082 ADF81A30 		strh	r3, [sp, #26]	@ movhi
 2265              		.loc 2 558 0 discriminator 3
 2266 0086 019B     		ldr	r3, [sp, #4]
 2267 0088 DA68     		ldr	r2, [r3, #12]
 2268 008a BDF80C30 		ldrh	r3, [sp, #12]
 2269 008e 591C     		adds	r1, r3, #1
 2270 0090 ADF80C10 		strh	r1, [sp, #12]	@ movhi
 2271 0094 5B00     		lsls	r3, r3, #1
 2272 0096 1344     		add	r3, r3, r2
 2273 0098 BDF81A20 		ldrh	r2, [sp, #26]	@ movhi
 2274 009c 1A80     		strh	r2, [r3]	@ movhi
 2275              	.LBE10:
 2276              		.loc 2 553 0 discriminator 3
 2277 009e BDF81230 		ldrh	r3, [sp, #18]
 2278 00a2 0133     		adds	r3, r3, #1
 2279 00a4 ADF81230 		strh	r3, [sp, #18]	@ movhi
ARM GAS  C:\Users\PCHAUT~1\AppData\Local\Temp\ccvICu2w.s 			page 42


 2280              	.L114:
 2281              		.loc 2 553 0 is_stmt 0 discriminator 1
 2282 00a8 BDF81220 		ldrh	r2, [sp, #18]
 2283 00ac BDF81430 		ldrh	r3, [sp, #20]
 2284 00b0 9A42     		cmp	r2, r3
 2285 00b2 C7D3     		bcc	.L115
 2286              		.loc 2 560 0 is_stmt 1
 2287 00b4 00BF     		nop
 2288 00b6 054B     		ldr	r3, .L117
 2289 00b8 079A     		ldr	r2, [sp, #28]
 2290 00ba 1B68     		ldr	r3, [r3]
 2291 00bc 9A42     		cmp	r2, r3
 2292 00be 01D0     		beq	.L116
 2293 00c0 FFF7FEFF 		bl	__stack_chk_fail
 2294              	.L116:
 2295 00c4 09B0     		add	sp, sp, #36
 2296              		.cfi_def_cfa_offset 4
 2297              		@ sp needed
 2298 00c6 5DF804FB 		ldr	pc, [sp], #4
 2299              	.L118:
 2300 00ca 00BF     		.align	2
 2301              	.L117:
 2302 00cc 00000000 		.word	__stack_chk_guard
 2303              		.cfi_endproc
 2304              	.LFE14:
 2305              		.size	AsebaNative_vecmax, .-AsebaNative_vecmax
 2306              		.global	AsebaNativeDescription_vecmax
 2307              		.section	.rodata
 2308              		.align	2
 2309              	.LC22:
 2310 0228 6D617468 		.ascii	"math.max\000"
 2310      2E6D6178 
 2310      00
 2311 0231 000000   		.align	2
 2312              	.LC23:
 2313 0234 77726974 		.ascii	"writes the maximum of src1 and src2 to dest, elemen"
 2313      65732074 
 2313      6865206D 
 2313      6178696D 
 2313      756D206F 
 2314 0267 74206279 		.ascii	"t by element\000"
 2314      20656C65 
 2314      6D656E74 
 2314      00
 2315              		.section	.rodata.AsebaNativeDescription_vecmax,"a",%progbits
 2316              		.align	2
 2317              		.type	AsebaNativeDescription_vecmax, %object
 2318              		.size	AsebaNativeDescription_vecmax, 40
 2319              	AsebaNativeDescription_vecmax:
 2320 0000 28020000 		.word	.LC22
 2321 0004 34020000 		.word	.LC23
 2322 0008 FFFF     		.short	-1
 2323 000a 0000     		.space	2
 2324 000c 34000000 		.word	.LC2
 2325 0010 FFFF     		.short	-1
 2326 0012 0000     		.space	2
 2327 0014 04010000 		.word	.LC12
ARM GAS  C:\Users\PCHAUT~1\AppData\Local\Temp\ccvICu2w.s 			page 43


 2328 0018 FFFF     		.short	-1
 2329 001a 0000     		.space	2
 2330 001c 0C010000 		.word	.LC13
 2331 0020 0000     		.short	0
 2332 0022 0000     		.space	2
 2333 0024 00000000 		.word	0
 2334              		.section	.text.AsebaNative_vecclamp,"ax",%progbits
 2335              		.align	1
 2336              		.p2align 4,,15
 2337              		.global	AsebaNative_vecclamp
 2338              		.syntax unified
 2339              		.thumb
 2340              		.thumb_func
 2341              		.fpu fpv4-sp-d16
 2342              		.type	AsebaNative_vecclamp, %function
 2343              	AsebaNative_vecclamp:
 2344              	.LFB15:
 2345              		.loc 2 575 0
 2346              		.cfi_startproc
 2347              		@ args = 0, pretend = 0, frame = 32
 2348              		@ frame_needed = 0, uses_anonymous_args = 0
 2349 0000 00B5     		push	{lr}
 2350              		.cfi_def_cfa_offset 4
 2351              		.cfi_offset 14, -4
 2352 0002 89B0     		sub	sp, sp, #36
 2353              		.cfi_def_cfa_offset 40
 2354 0004 0190     		str	r0, [sp, #4]
 2355              		.loc 2 575 0
 2356 0006 3F4B     		ldr	r3, .L125
 2357 0008 1B68     		ldr	r3, [r3]
 2358 000a 0793     		str	r3, [sp, #28]
 2359              		.loc 2 577 0
 2360 000c 0198     		ldr	r0, [sp, #4]
 2361 000e FFF7FEFF 		bl	AsebaNativePopArg
 2362 0012 0346     		mov	r3, r0
 2363 0014 ADF80830 		strh	r3, [sp, #8]	@ movhi
 2364              		.loc 2 578 0
 2365 0018 0198     		ldr	r0, [sp, #4]
 2366 001a FFF7FEFF 		bl	AsebaNativePopArg
 2367 001e 0346     		mov	r3, r0
 2368 0020 ADF80A30 		strh	r3, [sp, #10]	@ movhi
 2369              		.loc 2 579 0
 2370 0024 0198     		ldr	r0, [sp, #4]
 2371 0026 FFF7FEFF 		bl	AsebaNativePopArg
 2372 002a 0346     		mov	r3, r0
 2373 002c ADF80C30 		strh	r3, [sp, #12]	@ movhi
 2374              		.loc 2 580 0
 2375 0030 0198     		ldr	r0, [sp, #4]
 2376 0032 FFF7FEFF 		bl	AsebaNativePopArg
 2377 0036 0346     		mov	r3, r0
 2378 0038 ADF80E30 		strh	r3, [sp, #14]	@ movhi
 2379              		.loc 2 583 0
 2380 003c 0198     		ldr	r0, [sp, #4]
 2381 003e FFF7FEFF 		bl	AsebaNativePopArg
 2382 0042 0346     		mov	r3, r0
 2383 0044 ADF81230 		strh	r3, [sp, #18]	@ movhi
 2384              		.loc 2 586 0
ARM GAS  C:\Users\PCHAUT~1\AppData\Local\Temp\ccvICu2w.s 			page 44


 2385 0048 0023     		movs	r3, #0
 2386 004a ADF81030 		strh	r3, [sp, #16]	@ movhi
 2387 004e 47E0     		b	.L120
 2388              	.L123:
 2389              	.LBB11:
 2390              		.loc 2 588 0
 2391 0050 019B     		ldr	r3, [sp, #4]
 2392 0052 DA68     		ldr	r2, [r3, #12]
 2393 0054 BDF80A30 		ldrh	r3, [sp, #10]
 2394 0058 591C     		adds	r1, r3, #1
 2395 005a ADF80A10 		strh	r1, [sp, #10]	@ movhi
 2396 005e 5B00     		lsls	r3, r3, #1
 2397 0060 1344     		add	r3, r3, r2
 2398 0062 1B88     		ldrh	r3, [r3]	@ movhi
 2399 0064 ADF81430 		strh	r3, [sp, #20]	@ movhi
 2400              		.loc 2 589 0
 2401 0068 019B     		ldr	r3, [sp, #4]
 2402 006a DA68     		ldr	r2, [r3, #12]
 2403 006c BDF80C30 		ldrh	r3, [sp, #12]
 2404 0070 591C     		adds	r1, r3, #1
 2405 0072 ADF80C10 		strh	r1, [sp, #12]	@ movhi
 2406 0076 5B00     		lsls	r3, r3, #1
 2407 0078 1344     		add	r3, r3, r2
 2408 007a 1B88     		ldrh	r3, [r3]	@ movhi
 2409 007c ADF81630 		strh	r3, [sp, #22]	@ movhi
 2410              		.loc 2 590 0
 2411 0080 019B     		ldr	r3, [sp, #4]
 2412 0082 DA68     		ldr	r2, [r3, #12]
 2413 0084 BDF80E30 		ldrh	r3, [sp, #14]
 2414 0088 591C     		adds	r1, r3, #1
 2415 008a ADF80E10 		strh	r1, [sp, #14]	@ movhi
 2416 008e 5B00     		lsls	r3, r3, #1
 2417 0090 1344     		add	r3, r3, r2
 2418 0092 1B88     		ldrh	r3, [r3]	@ movhi
 2419 0094 ADF81830 		strh	r3, [sp, #24]	@ movhi
 2420              		.loc 2 591 0
 2421 0098 BDF91420 		ldrsh	r2, [sp, #20]
 2422 009c BDF91830 		ldrsh	r3, [sp, #24]
 2423 00a0 9A42     		cmp	r2, r3
 2424 00a2 08DC     		bgt	.L121
 2425              		.loc 2 591 0 is_stmt 0 discriminator 1
 2426 00a4 BDF91420 		ldrsh	r2, [sp, #20]
 2427 00a8 BDF91630 		ldrsh	r3, [sp, #22]
 2428 00ac 9342     		cmp	r3, r2
 2429 00ae B8BF     		it	lt
 2430 00b0 1346     		movlt	r3, r2
 2431 00b2 1BB2     		sxth	r3, r3
 2432 00b4 01E0     		b	.L122
 2433              	.L121:
 2434              		.loc 2 591 0 discriminator 2
 2435 00b6 BDF91830 		ldrsh	r3, [sp, #24]
 2436              	.L122:
 2437              		.loc 2 591 0 discriminator 4
 2438 00ba ADF81A30 		strh	r3, [sp, #26]	@ movhi
 2439              		.loc 2 592 0 is_stmt 1 discriminator 4
 2440 00be 019B     		ldr	r3, [sp, #4]
 2441 00c0 DA68     		ldr	r2, [r3, #12]
ARM GAS  C:\Users\PCHAUT~1\AppData\Local\Temp\ccvICu2w.s 			page 45


 2442 00c2 BDF80830 		ldrh	r3, [sp, #8]
 2443 00c6 591C     		adds	r1, r3, #1
 2444 00c8 ADF80810 		strh	r1, [sp, #8]	@ movhi
 2445 00cc 5B00     		lsls	r3, r3, #1
 2446 00ce 1344     		add	r3, r3, r2
 2447 00d0 BDF81A20 		ldrh	r2, [sp, #26]	@ movhi
 2448 00d4 1A80     		strh	r2, [r3]	@ movhi
 2449              	.LBE11:
 2450              		.loc 2 586 0 discriminator 4
 2451 00d6 BDF81030 		ldrh	r3, [sp, #16]
 2452 00da 0133     		adds	r3, r3, #1
 2453 00dc ADF81030 		strh	r3, [sp, #16]	@ movhi
 2454              	.L120:
 2455              		.loc 2 586 0 is_stmt 0 discriminator 2
 2456 00e0 BDF81020 		ldrh	r2, [sp, #16]
 2457 00e4 BDF81230 		ldrh	r3, [sp, #18]
 2458 00e8 9A42     		cmp	r2, r3
 2459 00ea B1D3     		bcc	.L123
 2460              		.loc 2 594 0 is_stmt 1
 2461 00ec 00BF     		nop
 2462 00ee 054B     		ldr	r3, .L125
 2463 00f0 079A     		ldr	r2, [sp, #28]
 2464 00f2 1B68     		ldr	r3, [r3]
 2465 00f4 9A42     		cmp	r2, r3
 2466 00f6 01D0     		beq	.L124
 2467 00f8 FFF7FEFF 		bl	__stack_chk_fail
 2468              	.L124:
 2469 00fc 09B0     		add	sp, sp, #36
 2470              		.cfi_def_cfa_offset 4
 2471              		@ sp needed
 2472 00fe 5DF804FB 		ldr	pc, [sp], #4
 2473              	.L126:
 2474 0102 00BF     		.align	2
 2475              	.L125:
 2476 0104 00000000 		.word	__stack_chk_guard
 2477              		.cfi_endproc
 2478              	.LFE15:
 2479              		.size	AsebaNative_vecclamp, .-AsebaNative_vecclamp
 2480              		.global	AsebaNativeDescription_vecclamp
 2481              		.section	.rodata
 2482              		.align	2
 2483              	.LC24:
 2484 0274 6D617468 		.ascii	"math.clamp\000"
 2484      2E636C61 
 2484      6D7000
 2485 027f 00       		.align	2
 2486              	.LC25:
 2487 0280 636C616D 		.ascii	"clamp src to low/high bounds into dest, element by "
 2487      70207372 
 2487      6320746F 
 2487      206C6F77 
 2487      2F686967 
 2488 02b3 656C656D 		.ascii	"element\000"
 2488      656E7400 
 2489 02bb 00       		.align	2
 2490              	.LC26:
 2491 02bc 6C6F7700 		.ascii	"low\000"
ARM GAS  C:\Users\PCHAUT~1\AppData\Local\Temp\ccvICu2w.s 			page 46


 2492              		.align	2
 2493              	.LC27:
 2494 02c0 68696768 		.ascii	"high\000"
 2494      00
 2495              		.section	.rodata.AsebaNativeDescription_vecclamp,"a",%progbits
 2496              		.align	2
 2497              		.type	AsebaNativeDescription_vecclamp, %object
 2498              		.size	AsebaNativeDescription_vecclamp, 48
 2499              	AsebaNativeDescription_vecclamp:
 2500 0000 74020000 		.word	.LC24
 2501 0004 80020000 		.word	.LC25
 2502 0008 FFFF     		.short	-1
 2503 000a 0000     		.space	2
 2504 000c 34000000 		.word	.LC2
 2505 0010 FFFF     		.short	-1
 2506 0012 0000     		.space	2
 2507 0014 3C000000 		.word	.LC3
 2508 0018 FFFF     		.short	-1
 2509 001a 0000     		.space	2
 2510 001c BC020000 		.word	.LC26
 2511 0020 FFFF     		.short	-1
 2512 0022 0000     		.space	2
 2513 0024 C0020000 		.word	.LC27
 2514 0028 0000     		.short	0
 2515 002a 0000     		.space	2
 2516 002c 00000000 		.word	0
 2517              		.section	.text.AsebaNative_vecdot,"ax",%progbits
 2518              		.align	1
 2519              		.p2align 4,,15
 2520              		.global	AsebaNative_vecdot
 2521              		.syntax unified
 2522              		.thumb
 2523              		.thumb_func
 2524              		.fpu fpv4-sp-d16
 2525              		.type	AsebaNative_vecdot, %function
 2526              	AsebaNative_vecdot:
 2527              	.LFB16:
 2528              		.loc 2 610 0
 2529              		.cfi_startproc
 2530              		@ args = 0, pretend = 0, frame = 32
 2531              		@ frame_needed = 0, uses_anonymous_args = 0
 2532 0000 10B5     		push	{r4, lr}
 2533              		.cfi_def_cfa_offset 8
 2534              		.cfi_offset 4, -8
 2535              		.cfi_offset 14, -4
 2536 0002 88B0     		sub	sp, sp, #32
 2537              		.cfi_def_cfa_offset 40
 2538 0004 0190     		str	r0, [sp, #4]
 2539              		.loc 2 610 0
 2540 0006 3C4B     		ldr	r3, .L133
 2541 0008 1B68     		ldr	r3, [r3]
 2542 000a 0793     		str	r3, [sp, #28]
 2543              		.loc 2 612 0
 2544 000c 0198     		ldr	r0, [sp, #4]
 2545 000e FFF7FEFF 		bl	AsebaNativePopArg
 2546 0012 0346     		mov	r3, r0
 2547 0014 ADF81230 		strh	r3, [sp, #18]	@ movhi
ARM GAS  C:\Users\PCHAUT~1\AppData\Local\Temp\ccvICu2w.s 			page 47


 2548              		.loc 2 613 0
 2549 0018 0198     		ldr	r0, [sp, #4]
 2550 001a FFF7FEFF 		bl	AsebaNativePopArg
 2551 001e 0346     		mov	r3, r0
 2552 0020 ADF80C30 		strh	r3, [sp, #12]	@ movhi
 2553              		.loc 2 614 0
 2554 0024 0198     		ldr	r0, [sp, #4]
 2555 0026 FFF7FEFF 		bl	AsebaNativePopArg
 2556 002a 0346     		mov	r3, r0
 2557 002c ADF80E30 		strh	r3, [sp, #14]	@ movhi
 2558              		.loc 2 615 0
 2559 0030 019B     		ldr	r3, [sp, #4]
 2560 0032 DC68     		ldr	r4, [r3, #12]
 2561 0034 0198     		ldr	r0, [sp, #4]
 2562 0036 FFF7FEFF 		bl	AsebaNativePopArg
 2563 003a 0346     		mov	r3, r0
 2564 003c 5B00     		lsls	r3, r3, #1
 2565 003e 2344     		add	r3, r3, r4
 2566 0040 1B88     		ldrh	r3, [r3]	@ movhi
 2567 0042 ADF81430 		strh	r3, [sp, #20]	@ movhi
 2568              		.loc 2 618 0
 2569 0046 0198     		ldr	r0, [sp, #4]
 2570 0048 FFF7FEFF 		bl	AsebaNativePopArg
 2571 004c 0346     		mov	r3, r0
 2572 004e ADF81630 		strh	r3, [sp, #22]	@ movhi
 2573              		.loc 2 619 0
 2574 0052 0023     		movs	r3, #0
 2575 0054 0693     		str	r3, [sp, #24]
 2576              		.loc 2 622 0
 2577 0056 BDF91430 		ldrsh	r3, [sp, #20]
 2578 005a 202B     		cmp	r3, #32
 2579 005c 08DD     		ble	.L128
 2580              		.loc 2 623 0
 2581 005e 019B     		ldr	r3, [sp, #4]
 2582 0060 DA68     		ldr	r2, [r3, #12]
 2583 0062 BDF81230 		ldrh	r3, [sp, #18]
 2584 0066 5B00     		lsls	r3, r3, #1
 2585 0068 1344     		add	r3, r3, r2
 2586 006a 0022     		movs	r2, #0
 2587 006c 1A80     		strh	r2, [r3]	@ movhi
 2588              		.loc 2 624 0
 2589 006e 39E0     		b	.L127
 2590              	.L128:
 2591              		.loc 2 662 0
 2592 0070 0023     		movs	r3, #0
 2593 0072 ADF81030 		strh	r3, [sp, #16]	@ movhi
 2594 0076 20E0     		b	.L130
 2595              	.L131:
 2596              		.loc 2 664 0 discriminator 3
 2597 0078 019B     		ldr	r3, [sp, #4]
 2598 007a DA68     		ldr	r2, [r3, #12]
 2599 007c BDF80C30 		ldrh	r3, [sp, #12]
 2600 0080 591C     		adds	r1, r3, #1
 2601 0082 ADF80C10 		strh	r1, [sp, #12]	@ movhi
 2602 0086 5B00     		lsls	r3, r3, #1
 2603 0088 1344     		add	r3, r3, r2
 2604 008a B3F90030 		ldrsh	r3, [r3]
ARM GAS  C:\Users\PCHAUT~1\AppData\Local\Temp\ccvICu2w.s 			page 48


 2605 008e 1946     		mov	r1, r3
 2606 0090 019B     		ldr	r3, [sp, #4]
 2607 0092 DA68     		ldr	r2, [r3, #12]
 2608 0094 BDF80E30 		ldrh	r3, [sp, #14]
 2609 0098 581C     		adds	r0, r3, #1
 2610 009a ADF80E00 		strh	r0, [sp, #14]	@ movhi
 2611 009e 5B00     		lsls	r3, r3, #1
 2612 00a0 1344     		add	r3, r3, r2
 2613 00a2 B3F90030 		ldrsh	r3, [r3]
 2614 00a6 03FB01F3 		mul	r3, r3, r1
 2615 00aa 069A     		ldr	r2, [sp, #24]
 2616 00ac 1344     		add	r3, r3, r2
 2617 00ae 0693     		str	r3, [sp, #24]
 2618              		.loc 2 662 0 discriminator 3
 2619 00b0 BDF81030 		ldrh	r3, [sp, #16]
 2620 00b4 0133     		adds	r3, r3, #1
 2621 00b6 ADF81030 		strh	r3, [sp, #16]	@ movhi
 2622              	.L130:
 2623              		.loc 2 662 0 is_stmt 0 discriminator 1
 2624 00ba BDF81020 		ldrh	r2, [sp, #16]
 2625 00be BDF81630 		ldrh	r3, [sp, #22]
 2626 00c2 9A42     		cmp	r2, r3
 2627 00c4 D8D3     		bcc	.L131
 2628              		.loc 2 666 0 is_stmt 1
 2629 00c6 BDF91430 		ldrsh	r3, [sp, #20]
 2630 00ca 069A     		ldr	r2, [sp, #24]
 2631 00cc 42FA03F3 		asr	r3, r2, r3
 2632 00d0 0693     		str	r3, [sp, #24]
 2633              		.loc 2 667 0
 2634 00d2 019B     		ldr	r3, [sp, #4]
 2635 00d4 DA68     		ldr	r2, [r3, #12]
 2636 00d6 BDF81230 		ldrh	r3, [sp, #18]
 2637 00da 5B00     		lsls	r3, r3, #1
 2638 00dc 1344     		add	r3, r3, r2
 2639 00de 069A     		ldr	r2, [sp, #24]
 2640 00e0 12B2     		sxth	r2, r2
 2641 00e2 1A80     		strh	r2, [r3]	@ movhi
 2642              	.L127:
 2643              		.loc 2 669 0
 2644 00e4 044B     		ldr	r3, .L133
 2645 00e6 079A     		ldr	r2, [sp, #28]
 2646 00e8 1B68     		ldr	r3, [r3]
 2647 00ea 9A42     		cmp	r2, r3
 2648 00ec 01D0     		beq	.L132
 2649 00ee FFF7FEFF 		bl	__stack_chk_fail
 2650              	.L132:
 2651 00f2 08B0     		add	sp, sp, #32
 2652              		.cfi_def_cfa_offset 8
 2653              		@ sp needed
 2654 00f4 10BD     		pop	{r4, pc}
 2655              	.L134:
 2656 00f6 00BF     		.align	2
 2657              	.L133:
 2658 00f8 00000000 		.word	__stack_chk_guard
 2659              		.cfi_endproc
 2660              	.LFE16:
 2661              		.size	AsebaNative_vecdot, .-AsebaNative_vecdot
ARM GAS  C:\Users\PCHAUT~1\AppData\Local\Temp\ccvICu2w.s 			page 49


 2662              		.global	AsebaNativeDescription_vecdot
 2663              		.section	.rodata
 2664 02c5 000000   		.align	2
 2665              	.LC28:
 2666 02c8 6D617468 		.ascii	"math.dot\000"
 2666      2E646F74 
 2666      00
 2667 02d1 000000   		.align	2
 2668              	.LC29:
 2669 02d4 77726974 		.ascii	"writes the dot product of src1 and src2 to dest, af"
 2669      65732074 
 2669      68652064 
 2669      6F742070 
 2669      726F6475 
 2670 0307 74657220 		.ascii	"ter a shift\000"
 2670      61207368 
 2670      69667400 
 2671 0313 00       		.align	2
 2672              	.LC30:
 2673 0314 73686966 		.ascii	"shift\000"
 2673      7400
 2674              		.section	.rodata.AsebaNativeDescription_vecdot,"a",%progbits
 2675              		.align	2
 2676              		.type	AsebaNativeDescription_vecdot, %object
 2677              		.size	AsebaNativeDescription_vecdot, 48
 2678              	AsebaNativeDescription_vecdot:
 2679 0000 C8020000 		.word	.LC28
 2680 0004 D4020000 		.word	.LC29
 2681 0008 0100     		.short	1
 2682 000a 0000     		.space	2
 2683 000c 34000000 		.word	.LC2
 2684 0010 FFFF     		.short	-1
 2685 0012 0000     		.space	2
 2686 0014 04010000 		.word	.LC12
 2687 0018 FFFF     		.short	-1
 2688 001a 0000     		.space	2
 2689 001c 0C010000 		.word	.LC13
 2690 0020 0100     		.short	1
 2691 0022 0000     		.space	2
 2692 0024 14030000 		.word	.LC30
 2693 0028 0000     		.short	0
 2694 002a 0000     		.space	2
 2695 002c 00000000 		.word	0
 2696              		.section	.text.AsebaNative_vecstat,"ax",%progbits
 2697              		.align	1
 2698              		.p2align 4,,15
 2699              		.global	AsebaNative_vecstat
 2700              		.syntax unified
 2701              		.thumb
 2702              		.thumb_func
 2703              		.fpu fpv4-sp-d16
 2704              		.type	AsebaNative_vecstat, %function
 2705              	AsebaNative_vecstat:
 2706              	.LFB17:
 2707              		.loc 2 686 0
 2708              		.cfi_startproc
 2709              		@ args = 0, pretend = 0, frame = 32
ARM GAS  C:\Users\PCHAUT~1\AppData\Local\Temp\ccvICu2w.s 			page 50


 2710              		@ frame_needed = 0, uses_anonymous_args = 0
 2711 0000 00B5     		push	{lr}
 2712              		.cfi_def_cfa_offset 4
 2713              		.cfi_offset 14, -4
 2714 0002 89B0     		sub	sp, sp, #36
 2715              		.cfi_def_cfa_offset 40
 2716 0004 0190     		str	r0, [sp, #4]
 2717              		.loc 2 686 0
 2718 0006 544B     		ldr	r3, .L143
 2719 0008 1B68     		ldr	r3, [r3]
 2720 000a 0793     		str	r3, [sp, #28]
 2721              		.loc 2 688 0
 2722 000c 0198     		ldr	r0, [sp, #4]
 2723 000e FFF7FEFF 		bl	AsebaNativePopArg
 2724 0012 0346     		mov	r3, r0
 2725 0014 ADF80A30 		strh	r3, [sp, #10]	@ movhi
 2726              		.loc 2 689 0
 2727 0018 0198     		ldr	r0, [sp, #4]
 2728 001a FFF7FEFF 		bl	AsebaNativePopArg
 2729 001e 0346     		mov	r3, r0
 2730 0020 ADF80E30 		strh	r3, [sp, #14]	@ movhi
 2731              		.loc 2 690 0
 2732 0024 0198     		ldr	r0, [sp, #4]
 2733 0026 FFF7FEFF 		bl	AsebaNativePopArg
 2734 002a 0346     		mov	r3, r0
 2735 002c ADF81030 		strh	r3, [sp, #16]	@ movhi
 2736              		.loc 2 691 0
 2737 0030 0198     		ldr	r0, [sp, #4]
 2738 0032 FFF7FEFF 		bl	AsebaNativePopArg
 2739 0036 0346     		mov	r3, r0
 2740 0038 ADF81230 		strh	r3, [sp, #18]	@ movhi
 2741              		.loc 2 694 0
 2742 003c 0198     		ldr	r0, [sp, #4]
 2743 003e FFF7FEFF 		bl	AsebaNativePopArg
 2744 0042 0346     		mov	r3, r0
 2745 0044 ADF81430 		strh	r3, [sp, #20]	@ movhi
 2746              		.loc 2 699 0
 2747 0048 BDF81430 		ldrh	r3, [sp, #20]
 2748 004c 002B     		cmp	r3, #0
 2749 004e 77D0     		beq	.L142
 2750              		.loc 2 701 0
 2751 0050 019B     		ldr	r3, [sp, #4]
 2752 0052 DA68     		ldr	r2, [r3, #12]
 2753 0054 BDF80A30 		ldrh	r3, [sp, #10]
 2754 0058 591C     		adds	r1, r3, #1
 2755 005a ADF80A10 		strh	r1, [sp, #10]	@ movhi
 2756 005e 5B00     		lsls	r3, r3, #1
 2757 0060 1344     		add	r3, r3, r2
 2758 0062 1B88     		ldrh	r3, [r3]	@ movhi
 2759 0064 ADF81630 		strh	r3, [sp, #22]	@ movhi
 2760              		.loc 2 702 0
 2761 0068 BDF91630 		ldrsh	r3, [sp, #22]
 2762 006c 0693     		str	r3, [sp, #24]
 2763              		.loc 2 703 0
 2764 006e 019B     		ldr	r3, [sp, #4]
 2765 0070 DA68     		ldr	r2, [r3, #12]
 2766 0072 BDF80E30 		ldrh	r3, [sp, #14]
ARM GAS  C:\Users\PCHAUT~1\AppData\Local\Temp\ccvICu2w.s 			page 51


 2767 0076 5B00     		lsls	r3, r3, #1
 2768 0078 1344     		add	r3, r3, r2
 2769 007a BDF81620 		ldrh	r2, [sp, #22]	@ movhi
 2770 007e 1A80     		strh	r2, [r3]	@ movhi
 2771              		.loc 2 704 0
 2772 0080 019B     		ldr	r3, [sp, #4]
 2773 0082 DA68     		ldr	r2, [r3, #12]
 2774 0084 BDF81030 		ldrh	r3, [sp, #16]
 2775 0088 5B00     		lsls	r3, r3, #1
 2776 008a 1344     		add	r3, r3, r2
 2777 008c BDF81620 		ldrh	r2, [sp, #22]	@ movhi
 2778 0090 1A80     		strh	r2, [r3]	@ movhi
 2779              		.loc 2 706 0
 2780 0092 0123     		movs	r3, #1
 2781 0094 ADF80C30 		strh	r3, [sp, #12]	@ movhi
 2782 0098 3FE0     		b	.L137
 2783              	.L140:
 2784              		.loc 2 708 0
 2785 009a 019B     		ldr	r3, [sp, #4]
 2786 009c DA68     		ldr	r2, [r3, #12]
 2787 009e BDF80A30 		ldrh	r3, [sp, #10]
 2788 00a2 591C     		adds	r1, r3, #1
 2789 00a4 ADF80A10 		strh	r1, [sp, #10]	@ movhi
 2790 00a8 5B00     		lsls	r3, r3, #1
 2791 00aa 1344     		add	r3, r3, r2
 2792 00ac 1B88     		ldrh	r3, [r3]	@ movhi
 2793 00ae ADF81630 		strh	r3, [sp, #22]	@ movhi
 2794              		.loc 2 709 0
 2795 00b2 019B     		ldr	r3, [sp, #4]
 2796 00b4 DA68     		ldr	r2, [r3, #12]
 2797 00b6 BDF80E30 		ldrh	r3, [sp, #14]
 2798 00ba 5B00     		lsls	r3, r3, #1
 2799 00bc 1344     		add	r3, r3, r2
 2800 00be B3F90030 		ldrsh	r3, [r3]
 2801 00c2 BDF91620 		ldrsh	r2, [sp, #22]
 2802 00c6 9A42     		cmp	r2, r3
 2803 00c8 08DA     		bge	.L138
 2804              		.loc 2 710 0
 2805 00ca 019B     		ldr	r3, [sp, #4]
 2806 00cc DA68     		ldr	r2, [r3, #12]
 2807 00ce BDF80E30 		ldrh	r3, [sp, #14]
 2808 00d2 5B00     		lsls	r3, r3, #1
 2809 00d4 1344     		add	r3, r3, r2
 2810 00d6 BDF81620 		ldrh	r2, [sp, #22]	@ movhi
 2811 00da 1A80     		strh	r2, [r3]	@ movhi
 2812              	.L138:
 2813              		.loc 2 711 0
 2814 00dc 019B     		ldr	r3, [sp, #4]
 2815 00de DA68     		ldr	r2, [r3, #12]
 2816 00e0 BDF81030 		ldrh	r3, [sp, #16]
 2817 00e4 5B00     		lsls	r3, r3, #1
 2818 00e6 1344     		add	r3, r3, r2
 2819 00e8 B3F90030 		ldrsh	r3, [r3]
 2820 00ec BDF91620 		ldrsh	r2, [sp, #22]
 2821 00f0 9A42     		cmp	r2, r3
 2822 00f2 08DD     		ble	.L139
 2823              		.loc 2 712 0
ARM GAS  C:\Users\PCHAUT~1\AppData\Local\Temp\ccvICu2w.s 			page 52


 2824 00f4 019B     		ldr	r3, [sp, #4]
 2825 00f6 DA68     		ldr	r2, [r3, #12]
 2826 00f8 BDF81030 		ldrh	r3, [sp, #16]
 2827 00fc 5B00     		lsls	r3, r3, #1
 2828 00fe 1344     		add	r3, r3, r2
 2829 0100 BDF81620 		ldrh	r2, [sp, #22]	@ movhi
 2830 0104 1A80     		strh	r2, [r3]	@ movhi
 2831              	.L139:
 2832              		.loc 2 713 0 discriminator 2
 2833 0106 BDF91630 		ldrsh	r3, [sp, #22]
 2834 010a 069A     		ldr	r2, [sp, #24]
 2835 010c 1344     		add	r3, r3, r2
 2836 010e 0693     		str	r3, [sp, #24]
 2837              		.loc 2 706 0 discriminator 2
 2838 0110 BDF80C30 		ldrh	r3, [sp, #12]
 2839 0114 0133     		adds	r3, r3, #1
 2840 0116 ADF80C30 		strh	r3, [sp, #12]	@ movhi
 2841              	.L137:
 2842              		.loc 2 706 0 is_stmt 0 discriminator 1
 2843 011a BDF80C20 		ldrh	r2, [sp, #12]
 2844 011e BDF81430 		ldrh	r3, [sp, #20]
 2845 0122 9A42     		cmp	r2, r3
 2846 0124 B9D3     		bcc	.L140
 2847              		.loc 2 716 0 is_stmt 1
 2848 0126 BDF81430 		ldrh	r3, [sp, #20]
 2849 012a 069A     		ldr	r2, [sp, #24]
 2850 012c 92FBF3F1 		sdiv	r1, r2, r3
 2851 0130 019B     		ldr	r3, [sp, #4]
 2852 0132 DA68     		ldr	r2, [r3, #12]
 2853 0134 BDF81230 		ldrh	r3, [sp, #18]
 2854 0138 5B00     		lsls	r3, r3, #1
 2855 013a 1344     		add	r3, r3, r2
 2856 013c 0AB2     		sxth	r2, r1
 2857 013e 1A80     		strh	r2, [r3]	@ movhi
 2858              	.L142:
 2859              		.loc 2 718 0
 2860 0140 00BF     		nop
 2861 0142 054B     		ldr	r3, .L143
 2862 0144 079A     		ldr	r2, [sp, #28]
 2863 0146 1B68     		ldr	r3, [r3]
 2864 0148 9A42     		cmp	r2, r3
 2865 014a 01D0     		beq	.L141
 2866 014c FFF7FEFF 		bl	__stack_chk_fail
 2867              	.L141:
 2868 0150 09B0     		add	sp, sp, #36
 2869              		.cfi_def_cfa_offset 4
 2870              		@ sp needed
 2871 0152 5DF804FB 		ldr	pc, [sp], #4
 2872              	.L144:
 2873 0156 00BF     		.align	2
 2874              	.L143:
 2875 0158 00000000 		.word	__stack_chk_guard
 2876              		.cfi_endproc
 2877              	.LFE17:
 2878              		.size	AsebaNative_vecstat, .-AsebaNative_vecstat
 2879              		.global	AsebaNativeDescription_vecstat
 2880              		.section	.rodata
ARM GAS  C:\Users\PCHAUT~1\AppData\Local\Temp\ccvICu2w.s 			page 53


 2881 031a 0000     		.align	2
 2882              	.LC31:
 2883 031c 6D617468 		.ascii	"math.stat\000"
 2883      2E737461 
 2883      7400
 2884 0326 0000     		.align	2
 2885              	.LC32:
 2886 0328 70657266 		.ascii	"performs statistics on src\000"
 2886      6F726D73 
 2886      20737461 
 2886      74697374 
 2886      69637320 
 2887 0343 00       		.align	2
 2888              	.LC33:
 2889 0344 6D696E00 		.ascii	"min\000"
 2890              		.align	2
 2891              	.LC34:
 2892 0348 6D617800 		.ascii	"max\000"
 2893              		.align	2
 2894              	.LC35:
 2895 034c 6D65616E 		.ascii	"mean\000"
 2895      00
 2896              		.section	.rodata.AsebaNativeDescription_vecstat,"a",%progbits
 2897              		.align	2
 2898              		.type	AsebaNativeDescription_vecstat, %object
 2899              		.size	AsebaNativeDescription_vecstat, 48
 2900              	AsebaNativeDescription_vecstat:
 2901 0000 1C030000 		.word	.LC31
 2902 0004 28030000 		.word	.LC32
 2903 0008 FFFF     		.short	-1
 2904 000a 0000     		.space	2
 2905 000c 3C000000 		.word	.LC3
 2906 0010 0100     		.short	1
 2907 0012 0000     		.space	2
 2908 0014 44030000 		.word	.LC33
 2909 0018 0100     		.short	1
 2910 001a 0000     		.space	2
 2911 001c 48030000 		.word	.LC34
 2912 0020 0100     		.short	1
 2913 0022 0000     		.space	2
 2914 0024 4C030000 		.word	.LC35
 2915 0028 0000     		.short	0
 2916 002a 0000     		.space	2
 2917 002c 00000000 		.word	0
 2918              		.section	.text.AsebaNative_vecargbounds,"ax",%progbits
 2919              		.align	1
 2920              		.p2align 4,,15
 2921              		.global	AsebaNative_vecargbounds
 2922              		.syntax unified
 2923              		.thumb
 2924              		.thumb_func
 2925              		.fpu fpv4-sp-d16
 2926              		.type	AsebaNative_vecargbounds, %function
 2927              	AsebaNative_vecargbounds:
 2928              	.LFB18:
 2929              		.loc 2 735 0
 2930              		.cfi_startproc
ARM GAS  C:\Users\PCHAUT~1\AppData\Local\Temp\ccvICu2w.s 			page 54


 2931              		@ args = 0, pretend = 0, frame = 32
 2932              		@ frame_needed = 0, uses_anonymous_args = 0
 2933 0000 00B5     		push	{lr}
 2934              		.cfi_def_cfa_offset 4
 2935              		.cfi_offset 14, -4
 2936 0002 89B0     		sub	sp, sp, #36
 2937              		.cfi_def_cfa_offset 40
 2938 0004 0190     		str	r0, [sp, #4]
 2939              		.loc 2 735 0
 2940 0006 394B     		ldr	r3, .L153
 2941 0008 1B68     		ldr	r3, [r3]
 2942 000a 0793     		str	r3, [sp, #28]
 2943              		.loc 2 737 0
 2944 000c 0198     		ldr	r0, [sp, #4]
 2945 000e FFF7FEFF 		bl	AsebaNativePopArg
 2946 0012 0346     		mov	r3, r0
 2947 0014 ADF80C30 		strh	r3, [sp, #12]	@ movhi
 2948              		.loc 2 738 0
 2949 0018 0198     		ldr	r0, [sp, #4]
 2950 001a FFF7FEFF 		bl	AsebaNativePopArg
 2951 001e 0346     		mov	r3, r0
 2952 0020 ADF81430 		strh	r3, [sp, #20]	@ movhi
 2953              		.loc 2 739 0
 2954 0024 0198     		ldr	r0, [sp, #4]
 2955 0026 FFF7FEFF 		bl	AsebaNativePopArg
 2956 002a 0346     		mov	r3, r0
 2957 002c ADF81630 		strh	r3, [sp, #22]	@ movhi
 2958              		.loc 2 742 0
 2959 0030 0198     		ldr	r0, [sp, #4]
 2960 0032 FFF7FEFF 		bl	AsebaNativePopArg
 2961 0036 0346     		mov	r3, r0
 2962 0038 ADF81830 		strh	r3, [sp, #24]	@ movhi
 2963              		.loc 2 743 0
 2964 003c 47F6FF73 		movw	r3, #32767
 2965 0040 ADF80E30 		strh	r3, [sp, #14]	@ movhi
 2966              		.loc 2 744 0
 2967 0044 4FF40043 		mov	r3, #32768
 2968 0048 ADF81030 		strh	r3, [sp, #16]	@ movhi
 2969              		.loc 2 748 0
 2970 004c BDF81830 		ldrh	r3, [sp, #24]
 2971 0050 002B     		cmp	r3, #0
 2972 0052 40D0     		beq	.L152
 2973              		.loc 2 750 0
 2974 0054 0023     		movs	r3, #0
 2975 0056 ADF81230 		strh	r3, [sp, #18]	@ movhi
 2976 005a 36E0     		b	.L147
 2977              	.L150:
 2978              		.loc 2 752 0
 2979 005c 019B     		ldr	r3, [sp, #4]
 2980 005e DA68     		ldr	r2, [r3, #12]
 2981 0060 BDF80C30 		ldrh	r3, [sp, #12]
 2982 0064 591C     		adds	r1, r3, #1
 2983 0066 ADF80C10 		strh	r1, [sp, #12]	@ movhi
 2984 006a 5B00     		lsls	r3, r3, #1
 2985 006c 1344     		add	r3, r3, r2
 2986 006e 1B88     		ldrh	r3, [r3]	@ movhi
 2987 0070 ADF81A30 		strh	r3, [sp, #26]	@ movhi
ARM GAS  C:\Users\PCHAUT~1\AppData\Local\Temp\ccvICu2w.s 			page 55


 2988              		.loc 2 753 0
 2989 0074 BDF91A20 		ldrsh	r2, [sp, #26]
 2990 0078 BDF90E30 		ldrsh	r3, [sp, #14]
 2991 007c 9A42     		cmp	r2, r3
 2992 007e 0CDA     		bge	.L148
 2993              		.loc 2 755 0
 2994 0080 BDF81A30 		ldrh	r3, [sp, #26]	@ movhi
 2995 0084 ADF80E30 		strh	r3, [sp, #14]	@ movhi
 2996              		.loc 2 756 0
 2997 0088 019B     		ldr	r3, [sp, #4]
 2998 008a DA68     		ldr	r2, [r3, #12]
 2999 008c BDF81430 		ldrh	r3, [sp, #20]
 3000 0090 5B00     		lsls	r3, r3, #1
 3001 0092 1344     		add	r3, r3, r2
 3002 0094 BDF91220 		ldrsh	r2, [sp, #18]
 3003 0098 1A80     		strh	r2, [r3]	@ movhi
 3004              	.L148:
 3005              		.loc 2 758 0
 3006 009a BDF91A20 		ldrsh	r2, [sp, #26]
 3007 009e BDF91030 		ldrsh	r3, [sp, #16]
 3008 00a2 9A42     		cmp	r2, r3
 3009 00a4 0CDD     		ble	.L149
 3010              		.loc 2 760 0
 3011 00a6 BDF81A30 		ldrh	r3, [sp, #26]	@ movhi
 3012 00aa ADF81030 		strh	r3, [sp, #16]	@ movhi
 3013              		.loc 2 761 0
 3014 00ae 019B     		ldr	r3, [sp, #4]
 3015 00b0 DA68     		ldr	r2, [r3, #12]
 3016 00b2 BDF81630 		ldrh	r3, [sp, #22]
 3017 00b6 5B00     		lsls	r3, r3, #1
 3018 00b8 1344     		add	r3, r3, r2
 3019 00ba BDF91220 		ldrsh	r2, [sp, #18]
 3020 00be 1A80     		strh	r2, [r3]	@ movhi
 3021              	.L149:
 3022              		.loc 2 750 0 discriminator 2
 3023 00c0 BDF81230 		ldrh	r3, [sp, #18]
 3024 00c4 0133     		adds	r3, r3, #1
 3025 00c6 ADF81230 		strh	r3, [sp, #18]	@ movhi
 3026              	.L147:
 3027              		.loc 2 750 0 is_stmt 0 discriminator 1
 3028 00ca BDF81220 		ldrh	r2, [sp, #18]
 3029 00ce BDF81830 		ldrh	r3, [sp, #24]
 3030 00d2 9A42     		cmp	r2, r3
 3031 00d4 C2D3     		bcc	.L150
 3032              	.L152:
 3033              		.loc 2 765 0 is_stmt 1
 3034 00d6 00BF     		nop
 3035 00d8 044B     		ldr	r3, .L153
 3036 00da 079A     		ldr	r2, [sp, #28]
 3037 00dc 1B68     		ldr	r3, [r3]
 3038 00de 9A42     		cmp	r2, r3
 3039 00e0 01D0     		beq	.L151
 3040 00e2 FFF7FEFF 		bl	__stack_chk_fail
 3041              	.L151:
 3042 00e6 09B0     		add	sp, sp, #36
 3043              		.cfi_def_cfa_offset 4
 3044              		@ sp needed
ARM GAS  C:\Users\PCHAUT~1\AppData\Local\Temp\ccvICu2w.s 			page 56


 3045 00e8 5DF804FB 		ldr	pc, [sp], #4
 3046              	.L154:
 3047              		.align	2
 3048              	.L153:
 3049 00ec 00000000 		.word	__stack_chk_guard
 3050              		.cfi_endproc
 3051              	.LFE18:
 3052              		.size	AsebaNative_vecargbounds, .-AsebaNative_vecargbounds
 3053              		.global	AsebaNativeDescription_vecargbounds
 3054              		.section	.rodata
 3055 0351 000000   		.align	2
 3056              	.LC36:
 3057 0354 6D617468 		.ascii	"math.argbounds\000"
 3057      2E617267 
 3057      626F756E 
 3057      647300
 3058 0363 00       		.align	2
 3059              	.LC37:
 3060 0364 67657420 		.ascii	"get the indices (argmin, argmax) of the limit value"
 3060      74686520 
 3060      696E6469 
 3060      63657320 
 3060      28617267 
 3061 0397 73206F66 		.ascii	"s of src\000"
 3061      20737263 
 3061      00
 3062              		.align	2
 3063              	.LC38:
 3064 03a0 6172676D 		.ascii	"argmin\000"
 3064      696E00
 3065 03a7 00       		.align	2
 3066              	.LC39:
 3067 03a8 6172676D 		.ascii	"argmax\000"
 3067      617800
 3068              		.section	.rodata.AsebaNativeDescription_vecargbounds,"a",%progbits
 3069              		.align	2
 3070              		.type	AsebaNativeDescription_vecargbounds, %object
 3071              		.size	AsebaNativeDescription_vecargbounds, 40
 3072              	AsebaNativeDescription_vecargbounds:
 3073 0000 54030000 		.word	.LC36
 3074 0004 64030000 		.word	.LC37
 3075 0008 FFFF     		.short	-1
 3076 000a 0000     		.space	2
 3077 000c 3C000000 		.word	.LC3
 3078 0010 0100     		.short	1
 3079 0012 0000     		.space	2
 3080 0014 A0030000 		.word	.LC38
 3081 0018 0100     		.short	1
 3082 001a 0000     		.space	2
 3083 001c A8030000 		.word	.LC39
 3084 0020 0000     		.short	0
 3085 0022 0000     		.space	2
 3086 0024 00000000 		.word	0
 3087              		.section	.text.AsebaNative_vecsort,"ax",%progbits
 3088              		.align	1
 3089              		.p2align 4,,15
 3090              		.global	AsebaNative_vecsort
ARM GAS  C:\Users\PCHAUT~1\AppData\Local\Temp\ccvICu2w.s 			page 57


 3091              		.syntax unified
 3092              		.thumb
 3093              		.thumb_func
 3094              		.fpu fpv4-sp-d16
 3095              		.type	AsebaNative_vecsort, %function
 3096              	AsebaNative_vecsort:
 3097              	.LFB19:
 3098              		.loc 2 781 0
 3099              		.cfi_startproc
 3100              		@ args = 0, pretend = 0, frame = 16
 3101              		@ frame_needed = 0, uses_anonymous_args = 0
 3102 0000 00B5     		push	{lr}
 3103              		.cfi_def_cfa_offset 4
 3104              		.cfi_offset 14, -4
 3105 0002 85B0     		sub	sp, sp, #20
 3106              		.cfi_def_cfa_offset 24
 3107 0004 0190     		str	r0, [sp, #4]
 3108              		.loc 2 781 0
 3109 0006 134B     		ldr	r3, .L157
 3110 0008 1B68     		ldr	r3, [r3]
 3111 000a 0393     		str	r3, [sp, #12]
 3112              		.loc 2 783 0
 3113 000c 0198     		ldr	r0, [sp, #4]
 3114 000e FFF7FEFF 		bl	AsebaNativePopArg
 3115 0012 0346     		mov	r3, r0
 3116 0014 ADF80830 		strh	r3, [sp, #8]	@ movhi
 3117              		.loc 2 786 0
 3118 0018 0198     		ldr	r0, [sp, #4]
 3119 001a FFF7FEFF 		bl	AsebaNativePopArg
 3120 001e 0346     		mov	r3, r0
 3121 0020 ADF80A30 		strh	r3, [sp, #10]	@ movhi
 3122              		.loc 2 788 0
 3123 0024 019B     		ldr	r3, [sp, #4]
 3124 0026 DA68     		ldr	r2, [r3, #12]
 3125 0028 BDF80830 		ldrh	r3, [sp, #8]
 3126 002c 5B00     		lsls	r3, r3, #1
 3127 002e 1344     		add	r3, r3, r2
 3128 0030 BDF80A20 		ldrh	r2, [sp, #10]
 3129 0034 1146     		mov	r1, r2
 3130 0036 1846     		mov	r0, r3
 3131 0038 FFF7FEFF 		bl	aseba_comb_sort
 3132              		.loc 2 789 0
 3133 003c 00BF     		nop
 3134 003e 054B     		ldr	r3, .L157
 3135 0040 039A     		ldr	r2, [sp, #12]
 3136 0042 1B68     		ldr	r3, [r3]
 3137 0044 9A42     		cmp	r2, r3
 3138 0046 01D0     		beq	.L156
 3139 0048 FFF7FEFF 		bl	__stack_chk_fail
 3140              	.L156:
 3141 004c 05B0     		add	sp, sp, #20
 3142              		.cfi_def_cfa_offset 4
 3143              		@ sp needed
 3144 004e 5DF804FB 		ldr	pc, [sp], #4
 3145              	.L158:
 3146 0052 00BF     		.align	2
 3147              	.L157:
ARM GAS  C:\Users\PCHAUT~1\AppData\Local\Temp\ccvICu2w.s 			page 58


 3148 0054 00000000 		.word	__stack_chk_guard
 3149              		.cfi_endproc
 3150              	.LFE19:
 3151              		.size	AsebaNative_vecsort, .-AsebaNative_vecsort
 3152              		.global	AsebaNativeDescription_vecsort
 3153              		.section	.rodata
 3154 03af 00       		.align	2
 3155              	.LC40:
 3156 03b0 6D617468 		.ascii	"math.sort\000"
 3156      2E736F72 
 3156      7400
 3157 03ba 0000     		.align	2
 3158              	.LC41:
 3159 03bc 736F7274 		.ascii	"sort array in place\000"
 3159      20617272 
 3159      61792069 
 3159      6E20706C 
 3159      61636500 
 3160              		.align	2
 3161              	.LC42:
 3162 03d0 61727261 		.ascii	"array\000"
 3162      7900
 3163              		.section	.rodata.AsebaNativeDescription_vecsort,"a",%progbits
 3164              		.align	2
 3165              		.type	AsebaNativeDescription_vecsort, %object
 3166              		.size	AsebaNativeDescription_vecsort, 24
 3167              	AsebaNativeDescription_vecsort:
 3168 0000 B0030000 		.word	.LC40
 3169 0004 BC030000 		.word	.LC41
 3170 0008 FFFF     		.short	-1
 3171 000a 0000     		.space	2
 3172 000c D0030000 		.word	.LC42
 3173 0010 0000     		.short	0
 3174 0012 0000     		.space	2
 3175 0014 00000000 		.word	0
 3176              		.section	.text.AsebaNative_mathmuldiv,"ax",%progbits
 3177              		.align	1
 3178              		.p2align 4,,15
 3179              		.global	AsebaNative_mathmuldiv
 3180              		.syntax unified
 3181              		.thumb
 3182              		.thumb_func
 3183              		.fpu fpv4-sp-d16
 3184              		.type	AsebaNative_mathmuldiv, %function
 3185              	AsebaNative_mathmuldiv:
 3186              	.LFB20:
 3187              		.loc 2 803 0
 3188              		.cfi_startproc
 3189              		@ args = 0, pretend = 0, frame = 40
 3190              		@ frame_needed = 0, uses_anonymous_args = 0
 3191 0000 00B5     		push	{lr}
 3192              		.cfi_def_cfa_offset 4
 3193              		.cfi_offset 14, -4
 3194 0002 8BB0     		sub	sp, sp, #44
 3195              		.cfi_def_cfa_offset 48
 3196 0004 0190     		str	r0, [sp, #4]
 3197              		.loc 2 803 0
ARM GAS  C:\Users\PCHAUT~1\AppData\Local\Temp\ccvICu2w.s 			page 59


 3198 0006 404B     		ldr	r3, .L167
 3199 0008 1B68     		ldr	r3, [r3]
 3200 000a 0993     		str	r3, [sp, #36]
 3201              		.loc 2 805 0
 3202 000c 0198     		ldr	r0, [sp, #4]
 3203 000e FFF7FEFF 		bl	AsebaNativePopArg
 3204 0012 0346     		mov	r3, r0
 3205 0014 ADF80C30 		strh	r3, [sp, #12]	@ movhi
 3206              		.loc 2 806 0
 3207 0018 0198     		ldr	r0, [sp, #4]
 3208 001a FFF7FEFF 		bl	AsebaNativePopArg
 3209 001e 0346     		mov	r3, r0
 3210 0020 ADF80E30 		strh	r3, [sp, #14]	@ movhi
 3211              		.loc 2 807 0
 3212 0024 0198     		ldr	r0, [sp, #4]
 3213 0026 FFF7FEFF 		bl	AsebaNativePopArg
 3214 002a 0346     		mov	r3, r0
 3215 002c ADF81030 		strh	r3, [sp, #16]	@ movhi
 3216              		.loc 2 808 0
 3217 0030 0198     		ldr	r0, [sp, #4]
 3218 0032 FFF7FEFF 		bl	AsebaNativePopArg
 3219 0036 0346     		mov	r3, r0
 3220 0038 ADF81230 		strh	r3, [sp, #18]	@ movhi
 3221              		.loc 2 811 0
 3222 003c 0198     		ldr	r0, [sp, #4]
 3223 003e FFF7FEFF 		bl	AsebaNativePopArg
 3224 0042 0346     		mov	r3, r0
 3225 0044 ADF81630 		strh	r3, [sp, #22]	@ movhi
 3226              		.loc 2 814 0
 3227 0048 0023     		movs	r3, #0
 3228 004a ADF81430 		strh	r3, [sp, #20]	@ movhi
 3229 004e 4BE0     		b	.L160
 3230              	.L164:
 3231              	.LBB12:
 3232              		.loc 2 816 0
 3233 0050 019B     		ldr	r3, [sp, #4]
 3234 0052 DA68     		ldr	r2, [r3, #12]
 3235 0054 BDF80E30 		ldrh	r3, [sp, #14]
 3236 0058 591C     		adds	r1, r3, #1
 3237 005a ADF80E10 		strh	r1, [sp, #14]	@ movhi
 3238 005e 5B00     		lsls	r3, r3, #1
 3239 0060 1344     		add	r3, r3, r2
 3240 0062 B3F90030 		ldrsh	r3, [r3]
 3241 0066 0693     		str	r3, [sp, #24]
 3242              		.loc 2 817 0
 3243 0068 019B     		ldr	r3, [sp, #4]
 3244 006a DA68     		ldr	r2, [r3, #12]
 3245 006c BDF81030 		ldrh	r3, [sp, #16]
 3246 0070 591C     		adds	r1, r3, #1
 3247 0072 ADF81010 		strh	r1, [sp, #16]	@ movhi
 3248 0076 5B00     		lsls	r3, r3, #1
 3249 0078 1344     		add	r3, r3, r2
 3250 007a B3F90030 		ldrsh	r3, [r3]
 3251 007e 0793     		str	r3, [sp, #28]
 3252              		.loc 2 818 0
 3253 0080 019B     		ldr	r3, [sp, #4]
 3254 0082 DA68     		ldr	r2, [r3, #12]
ARM GAS  C:\Users\PCHAUT~1\AppData\Local\Temp\ccvICu2w.s 			page 60


 3255 0084 BDF81230 		ldrh	r3, [sp, #18]
 3256 0088 591C     		adds	r1, r3, #1
 3257 008a ADF81210 		strh	r1, [sp, #18]	@ movhi
 3258 008e 5B00     		lsls	r3, r3, #1
 3259 0090 1344     		add	r3, r3, r2
 3260 0092 B3F90030 		ldrsh	r3, [r3]
 3261 0096 0893     		str	r3, [sp, #32]
 3262              		.loc 2 819 0
 3263 0098 089B     		ldr	r3, [sp, #32]
 3264 009a 002B     		cmp	r3, #0
 3265 009c 12D0     		beq	.L161
 3266              		.loc 2 821 0
 3267 009e 069B     		ldr	r3, [sp, #24]
 3268 00a0 079A     		ldr	r2, [sp, #28]
 3269 00a2 02FB03F2 		mul	r2, r2, r3
 3270 00a6 089B     		ldr	r3, [sp, #32]
 3271 00a8 92FBF3F1 		sdiv	r1, r2, r3
 3272 00ac 019B     		ldr	r3, [sp, #4]
 3273 00ae DA68     		ldr	r2, [r3, #12]
 3274 00b0 BDF80C30 		ldrh	r3, [sp, #12]
 3275 00b4 581C     		adds	r0, r3, #1
 3276 00b6 ADF80C00 		strh	r0, [sp, #12]	@ movhi
 3277 00ba 5B00     		lsls	r3, r3, #1
 3278 00bc 1344     		add	r3, r3, r2
 3279 00be 0AB2     		sxth	r2, r1
 3280 00c0 1A80     		strh	r2, [r3]	@ movhi
 3281 00c2 0CE0     		b	.L166
 3282              	.L161:
 3283              		.loc 2 825 0
 3284 00c4 019B     		ldr	r3, [sp, #4]
 3285 00c6 0222     		movs	r2, #2
 3286 00c8 1A83     		strh	r2, [r3, #24]	@ movhi
 3287              		.loc 2 826 0
 3288 00ca 019B     		ldr	r3, [sp, #4]
 3289 00cc 03F11A02 		add	r2, r3, #26
 3290 00d0 0223     		movs	r3, #2
 3291 00d2 49F20701 		movw	r1, #36871
 3292 00d6 0198     		ldr	r0, [sp, #4]
 3293 00d8 FFF7FEFF 		bl	AsebaSendMessage
 3294              		.loc 2 827 0
 3295 00dc 0AE0     		b	.L159
 3296              	.L166:
 3297              	.LBE12:
 3298              		.loc 2 814 0 discriminator 2
 3299 00de BDF81430 		ldrh	r3, [sp, #20]
 3300 00e2 0133     		adds	r3, r3, #1
 3301 00e4 ADF81430 		strh	r3, [sp, #20]	@ movhi
 3302              	.L160:
 3303              		.loc 2 814 0 is_stmt 0 discriminator 1
 3304 00e8 BDF81420 		ldrh	r2, [sp, #20]
 3305 00ec BDF81630 		ldrh	r3, [sp, #22]
 3306 00f0 9A42     		cmp	r2, r3
 3307 00f2 ADD3     		bcc	.L164
 3308              	.L159:
 3309              		.loc 2 830 0 is_stmt 1
 3310 00f4 044B     		ldr	r3, .L167
 3311 00f6 099A     		ldr	r2, [sp, #36]
ARM GAS  C:\Users\PCHAUT~1\AppData\Local\Temp\ccvICu2w.s 			page 61


 3312 00f8 1B68     		ldr	r3, [r3]
 3313 00fa 9A42     		cmp	r2, r3
 3314 00fc 01D0     		beq	.L165
 3315 00fe FFF7FEFF 		bl	__stack_chk_fail
 3316              	.L165:
 3317 0102 0BB0     		add	sp, sp, #44
 3318              		.cfi_def_cfa_offset 4
 3319              		@ sp needed
 3320 0104 5DF804FB 		ldr	pc, [sp], #4
 3321              	.L168:
 3322              		.align	2
 3323              	.L167:
 3324 0108 00000000 		.word	__stack_chk_guard
 3325              		.cfi_endproc
 3326              	.LFE20:
 3327              		.size	AsebaNative_mathmuldiv, .-AsebaNative_mathmuldiv
 3328              		.global	AsebaNativeDescription_mathmuldiv
 3329              		.section	.rodata
 3330 03d6 0000     		.align	2
 3331              	.LC43:
 3332 03d8 6D617468 		.ascii	"math.muldiv\000"
 3332      2E6D756C 
 3332      64697600 
 3333              		.align	2
 3334              	.LC44:
 3335 03e4 70657266 		.ascii	"performs dest = (a*b)/c in 32 bits element by eleme"
 3335      6F726D73 
 3335      20646573 
 3335      74203D20 
 3335      28612A62 
 3336 0417 6E7400   		.ascii	"nt\000"
 3337 041a 0000     		.align	2
 3338              	.LC45:
 3339 041c 6100     		.ascii	"a\000"
 3340 041e 0000     		.align	2
 3341              	.LC46:
 3342 0420 6200     		.ascii	"b\000"
 3343 0422 0000     		.align	2
 3344              	.LC47:
 3345 0424 6300     		.ascii	"c\000"
 3346              		.section	.rodata.AsebaNativeDescription_mathmuldiv,"a",%progbits
 3347              		.align	2
 3348              		.type	AsebaNativeDescription_mathmuldiv, %object
 3349              		.size	AsebaNativeDescription_mathmuldiv, 48
 3350              	AsebaNativeDescription_mathmuldiv:
 3351 0000 D8030000 		.word	.LC43
 3352 0004 E4030000 		.word	.LC44
 3353 0008 FFFF     		.short	-1
 3354 000a 0000     		.space	2
 3355 000c 34000000 		.word	.LC2
 3356 0010 FFFF     		.short	-1
 3357 0012 0000     		.space	2
 3358 0014 1C040000 		.word	.LC45
 3359 0018 FFFF     		.short	-1
 3360 001a 0000     		.space	2
 3361 001c 20040000 		.word	.LC46
 3362 0020 FFFF     		.short	-1
ARM GAS  C:\Users\PCHAUT~1\AppData\Local\Temp\ccvICu2w.s 			page 62


 3363 0022 0000     		.space	2
 3364 0024 24040000 		.word	.LC47
 3365 0028 0000     		.short	0
 3366 002a 0000     		.space	2
 3367 002c 00000000 		.word	0
 3368              		.section	.text.AsebaNative_mathatan2,"ax",%progbits
 3369              		.align	1
 3370              		.p2align 4,,15
 3371              		.global	AsebaNative_mathatan2
 3372              		.syntax unified
 3373              		.thumb
 3374              		.thumb_func
 3375              		.fpu fpv4-sp-d16
 3376              		.type	AsebaNative_mathatan2, %function
 3377              	AsebaNative_mathatan2:
 3378              	.LFB21:
 3379              		.loc 2 846 0
 3380              		.cfi_startproc
 3381              		@ args = 0, pretend = 0, frame = 32
 3382              		@ frame_needed = 0, uses_anonymous_args = 0
 3383 0000 10B5     		push	{r4, lr}
 3384              		.cfi_def_cfa_offset 8
 3385              		.cfi_offset 4, -8
 3386              		.cfi_offset 14, -4
 3387 0002 88B0     		sub	sp, sp, #32
 3388              		.cfi_def_cfa_offset 40
 3389 0004 0190     		str	r0, [sp, #4]
 3390              		.loc 2 846 0
 3391 0006 324B     		ldr	r3, .L173
 3392 0008 1B68     		ldr	r3, [r3]
 3393 000a 0793     		str	r3, [sp, #28]
 3394              		.loc 2 848 0
 3395 000c 0198     		ldr	r0, [sp, #4]
 3396 000e FFF7FEFF 		bl	AsebaNativePopArg
 3397 0012 0346     		mov	r3, r0
 3398 0014 ADF80E30 		strh	r3, [sp, #14]	@ movhi
 3399              		.loc 2 849 0
 3400 0018 0198     		ldr	r0, [sp, #4]
 3401 001a FFF7FEFF 		bl	AsebaNativePopArg
 3402 001e 0346     		mov	r3, r0
 3403 0020 ADF81030 		strh	r3, [sp, #16]	@ movhi
 3404              		.loc 2 850 0
 3405 0024 0198     		ldr	r0, [sp, #4]
 3406 0026 FFF7FEFF 		bl	AsebaNativePopArg
 3407 002a 0346     		mov	r3, r0
 3408 002c ADF81230 		strh	r3, [sp, #18]	@ movhi
 3409              		.loc 2 853 0
 3410 0030 0198     		ldr	r0, [sp, #4]
 3411 0032 FFF7FEFF 		bl	AsebaNativePopArg
 3412 0036 0346     		mov	r3, r0
 3413 0038 ADF81630 		strh	r3, [sp, #22]	@ movhi
 3414              		.loc 2 856 0
 3415 003c 0023     		movs	r3, #0
 3416 003e ADF81430 		strh	r3, [sp, #20]	@ movhi
 3417 0042 35E0     		b	.L170
 3418              	.L171:
 3419              	.LBB13:
ARM GAS  C:\Users\PCHAUT~1\AppData\Local\Temp\ccvICu2w.s 			page 63


 3420              		.loc 2 858 0 discriminator 3
 3421 0044 019B     		ldr	r3, [sp, #4]
 3422 0046 DA68     		ldr	r2, [r3, #12]
 3423 0048 BDF91010 		ldrsh	r1, [sp, #16]
 3424 004c 8BB2     		uxth	r3, r1
 3425 004e 0133     		adds	r3, r3, #1
 3426 0050 9BB2     		uxth	r3, r3
 3427 0052 ADF81030 		strh	r3, [sp, #16]	@ movhi
 3428 0056 0B46     		mov	r3, r1
 3429 0058 5B00     		lsls	r3, r3, #1
 3430 005a 1344     		add	r3, r3, r2
 3431 005c 1B88     		ldrh	r3, [r3]	@ movhi
 3432 005e ADF81830 		strh	r3, [sp, #24]	@ movhi
 3433              		.loc 2 859 0 discriminator 3
 3434 0062 019B     		ldr	r3, [sp, #4]
 3435 0064 DA68     		ldr	r2, [r3, #12]
 3436 0066 BDF91210 		ldrsh	r1, [sp, #18]
 3437 006a 8BB2     		uxth	r3, r1
 3438 006c 0133     		adds	r3, r3, #1
 3439 006e 9BB2     		uxth	r3, r3
 3440 0070 ADF81230 		strh	r3, [sp, #18]	@ movhi
 3441 0074 0B46     		mov	r3, r1
 3442 0076 5B00     		lsls	r3, r3, #1
 3443 0078 1344     		add	r3, r3, r2
 3444 007a 1B88     		ldrh	r3, [r3]	@ movhi
 3445 007c ADF81A30 		strh	r3, [sp, #26]	@ movhi
 3446              		.loc 2 860 0 discriminator 3
 3447 0080 019B     		ldr	r3, [sp, #4]
 3448 0082 DA68     		ldr	r2, [r3, #12]
 3449 0084 BDF80E30 		ldrh	r3, [sp, #14]
 3450 0088 591C     		adds	r1, r3, #1
 3451 008a ADF80E10 		strh	r1, [sp, #14]	@ movhi
 3452 008e 5B00     		lsls	r3, r3, #1
 3453 0090 D418     		adds	r4, r2, r3
 3454 0092 BDF91A20 		ldrsh	r2, [sp, #26]
 3455 0096 BDF91830 		ldrsh	r3, [sp, #24]
 3456 009a 1146     		mov	r1, r2
 3457 009c 1846     		mov	r0, r3
 3458 009e FFF7FEFF 		bl	aseba_atan2
 3459 00a2 0346     		mov	r3, r0
 3460 00a4 2380     		strh	r3, [r4]	@ movhi
 3461              	.LBE13:
 3462              		.loc 2 856 0 discriminator 3
 3463 00a6 BDF81430 		ldrh	r3, [sp, #20]
 3464 00aa 0133     		adds	r3, r3, #1
 3465 00ac ADF81430 		strh	r3, [sp, #20]	@ movhi
 3466              	.L170:
 3467              		.loc 2 856 0 is_stmt 0 discriminator 1
 3468 00b0 BDF81420 		ldrh	r2, [sp, #20]
 3469 00b4 BDF81630 		ldrh	r3, [sp, #22]
 3470 00b8 9A42     		cmp	r2, r3
 3471 00ba C3D3     		bcc	.L171
 3472              		.loc 2 862 0 is_stmt 1
 3473 00bc 00BF     		nop
 3474 00be 044B     		ldr	r3, .L173
 3475 00c0 079A     		ldr	r2, [sp, #28]
 3476 00c2 1B68     		ldr	r3, [r3]
ARM GAS  C:\Users\PCHAUT~1\AppData\Local\Temp\ccvICu2w.s 			page 64


 3477 00c4 9A42     		cmp	r2, r3
 3478 00c6 01D0     		beq	.L172
 3479 00c8 FFF7FEFF 		bl	__stack_chk_fail
 3480              	.L172:
 3481 00cc 08B0     		add	sp, sp, #32
 3482              		.cfi_def_cfa_offset 8
 3483              		@ sp needed
 3484 00ce 10BD     		pop	{r4, pc}
 3485              	.L174:
 3486              		.align	2
 3487              	.L173:
 3488 00d0 00000000 		.word	__stack_chk_guard
 3489              		.cfi_endproc
 3490              	.LFE21:
 3491              		.size	AsebaNative_mathatan2, .-AsebaNative_mathatan2
 3492              		.global	AsebaNativeDescription_mathatan2
 3493              		.section	.rodata
 3494 0426 0000     		.align	2
 3495              	.LC48:
 3496 0428 6D617468 		.ascii	"math.atan2\000"
 3496      2E617461 
 3496      6E3200
 3497 0433 00       		.align	2
 3498              	.LC49:
 3499 0434 70657266 		.ascii	"performs dest = atan2(y,x) element by element\000"
 3499      6F726D73 
 3499      20646573 
 3499      74203D20 
 3499      6174616E 
 3500 0462 0000     		.align	2
 3501              	.LC50:
 3502 0464 7900     		.ascii	"y\000"
 3503 0466 0000     		.align	2
 3504              	.LC51:
 3505 0468 7800     		.ascii	"x\000"
 3506              		.section	.rodata.AsebaNativeDescription_mathatan2,"a",%progbits
 3507              		.align	2
 3508              		.type	AsebaNativeDescription_mathatan2, %object
 3509              		.size	AsebaNativeDescription_mathatan2, 40
 3510              	AsebaNativeDescription_mathatan2:
 3511 0000 28040000 		.word	.LC48
 3512 0004 34040000 		.word	.LC49
 3513 0008 FFFF     		.short	-1
 3514 000a 0000     		.space	2
 3515 000c 34000000 		.word	.LC2
 3516 0010 FFFF     		.short	-1
 3517 0012 0000     		.space	2
 3518 0014 64040000 		.word	.LC50
 3519 0018 FFFF     		.short	-1
 3520 001a 0000     		.space	2
 3521 001c 68040000 		.word	.LC51
 3522 0020 0000     		.short	0
 3523 0022 0000     		.space	2
 3524 0024 00000000 		.word	0
 3525              		.section	.text.AsebaNative_mathsin,"ax",%progbits
 3526              		.align	1
 3527              		.p2align 4,,15
ARM GAS  C:\Users\PCHAUT~1\AppData\Local\Temp\ccvICu2w.s 			page 65


 3528              		.global	AsebaNative_mathsin
 3529              		.syntax unified
 3530              		.thumb
 3531              		.thumb_func
 3532              		.fpu fpv4-sp-d16
 3533              		.type	AsebaNative_mathsin, %function
 3534              	AsebaNative_mathsin:
 3535              	.LFB22:
 3536              		.loc 2 877 0
 3537              		.cfi_startproc
 3538              		@ args = 0, pretend = 0, frame = 24
 3539              		@ frame_needed = 0, uses_anonymous_args = 0
 3540 0000 10B5     		push	{r4, lr}
 3541              		.cfi_def_cfa_offset 8
 3542              		.cfi_offset 4, -8
 3543              		.cfi_offset 14, -4
 3544 0002 86B0     		sub	sp, sp, #24
 3545              		.cfi_def_cfa_offset 32
 3546 0004 0190     		str	r0, [sp, #4]
 3547              		.loc 2 877 0
 3548 0006 264B     		ldr	r3, .L179
 3549 0008 1B68     		ldr	r3, [r3]
 3550 000a 0593     		str	r3, [sp, #20]
 3551              		.loc 2 879 0
 3552 000c 0198     		ldr	r0, [sp, #4]
 3553 000e FFF7FEFF 		bl	AsebaNativePopArg
 3554 0012 0346     		mov	r3, r0
 3555 0014 ADF80A30 		strh	r3, [sp, #10]	@ movhi
 3556              		.loc 2 880 0
 3557 0018 0198     		ldr	r0, [sp, #4]
 3558 001a FFF7FEFF 		bl	AsebaNativePopArg
 3559 001e 0346     		mov	r3, r0
 3560 0020 ADF80C30 		strh	r3, [sp, #12]	@ movhi
 3561              		.loc 2 883 0
 3562 0024 0198     		ldr	r0, [sp, #4]
 3563 0026 FFF7FEFF 		bl	AsebaNativePopArg
 3564 002a 0346     		mov	r3, r0
 3565 002c ADF81030 		strh	r3, [sp, #16]	@ movhi
 3566              		.loc 2 886 0
 3567 0030 0023     		movs	r3, #0
 3568 0032 ADF80E30 		strh	r3, [sp, #14]	@ movhi
 3569 0036 23E0     		b	.L176
 3570              	.L177:
 3571              	.LBB14:
 3572              		.loc 2 888 0 discriminator 3
 3573 0038 019B     		ldr	r3, [sp, #4]
 3574 003a DA68     		ldr	r2, [r3, #12]
 3575 003c BDF90C10 		ldrsh	r1, [sp, #12]
 3576 0040 8BB2     		uxth	r3, r1
 3577 0042 0133     		adds	r3, r3, #1
 3578 0044 9BB2     		uxth	r3, r3
 3579 0046 ADF80C30 		strh	r3, [sp, #12]	@ movhi
 3580 004a 0B46     		mov	r3, r1
 3581 004c 5B00     		lsls	r3, r3, #1
 3582 004e 1344     		add	r3, r3, r2
 3583 0050 1B88     		ldrh	r3, [r3]	@ movhi
 3584 0052 ADF81230 		strh	r3, [sp, #18]	@ movhi
ARM GAS  C:\Users\PCHAUT~1\AppData\Local\Temp\ccvICu2w.s 			page 66


 3585              		.loc 2 889 0 discriminator 3
 3586 0056 019B     		ldr	r3, [sp, #4]
 3587 0058 DA68     		ldr	r2, [r3, #12]
 3588 005a BDF80A30 		ldrh	r3, [sp, #10]
 3589 005e 591C     		adds	r1, r3, #1
 3590 0060 ADF80A10 		strh	r1, [sp, #10]	@ movhi
 3591 0064 5B00     		lsls	r3, r3, #1
 3592 0066 D418     		adds	r4, r2, r3
 3593 0068 BDF91230 		ldrsh	r3, [sp, #18]
 3594 006c 1846     		mov	r0, r3
 3595 006e FFF7FEFF 		bl	aseba_sin
 3596 0072 0346     		mov	r3, r0
 3597 0074 2380     		strh	r3, [r4]	@ movhi
 3598              	.LBE14:
 3599              		.loc 2 886 0 discriminator 3
 3600 0076 BDF80E30 		ldrh	r3, [sp, #14]
 3601 007a 0133     		adds	r3, r3, #1
 3602 007c ADF80E30 		strh	r3, [sp, #14]	@ movhi
 3603              	.L176:
 3604              		.loc 2 886 0 is_stmt 0 discriminator 1
 3605 0080 BDF80E20 		ldrh	r2, [sp, #14]
 3606 0084 BDF81030 		ldrh	r3, [sp, #16]
 3607 0088 9A42     		cmp	r2, r3
 3608 008a D5D3     		bcc	.L177
 3609              		.loc 2 891 0 is_stmt 1
 3610 008c 00BF     		nop
 3611 008e 044B     		ldr	r3, .L179
 3612 0090 059A     		ldr	r2, [sp, #20]
 3613 0092 1B68     		ldr	r3, [r3]
 3614 0094 9A42     		cmp	r2, r3
 3615 0096 01D0     		beq	.L178
 3616 0098 FFF7FEFF 		bl	__stack_chk_fail
 3617              	.L178:
 3618 009c 06B0     		add	sp, sp, #24
 3619              		.cfi_def_cfa_offset 8
 3620              		@ sp needed
 3621 009e 10BD     		pop	{r4, pc}
 3622              	.L180:
 3623              		.align	2
 3624              	.L179:
 3625 00a0 00000000 		.word	__stack_chk_guard
 3626              		.cfi_endproc
 3627              	.LFE22:
 3628              		.size	AsebaNative_mathsin, .-AsebaNative_mathsin
 3629              		.global	AsebaNativeDescription_mathsin
 3630              		.section	.rodata
 3631 046a 0000     		.align	2
 3632              	.LC52:
 3633 046c 6D617468 		.ascii	"math.sin\000"
 3633      2E73696E 
 3633      00
 3634 0475 000000   		.align	2
 3635              	.LC53:
 3636 0478 70657266 		.ascii	"performs dest = sin(x) element by element\000"
 3636      6F726D73 
 3636      20646573 
 3636      74203D20 
ARM GAS  C:\Users\PCHAUT~1\AppData\Local\Temp\ccvICu2w.s 			page 67


 3636      73696E28 
 3637              		.section	.rodata.AsebaNativeDescription_mathsin,"a",%progbits
 3638              		.align	2
 3639              		.type	AsebaNativeDescription_mathsin, %object
 3640              		.size	AsebaNativeDescription_mathsin, 32
 3641              	AsebaNativeDescription_mathsin:
 3642 0000 6C040000 		.word	.LC52
 3643 0004 78040000 		.word	.LC53
 3644 0008 FFFF     		.short	-1
 3645 000a 0000     		.space	2
 3646 000c 34000000 		.word	.LC2
 3647 0010 FFFF     		.short	-1
 3648 0012 0000     		.space	2
 3649 0014 68040000 		.word	.LC51
 3650 0018 0000     		.short	0
 3651 001a 0000     		.space	2
 3652 001c 00000000 		.word	0
 3653              		.section	.text.AsebaNative_mathcos,"ax",%progbits
 3654              		.align	1
 3655              		.p2align 4,,15
 3656              		.global	AsebaNative_mathcos
 3657              		.syntax unified
 3658              		.thumb
 3659              		.thumb_func
 3660              		.fpu fpv4-sp-d16
 3661              		.type	AsebaNative_mathcos, %function
 3662              	AsebaNative_mathcos:
 3663              	.LFB23:
 3664              		.loc 2 905 0
 3665              		.cfi_startproc
 3666              		@ args = 0, pretend = 0, frame = 24
 3667              		@ frame_needed = 0, uses_anonymous_args = 0
 3668 0000 10B5     		push	{r4, lr}
 3669              		.cfi_def_cfa_offset 8
 3670              		.cfi_offset 4, -8
 3671              		.cfi_offset 14, -4
 3672 0002 86B0     		sub	sp, sp, #24
 3673              		.cfi_def_cfa_offset 32
 3674 0004 0190     		str	r0, [sp, #4]
 3675              		.loc 2 905 0
 3676 0006 264B     		ldr	r3, .L185
 3677 0008 1B68     		ldr	r3, [r3]
 3678 000a 0593     		str	r3, [sp, #20]
 3679              		.loc 2 907 0
 3680 000c 0198     		ldr	r0, [sp, #4]
 3681 000e FFF7FEFF 		bl	AsebaNativePopArg
 3682 0012 0346     		mov	r3, r0
 3683 0014 ADF80A30 		strh	r3, [sp, #10]	@ movhi
 3684              		.loc 2 908 0
 3685 0018 0198     		ldr	r0, [sp, #4]
 3686 001a FFF7FEFF 		bl	AsebaNativePopArg
 3687 001e 0346     		mov	r3, r0
 3688 0020 ADF80C30 		strh	r3, [sp, #12]	@ movhi
 3689              		.loc 2 911 0
 3690 0024 0198     		ldr	r0, [sp, #4]
 3691 0026 FFF7FEFF 		bl	AsebaNativePopArg
 3692 002a 0346     		mov	r3, r0
ARM GAS  C:\Users\PCHAUT~1\AppData\Local\Temp\ccvICu2w.s 			page 68


 3693 002c ADF81030 		strh	r3, [sp, #16]	@ movhi
 3694              		.loc 2 914 0
 3695 0030 0023     		movs	r3, #0
 3696 0032 ADF80E30 		strh	r3, [sp, #14]	@ movhi
 3697 0036 23E0     		b	.L182
 3698              	.L183:
 3699              	.LBB15:
 3700              		.loc 2 916 0 discriminator 3
 3701 0038 019B     		ldr	r3, [sp, #4]
 3702 003a DA68     		ldr	r2, [r3, #12]
 3703 003c BDF90C10 		ldrsh	r1, [sp, #12]
 3704 0040 8BB2     		uxth	r3, r1
 3705 0042 0133     		adds	r3, r3, #1
 3706 0044 9BB2     		uxth	r3, r3
 3707 0046 ADF80C30 		strh	r3, [sp, #12]	@ movhi
 3708 004a 0B46     		mov	r3, r1
 3709 004c 5B00     		lsls	r3, r3, #1
 3710 004e 1344     		add	r3, r3, r2
 3711 0050 1B88     		ldrh	r3, [r3]	@ movhi
 3712 0052 ADF81230 		strh	r3, [sp, #18]	@ movhi
 3713              		.loc 2 917 0 discriminator 3
 3714 0056 019B     		ldr	r3, [sp, #4]
 3715 0058 DA68     		ldr	r2, [r3, #12]
 3716 005a BDF80A30 		ldrh	r3, [sp, #10]
 3717 005e 591C     		adds	r1, r3, #1
 3718 0060 ADF80A10 		strh	r1, [sp, #10]	@ movhi
 3719 0064 5B00     		lsls	r3, r3, #1
 3720 0066 D418     		adds	r4, r2, r3
 3721 0068 BDF91230 		ldrsh	r3, [sp, #18]
 3722 006c 1846     		mov	r0, r3
 3723 006e FFF7FEFF 		bl	aseba_cos
 3724 0072 0346     		mov	r3, r0
 3725 0074 2380     		strh	r3, [r4]	@ movhi
 3726              	.LBE15:
 3727              		.loc 2 914 0 discriminator 3
 3728 0076 BDF80E30 		ldrh	r3, [sp, #14]
 3729 007a 0133     		adds	r3, r3, #1
 3730 007c ADF80E30 		strh	r3, [sp, #14]	@ movhi
 3731              	.L182:
 3732              		.loc 2 914 0 is_stmt 0 discriminator 1
 3733 0080 BDF80E20 		ldrh	r2, [sp, #14]
 3734 0084 BDF81030 		ldrh	r3, [sp, #16]
 3735 0088 9A42     		cmp	r2, r3
 3736 008a D5D3     		bcc	.L183
 3737              		.loc 2 919 0 is_stmt 1
 3738 008c 00BF     		nop
 3739 008e 044B     		ldr	r3, .L185
 3740 0090 059A     		ldr	r2, [sp, #20]
 3741 0092 1B68     		ldr	r3, [r3]
 3742 0094 9A42     		cmp	r2, r3
 3743 0096 01D0     		beq	.L184
 3744 0098 FFF7FEFF 		bl	__stack_chk_fail
 3745              	.L184:
 3746 009c 06B0     		add	sp, sp, #24
 3747              		.cfi_def_cfa_offset 8
 3748              		@ sp needed
 3749 009e 10BD     		pop	{r4, pc}
ARM GAS  C:\Users\PCHAUT~1\AppData\Local\Temp\ccvICu2w.s 			page 69


 3750              	.L186:
 3751              		.align	2
 3752              	.L185:
 3753 00a0 00000000 		.word	__stack_chk_guard
 3754              		.cfi_endproc
 3755              	.LFE23:
 3756              		.size	AsebaNative_mathcos, .-AsebaNative_mathcos
 3757              		.global	AsebaNativeDescription_mathcos
 3758              		.section	.rodata
 3759 04a2 0000     		.align	2
 3760              	.LC54:
 3761 04a4 6D617468 		.ascii	"math.cos\000"
 3761      2E636F73 
 3761      00
 3762 04ad 000000   		.align	2
 3763              	.LC55:
 3764 04b0 70657266 		.ascii	"performs dest = cos(x) element by element\000"
 3764      6F726D73 
 3764      20646573 
 3764      74203D20 
 3764      636F7328 
 3765              		.section	.rodata.AsebaNativeDescription_mathcos,"a",%progbits
 3766              		.align	2
 3767              		.type	AsebaNativeDescription_mathcos, %object
 3768              		.size	AsebaNativeDescription_mathcos, 32
 3769              	AsebaNativeDescription_mathcos:
 3770 0000 A4040000 		.word	.LC54
 3771 0004 B0040000 		.word	.LC55
 3772 0008 FFFF     		.short	-1
 3773 000a 0000     		.space	2
 3774 000c 34000000 		.word	.LC2
 3775 0010 FFFF     		.short	-1
 3776 0012 0000     		.space	2
 3777 0014 68040000 		.word	.LC51
 3778 0018 0000     		.short	0
 3779 001a 0000     		.space	2
 3780 001c 00000000 		.word	0
 3781              		.section	.text.AsebaNative_mathrot2,"ax",%progbits
 3782              		.align	1
 3783              		.p2align 4,,15
 3784              		.global	AsebaNative_mathrot2
 3785              		.syntax unified
 3786              		.thumb
 3787              		.thumb_func
 3788              		.fpu fpv4-sp-d16
 3789              		.type	AsebaNative_mathrot2, %function
 3790              	AsebaNative_mathrot2:
 3791              	.LFB24:
 3792              		.loc 2 933 0
 3793              		.cfi_startproc
 3794              		@ args = 0, pretend = 0, frame = 32
 3795              		@ frame_needed = 0, uses_anonymous_args = 0
 3796 0000 00B5     		push	{lr}
 3797              		.cfi_def_cfa_offset 4
 3798              		.cfi_offset 14, -4
 3799 0002 89B0     		sub	sp, sp, #36
 3800              		.cfi_def_cfa_offset 40
ARM GAS  C:\Users\PCHAUT~1\AppData\Local\Temp\ccvICu2w.s 			page 70


 3801 0004 0190     		str	r0, [sp, #4]
 3802              		.loc 2 933 0
 3803 0006 3F4B     		ldr	r3, .L189
 3804 0008 1B68     		ldr	r3, [r3]
 3805 000a 0793     		str	r3, [sp, #28]
 3806              		.loc 2 935 0
 3807 000c 0198     		ldr	r0, [sp, #4]
 3808 000e FFF7FEFF 		bl	AsebaNativePopArg
 3809 0012 0346     		mov	r3, r0
 3810 0014 ADF80830 		strh	r3, [sp, #8]	@ movhi
 3811              		.loc 2 936 0
 3812 0018 0198     		ldr	r0, [sp, #4]
 3813 001a FFF7FEFF 		bl	AsebaNativePopArg
 3814 001e 0346     		mov	r3, r0
 3815 0020 ADF80A30 		strh	r3, [sp, #10]	@ movhi
 3816              		.loc 2 937 0
 3817 0024 0198     		ldr	r0, [sp, #4]
 3818 0026 FFF7FEFF 		bl	AsebaNativePopArg
 3819 002a 0346     		mov	r3, r0
 3820 002c ADF80C30 		strh	r3, [sp, #12]	@ movhi
 3821              		.loc 2 940 0
 3822 0030 019B     		ldr	r3, [sp, #4]
 3823 0032 DA68     		ldr	r2, [r3, #12]
 3824 0034 BDF80A30 		ldrh	r3, [sp, #10]
 3825 0038 5B00     		lsls	r3, r3, #1
 3826 003a 1344     		add	r3, r3, r2
 3827 003c 1B88     		ldrh	r3, [r3]	@ movhi
 3828 003e ADF80E30 		strh	r3, [sp, #14]	@ movhi
 3829              		.loc 2 941 0
 3830 0042 019B     		ldr	r3, [sp, #4]
 3831 0044 DA68     		ldr	r2, [r3, #12]
 3832 0046 BDF80A30 		ldrh	r3, [sp, #10]
 3833 004a 0133     		adds	r3, r3, #1
 3834 004c 5B00     		lsls	r3, r3, #1
 3835 004e 1344     		add	r3, r3, r2
 3836 0050 1B88     		ldrh	r3, [r3]	@ movhi
 3837 0052 ADF81030 		strh	r3, [sp, #16]	@ movhi
 3838              		.loc 2 942 0
 3839 0056 019B     		ldr	r3, [sp, #4]
 3840 0058 DA68     		ldr	r2, [r3, #12]
 3841 005a BDF80C30 		ldrh	r3, [sp, #12]
 3842 005e 5B00     		lsls	r3, r3, #1
 3843 0060 1344     		add	r3, r3, r2
 3844 0062 1B88     		ldrh	r3, [r3]	@ movhi
 3845 0064 ADF81230 		strh	r3, [sp, #18]	@ movhi
 3846              		.loc 2 944 0
 3847 0068 BDF91230 		ldrsh	r3, [sp, #18]
 3848 006c 1846     		mov	r0, r3
 3849 006e FFF7FEFF 		bl	aseba_cos
 3850 0072 0346     		mov	r3, r0
 3851 0074 ADF81430 		strh	r3, [sp, #20]	@ movhi
 3852              		.loc 2 945 0
 3853 0078 BDF91230 		ldrsh	r3, [sp, #18]
 3854 007c 1846     		mov	r0, r3
 3855 007e FFF7FEFF 		bl	aseba_sin
 3856 0082 0346     		mov	r3, r0
 3857 0084 ADF81630 		strh	r3, [sp, #22]	@ movhi
ARM GAS  C:\Users\PCHAUT~1\AppData\Local\Temp\ccvICu2w.s 			page 71


 3858              		.loc 2 947 0
 3859 0088 BDF91430 		ldrsh	r3, [sp, #20]
 3860 008c BDF90E20 		ldrsh	r2, [sp, #14]
 3861 0090 02FB03F2 		mul	r2, r2, r3
 3862 0094 BDF91630 		ldrsh	r3, [sp, #22]
 3863 0098 BDF91010 		ldrsh	r1, [sp, #16]
 3864 009c 01FB03F3 		mul	r3, r1, r3
 3865 00a0 D31A     		subs	r3, r2, r3
 3866 00a2 DB13     		asrs	r3, r3, #15
 3867 00a4 ADF81830 		strh	r3, [sp, #24]	@ movhi
 3868              		.loc 2 948 0
 3869 00a8 BDF91430 		ldrsh	r3, [sp, #20]
 3870 00ac BDF91020 		ldrsh	r2, [sp, #16]
 3871 00b0 02FB03F2 		mul	r2, r2, r3
 3872 00b4 BDF91630 		ldrsh	r3, [sp, #22]
 3873 00b8 BDF90E10 		ldrsh	r1, [sp, #14]
 3874 00bc 01FB03F3 		mul	r3, r1, r3
 3875 00c0 1344     		add	r3, r3, r2
 3876 00c2 DB13     		asrs	r3, r3, #15
 3877 00c4 ADF81A30 		strh	r3, [sp, #26]	@ movhi
 3878              		.loc 2 950 0
 3879 00c8 019B     		ldr	r3, [sp, #4]
 3880 00ca DA68     		ldr	r2, [r3, #12]
 3881 00cc BDF80830 		ldrh	r3, [sp, #8]
 3882 00d0 5B00     		lsls	r3, r3, #1
 3883 00d2 1344     		add	r3, r3, r2
 3884 00d4 BDF81820 		ldrh	r2, [sp, #24]	@ movhi
 3885 00d8 1A80     		strh	r2, [r3]	@ movhi
 3886              		.loc 2 951 0
 3887 00da 019B     		ldr	r3, [sp, #4]
 3888 00dc DA68     		ldr	r2, [r3, #12]
 3889 00de BDF80830 		ldrh	r3, [sp, #8]
 3890 00e2 0133     		adds	r3, r3, #1
 3891 00e4 5B00     		lsls	r3, r3, #1
 3892 00e6 1344     		add	r3, r3, r2
 3893 00e8 BDF81A20 		ldrh	r2, [sp, #26]	@ movhi
 3894 00ec 1A80     		strh	r2, [r3]	@ movhi
 3895              		.loc 2 952 0
 3896 00ee 00BF     		nop
 3897 00f0 044B     		ldr	r3, .L189
 3898 00f2 079A     		ldr	r2, [sp, #28]
 3899 00f4 1B68     		ldr	r3, [r3]
 3900 00f6 9A42     		cmp	r2, r3
 3901 00f8 01D0     		beq	.L188
 3902 00fa FFF7FEFF 		bl	__stack_chk_fail
 3903              	.L188:
 3904 00fe 09B0     		add	sp, sp, #36
 3905              		.cfi_def_cfa_offset 4
 3906              		@ sp needed
 3907 0100 5DF804FB 		ldr	pc, [sp], #4
 3908              	.L190:
 3909              		.align	2
 3910              	.L189:
 3911 0104 00000000 		.word	__stack_chk_guard
 3912              		.cfi_endproc
 3913              	.LFE24:
 3914              		.size	AsebaNative_mathrot2, .-AsebaNative_mathrot2
ARM GAS  C:\Users\PCHAUT~1\AppData\Local\Temp\ccvICu2w.s 			page 72


 3915              		.global	AsebaNativeDescription_mathrot2
 3916              		.section	.rodata
 3917 04da 0000     		.align	2
 3918              	.LC56:
 3919 04dc 6D617468 		.ascii	"math.rot2\000"
 3919      2E726F74 
 3919      3200
 3920 04e6 0000     		.align	2
 3921              	.LC57:
 3922 04e8 726F7461 		.ascii	"rotates v of angle a to dest\000"
 3922      74657320 
 3922      76206F66 
 3922      20616E67 
 3922      6C652061 
 3923 0505 000000   		.align	2
 3924              	.LC58:
 3925 0508 7600     		.ascii	"v\000"
 3926              		.section	.rodata.AsebaNativeDescription_mathrot2,"a",%progbits
 3927              		.align	2
 3928              		.type	AsebaNativeDescription_mathrot2, %object
 3929              		.size	AsebaNativeDescription_mathrot2, 40
 3930              	AsebaNativeDescription_mathrot2:
 3931 0000 DC040000 		.word	.LC56
 3932 0004 E8040000 		.word	.LC57
 3933 0008 0200     		.short	2
 3934 000a 0000     		.space	2
 3935 000c 34000000 		.word	.LC2
 3936 0010 0200     		.short	2
 3937 0012 0000     		.space	2
 3938 0014 08050000 		.word	.LC58
 3939 0018 0100     		.short	1
 3940 001a 0000     		.space	2
 3941 001c 1C040000 		.word	.LC45
 3942 0020 0000     		.short	0
 3943 0022 0000     		.space	2
 3944 0024 00000000 		.word	0
 3945              		.section	.text.AsebaNative_mathsqrt,"ax",%progbits
 3946              		.align	1
 3947              		.p2align 4,,15
 3948              		.global	AsebaNative_mathsqrt
 3949              		.syntax unified
 3950              		.thumb
 3951              		.thumb_func
 3952              		.fpu fpv4-sp-d16
 3953              		.type	AsebaNative_mathsqrt, %function
 3954              	AsebaNative_mathsqrt:
 3955              	.LFB25:
 3956              		.loc 2 967 0
 3957              		.cfi_startproc
 3958              		@ args = 0, pretend = 0, frame = 24
 3959              		@ frame_needed = 0, uses_anonymous_args = 0
 3960 0000 10B5     		push	{r4, lr}
 3961              		.cfi_def_cfa_offset 8
 3962              		.cfi_offset 4, -8
 3963              		.cfi_offset 14, -4
 3964 0002 86B0     		sub	sp, sp, #24
 3965              		.cfi_def_cfa_offset 32
ARM GAS  C:\Users\PCHAUT~1\AppData\Local\Temp\ccvICu2w.s 			page 73


 3966 0004 0190     		str	r0, [sp, #4]
 3967              		.loc 2 967 0
 3968 0006 264B     		ldr	r3, .L195
 3969 0008 1B68     		ldr	r3, [r3]
 3970 000a 0593     		str	r3, [sp, #20]
 3971              		.loc 2 969 0
 3972 000c 0198     		ldr	r0, [sp, #4]
 3973 000e FFF7FEFF 		bl	AsebaNativePopArg
 3974 0012 0346     		mov	r3, r0
 3975 0014 ADF80A30 		strh	r3, [sp, #10]	@ movhi
 3976              		.loc 2 970 0
 3977 0018 0198     		ldr	r0, [sp, #4]
 3978 001a FFF7FEFF 		bl	AsebaNativePopArg
 3979 001e 0346     		mov	r3, r0
 3980 0020 ADF80C30 		strh	r3, [sp, #12]	@ movhi
 3981              		.loc 2 973 0
 3982 0024 0198     		ldr	r0, [sp, #4]
 3983 0026 FFF7FEFF 		bl	AsebaNativePopArg
 3984 002a 0346     		mov	r3, r0
 3985 002c ADF81030 		strh	r3, [sp, #16]	@ movhi
 3986              		.loc 2 976 0
 3987 0030 0023     		movs	r3, #0
 3988 0032 ADF80E30 		strh	r3, [sp, #14]	@ movhi
 3989 0036 23E0     		b	.L192
 3990              	.L193:
 3991              	.LBB16:
 3992              		.loc 2 978 0 discriminator 3
 3993 0038 019B     		ldr	r3, [sp, #4]
 3994 003a DA68     		ldr	r2, [r3, #12]
 3995 003c BDF90C10 		ldrsh	r1, [sp, #12]
 3996 0040 8BB2     		uxth	r3, r1
 3997 0042 0133     		adds	r3, r3, #1
 3998 0044 9BB2     		uxth	r3, r3
 3999 0046 ADF80C30 		strh	r3, [sp, #12]	@ movhi
 4000 004a 0B46     		mov	r3, r1
 4001 004c 5B00     		lsls	r3, r3, #1
 4002 004e 1344     		add	r3, r3, r2
 4003 0050 1B88     		ldrh	r3, [r3]	@ movhi
 4004 0052 ADF81230 		strh	r3, [sp, #18]	@ movhi
 4005              		.loc 2 979 0 discriminator 3
 4006 0056 019B     		ldr	r3, [sp, #4]
 4007 0058 DA68     		ldr	r2, [r3, #12]
 4008 005a BDF80A30 		ldrh	r3, [sp, #10]
 4009 005e 591C     		adds	r1, r3, #1
 4010 0060 ADF80A10 		strh	r1, [sp, #10]	@ movhi
 4011 0064 5B00     		lsls	r3, r3, #1
 4012 0066 D418     		adds	r4, r2, r3
 4013 0068 BDF91230 		ldrsh	r3, [sp, #18]
 4014 006c 1846     		mov	r0, r3
 4015 006e FFF7FEFF 		bl	aseba_sqrt
 4016 0072 0346     		mov	r3, r0
 4017 0074 2380     		strh	r3, [r4]	@ movhi
 4018              	.LBE16:
 4019              		.loc 2 976 0 discriminator 3
 4020 0076 BDF80E30 		ldrh	r3, [sp, #14]
 4021 007a 0133     		adds	r3, r3, #1
 4022 007c ADF80E30 		strh	r3, [sp, #14]	@ movhi
ARM GAS  C:\Users\PCHAUT~1\AppData\Local\Temp\ccvICu2w.s 			page 74


 4023              	.L192:
 4024              		.loc 2 976 0 is_stmt 0 discriminator 1
 4025 0080 BDF80E20 		ldrh	r2, [sp, #14]
 4026 0084 BDF81030 		ldrh	r3, [sp, #16]
 4027 0088 9A42     		cmp	r2, r3
 4028 008a D5D3     		bcc	.L193
 4029              		.loc 2 981 0 is_stmt 1
 4030 008c 00BF     		nop
 4031 008e 044B     		ldr	r3, .L195
 4032 0090 059A     		ldr	r2, [sp, #20]
 4033 0092 1B68     		ldr	r3, [r3]
 4034 0094 9A42     		cmp	r2, r3
 4035 0096 01D0     		beq	.L194
 4036 0098 FFF7FEFF 		bl	__stack_chk_fail
 4037              	.L194:
 4038 009c 06B0     		add	sp, sp, #24
 4039              		.cfi_def_cfa_offset 8
 4040              		@ sp needed
 4041 009e 10BD     		pop	{r4, pc}
 4042              	.L196:
 4043              		.align	2
 4044              	.L195:
 4045 00a0 00000000 		.word	__stack_chk_guard
 4046              		.cfi_endproc
 4047              	.LFE25:
 4048              		.size	AsebaNative_mathsqrt, .-AsebaNative_mathsqrt
 4049              		.global	AsebaNativeDescription_mathsqrt
 4050              		.section	.rodata
 4051 050a 0000     		.align	2
 4052              	.LC59:
 4053 050c 6D617468 		.ascii	"math.sqrt\000"
 4053      2E737172 
 4053      7400
 4054 0516 0000     		.align	2
 4055              	.LC60:
 4056 0518 70657266 		.ascii	"performs dest = sqrt(x) element by element\000"
 4056      6F726D73 
 4056      20646573 
 4056      74203D20 
 4056      73717274 
 4057              		.section	.rodata.AsebaNativeDescription_mathsqrt,"a",%progbits
 4058              		.align	2
 4059              		.type	AsebaNativeDescription_mathsqrt, %object
 4060              		.size	AsebaNativeDescription_mathsqrt, 32
 4061              	AsebaNativeDescription_mathsqrt:
 4062 0000 0C050000 		.word	.LC59
 4063 0004 18050000 		.word	.LC60
 4064 0008 FFFF     		.short	-1
 4065 000a 0000     		.space	2
 4066 000c 34000000 		.word	.LC2
 4067 0010 FFFF     		.short	-1
 4068 0012 0000     		.space	2
 4069 0014 68040000 		.word	.LC51
 4070 0018 0000     		.short	0
 4071 001a 0000     		.space	2
 4072 001c 00000000 		.word	0
 4073              		.section	.text.AsebaNative_vecnonzerosequence,"ax",%progbits
ARM GAS  C:\Users\PCHAUT~1\AppData\Local\Temp\ccvICu2w.s 			page 75


 4074              		.align	1
 4075              		.p2align 4,,15
 4076              		.global	AsebaNative_vecnonzerosequence
 4077              		.syntax unified
 4078              		.thumb
 4079              		.thumb_func
 4080              		.fpu fpv4-sp-d16
 4081              		.type	AsebaNative_vecnonzerosequence, %function
 4082              	AsebaNative_vecnonzerosequence:
 4083              	.LFB26:
 4084              		.loc 2 995 0
 4085              		.cfi_startproc
 4086              		@ args = 0, pretend = 0, frame = 40
 4087              		@ frame_needed = 0, uses_anonymous_args = 0
 4088 0000 10B5     		push	{r4, lr}
 4089              		.cfi_def_cfa_offset 8
 4090              		.cfi_offset 4, -8
 4091              		.cfi_offset 14, -4
 4092 0002 8AB0     		sub	sp, sp, #40
 4093              		.cfi_def_cfa_offset 48
 4094 0004 0190     		str	r0, [sp, #4]
 4095              		.loc 2 995 0
 4096 0006 A14B     		ldr	r3, .L220
 4097 0008 1B68     		ldr	r3, [r3]
 4098 000a 0993     		str	r3, [sp, #36]
 4099              		.loc 2 997 0
 4100 000c 0198     		ldr	r0, [sp, #4]
 4101 000e FFF7FEFF 		bl	AsebaNativePopArg
 4102 0012 0346     		mov	r3, r0
 4103 0014 ADF81230 		strh	r3, [sp, #18]	@ movhi
 4104              		.loc 2 998 0
 4105 0018 0198     		ldr	r0, [sp, #4]
 4106 001a FFF7FEFF 		bl	AsebaNativePopArg
 4107 001e 0346     		mov	r3, r0
 4108 0020 ADF81430 		strh	r3, [sp, #20]	@ movhi
 4109              		.loc 2 999 0
 4110 0024 0198     		ldr	r0, [sp, #4]
 4111 0026 FFF7FEFF 		bl	AsebaNativePopArg
 4112 002a 0346     		mov	r3, r0
 4113 002c ADF81630 		strh	r3, [sp, #22]	@ movhi
 4114              		.loc 2 1002 0
 4115 0030 0198     		ldr	r0, [sp, #4]
 4116 0032 FFF7FEFF 		bl	AsebaNativePopArg
 4117 0036 0346     		mov	r3, r0
 4118 0038 ADF81830 		strh	r3, [sp, #24]	@ movhi
 4119              		.loc 2 1003 0
 4120 003c 019B     		ldr	r3, [sp, #4]
 4121 003e DA68     		ldr	r2, [r3, #12]
 4122 0040 BDF81630 		ldrh	r3, [sp, #22]
 4123 0044 5B00     		lsls	r3, r3, #1
 4124 0046 1344     		add	r3, r3, r2
 4125 0048 1B88     		ldrh	r3, [r3]	@ movhi
 4126 004a ADF81A30 		strh	r3, [sp, #26]	@ movhi
 4127              		.loc 2 1014 0
 4128 004e 0023     		movs	r3, #0
 4129 0050 ADF81030 		strh	r3, [sp, #16]	@ movhi
 4130              		.loc 2 1015 0
ARM GAS  C:\Users\PCHAUT~1\AppData\Local\Temp\ccvICu2w.s 			page 76


 4131 0054 13E0     		b	.L198
 4132              	.L200:
 4133              		.loc 2 1017 0
 4134 0056 BDF81030 		ldrh	r3, [sp, #16]	@ movhi
 4135 005a 0133     		adds	r3, r3, #1
 4136 005c ADF81030 		strh	r3, [sp, #16]	@ movhi
 4137              		.loc 2 1018 0
 4138 0060 BDF81020 		ldrh	r2, [sp, #16]
 4139 0064 BDF81830 		ldrh	r3, [sp, #24]
 4140 0068 9A42     		cmp	r2, r3
 4141 006a 08D9     		bls	.L198
 4142              		.loc 2 1020 0
 4143 006c 019B     		ldr	r3, [sp, #4]
 4144 006e DA68     		ldr	r2, [r3, #12]
 4145 0070 BDF81230 		ldrh	r3, [sp, #18]
 4146 0074 5B00     		lsls	r3, r3, #1
 4147 0076 1344     		add	r3, r3, r2
 4148 0078 0022     		movs	r2, #0
 4149 007a 1A80     		strh	r2, [r3]	@ movhi
 4150              		.loc 2 1021 0
 4151 007c FDE0     		b	.L197
 4152              	.L198:
 4153              		.loc 2 1015 0
 4154 007e 019B     		ldr	r3, [sp, #4]
 4155 0080 DA68     		ldr	r2, [r3, #12]
 4156 0082 BDF81410 		ldrh	r1, [sp, #20]
 4157 0086 BDF81030 		ldrh	r3, [sp, #16]
 4158 008a 0B44     		add	r3, r3, r1
 4159 008c 5B00     		lsls	r3, r3, #1
 4160 008e 1344     		add	r3, r3, r2
 4161 0090 B3F90030 		ldrsh	r3, [r3]
 4162 0094 002B     		cmp	r3, #0
 4163 0096 DED1     		bne	.L200
 4164              		.loc 2 1024 0
 4165 0098 BDF81030 		ldrh	r3, [sp, #16]	@ movhi
 4166 009c ADF81C30 		strh	r3, [sp, #28]	@ movhi
 4167              		.loc 2 1025 0
 4168 00a0 3DE0     		b	.L201
 4169              	.L205:
 4170              		.loc 2 1027 0
 4171 00a2 BDF81030 		ldrh	r3, [sp, #16]	@ movhi
 4172 00a6 0133     		adds	r3, r3, #1
 4173 00a8 ADF81030 		strh	r3, [sp, #16]	@ movhi
 4174              		.loc 2 1028 0
 4175 00ac BDF81020 		ldrh	r2, [sp, #16]
 4176 00b0 BDF81830 		ldrh	r3, [sp, #24]
 4177 00b4 9A42     		cmp	r2, r3
 4178 00b6 32D9     		bls	.L201
 4179              		.loc 2 1030 0
 4180 00b8 BDF81C30 		ldrh	r3, [sp, #28]
 4181 00bc 002B     		cmp	r3, #0
 4182 00be 09D1     		bne	.L202
 4183              		.loc 2 1032 0
 4184 00c0 019B     		ldr	r3, [sp, #4]
 4185 00c2 DA68     		ldr	r2, [r3, #12]
 4186 00c4 BDF81230 		ldrh	r3, [sp, #18]
 4187 00c8 5B00     		lsls	r3, r3, #1
ARM GAS  C:\Users\PCHAUT~1\AppData\Local\Temp\ccvICu2w.s 			page 77


 4188 00ca 1344     		add	r3, r3, r2
 4189 00cc 4FF6FF72 		movw	r2, #65535
 4190 00d0 1A80     		strh	r2, [r3]	@ movhi
 4191              		.loc 2 1042 0
 4192 00d2 D2E0     		b	.L197
 4193              	.L202:
 4194              	.LBB17:
 4195              		.loc 2 1036 0
 4196 00d4 BDF81C30 		ldrh	r3, [sp, #28]	@ movhi
 4197 00d8 013B     		subs	r3, r3, #1
 4198 00da ADF82230 		strh	r3, [sp, #34]	@ movhi
 4199              		.loc 2 1037 0
 4200 00de BDF82220 		ldrh	r2, [sp, #34]
 4201 00e2 BDF91A30 		ldrsh	r3, [sp, #26]
 4202 00e6 9A42     		cmp	r2, r3
 4203 00e8 09DA     		bge	.L204
 4204              		.loc 2 1038 0
 4205 00ea 019B     		ldr	r3, [sp, #4]
 4206 00ec DA68     		ldr	r2, [r3, #12]
 4207 00ee BDF81230 		ldrh	r3, [sp, #18]
 4208 00f2 5B00     		lsls	r3, r3, #1
 4209 00f4 1344     		add	r3, r3, r2
 4210 00f6 4FF6FF72 		movw	r2, #65535
 4211 00fa 1A80     		strh	r2, [r3]	@ movhi
 4212              	.LBE17:
 4213              		.loc 2 1042 0
 4214 00fc BDE0     		b	.L197
 4215              	.L204:
 4216              	.LBB18:
 4217              		.loc 2 1040 0
 4218 00fe BDF81C30 		ldrh	r3, [sp, #28]
 4219 0102 013B     		subs	r3, r3, #1
 4220 0104 DA0F     		lsrs	r2, r3, #31
 4221 0106 1344     		add	r3, r3, r2
 4222 0108 5B10     		asrs	r3, r3, #1
 4223 010a 1946     		mov	r1, r3
 4224 010c 019B     		ldr	r3, [sp, #4]
 4225 010e DA68     		ldr	r2, [r3, #12]
 4226 0110 BDF81230 		ldrh	r3, [sp, #18]
 4227 0114 5B00     		lsls	r3, r3, #1
 4228 0116 1344     		add	r3, r3, r2
 4229 0118 0AB2     		sxth	r2, r1
 4230 011a 1A80     		strh	r2, [r3]	@ movhi
 4231              	.LBE18:
 4232              		.loc 2 1042 0
 4233 011c ADE0     		b	.L197
 4234              	.L201:
 4235              		.loc 2 1025 0
 4236 011e 019B     		ldr	r3, [sp, #4]
 4237 0120 DA68     		ldr	r2, [r3, #12]
 4238 0122 BDF81410 		ldrh	r1, [sp, #20]
 4239 0126 BDF81030 		ldrh	r3, [sp, #16]
 4240 012a 0B44     		add	r3, r3, r1
 4241 012c 5B00     		lsls	r3, r3, #1
 4242 012e 1344     		add	r3, r3, r2
 4243 0130 B3F90030 		ldrsh	r3, [r3]
 4244 0134 002B     		cmp	r3, #0
ARM GAS  C:\Users\PCHAUT~1\AppData\Local\Temp\ccvICu2w.s 			page 78


 4245 0136 B4D0     		beq	.L205
 4246              		.loc 2 1046 0
 4247 0138 0023     		movs	r3, #0
 4248 013a ADF80A30 		strh	r3, [sp, #10]	@ movhi
 4249              		.loc 2 1047 0
 4250 013e 0023     		movs	r3, #0
 4251 0140 ADF80C30 		strh	r3, [sp, #12]	@ movhi
 4252              		.loc 2 1048 0
 4253 0144 0023     		movs	r3, #0
 4254 0146 ADF80E30 		strh	r3, [sp, #14]	@ movhi
 4255              	.L214:
 4256              		.loc 2 1053 0
 4257 014a BDF80A30 		ldrh	r3, [sp, #10]	@ movhi
 4258 014e ADF81E30 		strh	r3, [sp, #30]	@ movhi
 4259              		.loc 2 1054 0
 4260 0152 0BE0     		b	.L206
 4261              	.L208:
 4262              		.loc 2 1056 0
 4263 0154 BDF80A30 		ldrh	r3, [sp, #10]
 4264 0158 0133     		adds	r3, r3, #1
 4265 015a 9BB2     		uxth	r3, r3
 4266 015c ADF80A30 		strh	r3, [sp, #10]	@ movhi
 4267              		.loc 2 1057 0
 4268 0160 BDF90A20 		ldrsh	r2, [sp, #10]
 4269 0164 BDF81830 		ldrh	r3, [sp, #24]
 4270 0168 9A42     		cmp	r2, r3
 4271 016a 17DA     		bge	.L217
 4272              	.L206:
 4273              		.loc 2 1054 0
 4274 016c 019B     		ldr	r3, [sp, #4]
 4275 016e D968     		ldr	r1, [r3, #12]
 4276 0170 BDF81400 		ldrh	r0, [sp, #20]
 4277 0174 BDF81020 		ldrh	r2, [sp, #16]
 4278 0178 BDF90A30 		ldrsh	r3, [sp, #10]
 4279 017c 1344     		add	r3, r3, r2
 4280 017e BDF81820 		ldrh	r2, [sp, #24]
 4281 0182 93FBF2F4 		sdiv	r4, r3, r2
 4282 0186 02FB04F2 		mul	r2, r2, r4
 4283 018a 9B1A     		subs	r3, r3, r2
 4284 018c 0344     		add	r3, r3, r0
 4285 018e 5B00     		lsls	r3, r3, #1
 4286 0190 0B44     		add	r3, r3, r1
 4287 0192 B3F90030 		ldrsh	r3, [r3]
 4288 0196 002B     		cmp	r3, #0
 4289 0198 DCD1     		bne	.L208
 4290 019a 00E0     		b	.L207
 4291              	.L217:
 4292              		.loc 2 1058 0
 4293 019c 00BF     		nop
 4294              	.L207:
 4295              		.loc 2 1061 0
 4296 019e BDF80A20 		ldrh	r2, [sp, #10]
 4297 01a2 BDF81E30 		ldrh	r3, [sp, #30]
 4298 01a6 D31A     		subs	r3, r2, r3
 4299 01a8 9BB2     		uxth	r3, r3
 4300 01aa ADF82030 		strh	r3, [sp, #32]	@ movhi
 4301              		.loc 2 1062 0
ARM GAS  C:\Users\PCHAUT~1\AppData\Local\Temp\ccvICu2w.s 			page 79


 4302 01ae BDF92020 		ldrsh	r2, [sp, #32]
 4303 01b2 BDF90C30 		ldrsh	r3, [sp, #12]
 4304 01b6 9A42     		cmp	r2, r3
 4305 01b8 0DDD     		ble	.L209
 4306              		.loc 2 1064 0
 4307 01ba BDF82030 		ldrh	r3, [sp, #32]	@ movhi
 4308 01be ADF80C30 		strh	r3, [sp, #12]	@ movhi
 4309              		.loc 2 1065 0
 4310 01c2 BDF90A20 		ldrsh	r2, [sp, #10]
 4311 01c6 BDF91E30 		ldrsh	r3, [sp, #30]
 4312 01ca 1344     		add	r3, r3, r2
 4313 01cc DA0F     		lsrs	r2, r3, #31
 4314 01ce 1344     		add	r3, r3, r2
 4315 01d0 5B10     		asrs	r3, r3, #1
 4316 01d2 ADF80E30 		strh	r3, [sp, #14]	@ movhi
 4317              	.L209:
 4318              		.loc 2 1067 0
 4319 01d6 BDF90A20 		ldrsh	r2, [sp, #10]
 4320 01da BDF81830 		ldrh	r3, [sp, #24]
 4321 01de 9A42     		cmp	r2, r3
 4322 01e0 24DA     		bge	.L218
 4323              		.loc 2 1071 0
 4324 01e2 0BE0     		b	.L212
 4325              	.L213:
 4326              		.loc 2 1073 0
 4327 01e4 BDF80A30 		ldrh	r3, [sp, #10]
 4328 01e8 0133     		adds	r3, r3, #1
 4329 01ea 9BB2     		uxth	r3, r3
 4330 01ec ADF80A30 		strh	r3, [sp, #10]	@ movhi
 4331              		.loc 2 1074 0
 4332 01f0 BDF90A20 		ldrsh	r2, [sp, #10]
 4333 01f4 BDF81830 		ldrh	r3, [sp, #24]
 4334 01f8 9A42     		cmp	r2, r3
 4335 01fa 19DA     		bge	.L219
 4336              	.L212:
 4337              		.loc 2 1071 0
 4338 01fc 019B     		ldr	r3, [sp, #4]
 4339 01fe D968     		ldr	r1, [r3, #12]
 4340 0200 BDF81400 		ldrh	r0, [sp, #20]
 4341 0204 BDF81020 		ldrh	r2, [sp, #16]
 4342 0208 BDF90A30 		ldrsh	r3, [sp, #10]
 4343 020c 1344     		add	r3, r3, r2
 4344 020e BDF81820 		ldrh	r2, [sp, #24]
 4345 0212 93FBF2F4 		sdiv	r4, r3, r2
 4346 0216 02FB04F2 		mul	r2, r2, r4
 4347 021a 9B1A     		subs	r3, r3, r2
 4348 021c 0344     		add	r3, r3, r0
 4349 021e 5B00     		lsls	r3, r3, #1
 4350 0220 0B44     		add	r3, r3, r1
 4351 0222 B3F90030 		ldrsh	r3, [r3]
 4352 0226 002B     		cmp	r3, #0
 4353 0228 DCD0     		beq	.L213
 4354              		.loc 2 1053 0
 4355 022a 8EE7     		b	.L214
 4356              	.L218:
 4357              		.loc 2 1068 0
 4358 022c 00BF     		nop
ARM GAS  C:\Users\PCHAUT~1\AppData\Local\Temp\ccvICu2w.s 			page 80


 4359 022e 00E0     		b	.L211
 4360              	.L219:
 4361              		.loc 2 1075 0
 4362 0230 00BF     		nop
 4363              	.L211:
 4364              		.loc 2 1080 0
 4365 0232 BDF90C20 		ldrsh	r2, [sp, #12]
 4366 0236 BDF91A30 		ldrsh	r3, [sp, #26]
 4367 023a 9A42     		cmp	r2, r3
 4368 023c 09DA     		bge	.L215
 4369              		.loc 2 1082 0
 4370 023e 019B     		ldr	r3, [sp, #4]
 4371 0240 DA68     		ldr	r2, [r3, #12]
 4372 0242 BDF81230 		ldrh	r3, [sp, #18]
 4373 0246 5B00     		lsls	r3, r3, #1
 4374 0248 1344     		add	r3, r3, r2
 4375 024a 4FF6FF72 		movw	r2, #65535
 4376 024e 1A80     		strh	r2, [r3]	@ movhi
 4377 0250 13E0     		b	.L197
 4378              	.L215:
 4379              		.loc 2 1086 0
 4380 0252 BDF81020 		ldrh	r2, [sp, #16]
 4381 0256 BDF90E30 		ldrsh	r3, [sp, #14]
 4382 025a 1344     		add	r3, r3, r2
 4383 025c BDF81820 		ldrh	r2, [sp, #24]
 4384 0260 93FBF2F1 		sdiv	r1, r3, r2
 4385 0264 02FB01F2 		mul	r2, r2, r1
 4386 0268 991A     		subs	r1, r3, r2
 4387 026a 019B     		ldr	r3, [sp, #4]
 4388 026c DA68     		ldr	r2, [r3, #12]
 4389 026e BDF81230 		ldrh	r3, [sp, #18]
 4390 0272 5B00     		lsls	r3, r3, #1
 4391 0274 1344     		add	r3, r3, r2
 4392 0276 0AB2     		sxth	r2, r1
 4393 0278 1A80     		strh	r2, [r3]	@ movhi
 4394              	.L197:
 4395              		.loc 2 1088 0
 4396 027a 044B     		ldr	r3, .L220
 4397 027c 099A     		ldr	r2, [sp, #36]
 4398 027e 1B68     		ldr	r3, [r3]
 4399 0280 9A42     		cmp	r2, r3
 4400 0282 01D0     		beq	.L216
 4401 0284 FFF7FEFF 		bl	__stack_chk_fail
 4402              	.L216:
 4403 0288 0AB0     		add	sp, sp, #40
 4404              		.cfi_def_cfa_offset 8
 4405              		@ sp needed
 4406 028a 10BD     		pop	{r4, pc}
 4407              	.L221:
 4408              		.align	2
 4409              	.L220:
 4410 028c 00000000 		.word	__stack_chk_guard
 4411              		.cfi_endproc
 4412              	.LFE26:
 4413              		.size	AsebaNative_vecnonzerosequence, .-AsebaNative_vecnonzerosequence
 4414              		.global	AsebaNativeDescription_vecnonzerosequence
 4415              		.section	.rodata
ARM GAS  C:\Users\PCHAUT~1\AppData\Local\Temp\ccvICu2w.s 			page 81


 4416 0543 00       		.align	2
 4417              	.LC61:
 4418 0544 6D617468 		.ascii	"math.nzseq\000"
 4418      2E6E7A73 
 4418      657100
 4419 054f 00       		.align	2
 4420              	.LC62:
 4421 0550 77726974 		.ascii	"write to dest the middle index of the largest seque"
 4421      6520746F 
 4421      20646573 
 4421      74207468 
 4421      65206D69 
 4422 0583 6E636520 		.ascii	"nce of non-zero elements from src, -1 if not found "
 4422      6F66206E 
 4422      6F6E2D7A 
 4422      65726F20 
 4422      656C656D 
 4423 05b6 6F722069 		.ascii	"or if smaller than minLength\000"
 4423      6620736D 
 4423      616C6C65 
 4423      72207468 
 4423      616E206D 
 4424 05d3 00       		.align	2
 4425              	.LC63:
 4426 05d4 6D696E4C 		.ascii	"minLength\000"
 4426      656E6774 
 4426      6800
 4427              		.section	.rodata.AsebaNativeDescription_vecnonzerosequence,"a",%progbits
 4428              		.align	2
 4429              		.type	AsebaNativeDescription_vecnonzerosequence, %object
 4430              		.size	AsebaNativeDescription_vecnonzerosequence, 40
 4431              	AsebaNativeDescription_vecnonzerosequence:
 4432 0000 44050000 		.word	.LC61
 4433 0004 50050000 		.word	.LC62
 4434 0008 0100     		.short	1
 4435 000a 0000     		.space	2
 4436 000c 34000000 		.word	.LC2
 4437 0010 FFFF     		.short	-1
 4438 0012 0000     		.space	2
 4439 0014 3C000000 		.word	.LC3
 4440 0018 0100     		.short	1
 4441 001a 0000     		.space	2
 4442 001c D4050000 		.word	.LC63
 4443 0020 0000     		.short	0
 4444 0022 0000     		.space	2
 4445 0024 00000000 		.word	0
 4446              		.section	.bss.rnd_state,"aw",%nobits
 4447              		.align	1
 4448              		.type	rnd_state, %object
 4449              		.size	rnd_state, 2
 4450              	rnd_state:
 4451 0000 0000     		.space	2
 4452              		.section	.text.AsebaSetRandomSeed,"ax",%progbits
 4453              		.align	1
 4454              		.p2align 4,,15
 4455              		.global	AsebaSetRandomSeed
 4456              		.syntax unified
ARM GAS  C:\Users\PCHAUT~1\AppData\Local\Temp\ccvICu2w.s 			page 82


 4457              		.thumb
 4458              		.thumb_func
 4459              		.fpu fpv4-sp-d16
 4460              		.type	AsebaSetRandomSeed, %function
 4461              	AsebaSetRandomSeed:
 4462              	.LFB27:
 4463              		.loc 2 1106 0
 4464              		.cfi_startproc
 4465              		@ args = 0, pretend = 0, frame = 16
 4466              		@ frame_needed = 0, uses_anonymous_args = 0
 4467 0000 00B5     		push	{lr}
 4468              		.cfi_def_cfa_offset 4
 4469              		.cfi_offset 14, -4
 4470 0002 85B0     		sub	sp, sp, #20
 4471              		.cfi_def_cfa_offset 24
 4472 0004 0346     		mov	r3, r0
 4473 0006 ADF80630 		strh	r3, [sp, #6]	@ movhi
 4474              		.loc 2 1106 0
 4475 000a 094B     		ldr	r3, .L224
 4476 000c 1B68     		ldr	r3, [r3]
 4477 000e 0393     		str	r3, [sp, #12]
 4478              		.loc 2 1107 0
 4479 0010 084A     		ldr	r2, .L224+4
 4480 0012 BDF80630 		ldrh	r3, [sp, #6]	@ movhi
 4481 0016 1380     		strh	r3, [r2]	@ movhi
 4482              		.loc 2 1108 0
 4483 0018 00BF     		nop
 4484 001a 054B     		ldr	r3, .L224
 4485 001c 039A     		ldr	r2, [sp, #12]
 4486 001e 1B68     		ldr	r3, [r3]
 4487 0020 9A42     		cmp	r2, r3
 4488 0022 01D0     		beq	.L223
 4489 0024 FFF7FEFF 		bl	__stack_chk_fail
 4490              	.L223:
 4491 0028 05B0     		add	sp, sp, #20
 4492              		.cfi_def_cfa_offset 4
 4493              		@ sp needed
 4494 002a 5DF804FB 		ldr	pc, [sp], #4
 4495              	.L225:
 4496 002e 00BF     		.align	2
 4497              	.L224:
 4498 0030 00000000 		.word	__stack_chk_guard
 4499 0034 00000000 		.word	rnd_state
 4500              		.cfi_endproc
 4501              	.LFE27:
 4502              		.size	AsebaSetRandomSeed, .-AsebaSetRandomSeed
 4503              		.section	.text.AsebaGetRandom,"ax",%progbits
 4504              		.align	1
 4505              		.p2align 4,,15
 4506              		.global	AsebaGetRandom
 4507              		.syntax unified
 4508              		.thumb
 4509              		.thumb_func
 4510              		.fpu fpv4-sp-d16
 4511              		.type	AsebaGetRandom, %function
 4512              	AsebaGetRandom:
 4513              	.LFB28:
ARM GAS  C:\Users\PCHAUT~1\AppData\Local\Temp\ccvICu2w.s 			page 83


 4514              		.loc 2 1111 0
 4515              		.cfi_startproc
 4516              		@ args = 0, pretend = 0, frame = 8
 4517              		@ frame_needed = 0, uses_anonymous_args = 0
 4518 0000 00B5     		push	{lr}
 4519              		.cfi_def_cfa_offset 4
 4520              		.cfi_offset 14, -4
 4521 0002 83B0     		sub	sp, sp, #12
 4522              		.cfi_def_cfa_offset 16
 4523              		.loc 2 1111 0
 4524 0004 124B     		ldr	r3, .L229
 4525 0006 1B68     		ldr	r3, [r3]
 4526 0008 0193     		str	r3, [sp, #4]
 4527              		.loc 2 1112 0
 4528 000a 124B     		ldr	r3, .L229+4
 4529 000c 1B88     		ldrh	r3, [r3]
 4530 000e 1A46     		mov	r2, r3	@ movhi
 4531 0010 D200     		lsls	r2, r2, #3
 4532 0012 D21A     		subs	r2, r2, r3
 4533 0014 9200     		lsls	r2, r2, #2
 4534 0016 1A44     		add	r2, r2, r3
 4535 0018 1146     		mov	r1, r2	@ movhi
 4536 001a C900     		lsls	r1, r1, #3
 4537 001c 8A1A     		subs	r2, r1, r2
 4538 001e 1146     		mov	r1, r2	@ movhi
 4539 0020 4901     		lsls	r1, r1, #5
 4540 0022 8A1A     		subs	r2, r1, r2
 4541 0024 9200     		lsls	r2, r2, #2
 4542 0026 1344     		add	r3, r3, r2
 4543 0028 9BB2     		uxth	r3, r3
 4544 002a 03F55853 		add	r3, r3, #13824
 4545 002e 1933     		adds	r3, r3, #25
 4546 0030 9AB2     		uxth	r2, r3
 4547 0032 084B     		ldr	r3, .L229+4
 4548 0034 1A80     		strh	r2, [r3]	@ movhi
 4549              		.loc 2 1113 0
 4550 0036 074B     		ldr	r3, .L229+4
 4551 0038 1B88     		ldrh	r3, [r3]
 4552              		.loc 2 1114 0
 4553 003a 1846     		mov	r0, r3
 4554 003c 044B     		ldr	r3, .L229
 4555 003e 019A     		ldr	r2, [sp, #4]
 4556 0040 1B68     		ldr	r3, [r3]
 4557 0042 9A42     		cmp	r2, r3
 4558 0044 01D0     		beq	.L228
 4559 0046 FFF7FEFF 		bl	__stack_chk_fail
 4560              	.L228:
 4561 004a 03B0     		add	sp, sp, #12
 4562              		.cfi_def_cfa_offset 4
 4563              		@ sp needed
 4564 004c 5DF804FB 		ldr	pc, [sp], #4
 4565              	.L230:
 4566              		.align	2
 4567              	.L229:
 4568 0050 00000000 		.word	__stack_chk_guard
 4569 0054 00000000 		.word	rnd_state
 4570              		.cfi_endproc
ARM GAS  C:\Users\PCHAUT~1\AppData\Local\Temp\ccvICu2w.s 			page 84


 4571              	.LFE28:
 4572              		.size	AsebaGetRandom, .-AsebaGetRandom
 4573              		.section	.text.AsebaNative_rand,"ax",%progbits
 4574              		.align	1
 4575              		.p2align 4,,15
 4576              		.global	AsebaNative_rand
 4577              		.syntax unified
 4578              		.thumb
 4579              		.thumb_func
 4580              		.fpu fpv4-sp-d16
 4581              		.type	AsebaNative_rand, %function
 4582              	AsebaNative_rand:
 4583              	.LFB29:
 4584              		.loc 2 1117 0
 4585              		.cfi_startproc
 4586              		@ args = 0, pretend = 0, frame = 24
 4587              		@ frame_needed = 0, uses_anonymous_args = 0
 4588 0000 00B5     		push	{lr}
 4589              		.cfi_def_cfa_offset 4
 4590              		.cfi_offset 14, -4
 4591 0002 87B0     		sub	sp, sp, #28
 4592              		.cfi_def_cfa_offset 32
 4593 0004 0190     		str	r0, [sp, #4]
 4594              		.loc 2 1117 0
 4595 0006 1C4B     		ldr	r3, .L235
 4596 0008 1B68     		ldr	r3, [r3]
 4597 000a 0593     		str	r3, [sp, #20]
 4598              		.loc 2 1119 0
 4599 000c 0198     		ldr	r0, [sp, #4]
 4600 000e FFF7FEFF 		bl	AsebaNativePopArg
 4601 0012 0346     		mov	r3, r0
 4602 0014 ADF80E30 		strh	r3, [sp, #14]	@ movhi
 4603              		.loc 2 1122 0
 4604 0018 0198     		ldr	r0, [sp, #4]
 4605 001a FFF7FEFF 		bl	AsebaNativePopArg
 4606 001e 0346     		mov	r3, r0
 4607 0020 ADF81230 		strh	r3, [sp, #18]	@ movhi
 4608              		.loc 2 1125 0
 4609 0024 0023     		movs	r3, #0
 4610 0026 ADF81030 		strh	r3, [sp, #16]	@ movhi
 4611 002a 13E0     		b	.L232
 4612              	.L233:
 4613              		.loc 2 1127 0 discriminator 3
 4614 002c FFF7FEFF 		bl	AsebaGetRandom
 4615 0030 0346     		mov	r3, r0
 4616 0032 1846     		mov	r0, r3
 4617 0034 019B     		ldr	r3, [sp, #4]
 4618 0036 DA68     		ldr	r2, [r3, #12]
 4619 0038 BDF80E30 		ldrh	r3, [sp, #14]
 4620 003c 591C     		adds	r1, r3, #1
 4621 003e ADF80E10 		strh	r1, [sp, #14]	@ movhi
 4622 0042 5B00     		lsls	r3, r3, #1
 4623 0044 1344     		add	r3, r3, r2
 4624 0046 02B2     		sxth	r2, r0
 4625 0048 1A80     		strh	r2, [r3]	@ movhi
 4626              		.loc 2 1125 0 discriminator 3
 4627 004a BDF81030 		ldrh	r3, [sp, #16]
ARM GAS  C:\Users\PCHAUT~1\AppData\Local\Temp\ccvICu2w.s 			page 85


 4628 004e 0133     		adds	r3, r3, #1
 4629 0050 ADF81030 		strh	r3, [sp, #16]	@ movhi
 4630              	.L232:
 4631              		.loc 2 1125 0 is_stmt 0 discriminator 1
 4632 0054 BDF81020 		ldrh	r2, [sp, #16]
 4633 0058 BDF81230 		ldrh	r3, [sp, #18]
 4634 005c 9A42     		cmp	r2, r3
 4635 005e E5D3     		bcc	.L233
 4636              		.loc 2 1129 0 is_stmt 1
 4637 0060 00BF     		nop
 4638 0062 054B     		ldr	r3, .L235
 4639 0064 059A     		ldr	r2, [sp, #20]
 4640 0066 1B68     		ldr	r3, [r3]
 4641 0068 9A42     		cmp	r2, r3
 4642 006a 01D0     		beq	.L234
 4643 006c FFF7FEFF 		bl	__stack_chk_fail
 4644              	.L234:
 4645 0070 07B0     		add	sp, sp, #28
 4646              		.cfi_def_cfa_offset 4
 4647              		@ sp needed
 4648 0072 5DF804FB 		ldr	pc, [sp], #4
 4649              	.L236:
 4650 0076 00BF     		.align	2
 4651              	.L235:
 4652 0078 00000000 		.word	__stack_chk_guard
 4653              		.cfi_endproc
 4654              	.LFE29:
 4655              		.size	AsebaNative_rand, .-AsebaNative_rand
 4656              		.global	AsebaNativeDescription_rand
 4657              		.section	.rodata
 4658 05de 0000     		.align	2
 4659              	.LC64:
 4660 05e0 6D617468 		.ascii	"math.rand\000"
 4660      2E72616E 
 4660      6400
 4661 05ea 0000     		.align	2
 4662              	.LC65:
 4663 05ec 66696C6C 		.ascii	"fill array with random values\000"
 4663      20617272 
 4663      61792077 
 4663      69746820 
 4663      72616E64 
 4664              		.section	.rodata.AsebaNativeDescription_rand,"a",%progbits
 4665              		.align	2
 4666              		.type	AsebaNativeDescription_rand, %object
 4667              		.size	AsebaNativeDescription_rand, 24
 4668              	AsebaNativeDescription_rand:
 4669 0000 E0050000 		.word	.LC64
 4670 0004 EC050000 		.word	.LC65
 4671 0008 FFFF     		.short	-1
 4672 000a 0000     		.space	2
 4673 000c 34000000 		.word	.LC2
 4674 0010 0000     		.short	0
 4675 0012 0000     		.space	2
 4676 0014 00000000 		.word	0
 4677              		.text
 4678              	.Letext0:
ARM GAS  C:\Users\PCHAUT~1\AppData\Local\Temp\ccvICu2w.s 			page 86


 4679              		.file 3 "../lib/e-puck2_main-processor/aseba/vm/../common/consts.h"
 4680              		.file 4 "c:\\users\\pchautems\\documents\\robotiquetp\\eclipse_e-puck2\\tools\\gcc-arm-none-eabi-7
 4681              		.file 5 "c:\\users\\pchautems\\documents\\robotiquetp\\eclipse_e-puck2\\tools\\gcc-arm-none-eabi-7
 4682              		.file 6 "c:\\users\\pchautems\\documents\\robotiquetp\\eclipse_e-puck2\\tools\\gcc-arm-none-eabi-7
 4683              		.file 7 "c:\\users\\pchautems\\documents\\robotiquetp\\eclipse_e-puck2\\tools\\gcc-arm-none-eabi-7
 4684              		.file 8 "c:\\users\\pchautems\\documents\\robotiquetp\\eclipse_e-puck2\\tools\\gcc-arm-none-eabi-7
 4685              		.file 9 "../lib/e-puck2_main-processor/aseba/vm/../common/types.h"
 4686              		.file 10 "../lib/e-puck2_main-processor/aseba/vm/vm.h"