ARM GAS  C:\Users\PCHAUT~1\AppData\Local\Temp\ccvICu2w.s 			page 1


   1              		.cpu cortex-m4
   2              		.eabi_attribute 27, 1
   3              		.eabi_attribute 28, 1
   4              		.eabi_attribute 20, 1
   5              		.eabi_attribute 21, 1
   6              		.eabi_attribute 23, 3
   7              		.eabi_attribute 24, 1
   8              		.eabi_attribute 25, 1
   9              		.eabi_attribute 26, 1
  10              		.eabi_attribute 30, 6
  11              		.eabi_attribute 34, 1
  12              		.eabi_attribute 18, 4
  13              		.file	"natives.c"
  14              		.text
  15              	.Ltext0:
  16              		.cfi_sections	.debug_frame
  17              		.section	.text.AsebaNativePopArg,"ax",%progbits
  18              		.align	1
  19              		.p2align 4,,15
  20              		.syntax unified
  21              		.thumb
  22              		.thumb_func
  23              		.fpu fpv4-sp-d16
  24              		.type	AsebaNativePopArg, %function
  25              	AsebaNativePopArg:
  26              	.LFB0:
  27              		.file 1 "../lib/e-puck2_main-processor/aseba/vm/natives.h"
  28              		.loc 1 89 0
  29              		.cfi_startproc
  30              		@ args = 0, pretend = 0, frame = 16
  31              		@ frame_needed = 0, uses_anonymous_args = 0
  32 0000 00B5     		push	{lr}
  33              		.cfi_def_cfa_offset 4
  34              		.cfi_offset 14, -4
  35 0002 85B0     		sub	sp, sp, #20
  36              		.cfi_def_cfa_offset 24
  37 0004 0190     		str	r0, [sp, #4]
  38              		.loc 1 89 0
  39 0006 0F4B     		ldr	r3, .L4
  40 0008 1B68     		ldr	r3, [r3]
  41 000a 0393     		str	r3, [sp, #12]
  42              		.loc 1 90 0
  43 000c 019B     		ldr	r3, [sp, #4]
  44 000e 5A69     		ldr	r2, [r3, #20]
  45 0010 019B     		ldr	r3, [sp, #4]
  46 0012 B3F91C10 		ldrsh	r1, [r3, #28]
  47 0016 8BB2     		uxth	r3, r1
  48 0018 013B     		subs	r3, r3, #1
  49 001a 9BB2     		uxth	r3, r3
  50 001c 18B2     		sxth	r0, r3
  51 001e 019B     		ldr	r3, [sp, #4]
  52 0020 9883     		strh	r0, [r3, #28]	@ movhi
  53 0022 0B46     		mov	r3, r1
  54 0024 5B00     		lsls	r3, r3, #1
  55 0026 1344     		add	r3, r3, r2
  56 0028 B3F90030 		ldrsh	r3, [r3]
  57              		.loc 1 91 0
ARM GAS  C:\Users\PCHAUT~1\AppData\Local\Temp\ccvICu2w.s 			page 2


  58 002c 1846     		mov	r0, r3
  59 002e 054B     		ldr	r3, .L4
  60 0030 039A     		ldr	r2, [sp, #12]
  61 0032 1B68     		ldr	r3, [r3]
  62 0034 9A42     		cmp	r2, r3
  63 0036 01D0     		beq	.L3
  64 0038 FFF7FEFF 		bl	__stack_chk_fail
  65              	.L3:
  66 003c 05B0     		add	sp, sp, #20
  67              		.cfi_def_cfa_offset 4
  68              		@ sp needed
  69 003e 5DF804FB 		ldr	pc, [sp], #4
  70              	.L5:
  71 0042 00BF     		.align	2
  72              	.L4:
  73 0044 00000000 		.word	__stack_chk_guard
  74              		.cfi_endproc
  75              	.LFE0:
  76              		.size	AsebaNativePopArg, .-AsebaNativePopArg
  77              		.section	.rodata.aseba_atan_table,"a",%progbits
  78              		.align	2
  79              		.type	aseba_atan_table, %object
  80              		.size	aseba_atan_table, 322
  81              	aseba_atan_table:
  82 0000 8C02     		.short	652
  83 0002 DF02     		.short	735
  84 0004 3003     		.short	816
  85 0006 8003     		.short	896
  86 0008 D103     		.short	977
  87 000a 2204     		.short	1058
  88 000c 7304     		.short	1139
  89 000e C204     		.short	1218
  90 0010 1405     		.short	1300
  91 0012 B305     		.short	1459
  92 0014 5406     		.short	1620
  93 0016 F106     		.short	1777
  94 0018 8F07     		.short	1935
  95 001a 2D08     		.short	2093
  96 001c CA08     		.short	2250
  97 001e 6309     		.short	2403
  98 0020 FC09     		.short	2556
  99 0022 340B     		.short	2868
 100 0024 5C0C     		.short	3164
 101 0026 820D     		.short	3458
 102 0028 A40E     		.short	3748
 103 002a BD0F     		.short	4029
 104 002c D310     		.short	4307
 105 002e E211     		.short	4578
 106 0030 E712     		.short	4839
 107 0032 EF14     		.short	5359
 108 0034 CC16     		.short	5836
 109 0036 9218     		.short	6290
 110 0038 401A     		.short	6720
 111 003a D61B     		.short	7126
 112 003c 531D     		.short	7507
 113 003e B51E     		.short	7861
 114 0040 0B20     		.short	8203
ARM GAS  C:\Users\PCHAUT~1\AppData\Local\Temp\ccvICu2w.s 			page 3


 115 0042 7922     		.short	8825
 116 0044 8D24     		.short	9357
 117 0046 6F26     		.short	9839
 118 0048 1428     		.short	10260
 119 004a 9029     		.short	10640
 120 004c E02A     		.short	10976
 121 004e 112C     		.short	11281
 122 0050 252D     		.short	11557
 123 0052 052F     		.short	12037
 124 0054 8930     		.short	12425
 125 0056 D331     		.short	12755
 126 0058 EC32     		.short	13036
 127 005a DD33     		.short	13277
 128 005c AE34     		.short	13486
 129 005e 6735     		.short	13671
 130 0060 0D36     		.short	13837
 131 0062 2037     		.short	14112
 132 0064 FB37     		.short	14331
 133 0066 B238     		.short	14514
 134 0068 4A39     		.short	14666
 135 006a CC39     		.short	14796
 136 006c 3B3A     		.short	14907
 137 006e 9B3A     		.short	15003
 138 0070 F33A     		.short	15091
 139 0072 833B     		.short	15235
 140 0074 F43B     		.short	15348
 141 0076 513C     		.short	15441
 142 0078 9F3C     		.short	15519
 143 007a E13C     		.short	15585
 144 007c 1A3D     		.short	15642
 145 007e 4B3D     		.short	15691
 146 0080 783D     		.short	15736
 147 0082 C03D     		.short	15808
 148 0084 F93D     		.short	15865
 149 0086 283E     		.short	15912
 150 0088 4F3E     		.short	15951
 151 008a 703E     		.short	15984
 152 008c 8D3E     		.short	16013
 153 008e A53E     		.short	16037
 154 0090 BC3E     		.short	16060
 155 0092 E03E     		.short	16096
 156 0094 FD3E     		.short	16125
 157 0096 143F     		.short	16148
 158 0098 283F     		.short	16168
 159 009a 383F     		.short	16184
 160 009c 473F     		.short	16199
 161 009e 533F     		.short	16211
 162 00a0 5E3F     		.short	16222
 163 00a2 703F     		.short	16240
 164 00a4 7F3F     		.short	16255
 165 00a6 8A3F     		.short	16266
 166 00a8 943F     		.short	16276
 167 00aa 9C3F     		.short	16284
 168 00ac A43F     		.short	16292
 169 00ae AA3F     		.short	16298
 170 00b0 AF3F     		.short	16303
 171 00b2 B83F     		.short	16312
ARM GAS  C:\Users\PCHAUT~1\AppData\Local\Temp\ccvICu2w.s 			page 4


 172 00b4 C03F     		.short	16320
 173 00b6 C53F     		.short	16325
 174 00b8 CB3F     		.short	16331
 175 00ba CE3F     		.short	16334
 176 00bc D23F     		.short	16338
 177 00be D53F     		.short	16341
 178 00c0 D83F     		.short	16344
 179 00c2 DC3F     		.short	16348
 180 00c4 E03F     		.short	16352
 181 00c6 E33F     		.short	16355
 182 00c8 E53F     		.short	16357
 183 00ca E83F     		.short	16360
 184 00cc E93F     		.short	16361
 185 00ce EB3F     		.short	16363
 186 00d0 EC3F     		.short	16364
 187 00d2 EE3F     		.short	16366
 188 00d4 F13F     		.short	16369
 189 00d6 F13F     		.short	16369
 190 00d8 F33F     		.short	16371
 191 00da F43F     		.short	16372
 192 00dc F53F     		.short	16373
 193 00de F53F     		.short	16373
 194 00e0 F73F     		.short	16375
 195 00e2 F73F     		.short	16375
 196 00e4 F93F     		.short	16377
 197 00e6 F83F     		.short	16376
 198 00e8 FA3F     		.short	16378
 199 00ea FA3F     		.short	16378
 200 00ec FA3F     		.short	16378
 201 00ee FB3F     		.short	16379
 202 00f0 FB3F     		.short	16379
 203 00f2 FC3F     		.short	16380
 204 00f4 FC3F     		.short	16380
 205 00f6 FC3F     		.short	16380
 206 00f8 FE3F     		.short	16382
 207 00fa FD3F     		.short	16381
 208 00fc FD3F     		.short	16381
 209 00fe FD3F     		.short	16381
 210 0100 FE3F     		.short	16382
 211 0102 FE3F     		.short	16382
 212 0104 FE3F     		.short	16382
 213 0106 FE3F     		.short	16382
 214 0108 FE3F     		.short	16382
 215 010a FE3F     		.short	16382
 216 010c 0040     		.short	16384
 217 010e FF3F     		.short	16383
 218 0110 FF3F     		.short	16383
 219 0112 FF3F     		.short	16383
 220 0114 FF3F     		.short	16383
 221 0116 FF3F     		.short	16383
 222 0118 FF3F     		.short	16383
 223 011a FF3F     		.short	16383
 224 011c FF3F     		.short	16383
 225 011e FF3F     		.short	16383
 226 0120 FF3F     		.short	16383
 227 0122 FF3F     		.short	16383
 228 0124 0040     		.short	16384
ARM GAS  C:\Users\PCHAUT~1\AppData\Local\Temp\ccvICu2w.s 			page 5


 229 0126 0040     		.short	16384
 230 0128 0040     		.short	16384
 231 012a 0040     		.short	16384
 232 012c 0040     		.short	16384
 233 012e 0040     		.short	16384
 234 0130 0040     		.short	16384
 235 0132 0040     		.short	16384
 236 0134 0040     		.short	16384
 237 0136 0040     		.short	16384
 238 0138 0040     		.short	16384
 239 013a 0040     		.short	16384
 240 013c 0040     		.short	16384
 241 013e 0040     		.short	16384
 242 0140 0040     		.short	16384
 243              		.section	.text.aseba_atan2,"ax",%progbits
 244              		.align	1
 245              		.p2align 4,,15
 246              		.global	aseba_atan2
 247              		.syntax unified
 248              		.thumb
 249              		.thumb_func
 250              		.fpu fpv4-sp-d16
 251              		.type	aseba_atan2, %function
 252              	aseba_atan2:
 253              	.LFB1:
 254              		.file 2 "../lib/e-puck2_main-processor/aseba/vm/natives.c"
 255              		.loc 2 70 0
 256              		.cfi_startproc
 257              		@ args = 0, pretend = 0, frame = 40
 258              		@ frame_needed = 0, uses_anonymous_args = 0
 259 0000 00B5     		push	{lr}
 260              		.cfi_def_cfa_offset 4
 261              		.cfi_offset 14, -4
 262 0002 8BB0     		sub	sp, sp, #44
 263              		.cfi_def_cfa_offset 48
 264 0004 0346     		mov	r3, r0
 265 0006 0A46     		mov	r2, r1
 266 0008 ADF80630 		strh	r3, [sp, #6]	@ movhi
 267 000c 1346     		mov	r3, r2	@ movhi
 268 000e ADF80430 		strh	r3, [sp, #4]	@ movhi
 269              		.loc 2 70 0
 270 0012 644B     		ldr	r3, .L19
 271 0014 1B68     		ldr	r3, [r3]
 272 0016 0993     		str	r3, [sp, #36]
 273              		.loc 2 71 0
 274 0018 BDF90630 		ldrsh	r3, [sp, #6]
 275 001c 002B     		cmp	r3, #0
 276 001e 0BD1     		bne	.L7
 277              		.loc 2 73 0
 278 0020 BDF90430 		ldrsh	r3, [sp, #4]
 279 0024 002B     		cmp	r3, #0
 280 0026 01DB     		blt	.L8
 281              		.loc 2 74 0
 282 0028 0023     		movs	r3, #0
 283 002a AFE0     		b	.L9
 284              	.L8:
 285              		.loc 2 75 0
ARM GAS  C:\Users\PCHAUT~1\AppData\Local\Temp\ccvICu2w.s 			page 6


 286 002c BDF90430 		ldrsh	r3, [sp, #4]
 287 0030 002B     		cmp	r3, #0
 288 0032 01DA     		bge	.L7
 289              		.loc 2 76 0
 290 0034 5C4B     		ldr	r3, .L19+4
 291 0036 A9E0     		b	.L9
 292              	.L7:
 293              	.LBB2:
 294              		.loc 2 81 0
 295 0038 BDF90430 		ldrsh	r3, [sp, #4]
 296 003c 002B     		cmp	r3, #0
 297 003e B8BF     		it	lt
 298 0040 5B42     		rsblt	r3, r3, #0
 299 0042 ADF80E30 		strh	r3, [sp, #14]	@ movhi
 300              		.loc 2 82 0
 301 0046 BDF90630 		ldrsh	r3, [sp, #6]
 302 004a 002B     		cmp	r3, #0
 303 004c B8BF     		it	lt
 304 004e 5B42     		rsblt	r3, r3, #0
 305 0050 ADF81030 		strh	r3, [sp, #16]	@ movhi
 306              		.loc 2 83 0
 307 0054 BDF90430 		ldrsh	r3, [sp, #4]
 308 0058 002B     		cmp	r3, #0
 309 005a 04D1     		bne	.L10
 310              		.loc 2 85 0
 311 005c 4FF48043 		mov	r3, #16384
 312 0060 ADF80830 		strh	r3, [sp, #8]	@ movhi
 313 0064 86E0     		b	.L11
 314              	.L10:
 315              	.LBB3:
 316              		.loc 2 128 0
 317 0066 BDF91030 		ldrsh	r3, [sp, #16]
 318 006a 1A04     		lsls	r2, r3, #16
 319 006c BDF90E30 		ldrsh	r3, [sp, #14]
 320 0070 92FBF3F3 		sdiv	r3, r2, r3
 321 0074 0793     		str	r3, [sp, #28]
 322              		.loc 2 129 0
 323 0076 0023     		movs	r3, #0
 324 0078 ADF80A30 		strh	r3, [sp, #10]	@ movhi
 325              		.loc 2 132 0
 326 007c 0023     		movs	r3, #0
 327 007e ADF80C30 		strh	r3, [sp, #12]	@ movhi
 328 0082 11E0     		b	.L12
 329              	.L14:
 330              		.loc 2 133 0
 331 0084 BDF90C30 		ldrsh	r3, [sp, #12]
 332 0088 079A     		ldr	r2, [sp, #28]
 333 008a 42FA03F3 		asr	r3, r2, r3
 334 008e 002B     		cmp	r3, #0
 335 0090 03D0     		beq	.L13
 336              		.loc 2 134 0
 337 0092 BDF80C30 		ldrh	r3, [sp, #12]	@ movhi
 338 0096 ADF80A30 		strh	r3, [sp, #10]	@ movhi
 339              	.L13:
 340              		.loc 2 132 0 discriminator 2
 341 009a BDF90C30 		ldrsh	r3, [sp, #12]
 342 009e 9BB2     		uxth	r3, r3
ARM GAS  C:\Users\PCHAUT~1\AppData\Local\Temp\ccvICu2w.s 			page 7


 343 00a0 0133     		adds	r3, r3, #1
 344 00a2 9BB2     		uxth	r3, r3
 345 00a4 ADF80C30 		strh	r3, [sp, #12]	@ movhi
 346              	.L12:
 347              		.loc 2 132 0 is_stmt 0 discriminator 1
 348 00a8 BDF90C30 		ldrsh	r3, [sp, #12]
 349 00ac 1F2B     		cmp	r3, #31
 350 00ae E9DD     		ble	.L14
 351              	.LBB4:
 352              		.loc 2 138 0 is_stmt 1
 353 00b0 BDF80A30 		ldrh	r3, [sp, #10]
 354 00b4 0C3B     		subs	r3, r3, #12
 355 00b6 9BB2     		uxth	r3, r3
 356 00b8 ADF81230 		strh	r3, [sp, #18]	@ movhi
 357              		.loc 2 139 0
 358 00bc BDF91230 		ldrsh	r3, [sp, #18]
 359 00c0 002B     		cmp	r3, #0
 360 00c2 09DA     		bge	.L15
 361              		.loc 2 142 0
 362 00c4 4FF42373 		mov	r3, #652
 363 00c8 1A46     		mov	r2, r3
 364 00ca 079B     		ldr	r3, [sp, #28]
 365 00cc 03FB02F3 		mul	r3, r3, r2
 366 00d0 1B13     		asrs	r3, r3, #12
 367 00d2 ADF80830 		strh	r3, [sp, #8]	@ movhi
 368 00d6 42E0     		b	.L16
 369              	.L15:
 370              	.LBB5:
 371              		.loc 2 146 0
 372 00d8 BDF90A30 		ldrsh	r3, [sp, #10]
 373 00dc 0122     		movs	r2, #1
 374 00de 02FA03F3 		lsl	r3, r2, r3
 375 00e2 079A     		ldr	r2, [sp, #28]
 376 00e4 D31A     		subs	r3, r2, r3
 377 00e6 0893     		str	r3, [sp, #32]
 378              		.loc 2 147 0
 379 00e8 BDF80A30 		ldrh	r3, [sp, #10]
 380 00ec 083B     		subs	r3, r3, #8
 381 00ee 9BB2     		uxth	r3, r3
 382 00f0 ADF81430 		strh	r3, [sp, #20]	@ movhi
 383              		.loc 2 148 0
 384 00f4 BDF91430 		ldrsh	r3, [sp, #20]
 385 00f8 089A     		ldr	r2, [sp, #32]
 386 00fa 42FA03F3 		asr	r3, r2, r3
 387 00fe ADF81630 		strh	r3, [sp, #22]	@ movhi
 388              		.loc 2 149 0
 389 0102 BDF91630 		ldrsh	r3, [sp, #22]
 390 0106 5B11     		asrs	r3, r3, #5
 391 0108 ADF81830 		strh	r3, [sp, #24]	@ movhi
 392              		.loc 2 150 0
 393 010c BDF81630 		ldrh	r3, [sp, #22]	@ movhi
 394 0110 03F01F03 		and	r3, r3, #31
 395 0114 ADF81A30 		strh	r3, [sp, #26]	@ movhi
 396              		.loc 2 151 0
 397 0118 BDF91230 		ldrsh	r3, [sp, #18]
 398 011c DA00     		lsls	r2, r3, #3
 399 011e BDF91830 		ldrsh	r3, [sp, #24]
ARM GAS  C:\Users\PCHAUT~1\AppData\Local\Temp\ccvICu2w.s 			page 8


 400 0122 1344     		add	r3, r3, r2
 401 0124 214A     		ldr	r2, .L19+8
 402 0126 32F91330 		ldrsh	r3, [r2, r3, lsl #1]
 403 012a 1A46     		mov	r2, r3
 404 012c BDF91A30 		ldrsh	r3, [sp, #26]
 405 0130 C3F12003 		rsb	r3, r3, #32
 406 0134 03FB02F2 		mul	r2, r3, r2
 407 0138 BDF91230 		ldrsh	r3, [sp, #18]
 408 013c D900     		lsls	r1, r3, #3
 409 013e BDF91830 		ldrsh	r3, [sp, #24]
 410 0142 0B44     		add	r3, r3, r1
 411 0144 0133     		adds	r3, r3, #1
 412 0146 1949     		ldr	r1, .L19+8
 413 0148 31F91330 		ldrsh	r3, [r1, r3, lsl #1]
 414 014c 1946     		mov	r1, r3
 415 014e BDF91A30 		ldrsh	r3, [sp, #26]
 416 0152 03FB01F3 		mul	r3, r3, r1
 417 0156 1344     		add	r3, r3, r2
 418 0158 5B11     		asrs	r3, r3, #5
 419 015a ADF80830 		strh	r3, [sp, #8]	@ movhi
 420              	.L16:
 421              	.LBE5:
 422              		.loc 2 155 0
 423 015e BDF90430 		ldrsh	r3, [sp, #4]
 424 0162 002B     		cmp	r3, #0
 425 0164 06DA     		bge	.L11
 426              		.loc 2 156 0
 427 0166 BDF80820 		ldrh	r2, [sp, #8]
 428 016a 0F4B     		ldr	r3, .L19+4
 429 016c 9B1A     		subs	r3, r3, r2
 430 016e 9BB2     		uxth	r3, r3
 431 0170 ADF80830 		strh	r3, [sp, #8]	@ movhi
 432              	.L11:
 433              	.LBE4:
 434              	.LBE3:
 435              		.loc 2 160 0
 436 0174 BDF90630 		ldrsh	r3, [sp, #6]
 437 0178 002B     		cmp	r3, #0
 438 017a 02DD     		ble	.L17
 439              		.loc 2 161 0
 440 017c BDF90830 		ldrsh	r3, [sp, #8]
 441 0180 04E0     		b	.L9
 442              	.L17:
 443              		.loc 2 163 0
 444 0182 BDF80830 		ldrh	r3, [sp, #8]
 445 0186 5B42     		negs	r3, r3
 446 0188 9BB2     		uxth	r3, r3
 447 018a 1BB2     		sxth	r3, r3
 448              	.L9:
 449              	.LBE2:
 450              		.loc 2 165 0
 451 018c 1846     		mov	r0, r3
 452 018e 054B     		ldr	r3, .L19
 453 0190 099A     		ldr	r2, [sp, #36]
 454 0192 1B68     		ldr	r3, [r3]
 455 0194 9A42     		cmp	r2, r3
 456 0196 01D0     		beq	.L18
ARM GAS  C:\Users\PCHAUT~1\AppData\Local\Temp\ccvICu2w.s 			page 9


 457 0198 FFF7FEFF 		bl	__stack_chk_fail
 458              	.L18:
 459 019c 0BB0     		add	sp, sp, #44
 460              		.cfi_def_cfa_offset 4
 461              		@ sp needed
 462 019e 5DF804FB 		ldr	pc, [sp], #4
 463              	.L20:
 464 01a2 00BF     		.align	2
 465              	.L19:
 466 01a4 00000000 		.word	__stack_chk_guard
 467 01a8 0080FFFF 		.word	-32768
 468 01ac 00000000 		.word	aseba_atan_table
 469              		.cfi_endproc
 470              	.LFE1:
 471              		.size	aseba_atan2, .-aseba_atan2
 472              		.section	.rodata.aseba_sin_table,"a",%progbits
 473              		.align	2
 474              		.type	aseba_sin_table, %object
 475              		.size	aseba_sin_table, 258
 476              	aseba_sin_table:
 477 0000 0000     		.short	0
 478 0002 9301     		.short	403
 479 0004 2403     		.short	804
 480 0006 B704     		.short	1207
 481 0008 4806     		.short	1608
 482 000a DA07     		.short	2010
 483 000c 6B09     		.short	2411
 484 000e FC0A     		.short	2812
 485 0010 8C0C     		.short	3212
 486 0012 1C0E     		.short	3612
 487 0014 AB0F     		.short	4011
 488 0016 3B11     		.short	4411
 489 0018 C812     		.short	4808
 490 001a 5614     		.short	5206
 491 001c E315     		.short	5603
 492 001e 6E17     		.short	5998
 493 0020 F918     		.short	6393
 494 0022 831A     		.short	6787
 495 0024 0C1C     		.short	7180
 496 0026 941D     		.short	7572
 497 0028 1A1F     		.short	7962
 498 002a A020     		.short	8352
 499 002c 2422     		.short	8740
 500 002e A723     		.short	9127
 501 0030 2925     		.short	9513
 502 0032 A826     		.short	9896
 503 0034 2728     		.short	10279
 504 0036 A429     		.short	10660
 505 0038 202B     		.short	11040
 506 003a 992C     		.short	11417
 507 003c 122E     		.short	11794
 508 003e 872F     		.short	12167
 509 0040 FC30     		.short	12540
 510 0042 6F32     		.short	12911
 511 0044 DF33     		.short	13279
 512 0046 4E35     		.short	13646
 513 0048 BA36     		.short	14010
ARM GAS  C:\Users\PCHAUT~1\AppData\Local\Temp\ccvICu2w.s 			page 10


 514 004a 2538     		.short	14373
 515 004c 8D39     		.short	14733
 516 004e F33A     		.short	15091
 517 0050 573C     		.short	15447
 518 0052 B93D     		.short	15801
 519 0054 173F     		.short	16151
 520 0056 7440     		.short	16500
 521 0058 CE41     		.short	16846
 522 005a 2643     		.short	17190
 523 005c 7B44     		.short	17531
 524 005e CD45     		.short	17869
 525 0060 1D47     		.short	18205
 526 0062 6A48     		.short	18538
 527 0064 B449     		.short	18868
 528 0066 FC4A     		.short	19196
 529 0068 404C     		.short	19520
 530 006a 824D     		.short	19842
 531 006c C04E     		.short	20160
 532 006e FC4F     		.short	20476
 533 0070 3451     		.short	20788
 534 0072 6952     		.short	21097
 535 0074 9B53     		.short	21403
 536 0076 CA54     		.short	21706
 537 0078 F655     		.short	22006
 538 007a 1E57     		.short	22302
 539 007c 4358     		.short	22595
 540 007e 6459     		.short	22884
 541 0080 835A     		.short	23171
 542 0082 9D5B     		.short	23453
 543 0084 B45C     		.short	23732
 544 0086 C85D     		.short	24008
 545 0088 D75E     		.short	24279
 546 008a E45F     		.short	24548
 547 008c EC60     		.short	24812
 548 008e F161     		.short	25073
 549 0090 F262     		.short	25330
 550 0092 EF63     		.short	25583
 551 0094 E964     		.short	25833
 552 0096 DE65     		.short	26078
 553 0098 D066     		.short	26320
 554 009a BD67     		.short	26557
 555 009c A768     		.short	26791
 556 009e 8C69     		.short	27020
 557 00a0 6E6A     		.short	27246
 558 00a2 4B6B     		.short	27467
 559 00a4 246C     		.short	27684
 560 00a6 F96C     		.short	27897
 561 00a8 CA6D     		.short	28106
 562 00aa 976E     		.short	28311
 563 00ac 5F6F     		.short	28511
 564 00ae 2370     		.short	28707
 565 00b0 E370     		.short	28899
 566 00b2 9E71     		.short	29086
 567 00b4 5572     		.short	29269
 568 00b6 0873     		.short	29448
 569 00b8 B673     		.short	29622
 570 00ba 6074     		.short	29792
ARM GAS  C:\Users\PCHAUT~1\AppData\Local\Temp\ccvICu2w.s 			page 11


 571 00bc 0575     		.short	29957
 572 00be A575     		.short	30117
 573 00c0 4276     		.short	30274
 574 00c2 D976     		.short	30425
 575 00c4 6C77     		.short	30572
 576 00c6 FB77     		.short	30715
 577 00c8 8478     		.short	30852
 578 00ca 0979     		.short	30985
 579 00cc 8A79     		.short	31114
 580 00ce 067A     		.short	31238
 581 00d0 7D7A     		.short	31357
 582 00d2 EF7A     		.short	31471
 583 00d4 5D7B     		.short	31581
 584 00d6 C67B     		.short	31686
 585 00d8 2A7C     		.short	31786
 586 00da 897C     		.short	31881
 587 00dc E47C     		.short	31972
 588 00de 397D     		.short	32057
 589 00e0 8A7D     		.short	32138
 590 00e2 D77D     		.short	32215
 591 00e4 1D7E     		.short	32285
 592 00e6 607E     		.short	32352
 593 00e8 9D7E     		.short	32413
 594 00ea D67E     		.short	32470
 595 00ec 097F     		.short	32521
 596 00ee 397F     		.short	32569
 597 00f0 627F     		.short	32610
 598 00f2 877F     		.short	32647
 599 00f4 A77F     		.short	32679
 600 00f6 C27F     		.short	32706
 601 00f8 D87F     		.short	32728
 602 00fa EA7F     		.short	32746
 603 00fc F67F     		.short	32758
 604 00fe FE7F     		.short	32766
 605 0100 FF7F     		.short	32767
 606              		.section	.text.aseba_sin,"ax",%progbits
 607              		.align	1
 608              		.p2align 4,,15
 609              		.global	aseba_sin
 610              		.syntax unified
 611              		.thumb
 612              		.thumb_func
 613              		.fpu fpv4-sp-d16
 614              		.type	aseba_sin, %function
 615              	aseba_sin:
 616              	.LFB2:
 617              		.loc 2 181 0
 618              		.cfi_startproc
 619              		@ args = 0, pretend = 0, frame = 24
 620              		@ frame_needed = 0, uses_anonymous_args = 0
 621 0000 00B5     		push	{lr}
 622              		.cfi_def_cfa_offset 4
 623              		.cfi_offset 14, -4
 624 0002 87B0     		sub	sp, sp, #28
 625              		.cfi_def_cfa_offset 32
 626 0004 0346     		mov	r3, r0
 627 0006 ADF80630 		strh	r3, [sp, #6]	@ movhi
ARM GAS  C:\Users\PCHAUT~1\AppData\Local\Temp\ccvICu2w.s 			page 12


 628              		.loc 2 181 0
 629 000a 404B     		ldr	r3, .L33
 630 000c 1B68     		ldr	r3, [r3]
 631 000e 0593     		str	r3, [sp, #20]
 632              		.loc 2 186 0
 633 0010 BDF90630 		ldrsh	r3, [sp, #6]
 634 0014 002B     		cmp	r3, #0
 635 0016 1EDA     		bge	.L22
 636              		.loc 2 188 0
 637 0018 BDF90630 		ldrsh	r3, [sp, #6]
 638 001c 13F5804F 		cmn	r3, #16384
 639 0020 07DA     		bge	.L23
 640              		.loc 2 189 0
 641 0022 BDF80630 		ldrh	r3, [sp, #6]
 642 0026 A3F50043 		sub	r3, r3, #32768
 643 002a 9BB2     		uxth	r3, r3
 644 002c ADF80C30 		strh	r3, [sp, #12]	@ movhi
 645 0030 0DE0     		b	.L24
 646              	.L23:
 647              		.loc 2 190 0
 648 0032 BDF90630 		ldrsh	r3, [sp, #6]
 649 0036 13F5804F 		cmn	r3, #16384
 650 003a 06DD     		ble	.L25
 651              		.loc 2 191 0
 652 003c BDF80630 		ldrh	r3, [sp, #6]
 653 0040 5B42     		negs	r3, r3
 654 0042 9BB2     		uxth	r3, r3
 655 0044 ADF80C30 		strh	r3, [sp, #12]	@ movhi
 656 0048 01E0     		b	.L24
 657              	.L25:
 658              		.loc 2 193 0
 659 004a 314B     		ldr	r3, .L33+4
 660 004c 52E0     		b	.L26
 661              	.L24:
 662              		.loc 2 194 0
 663 004e 0123     		movs	r3, #1
 664 0050 ADF80A30 		strh	r3, [sp, #10]	@ movhi
 665 0054 1CE0     		b	.L27
 666              	.L22:
 667              		.loc 2 198 0
 668 0056 BDF90630 		ldrsh	r3, [sp, #6]
 669 005a B3F5804F 		cmp	r3, #16384
 670 005e 07DD     		ble	.L28
 671              		.loc 2 199 0
 672 0060 BDF80620 		ldrh	r2, [sp, #6]
 673 0064 2B4B     		ldr	r3, .L33+8
 674 0066 9B1A     		subs	r3, r3, r2
 675 0068 9BB2     		uxth	r3, r3
 676 006a ADF80C30 		strh	r3, [sp, #12]	@ movhi
 677 006e 0CE0     		b	.L29
 678              	.L28:
 679              		.loc 2 200 0
 680 0070 BDF90630 		ldrsh	r3, [sp, #6]
 681 0074 B3F5804F 		cmp	r3, #16384
 682 0078 04DA     		bge	.L30
 683              		.loc 2 201 0
 684 007a BDF80630 		ldrh	r3, [sp, #6]	@ movhi
ARM GAS  C:\Users\PCHAUT~1\AppData\Local\Temp\ccvICu2w.s 			page 13


 685 007e ADF80C30 		strh	r3, [sp, #12]	@ movhi
 686 0082 02E0     		b	.L29
 687              	.L30:
 688              		.loc 2 203 0
 689 0084 47F6FF73 		movw	r3, #32767
 690 0088 34E0     		b	.L26
 691              	.L29:
 692              		.loc 2 204 0
 693 008a 0023     		movs	r3, #0
 694 008c ADF80A30 		strh	r3, [sp, #10]	@ movhi
 695              	.L27:
 696              		.loc 2 207 0
 697 0090 BDF90C30 		ldrsh	r3, [sp, #12]
 698 0094 DB11     		asrs	r3, r3, #7
 699 0096 ADF80E30 		strh	r3, [sp, #14]	@ movhi
 700              		.loc 2 208 0
 701 009a BDF80C30 		ldrh	r3, [sp, #12]	@ movhi
 702 009e 03F07F03 		and	r3, r3, #127
 703 00a2 ADF81030 		strh	r3, [sp, #16]	@ movhi
 704              	.LBB6:
 705              		.loc 2 211 0
 706 00a6 BDF90E30 		ldrsh	r3, [sp, #14]
 707 00aa 1B4A     		ldr	r2, .L33+12
 708 00ac 32F91330 		ldrsh	r3, [r2, r3, lsl #1]
 709 00b0 1A46     		mov	r2, r3
 710 00b2 BDF91030 		ldrsh	r3, [sp, #16]
 711 00b6 C3F18003 		rsb	r3, r3, #128
 712 00ba 03FB02F2 		mul	r2, r3, r2
 713 00be BDF90E30 		ldrsh	r3, [sp, #14]
 714 00c2 0133     		adds	r3, r3, #1
 715 00c4 1449     		ldr	r1, .L33+12
 716 00c6 31F91330 		ldrsh	r3, [r1, r3, lsl #1]
 717 00ca 1946     		mov	r1, r3
 718 00cc BDF91030 		ldrsh	r3, [sp, #16]
 719 00d0 03FB01F3 		mul	r3, r3, r1
 720 00d4 1344     		add	r3, r3, r2
 721 00d6 DB11     		asrs	r3, r3, #7
 722 00d8 ADF81230 		strh	r3, [sp, #18]	@ movhi
 723              		.loc 2 213 0
 724 00dc BDF90A30 		ldrsh	r3, [sp, #10]
 725 00e0 002B     		cmp	r3, #0
 726 00e2 05D0     		beq	.L31
 727              		.loc 2 214 0
 728 00e4 BDF81230 		ldrh	r3, [sp, #18]
 729 00e8 5B42     		negs	r3, r3
 730 00ea 9BB2     		uxth	r3, r3
 731 00ec 1BB2     		sxth	r3, r3
 732 00ee 01E0     		b	.L26
 733              	.L31:
 734              		.loc 2 216 0
 735 00f0 BDF91230 		ldrsh	r3, [sp, #18]
 736              	.L26:
 737              	.LBE6:
 738              		.loc 2 218 0
 739 00f4 1846     		mov	r0, r3
 740 00f6 054B     		ldr	r3, .L33
 741 00f8 059A     		ldr	r2, [sp, #20]
ARM GAS  C:\Users\PCHAUT~1\AppData\Local\Temp\ccvICu2w.s 			page 14


 742 00fa 1B68     		ldr	r3, [r3]
 743 00fc 9A42     		cmp	r2, r3
 744 00fe 01D0     		beq	.L32
 745 0100 FFF7FEFF 		bl	__stack_chk_fail
 746              	.L32:
 747 0104 07B0     		add	sp, sp, #28
 748              		.cfi_def_cfa_offset 4
 749              		@ sp needed
 750 0106 5DF804FB 		ldr	pc, [sp], #4
 751              	.L34:
 752 010a 00BF     		.align	2
 753              	.L33:
 754 010c 00000000 		.word	__stack_chk_guard
 755 0110 0180FFFF 		.word	-32767
 756 0114 0080FFFF 		.word	-32768
 757 0118 00000000 		.word	aseba_sin_table
 758              		.cfi_endproc
 759              	.LFE2:
 760              		.size	aseba_sin, .-aseba_sin
 761              		.section	.text.aseba_cos,"ax",%progbits
 762              		.align	1
 763              		.p2align 4,,15
 764              		.global	aseba_cos
 765              		.syntax unified
 766              		.thumb
 767              		.thumb_func
 768              		.fpu fpv4-sp-d16
 769              		.type	aseba_cos, %function
 770              	aseba_cos:
 771              	.LFB3:
 772              		.loc 2 222 0
 773              		.cfi_startproc
 774              		@ args = 0, pretend = 0, frame = 16
 775              		@ frame_needed = 0, uses_anonymous_args = 0
 776 0000 00B5     		push	{lr}
 777              		.cfi_def_cfa_offset 4
 778              		.cfi_offset 14, -4
 779 0002 85B0     		sub	sp, sp, #20
 780              		.cfi_def_cfa_offset 24
 781 0004 0346     		mov	r3, r0
 782 0006 ADF80630 		strh	r3, [sp, #6]	@ movhi
 783              		.loc 2 222 0
 784 000a 0C4B     		ldr	r3, .L38
 785 000c 1B68     		ldr	r3, [r3]
 786 000e 0393     		str	r3, [sp, #12]
 787              		.loc 2 223 0
 788 0010 BDF80630 		ldrh	r3, [sp, #6]
 789 0014 03F58043 		add	r3, r3, #16384
 790 0018 9BB2     		uxth	r3, r3
 791 001a 1BB2     		sxth	r3, r3
 792 001c 1846     		mov	r0, r3
 793 001e FFF7FEFF 		bl	aseba_sin
 794 0022 0346     		mov	r3, r0
 795              		.loc 2 224 0
 796 0024 1846     		mov	r0, r3
 797 0026 054B     		ldr	r3, .L38
 798 0028 039A     		ldr	r2, [sp, #12]
ARM GAS  C:\Users\PCHAUT~1\AppData\Local\Temp\ccvICu2w.s 			page 15


 799 002a 1B68     		ldr	r3, [r3]
 800 002c 9A42     		cmp	r2, r3
 801 002e 01D0     		beq	.L37
 802 0030 FFF7FEFF 		bl	__stack_chk_fail
 803              	.L37:
 804 0034 05B0     		add	sp, sp, #20
 805              		.cfi_def_cfa_offset 4
 806              		@ sp needed
 807 0036 5DF804FB 		ldr	pc, [sp], #4
 808              	.L39:
 809 003a 00BF     		.align	2
 810              	.L38:
 811 003c 00000000 		.word	__stack_chk_guard
 812              		.cfi_endproc
 813              	.LFE3:
 814              		.size	aseba_cos, .-aseba_cos
 815              		.section	.text.aseba_sqrt,"ax",%progbits
 816              		.align	1
 817              		.p2align 4,,15
 818              		.global	aseba_sqrt
 819              		.syntax unified
 820              		.thumb
 821              		.thumb_func
 822              		.fpu fpv4-sp-d16
 823              		.type	aseba_sqrt, %function
 824              	aseba_sqrt:
 825              	.LFB4:
 826              		.loc 2 228 0
 827              		.cfi_startproc
 828              		@ args = 0, pretend = 0, frame = 24
 829              		@ frame_needed = 0, uses_anonymous_args = 0
 830 0000 00B5     		push	{lr}
 831              		.cfi_def_cfa_offset 4
 832              		.cfi_offset 14, -4
 833 0002 87B0     		sub	sp, sp, #28
 834              		.cfi_def_cfa_offset 32
 835 0004 0346     		mov	r3, r0
 836 0006 ADF80630 		strh	r3, [sp, #6]	@ movhi
 837              		.loc 2 228 0
 838 000a 2B4B     		ldr	r3, .L49
 839 000c 1B68     		ldr	r3, [r3]
 840 000e 0593     		str	r3, [sp, #20]
 841              		.loc 2 229 0
 842 0010 BDF80630 		ldrh	r3, [sp, #6]	@ movhi
 843 0014 ADF80E30 		strh	r3, [sp, #14]	@ movhi
 844              		.loc 2 230 0
 845 0018 0023     		movs	r3, #0
 846 001a ADF81030 		strh	r3, [sp, #16]	@ movhi
 847              		.loc 2 231 0
 848 001e 4FF48043 		mov	r3, #16384
 849 0022 ADF81230 		strh	r3, [sp, #18]	@ movhi
 850              		.loc 2 233 0
 851 0026 04E0     		b	.L41
 852              	.L42:
 853              		.loc 2 234 0
 854 0028 BDF91230 		ldrsh	r3, [sp, #18]
 855 002c 9B10     		asrs	r3, r3, #2
ARM GAS  C:\Users\PCHAUT~1\AppData\Local\Temp\ccvICu2w.s 			page 16


 856 002e ADF81230 		strh	r3, [sp, #18]	@ movhi
 857              	.L41:
 858              		.loc 2 233 0
 859 0032 BDF91220 		ldrsh	r2, [sp, #18]
 860 0036 BDF90E30 		ldrsh	r3, [sp, #14]
 861 003a 9A42     		cmp	r2, r3
 862 003c F4DC     		bgt	.L42
 863              		.loc 2 236 0
 864 003e 2AE0     		b	.L43
 865              	.L46:
 866              		.loc 2 238 0
 867 0040 BDF90E20 		ldrsh	r2, [sp, #14]
 868 0044 BDF91010 		ldrsh	r1, [sp, #16]
 869 0048 BDF91230 		ldrsh	r3, [sp, #18]
 870 004c 0B44     		add	r3, r3, r1
 871 004e 9A42     		cmp	r2, r3
 872 0050 17DB     		blt	.L44
 873              		.loc 2 240 0
 874 0052 BDF80E20 		ldrh	r2, [sp, #14]
 875 0056 BDF81010 		ldrh	r1, [sp, #16]
 876 005a BDF81230 		ldrh	r3, [sp, #18]
 877 005e 0B44     		add	r3, r3, r1
 878 0060 9BB2     		uxth	r3, r3
 879 0062 D31A     		subs	r3, r2, r3
 880 0064 9BB2     		uxth	r3, r3
 881 0066 ADF80E30 		strh	r3, [sp, #14]	@ movhi
 882              		.loc 2 241 0
 883 006a BDF91030 		ldrsh	r3, [sp, #16]
 884 006e 5B10     		asrs	r3, r3, #1
 885 0070 1BB2     		sxth	r3, r3
 886 0072 9AB2     		uxth	r2, r3
 887 0074 BDF81230 		ldrh	r3, [sp, #18]
 888 0078 1344     		add	r3, r3, r2
 889 007a 9BB2     		uxth	r3, r3
 890 007c ADF81030 		strh	r3, [sp, #16]	@ movhi
 891 0080 04E0     		b	.L45
 892              	.L44:
 893              		.loc 2 245 0
 894 0082 BDF91030 		ldrsh	r3, [sp, #16]
 895 0086 5B10     		asrs	r3, r3, #1
 896 0088 ADF81030 		strh	r3, [sp, #16]	@ movhi
 897              	.L45:
 898              		.loc 2 247 0
 899 008c BDF91230 		ldrsh	r3, [sp, #18]
 900 0090 9B10     		asrs	r3, r3, #2
 901 0092 ADF81230 		strh	r3, [sp, #18]	@ movhi
 902              	.L43:
 903              		.loc 2 236 0
 904 0096 BDF91230 		ldrsh	r3, [sp, #18]
 905 009a 002B     		cmp	r3, #0
 906 009c D0D1     		bne	.L46
 907              		.loc 2 249 0
 908 009e BDF91030 		ldrsh	r3, [sp, #16]
 909              		.loc 2 250 0
 910 00a2 1846     		mov	r0, r3
 911 00a4 044B     		ldr	r3, .L49
 912 00a6 059A     		ldr	r2, [sp, #20]
ARM GAS  C:\Users\PCHAUT~1\AppData\Local\Temp\ccvICu2w.s 			page 17


 913 00a8 1B68     		ldr	r3, [r3]
 914 00aa 9A42     		cmp	r2, r3
 915 00ac 01D0     		beq	.L48
 916 00ae FFF7FEFF 		bl	__stack_chk_fail
 917              	.L48:
 918 00b2 07B0     		add	sp, sp, #28
 919              		.cfi_def_cfa_offset 4
 920              		@ sp needed
 921 00b4 5DF804FB 		ldr	pc, [sp], #4
 922              	.L50:
 923              		.align	2
 924              	.L49:
 925 00b8 00000000 		.word	__stack_chk_guard
 926              		.cfi_endproc
 927              	.LFE4:
 928              		.size	aseba_sqrt, .-aseba_sqrt
 929              		.section	.text.aseba_comb_sort,"ax",%progbits
 930              		.align	1
 931              		.p2align 4,,15
 932              		.global	aseba_comb_sort
 933              		.syntax unified
 934              		.thumb
 935              		.thumb_func
 936              		.fpu fpv4-sp-d16
 937              		.type	aseba_comb_sort, %function
 938              	aseba_comb_sort:
 939              	.LFB5:
 940              		.loc 2 254 0
 941              		.cfi_startproc
 942              		@ args = 0, pretend = 0, frame = 24
 943              		@ frame_needed = 0, uses_anonymous_args = 0
 944 0000 00B5     		push	{lr}
 945              		.cfi_def_cfa_offset 4
 946              		.cfi_offset 14, -4
 947 0002 87B0     		sub	sp, sp, #28
 948              		.cfi_def_cfa_offset 32
 949 0004 0190     		str	r0, [sp, #4]
 950 0006 0B46     		mov	r3, r1
 951 0008 ADF80230 		strh	r3, [sp, #2]	@ movhi
 952              		.loc 2 254 0
 953 000c 3D4B     		ldr	r3, .L59
 954 000e 1B68     		ldr	r3, [r3]
 955 0010 0593     		str	r3, [sp, #20]
 956              		.loc 2 255 0
 957 0012 BDF80230 		ldrh	r3, [sp, #2]	@ movhi
 958 0016 ADF80C30 		strh	r3, [sp, #12]	@ movhi
 959              		.loc 2 256 0
 960 001a 0023     		movs	r3, #0
 961 001c ADF80E30 		strh	r3, [sp, #14]	@ movhi
 962              		.loc 2 259 0
 963 0020 5CE0     		b	.L52
 964              	.L57:
 965              		.loc 2 261 0
 966 0022 BDF80C30 		ldrh	r3, [sp, #12]
 967 0026 012B     		cmp	r3, #1
 968 0028 08D9     		bls	.L53
 969              		.loc 2 266 0
ARM GAS  C:\Users\PCHAUT~1\AppData\Local\Temp\ccvICu2w.s 			page 18


 970 002a BDF80C30 		ldrh	r3, [sp, #12]
 971 002e 9B00     		lsls	r3, r3, #2
 972 0030 354A     		ldr	r2, .L59+4
 973 0032 A2FB0323 		umull	r2, r3, r2, r3
 974 0036 9B08     		lsrs	r3, r3, #2
 975 0038 ADF80C30 		strh	r3, [sp, #12]	@ movhi
 976              	.L53:
 977              		.loc 2 270 0
 978 003c 0023     		movs	r3, #0
 979 003e ADF80E30 		strh	r3, [sp, #14]	@ movhi
 980              		.loc 2 272 0
 981 0042 0023     		movs	r3, #0
 982 0044 ADF81030 		strh	r3, [sp, #16]	@ movhi
 983 0048 3FE0     		b	.L54
 984              	.L56:
 985              		.loc 2 274 0
 986 004a BDF81030 		ldrh	r3, [sp, #16]
 987 004e 5B00     		lsls	r3, r3, #1
 988 0050 019A     		ldr	r2, [sp, #4]
 989 0052 1344     		add	r3, r3, r2
 990 0054 B3F90030 		ldrsh	r3, [r3]
 991 0058 1946     		mov	r1, r3
 992 005a BDF81020 		ldrh	r2, [sp, #16]
 993 005e BDF80C30 		ldrh	r3, [sp, #12]
 994 0062 1344     		add	r3, r3, r2
 995 0064 5B00     		lsls	r3, r3, #1
 996 0066 019A     		ldr	r2, [sp, #4]
 997 0068 1344     		add	r3, r3, r2
 998 006a B3F90030 		ldrsh	r3, [r3]
 999 006e CB1A     		subs	r3, r1, r3
 1000 0070 002B     		cmp	r3, #0
 1001 0072 25DD     		ble	.L55
 1002              	.LBB7:
 1003              		.loc 2 276 0
 1004 0074 BDF81030 		ldrh	r3, [sp, #16]
 1005 0078 5B00     		lsls	r3, r3, #1
 1006 007a 019A     		ldr	r2, [sp, #4]
 1007 007c 1344     		add	r3, r3, r2
 1008 007e 1B88     		ldrh	r3, [r3]	@ movhi
 1009 0080 ADF81230 		strh	r3, [sp, #18]	@ movhi
 1010              		.loc 2 277 0
 1011 0084 BDF81020 		ldrh	r2, [sp, #16]
 1012 0088 BDF80C30 		ldrh	r3, [sp, #12]
 1013 008c 1344     		add	r3, r3, r2
 1014 008e 5B00     		lsls	r3, r3, #1
 1015 0090 019A     		ldr	r2, [sp, #4]
 1016 0092 1A44     		add	r2, r2, r3
 1017 0094 BDF81030 		ldrh	r3, [sp, #16]
 1018 0098 5B00     		lsls	r3, r3, #1
 1019 009a 0199     		ldr	r1, [sp, #4]
 1020 009c 0B44     		add	r3, r3, r1
 1021 009e B2F90020 		ldrsh	r2, [r2]
 1022 00a2 1A80     		strh	r2, [r3]	@ movhi
 1023              		.loc 2 278 0
 1024 00a4 BDF81020 		ldrh	r2, [sp, #16]
 1025 00a8 BDF80C30 		ldrh	r3, [sp, #12]
 1026 00ac 1344     		add	r3, r3, r2
ARM GAS  C:\Users\PCHAUT~1\AppData\Local\Temp\ccvICu2w.s 			page 19


 1027 00ae 5B00     		lsls	r3, r3, #1
 1028 00b0 019A     		ldr	r2, [sp, #4]
 1029 00b2 1344     		add	r3, r3, r2
 1030 00b4 BDF81220 		ldrh	r2, [sp, #18]	@ movhi
 1031 00b8 1A80     		strh	r2, [r3]	@ movhi
 1032              		.loc 2 279 0
 1033 00ba 0123     		movs	r3, #1
 1034 00bc ADF80E30 		strh	r3, [sp, #14]	@ movhi
 1035              	.L55:
 1036              	.LBE7:
 1037              		.loc 2 272 0 discriminator 2
 1038 00c0 BDF81030 		ldrh	r3, [sp, #16]
 1039 00c4 0133     		adds	r3, r3, #1
 1040 00c6 ADF81030 		strh	r3, [sp, #16]	@ movhi
 1041              	.L54:
 1042              		.loc 2 272 0 is_stmt 0 discriminator 1
 1043 00ca BDF80C20 		ldrh	r2, [sp, #12]
 1044 00ce BDF81030 		ldrh	r3, [sp, #16]
 1045 00d2 1A44     		add	r2, r2, r3
 1046 00d4 BDF80230 		ldrh	r3, [sp, #2]
 1047 00d8 9A42     		cmp	r2, r3
 1048 00da B6DB     		blt	.L56
 1049              	.L52:
 1050              		.loc 2 259 0 is_stmt 1
 1051 00dc BDF80C30 		ldrh	r3, [sp, #12]
 1052 00e0 012B     		cmp	r3, #1
 1053 00e2 9ED8     		bhi	.L57
 1054              		.loc 2 259 0 is_stmt 0 discriminator 1
 1055 00e4 BDF80E30 		ldrh	r3, [sp, #14]
 1056 00e8 002B     		cmp	r3, #0
 1057 00ea 9AD1     		bne	.L57
 1058              		.loc 2 283 0 is_stmt 1
 1059 00ec 00BF     		nop
 1060 00ee 054B     		ldr	r3, .L59
 1061 00f0 059A     		ldr	r2, [sp, #20]
 1062 00f2 1B68     		ldr	r3, [r3]
 1063 00f4 9A42     		cmp	r2, r3
 1064 00f6 01D0     		beq	.L58
 1065 00f8 FFF7FEFF 		bl	__stack_chk_fail
 1066              	.L58:
 1067 00fc 07B0     		add	sp, sp, #28
 1068              		.cfi_def_cfa_offset 4
 1069              		@ sp needed
 1070 00fe 5DF804FB 		ldr	pc, [sp], #4
 1071              	.L60:
 1072 0102 00BF     		.align	2
 1073              	.L59:
 1074 0104 00000000 		.word	__stack_chk_guard
 1075 0108 CDCCCCCC 		.word	-858993459
 1076              		.cfi_endproc
 1077              	.LFE5:
 1078              		.size	aseba_comb_sort, .-aseba_comb_sort
 1079              		.section	.text.AsebaNative_veccopy,"ax",%progbits
 1080              		.align	1
 1081              		.p2align 4,,15
 1082              		.global	AsebaNative_veccopy
 1083              		.syntax unified
ARM GAS  C:\Users\PCHAUT~1\AppData\Local\Temp\ccvICu2w.s 			page 20


 1084              		.thumb
 1085              		.thumb_func
 1086              		.fpu fpv4-sp-d16
 1087              		.type	AsebaNative_veccopy, %function
 1088              	AsebaNative_veccopy:
 1089              	.LFB6:
 1090              		.loc 2 289 0
 1091              		.cfi_startproc
 1092              		@ args = 0, pretend = 0, frame = 24
 1093              		@ frame_needed = 0, uses_anonymous_args = 0
 1094 0000 00B5     		push	{lr}
 1095              		.cfi_def_cfa_offset 4
 1096              		.cfi_offset 14, -4
 1097 0002 87B0     		sub	sp, sp, #28
 1098              		.cfi_def_cfa_offset 32
 1099 0004 0190     		str	r0, [sp, #4]
 1100              		.loc 2 289 0
 1101 0006 224B     		ldr	r3, .L65
 1102 0008 1B68     		ldr	r3, [r3]
 1103 000a 0593     		str	r3, [sp, #20]
 1104              		.loc 2 291 0
 1105 000c 0198     		ldr	r0, [sp, #4]
 1106 000e FFF7FEFF 		bl	AsebaNativePopArg
 1107 0012 0346     		mov	r3, r0
 1108 0014 ADF80C30 		strh	r3, [sp, #12]	@ movhi
 1109              		.loc 2 292 0
 1110 0018 0198     		ldr	r0, [sp, #4]
 1111 001a FFF7FEFF 		bl	AsebaNativePopArg
 1112 001e 0346     		mov	r3, r0
 1113 0020 ADF80E30 		strh	r3, [sp, #14]	@ movhi
 1114              		.loc 2 295 0
 1115 0024 0198     		ldr	r0, [sp, #4]
 1116 0026 FFF7FEFF 		bl	AsebaNativePopArg
 1117 002a 0346     		mov	r3, r0
 1118 002c ADF81230 		strh	r3, [sp, #18]	@ movhi
 1119              		.loc 2 299 0
 1120 0030 0023     		movs	r3, #0
 1121 0032 ADF81030 		strh	r3, [sp, #16]	@ movhi
 1122 0036 19E0     		b	.L62
 1123              	.L63:
 1124              		.loc 2 301 0 discriminator 3
 1125 0038 019B     		ldr	r3, [sp, #4]
 1126 003a DA68     		ldr	r2, [r3, #12]
 1127 003c BDF80E30 		ldrh	r3, [sp, #14]
 1128 0040 591C     		adds	r1, r3, #1
 1129 0042 ADF80E10 		strh	r1, [sp, #14]	@ movhi
 1130 0046 5B00     		lsls	r3, r3, #1
 1131 0048 1A44     		add	r2, r2, r3
 1132 004a 019B     		ldr	r3, [sp, #4]
 1133 004c D968     		ldr	r1, [r3, #12]
 1134 004e BDF80C30 		ldrh	r3, [sp, #12]
 1135 0052 581C     		adds	r0, r3, #1
 1136 0054 ADF80C00 		strh	r0, [sp, #12]	@ movhi
 1137 0058 5B00     		lsls	r3, r3, #1
 1138 005a 0B44     		add	r3, r3, r1
 1139 005c B2F90020 		ldrsh	r2, [r2]
 1140 0060 1A80     		strh	r2, [r3]	@ movhi
ARM GAS  C:\Users\PCHAUT~1\AppData\Local\Temp\ccvICu2w.s 			page 21


 1141              		.loc 2 299 0 discriminator 3
 1142 0062 BDF81030 		ldrh	r3, [sp, #16]
 1143 0066 0133     		adds	r3, r3, #1
 1144 0068 ADF81030 		strh	r3, [sp, #16]	@ movhi
 1145              	.L62:
 1146              		.loc 2 299 0 is_stmt 0 discriminator 1
 1147 006c BDF81020 		ldrh	r2, [sp, #16]
 1148 0070 BDF81230 		ldrh	r3, [sp, #18]
 1149 0074 9A42     		cmp	r2, r3
 1150 0076 DFD3     		bcc	.L63
 1151              		.loc 2 303 0 is_stmt 1
 1152 0078 00BF     		nop
 1153 007a 054B     		ldr	r3, .L65
 1154 007c 059A     		ldr	r2, [sp, #20]
 1155 007e 1B68     		ldr	r3, [r3]
 1156 0080 9A42     		cmp	r2, r3
 1157 0082 01D0     		beq	.L64
 1158 0084 FFF7FEFF 		bl	__stack_chk_fail
 1159              	.L64:
 1160 0088 07B0     		add	sp, sp, #28
 1161              		.cfi_def_cfa_offset 4
 1162              		@ sp needed
 1163 008a 5DF804FB 		ldr	pc, [sp], #4
 1164              	.L66:
 1165 008e 00BF     		.align	2
 1166              	.L65:
 1167 0090 00000000 		.word	__stack_chk_guard
 1168              		.cfi_endproc
 1169              	.LFE6:
 1170              		.size	AsebaNative_veccopy, .-AsebaNative_veccopy
 1171              		.global	AsebaNativeDescription_veccopy
 1172              		.section	.rodata
 1173              		.align	2
 1174              	.LC0:
 1175 0000 6D617468 		.ascii	"math.copy\000"
 1175      2E636F70 
 1175      7900
 1176 000a 0000     		.align	2
 1177              	.LC1:
 1178 000c 636F7069 		.ascii	"copies src to dest element by element\000"
 1178      65732073 
 1178      72632074 
 1178      6F206465 
 1178      73742065 
 1179 0032 0000     		.align	2
 1180              	.LC2:
 1181 0034 64657374 		.ascii	"dest\000"
 1181      00
 1182 0039 000000   		.align	2
 1183              	.LC3:
 1184 003c 73726300 		.ascii	"src\000"
 1185              		.section	.rodata.AsebaNativeDescription_veccopy,"a",%progbits
 1186              		.align	2
 1187              		.type	AsebaNativeDescription_veccopy, %object
 1188              		.size	AsebaNativeDescription_veccopy, 32
 1189              	AsebaNativeDescription_veccopy:
 1190 0000 00000000 		.word	.LC0
ARM GAS  C:\Users\PCHAUT~1\AppData\Local\Temp\ccvICu2w.s 			page 22


 1191 0004 0C000000 		.word	.LC1
 1192 0008 FFFF     		.short	-1
 1193 000a 0000     		.space	2
 1194 000c 34000000 		.word	.LC2
 1195 0010 FFFF     		.short	-1
 1196 0012 0000     		.space	2
 1197 0014 3C000000 		.word	.LC3
 1198 0018 0000     		.short	0
 1199 001a 0000     		.space	2
 1200 001c 00000000 		.word	0
 1201              		.section	.text.AsebaNative_vecfill,"ax",%progbits
 1202              		.align	1
 1203              		.p2align 4,,15
 1204              		.global	AsebaNative_vecfill
 1205              		.syntax unified
 1206              		.thumb
 1207              		.thumb_func
 1208              		.fpu fpv4-sp-d16
 1209              		.type	AsebaNative_vecfill, %function
 1210              	AsebaNative_vecfill:
 1211              	.LFB7:
 1212              		.loc 2 318 0
 1213              		.cfi_startproc
 1214              		@ args = 0, pretend = 0, frame = 24
 1215              		@ frame_needed = 0, uses_anonymous_args = 0
 1216 0000 00B5     		push	{lr}
 1217              		.cfi_def_cfa_offset 4
 1218              		.cfi_offset 14, -4
 1219 0002 87B0     		sub	sp, sp, #28
 1220              		.cfi_def_cfa_offset 32
 1221 0004 0190     		str	r0, [sp, #4]
 1222              		.loc 2 318 0
 1223 0006 204B     		ldr	r3, .L71
 1224 0008 1B68     		ldr	r3, [r3]
 1225 000a 0593     		str	r3, [sp, #20]
 1226              		.loc 2 320 0
 1227 000c 0198     		ldr	r0, [sp, #4]
 1228 000e FFF7FEFF 		bl	AsebaNativePopArg
 1229 0012 0346     		mov	r3, r0
 1230 0014 ADF80C30 		strh	r3, [sp, #12]	@ movhi
 1231              		.loc 2 321 0
 1232 0018 0198     		ldr	r0, [sp, #4]
 1233 001a FFF7FEFF 		bl	AsebaNativePopArg
 1234 001e 0346     		mov	r3, r0
 1235 0020 ADF81030 		strh	r3, [sp, #16]	@ movhi
 1236              		.loc 2 324 0
 1237 0024 0198     		ldr	r0, [sp, #4]
 1238 0026 FFF7FEFF 		bl	AsebaNativePopArg
 1239 002a 0346     		mov	r3, r0
 1240 002c ADF81230 		strh	r3, [sp, #18]	@ movhi
 1241              		.loc 2 328 0
 1242 0030 0023     		movs	r3, #0
 1243 0032 ADF80E30 		strh	r3, [sp, #14]	@ movhi
 1244 0036 16E0     		b	.L68
 1245              	.L69:
 1246              		.loc 2 330 0 discriminator 3
 1247 0038 019B     		ldr	r3, [sp, #4]
ARM GAS  C:\Users\PCHAUT~1\AppData\Local\Temp\ccvICu2w.s 			page 23


 1248 003a DA68     		ldr	r2, [r3, #12]
 1249 003c BDF81030 		ldrh	r3, [sp, #16]
 1250 0040 5B00     		lsls	r3, r3, #1
 1251 0042 1A44     		add	r2, r2, r3
 1252 0044 019B     		ldr	r3, [sp, #4]
 1253 0046 D968     		ldr	r1, [r3, #12]
 1254 0048 BDF80C30 		ldrh	r3, [sp, #12]
 1255 004c 581C     		adds	r0, r3, #1
 1256 004e ADF80C00 		strh	r0, [sp, #12]	@ movhi
 1257 0052 5B00     		lsls	r3, r3, #1
 1258 0054 0B44     		add	r3, r3, r1
 1259 0056 B2F90020 		ldrsh	r2, [r2]
 1260 005a 1A80     		strh	r2, [r3]	@ movhi
 1261              		.loc 2 328 0 discriminator 3
 1262 005c BDF80E30 		ldrh	r3, [sp, #14]
 1263 0060 0133     		adds	r3, r3, #1
 1264 0062 ADF80E30 		strh	r3, [sp, #14]	@ movhi
 1265              	.L68:
 1266              		.loc 2 328 0 is_stmt 0 discriminator 1
 1267 0066 BDF80E20 		ldrh	r2, [sp, #14]
 1268 006a BDF81230 		ldrh	r3, [sp, #18]
 1269 006e 9A42     		cmp	r2, r3
 1270 0070 E2D3     		bcc	.L69
 1271              		.loc 2 332 0 is_stmt 1
 1272 0072 00BF     		nop
 1273 0074 044B     		ldr	r3, .L71
 1274 0076 059A     		ldr	r2, [sp, #20]
 1275 0078 1B68     		ldr	r3, [r3]
 1276 007a 9A42     		cmp	r2, r3
 1277 007c 01D0     		beq	.L70
 1278 007e FFF7FEFF 		bl	__stack_chk_fail
 1279              	.L70:
 1280 0082 07B0     		add	sp, sp, #28
 1281              		.cfi_def_cfa_offset 4
 1282              		@ sp needed
 1283 0084 5DF804FB 		ldr	pc, [sp], #4
 1284              	.L72:
 1285              		.align	2
 1286              	.L71:
 1287 0088 00000000 		.word	__stack_chk_guard
 1288              		.cfi_endproc
 1289              	.LFE7:
 1290              		.size	AsebaNative_vecfill, .-AsebaNative_vecfill
 1291              		.global	AsebaNativeDescription_vecfill
 1292              		.section	.rodata
 1293              		.align	2
 1294              	.LC4:
 1295 0040 6D617468 		.ascii	"math.fill\000"
 1295      2E66696C 
 1295      6C00
 1296 004a 0000     		.align	2
 1297              	.LC5:
 1298 004c 66696C6C 		.ascii	"fills dest with constant value\000"
 1298      73206465 
 1298      73742077 
 1298      69746820 
 1298      636F6E73 
ARM GAS  C:\Users\PCHAUT~1\AppData\Local\Temp\ccvICu2w.s 			page 24


 1299 006b 00       		.align	2
 1300              	.LC6:
 1301 006c 76616C75 		.ascii	"value\000"
 1301      6500
 1302              		.section	.rodata.AsebaNativeDescription_vecfill,"a",%progbits
 1303              		.align	2
 1304              		.type	AsebaNativeDescription_vecfill, %object
 1305              		.size	AsebaNativeDescription_vecfill, 32
 1306              	AsebaNativeDescription_vecfill:
 1307 0000 40000000 		.word	.LC4
 1308 0004 4C000000 		.word	.LC5
 1309 0008 FFFF     		.short	-1
 1310 000a 0000     		.space	2
 1311 000c 34000000 		.word	.LC2
 1312 0010 0100     		.short	1
 1313 0012 0000     		.space	2
 1314 0014 6C000000 		.word	.LC6
 1315 0018 0000     		.short	0
 1316 001a 0000     		.space	2
 1317 001c 00000000 		.word	0
 1318              		.section	.text.AsebaNative_vecaddscalar,"ax",%progbits
 1319              		.align	1
 1320              		.p2align 4,,15
 1321              		.global	AsebaNative_vecaddscalar
 1322              		.syntax unified
 1323              		.thumb
 1324              		.thumb_func
 1325              		.fpu fpv4-sp-d16
 1326              		.type	AsebaNative_vecaddscalar, %function
 1327              	AsebaNative_vecaddscalar:
 1328              	.LFB8:
 1329              		.loc 2 347 0
 1330              		.cfi_startproc
 1331              		@ args = 0, pretend = 0, frame = 24
 1332              		@ frame_needed = 0, uses_anonymous_args = 0
 1333 0000 00B5     		push	{lr}
 1334              		.cfi_def_cfa_offset 4
 1335              		.cfi_offset 14, -4
 1336 0002 87B0     		sub	sp, sp, #28
 1337              		.cfi_def_cfa_offset 32
 1338 0004 0190     		str	r0, [sp, #4]
 1339              		.loc 2 347 0
 1340 0006 2C4B     		ldr	r3, .L77
 1341 0008 1B68     		ldr	r3, [r3]
 1342 000a 0593     		str	r3, [sp, #20]
 1343              		.loc 2 349 0
 1344 000c 0198     		ldr	r0, [sp, #4]
 1345 000e FFF7FEFF 		bl	AsebaNativePopArg
 1346 0012 0346     		mov	r3, r0
 1347 0014 ADF80830 		strh	r3, [sp, #8]	@ movhi
 1348              		.loc 2 350 0
 1349 0018 0198     		ldr	r0, [sp, #4]
 1350 001a FFF7FEFF 		bl	AsebaNativePopArg
 1351 001e 0346     		mov	r3, r0
 1352 0020 ADF80A30 		strh	r3, [sp, #10]	@ movhi
 1353              		.loc 2 351 0
 1354 0024 0198     		ldr	r0, [sp, #4]
ARM GAS  C:\Users\PCHAUT~1\AppData\Local\Temp\ccvICu2w.s 			page 25


 1355 0026 FFF7FEFF 		bl	AsebaNativePopArg
 1356 002a 0346     		mov	r3, r0
 1357 002c ADF80E30 		strh	r3, [sp, #14]	@ movhi
 1358              		.loc 2 354 0
 1359 0030 0198     		ldr	r0, [sp, #4]
 1360 0032 FFF7FEFF 		bl	AsebaNativePopArg
 1361 0036 0346     		mov	r3, r0
 1362 0038 ADF81030 		strh	r3, [sp, #16]	@ movhi
 1363              		.loc 2 356 0
 1364 003c 019B     		ldr	r3, [sp, #4]
 1365 003e DA68     		ldr	r2, [r3, #12]
 1366 0040 BDF80E30 		ldrh	r3, [sp, #14]
 1367 0044 5B00     		lsls	r3, r3, #1
 1368 0046 1344     		add	r3, r3, r2
 1369 0048 1B88     		ldrh	r3, [r3]	@ movhi
 1370 004a ADF81230 		strh	r3, [sp, #18]	@ movhi
 1371              		.loc 2 358 0
 1372 004e 0023     		movs	r3, #0
 1373 0050 ADF80C30 		strh	r3, [sp, #12]	@ movhi
 1374 0054 1FE0     		b	.L74
 1375              	.L75:
 1376              		.loc 2 360 0 discriminator 3
 1377 0056 019B     		ldr	r3, [sp, #4]
 1378 0058 DA68     		ldr	r2, [r3, #12]
 1379 005a BDF80A30 		ldrh	r3, [sp, #10]
 1380 005e 591C     		adds	r1, r3, #1
 1381 0060 ADF80A10 		strh	r1, [sp, #10]	@ movhi
 1382 0064 5B00     		lsls	r3, r3, #1
 1383 0066 1344     		add	r3, r3, r2
 1384 0068 B3F90030 		ldrsh	r3, [r3]
 1385 006c 9AB2     		uxth	r2, r3
 1386 006e BDF81230 		ldrh	r3, [sp, #18]
 1387 0072 1344     		add	r3, r3, r2
 1388 0074 99B2     		uxth	r1, r3
 1389 0076 019B     		ldr	r3, [sp, #4]
 1390 0078 DA68     		ldr	r2, [r3, #12]
 1391 007a BDF80830 		ldrh	r3, [sp, #8]
 1392 007e 581C     		adds	r0, r3, #1
 1393 0080 ADF80800 		strh	r0, [sp, #8]	@ movhi
 1394 0084 5B00     		lsls	r3, r3, #1
 1395 0086 1344     		add	r3, r3, r2
 1396 0088 0AB2     		sxth	r2, r1
 1397 008a 1A80     		strh	r2, [r3]	@ movhi
 1398              		.loc 2 358 0 discriminator 3
 1399 008c BDF80C30 		ldrh	r3, [sp, #12]
 1400 0090 0133     		adds	r3, r3, #1
 1401 0092 ADF80C30 		strh	r3, [sp, #12]	@ movhi
 1402              	.L74:
 1403              		.loc 2 358 0 is_stmt 0 discriminator 1
 1404 0096 BDF80C20 		ldrh	r2, [sp, #12]
 1405 009a BDF81030 		ldrh	r3, [sp, #16]
 1406 009e 9A42     		cmp	r2, r3
 1407 00a0 D9D3     		bcc	.L75
 1408              		.loc 2 362 0 is_stmt 1
 1409 00a2 00BF     		nop
 1410 00a4 044B     		ldr	r3, .L77
 1411 00a6 059A     		ldr	r2, [sp, #20]
ARM GAS  C:\Users\PCHAUT~1\AppData\Local\Temp\ccvICu2w.s 			page 26


 1412 00a8 1B68     		ldr	r3, [r3]
 1413 00aa 9A42     		cmp	r2, r3
 1414 00ac 01D0     		beq	.L76
 1415 00ae FFF7FEFF 		bl	__stack_chk_fail
 1416              	.L76:
 1417 00b2 07B0     		add	sp, sp, #28
 1418              		.cfi_def_cfa_offset 4
 1419              		@ sp needed
 1420 00b4 5DF804FB 		ldr	pc, [sp], #4
 1421              	.L78:
 1422              		.align	2
 1423              	.L77:
 1424 00b8 00000000 		.word	__stack_chk_guard
 1425              		.cfi_endproc
 1426              	.LFE8:
 1427              		.size	AsebaNative_vecaddscalar, .-AsebaNative_vecaddscalar
 1428              		.global	AsebaNativeDescription_vecaddscalar
 1429              		.section	.rodata
 1430 0072 0000     		.align	2
 1431              	.LC7:
 1432 0074 6D617468 		.ascii	"math.addscalar\000"
 1432      2E616464 
 1432      7363616C 
 1432      617200
 1433 0083 00       		.align	2
 1434              	.LC8:
 1435 0084 61646420 		.ascii	"add scalar to each element of src and store result "
 1435      7363616C 
 1435      61722074 
 1435      6F206561 
 1435      63682065 
 1436 00b7 746F2064 		.ascii	"to dest\000"
 1436      65737400 
 1437 00bf 00       		.align	2
 1438              	.LC9:
 1439 00c0 7363616C 		.ascii	"scalar\000"
 1439      617200
 1440              		.section	.rodata.AsebaNativeDescription_vecaddscalar,"a",%progbits
 1441              		.align	2
 1442              		.type	AsebaNativeDescription_vecaddscalar, %object
 1443              		.size	AsebaNativeDescription_vecaddscalar, 40
 1444              	AsebaNativeDescription_vecaddscalar:
 1445 0000 74000000 		.word	.LC7
 1446 0004 84000000 		.word	.LC8
 1447 0008 FFFF     		.short	-1
 1448 000a 0000     		.space	2
 1449 000c 34000000 		.word	.LC2
 1450 0010 FFFF     		.short	-1
 1451 0012 0000     		.space	2
 1452 0014 3C000000 		.word	.LC3
 1453 0018 0100     		.short	1
 1454 001a 0000     		.space	2
 1455 001c C0000000 		.word	.LC9
 1456 0020 0000     		.short	0
 1457 0022 0000     		.space	2
 1458 0024 00000000 		.word	0
 1459              		.section	.text.AsebaNative_vecadd,"ax",%progbits
ARM GAS  C:\Users\PCHAUT~1\AppData\Local\Temp\ccvICu2w.s 			page 27


 1460              		.align	1
 1461              		.p2align 4,,15
 1462              		.global	AsebaNative_vecadd
 1463              		.syntax unified
 1464              		.thumb
 1465              		.thumb_func
 1466              		.fpu fpv4-sp-d16
 1467              		.type	AsebaNative_vecadd, %function
 1468              	AsebaNative_vecadd:
 1469              	.LFB9:
 1470              		.loc 2 378 0
 1471              		.cfi_startproc
 1472              		@ args = 0, pretend = 0, frame = 24
 1473              		@ frame_needed = 0, uses_anonymous_args = 0
 1474 0000 00B5     		push	{lr}
 1475              		.cfi_def_cfa_offset 4
 1476              		.cfi_offset 14, -4
 1477 0002 87B0     		sub	sp, sp, #28
 1478              		.cfi_def_cfa_offset 32
 1479 0004 0190     		str	r0, [sp, #4]
 1480              		.loc 2 378 0
 1481 0006 2D4B     		ldr	r3, .L83
 1482 0008 1B68     		ldr	r3, [r3]
 1483 000a 0593     		str	r3, [sp, #20]
 1484              		.loc 2 380 0
 1485 000c 0198     		ldr	r0, [sp, #4]
 1486 000e FFF7FEFF 		bl	AsebaNativePopArg
 1487 0012 0346     		mov	r3, r0
 1488 0014 ADF80A30 		strh	r3, [sp, #10]	@ movhi
 1489              		.loc 2 381 0
 1490 0018 0198     		ldr	r0, [sp, #4]
 1491 001a FFF7FEFF 		bl	AsebaNativePopArg
 1492 001e 0346     		mov	r3, r0
 1493 0020 ADF80C30 		strh	r3, [sp, #12]	@ movhi
 1494              		.loc 2 382 0
 1495 0024 0198     		ldr	r0, [sp, #4]
 1496 0026 FFF7FEFF 		bl	AsebaNativePopArg
 1497 002a 0346     		mov	r3, r0
 1498 002c ADF80E30 		strh	r3, [sp, #14]	@ movhi
 1499              		.loc 2 385 0
 1500 0030 0198     		ldr	r0, [sp, #4]
 1501 0032 FFF7FEFF 		bl	AsebaNativePopArg
 1502 0036 0346     		mov	r3, r0
 1503 0038 ADF81230 		strh	r3, [sp, #18]	@ movhi
 1504              		.loc 2 388 0
 1505 003c 0023     		movs	r3, #0
 1506 003e ADF81030 		strh	r3, [sp, #16]	@ movhi
 1507 0042 29E0     		b	.L80
 1508              	.L81:
 1509              		.loc 2 390 0 discriminator 3
 1510 0044 019B     		ldr	r3, [sp, #4]
 1511 0046 DA68     		ldr	r2, [r3, #12]
 1512 0048 BDF80C30 		ldrh	r3, [sp, #12]
 1513 004c 591C     		adds	r1, r3, #1
 1514 004e ADF80C10 		strh	r1, [sp, #12]	@ movhi
 1515 0052 5B00     		lsls	r3, r3, #1
 1516 0054 1344     		add	r3, r3, r2
ARM GAS  C:\Users\PCHAUT~1\AppData\Local\Temp\ccvICu2w.s 			page 28


 1517 0056 B3F90030 		ldrsh	r3, [r3]
 1518 005a 9AB2     		uxth	r2, r3
 1519 005c 019B     		ldr	r3, [sp, #4]
 1520 005e D968     		ldr	r1, [r3, #12]
 1521 0060 BDF80E30 		ldrh	r3, [sp, #14]
 1522 0064 581C     		adds	r0, r3, #1
 1523 0066 ADF80E00 		strh	r0, [sp, #14]	@ movhi
 1524 006a 5B00     		lsls	r3, r3, #1
 1525 006c 0B44     		add	r3, r3, r1
 1526 006e B3F90030 		ldrsh	r3, [r3]
 1527 0072 9BB2     		uxth	r3, r3
 1528 0074 1344     		add	r3, r3, r2
 1529 0076 99B2     		uxth	r1, r3
 1530 0078 019B     		ldr	r3, [sp, #4]
 1531 007a DA68     		ldr	r2, [r3, #12]
 1532 007c BDF80A30 		ldrh	r3, [sp, #10]
 1533 0080 581C     		adds	r0, r3, #1
 1534 0082 ADF80A00 		strh	r0, [sp, #10]	@ movhi
 1535 0086 5B00     		lsls	r3, r3, #1
 1536 0088 1344     		add	r3, r3, r2
 1537 008a 0AB2     		sxth	r2, r1
 1538 008c 1A80     		strh	r2, [r3]	@ movhi
 1539              		.loc 2 388 0 discriminator 3
 1540 008e BDF81030 		ldrh	r3, [sp, #16]
 1541 0092 0133     		adds	r3, r3, #1
 1542 0094 ADF81030 		strh	r3, [sp, #16]	@ movhi
 1543              	.L80:
 1544              		.loc 2 388 0 is_stmt 0 discriminator 1
 1545 0098 BDF81020 		ldrh	r2, [sp, #16]
 1546 009c BDF81230 		ldrh	r3, [sp, #18]
 1547 00a0 9A42     		cmp	r2, r3
 1548 00a2 CFD3     		bcc	.L81
 1549              		.loc 2 392 0 is_stmt 1
 1550 00a4 00BF     		nop
 1551 00a6 054B     		ldr	r3, .L83
 1552 00a8 059A     		ldr	r2, [sp, #20]
 1553 00aa 1B68     		ldr	r3, [r3]
 1554 00ac 9A42     		cmp	r2, r3
 1555 00ae 01D0     		beq	.L82
 1556 00b0 FFF7FEFF 		bl	__stack_chk_fail
 1557              	.L82:
 1558 00b4 07B0     		add	sp, sp, #28
 1559              		.cfi_def_cfa_offset 4
 1560              		@ sp needed
 1561 00b6 5DF804FB 		ldr	pc, [sp], #4
 1562              	.L84:
 1563 00ba 00BF     		.align	2
 1564              	.L83:
 1565 00bc 00000000 		.word	__stack_chk_guard
 1566              		.cfi_endproc
 1567              	.LFE9:
 1568              		.size	AsebaNative_vecadd, .-AsebaNative_vecadd
 1569              		.global	AsebaNativeDescription_vecadd
 1570              		.section	.rodata
 1571 00c7 00       		.align	2
 1572              	.LC10:
 1573 00c8 6D617468 		.ascii	"math.add\000"
ARM GAS  C:\Users\PCHAUT~1\AppData\Local\Temp\ccvICu2w.s 			page 29


 1573      2E616464 
 1573      00
 1574 00d1 000000   		.align	2
 1575              	.LC11:
 1576 00d4 61646473 		.ascii	"adds src1 and src2 to dest, element by element\000"
 1576      20737263 
 1576      3120616E 
 1576      64207372 
 1576      63322074 
 1577 0103 00       		.align	2
 1578              	.LC12:
 1579 0104 73726331 		.ascii	"src1\000"
 1579      00
 1580 0109 000000   		.align	2
 1581              	.LC13:
 1582 010c 73726332 		.ascii	"src2\000"
 1582      00
 1583              		.section	.rodata.AsebaNativeDescription_vecadd,"a",%progbits
 1584              		.align	2
 1585              		.type	AsebaNativeDescription_vecadd, %object
 1586              		.size	AsebaNativeDescription_vecadd, 40
 1587              	AsebaNativeDescription_vecadd:
 1588 0000 C8000000 		.word	.LC10
 1589 0004 D4000000 		.word	.LC11
 1590 0008 FFFF     		.short	-1
 1591 000a 0000     		.space	2
 1592 000c 34000000 		.word	.LC2
 1593 0010 FFFF     		.short	-1
 1594 0012 0000     		.space	2
 1595 0014 04010000 		.word	.LC12
 1596 0018 FFFF     		.short	-1
 1597 001a 0000     		.space	2
 1598 001c 0C010000 		.word	.LC13
 1599 0020 0000     		.short	0
 1600 0022 0000     		.space	2
 1601 0024 00000000 		.word	0
 1602              		.section	.text.AsebaNative_vecsub,"ax",%progbits
 1603              		.align	1
 1604              		.p2align 4,,15
 1605              		.global	AsebaNative_vecsub
 1606              		.syntax unified
 1607              		.thumb
 1608              		.thumb_func
 1609              		.fpu fpv4-sp-d16
 1610              		.type	AsebaNative_vecsub, %function
 1611              	AsebaNative_vecsub:
 1612              	.LFB10:
 1613              		.loc 2 408 0
 1614              		.cfi_startproc
 1615              		@ args = 0, pretend = 0, frame = 24
 1616              		@ frame_needed = 0, uses_anonymous_args = 0
 1617 0000 00B5     		push	{lr}
 1618              		.cfi_def_cfa_offset 4
 1619              		.cfi_offset 14, -4
 1620 0002 87B0     		sub	sp, sp, #28
 1621              		.cfi_def_cfa_offset 32
 1622 0004 0190     		str	r0, [sp, #4]
ARM GAS  C:\Users\PCHAUT~1\AppData\Local\Temp\ccvICu2w.s 			page 30


 1623              		.loc 2 408 0
 1624 0006 2D4B     		ldr	r3, .L89
 1625 0008 1B68     		ldr	r3, [r3]
 1626 000a 0593     		str	r3, [sp, #20]
 1627              		.loc 2 410 0
 1628 000c 0198     		ldr	r0, [sp, #4]
 1629 000e FFF7FEFF 		bl	AsebaNativePopArg
 1630 0012 0346     		mov	r3, r0
 1631 0014 ADF80A30 		strh	r3, [sp, #10]	@ movhi
 1632              		.loc 2 411 0
 1633 0018 0198     		ldr	r0, [sp, #4]
 1634 001a FFF7FEFF 		bl	AsebaNativePopArg
 1635 001e 0346     		mov	r3, r0
 1636 0020 ADF80C30 		strh	r3, [sp, #12]	@ movhi
 1637              		.loc 2 412 0
 1638 0024 0198     		ldr	r0, [sp, #4]
 1639 0026 FFF7FEFF 		bl	AsebaNativePopArg
 1640 002a 0346     		mov	r3, r0
 1641 002c ADF80E30 		strh	r3, [sp, #14]	@ movhi
 1642              		.loc 2 415 0
 1643 0030 0198     		ldr	r0, [sp, #4]
 1644 0032 FFF7FEFF 		bl	AsebaNativePopArg
 1645 0036 0346     		mov	r3, r0
 1646 0038 ADF81230 		strh	r3, [sp, #18]	@ movhi
 1647              		.loc 2 418 0
 1648 003c 0023     		movs	r3, #0
 1649 003e ADF81030 		strh	r3, [sp, #16]	@ movhi
 1650 0042 29E0     		b	.L86
 1651              	.L87:
 1652              		.loc 2 420 0 discriminator 3
 1653 0044 019B     		ldr	r3, [sp, #4]
 1654 0046 DA68     		ldr	r2, [r3, #12]
 1655 0048 BDF80C30 		ldrh	r3, [sp, #12]
 1656 004c 591C     		adds	r1, r3, #1
 1657 004e ADF80C10 		strh	r1, [sp, #12]	@ movhi
 1658 0052 5B00     		lsls	r3, r3, #1
 1659 0054 1344     		add	r3, r3, r2
 1660 0056 B3F90030 		ldrsh	r3, [r3]
 1661 005a 9AB2     		uxth	r2, r3
 1662 005c 019B     		ldr	r3, [sp, #4]
 1663 005e D968     		ldr	r1, [r3, #12]
 1664 0060 BDF80E30 		ldrh	r3, [sp, #14]
 1665 0064 581C     		adds	r0, r3, #1
 1666 0066 ADF80E00 		strh	r0, [sp, #14]	@ movhi
 1667 006a 5B00     		lsls	r3, r3, #1
 1668 006c 0B44     		add	r3, r3, r1
 1669 006e B3F90030 		ldrsh	r3, [r3]
 1670 0072 9BB2     		uxth	r3, r3
 1671 0074 D31A     		subs	r3, r2, r3
 1672 0076 99B2     		uxth	r1, r3
 1673 0078 019B     		ldr	r3, [sp, #4]
 1674 007a DA68     		ldr	r2, [r3, #12]
 1675 007c BDF80A30 		ldrh	r3, [sp, #10]
 1676 0080 581C     		adds	r0, r3, #1
 1677 0082 ADF80A00 		strh	r0, [sp, #10]	@ movhi
 1678 0086 5B00     		lsls	r3, r3, #1
 1679 0088 1344     		add	r3, r3, r2
ARM GAS  C:\Users\PCHAUT~1\AppData\Local\Temp\ccvICu2w.s 			page 31


 1680 008a 0AB2     		sxth	r2, r1
 1681 008c 1A80     		strh	r2, [r3]	@ movhi
 1682              		.loc 2 418 0 discriminator 3
 1683 008e BDF81030 		ldrh	r3, [sp, #16]
 1684 0092 0133     		adds	r3, r3, #1
 1685 0094 ADF81030 		strh	r3, [sp, #16]	@ movhi
 1686              	.L86:
 1687              		.loc 2 418 0 is_stmt 0 discriminator 1
 1688 0098 BDF81020 		ldrh	r2, [sp, #16]
 1689 009c BDF81230 		ldrh	r3, [sp, #18]
 1690 00a0 9A42     		cmp	r2, r3
 1691 00a2 CFD3     		bcc	.L87
 1692              		.loc 2 422 0 is_stmt 1
 1693 00a4 00BF     		nop
 1694 00a6 054B     		ldr	r3, .L89
 1695 00a8 059A     		ldr	r2, [sp, #20]
 1696 00aa 1B68     		ldr	r3, [r3]
 1697 00ac 9A42     		cmp	r2, r3
 1698 00ae 01D0     		beq	.L88
 1699 00b0 FFF7FEFF 		bl	__stack_chk_fail
 1700              	.L88:
 1701 00b4 07B0     		add	sp, sp, #28
 1702              		.cfi_def_cfa_offset 4
 1703              		@ sp needed
 1704 00b6 5DF804FB 		ldr	pc, [sp], #4
 1705              	.L90:
 1706 00ba 00BF     		.align	2
 1707              	.L89:
 1708 00bc 00000000 		.word	__stack_chk_guard
 1709              		.cfi_endproc
 1710              	.LFE10:
 1711              		.size	AsebaNative_vecsub, .-AsebaNative_vecsub
 1712              		.global	AsebaNativeDescription_vecsub
 1713              		.section	.rodata
 1714 0111 000000   		.align	2
 1715              	.LC14:
 1716 0114 6D617468 		.ascii	"math.sub\000"
 1716      2E737562 
 1716      00
 1717 011d 000000   		.align	2
 1718              	.LC15:
 1719 0120 73756273 		.ascii	"substracts src2 from src1 to dest, element by eleme"
 1719      74726163 
 1719      74732073 
 1719      72633220 
 1719      66726F6D 
 1720 0153 6E7400   		.ascii	"nt\000"
 1721              		.section	.rodata.AsebaNativeDescription_vecsub,"a",%progbits
 1722              		.align	2
 1723              		.type	AsebaNativeDescription_vecsub, %object
 1724              		.size	AsebaNativeDescription_vecsub, 40
 1725              	AsebaNativeDescription_vecsub:
 1726 0000 14010000 		.word	.LC14
 1727 0004 20010000 		.word	.LC15
 1728 0008 FFFF     		.short	-1
 1729 000a 0000     		.space	2
 1730 000c 34000000 		.word	.LC2
ARM GAS  C:\Users\PCHAUT~1\AppData\Local\Temp\ccvICu2w.s 			page 32


 1731 0010 FFFF     		.short	-1
 1732 0012 0000     		.space	2
 1733 0014 04010000 		.word	.LC12
 1734 0018 FFFF     		.short	-1
 1735 001a 0000     		.space	2
 1736 001c 0C010000 		.word	.LC13
 1737 0020 0000     		.short	0
 1738 0022 0000     		.space	2
 1739 0024 00000000 		.word	0
 1740              		.section	.text.AsebaNative_vecmul,"ax",%progbits
 1741              		.align	1
 1742              		.p2align 4,,15
 1743              		.global	AsebaNative_vecmul
 1744              		.syntax unified
 1745              		.thumb
 1746              		.thumb_func
 1747              		.fpu fpv4-sp-d16
 1748              		.type	AsebaNative_vecmul, %function
 1749              	AsebaNative_vecmul:
 1750              	.LFB11:
 1751              		.loc 2 438 0
 1752              		.cfi_startproc
 1753              		@ args = 0, pretend = 0, frame = 24
 1754              		@ frame_needed = 0, uses_anonymous_args = 0
 1755 0000 00B5     		push	{lr}
 1756              		.cfi_def_cfa_offset 4
 1757              		.cfi_offset 14, -4
 1758 0002 87B0     		sub	sp, sp, #28
 1759              		.cfi_def_cfa_offset 32
 1760 0004 0190     		str	r0, [sp, #4]
 1761              		.loc 2 438 0
 1762 0006 2D4B     		ldr	r3, .L95
 1763 0008 1B68     		ldr	r3, [r3]
 1764 000a 0593     		str	r3, [sp, #20]
 1765              		.loc 2 440 0
 1766 000c 0198     		ldr	r0, [sp, #4]
 1767 000e FFF7FEFF 		bl	AsebaNativePopArg
 1768 0012 0346     		mov	r3, r0
 1769 0014 ADF80A30 		strh	r3, [sp, #10]	@ movhi
 1770              		.loc 2 441 0
 1771 0018 0198     		ldr	r0, [sp, #4]
 1772 001a FFF7FEFF 		bl	AsebaNativePopArg
 1773 001e 0346     		mov	r3, r0
 1774 0020 ADF80C30 		strh	r3, [sp, #12]	@ movhi
 1775              		.loc 2 442 0
 1776 0024 0198     		ldr	r0, [sp, #4]
 1777 0026 FFF7FEFF 		bl	AsebaNativePopArg
 1778 002a 0346     		mov	r3, r0
 1779 002c ADF80E30 		strh	r3, [sp, #14]	@ movhi
 1780              		.loc 2 445 0
 1781 0030 0198     		ldr	r0, [sp, #4]
 1782 0032 FFF7FEFF 		bl	AsebaNativePopArg
 1783 0036 0346     		mov	r3, r0
 1784 0038 ADF81230 		strh	r3, [sp, #18]	@ movhi
 1785              		.loc 2 448 0
 1786 003c 0023     		movs	r3, #0
 1787 003e ADF81030 		strh	r3, [sp, #16]	@ movhi
ARM GAS  C:\Users\PCHAUT~1\AppData\Local\Temp\ccvICu2w.s 			page 33


 1788 0042 2AE0     		b	.L92
 1789              	.L93:
 1790              		.loc 2 450 0 discriminator 3
 1791 0044 019B     		ldr	r3, [sp, #4]
 1792 0046 DA68     		ldr	r2, [r3, #12]
 1793 0048 BDF80C30 		ldrh	r3, [sp, #12]
 1794 004c 591C     		adds	r1, r3, #1
 1795 004e ADF80C10 		strh	r1, [sp, #12]	@ movhi
 1796 0052 5B00     		lsls	r3, r3, #1
 1797 0054 1344     		add	r3, r3, r2
 1798 0056 B3F90030 		ldrsh	r3, [r3]
 1799 005a 9AB2     		uxth	r2, r3
 1800 005c 019B     		ldr	r3, [sp, #4]
 1801 005e D968     		ldr	r1, [r3, #12]
 1802 0060 BDF80E30 		ldrh	r3, [sp, #14]
 1803 0064 581C     		adds	r0, r3, #1
 1804 0066 ADF80E00 		strh	r0, [sp, #14]	@ movhi
 1805 006a 5B00     		lsls	r3, r3, #1
 1806 006c 0B44     		add	r3, r3, r1
 1807 006e B3F90030 		ldrsh	r3, [r3]
 1808 0072 9BB2     		uxth	r3, r3
 1809 0074 12FB03F3 		smulbb	r3, r2, r3
 1810 0078 99B2     		uxth	r1, r3
 1811 007a 019B     		ldr	r3, [sp, #4]
 1812 007c DA68     		ldr	r2, [r3, #12]
 1813 007e BDF80A30 		ldrh	r3, [sp, #10]
 1814 0082 581C     		adds	r0, r3, #1
 1815 0084 ADF80A00 		strh	r0, [sp, #10]	@ movhi
 1816 0088 5B00     		lsls	r3, r3, #1
 1817 008a 1344     		add	r3, r3, r2
 1818 008c 0AB2     		sxth	r2, r1
 1819 008e 1A80     		strh	r2, [r3]	@ movhi
 1820              		.loc 2 448 0 discriminator 3
 1821 0090 BDF81030 		ldrh	r3, [sp, #16]
 1822 0094 0133     		adds	r3, r3, #1
 1823 0096 ADF81030 		strh	r3, [sp, #16]	@ movhi
 1824              	.L92:
 1825              		.loc 2 448 0 is_stmt 0 discriminator 1
 1826 009a BDF81020 		ldrh	r2, [sp, #16]
 1827 009e BDF81230 		ldrh	r3, [sp, #18]
 1828 00a2 9A42     		cmp	r2, r3
 1829 00a4 CED3     		bcc	.L93
 1830              		.loc 2 452 0 is_stmt 1
 1831 00a6 00BF     		nop
 1832 00a8 044B     		ldr	r3, .L95
 1833 00aa 059A     		ldr	r2, [sp, #20]
 1834 00ac 1B68     		ldr	r3, [r3]
 1835 00ae 9A42     		cmp	r2, r3
 1836 00b0 01D0     		beq	.L94
 1837 00b2 FFF7FEFF 		bl	__stack_chk_fail
 1838              	.L94:
 1839 00b6 07B0     		add	sp, sp, #28
 1840              		.cfi_def_cfa_offset 4
 1841              		@ sp needed
 1842 00b8 5DF804FB 		ldr	pc, [sp], #4
 1843              	.L96:
 1844              		.align	2
ARM GAS  C:\Users\PCHAUT~1\AppData\Local\Temp\ccvICu2w.s 			page 34


 1845              	.L95:
 1846 00bc 00000000 		.word	__stack_chk_guard
 1847              		.cfi_endproc
 1848              	.LFE11:
 1849              		.size	AsebaNative_vecmul, .-AsebaNative_vecmul
 1850              		.global	AsebaNativeDescription_vecmul
 1851              		.section	.rodata
 1852 0156 0000     		.align	2
 1853              	.LC16:
 1854 0158 6D617468 		.ascii	"math.mul\000"
 1854      2E6D756C 
 1854      00
 1855 0161 000000   		.align	2
 1856              	.LC17:
 1857 0164 6D756C74 		.ascii	"multiplies src1 and src2 to dest, element by elemen"
 1857      69706C69 
 1857      65732073 
 1857      72633120 
 1857      616E6420 
 1858 0197 7400     		.ascii	"t\000"
 1859              		.section	.rodata.AsebaNativeDescription_vecmul,"a",%progbits
 1860              		.align	2
 1861              		.type	AsebaNativeDescription_vecmul, %object
 1862              		.size	AsebaNativeDescription_vecmul, 40
 1863              	AsebaNativeDescription_vecmul:
 1864 0000 58010000 		.word	.LC16
 1865 0004 64010000 		.word	.LC17
 1866 0008 FFFF     		.short	-1
 1867 000a 0000     		.space	2
 1868 000c 34000000 		.word	.LC2
 1869 0010 FFFF     		.short	-1
 1870 0012 0000     		.space	2
 1871 0014 04010000 		.word	.LC12
 1872 0018 FFFF     		.short	-1
 1873 001a 0000     		.space	2
 1874 001c 0C010000 		.word	.LC13
 1875 0020 0000     		.short	0
 1876 0022 0000     		.space	2
 1877 0024 00000000 		.word	0
 1878              		.section	.text.AsebaNative_vecdiv,"ax",%progbits
 1879              		.align	1
 1880              		.p2align 4,,15
 1881              		.global	AsebaNative_vecdiv
 1882              		.syntax unified
 1883              		.thumb
 1884              		.thumb_func
 1885              		.fpu fpv4-sp-d16
 1886              		.type	AsebaNative_vecdiv, %function
 1887              	AsebaNative_vecdiv:
 1888              	.LFB12:
 1889              		.loc 2 468 0
 1890              		.cfi_startproc
 1891              		@ args = 0, pretend = 0, frame = 32
 1892              		@ frame_needed = 0, uses_anonymous_args = 0
 1893 0000 00B5     		push	{lr}
 1894              		.cfi_def_cfa_offset 4
 1895              		.cfi_offset 14, -4
ARM GAS  C:\Users\PCHAUT~1\AppData\Local\Temp\ccvICu2w.s 			page 35


 1896 0002 89B0     		sub	sp, sp, #36
 1897              		.cfi_def_cfa_offset 40
 1898 0004 0190     		str	r0, [sp, #4]
 1899              		.loc 2 468 0
 1900 0006 364B     		ldr	r3, .L105
 1901 0008 1B68     		ldr	r3, [r3]
 1902 000a 0793     		str	r3, [sp, #28]
 1903              		.loc 2 470 0
 1904 000c 0198     		ldr	r0, [sp, #4]
 1905 000e FFF7FEFF 		bl	AsebaNativePopArg
 1906 0012 0346     		mov	r3, r0
 1907 0014 ADF80A30 		strh	r3, [sp, #10]	@ movhi
 1908              		.loc 2 471 0
 1909 0018 0198     		ldr	r0, [sp, #4]
 1910 001a FFF7FEFF 		bl	AsebaNativePopArg
 1911 001e 0346     		mov	r3, r0
 1912 0020 ADF80C30 		strh	r3, [sp, #12]	@ movhi
 1913              		.loc 2 472 0
 1914 0024 0198     		ldr	r0, [sp, #4]
 1915 0026 FFF7FEFF 		bl	AsebaNativePopArg
 1916 002a 0346     		mov	r3, r0
 1917 002c ADF80E30 		strh	r3, [sp, #14]	@ movhi
 1918              		.loc 2 475 0
 1919 0030 0198     		ldr	r0, [sp, #4]
 1920 0032 FFF7FEFF 		bl	AsebaNativePopArg
 1921 0036 0346     		mov	r3, r0
 1922 0038 ADF81230 		strh	r3, [sp, #18]	@ movhi
 1923              		.loc 2 478 0
 1924 003c 0023     		movs	r3, #0
 1925 003e ADF81030 		strh	r3, [sp, #16]	@ movhi
 1926 0042 3CE0     		b	.L98
 1927              	.L102:
 1928              	.LBB8:
 1929              		.loc 2 480 0
 1930 0044 019B     		ldr	r3, [sp, #4]
 1931 0046 DA68     		ldr	r2, [r3, #12]
 1932 0048 BDF80C30 		ldrh	r3, [sp, #12]
 1933 004c 591C     		adds	r1, r3, #1
 1934 004e ADF80C10 		strh	r1, [sp, #12]	@ movhi
 1935 0052 5B00     		lsls	r3, r3, #1
 1936 0054 1344     		add	r3, r3, r2
 1937 0056 B3F90030 		ldrsh	r3, [r3]
 1938 005a 0593     		str	r3, [sp, #20]
 1939              		.loc 2 481 0
 1940 005c 019B     		ldr	r3, [sp, #4]
 1941 005e DA68     		ldr	r2, [r3, #12]
 1942 0060 BDF80E30 		ldrh	r3, [sp, #14]
 1943 0064 591C     		adds	r1, r3, #1
 1944 0066 ADF80E10 		strh	r1, [sp, #14]	@ movhi
 1945 006a 5B00     		lsls	r3, r3, #1
 1946 006c 1344     		add	r3, r3, r2
 1947 006e B3F90030 		ldrsh	r3, [r3]
 1948 0072 0693     		str	r3, [sp, #24]
 1949              		.loc 2 483 0
 1950 0074 069B     		ldr	r3, [sp, #24]
 1951 0076 002B     		cmp	r3, #0
 1952 0078 0FD0     		beq	.L99
ARM GAS  C:\Users\PCHAUT~1\AppData\Local\Temp\ccvICu2w.s 			page 36


 1953              		.loc 2 485 0
 1954 007a 059A     		ldr	r2, [sp, #20]
 1955 007c 069B     		ldr	r3, [sp, #24]
 1956 007e 92FBF3F1 		sdiv	r1, r2, r3
 1957 0082 019B     		ldr	r3, [sp, #4]
 1958 0084 DA68     		ldr	r2, [r3, #12]
 1959 0086 BDF80A30 		ldrh	r3, [sp, #10]
 1960 008a 581C     		adds	r0, r3, #1
 1961 008c ADF80A00 		strh	r0, [sp, #10]	@ movhi
 1962 0090 5B00     		lsls	r3, r3, #1
 1963 0092 1344     		add	r3, r3, r2
 1964 0094 0AB2     		sxth	r2, r1
 1965 0096 1A80     		strh	r2, [r3]	@ movhi
 1966 0098 0CE0     		b	.L104
 1967              	.L99:
 1968              		.loc 2 489 0
 1969 009a 019B     		ldr	r3, [sp, #4]
 1970 009c 0222     		movs	r2, #2
 1971 009e 1A83     		strh	r2, [r3, #24]	@ movhi
 1972              		.loc 2 490 0
 1973 00a0 019B     		ldr	r3, [sp, #4]
 1974 00a2 03F11A02 		add	r2, r3, #26
 1975 00a6 0223     		movs	r3, #2
 1976 00a8 49F20701 		movw	r1, #36871
 1977 00ac 0198     		ldr	r0, [sp, #4]
 1978 00ae FFF7FEFF 		bl	AsebaSendMessage
 1979              		.loc 2 491 0
 1980 00b2 0AE0     		b	.L97
 1981              	.L104:
 1982              	.LBE8:
 1983              		.loc 2 478 0 discriminator 2
 1984 00b4 BDF81030 		ldrh	r3, [sp, #16]
 1985 00b8 0133     		adds	r3, r3, #1
 1986 00ba ADF81030 		strh	r3, [sp, #16]	@ movhi
 1987              	.L98:
 1988              		.loc 2 478 0 is_stmt 0 discriminator 1
 1989 00be BDF81020 		ldrh	r2, [sp, #16]
 1990 00c2 BDF81230 		ldrh	r3, [sp, #18]
 1991 00c6 9A42     		cmp	r2, r3
 1992 00c8 BCD3     		bcc	.L102
 1993              	.L97:
 1994              		.loc 2 494 0 is_stmt 1
 1995 00ca 054B     		ldr	r3, .L105
 1996 00cc 079A     		ldr	r2, [sp, #28]
 1997 00ce 1B68     		ldr	r3, [r3]
 1998 00d0 9A42     		cmp	r2, r3
 1999 00d2 01D0     		beq	.L103
 2000 00d4 FFF7FEFF 		bl	__stack_chk_fail
 2001              	.L103:
 2002 00d8 09B0     		add	sp, sp, #36
 2003              		.cfi_def_cfa_offset 4
 2004              		@ sp needed
 2005 00da 5DF804FB 		ldr	pc, [sp], #4
 2006              	.L106:
 2007 00de 00BF     		.align	2
 2008              	.L105:
 2009 00e0 00000000 		.word	__stack_chk_guard
ARM GAS  C:\Users\PCHAUT~1\AppData\Local\Temp\ccvICu2w.s 			page 37


 2010              		.cfi_endproc
 2011              	.LFE12:
 2012              		.size	AsebaNative_vecdiv, .-AsebaNative_vecdiv
 2013              		.global	AsebaNativeDescription_vecdiv
 2014              		.section	.rodata
 2015 0199 000000   		.align	2
 2016              	.LC18:
 2017 019c 6D617468 		.ascii	"math.div\000"
 2017      2E646976 
 2017      00
 2018 01a5 000000   		.align	2
 2019              	.LC19:
 2020 01a8 64697669 		.ascii	"divides src1 by src2 to dest, element by element\000"
 2020      64657320 
 2020      73726331 
 2020      20627920 
 2020      73726332 
 2021              		.section	.rodata.AsebaNativeDescription_vecdiv,"a",%progbits
 2022              		.align	2
 2023              		.type	AsebaNativeDescription_vecdiv, %object
 2024              		.size	AsebaNativeDescription_vecdiv, 40
 2025              	AsebaNativeDescription_vecdiv:
 2026 0000 9C010000 		.word	.LC18
 2027 0004 A8010000 		.word	.LC19
 2028 0008 FFFF     		.short	-1
 2029 000a 0000     		.space	2
 2030 000c 34000000 		.word	.LC2
 2031 0010 FFFF     		.short	-1
 2032 0012 0000     		.space	2
 2033 0014 04010000 		.word	.LC12
 2034 0018 FFFF     		.short	-1
 2035 001a 0000     		.space	2
 2036 001c 0C010000 		.word	.LC13
 2037 0020 0000     		.short	0
 2038 0022 0000     		.space	2
 2039 0024 00000000 		.word	0
 2040              		.section	.text.AsebaNative_vecmin,"ax",%progbits
 2041              		.align	1
 2042              		.p2align 4,,15
 2043              		.global	AsebaNative_vecmin
 2044              		.syntax unified
 2045              		.thumb
 2046              		.thumb_func
 2047              		.fpu fpv4-sp-d16
 2048              		.type	AsebaNative_vecmin, %function
 2049              	AsebaNative_vecmin:
 2050              	.LFB13:
 2051              		.loc 2 510 0
 2052              		.cfi_startproc
 2053              		@ args = 0, pretend = 0, frame = 32
 2054              		@ frame_needed = 0, uses_anonymous_args = 0
 2055 0000 00B5     		push	{lr}
 2056              		.cfi_def_cfa_offset 4
 2057              		.cfi_offset 14, -4
 2058 0002 89B0     		sub	sp, sp, #36
 2059              		.cfi_def_cfa_offset 40
 2060 0004 0190     		str	r0, [sp, #4]
ARM GAS  C:\Users\PCHAUT~1\AppData\Local\Temp\ccvICu2w.s 			page 38


 2061              		.loc 2 510 0
 2062 0006 314B     		ldr	r3, .L111
 2063 0008 1B68     		ldr	r3, [r3]
 2064 000a 0793     		str	r3, [sp, #28]
 2065              		.loc 2 512 0
 2066 000c 0198     		ldr	r0, [sp, #4]
 2067 000e FFF7FEFF 		bl	AsebaNativePopArg
 2068 0012 0346     		mov	r3, r0
 2069 0014 ADF80C30 		strh	r3, [sp, #12]	@ movhi
 2070              		.loc 2 513 0
 2071 0018 0198     		ldr	r0, [sp, #4]
 2072 001a FFF7FEFF 		bl	AsebaNativePopArg
 2073 001e 0346     		mov	r3, r0
 2074 0020 ADF80E30 		strh	r3, [sp, #14]	@ movhi
 2075              		.loc 2 514 0
 2076 0024 0198     		ldr	r0, [sp, #4]
 2077 0026 FFF7FEFF 		bl	AsebaNativePopArg
 2078 002a 0346     		mov	r3, r0
 2079 002c ADF81030 		strh	r3, [sp, #16]	@ movhi
 2080              		.loc 2 517 0
 2081 0030 0198     		ldr	r0, [sp, #4]
 2082 0032 FFF7FEFF 		bl	AsebaNativePopArg
 2083 0036 0346     		mov	r3, r0
 2084 0038 ADF81430 		strh	r3, [sp, #20]	@ movhi
 2085              		.loc 2 520 0
 2086 003c 0023     		movs	r3, #0
 2087 003e ADF81230 		strh	r3, [sp, #18]	@ movhi
 2088 0042 31E0     		b	.L108
 2089              	.L109:
 2090              	.LBB9:
 2091              		.loc 2 522 0 discriminator 3
 2092 0044 019B     		ldr	r3, [sp, #4]
 2093 0046 DA68     		ldr	r2, [r3, #12]
 2094 0048 BDF80E30 		ldrh	r3, [sp, #14]
 2095 004c 591C     		adds	r1, r3, #1
 2096 004e ADF80E10 		strh	r1, [sp, #14]	@ movhi
 2097 0052 5B00     		lsls	r3, r3, #1
 2098 0054 1344     		add	r3, r3, r2
 2099 0056 1B88     		ldrh	r3, [r3]	@ movhi
 2100 0058 ADF81630 		strh	r3, [sp, #22]	@ movhi
 2101              		.loc 2 523 0 discriminator 3
 2102 005c 019B     		ldr	r3, [sp, #4]
 2103 005e DA68     		ldr	r2, [r3, #12]
 2104 0060 BDF81030 		ldrh	r3, [sp, #16]
 2105 0064 591C     		adds	r1, r3, #1
 2106 0066 ADF81010 		strh	r1, [sp, #16]	@ movhi
 2107 006a 5B00     		lsls	r3, r3, #1
 2108 006c 1344     		add	r3, r3, r2
 2109 006e 1B88     		ldrh	r3, [r3]	@ movhi
 2110 0070 ADF81830 		strh	r3, [sp, #24]	@ movhi
 2111              		.loc 2 524 0 discriminator 3
 2112 0074 BDF91820 		ldrsh	r2, [sp, #24]
 2113 0078 BDF91630 		ldrsh	r3, [sp, #22]
 2114 007c 9342     		cmp	r3, r2
 2115 007e A8BF     		it	ge
 2116 0080 1346     		movge	r3, r2
 2117 0082 ADF81A30 		strh	r3, [sp, #26]	@ movhi
ARM GAS  C:\Users\PCHAUT~1\AppData\Local\Temp\ccvICu2w.s 			page 39


 2118              		.loc 2 525 0 discriminator 3
 2119 0086 019B     		ldr	r3, [sp, #4]
 2120 0088 DA68     		ldr	r2, [r3, #12]
 2121 008a BDF80C30 		ldrh	r3, [sp, #12]
 2122 008e 591C     		adds	r1, r3, #1
 2123 0090 ADF80C10 		strh	r1, [sp, #12]	@ movhi
 2124 0094 5B00     		lsls	r3, r3, #1
 2125 0096 1344     		add	r3, r3, r2
 2126 0098 BDF81A20 		ldrh	r2, [sp, #26]	@ movhi
 2127 009c 1A80     		strh	r2, [r3]	@ movhi
 2128              	.LBE9:
 2129              		.loc 2 520 0 discriminator 3
 2130 009e BDF81230 		ldrh	r3, [sp, #18]
 2131 00a2 0133     		adds	r3, r3, #1
 2132 00a4 ADF81230 		strh	r3, [sp, #18]	@ movhi
 2133              	.L108:
 2134              		.loc 2 520 0 is_stmt 0 discriminator 1
 2135 00a8 BDF81220 		ldrh	r2, [sp, #18]
 2136 00ac BDF81430 		ldrh	r3, [sp, #20]
 2137 00b0 9A42     		cmp	r2, r3
 2138 00b2 C7D3     		bcc	.L109
 2139              		.loc 2 527 0 is_stmt 1
 2140 00b4 00BF     		nop
 2141 00b6 054B     		ldr	r3, .L111
 2142 00b8 079A     		ldr	r2, [sp, #28]
 2143 00ba 1B68     		ldr	r3, [r3]
 2144 00bc 9A42     		cmp	r2, r3
 2145 00be 01D0     		beq	.L110
 2146 00c0 FFF7FEFF 		bl	__stack_chk_fail
 2147              	.L110:
 2148 00c4 09B0     		add	sp, sp, #36
 2149              		.cfi_def_cfa_offset 4
 2150              		@ sp needed
 2151 00c6 5DF804FB 		ldr	pc, [sp], #4
 2152              	.L112:
 2153 00ca 00BF     		.align	2
 2154              	.L111:
 2155 00cc 00000000 		.word	__stack_chk_guard
 2156              		.cfi_endproc
 2157              	.LFE13:
 2158              		.size	AsebaNative_vecmin, .-AsebaNative_vecmin
 2159              		.global	AsebaNativeDescription_vecmin
 2160              		.section	.rodata
 2161 01d9 000000   		.align	2
 2162              	.LC20:
 2163 01dc 6D617468 		.ascii	"math.min\000"
 2163      2E6D696E 
 2163      00
 2164 01e5 000000   		.align	2
 2165              	.LC21:
 2166 01e8 77726974 		.ascii	"writes the minimum of src1 and src2 to dest, elemen"
 2166      65732074 
 2166      6865206D 
 2166      696E696D 
 2166      756D206F 
 2167 021b 74206279 		.ascii	"t by element\000"
 2167      20656C65 
ARM GAS  C:\Users\PCHAUT~1\AppData\Local\Temp\ccvICu2w.s 			page 40


 2167      6D656E74 
 2167      00
 2168              		.section	.rodata.AsebaNativeDescription_vecmin,"a",%progbits
 2169              		.align	2
 2170              		.type	AsebaNativeDescription_vecmin, %object
 2171              		.size	AsebaNativeDescription_vecmin, 40
 2172              	AsebaNativeDescription_vecmin:
 2173 0000 DC010000 		.word	.LC20
 2174 0004 E8010000 		.word	.LC21
 2175 0008 FFFF     		.short	-1
 2176 000a 0000     		.space	2
 2177 000c 34000000 		.word	.LC2
 2178 0010 FFFF     		.short	-1
 2179 0012 0000     		.space	2
 2180 0014 04010000 		.word	.LC12
 2181 0018 FFFF     		.short	-1
 2182 001a 0000     		.space	2
 2183 001c 0C010000 		.word	.LC13
 2184 0020 0000     		.short	0
 2185 0022 0000     		.space	2
 2186 0024 00000000 		.word	0
 2187              		.section	.text.AsebaNative_vecmax,"ax",%progbits
 2188              		.align	1
 2189              		.p2align 4,,15
 2190              		.global	AsebaNative_vecmax
 2191              		.syntax unified
 2192              		.thumb
 2193              		.thumb_func
 2194              		.fpu fpv4-sp-d16
 2195              		.type	AsebaNative_vecmax, %function
 2196              	AsebaNative_vecmax:
 2197              	.LFB14:
 2198              		.loc 2 543 0
 2199              		.cfi_startproc
 2200              		@ args = 0, pretend = 0, frame = 32
 2201              		@ frame_needed = 0, uses_anonymous_args = 0
 2202 0000 00B5     		push	{lr}
 2203              		.cfi_def_cfa_offset 4
 2204              		.cfi_offset 14, -4
 2205 0002 89B0     		sub	sp, sp, #36
 2206              		.cfi_def_cfa_offset 40
 2207 0004 0190     		str	r0, [sp, #4]
 2208              		.loc 2 543 0
 2209 0006 314B     		ldr	r3, .L117
 2210 0008 1B68     		ldr	r3, [r3]
 2211 000a 0793     		str	r3, [sp, #28]
 2212              		.loc 2 545 0
 2213 000c 0198     		ldr	r0, [sp, #4]
 2214 000e FFF7FEFF 		bl	AsebaNativePopArg
 2215 0012 0346     		mov	r3, r0
 2216 0014 ADF80C30 		strh	r3, [sp, #12]	@ movhi
 2217              		.loc 2 546 0
 2218 0018 0198     		ldr	r0, [sp, #4]
 2219 001a FFF7FEFF 		bl	AsebaNativePopArg
 2220 001e 0346     		mov	r3, r0
 2221 0020 ADF80E30 		strh	r3, [sp, #14]	@ movhi
 2222              		.loc 2 547 0
ARM GAS  C:\Users\PCHAUT~1\AppData\Local\Temp\ccvICu2w.s 			page 41


 2223 0024 0198     		ldr	r0, [sp, #4]
 2224 0026 FFF7FEFF 		bl	AsebaNativePopArg
 2225 002a 0346     		mov	r3, r0
 2226 002c ADF81030 		strh	r3, [sp, #16]	@ movhi
 2227              		.loc 2 550 0
 2228 0030 0198     		ldr	r0, [sp, #4]
 2229 0032 FFF7FEFF 		bl	AsebaNativePopArg
 2230 0036 0346     		mov	r3, r0
 2231 0038 ADF81430 		strh	r3, [sp, #20]	@ movhi
 2232              		.loc 2 553 0
 2233 003c 0023     		movs	r3, #0
 2234 003e ADF81230 		strh	r3, [sp, #18]	@ movhi
 2235 0042 31E0     		b	.L114
 2236              	.L115:
 2237              	.LBB10:
 2238              		.loc 2 555 0 discriminator 3
 2239 0044 019B     		ldr	r3, [sp, #4]
 2240 0046 DA68     		ldr	r2, [r3, #12]
 2241 0048 BDF80E30 		ldrh	r3, [sp, #14]
 2242 004c 591C     		adds	r1, r3, #1
 2243 004e ADF80E10 		strh	r1, [sp, #14]	@ movhi
 2244 0052 5B00     		lsls	r3, r3, #1
 2245 0054 1344     		add	r3, r3, r2
 2246 0056 1B88     		ldrh	r3, [r3]	@ movhi
 2247 0058 ADF81630 		strh	r3, [sp, #22]	@ movhi
 2248              		.loc 2 556 0 discriminator 3
 2249 005c 019B     		ldr	r3, [sp, #4]
 2250 005e DA68     		ldr	r2, [r3, #12]
 2251 0060 BDF81030 		ldrh	r3, [sp, #16]
 2252 0064 591C     		adds	r1, r3, #1
 2253 0066 ADF81010 		strh	r1, [sp, #16]	@ movhi
 2254 006a 5B00     		lsls	r3, r3, #1
 2255 006c 1344     		add	r3, r3, r2
 2256 006e 1B88     		ldrh	r3, [r3]	@ movhi
 2257 0070 ADF81830 		strh	r3, [sp, #24]	@ movhi
 2258              		.loc 2 557 0 discriminator 3
 2259 0074 BDF91820 		ldrsh	r2, [sp, #24]
 2260 0078 BDF91630 		ldrsh	r3, [sp, #22]
 2261 007c 9342     		cmp	r3, r2
 2262 007e B8BF     		it	lt
 2263 0080 1346     		movlt	r3, r2
 2264 0082 ADF81A30 		strh	r3, [sp, #26]	@ movhi
 2265              		.loc 2 558 0 discriminator 3
 2266 0086 019B     		ldr	r3, [sp, #4]
 2267 0088 DA68     		ldr	r2, [r3, #12]
 2268 008a BDF80C30 		ldrh	r3, [sp, #12]
 2269 008e 591C     		adds	r1, r3, #1
 2270 0090 ADF80C10 		strh	r1, [sp, #12]	@ movhi
 2271 0094 5B00     		lsls	r3, r3, #1
 2272 0096 1344     		add	r3, r3, r2
 2273 0098 BDF81A20 		ldrh	r2, [sp, #26]	@ movhi
 2274 009c 1A80     		strh	r2, [r3]	@ movhi
 2275              	.LBE10:
 2276              		.loc 2 553 0 discriminator 3
 2277 009e BDF81230 		ldrh	r3, [sp, #18]
 2278 00a2 0133     		adds	r3, r3, #1
 2279 00a4 ADF81230 		strh	r3, [sp, #18]	@ movhi
ARM GAS  C:\Users\PCHAUT~1\AppData\Local\Temp\ccvICu2w.s 			page 42


 2280              	.L114:
 2281              		.loc 2 553 0 is_stmt 0 discriminator 1
 2282 00a8 BDF81220 		ldrh	r2, [sp, #18]
 2283 00ac BDF81430 		ldrh	r3, [sp, #20]
 2284 00b0 9A42     		cmp	r2, r3
 2285 00b2 C7D3     		bcc	.L115
 2286              		.loc 2 560 0 is_stmt 1
 2287 00b4 00BF     		nop
 2288 00b6 054B     		ldr	r3, .L117
 2289 00b8 079A     		ldr	r2, [sp, #28]
 2290 00ba 1B68     		ldr	r3, [r3]
 2291 00bc 9A42     		cmp	r2, r3
 2292 00be 01D0     		beq	.L116
 2293 00c0 FFF7FEFF 		bl	__stack_chk_fail
 2294              	.L116:
 2295 00c4 09B0     		add	sp, sp, #36
 2296              		.cfi_def_cfa_offset 4
 2297              		@ sp needed
 2298 00c6 5DF804FB 		ldr	pc, [sp], #4
 2299              	.L118:
 2300 00ca 00BF     		.align	2
 2301              	.L117:
 2302 00cc 00000000 		.word	__stack_chk_guard
 2303              		.cfi_endproc
 2304              	.LFE14:
 2305              		.size	AsebaNative_vecmax, .-AsebaNative_vecmax
 2306              		.global	AsebaNativeDescription_vecmax
 2307              		.section	.rodata
 2308              		.align	2
 2309              	.LC22:
 2310 0228 6D617468 		.ascii	"math.max\000"
 2310      2E6D6178 
 2310      00
 2311 0231 000000   		.align	2
 2312              	.LC23:
 2313 0234 77726974 		.ascii	"writes the maximum of src1 and src2 to dest, elemen"
 2313      65732074 
 2313      6865206D 
 2313      6178696D 
 2313      756D206F 
 2314 0267 74206279 		.ascii	"t by element\000"
 2314      20656C65 
 2314      6D656E74 
 2314      00
 2315              		.section	.rodata.AsebaNativeDescription_vecmax,"a",%progbits
 2316              		.align	2
 2317              		.type	AsebaNativeDescription_vecmax, %object
 2318              		.size	AsebaNativeDescription_vecmax, 40
 2319              	AsebaNativeDescription_vecmax:
 2320 0000 28020000 		.word	.LC22
 2321 0004 34020000 		.word	.LC23
 2322 0008 FFFF     		.short	-1
 2323 000a 0000     		.space	2
 2324 000c 34000000 		.word	.LC2
 2325 0010 FFFF     		.short	-1
 2326 0012 0000     		.space	2
 2327 0014 04010000 		.word	.LC12
ARM GAS  C:\Users\PCHAUT~1\AppData\Local\Temp\ccvICu2w.s 			page 43


 2328 0018 FFFF     		.short	-1
 2329 001a 0000     		.space	2
 2330 001c 0C010000 		.word	.LC13
 2331 0020 0000     		.short	0
 2332 0022 0000     		.space	2
 2333 0024 00000000 		.word	0
 2334              		.section	.text.AsebaNative_vecclamp,"ax",%progbits
 2335              		.align	1
 2336              		.p2align 4,,15
 2337              		.global	AsebaNative_vecclamp
 2338              		.syntax unified
 2339              		.thumb
 2340              		.thumb_func
 2341              		.fpu fpv4-sp-d16
 2342              		.type	AsebaNative_vecclamp, %function
 2343              	AsebaNative_vecclamp:
 2344              	.LFB15:
 2345              		.loc 2 575 0
 2346              		.cfi_startproc
 2347              		@ args = 0, pretend = 0, frame = 32
 2348              		@ frame_needed = 0, uses_anonymous_args = 0
 2349 0000 00B5     		push	{lr}
 2350              		.cfi_def_cfa_offset 4
 2351              		.cfi_offset 14, -4
 2352 0002 89B0     		sub	sp, sp, #36
 2353              		.cfi_def_cfa_offset 40
 2354 0004 0190     		str	r0, [sp, #4]
 2355              		.loc 2 575 0
 2356 0006 3F4B     		ldr	r3, .L125
 2357 0008 1B68     		ldr	r3, [r3]
 2358 000a 0793     		str	r3, [sp, #28]
 2359              		.loc 2 577 0
 2360 000c 0198     		ldr	r0, [sp, #4]
 2361 000e FFF7FEFF 		bl	AsebaNativePopArg
 2362 0012 0346     		mov	r3, r0
 2363 0014 ADF80830 		strh	r3, [sp, #8]	@ movhi
 2364              		.loc 2 578 0
 2365 0018 0198     		ldr	r0, [sp, #4]
 2366 001a FFF7FEFF 		bl	AsebaNativePopArg
 2367 001e 0346     		mov	r3, r0
 2368 0020 ADF80A30 		strh	r3, [sp, #10]	@ movhi
 2369              		.loc 2 579 0
 2370 0024 0198     		ldr	r0, [sp, #4]
 2371 0026 FFF7FEFF 		bl	AsebaNativePopArg
 2372 002a 0346     		mov	r3, r0
 2373 002c ADF80C30 		strh	r3, [sp, #12]	@ movhi
 2374              		.loc 2 580 0
 2375 0030 0198     		ldr	r0, [sp, #4]
 2376 0032 FFF7FEFF 		bl	AsebaNativePopArg
 2377 0036 0346     		mov	r3, r0
 2378 0038 ADF80E30 		strh	r3, [sp, #14]	@ movhi
 2379              		.loc 2 583 0
 2380 003c 0198     		ldr	r0, [sp, #4]
 2381 003e FFF7FEFF 		bl	AsebaNativePopArg
 2382 0042 0346     		mov	r3, r0
 2383 0044 ADF81230 		strh	r3, [sp, #18]	@ movhi
 2384              		.loc 2 586 0
ARM GAS  C:\Users\PCHAUT~1\AppData\Local\Temp\ccvICu2w.s 			page 44


 2385 0048 0023     		movs	r3, #0
 2386 004a ADF81030 		strh	r3, [sp, #16]	@ movhi
 2387 004e 47E0     		b	.L120
 2388              	.L123:
 2389              	.LBB11:
 2390              		.loc 2 588 0
 2391 0050 019B     		ldr	r3, [sp, #4]
 2392 0052 DA68     		ldr	r2, [r3, #12]
 2393 0054 BDF80A30 		ldrh	r3, [sp, #10]
 2394 0058 591C     		adds	r1, r3, #1
 2395 005a ADF80A10 		strh	r1, [sp, #10]	@ movhi
 2396 005e 5B00     		lsls	r3, r3, #1
 2397 0060 1344     		add	r3, r3, r2
 2398 0062 1B88     		ldrh	r3, [r3]	@ movhi
 2399 0064 ADF81430 		strh	r3, [sp, #20]	@ movhi
 2400              		.loc 2 589 0
 2401 0068 019B     		ldr	r3, [sp, #4]
 2402 006a DA68     		ldr	r2, [r3, #12]
 2403 006c BDF80C30 		ldrh	r3, [sp, #12]
 2404 0070 591C     		adds	r1, r3, #1
 2405 0072 ADF80C10 		strh	r1, [sp, #12]	@ movhi
 2406 0076 5B00     		lsls	r3, r3, #1
 2407 0078 1344     		add	r3, r3, r2
 2408 007a 1B88     		ldrh	r3, [r3]	@ movhi
 2409 007c ADF81630 		strh	r3, [sp, #22]	@ movhi
 2410              		.loc 2 590 0
 2411 0080 019B     		ldr	r3, [sp, #4]
 2412 0082 DA68     		ldr	r2, [r3, #12]
 2413 0084 BDF80E30 		ldrh	r3, [sp, #14]
 2414 0088 591C     		adds	r1, r3, #1
 2415 008a ADF80E10 		strh	r1, [sp, #14]	@ movhi
 2416 008e 5B00     		lsls	r3, r3, #1
 2417 0090 1344     		add	r3, r3, r2
 2418 0092 1B88     		ldrh	r3, [r3]	@ movhi
 2419 0094 ADF81830 		strh	r3, [sp, #24]	@ movhi
 2420              		.loc 2 591 0
 2421 0098 BDF91420 		ldrsh	r2, [sp, #20]
 2422 009c BDF91830 		ldrsh	r3, [sp, #24]
 2423 00a0 9A42     		cmp	r2, r3
 2424 00a2 08DC     		bgt	.L121
 2425              		.loc 2 591 0 is_stmt 0 discriminator 1
 2426 00a4 BDF91420 		ldrsh	r2, [sp, #20]
 2427 00a8 BDF91630 		ldrsh	r3, [sp, #22]
 2428 00ac 9342     		cmp	r3, r2
 2429 00ae B8BF     		it	lt
 2430 00b0 1346     		movlt	r3, r2
 2431 00b2 1BB2     		sxth	r3, r3
 2432 00b4 01E0     		b	.L122
 2433              	.L121:
 2434              		.loc 2 591 0 discriminator 2
 2435 00b6 BDF91830 		ldrsh	r3, [sp, #24]
 2436              	.L122:
 2437              		.loc 2 591 0 discriminator 4
 2438 00ba ADF81A30 		strh	r3, [sp, #26]	@ movhi
 2439              		.loc 2 592 0 is_stmt 1 discriminator 4
 2440 00be 019B     		ldr	r3, [sp, #4]
 2441 00c0 DA68     		ldr	r2, [r3, #12]
ARM GAS  C:\Users\PCHAUT~1\AppData\Local\Temp\ccvICu2w.s 			page 45


 2442 00c2 BDF80830 		ldrh	r3, [sp, #8]
 2443 00c6 591C     		adds	r1, r3, #1
 2444 00c8 ADF80810 		strh	r1, [sp, #8]	@ movhi
 2445 00cc 5B00     		lsls	r3, r3, #1
 2446 00ce 1344     		add	r3, r3, r2
 2447 00d0 BDF81A20 		ldrh	r2, [sp, #26]	@ movhi
 2448 00d4 1A80     		strh	r2, [r3]	@ movhi
 2449              	.LBE11:
 2450              		.loc 2 586 0 discriminator 4
 2451 00d6 BDF81030 		ldrh	r3, [sp, #16]
 2452 00da 0133     		adds	r3, r3, #1
 2453 00dc ADF81030 		strh	r3, [sp, #16]	@ movhi
 2454              	.L120:
 2455              		.loc 2 586 0 is_stmt 0 discriminator 2
 2456 00e0 BDF81020 		ldrh	r2, [sp, #16]
 2457 00e4 BDF81230 		ldrh	r3, [sp, #18]
 2458 00e8 9A42     		cmp	r2, r3
 2459 00ea B1D3     		bcc	.L123
 2460              		.loc 2 594 0 is_stmt 1
 2461 00ec 00BF     		nop
 2462 00ee 054B     		ldr	r3, .L125
 2463 00f0 079A     		ldr	r2, [sp, #28]
 2464 00f2 1B68     		ldr	r3, [r3]
 2465 00f4 9A42     		cmp	r2, r3
 2466 00f6 01D0     		beq	.L124
 2467 00f8 FFF7FEFF 		bl	__stack_chk_fail
 2468              	.L124:
 2469 00fc 09B0     		add	sp, sp, #36
 2470              		.cfi_def_cfa_offset 4
 2471              		@ sp needed
 2472 00fe 5DF804FB 		ldr	pc, [sp], #4
 2473              	.L126:
 2474 0102 00BF     		.align	2
 2475              	.L125:
 2476 0104 00000000 		.word	__stack_chk_guard
 2477              		.cfi_endproc
 2478              	.LFE15:
 2479              		.size	AsebaNative_vecclamp, .-AsebaNative_vecclamp
 2480              		.global	AsebaNativeDescription_vecclamp
 2481              		.section	.rodata
 2482              		.align	2
 2483              	.LC24:
 2484 0274 6D617468 		.ascii	"math.clamp\000"
 2484      2E636C61 
 2484      6D7000
 2485 027f 00       		.align	2
 2486              	.LC25:
 2487 0280 636C616D 		.ascii	"clamp src to low/high bounds into dest, element by "
 2487      70207372 
 2487      6320746F 
 2487      206C6F77 
 2487      2F686967 
 2488 02b3 656C656D 		.ascii	"element\000"
 2488      656E7400 
 2489 02bb 00       		.align	2
 2490              	.LC26:
 2491 02bc 6C6F7700 		.ascii	"low\000"
ARM GAS  C:\Users\PCHAUT~1\AppData\Local\Temp\ccvICu2w.s 			page 46


 2492              		.align	2
 2493              	.LC27:
 2494 02c0 68696768 		.ascii	"high\000"
 2494      00
 2495              		.section	.rodata.AsebaNativeDescription_vecclamp,"a",%progbits
 2496              		.align	2
 2497              		.type	AsebaNativeDescription_vecclamp, %object
 2498              		.size	AsebaNativeDescription_vecclamp, 48
 2499              	AsebaNativeDescription_vecclamp:
 2500 0000 74020000 		.word	.LC24
 2501 0004 80020000 		.word	.LC25
 2502 0008 FFFF     		.short	-1
 2503 000a 0000     		.space	2
 2504 000c 34000000 		.word	.LC2
 2505 0010 FFFF     		.short	-1
 2506 0012 0000     		.space	2
 2507 0014 3C000000 		.word	.LC3
 2508 0018 FFFF     		.short	-1
 2509 001a 0000     		.space	2
 2510 001c BC020000 		.word	.LC26
 2511 0020 FFFF     		.short	-1
 2512 0022 0000     		.space	2
 2513 0024 C0020000 		.word	.LC27
 2514 0028 0000     		.short	0
 2515 002a 0000     		.space	2
 2516 002c 00000000 		.word	0
 2517              		.section	.text.AsebaNative_vecdot,"ax",%progbits
 2518              		.align	1
 2519              		.p2align 4,,15
 2520              		.global	AsebaNative_vecdot
 2521              		.syntax unified
 2522              		.thumb
 2523              		.thumb_func
 2524              		.fpu fpv4-sp-d16
 2525              		.type	AsebaNative_vecdot, %function
 2526              	AsebaNative_vecdot:
 2527              	.LFB16:
 2528              		.loc 2 610 0
 2529              		.cfi_startproc
 2530              		@ args = 0, pretend = 0, frame = 32
 2531              		@ frame_needed = 0, uses_anonymous_args = 0
 2532 0000 10B5     		push	{r4, lr}
 2533              		.cfi_def_cfa_offset 8
 2534              		.cfi_offset 4, -8
 2535              		.cfi_offset 14, -4
 2536 0002 88B0     		sub	sp, sp, #32
 2537              		.cfi_def_cfa_offset 40
 2538 0004 0190     		str	r0, [sp, #4]
 2539              		.loc 2 610 0
 2540 0006 3C4B     		ldr	r3, .L133
 2541 0008 1B68     		ldr	r3, [r3]
 2542 000a 0793     		str	r3, [sp, #28]
 2543              		.loc 2 612 0
 2544 000c 0198     		ldr	r0, [sp, #4]
 2545 000e FFF7FEFF 		bl	AsebaNativePopArg
 2546 0012 0346     		mov	r3, r0
 2547 0014 ADF81230 		strh	r3, [sp, #18]	@ movhi
ARM GAS  C:\Users\PCHAUT~1\AppData\Local\Temp\ccvICu2w.s 			page 47


 2548              		.loc 2 613 0
 2549 0018 0198     		ldr	r0, [sp, #4]
 2550 001a FFF7FEFF 		bl	AsebaNativePopArg
 2551 001e 0346     		mov	r3, r0
 2552 0020 ADF80C30 		strh	r3, [sp, #12]	@ movhi
 2553              		.loc 2 614 0
 2554 0024 0198     		ldr	r0, [sp, #4]
 2555 0026 FFF7FEFF 		bl	AsebaNativePopArg
 2556 002a 0346     		mov	r3, r0
 2557 002c ADF80E30 		strh	r3, [sp, #14]	@ movhi
 2558              		.loc 2 615 0
 2559 0030 019B     		ldr	r3, [sp, #4]
 2560 0032 DC68     		ldr	r4, [r3, #12]
 2561 0034 0198     		ldr	r0, [sp, #4]
 2562 0036 FFF7FEFF 		bl	AsebaNativePopArg
 2563 003a 0346     		mov	r3, r0
 2564 003c 5B00     		lsls	r3, r3, #1
 2565 003e 2344     		add	r3, r3, r4
 2566 0040 1B88     		ldrh	r3, [r3]	@ movhi
 2567 0042 ADF81430 		strh	r3, [sp, #20]	@ movhi
 2568              		.loc 2 618 0
 2569 0046 0198     		ldr	r0, [sp, #4]
 2570 0048 FFF7FEFF 		bl	AsebaNativePopArg
 2571 004c 0346     		mov	r3, r0
 2572 004e ADF81630 		strh	r3, [sp, #22]	@ movhi
 2573              		.loc 2 619 0
 2574 0052 0023     		movs	r3, #0
 2575 0054 0693     		str	r3, [sp, #24]
 2576              		.loc 2 622 0
 2577 0056 BDF91430 		ldrsh	r3, [sp, #20]
 2578 005a 202B     		cmp	r3, #32
 2579 005c 08DD     		ble	.L128
 2580              		.loc 2 623 0
 2581 005e 019B     		ldr	r3, [sp, #4]
 2582 0060 DA68     		ldr	r2, [r3, #12]
 2583 0062 BDF81230 		ldrh	r3, [sp, #18]
 2584 0066 5B00     		lsls	r3, r3, #1
 2585 0068 1344     		add	r3, r3, r2
 2586 006a 0022     		movs	r2, #0
 2587 006c 1A80     		strh	r2, [r3]	@ movhi
 2588              		.loc 2 624 0
 2589 006e 39E0     		b	.L127
 2590              	.L128:
 2591              		.loc 2 662 0
 2592 0070 0023     		movs	r3, #0
 2593 0072 ADF81030 		strh	r3, [sp, #16]	@ movhi
 2594 0076 20E0     		b	.L130
 2595              	.L131:
 2596              		.loc 2 664 0 discriminator 3
 2597 0078 019B     		ldr	r3, [sp, #4]
 2598 007a DA68     		ldr	r2, [r3, #12]
 2599 007c BDF80C30 		ldrh	r3, [sp, #12]
 2600 0080 591C     		adds	r1, r3, #1
 2601 0082 ADF80C10 		strh	r1, [sp, #12]	@ movhi
 2602 0086 5B00     		lsls	r3, r3, #1
 2603 0088 1344     		add	r3, r3, r2
 2604 008a B3F90030 		ldrsh	r3, [r3]
ARM GAS  C:\Users\PCHAUT~1\AppData\Local\Temp\ccvICu2w.s 			page 48


 2605 008e 1946     		mov	r1, r3
 2606 0090 019B     		ldr	r3, [sp, #4]
 2607 0092 DA68     		ldr	r2, [r3, #12]
 2608 0094 BDF80E30 		ldrh	r3, [sp, #14]
 2609 0098 581C     		adds	r0, r3, #1
 2610 009a ADF80E00 		strh	r0, [sp, #14]	@ movhi
 2611 009e 5B00     		lsls	r3, r3, #1
 2612 00a0 1344     		add	r3, r3, r2
 2613 00a2 B3F90030 		ldrsh	r3, [r3]
 2614 00a6 03FB01F3 		mul	r3, r3, r1
 2615 00aa 069A     		ldr	r2, [sp, #24]
 2616 00ac 1344     		add	r3, r3, r2
 2617 00ae 0693     		str	r3, [sp, #24]
 2618              		.loc 2 662 0 discriminator 3
 2619 00b0 BDF81030 		ldrh	r3, [sp, #16]
 2620 00b4 0133     		adds	r3, r3, #1
 2621 00b6 ADF81030 		strh	r3, [sp, #16]	@ movhi
 2622              	.L130:
 2623              		.loc 2 662 0 is_stmt 0 discriminator 1
 2624 00ba BDF81020 		ldrh	r2, [sp, #16]
 2625 00be BDF81630 		ldrh	r3, [sp, #22]
 2626 00c2 9A42     		cmp	r2, r3
 2627 00c4 D8D3     		bcc	.L131
 2628              		.loc 2 666 0 is_stmt 1
 2629 00c6 BDF91430 		ldrsh	r3, [sp, #20]
 2630 00ca 069A     		ldr	r2, [sp, #24]
 2631 00cc 42FA03F3 		asr	r3, r2, r3
 2632 00d0 0693     		str	r3, [sp, #24]
 2633              		.loc 2 667 0
 2634 00d2 019B     		ldr	r3, [sp, #4]
 2635 00d4 DA68     		ldr	r2, [r3, #12]
 2636 00d6 BDF81230 		ldrh	r3, [sp, #18]
 2637 00da 5B00     		lsls	r3, r3, #1
 2638 00dc 1344     		add	r3, r3, r2
 2639 00de 069A     		ldr	r2, [sp, #24]
 2640 00e0 12B2     		sxth	r2, r2
 2641 00e2 1A80     		strh	r2, [r3]	@ movhi
 2642              	.L127:
 2643              		.loc 2 669 0
 2644 00e4 044B     		ldr	r3, .L133
 2645 00e6 079A     		ldr	r2, [sp, #28]
 2646 00e8 1B68     		ldr	r3, [r3]
 2647 00ea 9A42     		cmp	r2, r3
 2648 00ec 01D0     		beq	.L132
 2649 00ee FFF7FEFF 		bl	__stack_chk_fail
 2650              	.L132:
 2651 00f2 08B0     		add	sp, sp, #32
 2652              		.cfi_def_cfa_offset 8
 2653              		@ sp needed
 2654 00f4 10BD     		pop	{r4, pc}
 2655              	.L134:
 2656 00f6 00BF     		.align	2
 2657              	.L133:
 2658 00f8 00000000 		.word	__stack_chk_guard
 2659              		.cfi_endproc
 2660              	.LFE16:
 2661              		.size	AsebaNative_vecdot, .-AsebaNative_vecdot
ARM GAS  C:\Users\PCHAUT~1\AppData\Local\Temp\ccvICu2w.s 			page 49


 2662              		.global	AsebaNativeDescription_vecdot
 2663              		.section	.rodata
 2664 02c5 000000   		.align	2
 2665              	.LC28:
 2666 02c8 6D617468 		.ascii	"math.dot\000"
 2666      2E646F74 
 2666      00
 2667 02d1 000000   		.align	2
 2668              	.LC29:
 2669 02d4 77726974 		.ascii	"writes the dot product of src1 and src2 to dest, af"
 2669      65732074 
 2669      68652064 
 2669      6F742070 
 2669      726F6475 
 2670 0307 74657220 		.ascii	"ter a shift\000"
 2670      61207368 
 2670      69667400 
 2671 0313 00       		.align	2
 2672              	.LC30:
 2673 0314 73686966 		.ascii	"shift\000"
 2673      7400
 2674              		.section	.rodata.AsebaNativeDescription_vecdot,"a",%progbits
 2675              		.align	2
 2676              		.type	AsebaNativeDescription_vecdot, %object
 2677              		.size	AsebaNativeDescription_vecdot, 48
 2678              	AsebaNativeDescription_vecdot:
 2679 0000 C8020000 		.word	.LC28
 2680 0004 D4020000 		.word	.LC29
 2681 0008 0100     		.short	1
 2682 000a 0000     		.space	2
 2683 000c 34000000 		.word	.LC2
 2684 0010 FFFF     		.short	-1
 2685 0012 0000     		.space	2
 2686 0014 04010000 		.word	.LC12
 2687 0018 FFFF     		.short	-1
 2688 001a 0000     		.space	2
 2689 001c 0C010000 		.word	.LC13
 2690 0020 0100     		.short	1
 2691 0022 0000     		.space	2
 2692 0024 14030000 		.word	.LC30
 2693 0028 0000     		.short	0
 2694 002a 0000     		.space	2
 2695 002c 00000000 		.word	0
 2696              		.section	.text.AsebaNative_vecstat,"ax",%progbits
 2697              		.align	1
 2698              		.p2align 4,,15
 2699              		.global	AsebaNative_vecstat
 2700              		.syntax unified
 2701              		.thumb
 2702              		.thumb_func
 2703              		.fpu fpv4-sp-d16
 2704              		.type	AsebaNative_vecstat, %function
 2705              	AsebaNative_vecstat:
 2706              	.LFB17:
 2707              		.loc 2 686 0
 2708              		.cfi_startproc
 2709              		@ args = 0, pretend = 0, frame = 32
ARM GAS  C:\Users\PCHAUT~1\AppData\Local\Temp\ccvICu2w.s 			page 50


 2710              		@ frame_needed = 0, uses_anonymous_args = 0
 2711 0000 00B5     		push	{lr}
 2712              		.cfi_def_cfa_offset 4
 2713              		.cfi_offset 14, -4
 2714 0002 89B0     		sub	sp, sp, #36
 2715              		.cfi_def_cfa_offset 40
 2716 0004 0190     		str	r0, [sp, #4]
 2717              		.loc 2 686 0
 2718 0006 544B     		ldr	r3, .L143
 2719 0008 1B68     		ldr	r3, [r3]
 2720 000a 0793     		str	r3, [sp, #28]
 2721              		.loc 2 688 0
 2722 000c 0198     		ldr	r0, [sp, #4]
 2723 000e FFF7FEFF 		bl	AsebaNativePopArg
 2724 0012 0346     		mov	r3, r0
 2725 0014 ADF80A30 		strh	r3, [sp, #10]	@ movhi
 2726              		.loc 2 689 0
 2727 0018 0198     		ldr	r0, [sp, #4]
 2728 001a FFF7FEFF 		bl	AsebaNativePopArg
 2729 001e 0346     		mov	r3, r0
 2730 0020 ADF80E30 		strh	r3, [sp, #14]	@ movhi
 2731              		.loc 2 690 0
 2732 0024 0198     		ldr	r0, [sp, #4]
 2733 0026 FFF7FEFF 		bl	AsebaNativePopArg
 2734 002a 0346     		mov	r3, r0
 2735 002c ADF81030 		strh	r3, [sp, #16]	@ movhi
 2736              		.loc 2 691 0
 2737 0030 0198     		ldr	r0, [sp, #4]
 2738 0032 FFF7FEFF 		bl	AsebaNativePopArg
 2739 0036 0346     		mov	r3, r0
 2740 0038 ADF81230 		strh	r3, [sp, #18]	@ movhi
 2741              		.loc 2 694 0
 2742 003c 0198     		ldr	r0, [sp, #4]
 2743 003e FFF7FEFF 		bl	AsebaNativePopArg
 2744 0042 0346     		mov	r3, r0
 2745 0044 ADF81430 		strh	r3, [sp, #20]	@ movhi
 2746              		.loc 2 699 0
 2747 0048 BDF81430 		ldrh	r3, [sp, #20]
 2748 004c 002B     		cmp	r3, #0
 2749 004e 77D0     		beq	.L142
 2750              		.loc 2 701 0
 2751 0050 019B     		ldr	r3, [sp, #4]
 2752 0052 DA68     		ldr	r2, [r3, #12]
 2753 0054 BDF80A30 		ldrh	r3, [sp, #10]
 2754 0058 591C     		adds	r1, r3, #1
 2755 005a ADF80A10 		strh	r1, [sp, #10]	@ movhi
 2756 005e 5B00     		lsls	r3, r3, #1
 2757 0060 1344     		add	r3, r3, r2
 2758 0062 1B88     		ldrh	r3, [r3]	@ movhi
 2759 0064 ADF81630 		strh	r3, [sp, #22]	@ movhi
 2760              		.loc 2 702 0
 2761 0068 BDF91630 		ldrsh	r3, [sp, #22]
 2762 006c 0693     		str	r3, [sp, #24]
 2763              		.loc 2 703 0
 2764 006e 019B     		ldr	r3, [sp, #4]
 2765 0070 DA68     		ldr	r2, [r3, #12]
 2766 0072 BDF80E30 		ldrh	r3, [sp, #14]
ARM GAS  C:\Users\PCHAUT~1\AppData\Local\Temp\ccvICu2w.s 			page 51


 2767 0076 5B00     		lsls	r3, r3, #1
 2768 0078 1344     		add	r3, r3, r2
 2769 007a BDF81620 		ldrh	r2, [sp, #22]	@ movhi
 2770 007e 1A80     		strh	r2, [r3]	@ movhi
 2771              		.loc 2 704 0
 2772 0080 019B     		ldr	r3, [sp, #4]
 2773 0082 DA68     		ldr	r2, [r3, #12]
 2774 0084 BDF81030 		ldrh	r3, [sp, #16]
 2775 0088 5B00     		lsls	r3, r3, #1
 2776 008a 1344     		add	r3, r3, r2
 2777 008c BDF81620 		ldrh	r2, [sp, #22]	@ movhi
 2778 0090 1A80     		strh	r2, [r3]	@ movhi
 2779              		.loc 2 706 0
 2780 0092 0123     		movs	r3, #1
 2781 0094 ADF80C30 		strh	r3, [sp, #12]	@ movhi
 2782 0098 3FE0     		b	.L137
 2783              	.L140:
 2784              		.loc 2 708 0
 2785 009a 019B     		ldr	r3, [sp, #4]
 2786 009c DA68     		ldr	r2, [r3, #12]
 2787 009e BDF80A30 		ldrh	r3, [sp, #10]
 2788 00a2 591C     		adds	r1, r3, #1
 2789 00a4 ADF80A10 		strh	r1, [sp, #10]	@ movhi
 2790 00a8 5B00     		lsls	r3, r3, #1
 2791 00aa 1344     		add	r3, r3, r2
 2792 00ac 1B88     		ldrh	r3, [r3]	@ movhi
 2793 00ae ADF81630 		strh	r3, [sp, #22]	@ movhi
 2794              		.loc 2 709 0
 2795 00b2 019B     		ldr	r3, [sp, #4]
 2796 00b4 DA68     		ldr	r2, [r3, #12]
 2797 00b6 BDF80E30 		ldrh	r3, [sp, #14]
 2798 00ba 5B00     		lsls	r3, r3, #1
 2799 00bc 1344     		add	r3, r3, r2
 2800 00be B3F90030 		ldrsh	r3, [r3]
 2801 00c2 BDF91620 		ldrsh	r2, [sp, #22]
 2802 00c6 9A42     		cmp	r2, r3
 2803 00c8 08DA     		bge	.L138
 2804              		.loc 2 710 0
 2805 00ca 019B     		ldr	r3, [sp, #4]
 2806 00cc DA68     		ldr	r2, [r3, #12]
 2807 00ce BDF80E30 		ldrh	r3, [sp, #14]
 2808 00d2 5B00     		lsls	r3, r3, #1
 2809 00d4 1344     		add	r3, r3, r2
 2810 00d6 BDF81620 		ldrh	r2, [sp, #22]	@ movhi
 2811 00da 1A80     		strh	r2, [r3]	@ movhi
 2812              	.L138:
 2813              		.loc 2 711 0
 2814 00dc 019B     		ldr	r3, [sp, #4]
 2815 00de DA68     		ldr	r2, [r3, #12]
 2816 00e0 BDF81030 		ldrh	r3, [sp, #16]
 2817 00e4 5B00     		lsls	r3, r3, #1
 2818 00e6 1344     		add	r3, r3, r2
 2819 00e8 B3F90030 		ldrsh	r3, [r3]
 2820 00ec BDF91620 		ldrsh	r2, [sp, #22]
 2821 00f0 9A42     		cmp	r2, r3
 2822 00f2 08DD     		ble	.L139
 2823              		.loc 2 712 0
ARM GAS  C:\Users\PCHAUT~1\AppData\Local\Temp\ccvICu2w.s 			page 52


 2824 00f4 019B     		ldr	r3, [sp, #4]
 2825 00f6 DA68     		ldr	r2, [r3, #12]
 2826 00f8 BDF81030 		ldrh	r3, [sp, #16]
 2827 00fc 5B00     		lsls	r3, r3, #1
 2828 00fe 1344     		add	r3, r3, r2
 2829 0100 BDF81620 		ldrh	r2, [sp, #22]	@ movhi
 2830 0104 1A80     		strh	r2, [r3]	@ movhi
 2831              	.L139:
 2832              		.loc 2 713 0 discriminator 2
 2833 0106 BDF91630 		ldrsh	r3, [sp, #22]
 2834 010a 069A     		ldr	r2, [sp, #24]
 2835 010c 1344     		add	r3, r3, r2
 2836 010e 0693     		str	r3, [sp, #24]
 2837              		.loc 2 706 0 discriminator 2
 2838 0110 BDF80C30 		ldrh	r3, [sp, #12]
 2839 0114 0133     		adds	r3, r3, #1
 2840 0116 ADF80C30 		strh	r3, [sp, #12]	@ movhi
 2841              	.L137:
 2842              		.loc 2 706 0 is_stmt 0 discriminator 1
 2843 011a BDF80C20 		ldrh	r2, [sp, #12]
 2844 011e BDF81430 		ldrh	r3, [sp, #20]
 2845 0122 9A42     		cmp	r2, r3
 2846 0124 B9D3     		bcc	.L140
 2847              		.loc 2 716 0 is_stmt 1
 2848 0126 BDF81430 		ldrh	r3, [sp, #20]
 2849 012a 069A     		ldr	r2, [sp, #24]
 2850 012c 92FBF3F1 		sdiv	r1, r2, r3
 2851 0130 019B     		ldr	r3, [sp, #4]
 2852 0132 DA68     		ldr	r2, [r3, #12]
 2853 0134 BDF81230 		ldrh	r3, [sp, #18]
 2854 0138 5B00     		lsls	r3, r3, #1
 2855 013a 1344     		add	r3, r3, r2
 2856 013c 0AB2     		sxth	r2, r1
 2857 013e 1A80     		strh	r2, [r3]	@ movhi
 2858              	.L142:
 2859              		.loc 2 718 0
 2860 0140 00BF     		nop
 2861 0142 054B     		ldr	r3, .L143
 2862 0144 079A     		ldr	r2, [sp, #28]
 2863 0146 1B68     		ldr	r3, [r3]
 2864 0148 9A42     		cmp	r2, r3
 2865 014a 01D0     		beq	.L141
 2866 014c FFF7FEFF 		bl	__stack_chk_fail
 2867              	.L141:
 2868 0150 09B0     		add	sp, sp, #36
 2869              		.cfi_def_cfa_offset 4
 2870              		@ sp needed
 2871 0152 5DF804FB 		ldr	pc, [sp], #4
 2872              	.L144:
 2873 0156 00BF     		.align	2
 2874              	.L143:
 2875 0158 00000000 		.word	__stack_chk_guard
 2876              		.cfi_endproc
 2877              	.LFE17:
 2878              		.size	AsebaNative_vecstat, .-AsebaNative_vecstat
 2879              		.global	AsebaNativeDescription_vecstat
 2880              		.section	.rodata
ARM GAS  C:\Users\PCHAUT~1\AppData\Local\Temp\ccvICu2w.s 			page 53


 2881 031a 0000     		.align	2
 2882              	.LC31:
 2883 031c 6D617468 		.ascii	"math.stat\000"
 2883      2E737461 
 2883      7400
 2884 0326 0000     		.align	2
 2885              	.LC32:
 2886 0328 70657266 		.ascii	"performs statistics on src\000"
 2886      6F726D73 
 2886      20737461 
 2886      74697374 
 2886      69637320 
 2887 0343 00       		.align	2
 2888              	.LC33:
 2889 0344 6D696E00 		.ascii	"min\000"
 2890              		.align	2
 2891              	.LC34:
 2892 0348 6D617800 		.ascii	"max\000"
 2893              		.align	2
 2894              	.LC35:
 2895 034c 6D65616E 		.ascii	"mean\000"
 2895      00
 2896              		.section	.rodata.AsebaNativeDescription_vecstat,"a",%progbits
 2897              		.align	2
 2898              		.type	AsebaNativeDescription_vecstat, %object
 2899              		.size	AsebaNativeDescription_vecstat, 48
 2900              	AsebaNativeDescription_vecstat:
 2901 0000 1C030000 		.word	.LC31
 2902 0004 28030000 		.word	.LC32
 2903 0008 FFFF     		.short	-1
 2904 000a 0000     		.space	2
 2905 000c 3C000000 		.word	.LC3
 2906 0010 0100     		.short	1
 2907 0012 0000     		.space	2
 2908 0014 44030000 		.word	.LC33
 2909 0018 0100     		.short	1
 2910 001a 0000     		.space	2
 2911 001c 48030000 		.word	.LC34
 2912 0020 0100     		.short	1
 2913 0022 0000     		.space	2
 2914 0024 4C030000 		.word	.LC35
 2915 0028 0000     		.short	0
 2916 002a 0000     		.space	2
 2917 002c 00000000 		.word	0
 2918              		.section	.text.AsebaNative_vecargbounds,"ax",%progbits
 2919              		.align	1
 2920              		.p2align 4,,15
 2921              		.global	AsebaNative_vecargbounds
 2922              		.syntax unified
 2923              		.thumb
 2924              		.thumb_func
 2925              		.fpu fpv4-sp-d16
 2926              		.type	AsebaNative_vecargbounds, %function
 2927              	AsebaNative_vecargbounds:
 2928              	.LFB18:
 2929              		.loc 2 735 0
 2930              		.cfi_startproc
ARM GAS  C:\Users\PCHAUT~1\AppData\Local\Temp\ccvICu2w.s 			page 54


 2931              		@ args = 0, pretend = 0, frame = 32
 2932              		@ frame_needed = 0, uses_anonymous_args = 0
 2933 0000 00B5     		push	{lr}
 2934              		.cfi_def_cfa_offset 4
 2935              		.cfi_offset 14, -4
 2936 0002 89B0     		sub	sp, sp, #36
 2937              		.cfi_def_cfa_offset 40
 2938 0004 0190     		str	r0, [sp, #4]
 2939              		.loc 2 735 0
 2940 0006 394B     		ldr	r3, .L153
 2941 0008 1B68     		ldr	r3, [r3]
 2942 000a 0793     		str	r3, [sp, #28]
 2943              		.loc 2 737 0
 2944 000c 0198     		ldr	r0, [sp, #4]
 2945 000e FFF7FEFF 		bl	AsebaNativePopArg
 2946 0012 0346     		mov	r3, r0
 2947 0014 ADF80C30 		strh	r3, [sp, #12]	@ movhi
 2948              		.loc 2 738 0
 2949 0018 0198     		ldr	r0, [sp, #4]
 2950 001a FFF7FEFF 		bl	AsebaNativePopArg
 2951 001e 0346     		mov	r3, r0
 2952 0020 ADF81430 		strh	r3, [sp, #20]	@ movhi
 2953              		.loc 2 739 0
 2954 0024 0198     		ldr	r0, [sp, #4]
 2955 0026 FFF7FEFF 		bl	AsebaNativePopArg
 2956 002a 0346     		mov	r3, r0
 2957 002c ADF81630 		strh	r3, [sp, #22]	@ movhi
 2958              		.loc 2 742 0
 2959 0030 0198     		ldr	r0, [sp, #4]
 2960 0032 FFF7FEFF 		bl	AsebaNativePopArg
 2961 0036 0346     		mov	r3, r0
 2962 0038 ADF81830 		strh	r3, [sp, #24]	@ movhi
 2963              		.loc 2 743 0
 2964 003c 47F6FF73 		movw	r3, #32767
 2965 0040 ADF80E30 		strh	r3, [sp, #14]	@ movhi
 2966              		.loc 2 744 0
 2967 0044 4FF40043 		mov	r3, #32768
 2968 0048 ADF81030 		strh	r3, [sp, #16]	@ movhi
 2969              		.loc 2 748 0
 2970 004c BDF81830 		ldrh	r3, [sp, #24]
 2971 0050 002B     		cmp	r3, #0
 2972 0052 40D0     		beq	.L152
 2973              		.loc 2 750 0
 2974 0054 0023     		movs	r3, #0
 2975 0056 ADF81230 		strh	r3, [sp, #18]	@ movhi
 2976 005a 36E0     		b	.L147
 2977              	.L150:
 2978              		.loc 2 752 0
 2979 005c 019B     		ldr	r3, [sp, #4]
 2980 005e DA68     		ldr	r2, [r3, #12]
 2981 0060 BDF80C30 		ldrh	r3, [sp, #12]
 2982 0064 591C     		adds	r1, r3, #1
 2983 0066 ADF80C10 		strh	r1, [sp, #12]	@ movhi
 2984 006a 5B00     		lsls	r3, r3, #1
 2985 006c 1344     		add	r3, r3, r2
 2986 006e 1B88     		ldrh	r3, [r3]	@ movhi
 2987 0070 ADF81A30 		strh	r3, [sp, #26]	@ movhi
ARM GAS  C:\Users\PCHAUT~1\AppData\Local\Temp\ccvICu2w.s 			page 55


 2988              		.loc 2 753 0
 2989 0074 BDF91A20 		ldrsh	r2, [sp, #26]
 2990 0078 BDF90E30 		ldrsh	r3, [sp, #14]
 2991 007c 9A42     		cmp	r2, r3
 2992 007e 0CDA     		bge	.L148
 2993              		.loc 2 755 0
 2994 0080 BDF81A30 		ldrh	r3, [sp, #26]	@ movhi
 2995 0084 ADF80E30 		strh	r3, [sp, #14]	@ movhi
 2996              		.loc 2 756 0
 2997 0088 019B     		ldr	r3, [sp, #4]
 2998 008a DA68     		ldr	r2, [r3, #12]
 2999 008c BDF81430 		ldrh	r3, [sp, #20]
 3000 0090 5B00     		lsls	r3, r3, #1
 3001 0092 1344     		add	r3, r3, r2
 3002 0094 BDF91220 		ldrsh	r2, [sp, #18]
 3003 0098 1A80     		strh	r2, [r3]	@ movhi
 3004              	.L148:
 3005              		.loc 2 758 0
 3006 009a BDF91A20 		ldrsh	r2, [sp, #26]
 3007 009e BDF91030 		ldrsh	r3, [sp, #16]
 3008 00a2 9A42     		cmp	r2, r3
 3009 00a4 0CDD     		ble	.L149
 3010              		.loc 2 760 0
 3011 00a6 BDF81A30 		ldrh	r3, [sp, #26]	@ movhi
 3012 00aa ADF81030 		strh	r3, [sp, #16]	@ movhi
 3013              		.loc 2 761 0
 3014 00ae 019B     		ldr	r3, [sp, #4]
 3015 00b0 DA68     		ldr	r2, [r3, #12]
 3016 00b2 BDF81630 		ldrh	r3, [sp, #22]
 3017 00b6 5B00     		lsls	r3, r3, #1
 3018 00b8 1344     		add	r3, r3, r2
 3019 00ba BDF91220 		ldrsh	r2, [sp, #18]
 3020 00be 1A80     		strh	r2, [r3]	@ movhi
 3021              	.L149:
 3022              		.loc 2 750 0 discriminator 2
 3023 00c0 BDF81230 		ldrh	r3, [sp, #18]
 3024 00c4 0133     		adds	r3, r3, #1
 3025 00c6 ADF81230 		strh	r3, [sp, #18]	@ movhi
 3026              	.L147:
 3027              		.loc 2 750 0 is_stmt 0 discriminator 1
 3028 00ca BDF81220 		ldrh	r2, [sp, #18]
 3029 00ce BDF81830 		ldrh	r3, [sp, #24]
 3030 00d2 9A42     		cmp	r2, r3
 3031 00d4 C2D3     		bcc	.L150
 3032              	.L152:
 3033              		.loc 2 765 0 is_stmt 1
 3034 00d6 00BF     		nop
 3035 00d8 044B     		ldr	r3, .L153
 3036 00da 079A     		ldr	r2, [sp, #28]
 3037 00dc 1B68     		ldr	r3, [r3]
 3038 00de 9A42     		cmp	r2, r3
 3039 00e0 01D0     		beq	.L151
 3040 00e2 FFF7FEFF 		bl	__stack_chk_fail
 3041              	.L151:
 3042 00e6 09B0     		add	sp, sp, #36
 3043              		.cfi_def_cfa_offset 4
 3044              		@ sp needed
ARM GAS  C:\Users\PCHAUT~1\AppData\Local\Temp\ccvICu2w.s 			page 56


 3045 00e8 5DF804FB 		ldr	pc, [sp], #4
 3046              	.L154:
 3047              		.align	2
 3048              	.L153:
 3049 00ec 00000000 		.word	__stack_chk_guard
 3050              		.cfi_endproc
 3051              	.LFE18:
 3052              		.size	AsebaNative_vecargbounds, .-AsebaNative_vecargbounds
 3053              		.global	AsebaNativeDescription_vecargbounds
 3054              		.section	.rodata
 3055 0351 000000   		.align	2
 3056              	.LC36:
 3057 0354 6D617468 		.ascii	"math.argbounds\000"
 3057      2E617267 
 3057      626F756E 
 3057      647300
 3058 0363 00       		.align	2
 3059              	.LC37:
 3060 0364 67657420 		.ascii	"get the indices (argmin, argmax) of the limit value"
 3060      74686520 
 3060      696E6469 
 3060      63657320 
 3060      28617267 
 3061 0397 73206F66 		.ascii	"s of src\000"
 3061      20737263 
 3061      00
 3062              		.align	2
 3063              	.LC38:
 3064 03a0 6172676D 		.ascii	"argmin\000"
 3064      696E00
 3065 03a7 00       		.align	2
 3066              	.LC39:
 3067 03a8 6172676D 		.ascii	"argmax\000"
 3067      617800
 3068              		.section	.rodata.AsebaNativeDescription_vecargbounds,"a",%progbits
 3069              		.align	2
 3070              		.type	AsebaNativeDescription_vecargbounds, %object
 3071              		.size	AsebaNativeDescription_vecargbounds, 40
 3072              	AsebaNativeDescription_vecargbounds:
 3073 0000 54030000 		.word	.LC36
 3074 0004 64030000 		.word	.LC37
 3075 0008 FFFF     		.short	-1
 3076 000a 0000     		.space	2
 3077 000c 3C000000 		.word	.LC3
 3078 0010 0100     		.short	1
 3079 0012 0000     		.space	2
 3080 0014 A0030000 		.word	.LC38
 3081 0018 0100     		.short	1
 3082 001a 0000     		.space	2
 3083 001c A8030000 		.word	.LC39
 3084 0020 0000     		.short	0
 3085 0022 0000     		.space	2
 3086 0024 00000000 		.word	0
 3087              		.section	.text.AsebaNative_vecsort,"ax",%progbits
 3088              		.align	1
 3089              		.p2align 4,,15
 3090              		.global	AsebaNative_vecsort
ARM GAS  C:\Users\PCHAUT~1\AppData\Local\Temp\ccvICu2w.s 			page 57


 3091              		.syntax unified
 3092              		.thumb
 3093              		.thumb_func
 3094              		.fpu fpv4-sp-d16
 3095              		.type	AsebaNative_vecsort, %function
 3096              	AsebaNative_vecsort:
 3097              	.LFB19:
 3098              		.loc 2 781 0
 3099              		.cfi_startproc
 3100              		@ args = 0, pretend = 0, frame = 16
 3101              		@ frame_needed = 0, uses_anonymous_args = 0
 3102 0000 00B5     		push	{lr}
 3103              		.cfi_def_cfa_offset 4
 3104              		.cfi_offset 14, -4
 3105 0002 85B0     		sub	sp, sp, #20
 3106              		.cfi_def_cfa_offset 24
 3107 0004 0190     		str	r0, [sp, #4]
 3108              		.loc 2 781 0
 3109 0006 134B     		ldr	r3, .L157
 3110 0008 1B68     		ldr	r3, [r3]
 3111 000a 0393     		str	r3, [sp, #12]
 3112              		.loc 2 783 0
 3113 000c 0198     		ldr	r0, [sp, #4]
 3114 000e FFF7FEFF 		bl	AsebaNativePopArg
 3115 0012 0346     		mov	r3, r0
 3116 0014 ADF80830 		strh	r3, [sp, #8]	@ movhi
 3117              		.loc 2 786 0
 3118 0018 0198     		ldr	r0, [sp, #4]
 3119 001a FFF7FEFF 		bl	AsebaNativePopArg
 3120 001e 0346     		mov	r3, r0
 3121 0020 ADF80A30 		strh	r3, [sp, #10]	@ movhi
 3122              		.loc 2 788 0
 3123 0024 019B     		ldr	r3, [sp, #4]
 3124 0026 DA68     		ldr	r2, [r3, #12]
 3125 0028 BDF80830 		ldrh	r3, [sp, #8]
 3126 002c 5B00     		lsls	r3, r3, #1
 3127 002e 1344     		add	r3, r3, r2
 3128 0030 BDF80A20 		ldrh	r2, [sp, #10]
 3129 0034 1146     		mov	r1, r2
 3130 0036 1846     		mov	r0, r3
 3131 0038 FFF7FEFF 		bl	aseba_comb_sort
 3132              		.loc 2 789 0
 3133 003c 00BF     		nop
 3134 003e 054B     		ldr	r3, .L157
 3135 0040 039A     		ldr	r2, [sp, #12]
 3136 0042 1B68     		ldr	r3, [r3]
 3137 0044 9A42     		cmp	r2, r3
 3138 0046 01D0     		beq	.L156
 3139 0048 FFF7FEFF 		bl	__stack_chk_fail
 3140              	.L156:
 3141 004c 05B0     		add	sp, sp, #20
 3142              		.cfi_def_cfa_offset 4
 3143              		@ sp needed
 3144 004e 5DF804FB 		ldr	pc, [sp], #4
 3145              	.L158:
 3146 0052 00BF     		.align	2
 3147              	.L157:
ARM GAS  C:\Users\PCHAUT~1\AppData\Local\Temp\ccvICu2w.s 			page 58


 3148 0054 00000000 		.word	__stack_chk_guard
 3149              		.cfi_endproc
 3150              	.LFE19:
 3151              		.size	AsebaNative_vecsort, .-AsebaNative_vecsort
 3152              		.global	AsebaNativeDescription_vecsort
 3153              		.section	.rodata
 3154 03af 00       		.align	2
 3155              	.LC40:
 3156 03b0 6D617468 		.ascii	"math.sort\000"
 3156      2E736F72 
 3156      7400
 3157 03ba 0000     		.align	2
 3158              	.LC41:
 3159 03bc 736F7274 		.ascii	"sort array in place\000"
 3159      20617272 
 3159      61792069 
 3159      6E20706C 
 3159      61636500 
 3160              		.align	2
 3161              	.LC42:
 3162 03d0 61727261 		.ascii	"array\000"
 3162      7900
 3163              		.section	.rodata.AsebaNativeDescription_vecsort,"a",%progbits
 3164              		.align	2
 3165              		.type	AsebaNativeDescription_vecsort, %object
 3166              		.size	AsebaNativeDescription_vecsort, 24
 3167              	AsebaNativeDescription_vecsort:
 3168 0000 B0030000 		.word	.LC40
 3169 0004 BC030000 		.word	.LC41
 3170 0008 FFFF     		.short	-1
 3171 000a 0000     		.space	2
 3172 000c D0030000 		.word	.LC42
 3173 0010 0000     		.short	0
 3174 0012 0000     		.space	2
 3175 0014 00000000 		.word	0
 3176              		.section	.text.AsebaNative_mathmuldiv,"ax",%progbits
 3177              		.align	1
 3178              		.p2align 4,,15
 3179              		.global	AsebaNative_mathmuldiv
 3180              		.syntax unified
 3181              		.thumb
 3182              		.thumb_func
 3183              		.fpu fpv4-sp-d16
 3184              		.type	AsebaNative_mathmuldiv, %function
 3185              	AsebaNative_mathmuldiv:
 3186              	.LFB20:
 3187              		.loc 2 803 0
 3188              		.cfi_startproc
 3189              		@ args = 0, pretend = 0, frame = 40
 3190              		@ frame_needed = 0, uses_anonymous_args = 0
 3191 0000 00B5     		push	{lr}
 3192              		.cfi_def_cfa_offset 4
 3193              		.cfi_offset 14, -4
 3194 0002 8BB0     		sub	sp, sp, #44
 3195              		.cfi_def_cfa_offset 48
 3196 0004 0190     		str	r0, [sp, #4]
 3197              		.loc 2 803 0
ARM GAS  C:\Users\PCHAUT~1\AppData\Local\Temp\ccvICu2w.s 			page 59


 3198 0006 404B     		ldr	r3, .L167
 3199 0008 1B68     		ldr	r3, [r3]
 3200 000a 0993     		str	r3, [sp, #36]
 3201              		.loc 2 805 0
 3202 000c 0198     		ldr	r0, [sp, #4]
 3203 000e FFF7FEFF 		bl	AsebaNativePopArg
 3204 0012 0346     		mov	r3, r0
 3205 0014 ADF80C30 		strh	r3, [sp, #12]	@ movhi
 3206              		.loc 2 806 0
 3207 0018 0198     		ldr	r0, [sp, #4]
 3208 001a FFF7FEFF 		bl	AsebaNativePopArg
 3209 001e 0346     		mov	r3, r0
 3210 0020 ADF80E30 		strh	r3, [sp, #14]	@ movhi
 3211              		.loc 2 807 0
 3212 0024 0198     		ldr	r0, [sp, #4]
 3213 0026 FFF7FEFF 		bl	AsebaNativePopArg
 3214 002a 0346     		mov	r3, r0
 3215 002c ADF81030 		strh	r3, [sp, #16]	@ movhi
 3216              		.loc 2 808 0
 3217 0030 0198     		ldr	r0, [sp, #4]
 3218 0032 FFF7FEFF 		bl	AsebaNativePopArg
 3219 0036 0346     		mov	r3, r0
 3220 0038 ADF81230 		strh	r3, [sp, #18]	@ movhi
 3221              		.loc 2 811 0
 3222 003c 0198     		ldr	r0, [sp, #4]
 3223 003e FFF7FEFF 		bl	AsebaNativePopArg
 3224 0042 0346     		mov	r3, r0
 3225 0044 ADF81630 		strh	r3, [sp, #22]	@ movhi
 3226              		.loc 2 814 0
 3227 0048 0023     		movs	r3, #0
 3228 004a ADF81430 		strh	r3, [sp, #20]	@ movhi
 3229 004e 4BE0     		b	.L160
 3230              	.L164:
 3231              	.LBB12:
 3232              		.loc 2 816 0
 3233 0050 019B     		ldr	r3, [sp, #4]
 3234 0052 DA68     		ldr	r2, [r3, #12]
 3235 0054 BDF80E30 		ldrh	r3, [sp, #14]
 3236 0058 591C     		adds	r1, r3, #1
 3237 005a ADF80E10 		strh	r1, [sp, #14]	@ movhi
 3238 005e 5B00     		lsls	r3, r3, #1
 3239 0060 1344     		add	r3, r3, r2
 3240 0062 B3F90030 		ldrsh	r3, [r3]
 3241 0066 0693     		str	r3, [sp, #24]
 3242              		.loc 2 817 0
 3243 0068 019B     		ldr	r3, [sp, #4]
 3244 006a DA68     		ldr	r2, [r3, #12]
 3245 006c BDF81030 		ldrh	r3, [sp, #16]
 3246 0070 591C     		adds	r1, r3, #1
 3247 0072 ADF81010 		strh	r1, [sp, #16]	@ movhi
 3248 0076 5B00     		lsls	r3, r3, #1
 3249 0078 1344     		add	r3, r3, r2
 3250 007a B3F90030 		ldrsh	r3, [r3]
 3251 007e 0793     		str	r3, [sp, #28]
 3252              		.loc 2 818 0
 3253 0080 019B     		ldr	r3, [sp, #4]
 3254 0082 DA68     		ldr	r2, [r3, #12]
ARM GAS  C:\Users\PCHAUT~1\AppData\Local\Temp\ccvICu2w.s 			page 60


 3255 0084 BDF81230 		ldrh	r3, [sp, #18]
 3256 0088 591C     		adds	r1, r3, #1
 3257 008a ADF81210 		strh	r1, [sp, #18]	@ movhi
 3258 008e 5B00     		lsls	r3, r3, #1
 3259 0090 1344     		add	r3, r3, r2
 3260 0092 B3F90030 		ldrsh	r3, [r3]
 3261 0096 0893     		str	r3, [sp, #32]
 3262              		.loc 2 819 0
 3263 0098 089B     		ldr	r3, [sp, #32]
 3264 009a 002B     		cmp	r3, #0
 3265 009c 12D0     		beq	.L161
 3266              		.loc 2 821 0
 3267 009e 069B     		ldr	r3, [sp, #24]
 3268 00a0 079A     		ldr	r2, [sp, #28]
 3269 00a2 02FB03F2 		mul	r2, r2, r3
 3270 00a6 089B     		ldr	r3, [sp, #32]
 3271 00a8 92FBF3F1 		sdiv	r1, r2, r3
 3272 00ac 019B     		ldr	r3, [sp, #4]
 3273 00ae DA68     		ldr	r2, [r3, #12]
 3274 00b0 BDF80C30 		ldrh	r3, [sp, #12]
 3275 00b4 581C     		adds	r0, r3, #1
 3276 00b6 ADF80C00 		strh	r0, [sp, #12]	@ movhi
 3277 00ba 5B00     		lsls	r3, r3, #1
 3278 00bc 1344     		add	r3, r3, r2
 3279 00be 0AB2     		sxth	r2, r1
 3280 00c0 1A80     		strh	r2, [r3]	@ movhi
 3281 00c2 0CE0     		b	.L166
 3282              	.L161:
 3283              		.loc 2 825 0
 3284 00c4 019B     		ldr	r3, [sp, #4]
 3285 00c6 0222     		movs	r2, #2
 3286 00c8 1A83     		strh	r2, [r3, #24]	@ movhi
 3287              		.loc 2 826 0
 3288 00ca 019B     		ldr	r3, [sp, #4]
 3289 00cc 03F11A02 		add	r2, r3, #26
 3290 00d0 0223     		movs	r3, #2
 3291 00d2 49F20701 		movw	r1, #36871
 3292 00d6 0198     		ldr	r0, [sp, #4]
 3293 00d8 FFF7FEFF 		bl	AsebaSendMessage
 3294              		.loc 2 827 0
 3295 00dc 0AE0     		b	.L159
 3296              	.L166:
 3297              	.LBE12:
 3298              		.loc 2 814 0 discriminator 2
 3299 00de BDF81430 		ldrh	r3, [sp, #20]
 3300 00e2 0133     		adds	r3, r3, #1
 3301 00e4 ADF81430 		strh	r3, [sp, #20]	@ movhi
 3302              	.L160:
 3303              		.loc 2 814 0 is_stmt 0 discriminator 1
 3304 00e8 BDF81420 		ldrh	r2, [sp, #20]
 3305 00ec BDF81630 		ldrh	r3, [sp, #22]
 3306 00f0 9A42     		cmp	r2, r3
 3307 00f2 ADD3     		bcc	.L164
 3308              	.L159:
 3309              		.loc 2 830 0 is_stmt 1
 3310 00f4 044B     		ldr	r3, .L167
 3311 00f6 099A     		ldr	r2, [sp, #36]
ARM GAS  C:\Users\PCHAUT~1\AppData\Local\Temp\ccvICu2w.s 			page 61


 3312 00f8 1B68     		ldr	r3, [r3]
 3313 00fa 9A42     		cmp	r2, r3
 3314 00fc 01D0     		beq	.L165
 3315 00fe FFF7FEFF 		bl	__stack_chk_fail
 3316              	.L165:
 3317 0102 0BB0     		add	sp, sp, #44
 3318              		.cfi_def_cfa_offset 4
 3319              		@ sp needed
 3320 0104 5DF804FB 		ldr	pc, [sp], #4
 3321              	.L168:
 3322              		.align	2
 3323              	.L167:
 3324 0108 00000000 		.word	__stack_chk_guard
 3325              		.cfi_endproc
 3326              	.LFE20:
 3327              		.size	AsebaNative_mathmuldiv, .-AsebaNative_mathmuldiv
 3328              		.global	AsebaNativeDescription_mathmuldiv
 3329              		.section	.rodata
 3330 03d6 0000     		.align	2
 3331              	.LC43:
 3332 03d8 6D617468 		.ascii	"math.muldiv\000"
 3332      2E6D756C 
 3332      64697600 
 3333              		.align	2
 3334              	.LC44:
 3335 03e4 70657266 		.ascii	"performs dest = (a*b)/c in 32 bits element by eleme"
 3335      6F726D73 
 3335      20646573 
 3335      74203D20 
 3335      28612A62 
 3336 0417 6E7400   		.ascii	"nt\000"
 3337 041a 0000     		.align	2
 3338              	.LC45:
 3339 041c 6100     		.ascii	"a\000"
 3340 041e 0000     		.align	2
 3341              	.LC46:
 3342 0420 6200     		.ascii	"b\000"
 3343 0422 0000     		.align	2
 3344              	.LC47:
 3345 0424 6300     		.ascii	"c\000"
 3346              		.section	.rodata.AsebaNativeDescription_mathmuldiv,"a",%progbits
 3347              		.align	2
 3348              		.type	AsebaNativeDescription_mathmuldiv, %object
 3349              		.size	AsebaNativeDescription_mathmuldiv, 48
 3350              	AsebaNativeDescription_mathmuldiv:
 3351 0000 D8030000 		.word	.LC43
 3352 0004 E4030000 		.word	.LC44
 3353 0008 FFFF     		.short	-1
 3354 000a 0000     		.space	2
 3355 000c 34000000 		.word	.LC2
 3356 0010 FFFF     		.short	-1
 3357 0012 0000     		.space	2
 3358 0014 1C040000 		.word	.LC45
 3359 0018 FFFF     		.short	-1
 3360 001a 0000     		.space	2
 3361 001c 20040000 		.word	.LC46
 3362 0020 FFFF     		.short	-1
ARM GAS  C:\Users\PCHAUT~1\AppData\Local\Temp\ccvICu2w.s 			page 62


 3363 0022 0000     		.space	2
 3364 0024 24040000 		.word	.LC47
 3365 0028 0000     		.short	0
 3366 002a 0000     		.space	2
 3367 002c 00000000 		.word	0
 3368              		.section	.text.AsebaNative_mathatan2,"ax",%progbits
 3369              		.align	1
 3370              		.p2align 4,,15
 3371              		.global	AsebaNative_mathatan2
 3372              		.syntax unified
 3373              		.thumb
 3374              		.thumb_func
 3375              		.fpu fpv4-sp-d16
 3376              		.type	AsebaNative_mathatan2, %function
 3377              	AsebaNative_mathatan2:
 3378              	.LFB21:
 3379              		.loc 2 846 0
 3380              		.cfi_startproc
 3381              		@ args = 0, pretend = 0, frame = 32
 3382              		@ frame_needed = 0, uses_anonymous_args = 0
 3383 0000 10B5     		push	{r4, lr}
 3384              		.cfi_def_cfa_offset 8
 3385              		.cfi_offset 4, -8
 3386              		.cfi_offset 14, -4
 3387 0002 88B0     		sub	sp, sp, #32
 3388              		.cfi_def_cfa_offset 40
 3389 0004 0190     		str	r0, [sp, #4]
 3390              		.loc 2 846 0
 3391 0006 324B     		ldr	r3, .L173
 3392 0008 1B68     		ldr	r3, [r3]
 3393 000a 0793     		str	r3, [sp, #28]
 3394              		.loc 2 848 0
 3395 000c 0198     		ldr	r0, [sp, #4]
 3396 000e FFF7FEFF 		bl	AsebaNativePopArg
 3397 0012 0346     		mov	r3, r0
 3398 0014 ADF80E30 		strh	r3, [sp, #14]	@ movhi
 3399              		.loc 2 849 0
 3400 0018 0198     		ldr	r0, [sp, #4]
 3401 001a FFF7FEFF 		bl	AsebaNativePopArg
 3402 001e 0346     		mov	r3, r0
 3403 0020 ADF81030 		strh	r3, [sp, #16]	@ movhi
 3404              		.loc 2 850 0
 3405 0024 0198     		ldr	r0, [sp, #4]
 3406 0026 FFF7FEFF 		bl	AsebaNativePopArg
 3407 002a 0346     		mov	r3, r0
 3408 002c ADF81230 		strh	r3, [sp, #18]	@ movhi
 3409              		.loc 2 853 0
 3410 0030 0198     		ldr	r0, [sp, #4]
 3411 0032 FFF7FEFF 		bl	AsebaNativePopArg
 3412 0036 0346     		mov	r3, r0
 3413 0038 ADF81630 		strh	r3, [sp, #22]	@ movhi
 3414              		.loc 2 856 0
 3415 003c 0023     		movs	r3, #0
 3416 003e ADF81430 		strh	r3, [sp, #20]	@ movhi
 3417 0042 35E0     		b	.L170
 3418              	.L171:
 3419              	.LBB13:
ARM GAS  C:\Users\PCHAUT~1\AppData\Local\Temp\ccvICu2w.s 			page 63


 3420              		.loc 2 858 0 discriminator 3
 3421 0044 019B     		ldr	r3, [sp, #4]
 3422 0046 DA68     		ldr	r2, [r3, #12]
 3423 0048 BDF91010 		ldrsh	r1, [sp, #16]
 3424 004c 8BB2     		uxth	r3, r1
 3425 004e 0133     		adds	r3, r3, #1
 3426 0050 9BB2     		uxth	r3, r3
 3427 0052 ADF81030 		strh	r3, [sp, #16]	@ movhi
 3428 0056 0B46     		mov	r3, r1
 3429 0058 5B00     		lsls	r3, r3, #1
 3430 005a 1344     		add	r3, r3, r2
 3431 005c 1B88     		ldrh	r3, [r3]	@ movhi
 3432 005e ADF81830 		strh	r3, [sp, #24]	@ movhi
 3433              		.loc 2 859 0 discriminator 3
 3434 0062 019B     		ldr	r3, [sp, #4]
 3435 0064 DA68     		ldr	r2, [r3, #12]
 3436 0066 BDF91210 		ldrsh	r1, [sp, #18]
 3437 006a 8BB2     		uxth	r3, r1
 3438 006c 0133     		adds	r3, r3, #1
 3439 006e 9BB2     		uxth	r3, r3
 3440 0070 ADF81230 		strh	r3, [sp, #18]	@ movhi
 3441 0074 0B46     		mov	r3, r1
 3442 0076 5B00     		lsls	r3, r3, #1
 3443 0078 1344     		add	r3, r3, r2
 3444 007a 1B88     		ldrh	r3, [r3]	@ movhi
 3445 007c ADF81A30 		strh	r3, [sp, #26]	@ movhi
 3446              		.loc 2 860 0 discriminator 3
 3447 0080 019B     		ldr	r3, [sp, #4]
 3448 0082 DA68     		ldr	r2, [r3, #12]
 3449 0084 BDF80E30 		ldrh	r3, [sp, #14]
 3450 0088 591C     		adds	r1, r3, #1
 3451 008a ADF80E10 		strh	r1, [sp, #14]	@ movhi
 3452 008e 5B00     		lsls	r3, r3, #1
 3453 0090 D418     		adds	r4, r2, r3
 3454 0092 BDF91A20 		ldrsh	r2, [sp, #26]
 3455 0096 BDF91830 		ldrsh	r3, [sp, #24]
 3456 009a 1146     		mov	r1, r2
 3457 009c 1846     		mov	r0, r3
 3458 009e FFF7FEFF 		bl	aseba_atan2
 3459 00a2 0346     		mov	r3, r0
 3460 00a4 2380     		strh	r3, [r4]	@ movhi
 3461              	.LBE13:
 3462              		.loc 2 856 0 discriminator 3
 3463 00a6 BDF81430 		ldrh	r3, [sp, #20]
 3464 00aa 0133     		adds	r3, r3, #1
 3465 00ac ADF81430 		strh	r3, [sp, #20]	@ movhi
 3466              	.L170:
 3467              		.loc 2 856 0 is_stmt 0 discriminator 1
 3468 00b0 BDF81420 		ldrh	r2, [sp, #20]
 3469 00b4 BDF81630 		ldrh	r3, [sp, #22]
 3470 00b8 9A42     		cmp	r2, r3
 3471 00ba C3D3     		bcc	.L171
 3472              		.loc 2 862 0 is_stmt 1
 3473 00bc 00BF     		nop
 3474 00be 044B     		ldr	r3, .L173
 3475 00c0 079A     		ldr	r2, [sp, #28]
 3476 00c2 1B68     		ldr	r3, [r3]
ARM GAS  C:\Users\PCHAUT~1\AppData\Local\Temp\ccvICu2w.s 			page 64


 3477 00c4 9A42     		cmp	r2, r3
 3478 00c6 01D0     		beq	.L172
 3479 00c8 FFF7FEFF 		bl	__stack_chk_fail
 3480              	.L172:
 3481 00cc 08B0     		add	sp, sp, #32
 3482              		.cfi_def_cfa_offset 8
 3483              		@ sp needed
 3484 00ce 10BD     		pop	{r4, pc}
 3485              	.L174:
 3486              		.align	2
 3487              	.L173:
 3488 00d0 00000000 		.word	__stack_chk_guard
 3489              		.cfi_endproc
 3490              	.LFE21:
 3491              		.size	AsebaNative_mathatan2, .-AsebaNative_mathatan2
 3492              		.global	AsebaNativeDescription_mathatan2
 3493              		.section	.rodata
 3494 0426 0000     		.align	2
 3495              	.LC48:
 3496 0428 6D617468 		.ascii	"math.atan2\000"
 3496      2E617461 
 3496      6E3200
 3497 0433 00       		.align	2
 3498              	.LC49:
 3499 0434 70657266 		.ascii	"performs dest = atan2(y,x) element by element\000"
 3499      6F726D73 
 3499      20646573 
 3499      74203D20 
 3499      6174616E 
 3500 0462 0000     		.align	2
 3501              	.LC50:
 3502 0464 7900     		.ascii	"y\000"
 3503 0466 0000     		.align	2
 3504              	.LC51:
 3505 0468 7800     		.ascii	"x\000"
 3506              		.section	.rodata.AsebaNativeDescription_mathatan2,"a",%progbits
 3507              		.align	2
 3508              		.type	AsebaNativeDescription_mathatan2, %object
 3509              		.size	AsebaNativeDescription_mathatan2, 40
 3510              	AsebaNativeDescription_mathatan2:
 3511 0000 28040000 		.word	.LC48
 3512 0004 34040000 		.word	.LC49
 3513 0008 FFFF     		.short	-1
 3514 000a 0000     		.space	2
 3515 000c 34000000 		.word	.LC2
 3516 0010 FFFF     		.short	-1
 3517 0012 0000     		.space	2
 3518 0014 64040000 		.word	.LC50
 3519 0018 FFFF     		.short	-1
 3520 001a 0000     		.space	2
 3521 001c 68040000 		.word	.LC51
 3522 0020 0000     		.short	0
 3523 0022 0000     		.space	2
 3524 0024 00000000 		.word	0
 3525              		.section	.text.AsebaNative_mathsin,"ax",%progbits
 3526              		.align	1
 3527              		.p2align 4,,15
ARM GAS  C:\Users\PCHAUT~1\AppData\Local\Temp\ccvICu2w.s 			page 65


 3528              		.global	AsebaNative_mathsin
 3529              		.syntax unified
 3530              		.thumb
 3531              		.thumb_func
 3532              		.fpu fpv4-sp-d16
 3533              		.type	AsebaNative_mathsin, %function
 3534              	AsebaNative_mathsin:
 3535              	.LFB22:
 3536              		.loc 2 877 0
 3537              		.cfi_startproc
 3538              		@ args = 0, pretend = 0, frame = 24
 3539              		@ frame_needed = 0, uses_anonymous_args = 0
 3540 0000 10B5     		push	{r4, lr}
 3541              		.cfi_def_cfa_offset 8
 3542              		.cfi_offset 4, -8
 3543              		.cfi_offset 14, -4
 3544 0002 86B0     		sub	sp, sp, #24
 3545              		.cfi_def_cfa_offset 32
 3546 0004 0190     		str	r0, [sp, #4]
 3547              		.loc 2 877 0
 3548 0006 264B     		ldr	r3, .L179
 3549 0008 1B68     		ldr	r3, [r3]
 3550 000a 0593     		str	r3, [sp, #20]
 3551              		.loc 2 879 0
 3552 000c 0198     		ldr	r0, [sp, #4]
 3553 000e FFF7FEFF 		bl	AsebaNativePopArg
 3554 0012 0346     		mov	r3, r0
 3555 0014 ADF80A30 		strh	r3, [sp, #10]	@ movhi
 3556              		.loc 2 880 0
 3557 0018 0198     		ldr	r0, [sp, #4]
 3558 001a FFF7FEFF 		bl	AsebaNativePopArg
 3559 001e 0346     		mov	r3, r0
 3560 0020 ADF80C30 		strh	r3, [sp, #12]	@ movhi
 3561              		.loc 2 883 0
 3562 0024 0198     		ldr	r0, [sp, #4]
 3563 0026 FFF7FEFF 		bl	AsebaNativePopArg
 3564 002a 0346     		mov	r3, r0
 3565 002c ADF81030 		strh	r3, [sp, #16]	@ movhi
 3566              		.loc 2 886 0
 3567 0030 0023     		movs	r3, #0
 3568 0032 ADF80E30 		strh	r3, [sp, #14]	@ movhi
 3569 0036 23E0     		b	.L176
 3570              	.L177:
 3571              	.LBB14:
 3572              		.loc 2 888 0 discriminator 3
 3573 0038 019B     		ldr	r3, [sp, #4]
 3574 003a DA68     		ldr	r2, [r3, #12]
 3575 003c BDF90C10 		ldrsh	r1, [sp, #12]
 3576 0040 8BB2     		uxth	r3, r1
 3577 0042 0133     		adds	r3, r3, #1
 3578 0044 9BB2     		uxth	r3, r3
 3579 0046 ADF80C30 		strh	r3, [sp, #12]	@ movhi
 3580 004a 0B46     		mov	r3, r1
 3581 004c 5B00     		lsls	r3, r3, #1
 3582 004e 1344     		add	r3, r3, r2
 3583 0050 1B88     		ldrh	r3, [r3]	@ movhi
 3584 0052 ADF81230 		strh	r3, [sp, #18]	@ movhi
ARM GAS  C:\Users\PCHAUT~1\AppData\Local\Temp\ccvICu2w.s 			page 66


 3585              		.loc 2 889 0 discriminator 3
 3586 0056 019B     		ldr	r3, [sp, #4]
 3587 0058 DA68     		ldr	r2, [r3, #12]
 3588 005a BDF80A30 		ldrh	r3, [sp, #10]
 3589 005e 591C     		adds	r1, r3, #1
 3590 0060 ADF80A10 		strh	r1, [sp, #10]	@ movhi
 3591 0064 5B00     		lsls	r3, r3, #1
 3592 0066 D418     		adds	r4, r2, r3
 3593 0068 BDF91230 		ldrsh	r3, [sp, #18]
 3594 006c 1846     		mov	r0, r3
 3595 006e FFF7FEFF 		bl	aseba_sin
 3596 0072 0346     		mov	r3, r0
 3597 0074 2380     		strh	r3, [r4]	@ movhi
 3598              	.LBE14:
 3599              		.loc 2 886 0 discriminator 3
 3600 0076 BDF80E30 		ldrh	r3, [sp, #14]
 3601 007a 0133     		adds	r3, r3, #1
 3602 007c ADF80E30 		strh	r3, [sp, #14]	@ movhi
 3603              	.L176:
 3604              		.loc 2 886 0 is_stmt 0 discriminator 1
 3605 0080 BDF80E20 		ldrh	r2, [sp, #14]
 3606 0084 BDF81030 		ldrh	r3, [sp, #16]
 3607 0088 9A42     		cmp	r2, r3
 3608 008a D5D3     		bcc	.L177
 3609              		.loc 2 891 0 is_stmt 1
 3610 008c 00BF     		nop
 3611 008e 044B     		ldr	r3, .L179
 3612 0090 059A     		ldr	r2, [sp, #20]
 3613 0092 1B68     		ldr	r3, [r3]
 3614 0094 9A42     		cmp	r2, r3
 3615 0096 01D0     		beq	.L178
 3616 0098 FFF7FEFF 		bl	__stack_chk_fail
 3617              	.L178:
 3618 009c 06B0     		add	sp, sp, #24
 3619              		.cfi_def_cfa_offset 8
 3620              		@ sp needed
 3621 009e 10BD     		pop	{r4, pc}
 3622              	.L180:
 3623              		.align	2
 3624              	.L179:
 3625 00a0 00000000 		.word	__stack_chk_guard
 3626              		.cfi_endproc
 3627              	.LFE22:
 3628              		.size	AsebaNative_mathsin, .-AsebaNative_mathsin
 3629              		.global	AsebaNativeDescription_mathsin
 3630              		.section	.rodata
 3631 046a 0000     		.align	2
 3632              	.LC52:
 3633 046c 6D617468 		.ascii	"math.sin\000"
 3633      2E73696E 
 3633      00
 3634 0475 000000   		.align	2
 3635              	.LC53:
 3636 0478 70657266 		.ascii	"performs dest = sin(x) element by element\000"
 3636      6F726D73 
 3636      20646573 
 3636      74203D20 
ARM GAS  C:\Users\PCHAUT~1\AppData\Local\Temp\ccvICu2w.s 			page 67


 3636      73696E28 
 3637              		.section	.rodata.AsebaNativeDescription_mathsin,"a",%progbits
 3638              		.align	2
 3639              		.type	AsebaNativeDescription_mathsin, %object
 3640              		.size	AsebaNativeDescription_mathsin, 32
 3641              	AsebaNativeDescription_mathsin:
 3642 0000 6C040000 		.word	.LC52
 3643 0004 78040000 		.word	.LC53
 3644 0008 FFFF     		.short	-1
 3645 000a 0000     		.space	2
 3646 000c 34000000 		.word	.LC2
 3647 0010 FFFF     		.short	-1
 3648 0012 0000     		.space	2
 3649 0014 68040000 		.word	.LC51
 3650 0018 0000     		.short	0
 3651 001a 0000     		.space	2
 3652 001c 00000000 		.word	0
 3653              		.section	.text.AsebaNative_mathcos,"ax",%progbits
 3654              		.align	1
 3655              		.p2align 4,,15
 3656              		.global	AsebaNative_mathcos
 3657              		.syntax unified
 3658              		.thumb
 3659              		.thumb_func
 3660              		.fpu fpv4-sp-d16
 3661              		.type	AsebaNative_mathcos, %function
 3662              	AsebaNative_mathcos:
 3663              	.LFB23:
 3664              		.loc 2 905 0
 3665              		.cfi_startproc
 3666              		@ args = 0, pretend = 0, frame = 24
 3667              		@ frame_needed = 0, uses_anonymous_args = 0
 3668 0000 10B5     		push	{r4, lr}
 3669              		.cfi_def_cfa_offset 8
 3670              		.cfi_offset 4, -8
 3671              		.cfi_offset 14, -4
 3672 0002 86B0     		sub	sp, sp, #24
 3673              		.cfi_def_cfa_offset 32
 3674 0004 0190     		str	r0, [sp, #4]
 3675              		.loc 2 905 0
 3676 0006 264B     		ldr	r3, .L185
 3677 0008 1B68     		ldr	r3, [r3]
 3678 000a 0593     		str	r3, [sp, #20]
 3679              		.loc 2 907 0
 3680 000c 0198     		ldr	r0, [sp, #4]
 3681 000e FFF7FEFF 		bl	AsebaNativePopArg
 3682 0012 0346     		mov	r3, r0
 3683 0014 ADF80A30 		strh	r3, [sp, #10]	@ movhi
 3684              		.loc 2 908 0
 3685 0018 0198     		ldr	r0, [sp, #4]
 3686 001a FFF7FEFF 		bl	AsebaNativePopArg
 3687 001e 0346     		mov	r3, r0
 3688 0020 ADF80C30 		strh	r3, [sp, #12]	@ movhi
 3689              		.loc 2 911 0
 3690 0024 0198     		ldr	r0, [sp, #4]
 3691 0026 FFF7FEFF 		bl	AsebaNativePopArg
 3692 002a 0346     		mov	r3, r0
ARM GAS  C:\Users\PCHAUT~1\AppData\Local\Temp\ccvICu2w.s 			page 68


 3693 002c ADF81030 		strh	r3, [sp, #16]	@ movhi
 3694              		.loc 2 914 0
 3695 0030 0023     		movs	r3, #0
 3696 0032 ADF80E30 		strh	r3, [sp, #14]	@ movhi
 3697 0036 23E0     		b	.L182
 3698              	.L183:
 3699              	.LBB15:
 3700              		.loc 2 916 0 discriminator 3
 3701 0038 019B     		ldr	r3, [sp, #4]
 3702 003a DA68     		ldr	r2, [r3, #12]
 3703 003c BDF90C10 		ldrsh	r1, [sp, #12]
 3704 0040 8BB2     		uxth	r3, r1
 3705 0042 0133     		adds	r3, r3, #1
 3706 0044 9BB2     		uxth	r3, r3
 3707 0046 ADF80C30 		strh	r3, [sp, #12]	@ movhi
 3708 004a 0B46     		mov	r3, r1
 3709 004c 5B00     		lsls	r3, r3, #1
 3710 004e 1344     		add	r3, r3, r2
 3711 0050 1B88     		ldrh	r3, [r3]	@ movhi
 3712 0052 ADF81230 		strh	r3, [sp, #18]	@ movhi
 3713              		.loc 2 917 0 discriminator 3
 3714 0056 019B     		ldr	r3, [sp, #4]
 3715 0058 DA68     		ldr	r2, [r3, #12]
 3716 005a BDF80A30 		ldrh	r3, [sp, #10]
 3717 005e 591C     		adds	r1, r3, #1
 3718 0060 ADF80A10 		strh	r1, [sp, #10]	@ movhi
 3719 0064 5B00     		lsls	r3, r3, #1
 3720 0066 D418     		adds	r4, r2, r3
 3721 0068 BDF91230 		ldrsh	r3, [sp, #18]
 3722 006c 1846     		mov	r0, r3
 3723 006e FFF7FEFF 		bl	aseba_cos
 3724 0072 0346     		mov	r3, r0
 3725 0074 2380     		strh	r3, [r4]	@ movhi
 3726              	.LBE15:
 3727              		.loc 2 914 0 discriminator 3
 3728 0076 BDF80E30 		ldrh	r3, [sp, #14]
 3729 007a 0133     		adds	r3, r3, #1
 3730 007c ADF80E30 		strh	r3, [sp, #14]	@ movhi
 3731              	.L182:
 3732              		.loc 2 914 0 is_stmt 0 discriminator 1
 3733 0080 BDF80E20 		ldrh	r2, [sp, #14]
 3734 0084 BDF81030 		ldrh	r3, [sp, #16]
 3735 0088 9A42     		cmp	r2, r3
 3736 008a D5D3     		bcc	.L183
 3737              		.loc 2 919 0 is_stmt 1
 3738 008c 00BF     		nop
 3739 008e 044B     		ldr	r3, .L185
 3740 0090 059A     		ldr	r2, [sp, #20]
 3741 0092 1B68     		ldr	r3, [r3]
 3742 0094 9A42     		cmp	r2, r3
 3743 0096 01D0     		beq	.L184
 3744 0098 FFF7FEFF 		bl	__stack_chk_fail
 3745              	.L184:
 3746 009c 06B0     		add	sp, sp, #24
 3747              		.cfi_def_cfa_offset 8
 3748              		@ sp needed
 3749 009e 10BD     		pop	{r4, pc}
ARM GAS  C:\Users\PCHAUT~1\AppData\Local\Temp\ccvICu2w.s 			page 69


 3750              	.L186:
 3751              		.align	2
 3752              	.L185:
 3753 00a0 00000000 		.word	__stack_chk_guard
 3754              		.cfi_endproc
 3755              	.LFE23:
 3756              		.size	AsebaNative_mathcos, .-AsebaNative_mathcos
 3757              		.global	AsebaNativeDescription_mathcos
 3758              		.section	.rodata
 3759 04a2 0000     		.align	2
 3760              	.LC54:
 3761 04a4 6D617468 		.ascii	"math.cos\000"
 3761      2E636F73 
 3761      00
 3762 04ad 000000   		.align	2
 3763              	.LC55:
 3764 04b0 70657266 		.ascii	"performs dest = cos(x) element by element\000"
 3764      6F726D73 
 3764      20646573 
 3764      74203D20 
 3764      636F7328 
 3765              		.section	.rodata.AsebaNativeDescription_mathcos,"a",%progbits
 3766              		.align	2
 3767              		.type	AsebaNativeDescription_mathcos, %object
 3768              		.size	AsebaNativeDescription_mathcos, 32
 3769              	AsebaNativeDescription_mathcos:
 3770 0000 A4040000 		.word	.LC54
 3771 0004 B0040000 		.word	.LC55
 3772 0008 FFFF     		.short	-1
 3773 000a 0000     		.space	2
 3774 000c 34000000 		.word	.LC2
 3775 0010 FFFF     		.short	-1
 3776 0012 0000     		.space	2
 3777 0014 68040000 		.word	.LC51
 3778 0018 0000     		.short	0
 3779 001a 0000     		.space	2
 3780 001c 00000000 		.word	0
 3781              		.section	.text.AsebaNative_mathrot2,"ax",%progbits
 3782              		.align	1
 3783              		.p2align 4,,15
 3784              		.global	AsebaNative_mathrot2
 3785              		.syntax unified
 3786              		.thumb
 3787              		.thumb_func
 3788              		.fpu fpv4-sp-d16
 3789              		.type	AsebaNative_mathrot2, %function
 3790              	AsebaNative_mathrot2:
 3791              	.LFB24:
 3792              		.loc 2 933 0
 3793              		.cfi_startproc
 3794              		@ args = 0, pretend = 0, frame = 32
 3795              		@ frame_needed = 0, uses_anonymous_args = 0
 3796 0000 00B5     		push	{lr}
 3797              		.cfi_def_cfa_offset 4
 3798              		.cfi_offset 14, -4
 3799 0002 89B0     		sub	sp, sp, #36
 3800              		.cfi_def_cfa_offset 40
ARM GAS  C:\Users\PCHAUT~1\AppData\Local\Temp\ccvICu2w.s 			page 70


 3801 0004 0190     		str	r0, [sp, #4]
 3802              		.loc 2 933 0
 3803 0006 3F4B     		ldr	r3, .L189
 3804 0008 1B68     		ldr	r3, [r3]
 3805 000a 0793     		str	r3, [sp, #28]
 3806              		.loc 2 935 0
 3807 000c 0198     		ldr	r0, [sp, #4]
 3808 000e FFF7FEFF 		bl	AsebaNativePopArg
 3809 0012 0346     		mov	r3, r0
 3810 0014 ADF80830 		strh	r3, [sp, #8]	@ movhi
 3811              		.loc 2 936 0
 3812 0018 0198     		ldr	r0, [sp, #4]
 3813 001a FFF7FEFF 		bl	AsebaNativePopArg
 3814 001e 0346     		mov	r3, r0
 3815 0020 ADF80A30 		strh	r3, [sp, #10]	@ movhi
 3816              		.loc 2 937 0
 3817 0024 0198     		ldr	r0, [sp, #4]
 3818 0026 FFF7FEFF 		bl	AsebaNativePopArg
 3819 002a 0346     		mov	r3, r0
 3820 002c ADF80C30 		strh	r3, [sp, #12]	@ movhi
 3821              		.loc 2 940 0
 3822 0030 019B     		ldr	r3, [sp, #4]
 3823 0032 DA68     		ldr	r2, [r3, #12]
 3824 0034 BDF80A30 		ldrh	r3, [sp, #10]
 3825 0038 5B00     		lsls	r3, r3, #1
 3826 003a 1344     		add	r3, r3, r2
 3827 003c 1B88     		ldrh	r3, [r3]	@ movhi
 3828 003e ADF80E30 		strh	r3, [sp, #14]	@ movhi
 3829              		.loc 2 941 0
 3830 0042 019B     		ldr	r3, [sp, #4]
 3831 0044 DA68     		ldr	r2, [r3, #12]
 3832 0046 BDF80A30 		ldrh	r3, [sp, #10]
 3833 004a 0133     		adds	r3, r3, #1
 3834 004c 5B00     		lsls	r3, r3, #1
 3835 004e 1344     		add	r3, r3, r2
 3836 0050 1B88     		ldrh	r3, [r3]	@ movhi
 3837 0052 ADF81030 		strh	r3, [sp, #16]	@ movhi
 3838              		.loc 2 942 0
 3839 0056 019B     		ldr	r3, [sp, #4]
 3840 0058 DA68     		ldr	r2, [r3, #12]
 3841 005a BDF80C30 		ldrh	r3, [sp, #12]
 3842 005e 5B00     		lsls	r3, r3, #1
 3843 0060 1344     		add	r3, r3, r2
 3844 0062 1B88     		ldrh	r3, [r3]	@ movhi
 3845 0064 ADF81230 		strh	r3, [sp, #18]	@ movhi
 3846              		.loc 2 944 0
 3847 0068 BDF91230 		ldrsh	r3, [sp, #18]
 3848 006c 1846     		mov	r0, r3
 3849 006e FFF7FEFF 		bl	aseba_cos
 3850 0072 0346     		mov	r3, r0
 3851 0074 ADF81430 		strh	r3, [sp, #20]	@ movhi
 3852              		.loc 2 945 0
 3853 0078 BDF91230 		ldrsh	r3, [sp, #18]
 3854 007c 1846     		mov	r0, r3
 3855 007e FFF7FEFF 		bl	aseba_sin
 3856 0082 0346     		mov	r3, r0
 3857 0084 ADF81630 		strh	r3, [sp, #22]	@ movhi
ARM GAS  C:\Users\PCHAUT~1\AppData\Local\Temp\ccvICu2w.s 			page 71


 3858              		.loc 2 947 0
 3859 0088 BDF91430 		ldrsh	r3, [sp, #20]
 3860 008c BDF90E20 		ldrsh	r2, [sp, #14]
 3861 0090 02FB03F2 		mul	r2, r2, r3
 3862 0094 BDF91630 		ldrsh	r3, [sp, #22]
 3863 0098 BDF91010 		ldrsh	r1, [sp, #16]
 3864 009c 01FB03F3 		mul	r3, r1, r3
 3865 00a0 D31A     		subs	r3, r2, r3
 3866 00a2 DB13     		asrs	r3, r3, #15
 3867 00a4 ADF81830 		strh	r3, [sp, #24]	@ movhi
 3868              		.loc 2 948 0
 3869 00a8 BDF91430 		ldrsh	r3, [sp, #20]
 3870 00ac BDF91020 		ldrsh	r2, [sp, #16]
 3871 00b0 02FB03F2 		mul	r2, r2, r3
 3872 00b4 BDF91630 		ldrsh	r3, [sp, #22]
 3873 00b8 BDF90E10 		ldrsh	r1, [sp, #14]
 3874 00bc 01FB03F3 		mul	r3, r1, r3
 3875 00c0 1344     		add	r3, r3, r2
 3876 00c2 DB13     		asrs	r3, r3, #15
 3877 00c4 ADF81A30 		strh	r3, [sp, #26]	@ movhi
 3878              		.loc 2 950 0
 3879 00c8 019B     		ldr	r3, [sp, #4]
 3880 00ca DA68     		ldr	r2, [r3, #12]
 3881 00cc BDF80830 		ldrh	r3, [sp, #8]
 3882 00d0 5B00     		lsls	r3, r3, #1
 3883 00d2 1344     		add	r3, r3, r2
 3884 00d4 BDF81820 		ldrh	r2, [sp, #24]	@ movhi
 3885 00d8 1A80     		strh	r2, [r3]	@ movhi
 3886              		.loc 2 951 0
 3887 00da 019B     		ldr	r3, [sp, #4]
 3888 00dc DA68     		ldr	r2, [r3, #12]
 3889 00de BDF80830 		ldrh	r3, [sp, #8]
 3890 00e2 0133     		adds	r3, r3, #1
 3891 00e4 5B00     		lsls	r3, r3, #1
 3892 00e6 1344     		add	r3, r3, r2
 3893 00e8 BDF81A20 		ldrh	r2, [sp, #26]	@ movhi
 3894 00ec 1A80     		strh	r2, [r3]	@ movhi
 3895              		.loc 2 952 0
 3896 00ee 00BF     		nop
 3897 00f0 044B     		ldr	r3, .L189
 3898 00f2 079A     		ldr	r2, [sp, #28]
 3899 00f4 1B68     		ldr	r3, [r3]
 3900 00f6 9A42     		cmp	r2, r3
 3901 00f8 01D0     		beq	.L188
 3902 00fa FFF7FEFF 		bl	__stack_chk_fail
 3903              	.L188:
 3904 00fe 09B0     		add	sp, sp, #36
 3905              		.cfi_def_cfa_offset 4
 3906              		@ sp needed
 3907 0100 5DF804FB 		ldr	pc, [sp], #4
 3908              	.L190:
 3909              		.align	2
 3910              	.L189:
 3911 0104 00000000 		.word	__stack_chk_guard
 3912              		.cfi_endproc
 3913              	.LFE24:
 3914              		.size	AsebaNative_mathrot2, .-AsebaNative_mathrot2
ARM GAS  C:\Users\PCHAUT~1\AppData\Local\Temp\ccvICu2w.s 			page 72


 3915              		.global	AsebaNativeDescription_mathrot2
 3916              		.section	.rodata
 3917 04da 0000     		.align	2
 3918              	.LC56:
 3919 04dc 6D617468 		.ascii	"math.rot2\000"
 3919      2E726F74 
 3919      3200
 3920 04e6 0000     		.align	2
 3921              	.LC57:
 3922 04e8 726F7461 		.ascii	"rotates v of angle a to dest\000"
 3922      74657320 
 3922      76206F66 
 3922      20616E67 
 3922      6C652061 
 3923 0505 000000   		.align	2
 3924              	.LC58:
 3925 0508 7600     		.ascii	"v\000"
 3926              		.section	.rodata.AsebaNativeDescription_mathrot2,"a",%progbits
 3927              		.align	2
 3928              		.type	AsebaNativeDescription_mathrot2, %object
 3929              		.size	AsebaNativeDescription_mathrot2, 40
 3930              	AsebaNativeDescription_mathrot2:
 3931 0000 DC040000 		.word	.LC56
 3932 0004 E8040000 		.word	.LC57
 3933 0008 0200     		.short	2
 3934 000a 0000     		.space	2
 3935 000c 34000000 		.word	.LC2
 3936 0010 0200     		.short	2
 3937 0012 0000     		.space	2
 3938 0014 08050000 		.word	.LC58
 3939 0018 0100     		.short	1
 3940 001a 0000     		.space	2
 3941 001c 1C040000 		.word	.LC45
 3942 0020 0000     		.short	0
 3943 0022 0000     		.space	2
 3944 0024 00000000 		.word	0
 3945              		.section	.text.AsebaNative_mathsqrt,"ax",%progbits
 3946              		.align	1
 3947              		.p2align 4,,15
 3948              		.global	AsebaNative_mathsqrt
 3949              		.syntax unified
 3950              		.thumb
 3951              		.thumb_func
 3952              		.fpu fpv4-sp-d16
 3953              		.type	AsebaNative_mathsqrt, %function
 3954              	AsebaNative_mathsqrt:
 3955              	.LFB25:
 3956              		.loc 2 967 0
 3957              		.cfi_startproc
 3958              		@ args = 0, pretend = 0, frame = 24
 3959              		@ frame_needed = 0, uses_anonymous_args = 0
 3960 0000 10B5     		push	{r4, lr}
 3961              		.cfi_def_cfa_offset 8
 3962              		.cfi_offset 4, -8
 3963              		.cfi_offset 14, -4
 3964 0002 86B0     		sub	sp, sp, #24
 3965              		.cfi_def_cfa_offset 32
ARM GAS  C:\Users\PCHAUT~1\AppData\Local\Temp\ccvICu2w.s 			page 73


 3966 0004 0190     		str	r0, [sp, #4]
 3967              		.loc 2 967 0
 3968 0006 264B     		ldr	r3, .L195
 3969 0008 1B68     		ldr	r3, [r3]
 3970 000a 0593     		str	r3, [sp, #20]
 3971              		.loc 2 969 0
 3972 000c 0198     		ldr	r0, [sp, #4]
 3973 000e FFF7FEFF 		bl	AsebaNativePopArg
 3974 0012 0346     		mov	r3, r0
 3975 0014 ADF80A30 		strh	r3, [sp, #10]	@ movhi
 3976              		.loc 2 970 0
 3977 0018 0198     		ldr	r0, [sp, #4]
 3978 001a FFF7FEFF 		bl	AsebaNativePopArg
 3979 001e 0346     		mov	r3, r0
 3980 0020 ADF80C30 		strh	r3, [sp, #12]	@ movhi
 3981              		.loc 2 973 0
 3982 0024 0198     		ldr	r0, [sp, #4]
 3983 0026 FFF7FEFF 		bl	AsebaNativePopArg
 3984 002a 0346     		mov	r3, r0
 3985 002c ADF81030 		strh	r3, [sp, #16]	@ movhi
 3986              		.loc 2 976 0
 3987 0030 0023     		movs	r3, #0
 3988 0032 ADF80E30 		strh	r3, [sp, #14]	@ movhi
 3989 0036 23E0     		b	.L192
 3990              	.L193:
 3991              	.LBB16:
 3992              		.loc 2 978 0 discriminator 3
 3993 0038 019B     		ldr	r3, [sp, #4]
 3994 003a DA68     		ldr	r2, [r3, #12]
 3995 003c BDF90C10 		ldrsh	r1, [sp, #12]
 3996 0040 8BB2     		uxth	r3, r1
 3997 0042 0133     		adds	r3, r3, #1
 3998 0044 9BB2     		uxth	r3, r3
 3999 0046 ADF80C30 		strh	r3, [sp, #12]	@ movhi
 4000 004a 0B46     		mov	r3, r1
 4001 004c 5B00     		lsls	r3, r3, #1
 4002 004e 1344     		add	r3, r3, r2
 4003 0050 1B88     		ldrh	r3, [r3]	@ movhi
 4004 0052 ADF81230 		strh	r3, [sp, #18]	@ movhi
 4005              		.loc 2 979 0 discriminator 3
 4006 0056 019B     		ldr	r3, [sp, #4]
 4007 0058 DA68     		ldr	r2, [r3, #12]
 4008 005a BDF80A30 		ldrh	r3, [sp, #10]
 4009 005e 591C     		adds	r1, r3, #1
 4010 0060 ADF80A10 		strh	r1, [sp, #10]	@ movhi
 4011 0064 5B00     		lsls	r3, r3, #1
 4012 0066 D418     		adds	r4, r2, r3
 4013 0068 BDF91230 		ldrsh	r3, [sp, #18]
 4014 006c 1846     		mov	r0, r3
 4015 006e FFF7FEFF 		bl	aseba_sqrt
 4016 0072 0346     		mov	r3, r0
 4017 0074 2380     		strh	r3, [r4]	@ movhi
 4018              	.LBE16:
 4019              		.loc 2 976 0 discriminator 3
 4020 0076 BDF80E30 		ldrh	r3, [sp, #14]
 4021 007a 0133     		adds	r3, r3, #1
 4022 007c ADF80E30 		strh	r3, [sp, #14]	@ movhi
ARM GAS  C:\Users\PCHAUT~1\AppData\Local\Temp\ccvICu2w.s 			page 74


 4023              	.L192:
 4024              		.loc 2 976 0 is_stmt 0 discriminator 1
 4025 0080 BDF80E20 		ldrh	r2, [sp, #14]
 4026 0084 BDF81030 		ldrh	r3, [sp, #16]
 4027 0088 9A42     		cmp	r2, r3
 4028 008a D5D3     		bcc	.L193
 4029              		.loc 2 981 0 is_stmt 1
 4030 008c 00BF     		nop
 4031 008e 044B     		ldr	r3, .L195
 4032 0090 059A     		ldr	r2, [sp, #20]
 4033 0092 1B68     		ldr	r3, [r3]
 4034 0094 9A42     		cmp	r2, r3
 4035 0096 01D0     		beq	.L194
 4036 0098 FFF7FEFF 		bl	__stack_chk_fail
 4037              	.L194:
 4038 009c 06B0     		add	sp, sp, #24
 4039              		.cfi_def_cfa_offset 8
 4040              		@ sp needed
 4041 009e 10BD     		pop	{r4, pc}
 4042              	.L196:
 4043              		.align	2
 4044              	.L195:
 4045 00a0 00000000 		.word	__stack_chk_guard
 4046              		.cfi_endproc
 4047              	.LFE25:
 4048              		.size	AsebaNative_mathsqrt, .-AsebaNative_mathsqrt
 4049              		.global	AsebaNativeDescription_mathsqrt
 4050              		.section	.rodata
 4051 050a 0000     		.align	2
 4052              	.LC59:
 4053 050c 6D617468 		.ascii	"math.sqrt\000"
 4053      2E737172 
 4053      7400
 4054 0516 0000     		.align	2
 4055              	.LC60:
 4056 0518 70657266 		.ascii	"performs dest = sqrt(x) element by element\000"
 4056      6F726D73 
 4056      20646573 
 4056      74203D20 
 4056      73717274 
 4057              		.section	.rodata.AsebaNativeDescription_mathsqrt,"a",%progbits
 4058              		.align	2
 4059              		.type	AsebaNativeDescription_mathsqrt, %object
 4060              		.size	AsebaNativeDescription_mathsqrt, 32
 4061              	AsebaNativeDescription_mathsqrt:
 4062 0000 0C050000 		.word	.LC59
 4063 0004 18050000 		.word	.LC60
 4064 0008 FFFF     		.short	-1
 4065 000a 0000     		.space	2
 4066 000c 34000000 		.word	.LC2
 4067 0010 FFFF     		.short	-1
 4068 0012 0000     		.space	2
 4069 0014 68040000 		.word	.LC51
 4070 0018 0000     		.short	0
 4071 001a 0000     		.space	2
 4072 001c 00000000 		.word	0
 4073              		.section	.text.AsebaNative_vecnonzerosequence,"ax",%progbits
ARM GAS  C:\Users\PCHAUT~1\AppData\Local\Temp\ccvICu2w.s 			page 75


 4074              		.align	1
 4075              		.p2align 4,,15
 4076              		.global	AsebaNative_vecnonzerosequence
 4077              		.syntax unified
 4078              		.thumb
 4079              		.thumb_func
 4080              		.fpu fpv4-sp-d16
 4081              		.type	AsebaNative_vecnonzerosequence, %function
 4082              	AsebaNative_vecnonzerosequence:
 4083              	.LFB26:
 4084              		.loc 2 995 0
 4085              		.cfi_startproc
 4086              		@ args = 0, pretend = 0, frame = 40
 4087              		@ frame_needed = 0, uses_anonymous_args = 0
 4088 0000 10B5     		push	{r4, lr}
 4089              		.cfi_def_cfa_offset 8
 4090              		.cfi_offset 4, -8
 4091              		.cfi_offset 14, -4
 4092 0002 8AB0     		sub	sp, sp, #40
 4093              		.cfi_def_cfa_offset 48
 4094 0004 0190     		str	r0, [sp, #4]
 4095              		.loc 2 995 0
 4096 0006 A14B     		ldr	r3, .L220
 4097 0008 1B68     		ldr	r3, [r3]
 4098 000a 0993     		str	r3, [sp, #36]
 4099              		.loc 2 997 0
 4100 000c 0198     		ldr	r0, [sp, #4]
 4101 000e FFF7FEFF 		bl	AsebaNativePopArg
 4102 0012 0346     		mov	r3, r0
 4103 0014 ADF81230 		strh	r3, [sp, #18]	@ movhi
 4104              		.loc 2 998 0
 4105 0018 0198     		ldr	r0, [sp, #4]
 4106 001a FFF7FEFF 		bl	AsebaNativePopArg
 4107 001e 0346     		mov	r3, r0
 4108 0020 ADF81430 		strh	r3, [sp, #20]	@ movhi
 4109              		.loc 2 999 0
 4110 0024 0198     		ldr	r0, [sp, #4]
 4111 0026 FFF7FEFF 		bl	AsebaNativePopArg
 4112 002a 0346     		mov	r3, r0
 4113 002c ADF81630 		strh	r3, [sp, #22]	@ movhi
 4114              		.loc 2 1002 0
 4115 0030 0198     		ldr	r0, [sp, #4]
 4116 0032 FFF7FEFF 		bl	AsebaNativePopArg
 4117 0036 0346     		mov	r3, r0
 4118 0038 ADF81830 		strh	r3, [sp, #24]	@ movhi
 4119              		.loc 2 1003 0
 4120 003c 019B     		ldr	r3, [sp, #4]
 4121 003e DA68     		ldr	r2, [r3, #12]
 4122 0040 BDF81630 		ldrh	r3, [sp, #22]
 4123 0044 5B00     		lsls	r3, r3, #1
 4124 0046 1344     		add	r3, r3, r2
 4125 0048 1B88     		ldrh	r3, [r3]	@ movhi
 4126 004a ADF81A30 		strh	r3, [sp, #26]	@ movhi
 4127              		.loc 2 1014 0
 4128 004e 0023     		movs	r3, #0
 4129 0050 ADF81030 		strh	r3, [sp, #16]	@ movhi
 4130              		.loc 2 1015 0
ARM GAS  C:\Users\PCHAUT~1\AppData\Local\Temp\ccvICu2w.s 			page 76


 4131 0054 13E0     		b	.L198
 4132              	.L200:
 4133              		.loc 2 1017 0
 4134 0056 BDF81030 		ldrh	r3, [sp, #16]	@ movhi
 4135 005a 0133     		adds	r3, r3, #1
 4136 005c ADF81030 		strh	r3, [sp, #16]	@ movhi
 4137              		.loc 2 1018 0
 4138 0060 BDF81020 		ldrh	r2, [sp, #16]
 4139 0064 BDF81830 		ldrh	r3, [sp, #24]
 4140 0068 9A42     		cmp	r2, r3
 4141 006a 08D9     		bls	.L198
 4142              		.loc 2 1020 0
 4143 006c 019B     		ldr	r3, [sp, #4]
 4144 006e DA68     		ldr	r2, [r3, #12]
 4145 0070 BDF81230 		ldrh	r3, [sp, #18]
 4146 0074 5B00     		lsls	r3, r3, #1
 4147 0076 1344     		add	r3, r3, r2
 4148 0078 0022     		movs	r2, #0
 4149 007a 1A80     		strh	r2, [r3]	@ movhi
 4150              		.loc 2 1021 0
 4151 007c FDE0     		b	.L197
 4152              	.L198:
 4153              		.loc 2 1015 0
 4154 007e 019B     		ldr	r3, [sp, #4]
 4155 0080 DA68     		ldr	r2, [r3, #12]
 4156 0082 BDF81410 		ldrh	r1, [sp, #20]
 4157 0086 BDF81030 		ldrh	r3, [sp, #16]
 4158 008a 0B44     		add	r3, r3, r1
 4159 008c 5B00     		lsls	r3, r3, #1
 4160 008e 1344     		add	r3, r3, r2
 4161 0090 B3F90030 		ldrsh	r3, [r3]
 4162 0094 002B     		cmp	r3, #0
 4163 0096 DED1     		bne	.L200
 4164              		.loc 2 1024 0
 4165 0098 BDF81030 		ldrh	r3, [sp, #16]	@ movhi
 4166 009c ADF81C30 		strh	r3, [sp, #28]	@ movhi
 4167              		.loc 2 1025 0
 4168 00a0 3DE0     		b	.L201
 4169              	.L205:
 4170              		.loc 2 1027 0
 4171 00a2 BDF81030 		ldrh	r3, [sp, #16]	@ movhi
 4172 00a6 0133     		adds	r3, r3, #1
 4173 00a8 ADF81030 		strh	r3, [sp, #16]	@ movhi
 4174              		.loc 2 1028 0
 4175 00ac BDF81020 		ldrh	r2, [sp, #16]
 4176 00b0 BDF81830 		ldrh	r3, [sp, #24]
 4177 00b4 9A42     		cmp	r2, r3
 4178 00b6 32D9     		bls	.L201
 4179              		.loc 2 1030 0
 4180 00b8 BDF81C30 		ldrh	r3, [sp, #28]
 4181 00bc 002B     		cmp	r3, #0
 4182 00be 09D1     		bne	.L202
 4183              		.loc 2 1032 0
 4184 00c0 019B     		ldr	r3, [sp, #4]
 4185 00c2 DA68     		ldr	r2, [r3, #12]
 4186 00c4 BDF81230 		ldrh	r3, [sp, #18]
 4187 00c8 5B00     		lsls	r3, r3, #1
ARM GAS  C:\Users\PCHAUT~1\AppData\Local\Temp\ccvICu2w.s 			page 77


 4188 00ca 1344     		add	r3, r3, r2
 4189 00cc 4FF6FF72 		movw	r2, #65535
 4190 00d0 1A80     		strh	r2, [r3]	@ movhi
 4191              		.loc 2 1042 0
 4192 00d2 D2E0     		b	.L197
 4193              	.L202:
 4194              	.LBB17:
 4195              		.loc 2 1036 0
 4196 00d4 BDF81C30 		ldrh	r3, [sp, #28]	@ movhi
 4197 00d8 013B     		subs	r3, r3, #1
 4198 00da ADF82230 		strh	r3, [sp, #34]	@ movhi
 4199              		.loc 2 1037 0
 4200 00de BDF82220 		ldrh	r2, [sp, #34]
 4201 00e2 BDF91A30 		ldrsh	r3, [sp, #26]
 4202 00e6 9A42     		cmp	r2, r3
 4203 00e8 09DA     		bge	.L204
 4204              		.loc 2 1038 0
 4205 00ea 019B     		ldr	r3, [sp, #4]
 4206 00ec DA68     		ldr	r2, [r3, #12]
 4207 00ee BDF81230 		ldrh	r3, [sp, #18]
 4208 00f2 5B00     		lsls	r3, r3, #1
 4209 00f4 1344     		add	r3, r3, r2
 4210 00f6 4FF6FF72 		movw	r2, #65535
 4211 00fa 1A80     		strh	r2, [r3]	@ movhi
 4212              	.LBE17:
 4213              		.loc 2 1042 0
 4214 00fc BDE0     		b	.L197
 4215              	.L204:
 4216              	.LBB18:
 4217              		.loc 2 1040 0
 4218 00fe BDF81C30 		ldrh	r3, [sp, #28]
 4219 0102 013B     		subs	r3, r3, #1
 4220 0104 DA0F     		lsrs	r2, r3, #31
 4221 0106 1344     		add	r3, r3, r2
 4222 0108 5B10     		asrs	r3, r3, #1
 4223 010a 1946     		mov	r1, r3
 4224 010c 019B     		ldr	r3, [sp, #4]
 4225 010e DA68     		ldr	r2, [r3, #12]
 4226 0110 BDF81230 		ldrh	r3, [sp, #18]
 4227 0114 5B00     		lsls	r3, r3, #1
 4228 0116 1344     		add	r3, r3, r2
 4229 0118 0AB2     		sxth	r2, r1
 4230 011a 1A80     		strh	r2, [r3]	@ movhi
 4231              	.LBE18:
 4232              		.loc 2 1042 0
 4233 011c ADE0     		b	.L197
 4234              	.L201:
 4235              		.loc 2 1025 0
 4236 011e 019B     		ldr	r3, [sp, #4]
 4237 0120 DA68     		ldr	r2, [r3, #12]
 4238 0122 BDF81410 		ldrh	r1, [sp, #20]
 4239 0126 BDF81030 		ldrh	r3, [sp, #16]
 4240 012a 0B44     		add	r3, r3, r1
 4241 012c 5B00     		lsls	r3, r3, #1
 4242 012e 1344     		add	r3, r3, r2
 4243 0130 B3F90030 		ldrsh	r3, [r3]
 4244 0134 002B     		cmp	r3, #0
ARM GAS  C:\Users\PCHAUT~1\AppData\Local\Temp\ccvICu2w.s 			page 78


 4245 0136 B4D0     		beq	.L205
 4246              		.loc 2 1046 0
 4247 0138 0023     		movs	r3, #0
 4248 013a ADF80A30 		strh	r3, [sp, #10]	@ movhi
 4249              		.loc 2 1047 0
 4250 013e 0023     		movs	r3, #0
 4251 0140 ADF80C30 		strh	r3, [sp, #12]	@ movhi
 4252              		.loc 2 1048 0
 4253 0144 0023     		movs	r3, #0
 4254 0146 ADF80E30 		strh	r3, [sp, #14]	@ movhi
 4255              	.L214:
 4256              		.loc 2 1053 0
 4257 014a BDF80A30 		ldrh	r3, [sp, #10]	@ movhi
 4258 014e ADF81E30 		strh	r3, [sp, #30]	@ movhi
 4259              		.loc 2 1054 0
 4260 0152 0BE0     		b	.L206
 4261              	.L208:
 4262              		.loc 2 1056 0
 4263 0154 BDF80A30 		ldrh	r3, [sp, #10]
 4264 0158 0133     		adds	r3, r3, #1
 4265 015a 9BB2     		uxth	r3, r3
 4266 015c ADF80A30 		strh	r3, [sp, #10]	@ movhi
 4267              		.loc 2 1057 0
 4268 0160 BDF90A20 		ldrsh	r2, [sp, #10]
 4269 0164 BDF81830 		ldrh	r3, [sp, #24]
 4270 0168 9A42     		cmp	r2, r3
 4271 016a 17DA     		bge	.L217
 4272              	.L206:
 4273              		.loc 2 1054 0
 4274 016c 019B     		ldr	r3, [sp, #4]
 4275 016e D968     		ldr	r1, [r3, #12]
 4276 0170 BDF81400 		ldrh	r0, [sp, #20]
 4277 0174 BDF81020 		ldrh	r2, [sp, #16]
 4278 0178 BDF90A30 		ldrsh	r3, [sp, #10]
 4279 017c 1344     		add	r3, r3, r2
 4280 017e BDF81820 		ldrh	r2, [sp, #24]
 4281 0182 93FBF2F4 		sdiv	r4, r3, r2
 4282 0186 02FB04F2 		mul	r2, r2, r4
 4283 018a 9B1A     		subs	r3, r3, r2
 4284 018c 0344     		add	r3, r3, r0
 4285 018e 5B00     		lsls	r3, r3, #1
 4286 0190 0B44     		add	r3, r3, r1
 4287 0192 B3F90030 		ldrsh	r3, [r3]
 4288 0196 002B     		cmp	r3, #0
 4289 0198 DCD1     		bne	.L208
 4290 019a 00E0     		b	.L207
 4291              	.L217:
 4292              		.loc 2 1058 0
 4293 019c 00BF     		nop
 4294              	.L207:
 4295              		.loc 2 1061 0
 4296 019e BDF80A20 		ldrh	r2, [sp, #10]
 4297 01a2 BDF81E30 		ldrh	r3, [sp, #30]
 4298 01a6 D31A     		subs	r3, r2, r3
 4299 01a8 9BB2     		uxth	r3, r3
 4300 01aa ADF82030 		strh	r3, [sp, #32]	@ movhi
 4301              		.loc 2 1062 0
ARM GAS  C:\Users\PCHAUT~1\AppData\Local\Temp\ccvICu2w.s 			page 79


 4302 01ae BDF92020 		ldrsh	r2, [sp, #32]
 4303 01b2 BDF90C30 		ldrsh	r3, [sp, #12]
 4304 01b6 9A42     		cmp	r2, r3
 4305 01b8 0DDD     		ble	.L209
 4306              		.loc 2 1064 0
 4307 01ba BDF82030 		ldrh	r3, [sp, #32]	@ movhi
 4308 01be ADF80C30 		strh	r3, [sp, #12]	@ movhi
 4309              		.loc 2 1065 0
 4310 01c2 BDF90A20 		ldrsh	r2, [sp, #10]
 4311 01c6 BDF91E30 		ldrsh	r3, [sp, #30]
 4312 01ca 1344     		add	r3, r3, r2
 4313 01cc DA0F     		lsrs	r2, r3, #31
 4314 01ce 1344     		add	r3, r3, r2
 4315 01d0 5B10     		asrs	r3, r3, #1
 4316 01d2 ADF80E30 		strh	r3, [sp, #14]	@ movhi
 4317              	.L209:
 4318              		.loc 2 1067 0
 4319 01d6 BDF90A20 		ldrsh	r2, [sp, #10]
 4320 01da BDF81830 		ldrh	r3, [sp, #24]
 4321 01de 9A42     		cmp	r2, r3
 4322 01e0 24DA     		bge	.L218
 4323              		.loc 2 1071 0
 4324 01e2 0BE0     		b	.L212
 4325              	.L213:
 4326              		.loc 2 1073 0
 4327 01e4 BDF80A30 		ldrh	r3, [sp, #10]
 4328 01e8 0133     		adds	r3, r3, #1
 4329 01ea 9BB2     		uxth	r3, r3
 4330 01ec ADF80A30 		strh	r3, [sp, #10]	@ movhi
 4331              		.loc 2 1074 0
 4332 01f0 BDF90A20 		ldrsh	r2, [sp, #10]
 4333 01f4 BDF81830 		ldrh	r3, [sp, #24]
 4334 01f8 9A42     		cmp	r2, r3
 4335 01fa 19DA     		bge	.L219
 4336              	.L212:
 4337              		.loc 2 1071 0
 4338 01fc 019B     		ldr	r3, [sp, #4]
 4339 01fe D968     		ldr	r1, [r3, #12]
 4340 0200 BDF81400 		ldrh	r0, [sp, #20]
 4341 0204 BDF81020 		ldrh	r2, [sp, #16]
 4342 0208 BDF90A30 		ldrsh	r3, [sp, #10]
 4343 020c 1344     		add	r3, r3, r2
 4344 020e BDF81820 		ldrh	r2, [sp, #24]
 4345 0212 93FBF2F4 		sdiv	r4, r3, r2
 4346 0216 02FB04F2 		mul	r2, r2, r4
 4347 021a 9B1A     		subs	r3, r3, r2
 4348 021c 0344     		add	r3, r3, r0
 4349 021e 5B00     		lsls	r3, r3, #1
 4350 0220 0B44     		add	r3, r3, r1
 4351 0222 B3F90030 		ldrsh	r3, [r3]
 4352 0226 002B     		cmp	r3, #0
 4353 0228 DCD0     		beq	.L213
 4354              		.loc 2 1053 0
 4355 022a 8EE7     		b	.L214
 4356              	.L218:
 4357              		.loc 2 1068 0
 4358 022c 00BF     		nop
ARM GAS  C:\Users\PCHAUT~1\AppData\Local\Temp\ccvICu2w.s 			page 80


 4359 022e 00E0     		b	.L211
 4360              	.L219:
 4361              		.loc 2 1075 0
 4362 0230 00BF     		nop
 4363              	.L211:
 4364              		.loc 2 1080 0
 4365 0232 BDF90C20 		ldrsh	r2, [sp, #12]
 4366 0236 BDF91A30 		ldrsh	r3, [sp, #26]
 4367 023a 9A42     		cmp	r2, r3
 4368 023c 09DA     		bge	.L215
 4369              		.loc 2 1082 0
 4370 023e 019B     		ldr	r3, [sp, #4]
 4371 0240 DA68     		ldr	r2, [r3, #12]
 4372 0242 BDF81230 		ldrh	r3, [sp, #18]
 4373 0246 5B00     		lsls	r3, r3, #1
 4374 0248 1344     		add	r3, r3, r2
 4375 024a 4FF6FF72 		movw	r2, #65535
 4376 024e 1A80     		strh	r2, [r3]	@ movhi
 4377 0250 13E0     		b	.L197
 4378              	.L215:
 4379              		.loc 2 1086 0
 4380 0252 BDF81020 		ldrh	r2, [sp, #16]
 4381 0256 BDF90E30 		ldrsh	r3, [sp, #14]
 4382 025a 1344     		add	r3, r3, r2
 4383 025c BDF81820 		ldrh	r2, [sp, #24]
 4384 0260 93FBF2F1 		sdiv	r1, r3, r2
 4385 0264 02FB01F2 		mul	r2, r2, r1
 4386 0268 991A     		subs	r1, r3, r2
 4387 026a 019B     		ldr	r3, [sp, #4]
 4388 026c DA68     		ldr	r2, [r3, #12]
 4389 026e BDF81230 		ldrh	r3, [sp, #18]
 4390 0272 5B00     		lsls	r3, r3, #1
 4391 0274 1344     		add	r3, r3, r2
 4392 0276 0AB2     		sxth	r2, r1
 4393 0278 1A80     		strh	r2, [r3]	@ movhi
 4394              	.L197:
 4395              		.loc 2 1088 0
 4396 027a 044B     		ldr	r3, .L220
 4397 027c 099A     		ldr	r2, [sp, #36]
 4398 027e 1B68     		ldr	r3, [r3]
 4399 0280 9A42     		cmp	r2, r3
 4400 0282 01D0     		beq	.L216
 4401 0284 FFF7FEFF 		bl	__stack_chk_fail
 4402              	.L216:
 4403 0288 0AB0     		add	sp, sp, #40
 4404              		.cfi_def_cfa_offset 8
 4405              		@ sp needed
 4406 028a 10BD     		pop	{r4, pc}
 4407              	.L221:
 4408              		.align	2
 4409              	.L220:
 4410 028c 00000000 		.word	__stack_chk_guard
 4411              		.cfi_endproc
 4412              	.LFE26:
 4413              		.size	AsebaNative_vecnonzerosequence, .-AsebaNative_vecnonzerosequence
 4414              		.global	AsebaNativeDescription_vecnonzerosequence
 4415              		.section	.rodata
ARM GAS  C:\Users\PCHAUT~1\AppData\Local\Temp\ccvICu2w.s 			page 81


 4416 0543 00       		.align	2
 4417              	.LC61:
 4418 0544 6D617468 		.ascii	"math.nzseq\000"
 4418      2E6E7A73 
 4418      657100
 4419 054f 00       		.align	2
 4420              	.LC62:
 4421 0550 77726974 		.ascii	"write to dest the middle index of the largest seque"
 4421      6520746F 
 4421      20646573 
 4421      74207468 
 4421      65206D69 
 4422 0583 6E636520 		.ascii	"nce of non-zero elements from src, -1 if not found "
 4422      6F66206E 
 4422      6F6E2D7A 
 4422      65726F20 
 4422      656C656D 
 4423 05b6 6F722069 		.ascii	"or if smaller than minLength\000"
 4423      6620736D 
 4423      616C6C65 
 4423      72207468 
 4423      616E206D 
 4424 05d3 00       		.align	2
 4425              	.LC63:
 4426 05d4 6D696E4C 		.ascii	"minLength\000"
 4426      656E6774 
 4426      6800
 4427              		.section	.rodata.AsebaNativeDescription_vecnonzerosequence,"a",%progbits
 4428              		.align	2
 4429              		.type	AsebaNativeDescription_vecnonzerosequence, %object
 4430              		.size	AsebaNativeDescription_vecnonzerosequence, 40
 4431              	AsebaNativeDescription_vecnonzerosequence:
 4432 0000 44050000 		.word	.LC61
 4433 0004 50050000 		.word	.LC62
 4434 0008 0100     		.short	1
 4435 000a 0000     		.space	2
 4436 000c 34000000 		.word	.LC2
 4437 0010 FFFF     		.short	-1
 4438 0012 0000     		.space	2
 4439 0014 3C000000 		.word	.LC3
 4440 0018 0100     		.short	1
 4441 001a 0000     		.space	2
 4442 001c D4050000 		.word	.LC63
 4443 0020 0000     		.short	0
 4444 0022 0000     		.space	2
 4445 0024 00000000 		.word	0
 4446              		.section	.bss.rnd_state,"aw",%nobits
 4447              		.align	1
 4448              		.type	rnd_state, %object
 4449              		.size	rnd_state, 2
 4450              	rnd_state:
 4451 0000 0000     		.space	2
 4452              		.section	.text.AsebaSetRandomSeed,"ax",%progbits
 4453              		.align	1
 4454              		.p2align 4,,15
 4455              		.global	AsebaSetRandomSeed
 4456              		.syntax unified
ARM GAS  C:\Users\PCHAUT~1\AppData\Local\Temp\ccvICu2w.s 			page 82


 4457              		.thumb
 4458              		.thumb_func
 4459              		.fpu fpv4-sp-d16
 4460              		.type	AsebaSetRandomSeed, %function
 4461              	AsebaSetRandomSeed:
 4462              	.LFB27:
 4463              		.loc 2 1106 0
 4464              		.cfi_startproc
 4465              		@ args = 0, pretend = 0, frame = 16
 4466              		@ frame_needed = 0, uses_anonymous_args = 0
 4467 0000 00B5     		push	{lr}
 4468              		.cfi_def_cfa_offset 4
 4469              		.cfi_offset 14, -4
 4470 0002 85B0     		sub	sp, sp, #20
 4471              		.cfi_def_cfa_offset 24
 4472 0004 0346     		mov	r3, r0
 4473 0006 ADF80630 		strh	r3, [sp, #6]	@ movhi
 4474              		.loc 2 1106 0
 4475 000a 094B     		ldr	r3, .L224
 4476 000c 1B68     		ldr	r3, [r3]
 4477 000e 0393     		str	r3, [sp, #12]
 4478              		.loc 2 1107 0
 4479 0010 084A     		ldr	r2, .L224+4
 4480 0012 BDF80630 		ldrh	r3, [sp, #6]	@ movhi
 4481 0016 1380     		strh	r3, [r2]	@ movhi
 4482              		.loc 2 1108 0
 4483 0018 00BF     		nop
 4484 001a 054B     		ldr	r3, .L224
 4485 001c 039A     		ldr	r2, [sp, #12]
 4486 001e 1B68     		ldr	r3, [r3]
 4487 0020 9A42     		cmp	r2, r3
 4488 0022 01D0     		beq	.L223
 4489 0024 FFF7FEFF 		bl	__stack_chk_fail
 4490              	.L223:
 4491 0028 05B0     		add	sp, sp, #20
 4492              		.cfi_def_cfa_offset 4
 4493              		@ sp needed
 4494 002a 5DF804FB 		ldr	pc, [sp], #4
 4495              	.L225:
 4496 002e 00BF     		.align	2
 4497              	.L224:
 4498 0030 00000000 		.word	__stack_chk_guard
 4499 0034 00000000 		.word	rnd_state
 4500              		.cfi_endproc
 4501              	.LFE27:
 4502              		.size	AsebaSetRandomSeed, .-AsebaSetRandomSeed
 4503              		.section	.text.AsebaGetRandom,"ax",%progbits
 4504              		.align	1
 4505              		.p2align 4,,15
 4506              		.global	AsebaGetRandom
 4507              		.syntax unified
 4508              		.thumb
 4509              		.thumb_func
 4510              		.fpu fpv4-sp-d16
 4511              		.type	AsebaGetRandom, %function
 4512              	AsebaGetRandom:
 4513              	.LFB28:
ARM GAS  C:\Users\PCHAUT~1\AppData\Local\Temp\ccvICu2w.s 			page 83


 4514              		.loc 2 1111 0
 4515              		.cfi_startproc
 4516              		@ args = 0, pretend = 0, frame = 8
 4517              		@ frame_needed = 0, uses_anonymous_args = 0
 4518 0000 00B5     		push	{lr}
 4519              		.cfi_def_cfa_offset 4
 4520              		.cfi_offset 14, -4
 4521 0002 83B0     		sub	sp, sp, #12
 4522              		.cfi_def_cfa_offset 16
 4523              		.loc 2 1111 0
 4524 0004 124B     		ldr	r3, .L229
 4525 0006 1B68     		ldr	r3, [r3]
 4526 0008 0193     		str	r3, [sp, #4]
 4527              		.loc 2 1112 0
 4528 000a 124B     		ldr	r3, .L229+4
 4529 000c 1B88     		ldrh	r3, [r3]
 4530 000e 1A46     		mov	r2, r3	@ movhi
 4531 0010 D200     		lsls	r2, r2, #3
 4532 0012 D21A     		subs	r2, r2, r3
 4533 0014 9200     		lsls	r2, r2, #2
 4534 0016 1A44     		add	r2, r2, r3
 4535 0018 1146     		mov	r1, r2	@ movhi
 4536 001a C900     		lsls	r1, r1, #3
 4537 001c 8A1A     		subs	r2, r1, r2
 4538 001e 1146     		mov	r1, r2	@ movhi
 4539 0020 4901     		lsls	r1, r1, #5
 4540 0022 8A1A     		subs	r2, r1, r2
 4541 0024 9200     		lsls	r2, r2, #2
 4542 0026 1344     		add	r3, r3, r2
 4543 0028 9BB2     		uxth	r3, r3
 4544 002a 03F55853 		add	r3, r3, #13824
 4545 002e 1933     		adds	r3, r3, #25
 4546 0030 9AB2     		uxth	r2, r3
 4547 0032 084B     		ldr	r3, .L229+4
 4548 0034 1A80     		strh	r2, [r3]	@ movhi
 4549              		.loc 2 1113 0
 4550 0036 074B     		ldr	r3, .L229+4
 4551 0038 1B88     		ldrh	r3, [r3]
 4552              		.loc 2 1114 0
 4553 003a 1846     		mov	r0, r3
 4554 003c 044B     		ldr	r3, .L229
 4555 003e 019A     		ldr	r2, [sp, #4]
 4556 0040 1B68     		ldr	r3, [r3]
 4557 0042 9A42     		cmp	r2, r3
 4558 0044 01D0     		beq	.L228
 4559 0046 FFF7FEFF 		bl	__stack_chk_fail
 4560              	.L228:
 4561 004a 03B0     		add	sp, sp, #12
 4562              		.cfi_def_cfa_offset 4
 4563              		@ sp needed
 4564 004c 5DF804FB 		ldr	pc, [sp], #4
 4565              	.L230:
 4566              		.align	2
 4567              	.L229:
 4568 0050 00000000 		.word	__stack_chk_guard
 4569 0054 00000000 		.word	rnd_state
 4570              		.cfi_endproc
ARM GAS  C:\Users\PCHAUT~1\AppData\Local\Temp\ccvICu2w.s 			page 84


 4571              	.LFE28:
 4572              		.size	AsebaGetRandom, .-AsebaGetRandom
 4573              		.section	.text.AsebaNative_rand,"ax",%progbits
 4574              		.align	1
 4575              		.p2align 4,,15
 4576              		.global	AsebaNative_rand
 4577              		.syntax unified
 4578              		.thumb
 4579              		.thumb_func
 4580              		.fpu fpv4-sp-d16
 4581              		.type	AsebaNative_rand, %function
 4582              	AsebaNative_rand:
 4583              	.LFB29:
 4584              		.loc 2 1117 0
 4585              		.cfi_startproc
 4586              		@ args = 0, pretend = 0, frame = 24
 4587              		@ frame_needed = 0, uses_anonymous_args = 0
 4588 0000 00B5     		push	{lr}
 4589              		.cfi_def_cfa_offset 4
 4590              		.cfi_offset 14, -4
 4591 0002 87B0     		sub	sp, sp, #28
 4592              		.cfi_def_cfa_offset 32
 4593 0004 0190     		str	r0, [sp, #4]
 4594              		.loc 2 1117 0
 4595 0006 1C4B     		ldr	r3, .L235
 4596 0008 1B68     		ldr	r3, [r3]
 4597 000a 0593     		str	r3, [sp, #20]
 4598              		.loc 2 1119 0
 4599 000c 0198     		ldr	r0, [sp, #4]
 4600 000e FFF7FEFF 		bl	AsebaNativePopArg
 4601 0012 0346     		mov	r3, r0
 4602 0014 ADF80E30 		strh	r3, [sp, #14]	@ movhi
 4603              		.loc 2 1122 0
 4604 0018 0198     		ldr	r0, [sp, #4]
 4605 001a FFF7FEFF 		bl	AsebaNativePopArg
 4606 001e 0346     		mov	r3, r0
 4607 0020 ADF81230 		strh	r3, [sp, #18]	@ movhi
 4608              		.loc 2 1125 0
 4609 0024 0023     		movs	r3, #0
 4610 0026 ADF81030 		strh	r3, [sp, #16]	@ movhi
 4611 002a 13E0     		b	.L232
 4612              	.L233:
 4613              		.loc 2 1127 0 discriminator 3
 4614 002c FFF7FEFF 		bl	AsebaGetRandom
 4615 0030 0346     		mov	r3, r0
 4616 0032 1846     		mov	r0, r3
 4617 0034 019B     		ldr	r3, [sp, #4]
 4618 0036 DA68     		ldr	r2, [r3, #12]
 4619 0038 BDF80E30 		ldrh	r3, [sp, #14]
 4620 003c 591C     		adds	r1, r3, #1
 4621 003e ADF80E10 		strh	r1, [sp, #14]	@ movhi
 4622 0042 5B00     		lsls	r3, r3, #1
 4623 0044 1344     		add	r3, r3, r2
 4624 0046 02B2     		sxth	r2, r0
 4625 0048 1A80     		strh	r2, [r3]	@ movhi
 4626              		.loc 2 1125 0 discriminator 3
 4627 004a BDF81030 		ldrh	r3, [sp, #16]
ARM GAS  C:\Users\PCHAUT~1\AppData\Local\Temp\ccvICu2w.s 			page 85


 4628 004e 0133     		adds	r3, r3, #1
 4629 0050 ADF81030 		strh	r3, [sp, #16]	@ movhi
 4630              	.L232:
 4631              		.loc 2 1125 0 is_stmt 0 discriminator 1
 4632 0054 BDF81020 		ldrh	r2, [sp, #16]
 4633 0058 BDF81230 		ldrh	r3, [sp, #18]
 4634 005c 9A42     		cmp	r2, r3
 4635 005e E5D3     		bcc	.L233
 4636              		.loc 2 1129 0 is_stmt 1
 4637 0060 00BF     		nop
 4638 0062 054B     		ldr	r3, .L235
 4639 0064 059A     		ldr	r2, [sp, #20]
 4640 0066 1B68     		ldr	r3, [r3]
 4641 0068 9A42     		cmp	r2, r3
 4642 006a 01D0     		beq	.L234
 4643 006c FFF7FEFF 		bl	__stack_chk_fail
 4644              	.L234:
 4645 0070 07B0     		add	sp, sp, #28
 4646              		.cfi_def_cfa_offset 4
 4647              		@ sp needed
 4648 0072 5DF804FB 		ldr	pc, [sp], #4
 4649              	.L236:
 4650 0076 00BF     		.align	2
 4651              	.L235:
 4652 0078 00000000 		.word	__stack_chk_guard
 4653              		.cfi_endproc
 4654              	.LFE29:
 4655              		.size	AsebaNative_rand, .-AsebaNative_rand
 4656              		.global	AsebaNativeDescription_rand
 4657              		.section	.rodata
 4658 05de 0000     		.align	2
 4659              	.LC64:
 4660 05e0 6D617468 		.ascii	"math.rand\000"
 4660      2E72616E 
 4660      6400
 4661 05ea 0000     		.align	2
 4662              	.LC65:
 4663 05ec 66696C6C 		.ascii	"fill array with random values\000"
 4663      20617272 
 4663      61792077 
 4663      69746820 
 4663      72616E64 
 4664              		.section	.rodata.AsebaNativeDescription_rand,"a",%progbits
 4665              		.align	2
 4666              		.type	AsebaNativeDescription_rand, %object
 4667              		.size	AsebaNativeDescription_rand, 24
 4668              	AsebaNativeDescription_rand:
 4669 0000 E0050000 		.word	.LC64
 4670 0004 EC050000 		.word	.LC65
 4671 0008 FFFF     		.short	-1
 4672 000a 0000     		.space	2
 4673 000c 34000000 		.word	.LC2
 4674 0010 0000     		.short	0
 4675 0012 0000     		.space	2
 4676 0014 00000000 		.word	0
 4677              		.text
 4678              	.Letext0:
ARM GAS  C:\Users\PCHAUT~1\AppData\Local\Temp\ccvICu2w.s 			page 86


 4679              		.file 3 "../lib/e-puck2_main-processor/aseba/vm/../common/consts.h"
 4680              		.file 4 "c:\\users\\pchautems\\documents\\robotiquetp\\eclipse_e-puck2\\tools\\gcc-arm-none-eabi-7
 4681              		.file 5 "c:\\users\\pchautems\\documents\\robotiquetp\\eclipse_e-puck2\\tools\\gcc-arm-none-eabi-7
 4682              		.file 6 "c:\\users\\pchautems\\documents\\robotiquetp\\eclipse_e-puck2\\tools\\gcc-arm-none-eabi-7
 4683              		.file 7 "c:\\users\\pchautems\\documents\\robotiquetp\\eclipse_e-puck2\\tools\\gcc-arm-none-eabi-7
 4684              		.file 8 "c:\\users\\pchautems\\documents\\robotiquetp\\eclipse_e-puck2\\tools\\gcc-arm-none-eabi-7
 4685              		.file 9 "../lib/e-puck2_main-processor/aseba/vm/../common/types.h"
 4686              		.file 10 "../lib/e-puck2_main-processor/aseba/vm/vm.h"
 4687              		.section	.debug_info,"",%progbits
 4688              	.Ldebug_info0:
 4689 0000 671C0000 		.4byte	0x1c67
 4690 0004 0400     		.2byte	0x4
 4691 0006 00000000 		.4byte	.Ldebug_abbrev0
 4692 000a 04       		.byte	0x4
 4693 000b 01       		.uleb128 0x1
 4694 000c 060E0000 		.4byte	.LASF286
 4695 0010 0C       		.byte	0xc
 4696 0011 AF080000 		.4byte	.LASF287
 4697 0015 42030000 		.4byte	.LASF288
 4698 0019 18000000 		.4byte	.Ldebug_ranges0+0x18
 4699 001d 00000000 		.4byte	0
 4700 0021 00000000 		.4byte	.Ldebug_line0
 4701 0025 02       		.uleb128 0x2
 4702 0026 01       		.byte	0x1
 4703 0027 08       		.byte	0x8
 4704 0028 C40F0000 		.4byte	.LASF3
 4705 002c 03       		.uleb128 0x3
 4706 002d 07       		.byte	0x7
 4707 002e 01       		.byte	0x1
 4708 002f 25000000 		.4byte	0x25
 4709 0033 03       		.byte	0x3
 4710 0034 7B       		.byte	0x7b
 4711 0035 4C000000 		.4byte	0x4c
 4712 0039 04       		.uleb128 0x4
 4713 003a 340A0000 		.4byte	.LASF0
 4714 003e 01       		.byte	0x1
 4715 003f 04       		.uleb128 0x4
 4716 0040 46020000 		.4byte	.LASF1
 4717 0044 02       		.byte	0x2
 4718 0045 04       		.uleb128 0x4
 4719 0046 80070000 		.4byte	.LASF2
 4720 004a 04       		.byte	0x4
 4721 004b 00       		.byte	0
 4722 004c 02       		.uleb128 0x2
 4723 004d 02       		.byte	0x2
 4724 004e 07       		.byte	0x7
 4725 004f 4A110000 		.4byte	.LASF4
 4726 0053 03       		.uleb128 0x3
 4727 0054 07       		.byte	0x7
 4728 0055 02       		.byte	0x2
 4729 0056 4C000000 		.4byte	0x4c
 4730 005a 03       		.byte	0x3
 4731 005b 90       		.byte	0x90
 4732 005c 72010000 		.4byte	0x172
 4733 0060 05       		.uleb128 0x5
 4734 0061 B5040000 		.4byte	.LASF5
 4735 0065 0080     		.2byte	0x8000
ARM GAS  C:\Users\PCHAUT~1\AppData\Local\Temp\ccvICu2w.s 			page 87


 4736 0067 05       		.uleb128 0x5
 4737 0068 BE050000 		.4byte	.LASF6
 4738 006c 0180     		.2byte	0x8001
 4739 006e 05       		.uleb128 0x5
 4740 006f 89030000 		.4byte	.LASF7
 4741 0073 0280     		.2byte	0x8002
 4742 0075 05       		.uleb128 0x5
 4743 0076 3D010000 		.4byte	.LASF8
 4744 007a 0380     		.2byte	0x8003
 4745 007c 05       		.uleb128 0x5
 4746 007d B5070000 		.4byte	.LASF9
 4747 0081 0480     		.2byte	0x8004
 4748 0083 05       		.uleb128 0x5
 4749 0084 940F0000 		.4byte	.LASF10
 4750 0088 0580     		.2byte	0x8005
 4751 008a 05       		.uleb128 0x5
 4752 008b 4F0B0000 		.4byte	.LASF11
 4753 008f 0680     		.2byte	0x8006
 4754 0091 05       		.uleb128 0x5
 4755 0092 FB010000 		.4byte	.LASF12
 4756 0096 0090     		.2byte	0x9000
 4757 0098 05       		.uleb128 0x5
 4758 0099 A6020000 		.4byte	.LASF13
 4759 009d 0190     		.2byte	0x9001
 4760 009f 05       		.uleb128 0x5
 4761 00a0 CF020000 		.4byte	.LASF14
 4762 00a4 0290     		.2byte	0x9002
 4763 00a6 05       		.uleb128 0x5
 4764 00a7 720C0000 		.4byte	.LASF15
 4765 00ab 0390     		.2byte	0x9003
 4766 00ad 05       		.uleb128 0x5
 4767 00ae EE100000 		.4byte	.LASF16
 4768 00b2 0490     		.2byte	0x9004
 4769 00b4 05       		.uleb128 0x5
 4770 00b5 11110000 		.4byte	.LASF17
 4771 00b9 0590     		.2byte	0x9005
 4772 00bb 05       		.uleb128 0x5
 4773 00bc EB0A0000 		.4byte	.LASF18
 4774 00c0 0690     		.2byte	0x9006
 4775 00c2 05       		.uleb128 0x5
 4776 00c3 A9110000 		.4byte	.LASF19
 4777 00c7 0790     		.2byte	0x9007
 4778 00c9 05       		.uleb128 0x5
 4779 00ca 6C120000 		.4byte	.LASF20
 4780 00ce 0890     		.2byte	0x9008
 4781 00d0 05       		.uleb128 0x5
 4782 00d1 9E010000 		.4byte	.LASF21
 4783 00d5 0990     		.2byte	0x9009
 4784 00d7 05       		.uleb128 0x5
 4785 00d8 CA120000 		.4byte	.LASF22
 4786 00dc 0A90     		.2byte	0x900a
 4787 00de 05       		.uleb128 0x5
 4788 00df 22020000 		.4byte	.LASF23
 4789 00e3 0B90     		.2byte	0x900b
 4790 00e5 05       		.uleb128 0x5
 4791 00e6 C3090000 		.4byte	.LASF24
 4792 00ea 0C90     		.2byte	0x900c
ARM GAS  C:\Users\PCHAUT~1\AppData\Local\Temp\ccvICu2w.s 			page 88


 4793 00ec 05       		.uleb128 0x5
 4794 00ed C40B0000 		.4byte	.LASF25
 4795 00f1 00A0     		.2byte	0xa000
 4796 00f3 05       		.uleb128 0x5
 4797 00f4 7C010000 		.4byte	.LASF26
 4798 00f8 01A0     		.2byte	0xa001
 4799 00fa 05       		.uleb128 0x5
 4800 00fb 4B090000 		.4byte	.LASF27
 4801 00ff 02A0     		.2byte	0xa002
 4802 0101 05       		.uleb128 0x5
 4803 0102 9C120000 		.4byte	.LASF28
 4804 0106 03A0     		.2byte	0xa003
 4805 0108 05       		.uleb128 0x5
 4806 0109 CE0A0000 		.4byte	.LASF29
 4807 010d 04A0     		.2byte	0xa004
 4808 010f 05       		.uleb128 0x5
 4809 0110 4F040000 		.4byte	.LASF30
 4810 0114 05A0     		.2byte	0xa005
 4811 0116 05       		.uleb128 0x5
 4812 0117 96100000 		.4byte	.LASF31
 4813 011b 06A0     		.2byte	0xa006
 4814 011d 05       		.uleb128 0x5
 4815 011e 84020000 		.4byte	.LASF32
 4816 0122 07A0     		.2byte	0xa007
 4817 0124 05       		.uleb128 0x5
 4818 0125 54100000 		.4byte	.LASF33
 4819 0129 08A0     		.2byte	0xa008
 4820 012b 05       		.uleb128 0x5
 4821 012c 5D110000 		.4byte	.LASF34
 4822 0130 09A0     		.2byte	0xa009
 4823 0132 05       		.uleb128 0x5
 4824 0133 E5000000 		.4byte	.LASF35
 4825 0137 0AA0     		.2byte	0xa00a
 4826 0139 05       		.uleb128 0x5
 4827 013a 9C090000 		.4byte	.LASF36
 4828 013e 0BA0     		.2byte	0xa00b
 4829 0140 05       		.uleb128 0x5
 4830 0141 44080000 		.4byte	.LASF37
 4831 0145 0CA0     		.2byte	0xa00c
 4832 0147 05       		.uleb128 0x5
 4833 0148 0F0D0000 		.4byte	.LASF38
 4834 014c 0DA0     		.2byte	0xa00d
 4835 014e 05       		.uleb128 0x5
 4836 014f 580F0000 		.4byte	.LASF39
 4837 0153 0EA0     		.2byte	0xa00e
 4838 0155 05       		.uleb128 0x5
 4839 0156 31060000 		.4byte	.LASF40
 4840 015a 0FA0     		.2byte	0xa00f
 4841 015c 05       		.uleb128 0x5
 4842 015d FF110000 		.4byte	.LASF41
 4843 0161 10A0     		.2byte	0xa010
 4844 0163 05       		.uleb128 0x5
 4845 0164 C0010000 		.4byte	.LASF42
 4846 0168 11A0     		.2byte	0xa011
 4847 016a 05       		.uleb128 0x5
 4848 016b CF000000 		.4byte	.LASF43
 4849 016f FFFF     		.2byte	0xffff
ARM GAS  C:\Users\PCHAUT~1\AppData\Local\Temp\ccvICu2w.s 			page 89


 4850 0171 00       		.byte	0
 4851 0172 02       		.uleb128 0x2
 4852 0173 04       		.byte	0x4
 4853 0174 07       		.byte	0x7
 4854 0175 14010000 		.4byte	.LASF44
 4855 0179 06       		.uleb128 0x6
 4856 017a 04       		.byte	0x4
 4857 017b 05       		.byte	0x5
 4858 017c 696E7400 		.ascii	"int\000"
 4859 0180 02       		.uleb128 0x2
 4860 0181 08       		.byte	0x8
 4861 0182 05       		.byte	0x5
 4862 0183 E0080000 		.4byte	.LASF45
 4863 0187 02       		.uleb128 0x2
 4864 0188 08       		.byte	0x8
 4865 0189 04       		.byte	0x4
 4866 018a 3B0B0000 		.4byte	.LASF46
 4867 018e 02       		.uleb128 0x2
 4868 018f 01       		.byte	0x1
 4869 0190 06       		.byte	0x6
 4870 0191 31110000 		.4byte	.LASF47
 4871 0195 02       		.uleb128 0x2
 4872 0196 02       		.byte	0x2
 4873 0197 05       		.byte	0x5
 4874 0198 BA0B0000 		.4byte	.LASF48
 4875 019c 02       		.uleb128 0x2
 4876 019d 04       		.byte	0x4
 4877 019e 05       		.byte	0x5
 4878 019f F40B0000 		.4byte	.LASF49
 4879 01a3 02       		.uleb128 0x2
 4880 01a4 04       		.byte	0x4
 4881 01a5 07       		.byte	0x7
 4882 01a6 F40D0000 		.4byte	.LASF50
 4883 01aa 02       		.uleb128 0x2
 4884 01ab 08       		.byte	0x8
 4885 01ac 07       		.byte	0x7
 4886 01ad DE040000 		.4byte	.LASF51
 4887 01b1 07       		.uleb128 0x7
 4888 01b2 470B0000 		.4byte	.LASF52
 4889 01b6 04       		.byte	0x4
 4890 01b7 22       		.byte	0x22
 4891 01b8 BC010000 		.4byte	0x1bc
 4892 01bc 08       		.uleb128 0x8
 4893 01bd 04       		.byte	0x4
 4894 01be C2010000 		.4byte	0x1c2
 4895 01c2 09       		.uleb128 0x9
 4896 01c3 8D0F0000 		.4byte	.LASF159
 4897 01c7 07       		.uleb128 0x7
 4898 01c8 E5110000 		.4byte	.LASF53
 4899 01cc 05       		.byte	0x5
 4900 01cd 2C       		.byte	0x2c
 4901 01ce 9C010000 		.4byte	0x19c
 4902 01d2 07       		.uleb128 0x7
 4903 01d3 35030000 		.4byte	.LASF54
 4904 01d7 05       		.byte	0x5
 4905 01d8 72       		.byte	0x72
 4906 01d9 9C010000 		.4byte	0x19c
ARM GAS  C:\Users\PCHAUT~1\AppData\Local\Temp\ccvICu2w.s 			page 90


 4907 01dd 0A       		.uleb128 0xa
 4908 01de 510F0000 		.4byte	.LASF55
 4909 01e2 06       		.byte	0x6
 4910 01e3 6501     		.2byte	0x165
 4911 01e5 72010000 		.4byte	0x172
 4912 01e9 0B       		.uleb128 0xb
 4913 01ea 04       		.byte	0x4
 4914 01eb 05       		.byte	0x5
 4915 01ec A6       		.byte	0xa6
 4916 01ed 08020000 		.4byte	0x208
 4917 01f1 0C       		.uleb128 0xc
 4918 01f2 0A080000 		.4byte	.LASF56
 4919 01f6 05       		.byte	0x5
 4920 01f7 A8       		.byte	0xa8
 4921 01f8 DD010000 		.4byte	0x1dd
 4922 01fc 0C       		.uleb128 0xc
 4923 01fd A20C0000 		.4byte	.LASF57
 4924 0201 05       		.byte	0x5
 4925 0202 A9       		.byte	0xa9
 4926 0203 08020000 		.4byte	0x208
 4927 0207 00       		.byte	0
 4928 0208 0D       		.uleb128 0xd
 4929 0209 25000000 		.4byte	0x25
 4930 020d 18020000 		.4byte	0x218
 4931 0211 0E       		.uleb128 0xe
 4932 0212 72010000 		.4byte	0x172
 4933 0216 03       		.byte	0x3
 4934 0217 00       		.byte	0
 4935 0218 0F       		.uleb128 0xf
 4936 0219 08       		.byte	0x8
 4937 021a 05       		.byte	0x5
 4938 021b A3       		.byte	0xa3
 4939 021c 39020000 		.4byte	0x239
 4940 0220 10       		.uleb128 0x10
 4941 0221 25040000 		.4byte	.LASF58
 4942 0225 05       		.byte	0x5
 4943 0226 A5       		.byte	0xa5
 4944 0227 79010000 		.4byte	0x179
 4945 022b 00       		.byte	0
 4946 022c 10       		.uleb128 0x10
 4947 022d CF060000 		.4byte	.LASF59
 4948 0231 05       		.byte	0x5
 4949 0232 AA       		.byte	0xaa
 4950 0233 E9010000 		.4byte	0x1e9
 4951 0237 04       		.byte	0x4
 4952 0238 00       		.byte	0
 4953 0239 07       		.uleb128 0x7
 4954 023a B8090000 		.4byte	.LASF60
 4955 023e 05       		.byte	0x5
 4956 023f AB       		.byte	0xab
 4957 0240 18020000 		.4byte	0x218
 4958 0244 07       		.uleb128 0x7
 4959 0245 E1070000 		.4byte	.LASF61
 4960 0249 05       		.byte	0x5
 4961 024a AF       		.byte	0xaf
 4962 024b B1010000 		.4byte	0x1b1
 4963 024f 11       		.uleb128 0x11
ARM GAS  C:\Users\PCHAUT~1\AppData\Local\Temp\ccvICu2w.s 			page 91


 4964 0250 04       		.byte	0x4
 4965 0251 08       		.uleb128 0x8
 4966 0252 04       		.byte	0x4
 4967 0253 57020000 		.4byte	0x257
 4968 0257 02       		.uleb128 0x2
 4969 0258 01       		.byte	0x1
 4970 0259 08       		.byte	0x8
 4971 025a 14070000 		.4byte	.LASF62
 4972 025e 12       		.uleb128 0x12
 4973 025f 57020000 		.4byte	0x257
 4974 0263 07       		.uleb128 0x7
 4975 0264 23090000 		.4byte	.LASF63
 4976 0268 07       		.byte	0x7
 4977 0269 16       		.byte	0x16
 4978 026a A3010000 		.4byte	0x1a3
 4979 026e 13       		.uleb128 0x13
 4980 026f B4030000 		.4byte	.LASF68
 4981 0273 18       		.byte	0x18
 4982 0274 07       		.byte	0x7
 4983 0275 2F       		.byte	0x2f
 4984 0276 C1020000 		.4byte	0x2c1
 4985 027a 10       		.uleb128 0x10
 4986 027b 4E060000 		.4byte	.LASF64
 4987 027f 07       		.byte	0x7
 4988 0280 31       		.byte	0x31
 4989 0281 C1020000 		.4byte	0x2c1
 4990 0285 00       		.byte	0
 4991 0286 14       		.uleb128 0x14
 4992 0287 5F6B00   		.ascii	"_k\000"
 4993 028a 07       		.byte	0x7
 4994 028b 32       		.byte	0x32
 4995 028c 79010000 		.4byte	0x179
 4996 0290 04       		.byte	0x4
 4997 0291 10       		.uleb128 0x10
 4998 0292 830D0000 		.4byte	.LASF65
 4999 0296 07       		.byte	0x7
 5000 0297 32       		.byte	0x32
 5001 0298 79010000 		.4byte	0x179
 5002 029c 08       		.byte	0x8
 5003 029d 10       		.uleb128 0x10
 5004 029e 590C0000 		.4byte	.LASF66
 5005 02a2 07       		.byte	0x7
 5006 02a3 32       		.byte	0x32
 5007 02a4 79010000 		.4byte	0x179
 5008 02a8 0C       		.byte	0xc
 5009 02a9 10       		.uleb128 0x10
 5010 02aa 0A050000 		.4byte	.LASF67
 5011 02ae 07       		.byte	0x7
 5012 02af 32       		.byte	0x32
 5013 02b0 79010000 		.4byte	0x179
 5014 02b4 10       		.byte	0x10
 5015 02b5 14       		.uleb128 0x14
 5016 02b6 5F7800   		.ascii	"_x\000"
 5017 02b9 07       		.byte	0x7
 5018 02ba 33       		.byte	0x33
 5019 02bb C7020000 		.4byte	0x2c7
 5020 02bf 14       		.byte	0x14
ARM GAS  C:\Users\PCHAUT~1\AppData\Local\Temp\ccvICu2w.s 			page 92


 5021 02c0 00       		.byte	0
 5022 02c1 08       		.uleb128 0x8
 5023 02c2 04       		.byte	0x4
 5024 02c3 6E020000 		.4byte	0x26e
 5025 02c7 0D       		.uleb128 0xd
 5026 02c8 63020000 		.4byte	0x263
 5027 02cc D7020000 		.4byte	0x2d7
 5028 02d0 0E       		.uleb128 0xe
 5029 02d1 72010000 		.4byte	0x172
 5030 02d5 00       		.byte	0
 5031 02d6 00       		.byte	0
 5032 02d7 13       		.uleb128 0x13
 5033 02d8 D60D0000 		.4byte	.LASF69
 5034 02dc 24       		.byte	0x24
 5035 02dd 07       		.byte	0x7
 5036 02de 37       		.byte	0x37
 5037 02df 50030000 		.4byte	0x350
 5038 02e3 10       		.uleb128 0x10
 5039 02e4 E1050000 		.4byte	.LASF70
 5040 02e8 07       		.byte	0x7
 5041 02e9 39       		.byte	0x39
 5042 02ea 79010000 		.4byte	0x179
 5043 02ee 00       		.byte	0
 5044 02ef 10       		.uleb128 0x10
 5045 02f0 62040000 		.4byte	.LASF71
 5046 02f4 07       		.byte	0x7
 5047 02f5 3A       		.byte	0x3a
 5048 02f6 79010000 		.4byte	0x179
 5049 02fa 04       		.byte	0x4
 5050 02fb 10       		.uleb128 0x10
 5051 02fc FC030000 		.4byte	.LASF72
 5052 0300 07       		.byte	0x7
 5053 0301 3B       		.byte	0x3b
 5054 0302 79010000 		.4byte	0x179
 5055 0306 08       		.byte	0x8
 5056 0307 10       		.uleb128 0x10
 5057 0308 19070000 		.4byte	.LASF73
 5058 030c 07       		.byte	0x7
 5059 030d 3C       		.byte	0x3c
 5060 030e 79010000 		.4byte	0x179
 5061 0312 0C       		.byte	0xc
 5062 0313 10       		.uleb128 0x10
 5063 0314 E20A0000 		.4byte	.LASF74
 5064 0318 07       		.byte	0x7
 5065 0319 3D       		.byte	0x3d
 5066 031a 79010000 		.4byte	0x179
 5067 031e 10       		.byte	0x10
 5068 031f 10       		.uleb128 0x10
 5069 0320 F90C0000 		.4byte	.LASF75
 5070 0324 07       		.byte	0x7
 5071 0325 3E       		.byte	0x3e
 5072 0326 79010000 		.4byte	0x179
 5073 032a 14       		.byte	0x14
 5074 032b 10       		.uleb128 0x10
 5075 032c D2030000 		.4byte	.LASF76
 5076 0330 07       		.byte	0x7
 5077 0331 3F       		.byte	0x3f
ARM GAS  C:\Users\PCHAUT~1\AppData\Local\Temp\ccvICu2w.s 			page 93


 5078 0332 79010000 		.4byte	0x179
 5079 0336 18       		.byte	0x18
 5080 0337 10       		.uleb128 0x10
 5081 0338 F4050000 		.4byte	.LASF77
 5082 033c 07       		.byte	0x7
 5083 033d 40       		.byte	0x40
 5084 033e 79010000 		.4byte	0x179
 5085 0342 1C       		.byte	0x1c
 5086 0343 10       		.uleb128 0x10
 5087 0344 290A0000 		.4byte	.LASF78
 5088 0348 07       		.byte	0x7
 5089 0349 41       		.byte	0x41
 5090 034a 79010000 		.4byte	0x179
 5091 034e 20       		.byte	0x20
 5092 034f 00       		.byte	0
 5093 0350 15       		.uleb128 0x15
 5094 0351 4A000000 		.4byte	.LASF79
 5095 0355 0801     		.2byte	0x108
 5096 0357 07       		.byte	0x7
 5097 0358 4A       		.byte	0x4a
 5098 0359 90030000 		.4byte	0x390
 5099 035d 10       		.uleb128 0x10
 5100 035e 29110000 		.4byte	.LASF80
 5101 0362 07       		.byte	0x7
 5102 0363 4B       		.byte	0x4b
 5103 0364 90030000 		.4byte	0x390
 5104 0368 00       		.byte	0
 5105 0369 10       		.uleb128 0x10
 5106 036a 750F0000 		.4byte	.LASF81
 5107 036e 07       		.byte	0x7
 5108 036f 4C       		.byte	0x4c
 5109 0370 90030000 		.4byte	0x390
 5110 0374 80       		.byte	0x80
 5111 0375 16       		.uleb128 0x16
 5112 0376 7C110000 		.4byte	.LASF82
 5113 037a 07       		.byte	0x7
 5114 037b 4E       		.byte	0x4e
 5115 037c 63020000 		.4byte	0x263
 5116 0380 0001     		.2byte	0x100
 5117 0382 16       		.uleb128 0x16
 5118 0383 43120000 		.4byte	.LASF83
 5119 0387 07       		.byte	0x7
 5120 0388 51       		.byte	0x51
 5121 0389 63020000 		.4byte	0x263
 5122 038d 0401     		.2byte	0x104
 5123 038f 00       		.byte	0
 5124 0390 0D       		.uleb128 0xd
 5125 0391 4F020000 		.4byte	0x24f
 5126 0395 A0030000 		.4byte	0x3a0
 5127 0399 0E       		.uleb128 0xe
 5128 039a 72010000 		.4byte	0x172
 5129 039e 1F       		.byte	0x1f
 5130 039f 00       		.byte	0
 5131 03a0 15       		.uleb128 0x15
 5132 03a1 970B0000 		.4byte	.LASF84
 5133 03a5 9001     		.2byte	0x190
 5134 03a7 07       		.byte	0x7
ARM GAS  C:\Users\PCHAUT~1\AppData\Local\Temp\ccvICu2w.s 			page 94


 5135 03a8 5D       		.byte	0x5d
 5136 03a9 DE030000 		.4byte	0x3de
 5137 03ad 10       		.uleb128 0x10
 5138 03ae 4E060000 		.4byte	.LASF64
 5139 03b2 07       		.byte	0x7
 5140 03b3 5E       		.byte	0x5e
 5141 03b4 DE030000 		.4byte	0x3de
 5142 03b8 00       		.byte	0
 5143 03b9 10       		.uleb128 0x10
 5144 03ba 03060000 		.4byte	.LASF85
 5145 03be 07       		.byte	0x7
 5146 03bf 5F       		.byte	0x5f
 5147 03c0 79010000 		.4byte	0x179
 5148 03c4 04       		.byte	0x4
 5149 03c5 10       		.uleb128 0x10
 5150 03c6 3D030000 		.4byte	.LASF86
 5151 03ca 07       		.byte	0x7
 5152 03cb 61       		.byte	0x61
 5153 03cc E4030000 		.4byte	0x3e4
 5154 03d0 08       		.byte	0x8
 5155 03d1 10       		.uleb128 0x10
 5156 03d2 4A000000 		.4byte	.LASF79
 5157 03d6 07       		.byte	0x7
 5158 03d7 62       		.byte	0x62
 5159 03d8 50030000 		.4byte	0x350
 5160 03dc 88       		.byte	0x88
 5161 03dd 00       		.byte	0
 5162 03de 08       		.uleb128 0x8
 5163 03df 04       		.byte	0x4
 5164 03e0 A0030000 		.4byte	0x3a0
 5165 03e4 0D       		.uleb128 0xd
 5166 03e5 F4030000 		.4byte	0x3f4
 5167 03e9 F4030000 		.4byte	0x3f4
 5168 03ed 0E       		.uleb128 0xe
 5169 03ee 72010000 		.4byte	0x172
 5170 03f2 1F       		.byte	0x1f
 5171 03f3 00       		.byte	0
 5172 03f4 08       		.uleb128 0x8
 5173 03f5 04       		.byte	0x4
 5174 03f6 FA030000 		.4byte	0x3fa
 5175 03fa 17       		.uleb128 0x17
 5176 03fb 13       		.uleb128 0x13
 5177 03fc 84100000 		.4byte	.LASF87
 5178 0400 08       		.byte	0x8
 5179 0401 07       		.byte	0x7
 5180 0402 75       		.byte	0x75
 5181 0403 20040000 		.4byte	0x420
 5182 0407 10       		.uleb128 0x10
 5183 0408 0D090000 		.4byte	.LASF88
 5184 040c 07       		.byte	0x7
 5185 040d 76       		.byte	0x76
 5186 040e 20040000 		.4byte	0x420
 5187 0412 00       		.byte	0
 5188 0413 10       		.uleb128 0x10
 5189 0414 A3110000 		.4byte	.LASF89
 5190 0418 07       		.byte	0x7
 5191 0419 77       		.byte	0x77
ARM GAS  C:\Users\PCHAUT~1\AppData\Local\Temp\ccvICu2w.s 			page 95


 5192 041a 79010000 		.4byte	0x179
 5193 041e 04       		.byte	0x4
 5194 041f 00       		.byte	0
 5195 0420 08       		.uleb128 0x8
 5196 0421 04       		.byte	0x4
 5197 0422 25000000 		.4byte	0x25
 5198 0426 13       		.uleb128 0x13
 5199 0427 02050000 		.4byte	.LASF90
 5200 042b 68       		.byte	0x68
 5201 042c 07       		.byte	0x7
 5202 042d B5       		.byte	0xb5
 5203 042e 50050000 		.4byte	0x550
 5204 0432 14       		.uleb128 0x14
 5205 0433 5F7000   		.ascii	"_p\000"
 5206 0436 07       		.byte	0x7
 5207 0437 B6       		.byte	0xb6
 5208 0438 20040000 		.4byte	0x420
 5209 043c 00       		.byte	0
 5210 043d 14       		.uleb128 0x14
 5211 043e 5F7200   		.ascii	"_r\000"
 5212 0441 07       		.byte	0x7
 5213 0442 B7       		.byte	0xb7
 5214 0443 79010000 		.4byte	0x179
 5215 0447 04       		.byte	0x4
 5216 0448 14       		.uleb128 0x14
 5217 0449 5F7700   		.ascii	"_w\000"
 5218 044c 07       		.byte	0x7
 5219 044d B8       		.byte	0xb8
 5220 044e 79010000 		.4byte	0x179
 5221 0452 08       		.byte	0x8
 5222 0453 10       		.uleb128 0x10
 5223 0454 6F010000 		.4byte	.LASF91
 5224 0458 07       		.byte	0x7
 5225 0459 B9       		.byte	0xb9
 5226 045a 95010000 		.4byte	0x195
 5227 045e 0C       		.byte	0xc
 5228 045f 10       		.uleb128 0x10
 5229 0460 6E090000 		.4byte	.LASF92
 5230 0464 07       		.byte	0x7
 5231 0465 BA       		.byte	0xba
 5232 0466 95010000 		.4byte	0x195
 5233 046a 0E       		.byte	0xe
 5234 046b 14       		.uleb128 0x14
 5235 046c 5F626600 		.ascii	"_bf\000"
 5236 0470 07       		.byte	0x7
 5237 0471 BB       		.byte	0xbb
 5238 0472 FB030000 		.4byte	0x3fb
 5239 0476 10       		.byte	0x10
 5240 0477 10       		.uleb128 0x10
 5241 0478 66010000 		.4byte	.LASF93
 5242 047c 07       		.byte	0x7
 5243 047d BC       		.byte	0xbc
 5244 047e 79010000 		.4byte	0x179
 5245 0482 18       		.byte	0x18
 5246 0483 10       		.uleb128 0x10
 5247 0484 23000000 		.4byte	.LASF94
 5248 0488 07       		.byte	0x7
ARM GAS  C:\Users\PCHAUT~1\AppData\Local\Temp\ccvICu2w.s 			page 96


 5249 0489 C3       		.byte	0xc3
 5250 048a 4F020000 		.4byte	0x24f
 5251 048e 1C       		.byte	0x1c
 5252 048f 10       		.uleb128 0x10
 5253 0490 4E100000 		.4byte	.LASF95
 5254 0494 07       		.byte	0x7
 5255 0495 C5       		.byte	0xc5
 5256 0496 AB060000 		.4byte	0x6ab
 5257 049a 20       		.byte	0x20
 5258 049b 10       		.uleb128 0x10
 5259 049c 6C0B0000 		.4byte	.LASF96
 5260 04a0 07       		.byte	0x7
 5261 04a1 C7       		.byte	0xc7
 5262 04a2 D5060000 		.4byte	0x6d5
 5263 04a6 24       		.byte	0x24
 5264 04a7 10       		.uleb128 0x10
 5265 04a8 96120000 		.4byte	.LASF97
 5266 04ac 07       		.byte	0x7
 5267 04ad CA       		.byte	0xca
 5268 04ae F9060000 		.4byte	0x6f9
 5269 04b2 28       		.byte	0x28
 5270 04b3 10       		.uleb128 0x10
 5271 04b4 23080000 		.4byte	.LASF98
 5272 04b8 07       		.byte	0x7
 5273 04b9 CB       		.byte	0xcb
 5274 04ba 13070000 		.4byte	0x713
 5275 04be 2C       		.byte	0x2c
 5276 04bf 14       		.uleb128 0x14
 5277 04c0 5F756200 		.ascii	"_ub\000"
 5278 04c4 07       		.byte	0x7
 5279 04c5 CE       		.byte	0xce
 5280 04c6 FB030000 		.4byte	0x3fb
 5281 04ca 30       		.byte	0x30
 5282 04cb 14       		.uleb128 0x14
 5283 04cc 5F757000 		.ascii	"_up\000"
 5284 04d0 07       		.byte	0x7
 5285 04d1 CF       		.byte	0xcf
 5286 04d2 20040000 		.4byte	0x420
 5287 04d6 38       		.byte	0x38
 5288 04d7 14       		.uleb128 0x14
 5289 04d8 5F757200 		.ascii	"_ur\000"
 5290 04dc 07       		.byte	0x7
 5291 04dd D0       		.byte	0xd0
 5292 04de 79010000 		.4byte	0x179
 5293 04e2 3C       		.byte	0x3c
 5294 04e3 10       		.uleb128 0x10
 5295 04e4 C4120000 		.4byte	.LASF99
 5296 04e8 07       		.byte	0x7
 5297 04e9 D3       		.byte	0xd3
 5298 04ea 19070000 		.4byte	0x719
 5299 04ee 40       		.byte	0x40
 5300 04ef 10       		.uleb128 0x10
 5301 04f0 EC110000 		.4byte	.LASF100
 5302 04f4 07       		.byte	0x7
 5303 04f5 D4       		.byte	0xd4
 5304 04f6 29070000 		.4byte	0x729
 5305 04fa 43       		.byte	0x43
ARM GAS  C:\Users\PCHAUT~1\AppData\Local\Temp\ccvICu2w.s 			page 97


 5306 04fb 14       		.uleb128 0x14
 5307 04fc 5F6C6200 		.ascii	"_lb\000"
 5308 0500 07       		.byte	0x7
 5309 0501 D7       		.byte	0xd7
 5310 0502 FB030000 		.4byte	0x3fb
 5311 0506 44       		.byte	0x44
 5312 0507 10       		.uleb128 0x10
 5313 0508 CD0D0000 		.4byte	.LASF101
 5314 050c 07       		.byte	0x7
 5315 050d DA       		.byte	0xda
 5316 050e 79010000 		.4byte	0x179
 5317 0512 4C       		.byte	0x4c
 5318 0513 10       		.uleb128 0x10
 5319 0514 2D050000 		.4byte	.LASF102
 5320 0518 07       		.byte	0x7
 5321 0519 DB       		.byte	0xdb
 5322 051a C7010000 		.4byte	0x1c7
 5323 051e 50       		.byte	0x50
 5324 051f 10       		.uleb128 0x10
 5325 0520 9C0C0000 		.4byte	.LASF103
 5326 0524 07       		.byte	0x7
 5327 0525 DE       		.byte	0xde
 5328 0526 6E050000 		.4byte	0x56e
 5329 052a 54       		.byte	0x54
 5330 052b 10       		.uleb128 0x10
 5331 052c EE0D0000 		.4byte	.LASF104
 5332 0530 07       		.byte	0x7
 5333 0531 E2       		.byte	0xe2
 5334 0532 44020000 		.4byte	0x244
 5335 0536 58       		.byte	0x58
 5336 0537 10       		.uleb128 0x10
 5337 0538 61020000 		.4byte	.LASF105
 5338 053c 07       		.byte	0x7
 5339 053d E4       		.byte	0xe4
 5340 053e 39020000 		.4byte	0x239
 5341 0542 5C       		.byte	0x5c
 5342 0543 10       		.uleb128 0x10
 5343 0544 3B120000 		.4byte	.LASF106
 5344 0548 07       		.byte	0x7
 5345 0549 E5       		.byte	0xe5
 5346 054a 79010000 		.4byte	0x179
 5347 054e 64       		.byte	0x64
 5348 054f 00       		.byte	0
 5349 0550 18       		.uleb128 0x18
 5350 0551 79010000 		.4byte	0x179
 5351 0555 6E050000 		.4byte	0x56e
 5352 0559 19       		.uleb128 0x19
 5353 055a 6E050000 		.4byte	0x56e
 5354 055e 19       		.uleb128 0x19
 5355 055f 4F020000 		.4byte	0x24f
 5356 0563 19       		.uleb128 0x19
 5357 0564 51020000 		.4byte	0x251
 5358 0568 19       		.uleb128 0x19
 5359 0569 79010000 		.4byte	0x179
 5360 056d 00       		.byte	0
 5361 056e 08       		.uleb128 0x8
 5362 056f 04       		.byte	0x4
ARM GAS  C:\Users\PCHAUT~1\AppData\Local\Temp\ccvICu2w.s 			page 98


 5363 0570 79050000 		.4byte	0x579
 5364 0574 12       		.uleb128 0x12
 5365 0575 6E050000 		.4byte	0x56e
 5366 0579 1A       		.uleb128 0x1a
 5367 057a 43110000 		.4byte	.LASF107
 5368 057e 2804     		.2byte	0x428
 5369 0580 07       		.byte	0x7
 5370 0581 3902     		.2byte	0x239
 5371 0583 AB060000 		.4byte	0x6ab
 5372 0587 1B       		.uleb128 0x1b
 5373 0588 97010000 		.4byte	.LASF108
 5374 058c 07       		.byte	0x7
 5375 058d 3B02     		.2byte	0x23b
 5376 058f 79010000 		.4byte	0x179
 5377 0593 00       		.byte	0
 5378 0594 1B       		.uleb128 0x1b
 5379 0595 99080000 		.4byte	.LASF109
 5380 0599 07       		.byte	0x7
 5381 059a 4002     		.2byte	0x240
 5382 059c 80070000 		.4byte	0x780
 5383 05a0 04       		.byte	0x4
 5384 05a1 1B       		.uleb128 0x1b
 5385 05a2 2D030000 		.4byte	.LASF110
 5386 05a6 07       		.byte	0x7
 5387 05a7 4002     		.2byte	0x240
 5388 05a9 80070000 		.4byte	0x780
 5389 05ad 08       		.byte	0x8
 5390 05ae 1B       		.uleb128 0x1b
 5391 05af B3120000 		.4byte	.LASF111
 5392 05b3 07       		.byte	0x7
 5393 05b4 4002     		.2byte	0x240
 5394 05b6 80070000 		.4byte	0x780
 5395 05ba 0C       		.byte	0xc
 5396 05bb 1B       		.uleb128 0x1b
 5397 05bc FE050000 		.4byte	.LASF112
 5398 05c0 07       		.byte	0x7
 5399 05c1 4202     		.2byte	0x242
 5400 05c3 79010000 		.4byte	0x179
 5401 05c7 10       		.byte	0x10
 5402 05c8 1B       		.uleb128 0x1b
 5403 05c9 4F050000 		.4byte	.LASF113
 5404 05cd 07       		.byte	0x7
 5405 05ce 4302     		.2byte	0x243
 5406 05d0 62090000 		.4byte	0x962
 5407 05d4 14       		.byte	0x14
 5408 05d5 1B       		.uleb128 0x1b
 5409 05d6 22120000 		.4byte	.LASF114
 5410 05da 07       		.byte	0x7
 5411 05db 4602     		.2byte	0x246
 5412 05dd 79010000 		.4byte	0x179
 5413 05e1 30       		.byte	0x30
 5414 05e2 1B       		.uleb128 0x1b
 5415 05e3 09110000 		.4byte	.LASF115
 5416 05e7 07       		.byte	0x7
 5417 05e8 4702     		.2byte	0x247
 5418 05ea 77090000 		.4byte	0x977
 5419 05ee 34       		.byte	0x34
ARM GAS  C:\Users\PCHAUT~1\AppData\Local\Temp\ccvICu2w.s 			page 99


 5420 05ef 1B       		.uleb128 0x1b
 5421 05f0 34080000 		.4byte	.LASF116
 5422 05f4 07       		.byte	0x7
 5423 05f5 4902     		.2byte	0x249
 5424 05f7 79010000 		.4byte	0x179
 5425 05fb 38       		.byte	0x38
 5426 05fc 1B       		.uleb128 0x1b
 5427 05fd 92090000 		.4byte	.LASF117
 5428 0601 07       		.byte	0x7
 5429 0602 4B02     		.2byte	0x24b
 5430 0604 88090000 		.4byte	0x988
 5431 0608 3C       		.byte	0x3c
 5432 0609 1B       		.uleb128 0x1b
 5433 060a E3030000 		.4byte	.LASF118
 5434 060e 07       		.byte	0x7
 5435 060f 4E02     		.2byte	0x24e
 5436 0611 C1020000 		.4byte	0x2c1
 5437 0615 40       		.byte	0x40
 5438 0616 1B       		.uleb128 0x1b
 5439 0617 D4040000 		.4byte	.LASF119
 5440 061b 07       		.byte	0x7
 5441 061c 4F02     		.2byte	0x24f
 5442 061e 79010000 		.4byte	0x179
 5443 0622 44       		.byte	0x44
 5444 0623 1B       		.uleb128 0x1b
 5445 0624 EA060000 		.4byte	.LASF120
 5446 0628 07       		.byte	0x7
 5447 0629 5002     		.2byte	0x250
 5448 062b C1020000 		.4byte	0x2c1
 5449 062f 48       		.byte	0x48
 5450 0630 1B       		.uleb128 0x1b
 5451 0631 13090000 		.4byte	.LASF121
 5452 0635 07       		.byte	0x7
 5453 0636 5102     		.2byte	0x251
 5454 0638 8E090000 		.4byte	0x98e
 5455 063c 4C       		.byte	0x4c
 5456 063d 1B       		.uleb128 0x1b
 5457 063e 7B0D0000 		.4byte	.LASF122
 5458 0642 07       		.byte	0x7
 5459 0643 5402     		.2byte	0x254
 5460 0645 79010000 		.4byte	0x179
 5461 0649 50       		.byte	0x50
 5462 064a 1B       		.uleb128 0x1b
 5463 064b BC0F0000 		.4byte	.LASF123
 5464 064f 07       		.byte	0x7
 5465 0650 5502     		.2byte	0x255
 5466 0652 51020000 		.4byte	0x251
 5467 0656 54       		.byte	0x54
 5468 0657 1B       		.uleb128 0x1b
 5469 0658 760D0000 		.4byte	.LASF124
 5470 065c 07       		.byte	0x7
 5471 065d 7802     		.2byte	0x278
 5472 065f 40090000 		.4byte	0x940
 5473 0663 58       		.byte	0x58
 5474 0664 1C       		.uleb128 0x1c
 5475 0665 970B0000 		.4byte	.LASF84
 5476 0669 07       		.byte	0x7
ARM GAS  C:\Users\PCHAUT~1\AppData\Local\Temp\ccvICu2w.s 			page 100


 5477 066a 7C02     		.2byte	0x27c
 5478 066c DE030000 		.4byte	0x3de
 5479 0670 4801     		.2byte	0x148
 5480 0672 1C       		.uleb128 0x1c
 5481 0673 3C070000 		.4byte	.LASF125
 5482 0677 07       		.byte	0x7
 5483 0678 7D02     		.2byte	0x27d
 5484 067a A0030000 		.4byte	0x3a0
 5485 067e 4C01     		.2byte	0x14c
 5486 0680 1C       		.uleb128 0x1c
 5487 0681 23070000 		.4byte	.LASF126
 5488 0685 07       		.byte	0x7
 5489 0686 8102     		.2byte	0x281
 5490 0688 9F090000 		.4byte	0x99f
 5491 068c DC02     		.2byte	0x2dc
 5492 068e 1C       		.uleb128 0x1c
 5493 068f BB100000 		.4byte	.LASF127
 5494 0693 07       		.byte	0x7
 5495 0694 8602     		.2byte	0x286
 5496 0696 45070000 		.4byte	0x745
 5497 069a E002     		.2byte	0x2e0
 5498 069c 1C       		.uleb128 0x1c
 5499 069d 540C0000 		.4byte	.LASF128
 5500 06a1 07       		.byte	0x7
 5501 06a2 8802     		.2byte	0x288
 5502 06a4 AB090000 		.4byte	0x9ab
 5503 06a8 EC02     		.2byte	0x2ec
 5504 06aa 00       		.byte	0
 5505 06ab 08       		.uleb128 0x8
 5506 06ac 04       		.byte	0x4
 5507 06ad 50050000 		.4byte	0x550
 5508 06b1 18       		.uleb128 0x18
 5509 06b2 79010000 		.4byte	0x179
 5510 06b6 CF060000 		.4byte	0x6cf
 5511 06ba 19       		.uleb128 0x19
 5512 06bb 6E050000 		.4byte	0x56e
 5513 06bf 19       		.uleb128 0x19
 5514 06c0 4F020000 		.4byte	0x24f
 5515 06c4 19       		.uleb128 0x19
 5516 06c5 CF060000 		.4byte	0x6cf
 5517 06c9 19       		.uleb128 0x19
 5518 06ca 79010000 		.4byte	0x179
 5519 06ce 00       		.byte	0
 5520 06cf 08       		.uleb128 0x8
 5521 06d0 04       		.byte	0x4
 5522 06d1 5E020000 		.4byte	0x25e
 5523 06d5 08       		.uleb128 0x8
 5524 06d6 04       		.byte	0x4
 5525 06d7 B1060000 		.4byte	0x6b1
 5526 06db 18       		.uleb128 0x18
 5527 06dc D2010000 		.4byte	0x1d2
 5528 06e0 F9060000 		.4byte	0x6f9
 5529 06e4 19       		.uleb128 0x19
 5530 06e5 6E050000 		.4byte	0x56e
 5531 06e9 19       		.uleb128 0x19
 5532 06ea 4F020000 		.4byte	0x24f
 5533 06ee 19       		.uleb128 0x19
ARM GAS  C:\Users\PCHAUT~1\AppData\Local\Temp\ccvICu2w.s 			page 101


 5534 06ef D2010000 		.4byte	0x1d2
 5535 06f3 19       		.uleb128 0x19
 5536 06f4 79010000 		.4byte	0x179
 5537 06f8 00       		.byte	0
 5538 06f9 08       		.uleb128 0x8
 5539 06fa 04       		.byte	0x4
 5540 06fb DB060000 		.4byte	0x6db
 5541 06ff 18       		.uleb128 0x18
 5542 0700 79010000 		.4byte	0x179
 5543 0704 13070000 		.4byte	0x713
 5544 0708 19       		.uleb128 0x19
 5545 0709 6E050000 		.4byte	0x56e
 5546 070d 19       		.uleb128 0x19
 5547 070e 4F020000 		.4byte	0x24f
 5548 0712 00       		.byte	0
 5549 0713 08       		.uleb128 0x8
 5550 0714 04       		.byte	0x4
 5551 0715 FF060000 		.4byte	0x6ff
 5552 0719 0D       		.uleb128 0xd
 5553 071a 25000000 		.4byte	0x25
 5554 071e 29070000 		.4byte	0x729
 5555 0722 0E       		.uleb128 0xe
 5556 0723 72010000 		.4byte	0x172
 5557 0727 02       		.byte	0x2
 5558 0728 00       		.byte	0
 5559 0729 0D       		.uleb128 0xd
 5560 072a 25000000 		.4byte	0x25
 5561 072e 39070000 		.4byte	0x739
 5562 0732 0E       		.uleb128 0xe
 5563 0733 72010000 		.4byte	0x172
 5564 0737 00       		.byte	0
 5565 0738 00       		.byte	0
 5566 0739 0A       		.uleb128 0xa
 5567 073a 1B050000 		.4byte	.LASF129
 5568 073e 07       		.byte	0x7
 5569 073f 1F01     		.2byte	0x11f
 5570 0741 26040000 		.4byte	0x426
 5571 0745 1D       		.uleb128 0x1d
 5572 0746 A9100000 		.4byte	.LASF130
 5573 074a 0C       		.byte	0xc
 5574 074b 07       		.byte	0x7
 5575 074c 2301     		.2byte	0x123
 5576 074e 7A070000 		.4byte	0x77a
 5577 0752 1B       		.uleb128 0x1b
 5578 0753 4E060000 		.4byte	.LASF64
 5579 0757 07       		.byte	0x7
 5580 0758 2501     		.2byte	0x125
 5581 075a 7A070000 		.4byte	0x77a
 5582 075e 00       		.byte	0
 5583 075f 1B       		.uleb128 0x1b
 5584 0760 4A0F0000 		.4byte	.LASF131
 5585 0764 07       		.byte	0x7
 5586 0765 2601     		.2byte	0x126
 5587 0767 79010000 		.4byte	0x179
 5588 076b 04       		.byte	0x4
 5589 076c 1B       		.uleb128 0x1b
 5590 076d 10080000 		.4byte	.LASF132
ARM GAS  C:\Users\PCHAUT~1\AppData\Local\Temp\ccvICu2w.s 			page 102


 5591 0771 07       		.byte	0x7
 5592 0772 2701     		.2byte	0x127
 5593 0774 80070000 		.4byte	0x780
 5594 0778 08       		.byte	0x8
 5595 0779 00       		.byte	0
 5596 077a 08       		.uleb128 0x8
 5597 077b 04       		.byte	0x4
 5598 077c 45070000 		.4byte	0x745
 5599 0780 08       		.uleb128 0x8
 5600 0781 04       		.byte	0x4
 5601 0782 39070000 		.4byte	0x739
 5602 0786 1D       		.uleb128 0x1d
 5603 0787 9F040000 		.4byte	.LASF133
 5604 078b 0E       		.byte	0xe
 5605 078c 07       		.byte	0x7
 5606 078d 3F01     		.2byte	0x13f
 5607 078f BB070000 		.4byte	0x7bb
 5608 0793 1B       		.uleb128 0x1b
 5609 0794 5B120000 		.4byte	.LASF134
 5610 0798 07       		.byte	0x7
 5611 0799 4001     		.2byte	0x140
 5612 079b BB070000 		.4byte	0x7bb
 5613 079f 00       		.byte	0
 5614 07a0 1B       		.uleb128 0x1b
 5615 07a1 1D090000 		.4byte	.LASF135
 5616 07a5 07       		.byte	0x7
 5617 07a6 4101     		.2byte	0x141
 5618 07a8 BB070000 		.4byte	0x7bb
 5619 07ac 06       		.byte	0x6
 5620 07ad 1B       		.uleb128 0x1b
 5621 07ae 49100000 		.4byte	.LASF136
 5622 07b2 07       		.byte	0x7
 5623 07b3 4201     		.2byte	0x142
 5624 07b5 4C000000 		.4byte	0x4c
 5625 07b9 0C       		.byte	0xc
 5626 07ba 00       		.byte	0
 5627 07bb 0D       		.uleb128 0xd
 5628 07bc 4C000000 		.4byte	0x4c
 5629 07c0 CB070000 		.4byte	0x7cb
 5630 07c4 0E       		.uleb128 0xe
 5631 07c5 72010000 		.4byte	0x172
 5632 07c9 02       		.byte	0x2
 5633 07ca 00       		.byte	0
 5634 07cb 1E       		.uleb128 0x1e
 5635 07cc D0       		.byte	0xd0
 5636 07cd 07       		.byte	0x7
 5637 07ce 5902     		.2byte	0x259
 5638 07d0 CC080000 		.4byte	0x8cc
 5639 07d4 1B       		.uleb128 0x1b
 5640 07d5 F2110000 		.4byte	.LASF137
 5641 07d9 07       		.byte	0x7
 5642 07da 5B02     		.2byte	0x25b
 5643 07dc 72010000 		.4byte	0x172
 5644 07e0 00       		.byte	0
 5645 07e1 1B       		.uleb128 0x1b
 5646 07e2 C3100000 		.4byte	.LASF138
 5647 07e6 07       		.byte	0x7
ARM GAS  C:\Users\PCHAUT~1\AppData\Local\Temp\ccvICu2w.s 			page 103


 5648 07e7 5C02     		.2byte	0x25c
 5649 07e9 51020000 		.4byte	0x251
 5650 07ed 04       		.byte	0x4
 5651 07ee 1B       		.uleb128 0x1b
 5652 07ef F5040000 		.4byte	.LASF139
 5653 07f3 07       		.byte	0x7
 5654 07f4 5D02     		.2byte	0x25d
 5655 07f6 CC080000 		.4byte	0x8cc
 5656 07fa 08       		.byte	0x8
 5657 07fb 1B       		.uleb128 0x1b
 5658 07fc 3F0D0000 		.4byte	.LASF140
 5659 0800 07       		.byte	0x7
 5660 0801 5E02     		.2byte	0x25e
 5661 0803 D7020000 		.4byte	0x2d7
 5662 0807 24       		.byte	0x24
 5663 0808 1B       		.uleb128 0x1b
 5664 0809 A0080000 		.4byte	.LASF141
 5665 080d 07       		.byte	0x7
 5666 080e 5F02     		.2byte	0x25f
 5667 0810 79010000 		.4byte	0x179
 5668 0814 48       		.byte	0x48
 5669 0815 1B       		.uleb128 0x1b
 5670 0816 61120000 		.4byte	.LASF142
 5671 081a 07       		.byte	0x7
 5672 081b 6002     		.2byte	0x260
 5673 081d AA010000 		.4byte	0x1aa
 5674 0821 50       		.byte	0x50
 5675 0822 1B       		.uleb128 0x1b
 5676 0823 AE000000 		.4byte	.LASF143
 5677 0827 07       		.byte	0x7
 5678 0828 6102     		.2byte	0x261
 5679 082a 86070000 		.4byte	0x786
 5680 082e 58       		.byte	0x58
 5681 082f 1B       		.uleb128 0x1b
 5682 0830 07070000 		.4byte	.LASF144
 5683 0834 07       		.byte	0x7
 5684 0835 6202     		.2byte	0x262
 5685 0837 39020000 		.4byte	0x239
 5686 083b 68       		.byte	0x68
 5687 083c 1B       		.uleb128 0x1b
 5688 083d D0100000 		.4byte	.LASF145
 5689 0841 07       		.byte	0x7
 5690 0842 6302     		.2byte	0x263
 5691 0844 39020000 		.4byte	0x239
 5692 0848 70       		.byte	0x70
 5693 0849 1B       		.uleb128 0x1b
 5694 084a 6C000000 		.4byte	.LASF146
 5695 084e 07       		.byte	0x7
 5696 084f 6402     		.2byte	0x264
 5697 0851 39020000 		.4byte	0x239
 5698 0855 78       		.byte	0x78
 5699 0856 1B       		.uleb128 0x1b
 5700 0857 8B0D0000 		.4byte	.LASF147
 5701 085b 07       		.byte	0x7
 5702 085c 6502     		.2byte	0x265
 5703 085e DC080000 		.4byte	0x8dc
 5704 0862 80       		.byte	0x80
ARM GAS  C:\Users\PCHAUT~1\AppData\Local\Temp\ccvICu2w.s 			page 104


 5705 0863 1B       		.uleb128 0x1b
 5706 0864 08010000 		.4byte	.LASF148
 5707 0868 07       		.byte	0x7
 5708 0869 6602     		.2byte	0x266
 5709 086b EC080000 		.4byte	0x8ec
 5710 086f 88       		.byte	0x88
 5711 0870 1B       		.uleb128 0x1b
 5712 0871 F00F0000 		.4byte	.LASF149
 5713 0875 07       		.byte	0x7
 5714 0876 6702     		.2byte	0x267
 5715 0878 79010000 		.4byte	0x179
 5716 087c A0       		.byte	0xa0
 5717 087d 1B       		.uleb128 0x1b
 5718 087e 6A0A0000 		.4byte	.LASF150
 5719 0882 07       		.byte	0x7
 5720 0883 6802     		.2byte	0x268
 5721 0885 39020000 		.4byte	0x239
 5722 0889 A4       		.byte	0xa4
 5723 088a 1B       		.uleb128 0x1b
 5724 088b 2D070000 		.4byte	.LASF151
 5725 088f 07       		.byte	0x7
 5726 0890 6902     		.2byte	0x269
 5727 0892 39020000 		.4byte	0x239
 5728 0896 AC       		.byte	0xac
 5729 0897 1B       		.uleb128 0x1b
 5730 0898 5D060000 		.4byte	.LASF152
 5731 089c 07       		.byte	0x7
 5732 089d 6A02     		.2byte	0x26a
 5733 089f 39020000 		.4byte	0x239
 5734 08a3 B4       		.byte	0xb4
 5735 08a4 1B       		.uleb128 0x1b
 5736 08a5 5F090000 		.4byte	.LASF153
 5737 08a9 07       		.byte	0x7
 5738 08aa 6B02     		.2byte	0x26b
 5739 08ac 39020000 		.4byte	0x239
 5740 08b0 BC       		.byte	0xbc
 5741 08b1 1B       		.uleb128 0x1b
 5742 08b2 F6060000 		.4byte	.LASF154
 5743 08b6 07       		.byte	0x7
 5744 08b7 6C02     		.2byte	0x26c
 5745 08b9 39020000 		.4byte	0x239
 5746 08bd C4       		.byte	0xc4
 5747 08be 1B       		.uleb128 0x1b
 5748 08bf 820A0000 		.4byte	.LASF155
 5749 08c3 07       		.byte	0x7
 5750 08c4 6D02     		.2byte	0x26d
 5751 08c6 79010000 		.4byte	0x179
 5752 08ca CC       		.byte	0xcc
 5753 08cb 00       		.byte	0
 5754 08cc 0D       		.uleb128 0xd
 5755 08cd 57020000 		.4byte	0x257
 5756 08d1 DC080000 		.4byte	0x8dc
 5757 08d5 0E       		.uleb128 0xe
 5758 08d6 72010000 		.4byte	0x172
 5759 08da 19       		.byte	0x19
 5760 08db 00       		.byte	0
 5761 08dc 0D       		.uleb128 0xd
ARM GAS  C:\Users\PCHAUT~1\AppData\Local\Temp\ccvICu2w.s 			page 105


 5762 08dd 57020000 		.4byte	0x257
 5763 08e1 EC080000 		.4byte	0x8ec
 5764 08e5 0E       		.uleb128 0xe
 5765 08e6 72010000 		.4byte	0x172
 5766 08ea 07       		.byte	0x7
 5767 08eb 00       		.byte	0
 5768 08ec 0D       		.uleb128 0xd
 5769 08ed 57020000 		.4byte	0x257
 5770 08f1 FC080000 		.4byte	0x8fc
 5771 08f5 0E       		.uleb128 0xe
 5772 08f6 72010000 		.4byte	0x172
 5773 08fa 17       		.byte	0x17
 5774 08fb 00       		.byte	0
 5775 08fc 1E       		.uleb128 0x1e
 5776 08fd F0       		.byte	0xf0
 5777 08fe 07       		.byte	0x7
 5778 08ff 7202     		.2byte	0x272
 5779 0901 20090000 		.4byte	0x920
 5780 0905 1B       		.uleb128 0x1b
 5781 0906 77040000 		.4byte	.LASF156
 5782 090a 07       		.byte	0x7
 5783 090b 7502     		.2byte	0x275
 5784 090d 20090000 		.4byte	0x920
 5785 0911 00       		.byte	0
 5786 0912 1B       		.uleb128 0x1b
 5787 0913 BB120000 		.4byte	.LASF157
 5788 0917 07       		.byte	0x7
 5789 0918 7602     		.2byte	0x276
 5790 091a 30090000 		.4byte	0x930
 5791 091e 78       		.byte	0x78
 5792 091f 00       		.byte	0
 5793 0920 0D       		.uleb128 0xd
 5794 0921 20040000 		.4byte	0x420
 5795 0925 30090000 		.4byte	0x930
 5796 0929 0E       		.uleb128 0xe
 5797 092a 72010000 		.4byte	0x172
 5798 092e 1D       		.byte	0x1d
 5799 092f 00       		.byte	0
 5800 0930 0D       		.uleb128 0xd
 5801 0931 72010000 		.4byte	0x172
 5802 0935 40090000 		.4byte	0x940
 5803 0939 0E       		.uleb128 0xe
 5804 093a 72010000 		.4byte	0x172
 5805 093e 1D       		.byte	0x1d
 5806 093f 00       		.byte	0
 5807 0940 1F       		.uleb128 0x1f
 5808 0941 F0       		.byte	0xf0
 5809 0942 07       		.byte	0x7
 5810 0943 5702     		.2byte	0x257
 5811 0945 62090000 		.4byte	0x962
 5812 0949 20       		.uleb128 0x20
 5813 094a 43110000 		.4byte	.LASF107
 5814 094e 07       		.byte	0x7
 5815 094f 6E02     		.2byte	0x26e
 5816 0951 CB070000 		.4byte	0x7cb
 5817 0955 20       		.uleb128 0x20
 5818 0956 4E0D0000 		.4byte	.LASF158
ARM GAS  C:\Users\PCHAUT~1\AppData\Local\Temp\ccvICu2w.s 			page 106


 5819 095a 07       		.byte	0x7
 5820 095b 7702     		.2byte	0x277
 5821 095d FC080000 		.4byte	0x8fc
 5822 0961 00       		.byte	0
 5823 0962 0D       		.uleb128 0xd
 5824 0963 57020000 		.4byte	0x257
 5825 0967 72090000 		.4byte	0x972
 5826 096b 0E       		.uleb128 0xe
 5827 096c 72010000 		.4byte	0x172
 5828 0970 18       		.byte	0x18
 5829 0971 00       		.byte	0
 5830 0972 09       		.uleb128 0x9
 5831 0973 22050000 		.4byte	.LASF160
 5832 0977 08       		.uleb128 0x8
 5833 0978 04       		.byte	0x4
 5834 0979 72090000 		.4byte	0x972
 5835 097d 21       		.uleb128 0x21
 5836 097e 88090000 		.4byte	0x988
 5837 0982 19       		.uleb128 0x19
 5838 0983 6E050000 		.4byte	0x56e
 5839 0987 00       		.byte	0
 5840 0988 08       		.uleb128 0x8
 5841 0989 04       		.byte	0x4
 5842 098a 7D090000 		.4byte	0x97d
 5843 098e 08       		.uleb128 0x8
 5844 098f 04       		.byte	0x4
 5845 0990 C1020000 		.4byte	0x2c1
 5846 0994 21       		.uleb128 0x21
 5847 0995 9F090000 		.4byte	0x99f
 5848 0999 19       		.uleb128 0x19
 5849 099a 79010000 		.4byte	0x179
 5850 099e 00       		.byte	0
 5851 099f 08       		.uleb128 0x8
 5852 09a0 04       		.byte	0x4
 5853 09a1 A5090000 		.4byte	0x9a5
 5854 09a5 08       		.uleb128 0x8
 5855 09a6 04       		.byte	0x4
 5856 09a7 94090000 		.4byte	0x994
 5857 09ab 0D       		.uleb128 0xd
 5858 09ac 39070000 		.4byte	0x739
 5859 09b0 BB090000 		.4byte	0x9bb
 5860 09b4 0E       		.uleb128 0xe
 5861 09b5 72010000 		.4byte	0x172
 5862 09b9 02       		.byte	0x2
 5863 09ba 00       		.byte	0
 5864 09bb 22       		.uleb128 0x22
 5865 09bc 6B040000 		.4byte	.LASF161
 5866 09c0 07       		.byte	0x7
 5867 09c1 0703     		.2byte	0x307
 5868 09c3 6E050000 		.4byte	0x56e
 5869 09c7 22       		.uleb128 0x22
 5870 09c8 A90C0000 		.4byte	.LASF162
 5871 09cc 07       		.byte	0x7
 5872 09cd 0803     		.2byte	0x308
 5873 09cf 74050000 		.4byte	0x574
 5874 09d3 23       		.uleb128 0x23
 5875 09d4 EA050000 		.4byte	.LASF163
ARM GAS  C:\Users\PCHAUT~1\AppData\Local\Temp\ccvICu2w.s 			page 107


 5876 09d8 08       		.byte	0x8
 5877 09d9 63       		.byte	0x63
 5878 09da 51020000 		.4byte	0x251
 5879 09de 07       		.uleb128 0x7
 5880 09df EF060000 		.4byte	.LASF164
 5881 09e3 09       		.byte	0x9
 5882 09e4 21       		.byte	0x21
 5883 09e5 9C010000 		.4byte	0x19c
 5884 09e9 07       		.uleb128 0x7
 5885 09ea 220A0000 		.4byte	.LASF165
 5886 09ee 09       		.byte	0x9
 5887 09ef 22       		.byte	0x22
 5888 09f0 A3010000 		.4byte	0x1a3
 5889 09f4 07       		.uleb128 0x7
 5890 09f5 14050000 		.4byte	.LASF166
 5891 09f9 09       		.byte	0x9
 5892 09fa 23       		.byte	0x23
 5893 09fb 95010000 		.4byte	0x195
 5894 09ff 12       		.uleb128 0x12
 5895 0a00 F4090000 		.4byte	0x9f4
 5896 0a04 07       		.uleb128 0x7
 5897 0a05 DA070000 		.4byte	.LASF167
 5898 0a09 09       		.byte	0x9
 5899 0a0a 24       		.byte	0x24
 5900 0a0b 4C000000 		.4byte	0x4c
 5901 0a0f 03       		.uleb128 0x3
 5902 0a10 07       		.byte	0x7
 5903 0a11 01       		.byte	0x1
 5904 0a12 25000000 		.4byte	0x25
 5905 0a16 0A       		.byte	0xa
 5906 0a17 37       		.byte	0x37
 5907 0a18 230A0000 		.4byte	0xa23
 5908 0a1c 04       		.uleb128 0x4
 5909 0a1d BC030000 		.4byte	.LASF168
 5910 0a21 10       		.byte	0x10
 5911 0a22 00       		.byte	0
 5912 0a23 0F       		.uleb128 0xf
 5913 0a24 40       		.byte	0x40
 5914 0a25 0A       		.byte	0xa
 5915 0a26 45       		.byte	0x45
 5916 0a27 BA0A0000 		.4byte	0xaba
 5917 0a2b 10       		.uleb128 0x10
 5918 0a2c F5020000 		.4byte	.LASF169
 5919 0a30 0A       		.byte	0xa
 5920 0a31 48       		.byte	0x48
 5921 0a32 040A0000 		.4byte	0xa04
 5922 0a36 00       		.byte	0
 5923 0a37 10       		.uleb128 0x10
 5924 0a38 C10A0000 		.4byte	.LASF170
 5925 0a3c 0A       		.byte	0xa
 5926 0a3d 4B       		.byte	0x4b
 5927 0a3e 040A0000 		.4byte	0xa04
 5928 0a42 02       		.byte	0x2
 5929 0a43 10       		.uleb128 0x10
 5930 0a44 4B120000 		.4byte	.LASF171
 5931 0a48 0A       		.byte	0xa
 5932 0a49 4C       		.byte	0x4c
ARM GAS  C:\Users\PCHAUT~1\AppData\Local\Temp\ccvICu2w.s 			page 108


 5933 0a4a BA0A0000 		.4byte	0xaba
 5934 0a4e 04       		.byte	0x4
 5935 0a4f 10       		.uleb128 0x10
 5936 0a50 A0000000 		.4byte	.LASF172
 5937 0a54 0A       		.byte	0xa
 5938 0a55 4F       		.byte	0x4f
 5939 0a56 040A0000 		.4byte	0xa04
 5940 0a5a 08       		.byte	0x8
 5941 0a5b 10       		.uleb128 0x10
 5942 0a5c 600A0000 		.4byte	.LASF173
 5943 0a60 0A       		.byte	0xa
 5944 0a61 50       		.byte	0x50
 5945 0a62 C00A0000 		.4byte	0xac0
 5946 0a66 0C       		.byte	0xc
 5947 0a67 10       		.uleb128 0x10
 5948 0a68 DE090000 		.4byte	.LASF174
 5949 0a6c 0A       		.byte	0xa
 5950 0a6d 53       		.byte	0x53
 5951 0a6e 040A0000 		.4byte	0xa04
 5952 0a72 10       		.byte	0x10
 5953 0a73 10       		.uleb128 0x10
 5954 0a74 A90D0000 		.4byte	.LASF175
 5955 0a78 0A       		.byte	0xa
 5956 0a79 54       		.byte	0x54
 5957 0a7a C00A0000 		.4byte	0xac0
 5958 0a7e 14       		.byte	0x14
 5959 0a7f 10       		.uleb128 0x10
 5960 0a80 9A000000 		.4byte	.LASF176
 5961 0a84 0A       		.byte	0xa
 5962 0a85 57       		.byte	0x57
 5963 0a86 040A0000 		.4byte	0xa04
 5964 0a8a 18       		.byte	0x18
 5965 0a8b 14       		.uleb128 0x14
 5966 0a8c 706300   		.ascii	"pc\000"
 5967 0a8f 0A       		.byte	0xa
 5968 0a90 58       		.byte	0x58
 5969 0a91 040A0000 		.4byte	0xa04
 5970 0a95 1A       		.byte	0x1a
 5971 0a96 14       		.uleb128 0x14
 5972 0a97 737000   		.ascii	"sp\000"
 5973 0a9a 0A       		.byte	0xa
 5974 0a9b 59       		.byte	0x59
 5975 0a9c F4090000 		.4byte	0x9f4
 5976 0aa0 1C       		.byte	0x1c
 5977 0aa1 10       		.uleb128 0x10
 5978 0aa2 810F0000 		.4byte	.LASF177
 5979 0aa6 0A       		.byte	0xa
 5980 0aa7 5C       		.byte	0x5c
 5981 0aa8 C60A0000 		.4byte	0xac6
 5982 0aac 1E       		.byte	0x1e
 5983 0aad 10       		.uleb128 0x10
 5984 0aae 2C010000 		.4byte	.LASF178
 5985 0ab2 0A       		.byte	0xa
 5986 0ab3 5D       		.byte	0x5d
 5987 0ab4 040A0000 		.4byte	0xa04
 5988 0ab8 3E       		.byte	0x3e
 5989 0ab9 00       		.byte	0
ARM GAS  C:\Users\PCHAUT~1\AppData\Local\Temp\ccvICu2w.s 			page 109


 5990 0aba 08       		.uleb128 0x8
 5991 0abb 04       		.byte	0x4
 5992 0abc 040A0000 		.4byte	0xa04
 5993 0ac0 08       		.uleb128 0x8
 5994 0ac1 04       		.byte	0x4
 5995 0ac2 F4090000 		.4byte	0x9f4
 5996 0ac6 0D       		.uleb128 0xd
 5997 0ac7 040A0000 		.4byte	0xa04
 5998 0acb D60A0000 		.4byte	0xad6
 5999 0acf 0E       		.uleb128 0xe
 6000 0ad0 72010000 		.4byte	0x172
 6001 0ad4 0F       		.byte	0xf
 6002 0ad5 00       		.byte	0
 6003 0ad6 07       		.uleb128 0x7
 6004 0ad7 15020000 		.4byte	.LASF179
 6005 0adb 0A       		.byte	0xa
 6006 0adc 5E       		.byte	0x5e
 6007 0add 230A0000 		.4byte	0xa23
 6008 0ae1 08       		.uleb128 0x8
 6009 0ae2 04       		.byte	0x4
 6010 0ae3 D60A0000 		.4byte	0xad6
 6011 0ae7 0F       		.uleb128 0xf
 6012 0ae8 08       		.byte	0x8
 6013 0ae9 01       		.byte	0x1
 6014 0aea 47       		.byte	0x47
 6015 0aeb 080B0000 		.4byte	0xb08
 6016 0aef 10       		.uleb128 0x10
 6017 0af0 E8090000 		.4byte	.LASF180
 6018 0af4 01       		.byte	0x1
 6019 0af5 49       		.byte	0x49
 6020 0af6 F4090000 		.4byte	0x9f4
 6021 0afa 00       		.byte	0
 6022 0afb 10       		.uleb128 0x10
 6023 0afc 00000000 		.4byte	.LASF181
 6024 0b00 01       		.byte	0x1
 6025 0b01 4A       		.byte	0x4a
 6026 0b02 CF060000 		.4byte	0x6cf
 6027 0b06 04       		.byte	0x4
 6028 0b07 00       		.byte	0
 6029 0b08 07       		.uleb128 0x7
 6030 0b09 140B0000 		.4byte	.LASF182
 6031 0b0d 01       		.byte	0x1
 6032 0b0e 4B       		.byte	0x4b
 6033 0b0f E70A0000 		.4byte	0xae7
 6034 0b13 0F       		.uleb128 0xf
 6035 0b14 08       		.byte	0x8
 6036 0b15 01       		.byte	0x1
 6037 0b16 4E       		.byte	0x4e
 6038 0b17 400B0000 		.4byte	0xb40
 6039 0b1b 10       		.uleb128 0x10
 6040 0b1c 00000000 		.4byte	.LASF181
 6041 0b20 01       		.byte	0x1
 6042 0b21 50       		.byte	0x50
 6043 0b22 CF060000 		.4byte	0x6cf
 6044 0b26 00       		.byte	0
 6045 0b27 14       		.uleb128 0x14
 6046 0b28 646F6300 		.ascii	"doc\000"
ARM GAS  C:\Users\PCHAUT~1\AppData\Local\Temp\ccvICu2w.s 			page 110


 6047 0b2c 01       		.byte	0x1
 6048 0b2d 51       		.byte	0x51
 6049 0b2e CF060000 		.4byte	0x6cf
 6050 0b32 04       		.byte	0x4
 6051 0b33 10       		.uleb128 0x10
 6052 0b34 FD0F0000 		.4byte	.LASF183
 6053 0b38 01       		.byte	0x1
 6054 0b39 52       		.byte	0x52
 6055 0b3a 400B0000 		.4byte	0xb40
 6056 0b3e 08       		.byte	0x8
 6057 0b3f 00       		.byte	0
 6058 0b40 0D       		.uleb128 0xd
 6059 0b41 080B0000 		.4byte	0xb08
 6060 0b45 4F0B0000 		.4byte	0xb4f
 6061 0b49 24       		.uleb128 0x24
 6062 0b4a 72010000 		.4byte	0x172
 6063 0b4e 00       		.byte	0
 6064 0b4f 07       		.uleb128 0x7
 6065 0b50 2B000000 		.4byte	.LASF184
 6066 0b54 01       		.byte	0x1
 6067 0b55 53       		.byte	0x53
 6068 0b56 130B0000 		.4byte	0xb13
 6069 0b5a 12       		.uleb128 0x12
 6070 0b5b 4F0B0000 		.4byte	0xb4f
 6071 0b5f 23       		.uleb128 0x23
 6072 0b60 EE080000 		.4byte	.LASF185
 6073 0b64 01       		.byte	0x1
 6074 0b65 62       		.byte	0x62
 6075 0b66 5A0B0000 		.4byte	0xb5a
 6076 0b6a 23       		.uleb128 0x23
 6077 0b6b B0060000 		.4byte	.LASF186
 6078 0b6f 01       		.byte	0x1
 6079 0b70 67       		.byte	0x67
 6080 0b71 5A0B0000 		.4byte	0xb5a
 6081 0b75 23       		.uleb128 0x23
 6082 0b76 FE090000 		.4byte	.LASF187
 6083 0b7a 01       		.byte	0x1
 6084 0b7b 6C       		.byte	0x6c
 6085 0b7c 5A0B0000 		.4byte	0xb5a
 6086 0b80 23       		.uleb128 0x23
 6087 0b81 D20F0000 		.4byte	.LASF188
 6088 0b85 01       		.byte	0x1
 6089 0b86 71       		.byte	0x71
 6090 0b87 5A0B0000 		.4byte	0xb5a
 6091 0b8b 23       		.uleb128 0x23
 6092 0b8c 790B0000 		.4byte	.LASF189
 6093 0b90 01       		.byte	0x1
 6094 0b91 76       		.byte	0x76
 6095 0b92 5A0B0000 		.4byte	0xb5a
 6096 0b96 23       		.uleb128 0x23
 6097 0b97 DB0C0000 		.4byte	.LASF190
 6098 0b9b 01       		.byte	0x1
 6099 0b9c 7B       		.byte	0x7b
 6100 0b9d 5A0B0000 		.4byte	0xb5a
 6101 0ba1 23       		.uleb128 0x23
 6102 0ba2 92060000 		.4byte	.LASF191
 6103 0ba6 01       		.byte	0x1
ARM GAS  C:\Users\PCHAUT~1\AppData\Local\Temp\ccvICu2w.s 			page 111


 6104 0ba7 80       		.byte	0x80
 6105 0ba8 5A0B0000 		.4byte	0xb5a
 6106 0bac 23       		.uleb128 0x23
 6107 0bad 85110000 		.4byte	.LASF192
 6108 0bb1 01       		.byte	0x1
 6109 0bb2 85       		.byte	0x85
 6110 0bb3 5A0B0000 		.4byte	0xb5a
 6111 0bb7 23       		.uleb128 0x23
 6112 0bb8 59070000 		.4byte	.LASF193
 6113 0bbc 01       		.byte	0x1
 6114 0bbd 8A       		.byte	0x8a
 6115 0bbe 5A0B0000 		.4byte	0xb5a
 6116 0bc2 23       		.uleb128 0x23
 6117 0bc3 2B090000 		.4byte	.LASF194
 6118 0bc7 01       		.byte	0x1
 6119 0bc8 8F       		.byte	0x8f
 6120 0bc9 5A0B0000 		.4byte	0xb5a
 6121 0bcd 23       		.uleb128 0x23
 6122 0bce AF0D0000 		.4byte	.LASF195
 6123 0bd2 01       		.byte	0x1
 6124 0bd3 94       		.byte	0x94
 6125 0bd4 5A0B0000 		.4byte	0xb5a
 6126 0bd8 23       		.uleb128 0x23
 6127 0bd9 BC0C0000 		.4byte	.LASF196
 6128 0bdd 01       		.byte	0x1
 6129 0bde 99       		.byte	0x99
 6130 0bdf 5A0B0000 		.4byte	0xb5a
 6131 0be3 23       		.uleb128 0x23
 6132 0be4 9A050000 		.4byte	.LASF197
 6133 0be8 01       		.byte	0x1
 6134 0be9 9E       		.byte	0x9e
 6135 0bea 5A0B0000 		.4byte	0xb5a
 6136 0bee 23       		.uleb128 0x23
 6137 0bef 1A100000 		.4byte	.LASF198
 6138 0bf3 01       		.byte	0x1
 6139 0bf4 A3       		.byte	0xa3
 6140 0bf5 5A0B0000 		.4byte	0xb5a
 6141 0bf9 23       		.uleb128 0x23
 6142 0bfa D9010000 		.4byte	.LASF199
 6143 0bfe 01       		.byte	0x1
 6144 0bff A8       		.byte	0xa8
 6145 0c00 5A0B0000 		.4byte	0xb5a
 6146 0c04 23       		.uleb128 0x23
 6147 0c05 A00A0000 		.4byte	.LASF200
 6148 0c09 01       		.byte	0x1
 6149 0c0a AD       		.byte	0xad
 6150 0c0b 5A0B0000 		.4byte	0xb5a
 6151 0c0f 23       		.uleb128 0x23
 6152 0c10 FC020000 		.4byte	.LASF201
 6153 0c14 01       		.byte	0x1
 6154 0c15 B2       		.byte	0xb2
 6155 0c16 5A0B0000 		.4byte	0xb5a
 6156 0c1a 23       		.uleb128 0x23
 6157 0c1b 06040000 		.4byte	.LASF202
 6158 0c1f 01       		.byte	0x1
 6159 0c20 B7       		.byte	0xb7
 6160 0c21 5A0B0000 		.4byte	0xb5a
ARM GAS  C:\Users\PCHAUT~1\AppData\Local\Temp\ccvICu2w.s 			page 112


 6161 0c25 23       		.uleb128 0x23
 6162 0c26 560D0000 		.4byte	.LASF203
 6163 0c2a 01       		.byte	0x1
 6164 0c2b BC       		.byte	0xbc
 6165 0c2c 5A0B0000 		.4byte	0xb5a
 6166 0c30 23       		.uleb128 0x23
 6167 0c31 7A000000 		.4byte	.LASF204
 6168 0c35 01       		.byte	0x1
 6169 0c36 C1       		.byte	0xc1
 6170 0c37 5A0B0000 		.4byte	0xb5a
 6171 0c3b 23       		.uleb128 0x23
 6172 0c3c 6F080000 		.4byte	.LASF205
 6173 0c40 01       		.byte	0x1
 6174 0c41 C6       		.byte	0xc6
 6175 0c42 5A0B0000 		.4byte	0xb5a
 6176 0c46 23       		.uleb128 0x23
 6177 0c47 2D040000 		.4byte	.LASF206
 6178 0c4b 01       		.byte	0x1
 6179 0c4c CF       		.byte	0xcf
 6180 0c4d 5A0B0000 		.4byte	0xb5a
 6181 0c51 0D       		.uleb128 0xd
 6182 0c52 FF090000 		.4byte	0x9ff
 6183 0c56 610C0000 		.4byte	0xc61
 6184 0c5a 0E       		.uleb128 0xe
 6185 0c5b 72010000 		.4byte	0x172
 6186 0c5f A0       		.byte	0xa0
 6187 0c60 00       		.byte	0
 6188 0c61 12       		.uleb128 0x12
 6189 0c62 510C0000 		.4byte	0xc51
 6190 0c66 25       		.uleb128 0x25
 6191 0c67 4F0A0000 		.4byte	.LASF207
 6192 0c6b 02       		.byte	0x2
 6193 0c6c 33       		.byte	0x33
 6194 0c6d 610C0000 		.4byte	0xc61
 6195 0c71 05       		.uleb128 0x5
 6196 0c72 03       		.byte	0x3
 6197 0c73 00000000 		.4byte	aseba_atan_table
 6198 0c77 0D       		.uleb128 0xd
 6199 0c78 FF090000 		.4byte	0x9ff
 6200 0c7c 870C0000 		.4byte	0xc87
 6201 0c80 0E       		.uleb128 0xe
 6202 0c81 72010000 		.4byte	0x172
 6203 0c85 80       		.byte	0x80
 6204 0c86 00       		.byte	0
 6205 0c87 12       		.uleb128 0x12
 6206 0c88 770C0000 		.4byte	0xc77
 6207 0c8c 25       		.uleb128 0x25
 6208 0c8d 39100000 		.4byte	.LASF208
 6209 0c91 02       		.byte	0x2
 6210 0c92 A8       		.byte	0xa8
 6211 0c93 870C0000 		.4byte	0xc87
 6212 0c97 05       		.uleb128 0x5
 6213 0c98 03       		.byte	0x3
 6214 0c99 00000000 		.4byte	aseba_sin_table
 6215 0c9d 26       		.uleb128 0x26
 6216 0c9e 5F0B0000 		.4byte	0xb5f
 6217 0ca2 02       		.byte	0x2
ARM GAS  C:\Users\PCHAUT~1\AppData\Local\Temp\ccvICu2w.s 			page 113


 6218 0ca3 3101     		.2byte	0x131
 6219 0ca5 05       		.uleb128 0x5
 6220 0ca6 03       		.byte	0x3
 6221 0ca7 00000000 		.4byte	AsebaNativeDescription_veccopy
 6222 0cab 26       		.uleb128 0x26
 6223 0cac 6A0B0000 		.4byte	0xb6a
 6224 0cb0 02       		.byte	0x2
 6225 0cb1 4E01     		.2byte	0x14e
 6226 0cb3 05       		.uleb128 0x5
 6227 0cb4 03       		.byte	0x3
 6228 0cb5 00000000 		.4byte	AsebaNativeDescription_vecfill
 6229 0cb9 26       		.uleb128 0x26
 6230 0cba 750B0000 		.4byte	0xb75
 6231 0cbe 02       		.byte	0x2
 6232 0cbf 6C01     		.2byte	0x16c
 6233 0cc1 05       		.uleb128 0x5
 6234 0cc2 03       		.byte	0x3
 6235 0cc3 00000000 		.4byte	AsebaNativeDescription_vecaddscalar
 6236 0cc7 26       		.uleb128 0x26
 6237 0cc8 800B0000 		.4byte	0xb80
 6238 0ccc 02       		.byte	0x2
 6239 0ccd 8A01     		.2byte	0x18a
 6240 0ccf 05       		.uleb128 0x5
 6241 0cd0 03       		.byte	0x3
 6242 0cd1 00000000 		.4byte	AsebaNativeDescription_vecadd
 6243 0cd5 26       		.uleb128 0x26
 6244 0cd6 8B0B0000 		.4byte	0xb8b
 6245 0cda 02       		.byte	0x2
 6246 0cdb A801     		.2byte	0x1a8
 6247 0cdd 05       		.uleb128 0x5
 6248 0cde 03       		.byte	0x3
 6249 0cdf 00000000 		.4byte	AsebaNativeDescription_vecsub
 6250 0ce3 26       		.uleb128 0x26
 6251 0ce4 960B0000 		.4byte	0xb96
 6252 0ce8 02       		.byte	0x2
 6253 0ce9 C601     		.2byte	0x1c6
 6254 0ceb 05       		.uleb128 0x5
 6255 0cec 03       		.byte	0x3
 6256 0ced 00000000 		.4byte	AsebaNativeDescription_vecmul
 6257 0cf1 26       		.uleb128 0x26
 6258 0cf2 A10B0000 		.4byte	0xba1
 6259 0cf6 02       		.byte	0x2
 6260 0cf7 F001     		.2byte	0x1f0
 6261 0cf9 05       		.uleb128 0x5
 6262 0cfa 03       		.byte	0x3
 6263 0cfb 00000000 		.4byte	AsebaNativeDescription_vecdiv
 6264 0cff 26       		.uleb128 0x26
 6265 0d00 AC0B0000 		.4byte	0xbac
 6266 0d04 02       		.byte	0x2
 6267 0d05 1102     		.2byte	0x211
 6268 0d07 05       		.uleb128 0x5
 6269 0d08 03       		.byte	0x3
 6270 0d09 00000000 		.4byte	AsebaNativeDescription_vecmin
 6271 0d0d 26       		.uleb128 0x26
 6272 0d0e B70B0000 		.4byte	0xbb7
 6273 0d12 02       		.byte	0x2
 6274 0d13 3202     		.2byte	0x232
ARM GAS  C:\Users\PCHAUT~1\AppData\Local\Temp\ccvICu2w.s 			page 114


 6275 0d15 05       		.uleb128 0x5
 6276 0d16 03       		.byte	0x3
 6277 0d17 00000000 		.4byte	AsebaNativeDescription_vecmax
 6278 0d1b 26       		.uleb128 0x26
 6279 0d1c C20B0000 		.4byte	0xbc2
 6280 0d20 02       		.byte	0x2
 6281 0d21 5402     		.2byte	0x254
 6282 0d23 05       		.uleb128 0x5
 6283 0d24 03       		.byte	0x3
 6284 0d25 00000000 		.4byte	AsebaNativeDescription_vecclamp
 6285 0d29 26       		.uleb128 0x26
 6286 0d2a CD0B0000 		.4byte	0xbcd
 6287 0d2e 02       		.byte	0x2
 6288 0d2f 9F02     		.2byte	0x29f
 6289 0d31 05       		.uleb128 0x5
 6290 0d32 03       		.byte	0x3
 6291 0d33 00000000 		.4byte	AsebaNativeDescription_vecdot
 6292 0d37 26       		.uleb128 0x26
 6293 0d38 D80B0000 		.4byte	0xbd8
 6294 0d3c 02       		.byte	0x2
 6295 0d3d D002     		.2byte	0x2d0
 6296 0d3f 05       		.uleb128 0x5
 6297 0d40 03       		.byte	0x3
 6298 0d41 00000000 		.4byte	AsebaNativeDescription_vecstat
 6299 0d45 26       		.uleb128 0x26
 6300 0d46 E30B0000 		.4byte	0xbe3
 6301 0d4a 02       		.byte	0x2
 6302 0d4b FF02     		.2byte	0x2ff
 6303 0d4d 05       		.uleb128 0x5
 6304 0d4e 03       		.byte	0x3
 6305 0d4f 00000000 		.4byte	AsebaNativeDescription_vecargbounds
 6306 0d53 26       		.uleb128 0x26
 6307 0d54 EE0B0000 		.4byte	0xbee
 6308 0d58 02       		.byte	0x2
 6309 0d59 1703     		.2byte	0x317
 6310 0d5b 05       		.uleb128 0x5
 6311 0d5c 03       		.byte	0x3
 6312 0d5d 00000000 		.4byte	AsebaNativeDescription_vecsort
 6313 0d61 26       		.uleb128 0x26
 6314 0d62 F90B0000 		.4byte	0xbf9
 6315 0d66 02       		.byte	0x2
 6316 0d67 4003     		.2byte	0x340
 6317 0d69 05       		.uleb128 0x5
 6318 0d6a 03       		.byte	0x3
 6319 0d6b 00000000 		.4byte	AsebaNativeDescription_mathmuldiv
 6320 0d6f 26       		.uleb128 0x26
 6321 0d70 040C0000 		.4byte	0xc04
 6322 0d74 02       		.byte	0x2
 6323 0d75 6003     		.2byte	0x360
 6324 0d77 05       		.uleb128 0x5
 6325 0d78 03       		.byte	0x3
 6326 0d79 00000000 		.4byte	AsebaNativeDescription_mathatan2
 6327 0d7d 26       		.uleb128 0x26
 6328 0d7e 0F0C0000 		.4byte	0xc0f
 6329 0d82 02       		.byte	0x2
 6330 0d83 7D03     		.2byte	0x37d
 6331 0d85 05       		.uleb128 0x5
ARM GAS  C:\Users\PCHAUT~1\AppData\Local\Temp\ccvICu2w.s 			page 115


 6332 0d86 03       		.byte	0x3
 6333 0d87 00000000 		.4byte	AsebaNativeDescription_mathsin
 6334 0d8b 26       		.uleb128 0x26
 6335 0d8c 1A0C0000 		.4byte	0xc1a
 6336 0d90 02       		.byte	0x2
 6337 0d91 9903     		.2byte	0x399
 6338 0d93 05       		.uleb128 0x5
 6339 0d94 03       		.byte	0x3
 6340 0d95 00000000 		.4byte	AsebaNativeDescription_mathcos
 6341 0d99 26       		.uleb128 0x26
 6342 0d9a 250C0000 		.4byte	0xc25
 6343 0d9e 02       		.byte	0x2
 6344 0d9f BA03     		.2byte	0x3ba
 6345 0da1 05       		.uleb128 0x5
 6346 0da2 03       		.byte	0x3
 6347 0da3 00000000 		.4byte	AsebaNativeDescription_mathrot2
 6348 0da7 26       		.uleb128 0x26
 6349 0da8 300C0000 		.4byte	0xc30
 6350 0dac 02       		.byte	0x2
 6351 0dad D703     		.2byte	0x3d7
 6352 0daf 05       		.uleb128 0x5
 6353 0db0 03       		.byte	0x3
 6354 0db1 00000000 		.4byte	AsebaNativeDescription_mathsqrt
 6355 0db5 26       		.uleb128 0x26
 6356 0db6 3B0C0000 		.4byte	0xc3b
 6357 0dba 02       		.byte	0x2
 6358 0dbb 4304     		.2byte	0x443
 6359 0dbd 05       		.uleb128 0x5
 6360 0dbe 03       		.byte	0x3
 6361 0dbf 00000000 		.4byte	AsebaNativeDescription_vecnonzerosequence
 6362 0dc3 27       		.uleb128 0x27
 6363 0dc4 C8110000 		.4byte	.LASF209
 6364 0dc8 02       		.byte	0x2
 6365 0dc9 4F04     		.2byte	0x44f
 6366 0dcb 040A0000 		.4byte	0xa04
 6367 0dcf 05       		.uleb128 0x5
 6368 0dd0 03       		.byte	0x3
 6369 0dd1 00000000 		.4byte	rnd_state
 6370 0dd5 26       		.uleb128 0x26
 6371 0dd6 460C0000 		.4byte	0xc46
 6372 0dda 02       		.byte	0x2
 6373 0ddb 6B04     		.2byte	0x46b
 6374 0ddd 05       		.uleb128 0x5
 6375 0dde 03       		.byte	0x3
 6376 0ddf 00000000 		.4byte	AsebaNativeDescription_rand
 6377 0de3 28       		.uleb128 0x28
 6378 0de4 ED090000 		.4byte	.LASF212
 6379 0de8 02       		.byte	0x2
 6380 0de9 5C04     		.2byte	0x45c
 6381 0deb 00000000 		.4byte	.LFB29
 6382 0def 7C000000 		.4byte	.LFE29-.LFB29
 6383 0df3 01       		.uleb128 0x1
 6384 0df4 9C       		.byte	0x9c
 6385 0df5 330E0000 		.4byte	0xe33
 6386 0df9 29       		.uleb128 0x29
 6387 0dfa 766D00   		.ascii	"vm\000"
 6388 0dfd 02       		.byte	0x2
ARM GAS  C:\Users\PCHAUT~1\AppData\Local\Temp\ccvICu2w.s 			page 116


 6389 0dfe 5C04     		.2byte	0x45c
 6390 0e00 E10A0000 		.4byte	0xae1
 6391 0e04 02       		.uleb128 0x2
 6392 0e05 91       		.byte	0x91
 6393 0e06 64       		.sleb128 -28
 6394 0e07 27       		.uleb128 0x27
 6395 0e08 F2030000 		.4byte	.LASF210
 6396 0e0c 02       		.byte	0x2
 6397 0e0d 5F04     		.2byte	0x45f
 6398 0e0f 040A0000 		.4byte	0xa04
 6399 0e13 02       		.uleb128 0x2
 6400 0e14 91       		.byte	0x91
 6401 0e15 6E       		.sleb128 -18
 6402 0e16 27       		.uleb128 0x27
 6403 0e17 2F0C0000 		.4byte	.LASF211
 6404 0e1b 02       		.byte	0x2
 6405 0e1c 6204     		.2byte	0x462
 6406 0e1e 040A0000 		.4byte	0xa04
 6407 0e22 02       		.uleb128 0x2
 6408 0e23 91       		.byte	0x91
 6409 0e24 72       		.sleb128 -14
 6410 0e25 2A       		.uleb128 0x2a
 6411 0e26 6900     		.ascii	"i\000"
 6412 0e28 02       		.byte	0x2
 6413 0e29 6404     		.2byte	0x464
 6414 0e2b 040A0000 		.4byte	0xa04
 6415 0e2f 02       		.uleb128 0x2
 6416 0e30 91       		.byte	0x91
 6417 0e31 70       		.sleb128 -16
 6418 0e32 00       		.byte	0
 6419 0e33 2B       		.uleb128 0x2b
 6420 0e34 60080000 		.4byte	.LASF289
 6421 0e38 02       		.byte	0x2
 6422 0e39 5604     		.2byte	0x456
 6423 0e3b 040A0000 		.4byte	0xa04
 6424 0e3f 00000000 		.4byte	.LFB28
 6425 0e43 58000000 		.4byte	.LFE28-.LFB28
 6426 0e47 01       		.uleb128 0x1
 6427 0e48 9C       		.byte	0x9c
 6428 0e49 28       		.uleb128 0x28
 6429 0e4a 5F0C0000 		.4byte	.LASF213
 6430 0e4e 02       		.byte	0x2
 6431 0e4f 5104     		.2byte	0x451
 6432 0e51 00000000 		.4byte	.LFB27
 6433 0e55 38000000 		.4byte	.LFE27-.LFB27
 6434 0e59 01       		.uleb128 0x1
 6435 0e5a 9C       		.byte	0x9c
 6436 0e5b 6F0E0000 		.4byte	0xe6f
 6437 0e5f 2C       		.uleb128 0x2c
 6438 0e60 B0040000 		.4byte	.LASF214
 6439 0e64 02       		.byte	0x2
 6440 0e65 5104     		.2byte	0x451
 6441 0e67 040A0000 		.4byte	0xa04
 6442 0e6b 02       		.uleb128 0x2
 6443 0e6c 91       		.byte	0x91
 6444 0e6d 6E       		.sleb128 -18
 6445 0e6e 00       		.byte	0
ARM GAS  C:\Users\PCHAUT~1\AppData\Local\Temp\ccvICu2w.s 			page 117


 6446 0e6f 28       		.uleb128 0x28
 6447 0e70 12060000 		.4byte	.LASF215
 6448 0e74 02       		.byte	0x2
 6449 0e75 E203     		.2byte	0x3e2
 6450 0e77 00000000 		.4byte	.LFB26
 6451 0e7b 90020000 		.4byte	.LFE26-.LFB26
 6452 0e7f 01       		.uleb128 0x1
 6453 0e80 9C       		.byte	0x9c
 6454 0e81 690F0000 		.4byte	0xf69
 6455 0e85 29       		.uleb128 0x29
 6456 0e86 766D00   		.ascii	"vm\000"
 6457 0e89 02       		.byte	0x2
 6458 0e8a E203     		.2byte	0x3e2
 6459 0e8c E10A0000 		.4byte	0xae1
 6460 0e90 02       		.uleb128 0x2
 6461 0e91 91       		.byte	0x91
 6462 0e92 54       		.sleb128 -44
 6463 0e93 27       		.uleb128 0x27
 6464 0e94 91120000 		.4byte	.LASF216
 6465 0e98 02       		.byte	0x2
 6466 0e99 E503     		.2byte	0x3e5
 6467 0e9b 040A0000 		.4byte	0xa04
 6468 0e9f 02       		.uleb128 0x2
 6469 0ea0 91       		.byte	0x91
 6470 0ea1 62       		.sleb128 -30
 6471 0ea2 2A       		.uleb128 0x2a
 6472 0ea3 73726300 		.ascii	"src\000"
 6473 0ea7 02       		.byte	0x2
 6474 0ea8 E603     		.2byte	0x3e6
 6475 0eaa 040A0000 		.4byte	0xa04
 6476 0eae 02       		.uleb128 0x2
 6477 0eaf 91       		.byte	0x91
 6478 0eb0 64       		.sleb128 -28
 6479 0eb1 27       		.uleb128 0x27
 6480 0eb2 2F0C0000 		.4byte	.LASF211
 6481 0eb6 02       		.byte	0x2
 6482 0eb7 E703     		.2byte	0x3e7
 6483 0eb9 040A0000 		.4byte	0xa04
 6484 0ebd 02       		.uleb128 0x2
 6485 0ebe 91       		.byte	0x91
 6486 0ebf 66       		.sleb128 -26
 6487 0ec0 27       		.uleb128 0x27
 6488 0ec1 AF100000 		.4byte	.LASF217
 6489 0ec5 02       		.byte	0x2
 6490 0ec6 EA03     		.2byte	0x3ea
 6491 0ec8 040A0000 		.4byte	0xa04
 6492 0ecc 02       		.uleb128 0x2
 6493 0ecd 91       		.byte	0x91
 6494 0ece 68       		.sleb128 -24
 6495 0ecf 27       		.uleb128 0x27
 6496 0ed0 780A0000 		.4byte	.LASF218
 6497 0ed4 02       		.byte	0x2
 6498 0ed5 EB03     		.2byte	0x3eb
 6499 0ed7 F4090000 		.4byte	0x9f4
 6500 0edb 02       		.uleb128 0x2
 6501 0edc 91       		.byte	0x91
 6502 0edd 6A       		.sleb128 -22
ARM GAS  C:\Users\PCHAUT~1\AppData\Local\Temp\ccvICu2w.s 			page 118


 6503 0ede 27       		.uleb128 0x27
 6504 0edf 7D030000 		.4byte	.LASF219
 6505 0ee3 02       		.byte	0x2
 6506 0ee4 EE03     		.2byte	0x3ee
 6507 0ee6 040A0000 		.4byte	0xa04
 6508 0eea 02       		.uleb128 0x2
 6509 0eeb 91       		.byte	0x91
 6510 0eec 6C       		.sleb128 -20
 6511 0eed 27       		.uleb128 0x27
 6512 0eee 76010000 		.4byte	.LASF220
 6513 0ef2 02       		.byte	0x2
 6514 0ef3 EF03     		.2byte	0x3ef
 6515 0ef5 F4090000 		.4byte	0x9f4
 6516 0ef9 02       		.uleb128 0x2
 6517 0efa 91       		.byte	0x91
 6518 0efb 5A       		.sleb128 -38
 6519 0efc 27       		.uleb128 0x27
 6520 0efd 89060000 		.4byte	.LASF221
 6521 0f01 02       		.byte	0x2
 6522 0f02 F003     		.2byte	0x3f0
 6523 0f04 F4090000 		.4byte	0x9f4
 6524 0f08 02       		.uleb128 0x2
 6525 0f09 91       		.byte	0x91
 6526 0f0a 6E       		.sleb128 -18
 6527 0f0b 27       		.uleb128 0x27
 6528 0f0c 6A020000 		.4byte	.LASF222
 6529 0f10 02       		.byte	0x2
 6530 0f11 F103     		.2byte	0x3f1
 6531 0f13 F4090000 		.4byte	0x9f4
 6532 0f17 02       		.uleb128 0x2
 6533 0f18 91       		.byte	0x91
 6534 0f19 5C       		.sleb128 -36
 6535 0f1a 27       		.uleb128 0x27
 6536 0f1b 92040000 		.4byte	.LASF223
 6537 0f1f 02       		.byte	0x2
 6538 0f20 F203     		.2byte	0x3f2
 6539 0f22 F4090000 		.4byte	0x9f4
 6540 0f26 02       		.uleb128 0x2
 6541 0f27 91       		.byte	0x91
 6542 0f28 5E       		.sleb128 -34
 6543 0f29 27       		.uleb128 0x27
 6544 0f2a 88090000 		.4byte	.LASF224
 6545 0f2e 02       		.byte	0x2
 6546 0f2f F303     		.2byte	0x3f3
 6547 0f31 F4090000 		.4byte	0x9f4
 6548 0f35 02       		.uleb128 0x2
 6549 0f36 91       		.byte	0x91
 6550 0f37 70       		.sleb128 -16
 6551 0f38 27       		.uleb128 0x27
 6552 0f39 74090000 		.4byte	.LASF225
 6553 0f3d 02       		.byte	0x2
 6554 0f3e F603     		.2byte	0x3f6
 6555 0f40 040A0000 		.4byte	0xa04
 6556 0f44 02       		.uleb128 0x2
 6557 0f45 91       		.byte	0x91
 6558 0f46 60       		.sleb128 -32
 6559 0f47 2D       		.uleb128 0x2d
ARM GAS  C:\Users\PCHAUT~1\AppData\Local\Temp\ccvICu2w.s 			page 119


 6560 0f48 030D0000 		.4byte	.LASF290
 6561 0f4c 02       		.byte	0x2
 6562 0f4d 3704     		.2byte	0x437
 6563 0f4f 32020000 		.4byte	.L211
 6564 0f53 2E       		.uleb128 0x2e
 6565 0f54 00000000 		.4byte	.Ldebug_ranges0+0
 6566 0f58 27       		.uleb128 0x27
 6567 0f59 88090000 		.4byte	.LASF224
 6568 0f5d 02       		.byte	0x2
 6569 0f5e 0C04     		.2byte	0x40c
 6570 0f60 040A0000 		.4byte	0xa04
 6571 0f64 02       		.uleb128 0x2
 6572 0f65 91       		.byte	0x91
 6573 0f66 72       		.sleb128 -14
 6574 0f67 00       		.byte	0
 6575 0f68 00       		.byte	0
 6576 0f69 28       		.uleb128 0x28
 6577 0f6a 74060000 		.4byte	.LASF226
 6578 0f6e 02       		.byte	0x2
 6579 0f6f C603     		.2byte	0x3c6
 6580 0f71 00000000 		.4byte	.LFB25
 6581 0f75 A4000000 		.4byte	.LFE25-.LFB25
 6582 0f79 01       		.uleb128 0x1
 6583 0f7a 9C       		.byte	0x9c
 6584 0f7b DF0F0000 		.4byte	0xfdf
 6585 0f7f 29       		.uleb128 0x29
 6586 0f80 766D00   		.ascii	"vm\000"
 6587 0f83 02       		.byte	0x2
 6588 0f84 C603     		.2byte	0x3c6
 6589 0f86 E10A0000 		.4byte	0xae1
 6590 0f8a 02       		.uleb128 0x2
 6591 0f8b 91       		.byte	0x91
 6592 0f8c 64       		.sleb128 -28
 6593 0f8d 27       		.uleb128 0x27
 6594 0f8e F2030000 		.4byte	.LASF210
 6595 0f92 02       		.byte	0x2
 6596 0f93 C903     		.2byte	0x3c9
 6597 0f95 040A0000 		.4byte	0xa04
 6598 0f99 02       		.uleb128 0x2
 6599 0f9a 91       		.byte	0x91
 6600 0f9b 6A       		.sleb128 -22
 6601 0f9c 27       		.uleb128 0x27
 6602 0f9d 81090000 		.4byte	.LASF227
 6603 0fa1 02       		.byte	0x2
 6604 0fa2 CA03     		.2byte	0x3ca
 6605 0fa4 F4090000 		.4byte	0x9f4
 6606 0fa8 02       		.uleb128 0x2
 6607 0fa9 91       		.byte	0x91
 6608 0faa 6C       		.sleb128 -20
 6609 0fab 27       		.uleb128 0x27
 6610 0fac 2F0C0000 		.4byte	.LASF211
 6611 0fb0 02       		.byte	0x2
 6612 0fb1 CD03     		.2byte	0x3cd
 6613 0fb3 040A0000 		.4byte	0xa04
 6614 0fb7 02       		.uleb128 0x2
 6615 0fb8 91       		.byte	0x91
 6616 0fb9 70       		.sleb128 -16
ARM GAS  C:\Users\PCHAUT~1\AppData\Local\Temp\ccvICu2w.s 			page 120


 6617 0fba 2A       		.uleb128 0x2a
 6618 0fbb 6900     		.ascii	"i\000"
 6619 0fbd 02       		.byte	0x2
 6620 0fbe CF03     		.2byte	0x3cf
 6621 0fc0 040A0000 		.4byte	0xa04
 6622 0fc4 02       		.uleb128 0x2
 6623 0fc5 91       		.byte	0x91
 6624 0fc6 6E       		.sleb128 -18
 6625 0fc7 2F       		.uleb128 0x2f
 6626 0fc8 38000000 		.4byte	.LBB16
 6627 0fcc 3E000000 		.4byte	.LBE16-.LBB16
 6628 0fd0 2A       		.uleb128 0x2a
 6629 0fd1 7800     		.ascii	"x\000"
 6630 0fd3 02       		.byte	0x2
 6631 0fd4 D203     		.2byte	0x3d2
 6632 0fd6 F4090000 		.4byte	0x9f4
 6633 0fda 02       		.uleb128 0x2
 6634 0fdb 91       		.byte	0x91
 6635 0fdc 72       		.sleb128 -14
 6636 0fdd 00       		.byte	0
 6637 0fde 00       		.byte	0
 6638 0fdf 28       		.uleb128 0x28
 6639 0fe0 B3000000 		.4byte	.LASF228
 6640 0fe4 02       		.byte	0x2
 6641 0fe5 A403     		.2byte	0x3a4
 6642 0fe7 00000000 		.4byte	.LFB24
 6643 0feb 08010000 		.4byte	.LFE24-.LFB24
 6644 0fef 01       		.uleb128 0x1
 6645 0ff0 9C       		.byte	0x9c
 6646 0ff1 92100000 		.4byte	0x1092
 6647 0ff5 29       		.uleb128 0x29
 6648 0ff6 766D00   		.ascii	"vm\000"
 6649 0ff9 02       		.byte	0x2
 6650 0ffa A403     		.2byte	0x3a4
 6651 0ffc E10A0000 		.4byte	0xae1
 6652 1000 02       		.uleb128 0x2
 6653 1001 91       		.byte	0x91
 6654 1002 5C       		.sleb128 -36
 6655 1003 27       		.uleb128 0x27
 6656 1004 16080000 		.4byte	.LASF229
 6657 1008 02       		.byte	0x2
 6658 1009 A703     		.2byte	0x3a7
 6659 100b 040A0000 		.4byte	0xa04
 6660 100f 02       		.uleb128 0x2
 6661 1010 91       		.byte	0x91
 6662 1011 60       		.sleb128 -32
 6663 1012 27       		.uleb128 0x27
 6664 1013 8B100000 		.4byte	.LASF230
 6665 1017 02       		.byte	0x2
 6666 1018 A803     		.2byte	0x3a8
 6667 101a 040A0000 		.4byte	0xa04
 6668 101e 02       		.uleb128 0x2
 6669 101f 91       		.byte	0x91
 6670 1020 62       		.sleb128 -30
 6671 1021 27       		.uleb128 0x27
 6672 1022 21010000 		.4byte	.LASF231
 6673 1026 02       		.byte	0x2
ARM GAS  C:\Users\PCHAUT~1\AppData\Local\Temp\ccvICu2w.s 			page 121


 6674 1027 A903     		.2byte	0x3a9
 6675 1029 040A0000 		.4byte	0xa04
 6676 102d 02       		.uleb128 0x2
 6677 102e 91       		.byte	0x91
 6678 102f 64       		.sleb128 -28
 6679 1030 2A       		.uleb128 0x2a
 6680 1031 7800     		.ascii	"x\000"
 6681 1033 02       		.byte	0x2
 6682 1034 AC03     		.2byte	0x3ac
 6683 1036 F4090000 		.4byte	0x9f4
 6684 103a 02       		.uleb128 0x2
 6685 103b 91       		.byte	0x91
 6686 103c 66       		.sleb128 -26
 6687 103d 2A       		.uleb128 0x2a
 6688 103e 7900     		.ascii	"y\000"
 6689 1040 02       		.byte	0x2
 6690 1041 AD03     		.2byte	0x3ad
 6691 1043 F4090000 		.4byte	0x9f4
 6692 1047 02       		.uleb128 0x2
 6693 1048 91       		.byte	0x91
 6694 1049 68       		.sleb128 -24
 6695 104a 2A       		.uleb128 0x2a
 6696 104b 6100     		.ascii	"a\000"
 6697 104d 02       		.byte	0x2
 6698 104e AE03     		.2byte	0x3ae
 6699 1050 F4090000 		.4byte	0x9f4
 6700 1054 02       		.uleb128 0x2
 6701 1055 91       		.byte	0x91
 6702 1056 6A       		.sleb128 -22
 6703 1057 27       		.uleb128 0x27
 6704 1058 9C070000 		.4byte	.LASF232
 6705 105c 02       		.byte	0x2
 6706 105d B003     		.2byte	0x3b0
 6707 105f F4090000 		.4byte	0x9f4
 6708 1063 02       		.uleb128 0x2
 6709 1064 91       		.byte	0x91
 6710 1065 6C       		.sleb128 -20
 6711 1066 27       		.uleb128 0x27
 6712 1067 6D050000 		.4byte	.LASF233
 6713 106b 02       		.byte	0x2
 6714 106c B103     		.2byte	0x3b1
 6715 106e F4090000 		.4byte	0x9f4
 6716 1072 02       		.uleb128 0x2
 6717 1073 91       		.byte	0x91
 6718 1074 6E       		.sleb128 -18
 6719 1075 2A       		.uleb128 0x2a
 6720 1076 787000   		.ascii	"xp\000"
 6721 1079 02       		.byte	0x2
 6722 107a B303     		.2byte	0x3b3
 6723 107c F4090000 		.4byte	0x9f4
 6724 1080 02       		.uleb128 0x2
 6725 1081 91       		.byte	0x91
 6726 1082 70       		.sleb128 -16
 6727 1083 2A       		.uleb128 0x2a
 6728 1084 797000   		.ascii	"yp\000"
 6729 1087 02       		.byte	0x2
 6730 1088 B403     		.2byte	0x3b4
ARM GAS  C:\Users\PCHAUT~1\AppData\Local\Temp\ccvICu2w.s 			page 122


 6731 108a F4090000 		.4byte	0x9f4
 6732 108e 02       		.uleb128 0x2
 6733 108f 91       		.byte	0x91
 6734 1090 72       		.sleb128 -14
 6735 1091 00       		.byte	0
 6736 1092 28       		.uleb128 0x28
 6737 1093 35050000 		.4byte	.LASF234
 6738 1097 02       		.byte	0x2
 6739 1098 8803     		.2byte	0x388
 6740 109a 00000000 		.4byte	.LFB23
 6741 109e A4000000 		.4byte	.LFE23-.LFB23
 6742 10a2 01       		.uleb128 0x1
 6743 10a3 9C       		.byte	0x9c
 6744 10a4 08110000 		.4byte	0x1108
 6745 10a8 29       		.uleb128 0x29
 6746 10a9 766D00   		.ascii	"vm\000"
 6747 10ac 02       		.byte	0x2
 6748 10ad 8803     		.2byte	0x388
 6749 10af E10A0000 		.4byte	0xae1
 6750 10b3 02       		.uleb128 0x2
 6751 10b4 91       		.byte	0x91
 6752 10b5 64       		.sleb128 -28
 6753 10b6 27       		.uleb128 0x27
 6754 10b7 F2030000 		.4byte	.LASF210
 6755 10bb 02       		.byte	0x2
 6756 10bc 8B03     		.2byte	0x38b
 6757 10be 040A0000 		.4byte	0xa04
 6758 10c2 02       		.uleb128 0x2
 6759 10c3 91       		.byte	0x91
 6760 10c4 6A       		.sleb128 -22
 6761 10c5 27       		.uleb128 0x27
 6762 10c6 81090000 		.4byte	.LASF227
 6763 10ca 02       		.byte	0x2
 6764 10cb 8C03     		.2byte	0x38c
 6765 10cd F4090000 		.4byte	0x9f4
 6766 10d1 02       		.uleb128 0x2
 6767 10d2 91       		.byte	0x91
 6768 10d3 6C       		.sleb128 -20
 6769 10d4 27       		.uleb128 0x27
 6770 10d5 2F0C0000 		.4byte	.LASF211
 6771 10d9 02       		.byte	0x2
 6772 10da 8F03     		.2byte	0x38f
 6773 10dc 040A0000 		.4byte	0xa04
 6774 10e0 02       		.uleb128 0x2
 6775 10e1 91       		.byte	0x91
 6776 10e2 70       		.sleb128 -16
 6777 10e3 2A       		.uleb128 0x2a
 6778 10e4 6900     		.ascii	"i\000"
 6779 10e6 02       		.byte	0x2
 6780 10e7 9103     		.2byte	0x391
 6781 10e9 040A0000 		.4byte	0xa04
 6782 10ed 02       		.uleb128 0x2
 6783 10ee 91       		.byte	0x91
 6784 10ef 6E       		.sleb128 -18
 6785 10f0 2F       		.uleb128 0x2f
 6786 10f1 38000000 		.4byte	.LBB15
 6787 10f5 3E000000 		.4byte	.LBE15-.LBB15
ARM GAS  C:\Users\PCHAUT~1\AppData\Local\Temp\ccvICu2w.s 			page 123


 6788 10f9 2A       		.uleb128 0x2a
 6789 10fa 7800     		.ascii	"x\000"
 6790 10fc 02       		.byte	0x2
 6791 10fd 9403     		.2byte	0x394
 6792 10ff F4090000 		.4byte	0x9f4
 6793 1103 02       		.uleb128 0x2
 6794 1104 91       		.byte	0x91
 6795 1105 72       		.sleb128 -14
 6796 1106 00       		.byte	0
 6797 1107 00       		.byte	0
 6798 1108 28       		.uleb128 0x28
 6799 1109 7E040000 		.4byte	.LASF235
 6800 110d 02       		.byte	0x2
 6801 110e 6C03     		.2byte	0x36c
 6802 1110 00000000 		.4byte	.LFB22
 6803 1114 A4000000 		.4byte	.LFE22-.LFB22
 6804 1118 01       		.uleb128 0x1
 6805 1119 9C       		.byte	0x9c
 6806 111a 7E110000 		.4byte	0x117e
 6807 111e 29       		.uleb128 0x29
 6808 111f 766D00   		.ascii	"vm\000"
 6809 1122 02       		.byte	0x2
 6810 1123 6C03     		.2byte	0x36c
 6811 1125 E10A0000 		.4byte	0xae1
 6812 1129 02       		.uleb128 0x2
 6813 112a 91       		.byte	0x91
 6814 112b 64       		.sleb128 -28
 6815 112c 27       		.uleb128 0x27
 6816 112d F2030000 		.4byte	.LASF210
 6817 1131 02       		.byte	0x2
 6818 1132 6F03     		.2byte	0x36f
 6819 1134 040A0000 		.4byte	0xa04
 6820 1138 02       		.uleb128 0x2
 6821 1139 91       		.byte	0x91
 6822 113a 6A       		.sleb128 -22
 6823 113b 27       		.uleb128 0x27
 6824 113c 81090000 		.4byte	.LASF227
 6825 1140 02       		.byte	0x2
 6826 1141 7003     		.2byte	0x370
 6827 1143 F4090000 		.4byte	0x9f4
 6828 1147 02       		.uleb128 0x2
 6829 1148 91       		.byte	0x91
 6830 1149 6C       		.sleb128 -20
 6831 114a 27       		.uleb128 0x27
 6832 114b 2F0C0000 		.4byte	.LASF211
 6833 114f 02       		.byte	0x2
 6834 1150 7303     		.2byte	0x373
 6835 1152 040A0000 		.4byte	0xa04
 6836 1156 02       		.uleb128 0x2
 6837 1157 91       		.byte	0x91
 6838 1158 70       		.sleb128 -16
 6839 1159 2A       		.uleb128 0x2a
 6840 115a 6900     		.ascii	"i\000"
 6841 115c 02       		.byte	0x2
 6842 115d 7503     		.2byte	0x375
 6843 115f 040A0000 		.4byte	0xa04
 6844 1163 02       		.uleb128 0x2
ARM GAS  C:\Users\PCHAUT~1\AppData\Local\Temp\ccvICu2w.s 			page 124


 6845 1164 91       		.byte	0x91
 6846 1165 6E       		.sleb128 -18
 6847 1166 2F       		.uleb128 0x2f
 6848 1167 38000000 		.4byte	.LBB14
 6849 116b 3E000000 		.4byte	.LBE14-.LBB14
 6850 116f 2A       		.uleb128 0x2a
 6851 1170 7800     		.ascii	"x\000"
 6852 1172 02       		.byte	0x2
 6853 1173 7803     		.2byte	0x378
 6854 1175 F4090000 		.4byte	0x9f4
 6855 1179 02       		.uleb128 0x2
 6856 117a 91       		.byte	0x91
 6857 117b 72       		.sleb128 -14
 6858 117c 00       		.byte	0
 6859 117d 00       		.byte	0
 6860 117e 28       		.uleb128 0x28
 6861 117f 84050000 		.4byte	.LASF236
 6862 1183 02       		.byte	0x2
 6863 1184 4D03     		.2byte	0x34d
 6864 1186 00000000 		.4byte	.LFB21
 6865 118a D4000000 		.4byte	.LFE21-.LFB21
 6866 118e 01       		.uleb128 0x1
 6867 118f 9C       		.byte	0x9c
 6868 1190 10120000 		.4byte	0x1210
 6869 1194 29       		.uleb128 0x29
 6870 1195 766D00   		.ascii	"vm\000"
 6871 1198 02       		.byte	0x2
 6872 1199 4D03     		.2byte	0x34d
 6873 119b E10A0000 		.4byte	0xae1
 6874 119f 02       		.uleb128 0x2
 6875 11a0 91       		.byte	0x91
 6876 11a1 5C       		.sleb128 -36
 6877 11a2 27       		.uleb128 0x27
 6878 11a3 F2030000 		.4byte	.LASF210
 6879 11a7 02       		.byte	0x2
 6880 11a8 5003     		.2byte	0x350
 6881 11aa 040A0000 		.4byte	0xa04
 6882 11ae 02       		.uleb128 0x2
 6883 11af 91       		.byte	0x91
 6884 11b0 66       		.sleb128 -26
 6885 11b1 27       		.uleb128 0x27
 6886 11b2 AD030000 		.4byte	.LASF237
 6887 11b6 02       		.byte	0x2
 6888 11b7 5103     		.2byte	0x351
 6889 11b9 F4090000 		.4byte	0x9f4
 6890 11bd 02       		.uleb128 0x2
 6891 11be 91       		.byte	0x91
 6892 11bf 68       		.sleb128 -24
 6893 11c0 27       		.uleb128 0x27
 6894 11c1 81090000 		.4byte	.LASF227
 6895 11c5 02       		.byte	0x2
 6896 11c6 5203     		.2byte	0x352
 6897 11c8 F4090000 		.4byte	0x9f4
 6898 11cc 02       		.uleb128 0x2
 6899 11cd 91       		.byte	0x91
 6900 11ce 6A       		.sleb128 -22
 6901 11cf 27       		.uleb128 0x27
ARM GAS  C:\Users\PCHAUT~1\AppData\Local\Temp\ccvICu2w.s 			page 125


 6902 11d0 2F0C0000 		.4byte	.LASF211
 6903 11d4 02       		.byte	0x2
 6904 11d5 5503     		.2byte	0x355
 6905 11d7 040A0000 		.4byte	0xa04
 6906 11db 02       		.uleb128 0x2
 6907 11dc 91       		.byte	0x91
 6908 11dd 6E       		.sleb128 -18
 6909 11de 2A       		.uleb128 0x2a
 6910 11df 6900     		.ascii	"i\000"
 6911 11e1 02       		.byte	0x2
 6912 11e2 5703     		.2byte	0x357
 6913 11e4 040A0000 		.4byte	0xa04
 6914 11e8 02       		.uleb128 0x2
 6915 11e9 91       		.byte	0x91
 6916 11ea 6C       		.sleb128 -20
 6917 11eb 2F       		.uleb128 0x2f
 6918 11ec 44000000 		.4byte	.LBB13
 6919 11f0 62000000 		.4byte	.LBE13-.LBB13
 6920 11f4 2A       		.uleb128 0x2a
 6921 11f5 7900     		.ascii	"y\000"
 6922 11f7 02       		.byte	0x2
 6923 11f8 5A03     		.2byte	0x35a
 6924 11fa F4090000 		.4byte	0x9f4
 6925 11fe 02       		.uleb128 0x2
 6926 11ff 91       		.byte	0x91
 6927 1200 70       		.sleb128 -16
 6928 1201 2A       		.uleb128 0x2a
 6929 1202 7800     		.ascii	"x\000"
 6930 1204 02       		.byte	0x2
 6931 1205 5B03     		.2byte	0x35b
 6932 1207 F4090000 		.4byte	0x9f4
 6933 120b 02       		.uleb128 0x2
 6934 120c 91       		.byte	0x91
 6935 120d 72       		.sleb128 -14
 6936 120e 00       		.byte	0
 6937 120f 00       		.byte	0
 6938 1210 28       		.uleb128 0x28
 6939 1211 360C0000 		.4byte	.LASF238
 6940 1215 02       		.byte	0x2
 6941 1216 2203     		.2byte	0x322
 6942 1218 00000000 		.4byte	.LFB20
 6943 121c 0C010000 		.4byte	.LFE20-.LFB20
 6944 1220 01       		.uleb128 0x1
 6945 1221 9C       		.byte	0x9c
 6946 1222 BE120000 		.4byte	0x12be
 6947 1226 29       		.uleb128 0x29
 6948 1227 766D00   		.ascii	"vm\000"
 6949 122a 02       		.byte	0x2
 6950 122b 2203     		.2byte	0x322
 6951 122d E10A0000 		.4byte	0xae1
 6952 1231 02       		.uleb128 0x2
 6953 1232 91       		.byte	0x91
 6954 1233 54       		.sleb128 -44
 6955 1234 27       		.uleb128 0x27
 6956 1235 F2030000 		.4byte	.LASF210
 6957 1239 02       		.byte	0x2
 6958 123a 2503     		.2byte	0x325
ARM GAS  C:\Users\PCHAUT~1\AppData\Local\Temp\ccvICu2w.s 			page 126


 6959 123c 040A0000 		.4byte	0xa04
 6960 1240 02       		.uleb128 0x2
 6961 1241 91       		.byte	0x91
 6962 1242 5C       		.sleb128 -36
 6963 1243 27       		.uleb128 0x27
 6964 1244 4D0C0000 		.4byte	.LASF239
 6965 1248 02       		.byte	0x2
 6966 1249 2603     		.2byte	0x326
 6967 124b 040A0000 		.4byte	0xa04
 6968 124f 02       		.uleb128 0x2
 6969 1250 91       		.byte	0x91
 6970 1251 5E       		.sleb128 -34
 6971 1252 27       		.uleb128 0x27
 6972 1253 C8000000 		.4byte	.LASF240
 6973 1257 02       		.byte	0x2
 6974 1258 2703     		.2byte	0x327
 6975 125a 040A0000 		.4byte	0xa04
 6976 125e 02       		.uleb128 0x2
 6977 125f 91       		.byte	0x91
 6978 1260 60       		.sleb128 -32
 6979 1261 27       		.uleb128 0x27
 6980 1262 71100000 		.4byte	.LASF241
 6981 1266 02       		.byte	0x2
 6982 1267 2803     		.2byte	0x328
 6983 1269 040A0000 		.4byte	0xa04
 6984 126d 02       		.uleb128 0x2
 6985 126e 91       		.byte	0x91
 6986 126f 62       		.sleb128 -30
 6987 1270 27       		.uleb128 0x27
 6988 1271 2F0C0000 		.4byte	.LASF211
 6989 1275 02       		.byte	0x2
 6990 1276 2B03     		.2byte	0x32b
 6991 1278 040A0000 		.4byte	0xa04
 6992 127c 02       		.uleb128 0x2
 6993 127d 91       		.byte	0x91
 6994 127e 66       		.sleb128 -26
 6995 127f 2A       		.uleb128 0x2a
 6996 1280 6900     		.ascii	"i\000"
 6997 1282 02       		.byte	0x2
 6998 1283 2D03     		.2byte	0x32d
 6999 1285 040A0000 		.4byte	0xa04
 7000 1289 02       		.uleb128 0x2
 7001 128a 91       		.byte	0x91
 7002 128b 64       		.sleb128 -28
 7003 128c 2F       		.uleb128 0x2f
 7004 128d 50000000 		.4byte	.LBB12
 7005 1291 8E000000 		.4byte	.LBE12-.LBB12
 7006 1295 2A       		.uleb128 0x2a
 7007 1296 6100     		.ascii	"a\000"
 7008 1298 02       		.byte	0x2
 7009 1299 3003     		.2byte	0x330
 7010 129b DE090000 		.4byte	0x9de
 7011 129f 02       		.uleb128 0x2
 7012 12a0 91       		.byte	0x91
 7013 12a1 68       		.sleb128 -24
 7014 12a2 2A       		.uleb128 0x2a
 7015 12a3 6200     		.ascii	"b\000"
ARM GAS  C:\Users\PCHAUT~1\AppData\Local\Temp\ccvICu2w.s 			page 127


 7016 12a5 02       		.byte	0x2
 7017 12a6 3103     		.2byte	0x331
 7018 12a8 DE090000 		.4byte	0x9de
 7019 12ac 02       		.uleb128 0x2
 7020 12ad 91       		.byte	0x91
 7021 12ae 6C       		.sleb128 -20
 7022 12af 2A       		.uleb128 0x2a
 7023 12b0 6300     		.ascii	"c\000"
 7024 12b2 02       		.byte	0x2
 7025 12b3 3203     		.2byte	0x332
 7026 12b5 DE090000 		.4byte	0x9de
 7027 12b9 02       		.uleb128 0x2
 7028 12ba 91       		.byte	0x91
 7029 12bb 70       		.sleb128 -16
 7030 12bc 00       		.byte	0
 7031 12bd 00       		.byte	0
 7032 12be 28       		.uleb128 0x28
 7033 12bf 58000000 		.4byte	.LASF242
 7034 12c3 02       		.byte	0x2
 7035 12c4 0C03     		.2byte	0x30c
 7036 12c6 00000000 		.4byte	.LFB19
 7037 12ca 58000000 		.4byte	.LFE19-.LFB19
 7038 12ce 01       		.uleb128 0x1
 7039 12cf 9C       		.byte	0x9c
 7040 12d0 01130000 		.4byte	0x1301
 7041 12d4 29       		.uleb128 0x29
 7042 12d5 766D00   		.ascii	"vm\000"
 7043 12d8 02       		.byte	0x2
 7044 12d9 0C03     		.2byte	0x30c
 7045 12db E10A0000 		.4byte	0xae1
 7046 12df 02       		.uleb128 0x2
 7047 12e0 91       		.byte	0x91
 7048 12e1 6C       		.sleb128 -20
 7049 12e2 2A       		.uleb128 0x2a
 7050 12e3 73726300 		.ascii	"src\000"
 7051 12e7 02       		.byte	0x2
 7052 12e8 0F03     		.2byte	0x30f
 7053 12ea 040A0000 		.4byte	0xa04
 7054 12ee 02       		.uleb128 0x2
 7055 12ef 91       		.byte	0x91
 7056 12f0 70       		.sleb128 -16
 7057 12f1 27       		.uleb128 0x27
 7058 12f2 2F0C0000 		.4byte	.LASF211
 7059 12f6 02       		.byte	0x2
 7060 12f7 1203     		.2byte	0x312
 7061 12f9 040A0000 		.4byte	0xa04
 7062 12fd 02       		.uleb128 0x2
 7063 12fe 91       		.byte	0x91
 7064 12ff 72       		.sleb128 -14
 7065 1300 00       		.byte	0
 7066 1301 28       		.uleb128 0x28
 7067 1302 05000000 		.4byte	.LASF243
 7068 1306 02       		.byte	0x2
 7069 1307 DE02     		.2byte	0x2de
 7070 1309 00000000 		.4byte	.LFB18
 7071 130d F0000000 		.4byte	.LFE18-.LFB18
 7072 1311 01       		.uleb128 0x1
ARM GAS  C:\Users\PCHAUT~1\AppData\Local\Temp\ccvICu2w.s 			page 128


 7073 1312 9C       		.byte	0x9c
 7074 1313 9C130000 		.4byte	0x139c
 7075 1317 29       		.uleb128 0x29
 7076 1318 766D00   		.ascii	"vm\000"
 7077 131b 02       		.byte	0x2
 7078 131c DE02     		.2byte	0x2de
 7079 131e E10A0000 		.4byte	0xae1
 7080 1322 02       		.uleb128 0x2
 7081 1323 91       		.byte	0x91
 7082 1324 5C       		.sleb128 -36
 7083 1325 2A       		.uleb128 0x2a
 7084 1326 73726300 		.ascii	"src\000"
 7085 132a 02       		.byte	0x2
 7086 132b E102     		.2byte	0x2e1
 7087 132d 040A0000 		.4byte	0xa04
 7088 1331 02       		.uleb128 0x2
 7089 1332 91       		.byte	0x91
 7090 1333 64       		.sleb128 -28
 7091 1334 27       		.uleb128 0x27
 7092 1335 DC030000 		.4byte	.LASF244
 7093 1339 02       		.byte	0x2
 7094 133a E202     		.2byte	0x2e2
 7095 133c 040A0000 		.4byte	0xa04
 7096 1340 02       		.uleb128 0x2
 7097 1341 91       		.byte	0x91
 7098 1342 6C       		.sleb128 -20
 7099 1343 27       		.uleb128 0x27
 7100 1344 B30B0000 		.4byte	.LASF245
 7101 1348 02       		.byte	0x2
 7102 1349 E302     		.2byte	0x2e3
 7103 134b 040A0000 		.4byte	0xa04
 7104 134f 02       		.uleb128 0x2
 7105 1350 91       		.byte	0x91
 7106 1351 6E       		.sleb128 -18
 7107 1352 27       		.uleb128 0x27
 7108 1353 2F0C0000 		.4byte	.LASF211
 7109 1357 02       		.byte	0x2
 7110 1358 E602     		.2byte	0x2e6
 7111 135a 040A0000 		.4byte	0xa04
 7112 135e 02       		.uleb128 0x2
 7113 135f 91       		.byte	0x91
 7114 1360 70       		.sleb128 -16
 7115 1361 2A       		.uleb128 0x2a
 7116 1362 6D696E00 		.ascii	"min\000"
 7117 1366 02       		.byte	0x2
 7118 1367 E702     		.2byte	0x2e7
 7119 1369 F4090000 		.4byte	0x9f4
 7120 136d 02       		.uleb128 0x2
 7121 136e 91       		.byte	0x91
 7122 136f 66       		.sleb128 -26
 7123 1370 2A       		.uleb128 0x2a
 7124 1371 6D617800 		.ascii	"max\000"
 7125 1375 02       		.byte	0x2
 7126 1376 E802     		.2byte	0x2e8
 7127 1378 F4090000 		.4byte	0x9f4
 7128 137c 02       		.uleb128 0x2
 7129 137d 91       		.byte	0x91
ARM GAS  C:\Users\PCHAUT~1\AppData\Local\Temp\ccvICu2w.s 			page 129


 7130 137e 68       		.sleb128 -24
 7131 137f 2A       		.uleb128 0x2a
 7132 1380 76616C00 		.ascii	"val\000"
 7133 1384 02       		.byte	0x2
 7134 1385 E902     		.2byte	0x2e9
 7135 1387 F4090000 		.4byte	0x9f4
 7136 138b 02       		.uleb128 0x2
 7137 138c 91       		.byte	0x91
 7138 138d 72       		.sleb128 -14
 7139 138e 2A       		.uleb128 0x2a
 7140 138f 6900     		.ascii	"i\000"
 7141 1391 02       		.byte	0x2
 7142 1392 EA02     		.2byte	0x2ea
 7143 1394 040A0000 		.4byte	0xa04
 7144 1398 02       		.uleb128 0x2
 7145 1399 91       		.byte	0x91
 7146 139a 6A       		.sleb128 -22
 7147 139b 00       		.byte	0
 7148 139c 28       		.uleb128 0x28
 7149 139d 45070000 		.4byte	.LASF246
 7150 13a1 02       		.byte	0x2
 7151 13a2 AD02     		.2byte	0x2ad
 7152 13a4 00000000 		.4byte	.LFB17
 7153 13a8 5C010000 		.4byte	.LFE17-.LFB17
 7154 13ac 01       		.uleb128 0x1
 7155 13ad 9C       		.byte	0x9c
 7156 13ae 37140000 		.4byte	0x1437
 7157 13b2 29       		.uleb128 0x29
 7158 13b3 766D00   		.ascii	"vm\000"
 7159 13b6 02       		.byte	0x2
 7160 13b7 AD02     		.2byte	0x2ad
 7161 13b9 E10A0000 		.4byte	0xae1
 7162 13bd 02       		.uleb128 0x2
 7163 13be 91       		.byte	0x91
 7164 13bf 5C       		.sleb128 -36
 7165 13c0 2A       		.uleb128 0x2a
 7166 13c1 73726300 		.ascii	"src\000"
 7167 13c5 02       		.byte	0x2
 7168 13c6 B002     		.2byte	0x2b0
 7169 13c8 040A0000 		.4byte	0xa04
 7170 13cc 02       		.uleb128 0x2
 7171 13cd 91       		.byte	0x91
 7172 13ce 62       		.sleb128 -30
 7173 13cf 2A       		.uleb128 0x2a
 7174 13d0 6D696E00 		.ascii	"min\000"
 7175 13d4 02       		.byte	0x2
 7176 13d5 B102     		.2byte	0x2b1
 7177 13d7 040A0000 		.4byte	0xa04
 7178 13db 02       		.uleb128 0x2
 7179 13dc 91       		.byte	0x91
 7180 13dd 66       		.sleb128 -26
 7181 13de 2A       		.uleb128 0x2a
 7182 13df 6D617800 		.ascii	"max\000"
 7183 13e3 02       		.byte	0x2
 7184 13e4 B202     		.2byte	0x2b2
 7185 13e6 040A0000 		.4byte	0xa04
 7186 13ea 02       		.uleb128 0x2
ARM GAS  C:\Users\PCHAUT~1\AppData\Local\Temp\ccvICu2w.s 			page 130


 7187 13eb 91       		.byte	0x91
 7188 13ec 68       		.sleb128 -24
 7189 13ed 27       		.uleb128 0x27
 7190 13ee AE120000 		.4byte	.LASF247
 7191 13f2 02       		.byte	0x2
 7192 13f3 B302     		.2byte	0x2b3
 7193 13f5 040A0000 		.4byte	0xa04
 7194 13f9 02       		.uleb128 0x2
 7195 13fa 91       		.byte	0x91
 7196 13fb 6A       		.sleb128 -22
 7197 13fc 27       		.uleb128 0x27
 7198 13fd 2F0C0000 		.4byte	.LASF211
 7199 1401 02       		.byte	0x2
 7200 1402 B602     		.2byte	0x2b6
 7201 1404 040A0000 		.4byte	0xa04
 7202 1408 02       		.uleb128 0x2
 7203 1409 91       		.byte	0x91
 7204 140a 6C       		.sleb128 -20
 7205 140b 2A       		.uleb128 0x2a
 7206 140c 76616C00 		.ascii	"val\000"
 7207 1410 02       		.byte	0x2
 7208 1411 B702     		.2byte	0x2b7
 7209 1413 F4090000 		.4byte	0x9f4
 7210 1417 02       		.uleb128 0x2
 7211 1418 91       		.byte	0x91
 7212 1419 6E       		.sleb128 -18
 7213 141a 2A       		.uleb128 0x2a
 7214 141b 61636300 		.ascii	"acc\000"
 7215 141f 02       		.byte	0x2
 7216 1420 B802     		.2byte	0x2b8
 7217 1422 DE090000 		.4byte	0x9de
 7218 1426 02       		.uleb128 0x2
 7219 1427 91       		.byte	0x91
 7220 1428 70       		.sleb128 -16
 7221 1429 2A       		.uleb128 0x2a
 7222 142a 6900     		.ascii	"i\000"
 7223 142c 02       		.byte	0x2
 7224 142d B902     		.2byte	0x2b9
 7225 142f 040A0000 		.4byte	0xa04
 7226 1433 02       		.uleb128 0x2
 7227 1434 91       		.byte	0x91
 7228 1435 64       		.sleb128 -28
 7229 1436 00       		.byte	0
 7230 1437 28       		.uleb128 0x28
 7231 1438 DB0D0000 		.4byte	.LASF248
 7232 143c 02       		.byte	0x2
 7233 143d 6102     		.2byte	0x261
 7234 143f 00000000 		.4byte	.LFB16
 7235 1443 FC000000 		.4byte	.LFE16-.LFB16
 7236 1447 01       		.uleb128 0x1
 7237 1448 9C       		.byte	0x9c
 7238 1449 C3140000 		.4byte	0x14c3
 7239 144d 29       		.uleb128 0x29
 7240 144e 766D00   		.ascii	"vm\000"
 7241 1451 02       		.byte	0x2
 7242 1452 6102     		.2byte	0x261
 7243 1454 E10A0000 		.4byte	0xae1
ARM GAS  C:\Users\PCHAUT~1\AppData\Local\Temp\ccvICu2w.s 			page 131


 7244 1458 02       		.uleb128 0x2
 7245 1459 91       		.byte	0x91
 7246 145a 5C       		.sleb128 -36
 7247 145b 27       		.uleb128 0x27
 7248 145c 91120000 		.4byte	.LASF216
 7249 1460 02       		.byte	0x2
 7250 1461 6402     		.2byte	0x264
 7251 1463 040A0000 		.4byte	0xa04
 7252 1467 02       		.uleb128 0x2
 7253 1468 91       		.byte	0x91
 7254 1469 6A       		.sleb128 -22
 7255 146a 27       		.uleb128 0x27
 7256 146b 1E000000 		.4byte	.LASF249
 7257 146f 02       		.byte	0x2
 7258 1470 6502     		.2byte	0x265
 7259 1472 040A0000 		.4byte	0xa04
 7260 1476 02       		.uleb128 0x2
 7261 1477 91       		.byte	0x91
 7262 1478 64       		.sleb128 -28
 7263 1479 27       		.uleb128 0x27
 7264 147a 73050000 		.4byte	.LASF250
 7265 147e 02       		.byte	0x2
 7266 147f 6602     		.2byte	0x266
 7267 1481 040A0000 		.4byte	0xa04
 7268 1485 02       		.uleb128 0x2
 7269 1486 91       		.byte	0x91
 7270 1487 66       		.sleb128 -26
 7271 1488 27       		.uleb128 0x27
 7272 1489 49040000 		.4byte	.LASF251
 7273 148d 02       		.byte	0x2
 7274 148e 6702     		.2byte	0x267
 7275 1490 F4090000 		.4byte	0x9f4
 7276 1494 02       		.uleb128 0x2
 7277 1495 91       		.byte	0x91
 7278 1496 6C       		.sleb128 -20
 7279 1497 27       		.uleb128 0x27
 7280 1498 2F0C0000 		.4byte	.LASF211
 7281 149c 02       		.byte	0x2
 7282 149d 6A02     		.2byte	0x26a
 7283 149f 040A0000 		.4byte	0xa04
 7284 14a3 02       		.uleb128 0x2
 7285 14a4 91       		.byte	0x91
 7286 14a5 6E       		.sleb128 -18
 7287 14a6 2A       		.uleb128 0x2a
 7288 14a7 72657300 		.ascii	"res\000"
 7289 14ab 02       		.byte	0x2
 7290 14ac 6B02     		.2byte	0x26b
 7291 14ae DE090000 		.4byte	0x9de
 7292 14b2 02       		.uleb128 0x2
 7293 14b3 91       		.byte	0x91
 7294 14b4 70       		.sleb128 -16
 7295 14b5 2A       		.uleb128 0x2a
 7296 14b6 6900     		.ascii	"i\000"
 7297 14b8 02       		.byte	0x2
 7298 14b9 6C02     		.2byte	0x26c
 7299 14bb 040A0000 		.4byte	0xa04
 7300 14bf 02       		.uleb128 0x2
ARM GAS  C:\Users\PCHAUT~1\AppData\Local\Temp\ccvICu2w.s 			page 132


 7301 14c0 91       		.byte	0x91
 7302 14c1 68       		.sleb128 -24
 7303 14c2 00       		.byte	0
 7304 14c3 28       		.uleb128 0x28
 7305 14c4 8B0A0000 		.4byte	.LASF252
 7306 14c8 02       		.byte	0x2
 7307 14c9 3E02     		.2byte	0x23e
 7308 14cb 00000000 		.4byte	.LFB15
 7309 14cf 08010000 		.4byte	.LFE15-.LFB15
 7310 14d3 01       		.uleb128 0x1
 7311 14d4 9C       		.byte	0x9c
 7312 14d5 80150000 		.4byte	0x1580
 7313 14d9 29       		.uleb128 0x29
 7314 14da 766D00   		.ascii	"vm\000"
 7315 14dd 02       		.byte	0x2
 7316 14de 3E02     		.2byte	0x23e
 7317 14e0 E10A0000 		.4byte	0xae1
 7318 14e4 02       		.uleb128 0x2
 7319 14e5 91       		.byte	0x91
 7320 14e6 5C       		.sleb128 -36
 7321 14e7 27       		.uleb128 0x27
 7322 14e8 91120000 		.4byte	.LASF216
 7323 14ec 02       		.byte	0x2
 7324 14ed 4102     		.2byte	0x241
 7325 14ef 040A0000 		.4byte	0xa04
 7326 14f3 02       		.uleb128 0x2
 7327 14f4 91       		.byte	0x91
 7328 14f5 60       		.sleb128 -32
 7329 14f6 2A       		.uleb128 0x2a
 7330 14f7 73726300 		.ascii	"src\000"
 7331 14fb 02       		.byte	0x2
 7332 14fc 4202     		.2byte	0x242
 7333 14fe 040A0000 		.4byte	0xa04
 7334 1502 02       		.uleb128 0x2
 7335 1503 91       		.byte	0x91
 7336 1504 62       		.sleb128 -30
 7337 1505 2A       		.uleb128 0x2a
 7338 1506 6C6F7700 		.ascii	"low\000"
 7339 150a 02       		.byte	0x2
 7340 150b 4302     		.2byte	0x243
 7341 150d 040A0000 		.4byte	0xa04
 7342 1511 02       		.uleb128 0x2
 7343 1512 91       		.byte	0x91
 7344 1513 64       		.sleb128 -28
 7345 1514 27       		.uleb128 0x27
 7346 1515 0F050000 		.4byte	.LASF253
 7347 1519 02       		.byte	0x2
 7348 151a 4402     		.2byte	0x244
 7349 151c 040A0000 		.4byte	0xa04
 7350 1520 02       		.uleb128 0x2
 7351 1521 91       		.byte	0x91
 7352 1522 66       		.sleb128 -26
 7353 1523 27       		.uleb128 0x27
 7354 1524 2F0C0000 		.4byte	.LASF211
 7355 1528 02       		.byte	0x2
 7356 1529 4702     		.2byte	0x247
 7357 152b 040A0000 		.4byte	0xa04
ARM GAS  C:\Users\PCHAUT~1\AppData\Local\Temp\ccvICu2w.s 			page 133


 7358 152f 02       		.uleb128 0x2
 7359 1530 91       		.byte	0x91
 7360 1531 6A       		.sleb128 -22
 7361 1532 2A       		.uleb128 0x2a
 7362 1533 6900     		.ascii	"i\000"
 7363 1535 02       		.byte	0x2
 7364 1536 4902     		.2byte	0x249
 7365 1538 040A0000 		.4byte	0xa04
 7366 153c 02       		.uleb128 0x2
 7367 153d 91       		.byte	0x91
 7368 153e 68       		.sleb128 -24
 7369 153f 2F       		.uleb128 0x2f
 7370 1540 50000000 		.4byte	.LBB11
 7371 1544 86000000 		.4byte	.LBE11-.LBB11
 7372 1548 2A       		.uleb128 0x2a
 7373 1549 7600     		.ascii	"v\000"
 7374 154b 02       		.byte	0x2
 7375 154c 4C02     		.2byte	0x24c
 7376 154e F4090000 		.4byte	0x9f4
 7377 1552 02       		.uleb128 0x2
 7378 1553 91       		.byte	0x91
 7379 1554 6C       		.sleb128 -20
 7380 1555 2A       		.uleb128 0x2a
 7381 1556 6C00     		.ascii	"l\000"
 7382 1558 02       		.byte	0x2
 7383 1559 4D02     		.2byte	0x24d
 7384 155b F4090000 		.4byte	0x9f4
 7385 155f 02       		.uleb128 0x2
 7386 1560 91       		.byte	0x91
 7387 1561 6E       		.sleb128 -18
 7388 1562 2A       		.uleb128 0x2a
 7389 1563 6800     		.ascii	"h\000"
 7390 1565 02       		.byte	0x2
 7391 1566 4E02     		.2byte	0x24e
 7392 1568 F4090000 		.4byte	0x9f4
 7393 156c 02       		.uleb128 0x2
 7394 156d 91       		.byte	0x91
 7395 156e 70       		.sleb128 -16
 7396 156f 2A       		.uleb128 0x2a
 7397 1570 72657300 		.ascii	"res\000"
 7398 1574 02       		.byte	0x2
 7399 1575 4F02     		.2byte	0x24f
 7400 1577 F4090000 		.4byte	0x9f4
 7401 157b 02       		.uleb128 0x2
 7402 157c 91       		.byte	0x91
 7403 157d 72       		.sleb128 -14
 7404 157e 00       		.byte	0
 7405 157f 00       		.byte	0
 7406 1580 28       		.uleb128 0x28
 7407 1581 A2070000 		.4byte	.LASF254
 7408 1585 02       		.byte	0x2
 7409 1586 1E02     		.2byte	0x21e
 7410 1588 00000000 		.4byte	.LFB14
 7411 158c D0000000 		.4byte	.LFE14-.LFB14
 7412 1590 01       		.uleb128 0x1
 7413 1591 9C       		.byte	0x9c
 7414 1592 23160000 		.4byte	0x1623
ARM GAS  C:\Users\PCHAUT~1\AppData\Local\Temp\ccvICu2w.s 			page 134


 7415 1596 29       		.uleb128 0x29
 7416 1597 766D00   		.ascii	"vm\000"
 7417 159a 02       		.byte	0x2
 7418 159b 1E02     		.2byte	0x21e
 7419 159d E10A0000 		.4byte	0xae1
 7420 15a1 02       		.uleb128 0x2
 7421 15a2 91       		.byte	0x91
 7422 15a3 5C       		.sleb128 -36
 7423 15a4 27       		.uleb128 0x27
 7424 15a5 91120000 		.4byte	.LASF216
 7425 15a9 02       		.byte	0x2
 7426 15aa 2102     		.2byte	0x221
 7427 15ac 040A0000 		.4byte	0xa04
 7428 15b0 02       		.uleb128 0x2
 7429 15b1 91       		.byte	0x91
 7430 15b2 64       		.sleb128 -28
 7431 15b3 27       		.uleb128 0x27
 7432 15b4 1E000000 		.4byte	.LASF249
 7433 15b8 02       		.byte	0x2
 7434 15b9 2202     		.2byte	0x222
 7435 15bb 040A0000 		.4byte	0xa04
 7436 15bf 02       		.uleb128 0x2
 7437 15c0 91       		.byte	0x91
 7438 15c1 66       		.sleb128 -26
 7439 15c2 27       		.uleb128 0x27
 7440 15c3 73050000 		.4byte	.LASF250
 7441 15c7 02       		.byte	0x2
 7442 15c8 2302     		.2byte	0x223
 7443 15ca 040A0000 		.4byte	0xa04
 7444 15ce 02       		.uleb128 0x2
 7445 15cf 91       		.byte	0x91
 7446 15d0 68       		.sleb128 -24
 7447 15d1 27       		.uleb128 0x27
 7448 15d2 2F0C0000 		.4byte	.LASF211
 7449 15d6 02       		.byte	0x2
 7450 15d7 2602     		.2byte	0x226
 7451 15d9 040A0000 		.4byte	0xa04
 7452 15dd 02       		.uleb128 0x2
 7453 15de 91       		.byte	0x91
 7454 15df 6C       		.sleb128 -20
 7455 15e0 2A       		.uleb128 0x2a
 7456 15e1 6900     		.ascii	"i\000"
 7457 15e3 02       		.byte	0x2
 7458 15e4 2802     		.2byte	0x228
 7459 15e6 040A0000 		.4byte	0xa04
 7460 15ea 02       		.uleb128 0x2
 7461 15eb 91       		.byte	0x91
 7462 15ec 6A       		.sleb128 -22
 7463 15ed 2F       		.uleb128 0x2f
 7464 15ee 44000000 		.4byte	.LBB10
 7465 15f2 5A000000 		.4byte	.LBE10-.LBB10
 7466 15f6 2A       		.uleb128 0x2a
 7467 15f7 763100   		.ascii	"v1\000"
 7468 15fa 02       		.byte	0x2
 7469 15fb 2B02     		.2byte	0x22b
 7470 15fd F4090000 		.4byte	0x9f4
 7471 1601 02       		.uleb128 0x2
ARM GAS  C:\Users\PCHAUT~1\AppData\Local\Temp\ccvICu2w.s 			page 135


 7472 1602 91       		.byte	0x91
 7473 1603 6E       		.sleb128 -18
 7474 1604 2A       		.uleb128 0x2a
 7475 1605 763200   		.ascii	"v2\000"
 7476 1608 02       		.byte	0x2
 7477 1609 2C02     		.2byte	0x22c
 7478 160b F4090000 		.4byte	0x9f4
 7479 160f 02       		.uleb128 0x2
 7480 1610 91       		.byte	0x91
 7481 1611 70       		.sleb128 -16
 7482 1612 2A       		.uleb128 0x2a
 7483 1613 72657300 		.ascii	"res\000"
 7484 1617 02       		.byte	0x2
 7485 1618 2D02     		.2byte	0x22d
 7486 161a F4090000 		.4byte	0x9f4
 7487 161e 02       		.uleb128 0x2
 7488 161f 91       		.byte	0x91
 7489 1620 72       		.sleb128 -14
 7490 1621 00       		.byte	0
 7491 1622 00       		.byte	0
 7492 1623 28       		.uleb128 0x28
 7493 1624 D2110000 		.4byte	.LASF255
 7494 1628 02       		.byte	0x2
 7495 1629 FD01     		.2byte	0x1fd
 7496 162b 00000000 		.4byte	.LFB13
 7497 162f D0000000 		.4byte	.LFE13-.LFB13
 7498 1633 01       		.uleb128 0x1
 7499 1634 9C       		.byte	0x9c
 7500 1635 C6160000 		.4byte	0x16c6
 7501 1639 29       		.uleb128 0x29
 7502 163a 766D00   		.ascii	"vm\000"
 7503 163d 02       		.byte	0x2
 7504 163e FD01     		.2byte	0x1fd
 7505 1640 E10A0000 		.4byte	0xae1
 7506 1644 02       		.uleb128 0x2
 7507 1645 91       		.byte	0x91
 7508 1646 5C       		.sleb128 -36
 7509 1647 27       		.uleb128 0x27
 7510 1648 91120000 		.4byte	.LASF216
 7511 164c 02       		.byte	0x2
 7512 164d 0002     		.2byte	0x200
 7513 164f 040A0000 		.4byte	0xa04
 7514 1653 02       		.uleb128 0x2
 7515 1654 91       		.byte	0x91
 7516 1655 64       		.sleb128 -28
 7517 1656 27       		.uleb128 0x27
 7518 1657 1E000000 		.4byte	.LASF249
 7519 165b 02       		.byte	0x2
 7520 165c 0102     		.2byte	0x201
 7521 165e 040A0000 		.4byte	0xa04
 7522 1662 02       		.uleb128 0x2
 7523 1663 91       		.byte	0x91
 7524 1664 66       		.sleb128 -26
 7525 1665 27       		.uleb128 0x27
 7526 1666 73050000 		.4byte	.LASF250
 7527 166a 02       		.byte	0x2
 7528 166b 0202     		.2byte	0x202
ARM GAS  C:\Users\PCHAUT~1\AppData\Local\Temp\ccvICu2w.s 			page 136


 7529 166d 040A0000 		.4byte	0xa04
 7530 1671 02       		.uleb128 0x2
 7531 1672 91       		.byte	0x91
 7532 1673 68       		.sleb128 -24
 7533 1674 27       		.uleb128 0x27
 7534 1675 2F0C0000 		.4byte	.LASF211
 7535 1679 02       		.byte	0x2
 7536 167a 0502     		.2byte	0x205
 7537 167c 040A0000 		.4byte	0xa04
 7538 1680 02       		.uleb128 0x2
 7539 1681 91       		.byte	0x91
 7540 1682 6C       		.sleb128 -20
 7541 1683 2A       		.uleb128 0x2a
 7542 1684 6900     		.ascii	"i\000"
 7543 1686 02       		.byte	0x2
 7544 1687 0702     		.2byte	0x207
 7545 1689 040A0000 		.4byte	0xa04
 7546 168d 02       		.uleb128 0x2
 7547 168e 91       		.byte	0x91
 7548 168f 6A       		.sleb128 -22
 7549 1690 2F       		.uleb128 0x2f
 7550 1691 44000000 		.4byte	.LBB9
 7551 1695 5A000000 		.4byte	.LBE9-.LBB9
 7552 1699 2A       		.uleb128 0x2a
 7553 169a 763100   		.ascii	"v1\000"
 7554 169d 02       		.byte	0x2
 7555 169e 0A02     		.2byte	0x20a
 7556 16a0 F4090000 		.4byte	0x9f4
 7557 16a4 02       		.uleb128 0x2
 7558 16a5 91       		.byte	0x91
 7559 16a6 6E       		.sleb128 -18
 7560 16a7 2A       		.uleb128 0x2a
 7561 16a8 763200   		.ascii	"v2\000"
 7562 16ab 02       		.byte	0x2
 7563 16ac 0B02     		.2byte	0x20b
 7564 16ae F4090000 		.4byte	0x9f4
 7565 16b2 02       		.uleb128 0x2
 7566 16b3 91       		.byte	0x91
 7567 16b4 70       		.sleb128 -16
 7568 16b5 2A       		.uleb128 0x2a
 7569 16b6 72657300 		.ascii	"res\000"
 7570 16ba 02       		.byte	0x2
 7571 16bb 0C02     		.2byte	0x20c
 7572 16bd F4090000 		.4byte	0x9f4
 7573 16c1 02       		.uleb128 0x2
 7574 16c2 91       		.byte	0x91
 7575 16c3 72       		.sleb128 -14
 7576 16c4 00       		.byte	0
 7577 16c5 00       		.byte	0
 7578 16c6 28       		.uleb128 0x28
 7579 16c7 D7060000 		.4byte	.LASF256
 7580 16cb 02       		.byte	0x2
 7581 16cc D301     		.2byte	0x1d3
 7582 16ce 00000000 		.4byte	.LFB12
 7583 16d2 E4000000 		.4byte	.LFE12-.LFB12
 7584 16d6 01       		.uleb128 0x1
 7585 16d7 9C       		.byte	0x9c
ARM GAS  C:\Users\PCHAUT~1\AppData\Local\Temp\ccvICu2w.s 			page 137


 7586 16d8 5C170000 		.4byte	0x175c
 7587 16dc 29       		.uleb128 0x29
 7588 16dd 766D00   		.ascii	"vm\000"
 7589 16e0 02       		.byte	0x2
 7590 16e1 D301     		.2byte	0x1d3
 7591 16e3 E10A0000 		.4byte	0xae1
 7592 16e7 02       		.uleb128 0x2
 7593 16e8 91       		.byte	0x91
 7594 16e9 5C       		.sleb128 -36
 7595 16ea 27       		.uleb128 0x27
 7596 16eb 91120000 		.4byte	.LASF216
 7597 16ef 02       		.byte	0x2
 7598 16f0 D601     		.2byte	0x1d6
 7599 16f2 040A0000 		.4byte	0xa04
 7600 16f6 02       		.uleb128 0x2
 7601 16f7 91       		.byte	0x91
 7602 16f8 62       		.sleb128 -30
 7603 16f9 27       		.uleb128 0x27
 7604 16fa 1E000000 		.4byte	.LASF249
 7605 16fe 02       		.byte	0x2
 7606 16ff D701     		.2byte	0x1d7
 7607 1701 040A0000 		.4byte	0xa04
 7608 1705 02       		.uleb128 0x2
 7609 1706 91       		.byte	0x91
 7610 1707 64       		.sleb128 -28
 7611 1708 27       		.uleb128 0x27
 7612 1709 73050000 		.4byte	.LASF250
 7613 170d 02       		.byte	0x2
 7614 170e D801     		.2byte	0x1d8
 7615 1710 040A0000 		.4byte	0xa04
 7616 1714 02       		.uleb128 0x2
 7617 1715 91       		.byte	0x91
 7618 1716 66       		.sleb128 -26
 7619 1717 27       		.uleb128 0x27
 7620 1718 2F0C0000 		.4byte	.LASF211
 7621 171c 02       		.byte	0x2
 7622 171d DB01     		.2byte	0x1db
 7623 171f 040A0000 		.4byte	0xa04
 7624 1723 02       		.uleb128 0x2
 7625 1724 91       		.byte	0x91
 7626 1725 6A       		.sleb128 -22
 7627 1726 2A       		.uleb128 0x2a
 7628 1727 6900     		.ascii	"i\000"
 7629 1729 02       		.byte	0x2
 7630 172a DD01     		.2byte	0x1dd
 7631 172c 040A0000 		.4byte	0xa04
 7632 1730 02       		.uleb128 0x2
 7633 1731 91       		.byte	0x91
 7634 1732 68       		.sleb128 -24
 7635 1733 2F       		.uleb128 0x2f
 7636 1734 44000000 		.4byte	.LBB8
 7637 1738 70000000 		.4byte	.LBE8-.LBB8
 7638 173c 27       		.uleb128 0x27
 7639 173d 77070000 		.4byte	.LASF257
 7640 1741 02       		.byte	0x2
 7641 1742 E001     		.2byte	0x1e0
 7642 1744 DE090000 		.4byte	0x9de
ARM GAS  C:\Users\PCHAUT~1\AppData\Local\Temp\ccvICu2w.s 			page 138


 7643 1748 02       		.uleb128 0x2
 7644 1749 91       		.byte	0x91
 7645 174a 6C       		.sleb128 -20
 7646 174b 27       		.uleb128 0x27
 7647 174c 6D0F0000 		.4byte	.LASF258
 7648 1750 02       		.byte	0x2
 7649 1751 E101     		.2byte	0x1e1
 7650 1753 DE090000 		.4byte	0x9de
 7651 1757 02       		.uleb128 0x2
 7652 1758 91       		.byte	0x91
 7653 1759 70       		.sleb128 -16
 7654 175a 00       		.byte	0
 7655 175b 00       		.byte	0
 7656 175c 28       		.uleb128 0x28
 7657 175d 2C0D0000 		.4byte	.LASF259
 7658 1761 02       		.byte	0x2
 7659 1762 B501     		.2byte	0x1b5
 7660 1764 00000000 		.4byte	.LFB11
 7661 1768 C0000000 		.4byte	.LFE11-.LFB11
 7662 176c 01       		.uleb128 0x1
 7663 176d 9C       		.byte	0x9c
 7664 176e CA170000 		.4byte	0x17ca
 7665 1772 29       		.uleb128 0x29
 7666 1773 766D00   		.ascii	"vm\000"
 7667 1776 02       		.byte	0x2
 7668 1777 B501     		.2byte	0x1b5
 7669 1779 E10A0000 		.4byte	0xae1
 7670 177d 02       		.uleb128 0x2
 7671 177e 91       		.byte	0x91
 7672 177f 64       		.sleb128 -28
 7673 1780 27       		.uleb128 0x27
 7674 1781 91120000 		.4byte	.LASF216
 7675 1785 02       		.byte	0x2
 7676 1786 B801     		.2byte	0x1b8
 7677 1788 040A0000 		.4byte	0xa04
 7678 178c 02       		.uleb128 0x2
 7679 178d 91       		.byte	0x91
 7680 178e 6A       		.sleb128 -22
 7681 178f 27       		.uleb128 0x27
 7682 1790 1E000000 		.4byte	.LASF249
 7683 1794 02       		.byte	0x2
 7684 1795 B901     		.2byte	0x1b9
 7685 1797 040A0000 		.4byte	0xa04
 7686 179b 02       		.uleb128 0x2
 7687 179c 91       		.byte	0x91
 7688 179d 6C       		.sleb128 -20
 7689 179e 27       		.uleb128 0x27
 7690 179f 73050000 		.4byte	.LASF250
 7691 17a3 02       		.byte	0x2
 7692 17a4 BA01     		.2byte	0x1ba
 7693 17a6 040A0000 		.4byte	0xa04
 7694 17aa 02       		.uleb128 0x2
 7695 17ab 91       		.byte	0x91
 7696 17ac 6E       		.sleb128 -18
 7697 17ad 27       		.uleb128 0x27
 7698 17ae 2F0C0000 		.4byte	.LASF211
 7699 17b2 02       		.byte	0x2
ARM GAS  C:\Users\PCHAUT~1\AppData\Local\Temp\ccvICu2w.s 			page 139


 7700 17b3 BD01     		.2byte	0x1bd
 7701 17b5 040A0000 		.4byte	0xa04
 7702 17b9 02       		.uleb128 0x2
 7703 17ba 91       		.byte	0x91
 7704 17bb 72       		.sleb128 -14
 7705 17bc 2A       		.uleb128 0x2a
 7706 17bd 6900     		.ascii	"i\000"
 7707 17bf 02       		.byte	0x2
 7708 17c0 BF01     		.2byte	0x1bf
 7709 17c2 040A0000 		.4byte	0xa04
 7710 17c6 02       		.uleb128 0x2
 7711 17c7 91       		.byte	0x91
 7712 17c8 70       		.sleb128 -16
 7713 17c9 00       		.byte	0
 7714 17ca 28       		.uleb128 0x28
 7715 17cb 5A050000 		.4byte	.LASF260
 7716 17cf 02       		.byte	0x2
 7717 17d0 9701     		.2byte	0x197
 7718 17d2 00000000 		.4byte	.LFB10
 7719 17d6 C0000000 		.4byte	.LFE10-.LFB10
 7720 17da 01       		.uleb128 0x1
 7721 17db 9C       		.byte	0x9c
 7722 17dc 38180000 		.4byte	0x1838
 7723 17e0 29       		.uleb128 0x29
 7724 17e1 766D00   		.ascii	"vm\000"
 7725 17e4 02       		.byte	0x2
 7726 17e5 9701     		.2byte	0x197
 7727 17e7 E10A0000 		.4byte	0xae1
 7728 17eb 02       		.uleb128 0x2
 7729 17ec 91       		.byte	0x91
 7730 17ed 64       		.sleb128 -28
 7731 17ee 27       		.uleb128 0x27
 7732 17ef 91120000 		.4byte	.LASF216
 7733 17f3 02       		.byte	0x2
 7734 17f4 9A01     		.2byte	0x19a
 7735 17f6 040A0000 		.4byte	0xa04
 7736 17fa 02       		.uleb128 0x2
 7737 17fb 91       		.byte	0x91
 7738 17fc 6A       		.sleb128 -22
 7739 17fd 27       		.uleb128 0x27
 7740 17fe 1E000000 		.4byte	.LASF249
 7741 1802 02       		.byte	0x2
 7742 1803 9B01     		.2byte	0x19b
 7743 1805 040A0000 		.4byte	0xa04
 7744 1809 02       		.uleb128 0x2
 7745 180a 91       		.byte	0x91
 7746 180b 6C       		.sleb128 -20
 7747 180c 27       		.uleb128 0x27
 7748 180d 73050000 		.4byte	.LASF250
 7749 1811 02       		.byte	0x2
 7750 1812 9C01     		.2byte	0x19c
 7751 1814 040A0000 		.4byte	0xa04
 7752 1818 02       		.uleb128 0x2
 7753 1819 91       		.byte	0x91
 7754 181a 6E       		.sleb128 -18
 7755 181b 27       		.uleb128 0x27
 7756 181c 2F0C0000 		.4byte	.LASF211
ARM GAS  C:\Users\PCHAUT~1\AppData\Local\Temp\ccvICu2w.s 			page 140


 7757 1820 02       		.byte	0x2
 7758 1821 9F01     		.2byte	0x19f
 7759 1823 040A0000 		.4byte	0xa04
 7760 1827 02       		.uleb128 0x2
 7761 1828 91       		.byte	0x91
 7762 1829 72       		.sleb128 -14
 7763 182a 2A       		.uleb128 0x2a
 7764 182b 6900     		.ascii	"i\000"
 7765 182d 02       		.byte	0x2
 7766 182e A101     		.2byte	0x1a1
 7767 1830 040A0000 		.4byte	0xa04
 7768 1834 02       		.uleb128 0x2
 7769 1835 91       		.byte	0x91
 7770 1836 70       		.sleb128 -16
 7771 1837 00       		.byte	0
 7772 1838 28       		.uleb128 0x28
 7773 1839 07100000 		.4byte	.LASF261
 7774 183d 02       		.byte	0x2
 7775 183e 7901     		.2byte	0x179
 7776 1840 00000000 		.4byte	.LFB9
 7777 1844 C0000000 		.4byte	.LFE9-.LFB9
 7778 1848 01       		.uleb128 0x1
 7779 1849 9C       		.byte	0x9c
 7780 184a A6180000 		.4byte	0x18a6
 7781 184e 29       		.uleb128 0x29
 7782 184f 766D00   		.ascii	"vm\000"
 7783 1852 02       		.byte	0x2
 7784 1853 7901     		.2byte	0x179
 7785 1855 E10A0000 		.4byte	0xae1
 7786 1859 02       		.uleb128 0x2
 7787 185a 91       		.byte	0x91
 7788 185b 64       		.sleb128 -28
 7789 185c 27       		.uleb128 0x27
 7790 185d 91120000 		.4byte	.LASF216
 7791 1861 02       		.byte	0x2
 7792 1862 7C01     		.2byte	0x17c
 7793 1864 040A0000 		.4byte	0xa04
 7794 1868 02       		.uleb128 0x2
 7795 1869 91       		.byte	0x91
 7796 186a 6A       		.sleb128 -22
 7797 186b 27       		.uleb128 0x27
 7798 186c 1E000000 		.4byte	.LASF249
 7799 1870 02       		.byte	0x2
 7800 1871 7D01     		.2byte	0x17d
 7801 1873 040A0000 		.4byte	0xa04
 7802 1877 02       		.uleb128 0x2
 7803 1878 91       		.byte	0x91
 7804 1879 6C       		.sleb128 -20
 7805 187a 27       		.uleb128 0x27
 7806 187b 73050000 		.4byte	.LASF250
 7807 187f 02       		.byte	0x2
 7808 1880 7E01     		.2byte	0x17e
 7809 1882 040A0000 		.4byte	0xa04
 7810 1886 02       		.uleb128 0x2
 7811 1887 91       		.byte	0x91
 7812 1888 6E       		.sleb128 -18
 7813 1889 27       		.uleb128 0x27
ARM GAS  C:\Users\PCHAUT~1\AppData\Local\Temp\ccvICu2w.s 			page 141


 7814 188a 2F0C0000 		.4byte	.LASF211
 7815 188e 02       		.byte	0x2
 7816 188f 8101     		.2byte	0x181
 7817 1891 040A0000 		.4byte	0xa04
 7818 1895 02       		.uleb128 0x2
 7819 1896 91       		.byte	0x91
 7820 1897 72       		.sleb128 -14
 7821 1898 2A       		.uleb128 0x2a
 7822 1899 6900     		.ascii	"i\000"
 7823 189b 02       		.byte	0x2
 7824 189c 8301     		.2byte	0x183
 7825 189e 040A0000 		.4byte	0xa04
 7826 18a2 02       		.uleb128 0x2
 7827 18a3 91       		.byte	0x91
 7828 18a4 70       		.sleb128 -16
 7829 18a5 00       		.byte	0
 7830 18a6 28       		.uleb128 0x28
 7831 18a7 EA070000 		.4byte	.LASF262
 7832 18ab 02       		.byte	0x2
 7833 18ac 5A01     		.2byte	0x15a
 7834 18ae 00000000 		.4byte	.LFB8
 7835 18b2 BC000000 		.4byte	.LFE8-.LFB8
 7836 18b6 01       		.uleb128 0x1
 7837 18b7 9C       		.byte	0x9c
 7838 18b8 23190000 		.4byte	0x1923
 7839 18bc 29       		.uleb128 0x29
 7840 18bd 766D00   		.ascii	"vm\000"
 7841 18c0 02       		.byte	0x2
 7842 18c1 5A01     		.2byte	0x15a
 7843 18c3 E10A0000 		.4byte	0xae1
 7844 18c7 02       		.uleb128 0x2
 7845 18c8 91       		.byte	0x91
 7846 18c9 64       		.sleb128 -28
 7847 18ca 27       		.uleb128 0x27
 7848 18cb 91120000 		.4byte	.LASF216
 7849 18cf 02       		.byte	0x2
 7850 18d0 5D01     		.2byte	0x15d
 7851 18d2 040A0000 		.4byte	0xa04
 7852 18d6 02       		.uleb128 0x2
 7853 18d7 91       		.byte	0x91
 7854 18d8 68       		.sleb128 -24
 7855 18d9 2A       		.uleb128 0x2a
 7856 18da 73726300 		.ascii	"src\000"
 7857 18de 02       		.byte	0x2
 7858 18df 5E01     		.2byte	0x15e
 7859 18e1 040A0000 		.4byte	0xa04
 7860 18e5 02       		.uleb128 0x2
 7861 18e6 91       		.byte	0x91
 7862 18e7 6A       		.sleb128 -22
 7863 18e8 27       		.uleb128 0x27
 7864 18e9 54120000 		.4byte	.LASF263
 7865 18ed 02       		.byte	0x2
 7866 18ee 5F01     		.2byte	0x15f
 7867 18f0 040A0000 		.4byte	0xa04
 7868 18f4 02       		.uleb128 0x2
 7869 18f5 91       		.byte	0x91
 7870 18f6 6E       		.sleb128 -18
ARM GAS  C:\Users\PCHAUT~1\AppData\Local\Temp\ccvICu2w.s 			page 142


 7871 18f7 27       		.uleb128 0x27
 7872 18f8 2F0C0000 		.4byte	.LASF211
 7873 18fc 02       		.byte	0x2
 7874 18fd 6201     		.2byte	0x162
 7875 18ff 040A0000 		.4byte	0xa04
 7876 1903 02       		.uleb128 0x2
 7877 1904 91       		.byte	0x91
 7878 1905 70       		.sleb128 -16
 7879 1906 27       		.uleb128 0x27
 7880 1907 78020000 		.4byte	.LASF264
 7881 190b 02       		.byte	0x2
 7882 190c 6401     		.2byte	0x164
 7883 190e FF090000 		.4byte	0x9ff
 7884 1912 02       		.uleb128 0x2
 7885 1913 91       		.byte	0x91
 7886 1914 72       		.sleb128 -14
 7887 1915 2A       		.uleb128 0x2a
 7888 1916 6900     		.ascii	"i\000"
 7889 1918 02       		.byte	0x2
 7890 1919 6501     		.2byte	0x165
 7891 191b 040A0000 		.4byte	0xa04
 7892 191f 02       		.uleb128 0x2
 7893 1920 91       		.byte	0x91
 7894 1921 6C       		.sleb128 -20
 7895 1922 00       		.byte	0
 7896 1923 28       		.uleb128 0x28
 7897 1924 950D0000 		.4byte	.LASF265
 7898 1928 02       		.byte	0x2
 7899 1929 3D01     		.2byte	0x13d
 7900 192b 00000000 		.4byte	.LFB7
 7901 192f 8C000000 		.4byte	.LFE7-.LFB7
 7902 1933 01       		.uleb128 0x1
 7903 1934 9C       		.byte	0x9c
 7904 1935 82190000 		.4byte	0x1982
 7905 1939 29       		.uleb128 0x29
 7906 193a 766D00   		.ascii	"vm\000"
 7907 193d 02       		.byte	0x2
 7908 193e 3D01     		.2byte	0x13d
 7909 1940 E10A0000 		.4byte	0xae1
 7910 1944 02       		.uleb128 0x2
 7911 1945 91       		.byte	0x91
 7912 1946 64       		.sleb128 -28
 7913 1947 27       		.uleb128 0x27
 7914 1948 91120000 		.4byte	.LASF216
 7915 194c 02       		.byte	0x2
 7916 194d 4001     		.2byte	0x140
 7917 194f 040A0000 		.4byte	0xa04
 7918 1953 02       		.uleb128 0x2
 7919 1954 91       		.byte	0x91
 7920 1955 6C       		.sleb128 -20
 7921 1956 27       		.uleb128 0x27
 7922 1957 49050000 		.4byte	.LASF266
 7923 195b 02       		.byte	0x2
 7924 195c 4101     		.2byte	0x141
 7925 195e 040A0000 		.4byte	0xa04
 7926 1962 02       		.uleb128 0x2
 7927 1963 91       		.byte	0x91
ARM GAS  C:\Users\PCHAUT~1\AppData\Local\Temp\ccvICu2w.s 			page 143


 7928 1964 70       		.sleb128 -16
 7929 1965 27       		.uleb128 0x27
 7930 1966 2F0C0000 		.4byte	.LASF211
 7931 196a 02       		.byte	0x2
 7932 196b 4401     		.2byte	0x144
 7933 196d 040A0000 		.4byte	0xa04
 7934 1971 02       		.uleb128 0x2
 7935 1972 91       		.byte	0x91
 7936 1973 72       		.sleb128 -14
 7937 1974 2A       		.uleb128 0x2a
 7938 1975 6900     		.ascii	"i\000"
 7939 1977 02       		.byte	0x2
 7940 1978 4601     		.2byte	0x146
 7941 197a 040A0000 		.4byte	0xa04
 7942 197e 02       		.uleb128 0x2
 7943 197f 91       		.byte	0x91
 7944 1980 6E       		.sleb128 -18
 7945 1981 00       		.byte	0
 7946 1982 28       		.uleb128 0x28
 7947 1983 FD0B0000 		.4byte	.LASF267
 7948 1987 02       		.byte	0x2
 7949 1988 2001     		.2byte	0x120
 7950 198a 00000000 		.4byte	.LFB6
 7951 198e 94000000 		.4byte	.LFE6-.LFB6
 7952 1992 01       		.uleb128 0x1
 7953 1993 9C       		.byte	0x9c
 7954 1994 E1190000 		.4byte	0x19e1
 7955 1998 29       		.uleb128 0x29
 7956 1999 766D00   		.ascii	"vm\000"
 7957 199c 02       		.byte	0x2
 7958 199d 2001     		.2byte	0x120
 7959 199f E10A0000 		.4byte	0xae1
 7960 19a3 02       		.uleb128 0x2
 7961 19a4 91       		.byte	0x91
 7962 19a5 64       		.sleb128 -28
 7963 19a6 27       		.uleb128 0x27
 7964 19a7 91120000 		.4byte	.LASF216
 7965 19ab 02       		.byte	0x2
 7966 19ac 2301     		.2byte	0x123
 7967 19ae 040A0000 		.4byte	0xa04
 7968 19b2 02       		.uleb128 0x2
 7969 19b3 91       		.byte	0x91
 7970 19b4 6C       		.sleb128 -20
 7971 19b5 2A       		.uleb128 0x2a
 7972 19b6 73726300 		.ascii	"src\000"
 7973 19ba 02       		.byte	0x2
 7974 19bb 2401     		.2byte	0x124
 7975 19bd 040A0000 		.4byte	0xa04
 7976 19c1 02       		.uleb128 0x2
 7977 19c2 91       		.byte	0x91
 7978 19c3 6E       		.sleb128 -18
 7979 19c4 27       		.uleb128 0x27
 7980 19c5 2F0C0000 		.4byte	.LASF211
 7981 19c9 02       		.byte	0x2
 7982 19ca 2701     		.2byte	0x127
 7983 19cc 040A0000 		.4byte	0xa04
 7984 19d0 02       		.uleb128 0x2
ARM GAS  C:\Users\PCHAUT~1\AppData\Local\Temp\ccvICu2w.s 			page 144


 7985 19d1 91       		.byte	0x91
 7986 19d2 72       		.sleb128 -14
 7987 19d3 2A       		.uleb128 0x2a
 7988 19d4 6900     		.ascii	"i\000"
 7989 19d6 02       		.byte	0x2
 7990 19d7 2901     		.2byte	0x129
 7991 19d9 040A0000 		.4byte	0xa04
 7992 19dd 02       		.uleb128 0x2
 7993 19de 91       		.byte	0x91
 7994 19df 70       		.sleb128 -16
 7995 19e0 00       		.byte	0
 7996 19e1 30       		.uleb128 0x30
 7997 19e2 DE100000 		.4byte	.LASF268
 7998 19e6 02       		.byte	0x2
 7999 19e7 FD       		.byte	0xfd
 8000 19e8 00000000 		.4byte	.LFB5
 8001 19ec 0C010000 		.4byte	.LFE5-.LFB5
 8002 19f0 01       		.uleb128 0x1
 8003 19f1 9C       		.byte	0x9c
 8004 19f2 561A0000 		.4byte	0x1a56
 8005 19f6 31       		.uleb128 0x31
 8006 19f7 6E060000 		.4byte	.LASF269
 8007 19fb 02       		.byte	0x2
 8008 19fc FD       		.byte	0xfd
 8009 19fd C00A0000 		.4byte	0xac0
 8010 1a01 02       		.uleb128 0x2
 8011 1a02 91       		.byte	0x91
 8012 1a03 64       		.sleb128 -28
 8013 1a04 31       		.uleb128 0x31
 8014 1a05 E8090000 		.4byte	.LASF180
 8015 1a09 02       		.byte	0x2
 8016 1a0a FD       		.byte	0xfd
 8017 1a0b 040A0000 		.4byte	0xa04
 8018 1a0f 02       		.uleb128 0x2
 8019 1a10 91       		.byte	0x91
 8020 1a11 62       		.sleb128 -30
 8021 1a12 32       		.uleb128 0x32
 8022 1a13 67617000 		.ascii	"gap\000"
 8023 1a17 02       		.byte	0x2
 8024 1a18 FF       		.byte	0xff
 8025 1a19 040A0000 		.4byte	0xa04
 8026 1a1d 02       		.uleb128 0x2
 8027 1a1e 91       		.byte	0x91
 8028 1a1f 6C       		.sleb128 -20
 8029 1a20 27       		.uleb128 0x27
 8030 1a21 AB0B0000 		.4byte	.LASF270
 8031 1a25 02       		.byte	0x2
 8032 1a26 0001     		.2byte	0x100
 8033 1a28 040A0000 		.4byte	0xa04
 8034 1a2c 02       		.uleb128 0x2
 8035 1a2d 91       		.byte	0x91
 8036 1a2e 6E       		.sleb128 -18
 8037 1a2f 2A       		.uleb128 0x2a
 8038 1a30 6900     		.ascii	"i\000"
 8039 1a32 02       		.byte	0x2
 8040 1a33 0101     		.2byte	0x101
 8041 1a35 040A0000 		.4byte	0xa04
ARM GAS  C:\Users\PCHAUT~1\AppData\Local\Temp\ccvICu2w.s 			page 145


 8042 1a39 02       		.uleb128 0x2
 8043 1a3a 91       		.byte	0x91
 8044 1a3b 70       		.sleb128 -16
 8045 1a3c 2F       		.uleb128 0x2f
 8046 1a3d 74000000 		.4byte	.LBB7
 8047 1a41 4C000000 		.4byte	.LBE7-.LBB7
 8048 1a45 27       		.uleb128 0x27
 8049 1a46 3F080000 		.4byte	.LASF271
 8050 1a4a 02       		.byte	0x2
 8051 1a4b 1401     		.2byte	0x114
 8052 1a4d F4090000 		.4byte	0x9f4
 8053 1a51 02       		.uleb128 0x2
 8054 1a52 91       		.byte	0x91
 8055 1a53 72       		.sleb128 -14
 8056 1a54 00       		.byte	0
 8057 1a55 00       		.byte	0
 8058 1a56 33       		.uleb128 0x33
 8059 1a57 240C0000 		.4byte	.LASF272
 8060 1a5b 02       		.byte	0x2
 8061 1a5c E3       		.byte	0xe3
 8062 1a5d F4090000 		.4byte	0x9f4
 8063 1a61 00000000 		.4byte	.LFB4
 8064 1a65 BC000000 		.4byte	.LFE4-.LFB4
 8065 1a69 01       		.uleb128 0x1
 8066 1a6a 9C       		.byte	0x9c
 8067 1a6b A71A0000 		.4byte	0x1aa7
 8068 1a6f 34       		.uleb128 0x34
 8069 1a70 6E756D00 		.ascii	"num\000"
 8070 1a74 02       		.byte	0x2
 8071 1a75 E3       		.byte	0xe3
 8072 1a76 F4090000 		.4byte	0x9f4
 8073 1a7a 02       		.uleb128 0x2
 8074 1a7b 91       		.byte	0x91
 8075 1a7c 66       		.sleb128 -26
 8076 1a7d 32       		.uleb128 0x32
 8077 1a7e 6F7000   		.ascii	"op\000"
 8078 1a81 02       		.byte	0x2
 8079 1a82 E5       		.byte	0xe5
 8080 1a83 F4090000 		.4byte	0x9f4
 8081 1a87 02       		.uleb128 0x2
 8082 1a88 91       		.byte	0x91
 8083 1a89 6E       		.sleb128 -18
 8084 1a8a 32       		.uleb128 0x32
 8085 1a8b 72657300 		.ascii	"res\000"
 8086 1a8f 02       		.byte	0x2
 8087 1a90 E6       		.byte	0xe6
 8088 1a91 F4090000 		.4byte	0x9f4
 8089 1a95 02       		.uleb128 0x2
 8090 1a96 91       		.byte	0x91
 8091 1a97 70       		.sleb128 -16
 8092 1a98 32       		.uleb128 0x32
 8093 1a99 6F6E6500 		.ascii	"one\000"
 8094 1a9d 02       		.byte	0x2
 8095 1a9e E7       		.byte	0xe7
 8096 1a9f F4090000 		.4byte	0x9f4
 8097 1aa3 02       		.uleb128 0x2
 8098 1aa4 91       		.byte	0x91
ARM GAS  C:\Users\PCHAUT~1\AppData\Local\Temp\ccvICu2w.s 			page 146


 8099 1aa5 72       		.sleb128 -14
 8100 1aa6 00       		.byte	0
 8101 1aa7 33       		.uleb128 0x33
 8102 1aa8 08060000 		.4byte	.LASF273
 8103 1aac 02       		.byte	0x2
 8104 1aad DD       		.byte	0xdd
 8105 1aae F4090000 		.4byte	0x9f4
 8106 1ab2 00000000 		.4byte	.LFB3
 8107 1ab6 40000000 		.4byte	.LFE3-.LFB3
 8108 1aba 01       		.uleb128 0x1
 8109 1abb 9C       		.byte	0x9c
 8110 1abc CF1A0000 		.4byte	0x1acf
 8111 1ac0 31       		.uleb128 0x31
 8112 1ac1 730B0000 		.4byte	.LASF274
 8113 1ac5 02       		.byte	0x2
 8114 1ac6 DD       		.byte	0xdd
 8115 1ac7 F4090000 		.4byte	0x9f4
 8116 1acb 02       		.uleb128 0x2
 8117 1acc 91       		.byte	0x91
 8118 1acd 6E       		.sleb128 -18
 8119 1ace 00       		.byte	0
 8120 1acf 33       		.uleb128 0x33
 8121 1ad0 2A080000 		.4byte	.LASF275
 8122 1ad4 02       		.byte	0x2
 8123 1ad5 B4       		.byte	0xb4
 8124 1ad6 F4090000 		.4byte	0x9f4
 8125 1ada 00000000 		.4byte	.LFB2
 8126 1ade 1C010000 		.4byte	.LFE2-.LFB2
 8127 1ae2 01       		.uleb128 0x1
 8128 1ae3 9C       		.byte	0x9c
 8129 1ae4 471B0000 		.4byte	0x1b47
 8130 1ae8 31       		.uleb128 0x31
 8131 1ae9 730B0000 		.4byte	.LASF274
 8132 1aed 02       		.byte	0x2
 8133 1aee B4       		.byte	0xb4
 8134 1aef F4090000 		.4byte	0x9f4
 8135 1af3 02       		.uleb128 0x2
 8136 1af4 91       		.byte	0x91
 8137 1af5 66       		.sleb128 -26
 8138 1af6 25       		.uleb128 0x25
 8139 1af7 76010000 		.4byte	.LASF220
 8140 1afb 02       		.byte	0x2
 8141 1afc B6       		.byte	0xb6
 8142 1afd F4090000 		.4byte	0x9f4
 8143 1b01 02       		.uleb128 0x2
 8144 1b02 91       		.byte	0x91
 8145 1b03 6E       		.sleb128 -18
 8146 1b04 25       		.uleb128 0x25
 8147 1b05 A7040000 		.4byte	.LASF276
 8148 1b09 02       		.byte	0x2
 8149 1b0a B7       		.byte	0xb7
 8150 1b0b F4090000 		.4byte	0x9f4
 8151 1b0f 02       		.uleb128 0x2
 8152 1b10 91       		.byte	0x91
 8153 1b11 70       		.sleb128 -16
 8154 1b12 25       		.uleb128 0x25
 8155 1b13 03080000 		.4byte	.LASF277
ARM GAS  C:\Users\PCHAUT~1\AppData\Local\Temp\ccvICu2w.s 			page 147


 8156 1b17 02       		.byte	0x2
 8157 1b18 B8       		.byte	0xb8
 8158 1b19 F4090000 		.4byte	0x9f4
 8159 1b1d 02       		.uleb128 0x2
 8160 1b1e 91       		.byte	0x91
 8161 1b1f 6A       		.sleb128 -22
 8162 1b20 25       		.uleb128 0x25
 8163 1b21 9F0B0000 		.4byte	.LASF278
 8164 1b25 02       		.byte	0x2
 8165 1b26 B9       		.byte	0xb9
 8166 1b27 F4090000 		.4byte	0x9f4
 8167 1b2b 02       		.uleb128 0x2
 8168 1b2c 91       		.byte	0x91
 8169 1b2d 6C       		.sleb128 -20
 8170 1b2e 2F       		.uleb128 0x2f
 8171 1b2f A6000000 		.4byte	.LBB6
 8172 1b33 4E000000 		.4byte	.LBE6-.LBB6
 8173 1b37 25       		.uleb128 0x25
 8174 1b38 EB030000 		.4byte	.LASF279
 8175 1b3c 02       		.byte	0x2
 8176 1b3d D3       		.byte	0xd3
 8177 1b3e F4090000 		.4byte	0x9f4
 8178 1b42 02       		.uleb128 0x2
 8179 1b43 91       		.byte	0x91
 8180 1b44 72       		.sleb128 -14
 8181 1b45 00       		.byte	0
 8182 1b46 00       		.byte	0
 8183 1b47 33       		.uleb128 0x33
 8184 1b48 78050000 		.4byte	.LASF280
 8185 1b4c 02       		.byte	0x2
 8186 1b4d 45       		.byte	0x45
 8187 1b4e F4090000 		.4byte	0x9f4
 8188 1b52 00000000 		.4byte	.LFB1
 8189 1b56 B0010000 		.4byte	.LFE1-.LFB1
 8190 1b5a 01       		.uleb128 0x1
 8191 1b5b 9C       		.byte	0x9c
 8192 1b5c 471C0000 		.4byte	0x1c47
 8193 1b60 34       		.uleb128 0x34
 8194 1b61 7900     		.ascii	"y\000"
 8195 1b63 02       		.byte	0x2
 8196 1b64 45       		.byte	0x45
 8197 1b65 F4090000 		.4byte	0x9f4
 8198 1b69 02       		.uleb128 0x2
 8199 1b6a 91       		.byte	0x91
 8200 1b6b 56       		.sleb128 -42
 8201 1b6c 34       		.uleb128 0x34
 8202 1b6d 7800     		.ascii	"x\000"
 8203 1b6f 02       		.byte	0x2
 8204 1b70 45       		.byte	0x45
 8205 1b71 F4090000 		.4byte	0x9f4
 8206 1b75 02       		.uleb128 0x2
 8207 1b76 91       		.byte	0x91
 8208 1b77 54       		.sleb128 -44
 8209 1b78 2F       		.uleb128 0x2f
 8210 1b79 38000000 		.4byte	.LBB2
 8211 1b7d 54010000 		.4byte	.LBE2-.LBB2
 8212 1b81 32       		.uleb128 0x32
ARM GAS  C:\Users\PCHAUT~1\AppData\Local\Temp\ccvICu2w.s 			page 148


 8213 1b82 72657300 		.ascii	"res\000"
 8214 1b86 02       		.byte	0x2
 8215 1b87 50       		.byte	0x50
 8216 1b88 F4090000 		.4byte	0x9f4
 8217 1b8c 02       		.uleb128 0x2
 8218 1b8d 91       		.byte	0x91
 8219 1b8e 58       		.sleb128 -40
 8220 1b8f 32       		.uleb128 0x32
 8221 1b90 617800   		.ascii	"ax\000"
 8222 1b93 02       		.byte	0x2
 8223 1b94 51       		.byte	0x51
 8224 1b95 F4090000 		.4byte	0x9f4
 8225 1b99 02       		.uleb128 0x2
 8226 1b9a 91       		.byte	0x91
 8227 1b9b 5E       		.sleb128 -34
 8228 1b9c 32       		.uleb128 0x32
 8229 1b9d 617900   		.ascii	"ay\000"
 8230 1ba0 02       		.byte	0x2
 8231 1ba1 52       		.byte	0x52
 8232 1ba2 F4090000 		.4byte	0x9f4
 8233 1ba6 02       		.uleb128 0x2
 8234 1ba7 91       		.byte	0x91
 8235 1ba8 60       		.sleb128 -32
 8236 1ba9 2F       		.uleb128 0x2f
 8237 1baa 66000000 		.4byte	.LBB3
 8238 1bae 0E010000 		.4byte	.LBE3-.LBB3
 8239 1bb2 25       		.uleb128 0x25
 8240 1bb3 49050000 		.4byte	.LASF266
 8241 1bb7 02       		.byte	0x2
 8242 1bb8 80       		.byte	0x80
 8243 1bb9 DE090000 		.4byte	0x9de
 8244 1bbd 02       		.uleb128 0x2
 8245 1bbe 91       		.byte	0x91
 8246 1bbf 6C       		.sleb128 -20
 8247 1bc0 32       		.uleb128 0x32
 8248 1bc1 66623100 		.ascii	"fb1\000"
 8249 1bc5 02       		.byte	0x2
 8250 1bc6 81       		.byte	0x81
 8251 1bc7 F4090000 		.4byte	0x9f4
 8252 1bcb 02       		.uleb128 0x2
 8253 1bcc 91       		.byte	0x91
 8254 1bcd 5A       		.sleb128 -38
 8255 1bce 25       		.uleb128 0x25
 8256 1bcf 78100000 		.4byte	.LASF281
 8257 1bd3 02       		.byte	0x2
 8258 1bd4 83       		.byte	0x83
 8259 1bd5 F4090000 		.4byte	0x9f4
 8260 1bd9 02       		.uleb128 0x2
 8261 1bda 91       		.byte	0x91
 8262 1bdb 5C       		.sleb128 -36
 8263 1bdc 2F       		.uleb128 0x2f
 8264 1bdd B0000000 		.4byte	.LBB4
 8265 1be1 C4000000 		.4byte	.LBE4-.LBB4
 8266 1be5 25       		.uleb128 0x25
 8267 1be6 76010000 		.4byte	.LASF220
 8268 1bea 02       		.byte	0x2
 8269 1beb 8A       		.byte	0x8a
ARM GAS  C:\Users\PCHAUT~1\AppData\Local\Temp\ccvICu2w.s 			page 149


 8270 1bec F4090000 		.4byte	0x9f4
 8271 1bf0 02       		.uleb128 0x2
 8272 1bf1 91       		.byte	0x91
 8273 1bf2 62       		.sleb128 -30
 8274 1bf3 2F       		.uleb128 0x2f
 8275 1bf4 D8000000 		.4byte	.LBB5
 8276 1bf8 86000000 		.4byte	.LBE5-.LBB5
 8277 1bfc 25       		.uleb128 0x25
 8278 1bfd 1B030000 		.4byte	.LASF282
 8279 1c01 02       		.byte	0x2
 8280 1c02 92       		.byte	0x92
 8281 1c03 DE090000 		.4byte	0x9de
 8282 1c07 02       		.uleb128 0x2
 8283 1c08 91       		.byte	0x91
 8284 1c09 70       		.sleb128 -16
 8285 1c0a 25       		.uleb128 0x25
 8286 1c0b 54060000 		.4byte	.LASF283
 8287 1c0f 02       		.byte	0x2
 8288 1c10 93       		.byte	0x93
 8289 1c11 F4090000 		.4byte	0x9f4
 8290 1c15 02       		.uleb128 0x2
 8291 1c16 91       		.byte	0x91
 8292 1c17 64       		.sleb128 -28
 8293 1c18 25       		.uleb128 0x25
 8294 1c19 110C0000 		.4byte	.LASF284
 8295 1c1d 02       		.byte	0x2
 8296 1c1e 94       		.byte	0x94
 8297 1c1f F4090000 		.4byte	0x9f4
 8298 1c23 02       		.uleb128 0x2
 8299 1c24 91       		.byte	0x91
 8300 1c25 66       		.sleb128 -26
 8301 1c26 32       		.uleb128 0x32
 8302 1c27 62696E00 		.ascii	"bin\000"
 8303 1c2b 02       		.byte	0x2
 8304 1c2c 95       		.byte	0x95
 8305 1c2d F4090000 		.4byte	0x9f4
 8306 1c31 02       		.uleb128 0x2
 8307 1c32 91       		.byte	0x91
 8308 1c33 68       		.sleb128 -24
 8309 1c34 25       		.uleb128 0x25
 8310 1c35 3D110000 		.4byte	.LASF285
 8311 1c39 02       		.byte	0x2
 8312 1c3a 96       		.byte	0x96
 8313 1c3b F4090000 		.4byte	0x9f4
 8314 1c3f 02       		.uleb128 0x2
 8315 1c40 91       		.byte	0x91
 8316 1c41 6A       		.sleb128 -22
 8317 1c42 00       		.byte	0
 8318 1c43 00       		.byte	0
 8319 1c44 00       		.byte	0
 8320 1c45 00       		.byte	0
 8321 1c46 00       		.byte	0
 8322 1c47 35       		.uleb128 0x35
 8323 1c48 E20B0000 		.4byte	.LASF291
 8324 1c4c 01       		.byte	0x1
 8325 1c4d 58       		.byte	0x58
 8326 1c4e F4090000 		.4byte	0x9f4
ARM GAS  C:\Users\PCHAUT~1\AppData\Local\Temp\ccvICu2w.s 			page 150


 8327 1c52 00000000 		.4byte	.LFB0
 8328 1c56 48000000 		.4byte	.LFE0-.LFB0
 8329 1c5a 01       		.uleb128 0x1
 8330 1c5b 9C       		.byte	0x9c
 8331 1c5c 34       		.uleb128 0x34
 8332 1c5d 766D00   		.ascii	"vm\000"
 8333 1c60 01       		.byte	0x1
 8334 1c61 58       		.byte	0x58
 8335 1c62 E10A0000 		.4byte	0xae1
 8336 1c66 02       		.uleb128 0x2
 8337 1c67 91       		.byte	0x91
 8338 1c68 6C       		.sleb128 -20
 8339 1c69 00       		.byte	0
 8340 1c6a 00       		.byte	0
 8341              		.section	.debug_abbrev,"",%progbits
 8342              	.Ldebug_abbrev0:
 8343 0000 01       		.uleb128 0x1
 8344 0001 11       		.uleb128 0x11
 8345 0002 01       		.byte	0x1
 8346 0003 25       		.uleb128 0x25
 8347 0004 0E       		.uleb128 0xe
 8348 0005 13       		.uleb128 0x13
 8349 0006 0B       		.uleb128 0xb
 8350 0007 03       		.uleb128 0x3
 8351 0008 0E       		.uleb128 0xe
 8352 0009 1B       		.uleb128 0x1b
 8353 000a 0E       		.uleb128 0xe
 8354 000b 55       		.uleb128 0x55
 8355 000c 17       		.uleb128 0x17
 8356 000d 11       		.uleb128 0x11
 8357 000e 01       		.uleb128 0x1
 8358 000f 10       		.uleb128 0x10
 8359 0010 17       		.uleb128 0x17
 8360 0011 00       		.byte	0
 8361 0012 00       		.byte	0
 8362 0013 02       		.uleb128 0x2
 8363 0014 24       		.uleb128 0x24
 8364 0015 00       		.byte	0
 8365 0016 0B       		.uleb128 0xb
 8366 0017 0B       		.uleb128 0xb
 8367 0018 3E       		.uleb128 0x3e
 8368 0019 0B       		.uleb128 0xb
 8369 001a 03       		.uleb128 0x3
 8370 001b 0E       		.uleb128 0xe
 8371 001c 00       		.byte	0
 8372 001d 00       		.byte	0
 8373 001e 03       		.uleb128 0x3
 8374 001f 04       		.uleb128 0x4
 8375 0020 01       		.byte	0x1
 8376 0021 3E       		.uleb128 0x3e
 8377 0022 0B       		.uleb128 0xb
 8378 0023 0B       		.uleb128 0xb
 8379 0024 0B       		.uleb128 0xb
 8380 0025 49       		.uleb128 0x49
 8381 0026 13       		.uleb128 0x13
 8382 0027 3A       		.uleb128 0x3a
 8383 0028 0B       		.uleb128 0xb
ARM GAS  C:\Users\PCHAUT~1\AppData\Local\Temp\ccvICu2w.s 			page 151


 8384 0029 3B       		.uleb128 0x3b
 8385 002a 0B       		.uleb128 0xb
 8386 002b 01       		.uleb128 0x1
 8387 002c 13       		.uleb128 0x13
 8388 002d 00       		.byte	0
 8389 002e 00       		.byte	0
 8390 002f 04       		.uleb128 0x4
 8391 0030 28       		.uleb128 0x28
 8392 0031 00       		.byte	0
 8393 0032 03       		.uleb128 0x3
 8394 0033 0E       		.uleb128 0xe
 8395 0034 1C       		.uleb128 0x1c
 8396 0035 0B       		.uleb128 0xb
 8397 0036 00       		.byte	0
 8398 0037 00       		.byte	0
 8399 0038 05       		.uleb128 0x5
 8400 0039 28       		.uleb128 0x28
 8401 003a 00       		.byte	0
 8402 003b 03       		.uleb128 0x3
 8403 003c 0E       		.uleb128 0xe
 8404 003d 1C       		.uleb128 0x1c
 8405 003e 05       		.uleb128 0x5
 8406 003f 00       		.byte	0
 8407 0040 00       		.byte	0
 8408 0041 06       		.uleb128 0x6
 8409 0042 24       		.uleb128 0x24
 8410 0043 00       		.byte	0
 8411 0044 0B       		.uleb128 0xb
 8412 0045 0B       		.uleb128 0xb
 8413 0046 3E       		.uleb128 0x3e
 8414 0047 0B       		.uleb128 0xb
 8415 0048 03       		.uleb128 0x3
 8416 0049 08       		.uleb128 0x8
 8417 004a 00       		.byte	0
 8418 004b 00       		.byte	0
 8419 004c 07       		.uleb128 0x7
 8420 004d 16       		.uleb128 0x16
 8421 004e 00       		.byte	0
 8422 004f 03       		.uleb128 0x3
 8423 0050 0E       		.uleb128 0xe
 8424 0051 3A       		.uleb128 0x3a
 8425 0052 0B       		.uleb128 0xb
 8426 0053 3B       		.uleb128 0x3b
 8427 0054 0B       		.uleb128 0xb
 8428 0055 49       		.uleb128 0x49
 8429 0056 13       		.uleb128 0x13
 8430 0057 00       		.byte	0
 8431 0058 00       		.byte	0
 8432 0059 08       		.uleb128 0x8
 8433 005a 0F       		.uleb128 0xf
 8434 005b 00       		.byte	0
 8435 005c 0B       		.uleb128 0xb
 8436 005d 0B       		.uleb128 0xb
 8437 005e 49       		.uleb128 0x49
 8438 005f 13       		.uleb128 0x13
 8439 0060 00       		.byte	0
 8440 0061 00       		.byte	0
ARM GAS  C:\Users\PCHAUT~1\AppData\Local\Temp\ccvICu2w.s 			page 152


 8441 0062 09       		.uleb128 0x9
 8442 0063 13       		.uleb128 0x13
 8443 0064 00       		.byte	0
 8444 0065 03       		.uleb128 0x3
 8445 0066 0E       		.uleb128 0xe
 8446 0067 3C       		.uleb128 0x3c
 8447 0068 19       		.uleb128 0x19
 8448 0069 00       		.byte	0
 8449 006a 00       		.byte	0
 8450 006b 0A       		.uleb128 0xa
 8451 006c 16       		.uleb128 0x16
 8452 006d 00       		.byte	0
 8453 006e 03       		.uleb128 0x3
 8454 006f 0E       		.uleb128 0xe
 8455 0070 3A       		.uleb128 0x3a
 8456 0071 0B       		.uleb128 0xb
 8457 0072 3B       		.uleb128 0x3b
 8458 0073 05       		.uleb128 0x5
 8459 0074 49       		.uleb128 0x49
 8460 0075 13       		.uleb128 0x13
 8461 0076 00       		.byte	0
 8462 0077 00       		.byte	0
 8463 0078 0B       		.uleb128 0xb
 8464 0079 17       		.uleb128 0x17
 8465 007a 01       		.byte	0x1
 8466 007b 0B       		.uleb128 0xb
 8467 007c 0B       		.uleb128 0xb
 8468 007d 3A       		.uleb128 0x3a
 8469 007e 0B       		.uleb128 0xb
 8470 007f 3B       		.uleb128 0x3b
 8471 0080 0B       		.uleb128 0xb
 8472 0081 01       		.uleb128 0x1
 8473 0082 13       		.uleb128 0x13
 8474 0083 00       		.byte	0
 8475 0084 00       		.byte	0
 8476 0085 0C       		.uleb128 0xc
 8477 0086 0D       		.uleb128 0xd
 8478 0087 00       		.byte	0
 8479 0088 03       		.uleb128 0x3
 8480 0089 0E       		.uleb128 0xe
 8481 008a 3A       		.uleb128 0x3a
 8482 008b 0B       		.uleb128 0xb
 8483 008c 3B       		.uleb128 0x3b
 8484 008d 0B       		.uleb128 0xb
 8485 008e 49       		.uleb128 0x49
 8486 008f 13       		.uleb128 0x13
 8487 0090 00       		.byte	0
 8488 0091 00       		.byte	0
 8489 0092 0D       		.uleb128 0xd
 8490 0093 01       		.uleb128 0x1
 8491 0094 01       		.byte	0x1
 8492 0095 49       		.uleb128 0x49
 8493 0096 13       		.uleb128 0x13
 8494 0097 01       		.uleb128 0x1
 8495 0098 13       		.uleb128 0x13
 8496 0099 00       		.byte	0
 8497 009a 00       		.byte	0
ARM GAS  C:\Users\PCHAUT~1\AppData\Local\Temp\ccvICu2w.s 			page 153


 8498 009b 0E       		.uleb128 0xe
 8499 009c 21       		.uleb128 0x21
 8500 009d 00       		.byte	0
 8501 009e 49       		.uleb128 0x49
 8502 009f 13       		.uleb128 0x13
 8503 00a0 2F       		.uleb128 0x2f
 8504 00a1 0B       		.uleb128 0xb
 8505 00a2 00       		.byte	0
 8506 00a3 00       		.byte	0
 8507 00a4 0F       		.uleb128 0xf
 8508 00a5 13       		.uleb128 0x13
 8509 00a6 01       		.byte	0x1
 8510 00a7 0B       		.uleb128 0xb
 8511 00a8 0B       		.uleb128 0xb
 8512 00a9 3A       		.uleb128 0x3a
 8513 00aa 0B       		.uleb128 0xb
 8514 00ab 3B       		.uleb128 0x3b
 8515 00ac 0B       		.uleb128 0xb
 8516 00ad 01       		.uleb128 0x1
 8517 00ae 13       		.uleb128 0x13
 8518 00af 00       		.byte	0
 8519 00b0 00       		.byte	0
 8520 00b1 10       		.uleb128 0x10
 8521 00b2 0D       		.uleb128 0xd
 8522 00b3 00       		.byte	0
 8523 00b4 03       		.uleb128 0x3
 8524 00b5 0E       		.uleb128 0xe
 8525 00b6 3A       		.uleb128 0x3a
 8526 00b7 0B       		.uleb128 0xb
 8527 00b8 3B       		.uleb128 0x3b
 8528 00b9 0B       		.uleb128 0xb
 8529 00ba 49       		.uleb128 0x49
 8530 00bb 13       		.uleb128 0x13
 8531 00bc 38       		.uleb128 0x38
 8532 00bd 0B       		.uleb128 0xb
 8533 00be 00       		.byte	0
 8534 00bf 00       		.byte	0
 8535 00c0 11       		.uleb128 0x11
 8536 00c1 0F       		.uleb128 0xf
 8537 00c2 00       		.byte	0
 8538 00c3 0B       		.uleb128 0xb
 8539 00c4 0B       		.uleb128 0xb
 8540 00c5 00       		.byte	0
 8541 00c6 00       		.byte	0
 8542 00c7 12       		.uleb128 0x12
 8543 00c8 26       		.uleb128 0x26
 8544 00c9 00       		.byte	0
 8545 00ca 49       		.uleb128 0x49
 8546 00cb 13       		.uleb128 0x13
 8547 00cc 00       		.byte	0
 8548 00cd 00       		.byte	0
 8549 00ce 13       		.uleb128 0x13
 8550 00cf 13       		.uleb128 0x13
 8551 00d0 01       		.byte	0x1
 8552 00d1 03       		.uleb128 0x3
 8553 00d2 0E       		.uleb128 0xe
 8554 00d3 0B       		.uleb128 0xb
ARM GAS  C:\Users\PCHAUT~1\AppData\Local\Temp\ccvICu2w.s 			page 154


 8555 00d4 0B       		.uleb128 0xb
 8556 00d5 3A       		.uleb128 0x3a
 8557 00d6 0B       		.uleb128 0xb
 8558 00d7 3B       		.uleb128 0x3b
 8559 00d8 0B       		.uleb128 0xb
 8560 00d9 01       		.uleb128 0x1
 8561 00da 13       		.uleb128 0x13
 8562 00db 00       		.byte	0
 8563 00dc 00       		.byte	0
 8564 00dd 14       		.uleb128 0x14
 8565 00de 0D       		.uleb128 0xd
 8566 00df 00       		.byte	0
 8567 00e0 03       		.uleb128 0x3
 8568 00e1 08       		.uleb128 0x8
 8569 00e2 3A       		.uleb128 0x3a
 8570 00e3 0B       		.uleb128 0xb
 8571 00e4 3B       		.uleb128 0x3b
 8572 00e5 0B       		.uleb128 0xb
 8573 00e6 49       		.uleb128 0x49
 8574 00e7 13       		.uleb128 0x13
 8575 00e8 38       		.uleb128 0x38
 8576 00e9 0B       		.uleb128 0xb
 8577 00ea 00       		.byte	0
 8578 00eb 00       		.byte	0
 8579 00ec 15       		.uleb128 0x15
 8580 00ed 13       		.uleb128 0x13
 8581 00ee 01       		.byte	0x1
 8582 00ef 03       		.uleb128 0x3
 8583 00f0 0E       		.uleb128 0xe
 8584 00f1 0B       		.uleb128 0xb
 8585 00f2 05       		.uleb128 0x5
 8586 00f3 3A       		.uleb128 0x3a
 8587 00f4 0B       		.uleb128 0xb
 8588 00f5 3B       		.uleb128 0x3b
 8589 00f6 0B       		.uleb128 0xb
 8590 00f7 01       		.uleb128 0x1
 8591 00f8 13       		.uleb128 0x13
 8592 00f9 00       		.byte	0
 8593 00fa 00       		.byte	0
 8594 00fb 16       		.uleb128 0x16
 8595 00fc 0D       		.uleb128 0xd
 8596 00fd 00       		.byte	0
 8597 00fe 03       		.uleb128 0x3
 8598 00ff 0E       		.uleb128 0xe
 8599 0100 3A       		.uleb128 0x3a
 8600 0101 0B       		.uleb128 0xb
 8601 0102 3B       		.uleb128 0x3b
 8602 0103 0B       		.uleb128 0xb
 8603 0104 49       		.uleb128 0x49
 8604 0105 13       		.uleb128 0x13
 8605 0106 38       		.uleb128 0x38
 8606 0107 05       		.uleb128 0x5
 8607 0108 00       		.byte	0
 8608 0109 00       		.byte	0
 8609 010a 17       		.uleb128 0x17
 8610 010b 15       		.uleb128 0x15
 8611 010c 00       		.byte	0
ARM GAS  C:\Users\PCHAUT~1\AppData\Local\Temp\ccvICu2w.s 			page 155


 8612 010d 27       		.uleb128 0x27
 8613 010e 19       		.uleb128 0x19
 8614 010f 00       		.byte	0
 8615 0110 00       		.byte	0
 8616 0111 18       		.uleb128 0x18
 8617 0112 15       		.uleb128 0x15
 8618 0113 01       		.byte	0x1
 8619 0114 27       		.uleb128 0x27
 8620 0115 19       		.uleb128 0x19
 8621 0116 49       		.uleb128 0x49
 8622 0117 13       		.uleb128 0x13
 8623 0118 01       		.uleb128 0x1
 8624 0119 13       		.uleb128 0x13
 8625 011a 00       		.byte	0
 8626 011b 00       		.byte	0
 8627 011c 19       		.uleb128 0x19
 8628 011d 05       		.uleb128 0x5
 8629 011e 00       		.byte	0
 8630 011f 49       		.uleb128 0x49
 8631 0120 13       		.uleb128 0x13
 8632 0121 00       		.byte	0
 8633 0122 00       		.byte	0
 8634 0123 1A       		.uleb128 0x1a
 8635 0124 13       		.uleb128 0x13
 8636 0125 01       		.byte	0x1
 8637 0126 03       		.uleb128 0x3
 8638 0127 0E       		.uleb128 0xe
 8639 0128 0B       		.uleb128 0xb
 8640 0129 05       		.uleb128 0x5
 8641 012a 3A       		.uleb128 0x3a
 8642 012b 0B       		.uleb128 0xb
 8643 012c 3B       		.uleb128 0x3b
 8644 012d 05       		.uleb128 0x5
 8645 012e 01       		.uleb128 0x1
 8646 012f 13       		.uleb128 0x13
 8647 0130 00       		.byte	0
 8648 0131 00       		.byte	0
 8649 0132 1B       		.uleb128 0x1b
 8650 0133 0D       		.uleb128 0xd
 8651 0134 00       		.byte	0
 8652 0135 03       		.uleb128 0x3
 8653 0136 0E       		.uleb128 0xe
 8654 0137 3A       		.uleb128 0x3a
 8655 0138 0B       		.uleb128 0xb
 8656 0139 3B       		.uleb128 0x3b
 8657 013a 05       		.uleb128 0x5
 8658 013b 49       		.uleb128 0x49
 8659 013c 13       		.uleb128 0x13
 8660 013d 38       		.uleb128 0x38
 8661 013e 0B       		.uleb128 0xb
 8662 013f 00       		.byte	0
 8663 0140 00       		.byte	0
 8664 0141 1C       		.uleb128 0x1c
 8665 0142 0D       		.uleb128 0xd
 8666 0143 00       		.byte	0
 8667 0144 03       		.uleb128 0x3
 8668 0145 0E       		.uleb128 0xe
ARM GAS  C:\Users\PCHAUT~1\AppData\Local\Temp\ccvICu2w.s 			page 156


 8669 0146 3A       		.uleb128 0x3a
 8670 0147 0B       		.uleb128 0xb
 8671 0148 3B       		.uleb128 0x3b
 8672 0149 05       		.uleb128 0x5
 8673 014a 49       		.uleb128 0x49
 8674 014b 13       		.uleb128 0x13
 8675 014c 38       		.uleb128 0x38
 8676 014d 05       		.uleb128 0x5
 8677 014e 00       		.byte	0
 8678 014f 00       		.byte	0
 8679 0150 1D       		.uleb128 0x1d
 8680 0151 13       		.uleb128 0x13
 8681 0152 01       		.byte	0x1
 8682 0153 03       		.uleb128 0x3
 8683 0154 0E       		.uleb128 0xe
 8684 0155 0B       		.uleb128 0xb
 8685 0156 0B       		.uleb128 0xb
 8686 0157 3A       		.uleb128 0x3a
 8687 0158 0B       		.uleb128 0xb
 8688 0159 3B       		.uleb128 0x3b
 8689 015a 05       		.uleb128 0x5
 8690 015b 01       		.uleb128 0x1
 8691 015c 13       		.uleb128 0x13
 8692 015d 00       		.byte	0
 8693 015e 00       		.byte	0
 8694 015f 1E       		.uleb128 0x1e
 8695 0160 13       		.uleb128 0x13
 8696 0161 01       		.byte	0x1
 8697 0162 0B       		.uleb128 0xb
 8698 0163 0B       		.uleb128 0xb
 8699 0164 3A       		.uleb128 0x3a
 8700 0165 0B       		.uleb128 0xb
 8701 0166 3B       		.uleb128 0x3b
 8702 0167 05       		.uleb128 0x5
 8703 0168 01       		.uleb128 0x1
 8704 0169 13       		.uleb128 0x13
 8705 016a 00       		.byte	0
 8706 016b 00       		.byte	0
 8707 016c 1F       		.uleb128 0x1f
 8708 016d 17       		.uleb128 0x17
 8709 016e 01       		.byte	0x1
 8710 016f 0B       		.uleb128 0xb
 8711 0170 0B       		.uleb128 0xb
 8712 0171 3A       		.uleb128 0x3a
 8713 0172 0B       		.uleb128 0xb
 8714 0173 3B       		.uleb128 0x3b
 8715 0174 05       		.uleb128 0x5
 8716 0175 01       		.uleb128 0x1
 8717 0176 13       		.uleb128 0x13
 8718 0177 00       		.byte	0
 8719 0178 00       		.byte	0
 8720 0179 20       		.uleb128 0x20
 8721 017a 0D       		.uleb128 0xd
 8722 017b 00       		.byte	0
 8723 017c 03       		.uleb128 0x3
 8724 017d 0E       		.uleb128 0xe
 8725 017e 3A       		.uleb128 0x3a
ARM GAS  C:\Users\PCHAUT~1\AppData\Local\Temp\ccvICu2w.s 			page 157


 8726 017f 0B       		.uleb128 0xb
 8727 0180 3B       		.uleb128 0x3b
 8728 0181 05       		.uleb128 0x5
 8729 0182 49       		.uleb128 0x49
 8730 0183 13       		.uleb128 0x13
 8731 0184 00       		.byte	0
 8732 0185 00       		.byte	0
 8733 0186 21       		.uleb128 0x21
 8734 0187 15       		.uleb128 0x15
 8735 0188 01       		.byte	0x1
 8736 0189 27       		.uleb128 0x27
 8737 018a 19       		.uleb128 0x19
 8738 018b 01       		.uleb128 0x1
 8739 018c 13       		.uleb128 0x13
 8740 018d 00       		.byte	0
 8741 018e 00       		.byte	0
 8742 018f 22       		.uleb128 0x22
 8743 0190 34       		.uleb128 0x34
 8744 0191 00       		.byte	0
 8745 0192 03       		.uleb128 0x3
 8746 0193 0E       		.uleb128 0xe
 8747 0194 3A       		.uleb128 0x3a
 8748 0195 0B       		.uleb128 0xb
 8749 0196 3B       		.uleb128 0x3b
 8750 0197 05       		.uleb128 0x5
 8751 0198 49       		.uleb128 0x49
 8752 0199 13       		.uleb128 0x13
 8753 019a 3F       		.uleb128 0x3f
 8754 019b 19       		.uleb128 0x19
 8755 019c 3C       		.uleb128 0x3c
 8756 019d 19       		.uleb128 0x19
 8757 019e 00       		.byte	0
 8758 019f 00       		.byte	0
 8759 01a0 23       		.uleb128 0x23
 8760 01a1 34       		.uleb128 0x34
 8761 01a2 00       		.byte	0
 8762 01a3 03       		.uleb128 0x3
 8763 01a4 0E       		.uleb128 0xe
 8764 01a5 3A       		.uleb128 0x3a
 8765 01a6 0B       		.uleb128 0xb
 8766 01a7 3B       		.uleb128 0x3b
 8767 01a8 0B       		.uleb128 0xb
 8768 01a9 49       		.uleb128 0x49
 8769 01aa 13       		.uleb128 0x13
 8770 01ab 3F       		.uleb128 0x3f
 8771 01ac 19       		.uleb128 0x19
 8772 01ad 3C       		.uleb128 0x3c
 8773 01ae 19       		.uleb128 0x19
 8774 01af 00       		.byte	0
 8775 01b0 00       		.byte	0
 8776 01b1 24       		.uleb128 0x24
 8777 01b2 21       		.uleb128 0x21
 8778 01b3 00       		.byte	0
 8779 01b4 49       		.uleb128 0x49
 8780 01b5 13       		.uleb128 0x13
 8781 01b6 00       		.byte	0
 8782 01b7 00       		.byte	0
ARM GAS  C:\Users\PCHAUT~1\AppData\Local\Temp\ccvICu2w.s 			page 158


 8783 01b8 25       		.uleb128 0x25
 8784 01b9 34       		.uleb128 0x34
 8785 01ba 00       		.byte	0
 8786 01bb 03       		.uleb128 0x3
 8787 01bc 0E       		.uleb128 0xe
 8788 01bd 3A       		.uleb128 0x3a
 8789 01be 0B       		.uleb128 0xb
 8790 01bf 3B       		.uleb128 0x3b
 8791 01c0 0B       		.uleb128 0xb
 8792 01c1 49       		.uleb128 0x49
 8793 01c2 13       		.uleb128 0x13
 8794 01c3 02       		.uleb128 0x2
 8795 01c4 18       		.uleb128 0x18
 8796 01c5 00       		.byte	0
 8797 01c6 00       		.byte	0
 8798 01c7 26       		.uleb128 0x26
 8799 01c8 34       		.uleb128 0x34
 8800 01c9 00       		.byte	0
 8801 01ca 47       		.uleb128 0x47
 8802 01cb 13       		.uleb128 0x13
 8803 01cc 3A       		.uleb128 0x3a
 8804 01cd 0B       		.uleb128 0xb
 8805 01ce 3B       		.uleb128 0x3b
 8806 01cf 05       		.uleb128 0x5
 8807 01d0 02       		.uleb128 0x2
 8808 01d1 18       		.uleb128 0x18
 8809 01d2 00       		.byte	0
 8810 01d3 00       		.byte	0
 8811 01d4 27       		.uleb128 0x27
 8812 01d5 34       		.uleb128 0x34
 8813 01d6 00       		.byte	0
 8814 01d7 03       		.uleb128 0x3
 8815 01d8 0E       		.uleb128 0xe
 8816 01d9 3A       		.uleb128 0x3a
 8817 01da 0B       		.uleb128 0xb
 8818 01db 3B       		.uleb128 0x3b
 8819 01dc 05       		.uleb128 0x5
 8820 01dd 49       		.uleb128 0x49
 8821 01de 13       		.uleb128 0x13
 8822 01df 02       		.uleb128 0x2
 8823 01e0 18       		.uleb128 0x18
 8824 01e1 00       		.byte	0
 8825 01e2 00       		.byte	0
 8826 01e3 28       		.uleb128 0x28
 8827 01e4 2E       		.uleb128 0x2e
 8828 01e5 01       		.byte	0x1
 8829 01e6 3F       		.uleb128 0x3f
 8830 01e7 19       		.uleb128 0x19
 8831 01e8 03       		.uleb128 0x3
 8832 01e9 0E       		.uleb128 0xe
 8833 01ea 3A       		.uleb128 0x3a
 8834 01eb 0B       		.uleb128 0xb
 8835 01ec 3B       		.uleb128 0x3b
 8836 01ed 05       		.uleb128 0x5
 8837 01ee 27       		.uleb128 0x27
 8838 01ef 19       		.uleb128 0x19
 8839 01f0 11       		.uleb128 0x11
ARM GAS  C:\Users\PCHAUT~1\AppData\Local\Temp\ccvICu2w.s 			page 159


 8840 01f1 01       		.uleb128 0x1
 8841 01f2 12       		.uleb128 0x12
 8842 01f3 06       		.uleb128 0x6
 8843 01f4 40       		.uleb128 0x40
 8844 01f5 18       		.uleb128 0x18
 8845 01f6 9642     		.uleb128 0x2116
 8846 01f8 19       		.uleb128 0x19
 8847 01f9 01       		.uleb128 0x1
 8848 01fa 13       		.uleb128 0x13
 8849 01fb 00       		.byte	0
 8850 01fc 00       		.byte	0
 8851 01fd 29       		.uleb128 0x29
 8852 01fe 05       		.uleb128 0x5
 8853 01ff 00       		.byte	0
 8854 0200 03       		.uleb128 0x3
 8855 0201 08       		.uleb128 0x8
 8856 0202 3A       		.uleb128 0x3a
 8857 0203 0B       		.uleb128 0xb
 8858 0204 3B       		.uleb128 0x3b
 8859 0205 05       		.uleb128 0x5
 8860 0206 49       		.uleb128 0x49
 8861 0207 13       		.uleb128 0x13
 8862 0208 02       		.uleb128 0x2
 8863 0209 18       		.uleb128 0x18
 8864 020a 00       		.byte	0
 8865 020b 00       		.byte	0
 8866 020c 2A       		.uleb128 0x2a
 8867 020d 34       		.uleb128 0x34
 8868 020e 00       		.byte	0
 8869 020f 03       		.uleb128 0x3
 8870 0210 08       		.uleb128 0x8
 8871 0211 3A       		.uleb128 0x3a
 8872 0212 0B       		.uleb128 0xb
 8873 0213 3B       		.uleb128 0x3b
 8874 0214 05       		.uleb128 0x5
 8875 0215 49       		.uleb128 0x49
 8876 0216 13       		.uleb128 0x13
 8877 0217 02       		.uleb128 0x2
 8878 0218 18       		.uleb128 0x18
 8879 0219 00       		.byte	0
 8880 021a 00       		.byte	0
 8881 021b 2B       		.uleb128 0x2b
 8882 021c 2E       		.uleb128 0x2e
 8883 021d 00       		.byte	0
 8884 021e 3F       		.uleb128 0x3f
 8885 021f 19       		.uleb128 0x19
 8886 0220 03       		.uleb128 0x3
 8887 0221 0E       		.uleb128 0xe
 8888 0222 3A       		.uleb128 0x3a
 8889 0223 0B       		.uleb128 0xb
 8890 0224 3B       		.uleb128 0x3b
 8891 0225 05       		.uleb128 0x5
 8892 0226 27       		.uleb128 0x27
 8893 0227 19       		.uleb128 0x19
 8894 0228 49       		.uleb128 0x49
 8895 0229 13       		.uleb128 0x13
 8896 022a 11       		.uleb128 0x11
ARM GAS  C:\Users\PCHAUT~1\AppData\Local\Temp\ccvICu2w.s 			page 160


 8897 022b 01       		.uleb128 0x1
 8898 022c 12       		.uleb128 0x12
 8899 022d 06       		.uleb128 0x6
 8900 022e 40       		.uleb128 0x40
 8901 022f 18       		.uleb128 0x18
 8902 0230 9642     		.uleb128 0x2116
 8903 0232 19       		.uleb128 0x19
 8904 0233 00       		.byte	0
 8905 0234 00       		.byte	0
 8906 0235 2C       		.uleb128 0x2c
 8907 0236 05       		.uleb128 0x5
 8908 0237 00       		.byte	0
 8909 0238 03       		.uleb128 0x3
 8910 0239 0E       		.uleb128 0xe
 8911 023a 3A       		.uleb128 0x3a
 8912 023b 0B       		.uleb128 0xb
 8913 023c 3B       		.uleb128 0x3b
 8914 023d 05       		.uleb128 0x5
 8915 023e 49       		.uleb128 0x49
 8916 023f 13       		.uleb128 0x13
 8917 0240 02       		.uleb128 0x2
 8918 0241 18       		.uleb128 0x18
 8919 0242 00       		.byte	0
 8920 0243 00       		.byte	0
 8921 0244 2D       		.uleb128 0x2d
 8922 0245 0A       		.uleb128 0xa
 8923 0246 00       		.byte	0
 8924 0247 03       		.uleb128 0x3
 8925 0248 0E       		.uleb128 0xe
 8926 0249 3A       		.uleb128 0x3a
 8927 024a 0B       		.uleb128 0xb
 8928 024b 3B       		.uleb128 0x3b
 8929 024c 05       		.uleb128 0x5
 8930 024d 11       		.uleb128 0x11
 8931 024e 01       		.uleb128 0x1
 8932 024f 00       		.byte	0
 8933 0250 00       		.byte	0
 8934 0251 2E       		.uleb128 0x2e
 8935 0252 0B       		.uleb128 0xb
 8936 0253 01       		.byte	0x1
 8937 0254 55       		.uleb128 0x55
 8938 0255 17       		.uleb128 0x17
 8939 0256 00       		.byte	0
 8940 0257 00       		.byte	0
 8941 0258 2F       		.uleb128 0x2f
 8942 0259 0B       		.uleb128 0xb
 8943 025a 01       		.byte	0x1
 8944 025b 11       		.uleb128 0x11
 8945 025c 01       		.uleb128 0x1
 8946 025d 12       		.uleb128 0x12
 8947 025e 06       		.uleb128 0x6
 8948 025f 00       		.byte	0
 8949 0260 00       		.byte	0
 8950 0261 30       		.uleb128 0x30
 8951 0262 2E       		.uleb128 0x2e
 8952 0263 01       		.byte	0x1
 8953 0264 3F       		.uleb128 0x3f
ARM GAS  C:\Users\PCHAUT~1\AppData\Local\Temp\ccvICu2w.s 			page 161


 8954 0265 19       		.uleb128 0x19
 8955 0266 03       		.uleb128 0x3
 8956 0267 0E       		.uleb128 0xe
 8957 0268 3A       		.uleb128 0x3a
 8958 0269 0B       		.uleb128 0xb
 8959 026a 3B       		.uleb128 0x3b
 8960 026b 0B       		.uleb128 0xb
 8961 026c 27       		.uleb128 0x27
 8962 026d 19       		.uleb128 0x19
 8963 026e 11       		.uleb128 0x11
 8964 026f 01       		.uleb128 0x1
 8965 0270 12       		.uleb128 0x12
 8966 0271 06       		.uleb128 0x6
 8967 0272 40       		.uleb128 0x40
 8968 0273 18       		.uleb128 0x18
 8969 0274 9642     		.uleb128 0x2116
 8970 0276 19       		.uleb128 0x19
 8971 0277 01       		.uleb128 0x1
 8972 0278 13       		.uleb128 0x13
 8973 0279 00       		.byte	0
 8974 027a 00       		.byte	0
 8975 027b 31       		.uleb128 0x31
 8976 027c 05       		.uleb128 0x5
 8977 027d 00       		.byte	0
 8978 027e 03       		.uleb128 0x3
 8979 027f 0E       		.uleb128 0xe
 8980 0280 3A       		.uleb128 0x3a
 8981 0281 0B       		.uleb128 0xb
 8982 0282 3B       		.uleb128 0x3b
 8983 0283 0B       		.uleb128 0xb
 8984 0284 49       		.uleb128 0x49
 8985 0285 13       		.uleb128 0x13
 8986 0286 02       		.uleb128 0x2
 8987 0287 18       		.uleb128 0x18
 8988 0288 00       		.byte	0
 8989 0289 00       		.byte	0
 8990 028a 32       		.uleb128 0x32
 8991 028b 34       		.uleb128 0x34
 8992 028c 00       		.byte	0
 8993 028d 03       		.uleb128 0x3
 8994 028e 08       		.uleb128 0x8
 8995 028f 3A       		.uleb128 0x3a
 8996 0290 0B       		.uleb128 0xb
 8997 0291 3B       		.uleb128 0x3b
 8998 0292 0B       		.uleb128 0xb
 8999 0293 49       		.uleb128 0x49
 9000 0294 13       		.uleb128 0x13
 9001 0295 02       		.uleb128 0x2
 9002 0296 18       		.uleb128 0x18
 9003 0297 00       		.byte	0
 9004 0298 00       		.byte	0
 9005 0299 33       		.uleb128 0x33
 9006 029a 2E       		.uleb128 0x2e
 9007 029b 01       		.byte	0x1
 9008 029c 3F       		.uleb128 0x3f
 9009 029d 19       		.uleb128 0x19
 9010 029e 03       		.uleb128 0x3
ARM GAS  C:\Users\PCHAUT~1\AppData\Local\Temp\ccvICu2w.s 			page 162


 9011 029f 0E       		.uleb128 0xe
 9012 02a0 3A       		.uleb128 0x3a
 9013 02a1 0B       		.uleb128 0xb
 9014 02a2 3B       		.uleb128 0x3b
 9015 02a3 0B       		.uleb128 0xb
 9016 02a4 27       		.uleb128 0x27
 9017 02a5 19       		.uleb128 0x19
 9018 02a6 49       		.uleb128 0x49
 9019 02a7 13       		.uleb128 0x13
 9020 02a8 11       		.uleb128 0x11
 9021 02a9 01       		.uleb128 0x1
 9022 02aa 12       		.uleb128 0x12
 9023 02ab 06       		.uleb128 0x6
 9024 02ac 40       		.uleb128 0x40
 9025 02ad 18       		.uleb128 0x18
 9026 02ae 9642     		.uleb128 0x2116
 9027 02b0 19       		.uleb128 0x19
 9028 02b1 01       		.uleb128 0x1
 9029 02b2 13       		.uleb128 0x13
 9030 02b3 00       		.byte	0
 9031 02b4 00       		.byte	0
 9032 02b5 34       		.uleb128 0x34
 9033 02b6 05       		.uleb128 0x5
 9034 02b7 00       		.byte	0
 9035 02b8 03       		.uleb128 0x3
 9036 02b9 08       		.uleb128 0x8
 9037 02ba 3A       		.uleb128 0x3a
 9038 02bb 0B       		.uleb128 0xb
 9039 02bc 3B       		.uleb128 0x3b
 9040 02bd 0B       		.uleb128 0xb
 9041 02be 49       		.uleb128 0x49
 9042 02bf 13       		.uleb128 0x13
 9043 02c0 02       		.uleb128 0x2
 9044 02c1 18       		.uleb128 0x18
 9045 02c2 00       		.byte	0
 9046 02c3 00       		.byte	0
 9047 02c4 35       		.uleb128 0x35
 9048 02c5 2E       		.uleb128 0x2e
 9049 02c6 01       		.byte	0x1
 9050 02c7 03       		.uleb128 0x3
 9051 02c8 0E       		.uleb128 0xe
 9052 02c9 3A       		.uleb128 0x3a
 9053 02ca 0B       		.uleb128 0xb
 9054 02cb 3B       		.uleb128 0x3b
 9055 02cc 0B       		.uleb128 0xb
 9056 02cd 27       		.uleb128 0x27
 9057 02ce 19       		.uleb128 0x19
 9058 02cf 49       		.uleb128 0x49
 9059 02d0 13       		.uleb128 0x13
 9060 02d1 11       		.uleb128 0x11
 9061 02d2 01       		.uleb128 0x1
 9062 02d3 12       		.uleb128 0x12
 9063 02d4 06       		.uleb128 0x6
 9064 02d5 40       		.uleb128 0x40
 9065 02d6 18       		.uleb128 0x18
 9066 02d7 9642     		.uleb128 0x2116
 9067 02d9 19       		.uleb128 0x19
ARM GAS  C:\Users\PCHAUT~1\AppData\Local\Temp\ccvICu2w.s 			page 163


 9068 02da 00       		.byte	0
 9069 02db 00       		.byte	0
 9070 02dc 00       		.byte	0
 9071              		.section	.debug_aranges,"",%progbits
 9072 0000 04010000 		.4byte	0x104
 9073 0004 0200     		.2byte	0x2
 9074 0006 00000000 		.4byte	.Ldebug_info0
 9075 000a 04       		.byte	0x4
 9076 000b 00       		.byte	0
 9077 000c 0000     		.2byte	0
 9078 000e 0000     		.2byte	0
 9079 0010 00000000 		.4byte	.LFB0
 9080 0014 48000000 		.4byte	.LFE0-.LFB0
 9081 0018 00000000 		.4byte	.LFB1
 9082 001c B0010000 		.4byte	.LFE1-.LFB1
 9083 0020 00000000 		.4byte	.LFB2
 9084 0024 1C010000 		.4byte	.LFE2-.LFB2
 9085 0028 00000000 		.4byte	.LFB3
 9086 002c 40000000 		.4byte	.LFE3-.LFB3
 9087 0030 00000000 		.4byte	.LFB4
 9088 0034 BC000000 		.4byte	.LFE4-.LFB4
 9089 0038 00000000 		.4byte	.LFB5
 9090 003c 0C010000 		.4byte	.LFE5-.LFB5
 9091 0040 00000000 		.4byte	.LFB6
 9092 0044 94000000 		.4byte	.LFE6-.LFB6
 9093 0048 00000000 		.4byte	.LFB7
 9094 004c 8C000000 		.4byte	.LFE7-.LFB7
 9095 0050 00000000 		.4byte	.LFB8
 9096 0054 BC000000 		.4byte	.LFE8-.LFB8
 9097 0058 00000000 		.4byte	.LFB9
 9098 005c C0000000 		.4byte	.LFE9-.LFB9
 9099 0060 00000000 		.4byte	.LFB10
 9100 0064 C0000000 		.4byte	.LFE10-.LFB10
 9101 0068 00000000 		.4byte	.LFB11
 9102 006c C0000000 		.4byte	.LFE11-.LFB11
 9103 0070 00000000 		.4byte	.LFB12
 9104 0074 E4000000 		.4byte	.LFE12-.LFB12
 9105 0078 00000000 		.4byte	.LFB13
 9106 007c D0000000 		.4byte	.LFE13-.LFB13
 9107 0080 00000000 		.4byte	.LFB14
 9108 0084 D0000000 		.4byte	.LFE14-.LFB14
 9109 0088 00000000 		.4byte	.LFB15
 9110 008c 08010000 		.4byte	.LFE15-.LFB15
 9111 0090 00000000 		.4byte	.LFB16
 9112 0094 FC000000 		.4byte	.LFE16-.LFB16
 9113 0098 00000000 		.4byte	.LFB17
 9114 009c 5C010000 		.4byte	.LFE17-.LFB17
 9115 00a0 00000000 		.4byte	.LFB18
 9116 00a4 F0000000 		.4byte	.LFE18-.LFB18
 9117 00a8 00000000 		.4byte	.LFB19
 9118 00ac 58000000 		.4byte	.LFE19-.LFB19
 9119 00b0 00000000 		.4byte	.LFB20
 9120 00b4 0C010000 		.4byte	.LFE20-.LFB20
 9121 00b8 00000000 		.4byte	.LFB21
 9122 00bc D4000000 		.4byte	.LFE21-.LFB21
 9123 00c0 00000000 		.4byte	.LFB22
 9124 00c4 A4000000 		.4byte	.LFE22-.LFB22
ARM GAS  C:\Users\PCHAUT~1\AppData\Local\Temp\ccvICu2w.s 			page 164


 9125 00c8 00000000 		.4byte	.LFB23
 9126 00cc A4000000 		.4byte	.LFE23-.LFB23
 9127 00d0 00000000 		.4byte	.LFB24
 9128 00d4 08010000 		.4byte	.LFE24-.LFB24
 9129 00d8 00000000 		.4byte	.LFB25
 9130 00dc A4000000 		.4byte	.LFE25-.LFB25
 9131 00e0 00000000 		.4byte	.LFB26
 9132 00e4 90020000 		.4byte	.LFE26-.LFB26
 9133 00e8 00000000 		.4byte	.LFB27
 9134 00ec 38000000 		.4byte	.LFE27-.LFB27
 9135 00f0 00000000 		.4byte	.LFB28
 9136 00f4 58000000 		.4byte	.LFE28-.LFB28
 9137 00f8 00000000 		.4byte	.LFB29
 9138 00fc 7C000000 		.4byte	.LFE29-.LFB29
 9139 0100 00000000 		.4byte	0
 9140 0104 00000000 		.4byte	0
 9141              		.section	.debug_ranges,"",%progbits
 9142              	.Ldebug_ranges0:
 9143 0000 D4000000 		.4byte	.LBB17
 9144 0004 FC000000 		.4byte	.LBE17
 9145 0008 FE000000 		.4byte	.LBB18
 9146 000c 1C010000 		.4byte	.LBE18
 9147 0010 00000000 		.4byte	0
 9148 0014 00000000 		.4byte	0
 9149 0018 00000000 		.4byte	.LFB0
 9150 001c 48000000 		.4byte	.LFE0
 9151 0020 00000000 		.4byte	.LFB1
 9152 0024 B0010000 		.4byte	.LFE1
 9153 0028 00000000 		.4byte	.LFB2
 9154 002c 1C010000 		.4byte	.LFE2
 9155 0030 00000000 		.4byte	.LFB3
 9156 0034 40000000 		.4byte	.LFE3
 9157 0038 00000000 		.4byte	.LFB4
 9158 003c BC000000 		.4byte	.LFE4
 9159 0040 00000000 		.4byte	.LFB5
 9160 0044 0C010000 		.4byte	.LFE5
 9161 0048 00000000 		.4byte	.LFB6
 9162 004c 94000000 		.4byte	.LFE6
 9163 0050 00000000 		.4byte	.LFB7
 9164 0054 8C000000 		.4byte	.LFE7
 9165 0058 00000000 		.4byte	.LFB8
 9166 005c BC000000 		.4byte	.LFE8
 9167 0060 00000000 		.4byte	.LFB9
 9168 0064 C0000000 		.4byte	.LFE9
 9169 0068 00000000 		.4byte	.LFB10
 9170 006c C0000000 		.4byte	.LFE10
 9171 0070 00000000 		.4byte	.LFB11
 9172 0074 C0000000 		.4byte	.LFE11
 9173 0078 00000000 		.4byte	.LFB12
 9174 007c E4000000 		.4byte	.LFE12
 9175 0080 00000000 		.4byte	.LFB13
 9176 0084 D0000000 		.4byte	.LFE13
 9177 0088 00000000 		.4byte	.LFB14
 9178 008c D0000000 		.4byte	.LFE14
 9179 0090 00000000 		.4byte	.LFB15
 9180 0094 08010000 		.4byte	.LFE15
 9181 0098 00000000 		.4byte	.LFB16
ARM GAS  C:\Users\PCHAUT~1\AppData\Local\Temp\ccvICu2w.s 			page 165


 9182 009c FC000000 		.4byte	.LFE16
 9183 00a0 00000000 		.4byte	.LFB17
 9184 00a4 5C010000 		.4byte	.LFE17
 9185 00a8 00000000 		.4byte	.LFB18
 9186 00ac F0000000 		.4byte	.LFE18
 9187 00b0 00000000 		.4byte	.LFB19
 9188 00b4 58000000 		.4byte	.LFE19
 9189 00b8 00000000 		.4byte	.LFB20
 9190 00bc 0C010000 		.4byte	.LFE20
 9191 00c0 00000000 		.4byte	.LFB21
 9192 00c4 D4000000 		.4byte	.LFE21
 9193 00c8 00000000 		.4byte	.LFB22
 9194 00cc A4000000 		.4byte	.LFE22
 9195 00d0 00000000 		.4byte	.LFB23
 9196 00d4 A4000000 		.4byte	.LFE23
 9197 00d8 00000000 		.4byte	.LFB24
 9198 00dc 08010000 		.4byte	.LFE24
 9199 00e0 00000000 		.4byte	.LFB25
 9200 00e4 A4000000 		.4byte	.LFE25
 9201 00e8 00000000 		.4byte	.LFB26
 9202 00ec 90020000 		.4byte	.LFE26
 9203 00f0 00000000 		.4byte	.LFB27
 9204 00f4 38000000 		.4byte	.LFE27
 9205 00f8 00000000 		.4byte	.LFB28
 9206 00fc 58000000 		.4byte	.LFE28
 9207 0100 00000000 		.4byte	.LFB29
 9208 0104 7C000000 		.4byte	.LFE29
 9209 0108 00000000 		.4byte	0
 9210 010c 00000000 		.4byte	0
 9211              		.section	.debug_line,"",%progbits
 9212              	.Ldebug_line0:
 9213 0000 BE070000 		.section	.debug_str,"MS",%progbits,1
 9213      02006602 
 9213      00000201 
 9213      FB0E0D00 
 9213      01010101 
 9214              	.LASF181:
 9215 0000 6E616D65 		.ascii	"name\000"
 9215      00
 9216              	.LASF243:
 9217 0005 41736562 		.ascii	"AsebaNative_vecargbounds\000"
 9217      614E6174 
 9217      6976655F 
 9217      76656361 
 9217      7267626F 
 9218              	.LASF249:
 9219 001e 73726331 		.ascii	"src1\000"
 9219      00
 9220              	.LASF94:
 9221 0023 5F636F6F 		.ascii	"_cookie\000"
 9221      6B696500 
 9222              	.LASF184:
 9223 002b 41736562 		.ascii	"AsebaNativeFunctionDescription\000"
 9223      614E6174 
 9223      69766546 
 9223      756E6374 
 9223      696F6E44 
ARM GAS  C:\Users\PCHAUT~1\AppData\Local\Temp\ccvICu2w.s 			page 166


 9224              	.LASF79:
 9225 004a 5F6F6E5F 		.ascii	"_on_exit_args\000"
 9225      65786974 
 9225      5F617267 
 9225      7300
 9226              	.LASF242:
 9227 0058 41736562 		.ascii	"AsebaNative_vecsort\000"
 9227      614E6174 
 9227      6976655F 
 9227      76656373 
 9227      6F727400 
 9228              	.LASF146:
 9229 006c 5F776374 		.ascii	"_wctomb_state\000"
 9229      6F6D625F 
 9229      73746174 
 9229      6500
 9230              	.LASF204:
 9231 007a 41736562 		.ascii	"AsebaNativeDescription_mathsqrt\000"
 9231      614E6174 
 9231      69766544 
 9231      65736372 
 9231      69707469 
 9232              	.LASF176:
 9233 009a 666C6167 		.ascii	"flags\000"
 9233      7300
 9234              	.LASF172:
 9235 00a0 76617269 		.ascii	"variablesSize\000"
 9235      61626C65 
 9235      7353697A 
 9235      6500
 9236              	.LASF143:
 9237 00ae 5F723438 		.ascii	"_r48\000"
 9237      00
 9238              	.LASF228:
 9239 00b3 41736562 		.ascii	"AsebaNative_mathrot2\000"
 9239      614E6174 
 9239      6976655F 
 9239      6D617468 
 9239      726F7432 
 9240              	.LASF240:
 9241 00c8 62496E64 		.ascii	"bIndex\000"
 9241      657800
 9242              	.LASF43:
 9243 00cf 41534542 		.ascii	"ASEBA_MESSAGE_INVALID\000"
 9243      415F4D45 
 9243      53534147 
 9243      455F494E 
 9243      56414C49 
 9244              	.LASF35:
 9245 00e5 41534542 		.ascii	"ASEBA_MESSAGE_BREAKPOINT_CLEAR_ALL\000"
 9245      415F4D45 
 9245      53534147 
 9245      455F4252 
 9245      45414B50 
 9246              	.LASF148:
 9247 0108 5F736967 		.ascii	"_signal_buf\000"
 9247      6E616C5F 
ARM GAS  C:\Users\PCHAUT~1\AppData\Local\Temp\ccvICu2w.s 			page 167


 9247      62756600 
 9248              	.LASF44:
 9249 0114 756E7369 		.ascii	"unsigned int\000"
 9249      676E6564 
 9249      20696E74 
 9249      00
 9250              	.LASF231:
 9251 0121 616E676C 		.ascii	"angleIndex\000"
 9251      65496E64 
 9251      657800
 9252              	.LASF178:
 9253 012c 62726561 		.ascii	"breakpointsCount\000"
 9253      6B706F69 
 9253      6E747343 
 9253      6F756E74 
 9253      00
 9254              	.LASF8:
 9255 013d 41534542 		.ascii	"ASEBA_MESSAGE_BOOTLOADER_PAGE_DATA_WRITE\000"
 9255      415F4D45 
 9255      53534147 
 9255      455F424F 
 9255      4F544C4F 
 9256              	.LASF93:
 9257 0166 5F6C6266 		.ascii	"_lbfsize\000"
 9257      73697A65 
 9257      00
 9258              	.LASF91:
 9259 016f 5F666C61 		.ascii	"_flags\000"
 9259      677300
 9260              	.LASF220:
 9261 0176 696E6465 		.ascii	"index\000"
 9261      7800
 9262              	.LASF26:
 9263 017c 41534542 		.ascii	"ASEBA_MESSAGE_SET_BYTECODE\000"
 9263      415F4D45 
 9263      53534147 
 9263      455F5345 
 9263      545F4259 
 9264              	.LASF108:
 9265 0197 5F657272 		.ascii	"_errno\000"
 9265      6E6F00
 9266              	.LASF21:
 9267 019e 41534542 		.ascii	"ASEBA_MESSAGE_NODE_SPECIFIC_ERROR\000"
 9267      415F4D45 
 9267      53534147 
 9267      455F4E4F 
 9267      44455F53 
 9268              	.LASF42:
 9269 01c0 41534542 		.ascii	"ASEBA_MESSAGE_LIST_NODES\000"
 9269      415F4D45 
 9269      53534147 
 9269      455F4C49 
 9269      53545F4E 
 9270              	.LASF199:
 9271 01d9 41736562 		.ascii	"AsebaNativeDescription_mathmuldiv\000"
 9271      614E6174 
 9271      69766544 
ARM GAS  C:\Users\PCHAUT~1\AppData\Local\Temp\ccvICu2w.s 			page 168


 9271      65736372 
 9271      69707469 
 9272              	.LASF12:
 9273 01fb 41534542 		.ascii	"ASEBA_MESSAGE_DESCRIPTION\000"
 9273      415F4D45 
 9273      53534147 
 9273      455F4445 
 9273      53435249 
 9274              	.LASF179:
 9275 0215 41736562 		.ascii	"AsebaVMState\000"
 9275      61564D53 
 9275      74617465 
 9275      00
 9276              	.LASF23:
 9277 0222 41534542 		.ascii	"ASEBA_MESSAGE_BREAKPOINT_SET_RESULT\000"
 9277      415F4D45 
 9277      53534147 
 9277      455F4252 
 9277      45414B50 
 9278              	.LASF1:
 9279 0246 41534542 		.ascii	"ASEBA_VM_STEP_BY_STEP_MASK\000"
 9279      415F564D 
 9279      5F535445 
 9279      505F4259 
 9279      5F535445 
 9280              	.LASF105:
 9281 0261 5F6D6273 		.ascii	"_mbstate\000"
 9281      74617465 
 9281      00
 9282              	.LASF222:
 9283 026a 62657374 		.ascii	"bestSeqLength\000"
 9283      5365714C 
 9283      656E6774 
 9283      6800
 9284              	.LASF264:
 9285 0278 7363616C 		.ascii	"scalarValue\000"
 9285      61725661 
 9285      6C756500 
 9286              	.LASF32:
 9287 0284 41534542 		.ascii	"ASEBA_MESSAGE_GET_EXECUTION_STATE\000"
 9287      415F4D45 
 9287      53534147 
 9287      455F4745 
 9287      545F4558 
 9288              	.LASF13:
 9289 02a6 41534542 		.ascii	"ASEBA_MESSAGE_NAMED_VARIABLE_DESCRIPTION\000"
 9289      415F4D45 
 9289      53534147 
 9289      455F4E41 
 9289      4D45445F 
 9290              	.LASF14:
 9291 02cf 41534542 		.ascii	"ASEBA_MESSAGE_LOCAL_EVENT_DESCRIPTION\000"
 9291      415F4D45 
 9291      53534147 
 9291      455F4C4F 
 9291      43414C5F 
 9292              	.LASF169:
ARM GAS  C:\Users\PCHAUT~1\AppData\Local\Temp\ccvICu2w.s 			page 169


 9293 02f5 6E6F6465 		.ascii	"nodeId\000"
 9293      496400
 9294              	.LASF201:
 9295 02fc 41736562 		.ascii	"AsebaNativeDescription_mathsin\000"
 9295      614E6174 
 9295      69766544 
 9295      65736372 
 9295      69707469 
 9296              	.LASF282:
 9297 031b 73756270 		.ascii	"subprecision_rest\000"
 9297      72656369 
 9297      73696F6E 
 9297      5F726573 
 9297      7400
 9298              	.LASF110:
 9299 032d 5F737464 		.ascii	"_stdout\000"
 9299      6F757400 
 9300              	.LASF54:
 9301 0335 5F66706F 		.ascii	"_fpos_t\000"
 9301      735F7400 
 9302              	.LASF86:
 9303 033d 5F666E73 		.ascii	"_fns\000"
 9303      00
 9304              	.LASF288:
 9305 0342 433A5C55 		.ascii	"C:\\Users\\Pchautems\\Documents\\RobotiqueTP\\Proje"
 9305      73657273 
 9305      5C506368 
 9305      61757465 
 9305      6D735C44 
 9306 0370 745C6D69 		.ascii	"t\\miniprojet\000"
 9306      6E697072 
 9306      6F6A6574 
 9306      00
 9307              	.LASF219:
 9308 037d 6E7A4669 		.ascii	"nzFirstZero\000"
 9308      7273745A 
 9308      65726F00 
 9309              	.LASF7:
 9310 0389 41534542 		.ascii	"ASEBA_MESSAGE_BOOTLOADER_WRITE_PAGE\000"
 9310      415F4D45 
 9310      53534147 
 9310      455F424F 
 9310      4F544C4F 
 9311              	.LASF237:
 9312 03ad 79496E64 		.ascii	"yIndex\000"
 9312      657800
 9313              	.LASF68:
 9314 03b4 5F426967 		.ascii	"_Bigint\000"
 9314      696E7400 
 9315              	.LASF168:
 9316 03bc 41534542 		.ascii	"ASEBA_MAX_BREAKPOINTS\000"
 9316      415F4D41 
 9316      585F4252 
 9316      45414B50 
 9316      4F494E54 
 9317              	.LASF76:
 9318 03d2 5F5F746D 		.ascii	"__tm_wday\000"
ARM GAS  C:\Users\PCHAUT~1\AppData\Local\Temp\ccvICu2w.s 			page 170


 9318      5F776461 
 9318      7900
 9319              	.LASF244:
 9320 03dc 6172676D 		.ascii	"argmin\000"
 9320      696E00
 9321              	.LASF118:
 9322 03e3 5F726573 		.ascii	"_result\000"
 9322      756C7400 
 9323              	.LASF279:
 9324 03eb 72657375 		.ascii	"result\000"
 9324      6C7400
 9325              	.LASF210:
 9326 03f2 64657374 		.ascii	"destIndex\000"
 9326      496E6465 
 9326      7800
 9327              	.LASF72:
 9328 03fc 5F5F746D 		.ascii	"__tm_hour\000"
 9328      5F686F75 
 9328      7200
 9329              	.LASF202:
 9330 0406 41736562 		.ascii	"AsebaNativeDescription_mathcos\000"
 9330      614E6174 
 9330      69766544 
 9330      65736372 
 9330      69707469 
 9331              	.LASF58:
 9332 0425 5F5F636F 		.ascii	"__count\000"
 9332      756E7400 
 9333              	.LASF206:
 9334 042d 41736562 		.ascii	"AsebaNativeDescription_rand\000"
 9334      614E6174 
 9334      69766544 
 9334      65736372 
 9334      69707469 
 9335              	.LASF251:
 9336 0449 73686966 		.ascii	"shift\000"
 9336      7400
 9337              	.LASF30:
 9338 044f 41534542 		.ascii	"ASEBA_MESSAGE_STEP\000"
 9338      415F4D45 
 9338      53534147 
 9338      455F5354 
 9338      455000
 9339              	.LASF71:
 9340 0462 5F5F746D 		.ascii	"__tm_min\000"
 9340      5F6D696E 
 9340      00
 9341              	.LASF161:
 9342 046b 5F696D70 		.ascii	"_impure_ptr\000"
 9342      7572655F 
 9342      70747200 
 9343              	.LASF156:
 9344 0477 5F6E6578 		.ascii	"_nextf\000"
 9344      746600
 9345              	.LASF235:
 9346 047e 41736562 		.ascii	"AsebaNative_mathsin\000"
 9346      614E6174 
ARM GAS  C:\Users\PCHAUT~1\AppData\Local\Temp\ccvICu2w.s 			page 171


 9346      6976655F 
 9346      6D617468 
 9346      73696E00 
 9347              	.LASF223:
 9348 0492 62657374 		.ascii	"bestSeqIndex\000"
 9348      53657149 
 9348      6E646578 
 9348      00
 9349              	.LASF133:
 9350 049f 5F72616E 		.ascii	"_rand48\000"
 9350      64343800 
 9351              	.LASF276:
 9352 04a7 73756249 		.ascii	"subIndex\000"
 9352      6E646578 
 9352      00
 9353              	.LASF214:
 9354 04b0 73656564 		.ascii	"seed\000"
 9354      00
 9355              	.LASF5:
 9356 04b5 41534542 		.ascii	"ASEBA_MESSAGE_BOOTLOADER_RESET\000"
 9356      415F4D45 
 9356      53534147 
 9356      455F424F 
 9356      4F544C4F 
 9357              	.LASF119:
 9358 04d4 5F726573 		.ascii	"_result_k\000"
 9358      756C745F 
 9358      6B00
 9359              	.LASF51:
 9360 04de 6C6F6E67 		.ascii	"long long unsigned int\000"
 9360      206C6F6E 
 9360      6720756E 
 9360      7369676E 
 9360      65642069 
 9361              	.LASF139:
 9362 04f5 5F617363 		.ascii	"_asctime_buf\000"
 9362      74696D65 
 9362      5F627566 
 9362      00
 9363              	.LASF90:
 9364 0502 5F5F7346 		.ascii	"__sFILE\000"
 9364      494C4500 
 9365              	.LASF67:
 9366 050a 5F776473 		.ascii	"_wds\000"
 9366      00
 9367              	.LASF253:
 9368 050f 68696768 		.ascii	"high\000"
 9368      00
 9369              	.LASF166:
 9370 0514 73696E74 		.ascii	"sint16\000"
 9370      313600
 9371              	.LASF129:
 9372 051b 5F5F4649 		.ascii	"__FILE\000"
 9372      4C4500
 9373              	.LASF160:
 9374 0522 5F5F6C6F 		.ascii	"__locale_t\000"
 9374      63616C65 
ARM GAS  C:\Users\PCHAUT~1\AppData\Local\Temp\ccvICu2w.s 			page 172


 9374      5F7400
 9375              	.LASF102:
 9376 052d 5F6F6666 		.ascii	"_offset\000"
 9376      73657400 
 9377              	.LASF234:
 9378 0535 41736562 		.ascii	"AsebaNative_mathcos\000"
 9378      614E6174 
 9378      6976655F 
 9378      6D617468 
 9378      636F7300 
 9379              	.LASF266:
 9380 0549 76616C75 		.ascii	"value\000"
 9380      6500
 9381              	.LASF113:
 9382 054f 5F656D65 		.ascii	"_emergency\000"
 9382      7267656E 
 9382      637900
 9383              	.LASF260:
 9384 055a 41736562 		.ascii	"AsebaNative_vecsub\000"
 9384      614E6174 
 9384      6976655F 
 9384      76656373 
 9384      756200
 9385              	.LASF233:
 9386 056d 73696E5F 		.ascii	"sin_a\000"
 9386      6100
 9387              	.LASF250:
 9388 0573 73726332 		.ascii	"src2\000"
 9388      00
 9389              	.LASF280:
 9390 0578 61736562 		.ascii	"aseba_atan2\000"
 9390      615F6174 
 9390      616E3200 
 9391              	.LASF236:
 9392 0584 41736562 		.ascii	"AsebaNative_mathatan2\000"
 9392      614E6174 
 9392      6976655F 
 9392      6D617468 
 9392      6174616E 
 9393              	.LASF197:
 9394 059a 41736562 		.ascii	"AsebaNativeDescription_vecargbounds\000"
 9394      614E6174 
 9394      69766544 
 9394      65736372 
 9394      69707469 
 9395              	.LASF6:
 9396 05be 41534542 		.ascii	"ASEBA_MESSAGE_BOOTLOADER_READ_PAGE\000"
 9396      415F4D45 
 9396      53534147 
 9396      455F424F 
 9396      4F544C4F 
 9397              	.LASF70:
 9398 05e1 5F5F746D 		.ascii	"__tm_sec\000"
 9398      5F736563 
 9398      00
 9399              	.LASF163:
 9400 05ea 7375626F 		.ascii	"suboptarg\000"
ARM GAS  C:\Users\PCHAUT~1\AppData\Local\Temp\ccvICu2w.s 			page 173


 9400      70746172 
 9400      6700
 9401              	.LASF77:
 9402 05f4 5F5F746D 		.ascii	"__tm_yday\000"
 9402      5F796461 
 9402      7900
 9403              	.LASF112:
 9404 05fe 5F696E63 		.ascii	"_inc\000"
 9404      00
 9405              	.LASF85:
 9406 0603 5F696E64 		.ascii	"_ind\000"
 9406      00
 9407              	.LASF273:
 9408 0608 61736562 		.ascii	"aseba_cos\000"
 9408      615F636F 
 9408      7300
 9409              	.LASF215:
 9410 0612 41736562 		.ascii	"AsebaNative_vecnonzerosequence\000"
 9410      614E6174 
 9410      6976655F 
 9410      7665636E 
 9410      6F6E7A65 
 9411              	.LASF40:
 9412 0631 41534542 		.ascii	"ASEBA_MESSAGE_SUSPEND_TO_RAM\000"
 9412      415F4D45 
 9412      53534147 
 9412      455F5355 
 9412      5350454E 
 9413              	.LASF64:
 9414 064e 5F6E6578 		.ascii	"_next\000"
 9414      7400
 9415              	.LASF283:
 9416 0654 746F5F73 		.ascii	"to_shift\000"
 9416      68696674 
 9416      00
 9417              	.LASF152:
 9418 065d 5F6D6273 		.ascii	"_mbsrtowcs_state\000"
 9418      72746F77 
 9418      63735F73 
 9418      74617465 
 9418      00
 9419              	.LASF269:
 9420 066e 696E7075 		.ascii	"input\000"
 9420      7400
 9421              	.LASF226:
 9422 0674 41736562 		.ascii	"AsebaNative_mathsqrt\000"
 9422      614E6174 
 9422      6976655F 
 9422      6D617468 
 9422      73717274 
 9423              	.LASF221:
 9424 0689 73657149 		.ascii	"seqIndex\000"
 9424      6E646578 
 9424      00
 9425              	.LASF191:
 9426 0692 41736562 		.ascii	"AsebaNativeDescription_vecdiv\000"
 9426      614E6174 
ARM GAS  C:\Users\PCHAUT~1\AppData\Local\Temp\ccvICu2w.s 			page 174


 9426      69766544 
 9426      65736372 
 9426      69707469 
 9427              	.LASF186:
 9428 06b0 41736562 		.ascii	"AsebaNativeDescription_vecfill\000"
 9428      614E6174 
 9428      69766544 
 9428      65736372 
 9428      69707469 
 9429              	.LASF59:
 9430 06cf 5F5F7661 		.ascii	"__value\000"
 9430      6C756500 
 9431              	.LASF256:
 9432 06d7 41736562 		.ascii	"AsebaNative_vecdiv\000"
 9432      614E6174 
 9432      6976655F 
 9432      76656364 
 9432      697600
 9433              	.LASF120:
 9434 06ea 5F703573 		.ascii	"_p5s\000"
 9434      00
 9435              	.LASF164:
 9436 06ef 73696E74 		.ascii	"sint32\000"
 9436      333200
 9437              	.LASF154:
 9438 06f6 5F776373 		.ascii	"_wcsrtombs_state\000"
 9438      72746F6D 
 9438      62735F73 
 9438      74617465 
 9438      00
 9439              	.LASF144:
 9440 0707 5F6D626C 		.ascii	"_mblen_state\000"
 9440      656E5F73 
 9440      74617465 
 9440      00
 9441              	.LASF62:
 9442 0714 63686172 		.ascii	"char\000"
 9442      00
 9443              	.LASF73:
 9444 0719 5F5F746D 		.ascii	"__tm_mday\000"
 9444      5F6D6461 
 9444      7900
 9445              	.LASF126:
 9446 0723 5F736967 		.ascii	"_sig_func\000"
 9446      5F66756E 
 9446      6300
 9447              	.LASF151:
 9448 072d 5F6D6272 		.ascii	"_mbrtowc_state\000"
 9448      746F7763 
 9448      5F737461 
 9448      746500
 9449              	.LASF125:
 9450 073c 5F617465 		.ascii	"_atexit0\000"
 9450      78697430 
 9450      00
 9451              	.LASF246:
 9452 0745 41736562 		.ascii	"AsebaNative_vecstat\000"
ARM GAS  C:\Users\PCHAUT~1\AppData\Local\Temp\ccvICu2w.s 			page 175


 9452      614E6174 
 9452      6976655F 
 9452      76656373 
 9452      74617400 
 9453              	.LASF193:
 9454 0759 41736562 		.ascii	"AsebaNativeDescription_vecmax\000"
 9454      614E6174 
 9454      69766544 
 9454      65736372 
 9454      69707469 
 9455              	.LASF257:
 9456 0777 64697669 		.ascii	"dividend\000"
 9456      64656E64 
 9456      00
 9457              	.LASF2:
 9458 0780 41534542 		.ascii	"ASEBA_VM_EVENT_RUNNING_MASK\000"
 9458      415F564D 
 9458      5F455645 
 9458      4E545F52 
 9458      554E4E49 
 9459              	.LASF232:
 9460 079c 636F735F 		.ascii	"cos_a\000"
 9460      6100
 9461              	.LASF254:
 9462 07a2 41736562 		.ascii	"AsebaNative_vecmax\000"
 9462      614E6174 
 9462      6976655F 
 9462      7665636D 
 9462      617800
 9463              	.LASF9:
 9464 07b5 41534542 		.ascii	"ASEBA_MESSAGE_BOOTLOADER_DESCRIPTION\000"
 9464      415F4D45 
 9464      53534147 
 9464      455F424F 
 9464      4F544C4F 
 9465              	.LASF167:
 9466 07da 75696E74 		.ascii	"uint16\000"
 9466      313600
 9467              	.LASF61:
 9468 07e1 5F666C6F 		.ascii	"_flock_t\000"
 9468      636B5F74 
 9468      00
 9469              	.LASF262:
 9470 07ea 41736562 		.ascii	"AsebaNative_vecaddscalar\000"
 9470      614E6174 
 9470      6976655F 
 9470      76656361 
 9470      64647363 
 9471              	.LASF277:
 9472 0803 696E7665 		.ascii	"invert\000"
 9472      727400
 9473              	.LASF56:
 9474 080a 5F5F7763 		.ascii	"__wch\000"
 9474      6800
 9475              	.LASF132:
 9476 0810 5F696F62 		.ascii	"_iobs\000"
 9476      7300
ARM GAS  C:\Users\PCHAUT~1\AppData\Local\Temp\ccvICu2w.s 			page 176


 9477              	.LASF229:
 9478 0816 76656374 		.ascii	"vectOutIndex\000"
 9478      4F757449 
 9478      6E646578 
 9478      00
 9479              	.LASF98:
 9480 0823 5F636C6F 		.ascii	"_close\000"
 9480      736500
 9481              	.LASF275:
 9482 082a 61736562 		.ascii	"aseba_sin\000"
 9482      615F7369 
 9482      6E00
 9483              	.LASF116:
 9484 0834 5F5F7364 		.ascii	"__sdidinit\000"
 9484      6964696E 
 9484      697400
 9485              	.LASF271:
 9486 083f 73776170 		.ascii	"swap\000"
 9486      00
 9487              	.LASF37:
 9488 0844 41534542 		.ascii	"ASEBA_MESSAGE_SET_VARIABLES\000"
 9488      415F4D45 
 9488      53534147 
 9488      455F5345 
 9488      545F5641 
 9489              	.LASF289:
 9490 0860 41736562 		.ascii	"AsebaGetRandom\000"
 9490      61476574 
 9490      52616E64 
 9490      6F6D00
 9491              	.LASF205:
 9492 086f 41736562 		.ascii	"AsebaNativeDescription_vecnonzerosequence\000"
 9492      614E6174 
 9492      69766544 
 9492      65736372 
 9492      69707469 
 9493              	.LASF109:
 9494 0899 5F737464 		.ascii	"_stdin\000"
 9494      696E00
 9495              	.LASF141:
 9496 08a0 5F67616D 		.ascii	"_gamma_signgam\000"
 9496      6D615F73 
 9496      69676E67 
 9496      616D00
 9497              	.LASF287:
 9498 08af 2E2E2F6C 		.ascii	"../lib/e-puck2_main-processor/aseba/vm/natives.c\000"
 9498      69622F65 
 9498      2D707563 
 9498      6B325F6D 
 9498      61696E2D 
 9499              	.LASF45:
 9500 08e0 6C6F6E67 		.ascii	"long long int\000"
 9500      206C6F6E 
 9500      6720696E 
 9500      7400
 9501              	.LASF185:
 9502 08ee 41736562 		.ascii	"AsebaNativeDescription_veccopy\000"
ARM GAS  C:\Users\PCHAUT~1\AppData\Local\Temp\ccvICu2w.s 			page 177


 9502      614E6174 
 9502      69766544 
 9502      65736372 
 9502      69707469 
 9503              	.LASF88:
 9504 090d 5F626173 		.ascii	"_base\000"
 9504      6500
 9505              	.LASF121:
 9506 0913 5F667265 		.ascii	"_freelist\000"
 9506      656C6973 
 9506      7400
 9507              	.LASF135:
 9508 091d 5F6D756C 		.ascii	"_mult\000"
 9508      7400
 9509              	.LASF63:
 9510 0923 5F5F554C 		.ascii	"__ULong\000"
 9510      6F6E6700 
 9511              	.LASF194:
 9512 092b 41736562 		.ascii	"AsebaNativeDescription_vecclamp\000"
 9512      614E6174 
 9512      69766544 
 9512      65736372 
 9512      69707469 
 9513              	.LASF27:
 9514 094b 41534542 		.ascii	"ASEBA_MESSAGE_RESET\000"
 9514      415F4D45 
 9514      53534147 
 9514      455F5245 
 9514      53455400 
 9515              	.LASF153:
 9516 095f 5F776372 		.ascii	"_wcrtomb_state\000"
 9516      746F6D62 
 9516      5F737461 
 9516      746500
 9517              	.LASF92:
 9518 096e 5F66696C 		.ascii	"_file\000"
 9518      6500
 9519              	.LASF225:
 9520 0974 6E7A4669 		.ascii	"nzFirstIndex\000"
 9520      72737449 
 9520      6E646578 
 9520      00
 9521              	.LASF227:
 9522 0981 78496E64 		.ascii	"xIndex\000"
 9522      657800
 9523              	.LASF224:
 9524 0988 7365714C 		.ascii	"seqLength\000"
 9524      656E6774 
 9524      6800
 9525              	.LASF117:
 9526 0992 5F5F636C 		.ascii	"__cleanup\000"
 9526      65616E75 
 9526      7000
 9527              	.LASF36:
 9528 099c 41534542 		.ascii	"ASEBA_MESSAGE_GET_VARIABLES\000"
 9528      415F4D45 
 9528      53534147 
ARM GAS  C:\Users\PCHAUT~1\AppData\Local\Temp\ccvICu2w.s 			page 178


 9528      455F4745 
 9528      545F5641 
 9529              	.LASF60:
 9530 09b8 5F6D6273 		.ascii	"_mbstate_t\000"
 9530      74617465 
 9530      5F7400
 9531              	.LASF24:
 9532 09c3 41534542 		.ascii	"ASEBA_MESSAGE_NODE_PRESENT\000"
 9532      415F4D45 
 9532      53534147 
 9532      455F4E4F 
 9532      44455F50 
 9533              	.LASF174:
 9534 09de 73746163 		.ascii	"stackSize\000"
 9534      6B53697A 
 9534      6500
 9535              	.LASF180:
 9536 09e8 73697A65 		.ascii	"size\000"
 9536      00
 9537              	.LASF212:
 9538 09ed 41736562 		.ascii	"AsebaNative_rand\000"
 9538      614E6174 
 9538      6976655F 
 9538      72616E64 
 9538      00
 9539              	.LASF187:
 9540 09fe 41736562 		.ascii	"AsebaNativeDescription_vecaddscalar\000"
 9540      614E6174 
 9540      69766544 
 9540      65736372 
 9540      69707469 
 9541              	.LASF165:
 9542 0a22 75696E74 		.ascii	"uint32\000"
 9542      333200
 9543              	.LASF78:
 9544 0a29 5F5F746D 		.ascii	"__tm_isdst\000"
 9544      5F697364 
 9544      737400
 9545              	.LASF0:
 9546 0a34 41534542 		.ascii	"ASEBA_VM_EVENT_ACTIVE_MASK\000"
 9546      415F564D 
 9546      5F455645 
 9546      4E545F41 
 9546      43544956 
 9547              	.LASF207:
 9548 0a4f 61736562 		.ascii	"aseba_atan_table\000"
 9548      615F6174 
 9548      616E5F74 
 9548      61626C65 
 9548      00
 9549              	.LASF173:
 9550 0a60 76617269 		.ascii	"variables\000"
 9550      61626C65 
 9550      7300
 9551              	.LASF150:
 9552 0a6a 5F6D6272 		.ascii	"_mbrlen_state\000"
 9552      6C656E5F 
ARM GAS  C:\Users\PCHAUT~1\AppData\Local\Temp\ccvICu2w.s 			page 179


 9552      73746174 
 9552      6500
 9553              	.LASF218:
 9554 0a78 6D696E4C 		.ascii	"minLength\000"
 9554      656E6774 
 9554      6800
 9555              	.LASF155:
 9556 0a82 5F685F65 		.ascii	"_h_errno\000"
 9556      72726E6F 
 9556      00
 9557              	.LASF252:
 9558 0a8b 41736562 		.ascii	"AsebaNative_vecclamp\000"
 9558      614E6174 
 9558      6976655F 
 9558      76656363 
 9558      6C616D70 
 9559              	.LASF200:
 9560 0aa0 41736562 		.ascii	"AsebaNativeDescription_mathatan2\000"
 9560      614E6174 
 9560      69766544 
 9560      65736372 
 9560      69707469 
 9561              	.LASF170:
 9562 0ac1 62797465 		.ascii	"bytecodeSize\000"
 9562      636F6465 
 9562      53697A65 
 9562      00
 9563              	.LASF29:
 9564 0ace 41534542 		.ascii	"ASEBA_MESSAGE_PAUSE\000"
 9564      415F4D45 
 9564      53534147 
 9564      455F5041 
 9564      55534500 
 9565              	.LASF74:
 9566 0ae2 5F5F746D 		.ascii	"__tm_mon\000"
 9566      5F6D6F6E 
 9566      00
 9567              	.LASF18:
 9568 0aeb 41534542 		.ascii	"ASEBA_MESSAGE_ARRAY_ACCESS_OUT_OF_BOUNDS\000"
 9568      415F4D45 
 9568      53534147 
 9568      455F4152 
 9568      5241595F 
 9569              	.LASF182:
 9570 0b14 41736562 		.ascii	"AsebaNativeFunctionArgumentDescription\000"
 9570      614E6174 
 9570      69766546 
 9570      756E6374 
 9570      696F6E41 
 9571              	.LASF46:
 9572 0b3b 6C6F6E67 		.ascii	"long double\000"
 9572      20646F75 
 9572      626C6500 
 9573              	.LASF52:
 9574 0b47 5F4C4F43 		.ascii	"_LOCK_T\000"
 9574      4B5F5400 
 9575              	.LASF11:
ARM GAS  C:\Users\PCHAUT~1\AppData\Local\Temp\ccvICu2w.s 			page 180


 9576 0b4f 41534542 		.ascii	"ASEBA_MESSAGE_BOOTLOADER_ACK\000"
 9576      415F4D45 
 9576      53534147 
 9576      455F424F 
 9576      4F544C4F 
 9577              	.LASF96:
 9578 0b6c 5F777269 		.ascii	"_write\000"
 9578      746500
 9579              	.LASF274:
 9580 0b73 616E676C 		.ascii	"angle\000"
 9580      6500
 9581              	.LASF189:
 9582 0b79 41736562 		.ascii	"AsebaNativeDescription_vecsub\000"
 9582      614E6174 
 9582      69766544 
 9582      65736372 
 9582      69707469 
 9583              	.LASF84:
 9584 0b97 5F617465 		.ascii	"_atexit\000"
 9584      78697400 
 9585              	.LASF278:
 9586 0b9f 6C6F6F6B 		.ascii	"lookupAngle\000"
 9586      7570416E 
 9586      676C6500 
 9587              	.LASF270:
 9588 0bab 73776170 		.ascii	"swapped\000"
 9588      70656400 
 9589              	.LASF245:
 9590 0bb3 6172676D 		.ascii	"argmax\000"
 9590      617800
 9591              	.LASF48:
 9592 0bba 73686F72 		.ascii	"short int\000"
 9592      7420696E 
 9592      7400
 9593              	.LASF25:
 9594 0bc4 41534542 		.ascii	"ASEBA_MESSAGE_GET_DESCRIPTION\000"
 9594      415F4D45 
 9594      53534147 
 9594      455F4745 
 9594      545F4445 
 9595              	.LASF291:
 9596 0be2 41736562 		.ascii	"AsebaNativePopArg\000"
 9596      614E6174 
 9596      69766550 
 9596      6F704172 
 9596      6700
 9597              	.LASF49:
 9598 0bf4 6C6F6E67 		.ascii	"long int\000"
 9598      20696E74 
 9598      00
 9599              	.LASF267:
 9600 0bfd 41736562 		.ascii	"AsebaNative_veccopy\000"
 9600      614E6174 
 9600      6976655F 
 9600      76656363 
 9600      6F707900 
 9601              	.LASF284:
ARM GAS  C:\Users\PCHAUT~1\AppData\Local\Temp\ccvICu2w.s 			page 181


 9602 0c11 73756270 		.ascii	"subprecision_index\000"
 9602      72656369 
 9602      73696F6E 
 9602      5F696E64 
 9602      657800
 9603              	.LASF272:
 9604 0c24 61736562 		.ascii	"aseba_sqrt\000"
 9604      615F7371 
 9604      727400
 9605              	.LASF211:
 9606 0c2f 6C656E67 		.ascii	"length\000"
 9606      746800
 9607              	.LASF238:
 9608 0c36 41736562 		.ascii	"AsebaNative_mathmuldiv\000"
 9608      614E6174 
 9608      6976655F 
 9608      6D617468 
 9608      6D756C64 
 9609              	.LASF239:
 9610 0c4d 61496E64 		.ascii	"aIndex\000"
 9610      657800
 9611              	.LASF128:
 9612 0c54 5F5F7366 		.ascii	"__sf\000"
 9612      00
 9613              	.LASF66:
 9614 0c59 5F736967 		.ascii	"_sign\000"
 9614      6E00
 9615              	.LASF213:
 9616 0c5f 41736562 		.ascii	"AsebaSetRandomSeed\000"
 9616      61536574 
 9616      52616E64 
 9616      6F6D5365 
 9616      656400
 9617              	.LASF15:
 9618 0c72 41534542 		.ascii	"ASEBA_MESSAGE_NATIVE_FUNCTION_DESCRIPTION\000"
 9618      415F4D45 
 9618      53534147 
 9618      455F4E41 
 9618      54495645 
 9619              	.LASF103:
 9620 0c9c 5F646174 		.ascii	"_data\000"
 9620      6100
 9621              	.LASF57:
 9622 0ca2 5F5F7763 		.ascii	"__wchb\000"
 9622      686200
 9623              	.LASF162:
 9624 0ca9 5F676C6F 		.ascii	"_global_impure_ptr\000"
 9624      62616C5F 
 9624      696D7075 
 9624      72655F70 
 9624      747200
 9625              	.LASF196:
 9626 0cbc 41736562 		.ascii	"AsebaNativeDescription_vecstat\000"
 9626      614E6174 
 9626      69766544 
 9626      65736372 
 9626      69707469 
ARM GAS  C:\Users\PCHAUT~1\AppData\Local\Temp\ccvICu2w.s 			page 182


 9627              	.LASF190:
 9628 0cdb 41736562 		.ascii	"AsebaNativeDescription_vecmul\000"
 9628      614E6174 
 9628      69766544 
 9628      65736372 
 9628      69707469 
 9629              	.LASF75:
 9630 0cf9 5F5F746D 		.ascii	"__tm_year\000"
 9630      5F796561 
 9630      7200
 9631              	.LASF290:
 9632 0d03 646F7562 		.ascii	"doubleBreak\000"
 9632      6C654272 
 9632      65616B00 
 9633              	.LASF38:
 9634 0d0f 41534542 		.ascii	"ASEBA_MESSAGE_WRITE_BYTECODE\000"
 9634      415F4D45 
 9634      53534147 
 9634      455F5752 
 9634      4954455F 
 9635              	.LASF259:
 9636 0d2c 41736562 		.ascii	"AsebaNative_vecmul\000"
 9636      614E6174 
 9636      6976655F 
 9636      7665636D 
 9636      756C00
 9637              	.LASF140:
 9638 0d3f 5F6C6F63 		.ascii	"_localtime_buf\000"
 9638      616C7469 
 9638      6D655F62 
 9638      756600
 9639              	.LASF158:
 9640 0d4e 5F756E75 		.ascii	"_unused\000"
 9640      73656400 
 9641              	.LASF203:
 9642 0d56 41736562 		.ascii	"AsebaNativeDescription_mathrot2\000"
 9642      614E6174 
 9642      69766544 
 9642      65736372 
 9642      69707469 
 9643              	.LASF124:
 9644 0d76 5F6E6577 		.ascii	"_new\000"
 9644      00
 9645              	.LASF122:
 9646 0d7b 5F637674 		.ascii	"_cvtlen\000"
 9646      6C656E00 
 9647              	.LASF65:
 9648 0d83 5F6D6178 		.ascii	"_maxwds\000"
 9648      77647300 
 9649              	.LASF147:
 9650 0d8b 5F6C3634 		.ascii	"_l64a_buf\000"
 9650      615F6275 
 9650      6600
 9651              	.LASF265:
 9652 0d95 41736562 		.ascii	"AsebaNative_vecfill\000"
 9652      614E6174 
 9652      6976655F 
ARM GAS  C:\Users\PCHAUT~1\AppData\Local\Temp\ccvICu2w.s 			page 183


 9652      76656366 
 9652      696C6C00 
 9653              	.LASF175:
 9654 0da9 73746163 		.ascii	"stack\000"
 9654      6B00
 9655              	.LASF195:
 9656 0daf 41736562 		.ascii	"AsebaNativeDescription_vecdot\000"
 9656      614E6174 
 9656      69766544 
 9656      65736372 
 9656      69707469 
 9657              	.LASF101:
 9658 0dcd 5F626C6B 		.ascii	"_blksize\000"
 9658      73697A65 
 9658      00
 9659              	.LASF69:
 9660 0dd6 5F5F746D 		.ascii	"__tm\000"
 9660      00
 9661              	.LASF248:
 9662 0ddb 41736562 		.ascii	"AsebaNative_vecdot\000"
 9662      614E6174 
 9662      6976655F 
 9662      76656364 
 9662      6F7400
 9663              	.LASF104:
 9664 0dee 5F6C6F63 		.ascii	"_lock\000"
 9664      6B00
 9665              	.LASF50:
 9666 0df4 6C6F6E67 		.ascii	"long unsigned int\000"
 9666      20756E73 
 9666      69676E65 
 9666      6420696E 
 9666      7400
 9667              	.LASF286:
 9668 0e06 474E5520 		.ascii	"GNU C11 7.2.1 20170904 (release) [ARM/embedded-7-br"
 9668      43313120 
 9668      372E322E 
 9668      31203230 
 9668      31373039 
 9669 0e39 616E6368 		.ascii	"anch revision 255204] -mcpu=cortex-m4 -mfloat-abi=h"
 9669      20726576 
 9669      6973696F 
 9669      6E203235 
 9669      35323034 
 9670 0e6c 61726420 		.ascii	"ard -mfpu=fpv4-sp-d16 -mno-thumb-interwork -mthumb "
 9670      2D6D6670 
 9670      753D6670 
 9670      76342D73 
 9670      702D6431 
 9671 0e9f 2D676764 		.ascii	"-ggdb -O0 -fomit-frame-pointer -falign-functions=16"
 9671      62202D4F 
 9671      30202D66 
 9671      6F6D6974 
 9671      2D667261 
 9672 0ed2 202D666E 		.ascii	" -fno-strict-aliasing -fstack-protector-all -ffunct"
 9672      6F2D7374 
 9672      72696374 
ARM GAS  C:\Users\PCHAUT~1\AppData\Local\Temp\ccvICu2w.s 			page 184


 9672      2D616C69 
 9672      6173696E 
 9673 0f05 696F6E2D 		.ascii	"ion-sections -fdata-sections -fno-common -fsingle-p"
 9673      73656374 
 9673      696F6E73 
 9673      202D6664 
 9673      6174612D 
 9674 0f38 72656369 		.ascii	"recision-constant\000"
 9674      73696F6E 
 9674      2D636F6E 
 9674      7374616E 
 9674      7400
 9675              	.LASF131:
 9676 0f4a 5F6E696F 		.ascii	"_niobs\000"
 9676      627300
 9677              	.LASF55:
 9678 0f51 77696E74 		.ascii	"wint_t\000"
 9678      5F7400
 9679              	.LASF39:
 9680 0f58 41534542 		.ascii	"ASEBA_MESSAGE_REBOOT\000"
 9680      415F4D45 
 9680      53534147 
 9680      455F5245 
 9680      424F4F54 
 9681              	.LASF258:
 9682 0f6d 64697669 		.ascii	"divisor\000"
 9682      736F7200 
 9683              	.LASF81:
 9684 0f75 5F64736F 		.ascii	"_dso_handle\000"
 9684      5F68616E 
 9684      646C6500 
 9685              	.LASF177:
 9686 0f81 62726561 		.ascii	"breakpoints\000"
 9686      6B706F69 
 9686      6E747300 
 9687              	.LASF159:
 9688 0f8d 5F5F6C6F 		.ascii	"__lock\000"
 9688      636B00
 9689              	.LASF10:
 9690 0f94 41534542 		.ascii	"ASEBA_MESSAGE_BOOTLOADER_PAGE_DATA_READ\000"
 9690      415F4D45 
 9690      53534147 
 9690      455F424F 
 9690      4F544C4F 
 9691              	.LASF123:
 9692 0fbc 5F637674 		.ascii	"_cvtbuf\000"
 9692      62756600 
 9693              	.LASF3:
 9694 0fc4 756E7369 		.ascii	"unsigned char\000"
 9694      676E6564 
 9694      20636861 
 9694      7200
 9695              	.LASF188:
 9696 0fd2 41736562 		.ascii	"AsebaNativeDescription_vecadd\000"
 9696      614E6174 
 9696      69766544 
 9696      65736372 
ARM GAS  C:\Users\PCHAUT~1\AppData\Local\Temp\ccvICu2w.s 			page 185


 9696      69707469 
 9697              	.LASF149:
 9698 0ff0 5F676574 		.ascii	"_getdate_err\000"
 9698      64617465 
 9698      5F657272 
 9698      00
 9699              	.LASF183:
 9700 0ffd 61726775 		.ascii	"arguments\000"
 9700      6D656E74 
 9700      7300
 9701              	.LASF261:
 9702 1007 41736562 		.ascii	"AsebaNative_vecadd\000"
 9702      614E6174 
 9702      6976655F 
 9702      76656361 
 9702      646400
 9703              	.LASF198:
 9704 101a 41736562 		.ascii	"AsebaNativeDescription_vecsort\000"
 9704      614E6174 
 9704      69766544 
 9704      65736372 
 9704      69707469 
 9705              	.LASF208:
 9706 1039 61736562 		.ascii	"aseba_sin_table\000"
 9706      615F7369 
 9706      6E5F7461 
 9706      626C6500 
 9707              	.LASF136:
 9708 1049 5F616464 		.ascii	"_add\000"
 9708      00
 9709              	.LASF95:
 9710 104e 5F726561 		.ascii	"_read\000"
 9710      6400
 9711              	.LASF33:
 9712 1054 41534542 		.ascii	"ASEBA_MESSAGE_BREAKPOINT_SET\000"
 9712      415F4D45 
 9712      53534147 
 9712      455F4252 
 9712      45414B50 
 9713              	.LASF241:
 9714 1071 63496E64 		.ascii	"cIndex\000"
 9714      657800
 9715              	.LASF281:
 9716 1078 6662315F 		.ascii	"fb1_counter\000"
 9716      636F756E 
 9716      74657200 
 9717              	.LASF87:
 9718 1084 5F5F7362 		.ascii	"__sbuf\000"
 9718      756600
 9719              	.LASF230:
 9720 108b 76656349 		.ascii	"vecInIndex\000"
 9720      6E496E64 
 9720      657800
 9721              	.LASF31:
 9722 1096 41534542 		.ascii	"ASEBA_MESSAGE_STOP\000"
 9722      415F4D45 
 9722      53534147 
ARM GAS  C:\Users\PCHAUT~1\AppData\Local\Temp\ccvICu2w.s 			page 186


 9722      455F5354 
 9722      4F5000
 9723              	.LASF130:
 9724 10a9 5F676C75 		.ascii	"_glue\000"
 9724      6500
 9725              	.LASF217:
 9726 10af 696E7075 		.ascii	"inputLength\000"
 9726      744C656E 
 9726      67746800 
 9727              	.LASF127:
 9728 10bb 5F5F7367 		.ascii	"__sglue\000"
 9728      6C756500 
 9729              	.LASF138:
 9730 10c3 5F737472 		.ascii	"_strtok_last\000"
 9730      746F6B5F 
 9730      6C617374 
 9730      00
 9731              	.LASF145:
 9732 10d0 5F6D6274 		.ascii	"_mbtowc_state\000"
 9732      6F77635F 
 9732      73746174 
 9732      6500
 9733              	.LASF268:
 9734 10de 61736562 		.ascii	"aseba_comb_sort\000"
 9734      615F636F 
 9734      6D625F73 
 9734      6F727400 
 9735              	.LASF16:
 9736 10ee 41534542 		.ascii	"ASEBA_MESSAGE_DISCONNECTED\000"
 9736      415F4D45 
 9736      53534147 
 9736      455F4449 
 9736      53434F4E 
 9737              	.LASF115:
 9738 1109 5F6C6F63 		.ascii	"_locale\000"
 9738      616C6500 
 9739              	.LASF17:
 9740 1111 41534542 		.ascii	"ASEBA_MESSAGE_VARIABLES\000"
 9740      415F4D45 
 9740      53534147 
 9740      455F5641 
 9740      52494142 
 9741              	.LASF80:
 9742 1129 5F666E61 		.ascii	"_fnargs\000"
 9742      72677300 
 9743              	.LASF47:
 9744 1131 7369676E 		.ascii	"signed char\000"
 9744      65642063 
 9744      68617200 
 9745              	.LASF285:
 9746 113d 64656C74 		.ascii	"delta\000"
 9746      6100
 9747              	.LASF107:
 9748 1143 5F726565 		.ascii	"_reent\000"
 9748      6E7400
 9749              	.LASF4:
 9750 114a 73686F72 		.ascii	"short unsigned int\000"
ARM GAS  C:\Users\PCHAUT~1\AppData\Local\Temp\ccvICu2w.s 			page 187


 9750      7420756E 
 9750      7369676E 
 9750      65642069 
 9750      6E7400
 9751              	.LASF34:
 9752 115d 41534542 		.ascii	"ASEBA_MESSAGE_BREAKPOINT_CLEAR\000"
 9752      415F4D45 
 9752      53534147 
 9752      455F4252 
 9752      45414B50 
 9753              	.LASF82:
 9754 117c 5F666E74 		.ascii	"_fntypes\000"
 9754      79706573 
 9754      00
 9755              	.LASF192:
 9756 1185 41736562 		.ascii	"AsebaNativeDescription_vecmin\000"
 9756      614E6174 
 9756      69766544 
 9756      65736372 
 9756      69707469 
 9757              	.LASF89:
 9758 11a3 5F73697A 		.ascii	"_size\000"
 9758      6500
 9759              	.LASF19:
 9760 11a9 41534542 		.ascii	"ASEBA_MESSAGE_DIVISION_BY_ZERO\000"
 9760      415F4D45 
 9760      53534147 
 9760      455F4449 
 9760      56495349 
 9761              	.LASF209:
 9762 11c8 726E645F 		.ascii	"rnd_state\000"
 9762      73746174 
 9762      6500
 9763              	.LASF255:
 9764 11d2 41736562 		.ascii	"AsebaNative_vecmin\000"
 9764      614E6174 
 9764      6976655F 
 9764      7665636D 
 9764      696E00
 9765              	.LASF53:
 9766 11e5 5F6F6666 		.ascii	"_off_t\000"
 9766      5F7400
 9767              	.LASF100:
 9768 11ec 5F6E6275 		.ascii	"_nbuf\000"
 9768      6600
 9769              	.LASF137:
 9770 11f2 5F756E75 		.ascii	"_unused_rand\000"
 9770      7365645F 
 9770      72616E64 
 9770      00
 9771              	.LASF41:
 9772 11ff 41534542 		.ascii	"ASEBA_MESSAGE_GET_NODE_DESCRIPTION\000"
 9772      415F4D45 
 9772      53534147 
 9772      455F4745 
 9772      545F4E4F 
 9773              	.LASF114:
ARM GAS  C:\Users\PCHAUT~1\AppData\Local\Temp\ccvICu2w.s 			page 188


 9774 1222 5F756E73 		.ascii	"_unspecified_locale_info\000"
 9774      70656369 
 9774      66696564 
 9774      5F6C6F63 
 9774      616C655F 
 9775              	.LASF106:
 9776 123b 5F666C61 		.ascii	"_flags2\000"
 9776      67733200 
 9777              	.LASF83:
 9778 1243 5F69735F 		.ascii	"_is_cxa\000"
 9778      63786100 
 9779              	.LASF171:
 9780 124b 62797465 		.ascii	"bytecode\000"
 9780      636F6465 
 9780      00
 9781              	.LASF263:
 9782 1254 7363616C 		.ascii	"scalar\000"
 9782      617200
 9783              	.LASF134:
 9784 125b 5F736565 		.ascii	"_seed\000"
 9784      6400
 9785              	.LASF142:
 9786 1261 5F72616E 		.ascii	"_rand_next\000"
 9786      645F6E65 
 9786      787400
 9787              	.LASF20:
 9788 126c 41534542 		.ascii	"ASEBA_MESSAGE_EVENT_EXECUTION_KILLED\000"
 9788      415F4D45 
 9788      53534147 
 9788      455F4556 
 9788      454E545F 
 9789              	.LASF216:
 9790 1291 64657374 		.ascii	"dest\000"
 9790      00
 9791              	.LASF97:
 9792 1296 5F736565 		.ascii	"_seek\000"
 9792      6B00
 9793              	.LASF28:
 9794 129c 41534542 		.ascii	"ASEBA_MESSAGE_RUN\000"
 9794      415F4D45 
 9794      53534147 
 9794      455F5255 
 9794      4E00
 9795              	.LASF247:
 9796 12ae 6D65616E 		.ascii	"mean\000"
 9796      00
 9797              	.LASF111:
 9798 12b3 5F737464 		.ascii	"_stderr\000"
 9798      65727200 
 9799              	.LASF157:
 9800 12bb 5F6E6D61 		.ascii	"_nmalloc\000"
 9800      6C6C6F63 
 9800      00
 9801              	.LASF99:
 9802 12c4 5F756275 		.ascii	"_ubuf\000"
 9802      6600
 9803              	.LASF22:
ARM GAS  C:\Users\PCHAUT~1\AppData\Local\Temp\ccvICu2w.s 			page 189


 9804 12ca 41534542 		.ascii	"ASEBA_MESSAGE_EXECUTION_STATE_CHANGED\000"
 9804      415F4D45 
 9804      53534147 
 9804      455F4558 
 9804      45435554 
 9805              		.ident	"GCC: (GNU Tools for Arm Embedded Processors 7-2017-q4-major) 7.2.1 20170904 (release) [ARM
ARM GAS  C:\Users\PCHAUT~1\AppData\Local\Temp\ccvICu2w.s 			page 190


DEFINED SYMBOLS
                            *ABS*:00000000 natives.c
C:\Users\PCHAUT~1\AppData\Local\Temp\ccvICu2w.s:18     .text.AsebaNativePopArg:00000000 $t
C:\Users\PCHAUT~1\AppData\Local\Temp\ccvICu2w.s:25     .text.AsebaNativePopArg:00000000 AsebaNativePopArg
C:\Users\PCHAUT~1\AppData\Local\Temp\ccvICu2w.s:73     .text.AsebaNativePopArg:00000044 $d
C:\Users\PCHAUT~1\AppData\Local\Temp\ccvICu2w.s:78     .rodata.aseba_atan_table:00000000 $d
C:\Users\PCHAUT~1\AppData\Local\Temp\ccvICu2w.s:81     .rodata.aseba_atan_table:00000000 aseba_atan_table
C:\Users\PCHAUT~1\AppData\Local\Temp\ccvICu2w.s:244    .text.aseba_atan2:00000000 $t
C:\Users\PCHAUT~1\AppData\Local\Temp\ccvICu2w.s:252    .text.aseba_atan2:00000000 aseba_atan2
C:\Users\PCHAUT~1\AppData\Local\Temp\ccvICu2w.s:466    .text.aseba_atan2:000001a4 $d
C:\Users\PCHAUT~1\AppData\Local\Temp\ccvICu2w.s:473    .rodata.aseba_sin_table:00000000 $d
C:\Users\PCHAUT~1\AppData\Local\Temp\ccvICu2w.s:476    .rodata.aseba_sin_table:00000000 aseba_sin_table
C:\Users\PCHAUT~1\AppData\Local\Temp\ccvICu2w.s:607    .text.aseba_sin:00000000 $t
C:\Users\PCHAUT~1\AppData\Local\Temp\ccvICu2w.s:615    .text.aseba_sin:00000000 aseba_sin
C:\Users\PCHAUT~1\AppData\Local\Temp\ccvICu2w.s:754    .text.aseba_sin:0000010c $d
C:\Users\PCHAUT~1\AppData\Local\Temp\ccvICu2w.s:762    .text.aseba_cos:00000000 $t
C:\Users\PCHAUT~1\AppData\Local\Temp\ccvICu2w.s:770    .text.aseba_cos:00000000 aseba_cos
C:\Users\PCHAUT~1\AppData\Local\Temp\ccvICu2w.s:811    .text.aseba_cos:0000003c $d
C:\Users\PCHAUT~1\AppData\Local\Temp\ccvICu2w.s:816    .text.aseba_sqrt:00000000 $t
C:\Users\PCHAUT~1\AppData\Local\Temp\ccvICu2w.s:824    .text.aseba_sqrt:00000000 aseba_sqrt
C:\Users\PCHAUT~1\AppData\Local\Temp\ccvICu2w.s:925    .text.aseba_sqrt:000000b8 $d
C:\Users\PCHAUT~1\AppData\Local\Temp\ccvICu2w.s:930    .text.aseba_comb_sort:00000000 $t
C:\Users\PCHAUT~1\AppData\Local\Temp\ccvICu2w.s:938    .text.aseba_comb_sort:00000000 aseba_comb_sort
C:\Users\PCHAUT~1\AppData\Local\Temp\ccvICu2w.s:1074   .text.aseba_comb_sort:00000104 $d
C:\Users\PCHAUT~1\AppData\Local\Temp\ccvICu2w.s:1080   .text.AsebaNative_veccopy:00000000 $t
C:\Users\PCHAUT~1\AppData\Local\Temp\ccvICu2w.s:1088   .text.AsebaNative_veccopy:00000000 AsebaNative_veccopy
C:\Users\PCHAUT~1\AppData\Local\Temp\ccvICu2w.s:1167   .text.AsebaNative_veccopy:00000090 $d
C:\Users\PCHAUT~1\AppData\Local\Temp\ccvICu2w.s:1189   .rodata.AsebaNativeDescription_veccopy:00000000 AsebaNativeDescription_veccopy
C:\Users\PCHAUT~1\AppData\Local\Temp\ccvICu2w.s:1173   .rodata:00000000 $d
C:\Users\PCHAUT~1\AppData\Local\Temp\ccvICu2w.s:1186   .rodata.AsebaNativeDescription_veccopy:00000000 $d
C:\Users\PCHAUT~1\AppData\Local\Temp\ccvICu2w.s:1202   .text.AsebaNative_vecfill:00000000 $t
C:\Users\PCHAUT~1\AppData\Local\Temp\ccvICu2w.s:1210   .text.AsebaNative_vecfill:00000000 AsebaNative_vecfill
C:\Users\PCHAUT~1\AppData\Local\Temp\ccvICu2w.s:1287   .text.AsebaNative_vecfill:00000088 $d
C:\Users\PCHAUT~1\AppData\Local\Temp\ccvICu2w.s:1306   .rodata.AsebaNativeDescription_vecfill:00000000 AsebaNativeDescription_vecfill
C:\Users\PCHAUT~1\AppData\Local\Temp\ccvICu2w.s:1303   .rodata.AsebaNativeDescription_vecfill:00000000 $d
C:\Users\PCHAUT~1\AppData\Local\Temp\ccvICu2w.s:1319   .text.AsebaNative_vecaddscalar:00000000 $t
C:\Users\PCHAUT~1\AppData\Local\Temp\ccvICu2w.s:1327   .text.AsebaNative_vecaddscalar:00000000 AsebaNative_vecaddscalar
C:\Users\PCHAUT~1\AppData\Local\Temp\ccvICu2w.s:1424   .text.AsebaNative_vecaddscalar:000000b8 $d
C:\Users\PCHAUT~1\AppData\Local\Temp\ccvICu2w.s:1444   .rodata.AsebaNativeDescription_vecaddscalar:00000000 AsebaNativeDescription_vecaddscalar
C:\Users\PCHAUT~1\AppData\Local\Temp\ccvICu2w.s:1441   .rodata.AsebaNativeDescription_vecaddscalar:00000000 $d
C:\Users\PCHAUT~1\AppData\Local\Temp\ccvICu2w.s:1460   .text.AsebaNative_vecadd:00000000 $t
C:\Users\PCHAUT~1\AppData\Local\Temp\ccvICu2w.s:1468   .text.AsebaNative_vecadd:00000000 AsebaNative_vecadd
C:\Users\PCHAUT~1\AppData\Local\Temp\ccvICu2w.s:1565   .text.AsebaNative_vecadd:000000bc $d
C:\Users\PCHAUT~1\AppData\Local\Temp\ccvICu2w.s:1587   .rodata.AsebaNativeDescription_vecadd:00000000 AsebaNativeDescription_vecadd
C:\Users\PCHAUT~1\AppData\Local\Temp\ccvICu2w.s:1584   .rodata.AsebaNativeDescription_vecadd:00000000 $d
C:\Users\PCHAUT~1\AppData\Local\Temp\ccvICu2w.s:1603   .text.AsebaNative_vecsub:00000000 $t
C:\Users\PCHAUT~1\AppData\Local\Temp\ccvICu2w.s:1611   .text.AsebaNative_vecsub:00000000 AsebaNative_vecsub
C:\Users\PCHAUT~1\AppData\Local\Temp\ccvICu2w.s:1708   .text.AsebaNative_vecsub:000000bc $d
C:\Users\PCHAUT~1\AppData\Local\Temp\ccvICu2w.s:1725   .rodata.AsebaNativeDescription_vecsub:00000000 AsebaNativeDescription_vecsub
C:\Users\PCHAUT~1\AppData\Local\Temp\ccvICu2w.s:1722   .rodata.AsebaNativeDescription_vecsub:00000000 $d
C:\Users\PCHAUT~1\AppData\Local\Temp\ccvICu2w.s:1741   .text.AsebaNative_vecmul:00000000 $t
C:\Users\PCHAUT~1\AppData\Local\Temp\ccvICu2w.s:1749   .text.AsebaNative_vecmul:00000000 AsebaNative_vecmul
C:\Users\PCHAUT~1\AppData\Local\Temp\ccvICu2w.s:1846   .text.AsebaNative_vecmul:000000bc $d
C:\Users\PCHAUT~1\AppData\Local\Temp\ccvICu2w.s:1863   .rodata.AsebaNativeDescription_vecmul:00000000 AsebaNativeDescription_vecmul
C:\Users\PCHAUT~1\AppData\Local\Temp\ccvICu2w.s:1860   .rodata.AsebaNativeDescription_vecmul:00000000 $d
C:\Users\PCHAUT~1\AppData\Local\Temp\ccvICu2w.s:1879   .text.AsebaNative_vecdiv:00000000 $t
C:\Users\PCHAUT~1\AppData\Local\Temp\ccvICu2w.s:1887   .text.AsebaNative_vecdiv:00000000 AsebaNative_vecdiv
ARM GAS  C:\Users\PCHAUT~1\AppData\Local\Temp\ccvICu2w.s 			page 191


C:\Users\PCHAUT~1\AppData\Local\Temp\ccvICu2w.s:2009   .text.AsebaNative_vecdiv:000000e0 $d
C:\Users\PCHAUT~1\AppData\Local\Temp\ccvICu2w.s:2025   .rodata.AsebaNativeDescription_vecdiv:00000000 AsebaNativeDescription_vecdiv
C:\Users\PCHAUT~1\AppData\Local\Temp\ccvICu2w.s:2022   .rodata.AsebaNativeDescription_vecdiv:00000000 $d
C:\Users\PCHAUT~1\AppData\Local\Temp\ccvICu2w.s:2041   .text.AsebaNative_vecmin:00000000 $t
C:\Users\PCHAUT~1\AppData\Local\Temp\ccvICu2w.s:2049   .text.AsebaNative_vecmin:00000000 AsebaNative_vecmin
C:\Users\PCHAUT~1\AppData\Local\Temp\ccvICu2w.s:2155   .text.AsebaNative_vecmin:000000cc $d
C:\Users\PCHAUT~1\AppData\Local\Temp\ccvICu2w.s:2172   .rodata.AsebaNativeDescription_vecmin:00000000 AsebaNativeDescription_vecmin
C:\Users\PCHAUT~1\AppData\Local\Temp\ccvICu2w.s:2169   .rodata.AsebaNativeDescription_vecmin:00000000 $d
C:\Users\PCHAUT~1\AppData\Local\Temp\ccvICu2w.s:2188   .text.AsebaNative_vecmax:00000000 $t
C:\Users\PCHAUT~1\AppData\Local\Temp\ccvICu2w.s:2196   .text.AsebaNative_vecmax:00000000 AsebaNative_vecmax
C:\Users\PCHAUT~1\AppData\Local\Temp\ccvICu2w.s:2302   .text.AsebaNative_vecmax:000000cc $d
C:\Users\PCHAUT~1\AppData\Local\Temp\ccvICu2w.s:2319   .rodata.AsebaNativeDescription_vecmax:00000000 AsebaNativeDescription_vecmax
C:\Users\PCHAUT~1\AppData\Local\Temp\ccvICu2w.s:2316   .rodata.AsebaNativeDescription_vecmax:00000000 $d
C:\Users\PCHAUT~1\AppData\Local\Temp\ccvICu2w.s:2335   .text.AsebaNative_vecclamp:00000000 $t
C:\Users\PCHAUT~1\AppData\Local\Temp\ccvICu2w.s:2343   .text.AsebaNative_vecclamp:00000000 AsebaNative_vecclamp
C:\Users\PCHAUT~1\AppData\Local\Temp\ccvICu2w.s:2476   .text.AsebaNative_vecclamp:00000104 $d
C:\Users\PCHAUT~1\AppData\Local\Temp\ccvICu2w.s:2499   .rodata.AsebaNativeDescription_vecclamp:00000000 AsebaNativeDescription_vecclamp
C:\Users\PCHAUT~1\AppData\Local\Temp\ccvICu2w.s:2496   .rodata.AsebaNativeDescription_vecclamp:00000000 $d
C:\Users\PCHAUT~1\AppData\Local\Temp\ccvICu2w.s:2518   .text.AsebaNative_vecdot:00000000 $t
C:\Users\PCHAUT~1\AppData\Local\Temp\ccvICu2w.s:2526   .text.AsebaNative_vecdot:00000000 AsebaNative_vecdot
C:\Users\PCHAUT~1\AppData\Local\Temp\ccvICu2w.s:2658   .text.AsebaNative_vecdot:000000f8 $d
C:\Users\PCHAUT~1\AppData\Local\Temp\ccvICu2w.s:2678   .rodata.AsebaNativeDescription_vecdot:00000000 AsebaNativeDescription_vecdot
C:\Users\PCHAUT~1\AppData\Local\Temp\ccvICu2w.s:2675   .rodata.AsebaNativeDescription_vecdot:00000000 $d
C:\Users\PCHAUT~1\AppData\Local\Temp\ccvICu2w.s:2697   .text.AsebaNative_vecstat:00000000 $t
C:\Users\PCHAUT~1\AppData\Local\Temp\ccvICu2w.s:2705   .text.AsebaNative_vecstat:00000000 AsebaNative_vecstat
C:\Users\PCHAUT~1\AppData\Local\Temp\ccvICu2w.s:2875   .text.AsebaNative_vecstat:00000158 $d
C:\Users\PCHAUT~1\AppData\Local\Temp\ccvICu2w.s:2900   .rodata.AsebaNativeDescription_vecstat:00000000 AsebaNativeDescription_vecstat
C:\Users\PCHAUT~1\AppData\Local\Temp\ccvICu2w.s:2897   .rodata.AsebaNativeDescription_vecstat:00000000 $d
C:\Users\PCHAUT~1\AppData\Local\Temp\ccvICu2w.s:2919   .text.AsebaNative_vecargbounds:00000000 $t
C:\Users\PCHAUT~1\AppData\Local\Temp\ccvICu2w.s:2927   .text.AsebaNative_vecargbounds:00000000 AsebaNative_vecargbounds
C:\Users\PCHAUT~1\AppData\Local\Temp\ccvICu2w.s:3049   .text.AsebaNative_vecargbounds:000000ec $d
C:\Users\PCHAUT~1\AppData\Local\Temp\ccvICu2w.s:3072   .rodata.AsebaNativeDescription_vecargbounds:00000000 AsebaNativeDescription_vecargbounds
C:\Users\PCHAUT~1\AppData\Local\Temp\ccvICu2w.s:3069   .rodata.AsebaNativeDescription_vecargbounds:00000000 $d
C:\Users\PCHAUT~1\AppData\Local\Temp\ccvICu2w.s:3088   .text.AsebaNative_vecsort:00000000 $t
C:\Users\PCHAUT~1\AppData\Local\Temp\ccvICu2w.s:3096   .text.AsebaNative_vecsort:00000000 AsebaNative_vecsort
C:\Users\PCHAUT~1\AppData\Local\Temp\ccvICu2w.s:3148   .text.AsebaNative_vecsort:00000054 $d
C:\Users\PCHAUT~1\AppData\Local\Temp\ccvICu2w.s:3167   .rodata.AsebaNativeDescription_vecsort:00000000 AsebaNativeDescription_vecsort
C:\Users\PCHAUT~1\AppData\Local\Temp\ccvICu2w.s:3164   .rodata.AsebaNativeDescription_vecsort:00000000 $d
C:\Users\PCHAUT~1\AppData\Local\Temp\ccvICu2w.s:3177   .text.AsebaNative_mathmuldiv:00000000 $t
C:\Users\PCHAUT~1\AppData\Local\Temp\ccvICu2w.s:3185   .text.AsebaNative_mathmuldiv:00000000 AsebaNative_mathmuldiv
C:\Users\PCHAUT~1\AppData\Local\Temp\ccvICu2w.s:3324   .text.AsebaNative_mathmuldiv:00000108 $d
C:\Users\PCHAUT~1\AppData\Local\Temp\ccvICu2w.s:3350   .rodata.AsebaNativeDescription_mathmuldiv:00000000 AsebaNativeDescription_mathmuldiv
C:\Users\PCHAUT~1\AppData\Local\Temp\ccvICu2w.s:3347   .rodata.AsebaNativeDescription_mathmuldiv:00000000 $d
C:\Users\PCHAUT~1\AppData\Local\Temp\ccvICu2w.s:3369   .text.AsebaNative_mathatan2:00000000 $t
C:\Users\PCHAUT~1\AppData\Local\Temp\ccvICu2w.s:3377   .text.AsebaNative_mathatan2:00000000 AsebaNative_mathatan2
C:\Users\PCHAUT~1\AppData\Local\Temp\ccvICu2w.s:3488   .text.AsebaNative_mathatan2:000000d0 $d
C:\Users\PCHAUT~1\AppData\Local\Temp\ccvICu2w.s:3510   .rodata.AsebaNativeDescription_mathatan2:00000000 AsebaNativeDescription_mathatan2
C:\Users\PCHAUT~1\AppData\Local\Temp\ccvICu2w.s:3507   .rodata.AsebaNativeDescription_mathatan2:00000000 $d
C:\Users\PCHAUT~1\AppData\Local\Temp\ccvICu2w.s:3526   .text.AsebaNative_mathsin:00000000 $t
C:\Users\PCHAUT~1\AppData\Local\Temp\ccvICu2w.s:3534   .text.AsebaNative_mathsin:00000000 AsebaNative_mathsin
C:\Users\PCHAUT~1\AppData\Local\Temp\ccvICu2w.s:3625   .text.AsebaNative_mathsin:000000a0 $d
C:\Users\PCHAUT~1\AppData\Local\Temp\ccvICu2w.s:3641   .rodata.AsebaNativeDescription_mathsin:00000000 AsebaNativeDescription_mathsin
C:\Users\PCHAUT~1\AppData\Local\Temp\ccvICu2w.s:3638   .rodata.AsebaNativeDescription_mathsin:00000000 $d
C:\Users\PCHAUT~1\AppData\Local\Temp\ccvICu2w.s:3654   .text.AsebaNative_mathcos:00000000 $t
C:\Users\PCHAUT~1\AppData\Local\Temp\ccvICu2w.s:3662   .text.AsebaNative_mathcos:00000000 AsebaNative_mathcos
C:\Users\PCHAUT~1\AppData\Local\Temp\ccvICu2w.s:3753   .text.AsebaNative_mathcos:000000a0 $d
C:\Users\PCHAUT~1\AppData\Local\Temp\ccvICu2w.s:3769   .rodata.AsebaNativeDescription_mathcos:00000000 AsebaNativeDescription_mathcos
ARM GAS  C:\Users\PCHAUT~1\AppData\Local\Temp\ccvICu2w.s 			page 192


C:\Users\PCHAUT~1\AppData\Local\Temp\ccvICu2w.s:3766   .rodata.AsebaNativeDescription_mathcos:00000000 $d
C:\Users\PCHAUT~1\AppData\Local\Temp\ccvICu2w.s:3782   .text.AsebaNative_mathrot2:00000000 $t
C:\Users\PCHAUT~1\AppData\Local\Temp\ccvICu2w.s:3790   .text.AsebaNative_mathrot2:00000000 AsebaNative_mathrot2
C:\Users\PCHAUT~1\AppData\Local\Temp\ccvICu2w.s:3911   .text.AsebaNative_mathrot2:00000104 $d
C:\Users\PCHAUT~1\AppData\Local\Temp\ccvICu2w.s:3930   .rodata.AsebaNativeDescription_mathrot2:00000000 AsebaNativeDescription_mathrot2
C:\Users\PCHAUT~1\AppData\Local\Temp\ccvICu2w.s:3927   .rodata.AsebaNativeDescription_mathrot2:00000000 $d
C:\Users\PCHAUT~1\AppData\Local\Temp\ccvICu2w.s:3946   .text.AsebaNative_mathsqrt:00000000 $t
C:\Users\PCHAUT~1\AppData\Local\Temp\ccvICu2w.s:3954   .text.AsebaNative_mathsqrt:00000000 AsebaNative_mathsqrt
C:\Users\PCHAUT~1\AppData\Local\Temp\ccvICu2w.s:4045   .text.AsebaNative_mathsqrt:000000a0 $d
C:\Users\PCHAUT~1\AppData\Local\Temp\ccvICu2w.s:4061   .rodata.AsebaNativeDescription_mathsqrt:00000000 AsebaNativeDescription_mathsqrt
C:\Users\PCHAUT~1\AppData\Local\Temp\ccvICu2w.s:4058   .rodata.AsebaNativeDescription_mathsqrt:00000000 $d
C:\Users\PCHAUT~1\AppData\Local\Temp\ccvICu2w.s:4074   .text.AsebaNative_vecnonzerosequence:00000000 $t
C:\Users\PCHAUT~1\AppData\Local\Temp\ccvICu2w.s:4082   .text.AsebaNative_vecnonzerosequence:00000000 AsebaNative_vecnonzerosequence
C:\Users\PCHAUT~1\AppData\Local\Temp\ccvICu2w.s:4410   .text.AsebaNative_vecnonzerosequence:0000028c $d
C:\Users\PCHAUT~1\AppData\Local\Temp\ccvICu2w.s:4431   .rodata.AsebaNativeDescription_vecnonzerosequence:00000000 AsebaNativeDescription_vecnonzerosequence
C:\Users\PCHAUT~1\AppData\Local\Temp\ccvICu2w.s:4428   .rodata.AsebaNativeDescription_vecnonzerosequence:00000000 $d
C:\Users\PCHAUT~1\AppData\Local\Temp\ccvICu2w.s:4447   .bss.rnd_state:00000000 $d
C:\Users\PCHAUT~1\AppData\Local\Temp\ccvICu2w.s:4450   .bss.rnd_state:00000000 rnd_state
C:\Users\PCHAUT~1\AppData\Local\Temp\ccvICu2w.s:4453   .text.AsebaSetRandomSeed:00000000 $t
C:\Users\PCHAUT~1\AppData\Local\Temp\ccvICu2w.s:4461   .text.AsebaSetRandomSeed:00000000 AsebaSetRandomSeed
C:\Users\PCHAUT~1\AppData\Local\Temp\ccvICu2w.s:4498   .text.AsebaSetRandomSeed:00000030 $d
C:\Users\PCHAUT~1\AppData\Local\Temp\ccvICu2w.s:4504   .text.AsebaGetRandom:00000000 $t
C:\Users\PCHAUT~1\AppData\Local\Temp\ccvICu2w.s:4512   .text.AsebaGetRandom:00000000 AsebaGetRandom
C:\Users\PCHAUT~1\AppData\Local\Temp\ccvICu2w.s:4568   .text.AsebaGetRandom:00000050 $d
C:\Users\PCHAUT~1\AppData\Local\Temp\ccvICu2w.s:4574   .text.AsebaNative_rand:00000000 $t
C:\Users\PCHAUT~1\AppData\Local\Temp\ccvICu2w.s:4582   .text.AsebaNative_rand:00000000 AsebaNative_rand
C:\Users\PCHAUT~1\AppData\Local\Temp\ccvICu2w.s:4652   .text.AsebaNative_rand:00000078 $d
C:\Users\PCHAUT~1\AppData\Local\Temp\ccvICu2w.s:4668   .rodata.AsebaNativeDescription_rand:00000000 AsebaNativeDescription_rand
C:\Users\PCHAUT~1\AppData\Local\Temp\ccvICu2w.s:4665   .rodata.AsebaNativeDescription_rand:00000000 $d

UNDEFINED SYMBOLS
__stack_chk_fail
__stack_chk_guard
AsebaSendMessage
