ARM GAS  C:\Users\PCHAUT~1\AppData\Local\Temp\ccgLdkCx.s 			page 1


   1              		.cpu cortex-m4
   2              		.eabi_attribute 27, 1
   3              		.eabi_attribute 28, 1
   4              		.eabi_attribute 20, 1
   5              		.eabi_attribute 21, 1
   6              		.eabi_attribute 23, 3
   7              		.eabi_attribute 24, 1
   8              		.eabi_attribute 25, 1
   9              		.eabi_attribute 26, 1
  10              		.eabi_attribute 30, 6
  11              		.eabi_attribute 34, 1
  12              		.eabi_attribute 18, 4
  13              		.file	"newlib_syscalls.c"
  14              		.text
  15              	.Ltext0:
  16              		.cfi_sections	.debug_frame
  17              		.section	.text._read_r,"ax",%progbits
  18              		.align	1
  19              		.p2align 4,,15
  20              		.global	_read_r
  21              		.syntax unified
  22              		.thumb
  23              		.thumb_func
  24              		.fpu fpv4-sp-d16
  25              		.type	_read_r, %function
  26              	_read_r:
  27              	.LFB256:
  28              		.file 1 "../lib/e-puck2_main-processor/src/chibios-syscalls/newlib_syscalls.c"
  29              		.loc 1 16 0
  30              		.cfi_startproc
  31              		@ args = 0, pretend = 0, frame = 24
  32              		@ frame_needed = 0, uses_anonymous_args = 0
  33 0000 00B5     		push	{lr}
  34              		.cfi_def_cfa_offset 4
  35              		.cfi_offset 14, -4
  36 0002 87B0     		sub	sp, sp, #28
  37              		.cfi_def_cfa_offset 32
  38 0004 0390     		str	r0, [sp, #12]
  39 0006 0291     		str	r1, [sp, #8]
  40 0008 0192     		str	r2, [sp, #4]
  41 000a 0093     		str	r3, [sp]
  42              		.loc 1 16 0
  43 000c 114B     		ldr	r3, .L6
  44 000e 1B68     		ldr	r3, [r3]
  45 0010 0593     		str	r3, [sp, #20]
  46              		.loc 1 19 0
  47 0012 009B     		ldr	r3, [sp]
  48 0014 002B     		cmp	r3, #0
  49 0016 02D0     		beq	.L2
  50              		.loc 1 19 0 is_stmt 0 discriminator 1
  51 0018 029B     		ldr	r3, [sp, #8]
  52 001a 002B     		cmp	r3, #0
  53 001c 05D0     		beq	.L3
  54              	.L2:
  55              		.loc 1 20 0 is_stmt 1
  56 001e 039B     		ldr	r3, [sp, #12]
  57 0020 1622     		movs	r2, #22
ARM GAS  C:\Users\PCHAUT~1\AppData\Local\Temp\ccgLdkCx.s 			page 2


  58 0022 1A60     		str	r2, [r3]
  59              		.loc 1 21 0
  60 0024 4FF0FF33 		mov	r3, #-1
  61 0028 09E0     		b	.L4
  62              	.L3:
  63              		.loc 1 23 0
  64 002a 0B4B     		ldr	r3, .L6+4
  65 002c 1B68     		ldr	r3, [r3]
  66 002e 5B68     		ldr	r3, [r3, #4]
  67 0030 009A     		ldr	r2, [sp]
  68 0032 0199     		ldr	r1, [sp, #4]
  69 0034 0848     		ldr	r0, .L6+4
  70 0036 9847     		blx	r3
  71              	.LVL0:
  72 0038 0346     		mov	r3, r0
  73 003a 0093     		str	r3, [sp]
  74              		.loc 1 24 0
  75 003c 009B     		ldr	r3, [sp]
  76              	.L4:
  77              		.loc 1 32 0
  78 003e 1846     		mov	r0, r3
  79 0040 044B     		ldr	r3, .L6
  80 0042 059A     		ldr	r2, [sp, #20]
  81 0044 1B68     		ldr	r3, [r3]
  82 0046 9A42     		cmp	r2, r3
  83 0048 01D0     		beq	.L5
  84 004a FFF7FEFF 		bl	__stack_chk_fail
  85              	.L5:
  86 004e 07B0     		add	sp, sp, #28
  87              		.cfi_def_cfa_offset 4
  88              		@ sp needed
  89 0050 5DF804FB 		ldr	pc, [sp], #4
  90              	.L7:
  91              		.align	2
  92              	.L6:
  93 0054 00000000 		.word	__stack_chk_guard
  94 0058 00000000 		.word	SDU1
  95              		.cfi_endproc
  96              	.LFE256:
  97              		.size	_read_r, .-_read_r
  98              		.section	.text._lseek_r,"ax",%progbits
  99              		.align	1
 100              		.p2align 4,,15
 101              		.global	_lseek_r
 102              		.syntax unified
 103              		.thumb
 104              		.thumb_func
 105              		.fpu fpv4-sp-d16
 106              		.type	_lseek_r, %function
 107              	_lseek_r:
 108              	.LFB257:
 109              		.loc 1 35 0
 110              		.cfi_startproc
 111              		@ args = 0, pretend = 0, frame = 24
 112              		@ frame_needed = 0, uses_anonymous_args = 0
 113 0000 00B5     		push	{lr}
 114              		.cfi_def_cfa_offset 4
ARM GAS  C:\Users\PCHAUT~1\AppData\Local\Temp\ccgLdkCx.s 			page 3


 115              		.cfi_offset 14, -4
 116 0002 87B0     		sub	sp, sp, #28
 117              		.cfi_def_cfa_offset 32
 118 0004 0390     		str	r0, [sp, #12]
 119 0006 0291     		str	r1, [sp, #8]
 120 0008 0192     		str	r2, [sp, #4]
 121 000a 0093     		str	r3, [sp]
 122              		.loc 1 35 0
 123 000c 074B     		ldr	r3, .L11
 124 000e 1B68     		ldr	r3, [r3]
 125 0010 0593     		str	r3, [sp, #20]
 126              		.loc 1 41 0
 127 0012 0023     		movs	r3, #0
 128              		.loc 1 42 0
 129 0014 1846     		mov	r0, r3
 130 0016 054B     		ldr	r3, .L11
 131 0018 059A     		ldr	r2, [sp, #20]
 132 001a 1B68     		ldr	r3, [r3]
 133 001c 9A42     		cmp	r2, r3
 134 001e 01D0     		beq	.L10
 135 0020 FFF7FEFF 		bl	__stack_chk_fail
 136              	.L10:
 137 0024 07B0     		add	sp, sp, #28
 138              		.cfi_def_cfa_offset 4
 139              		@ sp needed
 140 0026 5DF804FB 		ldr	pc, [sp], #4
 141              	.L12:
 142 002a 00BF     		.align	2
 143              	.L11:
 144 002c 00000000 		.word	__stack_chk_guard
 145              		.cfi_endproc
 146              	.LFE257:
 147              		.size	_lseek_r, .-_lseek_r
 148              		.section	.text._write_r,"ax",%progbits
 149              		.align	1
 150              		.p2align 4,,15
 151              		.global	_write_r
 152              		.syntax unified
 153              		.thumb
 154              		.thumb_func
 155              		.fpu fpv4-sp-d16
 156              		.type	_write_r, %function
 157              	_write_r:
 158              	.LFB258:
 159              		.loc 1 45 0
 160              		.cfi_startproc
 161              		@ args = 0, pretend = 0, frame = 24
 162              		@ frame_needed = 0, uses_anonymous_args = 0
 163 0000 00B5     		push	{lr}
 164              		.cfi_def_cfa_offset 4
 165              		.cfi_offset 14, -4
 166 0002 87B0     		sub	sp, sp, #28
 167              		.cfi_def_cfa_offset 32
 168 0004 0390     		str	r0, [sp, #12]
 169 0006 0291     		str	r1, [sp, #8]
 170 0008 0192     		str	r2, [sp, #4]
 171 000a 0093     		str	r3, [sp]
ARM GAS  C:\Users\PCHAUT~1\AppData\Local\Temp\ccgLdkCx.s 			page 4


 172              		.loc 1 45 0
 173 000c 0F4B     		ldr	r3, .L17
 174 000e 1B68     		ldr	r3, [r3]
 175 0010 0593     		str	r3, [sp, #20]
 176              		.loc 1 50 0
 177 0012 029B     		ldr	r3, [sp, #8]
 178 0014 012B     		cmp	r3, #1
 179 0016 05D0     		beq	.L14
 180              		.loc 1 51 0
 181 0018 039B     		ldr	r3, [sp, #12]
 182 001a 1622     		movs	r2, #22
 183 001c 1A60     		str	r2, [r3]
 184              		.loc 1 52 0
 185 001e 4FF0FF33 		mov	r3, #-1
 186 0022 07E0     		b	.L15
 187              	.L14:
 188              		.loc 1 54 0
 189 0024 0A4B     		ldr	r3, .L17+4
 190 0026 1B68     		ldr	r3, [r3]
 191 0028 1B68     		ldr	r3, [r3]
 192 002a 009A     		ldr	r2, [sp]
 193 002c 0199     		ldr	r1, [sp, #4]
 194 002e 0848     		ldr	r0, .L17+4
 195 0030 9847     		blx	r3
 196              	.LVL1:
 197              		.loc 1 56 0
 198 0032 009B     		ldr	r3, [sp]
 199              	.L15:
 200              		.loc 1 57 0
 201 0034 1846     		mov	r0, r3
 202 0036 054B     		ldr	r3, .L17
 203 0038 059A     		ldr	r2, [sp, #20]
 204 003a 1B68     		ldr	r3, [r3]
 205 003c 9A42     		cmp	r2, r3
 206 003e 01D0     		beq	.L16
 207 0040 FFF7FEFF 		bl	__stack_chk_fail
 208              	.L16:
 209 0044 07B0     		add	sp, sp, #28
 210              		.cfi_def_cfa_offset 4
 211              		@ sp needed
 212 0046 5DF804FB 		ldr	pc, [sp], #4
 213              	.L18:
 214 004a 00BF     		.align	2
 215              	.L17:
 216 004c 00000000 		.word	__stack_chk_guard
 217 0050 00000000 		.word	SDU1
 218              		.cfi_endproc
 219              	.LFE258:
 220              		.size	_write_r, .-_write_r
 221              		.section	.text._close_r,"ax",%progbits
 222              		.align	1
 223              		.p2align 4,,15
 224              		.global	_close_r
 225              		.syntax unified
 226              		.thumb
 227              		.thumb_func
 228              		.fpu fpv4-sp-d16
ARM GAS  C:\Users\PCHAUT~1\AppData\Local\Temp\ccgLdkCx.s 			page 5


 229              		.type	_close_r, %function
 230              	_close_r:
 231              	.LFB259:
 232              		.loc 1 60 0
 233              		.cfi_startproc
 234              		@ args = 0, pretend = 0, frame = 16
 235              		@ frame_needed = 0, uses_anonymous_args = 0
 236 0000 00B5     		push	{lr}
 237              		.cfi_def_cfa_offset 4
 238              		.cfi_offset 14, -4
 239 0002 85B0     		sub	sp, sp, #20
 240              		.cfi_def_cfa_offset 24
 241 0004 0190     		str	r0, [sp, #4]
 242 0006 0091     		str	r1, [sp]
 243              		.loc 1 60 0
 244 0008 074B     		ldr	r3, .L22
 245 000a 1B68     		ldr	r3, [r3]
 246 000c 0393     		str	r3, [sp, #12]
 247              		.loc 1 64 0
 248 000e 0023     		movs	r3, #0
 249              		.loc 1 65 0
 250 0010 1846     		mov	r0, r3
 251 0012 054B     		ldr	r3, .L22
 252 0014 039A     		ldr	r2, [sp, #12]
 253 0016 1B68     		ldr	r3, [r3]
 254 0018 9A42     		cmp	r2, r3
 255 001a 01D0     		beq	.L21
 256 001c FFF7FEFF 		bl	__stack_chk_fail
 257              	.L21:
 258 0020 05B0     		add	sp, sp, #20
 259              		.cfi_def_cfa_offset 4
 260              		@ sp needed
 261 0022 5DF804FB 		ldr	pc, [sp], #4
 262              	.L23:
 263 0026 00BF     		.align	2
 264              	.L22:
 265 0028 00000000 		.word	__stack_chk_guard
 266              		.cfi_endproc
 267              	.LFE259:
 268              		.size	_close_r, .-_close_r
 269              		.section	.text._sbrk_r,"ax",%progbits
 270              		.align	1
 271              		.p2align 4,,15
 272              		.global	_sbrk_r
 273              		.syntax unified
 274              		.thumb
 275              		.thumb_func
 276              		.fpu fpv4-sp-d16
 277              		.type	_sbrk_r, %function
 278              	_sbrk_r:
 279              	.LFB260:
 280              		.loc 1 68 0
 281              		.cfi_startproc
 282              		@ args = 0, pretend = 0, frame = 16
 283              		@ frame_needed = 0, uses_anonymous_args = 0
 284 0000 00B5     		push	{lr}
 285              		.cfi_def_cfa_offset 4
ARM GAS  C:\Users\PCHAUT~1\AppData\Local\Temp\ccgLdkCx.s 			page 6


 286              		.cfi_offset 14, -4
 287 0002 85B0     		sub	sp, sp, #20
 288              		.cfi_def_cfa_offset 24
 289 0004 0190     		str	r0, [sp, #4]
 290 0006 0091     		str	r1, [sp]
 291              		.loc 1 68 0
 292 0008 114B     		ldr	r3, .L29
 293 000a 1B68     		ldr	r3, [r3]
 294 000c 0393     		str	r3, [sp, #12]
 295              		.loc 1 72 0
 296 000e 009B     		ldr	r3, [sp]
 297 0010 002B     		cmp	r3, #0
 298 0012 02DC     		bgt	.L25
 299              		.loc 1 72 0 is_stmt 0 discriminator 2
 300 0014 0F48     		ldr	r0, .L29+4
 301 0016 FFF7FEFF 		bl	chSysHalt
 302              	.L25:
 303              		.loc 1 74 0 is_stmt 1
 304 001a 009B     		ldr	r3, [sp]
 305 001c 1846     		mov	r0, r3
 306 001e FFF7FEFF 		bl	chCoreAlloc
 307 0022 0290     		str	r0, [sp, #8]
 308              		.loc 1 75 0
 309 0024 029B     		ldr	r3, [sp, #8]
 310 0026 002B     		cmp	r3, #0
 311 0028 05D1     		bne	.L26
 312              		.loc 1 76 0
 313 002a 019B     		ldr	r3, [sp, #4]
 314 002c 0C22     		movs	r2, #12
 315 002e 1A60     		str	r2, [r3]
 316              		.loc 1 77 0
 317 0030 4FF0FF33 		mov	r3, #-1
 318 0034 00E0     		b	.L27
 319              	.L26:
 320              		.loc 1 79 0
 321 0036 029B     		ldr	r3, [sp, #8]
 322              	.L27:
 323              		.loc 1 85 0
 324 0038 1846     		mov	r0, r3
 325 003a 054B     		ldr	r3, .L29
 326 003c 039A     		ldr	r2, [sp, #12]
 327 003e 1B68     		ldr	r3, [r3]
 328 0040 9A42     		cmp	r2, r3
 329 0042 01D0     		beq	.L28
 330 0044 FFF7FEFF 		bl	__stack_chk_fail
 331              	.L28:
 332 0048 05B0     		add	sp, sp, #20
 333              		.cfi_def_cfa_offset 4
 334              		@ sp needed
 335 004a 5DF804FB 		ldr	pc, [sp], #4
 336              	.L30:
 337 004e 00BF     		.align	2
 338              	.L29:
 339 0050 00000000 		.word	__stack_chk_guard
 340 0054 00000000 		.word	__func__.10923
 341              		.cfi_endproc
 342              	.LFE260:
ARM GAS  C:\Users\PCHAUT~1\AppData\Local\Temp\ccgLdkCx.s 			page 7


 343              		.size	_sbrk_r, .-_sbrk_r
 344              		.section	.text._fstat_r,"ax",%progbits
 345              		.align	1
 346              		.p2align 4,,15
 347              		.global	_fstat_r
 348              		.syntax unified
 349              		.thumb
 350              		.thumb_func
 351              		.fpu fpv4-sp-d16
 352              		.type	_fstat_r, %function
 353              	_fstat_r:
 354              	.LFB261:
 355              		.loc 1 88 0
 356              		.cfi_startproc
 357              		@ args = 0, pretend = 0, frame = 24
 358              		@ frame_needed = 0, uses_anonymous_args = 0
 359 0000 00B5     		push	{lr}
 360              		.cfi_def_cfa_offset 4
 361              		.cfi_offset 14, -4
 362 0002 87B0     		sub	sp, sp, #28
 363              		.cfi_def_cfa_offset 32
 364 0004 0390     		str	r0, [sp, #12]
 365 0006 0291     		str	r1, [sp, #8]
 366 0008 0192     		str	r2, [sp, #4]
 367              		.loc 1 88 0
 368 000a 0C4B     		ldr	r3, .L34
 369 000c 1B68     		ldr	r3, [r3]
 370 000e 0593     		str	r3, [sp, #20]
 371              		.loc 1 92 0
 372 0010 5822     		movs	r2, #88
 373 0012 0021     		movs	r1, #0
 374 0014 0198     		ldr	r0, [sp, #4]
 375 0016 FFF7FEFF 		bl	memset
 376              		.loc 1 93 0
 377 001a 019B     		ldr	r3, [sp, #4]
 378 001c 4FF40052 		mov	r2, #8192
 379 0020 5A60     		str	r2, [r3, #4]
 380              		.loc 1 94 0
 381 0022 0023     		movs	r3, #0
 382              		.loc 1 95 0
 383 0024 1846     		mov	r0, r3
 384 0026 054B     		ldr	r3, .L34
 385 0028 059A     		ldr	r2, [sp, #20]
 386 002a 1B68     		ldr	r3, [r3]
 387 002c 9A42     		cmp	r2, r3
 388 002e 01D0     		beq	.L33
 389 0030 FFF7FEFF 		bl	__stack_chk_fail
 390              	.L33:
 391 0034 07B0     		add	sp, sp, #28
 392              		.cfi_def_cfa_offset 4
 393              		@ sp needed
 394 0036 5DF804FB 		ldr	pc, [sp], #4
 395              	.L35:
 396 003a 00BF     		.align	2
 397              	.L34:
 398 003c 00000000 		.word	__stack_chk_guard
 399              		.cfi_endproc
ARM GAS  C:\Users\PCHAUT~1\AppData\Local\Temp\ccgLdkCx.s 			page 8


 400              	.LFE261:
 401              		.size	_fstat_r, .-_fstat_r
 402              		.section	.text._isatty_r,"ax",%progbits
 403              		.align	1
 404              		.p2align 4,,15
 405              		.global	_isatty_r
 406              		.syntax unified
 407              		.thumb
 408              		.thumb_func
 409              		.fpu fpv4-sp-d16
 410              		.type	_isatty_r, %function
 411              	_isatty_r:
 412              	.LFB262:
 413              		.loc 1 98 0
 414              		.cfi_startproc
 415              		@ args = 0, pretend = 0, frame = 16
 416              		@ frame_needed = 0, uses_anonymous_args = 0
 417 0000 00B5     		push	{lr}
 418              		.cfi_def_cfa_offset 4
 419              		.cfi_offset 14, -4
 420 0002 85B0     		sub	sp, sp, #20
 421              		.cfi_def_cfa_offset 24
 422 0004 0190     		str	r0, [sp, #4]
 423 0006 0091     		str	r1, [sp]
 424              		.loc 1 98 0
 425 0008 074B     		ldr	r3, .L39
 426 000a 1B68     		ldr	r3, [r3]
 427 000c 0393     		str	r3, [sp, #12]
 428              		.loc 1 102 0
 429 000e 0123     		movs	r3, #1
 430              		.loc 1 103 0
 431 0010 1846     		mov	r0, r3
 432 0012 054B     		ldr	r3, .L39
 433 0014 039A     		ldr	r2, [sp, #12]
 434 0016 1B68     		ldr	r3, [r3]
 435 0018 9A42     		cmp	r2, r3
 436 001a 01D0     		beq	.L38
 437 001c FFF7FEFF 		bl	__stack_chk_fail
 438              	.L38:
 439 0020 05B0     		add	sp, sp, #20
 440              		.cfi_def_cfa_offset 4
 441              		@ sp needed
 442 0022 5DF804FB 		ldr	pc, [sp], #4
 443              	.L40:
 444 0026 00BF     		.align	2
 445              	.L39:
 446 0028 00000000 		.word	__stack_chk_guard
 447              		.cfi_endproc
 448              	.LFE262:
 449              		.size	_isatty_r, .-_isatty_r
 450              		.section	.text._fini,"ax",%progbits
 451              		.align	1
 452              		.p2align 4,,15
 453              		.global	_fini
 454              		.syntax unified
 455              		.thumb
 456              		.thumb_func
ARM GAS  C:\Users\PCHAUT~1\AppData\Local\Temp\ccgLdkCx.s 			page 9


 457              		.fpu fpv4-sp-d16
 458              		.type	_fini, %function
 459              	_fini:
 460              	.LFB263:
 461              		.loc 1 107 0
 462              		.cfi_startproc
 463              		@ args = 0, pretend = 0, frame = 8
 464              		@ frame_needed = 0, uses_anonymous_args = 0
 465 0000 00B5     		push	{lr}
 466              		.cfi_def_cfa_offset 4
 467              		.cfi_offset 14, -4
 468 0002 83B0     		sub	sp, sp, #12
 469              		.cfi_def_cfa_offset 16
 470              		.loc 1 107 0
 471 0004 064B     		ldr	r3, .L43
 472 0006 1B68     		ldr	r3, [r3]
 473 0008 0193     		str	r3, [sp, #4]
 474              		.loc 1 109 0
 475 000a 00BF     		nop
 476 000c 044B     		ldr	r3, .L43
 477 000e 019A     		ldr	r2, [sp, #4]
 478 0010 1B68     		ldr	r3, [r3]
 479 0012 9A42     		cmp	r2, r3
 480 0014 01D0     		beq	.L42
 481 0016 FFF7FEFF 		bl	__stack_chk_fail
 482              	.L42:
 483 001a 03B0     		add	sp, sp, #12
 484              		.cfi_def_cfa_offset 4
 485              		@ sp needed
 486 001c 5DF804FB 		ldr	pc, [sp], #4
 487              	.L44:
 488              		.align	2
 489              	.L43:
 490 0020 00000000 		.word	__stack_chk_guard
 491              		.cfi_endproc
 492              	.LFE263:
 493              		.size	_fini, .-_fini
 494              		.section	.rodata.__func__.10923,"a",%progbits
 495              		.align	2
 496              		.type	__func__.10923, %object
 497              		.size	__func__.10923, 8
 498              	__func__.10923:
 499 0000 5F736272 		.ascii	"_sbrk_r\000"
 499      6B5F7200 
 500              		.text
 501              	.Letext0:
 502              		.file 2 "c:\\users\\pchautems\\documents\\robotiquetp\\eclipse_e-puck2\\tools\\gcc-arm-none-eabi-7
 503              		.file 3 "c:\\users\\pchautems\\documents\\robotiquetp\\eclipse_e-puck2\\tools\\gcc-arm-none-eabi-7
 504              		.file 4 "c:\\users\\pchautems\\documents\\robotiquetp\\eclipse_e-puck2\\tools\\gcc-arm-none-eabi-7
 505              		.file 5 "c:\\users\\pchautems\\documents\\robotiquetp\\eclipse_e-puck2\\tools\\gcc-arm-none-eabi-7
 506              		.file 6 "c:\\users\\pchautems\\documents\\robotiquetp\\eclipse_e-puck2\\tools\\gcc-arm-none-eabi-7
 507              		.file 7 "c:\\users\\pchautems\\documents\\robotiquetp\\eclipse_e-puck2\\tools\\gcc-arm-none-eabi-7
 508              		.file 8 "c:\\users\\pchautems\\documents\\robotiquetp\\eclipse_e-puck2\\tools\\gcc-arm-none-eabi-7
 509              		.file 9 "c:\\users\\pchautems\\documents\\robotiquetp\\eclipse_e-puck2\\tools\\gcc-arm-none-eabi-7
 510              		.file 10 "c:\\users\\pchautems\\documents\\robotiquetp\\eclipse_e-puck2\\tools\\gcc-arm-none-eabi-
 511              		.file 11 "c:\\users\\pchautems\\documents\\robotiquetp\\eclipse_e-puck2\\tools\\gcc-arm-none-eabi-
 512              		.file 12 "c:\\users\\pchautems\\documents\\robotiquetp\\eclipse_e-puck2\\tools\\gcc-arm-none-eabi-
ARM GAS  C:\Users\PCHAUT~1\AppData\Local\Temp\ccgLdkCx.s 			page 10


 513              		.file 13 "c:\\users\\pchautems\\documents\\robotiquetp\\eclipse_e-puck2\\tools\\gcc-arm-none-eabi-
 514              		.file 14 "../lib/e-puck2_main-processor/ChibiOS//os/rt/ports/ARMCMx/compilers/GCC/chtypes.h"
 515              		.file 15 "../lib/e-puck2_main-processor/ChibiOS//os/rt/include/chsystypes.h"
 516              		.file 16 "../lib/e-puck2_main-processor/ChibiOS//os/rt/include/chschd.h"
 517              		.file 17 "../lib/e-puck2_main-processor/ChibiOS//os/ext/CMSIS/include/core_cm4.h"
 518              		.file 18 "../lib/e-puck2_main-processor/ChibiOS//os/ext/CMSIS/ST/system_stm32f4xx.h"
 519              		.file 19 "../lib/e-puck2_main-processor/ChibiOS//os/ext/CMSIS/ST/stm32f407xx.h"
 520              		.file 20 "../lib/e-puck2_main-processor/ChibiOS//os/rt/ports/ARMCMx/chcore.h"
 521              		.file 21 "../lib/e-puck2_main-processor/ChibiOS//os/rt/ports/ARMCMx/chcore_v7m.h"
 522              		.file 22 "../lib/e-puck2_main-processor/ChibiOS//os/rt/include/chdebug.h"
 523              		.file 23 "../lib/e-puck2_main-processor/ChibiOS//os/rt/include/chtm.h"
 524              		.file 24 "../lib/e-puck2_main-processor/ChibiOS//os/rt/include/chstats.h"
 525              		.file 25 "../lib/e-puck2_main-processor/ChibiOS//os/rt/include/chsem.h"
 526              		.file 26 "../lib/e-puck2_main-processor/ChibiOS//os/rt/include/chmtx.h"
 527              		.file 27 "../lib/e-puck2_main-processor/ChibiOS//os/rt/include/chregistry.h"
 528              		.file 28 "../lib/e-puck2_main-processor/ChibiOS//os/rt/include/chevents.h"
 529              		.file 29 "../lib/e-puck2_main-processor/ChibiOS//os/rt/include/chqueues.h"
 530              		.file 30 "../lib/e-puck2_main-processor/ChibiOS//os/rt/include/chstreams.h"
 531              		.file 31 "../lib/e-puck2_main-processor/ChibiOS//os/hal/ports/STM32/STM32F4xx/stm32_dma.h"
 532              		.file 32 "../lib/e-puck2_main-processor/ChibiOS//os/hal/include/hal_ioblock.h"
 533              		.file 33 "../lib/e-puck2_main-processor/ChibiOS//os/hal/ports/STM32/LLD/GPIOv2/pal_lld.h"
 534              		.file 34 "../lib/e-puck2_main-processor/ChibiOS//os/hal/include/adc.h"
 535              		.file 35 "../lib/e-puck2_main-processor/ChibiOS//os/hal/ports/STM32/STM32F4xx/adc_lld.h"
 536              		.file 36 "../lib/e-puck2_main-processor/ChibiOS//os/hal/include/can.h"
 537              		.file 37 "../lib/e-puck2_main-processor/ChibiOS//os/hal/ports/STM32/LLD/can_lld.h"
 538              		.file 38 "../lib/e-puck2_main-processor/ChibiOS//os/hal/include/dac.h"
 539              		.file 39 "../lib/e-puck2_main-processor/ChibiOS//os/hal/ports/STM32/LLD/DACv1/dac_lld.h"
 540              		.file 40 "../lib/e-puck2_main-processor/ChibiOS//os/hal/include/ext.h"
 541              		.file 41 "../lib/e-puck2_main-processor/ChibiOS//os/hal/ports/STM32/LLD/ext_lld.h"
 542              		.file 42 "../lib/e-puck2_main-processor/ChibiOS//os/hal/include/gpt.h"
 543              		.file 43 "../lib/e-puck2_main-processor/ChibiOS//os/hal/ports/STM32/LLD/TIMv1/gpt_lld.h"
 544              		.file 44 "../lib/e-puck2_main-processor/ChibiOS//os/hal/ports/STM32/LLD/TIMv1/stm32_tim.h"
 545              		.file 45 "../lib/e-puck2_main-processor/ChibiOS//os/hal/include/i2c.h"
 546              		.file 46 "../lib/e-puck2_main-processor/ChibiOS//os/hal/ports/STM32/LLD/I2Cv1/i2c_lld.h"
 547              		.file 47 "../lib/e-puck2_main-processor/ChibiOS//os/hal/include/i2s.h"
 548              		.file 48 "../lib/e-puck2_main-processor/ChibiOS//os/hal/ports/STM32/LLD/SPIv1/i2s_lld.h"
 549              		.file 49 "../lib/e-puck2_main-processor/ChibiOS//os/hal/include/pwm.h"
 550              		.file 50 "../lib/e-puck2_main-processor/ChibiOS//os/hal/ports/STM32/LLD/TIMv1/pwm_lld.h"
 551              		.file 51 "../lib/e-puck2_main-processor/ChibiOS//os/hal/include/serial.h"
 552              		.file 52 "../lib/e-puck2_main-processor/ChibiOS//os/hal/ports/STM32/LLD/USARTv1/serial_lld.h"
 553              		.file 53 "../lib/e-puck2_main-processor/ChibiOS//os/hal/include/sdc.h"
 554              		.file 54 "../lib/e-puck2_main-processor/ChibiOS//os/hal/ports/STM32/LLD/sdc_lld.h"
 555              		.file 55 "../lib/e-puck2_main-processor/ChibiOS//os/hal/include/spi.h"
 556              		.file 56 "../lib/e-puck2_main-processor/ChibiOS//os/hal/ports/STM32/LLD/SPIv1/spi_lld.h"
 557              		.file 57 "../lib/e-puck2_main-processor/ChibiOS//os/hal/include/usb.h"
 558              		.file 58 "../lib/e-puck2_main-processor/ChibiOS//os/hal/ports/STM32/LLD/OTGv1/usb_lld.h"
 559              		.file 59 "../lib/e-puck2_main-processor/ChibiOS//os/hal/ports/STM32/LLD/OTGv1/stm32_otg.h"