ARM GAS  C:\Users\PCHAUT~1\AppData\Local\Temp\ccmBgndF.s 			page 1


   1              		.cpu cortex-m4
   2              		.eabi_attribute 27, 1
   3              		.eabi_attribute 28, 1
   4              		.eabi_attribute 20, 1
   5              		.eabi_attribute 21, 1
   6              		.eabi_attribute 23, 3
   7              		.eabi_attribute 24, 1
   8              		.eabi_attribute 25, 1
   9              		.eabi_attribute 26, 1
  10              		.eabi_attribute 30, 6
  11              		.eabi_attribute 34, 1
  12              		.eabi_attribute 18, 4
  13              		.file	"parameter_print.c"
  14              		.text
  15              	.Ltext0:
  16              		.cfi_sections	.debug_frame
  17              		.section	.rodata
  18              		.align	2
  19              	.LC0:
  20 0000 202000   		.ascii	"  \000"
  21              		.section	.text.indent,"ax",%progbits
  22              		.align	1
  23              		.p2align 4,,15
  24              		.syntax unified
  25              		.thumb
  26              		.thumb_func
  27              		.fpu fpv4-sp-d16
  28              		.type	indent, %function
  29              	indent:
  30              	.LFB0:
  31              		.file 1 "../lib/e-puck2_main-processor/src/parameter/parameter_print.c"
  32              		.loc 1 10 0
  33              		.cfi_startproc
  34              		@ args = 0, pretend = 0, frame = 24
  35              		@ frame_needed = 0, uses_anonymous_args = 0
  36 0000 00B5     		push	{lr}
  37              		.cfi_def_cfa_offset 4
  38              		.cfi_offset 14, -4
  39 0002 87B0     		sub	sp, sp, #28
  40              		.cfi_def_cfa_offset 32
  41 0004 0390     		str	r0, [sp, #12]
  42 0006 0291     		str	r1, [sp, #8]
  43 0008 0192     		str	r2, [sp, #4]
  44              		.loc 1 10 0
  45 000a 0E4B     		ldr	r3, .L5
  46 000c 1B68     		ldr	r3, [r3]
  47 000e 0593     		str	r3, [sp, #20]
  48              		.loc 1 12 0
  49 0010 0023     		movs	r3, #0
  50 0012 0493     		str	r3, [sp, #16]
  51 0014 06E0     		b	.L2
  52              	.L3:
  53              		.loc 1 13 0 discriminator 3
  54 0016 029B     		ldr	r3, [sp, #8]
  55 0018 0B49     		ldr	r1, .L5+4
  56 001a 0198     		ldr	r0, [sp, #4]
  57 001c 9847     		blx	r3
ARM GAS  C:\Users\PCHAUT~1\AppData\Local\Temp\ccmBgndF.s 			page 2


  58              	.LVL0:
  59              		.loc 1 12 0 discriminator 3
  60 001e 049B     		ldr	r3, [sp, #16]
  61 0020 0133     		adds	r3, r3, #1
  62 0022 0493     		str	r3, [sp, #16]
  63              	.L2:
  64              		.loc 1 12 0 is_stmt 0 discriminator 1
  65 0024 049A     		ldr	r2, [sp, #16]
  66 0026 039B     		ldr	r3, [sp, #12]
  67 0028 9A42     		cmp	r2, r3
  68 002a F4DB     		blt	.L3
  69              		.loc 1 15 0 is_stmt 1
  70 002c 00BF     		nop
  71 002e 054B     		ldr	r3, .L5
  72 0030 059A     		ldr	r2, [sp, #20]
  73 0032 1B68     		ldr	r3, [r3]
  74 0034 9A42     		cmp	r2, r3
  75 0036 01D0     		beq	.L4
  76 0038 FFF7FEFF 		bl	__stack_chk_fail
  77              	.L4:
  78 003c 07B0     		add	sp, sp, #28
  79              		.cfi_def_cfa_offset 4
  80              		@ sp needed
  81 003e 5DF804FB 		ldr	pc, [sp], #4
  82              	.L6:
  83 0042 00BF     		.align	2
  84              	.L5:
  85 0044 00000000 		.word	__stack_chk_guard
  86 0048 00000000 		.word	.LC0
  87              		.cfi_endproc
  88              	.LFE0:
  89              		.size	indent, .-indent
  90              		.section	.rodata
  91 0003 00       		.align	2
  92              	.LC1:
  93 0004 5B00     		.ascii	"[\000"
  94              		.global	__aeabi_f2d
  95 0006 0000     		.align	2
  96              	.LC2:
  97 0008 256600   		.ascii	"%f\000"
  98 000b 00       		.align	2
  99              	.LC3:
 100 000c 25662C20 		.ascii	"%f, \000"
 100      00
 101 0011 000000   		.align	2
 102              	.LC4:
 103 0014 5D0A00   		.ascii	"]\012\000"
 104              		.section	.text.print_array,"ax",%progbits
 105              		.align	1
 106              		.p2align 4,,15
 107              		.syntax unified
 108              		.thumb
 109              		.thumb_func
 110              		.fpu fpv4-sp-d16
 111              		.type	print_array, %function
 112              	print_array:
 113              	.LFB1:
ARM GAS  C:\Users\PCHAUT~1\AppData\Local\Temp\ccmBgndF.s 			page 3


 114              		.loc 1 22 0
 115              		.cfi_startproc
 116              		@ args = 0, pretend = 0, frame = 24
 117              		@ frame_needed = 0, uses_anonymous_args = 0
 118 0000 10B5     		push	{r4, lr}
 119              		.cfi_def_cfa_offset 8
 120              		.cfi_offset 4, -8
 121              		.cfi_offset 14, -4
 122 0002 86B0     		sub	sp, sp, #24
 123              		.cfi_def_cfa_offset 32
 124 0004 0390     		str	r0, [sp, #12]
 125 0006 0291     		str	r1, [sp, #8]
 126 0008 0192     		str	r2, [sp, #4]
 127 000a 0093     		str	r3, [sp]
 128              		.loc 1 22 0
 129 000c 204B     		ldr	r3, .L13
 130 000e 1B68     		ldr	r3, [r3]
 131 0010 0593     		str	r3, [sp, #20]
 132              		.loc 1 23 0
 133 0012 019B     		ldr	r3, [sp, #4]
 134 0014 1F49     		ldr	r1, .L13+4
 135 0016 0098     		ldr	r0, [sp]
 136 0018 9847     		blx	r3
 137              	.LVL1:
 138              		.loc 1 25 0
 139 001a 0023     		movs	r3, #0
 140 001c 0493     		str	r3, [sp, #16]
 141 001e 24E0     		b	.L8
 142              	.L11:
 143              		.loc 1 26 0
 144 0020 029B     		ldr	r3, [sp, #8]
 145 0022 013B     		subs	r3, r3, #1
 146 0024 049A     		ldr	r2, [sp, #16]
 147 0026 9A42     		cmp	r2, r3
 148 0028 0ED1     		bne	.L9
 149              		.loc 1 27 0
 150 002a 049B     		ldr	r3, [sp, #16]
 151 002c 9B00     		lsls	r3, r3, #2
 152 002e 039A     		ldr	r2, [sp, #12]
 153 0030 1344     		add	r3, r3, r2
 154 0032 1B68     		ldr	r3, [r3]	@ float
 155 0034 1846     		mov	r0, r3	@ float
 156 0036 FFF7FEFF 		bl	__aeabi_f2d
 157              	.LVL2:
 158 003a 0246     		mov	r2, r0
 159 003c 0B46     		mov	r3, r1
 160 003e 019C     		ldr	r4, [sp, #4]
 161 0040 1549     		ldr	r1, .L13+8
 162 0042 0098     		ldr	r0, [sp]
 163 0044 A047     		blx	r4
 164              	.LVL3:
 165 0046 0DE0     		b	.L10
 166              	.L9:
 167              		.loc 1 29 0
 168 0048 049B     		ldr	r3, [sp, #16]
 169 004a 9B00     		lsls	r3, r3, #2
 170 004c 039A     		ldr	r2, [sp, #12]
ARM GAS  C:\Users\PCHAUT~1\AppData\Local\Temp\ccmBgndF.s 			page 4


 171 004e 1344     		add	r3, r3, r2
 172 0050 1B68     		ldr	r3, [r3]	@ float
 173 0052 1846     		mov	r0, r3	@ float
 174 0054 FFF7FEFF 		bl	__aeabi_f2d
 175              	.LVL4:
 176 0058 0246     		mov	r2, r0
 177 005a 0B46     		mov	r3, r1
 178 005c 019C     		ldr	r4, [sp, #4]
 179 005e 0F49     		ldr	r1, .L13+12
 180 0060 0098     		ldr	r0, [sp]
 181 0062 A047     		blx	r4
 182              	.LVL5:
 183              	.L10:
 184              		.loc 1 25 0 discriminator 2
 185 0064 049B     		ldr	r3, [sp, #16]
 186 0066 0133     		adds	r3, r3, #1
 187 0068 0493     		str	r3, [sp, #16]
 188              	.L8:
 189              		.loc 1 25 0 is_stmt 0 discriminator 1
 190 006a 049A     		ldr	r2, [sp, #16]
 191 006c 029B     		ldr	r3, [sp, #8]
 192 006e 9A42     		cmp	r2, r3
 193 0070 D6DB     		blt	.L11
 194              		.loc 1 32 0 is_stmt 1
 195 0072 019B     		ldr	r3, [sp, #4]
 196 0074 0A49     		ldr	r1, .L13+16
 197 0076 0098     		ldr	r0, [sp]
 198 0078 9847     		blx	r3
 199              	.LVL6:
 200              		.loc 1 33 0
 201 007a 00BF     		nop
 202 007c 044B     		ldr	r3, .L13
 203 007e 059A     		ldr	r2, [sp, #20]
 204 0080 1B68     		ldr	r3, [r3]
 205 0082 9A42     		cmp	r2, r3
 206 0084 01D0     		beq	.L12
 207 0086 FFF7FEFF 		bl	__stack_chk_fail
 208              	.L12:
 209 008a 06B0     		add	sp, sp, #24
 210              		.cfi_def_cfa_offset 8
 211              		@ sp needed
 212 008c 10BD     		pop	{r4, pc}
 213              	.L14:
 214 008e 00BF     		.align	2
 215              	.L13:
 216 0090 00000000 		.word	__stack_chk_guard
 217 0094 04000000 		.word	.LC1
 218 0098 08000000 		.word	.LC2
 219 009c 0C000000 		.word	.LC3
 220 00a0 14000000 		.word	.LC4
 221              		.cfi_endproc
 222              	.LFE1:
 223              		.size	print_array, .-print_array
 224              		.section	.rodata
 225 0017 00       		.align	2
 226              	.LC5:
 227 0018 25733A20 		.ascii	"%s: \000"
ARM GAS  C:\Users\PCHAUT~1\AppData\Local\Temp\ccmBgndF.s 			page 5


 227      00
 228 001d 000000   		.align	2
 229              	.LC6:
 230 0020 7E0A00   		.ascii	"~\012\000"
 231 0023 00       		.align	2
 232              	.LC7:
 233 0024 25660A00 		.ascii	"%f\012\000"
 234              		.align	2
 235              	.LC8:
 236 0028 25640A00 		.ascii	"%d\012\000"
 237              		.align	2
 238              	.LC9:
 239 002c 74727565 		.ascii	"true\000"
 239      00
 240 0031 000000   		.align	2
 241              	.LC10:
 242 0034 66616C73 		.ascii	"false\000"
 242      6500
 243 003a 0000     		.align	2
 244              	.LC11:
 245 003c 25730A00 		.ascii	"%s\012\000"
 246              		.align	2
 247              	.LC12:
 248 0040 22257322 		.ascii	"\"%s\"\012\000"
 248      0A00
 249 0046 0000     		.align	2
 250              	.LC13:
 251 0048 23207761 		.ascii	"# warning: malloc failed during serialization!\000"
 251      726E696E 
 251      673A206D 
 251      616C6C6F 
 251      63206661 
 252 0077 00       		.align	2
 253              	.LC14:
 254 0078 22222025 		.ascii	"\"\" %s\012\000"
 254      730A00
 255 007f 00       		.align	2
 256              	.LC15:
 257 0080 5B5D2025 		.ascii	"[] %s\012\000"
 257      730A00
 258              		.section	.text.param_entry_print,"ax",%progbits
 259              		.align	1
 260              		.p2align 4,,15
 261              		.syntax unified
 262              		.thumb
 263              		.thumb_func
 264              		.fpu fpv4-sp-d16
 265              		.type	param_entry_print, %function
 266              	param_entry_print:
 267              	.LFB2:
 268              		.loc 1 40 0
 269              		.cfi_startproc
 270              		@ args = 0, pretend = 0, frame = 48
 271              		@ frame_needed = 0, uses_anonymous_args = 0
 272 0000 10B5     		push	{r4, lr}
 273              		.cfi_def_cfa_offset 8
 274              		.cfi_offset 4, -8
ARM GAS  C:\Users\PCHAUT~1\AppData\Local\Temp\ccmBgndF.s 			page 6


 275              		.cfi_offset 14, -4
 276 0002 8CB0     		sub	sp, sp, #48
 277              		.cfi_def_cfa_offset 56
 278 0004 0390     		str	r0, [sp, #12]
 279 0006 0291     		str	r1, [sp, #8]
 280 0008 0192     		str	r2, [sp, #4]
 281 000a 0093     		str	r3, [sp]
 282              		.loc 1 40 0
 283 000c 664B     		ldr	r3, .L34
 284 000e 1B68     		ldr	r3, [r3]
 285 0010 0B93     		str	r3, [sp, #44]
 286              		.loc 1 41 0
 287 0012 009A     		ldr	r2, [sp]
 288 0014 0199     		ldr	r1, [sp, #4]
 289 0016 0298     		ldr	r0, [sp, #8]
 290 0018 FFF7FEFF 		bl	indent
 291              		.loc 1 42 0
 292 001c 039B     		ldr	r3, [sp, #12]
 293 001e 1A68     		ldr	r2, [r3]
 294 0020 019B     		ldr	r3, [sp, #4]
 295 0022 6249     		ldr	r1, .L34+4
 296 0024 0098     		ldr	r0, [sp]
 297 0026 9847     		blx	r3
 298              	.LVL7:
 299              		.loc 1 43 0
 300 0028 0398     		ldr	r0, [sp, #12]
 301 002a FFF7FEFF 		bl	parameter_defined
 302 002e 0346     		mov	r3, r0
 303 0030 83F00103 		eor	r3, r3, #1
 304 0034 DBB2     		uxtb	r3, r3
 305 0036 002B     		cmp	r3, #0
 306 0038 04D0     		beq	.L16
 307              		.loc 1 44 0
 308 003a 019B     		ldr	r3, [sp, #4]
 309 003c 5C49     		ldr	r1, .L34+8
 310 003e 0098     		ldr	r0, [sp]
 311 0040 9847     		blx	r3
 312              	.LVL8:
 313              		.loc 1 45 0
 314 0042 A7E0     		b	.L15
 315              	.L16:
 316              		.loc 1 47 0
 317 0044 039B     		ldr	r3, [sp, #12]
 318 0046 9B7B     		ldrb	r3, [r3, #14]	@ zero_extendqisi2
 319 0048 013B     		subs	r3, r3, #1
 320 004a 052B     		cmp	r3, #5
 321 004c 00F2A280 		bhi	.L15
 322 0050 01A2     		adr	r2, .L19
 323 0052 52F823F0 		ldr	pc, [r2, r3, lsl #2]
 324 0056 00BF     		.p2align 2
 325              	.L19:
 326 0058 71000000 		.word	.L18+1
 327 005c A1000000 		.word	.L20+1
 328 0060 8F000000 		.word	.L21+1
 329 0064 BD000000 		.word	.L22+1
 330 0068 05010000 		.word	.L23+1
 331 006c 4B010000 		.word	.L24+1
ARM GAS  C:\Users\PCHAUT~1\AppData\Local\Temp\ccmBgndF.s 			page 7


 332              		.p2align 1
 333              	.L18:
 334              		.loc 1 49 0
 335 0070 0398     		ldr	r0, [sp, #12]
 336 0072 FFF7FEFF 		bl	parameter_scalar_read
 337 0076 10EE103A 		vmov	r3, s0
 338 007a 1846     		mov	r0, r3	@ float
 339 007c FFF7FEFF 		bl	__aeabi_f2d
 340              	.LVL9:
 341 0080 0246     		mov	r2, r0
 342 0082 0B46     		mov	r3, r1
 343 0084 019C     		ldr	r4, [sp, #4]
 344 0086 4B49     		ldr	r1, .L34+12
 345 0088 0098     		ldr	r0, [sp]
 346 008a A047     		blx	r4
 347              	.LVL10:
 348              		.loc 1 50 0
 349 008c 82E0     		b	.L15
 350              	.L21:
 351              		.loc 1 53 0
 352 008e 0398     		ldr	r0, [sp, #12]
 353 0090 FFF7FEFF 		bl	parameter_integer_read
 354 0094 0246     		mov	r2, r0
 355 0096 019B     		ldr	r3, [sp, #4]
 356 0098 4749     		ldr	r1, .L34+16
 357 009a 0098     		ldr	r0, [sp]
 358 009c 9847     		blx	r3
 359              	.LVL11:
 360              		.loc 1 54 0
 361 009e 79E0     		b	.L15
 362              	.L20:
 363              		.loc 1 57 0
 364 00a0 0398     		ldr	r0, [sp, #12]
 365 00a2 FFF7FEFF 		bl	parameter_boolean_read
 366 00a6 0346     		mov	r3, r0
 367 00a8 002B     		cmp	r3, #0
 368 00aa 01D0     		beq	.L25
 369              		.loc 1 57 0 is_stmt 0 discriminator 1
 370 00ac 434A     		ldr	r2, .L34+20
 371 00ae 00E0     		b	.L26
 372              	.L25:
 373              		.loc 1 57 0 discriminator 2
 374 00b0 434A     		ldr	r2, .L34+24
 375              	.L26:
 376              		.loc 1 57 0 discriminator 4
 377 00b2 019B     		ldr	r3, [sp, #4]
 378 00b4 4349     		ldr	r1, .L34+28
 379 00b6 0098     		ldr	r0, [sp]
 380 00b8 9847     		blx	r3
 381              	.LVL12:
 382              		.loc 1 58 0 is_stmt 1 discriminator 4
 383 00ba 6BE0     		b	.L15
 384              	.L22:
 385              	.LBB2:
 386              		.loc 1 61 0
 387 00bc 0398     		ldr	r0, [sp, #12]
 388 00be FFF7FEFF 		bl	parameter_string_max_len
ARM GAS  C:\Users\PCHAUT~1\AppData\Local\Temp\ccmBgndF.s 			page 8


 389 00c2 0346     		mov	r3, r0
 390 00c4 0993     		str	r3, [sp, #36]
 391              		.loc 1 62 0
 392 00c6 099B     		ldr	r3, [sp, #36]
 393 00c8 1846     		mov	r0, r3
 394 00ca FFF7FEFF 		bl	malloc
 395 00ce 0346     		mov	r3, r0
 396 00d0 0A93     		str	r3, [sp, #40]
 397              		.loc 1 63 0
 398 00d2 0A9B     		ldr	r3, [sp, #40]
 399 00d4 002B     		cmp	r3, #0
 400 00d6 0FD0     		beq	.L27
 401              		.loc 1 64 0
 402 00d8 099B     		ldr	r3, [sp, #36]
 403 00da 9BB2     		uxth	r3, r3
 404 00dc 1A46     		mov	r2, r3
 405 00de 0A99     		ldr	r1, [sp, #40]
 406 00e0 0398     		ldr	r0, [sp, #12]
 407 00e2 FFF7FEFF 		bl	parameter_string_read
 408              		.loc 1 65 0
 409 00e6 019B     		ldr	r3, [sp, #4]
 410 00e8 0A9A     		ldr	r2, [sp, #40]
 411 00ea 3749     		ldr	r1, .L34+32
 412 00ec 0098     		ldr	r0, [sp]
 413 00ee 9847     		blx	r3
 414              	.LVL13:
 415              		.loc 1 66 0
 416 00f0 0A98     		ldr	r0, [sp, #40]
 417 00f2 FFF7FEFF 		bl	free
 418              		.loc 1 70 0
 419 00f6 4DE0     		b	.L15
 420              	.L27:
 421              		.loc 1 68 0
 422 00f8 019B     		ldr	r3, [sp, #4]
 423 00fa 344A     		ldr	r2, .L34+36
 424 00fc 3449     		ldr	r1, .L34+40
 425 00fe 0098     		ldr	r0, [sp]
 426 0100 9847     		blx	r3
 427              	.LVL14:
 428              		.loc 1 70 0
 429 0102 47E0     		b	.L15
 430              	.L23:
 431              	.LBE2:
 432              	.LBB3:
 433              		.loc 1 73 0
 434 0104 0398     		ldr	r0, [sp, #12]
 435 0106 FFF7FEFF 		bl	parameter_vector_dim
 436 010a 0346     		mov	r3, r0
 437 010c 0793     		str	r3, [sp, #28]
 438              		.loc 1 74 0
 439 010e 079B     		ldr	r3, [sp, #28]
 440 0110 9B00     		lsls	r3, r3, #2
 441 0112 1846     		mov	r0, r3
 442 0114 FFF7FEFF 		bl	malloc
 443 0118 0346     		mov	r3, r0
 444 011a 0893     		str	r3, [sp, #32]
 445              		.loc 1 75 0
ARM GAS  C:\Users\PCHAUT~1\AppData\Local\Temp\ccmBgndF.s 			page 9


 446 011c 089B     		ldr	r3, [sp, #32]
 447 011e 002B     		cmp	r3, #0
 448 0120 0DD0     		beq	.L29
 449              		.loc 1 76 0
 450 0122 0899     		ldr	r1, [sp, #32]
 451 0124 0398     		ldr	r0, [sp, #12]
 452 0126 FFF7FEFF 		bl	parameter_vector_read
 453              		.loc 1 77 0
 454 012a 009B     		ldr	r3, [sp]
 455 012c 019A     		ldr	r2, [sp, #4]
 456 012e 0799     		ldr	r1, [sp, #28]
 457 0130 0898     		ldr	r0, [sp, #32]
 458 0132 FFF7FEFF 		bl	print_array
 459              		.loc 1 78 0
 460 0136 0898     		ldr	r0, [sp, #32]
 461 0138 FFF7FEFF 		bl	free
 462              		.loc 1 82 0
 463 013c 2AE0     		b	.L15
 464              	.L29:
 465              		.loc 1 80 0
 466 013e 019B     		ldr	r3, [sp, #4]
 467 0140 224A     		ldr	r2, .L34+36
 468 0142 2449     		ldr	r1, .L34+44
 469 0144 0098     		ldr	r0, [sp]
 470 0146 9847     		blx	r3
 471              	.LVL15:
 472              		.loc 1 82 0
 473 0148 24E0     		b	.L15
 474              	.L24:
 475              	.LBE3:
 476              	.LBB4:
 477              		.loc 1 85 0
 478 014a 0398     		ldr	r0, [sp, #12]
 479 014c FFF7FEFF 		bl	parameter_variable_vector_max_dim
 480 0150 0346     		mov	r3, r0
 481 0152 0593     		str	r3, [sp, #20]
 482              		.loc 1 86 0
 483 0154 059B     		ldr	r3, [sp, #20]
 484 0156 9B00     		lsls	r3, r3, #2
 485 0158 1846     		mov	r0, r3
 486 015a FFF7FEFF 		bl	malloc
 487 015e 0346     		mov	r3, r0
 488 0160 0693     		str	r3, [sp, #24]
 489              		.loc 1 87 0
 490 0162 069B     		ldr	r3, [sp, #24]
 491 0164 002B     		cmp	r3, #0
 492 0166 0FD0     		beq	.L31
 493              		.loc 1 88 0
 494 0168 0699     		ldr	r1, [sp, #24]
 495 016a 0398     		ldr	r0, [sp, #12]
 496 016c FFF7FEFF 		bl	parameter_variable_vector_read
 497 0170 0346     		mov	r3, r0
 498 0172 0593     		str	r3, [sp, #20]
 499              		.loc 1 89 0
 500 0174 009B     		ldr	r3, [sp]
 501 0176 019A     		ldr	r2, [sp, #4]
 502 0178 0599     		ldr	r1, [sp, #20]
ARM GAS  C:\Users\PCHAUT~1\AppData\Local\Temp\ccmBgndF.s 			page 10


 503 017a 0698     		ldr	r0, [sp, #24]
 504 017c FFF7FEFF 		bl	print_array
 505              		.loc 1 90 0
 506 0180 0698     		ldr	r0, [sp, #24]
 507 0182 FFF7FEFF 		bl	free
 508              		.loc 1 94 0
 509 0186 05E0     		b	.L15
 510              	.L31:
 511              		.loc 1 92 0
 512 0188 019B     		ldr	r3, [sp, #4]
 513 018a 104A     		ldr	r2, .L34+36
 514 018c 1149     		ldr	r1, .L34+44
 515 018e 0098     		ldr	r0, [sp]
 516 0190 9847     		blx	r3
 517              	.LVL16:
 518              		.loc 1 94 0
 519 0192 00BF     		nop
 520              	.L15:
 521              	.LBE4:
 522              		.loc 1 97 0
 523 0194 044B     		ldr	r3, .L34
 524 0196 0B9A     		ldr	r2, [sp, #44]
 525 0198 1B68     		ldr	r3, [r3]
 526 019a 9A42     		cmp	r2, r3
 527 019c 01D0     		beq	.L33
 528 019e FFF7FEFF 		bl	__stack_chk_fail
 529              	.L33:
 530 01a2 0CB0     		add	sp, sp, #48
 531              		.cfi_def_cfa_offset 8
 532              		@ sp needed
 533 01a4 10BD     		pop	{r4, pc}
 534              	.L35:
 535 01a6 00BF     		.align	2
 536              	.L34:
 537 01a8 00000000 		.word	__stack_chk_guard
 538 01ac 18000000 		.word	.LC5
 539 01b0 20000000 		.word	.LC6
 540 01b4 24000000 		.word	.LC7
 541 01b8 28000000 		.word	.LC8
 542 01bc 2C000000 		.word	.LC9
 543 01c0 34000000 		.word	.LC10
 544 01c4 3C000000 		.word	.LC11
 545 01c8 40000000 		.word	.LC12
 546 01cc 48000000 		.word	.LC13
 547 01d0 78000000 		.word	.LC14
 548 01d4 80000000 		.word	.LC15
 549              		.cfi_endproc
 550              	.LFE2:
 551              		.size	param_entry_print, .-param_entry_print
 552              		.section	.rodata
 553 0087 00       		.align	2
 554              	.LC16:
 555 0088 25733A0A 		.ascii	"%s:\012\000"
 555      00
 556              		.section	.text.param_ns_print,"ax",%progbits
 557              		.align	1
 558              		.p2align 4,,15
ARM GAS  C:\Users\PCHAUT~1\AppData\Local\Temp\ccmBgndF.s 			page 11


 559              		.syntax unified
 560              		.thumb
 561              		.thumb_func
 562              		.fpu fpv4-sp-d16
 563              		.type	param_ns_print, %function
 564              	param_ns_print:
 565              	.LFB3:
 566              		.loc 1 104 0
 567              		.cfi_startproc
 568              		@ args = 0, pretend = 0, frame = 32
 569              		@ frame_needed = 0, uses_anonymous_args = 0
 570 0000 00B5     		push	{lr}
 571              		.cfi_def_cfa_offset 4
 572              		.cfi_offset 14, -4
 573 0002 89B0     		sub	sp, sp, #36
 574              		.cfi_def_cfa_offset 40
 575 0004 0390     		str	r0, [sp, #12]
 576 0006 0291     		str	r1, [sp, #8]
 577 0008 0192     		str	r2, [sp, #4]
 578 000a 0093     		str	r3, [sp]
 579              		.loc 1 104 0
 580 000c 1C4B     		ldr	r3, .L42
 581 000e 1B68     		ldr	r3, [r3]
 582 0010 0793     		str	r3, [sp, #28]
 583              		.loc 1 105 0
 584 0012 039B     		ldr	r3, [sp, #12]
 585 0014 5B69     		ldr	r3, [r3, #20]
 586 0016 0593     		str	r3, [sp, #20]
 587              		.loc 1 106 0
 588 0018 08E0     		b	.L37
 589              	.L38:
 590              		.loc 1 107 0
 591 001a 009B     		ldr	r3, [sp]
 592 001c 019A     		ldr	r2, [sp, #4]
 593 001e 0299     		ldr	r1, [sp, #8]
 594 0020 0598     		ldr	r0, [sp, #20]
 595 0022 FFF7FEFF 		bl	param_entry_print
 596              		.loc 1 108 0
 597 0026 059B     		ldr	r3, [sp, #20]
 598 0028 9B68     		ldr	r3, [r3, #8]
 599 002a 0593     		str	r3, [sp, #20]
 600              	.L37:
 601              		.loc 1 106 0
 602 002c 059B     		ldr	r3, [sp, #20]
 603 002e 002B     		cmp	r3, #0
 604 0030 F3D1     		bne	.L38
 605              		.loc 1 110 0
 606 0032 039B     		ldr	r3, [sp, #12]
 607 0034 DB68     		ldr	r3, [r3, #12]
 608 0036 0693     		str	r3, [sp, #24]
 609              		.loc 1 111 0
 610 0038 14E0     		b	.L39
 611              	.L40:
 612              		.loc 1 112 0
 613 003a 009A     		ldr	r2, [sp]
 614 003c 0199     		ldr	r1, [sp, #4]
 615 003e 0298     		ldr	r0, [sp, #8]
ARM GAS  C:\Users\PCHAUT~1\AppData\Local\Temp\ccmBgndF.s 			page 12


 616 0040 FFF7FEFF 		bl	indent
 617              		.loc 1 113 0
 618 0044 069B     		ldr	r3, [sp, #24]
 619 0046 1A68     		ldr	r2, [r3]
 620 0048 019B     		ldr	r3, [sp, #4]
 621 004a 0E49     		ldr	r1, .L42+4
 622 004c 0098     		ldr	r0, [sp]
 623 004e 9847     		blx	r3
 624              	.LVL17:
 625              		.loc 1 114 0
 626 0050 029B     		ldr	r3, [sp, #8]
 627 0052 591C     		adds	r1, r3, #1
 628 0054 009B     		ldr	r3, [sp]
 629 0056 019A     		ldr	r2, [sp, #4]
 630 0058 0698     		ldr	r0, [sp, #24]
 631 005a FFF7D1FF 		bl	param_ns_print
 632              		.loc 1 115 0
 633 005e 069B     		ldr	r3, [sp, #24]
 634 0060 1B69     		ldr	r3, [r3, #16]
 635 0062 0693     		str	r3, [sp, #24]
 636              	.L39:
 637              		.loc 1 111 0
 638 0064 069B     		ldr	r3, [sp, #24]
 639 0066 002B     		cmp	r3, #0
 640 0068 E7D1     		bne	.L40
 641              		.loc 1 117 0
 642 006a 00BF     		nop
 643 006c 044B     		ldr	r3, .L42
 644 006e 079A     		ldr	r2, [sp, #28]
 645 0070 1B68     		ldr	r3, [r3]
 646 0072 9A42     		cmp	r2, r3
 647 0074 01D0     		beq	.L41
 648 0076 FFF7FEFF 		bl	__stack_chk_fail
 649              	.L41:
 650 007a 09B0     		add	sp, sp, #36
 651              		.cfi_def_cfa_offset 4
 652              		@ sp needed
 653 007c 5DF804FB 		ldr	pc, [sp], #4
 654              	.L43:
 655              		.align	2
 656              	.L42:
 657 0080 00000000 		.word	__stack_chk_guard
 658 0084 88000000 		.word	.LC16
 659              		.cfi_endproc
 660              	.LFE3:
 661              		.size	param_ns_print, .-param_ns_print
 662              		.section	.text.parameter_print,"ax",%progbits
 663              		.align	1
 664              		.p2align 4,,15
 665              		.global	parameter_print
 666              		.syntax unified
 667              		.thumb
 668              		.thumb_func
 669              		.fpu fpv4-sp-d16
 670              		.type	parameter_print, %function
 671              	parameter_print:
 672              	.LFB4:
ARM GAS  C:\Users\PCHAUT~1\AppData\Local\Temp\ccmBgndF.s 			page 13


 673              		.loc 1 123 0
 674              		.cfi_startproc
 675              		@ args = 0, pretend = 0, frame = 24
 676              		@ frame_needed = 0, uses_anonymous_args = 0
 677 0000 00B5     		push	{lr}
 678              		.cfi_def_cfa_offset 4
 679              		.cfi_offset 14, -4
 680 0002 87B0     		sub	sp, sp, #28
 681              		.cfi_def_cfa_offset 32
 682 0004 0390     		str	r0, [sp, #12]
 683 0006 0291     		str	r1, [sp, #8]
 684 0008 0192     		str	r2, [sp, #4]
 685              		.loc 1 123 0
 686 000a 0A4B     		ldr	r3, .L46
 687 000c 1B68     		ldr	r3, [r3]
 688 000e 0593     		str	r3, [sp, #20]
 689              		.loc 1 124 0
 690 0010 019B     		ldr	r3, [sp, #4]
 691 0012 029A     		ldr	r2, [sp, #8]
 692 0014 0021     		movs	r1, #0
 693 0016 0398     		ldr	r0, [sp, #12]
 694 0018 FFF7FEFF 		bl	param_ns_print
 695              		.loc 1 125 0
 696 001c 00BF     		nop
 697 001e 054B     		ldr	r3, .L46
 698 0020 059A     		ldr	r2, [sp, #20]
 699 0022 1B68     		ldr	r3, [r3]
 700 0024 9A42     		cmp	r2, r3
 701 0026 01D0     		beq	.L45
 702 0028 FFF7FEFF 		bl	__stack_chk_fail
 703              	.L45:
 704 002c 07B0     		add	sp, sp, #28
 705              		.cfi_def_cfa_offset 4
 706              		@ sp needed
 707 002e 5DF804FB 		ldr	pc, [sp], #4
 708              	.L47:
 709 0032 00BF     		.align	2
 710              	.L46:
 711 0034 00000000 		.word	__stack_chk_guard
 712              		.cfi_endproc
 713              	.LFE4:
 714              		.size	parameter_print, .-parameter_print
 715              		.text
 716              	.Letext0:
 717              		.file 2 "c:\\users\\pchautems\\documents\\robotiquetp\\eclipse_e-puck2\\tools\\gcc-arm-none-eabi-7
 718              		.file 3 "c:\\users\\pchautems\\documents\\robotiquetp\\eclipse_e-puck2\\tools\\gcc-arm-none-eabi-7
 719              		.file 4 "c:\\users\\pchautems\\documents\\robotiquetp\\eclipse_e-puck2\\tools\\gcc-arm-none-eabi-7
 720              		.file 5 "c:\\users\\pchautems\\documents\\robotiquetp\\eclipse_e-puck2\\tools\\gcc-arm-none-eabi-7
 721              		.file 6 "c:\\users\\pchautems\\documents\\robotiquetp\\eclipse_e-puck2\\tools\\gcc-arm-none-eabi-7
 722              		.file 7 "c:\\users\\pchautems\\documents\\robotiquetp\\eclipse_e-puck2\\tools\\gcc-arm-none-eabi-7
 723              		.file 8 "c:\\users\\pchautems\\documents\\robotiquetp\\eclipse_e-puck2\\tools\\gcc-arm-none-eabi-7
 724              		.file 9 "../lib/e-puck2_main-processor/src/parameter/parameter.h"
 725              		.file 10 "../lib/e-puck2_main-processor/src/parameter/parameter_print.h"