ARM GAS  C:\Users\PCHAUT~1\AppData\Local\Temp\ccIm8FNl.s 			page 1


   1              		.cpu cortex-m4
   2              		.eabi_attribute 27, 1
   3              		.eabi_attribute 28, 1
   4              		.eabi_attribute 20, 1
   5              		.eabi_attribute 21, 1
   6              		.eabi_attribute 23, 3
   7              		.eabi_attribute 24, 1
   8              		.eabi_attribute 25, 1
   9              		.eabi_attribute 26, 1
  10              		.eabi_attribute 30, 6
  11              		.eabi_attribute 34, 1
  12              		.eabi_attribute 18, 4
  13              		.file	"parameter_msgpack.c"
  14              		.text
  15              	.Ltext0:
  16              		.cfi_sections	.debug_frame
  17              		.section	.text.port_lock,"ax",%progbits
  18              		.align	1
  19              		.p2align 4,,15
  20              		.syntax unified
  21              		.thumb
  22              		.thumb_func
  23              		.fpu fpv4-sp-d16
  24              		.type	port_lock, %function
  25              	port_lock:
  26              	.LFB116:
  27              		.file 1 "../lib/e-puck2_main-processor/ChibiOS//os/rt/ports/ARMCMx/chcore_v7m.h"
  28              		.loc 1 444 0
  29              		.cfi_startproc
  30              		@ args = 0, pretend = 0, frame = 8
  31              		@ frame_needed = 0, uses_anonymous_args = 0
  32 0000 00B5     		push	{lr}
  33              		.cfi_def_cfa_offset 4
  34              		.cfi_offset 14, -4
  35 0002 83B0     		sub	sp, sp, #12
  36              		.cfi_def_cfa_offset 16
  37              		.loc 1 444 0
  38 0004 094B     		ldr	r3, .L3
  39 0006 1B68     		ldr	r3, [r3]
  40 0008 0193     		str	r3, [sp, #4]
  41 000a 2023     		movs	r3, #32
  42 000c 0093     		str	r3, [sp]
  43              	.LBB6:
  44              	.LBB7:
  45              		.file 2 "../lib/e-puck2_main-processor/ChibiOS//os/ext/CMSIS/include/core_cmFunc.h"
  46              		.loc 2 546 0
  47 000e 009B     		ldr	r3, [sp]
  48              		.syntax unified
  49              	@ 546 "../lib/e-puck2_main-processor/ChibiOS//os/ext/CMSIS/include/core_cmFunc.h" 1
  50 0010 83F31188 		MSR basepri, r3
  51              	@ 0 "" 2
  52              		.thumb
  53              		.syntax unified
  54              	.LBE7:
  55              	.LBE6:
  56              		.loc 1 451 0
  57 0014 00BF     		nop
ARM GAS  C:\Users\PCHAUT~1\AppData\Local\Temp\ccIm8FNl.s 			page 2


  58 0016 054B     		ldr	r3, .L3
  59 0018 019A     		ldr	r2, [sp, #4]
  60 001a 1B68     		ldr	r3, [r3]
  61 001c 9A42     		cmp	r2, r3
  62 001e 01D0     		beq	.L2
  63 0020 FFF7FEFF 		bl	__stack_chk_fail
  64              	.L2:
  65 0024 03B0     		add	sp, sp, #12
  66              		.cfi_def_cfa_offset 4
  67              		@ sp needed
  68 0026 5DF804FB 		ldr	pc, [sp], #4
  69              	.L4:
  70 002a 00BF     		.align	2
  71              	.L3:
  72 002c 00000000 		.word	__stack_chk_guard
  73              		.cfi_endproc
  74              	.LFE116:
  75              		.size	port_lock, .-port_lock
  76              		.section	.text.port_unlock,"ax",%progbits
  77              		.align	1
  78              		.p2align 4,,15
  79              		.syntax unified
  80              		.thumb
  81              		.thumb_func
  82              		.fpu fpv4-sp-d16
  83              		.type	port_unlock, %function
  84              	port_unlock:
  85              	.LFB117:
  86              		.loc 1 458 0
  87              		.cfi_startproc
  88              		@ args = 0, pretend = 0, frame = 8
  89              		@ frame_needed = 0, uses_anonymous_args = 0
  90 0000 00B5     		push	{lr}
  91              		.cfi_def_cfa_offset 4
  92              		.cfi_offset 14, -4
  93 0002 83B0     		sub	sp, sp, #12
  94              		.cfi_def_cfa_offset 16
  95              		.loc 1 458 0
  96 0004 094B     		ldr	r3, .L7
  97 0006 1B68     		ldr	r3, [r3]
  98 0008 0193     		str	r3, [sp, #4]
  99 000a 0023     		movs	r3, #0
 100 000c 0093     		str	r3, [sp]
 101              	.LBB8:
 102              	.LBB9:
 103              		.loc 2 546 0
 104 000e 009B     		ldr	r3, [sp]
 105              		.syntax unified
 106              	@ 546 "../lib/e-puck2_main-processor/ChibiOS//os/ext/CMSIS/include/core_cmFunc.h" 1
 107 0010 83F31188 		MSR basepri, r3
 108              	@ 0 "" 2
 109              		.thumb
 110              		.syntax unified
 111              	.LBE9:
 112              	.LBE8:
 113              		.loc 1 465 0
 114 0014 00BF     		nop
ARM GAS  C:\Users\PCHAUT~1\AppData\Local\Temp\ccIm8FNl.s 			page 3


 115 0016 054B     		ldr	r3, .L7
 116 0018 019A     		ldr	r2, [sp, #4]
 117 001a 1B68     		ldr	r3, [r3]
 118 001c 9A42     		cmp	r2, r3
 119 001e 01D0     		beq	.L6
 120 0020 FFF7FEFF 		bl	__stack_chk_fail
 121              	.L6:
 122 0024 03B0     		add	sp, sp, #12
 123              		.cfi_def_cfa_offset 4
 124              		@ sp needed
 125 0026 5DF804FB 		ldr	pc, [sp], #4
 126              	.L8:
 127 002a 00BF     		.align	2
 128              	.L7:
 129 002c 00000000 		.word	__stack_chk_guard
 130              		.cfi_endproc
 131              	.LFE117:
 132              		.size	port_unlock, .-port_unlock
 133              		.section	.text.chSysLock,"ax",%progbits
 134              		.align	1
 135              		.p2align 4,,15
 136              		.syntax unified
 137              		.thumb
 138              		.thumb_func
 139              		.fpu fpv4-sp-d16
 140              		.type	chSysLock, %function
 141              	chSysLock:
 142              	.LFB145:
 143              		.file 3 "../lib/e-puck2_main-processor/ChibiOS//os/rt/include/chsys.h"
 144              		.loc 3 346 0
 145              		.cfi_startproc
 146              		@ args = 0, pretend = 0, frame = 8
 147              		@ frame_needed = 0, uses_anonymous_args = 0
 148 0000 00B5     		push	{lr}
 149              		.cfi_def_cfa_offset 4
 150              		.cfi_offset 14, -4
 151 0002 83B0     		sub	sp, sp, #12
 152              		.cfi_def_cfa_offset 16
 153              		.loc 3 346 0
 154 0004 094B     		ldr	r3, .L11
 155 0006 1B68     		ldr	r3, [r3]
 156 0008 0193     		str	r3, [sp, #4]
 157              		.loc 3 348 0
 158 000a FFF7FEFF 		bl	port_lock
 159              		.loc 3 349 0
 160 000e FFF7FEFF 		bl	_stats_start_measure_crit_thd
 161              		.loc 3 350 0
 162 0012 FFF7FEFF 		bl	_dbg_check_lock
 163              		.loc 3 351 0
 164 0016 00BF     		nop
 165 0018 044B     		ldr	r3, .L11
 166 001a 019A     		ldr	r2, [sp, #4]
 167 001c 1B68     		ldr	r3, [r3]
 168 001e 9A42     		cmp	r2, r3
 169 0020 01D0     		beq	.L10
 170 0022 FFF7FEFF 		bl	__stack_chk_fail
 171              	.L10:
ARM GAS  C:\Users\PCHAUT~1\AppData\Local\Temp\ccIm8FNl.s 			page 4


 172 0026 03B0     		add	sp, sp, #12
 173              		.cfi_def_cfa_offset 4
 174              		@ sp needed
 175 0028 5DF804FB 		ldr	pc, [sp], #4
 176              	.L12:
 177              		.align	2
 178              	.L11:
 179 002c 00000000 		.word	__stack_chk_guard
 180              		.cfi_endproc
 181              	.LFE145:
 182              		.size	chSysLock, .-chSysLock
 183              		.section	.text.chSysUnlock,"ax",%progbits
 184              		.align	1
 185              		.p2align 4,,15
 186              		.syntax unified
 187              		.thumb
 188              		.thumb_func
 189              		.fpu fpv4-sp-d16
 190              		.type	chSysUnlock, %function
 191              	chSysUnlock:
 192              	.LFB146:
 193              		.loc 3 358 0
 194              		.cfi_startproc
 195              		@ args = 0, pretend = 0, frame = 8
 196              		@ frame_needed = 0, uses_anonymous_args = 0
 197 0000 00B5     		push	{lr}
 198              		.cfi_def_cfa_offset 4
 199              		.cfi_offset 14, -4
 200 0002 83B0     		sub	sp, sp, #12
 201              		.cfi_def_cfa_offset 16
 202              		.loc 3 358 0
 203 0004 114B     		ldr	r3, .L16
 204 0006 1B68     		ldr	r3, [r3]
 205 0008 0193     		str	r3, [sp, #4]
 206              		.loc 3 360 0
 207 000a FFF7FEFF 		bl	_dbg_check_unlock
 208              		.loc 3 361 0
 209 000e FFF7FEFF 		bl	_stats_stop_measure_crit_thd
 210              		.loc 3 367 0
 211 0012 0F4B     		ldr	r3, .L16+4
 212 0014 1B68     		ldr	r3, [r3]
 213 0016 0E4A     		ldr	r2, .L16+4
 214 0018 9342     		cmp	r3, r2
 215 001a 0AD0     		beq	.L14
 216              		.loc 3 367 0 is_stmt 0 discriminator 2
 217 001c 0C4B     		ldr	r3, .L16+4
 218 001e 9B69     		ldr	r3, [r3, #24]
 219 0020 9A68     		ldr	r2, [r3, #8]
 220 0022 0B4B     		ldr	r3, .L16+4
 221 0024 1B68     		ldr	r3, [r3]
 222 0026 9B68     		ldr	r3, [r3, #8]
 223 0028 9A42     		cmp	r2, r3
 224 002a 02D2     		bcs	.L14
 225              		.loc 3 367 0 discriminator 3
 226 002c 0948     		ldr	r0, .L16+8
 227 002e FFF7FEFF 		bl	chSysHalt
 228              	.L14:
ARM GAS  C:\Users\PCHAUT~1\AppData\Local\Temp\ccIm8FNl.s 			page 5


 229              		.loc 3 371 0 is_stmt 1
 230 0032 FFF7FEFF 		bl	port_unlock
 231              		.loc 3 372 0
 232 0036 00BF     		nop
 233 0038 044B     		ldr	r3, .L16
 234 003a 019A     		ldr	r2, [sp, #4]
 235 003c 1B68     		ldr	r3, [r3]
 236 003e 9A42     		cmp	r2, r3
 237 0040 01D0     		beq	.L15
 238 0042 FFF7FEFF 		bl	__stack_chk_fail
 239              	.L15:
 240 0046 03B0     		add	sp, sp, #12
 241              		.cfi_def_cfa_offset 4
 242              		@ sp needed
 243 0048 5DF804FB 		ldr	pc, [sp], #4
 244              	.L17:
 245              		.align	2
 246              	.L16:
 247 004c 00000000 		.word	__stack_chk_guard
 248 0050 00000000 		.word	ch
 249 0054 00000000 		.word	__func__.8568
 250              		.cfi_endproc
 251              	.LFE146:
 252              		.size	chSysUnlock, .-chSysUnlock
 253              		.section	.rodata
 254              		.align	2
 255              	.LC0:
 256 0000 64697363 		.ascii	"discarding failed\000"
 256      61726469 
 256      6E672066 
 256      61696C65 
 256      6400
 257              		.section	.text.discard_msgpack_element,"ax",%progbits
 258              		.align	1
 259              		.p2align 4,,15
 260              		.syntax unified
 261              		.thumb
 262              		.thumb_func
 263              		.fpu fpv4-sp-d16
 264              		.type	discard_msgpack_element, %function
 265              	discard_msgpack_element:
 266              	.LFB250:
 267              		.file 4 "../lib/e-puck2_main-processor/src/parameter/parameter_msgpack.c"
 268              		.loc 4 12 0
 269              		.cfi_startproc
 270              		@ args = 4, pretend = 0, frame = 32
 271              		@ frame_needed = 0, uses_anonymous_args = 0
 272 0000 00B5     		push	{lr}
 273              		.cfi_def_cfa_offset 4
 274              		.cfi_offset 14, -4
 275 0002 89B0     		sub	sp, sp, #36
 276              		.cfi_def_cfa_offset 40
 277 0004 0590     		str	r0, [sp, #20]
 278 0006 0491     		str	r1, [sp, #16]
 279 0008 0392     		str	r2, [sp, #12]
 280 000a 0293     		str	r3, [sp, #8]
 281 000c 0A9B     		ldr	r3, [sp, #40]
ARM GAS  C:\Users\PCHAUT~1\AppData\Local\Temp\ccIm8FNl.s 			page 6


 282 000e 0193     		str	r3, [sp, #4]
 283              		.loc 4 12 0
 284 0010 314B     		ldr	r3, .L24
 285 0012 1B68     		ldr	r3, [r3]
 286 0014 0793     		str	r3, [sp, #28]
 287              		.loc 4 14 0
 288 0016 059B     		ldr	r3, [sp, #20]
 289 0018 1B78     		ldrb	r3, [r3]	@ zero_extendqisi2
 290 001a 222B     		cmp	r3, #34
 291 001c 4AD8     		bhi	.L19
 292 001e 01A2     		adr	r2, .L21
 293 0020 52F823F0 		ldr	pc, [r2, r3, lsl #2]
 294              		.p2align 2
 295              	.L21:
 296 0024 B1000000 		.word	.L20+1
 297 0028 B5000000 		.word	.L19+1
 298 002c B5000000 		.word	.L19+1
 299 0030 B5000000 		.word	.L19+1
 300 0034 B1000000 		.word	.L20+1
 301 0038 B1000000 		.word	.L20+1
 302 003c B5000000 		.word	.L19+1
 303 0040 B5000000 		.word	.L19+1
 304 0044 B5000000 		.word	.L19+1
 305 0048 B5000000 		.word	.L19+1
 306 004c B5000000 		.word	.L19+1
 307 0050 B5000000 		.word	.L19+1
 308 0054 B1000000 		.word	.L20+1
 309 0058 B1000000 		.word	.L20+1
 310 005c B1000000 		.word	.L20+1
 311 0060 B1000000 		.word	.L20+1
 312 0064 B1000000 		.word	.L20+1
 313 0068 B1000000 		.word	.L20+1
 314 006c B1000000 		.word	.L20+1
 315 0070 B1000000 		.word	.L20+1
 316 0074 B1000000 		.word	.L20+1
 317 0078 B1000000 		.word	.L20+1
 318 007c B5000000 		.word	.L19+1
 319 0080 B5000000 		.word	.L19+1
 320 0084 B5000000 		.word	.L19+1
 321 0088 B5000000 		.word	.L19+1
 322 008c B5000000 		.word	.L19+1
 323 0090 B5000000 		.word	.L19+1
 324 0094 B5000000 		.word	.L19+1
 325 0098 B5000000 		.word	.L19+1
 326 009c B5000000 		.word	.L19+1
 327 00a0 B5000000 		.word	.L19+1
 328 00a4 B5000000 		.word	.L19+1
 329 00a8 B5000000 		.word	.L19+1
 330 00ac B1000000 		.word	.L20+1
 331              		.p2align 1
 332              	.L20:
 333              		.loc 4 29 0
 334 00b0 0023     		movs	r3, #0
 335 00b2 06E0     		b	.L22
 336              	.L19:
 337              		.loc 4 32 0
 338 00b4 039B     		ldr	r3, [sp, #12]
ARM GAS  C:\Users\PCHAUT~1\AppData\Local\Temp\ccIm8FNl.s 			page 7


 339 00b6 094A     		ldr	r2, .L24+4
 340 00b8 0199     		ldr	r1, [sp, #4]
 341 00ba 0298     		ldr	r0, [sp, #8]
 342 00bc 9847     		blx	r3
 343              	.LVL0:
 344              		.loc 4 33 0
 345 00be 4FF0FF33 		mov	r3, #-1
 346              	.L22:
 347              		.loc 4 35 0
 348 00c2 1846     		mov	r0, r3
 349 00c4 044B     		ldr	r3, .L24
 350 00c6 079A     		ldr	r2, [sp, #28]
 351 00c8 1B68     		ldr	r3, [r3]
 352 00ca 9A42     		cmp	r2, r3
 353 00cc 01D0     		beq	.L23
 354 00ce FFF7FEFF 		bl	__stack_chk_fail
 355              	.L23:
 356 00d2 09B0     		add	sp, sp, #36
 357              		.cfi_def_cfa_offset 4
 358              		@ sp needed
 359 00d4 5DF804FB 		ldr	pc, [sp], #4
 360              	.L25:
 361              		.align	2
 362              	.L24:
 363 00d8 00000000 		.word	__stack_chk_guard
 364 00dc 00000000 		.word	.LC0
 365              		.cfi_endproc
 366              	.LFE250:
 367              		.size	discard_msgpack_element, .-discard_msgpack_element
 368              		.global	__aeabi_l2f
 369              		.section	.text.get_float,"ax",%progbits
 370              		.align	1
 371              		.p2align 4,,15
 372              		.syntax unified
 373              		.thumb
 374              		.thumb_func
 375              		.fpu fpv4-sp-d16
 376              		.type	get_float, %function
 377              	get_float:
 378              	.LFB251:
 379              		.loc 4 39 0
 380              		.cfi_startproc
 381              		@ args = 0, pretend = 0, frame = 32
 382              		@ frame_needed = 0, uses_anonymous_args = 0
 383 0000 10B5     		push	{r4, lr}
 384              		.cfi_def_cfa_offset 8
 385              		.cfi_offset 4, -8
 386              		.cfi_offset 14, -4
 387 0002 88B0     		sub	sp, sp, #32
 388              		.cfi_def_cfa_offset 40
 389 0004 0190     		str	r0, [sp, #4]
 390 0006 0091     		str	r1, [sp]
 391              		.loc 4 39 0
 392 0008 164B     		ldr	r3, .L32
 393 000a 1B68     		ldr	r3, [r3]
 394 000c 0793     		str	r3, [sp, #28]
 395              		.loc 4 42 0
ARM GAS  C:\Users\PCHAUT~1\AppData\Local\Temp\ccIm8FNl.s 			page 8


 396 000e 03AB     		add	r3, sp, #12
 397 0010 1946     		mov	r1, r3
 398 0012 0198     		ldr	r0, [sp, #4]
 399 0014 FFF7FEFF 		bl	cmp_object_as_float
 400 0018 0346     		mov	r3, r0
 401 001a 002B     		cmp	r3, #0
 402 001c 04D0     		beq	.L27
 403              		.loc 4 43 0
 404 001e 039A     		ldr	r2, [sp, #12]	@ float
 405 0020 009B     		ldr	r3, [sp]
 406 0022 1A60     		str	r2, [r3]	@ float
 407              		.loc 4 44 0
 408 0024 0123     		movs	r3, #1
 409 0026 13E0     		b	.L30
 410              	.L27:
 411              		.loc 4 45 0
 412 0028 04AB     		add	r3, sp, #16
 413 002a 1946     		mov	r1, r3
 414 002c 0198     		ldr	r0, [sp, #4]
 415 002e FFF7FEFF 		bl	cmp_object_as_sinteger
 416 0032 0346     		mov	r3, r0
 417 0034 002B     		cmp	r3, #0
 418 0036 0AD0     		beq	.L29
 419              		.loc 4 46 0
 420 0038 DDE90434 		ldrd	r3, [sp, #16]
 421 003c 1846     		mov	r0, r3
 422 003e 2146     		mov	r1, r4
 423 0040 FFF7FEFF 		bl	__aeabi_l2f
 424              	.LVL1:
 425 0044 0246     		mov	r2, r0	@ float
 426 0046 009B     		ldr	r3, [sp]
 427 0048 1A60     		str	r2, [r3]	@ float
 428              		.loc 4 47 0
 429 004a 0123     		movs	r3, #1
 430 004c 00E0     		b	.L30
 431              	.L29:
 432              		.loc 4 49 0
 433 004e 0023     		movs	r3, #0
 434              	.L30:
 435              		.loc 4 50 0 discriminator 1
 436 0050 1846     		mov	r0, r3
 437 0052 044B     		ldr	r3, .L32
 438 0054 079A     		ldr	r2, [sp, #28]
 439 0056 1B68     		ldr	r3, [r3]
 440 0058 9A42     		cmp	r2, r3
 441 005a 01D0     		beq	.L31
 442              		.loc 4 50 0 is_stmt 0
 443 005c FFF7FEFF 		bl	__stack_chk_fail
 444              	.L31:
 445 0060 08B0     		add	sp, sp, #32
 446              		.cfi_def_cfa_offset 8
 447              		@ sp needed
 448 0062 10BD     		pop	{r4, pc}
 449              	.L33:
 450              		.align	2
 451              	.L32:
 452 0064 00000000 		.word	__stack_chk_guard
ARM GAS  C:\Users\PCHAUT~1\AppData\Local\Temp\ccIm8FNl.s 			page 9


 453              		.cfi_endproc
 454              	.LFE251:
 455              		.size	get_float, .-get_float
 456              		.section	.text.get_int,"ax",%progbits
 457              		.align	1
 458              		.p2align 4,,15
 459              		.syntax unified
 460              		.thumb
 461              		.thumb_func
 462              		.fpu fpv4-sp-d16
 463              		.type	get_int, %function
 464              	get_int:
 465              	.LFB252:
 466              		.loc 4 53 0 is_stmt 1
 467              		.cfi_startproc
 468              		@ args = 0, pretend = 0, frame = 16
 469              		@ frame_needed = 0, uses_anonymous_args = 0
 470 0000 00B5     		push	{lr}
 471              		.cfi_def_cfa_offset 4
 472              		.cfi_offset 14, -4
 473 0002 85B0     		sub	sp, sp, #20
 474              		.cfi_def_cfa_offset 24
 475 0004 0190     		str	r0, [sp, #4]
 476 0006 0091     		str	r1, [sp]
 477              		.loc 4 53 0
 478 0008 0B4B     		ldr	r3, .L38
 479 000a 1B68     		ldr	r3, [r3]
 480 000c 0393     		str	r3, [sp, #12]
 481              		.loc 4 54 0
 482 000e 0099     		ldr	r1, [sp]
 483 0010 0198     		ldr	r0, [sp, #4]
 484 0012 FFF7FEFF 		bl	cmp_object_as_int
 485 0016 0346     		mov	r3, r0
 486 0018 002B     		cmp	r3, #0
 487 001a 01D0     		beq	.L35
 488              		.loc 4 55 0
 489 001c 0123     		movs	r3, #1
 490 001e 00E0     		b	.L36
 491              	.L35:
 492              		.loc 4 57 0
 493 0020 0023     		movs	r3, #0
 494              	.L36:
 495              		.loc 4 58 0
 496 0022 1846     		mov	r0, r3
 497 0024 044B     		ldr	r3, .L38
 498 0026 039A     		ldr	r2, [sp, #12]
 499 0028 1B68     		ldr	r3, [r3]
 500 002a 9A42     		cmp	r2, r3
 501 002c 01D0     		beq	.L37
 502 002e FFF7FEFF 		bl	__stack_chk_fail
 503              	.L37:
 504 0032 05B0     		add	sp, sp, #20
 505              		.cfi_def_cfa_offset 4
 506              		@ sp needed
 507 0034 5DF804FB 		ldr	pc, [sp], #4
 508              	.L39:
 509              		.align	2
ARM GAS  C:\Users\PCHAUT~1\AppData\Local\Temp\ccIm8FNl.s 			page 10


 510              	.L38:
 511 0038 00000000 		.word	__stack_chk_guard
 512              		.cfi_endproc
 513              	.LFE252:
 514              		.size	get_int, .-get_int
 515              		.section	.text.get_bool,"ax",%progbits
 516              		.align	1
 517              		.p2align 4,,15
 518              		.syntax unified
 519              		.thumb
 520              		.thumb_func
 521              		.fpu fpv4-sp-d16
 522              		.type	get_bool, %function
 523              	get_bool:
 524              	.LFB253:
 525              		.loc 4 61 0
 526              		.cfi_startproc
 527              		@ args = 0, pretend = 0, frame = 16
 528              		@ frame_needed = 0, uses_anonymous_args = 0
 529 0000 00B5     		push	{lr}
 530              		.cfi_def_cfa_offset 4
 531              		.cfi_offset 14, -4
 532 0002 85B0     		sub	sp, sp, #20
 533              		.cfi_def_cfa_offset 24
 534 0004 0190     		str	r0, [sp, #4]
 535 0006 0091     		str	r1, [sp]
 536              		.loc 4 61 0
 537 0008 0B4B     		ldr	r3, .L44
 538 000a 1B68     		ldr	r3, [r3]
 539 000c 0393     		str	r3, [sp, #12]
 540              		.loc 4 62 0
 541 000e 0099     		ldr	r1, [sp]
 542 0010 0198     		ldr	r0, [sp, #4]
 543 0012 FFF7FEFF 		bl	cmp_object_as_bool
 544 0016 0346     		mov	r3, r0
 545 0018 002B     		cmp	r3, #0
 546 001a 01D0     		beq	.L41
 547              		.loc 4 63 0
 548 001c 0123     		movs	r3, #1
 549 001e 00E0     		b	.L42
 550              	.L41:
 551              		.loc 4 65 0
 552 0020 0023     		movs	r3, #0
 553              	.L42:
 554              		.loc 4 66 0
 555 0022 1846     		mov	r0, r3
 556 0024 044B     		ldr	r3, .L44
 557 0026 039A     		ldr	r2, [sp, #12]
 558 0028 1B68     		ldr	r3, [r3]
 559 002a 9A42     		cmp	r2, r3
 560 002c 01D0     		beq	.L43
 561 002e FFF7FEFF 		bl	__stack_chk_fail
 562              	.L43:
 563 0032 05B0     		add	sp, sp, #20
 564              		.cfi_def_cfa_offset 4
 565              		@ sp needed
 566 0034 5DF804FB 		ldr	pc, [sp], #4
ARM GAS  C:\Users\PCHAUT~1\AppData\Local\Temp\ccIm8FNl.s 			page 11


 567              	.L45:
 568              		.align	2
 569              	.L44:
 570 0038 00000000 		.word	__stack_chk_guard
 571              		.cfi_endproc
 572              	.LFE253:
 573              		.size	get_bool, .-get_bool
 574              		.section	.rodata
 575 0012 0000     		.align	2
 576              	.LC1:
 577 0014 636F756C 		.ascii	"could not read object\000"
 577      64206E6F 
 577      74207265 
 577      6164206F 
 577      626A6563 
 578 002a 0000     		.align	2
 579              	.LC2:
 580 002c 7761726E 		.ascii	"warning: type mismatch\000"
 580      696E673A 
 580      20747970 
 580      65206D69 
 580      736D6174 
 581              		.section	.text.get_vector,"ax",%progbits
 582              		.align	1
 583              		.p2align 4,,15
 584              		.syntax unified
 585              		.thumb
 586              		.thumb_func
 587              		.fpu fpv4-sp-d16
 588              		.type	get_vector, %function
 589              	get_vector:
 590              	.LFB254:
 591              		.loc 4 74 0
 592              		.cfi_startproc
 593              		@ args = 8, pretend = 0, frame = 64
 594              		@ frame_needed = 0, uses_anonymous_args = 0
 595 0000 00B5     		push	{lr}
 596              		.cfi_def_cfa_offset 4
 597              		.cfi_offset 14, -4
 598 0002 93B0     		sub	sp, sp, #76
 599              		.cfi_def_cfa_offset 80
 600 0004 0790     		str	r0, [sp, #28]
 601 0006 0691     		str	r1, [sp, #24]
 602 0008 0592     		str	r2, [sp, #20]
 603 000a 0493     		str	r3, [sp, #16]
 604 000c 149B     		ldr	r3, [sp, #80]
 605 000e 0393     		str	r3, [sp, #12]
 606 0010 159B     		ldr	r3, [sp, #84]
 607 0012 0293     		str	r3, [sp, #8]
 608              		.loc 4 74 0
 609 0014 344B     		ldr	r3, .L57
 610 0016 1B68     		ldr	r3, [r3]
 611 0018 1193     		str	r3, [sp, #68]
 612              		.loc 4 75 0
 613 001a 0023     		movs	r3, #0
 614 001c 8DF82330 		strb	r3, [sp, #35]
 615              		.loc 4 77 0
ARM GAS  C:\Users\PCHAUT~1\AppData\Local\Temp\ccIm8FNl.s 			page 12


 616 0020 0023     		movs	r3, #0
 617 0022 0A93     		str	r3, [sp, #40]
 618 0024 49E0     		b	.L47
 619              	.L54:
 620              	.LBB10:
 621              		.loc 4 79 0
 622 0026 0CAB     		add	r3, sp, #48
 623 0028 1946     		mov	r1, r3
 624 002a 0798     		ldr	r0, [sp, #28]
 625 002c FFF7FEFF 		bl	cmp_read_object
 626 0030 0346     		mov	r3, r0
 627 0032 83F00103 		eor	r3, r3, #1
 628 0036 DBB2     		uxtb	r3, r3
 629 0038 002B     		cmp	r3, #0
 630 003a 07D0     		beq	.L48
 631              		.loc 4 80 0
 632 003c 049B     		ldr	r3, [sp, #16]
 633 003e 2B4A     		ldr	r2, .L57+4
 634 0040 0299     		ldr	r1, [sp, #8]
 635 0042 0398     		ldr	r0, [sp, #12]
 636 0044 9847     		blx	r3
 637              	.LVL2:
 638              		.loc 4 81 0
 639 0046 4FF0FF33 		mov	r3, #-1
 640 004a 42E0     		b	.L53
 641              	.L48:
 642              		.loc 4 84 0
 643 004c 9DF82330 		ldrb	r3, [sp, #35]
 644 0050 83F00103 		eor	r3, r3, #1
 645 0054 DBB2     		uxtb	r3, r3
 646 0056 002B     		cmp	r3, #0
 647 0058 0FD0     		beq	.L50
 648              		.loc 4 84 0 is_stmt 0 discriminator 1
 649 005a 09AA     		add	r2, sp, #36
 650 005c 0CAB     		add	r3, sp, #48
 651 005e 1146     		mov	r1, r2
 652 0060 1846     		mov	r0, r3
 653 0062 FFF7FEFF 		bl	get_float
 654 0066 0346     		mov	r3, r0
 655 0068 002B     		cmp	r3, #0
 656 006a 06D0     		beq	.L50
 657              		.loc 4 85 0 is_stmt 1
 658 006c 0A9B     		ldr	r3, [sp, #40]
 659 006e 9B00     		lsls	r3, r3, #2
 660 0070 069A     		ldr	r2, [sp, #24]
 661 0072 1344     		add	r3, r3, r2
 662 0074 099A     		ldr	r2, [sp, #36]	@ float
 663 0076 1A60     		str	r2, [r3]	@ float
 664 0078 1CE0     		b	.L51
 665              	.L50:
 666              	.LBB11:
 667              		.loc 4 87 0
 668 007a 9DF82330 		ldrb	r3, [sp, #35]
 669 007e 83F00103 		eor	r3, r3, #1
 670 0082 DBB2     		uxtb	r3, r3
 671 0084 002B     		cmp	r3, #0
 672 0086 07D0     		beq	.L52
ARM GAS  C:\Users\PCHAUT~1\AppData\Local\Temp\ccIm8FNl.s 			page 13


 673              		.loc 4 88 0
 674 0088 0123     		movs	r3, #1
 675 008a 8DF82330 		strb	r3, [sp, #35]
 676              		.loc 4 89 0
 677 008e 049B     		ldr	r3, [sp, #16]
 678 0090 174A     		ldr	r2, .L57+8
 679 0092 0299     		ldr	r1, [sp, #8]
 680 0094 0398     		ldr	r0, [sp, #12]
 681 0096 9847     		blx	r3
 682              	.LVL3:
 683              	.L52:
 684              		.loc 4 91 0
 685 0098 0CA8     		add	r0, sp, #48
 686 009a 029B     		ldr	r3, [sp, #8]
 687 009c 0093     		str	r3, [sp]
 688 009e 039B     		ldr	r3, [sp, #12]
 689 00a0 049A     		ldr	r2, [sp, #16]
 690 00a2 0799     		ldr	r1, [sp, #28]
 691 00a4 FFF7FEFF 		bl	discard_msgpack_element
 692 00a8 0B90     		str	r0, [sp, #44]
 693              		.loc 4 92 0
 694 00aa 0B9B     		ldr	r3, [sp, #44]
 695 00ac 002B     		cmp	r3, #0
 696 00ae 01D0     		beq	.L51
 697              		.loc 4 93 0
 698 00b0 0B9B     		ldr	r3, [sp, #44]
 699 00b2 0EE0     		b	.L53
 700              	.L51:
 701              	.LBE11:
 702              	.LBE10:
 703              		.loc 4 77 0
 704 00b4 0A9B     		ldr	r3, [sp, #40]
 705 00b6 0133     		adds	r3, r3, #1
 706 00b8 0A93     		str	r3, [sp, #40]
 707              	.L47:
 708              		.loc 4 77 0 is_stmt 0 discriminator 1
 709 00ba 0A9A     		ldr	r2, [sp, #40]
 710 00bc 059B     		ldr	r3, [sp, #20]
 711 00be 9A42     		cmp	r2, r3
 712 00c0 B1DB     		blt	.L54
 713              		.loc 4 97 0 is_stmt 1
 714 00c2 9DF82330 		ldrb	r3, [sp, #35]	@ zero_extendqisi2
 715 00c6 002B     		cmp	r3, #0
 716 00c8 02D0     		beq	.L55
 717              		.loc 4 98 0
 718 00ca 4FF0FF33 		mov	r3, #-1
 719 00ce 00E0     		b	.L53
 720              	.L55:
 721              		.loc 4 100 0
 722 00d0 0023     		movs	r3, #0
 723              	.L53:
 724              		.loc 4 102 0
 725 00d2 1846     		mov	r0, r3
 726 00d4 044B     		ldr	r3, .L57
 727 00d6 119A     		ldr	r2, [sp, #68]
 728 00d8 1B68     		ldr	r3, [r3]
 729 00da 9A42     		cmp	r2, r3
ARM GAS  C:\Users\PCHAUT~1\AppData\Local\Temp\ccIm8FNl.s 			page 14


 730 00dc 01D0     		beq	.L56
 731 00de FFF7FEFF 		bl	__stack_chk_fail
 732              	.L56:
 733 00e2 13B0     		add	sp, sp, #76
 734              		.cfi_def_cfa_offset 4
 735              		@ sp needed
 736 00e4 5DF804FB 		ldr	pc, [sp], #4
 737              	.L58:
 738              		.align	2
 739              	.L57:
 740 00e8 00000000 		.word	__stack_chk_guard
 741 00ec 14000000 		.word	.LC1
 742 00f0 2C000000 		.word	.LC2
 743              		.cfi_endproc
 744              	.LFE254:
 745              		.size	get_vector, .-get_vector
 746              		.section	.text.read_parameter_scalar,"ax",%progbits
 747              		.align	1
 748              		.p2align 4,,15
 749              		.syntax unified
 750              		.thumb
 751              		.thumb_func
 752              		.fpu fpv4-sp-d16
 753              		.type	read_parameter_scalar, %function
 754              	read_parameter_scalar:
 755              	.LFB255:
 756              		.loc 4 109 0
 757              		.cfi_startproc
 758              		@ args = 4, pretend = 0, frame = 40
 759              		@ frame_needed = 0, uses_anonymous_args = 0
 760 0000 00B5     		push	{lr}
 761              		.cfi_def_cfa_offset 4
 762              		.cfi_offset 14, -4
 763 0002 8DB0     		sub	sp, sp, #52
 764              		.cfi_def_cfa_offset 56
 765 0004 0790     		str	r0, [sp, #28]
 766 0006 0691     		str	r1, [sp, #24]
 767 0008 0592     		str	r2, [sp, #20]
 768 000a 0493     		str	r3, [sp, #16]
 769 000c 0E9B     		ldr	r3, [sp, #56]
 770 000e 0393     		str	r3, [sp, #12]
 771              		.loc 4 109 0
 772 0010 194B     		ldr	r3, .L65
 773 0012 1B68     		ldr	r3, [r3]
 774 0014 0B93     		str	r3, [sp, #44]
 775              		.loc 4 111 0
 776 0016 09AB     		add	r3, sp, #36
 777 0018 1946     		mov	r1, r3
 778 001a 0698     		ldr	r0, [sp, #24]
 779 001c FFF7FEFF 		bl	get_float
 780 0020 0346     		mov	r3, r0
 781 0022 002B     		cmp	r3, #0
 782 0024 07D0     		beq	.L60
 783              		.loc 4 112 0
 784 0026 DDED097A 		vldr.32	s15, [sp, #36]
 785 002a B0EE670A 		vmov.f32	s0, s15
 786 002e 0798     		ldr	r0, [sp, #28]
ARM GAS  C:\Users\PCHAUT~1\AppData\Local\Temp\ccIm8FNl.s 			page 15


 787 0030 FFF7FEFF 		bl	parameter_scalar_set
 788 0034 14E0     		b	.L61
 789              	.L60:
 790              	.LBB12:
 791              		.loc 4 114 0
 792 0036 079B     		ldr	r3, [sp, #28]
 793 0038 1968     		ldr	r1, [r3]
 794 003a 049B     		ldr	r3, [sp, #16]
 795 003c 0F4A     		ldr	r2, .L65+4
 796 003e 0398     		ldr	r0, [sp, #12]
 797 0040 9847     		blx	r3
 798              	.LVL4:
 799              		.loc 4 115 0
 800 0042 079B     		ldr	r3, [sp, #28]
 801 0044 1B68     		ldr	r3, [r3]
 802 0046 0093     		str	r3, [sp]
 803 0048 039B     		ldr	r3, [sp, #12]
 804 004a 049A     		ldr	r2, [sp, #16]
 805 004c 0599     		ldr	r1, [sp, #20]
 806 004e 0698     		ldr	r0, [sp, #24]
 807 0050 FFF7FEFF 		bl	discard_msgpack_element
 808 0054 0A90     		str	r0, [sp, #40]
 809              		.loc 4 116 0
 810 0056 0A9B     		ldr	r3, [sp, #40]
 811 0058 002B     		cmp	r3, #0
 812 005a 01D0     		beq	.L61
 813              		.loc 4 117 0
 814 005c 0A9B     		ldr	r3, [sp, #40]
 815 005e 00E0     		b	.L63
 816              	.L61:
 817              	.LBE12:
 818              		.loc 4 120 0
 819 0060 0023     		movs	r3, #0
 820              	.L63:
 821              		.loc 4 121 0 discriminator 1
 822 0062 1846     		mov	r0, r3
 823 0064 044B     		ldr	r3, .L65
 824 0066 0B9A     		ldr	r2, [sp, #44]
 825 0068 1B68     		ldr	r3, [r3]
 826 006a 9A42     		cmp	r2, r3
 827 006c 01D0     		beq	.L64
 828              		.loc 4 121 0 is_stmt 0
 829 006e FFF7FEFF 		bl	__stack_chk_fail
 830              	.L64:
 831 0072 0DB0     		add	sp, sp, #52
 832              		.cfi_def_cfa_offset 4
 833              		@ sp needed
 834 0074 5DF804FB 		ldr	pc, [sp], #4
 835              	.L66:
 836              		.align	2
 837              	.L65:
 838 0078 00000000 		.word	__stack_chk_guard
 839 007c 2C000000 		.word	.LC2
 840              		.cfi_endproc
 841              	.LFE255:
 842              		.size	read_parameter_scalar, .-read_parameter_scalar
 843              		.section	.text.read_parameter_integer,"ax",%progbits
ARM GAS  C:\Users\PCHAUT~1\AppData\Local\Temp\ccIm8FNl.s 			page 16


 844              		.align	1
 845              		.p2align 4,,15
 846              		.syntax unified
 847              		.thumb
 848              		.thumb_func
 849              		.fpu fpv4-sp-d16
 850              		.type	read_parameter_integer, %function
 851              	read_parameter_integer:
 852              	.LFB256:
 853              		.loc 4 128 0 is_stmt 1
 854              		.cfi_startproc
 855              		@ args = 4, pretend = 0, frame = 40
 856              		@ frame_needed = 0, uses_anonymous_args = 0
 857 0000 00B5     		push	{lr}
 858              		.cfi_def_cfa_offset 4
 859              		.cfi_offset 14, -4
 860 0002 8DB0     		sub	sp, sp, #52
 861              		.cfi_def_cfa_offset 56
 862 0004 0790     		str	r0, [sp, #28]
 863 0006 0691     		str	r1, [sp, #24]
 864 0008 0592     		str	r2, [sp, #20]
 865 000a 0493     		str	r3, [sp, #16]
 866 000c 0E9B     		ldr	r3, [sp, #56]
 867 000e 0393     		str	r3, [sp, #12]
 868              		.loc 4 128 0
 869 0010 184B     		ldr	r3, .L73
 870 0012 1B68     		ldr	r3, [r3]
 871 0014 0B93     		str	r3, [sp, #44]
 872              		.loc 4 130 0
 873 0016 09AB     		add	r3, sp, #36
 874 0018 1946     		mov	r1, r3
 875 001a 0698     		ldr	r0, [sp, #24]
 876 001c FFF7FEFF 		bl	get_int
 877 0020 0346     		mov	r3, r0
 878 0022 002B     		cmp	r3, #0
 879 0024 05D0     		beq	.L68
 880              		.loc 4 131 0
 881 0026 099B     		ldr	r3, [sp, #36]
 882 0028 1946     		mov	r1, r3
 883 002a 0798     		ldr	r0, [sp, #28]
 884 002c FFF7FEFF 		bl	parameter_integer_set
 885 0030 14E0     		b	.L69
 886              	.L68:
 887              	.LBB13:
 888              		.loc 4 133 0
 889 0032 079B     		ldr	r3, [sp, #28]
 890 0034 1968     		ldr	r1, [r3]
 891 0036 049B     		ldr	r3, [sp, #16]
 892 0038 0F4A     		ldr	r2, .L73+4
 893 003a 0398     		ldr	r0, [sp, #12]
 894 003c 9847     		blx	r3
 895              	.LVL5:
 896              		.loc 4 134 0
 897 003e 079B     		ldr	r3, [sp, #28]
 898 0040 1B68     		ldr	r3, [r3]
 899 0042 0093     		str	r3, [sp]
 900 0044 039B     		ldr	r3, [sp, #12]
ARM GAS  C:\Users\PCHAUT~1\AppData\Local\Temp\ccIm8FNl.s 			page 17


 901 0046 049A     		ldr	r2, [sp, #16]
 902 0048 0599     		ldr	r1, [sp, #20]
 903 004a 0698     		ldr	r0, [sp, #24]
 904 004c FFF7FEFF 		bl	discard_msgpack_element
 905 0050 0A90     		str	r0, [sp, #40]
 906              		.loc 4 135 0
 907 0052 0A9B     		ldr	r3, [sp, #40]
 908 0054 002B     		cmp	r3, #0
 909 0056 01D0     		beq	.L69
 910              		.loc 4 136 0
 911 0058 0A9B     		ldr	r3, [sp, #40]
 912 005a 00E0     		b	.L71
 913              	.L69:
 914              	.LBE13:
 915              		.loc 4 139 0
 916 005c 0023     		movs	r3, #0
 917              	.L71:
 918              		.loc 4 140 0 discriminator 1
 919 005e 1846     		mov	r0, r3
 920 0060 044B     		ldr	r3, .L73
 921 0062 0B9A     		ldr	r2, [sp, #44]
 922 0064 1B68     		ldr	r3, [r3]
 923 0066 9A42     		cmp	r2, r3
 924 0068 01D0     		beq	.L72
 925              		.loc 4 140 0 is_stmt 0
 926 006a FFF7FEFF 		bl	__stack_chk_fail
 927              	.L72:
 928 006e 0DB0     		add	sp, sp, #52
 929              		.cfi_def_cfa_offset 4
 930              		@ sp needed
 931 0070 5DF804FB 		ldr	pc, [sp], #4
 932              	.L74:
 933              		.align	2
 934              	.L73:
 935 0074 00000000 		.word	__stack_chk_guard
 936 0078 2C000000 		.word	.LC2
 937              		.cfi_endproc
 938              	.LFE256:
 939              		.size	read_parameter_integer, .-read_parameter_integer
 940              		.section	.text.read_parameter_boolean,"ax",%progbits
 941              		.align	1
 942              		.p2align 4,,15
 943              		.syntax unified
 944              		.thumb
 945              		.thumb_func
 946              		.fpu fpv4-sp-d16
 947              		.type	read_parameter_boolean, %function
 948              	read_parameter_boolean:
 949              	.LFB257:
 950              		.loc 4 147 0 is_stmt 1
 951              		.cfi_startproc
 952              		@ args = 4, pretend = 0, frame = 40
 953              		@ frame_needed = 0, uses_anonymous_args = 0
 954 0000 00B5     		push	{lr}
 955              		.cfi_def_cfa_offset 4
 956              		.cfi_offset 14, -4
 957 0002 8DB0     		sub	sp, sp, #52
ARM GAS  C:\Users\PCHAUT~1\AppData\Local\Temp\ccIm8FNl.s 			page 18


 958              		.cfi_def_cfa_offset 56
 959 0004 0790     		str	r0, [sp, #28]
 960 0006 0691     		str	r1, [sp, #24]
 961 0008 0592     		str	r2, [sp, #20]
 962 000a 0493     		str	r3, [sp, #16]
 963 000c 0E9B     		ldr	r3, [sp, #56]
 964 000e 0393     		str	r3, [sp, #12]
 965              		.loc 4 147 0
 966 0010 1C4B     		ldr	r3, .L81
 967 0012 1B68     		ldr	r3, [r3]
 968 0014 0B93     		str	r3, [sp, #44]
 969              		.loc 4 149 0
 970 0016 0DF12703 		add	r3, sp, #39
 971 001a 1946     		mov	r1, r3
 972 001c 0698     		ldr	r0, [sp, #24]
 973 001e FFF7FEFF 		bl	get_bool
 974 0022 0346     		mov	r3, r0
 975 0024 002B     		cmp	r3, #0
 976 0026 06D0     		beq	.L76
 977              		.loc 4 150 0
 978 0028 9DF82730 		ldrb	r3, [sp, #39]	@ zero_extendqisi2
 979 002c 1946     		mov	r1, r3
 980 002e 0798     		ldr	r0, [sp, #28]
 981 0030 FFF7FEFF 		bl	parameter_boolean_set
 982 0034 19E0     		b	.L77
 983              	.L76:
 984              	.LBB14:
 985              		.loc 4 152 0
 986 0036 079B     		ldr	r3, [sp, #28]
 987 0038 1968     		ldr	r1, [r3]
 988 003a 049B     		ldr	r3, [sp, #16]
 989 003c 124A     		ldr	r2, .L81+4
 990 003e 0398     		ldr	r0, [sp, #12]
 991 0040 9847     		blx	r3
 992              	.LVL6:
 993              		.loc 4 153 0
 994 0042 079B     		ldr	r3, [sp, #28]
 995 0044 1B68     		ldr	r3, [r3]
 996 0046 0093     		str	r3, [sp]
 997 0048 039B     		ldr	r3, [sp, #12]
 998 004a 049A     		ldr	r2, [sp, #16]
 999 004c 0599     		ldr	r1, [sp, #20]
 1000 004e 0698     		ldr	r0, [sp, #24]
 1001 0050 FFF7FEFF 		bl	discard_msgpack_element
 1002 0054 0A90     		str	r0, [sp, #40]
 1003              		.loc 4 154 0
 1004 0056 0A9B     		ldr	r3, [sp, #40]
 1005 0058 002B     		cmp	r3, #0
 1006 005a 06D0     		beq	.L77
 1007              		.loc 4 155 0
 1008 005c 0A9B     		ldr	r3, [sp, #40]
 1009 005e 002B     		cmp	r3, #0
 1010 0060 14BF     		ite	ne
 1011 0062 0123     		movne	r3, #1
 1012 0064 0023     		moveq	r3, #0
 1013 0066 DBB2     		uxtb	r3, r3
 1014 0068 00E0     		b	.L79
ARM GAS  C:\Users\PCHAUT~1\AppData\Local\Temp\ccIm8FNl.s 			page 19


 1015              	.L77:
 1016              	.LBE14:
 1017              		.loc 4 158 0
 1018 006a 0023     		movs	r3, #0
 1019              	.L79:
 1020              		.loc 4 159 0 discriminator 1
 1021 006c 1846     		mov	r0, r3
 1022 006e 054B     		ldr	r3, .L81
 1023 0070 0B9A     		ldr	r2, [sp, #44]
 1024 0072 1B68     		ldr	r3, [r3]
 1025 0074 9A42     		cmp	r2, r3
 1026 0076 01D0     		beq	.L80
 1027              		.loc 4 159 0 is_stmt 0
 1028 0078 FFF7FEFF 		bl	__stack_chk_fail
 1029              	.L80:
 1030 007c 0DB0     		add	sp, sp, #52
 1031              		.cfi_def_cfa_offset 4
 1032              		@ sp needed
 1033 007e 5DF804FB 		ldr	pc, [sp], #4
 1034              	.L82:
 1035 0082 00BF     		.align	2
 1036              	.L81:
 1037 0084 00000000 		.word	__stack_chk_guard
 1038 0088 2C000000 		.word	.LC2
 1039              		.cfi_endproc
 1040              	.LFE257:
 1041              		.size	read_parameter_boolean, .-read_parameter_boolean
 1042              		.section	.rodata
 1043 0043 00       		.align	2
 1044              	.LC3:
 1045 0044 7761726E 		.ascii	"warning: wrong vector dimension\000"
 1045      696E673A 
 1045      2077726F 
 1045      6E672076 
 1045      6563746F 
 1046              		.align	2
 1047              	.LC4:
 1048 0064 7761726E 		.ascii	"warning: allocation failed\000"
 1048      696E673A 
 1048      20616C6C 
 1048      6F636174 
 1048      696F6E20 
 1049              		.section	.text.read_parameter_vector,"ax",%progbits
 1050              		.align	1
 1051              		.p2align 4,,15
 1052              		.syntax unified
 1053              		.thumb
 1054              		.thumb_func
 1055              		.fpu fpv4-sp-d16
 1056              		.type	read_parameter_vector, %function
 1057              	read_parameter_vector:
 1058              	.LFB258:
 1059              		.loc 4 166 0 is_stmt 1
 1060              		.cfi_startproc
 1061              		@ args = 4, pretend = 0, frame = 56
 1062              		@ frame_needed = 0, uses_anonymous_args = 0
 1063 0000 00B5     		push	{lr}
ARM GAS  C:\Users\PCHAUT~1\AppData\Local\Temp\ccIm8FNl.s 			page 20


 1064              		.cfi_def_cfa_offset 4
 1065              		.cfi_offset 14, -4
 1066 0002 91B0     		sub	sp, sp, #68
 1067              		.cfi_def_cfa_offset 72
 1068 0004 0790     		str	r0, [sp, #28]
 1069 0006 0691     		str	r1, [sp, #24]
 1070 0008 0592     		str	r2, [sp, #20]
 1071 000a 0493     		str	r3, [sp, #16]
 1072 000c 129B     		ldr	r3, [sp, #72]
 1073 000e 0393     		str	r3, [sp, #12]
 1074              		.loc 4 166 0
 1075 0010 414B     		ldr	r3, .L92
 1076 0012 1B68     		ldr	r3, [r3]
 1077 0014 0F93     		str	r3, [sp, #60]
 1078              		.loc 4 168 0
 1079 0016 09AB     		add	r3, sp, #36
 1080 0018 1946     		mov	r1, r3
 1081 001a 0698     		ldr	r0, [sp, #24]
 1082 001c FFF7FEFF 		bl	cmp_object_as_array
 1083 0020 0346     		mov	r3, r0
 1084 0022 002B     		cmp	r3, #0
 1085 0024 56D0     		beq	.L84
 1086              	.LBB15:
 1087              		.loc 4 169 0
 1088 0026 079B     		ldr	r3, [sp, #28]
 1089 0028 DB8A     		ldrh	r3, [r3, #22]
 1090 002a 1A46     		mov	r2, r3
 1091 002c 099B     		ldr	r3, [sp, #36]
 1092 002e 9A42     		cmp	r2, r3
 1093 0030 14D0     		beq	.L85
 1094              	.LBB16:
 1095              		.loc 4 170 0
 1096 0032 079B     		ldr	r3, [sp, #28]
 1097 0034 1968     		ldr	r1, [r3]
 1098 0036 049B     		ldr	r3, [sp, #16]
 1099 0038 384A     		ldr	r2, .L92+4
 1100 003a 0398     		ldr	r0, [sp, #12]
 1101 003c 9847     		blx	r3
 1102              	.LVL7:
 1103              		.loc 4 171 0
 1104 003e 079B     		ldr	r3, [sp, #28]
 1105 0040 1B68     		ldr	r3, [r3]
 1106 0042 0093     		str	r3, [sp]
 1107 0044 039B     		ldr	r3, [sp, #12]
 1108 0046 049A     		ldr	r2, [sp, #16]
 1109 0048 0599     		ldr	r1, [sp, #20]
 1110 004a 0698     		ldr	r0, [sp, #24]
 1111 004c FFF7FEFF 		bl	discard_msgpack_element
 1112 0050 0B90     		str	r0, [sp, #44]
 1113              		.loc 4 172 0
 1114 0052 0B9B     		ldr	r3, [sp, #44]
 1115 0054 002B     		cmp	r3, #0
 1116 0056 01D0     		beq	.L85
 1117              		.loc 4 173 0
 1118 0058 0B9B     		ldr	r3, [sp, #44]
 1119 005a 51E0     		b	.L90
 1120              	.L85:
ARM GAS  C:\Users\PCHAUT~1\AppData\Local\Temp\ccIm8FNl.s 			page 21


 1121              	.LBE16:
 1122              		.loc 4 176 0
 1123 005c 099B     		ldr	r3, [sp, #36]
 1124 005e 9B00     		lsls	r3, r3, #2
 1125 0060 1846     		mov	r0, r3
 1126 0062 FFF7FEFF 		bl	malloc
 1127 0066 0346     		mov	r3, r0
 1128 0068 0C93     		str	r3, [sp, #48]
 1129              		.loc 4 177 0
 1130 006a 0C9B     		ldr	r3, [sp, #48]
 1131 006c 002B     		cmp	r3, #0
 1132 006e 14D1     		bne	.L87
 1133              	.LBB17:
 1134              		.loc 4 178 0
 1135 0070 079B     		ldr	r3, [sp, #28]
 1136 0072 1968     		ldr	r1, [r3]
 1137 0074 049B     		ldr	r3, [sp, #16]
 1138 0076 2A4A     		ldr	r2, .L92+8
 1139 0078 0398     		ldr	r0, [sp, #12]
 1140 007a 9847     		blx	r3
 1141              	.LVL8:
 1142              		.loc 4 179 0
 1143 007c 079B     		ldr	r3, [sp, #28]
 1144 007e 1B68     		ldr	r3, [r3]
 1145 0080 0093     		str	r3, [sp]
 1146 0082 039B     		ldr	r3, [sp, #12]
 1147 0084 049A     		ldr	r2, [sp, #16]
 1148 0086 0599     		ldr	r1, [sp, #20]
 1149 0088 0698     		ldr	r0, [sp, #24]
 1150 008a FFF7FEFF 		bl	discard_msgpack_element
 1151 008e 0D90     		str	r0, [sp, #52]
 1152              		.loc 4 180 0
 1153 0090 0D9B     		ldr	r3, [sp, #52]
 1154 0092 002B     		cmp	r3, #0
 1155 0094 01D0     		beq	.L87
 1156              		.loc 4 181 0
 1157 0096 0D9B     		ldr	r3, [sp, #52]
 1158 0098 32E0     		b	.L90
 1159              	.L87:
 1160              	.LBE17:
 1161              		.loc 4 184 0
 1162 009a 099B     		ldr	r3, [sp, #36]
 1163 009c 1A46     		mov	r2, r3
 1164 009e 079B     		ldr	r3, [sp, #28]
 1165 00a0 1B68     		ldr	r3, [r3]
 1166 00a2 0193     		str	r3, [sp, #4]
 1167 00a4 039B     		ldr	r3, [sp, #12]
 1168 00a6 0093     		str	r3, [sp]
 1169 00a8 049B     		ldr	r3, [sp, #16]
 1170 00aa 0C99     		ldr	r1, [sp, #48]
 1171 00ac 0598     		ldr	r0, [sp, #20]
 1172 00ae FFF7FEFF 		bl	get_vector
 1173 00b2 0E90     		str	r0, [sp, #56]
 1174              		.loc 4 185 0
 1175 00b4 0E9B     		ldr	r3, [sp, #56]
 1176 00b6 002B     		cmp	r3, #0
 1177 00b8 04D0     		beq	.L88
ARM GAS  C:\Users\PCHAUT~1\AppData\Local\Temp\ccIm8FNl.s 			page 22


 1178              		.loc 4 186 0
 1179 00ba 0C98     		ldr	r0, [sp, #48]
 1180 00bc FFF7FEFF 		bl	free
 1181              		.loc 4 187 0
 1182 00c0 0E9B     		ldr	r3, [sp, #56]
 1183 00c2 1DE0     		b	.L90
 1184              	.L88:
 1185              		.loc 4 189 0
 1186 00c4 0C99     		ldr	r1, [sp, #48]
 1187 00c6 0798     		ldr	r0, [sp, #28]
 1188 00c8 FFF7FEFF 		bl	parameter_vector_set
 1189              		.loc 4 190 0
 1190 00cc 0C98     		ldr	r0, [sp, #48]
 1191 00ce FFF7FEFF 		bl	free
 1192              	.LBE15:
 1193 00d2 14E0     		b	.L89
 1194              	.L84:
 1195              	.LBB18:
 1196              		.loc 4 192 0
 1197 00d4 079B     		ldr	r3, [sp, #28]
 1198 00d6 1968     		ldr	r1, [r3]
 1199 00d8 049B     		ldr	r3, [sp, #16]
 1200 00da 124A     		ldr	r2, .L92+12
 1201 00dc 0398     		ldr	r0, [sp, #12]
 1202 00de 9847     		blx	r3
 1203              	.LVL9:
 1204              		.loc 4 193 0
 1205 00e0 079B     		ldr	r3, [sp, #28]
 1206 00e2 1B68     		ldr	r3, [r3]
 1207 00e4 0093     		str	r3, [sp]
 1208 00e6 039B     		ldr	r3, [sp, #12]
 1209 00e8 049A     		ldr	r2, [sp, #16]
 1210 00ea 0599     		ldr	r1, [sp, #20]
 1211 00ec 0698     		ldr	r0, [sp, #24]
 1212 00ee FFF7FEFF 		bl	discard_msgpack_element
 1213 00f2 0A90     		str	r0, [sp, #40]
 1214              		.loc 4 194 0
 1215 00f4 0A9B     		ldr	r3, [sp, #40]
 1216 00f6 002B     		cmp	r3, #0
 1217 00f8 01D0     		beq	.L89
 1218              		.loc 4 195 0
 1219 00fa 0A9B     		ldr	r3, [sp, #40]
 1220 00fc 00E0     		b	.L90
 1221              	.L89:
 1222              	.LBE18:
 1223              		.loc 4 198 0
 1224 00fe 0023     		movs	r3, #0
 1225              	.L90:
 1226              		.loc 4 199 0 discriminator 1
 1227 0100 1846     		mov	r0, r3
 1228 0102 054B     		ldr	r3, .L92
 1229 0104 0F9A     		ldr	r2, [sp, #60]
 1230 0106 1B68     		ldr	r3, [r3]
 1231 0108 9A42     		cmp	r2, r3
 1232 010a 01D0     		beq	.L91
 1233              		.loc 4 199 0 is_stmt 0
 1234 010c FFF7FEFF 		bl	__stack_chk_fail
ARM GAS  C:\Users\PCHAUT~1\AppData\Local\Temp\ccIm8FNl.s 			page 23


 1235              	.L91:
 1236 0110 11B0     		add	sp, sp, #68
 1237              		.cfi_def_cfa_offset 4
 1238              		@ sp needed
 1239 0112 5DF804FB 		ldr	pc, [sp], #4
 1240              	.L93:
 1241 0116 00BF     		.align	2
 1242              	.L92:
 1243 0118 00000000 		.word	__stack_chk_guard
 1244 011c 44000000 		.word	.LC3
 1245 0120 64000000 		.word	.LC4
 1246 0124 2C000000 		.word	.LC2
 1247              		.cfi_endproc
 1248              	.LFE258:
 1249              		.size	read_parameter_vector, .-read_parameter_vector
 1250              		.section	.rodata
 1251 007f 00       		.align	2
 1252              	.LC5:
 1253 0080 7761726E 		.ascii	"warning: vector dimension too big\000"
 1253      696E673A 
 1253      20766563 
 1253      746F7220 
 1253      64696D65 
 1254              		.section	.text.read_parameter_var_vector,"ax",%progbits
 1255              		.align	1
 1256              		.p2align 4,,15
 1257              		.syntax unified
 1258              		.thumb
 1259              		.thumb_func
 1260              		.fpu fpv4-sp-d16
 1261              		.type	read_parameter_var_vector, %function
 1262              	read_parameter_var_vector:
 1263              	.LFB259:
 1264              		.loc 4 206 0 is_stmt 1
 1265              		.cfi_startproc
 1266              		@ args = 4, pretend = 0, frame = 56
 1267              		@ frame_needed = 0, uses_anonymous_args = 0
 1268 0000 00B5     		push	{lr}
 1269              		.cfi_def_cfa_offset 4
 1270              		.cfi_offset 14, -4
 1271 0002 91B0     		sub	sp, sp, #68
 1272              		.cfi_def_cfa_offset 72
 1273 0004 0790     		str	r0, [sp, #28]
 1274 0006 0691     		str	r1, [sp, #24]
 1275 0008 0592     		str	r2, [sp, #20]
 1276 000a 0493     		str	r3, [sp, #16]
 1277 000c 129B     		ldr	r3, [sp, #72]
 1278 000e 0393     		str	r3, [sp, #12]
 1279              		.loc 4 206 0
 1280 0010 424B     		ldr	r3, .L103
 1281 0012 1B68     		ldr	r3, [r3]
 1282 0014 0F93     		str	r3, [sp, #60]
 1283              		.loc 4 208 0
 1284 0016 09AB     		add	r3, sp, #36
 1285 0018 1946     		mov	r1, r3
 1286 001a 0698     		ldr	r0, [sp, #24]
 1287 001c FFF7FEFF 		bl	cmp_object_as_array
ARM GAS  C:\Users\PCHAUT~1\AppData\Local\Temp\ccIm8FNl.s 			page 24


 1288 0020 0346     		mov	r3, r0
 1289 0022 002B     		cmp	r3, #0
 1290 0024 59D0     		beq	.L95
 1291              	.LBB19:
 1292              		.loc 4 209 0
 1293 0026 079B     		ldr	r3, [sp, #28]
 1294 0028 9B8A     		ldrh	r3, [r3, #20]
 1295 002a 1A46     		mov	r2, r3
 1296 002c 099B     		ldr	r3, [sp, #36]
 1297 002e 9A42     		cmp	r2, r3
 1298 0030 14D2     		bcs	.L96
 1299              	.LBB20:
 1300              		.loc 4 210 0
 1301 0032 079B     		ldr	r3, [sp, #28]
 1302 0034 1968     		ldr	r1, [r3]
 1303 0036 049B     		ldr	r3, [sp, #16]
 1304 0038 394A     		ldr	r2, .L103+4
 1305 003a 0398     		ldr	r0, [sp, #12]
 1306 003c 9847     		blx	r3
 1307              	.LVL10:
 1308              		.loc 4 211 0
 1309 003e 079B     		ldr	r3, [sp, #28]
 1310 0040 1B68     		ldr	r3, [r3]
 1311 0042 0093     		str	r3, [sp]
 1312 0044 039B     		ldr	r3, [sp, #12]
 1313 0046 049A     		ldr	r2, [sp, #16]
 1314 0048 0599     		ldr	r1, [sp, #20]
 1315 004a 0698     		ldr	r0, [sp, #24]
 1316 004c FFF7FEFF 		bl	discard_msgpack_element
 1317 0050 0B90     		str	r0, [sp, #44]
 1318              		.loc 4 212 0
 1319 0052 0B9B     		ldr	r3, [sp, #44]
 1320 0054 002B     		cmp	r3, #0
 1321 0056 01D0     		beq	.L96
 1322              		.loc 4 213 0
 1323 0058 0B9B     		ldr	r3, [sp, #44]
 1324 005a 54E0     		b	.L101
 1325              	.L96:
 1326              	.LBE20:
 1327              		.loc 4 216 0
 1328 005c 099B     		ldr	r3, [sp, #36]
 1329 005e 9B00     		lsls	r3, r3, #2
 1330 0060 1846     		mov	r0, r3
 1331 0062 FFF7FEFF 		bl	malloc
 1332 0066 0346     		mov	r3, r0
 1333 0068 0C93     		str	r3, [sp, #48]
 1334              		.loc 4 217 0
 1335 006a 0C9B     		ldr	r3, [sp, #48]
 1336 006c 002B     		cmp	r3, #0
 1337 006e 14D1     		bne	.L98
 1338              	.LBB21:
 1339              		.loc 4 218 0
 1340 0070 079B     		ldr	r3, [sp, #28]
 1341 0072 1968     		ldr	r1, [r3]
 1342 0074 049B     		ldr	r3, [sp, #16]
 1343 0076 2B4A     		ldr	r2, .L103+8
 1344 0078 0398     		ldr	r0, [sp, #12]
ARM GAS  C:\Users\PCHAUT~1\AppData\Local\Temp\ccIm8FNl.s 			page 25


 1345 007a 9847     		blx	r3
 1346              	.LVL11:
 1347              		.loc 4 219 0
 1348 007c 079B     		ldr	r3, [sp, #28]
 1349 007e 1B68     		ldr	r3, [r3]
 1350 0080 0093     		str	r3, [sp]
 1351 0082 039B     		ldr	r3, [sp, #12]
 1352 0084 049A     		ldr	r2, [sp, #16]
 1353 0086 0599     		ldr	r1, [sp, #20]
 1354 0088 0698     		ldr	r0, [sp, #24]
 1355 008a FFF7FEFF 		bl	discard_msgpack_element
 1356 008e 0D90     		str	r0, [sp, #52]
 1357              		.loc 4 220 0
 1358 0090 0D9B     		ldr	r3, [sp, #52]
 1359 0092 002B     		cmp	r3, #0
 1360 0094 01D0     		beq	.L98
 1361              		.loc 4 221 0
 1362 0096 0D9B     		ldr	r3, [sp, #52]
 1363 0098 35E0     		b	.L101
 1364              	.L98:
 1365              	.LBE21:
 1366              		.loc 4 224 0
 1367 009a 099B     		ldr	r3, [sp, #36]
 1368 009c 1A46     		mov	r2, r3
 1369 009e 079B     		ldr	r3, [sp, #28]
 1370 00a0 1B68     		ldr	r3, [r3]
 1371 00a2 0193     		str	r3, [sp, #4]
 1372 00a4 039B     		ldr	r3, [sp, #12]
 1373 00a6 0093     		str	r3, [sp]
 1374 00a8 049B     		ldr	r3, [sp, #16]
 1375 00aa 0C99     		ldr	r1, [sp, #48]
 1376 00ac 0598     		ldr	r0, [sp, #20]
 1377 00ae FFF7FEFF 		bl	get_vector
 1378 00b2 0E90     		str	r0, [sp, #56]
 1379              		.loc 4 225 0
 1380 00b4 0E9B     		ldr	r3, [sp, #56]
 1381 00b6 002B     		cmp	r3, #0
 1382 00b8 04D0     		beq	.L99
 1383              		.loc 4 226 0
 1384 00ba 0C98     		ldr	r0, [sp, #48]
 1385 00bc FFF7FEFF 		bl	free
 1386              		.loc 4 227 0
 1387 00c0 0E9B     		ldr	r3, [sp, #56]
 1388 00c2 20E0     		b	.L101
 1389              	.L99:
 1390              		.loc 4 229 0
 1391 00c4 099B     		ldr	r3, [sp, #36]
 1392 00c6 9BB2     		uxth	r3, r3
 1393 00c8 1A46     		mov	r2, r3
 1394 00ca 0C99     		ldr	r1, [sp, #48]
 1395 00cc 0798     		ldr	r0, [sp, #28]
 1396 00ce FFF7FEFF 		bl	parameter_variable_vector_set
 1397              		.loc 4 230 0
 1398 00d2 0C98     		ldr	r0, [sp, #48]
 1399 00d4 FFF7FEFF 		bl	free
 1400              	.LBE19:
 1401 00d8 14E0     		b	.L100
ARM GAS  C:\Users\PCHAUT~1\AppData\Local\Temp\ccIm8FNl.s 			page 26


 1402              	.L95:
 1403              	.LBB22:
 1404              		.loc 4 232 0
 1405 00da 079B     		ldr	r3, [sp, #28]
 1406 00dc 1968     		ldr	r1, [r3]
 1407 00de 049B     		ldr	r3, [sp, #16]
 1408 00e0 114A     		ldr	r2, .L103+12
 1409 00e2 0398     		ldr	r0, [sp, #12]
 1410 00e4 9847     		blx	r3
 1411              	.LVL12:
 1412              		.loc 4 233 0
 1413 00e6 079B     		ldr	r3, [sp, #28]
 1414 00e8 1B68     		ldr	r3, [r3]
 1415 00ea 0093     		str	r3, [sp]
 1416 00ec 039B     		ldr	r3, [sp, #12]
 1417 00ee 049A     		ldr	r2, [sp, #16]
 1418 00f0 0599     		ldr	r1, [sp, #20]
 1419 00f2 0698     		ldr	r0, [sp, #24]
 1420 00f4 FFF7FEFF 		bl	discard_msgpack_element
 1421 00f8 0A90     		str	r0, [sp, #40]
 1422              		.loc 4 234 0
 1423 00fa 0A9B     		ldr	r3, [sp, #40]
 1424 00fc 002B     		cmp	r3, #0
 1425 00fe 01D0     		beq	.L100
 1426              		.loc 4 235 0
 1427 0100 0A9B     		ldr	r3, [sp, #40]
 1428 0102 00E0     		b	.L101
 1429              	.L100:
 1430              	.LBE22:
 1431              		.loc 4 238 0
 1432 0104 0023     		movs	r3, #0
 1433              	.L101:
 1434              		.loc 4 239 0 discriminator 1
 1435 0106 1846     		mov	r0, r3
 1436 0108 044B     		ldr	r3, .L103
 1437 010a 0F9A     		ldr	r2, [sp, #60]
 1438 010c 1B68     		ldr	r3, [r3]
 1439 010e 9A42     		cmp	r2, r3
 1440 0110 01D0     		beq	.L102
 1441              		.loc 4 239 0 is_stmt 0
 1442 0112 FFF7FEFF 		bl	__stack_chk_fail
 1443              	.L102:
 1444 0116 11B0     		add	sp, sp, #68
 1445              		.cfi_def_cfa_offset 4
 1446              		@ sp needed
 1447 0118 5DF804FB 		ldr	pc, [sp], #4
 1448              	.L104:
 1449              		.align	2
 1450              	.L103:
 1451 011c 00000000 		.word	__stack_chk_guard
 1452 0120 80000000 		.word	.LC5
 1453 0124 64000000 		.word	.LC4
 1454 0128 2C000000 		.word	.LC2
 1455              		.cfi_endproc
 1456              	.LFE259:
 1457              		.size	read_parameter_var_vector, .-read_parameter_var_vector
 1458              		.section	.rodata
ARM GAS  C:\Users\PCHAUT~1\AppData\Local\Temp\ccIm8FNl.s 			page 27


 1459 00a2 0000     		.align	2
 1460              	.LC6:
 1461 00a4 7761726E 		.ascii	"warning: string is too long\000"
 1461      696E673A 
 1461      20737472 
 1461      696E6720 
 1461      69732074 
 1462              		.align	2
 1463              	.LC7:
 1464 00c0 72656164 		.ascii	"read error\000"
 1464      20657272 
 1464      6F7200
 1465              		.section	.text.read_parameter_string,"ax",%progbits
 1466              		.align	1
 1467              		.p2align 4,,15
 1468              		.syntax unified
 1469              		.thumb
 1470              		.thumb_func
 1471              		.fpu fpv4-sp-d16
 1472              		.type	read_parameter_string, %function
 1473              	read_parameter_string:
 1474              	.LFB260:
 1475              		.loc 4 247 0 is_stmt 1
 1476              		.cfi_startproc
 1477              		@ args = 4, pretend = 0, frame = 40
 1478              		@ frame_needed = 0, uses_anonymous_args = 0
 1479 0000 00B5     		push	{lr}
 1480              		.cfi_def_cfa_offset 4
 1481              		.cfi_offset 14, -4
 1482 0002 8DB0     		sub	sp, sp, #52
 1483              		.cfi_def_cfa_offset 56
 1484 0004 0790     		str	r0, [sp, #28]
 1485 0006 0691     		str	r1, [sp, #24]
 1486 0008 0592     		str	r2, [sp, #20]
 1487 000a 0493     		str	r3, [sp, #16]
 1488 000c 0E9B     		ldr	r3, [sp, #56]
 1489 000e 0393     		str	r3, [sp, #12]
 1490              		.loc 4 247 0
 1491 0010 3E4B     		ldr	r3, .L113
 1492 0012 1B68     		ldr	r3, [r3]
 1493 0014 0B93     		str	r3, [sp, #44]
 1494              		.loc 4 249 0
 1495 0016 09AB     		add	r3, sp, #36
 1496 0018 1946     		mov	r1, r3
 1497 001a 0698     		ldr	r0, [sp, #24]
 1498 001c FFF7FEFF 		bl	cmp_object_as_str
 1499 0020 0346     		mov	r3, r0
 1500 0022 83F00103 		eor	r3, r3, #1
 1501 0026 DBB2     		uxtb	r3, r3
 1502 0028 002B     		cmp	r3, #0
 1503 002a 10D0     		beq	.L106
 1504              		.loc 4 250 0
 1505 002c 079B     		ldr	r3, [sp, #28]
 1506 002e 1968     		ldr	r1, [r3]
 1507 0030 049B     		ldr	r3, [sp, #16]
 1508 0032 374A     		ldr	r2, .L113+4
 1509 0034 0398     		ldr	r0, [sp, #12]
ARM GAS  C:\Users\PCHAUT~1\AppData\Local\Temp\ccIm8FNl.s 			page 28


 1510 0036 9847     		blx	r3
 1511              	.LVL13:
 1512              		.loc 4 251 0
 1513 0038 079B     		ldr	r3, [sp, #28]
 1514 003a 1B68     		ldr	r3, [r3]
 1515 003c 0093     		str	r3, [sp]
 1516 003e 039B     		ldr	r3, [sp, #12]
 1517 0040 049A     		ldr	r2, [sp, #16]
 1518 0042 0599     		ldr	r1, [sp, #20]
 1519 0044 0698     		ldr	r0, [sp, #24]
 1520 0046 FFF7FEFF 		bl	discard_msgpack_element
 1521 004a 0346     		mov	r3, r0
 1522 004c 53E0     		b	.L111
 1523              	.L106:
 1524              		.loc 4 253 0
 1525 004e 079B     		ldr	r3, [sp, #28]
 1526 0050 9B8A     		ldrh	r3, [r3, #20]
 1527 0052 1A46     		mov	r2, r3
 1528 0054 099B     		ldr	r3, [sp, #36]
 1529 0056 9A42     		cmp	r2, r3
 1530 0058 10D8     		bhi	.L108
 1531              		.loc 4 254 0
 1532 005a 079B     		ldr	r3, [sp, #28]
 1533 005c 1968     		ldr	r1, [r3]
 1534 005e 049B     		ldr	r3, [sp, #16]
 1535 0060 2C4A     		ldr	r2, .L113+8
 1536 0062 0398     		ldr	r0, [sp, #12]
 1537 0064 9847     		blx	r3
 1538              	.LVL14:
 1539              		.loc 4 255 0
 1540 0066 079B     		ldr	r3, [sp, #28]
 1541 0068 1B68     		ldr	r3, [r3]
 1542 006a 0093     		str	r3, [sp]
 1543 006c 039B     		ldr	r3, [sp, #12]
 1544 006e 049A     		ldr	r2, [sp, #16]
 1545 0070 0599     		ldr	r1, [sp, #20]
 1546 0072 0698     		ldr	r0, [sp, #24]
 1547 0074 FFF7FEFF 		bl	discard_msgpack_element
 1548 0078 0346     		mov	r3, r0
 1549 007a 3CE0     		b	.L111
 1550              	.L108:
 1551              		.loc 4 257 0
 1552 007c 099B     		ldr	r3, [sp, #36]
 1553 007e 1846     		mov	r0, r3
 1554 0080 FFF7FEFF 		bl	malloc
 1555 0084 0346     		mov	r3, r0
 1556 0086 0A93     		str	r3, [sp, #40]
 1557              		.loc 4 258 0
 1558 0088 0A9B     		ldr	r3, [sp, #40]
 1559 008a 002B     		cmp	r3, #0
 1560 008c 10D1     		bne	.L109
 1561              		.loc 4 259 0
 1562 008e 079B     		ldr	r3, [sp, #28]
 1563 0090 1968     		ldr	r1, [r3]
 1564 0092 049B     		ldr	r3, [sp, #16]
 1565 0094 204A     		ldr	r2, .L113+12
 1566 0096 0398     		ldr	r0, [sp, #12]
ARM GAS  C:\Users\PCHAUT~1\AppData\Local\Temp\ccIm8FNl.s 			page 29


 1567 0098 9847     		blx	r3
 1568              	.LVL15:
 1569              		.loc 4 260 0
 1570 009a 079B     		ldr	r3, [sp, #28]
 1571 009c 1B68     		ldr	r3, [r3]
 1572 009e 0093     		str	r3, [sp]
 1573 00a0 039B     		ldr	r3, [sp, #12]
 1574 00a2 049A     		ldr	r2, [sp, #16]
 1575 00a4 0599     		ldr	r1, [sp, #20]
 1576 00a6 0698     		ldr	r0, [sp, #24]
 1577 00a8 FFF7FEFF 		bl	discard_msgpack_element
 1578 00ac 0346     		mov	r3, r0
 1579 00ae 22E0     		b	.L111
 1580              	.L109:
 1581              		.loc 4 262 0
 1582 00b0 059B     		ldr	r3, [sp, #20]
 1583 00b2 9B68     		ldr	r3, [r3, #8]
 1584 00b4 099A     		ldr	r2, [sp, #36]
 1585 00b6 0A99     		ldr	r1, [sp, #40]
 1586 00b8 0598     		ldr	r0, [sp, #20]
 1587 00ba 9847     		blx	r3
 1588              	.LVL16:
 1589 00bc 0346     		mov	r3, r0
 1590 00be 83F00103 		eor	r3, r3, #1
 1591 00c2 DBB2     		uxtb	r3, r3
 1592 00c4 002B     		cmp	r3, #0
 1593 00c6 0BD0     		beq	.L110
 1594              		.loc 4 263 0
 1595 00c8 079B     		ldr	r3, [sp, #28]
 1596 00ca 1968     		ldr	r1, [r3]
 1597 00cc 049B     		ldr	r3, [sp, #16]
 1598 00ce 134A     		ldr	r2, .L113+16
 1599 00d0 0398     		ldr	r0, [sp, #12]
 1600 00d2 9847     		blx	r3
 1601              	.LVL17:
 1602              		.loc 4 264 0
 1603 00d4 0A98     		ldr	r0, [sp, #40]
 1604 00d6 FFF7FEFF 		bl	free
 1605              		.loc 4 265 0
 1606 00da 4FF0FF33 		mov	r3, #-1
 1607 00de 0AE0     		b	.L111
 1608              	.L110:
 1609              		.loc 4 267 0
 1610 00e0 099B     		ldr	r3, [sp, #36]
 1611 00e2 9BB2     		uxth	r3, r3
 1612 00e4 1A46     		mov	r2, r3
 1613 00e6 0A99     		ldr	r1, [sp, #40]
 1614 00e8 0798     		ldr	r0, [sp, #28]
 1615 00ea FFF7FEFF 		bl	parameter_string_set_w_len
 1616              		.loc 4 268 0
 1617 00ee 0A98     		ldr	r0, [sp, #40]
 1618 00f0 FFF7FEFF 		bl	free
 1619              		.loc 4 269 0
 1620 00f4 0023     		movs	r3, #0
 1621              	.L111:
 1622              		.loc 4 270 0 discriminator 1
 1623 00f6 1846     		mov	r0, r3
ARM GAS  C:\Users\PCHAUT~1\AppData\Local\Temp\ccIm8FNl.s 			page 30


 1624 00f8 044B     		ldr	r3, .L113
 1625 00fa 0B9A     		ldr	r2, [sp, #44]
 1626 00fc 1B68     		ldr	r3, [r3]
 1627 00fe 9A42     		cmp	r2, r3
 1628 0100 01D0     		beq	.L112
 1629              		.loc 4 270 0 is_stmt 0
 1630 0102 FFF7FEFF 		bl	__stack_chk_fail
 1631              	.L112:
 1632 0106 0DB0     		add	sp, sp, #52
 1633              		.cfi_def_cfa_offset 4
 1634              		@ sp needed
 1635 0108 5DF804FB 		ldr	pc, [sp], #4
 1636              	.L114:
 1637              		.align	2
 1638              	.L113:
 1639 010c 00000000 		.word	__stack_chk_guard
 1640 0110 2C000000 		.word	.LC2
 1641 0114 A4000000 		.word	.LC6
 1642 0118 64000000 		.word	.LC4
 1643 011c C0000000 		.word	.LC7
 1644              		.cfi_endproc
 1645              	.LFE260:
 1646              		.size	read_parameter_string, .-read_parameter_string
 1647              		.section	.rodata
 1648 00cb 00       		.align	2
 1649              	.LC8:
 1650 00cc 544F444F 		.ascii	"TODO not implemented yet\000"
 1650      206E6F74 
 1650      20696D70 
 1650      6C656D65 
 1650      6E746564 
 1651              		.section	.text.read_parameter,"ax",%progbits
 1652              		.align	1
 1653              		.p2align 4,,15
 1654              		.syntax unified
 1655              		.thumb
 1656              		.thumb_func
 1657              		.fpu fpv4-sp-d16
 1658              		.type	read_parameter, %function
 1659              	read_parameter:
 1660              	.LFB261:
 1661              		.loc 4 277 0 is_stmt 1
 1662              		.cfi_startproc
 1663              		@ args = 4, pretend = 0, frame = 32
 1664              		@ frame_needed = 0, uses_anonymous_args = 0
 1665 0000 00B5     		push	{lr}
 1666              		.cfi_def_cfa_offset 4
 1667              		.cfi_offset 14, -4
 1668 0002 8BB0     		sub	sp, sp, #44
 1669              		.cfi_def_cfa_offset 48
 1670 0004 0790     		str	r0, [sp, #28]
 1671 0006 0691     		str	r1, [sp, #24]
 1672 0008 0592     		str	r2, [sp, #20]
 1673 000a 0493     		str	r3, [sp, #16]
 1674 000c 0C9B     		ldr	r3, [sp, #48]
 1675 000e 0393     		str	r3, [sp, #12]
 1676              		.loc 4 277 0
ARM GAS  C:\Users\PCHAUT~1\AppData\Local\Temp\ccIm8FNl.s 			page 31


 1677 0010 374B     		ldr	r3, .L126
 1678 0012 1B68     		ldr	r3, [r3]
 1679 0014 0993     		str	r3, [sp, #36]
 1680              		.loc 4 278 0
 1681 0016 079B     		ldr	r3, [sp, #28]
 1682 0018 9B7B     		ldrb	r3, [r3, #14]	@ zero_extendqisi2
 1683 001a 013B     		subs	r3, r3, #1
 1684 001c 052B     		cmp	r3, #5
 1685 001e 4BD8     		bhi	.L116
 1686 0020 01A2     		adr	r2, .L118
 1687 0022 52F823F0 		ldr	pc, [r2, r3, lsl #2]
 1688 0026 00BF     		.p2align 2
 1689              	.L118:
 1690 0028 41000000 		.word	.L117+1
 1691 002c 69000000 		.word	.L119+1
 1692 0030 55000000 		.word	.L120+1
 1693 0034 A5000000 		.word	.L121+1
 1694 0038 7D000000 		.word	.L122+1
 1695 003c 91000000 		.word	.L123+1
 1696              		.p2align 1
 1697              	.L117:
 1698              		.loc 4 280 0
 1699 0040 039B     		ldr	r3, [sp, #12]
 1700 0042 0093     		str	r3, [sp]
 1701 0044 049B     		ldr	r3, [sp, #16]
 1702 0046 059A     		ldr	r2, [sp, #20]
 1703 0048 0699     		ldr	r1, [sp, #24]
 1704 004a 0798     		ldr	r0, [sp, #28]
 1705 004c FFF7FEFF 		bl	read_parameter_scalar
 1706 0050 0346     		mov	r3, r0
 1707 0052 41E0     		b	.L124
 1708              	.L120:
 1709              		.loc 4 282 0
 1710 0054 039B     		ldr	r3, [sp, #12]
 1711 0056 0093     		str	r3, [sp]
 1712 0058 049B     		ldr	r3, [sp, #16]
 1713 005a 059A     		ldr	r2, [sp, #20]
 1714 005c 0699     		ldr	r1, [sp, #24]
 1715 005e 0798     		ldr	r0, [sp, #28]
 1716 0060 FFF7FEFF 		bl	read_parameter_integer
 1717 0064 0346     		mov	r3, r0
 1718 0066 37E0     		b	.L124
 1719              	.L119:
 1720              		.loc 4 284 0
 1721 0068 039B     		ldr	r3, [sp, #12]
 1722 006a 0093     		str	r3, [sp]
 1723 006c 049B     		ldr	r3, [sp, #16]
 1724 006e 059A     		ldr	r2, [sp, #20]
 1725 0070 0699     		ldr	r1, [sp, #24]
 1726 0072 0798     		ldr	r0, [sp, #28]
 1727 0074 FFF7FEFF 		bl	read_parameter_boolean
 1728 0078 0346     		mov	r3, r0
 1729 007a 2DE0     		b	.L124
 1730              	.L122:
 1731              		.loc 4 286 0
 1732 007c 039B     		ldr	r3, [sp, #12]
 1733 007e 0093     		str	r3, [sp]
ARM GAS  C:\Users\PCHAUT~1\AppData\Local\Temp\ccIm8FNl.s 			page 32


 1734 0080 049B     		ldr	r3, [sp, #16]
 1735 0082 059A     		ldr	r2, [sp, #20]
 1736 0084 0699     		ldr	r1, [sp, #24]
 1737 0086 0798     		ldr	r0, [sp, #28]
 1738 0088 FFF7FEFF 		bl	read_parameter_vector
 1739 008c 0346     		mov	r3, r0
 1740 008e 23E0     		b	.L124
 1741              	.L123:
 1742              		.loc 4 288 0
 1743 0090 039B     		ldr	r3, [sp, #12]
 1744 0092 0093     		str	r3, [sp]
 1745 0094 049B     		ldr	r3, [sp, #16]
 1746 0096 059A     		ldr	r2, [sp, #20]
 1747 0098 0699     		ldr	r1, [sp, #24]
 1748 009a 0798     		ldr	r0, [sp, #28]
 1749 009c FFF7FEFF 		bl	read_parameter_var_vector
 1750 00a0 0346     		mov	r3, r0
 1751 00a2 19E0     		b	.L124
 1752              	.L121:
 1753              		.loc 4 290 0
 1754 00a4 039B     		ldr	r3, [sp, #12]
 1755 00a6 0093     		str	r3, [sp]
 1756 00a8 049B     		ldr	r3, [sp, #16]
 1757 00aa 059A     		ldr	r2, [sp, #20]
 1758 00ac 0699     		ldr	r1, [sp, #24]
 1759 00ae 0798     		ldr	r0, [sp, #28]
 1760 00b0 FFF7FEFF 		bl	read_parameter_string
 1761 00b4 0346     		mov	r3, r0
 1762 00b6 0FE0     		b	.L124
 1763              	.L116:
 1764              		.loc 4 292 0
 1765 00b8 079B     		ldr	r3, [sp, #28]
 1766 00ba 1968     		ldr	r1, [r3]
 1767 00bc 049B     		ldr	r3, [sp, #16]
 1768 00be 0D4A     		ldr	r2, .L126+4
 1769 00c0 0398     		ldr	r0, [sp, #12]
 1770 00c2 9847     		blx	r3
 1771              	.LVL18:
 1772              		.loc 4 293 0
 1773 00c4 079B     		ldr	r3, [sp, #28]
 1774 00c6 1B68     		ldr	r3, [r3]
 1775 00c8 0093     		str	r3, [sp]
 1776 00ca 039B     		ldr	r3, [sp, #12]
 1777 00cc 049A     		ldr	r2, [sp, #16]
 1778 00ce 0599     		ldr	r1, [sp, #20]
 1779 00d0 0698     		ldr	r0, [sp, #24]
 1780 00d2 FFF7FEFF 		bl	discard_msgpack_element
 1781 00d6 0346     		mov	r3, r0
 1782              	.L124:
 1783              		.loc 4 295 0
 1784 00d8 1846     		mov	r0, r3
 1785 00da 054B     		ldr	r3, .L126
 1786 00dc 099A     		ldr	r2, [sp, #36]
 1787 00de 1B68     		ldr	r3, [r3]
 1788 00e0 9A42     		cmp	r2, r3
 1789 00e2 01D0     		beq	.L125
 1790 00e4 FFF7FEFF 		bl	__stack_chk_fail
ARM GAS  C:\Users\PCHAUT~1\AppData\Local\Temp\ccIm8FNl.s 			page 33


 1791              	.L125:
 1792 00e8 0BB0     		add	sp, sp, #44
 1793              		.cfi_def_cfa_offset 4
 1794              		@ sp needed
 1795 00ea 5DF804FB 		ldr	pc, [sp], #4
 1796              	.L127:
 1797 00ee 00BF     		.align	2
 1798              	.L126:
 1799 00f0 00000000 		.word	__stack_chk_guard
 1800 00f4 CC000000 		.word	.LC8
 1801              		.cfi_endproc
 1802              	.LFE261:
 1803              		.size	read_parameter, .-read_parameter
 1804              		.section	.rodata
 1805 00e5 000000   		.align	2
 1806              	.LC9:
 1807 00e8 636F756C 		.ascii	"could not read id\000"
 1807      64206E6F 
 1807      74207265 
 1807      61642069 
 1807      6400
 1808 00fa 0000     		.align	2
 1809              	.LC10:
 1810 00fc 616C6C6F 		.ascii	"allocation failed\000"
 1810      63617469 
 1810      6F6E2066 
 1810      61696C65 
 1810      6400
 1811 010e 0000     		.align	2
 1812              	.LC11:
 1813 0110 636F756C 		.ascii	"could not read value\000"
 1813      64206E6F 
 1813      74207265 
 1813      61642076 
 1813      616C7565 
 1814 0125 000000   		.align	2
 1815              	.LC12:
 1816 0128 7761726E 		.ascii	"warning: namespace doesn't exist\000"
 1816      696E673A 
 1816      206E616D 
 1816      65737061 
 1816      63652064 
 1817 0149 000000   		.align	2
 1818              	.LC13:
 1819 014c 7761726E 		.ascii	"warning: parameter doesn't exist\000"
 1819      696E673A 
 1819      20706172 
 1819      616D6574 
 1819      65722064 
 1820              		.section	.text.read_namespace,"ax",%progbits
 1821              		.align	1
 1822              		.p2align 4,,15
 1823              		.syntax unified
 1824              		.thumb
 1825              		.thumb_func
 1826              		.fpu fpv4-sp-d16
 1827              		.type	read_namespace, %function
ARM GAS  C:\Users\PCHAUT~1\AppData\Local\Temp\ccIm8FNl.s 			page 34


 1828              	read_namespace:
 1829              	.LFB262:
 1830              		.loc 4 303 0
 1831              		.cfi_startproc
 1832              		@ args = 4, pretend = 0, frame = 88
 1833              		@ frame_needed = 0, uses_anonymous_args = 0
 1834 0000 00B5     		push	{lr}
 1835              		.cfi_def_cfa_offset 4
 1836              		.cfi_offset 14, -4
 1837 0002 99B0     		sub	sp, sp, #100
 1838              		.cfi_def_cfa_offset 104
 1839 0004 0790     		str	r0, [sp, #28]
 1840 0006 0691     		str	r1, [sp, #24]
 1841 0008 0592     		str	r2, [sp, #20]
 1842 000a 0493     		str	r3, [sp, #16]
 1843 000c 1A9B     		ldr	r3, [sp, #104]
 1844 000e 0393     		str	r3, [sp, #12]
 1845              		.loc 4 303 0
 1846 0010 6F4B     		ldr	r3, .L147
 1847 0012 1B68     		ldr	r3, [r3]
 1848 0014 1793     		str	r3, [sp, #92]
 1849              		.loc 4 305 0
 1850 0016 0023     		movs	r3, #0
 1851 0018 0A93     		str	r3, [sp, #40]
 1852 001a C8E0     		b	.L129
 1853              	.L145:
 1854              	.LBB23:
 1855              		.loc 4 307 0
 1856 001c 08AB     		add	r3, sp, #32
 1857 001e 1946     		mov	r1, r3
 1858 0020 0598     		ldr	r0, [sp, #20]
 1859 0022 FFF7FEFF 		bl	cmp_read_str_size
 1860 0026 0346     		mov	r3, r0
 1861 0028 83F00103 		eor	r3, r3, #1
 1862 002c DBB2     		uxtb	r3, r3
 1863 002e 002B     		cmp	r3, #0
 1864 0030 07D0     		beq	.L130
 1865              		.loc 4 308 0
 1866 0032 049B     		ldr	r3, [sp, #16]
 1867 0034 674A     		ldr	r2, .L147+4
 1868 0036 0021     		movs	r1, #0
 1869 0038 0398     		ldr	r0, [sp, #12]
 1870 003a 9847     		blx	r3
 1871              	.LVL19:
 1872              		.loc 4 309 0
 1873 003c 4FF0FF33 		mov	r3, #-1
 1874 0040 BBE0     		b	.L144
 1875              	.L130:
 1876              		.loc 4 311 0
 1877 0042 089B     		ldr	r3, [sp, #32]
 1878 0044 0133     		adds	r3, r3, #1
 1879 0046 1846     		mov	r0, r3
 1880 0048 FFF7FEFF 		bl	malloc
 1881 004c 0346     		mov	r3, r0
 1882 004e 0B93     		str	r3, [sp, #44]
 1883              		.loc 4 312 0
 1884 0050 0B9B     		ldr	r3, [sp, #44]
ARM GAS  C:\Users\PCHAUT~1\AppData\Local\Temp\ccIm8FNl.s 			page 35


 1885 0052 002B     		cmp	r3, #0
 1886 0054 07D1     		bne	.L132
 1887              		.loc 4 313 0
 1888 0056 049B     		ldr	r3, [sp, #16]
 1889 0058 5F4A     		ldr	r2, .L147+8
 1890 005a 0021     		movs	r1, #0
 1891 005c 0398     		ldr	r0, [sp, #12]
 1892 005e 9847     		blx	r3
 1893              	.LVL20:
 1894              		.loc 4 314 0
 1895 0060 4FF0FF33 		mov	r3, #-1
 1896 0064 A9E0     		b	.L144
 1897              	.L132:
 1898              		.loc 4 317 0
 1899 0066 059B     		ldr	r3, [sp, #20]
 1900 0068 9B68     		ldr	r3, [r3, #8]
 1901 006a 089A     		ldr	r2, [sp, #32]
 1902 006c 0B99     		ldr	r1, [sp, #44]
 1903 006e 0598     		ldr	r0, [sp, #20]
 1904 0070 9847     		blx	r3
 1905              	.LVL21:
 1906 0072 0346     		mov	r3, r0
 1907 0074 83F00103 		eor	r3, r3, #1
 1908 0078 DBB2     		uxtb	r3, r3
 1909 007a 002B     		cmp	r3, #0
 1910 007c 0AD0     		beq	.L133
 1911              		.loc 4 318 0
 1912 007e 049B     		ldr	r3, [sp, #16]
 1913 0080 544A     		ldr	r2, .L147+4
 1914 0082 0021     		movs	r1, #0
 1915 0084 0398     		ldr	r0, [sp, #12]
 1916 0086 9847     		blx	r3
 1917              	.LVL22:
 1918              		.loc 4 319 0
 1919 0088 0B98     		ldr	r0, [sp, #44]
 1920 008a FFF7FEFF 		bl	free
 1921              		.loc 4 320 0
 1922 008e 4FF0FF33 		mov	r3, #-1
 1923 0092 92E0     		b	.L144
 1924              	.L133:
 1925              		.loc 4 322 0
 1926 0094 089B     		ldr	r3, [sp, #32]
 1927 0096 0B9A     		ldr	r2, [sp, #44]
 1928 0098 1344     		add	r3, r3, r2
 1929 009a 0022     		movs	r2, #0
 1930 009c 1A70     		strb	r2, [r3]
 1931              		.loc 4 324 0
 1932 009e 12AB     		add	r3, sp, #72
 1933 00a0 1946     		mov	r1, r3
 1934 00a2 0598     		ldr	r0, [sp, #20]
 1935 00a4 FFF7FEFF 		bl	cmp_read_object
 1936 00a8 0346     		mov	r3, r0
 1937 00aa 83F00103 		eor	r3, r3, #1
 1938 00ae DBB2     		uxtb	r3, r3
 1939 00b0 002B     		cmp	r3, #0
 1940 00b2 0AD0     		beq	.L134
 1941              		.loc 4 325 0
ARM GAS  C:\Users\PCHAUT~1\AppData\Local\Temp\ccIm8FNl.s 			page 36


 1942 00b4 049B     		ldr	r3, [sp, #16]
 1943 00b6 494A     		ldr	r2, .L147+12
 1944 00b8 0B99     		ldr	r1, [sp, #44]
 1945 00ba 0398     		ldr	r0, [sp, #12]
 1946 00bc 9847     		blx	r3
 1947              	.LVL23:
 1948              		.loc 4 326 0
 1949 00be 0B98     		ldr	r0, [sp, #44]
 1950 00c0 FFF7FEFF 		bl	free
 1951              		.loc 4 327 0
 1952 00c4 4FF0FF33 		mov	r3, #-1
 1953 00c8 77E0     		b	.L144
 1954              	.L134:
 1955              		.loc 4 329 0
 1956 00ca 12AB     		add	r3, sp, #72
 1957 00cc 1846     		mov	r0, r3
 1958 00ce FFF7FEFF 		bl	cmp_object_is_map
 1959 00d2 0346     		mov	r3, r0
 1960 00d4 002B     		cmp	r3, #0
 1961 00d6 36D0     		beq	.L135
 1962              	.LBB24:
 1963              		.loc 4 330 0
 1964 00d8 089B     		ldr	r3, [sp, #32]
 1965 00da 1A46     		mov	r2, r3
 1966 00dc 0B99     		ldr	r1, [sp, #44]
 1967 00de 0798     		ldr	r0, [sp, #28]
 1968 00e0 FFF7FEFF 		bl	_parameter_namespace_find_w_id_len
 1969 00e4 0F90     		str	r0, [sp, #60]
 1970              		.loc 4 331 0
 1971 00e6 0F9B     		ldr	r3, [sp, #60]
 1972 00e8 002B     		cmp	r3, #0
 1973 00ea 04D1     		bne	.L136
 1974              		.loc 4 332 0
 1975 00ec 049B     		ldr	r3, [sp, #16]
 1976 00ee 3C4A     		ldr	r2, .L147+16
 1977 00f0 0B99     		ldr	r1, [sp, #44]
 1978 00f2 0398     		ldr	r0, [sp, #12]
 1979 00f4 9847     		blx	r3
 1980              	.LVL24:
 1981              	.L136:
 1982              		.loc 4 334 0
 1983 00f6 0B98     		ldr	r0, [sp, #44]
 1984 00f8 FFF7FEFF 		bl	free
 1985              		.loc 4 335 0
 1986 00fc 0F9B     		ldr	r3, [sp, #60]
 1987 00fe 002B     		cmp	r3, #0
 1988 0100 13D0     		beq	.L137
 1989              	.LBB25:
 1990              		.loc 4 337 0
 1991 0102 09AA     		add	r2, sp, #36
 1992 0104 12AB     		add	r3, sp, #72
 1993 0106 1146     		mov	r1, r2
 1994 0108 1846     		mov	r0, r3
 1995 010a FFF7FEFF 		bl	cmp_object_as_map
 1996              		.loc 4 338 0
 1997 010e 0999     		ldr	r1, [sp, #36]
 1998 0110 039B     		ldr	r3, [sp, #12]
ARM GAS  C:\Users\PCHAUT~1\AppData\Local\Temp\ccIm8FNl.s 			page 37


 1999 0112 0093     		str	r3, [sp]
 2000 0114 049B     		ldr	r3, [sp, #16]
 2001 0116 059A     		ldr	r2, [sp, #20]
 2002 0118 0F98     		ldr	r0, [sp, #60]
 2003 011a FFF771FF 		bl	read_namespace
 2004 011e 1190     		str	r0, [sp, #68]
 2005              		.loc 4 339 0
 2006 0120 119B     		ldr	r3, [sp, #68]
 2007 0122 002B     		cmp	r3, #0
 2008 0124 40D0     		beq	.L140
 2009              		.loc 4 340 0
 2010 0126 119B     		ldr	r3, [sp, #68]
 2011              	.LBE25:
 2012              	.LBE24:
 2013              		.loc 4 309 0
 2014 0128 47E0     		b	.L144
 2015              	.L137:
 2016              	.LBB27:
 2017              	.LBB26:
 2018              		.loc 4 343 0
 2019 012a 12A8     		add	r0, sp, #72
 2020 012c 0023     		movs	r3, #0
 2021 012e 0093     		str	r3, [sp]
 2022 0130 039B     		ldr	r3, [sp, #12]
 2023 0132 049A     		ldr	r2, [sp, #16]
 2024 0134 0599     		ldr	r1, [sp, #20]
 2025 0136 FFF7FEFF 		bl	discard_msgpack_element
 2026 013a 1090     		str	r0, [sp, #64]
 2027              		.loc 4 344 0
 2028 013c 109B     		ldr	r3, [sp, #64]
 2029 013e 002B     		cmp	r3, #0
 2030 0140 32D0     		beq	.L140
 2031              		.loc 4 345 0
 2032 0142 109B     		ldr	r3, [sp, #64]
 2033 0144 39E0     		b	.L144
 2034              	.L135:
 2035              	.LBE26:
 2036              	.LBE27:
 2037              	.LBB28:
 2038              		.loc 4 349 0
 2039 0146 089B     		ldr	r3, [sp, #32]
 2040 0148 1A46     		mov	r2, r3
 2041 014a 0B99     		ldr	r1, [sp, #44]
 2042 014c 0798     		ldr	r0, [sp, #28]
 2043 014e FFF7FEFF 		bl	_parameter_find_w_id_len
 2044 0152 0C90     		str	r0, [sp, #48]
 2045              		.loc 4 350 0
 2046 0154 0C9B     		ldr	r3, [sp, #48]
 2047 0156 002B     		cmp	r3, #0
 2048 0158 04D1     		bne	.L141
 2049              		.loc 4 351 0
 2050 015a 049B     		ldr	r3, [sp, #16]
 2051 015c 214A     		ldr	r2, .L147+20
 2052 015e 0B99     		ldr	r1, [sp, #44]
 2053 0160 0398     		ldr	r0, [sp, #12]
 2054 0162 9847     		blx	r3
 2055              	.LVL25:
ARM GAS  C:\Users\PCHAUT~1\AppData\Local\Temp\ccIm8FNl.s 			page 38


 2056              	.L141:
 2057              		.loc 4 353 0
 2058 0164 0B98     		ldr	r0, [sp, #44]
 2059 0166 FFF7FEFF 		bl	free
 2060              		.loc 4 354 0
 2061 016a 0C9B     		ldr	r3, [sp, #48]
 2062 016c 002B     		cmp	r3, #0
 2063 016e 0DD0     		beq	.L142
 2064              	.LBB29:
 2065              		.loc 4 355 0
 2066 0170 12A9     		add	r1, sp, #72
 2067 0172 039B     		ldr	r3, [sp, #12]
 2068 0174 0093     		str	r3, [sp]
 2069 0176 049B     		ldr	r3, [sp, #16]
 2070 0178 059A     		ldr	r2, [sp, #20]
 2071 017a 0C98     		ldr	r0, [sp, #48]
 2072 017c FFF7FEFF 		bl	read_parameter
 2073 0180 0E90     		str	r0, [sp, #56]
 2074              		.loc 4 356 0
 2075 0182 0E9B     		ldr	r3, [sp, #56]
 2076 0184 002B     		cmp	r3, #0
 2077 0186 0FD0     		beq	.L140
 2078              		.loc 4 357 0
 2079 0188 0E9B     		ldr	r3, [sp, #56]
 2080 018a 16E0     		b	.L144
 2081              	.L142:
 2082              	.LBE29:
 2083              	.LBB30:
 2084              		.loc 4 360 0
 2085 018c 12A8     		add	r0, sp, #72
 2086 018e 0023     		movs	r3, #0
 2087 0190 0093     		str	r3, [sp]
 2088 0192 039B     		ldr	r3, [sp, #12]
 2089 0194 049A     		ldr	r2, [sp, #16]
 2090 0196 0599     		ldr	r1, [sp, #20]
 2091 0198 FFF7FEFF 		bl	discard_msgpack_element
 2092 019c 0D90     		str	r0, [sp, #52]
 2093              		.loc 4 361 0
 2094 019e 0D9B     		ldr	r3, [sp, #52]
 2095 01a0 002B     		cmp	r3, #0
 2096 01a2 01D0     		beq	.L140
 2097              		.loc 4 362 0
 2098 01a4 0D9B     		ldr	r3, [sp, #52]
 2099 01a6 08E0     		b	.L144
 2100              	.L140:
 2101              	.LBE30:
 2102              	.LBE28:
 2103              	.LBE23:
 2104              		.loc 4 305 0 discriminator 2
 2105 01a8 0A9B     		ldr	r3, [sp, #40]
 2106 01aa 0133     		adds	r3, r3, #1
 2107 01ac 0A93     		str	r3, [sp, #40]
 2108              	.L129:
 2109              		.loc 4 305 0 is_stmt 0 discriminator 1
 2110 01ae 0A9A     		ldr	r2, [sp, #40]
 2111 01b0 069B     		ldr	r3, [sp, #24]
 2112 01b2 9A42     		cmp	r2, r3
ARM GAS  C:\Users\PCHAUT~1\AppData\Local\Temp\ccIm8FNl.s 			page 39


 2113 01b4 FFF432AF 		bcc	.L145
 2114              		.loc 4 367 0 is_stmt 1
 2115 01b8 0023     		movs	r3, #0
 2116              	.L144:
 2117              		.loc 4 368 0
 2118 01ba 1846     		mov	r0, r3
 2119 01bc 044B     		ldr	r3, .L147
 2120 01be 179A     		ldr	r2, [sp, #92]
 2121 01c0 1B68     		ldr	r3, [r3]
 2122 01c2 9A42     		cmp	r2, r3
 2123 01c4 01D0     		beq	.L146
 2124 01c6 FFF7FEFF 		bl	__stack_chk_fail
 2125              	.L146:
 2126 01ca 19B0     		add	sp, sp, #100
 2127              		.cfi_def_cfa_offset 4
 2128              		@ sp needed
 2129 01cc 5DF804FB 		ldr	pc, [sp], #4
 2130              	.L148:
 2131              		.align	2
 2132              	.L147:
 2133 01d0 00000000 		.word	__stack_chk_guard
 2134 01d4 E8000000 		.word	.LC9
 2135 01d8 FC000000 		.word	.LC10
 2136 01dc 10010000 		.word	.LC11
 2137 01e0 28010000 		.word	.LC12
 2138 01e4 4C010000 		.word	.LC13
 2139              		.cfi_endproc
 2140              	.LFE262:
 2141              		.size	read_namespace, .-read_namespace
 2142              		.section	.text.err_ignore_cb,"ax",%progbits
 2143              		.align	1
 2144              		.p2align 4,,15
 2145              		.syntax unified
 2146              		.thumb
 2147              		.thumb_func
 2148              		.fpu fpv4-sp-d16
 2149              		.type	err_ignore_cb, %function
 2150              	err_ignore_cb:
 2151              	.LFB263:
 2152              		.loc 4 372 0
 2153              		.cfi_startproc
 2154              		@ args = 0, pretend = 0, frame = 24
 2155              		@ frame_needed = 0, uses_anonymous_args = 0
 2156 0000 00B5     		push	{lr}
 2157              		.cfi_def_cfa_offset 4
 2158              		.cfi_offset 14, -4
 2159 0002 87B0     		sub	sp, sp, #28
 2160              		.cfi_def_cfa_offset 32
 2161 0004 0390     		str	r0, [sp, #12]
 2162 0006 0291     		str	r1, [sp, #8]
 2163 0008 0192     		str	r2, [sp, #4]
 2164              		.loc 4 372 0
 2165 000a 074B     		ldr	r3, .L151
 2166 000c 1B68     		ldr	r3, [r3]
 2167 000e 0593     		str	r3, [sp, #20]
 2168              		.loc 4 376 0
 2169 0010 00BF     		nop
ARM GAS  C:\Users\PCHAUT~1\AppData\Local\Temp\ccIm8FNl.s 			page 40


 2170 0012 054B     		ldr	r3, .L151
 2171 0014 059A     		ldr	r2, [sp, #20]
 2172 0016 1B68     		ldr	r3, [r3]
 2173 0018 9A42     		cmp	r2, r3
 2174 001a 01D0     		beq	.L150
 2175 001c FFF7FEFF 		bl	__stack_chk_fail
 2176              	.L150:
 2177 0020 07B0     		add	sp, sp, #28
 2178              		.cfi_def_cfa_offset 4
 2179              		@ sp needed
 2180 0022 5DF804FB 		ldr	pc, [sp], #4
 2181              	.L152:
 2182 0026 00BF     		.align	2
 2183              	.L151:
 2184 0028 00000000 		.word	__stack_chk_guard
 2185              		.cfi_endproc
 2186              	.LFE263:
 2187              		.size	err_ignore_cb, .-err_ignore_cb
 2188              		.section	.rodata
 2189 016d 000000   		.align	2
 2190              	.LC14:
 2191 0170 636F756C 		.ascii	"could not read namespace map\000"
 2191      64206E6F 
 2191      74207265 
 2191      6164206E 
 2191      616D6573 
 2192              		.section	.text.parameter_msgpack_read_cmp,"ax",%progbits
 2193              		.align	1
 2194              		.p2align 4,,15
 2195              		.global	parameter_msgpack_read_cmp
 2196              		.syntax unified
 2197              		.thumb
 2198              		.thumb_func
 2199              		.fpu fpv4-sp-d16
 2200              		.type	parameter_msgpack_read_cmp, %function
 2201              	parameter_msgpack_read_cmp:
 2202              	.LFB264:
 2203              		.loc 4 383 0
 2204              		.cfi_startproc
 2205              		@ args = 0, pretend = 0, frame = 24
 2206              		@ frame_needed = 0, uses_anonymous_args = 0
 2207 0000 00B5     		push	{lr}
 2208              		.cfi_def_cfa_offset 4
 2209              		.cfi_offset 14, -4
 2210 0002 89B0     		sub	sp, sp, #36
 2211              		.cfi_def_cfa_offset 40
 2212 0004 0590     		str	r0, [sp, #20]
 2213 0006 0491     		str	r1, [sp, #16]
 2214 0008 0392     		str	r2, [sp, #12]
 2215 000a 0293     		str	r3, [sp, #8]
 2216              		.loc 4 383 0
 2217 000c 174B     		ldr	r3, .L159
 2218 000e 1B68     		ldr	r3, [r3]
 2219 0010 0793     		str	r3, [sp, #28]
 2220              		.loc 4 384 0
 2221 0012 039B     		ldr	r3, [sp, #12]
 2222 0014 002B     		cmp	r3, #0
ARM GAS  C:\Users\PCHAUT~1\AppData\Local\Temp\ccIm8FNl.s 			page 41


 2223 0016 01D1     		bne	.L154
 2224              		.loc 4 385 0
 2225 0018 154B     		ldr	r3, .L159+4
 2226 001a 0393     		str	r3, [sp, #12]
 2227              	.L154:
 2228              		.loc 4 388 0
 2229 001c 06AB     		add	r3, sp, #24
 2230 001e 1946     		mov	r1, r3
 2231 0020 0498     		ldr	r0, [sp, #16]
 2232 0022 FFF7FEFF 		bl	cmp_read_map
 2233 0026 0346     		mov	r3, r0
 2234 0028 83F00103 		eor	r3, r3, #1
 2235 002c DBB2     		uxtb	r3, r3
 2236 002e 002B     		cmp	r3, #0
 2237 0030 07D0     		beq	.L155
 2238              		.loc 4 389 0
 2239 0032 039B     		ldr	r3, [sp, #12]
 2240 0034 0F4A     		ldr	r2, .L159+8
 2241 0036 0021     		movs	r1, #0
 2242 0038 0298     		ldr	r0, [sp, #8]
 2243 003a 9847     		blx	r3
 2244              	.LVL26:
 2245              		.loc 4 390 0
 2246 003c 4FF0FF33 		mov	r3, #-1
 2247 0040 08E0     		b	.L157
 2248              	.L155:
 2249              		.loc 4 392 0
 2250 0042 0699     		ldr	r1, [sp, #24]
 2251 0044 029B     		ldr	r3, [sp, #8]
 2252 0046 0093     		str	r3, [sp]
 2253 0048 039B     		ldr	r3, [sp, #12]
 2254 004a 049A     		ldr	r2, [sp, #16]
 2255 004c 0598     		ldr	r0, [sp, #20]
 2256 004e FFF7FEFF 		bl	read_namespace
 2257 0052 0346     		mov	r3, r0
 2258              	.L157:
 2259              		.loc 4 393 0 discriminator 1
 2260 0054 1846     		mov	r0, r3
 2261 0056 054B     		ldr	r3, .L159
 2262 0058 079A     		ldr	r2, [sp, #28]
 2263 005a 1B68     		ldr	r3, [r3]
 2264 005c 9A42     		cmp	r2, r3
 2265 005e 01D0     		beq	.L158
 2266              		.loc 4 393 0 is_stmt 0
 2267 0060 FFF7FEFF 		bl	__stack_chk_fail
 2268              	.L158:
 2269 0064 09B0     		add	sp, sp, #36
 2270              		.cfi_def_cfa_offset 4
 2271              		@ sp needed
 2272 0066 5DF804FB 		ldr	pc, [sp], #4
 2273              	.L160:
 2274 006a 00BF     		.align	2
 2275              	.L159:
 2276 006c 00000000 		.word	__stack_chk_guard
 2277 0070 00000000 		.word	err_ignore_cb
 2278 0074 70010000 		.word	.LC14
 2279              		.cfi_endproc
ARM GAS  C:\Users\PCHAUT~1\AppData\Local\Temp\ccIm8FNl.s 			page 42


 2280              	.LFE264:
 2281              		.size	parameter_msgpack_read_cmp, .-parameter_msgpack_read_cmp
 2282              		.section	.text.parameter_msgpack_read,"ax",%progbits
 2283              		.align	1
 2284              		.p2align 4,,15
 2285              		.global	parameter_msgpack_read
 2286              		.syntax unified
 2287              		.thumb
 2288              		.thumb_func
 2289              		.fpu fpv4-sp-d16
 2290              		.type	parameter_msgpack_read, %function
 2291              	parameter_msgpack_read:
 2292              	.LFB265:
 2293              		.loc 4 401 0 is_stmt 1
 2294              		.cfi_startproc
 2295              		@ args = 4, pretend = 0, frame = 56
 2296              		@ frame_needed = 0, uses_anonymous_args = 0
 2297 0000 00B5     		push	{lr}
 2298              		.cfi_def_cfa_offset 4
 2299              		.cfi_offset 14, -4
 2300 0002 8FB0     		sub	sp, sp, #60
 2301              		.cfi_def_cfa_offset 64
 2302 0004 0590     		str	r0, [sp, #20]
 2303 0006 0491     		str	r1, [sp, #16]
 2304 0008 0392     		str	r2, [sp, #12]
 2305 000a 0293     		str	r3, [sp, #8]
 2306 000c 109B     		ldr	r3, [sp, #64]
 2307 000e 0193     		str	r3, [sp, #4]
 2308              		.loc 4 401 0
 2309 0010 0D4B     		ldr	r3, .L164
 2310 0012 1B68     		ldr	r3, [r3]
 2311 0014 0D93     		str	r3, [sp, #52]
 2312              		.loc 4 404 0
 2313 0016 06A9     		add	r1, sp, #24
 2314 0018 09A8     		add	r0, sp, #36
 2315 001a 039B     		ldr	r3, [sp, #12]
 2316 001c 049A     		ldr	r2, [sp, #16]
 2317 001e FFF7FEFF 		bl	cmp_mem_access_ro_init
 2318              		.loc 4 405 0
 2319 0022 09A9     		add	r1, sp, #36
 2320 0024 019B     		ldr	r3, [sp, #4]
 2321 0026 029A     		ldr	r2, [sp, #8]
 2322 0028 0598     		ldr	r0, [sp, #20]
 2323 002a FFF7FEFF 		bl	parameter_msgpack_read_cmp
 2324 002e 0346     		mov	r3, r0
 2325              		.loc 4 406 0
 2326 0030 1846     		mov	r0, r3
 2327 0032 054B     		ldr	r3, .L164
 2328 0034 0D9A     		ldr	r2, [sp, #52]
 2329 0036 1B68     		ldr	r3, [r3]
 2330 0038 9A42     		cmp	r2, r3
 2331 003a 01D0     		beq	.L163
 2332 003c FFF7FEFF 		bl	__stack_chk_fail
 2333              	.L163:
 2334 0040 0FB0     		add	sp, sp, #60
 2335              		.cfi_def_cfa_offset 4
 2336              		@ sp needed
ARM GAS  C:\Users\PCHAUT~1\AppData\Local\Temp\ccIm8FNl.s 			page 43


 2337 0042 5DF804FB 		ldr	pc, [sp], #4
 2338              	.L165:
 2339 0046 00BF     		.align	2
 2340              	.L164:
 2341 0048 00000000 		.word	__stack_chk_guard
 2342              		.cfi_endproc
 2343              	.LFE265:
 2344              		.size	parameter_msgpack_read, .-parameter_msgpack_read
 2345              		.section	.rodata
 2346 018d 000000   		.align	2
 2347              	.LC15:
 2348 0190 756E7375 		.ascii	"unsupported type for saving\000"
 2348      70706F72 
 2348      74656420 
 2348      74797065 
 2348      20666F72 
 2349              		.align	2
 2350              	.LC16:
 2351 01ac 636D705F 		.ascii	"cmp_write failed\000"
 2351      77726974 
 2351      65206661 
 2351      696C6564 
 2351      00
 2352              		.section	.text.parameter_msgpack_write_subtree,"ax",%progbits
 2353              		.align	1
 2354              		.p2align 4,,15
 2355              		.syntax unified
 2356              		.thumb
 2357              		.thumb_func
 2358              		.fpu fpv4-sp-d16
 2359              		.type	parameter_msgpack_write_subtree, %function
 2360              	parameter_msgpack_write_subtree:
 2361              	.LFB266:
 2362              		.loc 4 413 0
 2363              		.cfi_startproc
 2364              		@ args = 0, pretend = 0, frame = 40
 2365              		@ frame_needed = 0, uses_anonymous_args = 0
 2366 0000 10B5     		push	{r4, lr}
 2367              		.cfi_def_cfa_offset 8
 2368              		.cfi_offset 4, -8
 2369              		.cfi_offset 14, -4
 2370 0002 8AB0     		sub	sp, sp, #40
 2371              		.cfi_def_cfa_offset 48
 2372 0004 0390     		str	r0, [sp, #12]
 2373 0006 0291     		str	r1, [sp, #8]
 2374 0008 0192     		str	r2, [sp, #4]
 2375 000a 0093     		str	r3, [sp]
 2376              		.loc 4 413 0
 2377 000c B04B     		ldr	r3, .L190
 2378 000e 1B68     		ldr	r3, [r3]
 2379 0010 0993     		str	r3, [sp, #36]
 2380              		.loc 4 414 0
 2381 0012 0023     		movs	r3, #0
 2382 0014 0593     		str	r3, [sp, #20]
 2383              		.loc 4 421 0
 2384 0016 039B     		ldr	r3, [sp, #12]
 2385 0018 DB68     		ldr	r3, [r3, #12]
ARM GAS  C:\Users\PCHAUT~1\AppData\Local\Temp\ccIm8FNl.s 			page 44


 2386 001a 0793     		str	r3, [sp, #28]
 2387 001c 05E0     		b	.L167
 2388              	.L168:
 2389              		.loc 4 422 0 discriminator 3
 2390 001e 059B     		ldr	r3, [sp, #20]
 2391 0020 0133     		adds	r3, r3, #1
 2392 0022 0593     		str	r3, [sp, #20]
 2393              		.loc 4 421 0 discriminator 3
 2394 0024 079B     		ldr	r3, [sp, #28]
 2395 0026 1B69     		ldr	r3, [r3, #16]
 2396 0028 0793     		str	r3, [sp, #28]
 2397              	.L167:
 2398              		.loc 4 421 0 is_stmt 0 discriminator 1
 2399 002a 079B     		ldr	r3, [sp, #28]
 2400 002c 002B     		cmp	r3, #0
 2401 002e F6D1     		bne	.L168
 2402              		.loc 4 425 0 is_stmt 1
 2403 0030 039B     		ldr	r3, [sp, #12]
 2404 0032 5B69     		ldr	r3, [r3, #20]
 2405 0034 0893     		str	r3, [sp, #32]
 2406 0036 09E0     		b	.L169
 2407              	.L171:
 2408              		.loc 4 426 0
 2409 0038 089B     		ldr	r3, [sp, #32]
 2410 003a 5B7B     		ldrb	r3, [r3, #13]	@ zero_extendqisi2
 2411 003c 002B     		cmp	r3, #0
 2412 003e 02D0     		beq	.L170
 2413              		.loc 4 427 0
 2414 0040 059B     		ldr	r3, [sp, #20]
 2415 0042 0133     		adds	r3, r3, #1
 2416 0044 0593     		str	r3, [sp, #20]
 2417              	.L170:
 2418              		.loc 4 425 0 discriminator 2
 2419 0046 089B     		ldr	r3, [sp, #32]
 2420 0048 9B68     		ldr	r3, [r3, #8]
 2421 004a 0893     		str	r3, [sp, #32]
 2422              	.L169:
 2423              		.loc 4 425 0 is_stmt 0 discriminator 1
 2424 004c 089B     		ldr	r3, [sp, #32]
 2425 004e 002B     		cmp	r3, #0
 2426 0050 F2D1     		bne	.L171
 2427              		.loc 4 431 0 is_stmt 1
 2428 0052 0599     		ldr	r1, [sp, #20]
 2429 0054 0298     		ldr	r0, [sp, #8]
 2430 0056 FFF7FEFF 		bl	cmp_write_map
 2431              		.loc 4 434 0
 2432 005a 039B     		ldr	r3, [sp, #12]
 2433 005c DB68     		ldr	r3, [r3, #12]
 2434 005e 0793     		str	r3, [sp, #28]
 2435 0060 15E0     		b	.L172
 2436              	.L173:
 2437              		.loc 4 435 0 discriminator 3
 2438 0062 079B     		ldr	r3, [sp, #28]
 2439 0064 1C68     		ldr	r4, [r3]
 2440 0066 079B     		ldr	r3, [sp, #28]
 2441 0068 1B68     		ldr	r3, [r3]
 2442 006a 1846     		mov	r0, r3
ARM GAS  C:\Users\PCHAUT~1\AppData\Local\Temp\ccIm8FNl.s 			page 45


 2443 006c FFF7FEFF 		bl	strlen
 2444 0070 0346     		mov	r3, r0
 2445 0072 1A46     		mov	r2, r3
 2446 0074 2146     		mov	r1, r4
 2447 0076 0298     		ldr	r0, [sp, #8]
 2448 0078 FFF7FEFF 		bl	cmp_write_str
 2449              		.loc 4 436 0 discriminator 3
 2450 007c 009B     		ldr	r3, [sp]
 2451 007e 019A     		ldr	r2, [sp, #4]
 2452 0080 0299     		ldr	r1, [sp, #8]
 2453 0082 0798     		ldr	r0, [sp, #28]
 2454 0084 FFF7BCFF 		bl	parameter_msgpack_write_subtree
 2455              		.loc 4 434 0 discriminator 3
 2456 0088 079B     		ldr	r3, [sp, #28]
 2457 008a 1B69     		ldr	r3, [r3, #16]
 2458 008c 0793     		str	r3, [sp, #28]
 2459              	.L172:
 2460              		.loc 4 434 0 is_stmt 0 discriminator 1
 2461 008e 079B     		ldr	r3, [sp, #28]
 2462 0090 002B     		cmp	r3, #0
 2463 0092 E6D1     		bne	.L173
 2464              		.loc 4 440 0 is_stmt 1
 2465 0094 039B     		ldr	r3, [sp, #12]
 2466 0096 5B69     		ldr	r3, [r3, #20]
 2467 0098 0893     		str	r3, [sp, #32]
 2468 009a 34E1     		b	.L174
 2469              	.L187:
 2470              		.loc 4 441 0
 2471 009c 0123     		movs	r3, #1
 2472 009e 8DF81330 		strb	r3, [sp, #19]
 2473              		.loc 4 443 0
 2474 00a2 089B     		ldr	r3, [sp, #32]
 2475 00a4 5B7B     		ldrb	r3, [r3, #13]	@ zero_extendqisi2
 2476 00a6 83F00103 		eor	r3, r3, #1
 2477 00aa DBB2     		uxtb	r3, r3
 2478 00ac 002B     		cmp	r3, #0
 2479 00ae 40F02681 		bne	.L189
 2480              		.loc 4 447 0
 2481 00b2 089B     		ldr	r3, [sp, #32]
 2482 00b4 9B7B     		ldrb	r3, [r3, #14]	@ zero_extendqisi2
 2483 00b6 013B     		subs	r3, r3, #1
 2484 00b8 052B     		cmp	r3, #5
 2485 00ba 00F20B81 		bhi	.L177
 2486 00be 01A2     		adr	r2, .L179
 2487 00c0 52F823F0 		ldr	pc, [r2, r3, lsl #2]
 2488              		.p2align 2
 2489              	.L179:
 2490 00c4 DD000000 		.word	.L178+1
 2491 00c8 89010000 		.word	.L180+1
 2492 00cc 35010000 		.word	.L181+1
 2493 00d0 DD010000 		.word	.L182+1
 2494 00d4 35020000 		.word	.L183+1
 2495 00d8 35020000 		.word	.L183+1
 2496              		.p2align 1
 2497              	.L178:
 2498              		.loc 4 449 0
 2499 00dc 089B     		ldr	r3, [sp, #32]
ARM GAS  C:\Users\PCHAUT~1\AppData\Local\Temp\ccIm8FNl.s 			page 46


 2500 00de 1C68     		ldr	r4, [r3]
 2501 00e0 089B     		ldr	r3, [sp, #32]
 2502 00e2 1B68     		ldr	r3, [r3]
 2503 00e4 1846     		mov	r0, r3
 2504 00e6 FFF7FEFF 		bl	strlen
 2505 00ea 0346     		mov	r3, r0
 2506 00ec 1A46     		mov	r2, r3
 2507 00ee 2146     		mov	r1, r4
 2508 00f0 0298     		ldr	r0, [sp, #8]
 2509 00f2 FFF7FEFF 		bl	cmp_write_str
 2510 00f6 0346     		mov	r3, r0
 2511 00f8 1A46     		mov	r2, r3
 2512 00fa 9DF81330 		ldrb	r3, [sp, #19]	@ zero_extendqisi2
 2513 00fe 1340     		ands	r3, r3, r2
 2514 0100 002B     		cmp	r3, #0
 2515 0102 14BF     		ite	ne
 2516 0104 0123     		movne	r3, #1
 2517 0106 0023     		moveq	r3, #0
 2518 0108 8DF81330 		strb	r3, [sp, #19]
 2519              		.loc 4 450 0
 2520 010c 089B     		ldr	r3, [sp, #32]
 2521 010e D3ED047A 		vldr.32	s15, [r3, #16]
 2522 0112 B0EE670A 		vmov.f32	s0, s15
 2523 0116 0298     		ldr	r0, [sp, #8]
 2524 0118 FFF7FEFF 		bl	cmp_write_float
 2525 011c 0346     		mov	r3, r0
 2526 011e 1A46     		mov	r2, r3
 2527 0120 9DF81330 		ldrb	r3, [sp, #19]	@ zero_extendqisi2
 2528 0124 1340     		ands	r3, r3, r2
 2529 0126 002B     		cmp	r3, #0
 2530 0128 14BF     		ite	ne
 2531 012a 0123     		movne	r3, #1
 2532 012c 0023     		moveq	r3, #0
 2533 012e 8DF81330 		strb	r3, [sp, #19]
 2534              		.loc 4 451 0
 2535 0132 D6E0     		b	.L184
 2536              	.L181:
 2537              		.loc 4 454 0
 2538 0134 089B     		ldr	r3, [sp, #32]
 2539 0136 1C68     		ldr	r4, [r3]
 2540 0138 089B     		ldr	r3, [sp, #32]
 2541 013a 1B68     		ldr	r3, [r3]
 2542 013c 1846     		mov	r0, r3
 2543 013e FFF7FEFF 		bl	strlen
 2544 0142 0346     		mov	r3, r0
 2545 0144 1A46     		mov	r2, r3
 2546 0146 2146     		mov	r1, r4
 2547 0148 0298     		ldr	r0, [sp, #8]
 2548 014a FFF7FEFF 		bl	cmp_write_str
 2549 014e 0346     		mov	r3, r0
 2550 0150 1A46     		mov	r2, r3
 2551 0152 9DF81330 		ldrb	r3, [sp, #19]	@ zero_extendqisi2
 2552 0156 1340     		ands	r3, r3, r2
 2553 0158 002B     		cmp	r3, #0
 2554 015a 14BF     		ite	ne
 2555 015c 0123     		movne	r3, #1
 2556 015e 0023     		moveq	r3, #0
ARM GAS  C:\Users\PCHAUT~1\AppData\Local\Temp\ccIm8FNl.s 			page 47


 2557 0160 8DF81330 		strb	r3, [sp, #19]
 2558              		.loc 4 455 0
 2559 0164 089B     		ldr	r3, [sp, #32]
 2560 0166 1B69     		ldr	r3, [r3, #16]
 2561 0168 1946     		mov	r1, r3
 2562 016a 0298     		ldr	r0, [sp, #8]
 2563 016c FFF7FEFF 		bl	cmp_write_s32
 2564 0170 0346     		mov	r3, r0
 2565 0172 1A46     		mov	r2, r3
 2566 0174 9DF81330 		ldrb	r3, [sp, #19]	@ zero_extendqisi2
 2567 0178 1340     		ands	r3, r3, r2
 2568 017a 002B     		cmp	r3, #0
 2569 017c 14BF     		ite	ne
 2570 017e 0123     		movne	r3, #1
 2571 0180 0023     		moveq	r3, #0
 2572 0182 8DF81330 		strb	r3, [sp, #19]
 2573              		.loc 4 456 0
 2574 0186 ACE0     		b	.L184
 2575              	.L180:
 2576              		.loc 4 459 0
 2577 0188 089B     		ldr	r3, [sp, #32]
 2578 018a 1C68     		ldr	r4, [r3]
 2579 018c 089B     		ldr	r3, [sp, #32]
 2580 018e 1B68     		ldr	r3, [r3]
 2581 0190 1846     		mov	r0, r3
 2582 0192 FFF7FEFF 		bl	strlen
 2583 0196 0346     		mov	r3, r0
 2584 0198 1A46     		mov	r2, r3
 2585 019a 2146     		mov	r1, r4
 2586 019c 0298     		ldr	r0, [sp, #8]
 2587 019e FFF7FEFF 		bl	cmp_write_str
 2588 01a2 0346     		mov	r3, r0
 2589 01a4 1A46     		mov	r2, r3
 2590 01a6 9DF81330 		ldrb	r3, [sp, #19]	@ zero_extendqisi2
 2591 01aa 1340     		ands	r3, r3, r2
 2592 01ac 002B     		cmp	r3, #0
 2593 01ae 14BF     		ite	ne
 2594 01b0 0123     		movne	r3, #1
 2595 01b2 0023     		moveq	r3, #0
 2596 01b4 8DF81330 		strb	r3, [sp, #19]
 2597              		.loc 4 460 0
 2598 01b8 089B     		ldr	r3, [sp, #32]
 2599 01ba 1B7C     		ldrb	r3, [r3, #16]	@ zero_extendqisi2
 2600 01bc 1946     		mov	r1, r3
 2601 01be 0298     		ldr	r0, [sp, #8]
 2602 01c0 FFF7FEFF 		bl	cmp_write_bool
 2603 01c4 0346     		mov	r3, r0
 2604 01c6 1A46     		mov	r2, r3
 2605 01c8 9DF81330 		ldrb	r3, [sp, #19]	@ zero_extendqisi2
 2606 01cc 1340     		ands	r3, r3, r2
 2607 01ce 002B     		cmp	r3, #0
 2608 01d0 14BF     		ite	ne
 2609 01d2 0123     		movne	r3, #1
 2610 01d4 0023     		moveq	r3, #0
 2611 01d6 8DF81330 		strb	r3, [sp, #19]
 2612              		.loc 4 461 0
 2613 01da 82E0     		b	.L184
ARM GAS  C:\Users\PCHAUT~1\AppData\Local\Temp\ccIm8FNl.s 			page 48


 2614              	.L182:
 2615              		.loc 4 464 0
 2616 01dc 089B     		ldr	r3, [sp, #32]
 2617 01de 1C68     		ldr	r4, [r3]
 2618 01e0 089B     		ldr	r3, [sp, #32]
 2619 01e2 1B68     		ldr	r3, [r3]
 2620 01e4 1846     		mov	r0, r3
 2621 01e6 FFF7FEFF 		bl	strlen
 2622 01ea 0346     		mov	r3, r0
 2623 01ec 1A46     		mov	r2, r3
 2624 01ee 2146     		mov	r1, r4
 2625 01f0 0298     		ldr	r0, [sp, #8]
 2626 01f2 FFF7FEFF 		bl	cmp_write_str
 2627 01f6 0346     		mov	r3, r0
 2628 01f8 1A46     		mov	r2, r3
 2629 01fa 9DF81330 		ldrb	r3, [sp, #19]	@ zero_extendqisi2
 2630 01fe 1340     		ands	r3, r3, r2
 2631 0200 002B     		cmp	r3, #0
 2632 0202 14BF     		ite	ne
 2633 0204 0123     		movne	r3, #1
 2634 0206 0023     		moveq	r3, #0
 2635 0208 8DF81330 		strb	r3, [sp, #19]
 2636              		.loc 4 465 0
 2637 020c 089B     		ldr	r3, [sp, #32]
 2638 020e 1969     		ldr	r1, [r3, #16]
 2639              		.loc 4 466 0
 2640 0210 089B     		ldr	r3, [sp, #32]
 2641 0212 DB8A     		ldrh	r3, [r3, #22]
 2642              		.loc 4 465 0
 2643 0214 1A46     		mov	r2, r3
 2644 0216 0298     		ldr	r0, [sp, #8]
 2645 0218 FFF7FEFF 		bl	cmp_write_str
 2646 021c 0346     		mov	r3, r0
 2647 021e 1A46     		mov	r2, r3
 2648 0220 9DF81330 		ldrb	r3, [sp, #19]	@ zero_extendqisi2
 2649 0224 1340     		ands	r3, r3, r2
 2650 0226 002B     		cmp	r3, #0
 2651 0228 14BF     		ite	ne
 2652 022a 0123     		movne	r3, #1
 2653 022c 0023     		moveq	r3, #0
 2654 022e 8DF81330 		strb	r3, [sp, #19]
 2655              		.loc 4 467 0
 2656 0232 56E0     		b	.L184
 2657              	.L183:
 2658              		.loc 4 471 0
 2659 0234 089B     		ldr	r3, [sp, #32]
 2660 0236 1C68     		ldr	r4, [r3]
 2661 0238 089B     		ldr	r3, [sp, #32]
 2662 023a 1B68     		ldr	r3, [r3]
 2663 023c 1846     		mov	r0, r3
 2664 023e FFF7FEFF 		bl	strlen
 2665 0242 0346     		mov	r3, r0
 2666 0244 1A46     		mov	r2, r3
 2667 0246 2146     		mov	r1, r4
 2668 0248 0298     		ldr	r0, [sp, #8]
 2669 024a FFF7FEFF 		bl	cmp_write_str
 2670 024e 0346     		mov	r3, r0
ARM GAS  C:\Users\PCHAUT~1\AppData\Local\Temp\ccIm8FNl.s 			page 49


 2671 0250 1A46     		mov	r2, r3
 2672 0252 9DF81330 		ldrb	r3, [sp, #19]	@ zero_extendqisi2
 2673 0256 1340     		ands	r3, r3, r2
 2674 0258 002B     		cmp	r3, #0
 2675 025a 14BF     		ite	ne
 2676 025c 0123     		movne	r3, #1
 2677 025e 0023     		moveq	r3, #0
 2678 0260 8DF81330 		strb	r3, [sp, #19]
 2679              		.loc 4 472 0
 2680 0264 089B     		ldr	r3, [sp, #32]
 2681 0266 DB8A     		ldrh	r3, [r3, #22]
 2682 0268 1946     		mov	r1, r3
 2683 026a 0298     		ldr	r0, [sp, #8]
 2684 026c FFF7FEFF 		bl	cmp_write_array
 2685 0270 0346     		mov	r3, r0
 2686 0272 1A46     		mov	r2, r3
 2687 0274 9DF81330 		ldrb	r3, [sp, #19]	@ zero_extendqisi2
 2688 0278 1340     		ands	r3, r3, r2
 2689 027a 002B     		cmp	r3, #0
 2690 027c 14BF     		ite	ne
 2691 027e 0123     		movne	r3, #1
 2692 0280 0023     		moveq	r3, #0
 2693 0282 8DF81330 		strb	r3, [sp, #19]
 2694              		.loc 4 473 0
 2695 0286 0023     		movs	r3, #0
 2696 0288 0693     		str	r3, [sp, #24]
 2697 028a 19E0     		b	.L185
 2698              	.L186:
 2699              		.loc 4 474 0 discriminator 3
 2700 028c 089B     		ldr	r3, [sp, #32]
 2701 028e 1A69     		ldr	r2, [r3, #16]
 2702 0290 069B     		ldr	r3, [sp, #24]
 2703 0292 9B00     		lsls	r3, r3, #2
 2704 0294 1344     		add	r3, r3, r2
 2705 0296 D3ED007A 		vldr.32	s15, [r3]
 2706 029a B0EE670A 		vmov.f32	s0, s15
 2707 029e 0298     		ldr	r0, [sp, #8]
 2708 02a0 FFF7FEFF 		bl	cmp_write_float
 2709 02a4 0346     		mov	r3, r0
 2710 02a6 1A46     		mov	r2, r3
 2711 02a8 9DF81330 		ldrb	r3, [sp, #19]	@ zero_extendqisi2
 2712 02ac 1340     		ands	r3, r3, r2
 2713 02ae 002B     		cmp	r3, #0
 2714 02b0 14BF     		ite	ne
 2715 02b2 0123     		movne	r3, #1
 2716 02b4 0023     		moveq	r3, #0
 2717 02b6 8DF81330 		strb	r3, [sp, #19]
 2718              		.loc 4 473 0 discriminator 3
 2719 02ba 069B     		ldr	r3, [sp, #24]
 2720 02bc 0133     		adds	r3, r3, #1
 2721 02be 0693     		str	r3, [sp, #24]
 2722              	.L185:
 2723              		.loc 4 473 0 is_stmt 0 discriminator 1
 2724 02c0 089B     		ldr	r3, [sp, #32]
 2725 02c2 DB8A     		ldrh	r3, [r3, #22]
 2726 02c4 1A46     		mov	r2, r3
 2727 02c6 069B     		ldr	r3, [sp, #24]
ARM GAS  C:\Users\PCHAUT~1\AppData\Local\Temp\ccIm8FNl.s 			page 50


 2728 02c8 9342     		cmp	r3, r2
 2729 02ca DFD3     		bcc	.L186
 2730              		.loc 4 476 0 is_stmt 1
 2731 02cc 09E0     		b	.L184
 2732              	.L191:
 2733 02ce 00BF     		.align	2
 2734              	.L190:
 2735 02d0 00000000 		.word	__stack_chk_guard
 2736              	.L177:
 2737              		.loc 4 479 0
 2738 02d4 089B     		ldr	r3, [sp, #32]
 2739 02d6 1968     		ldr	r1, [r3]
 2740 02d8 019B     		ldr	r3, [sp, #4]
 2741 02da 124A     		ldr	r2, .L192
 2742 02dc 0098     		ldr	r0, [sp]
 2743 02de 9847     		blx	r3
 2744              	.LVL27:
 2745              		.loc 4 480 0
 2746 02e0 00BF     		nop
 2747              	.L184:
 2748              		.loc 4 483 0
 2749 02e2 9DF81330 		ldrb	r3, [sp, #19]
 2750 02e6 83F00103 		eor	r3, r3, #1
 2751 02ea DBB2     		uxtb	r3, r3
 2752 02ec 002B     		cmp	r3, #0
 2753 02ee 07D0     		beq	.L176
 2754              		.loc 4 484 0
 2755 02f0 089B     		ldr	r3, [sp, #32]
 2756 02f2 1968     		ldr	r1, [r3]
 2757 02f4 019B     		ldr	r3, [sp, #4]
 2758 02f6 0C4A     		ldr	r2, .L192+4
 2759 02f8 0098     		ldr	r0, [sp]
 2760 02fa 9847     		blx	r3
 2761              	.LVL28:
 2762 02fc 00E0     		b	.L176
 2763              	.L189:
 2764              		.loc 4 444 0
 2765 02fe 00BF     		nop
 2766              	.L176:
 2767              		.loc 4 440 0 discriminator 2
 2768 0300 089B     		ldr	r3, [sp, #32]
 2769 0302 9B68     		ldr	r3, [r3, #8]
 2770 0304 0893     		str	r3, [sp, #32]
 2771              	.L174:
 2772              		.loc 4 440 0 is_stmt 0 discriminator 1
 2773 0306 089B     		ldr	r3, [sp, #32]
 2774 0308 002B     		cmp	r3, #0
 2775 030a 7FF4C7AE 		bne	.L187
 2776              		.loc 4 487 0 is_stmt 1
 2777 030e 00BF     		nop
 2778 0310 064B     		ldr	r3, .L192+8
 2779 0312 099A     		ldr	r2, [sp, #36]
 2780 0314 1B68     		ldr	r3, [r3]
 2781 0316 9A42     		cmp	r2, r3
 2782 0318 01D0     		beq	.L188
 2783 031a FFF7FEFF 		bl	__stack_chk_fail
 2784              	.L188:
ARM GAS  C:\Users\PCHAUT~1\AppData\Local\Temp\ccIm8FNl.s 			page 51


 2785 031e 0AB0     		add	sp, sp, #40
 2786              		.cfi_def_cfa_offset 8
 2787              		@ sp needed
 2788 0320 10BD     		pop	{r4, pc}
 2789              	.L193:
 2790 0322 00BF     		.align	2
 2791              	.L192:
 2792 0324 90010000 		.word	.LC15
 2793 0328 AC010000 		.word	.LC16
 2794 032c 00000000 		.word	__stack_chk_guard
 2795              		.cfi_endproc
 2796              	.LFE266:
 2797              		.size	parameter_msgpack_write_subtree, .-parameter_msgpack_write_subtree
 2798              		.section	.text.parameter_msgpack_write_cmp,"ax",%progbits
 2799              		.align	1
 2800              		.p2align 4,,15
 2801              		.global	parameter_msgpack_write_cmp
 2802              		.syntax unified
 2803              		.thumb
 2804              		.thumb_func
 2805              		.fpu fpv4-sp-d16
 2806              		.type	parameter_msgpack_write_cmp, %function
 2807              	parameter_msgpack_write_cmp:
 2808              	.LFB267:
 2809              		.loc 4 493 0
 2810              		.cfi_startproc
 2811              		@ args = 0, pretend = 0, frame = 24
 2812              		@ frame_needed = 0, uses_anonymous_args = 0
 2813 0000 00B5     		push	{lr}
 2814              		.cfi_def_cfa_offset 4
 2815              		.cfi_offset 14, -4
 2816 0002 87B0     		sub	sp, sp, #28
 2817              		.cfi_def_cfa_offset 32
 2818 0004 0390     		str	r0, [sp, #12]
 2819 0006 0291     		str	r1, [sp, #8]
 2820 0008 0192     		str	r2, [sp, #4]
 2821 000a 0093     		str	r3, [sp]
 2822              		.loc 4 493 0
 2823 000c 0B4B     		ldr	r3, .L196
 2824 000e 1B68     		ldr	r3, [r3]
 2825 0010 0593     		str	r3, [sp, #20]
 2826              		.loc 4 494 0
 2827 0012 FFF7FEFF 		bl	chSysLock
 2828              		.loc 4 495 0
 2829 0016 009B     		ldr	r3, [sp]
 2830 0018 019A     		ldr	r2, [sp, #4]
 2831 001a 0299     		ldr	r1, [sp, #8]
 2832 001c 0398     		ldr	r0, [sp, #12]
 2833 001e FFF7FEFF 		bl	parameter_msgpack_write_subtree
 2834              		.loc 4 496 0
 2835 0022 FFF7FEFF 		bl	chSysUnlock
 2836              		.loc 4 497 0
 2837 0026 00BF     		nop
 2838 0028 044B     		ldr	r3, .L196
 2839 002a 059A     		ldr	r2, [sp, #20]
 2840 002c 1B68     		ldr	r3, [r3]
 2841 002e 9A42     		cmp	r2, r3
ARM GAS  C:\Users\PCHAUT~1\AppData\Local\Temp\ccIm8FNl.s 			page 52


 2842 0030 01D0     		beq	.L195
 2843 0032 FFF7FEFF 		bl	__stack_chk_fail
 2844              	.L195:
 2845 0036 07B0     		add	sp, sp, #28
 2846              		.cfi_def_cfa_offset 4
 2847              		@ sp needed
 2848 0038 5DF804FB 		ldr	pc, [sp], #4
 2849              	.L197:
 2850              		.align	2
 2851              	.L196:
 2852 003c 00000000 		.word	__stack_chk_guard
 2853              		.cfi_endproc
 2854              	.LFE267:
 2855              		.size	parameter_msgpack_write_cmp, .-parameter_msgpack_write_cmp
 2856              		.section	.text.parameter_msgpack_write,"ax",%progbits
 2857              		.align	1
 2858              		.p2align 4,,15
 2859              		.global	parameter_msgpack_write
 2860              		.syntax unified
 2861              		.thumb
 2862              		.thumb_func
 2863              		.fpu fpv4-sp-d16
 2864              		.type	parameter_msgpack_write, %function
 2865              	parameter_msgpack_write:
 2866              	.LFB268:
 2867              		.loc 4 505 0
 2868              		.cfi_startproc
 2869              		@ args = 4, pretend = 0, frame = 56
 2870              		@ frame_needed = 0, uses_anonymous_args = 0
 2871 0000 00B5     		push	{lr}
 2872              		.cfi_def_cfa_offset 4
 2873              		.cfi_offset 14, -4
 2874 0002 8FB0     		sub	sp, sp, #60
 2875              		.cfi_def_cfa_offset 64
 2876 0004 0590     		str	r0, [sp, #20]
 2877 0006 0491     		str	r1, [sp, #16]
 2878 0008 0392     		str	r2, [sp, #12]
 2879 000a 0293     		str	r3, [sp, #8]
 2880 000c 109B     		ldr	r3, [sp, #64]
 2881 000e 0193     		str	r3, [sp, #4]
 2882              		.loc 4 505 0
 2883 0010 0C4B     		ldr	r3, .L200
 2884 0012 1B68     		ldr	r3, [r3]
 2885 0014 0D93     		str	r3, [sp, #52]
 2886              		.loc 4 508 0
 2887 0016 06A9     		add	r1, sp, #24
 2888 0018 09A8     		add	r0, sp, #36
 2889 001a 039B     		ldr	r3, [sp, #12]
 2890 001c 049A     		ldr	r2, [sp, #16]
 2891 001e FFF7FEFF 		bl	cmp_mem_access_init
 2892              		.loc 4 509 0
 2893 0022 09A9     		add	r1, sp, #36
 2894 0024 019B     		ldr	r3, [sp, #4]
 2895 0026 029A     		ldr	r2, [sp, #8]
 2896 0028 0598     		ldr	r0, [sp, #20]
 2897 002a FFF7FEFF 		bl	parameter_msgpack_write_cmp
 2898              		.loc 4 510 0
ARM GAS  C:\Users\PCHAUT~1\AppData\Local\Temp\ccIm8FNl.s 			page 53


 2899 002e 00BF     		nop
 2900 0030 044B     		ldr	r3, .L200
 2901 0032 0D9A     		ldr	r2, [sp, #52]
 2902 0034 1B68     		ldr	r3, [r3]
 2903 0036 9A42     		cmp	r2, r3
 2904 0038 01D0     		beq	.L199
 2905 003a FFF7FEFF 		bl	__stack_chk_fail
 2906              	.L199:
 2907 003e 0FB0     		add	sp, sp, #60
 2908              		.cfi_def_cfa_offset 4
 2909              		@ sp needed
 2910 0040 5DF804FB 		ldr	pc, [sp], #4
 2911              	.L201:
 2912              		.align	2
 2913              	.L200:
 2914 0044 00000000 		.word	__stack_chk_guard
 2915              		.cfi_endproc
 2916              	.LFE268:
 2917              		.size	parameter_msgpack_write, .-parameter_msgpack_write
 2918              		.section	.rodata.__func__.8568,"a",%progbits
 2919              		.align	2
 2920              		.type	__func__.8568, %object
 2921              		.size	__func__.8568, 12
 2922              	__func__.8568:
 2923 0000 63685379 		.ascii	"chSysUnlock\000"
 2923      73556E6C 
 2923      6F636B00 
 2924              		.text
 2925              	.Letext0:
 2926              		.file 5 "c:\\users\\pchautems\\documents\\robotiquetp\\eclipse_e-puck2\\tools\\gcc-arm-none-eabi-7
 2927              		.file 6 "c:\\users\\pchautems\\documents\\robotiquetp\\eclipse_e-puck2\\tools\\gcc-arm-none-eabi-7
 2928              		.file 7 "c:\\users\\pchautems\\documents\\robotiquetp\\eclipse_e-puck2\\tools\\gcc-arm-none-eabi-7
 2929              		.file 8 "c:\\users\\pchautems\\documents\\robotiquetp\\eclipse_e-puck2\\tools\\gcc-arm-none-eabi-7
 2930              		.file 9 "c:\\users\\pchautems\\documents\\robotiquetp\\eclipse_e-puck2\\tools\\gcc-arm-none-eabi-7
 2931              		.file 10 "c:\\users\\pchautems\\documents\\robotiquetp\\eclipse_e-puck2\\tools\\gcc-arm-none-eabi-
 2932              		.file 11 "c:\\users\\pchautems\\documents\\robotiquetp\\eclipse_e-puck2\\tools\\gcc-arm-none-eabi-
 2933              		.file 12 "../lib/e-puck2_main-processor/src/cmp/cmp.h"
 2934              		.file 13 "../lib/e-puck2_main-processor/src/cmp_mem_access/cmp_mem_access.h"
 2935              		.file 14 "../lib/e-puck2_main-processor/ChibiOS//os/rt/ports/ARMCMx/compilers/GCC/chtypes.h"
 2936              		.file 15 "../lib/e-puck2_main-processor/ChibiOS//os/rt/include/chsystypes.h"
 2937              		.file 16 "../lib/e-puck2_main-processor/ChibiOS//os/rt/include/chschd.h"
 2938              		.file 17 "../lib/e-puck2_main-processor/ChibiOS//os/ext/CMSIS/include/core_cm4.h"
 2939              		.file 18 "../lib/e-puck2_main-processor/ChibiOS//os/ext/CMSIS/ST/system_stm32f4xx.h"
 2940              		.file 19 "../lib/e-puck2_main-processor/ChibiOS//os/rt/ports/ARMCMx/chcore.h"
 2941              		.file 20 "../lib/e-puck2_main-processor/ChibiOS//os/rt/include/chdebug.h"
 2942              		.file 21 "../lib/e-puck2_main-processor/ChibiOS//os/rt/include/chtm.h"
 2943              		.file 22 "../lib/e-puck2_main-processor/ChibiOS//os/rt/include/chstats.h"
 2944              		.file 23 "../lib/e-puck2_main-processor/ChibiOS//os/rt/include/chsem.h"
 2945              		.file 24 "../lib/e-puck2_main-processor/ChibiOS//os/rt/include/chmtx.h"
 2946              		.file 25 "../lib/e-puck2_main-processor/ChibiOS//os/rt/include/chregistry.h"
 2947              		.file 26 "../lib/e-puck2_main-processor/src/parameter/parameter.h"
 2948              		.file 27 "../lib/e-puck2_main-processor/src/parameter/parameter_msgpack.h"
 2949              		.section	.debug_info,"",%progbits
 2950              	.Ldebug_info0:
 2951 0000 F8210000 		.4byte	0x21f8
 2952 0004 0400     		.2byte	0x4
 2953 0006 00000000 		.4byte	.Ldebug_abbrev0
ARM GAS  C:\Users\PCHAUT~1\AppData\Local\Temp\ccIm8FNl.s 			page 54


 2954 000a 04       		.byte	0x4
 2955 000b 01       		.uleb128 0x1
 2956 000c F6080000 		.4byte	.LASF384
 2957 0010 0C       		.byte	0xc
 2958 0011 20080000 		.4byte	.LASF385
 2959 0015 480B0000 		.4byte	.LASF386
 2960 0019 18000000 		.4byte	.Ldebug_ranges0+0x18
 2961 001d 00000000 		.4byte	0
 2962 0021 00000000 		.4byte	.Ldebug_line0
 2963 0025 02       		.uleb128 0x2
 2964 0026 04       		.byte	0x4
 2965 0027 05       		.byte	0x5
 2966 0028 696E7400 		.ascii	"int\000"
 2967 002c 03       		.uleb128 0x3
 2968 002d 0F000000 		.4byte	.LASF3
 2969 0031 05       		.byte	0x5
 2970 0032 D8       		.byte	0xd8
 2971 0033 37000000 		.4byte	0x37
 2972 0037 04       		.uleb128 0x4
 2973 0038 04       		.byte	0x4
 2974 0039 07       		.byte	0x7
 2975 003a 110B0000 		.4byte	.LASF0
 2976 003e 04       		.uleb128 0x4
 2977 003f 08       		.byte	0x8
 2978 0040 05       		.byte	0x5
 2979 0041 F6070000 		.4byte	.LASF1
 2980 0045 04       		.uleb128 0x4
 2981 0046 08       		.byte	0x8
 2982 0047 04       		.byte	0x4
 2983 0048 9C0C0000 		.4byte	.LASF2
 2984 004c 03       		.uleb128 0x3
 2985 004d 410D0000 		.4byte	.LASF4
 2986 0051 06       		.byte	0x6
 2987 0052 29       		.byte	0x29
 2988 0053 57000000 		.4byte	0x57
 2989 0057 04       		.uleb128 0x4
 2990 0058 01       		.byte	0x1
 2991 0059 06       		.byte	0x6
 2992 005a 34030000 		.4byte	.LASF5
 2993 005e 03       		.uleb128 0x3
 2994 005f E4010000 		.4byte	.LASF6
 2995 0063 06       		.byte	0x6
 2996 0064 2B       		.byte	0x2b
 2997 0065 69000000 		.4byte	0x69
 2998 0069 04       		.uleb128 0x4
 2999 006a 01       		.byte	0x1
 3000 006b 08       		.byte	0x8
 3001 006c 74030000 		.4byte	.LASF7
 3002 0070 03       		.uleb128 0x3
 3003 0071 570E0000 		.4byte	.LASF8
 3004 0075 06       		.byte	0x6
 3005 0076 37       		.byte	0x37
 3006 0077 7B000000 		.4byte	0x7b
 3007 007b 04       		.uleb128 0x4
 3008 007c 02       		.byte	0x2
 3009 007d 05       		.byte	0x5
 3010 007e 090F0000 		.4byte	.LASF9
ARM GAS  C:\Users\PCHAUT~1\AppData\Local\Temp\ccIm8FNl.s 			page 55


 3011 0082 03       		.uleb128 0x3
 3012 0083 6E040000 		.4byte	.LASF10
 3013 0087 06       		.byte	0x6
 3014 0088 39       		.byte	0x39
 3015 0089 8D000000 		.4byte	0x8d
 3016 008d 04       		.uleb128 0x4
 3017 008e 02       		.byte	0x2
 3018 008f 07       		.byte	0x7
 3019 0090 FE100000 		.4byte	.LASF11
 3020 0094 03       		.uleb128 0x3
 3021 0095 64110000 		.4byte	.LASF12
 3022 0099 06       		.byte	0x6
 3023 009a 4D       		.byte	0x4d
 3024 009b 9F000000 		.4byte	0x9f
 3025 009f 04       		.uleb128 0x4
 3026 00a0 04       		.byte	0x4
 3027 00a1 05       		.byte	0x5
 3028 00a2 52020000 		.4byte	.LASF13
 3029 00a6 03       		.uleb128 0x3
 3030 00a7 D1070000 		.4byte	.LASF14
 3031 00ab 06       		.byte	0x6
 3032 00ac 4F       		.byte	0x4f
 3033 00ad B1000000 		.4byte	0xb1
 3034 00b1 04       		.uleb128 0x4
 3035 00b2 04       		.byte	0x4
 3036 00b3 07       		.byte	0x7
 3037 00b4 56060000 		.4byte	.LASF15
 3038 00b8 03       		.uleb128 0x3
 3039 00b9 0A100000 		.4byte	.LASF16
 3040 00bd 06       		.byte	0x6
 3041 00be 67       		.byte	0x67
 3042 00bf 3E000000 		.4byte	0x3e
 3043 00c3 03       		.uleb128 0x3
 3044 00c4 3A060000 		.4byte	.LASF17
 3045 00c8 06       		.byte	0x6
 3046 00c9 69       		.byte	0x69
 3047 00ca CE000000 		.4byte	0xce
 3048 00ce 04       		.uleb128 0x4
 3049 00cf 08       		.byte	0x8
 3050 00d0 07       		.byte	0x7
 3051 00d1 6C0D0000 		.4byte	.LASF18
 3052 00d5 03       		.uleb128 0x3
 3053 00d6 57100000 		.4byte	.LASF19
 3054 00da 07       		.byte	0x7
 3055 00db 22       		.byte	0x22
 3056 00dc E0000000 		.4byte	0xe0
 3057 00e0 05       		.uleb128 0x5
 3058 00e1 04       		.byte	0x4
 3059 00e2 E6000000 		.4byte	0xe6
 3060 00e6 06       		.uleb128 0x6
 3061 00e7 A2050000 		.4byte	.LASF126
 3062 00eb 03       		.uleb128 0x3
 3063 00ec E3100000 		.4byte	.LASF20
 3064 00f0 08       		.byte	0x8
 3065 00f1 2C       		.byte	0x2c
 3066 00f2 9F000000 		.4byte	0x9f
 3067 00f6 03       		.uleb128 0x3
ARM GAS  C:\Users\PCHAUT~1\AppData\Local\Temp\ccIm8FNl.s 			page 56


 3068 00f7 FE0C0000 		.4byte	.LASF21
 3069 00fb 08       		.byte	0x8
 3070 00fc 72       		.byte	0x72
 3071 00fd 9F000000 		.4byte	0x9f
 3072 0101 07       		.uleb128 0x7
 3073 0102 8E0E0000 		.4byte	.LASF22
 3074 0106 05       		.byte	0x5
 3075 0107 6501     		.2byte	0x165
 3076 0109 37000000 		.4byte	0x37
 3077 010d 08       		.uleb128 0x8
 3078 010e 04       		.byte	0x4
 3079 010f 08       		.byte	0x8
 3080 0110 A6       		.byte	0xa6
 3081 0111 2C010000 		.4byte	0x12c
 3082 0115 09       		.uleb128 0x9
 3083 0116 D5010000 		.4byte	.LASF23
 3084 011a 08       		.byte	0x8
 3085 011b A8       		.byte	0xa8
 3086 011c 01010000 		.4byte	0x101
 3087 0120 09       		.uleb128 0x9
 3088 0121 060D0000 		.4byte	.LASF24
 3089 0125 08       		.byte	0x8
 3090 0126 A9       		.byte	0xa9
 3091 0127 2C010000 		.4byte	0x12c
 3092 012b 00       		.byte	0
 3093 012c 0A       		.uleb128 0xa
 3094 012d 69000000 		.4byte	0x69
 3095 0131 3C010000 		.4byte	0x13c
 3096 0135 0B       		.uleb128 0xb
 3097 0136 37000000 		.4byte	0x37
 3098 013a 03       		.byte	0x3
 3099 013b 00       		.byte	0
 3100 013c 0C       		.uleb128 0xc
 3101 013d 08       		.byte	0x8
 3102 013e 08       		.byte	0x8
 3103 013f A3       		.byte	0xa3
 3104 0140 5D010000 		.4byte	0x15d
 3105 0144 0D       		.uleb128 0xd
 3106 0145 790C0000 		.4byte	.LASF25
 3107 0149 08       		.byte	0x8
 3108 014a A5       		.byte	0xa5
 3109 014b 25000000 		.4byte	0x25
 3110 014f 00       		.byte	0
 3111 0150 0D       		.uleb128 0xd
 3112 0151 29000000 		.4byte	.LASF26
 3113 0155 08       		.byte	0x8
 3114 0156 AA       		.byte	0xaa
 3115 0157 0D010000 		.4byte	0x10d
 3116 015b 04       		.byte	0x4
 3117 015c 00       		.byte	0
 3118 015d 03       		.uleb128 0x3
 3119 015e 660E0000 		.4byte	.LASF27
 3120 0162 08       		.byte	0x8
 3121 0163 AB       		.byte	0xab
 3122 0164 3C010000 		.4byte	0x13c
 3123 0168 03       		.uleb128 0x3
 3124 0169 390E0000 		.4byte	.LASF28
ARM GAS  C:\Users\PCHAUT~1\AppData\Local\Temp\ccIm8FNl.s 			page 57


 3125 016d 08       		.byte	0x8
 3126 016e AF       		.byte	0xaf
 3127 016f D5000000 		.4byte	0xd5
 3128 0173 0E       		.uleb128 0xe
 3129 0174 04       		.byte	0x4
 3130 0175 05       		.uleb128 0x5
 3131 0176 04       		.byte	0x4
 3132 0177 7B010000 		.4byte	0x17b
 3133 017b 04       		.uleb128 0x4
 3134 017c 01       		.byte	0x1
 3135 017d 08       		.byte	0x8
 3136 017e 39040000 		.4byte	.LASF29
 3137 0182 0F       		.uleb128 0xf
 3138 0183 7B010000 		.4byte	0x17b
 3139 0187 03       		.uleb128 0x3
 3140 0188 B9100000 		.4byte	.LASF30
 3141 018c 09       		.byte	0x9
 3142 018d 16       		.byte	0x16
 3143 018e B1000000 		.4byte	0xb1
 3144 0192 10       		.uleb128 0x10
 3145 0193 5C070000 		.4byte	.LASF35
 3146 0197 18       		.byte	0x18
 3147 0198 09       		.byte	0x9
 3148 0199 2F       		.byte	0x2f
 3149 019a E5010000 		.4byte	0x1e5
 3150 019e 0D       		.uleb128 0xd
 3151 019f 950E0000 		.4byte	.LASF31
 3152 01a3 09       		.byte	0x9
 3153 01a4 31       		.byte	0x31
 3154 01a5 E5010000 		.4byte	0x1e5
 3155 01a9 00       		.byte	0
 3156 01aa 11       		.uleb128 0x11
 3157 01ab 5F6B00   		.ascii	"_k\000"
 3158 01ae 09       		.byte	0x9
 3159 01af 32       		.byte	0x32
 3160 01b0 25000000 		.4byte	0x25
 3161 01b4 04       		.byte	0x4
 3162 01b5 0D       		.uleb128 0xd
 3163 01b6 88070000 		.4byte	.LASF32
 3164 01ba 09       		.byte	0x9
 3165 01bb 32       		.byte	0x32
 3166 01bc 25000000 		.4byte	0x25
 3167 01c0 08       		.byte	0x8
 3168 01c1 0D       		.uleb128 0xd
 3169 01c2 880A0000 		.4byte	.LASF33
 3170 01c6 09       		.byte	0x9
 3171 01c7 32       		.byte	0x32
 3172 01c8 25000000 		.4byte	0x25
 3173 01cc 0C       		.byte	0xc
 3174 01cd 0D       		.uleb128 0xd
 3175 01ce 7B050000 		.4byte	.LASF34
 3176 01d2 09       		.byte	0x9
 3177 01d3 32       		.byte	0x32
 3178 01d4 25000000 		.4byte	0x25
 3179 01d8 10       		.byte	0x10
 3180 01d9 11       		.uleb128 0x11
 3181 01da 5F7800   		.ascii	"_x\000"
ARM GAS  C:\Users\PCHAUT~1\AppData\Local\Temp\ccIm8FNl.s 			page 58


 3182 01dd 09       		.byte	0x9
 3183 01de 33       		.byte	0x33
 3184 01df EB010000 		.4byte	0x1eb
 3185 01e3 14       		.byte	0x14
 3186 01e4 00       		.byte	0
 3187 01e5 05       		.uleb128 0x5
 3188 01e6 04       		.byte	0x4
 3189 01e7 92010000 		.4byte	0x192
 3190 01eb 0A       		.uleb128 0xa
 3191 01ec 87010000 		.4byte	0x187
 3192 01f0 FB010000 		.4byte	0x1fb
 3193 01f4 0B       		.uleb128 0xb
 3194 01f5 37000000 		.4byte	0x37
 3195 01f9 00       		.byte	0
 3196 01fa 00       		.byte	0
 3197 01fb 10       		.uleb128 0x10
 3198 01fc 17010000 		.4byte	.LASF36
 3199 0200 24       		.byte	0x24
 3200 0201 09       		.byte	0x9
 3201 0202 37       		.byte	0x37
 3202 0203 74020000 		.4byte	0x274
 3203 0207 0D       		.uleb128 0xd
 3204 0208 33010000 		.4byte	.LASF37
 3205 020c 09       		.byte	0x9
 3206 020d 39       		.byte	0x39
 3207 020e 25000000 		.4byte	0x25
 3208 0212 00       		.byte	0
 3209 0213 0D       		.uleb128 0xd
 3210 0214 D8110000 		.4byte	.LASF38
 3211 0218 09       		.byte	0x9
 3212 0219 3A       		.byte	0x3a
 3213 021a 25000000 		.4byte	0x25
 3214 021e 04       		.byte	0x4
 3215 021f 0D       		.uleb128 0xd
 3216 0220 11110000 		.4byte	.LASF39
 3217 0224 09       		.byte	0x9
 3218 0225 3B       		.byte	0x3b
 3219 0226 25000000 		.4byte	0x25
 3220 022a 08       		.byte	0x8
 3221 022b 0D       		.uleb128 0xd
 3222 022c BE0B0000 		.4byte	.LASF40
 3223 0230 09       		.byte	0x9
 3224 0231 3C       		.byte	0x3c
 3225 0232 25000000 		.4byte	0x25
 3226 0236 0C       		.byte	0xc
 3227 0237 0D       		.uleb128 0xd
 3228 0238 F7020000 		.4byte	.LASF41
 3229 023c 09       		.byte	0x9
 3230 023d 3D       		.byte	0x3d
 3231 023e 25000000 		.4byte	0x25
 3232 0242 10       		.byte	0x10
 3233 0243 0D       		.uleb128 0xd
 3234 0244 7F0F0000 		.4byte	.LASF42
 3235 0248 09       		.byte	0x9
 3236 0249 3E       		.byte	0x3e
 3237 024a 25000000 		.4byte	0x25
 3238 024e 14       		.byte	0x14
ARM GAS  C:\Users\PCHAUT~1\AppData\Local\Temp\ccIm8FNl.s 			page 59


 3239 024f 0D       		.uleb128 0xd
 3240 0250 890C0000 		.4byte	.LASF43
 3241 0254 09       		.byte	0x9
 3242 0255 3F       		.byte	0x3f
 3243 0256 25000000 		.4byte	0x25
 3244 025a 18       		.byte	0x18
 3245 025b 0D       		.uleb128 0xd
 3246 025c A80C0000 		.4byte	.LASF44
 3247 0260 09       		.byte	0x9
 3248 0261 40       		.byte	0x40
 3249 0262 25000000 		.4byte	0x25
 3250 0266 1C       		.byte	0x1c
 3251 0267 0D       		.uleb128 0xd
 3252 0268 9A110000 		.4byte	.LASF45
 3253 026c 09       		.byte	0x9
 3254 026d 41       		.byte	0x41
 3255 026e 25000000 		.4byte	0x25
 3256 0272 20       		.byte	0x20
 3257 0273 00       		.byte	0
 3258 0274 12       		.uleb128 0x12
 3259 0275 1E020000 		.4byte	.LASF46
 3260 0279 0801     		.2byte	0x108
 3261 027b 09       		.byte	0x9
 3262 027c 4A       		.byte	0x4a
 3263 027d B4020000 		.4byte	0x2b4
 3264 0281 0D       		.uleb128 0xd
 3265 0282 80110000 		.4byte	.LASF47
 3266 0286 09       		.byte	0x9
 3267 0287 4B       		.byte	0x4b
 3268 0288 B4020000 		.4byte	0x2b4
 3269 028c 00       		.byte	0
 3270 028d 0D       		.uleb128 0xd
 3271 028e 940D0000 		.4byte	.LASF48
 3272 0292 09       		.byte	0x9
 3273 0293 4C       		.byte	0x4c
 3274 0294 B4020000 		.4byte	0x2b4
 3275 0298 80       		.byte	0x80
 3276 0299 13       		.uleb128 0x13
 3277 029a 5F0F0000 		.4byte	.LASF49
 3278 029e 09       		.byte	0x9
 3279 029f 4E       		.byte	0x4e
 3280 02a0 87010000 		.4byte	0x187
 3281 02a4 0001     		.2byte	0x100
 3282 02a6 13       		.uleb128 0x13
 3283 02a7 4F100000 		.4byte	.LASF50
 3284 02ab 09       		.byte	0x9
 3285 02ac 51       		.byte	0x51
 3286 02ad 87010000 		.4byte	0x187
 3287 02b1 0401     		.2byte	0x104
 3288 02b3 00       		.byte	0
 3289 02b4 0A       		.uleb128 0xa
 3290 02b5 73010000 		.4byte	0x173
 3291 02b9 C4020000 		.4byte	0x2c4
 3292 02bd 0B       		.uleb128 0xb
 3293 02be 37000000 		.4byte	0x37
 3294 02c2 1F       		.byte	0x1f
 3295 02c3 00       		.byte	0
ARM GAS  C:\Users\PCHAUT~1\AppData\Local\Temp\ccIm8FNl.s 			page 60


 3296 02c4 12       		.uleb128 0x12
 3297 02c5 5E0C0000 		.4byte	.LASF51
 3298 02c9 9001     		.2byte	0x190
 3299 02cb 09       		.byte	0x9
 3300 02cc 5D       		.byte	0x5d
 3301 02cd 02030000 		.4byte	0x302
 3302 02d1 0D       		.uleb128 0xd
 3303 02d2 950E0000 		.4byte	.LASF31
 3304 02d6 09       		.byte	0x9
 3305 02d7 5E       		.byte	0x5e
 3306 02d8 02030000 		.4byte	0x302
 3307 02dc 00       		.byte	0
 3308 02dd 0D       		.uleb128 0xd
 3309 02de 05100000 		.4byte	.LASF52
 3310 02e2 09       		.byte	0x9
 3311 02e3 5F       		.byte	0x5f
 3312 02e4 25000000 		.4byte	0x25
 3313 02e8 04       		.byte	0x4
 3314 02e9 0D       		.uleb128 0xd
 3315 02ea 44040000 		.4byte	.LASF53
 3316 02ee 09       		.byte	0x9
 3317 02ef 61       		.byte	0x61
 3318 02f0 08030000 		.4byte	0x308
 3319 02f4 08       		.byte	0x8
 3320 02f5 0D       		.uleb128 0xd
 3321 02f6 1E020000 		.4byte	.LASF46
 3322 02fa 09       		.byte	0x9
 3323 02fb 62       		.byte	0x62
 3324 02fc 74020000 		.4byte	0x274
 3325 0300 88       		.byte	0x88
 3326 0301 00       		.byte	0
 3327 0302 05       		.uleb128 0x5
 3328 0303 04       		.byte	0x4
 3329 0304 C4020000 		.4byte	0x2c4
 3330 0308 0A       		.uleb128 0xa
 3331 0309 18030000 		.4byte	0x318
 3332 030d 18030000 		.4byte	0x318
 3333 0311 0B       		.uleb128 0xb
 3334 0312 37000000 		.4byte	0x37
 3335 0316 1F       		.byte	0x1f
 3336 0317 00       		.byte	0
 3337 0318 05       		.uleb128 0x5
 3338 0319 04       		.byte	0x4
 3339 031a 1E030000 		.4byte	0x31e
 3340 031e 14       		.uleb128 0x14
 3341 031f 10       		.uleb128 0x10
 3342 0320 48100000 		.4byte	.LASF54
 3343 0324 08       		.byte	0x8
 3344 0325 09       		.byte	0x9
 3345 0326 75       		.byte	0x75
 3346 0327 44030000 		.4byte	0x344
 3347 032b 0D       		.uleb128 0xd
 3348 032c FD0D0000 		.4byte	.LASF55
 3349 0330 09       		.byte	0x9
 3350 0331 76       		.byte	0x76
 3351 0332 44030000 		.4byte	0x344
 3352 0336 00       		.byte	0
ARM GAS  C:\Users\PCHAUT~1\AppData\Local\Temp\ccIm8FNl.s 			page 61


 3353 0337 0D       		.uleb128 0xd
 3354 0338 91020000 		.4byte	.LASF56
 3355 033c 09       		.byte	0x9
 3356 033d 77       		.byte	0x77
 3357 033e 25000000 		.4byte	0x25
 3358 0342 04       		.byte	0x4
 3359 0343 00       		.byte	0
 3360 0344 05       		.uleb128 0x5
 3361 0345 04       		.byte	0x4
 3362 0346 69000000 		.4byte	0x69
 3363 034a 10       		.uleb128 0x10
 3364 034b 7A060000 		.4byte	.LASF57
 3365 034f 68       		.byte	0x68
 3366 0350 09       		.byte	0x9
 3367 0351 B5       		.byte	0xb5
 3368 0352 74040000 		.4byte	0x474
 3369 0356 11       		.uleb128 0x11
 3370 0357 5F7000   		.ascii	"_p\000"
 3371 035a 09       		.byte	0x9
 3372 035b B6       		.byte	0xb6
 3373 035c 44030000 		.4byte	0x344
 3374 0360 00       		.byte	0
 3375 0361 11       		.uleb128 0x11
 3376 0362 5F7200   		.ascii	"_r\000"
 3377 0365 09       		.byte	0x9
 3378 0366 B7       		.byte	0xb7
 3379 0367 25000000 		.4byte	0x25
 3380 036b 04       		.byte	0x4
 3381 036c 11       		.uleb128 0x11
 3382 036d 5F7700   		.ascii	"_w\000"
 3383 0370 09       		.byte	0x9
 3384 0371 B8       		.byte	0xb8
 3385 0372 25000000 		.4byte	0x25
 3386 0376 08       		.byte	0x8
 3387 0377 0D       		.uleb128 0xd
 3388 0378 410C0000 		.4byte	.LASF58
 3389 037c 09       		.byte	0x9
 3390 037d B9       		.byte	0xb9
 3391 037e 7B000000 		.4byte	0x7b
 3392 0382 0C       		.byte	0xc
 3393 0383 0D       		.uleb128 0xd
 3394 0384 05020000 		.4byte	.LASF59
 3395 0388 09       		.byte	0x9
 3396 0389 BA       		.byte	0xba
 3397 038a 7B000000 		.4byte	0x7b
 3398 038e 0E       		.byte	0xe
 3399 038f 11       		.uleb128 0x11
 3400 0390 5F626600 		.ascii	"_bf\000"
 3401 0394 09       		.byte	0x9
 3402 0395 BB       		.byte	0xbb
 3403 0396 1F030000 		.4byte	0x31f
 3404 039a 10       		.byte	0x10
 3405 039b 0D       		.uleb128 0xd
 3406 039c F00F0000 		.4byte	.LASF60
 3407 03a0 09       		.byte	0x9
 3408 03a1 BC       		.byte	0xbc
 3409 03a2 25000000 		.4byte	0x25
ARM GAS  C:\Users\PCHAUT~1\AppData\Local\Temp\ccIm8FNl.s 			page 62


 3410 03a6 18       		.byte	0x18
 3411 03a7 0D       		.uleb128 0xd
 3412 03a8 3F050000 		.4byte	.LASF61
 3413 03ac 09       		.byte	0x9
 3414 03ad C3       		.byte	0xc3
 3415 03ae 73010000 		.4byte	0x173
 3416 03b2 1C       		.byte	0x1c
 3417 03b3 0D       		.uleb128 0xd
 3418 03b4 60000000 		.4byte	.LASF62
 3419 03b8 09       		.byte	0x9
 3420 03b9 C5       		.byte	0xc5
 3421 03ba CF050000 		.4byte	0x5cf
 3422 03be 20       		.byte	0x20
 3423 03bf 0D       		.uleb128 0xd
 3424 03c0 82000000 		.4byte	.LASF63
 3425 03c4 09       		.byte	0x9
 3426 03c5 C7       		.byte	0xc7
 3427 03c6 FE050000 		.4byte	0x5fe
 3428 03ca 24       		.byte	0x24
 3429 03cb 0D       		.uleb128 0xd
 3430 03cc E30C0000 		.4byte	.LASF64
 3431 03d0 09       		.byte	0x9
 3432 03d1 CA       		.byte	0xca
 3433 03d2 22060000 		.4byte	0x622
 3434 03d6 28       		.byte	0x28
 3435 03d7 0D       		.uleb128 0xd
 3436 03d8 49040000 		.4byte	.LASF65
 3437 03dc 09       		.byte	0x9
 3438 03dd CB       		.byte	0xcb
 3439 03de 3C060000 		.4byte	0x63c
 3440 03e2 2C       		.byte	0x2c
 3441 03e3 11       		.uleb128 0x11
 3442 03e4 5F756200 		.ascii	"_ub\000"
 3443 03e8 09       		.byte	0x9
 3444 03e9 CE       		.byte	0xce
 3445 03ea 1F030000 		.4byte	0x31f
 3446 03ee 30       		.byte	0x30
 3447 03ef 11       		.uleb128 0x11
 3448 03f0 5F757000 		.ascii	"_up\000"
 3449 03f4 09       		.byte	0x9
 3450 03f5 CF       		.byte	0xcf
 3451 03f6 44030000 		.4byte	0x344
 3452 03fa 38       		.byte	0x38
 3453 03fb 11       		.uleb128 0x11
 3454 03fc 5F757200 		.ascii	"_ur\000"
 3455 0400 09       		.byte	0x9
 3456 0401 D0       		.byte	0xd0
 3457 0402 25000000 		.4byte	0x25
 3458 0406 3C       		.byte	0x3c
 3459 0407 0D       		.uleb128 0xd
 3460 0408 E90B0000 		.4byte	.LASF66
 3461 040c 09       		.byte	0x9
 3462 040d D3       		.byte	0xd3
 3463 040e 42060000 		.4byte	0x642
 3464 0412 40       		.byte	0x40
 3465 0413 0D       		.uleb128 0xd
 3466 0414 2D010000 		.4byte	.LASF67
ARM GAS  C:\Users\PCHAUT~1\AppData\Local\Temp\ccIm8FNl.s 			page 63


 3467 0418 09       		.byte	0x9
 3468 0419 D4       		.byte	0xd4
 3469 041a 52060000 		.4byte	0x652
 3470 041e 43       		.byte	0x43
 3471 041f 11       		.uleb128 0x11
 3472 0420 5F6C6200 		.ascii	"_lb\000"
 3473 0424 09       		.byte	0x9
 3474 0425 D7       		.byte	0xd7
 3475 0426 1F030000 		.4byte	0x31f
 3476 042a 44       		.byte	0x44
 3477 042b 0D       		.uleb128 0xd
 3478 042c DE0D0000 		.4byte	.LASF68
 3479 0430 09       		.byte	0x9
 3480 0431 DA       		.byte	0xda
 3481 0432 25000000 		.4byte	0x25
 3482 0436 4C       		.byte	0x4c
 3483 0437 0D       		.uleb128 0xd
 3484 0438 B3050000 		.4byte	.LASF69
 3485 043c 09       		.byte	0x9
 3486 043d DB       		.byte	0xdb
 3487 043e EB000000 		.4byte	0xeb
 3488 0442 50       		.byte	0x50
 3489 0443 0D       		.uleb128 0xd
 3490 0444 9B0E0000 		.4byte	.LASF70
 3491 0448 09       		.byte	0x9
 3492 0449 DE       		.byte	0xde
 3493 044a 92040000 		.4byte	0x492
 3494 044e 54       		.byte	0x54
 3495 044f 0D       		.uleb128 0xd
 3496 0450 67010000 		.4byte	.LASF71
 3497 0454 09       		.byte	0x9
 3498 0455 E2       		.byte	0xe2
 3499 0456 68010000 		.4byte	0x168
 3500 045a 58       		.byte	0x58
 3501 045b 0D       		.uleb128 0xd
 3502 045c 0F0C0000 		.4byte	.LASF72
 3503 0460 09       		.byte	0x9
 3504 0461 E4       		.byte	0xe4
 3505 0462 5D010000 		.4byte	0x15d
 3506 0466 5C       		.byte	0x5c
 3507 0467 0D       		.uleb128 0xd
 3508 0468 8D060000 		.4byte	.LASF73
 3509 046c 09       		.byte	0x9
 3510 046d E5       		.byte	0xe5
 3511 046e 25000000 		.4byte	0x25
 3512 0472 64       		.byte	0x64
 3513 0473 00       		.byte	0
 3514 0474 15       		.uleb128 0x15
 3515 0475 25000000 		.4byte	0x25
 3516 0479 92040000 		.4byte	0x492
 3517 047d 16       		.uleb128 0x16
 3518 047e 92040000 		.4byte	0x492
 3519 0482 16       		.uleb128 0x16
 3520 0483 73010000 		.4byte	0x173
 3521 0487 16       		.uleb128 0x16
 3522 0488 75010000 		.4byte	0x175
 3523 048c 16       		.uleb128 0x16
ARM GAS  C:\Users\PCHAUT~1\AppData\Local\Temp\ccIm8FNl.s 			page 64


 3524 048d 25000000 		.4byte	0x25
 3525 0491 00       		.byte	0
 3526 0492 05       		.uleb128 0x5
 3527 0493 04       		.byte	0x4
 3528 0494 9D040000 		.4byte	0x49d
 3529 0498 0F       		.uleb128 0xf
 3530 0499 92040000 		.4byte	0x492
 3531 049d 17       		.uleb128 0x17
 3532 049e CA030000 		.4byte	.LASF74
 3533 04a2 2804     		.2byte	0x428
 3534 04a4 09       		.byte	0x9
 3535 04a5 3902     		.2byte	0x239
 3536 04a7 CF050000 		.4byte	0x5cf
 3537 04ab 18       		.uleb128 0x18
 3538 04ac F1060000 		.4byte	.LASF75
 3539 04b0 09       		.byte	0x9
 3540 04b1 3B02     		.2byte	0x23b
 3541 04b3 25000000 		.4byte	0x25
 3542 04b7 00       		.byte	0
 3543 04b8 18       		.uleb128 0x18
 3544 04b9 95040000 		.4byte	.LASF76
 3545 04bd 09       		.byte	0x9
 3546 04be 4002     		.2byte	0x240
 3547 04c0 A9060000 		.4byte	0x6a9
 3548 04c4 04       		.byte	0x4
 3549 04c5 18       		.uleb128 0x18
 3550 04c6 CC0D0000 		.4byte	.LASF77
 3551 04ca 09       		.byte	0x9
 3552 04cb 4002     		.2byte	0x240
 3553 04cd A9060000 		.4byte	0x6a9
 3554 04d1 08       		.byte	0x8
 3555 04d2 18       		.uleb128 0x18
 3556 04d3 EF0B0000 		.4byte	.LASF78
 3557 04d7 09       		.byte	0x9
 3558 04d8 4002     		.2byte	0x240
 3559 04da A9060000 		.4byte	0x6a9
 3560 04de 0C       		.byte	0xc
 3561 04df 18       		.uleb128 0x18
 3562 04e0 00100000 		.4byte	.LASF79
 3563 04e4 09       		.byte	0x9
 3564 04e5 4202     		.2byte	0x242
 3565 04e7 25000000 		.4byte	0x25
 3566 04eb 10       		.byte	0x10
 3567 04ec 18       		.uleb128 0x18
 3568 04ed DC070000 		.4byte	.LASF80
 3569 04f1 09       		.byte	0x9
 3570 04f2 4302     		.2byte	0x243
 3571 04f4 8B080000 		.4byte	0x88b
 3572 04f8 14       		.byte	0x14
 3573 04f9 18       		.uleb128 0x18
 3574 04fa 9F030000 		.4byte	.LASF81
 3575 04fe 09       		.byte	0x9
 3576 04ff 4602     		.2byte	0x246
 3577 0501 25000000 		.4byte	0x25
 3578 0505 30       		.byte	0x30
 3579 0506 18       		.uleb128 0x18
 3580 0507 B1100000 		.4byte	.LASF82
ARM GAS  C:\Users\PCHAUT~1\AppData\Local\Temp\ccIm8FNl.s 			page 65


 3581 050b 09       		.byte	0x9
 3582 050c 4702     		.2byte	0x247
 3583 050e A0080000 		.4byte	0x8a0
 3584 0512 34       		.byte	0x34
 3585 0513 18       		.uleb128 0x18
 3586 0514 82060000 		.4byte	.LASF83
 3587 0518 09       		.byte	0x9
 3588 0519 4902     		.2byte	0x249
 3589 051b 25000000 		.4byte	0x25
 3590 051f 38       		.byte	0x38
 3591 0520 18       		.uleb128 0x18
 3592 0521 96070000 		.4byte	.LASF84
 3593 0525 09       		.byte	0x9
 3594 0526 4B02     		.2byte	0x24b
 3595 0528 B1080000 		.4byte	0x8b1
 3596 052c 3C       		.byte	0x3c
 3597 052d 18       		.uleb128 0x18
 3598 052e CA100000 		.4byte	.LASF85
 3599 0532 09       		.byte	0x9
 3600 0533 4E02     		.2byte	0x24e
 3601 0535 E5010000 		.4byte	0x1e5
 3602 0539 40       		.byte	0x40
 3603 053a 18       		.uleb128 0x18
 3604 053b 7A020000 		.4byte	.LASF86
 3605 053f 09       		.byte	0x9
 3606 0540 4F02     		.2byte	0x24f
 3607 0542 25000000 		.4byte	0x25
 3608 0546 44       		.byte	0x44
 3609 0547 18       		.uleb128 0x18
 3610 0548 51060000 		.4byte	.LASF87
 3611 054c 09       		.byte	0x9
 3612 054d 5002     		.2byte	0x250
 3613 054f E5010000 		.4byte	0x1e5
 3614 0553 48       		.byte	0x48
 3615 0554 18       		.uleb128 0x18
 3616 0555 5A0A0000 		.4byte	.LASF88
 3617 0559 09       		.byte	0x9
 3618 055a 5102     		.2byte	0x251
 3619 055c B7080000 		.4byte	0x8b7
 3620 0560 4C       		.byte	0x4c
 3621 0561 18       		.uleb128 0x18
 3622 0562 BC000000 		.4byte	.LASF89
 3623 0566 09       		.byte	0x9
 3624 0567 5402     		.2byte	0x254
 3625 0569 25000000 		.4byte	0x25
 3626 056d 50       		.byte	0x50
 3627 056e 18       		.uleb128 0x18
 3628 056f BB050000 		.4byte	.LASF90
 3629 0573 09       		.byte	0x9
 3630 0574 5502     		.2byte	0x255
 3631 0576 75010000 		.4byte	0x175
 3632 057a 54       		.byte	0x54
 3633 057b 18       		.uleb128 0x18
 3634 057c D70B0000 		.4byte	.LASF91
 3635 0580 09       		.byte	0x9
 3636 0581 7802     		.2byte	0x278
 3637 0583 69080000 		.4byte	0x869
ARM GAS  C:\Users\PCHAUT~1\AppData\Local\Temp\ccIm8FNl.s 			page 66


 3638 0587 58       		.byte	0x58
 3639 0588 19       		.uleb128 0x19
 3640 0589 5E0C0000 		.4byte	.LASF51
 3641 058d 09       		.byte	0x9
 3642 058e 7C02     		.2byte	0x27c
 3643 0590 02030000 		.4byte	0x302
 3644 0594 4801     		.2byte	0x148
 3645 0596 19       		.uleb128 0x19
 3646 0597 A0070000 		.4byte	.LASF92
 3647 059b 09       		.byte	0x9
 3648 059c 7D02     		.2byte	0x27d
 3649 059e C4020000 		.4byte	0x2c4
 3650 05a2 4C01     		.2byte	0x14c
 3651 05a4 19       		.uleb128 0x19
 3652 05a5 A9050000 		.4byte	.LASF93
 3653 05a9 09       		.byte	0x9
 3654 05aa 8102     		.2byte	0x281
 3655 05ac C8080000 		.4byte	0x8c8
 3656 05b0 DC02     		.2byte	0x2dc
 3657 05b2 19       		.uleb128 0x19
 3658 05b3 79080000 		.4byte	.LASF94
 3659 05b7 09       		.byte	0x9
 3660 05b8 8602     		.2byte	0x286
 3661 05ba 6E060000 		.4byte	0x66e
 3662 05be E002     		.2byte	0x2e0
 3663 05c0 19       		.uleb128 0x19
 3664 05c1 47000000 		.4byte	.LASF95
 3665 05c5 09       		.byte	0x9
 3666 05c6 8802     		.2byte	0x288
 3667 05c8 D4080000 		.4byte	0x8d4
 3668 05cc EC02     		.2byte	0x2ec
 3669 05ce 00       		.byte	0
 3670 05cf 05       		.uleb128 0x5
 3671 05d0 04       		.byte	0x4
 3672 05d1 74040000 		.4byte	0x474
 3673 05d5 15       		.uleb128 0x15
 3674 05d6 25000000 		.4byte	0x25
 3675 05da F3050000 		.4byte	0x5f3
 3676 05de 16       		.uleb128 0x16
 3677 05df 92040000 		.4byte	0x492
 3678 05e3 16       		.uleb128 0x16
 3679 05e4 73010000 		.4byte	0x173
 3680 05e8 16       		.uleb128 0x16
 3681 05e9 F3050000 		.4byte	0x5f3
 3682 05ed 16       		.uleb128 0x16
 3683 05ee 25000000 		.4byte	0x25
 3684 05f2 00       		.byte	0
 3685 05f3 05       		.uleb128 0x5
 3686 05f4 04       		.byte	0x4
 3687 05f5 82010000 		.4byte	0x182
 3688 05f9 1A       		.uleb128 0x1a
 3689 05fa F3050000 		.4byte	0x5f3
 3690 05fe 05       		.uleb128 0x5
 3691 05ff 04       		.byte	0x4
 3692 0600 D5050000 		.4byte	0x5d5
 3693 0604 15       		.uleb128 0x15
 3694 0605 F6000000 		.4byte	0xf6
ARM GAS  C:\Users\PCHAUT~1\AppData\Local\Temp\ccIm8FNl.s 			page 67


 3695 0609 22060000 		.4byte	0x622
 3696 060d 16       		.uleb128 0x16
 3697 060e 92040000 		.4byte	0x492
 3698 0612 16       		.uleb128 0x16
 3699 0613 73010000 		.4byte	0x173
 3700 0617 16       		.uleb128 0x16
 3701 0618 F6000000 		.4byte	0xf6
 3702 061c 16       		.uleb128 0x16
 3703 061d 25000000 		.4byte	0x25
 3704 0621 00       		.byte	0
 3705 0622 05       		.uleb128 0x5
 3706 0623 04       		.byte	0x4
 3707 0624 04060000 		.4byte	0x604
 3708 0628 15       		.uleb128 0x15
 3709 0629 25000000 		.4byte	0x25
 3710 062d 3C060000 		.4byte	0x63c
 3711 0631 16       		.uleb128 0x16
 3712 0632 92040000 		.4byte	0x492
 3713 0636 16       		.uleb128 0x16
 3714 0637 73010000 		.4byte	0x173
 3715 063b 00       		.byte	0
 3716 063c 05       		.uleb128 0x5
 3717 063d 04       		.byte	0x4
 3718 063e 28060000 		.4byte	0x628
 3719 0642 0A       		.uleb128 0xa
 3720 0643 69000000 		.4byte	0x69
 3721 0647 52060000 		.4byte	0x652
 3722 064b 0B       		.uleb128 0xb
 3723 064c 37000000 		.4byte	0x37
 3724 0650 02       		.byte	0x2
 3725 0651 00       		.byte	0
 3726 0652 0A       		.uleb128 0xa
 3727 0653 69000000 		.4byte	0x69
 3728 0657 62060000 		.4byte	0x662
 3729 065b 0B       		.uleb128 0xb
 3730 065c 37000000 		.4byte	0x37
 3731 0660 00       		.byte	0
 3732 0661 00       		.byte	0
 3733 0662 07       		.uleb128 0x7
 3734 0663 420E0000 		.4byte	.LASF96
 3735 0667 09       		.byte	0x9
 3736 0668 1F01     		.2byte	0x11f
 3737 066a 4A030000 		.4byte	0x34a
 3738 066e 1B       		.uleb128 0x1b
 3739 066f 710A0000 		.4byte	.LASF97
 3740 0673 0C       		.byte	0xc
 3741 0674 09       		.byte	0x9
 3742 0675 2301     		.2byte	0x123
 3743 0677 A3060000 		.4byte	0x6a3
 3744 067b 18       		.uleb128 0x18
 3745 067c 950E0000 		.4byte	.LASF31
 3746 0680 09       		.byte	0x9
 3747 0681 2501     		.2byte	0x125
 3748 0683 A3060000 		.4byte	0x6a3
 3749 0687 00       		.byte	0
 3750 0688 18       		.uleb128 0x18
 3751 0689 60080000 		.4byte	.LASF98
ARM GAS  C:\Users\PCHAUT~1\AppData\Local\Temp\ccIm8FNl.s 			page 68


 3752 068d 09       		.byte	0x9
 3753 068e 2601     		.2byte	0x126
 3754 0690 25000000 		.4byte	0x25
 3755 0694 04       		.byte	0x4
 3756 0695 18       		.uleb128 0x18
 3757 0696 6B0A0000 		.4byte	.LASF99
 3758 069a 09       		.byte	0x9
 3759 069b 2701     		.2byte	0x127
 3760 069d A9060000 		.4byte	0x6a9
 3761 06a1 08       		.byte	0x8
 3762 06a2 00       		.byte	0
 3763 06a3 05       		.uleb128 0x5
 3764 06a4 04       		.byte	0x4
 3765 06a5 6E060000 		.4byte	0x66e
 3766 06a9 05       		.uleb128 0x5
 3767 06aa 04       		.byte	0x4
 3768 06ab 62060000 		.4byte	0x662
 3769 06af 1B       		.uleb128 0x1b
 3770 06b0 B70D0000 		.4byte	.LASF100
 3771 06b4 0E       		.byte	0xe
 3772 06b5 09       		.byte	0x9
 3773 06b6 3F01     		.2byte	0x13f
 3774 06b8 E4060000 		.4byte	0x6e4
 3775 06bc 18       		.uleb128 0x18
 3776 06bd DD0C0000 		.4byte	.LASF101
 3777 06c1 09       		.byte	0x9
 3778 06c2 4001     		.2byte	0x140
 3779 06c4 E4060000 		.4byte	0x6e4
 3780 06c8 00       		.byte	0
 3781 06c9 18       		.uleb128 0x18
 3782 06ca 86010000 		.4byte	.LASF102
 3783 06ce 09       		.byte	0x9
 3784 06cf 4101     		.2byte	0x141
 3785 06d1 E4060000 		.4byte	0x6e4
 3786 06d5 06       		.byte	0x6
 3787 06d6 18       		.uleb128 0x18
 3788 06d7 F9100000 		.4byte	.LASF103
 3789 06db 09       		.byte	0x9
 3790 06dc 4201     		.2byte	0x142
 3791 06de 8D000000 		.4byte	0x8d
 3792 06e2 0C       		.byte	0xc
 3793 06e3 00       		.byte	0
 3794 06e4 0A       		.uleb128 0xa
 3795 06e5 8D000000 		.4byte	0x8d
 3796 06e9 F4060000 		.4byte	0x6f4
 3797 06ed 0B       		.uleb128 0xb
 3798 06ee 37000000 		.4byte	0x37
 3799 06f2 02       		.byte	0x2
 3800 06f3 00       		.byte	0
 3801 06f4 1C       		.uleb128 0x1c
 3802 06f5 D0       		.byte	0xd0
 3803 06f6 09       		.byte	0x9
 3804 06f7 5902     		.2byte	0x259
 3805 06f9 F5070000 		.4byte	0x7f5
 3806 06fd 18       		.uleb128 0x18
 3807 06fe 0E030000 		.4byte	.LASF104
 3808 0702 09       		.byte	0x9
ARM GAS  C:\Users\PCHAUT~1\AppData\Local\Temp\ccIm8FNl.s 			page 69


 3809 0703 5B02     		.2byte	0x25b
 3810 0705 37000000 		.4byte	0x37
 3811 0709 00       		.byte	0
 3812 070a 18       		.uleb128 0x18
 3813 070b 030E0000 		.4byte	.LASF105
 3814 070f 09       		.byte	0x9
 3815 0710 5C02     		.2byte	0x25c
 3816 0712 75010000 		.4byte	0x175
 3817 0716 04       		.byte	0x4
 3818 0717 18       		.uleb128 0x18
 3819 0718 AF000000 		.4byte	.LASF106
 3820 071c 09       		.byte	0x9
 3821 071d 5D02     		.2byte	0x25d
 3822 071f F5070000 		.4byte	0x7f5
 3823 0723 08       		.byte	0x8
 3824 0724 18       		.uleb128 0x18
 3825 0725 9E020000 		.4byte	.LASF107
 3826 0729 09       		.byte	0x9
 3827 072a 5E02     		.2byte	0x25e
 3828 072c FB010000 		.4byte	0x1fb
 3829 0730 24       		.byte	0x24
 3830 0731 18       		.uleb128 0x18
 3831 0732 B4080000 		.4byte	.LASF108
 3832 0736 09       		.byte	0x9
 3833 0737 5F02     		.2byte	0x25f
 3834 0739 25000000 		.4byte	0x25
 3835 073d 48       		.byte	0x48
 3836 073e 18       		.uleb128 0x18
 3837 073f 2E0C0000 		.4byte	.LASF109
 3838 0743 09       		.byte	0x9
 3839 0744 6002     		.2byte	0x260
 3840 0746 CE000000 		.4byte	0xce
 3841 074a 50       		.byte	0x50
 3842 074b 18       		.uleb128 0x18
 3843 074c 890E0000 		.4byte	.LASF110
 3844 0750 09       		.byte	0x9
 3845 0751 6102     		.2byte	0x261
 3846 0753 AF060000 		.4byte	0x6af
 3847 0757 58       		.byte	0x58
 3848 0758 18       		.uleb128 0x18
 3849 0759 FC0E0000 		.4byte	.LASF111
 3850 075d 09       		.byte	0x9
 3851 075e 6202     		.2byte	0x262
 3852 0760 5D010000 		.4byte	0x15d
 3853 0764 68       		.byte	0x68
 3854 0765 18       		.uleb128 0x18
 3855 0766 330D0000 		.4byte	.LASF112
 3856 076a 09       		.byte	0x9
 3857 076b 6302     		.2byte	0x263
 3858 076d 5D010000 		.4byte	0x15d
 3859 0771 70       		.byte	0x70
 3860 0772 18       		.uleb128 0x18
 3861 0773 F70B0000 		.4byte	.LASF113
 3862 0777 09       		.byte	0x9
 3863 0778 6402     		.2byte	0x264
 3864 077a 5D010000 		.4byte	0x15d
 3865 077e 78       		.byte	0x78
ARM GAS  C:\Users\PCHAUT~1\AppData\Local\Temp\ccIm8FNl.s 			page 70


 3866 077f 18       		.uleb128 0x18
 3867 0780 49010000 		.4byte	.LASF114
 3868 0784 09       		.byte	0x9
 3869 0785 6502     		.2byte	0x265
 3870 0787 05080000 		.4byte	0x805
 3871 078b 80       		.byte	0x80
 3872 078c 18       		.uleb128 0x18
 3873 078d 24070000 		.4byte	.LASF115
 3874 0791 09       		.byte	0x9
 3875 0792 6602     		.2byte	0x266
 3876 0794 15080000 		.4byte	0x815
 3877 0798 88       		.byte	0x88
 3878 0799 18       		.uleb128 0x18
 3879 079a E1110000 		.4byte	.LASF116
 3880 079e 09       		.byte	0x9
 3881 079f 6702     		.2byte	0x267
 3882 07a1 25000000 		.4byte	0x25
 3883 07a5 A0       		.byte	0xa0
 3884 07a6 18       		.uleb128 0x18
 3885 07a7 44020000 		.4byte	.LASF117
 3886 07ab 09       		.byte	0x9
 3887 07ac 6802     		.2byte	0x268
 3888 07ae 5D010000 		.4byte	0x15d
 3889 07b2 A4       		.byte	0xa4
 3890 07b3 18       		.uleb128 0x18
 3891 07b4 100E0000 		.4byte	.LASF118
 3892 07b8 09       		.byte	0x9
 3893 07b9 6902     		.2byte	0x269
 3894 07bb 5D010000 		.4byte	0x15d
 3895 07bf AC       		.byte	0xac
 3896 07c0 18       		.uleb128 0x18
 3897 07c1 39110000 		.4byte	.LASF119
 3898 07c5 09       		.byte	0x9
 3899 07c6 6A02     		.2byte	0x26a
 3900 07c8 5D010000 		.4byte	0x15d
 3901 07cc B4       		.byte	0xb4
 3902 07cd 18       		.uleb128 0x18
 3903 07ce AF0B0000 		.4byte	.LASF120
 3904 07d2 09       		.byte	0x9
 3905 07d3 6B02     		.2byte	0x26b
 3906 07d5 5D010000 		.4byte	0x15d
 3907 07d9 BC       		.byte	0xbc
 3908 07da 18       		.uleb128 0x18
 3909 07db 1C010000 		.4byte	.LASF121
 3910 07df 09       		.byte	0x9
 3911 07e0 6C02     		.2byte	0x26c
 3912 07e2 5D010000 		.4byte	0x15d
 3913 07e6 C4       		.byte	0xc4
 3914 07e7 18       		.uleb128 0x18
 3915 07e8 50040000 		.4byte	.LASF122
 3916 07ec 09       		.byte	0x9
 3917 07ed 6D02     		.2byte	0x26d
 3918 07ef 25000000 		.4byte	0x25
 3919 07f3 CC       		.byte	0xcc
 3920 07f4 00       		.byte	0
 3921 07f5 0A       		.uleb128 0xa
 3922 07f6 7B010000 		.4byte	0x17b
ARM GAS  C:\Users\PCHAUT~1\AppData\Local\Temp\ccIm8FNl.s 			page 71


 3923 07fa 05080000 		.4byte	0x805
 3924 07fe 0B       		.uleb128 0xb
 3925 07ff 37000000 		.4byte	0x37
 3926 0803 19       		.byte	0x19
 3927 0804 00       		.byte	0
 3928 0805 0A       		.uleb128 0xa
 3929 0806 7B010000 		.4byte	0x17b
 3930 080a 15080000 		.4byte	0x815
 3931 080e 0B       		.uleb128 0xb
 3932 080f 37000000 		.4byte	0x37
 3933 0813 07       		.byte	0x7
 3934 0814 00       		.byte	0
 3935 0815 0A       		.uleb128 0xa
 3936 0816 7B010000 		.4byte	0x17b
 3937 081a 25080000 		.4byte	0x825
 3938 081e 0B       		.uleb128 0xb
 3939 081f 37000000 		.4byte	0x37
 3940 0823 17       		.byte	0x17
 3941 0824 00       		.byte	0
 3942 0825 1C       		.uleb128 0x1c
 3943 0826 F0       		.byte	0xf0
 3944 0827 09       		.byte	0x9
 3945 0828 7202     		.2byte	0x272
 3946 082a 49080000 		.4byte	0x849
 3947 082e 18       		.uleb128 0x18
 3948 082f 76100000 		.4byte	.LASF123
 3949 0833 09       		.byte	0x9
 3950 0834 7502     		.2byte	0x275
 3951 0836 49080000 		.4byte	0x849
 3952 083a 00       		.byte	0
 3953 083b 18       		.uleb128 0x18
 3954 083c 81080000 		.4byte	.LASF124
 3955 0840 09       		.byte	0x9
 3956 0841 7602     		.2byte	0x276
 3957 0843 59080000 		.4byte	0x859
 3958 0847 78       		.byte	0x78
 3959 0848 00       		.byte	0
 3960 0849 0A       		.uleb128 0xa
 3961 084a 44030000 		.4byte	0x344
 3962 084e 59080000 		.4byte	0x859
 3963 0852 0B       		.uleb128 0xb
 3964 0853 37000000 		.4byte	0x37
 3965 0857 1D       		.byte	0x1d
 3966 0858 00       		.byte	0
 3967 0859 0A       		.uleb128 0xa
 3968 085a 37000000 		.4byte	0x37
 3969 085e 69080000 		.4byte	0x869
 3970 0862 0B       		.uleb128 0xb
 3971 0863 37000000 		.4byte	0x37
 3972 0867 1D       		.byte	0x1d
 3973 0868 00       		.byte	0
 3974 0869 1D       		.uleb128 0x1d
 3975 086a F0       		.byte	0xf0
 3976 086b 09       		.byte	0x9
 3977 086c 5702     		.2byte	0x257
 3978 086e 8B080000 		.4byte	0x88b
 3979 0872 1E       		.uleb128 0x1e
ARM GAS  C:\Users\PCHAUT~1\AppData\Local\Temp\ccIm8FNl.s 			page 72


 3980 0873 CA030000 		.4byte	.LASF74
 3981 0877 09       		.byte	0x9
 3982 0878 6E02     		.2byte	0x26e
 3983 087a F4060000 		.4byte	0x6f4
 3984 087e 1E       		.uleb128 0x1e
 3985 087f 0F010000 		.4byte	.LASF125
 3986 0883 09       		.byte	0x9
 3987 0884 7702     		.2byte	0x277
 3988 0886 25080000 		.4byte	0x825
 3989 088a 00       		.byte	0
 3990 088b 0A       		.uleb128 0xa
 3991 088c 7B010000 		.4byte	0x17b
 3992 0890 9B080000 		.4byte	0x89b
 3993 0894 0B       		.uleb128 0xb
 3994 0895 37000000 		.4byte	0x37
 3995 0899 18       		.byte	0x18
 3996 089a 00       		.byte	0
 3997 089b 06       		.uleb128 0x6
 3998 089c 16000000 		.4byte	.LASF127
 3999 08a0 05       		.uleb128 0x5
 4000 08a1 04       		.byte	0x4
 4001 08a2 9B080000 		.4byte	0x89b
 4002 08a6 1F       		.uleb128 0x1f
 4003 08a7 B1080000 		.4byte	0x8b1
 4004 08ab 16       		.uleb128 0x16
 4005 08ac 92040000 		.4byte	0x492
 4006 08b0 00       		.byte	0
 4007 08b1 05       		.uleb128 0x5
 4008 08b2 04       		.byte	0x4
 4009 08b3 A6080000 		.4byte	0x8a6
 4010 08b7 05       		.uleb128 0x5
 4011 08b8 04       		.byte	0x4
 4012 08b9 E5010000 		.4byte	0x1e5
 4013 08bd 1F       		.uleb128 0x1f
 4014 08be C8080000 		.4byte	0x8c8
 4015 08c2 16       		.uleb128 0x16
 4016 08c3 25000000 		.4byte	0x25
 4017 08c7 00       		.byte	0
 4018 08c8 05       		.uleb128 0x5
 4019 08c9 04       		.byte	0x4
 4020 08ca CE080000 		.4byte	0x8ce
 4021 08ce 05       		.uleb128 0x5
 4022 08cf 04       		.byte	0x4
 4023 08d0 BD080000 		.4byte	0x8bd
 4024 08d4 0A       		.uleb128 0xa
 4025 08d5 62060000 		.4byte	0x662
 4026 08d9 E4080000 		.4byte	0x8e4
 4027 08dd 0B       		.uleb128 0xb
 4028 08de 37000000 		.4byte	0x37
 4029 08e2 02       		.byte	0x2
 4030 08e3 00       		.byte	0
 4031 08e4 20       		.uleb128 0x20
 4032 08e5 6E020000 		.4byte	.LASF128
 4033 08e9 09       		.byte	0x9
 4034 08ea 0703     		.2byte	0x307
 4035 08ec 92040000 		.4byte	0x492
 4036 08f0 20       		.uleb128 0x20
ARM GAS  C:\Users\PCHAUT~1\AppData\Local\Temp\ccIm8FNl.s 			page 73


 4037 08f1 D9030000 		.4byte	.LASF129
 4038 08f5 09       		.byte	0x9
 4039 08f6 0803     		.2byte	0x308
 4040 08f8 98040000 		.4byte	0x498
 4041 08fc 05       		.uleb128 0x5
 4042 08fd 04       		.byte	0x4
 4043 08fe 02090000 		.4byte	0x902
 4044 0902 21       		.uleb128 0x21
 4045 0903 22       		.uleb128 0x22
 4046 0904 550F0000 		.4byte	.LASF130
 4047 0908 0A       		.byte	0xa
 4048 0909 63       		.byte	0x63
 4049 090a 75010000 		.4byte	0x175
 4050 090e 03       		.uleb128 0x3
 4051 090f 00000000 		.4byte	.LASF131
 4052 0913 0B       		.byte	0xb
 4053 0914 14       		.byte	0x14
 4054 0915 4C000000 		.4byte	0x4c
 4055 0919 03       		.uleb128 0x3
 4056 091a 4A030000 		.4byte	.LASF132
 4057 091e 0B       		.byte	0xb
 4058 091f 18       		.byte	0x18
 4059 0920 5E000000 		.4byte	0x5e
 4060 0924 03       		.uleb128 0x3
 4061 0925 4D0F0000 		.4byte	.LASF133
 4062 0929 0B       		.byte	0xb
 4063 092a 20       		.byte	0x20
 4064 092b 70000000 		.4byte	0x70
 4065 092f 03       		.uleb128 0x3
 4066 0930 8B0D0000 		.4byte	.LASF134
 4067 0934 0B       		.byte	0xb
 4068 0935 24       		.byte	0x24
 4069 0936 82000000 		.4byte	0x82
 4070 093a 03       		.uleb128 0x3
 4071 093b 8F000000 		.4byte	.LASF135
 4072 093f 0B       		.byte	0xb
 4073 0940 2C       		.byte	0x2c
 4074 0941 94000000 		.4byte	0x94
 4075 0945 1A       		.uleb128 0x1a
 4076 0946 3A090000 		.4byte	0x93a
 4077 094a 03       		.uleb128 0x3
 4078 094b C1100000 		.4byte	.LASF136
 4079 094f 0B       		.byte	0xb
 4080 0950 30       		.byte	0x30
 4081 0951 A6000000 		.4byte	0xa6
 4082 0955 03       		.uleb128 0x3
 4083 0956 6E110000 		.4byte	.LASF137
 4084 095a 0B       		.byte	0xb
 4085 095b 38       		.byte	0x38
 4086 095c B8000000 		.4byte	0xb8
 4087 0960 03       		.uleb128 0x3
 4088 0961 130F0000 		.4byte	.LASF138
 4089 0965 0B       		.byte	0xb
 4090 0966 3C       		.byte	0x3c
 4091 0967 C3000000 		.4byte	0xc3
 4092 096b 03       		.uleb128 0x3
 4093 096c C6070000 		.4byte	.LASF139
ARM GAS  C:\Users\PCHAUT~1\AppData\Local\Temp\ccIm8FNl.s 			page 74


 4094 0970 0C       		.byte	0xc
 4095 0971 06       		.byte	0x6
 4096 0972 76090000 		.4byte	0x976
 4097 0976 05       		.uleb128 0x5
 4098 0977 04       		.byte	0x4
 4099 0978 7C090000 		.4byte	0x97c
 4100 097c 15       		.uleb128 0x15
 4101 097d 95090000 		.4byte	0x995
 4102 0981 95090000 		.4byte	0x995
 4103 0985 16       		.uleb128 0x16
 4104 0986 9C090000 		.4byte	0x99c
 4105 098a 16       		.uleb128 0x16
 4106 098b 73010000 		.4byte	0x173
 4107 098f 16       		.uleb128 0x16
 4108 0990 2C000000 		.4byte	0x2c
 4109 0994 00       		.byte	0
 4110 0995 04       		.uleb128 0x4
 4111 0996 01       		.byte	0x1
 4112 0997 02       		.byte	0x2
 4113 0998 03040000 		.4byte	.LASF140
 4114 099c 05       		.uleb128 0x5
 4115 099d 04       		.byte	0x4
 4116 099e A2090000 		.4byte	0x9a2
 4117 09a2 10       		.uleb128 0x10
 4118 09a3 74070000 		.4byte	.LASF141
 4119 09a7 10       		.byte	0x10
 4120 09a8 0C       		.byte	0xc
 4121 09a9 48       		.byte	0x48
 4122 09aa DF090000 		.4byte	0x9df
 4123 09ae 0D       		.uleb128 0xd
 4124 09af F1020000 		.4byte	.LASF142
 4125 09b3 0C       		.byte	0xc
 4126 09b4 49       		.byte	0x49
 4127 09b5 19090000 		.4byte	0x919
 4128 09b9 00       		.byte	0
 4129 09ba 11       		.uleb128 0x11
 4130 09bb 62756600 		.ascii	"buf\000"
 4131 09bf 0C       		.byte	0xc
 4132 09c0 4A       		.byte	0x4a
 4133 09c1 73010000 		.4byte	0x173
 4134 09c5 04       		.byte	0x4
 4135 09c6 0D       		.uleb128 0xd
 4136 09c7 FD0A0000 		.4byte	.LASF143
 4137 09cb 0C       		.byte	0xc
 4138 09cc 4B       		.byte	0x4b
 4139 09cd 6B090000 		.4byte	0x96b
 4140 09d1 08       		.byte	0x8
 4141 09d2 0D       		.uleb128 0xd
 4142 09d3 56070000 		.4byte	.LASF144
 4143 09d7 0C       		.byte	0xc
 4144 09d8 4C       		.byte	0x4c
 4145 09d9 DF090000 		.4byte	0x9df
 4146 09dd 0C       		.byte	0xc
 4147 09de 00       		.byte	0
 4148 09df 03       		.uleb128 0x3
 4149 09e0 31020000 		.4byte	.LASF145
 4150 09e4 0C       		.byte	0xc
ARM GAS  C:\Users\PCHAUT~1\AppData\Local\Temp\ccIm8FNl.s 			page 75


 4151 09e5 07       		.byte	0x7
 4152 09e6 EA090000 		.4byte	0x9ea
 4153 09ea 05       		.uleb128 0x5
 4154 09eb 04       		.byte	0x4
 4155 09ec F0090000 		.4byte	0x9f0
 4156 09f0 15       		.uleb128 0x15
 4157 09f1 2C000000 		.4byte	0x2c
 4158 09f5 090A0000 		.4byte	0xa09
 4159 09f9 16       		.uleb128 0x16
 4160 09fa 9C090000 		.4byte	0x99c
 4161 09fe 16       		.uleb128 0x16
 4162 09ff FC080000 		.4byte	0x8fc
 4163 0a03 16       		.uleb128 0x16
 4164 0a04 2C000000 		.4byte	0x2c
 4165 0a08 00       		.byte	0
 4166 0a09 23       		.uleb128 0x23
 4167 0a0a 07       		.byte	0x7
 4168 0a0b 01       		.byte	0x1
 4169 0a0c 69000000 		.4byte	0x69
 4170 0a10 0C       		.byte	0xc
 4171 0a11 0A       		.byte	0xa
 4172 0a12 E90A0000 		.4byte	0xae9
 4173 0a16 24       		.uleb128 0x24
 4174 0a17 1B030000 		.4byte	.LASF146
 4175 0a1b 00       		.byte	0
 4176 0a1c 24       		.uleb128 0x24
 4177 0a1d 5C0D0000 		.4byte	.LASF147
 4178 0a21 01       		.byte	0x1
 4179 0a22 24       		.uleb128 0x24
 4180 0a23 88110000 		.4byte	.LASF148
 4181 0a27 02       		.byte	0x2
 4182 0a28 24       		.uleb128 0x24
 4183 0a29 3A0A0000 		.4byte	.LASF149
 4184 0a2d 03       		.byte	0x3
 4185 0a2e 24       		.uleb128 0x24
 4186 0a2f 08050000 		.4byte	.LASF150
 4187 0a33 04       		.byte	0x4
 4188 0a34 24       		.uleb128 0x24
 4189 0a35 890F0000 		.4byte	.LASF151
 4190 0a39 05       		.byte	0x5
 4191 0a3a 24       		.uleb128 0x24
 4192 0a3b C50A0000 		.4byte	.LASF152
 4193 0a3f 06       		.byte	0x6
 4194 0a40 24       		.uleb128 0x24
 4195 0a41 5F100000 		.4byte	.LASF153
 4196 0a45 07       		.byte	0x7
 4197 0a46 24       		.uleb128 0x24
 4198 0a47 4A110000 		.4byte	.LASF154
 4199 0a4b 08       		.byte	0x8
 4200 0a4c 24       		.uleb128 0x24
 4201 0a4d 59040000 		.4byte	.LASF155
 4202 0a51 09       		.byte	0x9
 4203 0a52 24       		.uleb128 0x24
 4204 0a53 C20C0000 		.4byte	.LASF156
 4205 0a57 0A       		.byte	0xa
 4206 0a58 24       		.uleb128 0x24
 4207 0a59 2A040000 		.4byte	.LASF157
ARM GAS  C:\Users\PCHAUT~1\AppData\Local\Temp\ccIm8FNl.s 			page 76


 4208 0a5d 0B       		.byte	0xb
 4209 0a5e 24       		.uleb128 0x24
 4210 0a5f C3080000 		.4byte	.LASF158
 4211 0a63 0C       		.byte	0xc
 4212 0a64 24       		.uleb128 0x24
 4213 0a65 3D0F0000 		.4byte	.LASF159
 4214 0a69 0D       		.byte	0xd
 4215 0a6a 24       		.uleb128 0x24
 4216 0a6b E7070000 		.4byte	.LASF160
 4217 0a6f 0E       		.byte	0xe
 4218 0a70 24       		.uleb128 0x24
 4219 0a71 47050000 		.4byte	.LASF161
 4220 0a75 0F       		.byte	0xf
 4221 0a76 24       		.uleb128 0x24
 4222 0a77 9B060000 		.4byte	.LASF162
 4223 0a7b 10       		.byte	0x10
 4224 0a7c 24       		.uleb128 0x24
 4225 0a7d 4A0A0000 		.4byte	.LASF163
 4226 0a81 11       		.byte	0x11
 4227 0a82 24       		.uleb128 0x24
 4228 0a83 EB050000 		.4byte	.LASF164
 4229 0a87 12       		.byte	0x12
 4230 0a88 24       		.uleb128 0x24
 4231 0a89 EC0E0000 		.4byte	.LASF165
 4232 0a8d 13       		.byte	0x13
 4233 0a8e 24       		.uleb128 0x24
 4234 0a8f 1D100000 		.4byte	.LASF166
 4235 0a93 14       		.byte	0x14
 4236 0a94 24       		.uleb128 0x24
 4237 0a95 A5110000 		.4byte	.LASF167
 4238 0a99 15       		.byte	0x15
 4239 0a9a 24       		.uleb128 0x24
 4240 0a9b 770A0000 		.4byte	.LASF168
 4241 0a9f 16       		.byte	0x16
 4242 0aa0 24       		.uleb128 0x24
 4243 0aa1 D2100000 		.4byte	.LASF169
 4244 0aa5 17       		.byte	0x17
 4245 0aa6 24       		.uleb128 0x24
 4246 0aa7 8E0A0000 		.4byte	.LASF170
 4247 0aab 18       		.byte	0x18
 4248 0aac 24       		.uleb128 0x24
 4249 0aad AE0A0000 		.4byte	.LASF171
 4250 0ab1 19       		.byte	0x19
 4251 0ab2 24       		.uleb128 0x24
 4252 0ab3 B8030000 		.4byte	.LASF172
 4253 0ab7 1A       		.byte	0x1a
 4254 0ab8 24       		.uleb128 0x24
 4255 0ab9 A9070000 		.4byte	.LASF173
 4256 0abd 1B       		.byte	0x1b
 4257 0abe 24       		.uleb128 0x24
 4258 0abf 4F0C0000 		.4byte	.LASF174
 4259 0ac3 1C       		.byte	0x1c
 4260 0ac4 24       		.uleb128 0x24
 4261 0ac5 0D0D0000 		.4byte	.LASF175
 4262 0ac9 1D       		.byte	0x1d
 4263 0aca 24       		.uleb128 0x24
 4264 0acb D8060000 		.4byte	.LASF176
ARM GAS  C:\Users\PCHAUT~1\AppData\Local\Temp\ccIm8FNl.s 			page 77


 4265 0acf 1E       		.byte	0x1e
 4266 0ad0 24       		.uleb128 0x24
 4267 0ad1 0F080000 		.4byte	.LASF177
 4268 0ad5 1F       		.byte	0x1f
 4269 0ad6 24       		.uleb128 0x24
 4270 0ad7 9F0A0000 		.4byte	.LASF178
 4271 0adb 20       		.byte	0x20
 4272 0adc 24       		.uleb128 0x24
 4273 0add 2A0E0000 		.4byte	.LASF179
 4274 0ae1 21       		.byte	0x21
 4275 0ae2 24       		.uleb128 0x24
 4276 0ae3 BB040000 		.4byte	.LASF180
 4277 0ae7 22       		.byte	0x22
 4278 0ae8 00       		.byte	0
 4279 0ae9 10       		.uleb128 0x10
 4280 0aea 80050000 		.4byte	.LASF181
 4281 0aee 08       		.byte	0x8
 4282 0aef 0C       		.byte	0xc
 4283 0af0 30       		.byte	0x30
 4284 0af1 0E0B0000 		.4byte	0xb0e
 4285 0af5 0D       		.uleb128 0xd
 4286 0af6 81010000 		.4byte	.LASF182
 4287 0afa 0C       		.byte	0xc
 4288 0afb 31       		.byte	0x31
 4289 0afc 0E090000 		.4byte	0x90e
 4290 0b00 00       		.byte	0
 4291 0b01 0D       		.uleb128 0xd
 4292 0b02 570D0000 		.4byte	.LASF183
 4293 0b06 0C       		.byte	0xc
 4294 0b07 32       		.byte	0x32
 4295 0b08 4A090000 		.4byte	0x94a
 4296 0b0c 04       		.byte	0x4
 4297 0b0d 00       		.byte	0
 4298 0b0e 03       		.uleb128 0x3
 4299 0b0f 8A050000 		.4byte	.LASF184
 4300 0b13 0C       		.byte	0xc
 4301 0b14 33       		.byte	0x33
 4302 0b15 E90A0000 		.4byte	0xae9
 4303 0b19 25       		.uleb128 0x25
 4304 0b1a A9040000 		.4byte	.LASF387
 4305 0b1e 08       		.byte	0x8
 4306 0b1f 0C       		.byte	0xc
 4307 0b20 35       		.byte	0x35
 4308 0b21 D40B0000 		.4byte	0xbd4
 4309 0b25 09       		.uleb128 0x9
 4310 0b26 52030000 		.4byte	.LASF185
 4311 0b2a 0C       		.byte	0xc
 4312 0b2b 36       		.byte	0x36
 4313 0b2c 95090000 		.4byte	0x995
 4314 0b30 26       		.uleb128 0x26
 4315 0b31 753800   		.ascii	"u8\000"
 4316 0b34 0C       		.byte	0xc
 4317 0b35 37       		.byte	0x37
 4318 0b36 19090000 		.4byte	0x919
 4319 0b3a 26       		.uleb128 0x26
 4320 0b3b 75313600 		.ascii	"u16\000"
 4321 0b3f 0C       		.byte	0xc
ARM GAS  C:\Users\PCHAUT~1\AppData\Local\Temp\ccIm8FNl.s 			page 78


 4322 0b40 38       		.byte	0x38
 4323 0b41 2F090000 		.4byte	0x92f
 4324 0b45 26       		.uleb128 0x26
 4325 0b46 75333200 		.ascii	"u32\000"
 4326 0b4a 0C       		.byte	0xc
 4327 0b4b 39       		.byte	0x39
 4328 0b4c 4A090000 		.4byte	0x94a
 4329 0b50 26       		.uleb128 0x26
 4330 0b51 75363400 		.ascii	"u64\000"
 4331 0b55 0C       		.byte	0xc
 4332 0b56 3A       		.byte	0x3a
 4333 0b57 60090000 		.4byte	0x960
 4334 0b5b 26       		.uleb128 0x26
 4335 0b5c 733800   		.ascii	"s8\000"
 4336 0b5f 0C       		.byte	0xc
 4337 0b60 3B       		.byte	0x3b
 4338 0b61 0E090000 		.4byte	0x90e
 4339 0b65 26       		.uleb128 0x26
 4340 0b66 73313600 		.ascii	"s16\000"
 4341 0b6a 0C       		.byte	0xc
 4342 0b6b 3C       		.byte	0x3c
 4343 0b6c 24090000 		.4byte	0x924
 4344 0b70 26       		.uleb128 0x26
 4345 0b71 73333200 		.ascii	"s32\000"
 4346 0b75 0C       		.byte	0xc
 4347 0b76 3D       		.byte	0x3d
 4348 0b77 3A090000 		.4byte	0x93a
 4349 0b7b 26       		.uleb128 0x26
 4350 0b7c 73363400 		.ascii	"s64\000"
 4351 0b80 0C       		.byte	0xc
 4352 0b81 3E       		.byte	0x3e
 4353 0b82 55090000 		.4byte	0x955
 4354 0b86 26       		.uleb128 0x26
 4355 0b87 666C7400 		.ascii	"flt\000"
 4356 0b8b 0C       		.byte	0xc
 4357 0b8c 3F       		.byte	0x3f
 4358 0b8d D40B0000 		.4byte	0xbd4
 4359 0b91 26       		.uleb128 0x26
 4360 0b92 64626C00 		.ascii	"dbl\000"
 4361 0b96 0C       		.byte	0xc
 4362 0b97 40       		.byte	0x40
 4363 0b98 DB0B0000 		.4byte	0xbdb
 4364 0b9c 09       		.uleb128 0x9
 4365 0b9d 20120000 		.4byte	.LASF186
 4366 0ba1 0C       		.byte	0xc
 4367 0ba2 41       		.byte	0x41
 4368 0ba3 4A090000 		.4byte	0x94a
 4369 0ba7 09       		.uleb128 0x9
 4370 0ba8 14100000 		.4byte	.LASF187
 4371 0bac 0C       		.byte	0xc
 4372 0bad 42       		.byte	0x42
 4373 0bae 4A090000 		.4byte	0x94a
 4374 0bb2 09       		.uleb128 0x9
 4375 0bb3 99080000 		.4byte	.LASF188
 4376 0bb7 0C       		.byte	0xc
 4377 0bb8 43       		.byte	0x43
 4378 0bb9 4A090000 		.4byte	0x94a
ARM GAS  C:\Users\PCHAUT~1\AppData\Local\Temp\ccIm8FNl.s 			page 79


 4379 0bbd 09       		.uleb128 0x9
 4380 0bbe D1050000 		.4byte	.LASF189
 4381 0bc2 0C       		.byte	0xc
 4382 0bc3 44       		.byte	0x44
 4383 0bc4 4A090000 		.4byte	0x94a
 4384 0bc8 26       		.uleb128 0x26
 4385 0bc9 65787400 		.ascii	"ext\000"
 4386 0bcd 0C       		.byte	0xc
 4387 0bce 45       		.byte	0x45
 4388 0bcf 0E0B0000 		.4byte	0xb0e
 4389 0bd3 00       		.byte	0
 4390 0bd4 04       		.uleb128 0x4
 4391 0bd5 04       		.byte	0x4
 4392 0bd6 04       		.byte	0x4
 4393 0bd7 BF0A0000 		.4byte	.LASF190
 4394 0bdb 04       		.uleb128 0x4
 4395 0bdc 08       		.byte	0x8
 4396 0bdd 04       		.byte	0x4
 4397 0bde 92080000 		.4byte	.LASF191
 4398 0be2 03       		.uleb128 0x3
 4399 0be3 7E070000 		.4byte	.LASF192
 4400 0be7 0C       		.byte	0xc
 4401 0be8 4D       		.byte	0x4d
 4402 0be9 A2090000 		.4byte	0x9a2
 4403 0bed 10       		.uleb128 0x10
 4404 0bee DC0B0000 		.4byte	.LASF193
 4405 0bf2 10       		.byte	0x10
 4406 0bf3 0C       		.byte	0xc
 4407 0bf4 4F       		.byte	0x4f
 4408 0bf5 110C0000 		.4byte	0xc11
 4409 0bf9 0D       		.uleb128 0xd
 4410 0bfa 81010000 		.4byte	.LASF182
 4411 0bfe 0C       		.byte	0xc
 4412 0bff 50       		.byte	0x50
 4413 0c00 19090000 		.4byte	0x919
 4414 0c04 00       		.byte	0
 4415 0c05 11       		.uleb128 0x11
 4416 0c06 617300   		.ascii	"as\000"
 4417 0c09 0C       		.byte	0xc
 4418 0c0a 51       		.byte	0x51
 4419 0c0b 190B0000 		.4byte	0xb19
 4420 0c0f 08       		.byte	0x8
 4421 0c10 00       		.byte	0
 4422 0c11 03       		.uleb128 0x3
 4423 0c12 3C010000 		.4byte	.LASF194
 4424 0c16 0C       		.byte	0xc
 4425 0c17 52       		.byte	0x52
 4426 0c18 ED0B0000 		.4byte	0xbed
 4427 0c1c 0C       		.uleb128 0xc
 4428 0c1d 0C       		.byte	0xc
 4429 0c1e 0D       		.byte	0xd
 4430 0c1f 0D       		.byte	0xd
 4431 0c20 490C0000 		.4byte	0xc49
 4432 0c24 11       		.uleb128 0x11
 4433 0c25 62756600 		.ascii	"buf\000"
 4434 0c29 0D       		.byte	0xd
 4435 0c2a 0E       		.byte	0xe
ARM GAS  C:\Users\PCHAUT~1\AppData\Local\Temp\ccIm8FNl.s 			page 80


 4436 0c2b 75010000 		.4byte	0x175
 4437 0c2f 00       		.byte	0
 4438 0c30 0D       		.uleb128 0xd
 4439 0c31 CB050000 		.4byte	.LASF195
 4440 0c35 0D       		.byte	0xd
 4441 0c36 0F       		.byte	0xf
 4442 0c37 2C000000 		.4byte	0x2c
 4443 0c3b 04       		.byte	0x4
 4444 0c3c 0D       		.uleb128 0xd
 4445 0c3d 570D0000 		.4byte	.LASF183
 4446 0c41 0D       		.byte	0xd
 4447 0c42 10       		.byte	0x10
 4448 0c43 2C000000 		.4byte	0x2c
 4449 0c47 08       		.byte	0x8
 4450 0c48 00       		.byte	0
 4451 0c49 03       		.uleb128 0x3
 4452 0c4a DA050000 		.4byte	.LASF196
 4453 0c4e 0D       		.byte	0xd
 4454 0c4f 11       		.byte	0x11
 4455 0c50 1C0C0000 		.4byte	0xc1c
 4456 0c54 03       		.uleb128 0x3
 4457 0c55 380B0000 		.4byte	.LASF197
 4458 0c59 0E       		.byte	0xe
 4459 0c5a 45       		.byte	0x45
 4460 0c5b 4A090000 		.4byte	0x94a
 4461 0c5f 03       		.uleb128 0x3
 4462 0c60 B6020000 		.4byte	.LASF198
 4463 0c64 0E       		.byte	0xe
 4464 0c65 46       		.byte	0x46
 4465 0c66 60090000 		.4byte	0x960
 4466 0c6a 03       		.uleb128 0x3
 4467 0c6b AE0E0000 		.4byte	.LASF199
 4468 0c6f 0E       		.byte	0xe
 4469 0c70 48       		.byte	0x48
 4470 0c71 19090000 		.4byte	0x919
 4471 0c75 03       		.uleb128 0x3
 4472 0c76 AD020000 		.4byte	.LASF200
 4473 0c7a 0E       		.byte	0xe
 4474 0c7b 49       		.byte	0x49
 4475 0c7c 19090000 		.4byte	0x919
 4476 0c80 03       		.uleb128 0x3
 4477 0c81 6E100000 		.4byte	.LASF201
 4478 0c85 0E       		.byte	0xe
 4479 0c86 4A       		.byte	0x4a
 4480 0c87 19090000 		.4byte	0x919
 4481 0c8b 03       		.uleb128 0x3
 4482 0c8c D40D0000 		.4byte	.LASF202
 4483 0c90 0E       		.byte	0xe
 4484 0c91 4B       		.byte	0x4b
 4485 0c92 19090000 		.4byte	0x919
 4486 0c96 03       		.uleb128 0x3
 4487 0c97 66000000 		.4byte	.LASF203
 4488 0c9b 0E       		.byte	0xe
 4489 0c9c 4C       		.byte	0x4c
 4490 0c9d 4A090000 		.4byte	0x94a
 4491 0ca1 03       		.uleb128 0x3
 4492 0ca2 A00D0000 		.4byte	.LASF204
ARM GAS  C:\Users\PCHAUT~1\AppData\Local\Temp\ccIm8FNl.s 			page 81


 4493 0ca6 0E       		.byte	0xe
 4494 0ca7 4D       		.byte	0x4d
 4495 0ca8 3A090000 		.4byte	0x93a
 4496 0cac 03       		.uleb128 0x3
 4497 0cad 5A030000 		.4byte	.LASF205
 4498 0cb1 0E       		.byte	0xe
 4499 0cb2 4F       		.byte	0x4f
 4500 0cb3 4A090000 		.4byte	0x94a
 4501 0cb7 03       		.uleb128 0x3
 4502 0cb8 15050000 		.4byte	.LASF206
 4503 0cbc 0E       		.byte	0xe
 4504 0cbd 51       		.byte	0x51
 4505 0cbe 3A090000 		.4byte	0x93a
 4506 0cc2 03       		.uleb128 0x3
 4507 0cc3 47070000 		.4byte	.LASF207
 4508 0cc7 0E       		.byte	0xe
 4509 0cc8 52       		.byte	0x52
 4510 0cc9 4A090000 		.4byte	0x94a
 4511 0ccd 03       		.uleb128 0x3
 4512 0cce 3D000000 		.4byte	.LASF208
 4513 0cd2 0F       		.byte	0xf
 4514 0cd3 33       		.byte	0x33
 4515 0cd4 4A090000 		.4byte	0x94a
 4516 0cd8 1A       		.uleb128 0x1a
 4517 0cd9 CD0C0000 		.4byte	0xccd
 4518 0cdd 03       		.uleb128 0x3
 4519 0cde 930C0000 		.4byte	.LASF209
 4520 0ce2 0F       		.byte	0xf
 4521 0ce3 3F       		.byte	0x3f
 4522 0ce4 E80C0000 		.4byte	0xce8
 4523 0ce8 10       		.uleb128 0x10
 4524 0ce9 B8060000 		.4byte	.LASF210
 4525 0ced 68       		.byte	0x68
 4526 0cee 10       		.byte	0x10
 4527 0cef C2       		.byte	0xc2
 4528 0cf0 060E0000 		.4byte	0xe06
 4529 0cf4 0D       		.uleb128 0xd
 4530 0cf5 5B020000 		.4byte	.LASF211
 4531 0cf9 10       		.byte	0x10
 4532 0cfa C3       		.byte	0xc3
 4533 0cfb 110E0000 		.4byte	0xe11
 4534 0cff 00       		.byte	0
 4535 0d00 0D       		.uleb128 0xd
 4536 0d01 97020000 		.4byte	.LASF212
 4537 0d05 10       		.byte	0x10
 4538 0d06 C5       		.byte	0xc5
 4539 0d07 110E0000 		.4byte	0xe11
 4540 0d0b 04       		.byte	0x4
 4541 0d0c 0D       		.uleb128 0xd
 4542 0d0d 67040000 		.4byte	.LASF213
 4543 0d11 10       		.byte	0x10
 4544 0d12 C7       		.byte	0xc7
 4545 0d13 960C0000 		.4byte	0xc96
 4546 0d17 08       		.byte	0x8
 4547 0d18 0D       		.uleb128 0xd
 4548 0d19 5A000000 		.4byte	.LASF214
 4549 0d1d 10       		.byte	0x10
ARM GAS  C:\Users\PCHAUT~1\AppData\Local\Temp\ccIm8FNl.s 			page 82


 4550 0d1e C8       		.byte	0xc8
 4551 0d1f 88100000 		.4byte	0x1088
 4552 0d23 0C       		.byte	0xc
 4553 0d24 0D       		.uleb128 0xd
 4554 0d25 3C020000 		.4byte	.LASF215
 4555 0d29 10       		.byte	0x10
 4556 0d2a CA       		.byte	0xca
 4557 0d2b 110E0000 		.4byte	0xe11
 4558 0d2f 10       		.byte	0x10
 4559 0d30 0D       		.uleb128 0xd
 4560 0d31 830D0000 		.4byte	.LASF216
 4561 0d35 10       		.byte	0x10
 4562 0d36 CB       		.byte	0xcb
 4563 0d37 110E0000 		.4byte	0xe11
 4564 0d3b 14       		.byte	0x14
 4565 0d3c 0D       		.uleb128 0xd
 4566 0d3d B5110000 		.4byte	.LASF217
 4567 0d41 10       		.byte	0x10
 4568 0d42 D2       		.byte	0xd2
 4569 0d43 F3050000 		.4byte	0x5f3
 4570 0d47 18       		.byte	0x18
 4571 0d48 0D       		.uleb128 0xd
 4572 0d49 59110000 		.4byte	.LASF218
 4573 0d4d 10       		.byte	0x10
 4574 0d4e D8       		.byte	0xd8
 4575 0d4f FE130000 		.4byte	0x13fe
 4576 0d53 1C       		.byte	0x1c
 4577 0d54 0D       		.uleb128 0xd
 4578 0d55 2B120000 		.4byte	.LASF219
 4579 0d59 10       		.byte	0x10
 4580 0d5a DD       		.byte	0xdd
 4581 0d5b 750C0000 		.4byte	0xc75
 4582 0d5f 20       		.byte	0x20
 4583 0d60 0D       		.uleb128 0xd
 4584 0d61 CD010000 		.4byte	.LASF220
 4585 0d65 10       		.byte	0x10
 4586 0d66 E1       		.byte	0xe1
 4587 0d67 6A0C0000 		.4byte	0xc6a
 4588 0d6b 21       		.byte	0x21
 4589 0d6c 0D       		.uleb128 0xd
 4590 0d6d 9D0B0000 		.4byte	.LASF221
 4591 0d71 10       		.byte	0x10
 4592 0d72 E6       		.byte	0xe6
 4593 0d73 800C0000 		.4byte	0xc80
 4594 0d77 22       		.byte	0x22
 4595 0d78 0D       		.uleb128 0xd
 4596 0d79 40030000 		.4byte	.LASF222
 4597 0d7d 10       		.byte	0x10
 4598 0d7e EC       		.byte	0xec
 4599 0d7f 8B0C0000 		.4byte	0xc8b
 4600 0d83 23       		.byte	0x23
 4601 0d84 0D       		.uleb128 0xd
 4602 0d85 660C0000 		.4byte	.LASF223
 4603 0d89 10       		.byte	0x10
 4604 0d8a F3       		.byte	0xf3
 4605 0d8b D80C0000 		.4byte	0xcd8
 4606 0d8f 24       		.byte	0x24
ARM GAS  C:\Users\PCHAUT~1\AppData\Local\Temp\ccIm8FNl.s 			page 83


 4607 0d90 27       		.uleb128 0x27
 4608 0d91 705F7500 		.ascii	"p_u\000"
 4609 0d95 10       		.byte	0x10
 4610 0d96 3101     		.2byte	0x131
 4611 0d98 2D130000 		.4byte	0x132d
 4612 0d9c 28       		.byte	0x28
 4613 0d9d 18       		.uleb128 0x18
 4614 0d9e D30A0000 		.4byte	.LASF224
 4615 0da2 10       		.byte	0x10
 4616 0da3 3601     		.2byte	0x136
 4617 0da5 170E0000 		.4byte	0xe17
 4618 0da9 2C       		.byte	0x2c
 4619 0daa 18       		.uleb128 0x18
 4620 0dab 77000000 		.4byte	.LASF225
 4621 0daf 10       		.byte	0x10
 4622 0db0 3C01     		.2byte	0x13c
 4623 0db2 3B0E0000 		.4byte	0xe3b
 4624 0db6 30       		.byte	0x30
 4625 0db7 18       		.uleb128 0x18
 4626 0db8 1A120000 		.4byte	.LASF226
 4627 0dbc 10       		.byte	0x10
 4628 0dbd 4001     		.2byte	0x140
 4629 0dbf A10C0000 		.4byte	0xca1
 4630 0dc3 38       		.byte	0x38
 4631 0dc4 18       		.uleb128 0x18
 4632 0dc5 69050000 		.4byte	.LASF227
 4633 0dc9 10       		.byte	0x10
 4634 0dca 4601     		.2byte	0x146
 4635 0dcc AC0C0000 		.4byte	0xcac
 4636 0dd0 3C       		.byte	0x3c
 4637 0dd1 18       		.uleb128 0x18
 4638 0dd2 CF020000 		.4byte	.LASF228
 4639 0dd6 10       		.byte	0x10
 4640 0dd7 4D01     		.2byte	0x14d
 4641 0dd9 F8130000 		.4byte	0x13f8
 4642 0ddd 40       		.byte	0x40
 4643 0dde 18       		.uleb128 0x18
 4644 0ddf B70C0000 		.4byte	.LASF229
 4645 0de3 10       		.byte	0x10
 4646 0de4 5101     		.2byte	0x151
 4647 0de6 960C0000 		.4byte	0xc96
 4648 0dea 44       		.byte	0x44
 4649 0deb 18       		.uleb128 0x18
 4650 0dec 400B0000 		.4byte	.LASF230
 4651 0df0 10       		.byte	0x10
 4652 0df1 5801     		.2byte	0x158
 4653 0df3 73010000 		.4byte	0x173
 4654 0df7 48       		.byte	0x48
 4655 0df8 18       		.uleb128 0x18
 4656 0df9 07000000 		.4byte	.LASF231
 4657 0dfd 10       		.byte	0x10
 4658 0dfe 5E01     		.2byte	0x15e
 4659 0e00 DE120000 		.4byte	0x12de
 4660 0e04 50       		.byte	0x50
 4661 0e05 00       		.byte	0
 4662 0e06 03       		.uleb128 0x3
 4663 0e07 830B0000 		.4byte	.LASF232
ARM GAS  C:\Users\PCHAUT~1\AppData\Local\Temp\ccIm8FNl.s 			page 84


 4664 0e0b 0F       		.byte	0xf
 4665 0e0c 44       		.byte	0x44
 4666 0e0d 110E0000 		.4byte	0xe11
 4667 0e11 05       		.uleb128 0x5
 4668 0e12 04       		.byte	0x4
 4669 0e13 DD0C0000 		.4byte	0xcdd
 4670 0e17 03       		.uleb128 0x3
 4671 0e18 8D100000 		.4byte	.LASF233
 4672 0e1c 0F       		.byte	0xf
 4673 0e1d 49       		.byte	0x49
 4674 0e1e 220E0000 		.4byte	0xe22
 4675 0e22 10       		.uleb128 0x10
 4676 0e23 64070000 		.4byte	.LASF234
 4677 0e27 04       		.byte	0x4
 4678 0e28 10       		.byte	0x10
 4679 0e29 B0       		.byte	0xb0
 4680 0e2a 3B0E0000 		.4byte	0xe3b
 4681 0e2e 0D       		.uleb128 0xd
 4682 0e2f 5B020000 		.4byte	.LASF211
 4683 0e33 10       		.byte	0x10
 4684 0e34 B1       		.byte	0xb1
 4685 0e35 110E0000 		.4byte	0xe11
 4686 0e39 00       		.byte	0
 4687 0e3a 00       		.byte	0
 4688 0e3b 03       		.uleb128 0x3
 4689 0e3c BF020000 		.4byte	.LASF235
 4690 0e40 0F       		.byte	0xf
 4691 0e41 50       		.byte	0x50
 4692 0e42 460E0000 		.4byte	0xe46
 4693 0e46 10       		.uleb128 0x10
 4694 0e47 A60D0000 		.4byte	.LASF236
 4695 0e4b 08       		.byte	0x8
 4696 0e4c 10       		.byte	0x10
 4697 0e4d B7       		.byte	0xb7
 4698 0e4e 6B0E0000 		.4byte	0xe6b
 4699 0e52 0D       		.uleb128 0xd
 4700 0e53 5B020000 		.4byte	.LASF211
 4701 0e57 10       		.byte	0x10
 4702 0e58 B8       		.byte	0xb8
 4703 0e59 110E0000 		.4byte	0xe11
 4704 0e5d 00       		.byte	0
 4705 0e5e 0D       		.uleb128 0xd
 4706 0e5f 97020000 		.4byte	.LASF212
 4707 0e63 10       		.byte	0x10
 4708 0e64 B9       		.byte	0xb9
 4709 0e65 110E0000 		.4byte	0xe11
 4710 0e69 04       		.byte	0x4
 4711 0e6a 00       		.byte	0
 4712 0e6b 03       		.uleb128 0x3
 4713 0e6c 08070000 		.4byte	.LASF237
 4714 0e70 0F       		.byte	0xf
 4715 0e71 57       		.byte	0x57
 4716 0e72 760E0000 		.4byte	0xe76
 4717 0e76 1B       		.uleb128 0x1b
 4718 0e77 94050000 		.4byte	.LASF238
 4719 0e7b 1C       		.byte	0x1c
 4720 0e7c 10       		.byte	0x10
ARM GAS  C:\Users\PCHAUT~1\AppData\Local\Temp\ccIm8FNl.s 			page 85


 4721 0e7d 9001     		.2byte	0x190
 4722 0e7f D20E0000 		.4byte	0xed2
 4723 0e83 18       		.uleb128 0x18
 4724 0e84 710E0000 		.4byte	.LASF239
 4725 0e88 10       		.byte	0x10
 4726 0e89 9101     		.2byte	0x191
 4727 0e8b 3B0E0000 		.4byte	0xe3b
 4728 0e8f 00       		.byte	0
 4729 0e90 18       		.uleb128 0x18
 4730 0e91 680F0000 		.4byte	.LASF240
 4731 0e95 10       		.byte	0x10
 4732 0e96 9201     		.2byte	0x192
 4733 0e98 960C0000 		.4byte	0xc96
 4734 0e9c 08       		.byte	0x8
 4735 0e9d 18       		.uleb128 0x18
 4736 0e9e 89000000 		.4byte	.LASF241
 4737 0ea2 10       		.byte	0x10
 4738 0ea3 9401     		.2byte	0x194
 4739 0ea5 88100000 		.4byte	0x1088
 4740 0ea9 0C       		.byte	0xc
 4741 0eaa 18       		.uleb128 0x18
 4742 0eab D1030000 		.4byte	.LASF242
 4743 0eaf 10       		.byte	0x10
 4744 0eb0 9701     		.2byte	0x197
 4745 0eb2 110E0000 		.4byte	0xe11
 4746 0eb6 10       		.byte	0x10
 4747 0eb7 18       		.uleb128 0x18
 4748 0eb8 C10E0000 		.4byte	.LASF243
 4749 0ebc 10       		.byte	0x10
 4750 0ebd 9801     		.2byte	0x198
 4751 0ebf 110E0000 		.4byte	0xe11
 4752 0ec3 14       		.byte	0x14
 4753 0ec4 18       		.uleb128 0x18
 4754 0ec5 76110000 		.4byte	.LASF244
 4755 0ec9 10       		.byte	0x10
 4756 0eca 9B01     		.2byte	0x19b
 4757 0ecc 110E0000 		.4byte	0xe11
 4758 0ed0 18       		.byte	0x18
 4759 0ed1 00       		.byte	0
 4760 0ed2 03       		.uleb128 0x3
 4761 0ed3 E6000000 		.4byte	.LASF245
 4762 0ed7 0F       		.byte	0xf
 4763 0ed8 5C       		.byte	0x5c
 4764 0ed9 DD0E0000 		.4byte	0xedd
 4765 0edd 05       		.uleb128 0x5
 4766 0ede 04       		.byte	0x4
 4767 0edf E30E0000 		.4byte	0xee3
 4768 0ee3 1F       		.uleb128 0x1f
 4769 0ee4 EE0E0000 		.4byte	0xeee
 4770 0ee8 16       		.uleb128 0x16
 4771 0ee9 73010000 		.4byte	0x173
 4772 0eed 00       		.byte	0
 4773 0eee 03       		.uleb128 0x3
 4774 0eef F8060000 		.4byte	.LASF246
 4775 0ef3 0F       		.byte	0xf
 4776 0ef4 61       		.byte	0x61
 4777 0ef5 F90E0000 		.4byte	0xef9
ARM GAS  C:\Users\PCHAUT~1\AppData\Local\Temp\ccIm8FNl.s 			page 86


 4778 0ef9 1B       		.uleb128 0x1b
 4779 0efa 1C0D0000 		.4byte	.LASF247
 4780 0efe 14       		.byte	0x14
 4781 0eff 10       		.byte	0x10
 4782 0f00 6B01     		.2byte	0x16b
 4783 0f02 480F0000 		.4byte	0xf48
 4784 0f06 18       		.uleb128 0x18
 4785 0f07 71080000 		.4byte	.LASF248
 4786 0f0b 10       		.byte	0x10
 4787 0f0c 6C01     		.2byte	0x16c
 4788 0f0e 04140000 		.4byte	0x1404
 4789 0f12 00       		.byte	0
 4790 0f13 18       		.uleb128 0x18
 4791 0f14 8A080000 		.4byte	.LASF249
 4792 0f18 10       		.byte	0x10
 4793 0f19 6D01     		.2byte	0x16d
 4794 0f1b 04140000 		.4byte	0x1404
 4795 0f1f 04       		.byte	0x4
 4796 0f20 18       		.uleb128 0x18
 4797 0f21 F50C0000 		.4byte	.LASF250
 4798 0f25 10       		.byte	0x10
 4799 0f26 6E01     		.2byte	0x16e
 4800 0f28 CD0C0000 		.4byte	0xccd
 4801 0f2c 08       		.byte	0x8
 4802 0f2d 18       		.uleb128 0x18
 4803 0f2e 28050000 		.4byte	.LASF251
 4804 0f32 10       		.byte	0x10
 4805 0f33 6F01     		.2byte	0x16f
 4806 0f35 D20E0000 		.4byte	0xed2
 4807 0f39 0C       		.byte	0xc
 4808 0f3a 18       		.uleb128 0x18
 4809 0f3b C6010000 		.4byte	.LASF252
 4810 0f3f 10       		.byte	0x10
 4811 0f40 7101     		.2byte	0x171
 4812 0f42 73010000 		.4byte	0x173
 4813 0f46 10       		.byte	0x10
 4814 0f47 00       		.byte	0
 4815 0f48 03       		.uleb128 0x3
 4816 0f49 C2060000 		.4byte	.LASF253
 4817 0f4d 0F       		.byte	0xf
 4818 0f4e 66       		.byte	0x66
 4819 0f4f 530F0000 		.4byte	0xf53
 4820 0f53 1B       		.uleb128 0x1b
 4821 0f54 F8000000 		.4byte	.LASF254
 4822 0f58 10       		.byte	0x10
 4823 0f59 10       		.byte	0x10
 4824 0f5a 7B01     		.2byte	0x17b
 4825 0f5c 950F0000 		.4byte	0xf95
 4826 0f60 18       		.uleb128 0x18
 4827 0f61 71080000 		.4byte	.LASF248
 4828 0f65 10       		.byte	0x10
 4829 0f66 7C01     		.2byte	0x17c
 4830 0f68 04140000 		.4byte	0x1404
 4831 0f6c 00       		.byte	0
 4832 0f6d 18       		.uleb128 0x18
 4833 0f6e 8A080000 		.4byte	.LASF249
 4834 0f72 10       		.byte	0x10
ARM GAS  C:\Users\PCHAUT~1\AppData\Local\Temp\ccIm8FNl.s 			page 87


 4835 0f73 7E01     		.2byte	0x17e
 4836 0f75 04140000 		.4byte	0x1404
 4837 0f79 04       		.byte	0x4
 4838 0f7a 18       		.uleb128 0x18
 4839 0f7b F50C0000 		.4byte	.LASF250
 4840 0f7f 10       		.byte	0x10
 4841 0f80 8001     		.2byte	0x180
 4842 0f82 CD0C0000 		.4byte	0xccd
 4843 0f86 08       		.byte	0x8
 4844 0f87 18       		.uleb128 0x18
 4845 0f88 B60E0000 		.4byte	.LASF255
 4846 0f8c 10       		.byte	0x10
 4847 0f8d 8201     		.2byte	0x182
 4848 0f8f D80C0000 		.4byte	0xcd8
 4849 0f93 0C       		.byte	0xc
 4850 0f94 00       		.byte	0
 4851 0f95 03       		.uleb128 0x3
 4852 0f96 EC030000 		.4byte	.LASF256
 4853 0f9a 0F       		.byte	0xf
 4854 0f9b 6B       		.byte	0x6b
 4855 0f9c A00F0000 		.4byte	0xfa0
 4856 0fa0 17       		.uleb128 0x17
 4857 0fa1 6F0F0000 		.4byte	.LASF257
 4858 0fa5 1404     		.2byte	0x414
 4859 0fa7 10       		.byte	0x10
 4860 0fa8 A201     		.2byte	0x1a2
 4861 0faa E30F0000 		.4byte	0xfe3
 4862 0fae 18       		.uleb128 0x18
 4863 0faf 95030000 		.4byte	.LASF258
 4864 0fb3 10       		.byte	0x10
 4865 0fb4 AA01     		.2byte	0x1aa
 4866 0fb6 F9050000 		.4byte	0x5f9
 4867 0fba 00       		.byte	0
 4868 0fbb 18       		.uleb128 0x18
 4869 0fbc C3050000 		.4byte	.LASF259
 4870 0fc0 10       		.byte	0x10
 4871 0fc1 AF01     		.2byte	0x1af
 4872 0fc3 B70C0000 		.4byte	0xcb7
 4873 0fc7 04       		.byte	0x4
 4874 0fc8 18       		.uleb128 0x18
 4875 0fc9 6D010000 		.4byte	.LASF260
 4876 0fcd 10       		.byte	0x10
 4877 0fce B301     		.2byte	0x1b3
 4878 0fd0 B70C0000 		.4byte	0xcb7
 4879 0fd4 08       		.byte	0x8
 4880 0fd5 18       		.uleb128 0x18
 4881 0fd6 1B050000 		.4byte	.LASF261
 4882 0fda 10       		.byte	0x10
 4883 0fdb B901     		.2byte	0x1b9
 4884 0fdd 70120000 		.4byte	0x1270
 4885 0fe1 0C       		.byte	0xc
 4886 0fe2 00       		.byte	0
 4887 0fe3 03       		.uleb128 0x3
 4888 0fe4 1B110000 		.4byte	.LASF262
 4889 0fe8 0F       		.byte	0xf
 4890 0fe9 70       		.byte	0x70
 4891 0fea EE0F0000 		.4byte	0xfee
ARM GAS  C:\Users\PCHAUT~1\AppData\Local\Temp\ccIm8FNl.s 			page 88


 4892 0fee 17       		.uleb128 0x17
 4893 0fef A7100000 		.4byte	.LASF263
 4894 0ff3 7006     		.2byte	0x670
 4895 0ff5 10       		.byte	0x10
 4896 0ff6 C201     		.2byte	0x1c2
 4897 0ff8 5B100000 		.4byte	0x105b
 4898 0ffc 18       		.uleb128 0x18
 4899 0ffd A80E0000 		.4byte	.LASF264
 4900 1001 10       		.byte	0x10
 4901 1002 C601     		.2byte	0x1c6
 4902 1004 6B0E0000 		.4byte	0xe6b
 4903 1008 00       		.byte	0
 4904 1009 18       		.uleb128 0x18
 4905 100a F90F0000 		.4byte	.LASF265
 4906 100e 10       		.byte	0x10
 4907 100f CA01     		.2byte	0x1ca
 4908 1011 480F0000 		.4byte	0xf48
 4909 1015 1C       		.byte	0x1c
 4910 1016 27       		.uleb128 0x27
 4911 1017 64626700 		.ascii	"dbg\000"
 4912 101b 10       		.byte	0x10
 4913 101c CE01     		.2byte	0x1ce
 4914 101e 950F0000 		.4byte	0xf95
 4915 1022 2C       		.byte	0x2c
 4916 1023 19       		.uleb128 0x19
 4917 1024 1F0E0000 		.4byte	.LASF266
 4918 1028 10       		.byte	0x10
 4919 1029 D201     		.2byte	0x1d2
 4920 102b DD0C0000 		.4byte	0xcdd
 4921 102f 4004     		.2byte	0x440
 4922 1031 28       		.uleb128 0x28
 4923 1032 746D00   		.ascii	"tm\000"
 4924 1035 10       		.byte	0x10
 4925 1036 D701     		.2byte	0x1d7
 4926 1038 90120000 		.4byte	0x1290
 4927 103c A804     		.2byte	0x4a8
 4928 103e 19       		.uleb128 0x19
 4929 103f 4A0D0000 		.4byte	.LASF267
 4930 1043 10       		.byte	0x10
 4931 1044 DD01     		.2byte	0x1dd
 4932 1046 22130000 		.4byte	0x1322
 4933 104a B004     		.2byte	0x4b0
 4934 104c 19       		.uleb128 0x19
 4935 104d 020B0000 		.4byte	.LASF268
 4936 1051 10       		.byte	0x10
 4937 1052 E301     		.2byte	0x1e3
 4938 1054 0A140000 		.4byte	0x140a
 4939 1058 E804     		.2byte	0x4e8
 4940 105a 00       		.byte	0
 4941 105b 20       		.uleb128 0x20
 4942 105c E30F0000 		.4byte	.LASF269
 4943 1060 11       		.byte	0x11
 4944 1061 A706     		.2byte	0x6a7
 4945 1063 45090000 		.4byte	0x945
 4946 1067 22       		.uleb128 0x22
 4947 1068 790E0000 		.4byte	.LASF270
 4948 106c 12       		.byte	0x12
ARM GAS  C:\Users\PCHAUT~1\AppData\Local\Temp\ccIm8FNl.s 			page 89


 4949 106d 4C       		.byte	0x4c
 4950 106e 4A090000 		.4byte	0x94a
 4951 1072 03       		.uleb128 0x3
 4952 1073 D9020000 		.4byte	.LASF271
 4953 1077 13       		.byte	0x13
 4954 1078 65       		.byte	0x65
 4955 1079 73010000 		.4byte	0x173
 4956 107d 03       		.uleb128 0x3
 4957 107e D4040000 		.4byte	.LASF272
 4958 1082 13       		.byte	0x13
 4959 1083 6D       		.byte	0x6d
 4960 1084 60090000 		.4byte	0x960
 4961 1088 10       		.uleb128 0x10
 4962 1089 66030000 		.4byte	.LASF273
 4963 108d 04       		.byte	0x4
 4964 108e 13       		.byte	0x13
 4965 108f 89       		.byte	0x89
 4966 1090 A1100000 		.4byte	0x10a1
 4967 1094 11       		.uleb128 0x11
 4968 1095 72313300 		.ascii	"r13\000"
 4969 1099 13       		.byte	0x13
 4970 109a 8A       		.byte	0x8a
 4971 109b E2110000 		.4byte	0x11e2
 4972 109f 00       		.byte	0
 4973 10a0 00       		.byte	0
 4974 10a1 10       		.uleb128 0x10
 4975 10a2 D10C0000 		.4byte	.LASF274
 4976 10a6 64       		.byte	0x64
 4977 10a7 01       		.byte	0x1
 4978 10a8 F4       		.byte	0xf4
 4979 10a9 E2110000 		.4byte	0x11e2
 4980 10ad 11       		.uleb128 0x11
 4981 10ae 73313600 		.ascii	"s16\000"
 4982 10b2 01       		.byte	0x1
 4983 10b3 F6       		.byte	0xf6
 4984 10b4 72100000 		.4byte	0x1072
 4985 10b8 00       		.byte	0
 4986 10b9 11       		.uleb128 0x11
 4987 10ba 73313700 		.ascii	"s17\000"
 4988 10be 01       		.byte	0x1
 4989 10bf F7       		.byte	0xf7
 4990 10c0 72100000 		.4byte	0x1072
 4991 10c4 04       		.byte	0x4
 4992 10c5 11       		.uleb128 0x11
 4993 10c6 73313800 		.ascii	"s18\000"
 4994 10ca 01       		.byte	0x1
 4995 10cb F8       		.byte	0xf8
 4996 10cc 72100000 		.4byte	0x1072
 4997 10d0 08       		.byte	0x8
 4998 10d1 11       		.uleb128 0x11
 4999 10d2 73313900 		.ascii	"s19\000"
 5000 10d6 01       		.byte	0x1
 5001 10d7 F9       		.byte	0xf9
 5002 10d8 72100000 		.4byte	0x1072
 5003 10dc 0C       		.byte	0xc
 5004 10dd 11       		.uleb128 0x11
 5005 10de 73323000 		.ascii	"s20\000"
ARM GAS  C:\Users\PCHAUT~1\AppData\Local\Temp\ccIm8FNl.s 			page 90


 5006 10e2 01       		.byte	0x1
 5007 10e3 FA       		.byte	0xfa
 5008 10e4 72100000 		.4byte	0x1072
 5009 10e8 10       		.byte	0x10
 5010 10e9 11       		.uleb128 0x11
 5011 10ea 73323100 		.ascii	"s21\000"
 5012 10ee 01       		.byte	0x1
 5013 10ef FB       		.byte	0xfb
 5014 10f0 72100000 		.4byte	0x1072
 5015 10f4 14       		.byte	0x14
 5016 10f5 11       		.uleb128 0x11
 5017 10f6 73323200 		.ascii	"s22\000"
 5018 10fa 01       		.byte	0x1
 5019 10fb FC       		.byte	0xfc
 5020 10fc 72100000 		.4byte	0x1072
 5021 1100 18       		.byte	0x18
 5022 1101 11       		.uleb128 0x11
 5023 1102 73323300 		.ascii	"s23\000"
 5024 1106 01       		.byte	0x1
 5025 1107 FD       		.byte	0xfd
 5026 1108 72100000 		.4byte	0x1072
 5027 110c 1C       		.byte	0x1c
 5028 110d 11       		.uleb128 0x11
 5029 110e 73323400 		.ascii	"s24\000"
 5030 1112 01       		.byte	0x1
 5031 1113 FE       		.byte	0xfe
 5032 1114 72100000 		.4byte	0x1072
 5033 1118 20       		.byte	0x20
 5034 1119 11       		.uleb128 0x11
 5035 111a 73323500 		.ascii	"s25\000"
 5036 111e 01       		.byte	0x1
 5037 111f FF       		.byte	0xff
 5038 1120 72100000 		.4byte	0x1072
 5039 1124 24       		.byte	0x24
 5040 1125 27       		.uleb128 0x27
 5041 1126 73323600 		.ascii	"s26\000"
 5042 112a 01       		.byte	0x1
 5043 112b 0001     		.2byte	0x100
 5044 112d 72100000 		.4byte	0x1072
 5045 1131 28       		.byte	0x28
 5046 1132 27       		.uleb128 0x27
 5047 1133 73323700 		.ascii	"s27\000"
 5048 1137 01       		.byte	0x1
 5049 1138 0101     		.2byte	0x101
 5050 113a 72100000 		.4byte	0x1072
 5051 113e 2C       		.byte	0x2c
 5052 113f 27       		.uleb128 0x27
 5053 1140 73323800 		.ascii	"s28\000"
 5054 1144 01       		.byte	0x1
 5055 1145 0201     		.2byte	0x102
 5056 1147 72100000 		.4byte	0x1072
 5057 114b 30       		.byte	0x30
 5058 114c 27       		.uleb128 0x27
 5059 114d 73323900 		.ascii	"s29\000"
 5060 1151 01       		.byte	0x1
 5061 1152 0301     		.2byte	0x103
 5062 1154 72100000 		.4byte	0x1072
ARM GAS  C:\Users\PCHAUT~1\AppData\Local\Temp\ccIm8FNl.s 			page 91


 5063 1158 34       		.byte	0x34
 5064 1159 27       		.uleb128 0x27
 5065 115a 73333000 		.ascii	"s30\000"
 5066 115e 01       		.byte	0x1
 5067 115f 0401     		.2byte	0x104
 5068 1161 72100000 		.4byte	0x1072
 5069 1165 38       		.byte	0x38
 5070 1166 27       		.uleb128 0x27
 5071 1167 73333100 		.ascii	"s31\000"
 5072 116b 01       		.byte	0x1
 5073 116c 0501     		.2byte	0x105
 5074 116e 72100000 		.4byte	0x1072
 5075 1172 3C       		.byte	0x3c
 5076 1173 27       		.uleb128 0x27
 5077 1174 723400   		.ascii	"r4\000"
 5078 1177 01       		.byte	0x1
 5079 1178 0701     		.2byte	0x107
 5080 117a 72100000 		.4byte	0x1072
 5081 117e 40       		.byte	0x40
 5082 117f 27       		.uleb128 0x27
 5083 1180 723500   		.ascii	"r5\000"
 5084 1183 01       		.byte	0x1
 5085 1184 0801     		.2byte	0x108
 5086 1186 72100000 		.4byte	0x1072
 5087 118a 44       		.byte	0x44
 5088 118b 27       		.uleb128 0x27
 5089 118c 723600   		.ascii	"r6\000"
 5090 118f 01       		.byte	0x1
 5091 1190 0901     		.2byte	0x109
 5092 1192 72100000 		.4byte	0x1072
 5093 1196 48       		.byte	0x48
 5094 1197 27       		.uleb128 0x27
 5095 1198 723700   		.ascii	"r7\000"
 5096 119b 01       		.byte	0x1
 5097 119c 0A01     		.2byte	0x10a
 5098 119e 72100000 		.4byte	0x1072
 5099 11a2 4C       		.byte	0x4c
 5100 11a3 27       		.uleb128 0x27
 5101 11a4 723800   		.ascii	"r8\000"
 5102 11a7 01       		.byte	0x1
 5103 11a8 0B01     		.2byte	0x10b
 5104 11aa 72100000 		.4byte	0x1072
 5105 11ae 50       		.byte	0x50
 5106 11af 27       		.uleb128 0x27
 5107 11b0 723900   		.ascii	"r9\000"
 5108 11b3 01       		.byte	0x1
 5109 11b4 0C01     		.2byte	0x10c
 5110 11b6 72100000 		.4byte	0x1072
 5111 11ba 54       		.byte	0x54
 5112 11bb 27       		.uleb128 0x27
 5113 11bc 72313000 		.ascii	"r10\000"
 5114 11c0 01       		.byte	0x1
 5115 11c1 0D01     		.2byte	0x10d
 5116 11c3 72100000 		.4byte	0x1072
 5117 11c7 58       		.byte	0x58
 5118 11c8 27       		.uleb128 0x27
 5119 11c9 72313100 		.ascii	"r11\000"
ARM GAS  C:\Users\PCHAUT~1\AppData\Local\Temp\ccIm8FNl.s 			page 92


 5120 11cd 01       		.byte	0x1
 5121 11ce 0E01     		.2byte	0x10e
 5122 11d0 72100000 		.4byte	0x1072
 5123 11d4 5C       		.byte	0x5c
 5124 11d5 27       		.uleb128 0x27
 5125 11d6 6C7200   		.ascii	"lr\000"
 5126 11d9 01       		.byte	0x1
 5127 11da 0F01     		.2byte	0x10f
 5128 11dc 72100000 		.4byte	0x1072
 5129 11e0 60       		.byte	0x60
 5130 11e1 00       		.byte	0
 5131 11e2 05       		.uleb128 0x5
 5132 11e3 04       		.byte	0x4
 5133 11e4 A1100000 		.4byte	0x10a1
 5134 11e8 0C       		.uleb128 0xc
 5135 11e9 10       		.byte	0x10
 5136 11ea 14       		.byte	0x14
 5137 11eb 51       		.byte	0x51
 5138 11ec 21120000 		.4byte	0x1221
 5139 11f0 0D       		.uleb128 0xd
 5140 11f1 FD010000 		.4byte	.LASF275
 5141 11f5 14       		.byte	0x14
 5142 11f6 55       		.byte	0x55
 5143 11f7 CD0C0000 		.4byte	0xccd
 5144 11fb 00       		.byte	0
 5145 11fc 0D       		.uleb128 0xd
 5146 11fd A5010000 		.4byte	.LASF276
 5147 1201 14       		.byte	0x14
 5148 1202 59       		.byte	0x59
 5149 1203 110E0000 		.4byte	0xe11
 5150 1207 04       		.byte	0x4
 5151 1208 0D       		.uleb128 0xd
 5152 1209 F30A0000 		.4byte	.LASF277
 5153 120d 14       		.byte	0x14
 5154 120e 5D       		.byte	0x5d
 5155 120f 73010000 		.4byte	0x173
 5156 1213 08       		.byte	0x8
 5157 1214 0D       		.uleb128 0xd
 5158 1215 0E060000 		.4byte	.LASF278
 5159 1219 14       		.byte	0x14
 5160 121a 61       		.byte	0x61
 5161 121b 19090000 		.4byte	0x919
 5162 121f 0C       		.byte	0xc
 5163 1220 00       		.byte	0
 5164 1221 03       		.uleb128 0x3
 5165 1222 DF040000 		.4byte	.LASF279
 5166 1226 14       		.byte	0x14
 5167 1227 62       		.byte	0x62
 5168 1228 E8110000 		.4byte	0x11e8
 5169 122c 29       		.uleb128 0x29
 5170 122d 0804     		.2byte	0x408
 5171 122f 14       		.byte	0x14
 5172 1230 67       		.byte	0x67
 5173 1231 5A120000 		.4byte	0x125a
 5174 1235 0D       		.uleb128 0xd
 5175 1236 D2080000 		.4byte	.LASF280
 5176 123a 14       		.byte	0x14
ARM GAS  C:\Users\PCHAUT~1\AppData\Local\Temp\ccIm8FNl.s 			page 93


 5177 123b 6B       		.byte	0x6b
 5178 123c 37000000 		.4byte	0x37
 5179 1240 00       		.byte	0
 5180 1241 0D       		.uleb128 0xd
 5181 1242 C8110000 		.4byte	.LASF281
 5182 1246 14       		.byte	0x14
 5183 1247 6F       		.byte	0x6f
 5184 1248 5A120000 		.4byte	0x125a
 5185 124c 04       		.byte	0x4
 5186 124d 0D       		.uleb128 0xd
 5187 124e 67080000 		.4byte	.LASF282
 5188 1252 14       		.byte	0x14
 5189 1253 73       		.byte	0x73
 5190 1254 60120000 		.4byte	0x1260
 5191 1258 08       		.byte	0x8
 5192 1259 00       		.byte	0
 5193 125a 05       		.uleb128 0x5
 5194 125b 04       		.byte	0x4
 5195 125c 21120000 		.4byte	0x1221
 5196 1260 0A       		.uleb128 0xa
 5197 1261 21120000 		.4byte	0x1221
 5198 1265 70120000 		.4byte	0x1270
 5199 1269 0B       		.uleb128 0xb
 5200 126a 37000000 		.4byte	0x37
 5201 126e 3F       		.byte	0x3f
 5202 126f 00       		.byte	0
 5203 1270 03       		.uleb128 0x3
 5204 1271 57050000 		.4byte	.LASF283
 5205 1275 14       		.byte	0x14
 5206 1276 74       		.byte	0x74
 5207 1277 2C120000 		.4byte	0x122c
 5208 127b 0C       		.uleb128 0xc
 5209 127c 04       		.byte	0x4
 5210 127d 15       		.byte	0x15
 5211 127e 38       		.byte	0x38
 5212 127f 90120000 		.4byte	0x1290
 5213 1283 0D       		.uleb128 0xd
 5214 1284 480C0000 		.4byte	.LASF284
 5215 1288 15       		.byte	0x15
 5216 1289 3C       		.byte	0x3c
 5217 128a 540C0000 		.4byte	0xc54
 5218 128e 00       		.byte	0
 5219 128f 00       		.byte	0
 5220 1290 03       		.uleb128 0x3
 5221 1291 C90E0000 		.4byte	.LASF285
 5222 1295 15       		.byte	0x15
 5223 1296 3D       		.byte	0x3d
 5224 1297 7B120000 		.4byte	0x127b
 5225 129b 0C       		.uleb128 0xc
 5226 129c 18       		.byte	0x18
 5227 129d 15       		.byte	0x15
 5228 129e 48       		.byte	0x48
 5229 129f DE120000 		.4byte	0x12de
 5230 12a3 0D       		.uleb128 0xd
 5231 12a4 610E0000 		.4byte	.LASF286
 5232 12a8 15       		.byte	0x15
 5233 12a9 49       		.byte	0x49
ARM GAS  C:\Users\PCHAUT~1\AppData\Local\Temp\ccIm8FNl.s 			page 94


 5234 12aa 540C0000 		.4byte	0xc54
 5235 12ae 00       		.byte	0
 5236 12af 0D       		.uleb128 0xd
 5237 12b0 FA040000 		.4byte	.LASF287
 5238 12b4 15       		.byte	0x15
 5239 12b5 4A       		.byte	0x4a
 5240 12b6 540C0000 		.4byte	0xc54
 5241 12ba 04       		.byte	0x4
 5242 12bb 0D       		.uleb128 0xd
 5243 12bc 15120000 		.4byte	.LASF288
 5244 12c0 15       		.byte	0x15
 5245 12c1 4B       		.byte	0x4b
 5246 12c2 540C0000 		.4byte	0xc54
 5247 12c6 08       		.byte	0x8
 5248 12c7 11       		.uleb128 0x11
 5249 12c8 6E00     		.ascii	"n\000"
 5250 12ca 15       		.byte	0x15
 5251 12cb 4C       		.byte	0x4c
 5252 12cc C20C0000 		.4byte	0xcc2
 5253 12d0 0C       		.byte	0xc
 5254 12d1 0D       		.uleb128 0xd
 5255 12d2 A40B0000 		.4byte	.LASF289
 5256 12d6 15       		.byte	0x15
 5257 12d7 4D       		.byte	0x4d
 5258 12d8 5F0C0000 		.4byte	0xc5f
 5259 12dc 10       		.byte	0x10
 5260 12dd 00       		.byte	0
 5261 12de 03       		.uleb128 0x3
 5262 12df AB010000 		.4byte	.LASF290
 5263 12e3 15       		.byte	0x15
 5264 12e4 4E       		.byte	0x4e
 5265 12e5 9B120000 		.4byte	0x129b
 5266 12e9 0C       		.uleb128 0xc
 5267 12ea 38       		.byte	0x38
 5268 12eb 16       		.byte	0x16
 5269 12ec 38       		.byte	0x38
 5270 12ed 22130000 		.4byte	0x1322
 5271 12f1 0D       		.uleb128 0xd
 5272 12f2 90070000 		.4byte	.LASF291
 5273 12f6 16       		.byte	0x16
 5274 12f7 39       		.byte	0x39
 5275 12f8 C20C0000 		.4byte	0xcc2
 5276 12fc 00       		.byte	0
 5277 12fd 0D       		.uleb128 0xd
 5278 12fe 8C040000 		.4byte	.LASF292
 5279 1302 16       		.byte	0x16
 5280 1303 3A       		.byte	0x3a
 5281 1304 C20C0000 		.4byte	0xcc2
 5282 1308 04       		.byte	0x4
 5283 1309 0D       		.uleb128 0xd
 5284 130a 2F060000 		.4byte	.LASF293
 5285 130e 16       		.byte	0x16
 5286 130f 3B       		.byte	0x3b
 5287 1310 DE120000 		.4byte	0x12de
 5288 1314 08       		.byte	0x8
 5289 1315 0D       		.uleb128 0xd
 5290 1316 8A030000 		.4byte	.LASF294
ARM GAS  C:\Users\PCHAUT~1\AppData\Local\Temp\ccIm8FNl.s 			page 95


 5291 131a 16       		.byte	0x16
 5292 131b 3D       		.byte	0x3d
 5293 131c DE120000 		.4byte	0x12de
 5294 1320 20       		.byte	0x20
 5295 1321 00       		.byte	0
 5296 1322 03       		.uleb128 0x3
 5297 1323 C80B0000 		.4byte	.LASF295
 5298 1327 16       		.byte	0x16
 5299 1328 3F       		.byte	0x3f
 5300 1329 E9120000 		.4byte	0x12e9
 5301 132d 08       		.uleb128 0x8
 5302 132e 04       		.byte	0x4
 5303 132f 10       		.byte	0x10
 5304 1330 FA       		.byte	0xfa
 5305 1331 8A130000 		.4byte	0x138a
 5306 1335 1E       		.uleb128 0x1e
 5307 1336 F2100000 		.4byte	.LASF296
 5308 133a 10       		.byte	0x10
 5309 133b 0101     		.2byte	0x101
 5310 133d A10C0000 		.4byte	0xca1
 5311 1341 1E       		.uleb128 0x1e
 5312 1342 DB010000 		.4byte	.LASF297
 5313 1346 10       		.byte	0x10
 5314 1347 0801     		.2byte	0x108
 5315 1349 A10C0000 		.4byte	0xca1
 5316 134d 1E       		.uleb128 0x1e
 5317 134e 79040000 		.4byte	.LASF298
 5318 1352 10       		.byte	0x10
 5319 1353 0F01     		.2byte	0x10f
 5320 1355 73010000 		.4byte	0x173
 5321 1359 1E       		.uleb128 0x1e
 5322 135a 6E030000 		.4byte	.LASF299
 5323 135e 10       		.byte	0x10
 5324 135f 1601     		.2byte	0x116
 5325 1361 8A130000 		.4byte	0x138a
 5326 1365 1E       		.uleb128 0x1e
 5327 1366 0E120000 		.4byte	.LASF300
 5328 136a 10       		.byte	0x10
 5329 136b 1E01     		.2byte	0x11e
 5330 136d B5130000 		.4byte	0x13b5
 5331 1371 1E       		.uleb128 0x1e
 5332 1372 74050000 		.4byte	.LASF301
 5333 1376 10       		.byte	0x10
 5334 1377 2701     		.2byte	0x127
 5335 1379 F8130000 		.4byte	0x13f8
 5336 137d 1E       		.uleb128 0x1e
 5337 137e F6010000 		.4byte	.LASF302
 5338 1382 10       		.byte	0x10
 5339 1383 2F01     		.2byte	0x12f
 5340 1385 AC0C0000 		.4byte	0xcac
 5341 1389 00       		.byte	0
 5342 138a 05       		.uleb128 0x5
 5343 138b 04       		.byte	0x4
 5344 138c 060E0000 		.4byte	0xe06
 5345 1390 10       		.uleb128 0x10
 5346 1391 AB060000 		.4byte	.LASF303
 5347 1395 0C       		.byte	0xc
ARM GAS  C:\Users\PCHAUT~1\AppData\Local\Temp\ccIm8FNl.s 			page 96


 5348 1396 17       		.byte	0x17
 5349 1397 34       		.byte	0x34
 5350 1398 B5130000 		.4byte	0x13b5
 5351 139c 0D       		.uleb128 0xd
 5352 139d E40E0000 		.4byte	.LASF304
 5353 13a1 17       		.byte	0x17
 5354 13a2 35       		.byte	0x35
 5355 13a3 3B0E0000 		.4byte	0xe3b
 5356 13a7 00       		.byte	0
 5357 13a8 0D       		.uleb128 0xd
 5358 13a9 2D0D0000 		.4byte	.LASF305
 5359 13ad 17       		.byte	0x17
 5360 13ae 37       		.byte	0x37
 5361 13af B70C0000 		.4byte	0xcb7
 5362 13b3 08       		.byte	0x8
 5363 13b4 00       		.byte	0
 5364 13b5 05       		.uleb128 0x5
 5365 13b6 04       		.byte	0x4
 5366 13b7 90130000 		.4byte	0x1390
 5367 13bb 10       		.uleb128 0x10
 5368 13bc 340F0000 		.4byte	.LASF306
 5369 13c0 14       		.byte	0x14
 5370 13c1 18       		.byte	0x18
 5371 13c2 39       		.byte	0x39
 5372 13c3 F8130000 		.4byte	0x13f8
 5373 13c7 0D       		.uleb128 0xd
 5374 13c8 390C0000 		.4byte	.LASF307
 5375 13cc 18       		.byte	0x18
 5376 13cd 3A       		.byte	0x3a
 5377 13ce 3B0E0000 		.4byte	0xe3b
 5378 13d2 00       		.byte	0
 5379 13d3 0D       		.uleb128 0xd
 5380 13d4 BE010000 		.4byte	.LASF308
 5381 13d8 18       		.byte	0x18
 5382 13d9 3C       		.byte	0x3c
 5383 13da 110E0000 		.4byte	0xe11
 5384 13de 08       		.byte	0x8
 5385 13df 0D       		.uleb128 0xd
 5386 13e0 C1110000 		.4byte	.LASF309
 5387 13e4 18       		.byte	0x18
 5388 13e5 3E       		.byte	0x3e
 5389 13e6 3C150000 		.4byte	0x153c
 5390 13ea 0C       		.byte	0xc
 5391 13eb 0D       		.uleb128 0xd
 5392 13ec 3E040000 		.4byte	.LASF310
 5393 13f0 18       		.byte	0x18
 5394 13f1 41       		.byte	0x41
 5395 13f2 B70C0000 		.4byte	0xcb7
 5396 13f6 10       		.byte	0x10
 5397 13f7 00       		.byte	0
 5398 13f8 05       		.uleb128 0x5
 5399 13f9 04       		.byte	0x4
 5400 13fa BB130000 		.4byte	0x13bb
 5401 13fe 05       		.uleb128 0x5
 5402 13ff 04       		.byte	0x4
 5403 1400 7D100000 		.4byte	0x107d
 5404 1404 05       		.uleb128 0x5
ARM GAS  C:\Users\PCHAUT~1\AppData\Local\Temp\ccIm8FNl.s 			page 97


 5405 1405 04       		.byte	0x4
 5406 1406 EE0E0000 		.4byte	0xeee
 5407 140a 0A       		.uleb128 0xa
 5408 140b 7D100000 		.4byte	0x107d
 5409 140f 1A140000 		.4byte	0x141a
 5410 1413 0B       		.uleb128 0xb
 5411 1414 37000000 		.4byte	0x37
 5412 1418 30       		.byte	0x30
 5413 1419 00       		.byte	0
 5414 141a 2A       		.uleb128 0x2a
 5415 141b 636800   		.ascii	"ch\000"
 5416 141e 10       		.byte	0x10
 5417 141f 0902     		.2byte	0x209
 5418 1421 E30F0000 		.4byte	0xfe3
 5419 1425 0C       		.uleb128 0xc
 5420 1426 16       		.byte	0x16
 5421 1427 19       		.byte	0x19
 5422 1428 34       		.byte	0x34
 5423 1429 06150000 		.4byte	0x1506
 5424 142d 0D       		.uleb128 0xd
 5425 142e 4C000000 		.4byte	.LASF311
 5426 1432 19       		.byte	0x19
 5427 1433 35       		.byte	0x35
 5428 1434 06150000 		.4byte	0x1506
 5429 1438 00       		.byte	0
 5430 1439 0D       		.uleb128 0xd
 5431 143a 68060000 		.4byte	.LASF312
 5432 143e 19       		.byte	0x19
 5433 143f 36       		.byte	0x36
 5434 1440 19090000 		.4byte	0x919
 5435 1444 04       		.byte	0x4
 5436 1445 0D       		.uleb128 0xd
 5437 1446 31110000 		.4byte	.LASF313
 5438 144a 19       		.byte	0x19
 5439 144b 37       		.byte	0x37
 5440 144c 19090000 		.4byte	0x919
 5441 1450 05       		.byte	0x5
 5442 1451 0D       		.uleb128 0xd
 5443 1452 04080000 		.4byte	.LASF314
 5444 1456 19       		.byte	0x19
 5445 1457 38       		.byte	0x38
 5446 1458 2F090000 		.4byte	0x92f
 5447 145c 06       		.byte	0x6
 5448 145d 0D       		.uleb128 0xd
 5449 145e 76010000 		.4byte	.LASF315
 5450 1462 19       		.byte	0x19
 5451 1463 39       		.byte	0x39
 5452 1464 19090000 		.4byte	0x919
 5453 1468 08       		.byte	0x8
 5454 1469 0D       		.uleb128 0xd
 5455 146a A8080000 		.4byte	.LASF316
 5456 146e 19       		.byte	0x19
 5457 146f 3A       		.byte	0x3a
 5458 1470 19090000 		.4byte	0x919
 5459 1474 09       		.byte	0x9
 5460 1475 0D       		.uleb128 0xd
 5461 1476 0B020000 		.4byte	.LASF317
ARM GAS  C:\Users\PCHAUT~1\AppData\Local\Temp\ccIm8FNl.s 			page 98


 5462 147a 19       		.byte	0x19
 5463 147b 3B       		.byte	0x3b
 5464 147c 19090000 		.4byte	0x919
 5465 1480 0A       		.byte	0xa
 5466 1481 0D       		.uleb128 0xd
 5467 1482 EE040000 		.4byte	.LASF318
 5468 1486 19       		.byte	0x19
 5469 1487 3C       		.byte	0x3c
 5470 1488 19090000 		.4byte	0x919
 5471 148c 0B       		.byte	0xb
 5472 148d 0D       		.uleb128 0xd
 5473 148e C4000000 		.4byte	.LASF319
 5474 1492 19       		.byte	0x19
 5475 1493 3D       		.byte	0x3d
 5476 1494 19090000 		.4byte	0x919
 5477 1498 0C       		.byte	0xc
 5478 1499 0D       		.uleb128 0xd
 5479 149a 9C040000 		.4byte	.LASF320
 5480 149e 19       		.byte	0x19
 5481 149f 3E       		.byte	0x3e
 5482 14a0 19090000 		.4byte	0x919
 5483 14a4 0D       		.byte	0xd
 5484 14a5 0D       		.uleb128 0xd
 5485 14a6 9A0F0000 		.4byte	.LASF321
 5486 14aa 19       		.byte	0x19
 5487 14ab 3F       		.byte	0x3f
 5488 14ac 19090000 		.4byte	0x919
 5489 14b0 0E       		.byte	0xe
 5490 14b1 0D       		.uleb128 0xd
 5491 14b2 31000000 		.4byte	.LASF322
 5492 14b6 19       		.byte	0x19
 5493 14b7 40       		.byte	0x40
 5494 14b8 19090000 		.4byte	0x919
 5495 14bc 0F       		.byte	0xf
 5496 14bd 0D       		.uleb128 0xd
 5497 14be 7D100000 		.4byte	.LASF323
 5498 14c2 19       		.byte	0x19
 5499 14c3 41       		.byte	0x41
 5500 14c4 19090000 		.4byte	0x919
 5501 14c8 10       		.byte	0x10
 5502 14c9 0D       		.uleb128 0xd
 5503 14ca 84020000 		.4byte	.LASF324
 5504 14ce 19       		.byte	0x19
 5505 14cf 43       		.byte	0x43
 5506 14d0 19090000 		.4byte	0x919
 5507 14d4 11       		.byte	0x11
 5508 14d5 0D       		.uleb128 0xd
 5509 14d6 BF0D0000 		.4byte	.LASF325
 5510 14da 19       		.byte	0x19
 5511 14db 44       		.byte	0x44
 5512 14dc 19090000 		.4byte	0x919
 5513 14e0 12       		.byte	0x12
 5514 14e1 0D       		.uleb128 0xd
 5515 14e2 6D0C0000 		.4byte	.LASF326
 5516 14e6 19       		.byte	0x19
 5517 14e7 45       		.byte	0x45
 5518 14e8 19090000 		.4byte	0x919
ARM GAS  C:\Users\PCHAUT~1\AppData\Local\Temp\ccIm8FNl.s 			page 99


 5519 14ec 13       		.byte	0x13
 5520 14ed 0D       		.uleb128 0xd
 5521 14ee B7070000 		.4byte	.LASF327
 5522 14f2 19       		.byte	0x19
 5523 14f3 46       		.byte	0x46
 5524 14f4 19090000 		.4byte	0x919
 5525 14f8 14       		.byte	0x14
 5526 14f9 0D       		.uleb128 0xd
 5527 14fa 80040000 		.4byte	.LASF328
 5528 14fe 19       		.byte	0x19
 5529 14ff 48       		.byte	0x48
 5530 1500 19090000 		.4byte	0x919
 5531 1504 15       		.byte	0x15
 5532 1505 00       		.byte	0
 5533 1506 0A       		.uleb128 0xa
 5534 1507 7B010000 		.4byte	0x17b
 5535 150b 16150000 		.4byte	0x1516
 5536 150f 0B       		.uleb128 0xb
 5537 1510 37000000 		.4byte	0x37
 5538 1514 03       		.byte	0x3
 5539 1515 00       		.byte	0
 5540 1516 03       		.uleb128 0x3
 5541 1517 27110000 		.4byte	.LASF329
 5542 151b 19       		.byte	0x19
 5543 151c 49       		.byte	0x49
 5544 151d 25140000 		.4byte	0x1425
 5545 1521 0F       		.uleb128 0xf
 5546 1522 16150000 		.4byte	0x1516
 5547 1526 22       		.uleb128 0x22
 5548 1527 6E000000 		.4byte	.LASF330
 5549 152b 19       		.byte	0x19
 5550 152c 6E       		.byte	0x6e
 5551 152d 21150000 		.4byte	0x1521
 5552 1531 03       		.uleb128 0x3
 5553 1532 A70F0000 		.4byte	.LASF331
 5554 1536 18       		.byte	0x18
 5555 1537 34       		.byte	0x34
 5556 1538 BB130000 		.4byte	0x13bb
 5557 153c 05       		.uleb128 0x5
 5558 153d 04       		.byte	0x4
 5559 153e 31150000 		.4byte	0x1531
 5560 1542 03       		.uleb128 0x3
 5561 1543 C50F0000 		.4byte	.LASF332
 5562 1547 1A       		.byte	0x1a
 5563 1548 08       		.byte	0x8
 5564 1549 52150000 		.4byte	0x1552
 5565 154d 0F       		.uleb128 0xf
 5566 154e 42150000 		.4byte	0x1542
 5567 1552 10       		.uleb128 0x10
 5568 1553 AF0F0000 		.4byte	.LASF333
 5569 1557 18       		.byte	0x18
 5570 1558 1A       		.byte	0x1a
 5571 1559 0B       		.byte	0xb
 5572 155a A6150000 		.4byte	0x15a6
 5573 155e 11       		.uleb128 0x11
 5574 155f 696400   		.ascii	"id\000"
 5575 1562 1A       		.byte	0x1a
ARM GAS  C:\Users\PCHAUT~1\AppData\Local\Temp\ccIm8FNl.s 			page 100


 5576 1563 0C       		.byte	0xc
 5577 1564 F3050000 		.4byte	0x5f3
 5578 1568 00       		.byte	0
 5579 1569 0D       		.uleb128 0xd
 5580 156a E90C0000 		.4byte	.LASF334
 5581 156e 1A       		.byte	0x1a
 5582 156f 0D       		.byte	0xd
 5583 1570 3A090000 		.4byte	0x93a
 5584 1574 04       		.byte	0x4
 5585 1575 0D       		.uleb128 0xd
 5586 1576 640A0000 		.4byte	.LASF335
 5587 157a 1A       		.byte	0x1a
 5588 157b 0E       		.byte	0xe
 5589 157c 10160000 		.4byte	0x1610
 5590 1580 08       		.byte	0x8
 5591 1581 0D       		.uleb128 0xd
 5592 1582 3E100000 		.4byte	.LASF336
 5593 1586 1A       		.byte	0x1a
 5594 1587 0F       		.byte	0xf
 5595 1588 10160000 		.4byte	0x1610
 5596 158c 0C       		.byte	0xc
 5597 158d 0D       		.uleb128 0xd
 5598 158e BC110000 		.4byte	.LASF337
 5599 1592 1A       		.byte	0x1a
 5600 1593 10       		.byte	0x10
 5601 1594 10160000 		.4byte	0x1610
 5602 1598 10       		.byte	0x10
 5603 1599 0D       		.uleb128 0xd
 5604 159a 15070000 		.4byte	.LASF338
 5605 159e 1A       		.byte	0x1a
 5606 159f 11       		.byte	0x11
 5607 15a0 16160000 		.4byte	0x1616
 5608 15a4 14       		.byte	0x14
 5609 15a5 00       		.byte	0
 5610 15a6 03       		.uleb128 0x3
 5611 15a7 280F0000 		.4byte	.LASF339
 5612 15ab 1A       		.byte	0x1a
 5613 15ac 09       		.byte	0x9
 5614 15ad B1150000 		.4byte	0x15b1
 5615 15b1 10       		.uleb128 0x10
 5616 15b2 1C0F0000 		.4byte	.LASF340
 5617 15b6 18       		.byte	0x18
 5618 15b7 1A       		.byte	0x1a
 5619 15b8 2E       		.byte	0x2e
 5620 15b9 10160000 		.4byte	0x1610
 5621 15bd 11       		.uleb128 0x11
 5622 15be 696400   		.ascii	"id\000"
 5623 15c1 1A       		.byte	0x1a
 5624 15c2 2F       		.byte	0x2f
 5625 15c3 F3050000 		.4byte	0x5f3
 5626 15c7 00       		.byte	0
 5627 15c8 11       		.uleb128 0x11
 5628 15c9 6E7300   		.ascii	"ns\000"
 5629 15cc 1A       		.byte	0x1a
 5630 15cd 30       		.byte	0x30
 5631 15ce 10160000 		.4byte	0x1610
 5632 15d2 04       		.byte	0x4
ARM GAS  C:\Users\PCHAUT~1\AppData\Local\Temp\ccIm8FNl.s 			page 101


 5633 15d3 0D       		.uleb128 0xd
 5634 15d4 BC110000 		.4byte	.LASF337
 5635 15d8 1A       		.byte	0x1a
 5636 15d9 31       		.byte	0x31
 5637 15da 16160000 		.4byte	0x1616
 5638 15de 08       		.byte	0x8
 5639 15df 0D       		.uleb128 0xd
 5640 15e0 21000000 		.4byte	.LASF341
 5641 15e4 1A       		.byte	0x1a
 5642 15e5 32       		.byte	0x32
 5643 15e6 95090000 		.4byte	0x995
 5644 15ea 0C       		.byte	0xc
 5645 15eb 0D       		.uleb128 0xd
 5646 15ec 00050000 		.4byte	.LASF342
 5647 15f0 1A       		.byte	0x1a
 5648 15f1 33       		.byte	0x33
 5649 15f2 95090000 		.4byte	0x995
 5650 15f6 0D       		.byte	0xd
 5651 15f7 0D       		.uleb128 0xd
 5652 15f8 81010000 		.4byte	.LASF182
 5653 15fc 1A       		.byte	0x1a
 5654 15fd 34       		.byte	0x34
 5655 15fe 19090000 		.4byte	0x919
 5656 1602 0E       		.byte	0xe
 5657 1603 0D       		.uleb128 0xd
 5658 1604 24040000 		.4byte	.LASF343
 5659 1608 1A       		.byte	0x1a
 5660 1609 3C       		.byte	0x3c
 5661 160a B1160000 		.4byte	0x16b1
 5662 160e 10       		.byte	0x10
 5663 160f 00       		.byte	0
 5664 1610 05       		.uleb128 0x5
 5665 1611 04       		.byte	0x4
 5666 1612 42150000 		.4byte	0x1542
 5667 1616 05       		.uleb128 0x5
 5668 1617 04       		.byte	0x4
 5669 1618 A6150000 		.4byte	0x15a6
 5670 161c 10       		.uleb128 0x10
 5671 161d 2D100000 		.4byte	.LASF344
 5672 1621 08       		.byte	0x8
 5673 1622 1A       		.byte	0x1a
 5674 1623 14       		.byte	0x14
 5675 1624 4D160000 		.4byte	0x164d
 5676 1628 11       		.uleb128 0x11
 5677 1629 62756600 		.ascii	"buf\000"
 5678 162d 1A       		.byte	0x1a
 5679 162e 15       		.byte	0x15
 5680 162f 75010000 		.4byte	0x175
 5681 1633 00       		.byte	0
 5682 1634 0D       		.uleb128 0xd
 5683 1635 EA100000 		.4byte	.LASF345
 5684 1639 1A       		.byte	0x1a
 5685 163a 16       		.byte	0x16
 5686 163b 2F090000 		.4byte	0x92f
 5687 163f 04       		.byte	0x4
 5688 1640 11       		.uleb128 0x11
 5689 1641 6C656E00 		.ascii	"len\000"
ARM GAS  C:\Users\PCHAUT~1\AppData\Local\Temp\ccIm8FNl.s 			page 102


 5690 1645 1A       		.byte	0x1a
 5691 1646 17       		.byte	0x17
 5692 1647 2F090000 		.4byte	0x92f
 5693 164b 06       		.byte	0x6
 5694 164c 00       		.byte	0
 5695 164d 10       		.uleb128 0x10
 5696 164e 53010000 		.4byte	.LASF346
 5697 1652 08       		.byte	0x8
 5698 1653 1A       		.byte	0x1a
 5699 1654 1A       		.byte	0x1a
 5700 1655 7E160000 		.4byte	0x167e
 5701 1659 11       		.uleb128 0x11
 5702 165a 62756600 		.ascii	"buf\000"
 5703 165e 1A       		.byte	0x1a
 5704 165f 1B       		.byte	0x1b
 5705 1660 7E160000 		.4byte	0x167e
 5706 1664 00       		.byte	0
 5707 1665 0D       		.uleb128 0xd
 5708 1666 E9060000 		.4byte	.LASF347
 5709 166a 1A       		.byte	0x1a
 5710 166b 1C       		.byte	0x1c
 5711 166c 2F090000 		.4byte	0x92f
 5712 1670 04       		.byte	0x4
 5713 1671 11       		.uleb128 0x11
 5714 1672 64696D00 		.ascii	"dim\000"
 5715 1676 1A       		.byte	0x1a
 5716 1677 1D       		.byte	0x1d
 5717 1678 2F090000 		.4byte	0x92f
 5718 167c 06       		.byte	0x6
 5719 167d 00       		.byte	0
 5720 167e 05       		.uleb128 0x5
 5721 167f 04       		.byte	0x4
 5722 1680 D40B0000 		.4byte	0xbd4
 5723 1684 10       		.uleb128 0x10
 5724 1685 FA050000 		.4byte	.LASF348
 5725 1689 08       		.byte	0x8
 5726 168a 1A       		.byte	0x1a
 5727 168b 20       		.byte	0x20
 5728 168c B1160000 		.4byte	0x16b1
 5729 1690 11       		.uleb128 0x11
 5730 1691 62756600 		.ascii	"buf\000"
 5731 1695 1A       		.byte	0x1a
 5732 1696 21       		.byte	0x21
 5733 1697 7E160000 		.4byte	0x167e
 5734 169b 00       		.byte	0
 5735 169c 11       		.uleb128 0x11
 5736 169d 6E00     		.ascii	"n\000"
 5737 169f 1A       		.byte	0x1a
 5738 16a0 22       		.byte	0x22
 5739 16a1 2F090000 		.4byte	0x92f
 5740 16a5 04       		.byte	0x4
 5741 16a6 11       		.uleb128 0x11
 5742 16a7 6D00     		.ascii	"m\000"
 5743 16a9 1A       		.byte	0x1a
 5744 16aa 23       		.byte	0x23
 5745 16ab 2F090000 		.4byte	0x92f
 5746 16af 06       		.byte	0x6
ARM GAS  C:\Users\PCHAUT~1\AppData\Local\Temp\ccIm8FNl.s 			page 103


 5747 16b0 00       		.byte	0
 5748 16b1 08       		.uleb128 0x8
 5749 16b2 08       		.byte	0x8
 5750 16b3 1A       		.byte	0x1a
 5751 16b4 35       		.byte	0x35
 5752 16b5 F6160000 		.4byte	0x16f6
 5753 16b9 26       		.uleb128 0x26
 5754 16ba 6200     		.ascii	"b\000"
 5755 16bc 1A       		.byte	0x1a
 5756 16bd 36       		.byte	0x36
 5757 16be 95090000 		.4byte	0x995
 5758 16c2 26       		.uleb128 0x26
 5759 16c3 7300     		.ascii	"s\000"
 5760 16c5 1A       		.byte	0x1a
 5761 16c6 37       		.byte	0x37
 5762 16c7 D40B0000 		.4byte	0xbd4
 5763 16cb 26       		.uleb128 0x26
 5764 16cc 6900     		.ascii	"i\000"
 5765 16ce 1A       		.byte	0x1a
 5766 16cf 38       		.byte	0x38
 5767 16d0 3A090000 		.4byte	0x93a
 5768 16d4 26       		.uleb128 0x26
 5769 16d5 73747200 		.ascii	"str\000"
 5770 16d9 1A       		.byte	0x1a
 5771 16da 39       		.byte	0x39
 5772 16db 1C160000 		.4byte	0x161c
 5773 16df 09       		.uleb128 0x9
 5774 16e0 B20C0000 		.4byte	.LASF349
 5775 16e4 1A       		.byte	0x1a
 5776 16e5 3A       		.byte	0x3a
 5777 16e6 4D160000 		.4byte	0x164d
 5778 16ea 26       		.uleb128 0x26
 5779 16eb 6D617400 		.ascii	"mat\000"
 5780 16ef 1A       		.byte	0x1a
 5781 16f0 3B       		.byte	0x3b
 5782 16f1 84160000 		.4byte	0x1684
 5783 16f5 00       		.byte	0
 5784 16f6 03       		.uleb128 0x3
 5785 16f7 8C010000 		.4byte	.LASF350
 5786 16fb 1B       		.byte	0x1b
 5787 16fc 0C       		.byte	0xc
 5788 16fd 01170000 		.4byte	0x1701
 5789 1701 05       		.uleb128 0x5
 5790 1702 04       		.byte	0x4
 5791 1703 07170000 		.4byte	0x1707
 5792 1707 1F       		.uleb128 0x1f
 5793 1708 1C170000 		.4byte	0x171c
 5794 170c 16       		.uleb128 0x16
 5795 170d 73010000 		.4byte	0x173
 5796 1711 16       		.uleb128 0x16
 5797 1712 F3050000 		.4byte	0x5f3
 5798 1716 16       		.uleb128 0x16
 5799 1717 F3050000 		.4byte	0x5f3
 5800 171b 00       		.byte	0
 5801 171c 2B       		.uleb128 0x2b
 5802 171d 17060000 		.4byte	.LASF353
 5803 1721 04       		.byte	0x4
ARM GAS  C:\Users\PCHAUT~1\AppData\Local\Temp\ccIm8FNl.s 			page 104


 5804 1722 F401     		.2byte	0x1f4
 5805 1724 00000000 		.4byte	.LFB268
 5806 1728 48000000 		.4byte	.LFE268-.LFB268
 5807 172c 01       		.uleb128 0x1
 5808 172d 9C       		.byte	0x9c
 5809 172e 9B170000 		.4byte	0x179b
 5810 1732 2C       		.uleb128 0x2c
 5811 1733 6E7300   		.ascii	"ns\000"
 5812 1736 04       		.byte	0x4
 5813 1737 F401     		.2byte	0x1f4
 5814 1739 9B170000 		.4byte	0x179b
 5815 173d 02       		.uleb128 0x2
 5816 173e 91       		.byte	0x91
 5817 173f 54       		.sleb128 -44
 5818 1740 2C       		.uleb128 0x2c
 5819 1741 62756600 		.ascii	"buf\000"
 5820 1745 04       		.byte	0x4
 5821 1746 F501     		.2byte	0x1f5
 5822 1748 73010000 		.4byte	0x173
 5823 174c 02       		.uleb128 0x2
 5824 174d 91       		.byte	0x91
 5825 174e 50       		.sleb128 -48
 5826 174f 2D       		.uleb128 0x2d
 5827 1750 570D0000 		.4byte	.LASF183
 5828 1754 04       		.byte	0x4
 5829 1755 F601     		.2byte	0x1f6
 5830 1757 2C000000 		.4byte	0x2c
 5831 175b 02       		.uleb128 0x2
 5832 175c 91       		.byte	0x91
 5833 175d 4C       		.sleb128 -52
 5834 175e 2D       		.uleb128 0x2d
 5835 175f 960B0000 		.4byte	.LASF351
 5836 1763 04       		.byte	0x4
 5837 1764 F701     		.2byte	0x1f7
 5838 1766 F6160000 		.4byte	0x16f6
 5839 176a 02       		.uleb128 0x2
 5840 176b 91       		.byte	0x91
 5841 176c 48       		.sleb128 -56
 5842 176d 2D       		.uleb128 0x2d
 5843 176e FB030000 		.4byte	.LASF352
 5844 1772 04       		.byte	0x4
 5845 1773 F801     		.2byte	0x1f8
 5846 1775 73010000 		.4byte	0x173
 5847 1779 02       		.uleb128 0x2
 5848 177a 91       		.byte	0x91
 5849 177b 44       		.sleb128 -60
 5850 177c 2E       		.uleb128 0x2e
 5851 177d 636D7000 		.ascii	"cmp\000"
 5852 1781 04       		.byte	0x4
 5853 1782 FA01     		.2byte	0x1fa
 5854 1784 E20B0000 		.4byte	0xbe2
 5855 1788 02       		.uleb128 0x2
 5856 1789 91       		.byte	0x91
 5857 178a 64       		.sleb128 -28
 5858 178b 2E       		.uleb128 0x2e
 5859 178c 6D656D00 		.ascii	"mem\000"
 5860 1790 04       		.byte	0x4
ARM GAS  C:\Users\PCHAUT~1\AppData\Local\Temp\ccIm8FNl.s 			page 105


 5861 1791 FB01     		.2byte	0x1fb
 5862 1793 490C0000 		.4byte	0xc49
 5863 1797 02       		.uleb128 0x2
 5864 1798 91       		.byte	0x91
 5865 1799 58       		.sleb128 -40
 5866 179a 00       		.byte	0
 5867 179b 05       		.uleb128 0x5
 5868 179c 04       		.byte	0x4
 5869 179d 4D150000 		.4byte	0x154d
 5870 17a1 2B       		.uleb128 0x2b
 5871 17a2 DA080000 		.4byte	.LASF354
 5872 17a6 04       		.byte	0x4
 5873 17a7 E901     		.2byte	0x1e9
 5874 17a9 00000000 		.4byte	.LFB267
 5875 17ad 40000000 		.4byte	.LFE267-.LFB267
 5876 17b1 01       		.uleb128 0x1
 5877 17b2 9C       		.byte	0x9c
 5878 17b3 F3170000 		.4byte	0x17f3
 5879 17b7 2C       		.uleb128 0x2c
 5880 17b8 6E7300   		.ascii	"ns\000"
 5881 17bb 04       		.byte	0x4
 5882 17bc E901     		.2byte	0x1e9
 5883 17be 9B170000 		.4byte	0x179b
 5884 17c2 02       		.uleb128 0x2
 5885 17c3 91       		.byte	0x91
 5886 17c4 6C       		.sleb128 -20
 5887 17c5 2C       		.uleb128 0x2c
 5888 17c6 636D7000 		.ascii	"cmp\000"
 5889 17ca 04       		.byte	0x4
 5890 17cb EA01     		.2byte	0x1ea
 5891 17cd F3170000 		.4byte	0x17f3
 5892 17d1 02       		.uleb128 0x2
 5893 17d2 91       		.byte	0x91
 5894 17d3 68       		.sleb128 -24
 5895 17d4 2D       		.uleb128 0x2d
 5896 17d5 960B0000 		.4byte	.LASF351
 5897 17d9 04       		.byte	0x4
 5898 17da EB01     		.2byte	0x1eb
 5899 17dc F6160000 		.4byte	0x16f6
 5900 17e0 02       		.uleb128 0x2
 5901 17e1 91       		.byte	0x91
 5902 17e2 64       		.sleb128 -28
 5903 17e3 2D       		.uleb128 0x2d
 5904 17e4 FB030000 		.4byte	.LASF352
 5905 17e8 04       		.byte	0x4
 5906 17e9 EC01     		.2byte	0x1ec
 5907 17eb 73010000 		.4byte	0x173
 5908 17ef 02       		.uleb128 0x2
 5909 17f0 91       		.byte	0x91
 5910 17f1 60       		.sleb128 -32
 5911 17f2 00       		.byte	0
 5912 17f3 05       		.uleb128 0x5
 5913 17f4 04       		.byte	0x4
 5914 17f5 E20B0000 		.4byte	0xbe2
 5915 17f9 2F       		.uleb128 0x2f
 5916 17fa EE110000 		.4byte	.LASF360
 5917 17fe 04       		.byte	0x4
ARM GAS  C:\Users\PCHAUT~1\AppData\Local\Temp\ccIm8FNl.s 			page 106


 5918 17ff 9901     		.2byte	0x199
 5919 1801 00000000 		.4byte	.LFB266
 5920 1805 30030000 		.4byte	.LFE266-.LFB266
 5921 1809 01       		.uleb128 0x1
 5922 180a 9C       		.byte	0x9c
 5923 180b 94180000 		.4byte	0x1894
 5924 180f 2C       		.uleb128 0x2c
 5925 1810 6E7300   		.ascii	"ns\000"
 5926 1813 04       		.byte	0x4
 5927 1814 9901     		.2byte	0x199
 5928 1816 9B170000 		.4byte	0x179b
 5929 181a 02       		.uleb128 0x2
 5930 181b 91       		.byte	0x91
 5931 181c 5C       		.sleb128 -36
 5932 181d 2C       		.uleb128 0x2c
 5933 181e 636D7000 		.ascii	"cmp\000"
 5934 1822 04       		.byte	0x4
 5935 1823 9A01     		.2byte	0x19a
 5936 1825 F3170000 		.4byte	0x17f3
 5937 1829 02       		.uleb128 0x2
 5938 182a 91       		.byte	0x91
 5939 182b 58       		.sleb128 -40
 5940 182c 2D       		.uleb128 0x2d
 5941 182d 960B0000 		.4byte	.LASF351
 5942 1831 04       		.byte	0x4
 5943 1832 9B01     		.2byte	0x19b
 5944 1834 F6160000 		.4byte	0x16f6
 5945 1838 02       		.uleb128 0x2
 5946 1839 91       		.byte	0x91
 5947 183a 54       		.sleb128 -44
 5948 183b 2D       		.uleb128 0x2d
 5949 183c FB030000 		.4byte	.LASF352
 5950 1840 04       		.byte	0x4
 5951 1841 9C01     		.2byte	0x19c
 5952 1843 73010000 		.4byte	0x173
 5953 1847 02       		.uleb128 0x2
 5954 1848 91       		.byte	0x91
 5955 1849 50       		.sleb128 -48
 5956 184a 30       		.uleb128 0x30
 5957 184b 14100000 		.4byte	.LASF187
 5958 184f 04       		.byte	0x4
 5959 1850 9E01     		.2byte	0x19e
 5960 1852 4A090000 		.4byte	0x94a
 5961 1856 02       		.uleb128 0x2
 5962 1857 91       		.byte	0x91
 5963 1858 64       		.sleb128 -28
 5964 1859 2E       		.uleb128 0x2e
 5965 185a 6900     		.ascii	"i\000"
 5966 185c 04       		.byte	0x4
 5967 185d 9F01     		.2byte	0x19f
 5968 185f 4A090000 		.4byte	0x94a
 5969 1863 02       		.uleb128 0x2
 5970 1864 91       		.byte	0x91
 5971 1865 68       		.sleb128 -24
 5972 1866 30       		.uleb128 0x30
 5973 1867 A2080000 		.4byte	.LASF355
 5974 186b 04       		.byte	0x4
ARM GAS  C:\Users\PCHAUT~1\AppData\Local\Temp\ccIm8FNl.s 			page 107


 5975 186c A101     		.2byte	0x1a1
 5976 186e 10160000 		.4byte	0x1610
 5977 1872 02       		.uleb128 0x2
 5978 1873 91       		.byte	0x91
 5979 1874 6C       		.sleb128 -20
 5980 1875 30       		.uleb128 0x30
 5981 1876 95060000 		.4byte	.LASF356
 5982 187a 04       		.byte	0x4
 5983 187b A201     		.2byte	0x1a2
 5984 187d 16160000 		.4byte	0x1616
 5985 1881 02       		.uleb128 0x2
 5986 1882 91       		.byte	0x91
 5987 1883 70       		.sleb128 -16
 5988 1884 30       		.uleb128 0x30
 5989 1885 810C0000 		.4byte	.LASF357
 5990 1889 04       		.byte	0x4
 5991 188a A301     		.2byte	0x1a3
 5992 188c 95090000 		.4byte	0x995
 5993 1890 02       		.uleb128 0x2
 5994 1891 91       		.byte	0x91
 5995 1892 63       		.sleb128 -29
 5996 1893 00       		.byte	0
 5997 1894 31       		.uleb128 0x31
 5998 1895 30070000 		.4byte	.LASF358
 5999 1899 04       		.byte	0x4
 6000 189a 8C01     		.2byte	0x18c
 6001 189c 25000000 		.4byte	0x25
 6002 18a0 00000000 		.4byte	.LFB265
 6003 18a4 4C000000 		.4byte	.LFE265-.LFB265
 6004 18a8 01       		.uleb128 0x1
 6005 18a9 9C       		.byte	0x9c
 6006 18aa 17190000 		.4byte	0x1917
 6007 18ae 2C       		.uleb128 0x2c
 6008 18af 6E7300   		.ascii	"ns\000"
 6009 18b2 04       		.byte	0x4
 6010 18b3 8C01     		.2byte	0x18c
 6011 18b5 10160000 		.4byte	0x1610
 6012 18b9 02       		.uleb128 0x2
 6013 18ba 91       		.byte	0x91
 6014 18bb 54       		.sleb128 -44
 6015 18bc 2C       		.uleb128 0x2c
 6016 18bd 62756600 		.ascii	"buf\000"
 6017 18c1 04       		.byte	0x4
 6018 18c2 8D01     		.2byte	0x18d
 6019 18c4 FC080000 		.4byte	0x8fc
 6020 18c8 02       		.uleb128 0x2
 6021 18c9 91       		.byte	0x91
 6022 18ca 50       		.sleb128 -48
 6023 18cb 2D       		.uleb128 0x2d
 6024 18cc 570D0000 		.4byte	.LASF183
 6025 18d0 04       		.byte	0x4
 6026 18d1 8E01     		.2byte	0x18e
 6027 18d3 2C000000 		.4byte	0x2c
 6028 18d7 02       		.uleb128 0x2
 6029 18d8 91       		.byte	0x91
 6030 18d9 4C       		.sleb128 -52
 6031 18da 2D       		.uleb128 0x2d
ARM GAS  C:\Users\PCHAUT~1\AppData\Local\Temp\ccIm8FNl.s 			page 108


 6032 18db 960B0000 		.4byte	.LASF351
 6033 18df 04       		.byte	0x4
 6034 18e0 8F01     		.2byte	0x18f
 6035 18e2 F6160000 		.4byte	0x16f6
 6036 18e6 02       		.uleb128 0x2
 6037 18e7 91       		.byte	0x91
 6038 18e8 48       		.sleb128 -56
 6039 18e9 2D       		.uleb128 0x2d
 6040 18ea FB030000 		.4byte	.LASF352
 6041 18ee 04       		.byte	0x4
 6042 18ef 9001     		.2byte	0x190
 6043 18f1 73010000 		.4byte	0x173
 6044 18f5 02       		.uleb128 0x2
 6045 18f6 91       		.byte	0x91
 6046 18f7 44       		.sleb128 -60
 6047 18f8 2E       		.uleb128 0x2e
 6048 18f9 636D7000 		.ascii	"cmp\000"
 6049 18fd 04       		.byte	0x4
 6050 18fe 9201     		.2byte	0x192
 6051 1900 E20B0000 		.4byte	0xbe2
 6052 1904 02       		.uleb128 0x2
 6053 1905 91       		.byte	0x91
 6054 1906 64       		.sleb128 -28
 6055 1907 2E       		.uleb128 0x2e
 6056 1908 6D656D00 		.ascii	"mem\000"
 6057 190c 04       		.byte	0x4
 6058 190d 9301     		.2byte	0x193
 6059 190f 490C0000 		.4byte	0xc49
 6060 1913 02       		.uleb128 0x2
 6061 1914 91       		.byte	0x91
 6062 1915 58       		.sleb128 -40
 6063 1916 00       		.byte	0
 6064 1917 31       		.uleb128 0x31
 6065 1918 09040000 		.4byte	.LASF359
 6066 191c 04       		.byte	0x4
 6067 191d 7B01     		.2byte	0x17b
 6068 191f 25000000 		.4byte	0x25
 6069 1923 00000000 		.4byte	.LFB264
 6070 1927 78000000 		.4byte	.LFE264-.LFB264
 6071 192b 01       		.uleb128 0x1
 6072 192c 9C       		.byte	0x9c
 6073 192d 7C190000 		.4byte	0x197c
 6074 1931 2C       		.uleb128 0x2c
 6075 1932 6E7300   		.ascii	"ns\000"
 6076 1935 04       		.byte	0x4
 6077 1936 7B01     		.2byte	0x17b
 6078 1938 10160000 		.4byte	0x1610
 6079 193c 02       		.uleb128 0x2
 6080 193d 91       		.byte	0x91
 6081 193e 6C       		.sleb128 -20
 6082 193f 2C       		.uleb128 0x2c
 6083 1940 636D7000 		.ascii	"cmp\000"
 6084 1944 04       		.byte	0x4
 6085 1945 7C01     		.2byte	0x17c
 6086 1947 F3170000 		.4byte	0x17f3
 6087 194b 02       		.uleb128 0x2
 6088 194c 91       		.byte	0x91
ARM GAS  C:\Users\PCHAUT~1\AppData\Local\Temp\ccIm8FNl.s 			page 109


 6089 194d 68       		.sleb128 -24
 6090 194e 2D       		.uleb128 0x2d
 6091 194f 960B0000 		.4byte	.LASF351
 6092 1953 04       		.byte	0x4
 6093 1954 7D01     		.2byte	0x17d
 6094 1956 F6160000 		.4byte	0x16f6
 6095 195a 02       		.uleb128 0x2
 6096 195b 91       		.byte	0x91
 6097 195c 64       		.sleb128 -28
 6098 195d 2D       		.uleb128 0x2d
 6099 195e FB030000 		.4byte	.LASF352
 6100 1962 04       		.byte	0x4
 6101 1963 7E01     		.2byte	0x17e
 6102 1965 73010000 		.4byte	0x173
 6103 1969 02       		.uleb128 0x2
 6104 196a 91       		.byte	0x91
 6105 196b 60       		.sleb128 -32
 6106 196c 30       		.uleb128 0x30
 6107 196d 14100000 		.4byte	.LASF187
 6108 1971 04       		.byte	0x4
 6109 1972 8301     		.2byte	0x183
 6110 1974 4A090000 		.4byte	0x94a
 6111 1978 02       		.uleb128 0x2
 6112 1979 91       		.byte	0x91
 6113 197a 70       		.sleb128 -16
 6114 197b 00       		.byte	0
 6115 197c 2F       		.uleb128 0x2f
 6116 197d 00030000 		.4byte	.LASF361
 6117 1981 04       		.byte	0x4
 6118 1982 7301     		.2byte	0x173
 6119 1984 00000000 		.4byte	.LFB263
 6120 1988 2C000000 		.4byte	.LFE263-.LFB263
 6121 198c 01       		.uleb128 0x1
 6122 198d 9C       		.byte	0x9c
 6123 198e BF190000 		.4byte	0x19bf
 6124 1992 2C       		.uleb128 0x2c
 6125 1993 61726700 		.ascii	"arg\000"
 6126 1997 04       		.byte	0x4
 6127 1998 7301     		.2byte	0x173
 6128 199a 73010000 		.4byte	0x173
 6129 199e 02       		.uleb128 0x2
 6130 199f 91       		.byte	0x91
 6131 19a0 6C       		.sleb128 -20
 6132 19a1 2C       		.uleb128 0x2c
 6133 19a2 696400   		.ascii	"id\000"
 6134 19a5 04       		.byte	0x4
 6135 19a6 7301     		.2byte	0x173
 6136 19a8 F3050000 		.4byte	0x5f3
 6137 19ac 02       		.uleb128 0x2
 6138 19ad 91       		.byte	0x91
 6139 19ae 68       		.sleb128 -24
 6140 19af 2C       		.uleb128 0x2c
 6141 19b0 65727200 		.ascii	"err\000"
 6142 19b4 04       		.byte	0x4
 6143 19b5 7301     		.2byte	0x173
 6144 19b7 F3050000 		.4byte	0x5f3
 6145 19bb 02       		.uleb128 0x2
ARM GAS  C:\Users\PCHAUT~1\AppData\Local\Temp\ccIm8FNl.s 			page 110


 6146 19bc 91       		.byte	0x91
 6147 19bd 64       		.sleb128 -28
 6148 19be 00       		.byte	0
 6149 19bf 32       		.uleb128 0x32
 6150 19c0 E2020000 		.4byte	.LASF363
 6151 19c4 04       		.byte	0x4
 6152 19c5 2A01     		.2byte	0x12a
 6153 19c7 25000000 		.4byte	0x25
 6154 19cb 00000000 		.4byte	.LFB262
 6155 19cf E8010000 		.4byte	.LFE262-.LFB262
 6156 19d3 01       		.uleb128 0x1
 6157 19d4 9C       		.byte	0x9c
 6158 19d5 191B0000 		.4byte	0x1b19
 6159 19d9 2C       		.uleb128 0x2c
 6160 19da 6E7300   		.ascii	"ns\000"
 6161 19dd 04       		.byte	0x4
 6162 19de 2A01     		.2byte	0x12a
 6163 19e0 10160000 		.4byte	0x1610
 6164 19e4 03       		.uleb128 0x3
 6165 19e5 91       		.byte	0x91
 6166 19e6 B47F     		.sleb128 -76
 6167 19e8 2D       		.uleb128 0x2d
 6168 19e9 14100000 		.4byte	.LASF187
 6169 19ed 04       		.byte	0x4
 6170 19ee 2B01     		.2byte	0x12b
 6171 19f0 4A090000 		.4byte	0x94a
 6172 19f4 03       		.uleb128 0x3
 6173 19f5 91       		.byte	0x91
 6174 19f6 B07F     		.sleb128 -80
 6175 19f8 2C       		.uleb128 0x2c
 6176 19f9 636D7000 		.ascii	"cmp\000"
 6177 19fd 04       		.byte	0x4
 6178 19fe 2C01     		.2byte	0x12c
 6179 1a00 F3170000 		.4byte	0x17f3
 6180 1a04 03       		.uleb128 0x3
 6181 1a05 91       		.byte	0x91
 6182 1a06 AC7F     		.sleb128 -84
 6183 1a08 2D       		.uleb128 0x2d
 6184 1a09 960B0000 		.4byte	.LASF351
 6185 1a0d 04       		.byte	0x4
 6186 1a0e 2D01     		.2byte	0x12d
 6187 1a10 F6160000 		.4byte	0x16f6
 6188 1a14 03       		.uleb128 0x3
 6189 1a15 91       		.byte	0x91
 6190 1a16 A87F     		.sleb128 -88
 6191 1a18 2D       		.uleb128 0x2d
 6192 1a19 FB030000 		.4byte	.LASF352
 6193 1a1d 04       		.byte	0x4
 6194 1a1e 2E01     		.2byte	0x12e
 6195 1a20 73010000 		.4byte	0x173
 6196 1a24 03       		.uleb128 0x3
 6197 1a25 91       		.byte	0x91
 6198 1a26 A47F     		.sleb128 -92
 6199 1a28 2E       		.uleb128 0x2e
 6200 1a29 6900     		.ascii	"i\000"
 6201 1a2b 04       		.byte	0x4
 6202 1a2c 3001     		.2byte	0x130
ARM GAS  C:\Users\PCHAUT~1\AppData\Local\Temp\ccIm8FNl.s 			page 111


 6203 1a2e 4A090000 		.4byte	0x94a
 6204 1a32 02       		.uleb128 0x2
 6205 1a33 91       		.byte	0x91
 6206 1a34 40       		.sleb128 -64
 6207 1a35 33       		.uleb128 0x33
 6208 1a36 1C000000 		.4byte	.LBB23
 6209 1a3a 8C010000 		.4byte	.LBE23-.LBB23
 6210 1a3e 30       		.uleb128 0x30
 6211 1a3f 4E070000 		.4byte	.LASF362
 6212 1a43 04       		.byte	0x4
 6213 1a44 3201     		.2byte	0x132
 6214 1a46 4A090000 		.4byte	0x94a
 6215 1a4a 03       		.uleb128 0x3
 6216 1a4b 91       		.byte	0x91
 6217 1a4c B87F     		.sleb128 -72
 6218 1a4e 2E       		.uleb128 0x2e
 6219 1a4f 696400   		.ascii	"id\000"
 6220 1a52 04       		.byte	0x4
 6221 1a53 3701     		.2byte	0x137
 6222 1a55 75010000 		.4byte	0x175
 6223 1a59 02       		.uleb128 0x2
 6224 1a5a 91       		.byte	0x91
 6225 1a5b 44       		.sleb128 -60
 6226 1a5c 2E       		.uleb128 0x2e
 6227 1a5d 6F626A00 		.ascii	"obj\000"
 6228 1a61 04       		.byte	0x4
 6229 1a62 4301     		.2byte	0x143
 6230 1a64 110C0000 		.4byte	0xc11
 6231 1a68 02       		.uleb128 0x2
 6232 1a69 91       		.byte	0x91
 6233 1a6a 60       		.sleb128 -32
 6234 1a6b 34       		.uleb128 0x34
 6235 1a6c 00000000 		.4byte	.Ldebug_ranges0+0
 6236 1a70 CA1A0000 		.4byte	0x1aca
 6237 1a74 2E       		.uleb128 0x2e
 6238 1a75 73756200 		.ascii	"sub\000"
 6239 1a79 04       		.byte	0x4
 6240 1a7a 4A01     		.2byte	0x14a
 6241 1a7c 10160000 		.4byte	0x1610
 6242 1a80 02       		.uleb128 0x2
 6243 1a81 91       		.byte	0x91
 6244 1a82 54       		.sleb128 -44
 6245 1a83 35       		.uleb128 0x35
 6246 1a84 02010000 		.4byte	.LBB25
 6247 1a88 26000000 		.4byte	.LBE25-.LBB25
 6248 1a8c B01A0000 		.4byte	0x1ab0
 6249 1a90 30       		.uleb128 0x30
 6250 1a91 14100000 		.4byte	.LASF187
 6251 1a95 04       		.byte	0x4
 6252 1a96 5001     		.2byte	0x150
 6253 1a98 4A090000 		.4byte	0x94a
 6254 1a9c 03       		.uleb128 0x3
 6255 1a9d 91       		.byte	0x91
 6256 1a9e BC7F     		.sleb128 -68
 6257 1aa0 2E       		.uleb128 0x2e
 6258 1aa1 72657400 		.ascii	"ret\000"
 6259 1aa5 04       		.byte	0x4
ARM GAS  C:\Users\PCHAUT~1\AppData\Local\Temp\ccIm8FNl.s 			page 112


 6260 1aa6 5201     		.2byte	0x152
 6261 1aa8 25000000 		.4byte	0x25
 6262 1aac 02       		.uleb128 0x2
 6263 1aad 91       		.byte	0x91
 6264 1aae 5C       		.sleb128 -36
 6265 1aaf 00       		.byte	0
 6266 1ab0 33       		.uleb128 0x33
 6267 1ab1 2A010000 		.4byte	.LBB26
 6268 1ab5 1C000000 		.4byte	.LBE26-.LBB26
 6269 1ab9 2E       		.uleb128 0x2e
 6270 1aba 72657400 		.ascii	"ret\000"
 6271 1abe 04       		.byte	0x4
 6272 1abf 5701     		.2byte	0x157
 6273 1ac1 25000000 		.4byte	0x25
 6274 1ac5 02       		.uleb128 0x2
 6275 1ac6 91       		.byte	0x91
 6276 1ac7 58       		.sleb128 -40
 6277 1ac8 00       		.byte	0
 6278 1ac9 00       		.byte	0
 6279 1aca 33       		.uleb128 0x33
 6280 1acb 46010000 		.4byte	.LBB28
 6281 1acf 62000000 		.4byte	.LBE28-.LBB28
 6282 1ad3 2E       		.uleb128 0x2e
 6283 1ad4 7000     		.ascii	"p\000"
 6284 1ad6 04       		.byte	0x4
 6285 1ad7 5D01     		.2byte	0x15d
 6286 1ad9 16160000 		.4byte	0x1616
 6287 1add 02       		.uleb128 0x2
 6288 1ade 91       		.byte	0x91
 6289 1adf 48       		.sleb128 -56
 6290 1ae0 35       		.uleb128 0x35
 6291 1ae1 70010000 		.4byte	.LBB29
 6292 1ae5 1C000000 		.4byte	.LBE29-.LBB29
 6293 1ae9 FD1A0000 		.4byte	0x1afd
 6294 1aed 2E       		.uleb128 0x2e
 6295 1aee 72657400 		.ascii	"ret\000"
 6296 1af2 04       		.byte	0x4
 6297 1af3 6301     		.2byte	0x163
 6298 1af5 25000000 		.4byte	0x25
 6299 1af9 02       		.uleb128 0x2
 6300 1afa 91       		.byte	0x91
 6301 1afb 50       		.sleb128 -48
 6302 1afc 00       		.byte	0
 6303 1afd 33       		.uleb128 0x33
 6304 1afe 8C010000 		.4byte	.LBB30
 6305 1b02 1C000000 		.4byte	.LBE30-.LBB30
 6306 1b06 2E       		.uleb128 0x2e
 6307 1b07 72657400 		.ascii	"ret\000"
 6308 1b0b 04       		.byte	0x4
 6309 1b0c 6801     		.2byte	0x168
 6310 1b0e 25000000 		.4byte	0x25
 6311 1b12 02       		.uleb128 0x2
 6312 1b13 91       		.byte	0x91
 6313 1b14 4C       		.sleb128 -52
 6314 1b15 00       		.byte	0
 6315 1b16 00       		.byte	0
 6316 1b17 00       		.byte	0
ARM GAS  C:\Users\PCHAUT~1\AppData\Local\Temp\ccIm8FNl.s 			page 113


 6317 1b18 00       		.byte	0
 6318 1b19 32       		.uleb128 0x32
 6319 1b1a 30050000 		.4byte	.LASF364
 6320 1b1e 04       		.byte	0x4
 6321 1b1f 1001     		.2byte	0x110
 6322 1b21 25000000 		.4byte	0x25
 6323 1b25 00000000 		.4byte	.LFB261
 6324 1b29 F8000000 		.4byte	.LFE261-.LFB261
 6325 1b2d 01       		.uleb128 0x1
 6326 1b2e 9C       		.byte	0x9c
 6327 1b2f 7D1B0000 		.4byte	0x1b7d
 6328 1b33 2C       		.uleb128 0x2c
 6329 1b34 7000     		.ascii	"p\000"
 6330 1b36 04       		.byte	0x4
 6331 1b37 1001     		.2byte	0x110
 6332 1b39 16160000 		.4byte	0x1616
 6333 1b3d 02       		.uleb128 0x2
 6334 1b3e 91       		.byte	0x91
 6335 1b3f 6C       		.sleb128 -20
 6336 1b40 2C       		.uleb128 0x2c
 6337 1b41 6F626A00 		.ascii	"obj\000"
 6338 1b45 04       		.byte	0x4
 6339 1b46 1101     		.2byte	0x111
 6340 1b48 7D1B0000 		.4byte	0x1b7d
 6341 1b4c 02       		.uleb128 0x2
 6342 1b4d 91       		.byte	0x91
 6343 1b4e 68       		.sleb128 -24
 6344 1b4f 2C       		.uleb128 0x2c
 6345 1b50 636D7000 		.ascii	"cmp\000"
 6346 1b54 04       		.byte	0x4
 6347 1b55 1201     		.2byte	0x112
 6348 1b57 F3170000 		.4byte	0x17f3
 6349 1b5b 02       		.uleb128 0x2
 6350 1b5c 91       		.byte	0x91
 6351 1b5d 64       		.sleb128 -28
 6352 1b5e 2D       		.uleb128 0x2d
 6353 1b5f 960B0000 		.4byte	.LASF351
 6354 1b63 04       		.byte	0x4
 6355 1b64 1301     		.2byte	0x113
 6356 1b66 F6160000 		.4byte	0x16f6
 6357 1b6a 02       		.uleb128 0x2
 6358 1b6b 91       		.byte	0x91
 6359 1b6c 60       		.sleb128 -32
 6360 1b6d 2D       		.uleb128 0x2d
 6361 1b6e FB030000 		.4byte	.LASF352
 6362 1b72 04       		.byte	0x4
 6363 1b73 1401     		.2byte	0x114
 6364 1b75 73010000 		.4byte	0x173
 6365 1b79 02       		.uleb128 0x2
 6366 1b7a 91       		.byte	0x91
 6367 1b7b 5C       		.sleb128 -36
 6368 1b7c 00       		.byte	0
 6369 1b7d 05       		.uleb128 0x5
 6370 1b7e 04       		.byte	0x4
 6371 1b7f 110C0000 		.4byte	0xc11
 6372 1b83 36       		.uleb128 0x36
 6373 1b84 180C0000 		.4byte	.LASF365
ARM GAS  C:\Users\PCHAUT~1\AppData\Local\Temp\ccIm8FNl.s 			page 114


 6374 1b88 04       		.byte	0x4
 6375 1b89 F2       		.byte	0xf2
 6376 1b8a 25000000 		.4byte	0x25
 6377 1b8e 00000000 		.4byte	.LFB260
 6378 1b92 20010000 		.4byte	.LFE260-.LFB260
 6379 1b96 01       		.uleb128 0x1
 6380 1b97 9C       		.byte	0x9c
 6381 1b98 FE1B0000 		.4byte	0x1bfe
 6382 1b9c 37       		.uleb128 0x37
 6383 1b9d 7000     		.ascii	"p\000"
 6384 1b9f 04       		.byte	0x4
 6385 1ba0 F2       		.byte	0xf2
 6386 1ba1 16160000 		.4byte	0x1616
 6387 1ba5 02       		.uleb128 0x2
 6388 1ba6 91       		.byte	0x91
 6389 1ba7 64       		.sleb128 -28
 6390 1ba8 37       		.uleb128 0x37
 6391 1ba9 6F626A00 		.ascii	"obj\000"
 6392 1bad 04       		.byte	0x4
 6393 1bae F3       		.byte	0xf3
 6394 1baf 7D1B0000 		.4byte	0x1b7d
 6395 1bb3 02       		.uleb128 0x2
 6396 1bb4 91       		.byte	0x91
 6397 1bb5 60       		.sleb128 -32
 6398 1bb6 37       		.uleb128 0x37
 6399 1bb7 636D7000 		.ascii	"cmp\000"
 6400 1bbb 04       		.byte	0x4
 6401 1bbc F4       		.byte	0xf4
 6402 1bbd F3170000 		.4byte	0x17f3
 6403 1bc1 02       		.uleb128 0x2
 6404 1bc2 91       		.byte	0x91
 6405 1bc3 5C       		.sleb128 -36
 6406 1bc4 38       		.uleb128 0x38
 6407 1bc5 960B0000 		.4byte	.LASF351
 6408 1bc9 04       		.byte	0x4
 6409 1bca F5       		.byte	0xf5
 6410 1bcb F6160000 		.4byte	0x16f6
 6411 1bcf 02       		.uleb128 0x2
 6412 1bd0 91       		.byte	0x91
 6413 1bd1 58       		.sleb128 -40
 6414 1bd2 38       		.uleb128 0x38
 6415 1bd3 FB030000 		.4byte	.LASF352
 6416 1bd7 04       		.byte	0x4
 6417 1bd8 F6       		.byte	0xf6
 6418 1bd9 73010000 		.4byte	0x173
 6419 1bdd 02       		.uleb128 0x2
 6420 1bde 91       		.byte	0x91
 6421 1bdf 54       		.sleb128 -44
 6422 1be0 39       		.uleb128 0x39
 6423 1be1 DB0F0000 		.4byte	.LASF366
 6424 1be5 04       		.byte	0x4
 6425 1be6 F8       		.byte	0xf8
 6426 1be7 4A090000 		.4byte	0x94a
 6427 1beb 02       		.uleb128 0x2
 6428 1bec 91       		.byte	0x91
 6429 1bed 6C       		.sleb128 -20
 6430 1bee 30       		.uleb128 0x30
ARM GAS  C:\Users\PCHAUT~1\AppData\Local\Temp\ccIm8FNl.s 			page 115


 6431 1bef EE010000 		.4byte	.LASF367
 6432 1bf3 04       		.byte	0x4
 6433 1bf4 0101     		.2byte	0x101
 6434 1bf6 75010000 		.4byte	0x175
 6435 1bfa 02       		.uleb128 0x2
 6436 1bfb 91       		.byte	0x91
 6437 1bfc 70       		.sleb128 -16
 6438 1bfd 00       		.byte	0
 6439 1bfe 36       		.uleb128 0x36
 6440 1bff 1E0B0000 		.4byte	.LASF368
 6441 1c03 04       		.byte	0x4
 6442 1c04 C9       		.byte	0xc9
 6443 1c05 25000000 		.4byte	0x25
 6444 1c09 00000000 		.4byte	.LFB259
 6445 1c0d 2C010000 		.4byte	.LFE259-.LFB259
 6446 1c11 01       		.uleb128 0x1
 6447 1c12 9C       		.byte	0x9c
 6448 1c13 E01C0000 		.4byte	0x1ce0
 6449 1c17 37       		.uleb128 0x37
 6450 1c18 7000     		.ascii	"p\000"
 6451 1c1a 04       		.byte	0x4
 6452 1c1b C9       		.byte	0xc9
 6453 1c1c 16160000 		.4byte	0x1616
 6454 1c20 02       		.uleb128 0x2
 6455 1c21 91       		.byte	0x91
 6456 1c22 54       		.sleb128 -44
 6457 1c23 37       		.uleb128 0x37
 6458 1c24 6F626A00 		.ascii	"obj\000"
 6459 1c28 04       		.byte	0x4
 6460 1c29 CA       		.byte	0xca
 6461 1c2a 7D1B0000 		.4byte	0x1b7d
 6462 1c2e 02       		.uleb128 0x2
 6463 1c2f 91       		.byte	0x91
 6464 1c30 50       		.sleb128 -48
 6465 1c31 37       		.uleb128 0x37
 6466 1c32 636D7000 		.ascii	"cmp\000"
 6467 1c36 04       		.byte	0x4
 6468 1c37 CB       		.byte	0xcb
 6469 1c38 F3170000 		.4byte	0x17f3
 6470 1c3c 02       		.uleb128 0x2
 6471 1c3d 91       		.byte	0x91
 6472 1c3e 4C       		.sleb128 -52
 6473 1c3f 38       		.uleb128 0x38
 6474 1c40 960B0000 		.4byte	.LASF351
 6475 1c44 04       		.byte	0x4
 6476 1c45 CC       		.byte	0xcc
 6477 1c46 F6160000 		.4byte	0x16f6
 6478 1c4a 02       		.uleb128 0x2
 6479 1c4b 91       		.byte	0x91
 6480 1c4c 48       		.sleb128 -56
 6481 1c4d 38       		.uleb128 0x38
 6482 1c4e FB030000 		.4byte	.LASF352
 6483 1c52 04       		.byte	0x4
 6484 1c53 CD       		.byte	0xcd
 6485 1c54 73010000 		.4byte	0x173
 6486 1c58 02       		.uleb128 0x2
 6487 1c59 91       		.byte	0x91
ARM GAS  C:\Users\PCHAUT~1\AppData\Local\Temp\ccIm8FNl.s 			page 116


 6488 1c5a 44       		.sleb128 -60
 6489 1c5b 39       		.uleb128 0x39
 6490 1c5c 20120000 		.4byte	.LASF186
 6491 1c60 04       		.byte	0x4
 6492 1c61 CF       		.byte	0xcf
 6493 1c62 4A090000 		.4byte	0x94a
 6494 1c66 02       		.uleb128 0x2
 6495 1c67 91       		.byte	0x91
 6496 1c68 5C       		.sleb128 -36
 6497 1c69 35       		.uleb128 0x35
 6498 1c6a 26000000 		.4byte	.LBB19
 6499 1c6e B2000000 		.4byte	.LBE19-.LBB19
 6500 1c72 C71C0000 		.4byte	0x1cc7
 6501 1c76 3A       		.uleb128 0x3a
 6502 1c77 62756600 		.ascii	"buf\000"
 6503 1c7b 04       		.byte	0x4
 6504 1c7c D8       		.byte	0xd8
 6505 1c7d 7E160000 		.4byte	0x167e
 6506 1c81 02       		.uleb128 0x2
 6507 1c82 91       		.byte	0x91
 6508 1c83 68       		.sleb128 -24
 6509 1c84 3A       		.uleb128 0x3a
 6510 1c85 72657400 		.ascii	"ret\000"
 6511 1c89 04       		.byte	0x4
 6512 1c8a E0       		.byte	0xe0
 6513 1c8b 25000000 		.4byte	0x25
 6514 1c8f 02       		.uleb128 0x2
 6515 1c90 91       		.byte	0x91
 6516 1c91 70       		.sleb128 -16
 6517 1c92 35       		.uleb128 0x35
 6518 1c93 32000000 		.4byte	.LBB20
 6519 1c97 2A000000 		.4byte	.LBE20-.LBB20
 6520 1c9b AE1C0000 		.4byte	0x1cae
 6521 1c9f 3A       		.uleb128 0x3a
 6522 1ca0 72657400 		.ascii	"ret\000"
 6523 1ca4 04       		.byte	0x4
 6524 1ca5 D3       		.byte	0xd3
 6525 1ca6 25000000 		.4byte	0x25
 6526 1caa 02       		.uleb128 0x2
 6527 1cab 91       		.byte	0x91
 6528 1cac 64       		.sleb128 -28
 6529 1cad 00       		.byte	0
 6530 1cae 33       		.uleb128 0x33
 6531 1caf 70000000 		.4byte	.LBB21
 6532 1cb3 2A000000 		.4byte	.LBE21-.LBB21
 6533 1cb7 3A       		.uleb128 0x3a
 6534 1cb8 72657400 		.ascii	"ret\000"
 6535 1cbc 04       		.byte	0x4
 6536 1cbd DB       		.byte	0xdb
 6537 1cbe 25000000 		.4byte	0x25
 6538 1cc2 02       		.uleb128 0x2
 6539 1cc3 91       		.byte	0x91
 6540 1cc4 6C       		.sleb128 -20
 6541 1cc5 00       		.byte	0
 6542 1cc6 00       		.byte	0
 6543 1cc7 33       		.uleb128 0x33
 6544 1cc8 DA000000 		.4byte	.LBB22
ARM GAS  C:\Users\PCHAUT~1\AppData\Local\Temp\ccIm8FNl.s 			page 117


 6545 1ccc 2A000000 		.4byte	.LBE22-.LBB22
 6546 1cd0 3A       		.uleb128 0x3a
 6547 1cd1 72657400 		.ascii	"ret\000"
 6548 1cd5 04       		.byte	0x4
 6549 1cd6 E9       		.byte	0xe9
 6550 1cd7 25000000 		.4byte	0x25
 6551 1cdb 02       		.uleb128 0x2
 6552 1cdc 91       		.byte	0x91
 6553 1cdd 60       		.sleb128 -32
 6554 1cde 00       		.byte	0
 6555 1cdf 00       		.byte	0
 6556 1ce0 36       		.uleb128 0x36
 6557 1ce1 DD0A0000 		.4byte	.LASF369
 6558 1ce5 04       		.byte	0x4
 6559 1ce6 A1       		.byte	0xa1
 6560 1ce7 25000000 		.4byte	0x25
 6561 1ceb 00000000 		.4byte	.LFB258
 6562 1cef 28010000 		.4byte	.LFE258-.LFB258
 6563 1cf3 01       		.uleb128 0x1
 6564 1cf4 9C       		.byte	0x9c
 6565 1cf5 C21D0000 		.4byte	0x1dc2
 6566 1cf9 37       		.uleb128 0x37
 6567 1cfa 7000     		.ascii	"p\000"
 6568 1cfc 04       		.byte	0x4
 6569 1cfd A1       		.byte	0xa1
 6570 1cfe 16160000 		.4byte	0x1616
 6571 1d02 02       		.uleb128 0x2
 6572 1d03 91       		.byte	0x91
 6573 1d04 54       		.sleb128 -44
 6574 1d05 37       		.uleb128 0x37
 6575 1d06 6F626A00 		.ascii	"obj\000"
 6576 1d0a 04       		.byte	0x4
 6577 1d0b A2       		.byte	0xa2
 6578 1d0c 7D1B0000 		.4byte	0x1b7d
 6579 1d10 02       		.uleb128 0x2
 6580 1d11 91       		.byte	0x91
 6581 1d12 50       		.sleb128 -48
 6582 1d13 37       		.uleb128 0x37
 6583 1d14 636D7000 		.ascii	"cmp\000"
 6584 1d18 04       		.byte	0x4
 6585 1d19 A3       		.byte	0xa3
 6586 1d1a F3170000 		.4byte	0x17f3
 6587 1d1e 02       		.uleb128 0x2
 6588 1d1f 91       		.byte	0x91
 6589 1d20 4C       		.sleb128 -52
 6590 1d21 38       		.uleb128 0x38
 6591 1d22 960B0000 		.4byte	.LASF351
 6592 1d26 04       		.byte	0x4
 6593 1d27 A4       		.byte	0xa4
 6594 1d28 F6160000 		.4byte	0x16f6
 6595 1d2c 02       		.uleb128 0x2
 6596 1d2d 91       		.byte	0x91
 6597 1d2e 48       		.sleb128 -56
 6598 1d2f 38       		.uleb128 0x38
 6599 1d30 FB030000 		.4byte	.LASF352
 6600 1d34 04       		.byte	0x4
 6601 1d35 A5       		.byte	0xa5
ARM GAS  C:\Users\PCHAUT~1\AppData\Local\Temp\ccIm8FNl.s 			page 118


 6602 1d36 73010000 		.4byte	0x173
 6603 1d3a 02       		.uleb128 0x2
 6604 1d3b 91       		.byte	0x91
 6605 1d3c 44       		.sleb128 -60
 6606 1d3d 39       		.uleb128 0x39
 6607 1d3e 20120000 		.4byte	.LASF186
 6608 1d42 04       		.byte	0x4
 6609 1d43 A7       		.byte	0xa7
 6610 1d44 4A090000 		.4byte	0x94a
 6611 1d48 02       		.uleb128 0x2
 6612 1d49 91       		.byte	0x91
 6613 1d4a 5C       		.sleb128 -36
 6614 1d4b 35       		.uleb128 0x35
 6615 1d4c 26000000 		.4byte	.LBB15
 6616 1d50 AC000000 		.4byte	.LBE15-.LBB15
 6617 1d54 A91D0000 		.4byte	0x1da9
 6618 1d58 3A       		.uleb128 0x3a
 6619 1d59 62756600 		.ascii	"buf\000"
 6620 1d5d 04       		.byte	0x4
 6621 1d5e B0       		.byte	0xb0
 6622 1d5f 7E160000 		.4byte	0x167e
 6623 1d63 02       		.uleb128 0x2
 6624 1d64 91       		.byte	0x91
 6625 1d65 68       		.sleb128 -24
 6626 1d66 3A       		.uleb128 0x3a
 6627 1d67 72657400 		.ascii	"ret\000"
 6628 1d6b 04       		.byte	0x4
 6629 1d6c B8       		.byte	0xb8
 6630 1d6d 25000000 		.4byte	0x25
 6631 1d71 02       		.uleb128 0x2
 6632 1d72 91       		.byte	0x91
 6633 1d73 70       		.sleb128 -16
 6634 1d74 35       		.uleb128 0x35
 6635 1d75 32000000 		.4byte	.LBB16
 6636 1d79 2A000000 		.4byte	.LBE16-.LBB16
 6637 1d7d 901D0000 		.4byte	0x1d90
 6638 1d81 3A       		.uleb128 0x3a
 6639 1d82 72657400 		.ascii	"ret\000"
 6640 1d86 04       		.byte	0x4
 6641 1d87 AB       		.byte	0xab
 6642 1d88 25000000 		.4byte	0x25
 6643 1d8c 02       		.uleb128 0x2
 6644 1d8d 91       		.byte	0x91
 6645 1d8e 64       		.sleb128 -28
 6646 1d8f 00       		.byte	0
 6647 1d90 33       		.uleb128 0x33
 6648 1d91 70000000 		.4byte	.LBB17
 6649 1d95 2A000000 		.4byte	.LBE17-.LBB17
 6650 1d99 3A       		.uleb128 0x3a
 6651 1d9a 72657400 		.ascii	"ret\000"
 6652 1d9e 04       		.byte	0x4
 6653 1d9f B3       		.byte	0xb3
 6654 1da0 25000000 		.4byte	0x25
 6655 1da4 02       		.uleb128 0x2
 6656 1da5 91       		.byte	0x91
 6657 1da6 6C       		.sleb128 -20
 6658 1da7 00       		.byte	0
ARM GAS  C:\Users\PCHAUT~1\AppData\Local\Temp\ccIm8FNl.s 			page 119


 6659 1da8 00       		.byte	0
 6660 1da9 33       		.uleb128 0x33
 6661 1daa D4000000 		.4byte	.LBB18
 6662 1dae 2A000000 		.4byte	.LBE18-.LBB18
 6663 1db2 3A       		.uleb128 0x3a
 6664 1db3 72657400 		.ascii	"ret\000"
 6665 1db7 04       		.byte	0x4
 6666 1db8 C1       		.byte	0xc1
 6667 1db9 25000000 		.4byte	0x25
 6668 1dbd 02       		.uleb128 0x2
 6669 1dbe 91       		.byte	0x91
 6670 1dbf 60       		.sleb128 -32
 6671 1dc0 00       		.byte	0
 6672 1dc1 00       		.byte	0
 6673 1dc2 36       		.uleb128 0x36
 6674 1dc3 CF000000 		.4byte	.LASF370
 6675 1dc7 04       		.byte	0x4
 6676 1dc8 8E       		.byte	0x8e
 6677 1dc9 95090000 		.4byte	0x995
 6678 1dcd 00000000 		.4byte	.LFB257
 6679 1dd1 8C000000 		.4byte	.LFE257-.LFB257
 6680 1dd5 01       		.uleb128 0x1
 6681 1dd6 9C       		.byte	0x9c
 6682 1dd7 441E0000 		.4byte	0x1e44
 6683 1ddb 37       		.uleb128 0x37
 6684 1ddc 7000     		.ascii	"p\000"
 6685 1dde 04       		.byte	0x4
 6686 1ddf 8E       		.byte	0x8e
 6687 1de0 16160000 		.4byte	0x1616
 6688 1de4 02       		.uleb128 0x2
 6689 1de5 91       		.byte	0x91
 6690 1de6 64       		.sleb128 -28
 6691 1de7 37       		.uleb128 0x37
 6692 1de8 6F626A00 		.ascii	"obj\000"
 6693 1dec 04       		.byte	0x4
 6694 1ded 8F       		.byte	0x8f
 6695 1dee 7D1B0000 		.4byte	0x1b7d
 6696 1df2 02       		.uleb128 0x2
 6697 1df3 91       		.byte	0x91
 6698 1df4 60       		.sleb128 -32
 6699 1df5 37       		.uleb128 0x37
 6700 1df6 636D7000 		.ascii	"cmp\000"
 6701 1dfa 04       		.byte	0x4
 6702 1dfb 90       		.byte	0x90
 6703 1dfc F3170000 		.4byte	0x17f3
 6704 1e00 02       		.uleb128 0x2
 6705 1e01 91       		.byte	0x91
 6706 1e02 5C       		.sleb128 -36
 6707 1e03 38       		.uleb128 0x38
 6708 1e04 960B0000 		.4byte	.LASF351
 6709 1e08 04       		.byte	0x4
 6710 1e09 91       		.byte	0x91
 6711 1e0a F6160000 		.4byte	0x16f6
 6712 1e0e 02       		.uleb128 0x2
 6713 1e0f 91       		.byte	0x91
 6714 1e10 58       		.sleb128 -40
 6715 1e11 38       		.uleb128 0x38
ARM GAS  C:\Users\PCHAUT~1\AppData\Local\Temp\ccIm8FNl.s 			page 120


 6716 1e12 FB030000 		.4byte	.LASF352
 6717 1e16 04       		.byte	0x4
 6718 1e17 92       		.byte	0x92
 6719 1e18 73010000 		.4byte	0x173
 6720 1e1c 02       		.uleb128 0x2
 6721 1e1d 91       		.byte	0x91
 6722 1e1e 54       		.sleb128 -44
 6723 1e1f 3A       		.uleb128 0x3a
 6724 1e20 7600     		.ascii	"v\000"
 6725 1e22 04       		.byte	0x4
 6726 1e23 94       		.byte	0x94
 6727 1e24 95090000 		.4byte	0x995
 6728 1e28 02       		.uleb128 0x2
 6729 1e29 91       		.byte	0x91
 6730 1e2a 6F       		.sleb128 -17
 6731 1e2b 33       		.uleb128 0x33
 6732 1e2c 36000000 		.4byte	.LBB14
 6733 1e30 34000000 		.4byte	.LBE14-.LBB14
 6734 1e34 3A       		.uleb128 0x3a
 6735 1e35 72657400 		.ascii	"ret\000"
 6736 1e39 04       		.byte	0x4
 6737 1e3a 99       		.byte	0x99
 6738 1e3b 25000000 		.4byte	0x25
 6739 1e3f 02       		.uleb128 0x2
 6740 1e40 91       		.byte	0x91
 6741 1e41 70       		.sleb128 -16
 6742 1e42 00       		.byte	0
 6743 1e43 00       		.byte	0
 6744 1e44 36       		.uleb128 0x36
 6745 1e45 33120000 		.4byte	.LASF371
 6746 1e49 04       		.byte	0x4
 6747 1e4a 7B       		.byte	0x7b
 6748 1e4b 25000000 		.4byte	0x25
 6749 1e4f 00000000 		.4byte	.LFB256
 6750 1e53 7C000000 		.4byte	.LFE256-.LFB256
 6751 1e57 01       		.uleb128 0x1
 6752 1e58 9C       		.byte	0x9c
 6753 1e59 C61E0000 		.4byte	0x1ec6
 6754 1e5d 37       		.uleb128 0x37
 6755 1e5e 7000     		.ascii	"p\000"
 6756 1e60 04       		.byte	0x4
 6757 1e61 7B       		.byte	0x7b
 6758 1e62 16160000 		.4byte	0x1616
 6759 1e66 02       		.uleb128 0x2
 6760 1e67 91       		.byte	0x91
 6761 1e68 64       		.sleb128 -28
 6762 1e69 37       		.uleb128 0x37
 6763 1e6a 6F626A00 		.ascii	"obj\000"
 6764 1e6e 04       		.byte	0x4
 6765 1e6f 7C       		.byte	0x7c
 6766 1e70 7D1B0000 		.4byte	0x1b7d
 6767 1e74 02       		.uleb128 0x2
 6768 1e75 91       		.byte	0x91
 6769 1e76 60       		.sleb128 -32
 6770 1e77 37       		.uleb128 0x37
 6771 1e78 636D7000 		.ascii	"cmp\000"
 6772 1e7c 04       		.byte	0x4
ARM GAS  C:\Users\PCHAUT~1\AppData\Local\Temp\ccIm8FNl.s 			page 121


 6773 1e7d 7D       		.byte	0x7d
 6774 1e7e F3170000 		.4byte	0x17f3
 6775 1e82 02       		.uleb128 0x2
 6776 1e83 91       		.byte	0x91
 6777 1e84 5C       		.sleb128 -36
 6778 1e85 38       		.uleb128 0x38
 6779 1e86 960B0000 		.4byte	.LASF351
 6780 1e8a 04       		.byte	0x4
 6781 1e8b 7E       		.byte	0x7e
 6782 1e8c F6160000 		.4byte	0x16f6
 6783 1e90 02       		.uleb128 0x2
 6784 1e91 91       		.byte	0x91
 6785 1e92 58       		.sleb128 -40
 6786 1e93 38       		.uleb128 0x38
 6787 1e94 FB030000 		.4byte	.LASF352
 6788 1e98 04       		.byte	0x4
 6789 1e99 7F       		.byte	0x7f
 6790 1e9a 73010000 		.4byte	0x173
 6791 1e9e 02       		.uleb128 0x2
 6792 1e9f 91       		.byte	0x91
 6793 1ea0 54       		.sleb128 -44
 6794 1ea1 3A       		.uleb128 0x3a
 6795 1ea2 7600     		.ascii	"v\000"
 6796 1ea4 04       		.byte	0x4
 6797 1ea5 81       		.byte	0x81
 6798 1ea6 3A090000 		.4byte	0x93a
 6799 1eaa 02       		.uleb128 0x2
 6800 1eab 91       		.byte	0x91
 6801 1eac 6C       		.sleb128 -20
 6802 1ead 33       		.uleb128 0x33
 6803 1eae 32000000 		.4byte	.LBB13
 6804 1eb2 2A000000 		.4byte	.LBE13-.LBB13
 6805 1eb6 3A       		.uleb128 0x3a
 6806 1eb7 72657400 		.ascii	"ret\000"
 6807 1ebb 04       		.byte	0x4
 6808 1ebc 86       		.byte	0x86
 6809 1ebd 25000000 		.4byte	0x25
 6810 1ec1 02       		.uleb128 0x2
 6811 1ec2 91       		.byte	0x91
 6812 1ec3 70       		.sleb128 -16
 6813 1ec4 00       		.byte	0
 6814 1ec5 00       		.byte	0
 6815 1ec6 36       		.uleb128 0x36
 6816 1ec7 E70D0000 		.4byte	.LASF372
 6817 1ecb 04       		.byte	0x4
 6818 1ecc 68       		.byte	0x68
 6819 1ecd 25000000 		.4byte	0x25
 6820 1ed1 00000000 		.4byte	.LFB255
 6821 1ed5 80000000 		.4byte	.LFE255-.LFB255
 6822 1ed9 01       		.uleb128 0x1
 6823 1eda 9C       		.byte	0x9c
 6824 1edb 481F0000 		.4byte	0x1f48
 6825 1edf 37       		.uleb128 0x37
 6826 1ee0 7000     		.ascii	"p\000"
 6827 1ee2 04       		.byte	0x4
 6828 1ee3 68       		.byte	0x68
 6829 1ee4 16160000 		.4byte	0x1616
ARM GAS  C:\Users\PCHAUT~1\AppData\Local\Temp\ccIm8FNl.s 			page 122


 6830 1ee8 02       		.uleb128 0x2
 6831 1ee9 91       		.byte	0x91
 6832 1eea 64       		.sleb128 -28
 6833 1eeb 37       		.uleb128 0x37
 6834 1eec 6F626A00 		.ascii	"obj\000"
 6835 1ef0 04       		.byte	0x4
 6836 1ef1 69       		.byte	0x69
 6837 1ef2 7D1B0000 		.4byte	0x1b7d
 6838 1ef6 02       		.uleb128 0x2
 6839 1ef7 91       		.byte	0x91
 6840 1ef8 60       		.sleb128 -32
 6841 1ef9 37       		.uleb128 0x37
 6842 1efa 636D7000 		.ascii	"cmp\000"
 6843 1efe 04       		.byte	0x4
 6844 1eff 6A       		.byte	0x6a
 6845 1f00 F3170000 		.4byte	0x17f3
 6846 1f04 02       		.uleb128 0x2
 6847 1f05 91       		.byte	0x91
 6848 1f06 5C       		.sleb128 -36
 6849 1f07 38       		.uleb128 0x38
 6850 1f08 960B0000 		.4byte	.LASF351
 6851 1f0c 04       		.byte	0x4
 6852 1f0d 6B       		.byte	0x6b
 6853 1f0e F6160000 		.4byte	0x16f6
 6854 1f12 02       		.uleb128 0x2
 6855 1f13 91       		.byte	0x91
 6856 1f14 58       		.sleb128 -40
 6857 1f15 38       		.uleb128 0x38
 6858 1f16 FB030000 		.4byte	.LASF352
 6859 1f1a 04       		.byte	0x4
 6860 1f1b 6C       		.byte	0x6c
 6861 1f1c 73010000 		.4byte	0x173
 6862 1f20 02       		.uleb128 0x2
 6863 1f21 91       		.byte	0x91
 6864 1f22 54       		.sleb128 -44
 6865 1f23 3A       		.uleb128 0x3a
 6866 1f24 7600     		.ascii	"v\000"
 6867 1f26 04       		.byte	0x4
 6868 1f27 6E       		.byte	0x6e
 6869 1f28 D40B0000 		.4byte	0xbd4
 6870 1f2c 02       		.uleb128 0x2
 6871 1f2d 91       		.byte	0x91
 6872 1f2e 6C       		.sleb128 -20
 6873 1f2f 33       		.uleb128 0x33
 6874 1f30 36000000 		.4byte	.LBB12
 6875 1f34 2A000000 		.4byte	.LBE12-.LBB12
 6876 1f38 3A       		.uleb128 0x3a
 6877 1f39 72657400 		.ascii	"ret\000"
 6878 1f3d 04       		.byte	0x4
 6879 1f3e 73       		.byte	0x73
 6880 1f3f 25000000 		.4byte	0x25
 6881 1f43 02       		.uleb128 0x2
 6882 1f44 91       		.byte	0x91
 6883 1f45 70       		.sleb128 -16
 6884 1f46 00       		.byte	0
 6885 1f47 00       		.byte	0
 6886 1f48 36       		.uleb128 0x36
ARM GAS  C:\Users\PCHAUT~1\AppData\Local\Temp\ccIm8FNl.s 			page 123


 6887 1f49 9C100000 		.4byte	.LASF373
 6888 1f4d 04       		.byte	0x4
 6889 1f4e 44       		.byte	0x44
 6890 1f4f 25000000 		.4byte	0x25
 6891 1f53 00000000 		.4byte	.LFB254
 6892 1f57 F4000000 		.4byte	.LFE254-.LFB254
 6893 1f5b 01       		.uleb128 0x1
 6894 1f5c 9C       		.byte	0x9c
 6895 1f5d 0E200000 		.4byte	0x200e
 6896 1f61 37       		.uleb128 0x37
 6897 1f62 636D7000 		.ascii	"cmp\000"
 6898 1f66 04       		.byte	0x4
 6899 1f67 44       		.byte	0x44
 6900 1f68 F3170000 		.4byte	0x17f3
 6901 1f6c 02       		.uleb128 0x2
 6902 1f6d 91       		.byte	0x91
 6903 1f6e 4C       		.sleb128 -52
 6904 1f6f 37       		.uleb128 0x37
 6905 1f70 62756600 		.ascii	"buf\000"
 6906 1f74 04       		.byte	0x4
 6907 1f75 45       		.byte	0x45
 6908 1f76 7E160000 		.4byte	0x167e
 6909 1f7a 02       		.uleb128 0x2
 6910 1f7b 91       		.byte	0x91
 6911 1f7c 48       		.sleb128 -56
 6912 1f7d 37       		.uleb128 0x37
 6913 1f7e 6C656E00 		.ascii	"len\000"
 6914 1f82 04       		.byte	0x4
 6915 1f83 46       		.byte	0x46
 6916 1f84 25000000 		.4byte	0x25
 6917 1f88 02       		.uleb128 0x2
 6918 1f89 91       		.byte	0x91
 6919 1f8a 44       		.sleb128 -60
 6920 1f8b 38       		.uleb128 0x38
 6921 1f8c 960B0000 		.4byte	.LASF351
 6922 1f90 04       		.byte	0x4
 6923 1f91 47       		.byte	0x47
 6924 1f92 F6160000 		.4byte	0x16f6
 6925 1f96 02       		.uleb128 0x2
 6926 1f97 91       		.byte	0x91
 6927 1f98 40       		.sleb128 -64
 6928 1f99 38       		.uleb128 0x38
 6929 1f9a FB030000 		.4byte	.LASF352
 6930 1f9e 04       		.byte	0x4
 6931 1f9f 48       		.byte	0x48
 6932 1fa0 73010000 		.4byte	0x173
 6933 1fa4 03       		.uleb128 0x3
 6934 1fa5 91       		.byte	0x91
 6935 1fa6 BC7F     		.sleb128 -68
 6936 1fa8 38       		.uleb128 0x38
 6937 1fa9 A10E0000 		.4byte	.LASF374
 6938 1fad 04       		.byte	0x4
 6939 1fae 49       		.byte	0x49
 6940 1faf F3050000 		.4byte	0x5f3
 6941 1fb3 03       		.uleb128 0x3
 6942 1fb4 91       		.byte	0x91
 6943 1fb5 B87F     		.sleb128 -72
ARM GAS  C:\Users\PCHAUT~1\AppData\Local\Temp\ccIm8FNl.s 			page 124


 6944 1fb7 3A       		.uleb128 0x3a
 6945 1fb8 65727200 		.ascii	"err\000"
 6946 1fbc 04       		.byte	0x4
 6947 1fbd 4B       		.byte	0x4b
 6948 1fbe 95090000 		.4byte	0x995
 6949 1fc2 02       		.uleb128 0x2
 6950 1fc3 91       		.byte	0x91
 6951 1fc4 53       		.sleb128 -45
 6952 1fc5 3A       		.uleb128 0x3a
 6953 1fc6 6900     		.ascii	"i\000"
 6954 1fc8 04       		.byte	0x4
 6955 1fc9 4C       		.byte	0x4c
 6956 1fca 25000000 		.4byte	0x25
 6957 1fce 02       		.uleb128 0x2
 6958 1fcf 91       		.byte	0x91
 6959 1fd0 58       		.sleb128 -40
 6960 1fd1 33       		.uleb128 0x33
 6961 1fd2 26000000 		.4byte	.LBB10
 6962 1fd6 8E000000 		.4byte	.LBE10-.LBB10
 6963 1fda 3A       		.uleb128 0x3a
 6964 1fdb 6F626A00 		.ascii	"obj\000"
 6965 1fdf 04       		.byte	0x4
 6966 1fe0 4E       		.byte	0x4e
 6967 1fe1 110C0000 		.4byte	0xc11
 6968 1fe5 02       		.uleb128 0x2
 6969 1fe6 91       		.byte	0x91
 6970 1fe7 60       		.sleb128 -32
 6971 1fe8 3A       		.uleb128 0x3a
 6972 1fe9 7600     		.ascii	"v\000"
 6973 1feb 04       		.byte	0x4
 6974 1fec 53       		.byte	0x53
 6975 1fed D40B0000 		.4byte	0xbd4
 6976 1ff1 02       		.uleb128 0x2
 6977 1ff2 91       		.byte	0x91
 6978 1ff3 54       		.sleb128 -44
 6979 1ff4 33       		.uleb128 0x33
 6980 1ff5 7A000000 		.4byte	.LBB11
 6981 1ff9 3A000000 		.4byte	.LBE11-.LBB11
 6982 1ffd 3A       		.uleb128 0x3a
 6983 1ffe 72657400 		.ascii	"ret\000"
 6984 2002 04       		.byte	0x4
 6985 2003 5B       		.byte	0x5b
 6986 2004 25000000 		.4byte	0x25
 6987 2008 02       		.uleb128 0x2
 6988 2009 91       		.byte	0x91
 6989 200a 5C       		.sleb128 -36
 6990 200b 00       		.byte	0
 6991 200c 00       		.byte	0
 6992 200d 00       		.byte	0
 6993 200e 36       		.uleb128 0x36
 6994 200f CF110000 		.4byte	.LASF375
 6995 2013 04       		.byte	0x4
 6996 2014 3C       		.byte	0x3c
 6997 2015 95090000 		.4byte	0x995
 6998 2019 00000000 		.4byte	.LFB253
 6999 201d 3C000000 		.4byte	.LFE253-.LFB253
 7000 2021 01       		.uleb128 0x1
ARM GAS  C:\Users\PCHAUT~1\AppData\Local\Temp\ccIm8FNl.s 			page 125


 7001 2022 9C       		.byte	0x9c
 7002 2023 44200000 		.4byte	0x2044
 7003 2027 37       		.uleb128 0x37
 7004 2028 6F626A00 		.ascii	"obj\000"
 7005 202c 04       		.byte	0x4
 7006 202d 3C       		.byte	0x3c
 7007 202e 7D1B0000 		.4byte	0x1b7d
 7008 2032 02       		.uleb128 0x2
 7009 2033 91       		.byte	0x91
 7010 2034 6C       		.sleb128 -20
 7011 2035 37       		.uleb128 0x37
 7012 2036 6F757400 		.ascii	"out\000"
 7013 203a 04       		.byte	0x4
 7014 203b 3C       		.byte	0x3c
 7015 203c 44200000 		.4byte	0x2044
 7016 2040 02       		.uleb128 0x2
 7017 2041 91       		.byte	0x91
 7018 2042 68       		.sleb128 -24
 7019 2043 00       		.byte	0
 7020 2044 05       		.uleb128 0x5
 7021 2045 04       		.byte	0x4
 7022 2046 95090000 		.4byte	0x995
 7023 204a 36       		.uleb128 0x36
 7024 204b 82030000 		.4byte	.LASF376
 7025 204f 04       		.byte	0x4
 7026 2050 34       		.byte	0x34
 7027 2051 95090000 		.4byte	0x995
 7028 2055 00000000 		.4byte	.LFB252
 7029 2059 3C000000 		.4byte	.LFE252-.LFB252
 7030 205d 01       		.uleb128 0x1
 7031 205e 9C       		.byte	0x9c
 7032 205f 80200000 		.4byte	0x2080
 7033 2063 37       		.uleb128 0x37
 7034 2064 6F626A00 		.ascii	"obj\000"
 7035 2068 04       		.byte	0x4
 7036 2069 34       		.byte	0x34
 7037 206a 7D1B0000 		.4byte	0x1b7d
 7038 206e 02       		.uleb128 0x2
 7039 206f 91       		.byte	0x91
 7040 2070 6C       		.sleb128 -20
 7041 2071 37       		.uleb128 0x37
 7042 2072 6F757400 		.ascii	"out\000"
 7043 2076 04       		.byte	0x4
 7044 2077 34       		.byte	0x34
 7045 2078 80200000 		.4byte	0x2080
 7046 207c 02       		.uleb128 0x2
 7047 207d 91       		.byte	0x91
 7048 207e 68       		.sleb128 -24
 7049 207f 00       		.byte	0
 7050 2080 05       		.uleb128 0x5
 7051 2081 04       		.byte	0x4
 7052 2082 3A090000 		.4byte	0x93a
 7053 2086 36       		.uleb128 0x36
 7054 2087 050C0000 		.4byte	.LASF377
 7055 208b 04       		.byte	0x4
 7056 208c 26       		.byte	0x26
 7057 208d 95090000 		.4byte	0x995
ARM GAS  C:\Users\PCHAUT~1\AppData\Local\Temp\ccIm8FNl.s 			page 126


 7058 2091 00000000 		.4byte	.LFB251
 7059 2095 68000000 		.4byte	.LFE251-.LFB251
 7060 2099 01       		.uleb128 0x1
 7061 209a 9C       		.byte	0x9c
 7062 209b D8200000 		.4byte	0x20d8
 7063 209f 37       		.uleb128 0x37
 7064 20a0 6F626A00 		.ascii	"obj\000"
 7065 20a4 04       		.byte	0x4
 7066 20a5 26       		.byte	0x26
 7067 20a6 7D1B0000 		.4byte	0x1b7d
 7068 20aa 02       		.uleb128 0x2
 7069 20ab 91       		.byte	0x91
 7070 20ac 5C       		.sleb128 -36
 7071 20ad 37       		.uleb128 0x37
 7072 20ae 6F757400 		.ascii	"out\000"
 7073 20b2 04       		.byte	0x4
 7074 20b3 26       		.byte	0x26
 7075 20b4 7E160000 		.4byte	0x167e
 7076 20b8 02       		.uleb128 0x2
 7077 20b9 91       		.byte	0x91
 7078 20ba 58       		.sleb128 -40
 7079 20bb 39       		.uleb128 0x39
 7080 20bc 19020000 		.4byte	.LASF378
 7081 20c0 04       		.byte	0x4
 7082 20c1 28       		.byte	0x28
 7083 20c2 D40B0000 		.4byte	0xbd4
 7084 20c6 02       		.uleb128 0x2
 7085 20c7 91       		.byte	0x91
 7086 20c8 64       		.sleb128 -28
 7087 20c9 39       		.uleb128 0x39
 7088 20ca 2C020000 		.4byte	.LASF379
 7089 20ce 04       		.byte	0x4
 7090 20cf 29       		.byte	0x29
 7091 20d0 55090000 		.4byte	0x955
 7092 20d4 02       		.uleb128 0x2
 7093 20d5 91       		.byte	0x91
 7094 20d6 68       		.sleb128 -24
 7095 20d7 00       		.byte	0
 7096 20d8 36       		.uleb128 0x36
 7097 20d9 97000000 		.4byte	.LASF380
 7098 20dd 04       		.byte	0x4
 7099 20de 07       		.byte	0x7
 7100 20df 25000000 		.4byte	0x25
 7101 20e3 00000000 		.4byte	.LFB250
 7102 20e7 E0000000 		.4byte	.LFE250-.LFB250
 7103 20eb 01       		.uleb128 0x1
 7104 20ec 9C       		.byte	0x9c
 7105 20ed 38210000 		.4byte	0x2138
 7106 20f1 37       		.uleb128 0x37
 7107 20f2 6F626A00 		.ascii	"obj\000"
 7108 20f6 04       		.byte	0x4
 7109 20f7 07       		.byte	0x7
 7110 20f8 7D1B0000 		.4byte	0x1b7d
 7111 20fc 02       		.uleb128 0x2
 7112 20fd 91       		.byte	0x91
 7113 20fe 6C       		.sleb128 -20
 7114 20ff 37       		.uleb128 0x37
ARM GAS  C:\Users\PCHAUT~1\AppData\Local\Temp\ccIm8FNl.s 			page 127


 7115 2100 636D7000 		.ascii	"cmp\000"
 7116 2104 04       		.byte	0x4
 7117 2105 08       		.byte	0x8
 7118 2106 F3170000 		.4byte	0x17f3
 7119 210a 02       		.uleb128 0x2
 7120 210b 91       		.byte	0x91
 7121 210c 68       		.sleb128 -24
 7122 210d 38       		.uleb128 0x38
 7123 210e 960B0000 		.4byte	.LASF351
 7124 2112 04       		.byte	0x4
 7125 2113 09       		.byte	0x9
 7126 2114 F6160000 		.4byte	0x16f6
 7127 2118 02       		.uleb128 0x2
 7128 2119 91       		.byte	0x91
 7129 211a 64       		.sleb128 -28
 7130 211b 38       		.uleb128 0x38
 7131 211c FB030000 		.4byte	.LASF352
 7132 2120 04       		.byte	0x4
 7133 2121 0A       		.byte	0xa
 7134 2122 73010000 		.4byte	0x173
 7135 2126 02       		.uleb128 0x2
 7136 2127 91       		.byte	0x91
 7137 2128 60       		.sleb128 -32
 7138 2129 38       		.uleb128 0x38
 7139 212a A10E0000 		.4byte	.LASF374
 7140 212e 04       		.byte	0x4
 7141 212f 0B       		.byte	0xb
 7142 2130 F3050000 		.4byte	0x5f3
 7143 2134 02       		.uleb128 0x2
 7144 2135 91       		.byte	0x91
 7145 2136 5C       		.sleb128 -36
 7146 2137 00       		.byte	0
 7147 2138 2F       		.uleb128 0x2f
 7148 2139 45060000 		.4byte	.LASF381
 7149 213d 03       		.byte	0x3
 7150 213e 6601     		.2byte	0x166
 7151 2140 00000000 		.4byte	.LFB146
 7152 2144 58000000 		.4byte	.LFE146-.LFB146
 7153 2148 01       		.uleb128 0x1
 7154 2149 9C       		.byte	0x9c
 7155 214a 5E210000 		.4byte	0x215e
 7156 214e 3B       		.uleb128 0x3b
 7157 214f EF000000 		.4byte	.LASF388
 7158 2153 6E210000 		.4byte	0x216e
 7159 2157 05       		.uleb128 0x5
 7160 2158 03       		.byte	0x3
 7161 2159 00000000 		.4byte	__func__.8568
 7162 215d 00       		.byte	0
 7163 215e 0A       		.uleb128 0xa
 7164 215f 82010000 		.4byte	0x182
 7165 2163 6E210000 		.4byte	0x216e
 7166 2167 0B       		.uleb128 0xb
 7167 2168 37000000 		.4byte	0x37
 7168 216c 0B       		.byte	0xb
 7169 216d 00       		.byte	0
 7170 216e 0F       		.uleb128 0xf
 7171 216f 5E210000 		.4byte	0x215e
ARM GAS  C:\Users\PCHAUT~1\AppData\Local\Temp\ccIm8FNl.s 			page 128


 7172 2173 3C       		.uleb128 0x3c
 7173 2174 70060000 		.4byte	.LASF389
 7174 2178 03       		.byte	0x3
 7175 2179 5A01     		.2byte	0x15a
 7176 217b 00000000 		.4byte	.LFB145
 7177 217f 30000000 		.4byte	.LFE145-.LFB145
 7178 2183 01       		.uleb128 0x1
 7179 2184 9C       		.byte	0x9c
 7180 2185 2F       		.uleb128 0x2f
 7181 2186 62020000 		.4byte	.LASF382
 7182 218a 01       		.byte	0x1
 7183 218b CA01     		.2byte	0x1ca
 7184 218d 00000000 		.4byte	.LFB117
 7185 2191 30000000 		.4byte	.LFE117-.LFB117
 7186 2195 01       		.uleb128 0x1
 7187 2196 9C       		.byte	0x9c
 7188 2197 B5210000 		.4byte	0x21b5
 7189 219b 3D       		.uleb128 0x3d
 7190 219c E5210000 		.4byte	0x21e5
 7191 21a0 0E000000 		.4byte	.LBB8
 7192 21a4 06000000 		.4byte	.LBE8-.LBB8
 7193 21a8 01       		.byte	0x1
 7194 21a9 CD01     		.2byte	0x1cd
 7195 21ab 3E       		.uleb128 0x3e
 7196 21ac EE210000 		.4byte	0x21ee
 7197 21b0 02       		.uleb128 0x2
 7198 21b1 91       		.byte	0x91
 7199 21b2 70       		.sleb128 -16
 7200 21b3 00       		.byte	0
 7201 21b4 00       		.byte	0
 7202 21b5 2F       		.uleb128 0x2f
 7203 21b6 DA0E0000 		.4byte	.LASF383
 7204 21ba 01       		.byte	0x1
 7205 21bb BC01     		.2byte	0x1bc
 7206 21bd 00000000 		.4byte	.LFB116
 7207 21c1 30000000 		.4byte	.LFE116-.LFB116
 7208 21c5 01       		.uleb128 0x1
 7209 21c6 9C       		.byte	0x9c
 7210 21c7 E5210000 		.4byte	0x21e5
 7211 21cb 3D       		.uleb128 0x3d
 7212 21cc E5210000 		.4byte	0x21e5
 7213 21d0 0E000000 		.4byte	.LBB6
 7214 21d4 06000000 		.4byte	.LBE6-.LBB6
 7215 21d8 01       		.byte	0x1
 7216 21d9 BF01     		.2byte	0x1bf
 7217 21db 3E       		.uleb128 0x3e
 7218 21dc EE210000 		.4byte	0x21ee
 7219 21e0 02       		.uleb128 0x2
 7220 21e1 91       		.byte	0x91
 7221 21e2 70       		.sleb128 -16
 7222 21e3 00       		.byte	0
 7223 21e4 00       		.byte	0
 7224 21e5 3F       		.uleb128 0x3f
 7225 21e6 490E0000 		.4byte	.LASF390
 7226 21ea 02       		.byte	0x2
 7227 21eb 2002     		.2byte	0x220
 7228 21ed 03       		.byte	0x3
ARM GAS  C:\Users\PCHAUT~1\AppData\Local\Temp\ccIm8FNl.s 			page 129


 7229 21ee 40       		.uleb128 0x40
 7230 21ef 24040000 		.4byte	.LASF343
 7231 21f3 02       		.byte	0x2
 7232 21f4 2002     		.2byte	0x220
 7233 21f6 4A090000 		.4byte	0x94a
 7234 21fa 00       		.byte	0
 7235 21fb 00       		.byte	0
 7236              		.section	.debug_abbrev,"",%progbits
 7237              	.Ldebug_abbrev0:
 7238 0000 01       		.uleb128 0x1
 7239 0001 11       		.uleb128 0x11
 7240 0002 01       		.byte	0x1
 7241 0003 25       		.uleb128 0x25
 7242 0004 0E       		.uleb128 0xe
 7243 0005 13       		.uleb128 0x13
 7244 0006 0B       		.uleb128 0xb
 7245 0007 03       		.uleb128 0x3
 7246 0008 0E       		.uleb128 0xe
 7247 0009 1B       		.uleb128 0x1b
 7248 000a 0E       		.uleb128 0xe
 7249 000b 55       		.uleb128 0x55
 7250 000c 17       		.uleb128 0x17
 7251 000d 11       		.uleb128 0x11
 7252 000e 01       		.uleb128 0x1
 7253 000f 10       		.uleb128 0x10
 7254 0010 17       		.uleb128 0x17
 7255 0011 00       		.byte	0
 7256 0012 00       		.byte	0
 7257 0013 02       		.uleb128 0x2
 7258 0014 24       		.uleb128 0x24
 7259 0015 00       		.byte	0
 7260 0016 0B       		.uleb128 0xb
 7261 0017 0B       		.uleb128 0xb
 7262 0018 3E       		.uleb128 0x3e
 7263 0019 0B       		.uleb128 0xb
 7264 001a 03       		.uleb128 0x3
 7265 001b 08       		.uleb128 0x8
 7266 001c 00       		.byte	0
 7267 001d 00       		.byte	0
 7268 001e 03       		.uleb128 0x3
 7269 001f 16       		.uleb128 0x16
 7270 0020 00       		.byte	0
 7271 0021 03       		.uleb128 0x3
 7272 0022 0E       		.uleb128 0xe
 7273 0023 3A       		.uleb128 0x3a
 7274 0024 0B       		.uleb128 0xb
 7275 0025 3B       		.uleb128 0x3b
 7276 0026 0B       		.uleb128 0xb
 7277 0027 49       		.uleb128 0x49
 7278 0028 13       		.uleb128 0x13
 7279 0029 00       		.byte	0
 7280 002a 00       		.byte	0
 7281 002b 04       		.uleb128 0x4
 7282 002c 24       		.uleb128 0x24
 7283 002d 00       		.byte	0
 7284 002e 0B       		.uleb128 0xb
 7285 002f 0B       		.uleb128 0xb
ARM GAS  C:\Users\PCHAUT~1\AppData\Local\Temp\ccIm8FNl.s 			page 130


 7286 0030 3E       		.uleb128 0x3e
 7287 0031 0B       		.uleb128 0xb
 7288 0032 03       		.uleb128 0x3
 7289 0033 0E       		.uleb128 0xe
 7290 0034 00       		.byte	0
 7291 0035 00       		.byte	0
 7292 0036 05       		.uleb128 0x5
 7293 0037 0F       		.uleb128 0xf
 7294 0038 00       		.byte	0
 7295 0039 0B       		.uleb128 0xb
 7296 003a 0B       		.uleb128 0xb
 7297 003b 49       		.uleb128 0x49
 7298 003c 13       		.uleb128 0x13
 7299 003d 00       		.byte	0
 7300 003e 00       		.byte	0
 7301 003f 06       		.uleb128 0x6
 7302 0040 13       		.uleb128 0x13
 7303 0041 00       		.byte	0
 7304 0042 03       		.uleb128 0x3
 7305 0043 0E       		.uleb128 0xe
 7306 0044 3C       		.uleb128 0x3c
 7307 0045 19       		.uleb128 0x19
 7308 0046 00       		.byte	0
 7309 0047 00       		.byte	0
 7310 0048 07       		.uleb128 0x7
 7311 0049 16       		.uleb128 0x16
 7312 004a 00       		.byte	0
 7313 004b 03       		.uleb128 0x3
 7314 004c 0E       		.uleb128 0xe
 7315 004d 3A       		.uleb128 0x3a
 7316 004e 0B       		.uleb128 0xb
 7317 004f 3B       		.uleb128 0x3b
 7318 0050 05       		.uleb128 0x5
 7319 0051 49       		.uleb128 0x49
 7320 0052 13       		.uleb128 0x13
 7321 0053 00       		.byte	0
 7322 0054 00       		.byte	0
 7323 0055 08       		.uleb128 0x8
 7324 0056 17       		.uleb128 0x17
 7325 0057 01       		.byte	0x1
 7326 0058 0B       		.uleb128 0xb
 7327 0059 0B       		.uleb128 0xb
 7328 005a 3A       		.uleb128 0x3a
 7329 005b 0B       		.uleb128 0xb
 7330 005c 3B       		.uleb128 0x3b
 7331 005d 0B       		.uleb128 0xb
 7332 005e 01       		.uleb128 0x1
 7333 005f 13       		.uleb128 0x13
 7334 0060 00       		.byte	0
 7335 0061 00       		.byte	0
 7336 0062 09       		.uleb128 0x9
 7337 0063 0D       		.uleb128 0xd
 7338 0064 00       		.byte	0
 7339 0065 03       		.uleb128 0x3
 7340 0066 0E       		.uleb128 0xe
 7341 0067 3A       		.uleb128 0x3a
 7342 0068 0B       		.uleb128 0xb
ARM GAS  C:\Users\PCHAUT~1\AppData\Local\Temp\ccIm8FNl.s 			page 131


 7343 0069 3B       		.uleb128 0x3b
 7344 006a 0B       		.uleb128 0xb
 7345 006b 49       		.uleb128 0x49
 7346 006c 13       		.uleb128 0x13
 7347 006d 00       		.byte	0
 7348 006e 00       		.byte	0
 7349 006f 0A       		.uleb128 0xa
 7350 0070 01       		.uleb128 0x1
 7351 0071 01       		.byte	0x1
 7352 0072 49       		.uleb128 0x49
 7353 0073 13       		.uleb128 0x13
 7354 0074 01       		.uleb128 0x1
 7355 0075 13       		.uleb128 0x13
 7356 0076 00       		.byte	0
 7357 0077 00       		.byte	0
 7358 0078 0B       		.uleb128 0xb
 7359 0079 21       		.uleb128 0x21
 7360 007a 00       		.byte	0
 7361 007b 49       		.uleb128 0x49
 7362 007c 13       		.uleb128 0x13
 7363 007d 2F       		.uleb128 0x2f
 7364 007e 0B       		.uleb128 0xb
 7365 007f 00       		.byte	0
 7366 0080 00       		.byte	0
 7367 0081 0C       		.uleb128 0xc
 7368 0082 13       		.uleb128 0x13
 7369 0083 01       		.byte	0x1
 7370 0084 0B       		.uleb128 0xb
 7371 0085 0B       		.uleb128 0xb
 7372 0086 3A       		.uleb128 0x3a
 7373 0087 0B       		.uleb128 0xb
 7374 0088 3B       		.uleb128 0x3b
 7375 0089 0B       		.uleb128 0xb
 7376 008a 01       		.uleb128 0x1
 7377 008b 13       		.uleb128 0x13
 7378 008c 00       		.byte	0
 7379 008d 00       		.byte	0
 7380 008e 0D       		.uleb128 0xd
 7381 008f 0D       		.uleb128 0xd
 7382 0090 00       		.byte	0
 7383 0091 03       		.uleb128 0x3
 7384 0092 0E       		.uleb128 0xe
 7385 0093 3A       		.uleb128 0x3a
 7386 0094 0B       		.uleb128 0xb
 7387 0095 3B       		.uleb128 0x3b
 7388 0096 0B       		.uleb128 0xb
 7389 0097 49       		.uleb128 0x49
 7390 0098 13       		.uleb128 0x13
 7391 0099 38       		.uleb128 0x38
 7392 009a 0B       		.uleb128 0xb
 7393 009b 00       		.byte	0
 7394 009c 00       		.byte	0
 7395 009d 0E       		.uleb128 0xe
 7396 009e 0F       		.uleb128 0xf
 7397 009f 00       		.byte	0
 7398 00a0 0B       		.uleb128 0xb
 7399 00a1 0B       		.uleb128 0xb
ARM GAS  C:\Users\PCHAUT~1\AppData\Local\Temp\ccIm8FNl.s 			page 132


 7400 00a2 00       		.byte	0
 7401 00a3 00       		.byte	0
 7402 00a4 0F       		.uleb128 0xf
 7403 00a5 26       		.uleb128 0x26
 7404 00a6 00       		.byte	0
 7405 00a7 49       		.uleb128 0x49
 7406 00a8 13       		.uleb128 0x13
 7407 00a9 00       		.byte	0
 7408 00aa 00       		.byte	0
 7409 00ab 10       		.uleb128 0x10
 7410 00ac 13       		.uleb128 0x13
 7411 00ad 01       		.byte	0x1
 7412 00ae 03       		.uleb128 0x3
 7413 00af 0E       		.uleb128 0xe
 7414 00b0 0B       		.uleb128 0xb
 7415 00b1 0B       		.uleb128 0xb
 7416 00b2 3A       		.uleb128 0x3a
 7417 00b3 0B       		.uleb128 0xb
 7418 00b4 3B       		.uleb128 0x3b
 7419 00b5 0B       		.uleb128 0xb
 7420 00b6 01       		.uleb128 0x1
 7421 00b7 13       		.uleb128 0x13
 7422 00b8 00       		.byte	0
 7423 00b9 00       		.byte	0
 7424 00ba 11       		.uleb128 0x11
 7425 00bb 0D       		.uleb128 0xd
 7426 00bc 00       		.byte	0
 7427 00bd 03       		.uleb128 0x3
 7428 00be 08       		.uleb128 0x8
 7429 00bf 3A       		.uleb128 0x3a
 7430 00c0 0B       		.uleb128 0xb
 7431 00c1 3B       		.uleb128 0x3b
 7432 00c2 0B       		.uleb128 0xb
 7433 00c3 49       		.uleb128 0x49
 7434 00c4 13       		.uleb128 0x13
 7435 00c5 38       		.uleb128 0x38
 7436 00c6 0B       		.uleb128 0xb
 7437 00c7 00       		.byte	0
 7438 00c8 00       		.byte	0
 7439 00c9 12       		.uleb128 0x12
 7440 00ca 13       		.uleb128 0x13
 7441 00cb 01       		.byte	0x1
 7442 00cc 03       		.uleb128 0x3
 7443 00cd 0E       		.uleb128 0xe
 7444 00ce 0B       		.uleb128 0xb
 7445 00cf 05       		.uleb128 0x5
 7446 00d0 3A       		.uleb128 0x3a
 7447 00d1 0B       		.uleb128 0xb
 7448 00d2 3B       		.uleb128 0x3b
 7449 00d3 0B       		.uleb128 0xb
 7450 00d4 01       		.uleb128 0x1
 7451 00d5 13       		.uleb128 0x13
 7452 00d6 00       		.byte	0
 7453 00d7 00       		.byte	0
 7454 00d8 13       		.uleb128 0x13
 7455 00d9 0D       		.uleb128 0xd
 7456 00da 00       		.byte	0
ARM GAS  C:\Users\PCHAUT~1\AppData\Local\Temp\ccIm8FNl.s 			page 133


 7457 00db 03       		.uleb128 0x3
 7458 00dc 0E       		.uleb128 0xe
 7459 00dd 3A       		.uleb128 0x3a
 7460 00de 0B       		.uleb128 0xb
 7461 00df 3B       		.uleb128 0x3b
 7462 00e0 0B       		.uleb128 0xb
 7463 00e1 49       		.uleb128 0x49
 7464 00e2 13       		.uleb128 0x13
 7465 00e3 38       		.uleb128 0x38
 7466 00e4 05       		.uleb128 0x5
 7467 00e5 00       		.byte	0
 7468 00e6 00       		.byte	0
 7469 00e7 14       		.uleb128 0x14
 7470 00e8 15       		.uleb128 0x15
 7471 00e9 00       		.byte	0
 7472 00ea 27       		.uleb128 0x27
 7473 00eb 19       		.uleb128 0x19
 7474 00ec 00       		.byte	0
 7475 00ed 00       		.byte	0
 7476 00ee 15       		.uleb128 0x15
 7477 00ef 15       		.uleb128 0x15
 7478 00f0 01       		.byte	0x1
 7479 00f1 27       		.uleb128 0x27
 7480 00f2 19       		.uleb128 0x19
 7481 00f3 49       		.uleb128 0x49
 7482 00f4 13       		.uleb128 0x13
 7483 00f5 01       		.uleb128 0x1
 7484 00f6 13       		.uleb128 0x13
 7485 00f7 00       		.byte	0
 7486 00f8 00       		.byte	0
 7487 00f9 16       		.uleb128 0x16
 7488 00fa 05       		.uleb128 0x5
 7489 00fb 00       		.byte	0
 7490 00fc 49       		.uleb128 0x49
 7491 00fd 13       		.uleb128 0x13
 7492 00fe 00       		.byte	0
 7493 00ff 00       		.byte	0
 7494 0100 17       		.uleb128 0x17
 7495 0101 13       		.uleb128 0x13
 7496 0102 01       		.byte	0x1
 7497 0103 03       		.uleb128 0x3
 7498 0104 0E       		.uleb128 0xe
 7499 0105 0B       		.uleb128 0xb
 7500 0106 05       		.uleb128 0x5
 7501 0107 3A       		.uleb128 0x3a
 7502 0108 0B       		.uleb128 0xb
 7503 0109 3B       		.uleb128 0x3b
 7504 010a 05       		.uleb128 0x5
 7505 010b 01       		.uleb128 0x1
 7506 010c 13       		.uleb128 0x13
 7507 010d 00       		.byte	0
 7508 010e 00       		.byte	0
 7509 010f 18       		.uleb128 0x18
 7510 0110 0D       		.uleb128 0xd
 7511 0111 00       		.byte	0
 7512 0112 03       		.uleb128 0x3
 7513 0113 0E       		.uleb128 0xe
ARM GAS  C:\Users\PCHAUT~1\AppData\Local\Temp\ccIm8FNl.s 			page 134


 7514 0114 3A       		.uleb128 0x3a
 7515 0115 0B       		.uleb128 0xb
 7516 0116 3B       		.uleb128 0x3b
 7517 0117 05       		.uleb128 0x5
 7518 0118 49       		.uleb128 0x49
 7519 0119 13       		.uleb128 0x13
 7520 011a 38       		.uleb128 0x38
 7521 011b 0B       		.uleb128 0xb
 7522 011c 00       		.byte	0
 7523 011d 00       		.byte	0
 7524 011e 19       		.uleb128 0x19
 7525 011f 0D       		.uleb128 0xd
 7526 0120 00       		.byte	0
 7527 0121 03       		.uleb128 0x3
 7528 0122 0E       		.uleb128 0xe
 7529 0123 3A       		.uleb128 0x3a
 7530 0124 0B       		.uleb128 0xb
 7531 0125 3B       		.uleb128 0x3b
 7532 0126 05       		.uleb128 0x5
 7533 0127 49       		.uleb128 0x49
 7534 0128 13       		.uleb128 0x13
 7535 0129 38       		.uleb128 0x38
 7536 012a 05       		.uleb128 0x5
 7537 012b 00       		.byte	0
 7538 012c 00       		.byte	0
 7539 012d 1A       		.uleb128 0x1a
 7540 012e 35       		.uleb128 0x35
 7541 012f 00       		.byte	0
 7542 0130 49       		.uleb128 0x49
 7543 0131 13       		.uleb128 0x13
 7544 0132 00       		.byte	0
 7545 0133 00       		.byte	0
 7546 0134 1B       		.uleb128 0x1b
 7547 0135 13       		.uleb128 0x13
 7548 0136 01       		.byte	0x1
 7549 0137 03       		.uleb128 0x3
 7550 0138 0E       		.uleb128 0xe
 7551 0139 0B       		.uleb128 0xb
 7552 013a 0B       		.uleb128 0xb
 7553 013b 3A       		.uleb128 0x3a
 7554 013c 0B       		.uleb128 0xb
 7555 013d 3B       		.uleb128 0x3b
 7556 013e 05       		.uleb128 0x5
 7557 013f 01       		.uleb128 0x1
 7558 0140 13       		.uleb128 0x13
 7559 0141 00       		.byte	0
 7560 0142 00       		.byte	0
 7561 0143 1C       		.uleb128 0x1c
 7562 0144 13       		.uleb128 0x13
 7563 0145 01       		.byte	0x1
 7564 0146 0B       		.uleb128 0xb
 7565 0147 0B       		.uleb128 0xb
 7566 0148 3A       		.uleb128 0x3a
 7567 0149 0B       		.uleb128 0xb
 7568 014a 3B       		.uleb128 0x3b
 7569 014b 05       		.uleb128 0x5
 7570 014c 01       		.uleb128 0x1
ARM GAS  C:\Users\PCHAUT~1\AppData\Local\Temp\ccIm8FNl.s 			page 135


 7571 014d 13       		.uleb128 0x13
 7572 014e 00       		.byte	0
 7573 014f 00       		.byte	0
 7574 0150 1D       		.uleb128 0x1d
 7575 0151 17       		.uleb128 0x17
 7576 0152 01       		.byte	0x1
 7577 0153 0B       		.uleb128 0xb
 7578 0154 0B       		.uleb128 0xb
 7579 0155 3A       		.uleb128 0x3a
 7580 0156 0B       		.uleb128 0xb
 7581 0157 3B       		.uleb128 0x3b
 7582 0158 05       		.uleb128 0x5
 7583 0159 01       		.uleb128 0x1
 7584 015a 13       		.uleb128 0x13
 7585 015b 00       		.byte	0
 7586 015c 00       		.byte	0
 7587 015d 1E       		.uleb128 0x1e
 7588 015e 0D       		.uleb128 0xd
 7589 015f 00       		.byte	0
 7590 0160 03       		.uleb128 0x3
 7591 0161 0E       		.uleb128 0xe
 7592 0162 3A       		.uleb128 0x3a
 7593 0163 0B       		.uleb128 0xb
 7594 0164 3B       		.uleb128 0x3b
 7595 0165 05       		.uleb128 0x5
 7596 0166 49       		.uleb128 0x49
 7597 0167 13       		.uleb128 0x13
 7598 0168 00       		.byte	0
 7599 0169 00       		.byte	0
 7600 016a 1F       		.uleb128 0x1f
 7601 016b 15       		.uleb128 0x15
 7602 016c 01       		.byte	0x1
 7603 016d 27       		.uleb128 0x27
 7604 016e 19       		.uleb128 0x19
 7605 016f 01       		.uleb128 0x1
 7606 0170 13       		.uleb128 0x13
 7607 0171 00       		.byte	0
 7608 0172 00       		.byte	0
 7609 0173 20       		.uleb128 0x20
 7610 0174 34       		.uleb128 0x34
 7611 0175 00       		.byte	0
 7612 0176 03       		.uleb128 0x3
 7613 0177 0E       		.uleb128 0xe
 7614 0178 3A       		.uleb128 0x3a
 7615 0179 0B       		.uleb128 0xb
 7616 017a 3B       		.uleb128 0x3b
 7617 017b 05       		.uleb128 0x5
 7618 017c 49       		.uleb128 0x49
 7619 017d 13       		.uleb128 0x13
 7620 017e 3F       		.uleb128 0x3f
 7621 017f 19       		.uleb128 0x19
 7622 0180 3C       		.uleb128 0x3c
 7623 0181 19       		.uleb128 0x19
 7624 0182 00       		.byte	0
 7625 0183 00       		.byte	0
 7626 0184 21       		.uleb128 0x21
 7627 0185 26       		.uleb128 0x26
ARM GAS  C:\Users\PCHAUT~1\AppData\Local\Temp\ccIm8FNl.s 			page 136


 7628 0186 00       		.byte	0
 7629 0187 00       		.byte	0
 7630 0188 00       		.byte	0
 7631 0189 22       		.uleb128 0x22
 7632 018a 34       		.uleb128 0x34
 7633 018b 00       		.byte	0
 7634 018c 03       		.uleb128 0x3
 7635 018d 0E       		.uleb128 0xe
 7636 018e 3A       		.uleb128 0x3a
 7637 018f 0B       		.uleb128 0xb
 7638 0190 3B       		.uleb128 0x3b
 7639 0191 0B       		.uleb128 0xb
 7640 0192 49       		.uleb128 0x49
 7641 0193 13       		.uleb128 0x13
 7642 0194 3F       		.uleb128 0x3f
 7643 0195 19       		.uleb128 0x19
 7644 0196 3C       		.uleb128 0x3c
 7645 0197 19       		.uleb128 0x19
 7646 0198 00       		.byte	0
 7647 0199 00       		.byte	0
 7648 019a 23       		.uleb128 0x23
 7649 019b 04       		.uleb128 0x4
 7650 019c 01       		.byte	0x1
 7651 019d 3E       		.uleb128 0x3e
 7652 019e 0B       		.uleb128 0xb
 7653 019f 0B       		.uleb128 0xb
 7654 01a0 0B       		.uleb128 0xb
 7655 01a1 49       		.uleb128 0x49
 7656 01a2 13       		.uleb128 0x13
 7657 01a3 3A       		.uleb128 0x3a
 7658 01a4 0B       		.uleb128 0xb
 7659 01a5 3B       		.uleb128 0x3b
 7660 01a6 0B       		.uleb128 0xb
 7661 01a7 01       		.uleb128 0x1
 7662 01a8 13       		.uleb128 0x13
 7663 01a9 00       		.byte	0
 7664 01aa 00       		.byte	0
 7665 01ab 24       		.uleb128 0x24
 7666 01ac 28       		.uleb128 0x28
 7667 01ad 00       		.byte	0
 7668 01ae 03       		.uleb128 0x3
 7669 01af 0E       		.uleb128 0xe
 7670 01b0 1C       		.uleb128 0x1c
 7671 01b1 0B       		.uleb128 0xb
 7672 01b2 00       		.byte	0
 7673 01b3 00       		.byte	0
 7674 01b4 25       		.uleb128 0x25
 7675 01b5 17       		.uleb128 0x17
 7676 01b6 01       		.byte	0x1
 7677 01b7 03       		.uleb128 0x3
 7678 01b8 0E       		.uleb128 0xe
 7679 01b9 0B       		.uleb128 0xb
 7680 01ba 0B       		.uleb128 0xb
 7681 01bb 3A       		.uleb128 0x3a
 7682 01bc 0B       		.uleb128 0xb
 7683 01bd 3B       		.uleb128 0x3b
 7684 01be 0B       		.uleb128 0xb
ARM GAS  C:\Users\PCHAUT~1\AppData\Local\Temp\ccIm8FNl.s 			page 137


 7685 01bf 01       		.uleb128 0x1
 7686 01c0 13       		.uleb128 0x13
 7687 01c1 00       		.byte	0
 7688 01c2 00       		.byte	0
 7689 01c3 26       		.uleb128 0x26
 7690 01c4 0D       		.uleb128 0xd
 7691 01c5 00       		.byte	0
 7692 01c6 03       		.uleb128 0x3
 7693 01c7 08       		.uleb128 0x8
 7694 01c8 3A       		.uleb128 0x3a
 7695 01c9 0B       		.uleb128 0xb
 7696 01ca 3B       		.uleb128 0x3b
 7697 01cb 0B       		.uleb128 0xb
 7698 01cc 49       		.uleb128 0x49
 7699 01cd 13       		.uleb128 0x13
 7700 01ce 00       		.byte	0
 7701 01cf 00       		.byte	0
 7702 01d0 27       		.uleb128 0x27
 7703 01d1 0D       		.uleb128 0xd
 7704 01d2 00       		.byte	0
 7705 01d3 03       		.uleb128 0x3
 7706 01d4 08       		.uleb128 0x8
 7707 01d5 3A       		.uleb128 0x3a
 7708 01d6 0B       		.uleb128 0xb
 7709 01d7 3B       		.uleb128 0x3b
 7710 01d8 05       		.uleb128 0x5
 7711 01d9 49       		.uleb128 0x49
 7712 01da 13       		.uleb128 0x13
 7713 01db 38       		.uleb128 0x38
 7714 01dc 0B       		.uleb128 0xb
 7715 01dd 00       		.byte	0
 7716 01de 00       		.byte	0
 7717 01df 28       		.uleb128 0x28
 7718 01e0 0D       		.uleb128 0xd
 7719 01e1 00       		.byte	0
 7720 01e2 03       		.uleb128 0x3
 7721 01e3 08       		.uleb128 0x8
 7722 01e4 3A       		.uleb128 0x3a
 7723 01e5 0B       		.uleb128 0xb
 7724 01e6 3B       		.uleb128 0x3b
 7725 01e7 05       		.uleb128 0x5
 7726 01e8 49       		.uleb128 0x49
 7727 01e9 13       		.uleb128 0x13
 7728 01ea 38       		.uleb128 0x38
 7729 01eb 05       		.uleb128 0x5
 7730 01ec 00       		.byte	0
 7731 01ed 00       		.byte	0
 7732 01ee 29       		.uleb128 0x29
 7733 01ef 13       		.uleb128 0x13
 7734 01f0 01       		.byte	0x1
 7735 01f1 0B       		.uleb128 0xb
 7736 01f2 05       		.uleb128 0x5
 7737 01f3 3A       		.uleb128 0x3a
 7738 01f4 0B       		.uleb128 0xb
 7739 01f5 3B       		.uleb128 0x3b
 7740 01f6 0B       		.uleb128 0xb
 7741 01f7 01       		.uleb128 0x1
ARM GAS  C:\Users\PCHAUT~1\AppData\Local\Temp\ccIm8FNl.s 			page 138


 7742 01f8 13       		.uleb128 0x13
 7743 01f9 00       		.byte	0
 7744 01fa 00       		.byte	0
 7745 01fb 2A       		.uleb128 0x2a
 7746 01fc 34       		.uleb128 0x34
 7747 01fd 00       		.byte	0
 7748 01fe 03       		.uleb128 0x3
 7749 01ff 08       		.uleb128 0x8
 7750 0200 3A       		.uleb128 0x3a
 7751 0201 0B       		.uleb128 0xb
 7752 0202 3B       		.uleb128 0x3b
 7753 0203 05       		.uleb128 0x5
 7754 0204 49       		.uleb128 0x49
 7755 0205 13       		.uleb128 0x13
 7756 0206 3F       		.uleb128 0x3f
 7757 0207 19       		.uleb128 0x19
 7758 0208 3C       		.uleb128 0x3c
 7759 0209 19       		.uleb128 0x19
 7760 020a 00       		.byte	0
 7761 020b 00       		.byte	0
 7762 020c 2B       		.uleb128 0x2b
 7763 020d 2E       		.uleb128 0x2e
 7764 020e 01       		.byte	0x1
 7765 020f 3F       		.uleb128 0x3f
 7766 0210 19       		.uleb128 0x19
 7767 0211 03       		.uleb128 0x3
 7768 0212 0E       		.uleb128 0xe
 7769 0213 3A       		.uleb128 0x3a
 7770 0214 0B       		.uleb128 0xb
 7771 0215 3B       		.uleb128 0x3b
 7772 0216 05       		.uleb128 0x5
 7773 0217 27       		.uleb128 0x27
 7774 0218 19       		.uleb128 0x19
 7775 0219 11       		.uleb128 0x11
 7776 021a 01       		.uleb128 0x1
 7777 021b 12       		.uleb128 0x12
 7778 021c 06       		.uleb128 0x6
 7779 021d 40       		.uleb128 0x40
 7780 021e 18       		.uleb128 0x18
 7781 021f 9642     		.uleb128 0x2116
 7782 0221 19       		.uleb128 0x19
 7783 0222 01       		.uleb128 0x1
 7784 0223 13       		.uleb128 0x13
 7785 0224 00       		.byte	0
 7786 0225 00       		.byte	0
 7787 0226 2C       		.uleb128 0x2c
 7788 0227 05       		.uleb128 0x5
 7789 0228 00       		.byte	0
 7790 0229 03       		.uleb128 0x3
 7791 022a 08       		.uleb128 0x8
 7792 022b 3A       		.uleb128 0x3a
 7793 022c 0B       		.uleb128 0xb
 7794 022d 3B       		.uleb128 0x3b
 7795 022e 05       		.uleb128 0x5
 7796 022f 49       		.uleb128 0x49
 7797 0230 13       		.uleb128 0x13
 7798 0231 02       		.uleb128 0x2
ARM GAS  C:\Users\PCHAUT~1\AppData\Local\Temp\ccIm8FNl.s 			page 139


 7799 0232 18       		.uleb128 0x18
 7800 0233 00       		.byte	0
 7801 0234 00       		.byte	0
 7802 0235 2D       		.uleb128 0x2d
 7803 0236 05       		.uleb128 0x5
 7804 0237 00       		.byte	0
 7805 0238 03       		.uleb128 0x3
 7806 0239 0E       		.uleb128 0xe
 7807 023a 3A       		.uleb128 0x3a
 7808 023b 0B       		.uleb128 0xb
 7809 023c 3B       		.uleb128 0x3b
 7810 023d 05       		.uleb128 0x5
 7811 023e 49       		.uleb128 0x49
 7812 023f 13       		.uleb128 0x13
 7813 0240 02       		.uleb128 0x2
 7814 0241 18       		.uleb128 0x18
 7815 0242 00       		.byte	0
 7816 0243 00       		.byte	0
 7817 0244 2E       		.uleb128 0x2e
 7818 0245 34       		.uleb128 0x34
 7819 0246 00       		.byte	0
 7820 0247 03       		.uleb128 0x3
 7821 0248 08       		.uleb128 0x8
 7822 0249 3A       		.uleb128 0x3a
 7823 024a 0B       		.uleb128 0xb
 7824 024b 3B       		.uleb128 0x3b
 7825 024c 05       		.uleb128 0x5
 7826 024d 49       		.uleb128 0x49
 7827 024e 13       		.uleb128 0x13
 7828 024f 02       		.uleb128 0x2
 7829 0250 18       		.uleb128 0x18
 7830 0251 00       		.byte	0
 7831 0252 00       		.byte	0
 7832 0253 2F       		.uleb128 0x2f
 7833 0254 2E       		.uleb128 0x2e
 7834 0255 01       		.byte	0x1
 7835 0256 03       		.uleb128 0x3
 7836 0257 0E       		.uleb128 0xe
 7837 0258 3A       		.uleb128 0x3a
 7838 0259 0B       		.uleb128 0xb
 7839 025a 3B       		.uleb128 0x3b
 7840 025b 05       		.uleb128 0x5
 7841 025c 27       		.uleb128 0x27
 7842 025d 19       		.uleb128 0x19
 7843 025e 11       		.uleb128 0x11
 7844 025f 01       		.uleb128 0x1
 7845 0260 12       		.uleb128 0x12
 7846 0261 06       		.uleb128 0x6
 7847 0262 40       		.uleb128 0x40
 7848 0263 18       		.uleb128 0x18
 7849 0264 9642     		.uleb128 0x2116
 7850 0266 19       		.uleb128 0x19
 7851 0267 01       		.uleb128 0x1
 7852 0268 13       		.uleb128 0x13
 7853 0269 00       		.byte	0
 7854 026a 00       		.byte	0
 7855 026b 30       		.uleb128 0x30
ARM GAS  C:\Users\PCHAUT~1\AppData\Local\Temp\ccIm8FNl.s 			page 140


 7856 026c 34       		.uleb128 0x34
 7857 026d 00       		.byte	0
 7858 026e 03       		.uleb128 0x3
 7859 026f 0E       		.uleb128 0xe
 7860 0270 3A       		.uleb128 0x3a
 7861 0271 0B       		.uleb128 0xb
 7862 0272 3B       		.uleb128 0x3b
 7863 0273 05       		.uleb128 0x5
 7864 0274 49       		.uleb128 0x49
 7865 0275 13       		.uleb128 0x13
 7866 0276 02       		.uleb128 0x2
 7867 0277 18       		.uleb128 0x18
 7868 0278 00       		.byte	0
 7869 0279 00       		.byte	0
 7870 027a 31       		.uleb128 0x31
 7871 027b 2E       		.uleb128 0x2e
 7872 027c 01       		.byte	0x1
 7873 027d 3F       		.uleb128 0x3f
 7874 027e 19       		.uleb128 0x19
 7875 027f 03       		.uleb128 0x3
 7876 0280 0E       		.uleb128 0xe
 7877 0281 3A       		.uleb128 0x3a
 7878 0282 0B       		.uleb128 0xb
 7879 0283 3B       		.uleb128 0x3b
 7880 0284 05       		.uleb128 0x5
 7881 0285 27       		.uleb128 0x27
 7882 0286 19       		.uleb128 0x19
 7883 0287 49       		.uleb128 0x49
 7884 0288 13       		.uleb128 0x13
 7885 0289 11       		.uleb128 0x11
 7886 028a 01       		.uleb128 0x1
 7887 028b 12       		.uleb128 0x12
 7888 028c 06       		.uleb128 0x6
 7889 028d 40       		.uleb128 0x40
 7890 028e 18       		.uleb128 0x18
 7891 028f 9642     		.uleb128 0x2116
 7892 0291 19       		.uleb128 0x19
 7893 0292 01       		.uleb128 0x1
 7894 0293 13       		.uleb128 0x13
 7895 0294 00       		.byte	0
 7896 0295 00       		.byte	0
 7897 0296 32       		.uleb128 0x32
 7898 0297 2E       		.uleb128 0x2e
 7899 0298 01       		.byte	0x1
 7900 0299 03       		.uleb128 0x3
 7901 029a 0E       		.uleb128 0xe
 7902 029b 3A       		.uleb128 0x3a
 7903 029c 0B       		.uleb128 0xb
 7904 029d 3B       		.uleb128 0x3b
 7905 029e 05       		.uleb128 0x5
 7906 029f 27       		.uleb128 0x27
 7907 02a0 19       		.uleb128 0x19
 7908 02a1 49       		.uleb128 0x49
 7909 02a2 13       		.uleb128 0x13
 7910 02a3 11       		.uleb128 0x11
 7911 02a4 01       		.uleb128 0x1
 7912 02a5 12       		.uleb128 0x12
ARM GAS  C:\Users\PCHAUT~1\AppData\Local\Temp\ccIm8FNl.s 			page 141


 7913 02a6 06       		.uleb128 0x6
 7914 02a7 40       		.uleb128 0x40
 7915 02a8 18       		.uleb128 0x18
 7916 02a9 9642     		.uleb128 0x2116
 7917 02ab 19       		.uleb128 0x19
 7918 02ac 01       		.uleb128 0x1
 7919 02ad 13       		.uleb128 0x13
 7920 02ae 00       		.byte	0
 7921 02af 00       		.byte	0
 7922 02b0 33       		.uleb128 0x33
 7923 02b1 0B       		.uleb128 0xb
 7924 02b2 01       		.byte	0x1
 7925 02b3 11       		.uleb128 0x11
 7926 02b4 01       		.uleb128 0x1
 7927 02b5 12       		.uleb128 0x12
 7928 02b6 06       		.uleb128 0x6
 7929 02b7 00       		.byte	0
 7930 02b8 00       		.byte	0
 7931 02b9 34       		.uleb128 0x34
 7932 02ba 0B       		.uleb128 0xb
 7933 02bb 01       		.byte	0x1
 7934 02bc 55       		.uleb128 0x55
 7935 02bd 17       		.uleb128 0x17
 7936 02be 01       		.uleb128 0x1
 7937 02bf 13       		.uleb128 0x13
 7938 02c0 00       		.byte	0
 7939 02c1 00       		.byte	0
 7940 02c2 35       		.uleb128 0x35
 7941 02c3 0B       		.uleb128 0xb
 7942 02c4 01       		.byte	0x1
 7943 02c5 11       		.uleb128 0x11
 7944 02c6 01       		.uleb128 0x1
 7945 02c7 12       		.uleb128 0x12
 7946 02c8 06       		.uleb128 0x6
 7947 02c9 01       		.uleb128 0x1
 7948 02ca 13       		.uleb128 0x13
 7949 02cb 00       		.byte	0
 7950 02cc 00       		.byte	0
 7951 02cd 36       		.uleb128 0x36
 7952 02ce 2E       		.uleb128 0x2e
 7953 02cf 01       		.byte	0x1
 7954 02d0 03       		.uleb128 0x3
 7955 02d1 0E       		.uleb128 0xe
 7956 02d2 3A       		.uleb128 0x3a
 7957 02d3 0B       		.uleb128 0xb
 7958 02d4 3B       		.uleb128 0x3b
 7959 02d5 0B       		.uleb128 0xb
 7960 02d6 27       		.uleb128 0x27
 7961 02d7 19       		.uleb128 0x19
 7962 02d8 49       		.uleb128 0x49
 7963 02d9 13       		.uleb128 0x13
 7964 02da 11       		.uleb128 0x11
 7965 02db 01       		.uleb128 0x1
 7966 02dc 12       		.uleb128 0x12
 7967 02dd 06       		.uleb128 0x6
 7968 02de 40       		.uleb128 0x40
 7969 02df 18       		.uleb128 0x18
ARM GAS  C:\Users\PCHAUT~1\AppData\Local\Temp\ccIm8FNl.s 			page 142


 7970 02e0 9642     		.uleb128 0x2116
 7971 02e2 19       		.uleb128 0x19
 7972 02e3 01       		.uleb128 0x1
 7973 02e4 13       		.uleb128 0x13
 7974 02e5 00       		.byte	0
 7975 02e6 00       		.byte	0
 7976 02e7 37       		.uleb128 0x37
 7977 02e8 05       		.uleb128 0x5
 7978 02e9 00       		.byte	0
 7979 02ea 03       		.uleb128 0x3
 7980 02eb 08       		.uleb128 0x8
 7981 02ec 3A       		.uleb128 0x3a
 7982 02ed 0B       		.uleb128 0xb
 7983 02ee 3B       		.uleb128 0x3b
 7984 02ef 0B       		.uleb128 0xb
 7985 02f0 49       		.uleb128 0x49
 7986 02f1 13       		.uleb128 0x13
 7987 02f2 02       		.uleb128 0x2
 7988 02f3 18       		.uleb128 0x18
 7989 02f4 00       		.byte	0
 7990 02f5 00       		.byte	0
 7991 02f6 38       		.uleb128 0x38
 7992 02f7 05       		.uleb128 0x5
 7993 02f8 00       		.byte	0
 7994 02f9 03       		.uleb128 0x3
 7995 02fa 0E       		.uleb128 0xe
 7996 02fb 3A       		.uleb128 0x3a
 7997 02fc 0B       		.uleb128 0xb
 7998 02fd 3B       		.uleb128 0x3b
 7999 02fe 0B       		.uleb128 0xb
 8000 02ff 49       		.uleb128 0x49
 8001 0300 13       		.uleb128 0x13
 8002 0301 02       		.uleb128 0x2
 8003 0302 18       		.uleb128 0x18
 8004 0303 00       		.byte	0
 8005 0304 00       		.byte	0
 8006 0305 39       		.uleb128 0x39
 8007 0306 34       		.uleb128 0x34
 8008 0307 00       		.byte	0
 8009 0308 03       		.uleb128 0x3
 8010 0309 0E       		.uleb128 0xe
 8011 030a 3A       		.uleb128 0x3a
 8012 030b 0B       		.uleb128 0xb
 8013 030c 3B       		.uleb128 0x3b
 8014 030d 0B       		.uleb128 0xb
 8015 030e 49       		.uleb128 0x49
 8016 030f 13       		.uleb128 0x13
 8017 0310 02       		.uleb128 0x2
 8018 0311 18       		.uleb128 0x18
 8019 0312 00       		.byte	0
 8020 0313 00       		.byte	0
 8021 0314 3A       		.uleb128 0x3a
 8022 0315 34       		.uleb128 0x34
 8023 0316 00       		.byte	0
 8024 0317 03       		.uleb128 0x3
 8025 0318 08       		.uleb128 0x8
 8026 0319 3A       		.uleb128 0x3a
ARM GAS  C:\Users\PCHAUT~1\AppData\Local\Temp\ccIm8FNl.s 			page 143


 8027 031a 0B       		.uleb128 0xb
 8028 031b 3B       		.uleb128 0x3b
 8029 031c 0B       		.uleb128 0xb
 8030 031d 49       		.uleb128 0x49
 8031 031e 13       		.uleb128 0x13
 8032 031f 02       		.uleb128 0x2
 8033 0320 18       		.uleb128 0x18
 8034 0321 00       		.byte	0
 8035 0322 00       		.byte	0
 8036 0323 3B       		.uleb128 0x3b
 8037 0324 34       		.uleb128 0x34
 8038 0325 00       		.byte	0
 8039 0326 03       		.uleb128 0x3
 8040 0327 0E       		.uleb128 0xe
 8041 0328 49       		.uleb128 0x49
 8042 0329 13       		.uleb128 0x13
 8043 032a 34       		.uleb128 0x34
 8044 032b 19       		.uleb128 0x19
 8045 032c 02       		.uleb128 0x2
 8046 032d 18       		.uleb128 0x18
 8047 032e 00       		.byte	0
 8048 032f 00       		.byte	0
 8049 0330 3C       		.uleb128 0x3c
 8050 0331 2E       		.uleb128 0x2e
 8051 0332 00       		.byte	0
 8052 0333 03       		.uleb128 0x3
 8053 0334 0E       		.uleb128 0xe
 8054 0335 3A       		.uleb128 0x3a
 8055 0336 0B       		.uleb128 0xb
 8056 0337 3B       		.uleb128 0x3b
 8057 0338 05       		.uleb128 0x5
 8058 0339 27       		.uleb128 0x27
 8059 033a 19       		.uleb128 0x19
 8060 033b 11       		.uleb128 0x11
 8061 033c 01       		.uleb128 0x1
 8062 033d 12       		.uleb128 0x12
 8063 033e 06       		.uleb128 0x6
 8064 033f 40       		.uleb128 0x40
 8065 0340 18       		.uleb128 0x18
 8066 0341 9642     		.uleb128 0x2116
 8067 0343 19       		.uleb128 0x19
 8068 0344 00       		.byte	0
 8069 0345 00       		.byte	0
 8070 0346 3D       		.uleb128 0x3d
 8071 0347 1D       		.uleb128 0x1d
 8072 0348 01       		.byte	0x1
 8073 0349 31       		.uleb128 0x31
 8074 034a 13       		.uleb128 0x13
 8075 034b 11       		.uleb128 0x11
 8076 034c 01       		.uleb128 0x1
 8077 034d 12       		.uleb128 0x12
 8078 034e 06       		.uleb128 0x6
 8079 034f 58       		.uleb128 0x58
 8080 0350 0B       		.uleb128 0xb
 8081 0351 59       		.uleb128 0x59
 8082 0352 05       		.uleb128 0x5
 8083 0353 00       		.byte	0
ARM GAS  C:\Users\PCHAUT~1\AppData\Local\Temp\ccIm8FNl.s 			page 144


 8084 0354 00       		.byte	0
 8085 0355 3E       		.uleb128 0x3e
 8086 0356 05       		.uleb128 0x5
 8087 0357 00       		.byte	0
 8088 0358 31       		.uleb128 0x31
 8089 0359 13       		.uleb128 0x13
 8090 035a 02       		.uleb128 0x2
 8091 035b 18       		.uleb128 0x18
 8092 035c 00       		.byte	0
 8093 035d 00       		.byte	0
 8094 035e 3F       		.uleb128 0x3f
 8095 035f 2E       		.uleb128 0x2e
 8096 0360 01       		.byte	0x1
 8097 0361 03       		.uleb128 0x3
 8098 0362 0E       		.uleb128 0xe
 8099 0363 3A       		.uleb128 0x3a
 8100 0364 0B       		.uleb128 0xb
 8101 0365 3B       		.uleb128 0x3b
 8102 0366 05       		.uleb128 0x5
 8103 0367 27       		.uleb128 0x27
 8104 0368 19       		.uleb128 0x19
 8105 0369 20       		.uleb128 0x20
 8106 036a 0B       		.uleb128 0xb
 8107 036b 00       		.byte	0
 8108 036c 00       		.byte	0
 8109 036d 40       		.uleb128 0x40
 8110 036e 05       		.uleb128 0x5
 8111 036f 00       		.byte	0
 8112 0370 03       		.uleb128 0x3
 8113 0371 0E       		.uleb128 0xe
 8114 0372 3A       		.uleb128 0x3a
 8115 0373 0B       		.uleb128 0xb
 8116 0374 3B       		.uleb128 0x3b
 8117 0375 05       		.uleb128 0x5
 8118 0376 49       		.uleb128 0x49
 8119 0377 13       		.uleb128 0x13
 8120 0378 00       		.byte	0
 8121 0379 00       		.byte	0
 8122 037a 00       		.byte	0
 8123              		.section	.debug_aranges,"",%progbits
 8124 0000 CC000000 		.4byte	0xcc
 8125 0004 0200     		.2byte	0x2
 8126 0006 00000000 		.4byte	.Ldebug_info0
 8127 000a 04       		.byte	0x4
 8128 000b 00       		.byte	0
 8129 000c 0000     		.2byte	0
 8130 000e 0000     		.2byte	0
 8131 0010 00000000 		.4byte	.LFB116
 8132 0014 30000000 		.4byte	.LFE116-.LFB116
 8133 0018 00000000 		.4byte	.LFB117
 8134 001c 30000000 		.4byte	.LFE117-.LFB117
 8135 0020 00000000 		.4byte	.LFB145
 8136 0024 30000000 		.4byte	.LFE145-.LFB145
 8137 0028 00000000 		.4byte	.LFB146
 8138 002c 58000000 		.4byte	.LFE146-.LFB146
 8139 0030 00000000 		.4byte	.LFB250
 8140 0034 E0000000 		.4byte	.LFE250-.LFB250
ARM GAS  C:\Users\PCHAUT~1\AppData\Local\Temp\ccIm8FNl.s 			page 145


 8141 0038 00000000 		.4byte	.LFB251
 8142 003c 68000000 		.4byte	.LFE251-.LFB251
 8143 0040 00000000 		.4byte	.LFB252
 8144 0044 3C000000 		.4byte	.LFE252-.LFB252
 8145 0048 00000000 		.4byte	.LFB253
 8146 004c 3C000000 		.4byte	.LFE253-.LFB253
 8147 0050 00000000 		.4byte	.LFB254
 8148 0054 F4000000 		.4byte	.LFE254-.LFB254
 8149 0058 00000000 		.4byte	.LFB255
 8150 005c 80000000 		.4byte	.LFE255-.LFB255
 8151 0060 00000000 		.4byte	.LFB256
 8152 0064 7C000000 		.4byte	.LFE256-.LFB256
 8153 0068 00000000 		.4byte	.LFB257
 8154 006c 8C000000 		.4byte	.LFE257-.LFB257
 8155 0070 00000000 		.4byte	.LFB258
 8156 0074 28010000 		.4byte	.LFE258-.LFB258
 8157 0078 00000000 		.4byte	.LFB259
 8158 007c 2C010000 		.4byte	.LFE259-.LFB259
 8159 0080 00000000 		.4byte	.LFB260
 8160 0084 20010000 		.4byte	.LFE260-.LFB260
 8161 0088 00000000 		.4byte	.LFB261
 8162 008c F8000000 		.4byte	.LFE261-.LFB261
 8163 0090 00000000 		.4byte	.LFB262
 8164 0094 E8010000 		.4byte	.LFE262-.LFB262
 8165 0098 00000000 		.4byte	.LFB263
 8166 009c 2C000000 		.4byte	.LFE263-.LFB263
 8167 00a0 00000000 		.4byte	.LFB264
 8168 00a4 78000000 		.4byte	.LFE264-.LFB264
 8169 00a8 00000000 		.4byte	.LFB265
 8170 00ac 4C000000 		.4byte	.LFE265-.LFB265
 8171 00b0 00000000 		.4byte	.LFB266
 8172 00b4 30030000 		.4byte	.LFE266-.LFB266
 8173 00b8 00000000 		.4byte	.LFB267
 8174 00bc 40000000 		.4byte	.LFE267-.LFB267
 8175 00c0 00000000 		.4byte	.LFB268
 8176 00c4 48000000 		.4byte	.LFE268-.LFB268
 8177 00c8 00000000 		.4byte	0
 8178 00cc 00000000 		.4byte	0
 8179              		.section	.debug_ranges,"",%progbits
 8180              	.Ldebug_ranges0:
 8181 0000 D8000000 		.4byte	.LBB24
 8182 0004 28010000 		.4byte	.LBE24
 8183 0008 2A010000 		.4byte	.LBB27
 8184 000c 46010000 		.4byte	.LBE27
 8185 0010 00000000 		.4byte	0
 8186 0014 00000000 		.4byte	0
 8187 0018 00000000 		.4byte	.LFB116
 8188 001c 30000000 		.4byte	.LFE116
 8189 0020 00000000 		.4byte	.LFB117
 8190 0024 30000000 		.4byte	.LFE117
 8191 0028 00000000 		.4byte	.LFB145
 8192 002c 30000000 		.4byte	.LFE145
 8193 0030 00000000 		.4byte	.LFB146
 8194 0034 58000000 		.4byte	.LFE146
 8195 0038 00000000 		.4byte	.LFB250
 8196 003c E0000000 		.4byte	.LFE250
 8197 0040 00000000 		.4byte	.LFB251
ARM GAS  C:\Users\PCHAUT~1\AppData\Local\Temp\ccIm8FNl.s 			page 146


 8198 0044 68000000 		.4byte	.LFE251
 8199 0048 00000000 		.4byte	.LFB252
 8200 004c 3C000000 		.4byte	.LFE252
 8201 0050 00000000 		.4byte	.LFB253
 8202 0054 3C000000 		.4byte	.LFE253
 8203 0058 00000000 		.4byte	.LFB254
 8204 005c F4000000 		.4byte	.LFE254
 8205 0060 00000000 		.4byte	.LFB255
 8206 0064 80000000 		.4byte	.LFE255
 8207 0068 00000000 		.4byte	.LFB256
 8208 006c 7C000000 		.4byte	.LFE256
 8209 0070 00000000 		.4byte	.LFB257
 8210 0074 8C000000 		.4byte	.LFE257
 8211 0078 00000000 		.4byte	.LFB258
 8212 007c 28010000 		.4byte	.LFE258
 8213 0080 00000000 		.4byte	.LFB259
 8214 0084 2C010000 		.4byte	.LFE259
 8215 0088 00000000 		.4byte	.LFB260
 8216 008c 20010000 		.4byte	.LFE260
 8217 0090 00000000 		.4byte	.LFB261
 8218 0094 F8000000 		.4byte	.LFE261
 8219 0098 00000000 		.4byte	.LFB262
 8220 009c E8010000 		.4byte	.LFE262
 8221 00a0 00000000 		.4byte	.LFB263
 8222 00a4 2C000000 		.4byte	.LFE263
 8223 00a8 00000000 		.4byte	.LFB264
 8224 00ac 78000000 		.4byte	.LFE264
 8225 00b0 00000000 		.4byte	.LFB265
 8226 00b4 4C000000 		.4byte	.LFE265
 8227 00b8 00000000 		.4byte	.LFB266
 8228 00bc 30030000 		.4byte	.LFE266
 8229 00c0 00000000 		.4byte	.LFB267
 8230 00c4 40000000 		.4byte	.LFE267
 8231 00c8 00000000 		.4byte	.LFB268
 8232 00cc 48000000 		.4byte	.LFE268
 8233 00d0 00000000 		.4byte	0
 8234 00d4 00000000 		.4byte	0
 8235              		.section	.debug_line,"",%progbits
 8236              	.Ldebug_line0:
 8237 0000 D4080000 		.section	.debug_str,"MS",%progbits,1
 8237      02005105 
 8237      00000201 
 8237      FB0E0D00 
 8237      01010101 
 8238              	.LASF131:
 8239 0000 696E7438 		.ascii	"int8_t\000"
 8239      5F7400
 8240              	.LASF231:
 8241 0007 705F7374 		.ascii	"p_stats\000"
 8241      61747300 
 8242              	.LASF3:
 8243 000f 73697A65 		.ascii	"size_t\000"
 8243      5F7400
 8244              	.LASF127:
 8245 0016 5F5F6C6F 		.ascii	"__locale_t\000"
 8245      63616C65 
 8245      5F7400
ARM GAS  C:\Users\PCHAUT~1\AppData\Local\Temp\ccIm8FNl.s 			page 147


 8246              	.LASF341:
 8247 0021 6368616E 		.ascii	"changed\000"
 8247      67656400 
 8248              	.LASF26:
 8249 0029 5F5F7661 		.ascii	"__value\000"
 8249      6C756500 
 8250              	.LASF322:
 8251 0031 63665F6F 		.ascii	"cf_off_name\000"
 8251      66665F6E 
 8251      616D6500 
 8252              	.LASF208:
 8253 003d 73797374 		.ascii	"systime_t\000"
 8253      696D655F 
 8253      7400
 8254              	.LASF95:
 8255 0047 5F5F7366 		.ascii	"__sf\000"
 8255      00
 8256              	.LASF311:
 8257 004c 63685F69 		.ascii	"ch_identifier\000"
 8257      64656E74 
 8257      69666965 
 8257      7200
 8258              	.LASF214:
 8259 005a 705F6374 		.ascii	"p_ctx\000"
 8259      7800
 8260              	.LASF62:
 8261 0060 5F726561 		.ascii	"_read\000"
 8261      6400
 8262              	.LASF203:
 8263 0066 74707269 		.ascii	"tprio_t\000"
 8263      6F5F7400 
 8264              	.LASF330:
 8265 006e 63685F64 		.ascii	"ch_debug\000"
 8265      65627567 
 8265      00
 8266              	.LASF225:
 8267 0077 705F6D73 		.ascii	"p_msgqueue\000"
 8267      67717565 
 8267      756500
 8268              	.LASF63:
 8269 0082 5F777269 		.ascii	"_write\000"
 8269      746500
 8270              	.LASF241:
 8271 0089 725F6374 		.ascii	"r_ctx\000"
 8271      7800
 8272              	.LASF135:
 8273 008f 696E7433 		.ascii	"int32_t\000"
 8273      325F7400 
 8274              	.LASF380:
 8275 0097 64697363 		.ascii	"discard_msgpack_element\000"
 8275      6172645F 
 8275      6D736770 
 8275      61636B5F 
 8275      656C656D 
 8276              	.LASF106:
 8277 00af 5F617363 		.ascii	"_asctime_buf\000"
 8277      74696D65 
ARM GAS  C:\Users\PCHAUT~1\AppData\Local\Temp\ccIm8FNl.s 			page 148


 8277      5F627566 
 8277      00
 8278              	.LASF89:
 8279 00bc 5F637674 		.ascii	"_cvtlen\000"
 8279      6C656E00 
 8280              	.LASF319:
 8281 00c4 63665F6F 		.ascii	"cf_off_ctx\000"
 8281      66665F63 
 8281      747800
 8282              	.LASF370:
 8283 00cf 72656164 		.ascii	"read_parameter_boolean\000"
 8283      5F706172 
 8283      616D6574 
 8283      65725F62 
 8283      6F6F6C65 
 8284              	.LASF245:
 8285 00e6 76746675 		.ascii	"vtfunc_t\000"
 8285      6E635F74 
 8285      00
 8286              	.LASF388:
 8287 00ef 5F5F6675 		.ascii	"__func__\000"
 8287      6E635F5F 
 8287      00
 8288              	.LASF254:
 8289 00f8 63685F76 		.ascii	"ch_virtual_timers_list\000"
 8289      69727475 
 8289      616C5F74 
 8289      696D6572 
 8289      735F6C69 
 8290              	.LASF125:
 8291 010f 5F756E75 		.ascii	"_unused\000"
 8291      73656400 
 8292              	.LASF36:
 8293 0117 5F5F746D 		.ascii	"__tm\000"
 8293      00
 8294              	.LASF121:
 8295 011c 5F776373 		.ascii	"_wcsrtombs_state\000"
 8295      72746F6D 
 8295      62735F73 
 8295      74617465 
 8295      00
 8296              	.LASF67:
 8297 012d 5F6E6275 		.ascii	"_nbuf\000"
 8297      6600
 8298              	.LASF37:
 8299 0133 5F5F746D 		.ascii	"__tm_sec\000"
 8299      5F736563 
 8299      00
 8300              	.LASF194:
 8301 013c 636D705F 		.ascii	"cmp_object_t\000"
 8301      6F626A65 
 8301      63745F74 
 8301      00
 8302              	.LASF114:
 8303 0149 5F6C3634 		.ascii	"_l64a_buf\000"
 8303      615F6275 
 8303      6600
ARM GAS  C:\Users\PCHAUT~1\AppData\Local\Temp\ccIm8FNl.s 			page 149


 8304              	.LASF346:
 8305 0153 5F706172 		.ascii	"_param_val_vector_s\000"
 8305      616D5F76 
 8305      616C5F76 
 8305      6563746F 
 8305      725F7300 
 8306              	.LASF71:
 8307 0167 5F6C6F63 		.ascii	"_lock\000"
 8307      6B00
 8308              	.LASF260:
 8309 016d 6C6F636B 		.ascii	"lock_cnt\000"
 8309      5F636E74 
 8309      00
 8310              	.LASF315:
 8311 0176 63685F70 		.ascii	"ch_ptrsize\000"
 8311      74727369 
 8311      7A6500
 8312              	.LASF182:
 8313 0181 74797065 		.ascii	"type\000"
 8313      00
 8314              	.LASF102:
 8315 0186 5F6D756C 		.ascii	"_mult\000"
 8315      7400
 8316              	.LASF350:
 8317 018c 70617261 		.ascii	"parameter_msgpack_err_cb\000"
 8317      6D657465 
 8317      725F6D73 
 8317      67706163 
 8317      6B5F6572 
 8318              	.LASF276:
 8319 01a5 73655F74 		.ascii	"se_tp\000"
 8319      7000
 8320              	.LASF290:
 8321 01ab 74696D65 		.ascii	"time_measurement_t\000"
 8321      5F6D6561 
 8321      73757265 
 8321      6D656E74 
 8321      5F7400
 8322              	.LASF308:
 8323 01be 6D5F6F77 		.ascii	"m_owner\000"
 8323      6E657200 
 8324              	.LASF252:
 8325 01c6 76745F70 		.ascii	"vt_par\000"
 8325      617200
 8326              	.LASF220:
 8327 01cd 705F666C 		.ascii	"p_flags\000"
 8327      61677300 
 8328              	.LASF23:
 8329 01d5 5F5F7763 		.ascii	"__wch\000"
 8329      6800
 8330              	.LASF297:
 8331 01db 65786974 		.ascii	"exitcode\000"
 8331      636F6465 
 8331      00
 8332              	.LASF6:
 8333 01e4 5F5F7569 		.ascii	"__uint8_t\000"
 8333      6E74385F 
ARM GAS  C:\Users\PCHAUT~1\AppData\Local\Temp\ccIm8FNl.s 			page 150


 8333      7400
 8334              	.LASF367:
 8335 01ee 7374725F 		.ascii	"str_buf\000"
 8335      62756600 
 8336              	.LASF302:
 8337 01f6 65776D61 		.ascii	"ewmask\000"
 8337      736B00
 8338              	.LASF275:
 8339 01fd 73655F74 		.ascii	"se_time\000"
 8339      696D6500 
 8340              	.LASF59:
 8341 0205 5F66696C 		.ascii	"_file\000"
 8341      6500
 8342              	.LASF317:
 8343 020b 63685F74 		.ascii	"ch_threadsize\000"
 8343      68726561 
 8343      6473697A 
 8343      6500
 8344              	.LASF378:
 8345 0219 76616C66 		.ascii	"valf\000"
 8345      00
 8346              	.LASF46:
 8347 021e 5F6F6E5F 		.ascii	"_on_exit_args\000"
 8347      65786974 
 8347      5F617267 
 8347      7300
 8348              	.LASF379:
 8349 022c 76616C69 		.ascii	"vali\000"
 8349      00
 8350              	.LASF145:
 8351 0231 636D705F 		.ascii	"cmp_writer\000"
 8351      77726974 
 8351      657200
 8352              	.LASF215:
 8353 023c 705F6E65 		.ascii	"p_newer\000"
 8353      77657200 
 8354              	.LASF117:
 8355 0244 5F6D6272 		.ascii	"_mbrlen_state\000"
 8355      6C656E5F 
 8355      73746174 
 8355      6500
 8356              	.LASF13:
 8357 0252 6C6F6E67 		.ascii	"long int\000"
 8357      20696E74 
 8357      00
 8358              	.LASF211:
 8359 025b 705F6E65 		.ascii	"p_next\000"
 8359      787400
 8360              	.LASF382:
 8361 0262 706F7274 		.ascii	"port_unlock\000"
 8361      5F756E6C 
 8361      6F636B00 
 8362              	.LASF128:
 8363 026e 5F696D70 		.ascii	"_impure_ptr\000"
 8363      7572655F 
 8363      70747200 
 8364              	.LASF86:
ARM GAS  C:\Users\PCHAUT~1\AppData\Local\Temp\ccIm8FNl.s 			page 151


 8365 027a 5F726573 		.ascii	"_result_k\000"
 8365      756C745F 
 8365      6B00
 8366              	.LASF324:
 8367 0284 63665F6F 		.ascii	"cf_off_state\000"
 8367      66665F73 
 8367      74617465 
 8367      00
 8368              	.LASF56:
 8369 0291 5F73697A 		.ascii	"_size\000"
 8369      6500
 8370              	.LASF212:
 8371 0297 705F7072 		.ascii	"p_prev\000"
 8371      657600
 8372              	.LASF107:
 8373 029e 5F6C6F63 		.ascii	"_localtime_buf\000"
 8373      616C7469 
 8373      6D655F62 
 8373      756600
 8374              	.LASF200:
 8375 02ad 74737461 		.ascii	"tstate_t\000"
 8375      74655F74 
 8375      00
 8376              	.LASF198:
 8377 02b6 72747469 		.ascii	"rttime_t\000"
 8377      6D655F74 
 8377      00
 8378              	.LASF235:
 8379 02bf 74687265 		.ascii	"threads_queue_t\000"
 8379      6164735F 
 8379      71756575 
 8379      655F7400 
 8380              	.LASF228:
 8381 02cf 705F6D74 		.ascii	"p_mtxlist\000"
 8381      786C6973 
 8381      7400
 8382              	.LASF271:
 8383 02d9 72656761 		.ascii	"regarm_t\000"
 8383      726D5F74 
 8383      00
 8384              	.LASF363:
 8385 02e2 72656164 		.ascii	"read_namespace\000"
 8385      5F6E616D 
 8385      65737061 
 8385      636500
 8386              	.LASF142:
 8387 02f1 6572726F 		.ascii	"error\000"
 8387      7200
 8388              	.LASF41:
 8389 02f7 5F5F746D 		.ascii	"__tm_mon\000"
 8389      5F6D6F6E 
 8389      00
 8390              	.LASF361:
 8391 0300 6572725F 		.ascii	"err_ignore_cb\000"
 8391      69676E6F 
 8391      72655F63 
 8391      6200
ARM GAS  C:\Users\PCHAUT~1\AppData\Local\Temp\ccIm8FNl.s 			page 152


 8392              	.LASF104:
 8393 030e 5F756E75 		.ascii	"_unused_rand\000"
 8393      7365645F 
 8393      72616E64 
 8393      00
 8394              	.LASF146:
 8395 031b 434D505F 		.ascii	"CMP_TYPE_POSITIVE_FIXNUM\000"
 8395      54595045 
 8395      5F504F53 
 8395      49544956 
 8395      455F4649 
 8396              	.LASF5:
 8397 0334 7369676E 		.ascii	"signed char\000"
 8397      65642063 
 8397      68617200 
 8398              	.LASF222:
 8399 0340 705F7072 		.ascii	"p_preempt\000"
 8399      65656D70 
 8399      7400
 8400              	.LASF132:
 8401 034a 75696E74 		.ascii	"uint8_t\000"
 8401      385F7400 
 8402              	.LASF185:
 8403 0352 626F6F6C 		.ascii	"boolean\000"
 8403      65616E00 
 8404              	.LASF205:
 8405 035a 6576656E 		.ascii	"eventmask_t\000"
 8405      746D6173 
 8405      6B5F7400 
 8406              	.LASF273:
 8407 0366 636F6E74 		.ascii	"context\000"
 8407      65787400 
 8408              	.LASF299:
 8409 036e 77747472 		.ascii	"wttrp\000"
 8409      7000
 8410              	.LASF7:
 8411 0374 756E7369 		.ascii	"unsigned char\000"
 8411      676E6564 
 8411      20636861 
 8411      7200
 8412              	.LASF376:
 8413 0382 6765745F 		.ascii	"get_int\000"
 8413      696E7400 
 8414              	.LASF294:
 8415 038a 6D5F6372 		.ascii	"m_crit_isr\000"
 8415      69745F69 
 8415      737200
 8416              	.LASF258:
 8417 0395 70616E69 		.ascii	"panic_msg\000"
 8417      635F6D73 
 8417      6700
 8418              	.LASF81:
 8419 039f 5F756E73 		.ascii	"_unspecified_locale_info\000"
 8419      70656369 
 8419      66696564 
 8419      5F6C6F63 
 8419      616C655F 
ARM GAS  C:\Users\PCHAUT~1\AppData\Local\Temp\ccIm8FNl.s 			page 153


 8420              	.LASF172:
 8421 03b8 434D505F 		.ascii	"CMP_TYPE_FIXEXT16\000"
 8421      54595045 
 8421      5F464958 
 8421      45585431 
 8421      3600
 8422              	.LASF74:
 8423 03ca 5F726565 		.ascii	"_reent\000"
 8423      6E7400
 8424              	.LASF242:
 8425 03d1 725F6E65 		.ascii	"r_newer\000"
 8425      77657200 
 8426              	.LASF129:
 8427 03d9 5F676C6F 		.ascii	"_global_impure_ptr\000"
 8427      62616C5F 
 8427      696D7075 
 8427      72655F70 
 8427      747200
 8428              	.LASF256:
 8429 03ec 73797374 		.ascii	"system_debug_t\000"
 8429      656D5F64 
 8429      65627567 
 8429      5F7400
 8430              	.LASF352:
 8431 03fb 6572725F 		.ascii	"err_arg\000"
 8431      61726700 
 8432              	.LASF140:
 8433 0403 5F426F6F 		.ascii	"_Bool\000"
 8433      6C00
 8434              	.LASF359:
 8435 0409 70617261 		.ascii	"parameter_msgpack_read_cmp\000"
 8435      6D657465 
 8435      725F6D73 
 8435      67706163 
 8435      6B5F7265 
 8436              	.LASF343:
 8437 0424 76616C75 		.ascii	"value\000"
 8437      6500
 8438              	.LASF157:
 8439 042a 434D505F 		.ascii	"CMP_TYPE_EXT32\000"
 8439      54595045 
 8439      5F455854 
 8439      333200
 8440              	.LASF29:
 8441 0439 63686172 		.ascii	"char\000"
 8441      00
 8442              	.LASF310:
 8443 043e 6D5F636E 		.ascii	"m_cnt\000"
 8443      7400
 8444              	.LASF53:
 8445 0444 5F666E73 		.ascii	"_fns\000"
 8445      00
 8446              	.LASF65:
 8447 0449 5F636C6F 		.ascii	"_close\000"
 8447      736500
 8448              	.LASF122:
 8449 0450 5F685F65 		.ascii	"_h_errno\000"
ARM GAS  C:\Users\PCHAUT~1\AppData\Local\Temp\ccIm8FNl.s 			page 154


 8449      72726E6F 
 8449      00
 8450              	.LASF155:
 8451 0459 434D505F 		.ascii	"CMP_TYPE_EXT8\000"
 8451      54595045 
 8451      5F455854 
 8451      3800
 8452              	.LASF213:
 8453 0467 705F7072 		.ascii	"p_prio\000"
 8453      696F00
 8454              	.LASF10:
 8455 046e 5F5F7569 		.ascii	"__uint16_t\000"
 8455      6E743136 
 8455      5F7400
 8456              	.LASF298:
 8457 0479 77746F62 		.ascii	"wtobjp\000"
 8457      6A7000
 8458              	.LASF328:
 8459 0480 63665F6F 		.ascii	"cf_off_time\000"
 8459      66665F74 
 8459      696D6500 
 8460              	.LASF292:
 8461 048c 6E5F6374 		.ascii	"n_ctxswc\000"
 8461      78737763 
 8461      00
 8462              	.LASF76:
 8463 0495 5F737464 		.ascii	"_stdin\000"
 8463      696E00
 8464              	.LASF320:
 8465 049c 63665F6F 		.ascii	"cf_off_newer\000"
 8465      66665F6E 
 8465      65776572 
 8465      00
 8466              	.LASF387:
 8467 04a9 636D705F 		.ascii	"cmp_object_data_u\000"
 8467      6F626A65 
 8467      63745F64 
 8467      6174615F 
 8467      7500
 8468              	.LASF180:
 8469 04bb 434D505F 		.ascii	"CMP_TYPE_NEGATIVE_FIXNUM\000"
 8469      54595045 
 8469      5F4E4547 
 8469      41544956 
 8469      455F4649 
 8470              	.LASF272:
 8471 04d4 73746B61 		.ascii	"stkalign_t\000"
 8471      6C69676E 
 8471      5F7400
 8472              	.LASF279:
 8473 04df 63685F73 		.ascii	"ch_swc_event_t\000"
 8473      77635F65 
 8473      76656E74 
 8473      5F7400
 8474              	.LASF318:
 8475 04ee 63665F6F 		.ascii	"cf_off_prio\000"
 8475      66665F70 
ARM GAS  C:\Users\PCHAUT~1\AppData\Local\Temp\ccIm8FNl.s 			page 155


 8475      72696F00 
 8476              	.LASF287:
 8477 04fa 776F7273 		.ascii	"worst\000"
 8477      7400
 8478              	.LASF342:
 8479 0500 64656669 		.ascii	"defined\000"
 8479      6E656400 
 8480              	.LASF150:
 8481 0508 434D505F 		.ascii	"CMP_TYPE_NIL\000"
 8481      54595045 
 8481      5F4E494C 
 8481      00
 8482              	.LASF206:
 8483 0515 636E745F 		.ascii	"cnt_t\000"
 8483      7400
 8484              	.LASF261:
 8485 051b 74726163 		.ascii	"trace_buffer\000"
 8485      655F6275 
 8485      66666572 
 8485      00
 8486              	.LASF251:
 8487 0528 76745F66 		.ascii	"vt_func\000"
 8487      756E6300 
 8488              	.LASF364:
 8489 0530 72656164 		.ascii	"read_parameter\000"
 8489      5F706172 
 8489      616D6574 
 8489      657200
 8490              	.LASF61:
 8491 053f 5F636F6F 		.ascii	"_cookie\000"
 8491      6B696500 
 8492              	.LASF161:
 8493 0547 434D505F 		.ascii	"CMP_TYPE_UINT16\000"
 8493      54595045 
 8493      5F55494E 
 8493      54313600 
 8494              	.LASF283:
 8495 0557 63685F74 		.ascii	"ch_trace_buffer_t\000"
 8495      72616365 
 8495      5F627566 
 8495      6665725F 
 8495      7400
 8496              	.LASF227:
 8497 0569 705F6570 		.ascii	"p_epending\000"
 8497      656E6469 
 8497      6E6700
 8498              	.LASF301:
 8499 0574 77746D74 		.ascii	"wtmtxp\000"
 8499      787000
 8500              	.LASF34:
 8501 057b 5F776473 		.ascii	"_wds\000"
 8501      00
 8502              	.LASF181:
 8503 0580 636D705F 		.ascii	"cmp_ext_s\000"
 8503      6578745F 
 8503      7300
 8504              	.LASF184:
ARM GAS  C:\Users\PCHAUT~1\AppData\Local\Temp\ccIm8FNl.s 			page 156


 8505 058a 636D705F 		.ascii	"cmp_ext_t\000"
 8505      6578745F 
 8505      7400
 8506              	.LASF238:
 8507 0594 63685F72 		.ascii	"ch_ready_list\000"
 8507      65616479 
 8507      5F6C6973 
 8507      7400
 8508              	.LASF126:
 8509 05a2 5F5F6C6F 		.ascii	"__lock\000"
 8509      636B00
 8510              	.LASF93:
 8511 05a9 5F736967 		.ascii	"_sig_func\000"
 8511      5F66756E 
 8511      6300
 8512              	.LASF69:
 8513 05b3 5F6F6666 		.ascii	"_offset\000"
 8513      73657400 
 8514              	.LASF90:
 8515 05bb 5F637674 		.ascii	"_cvtbuf\000"
 8515      62756600 
 8516              	.LASF259:
 8517 05c3 6973725F 		.ascii	"isr_cnt\000"
 8517      636E7400 
 8518              	.LASF195:
 8519 05cb 696E6465 		.ascii	"index\000"
 8519      7800
 8520              	.LASF189:
 8521 05d1 62696E5F 		.ascii	"bin_size\000"
 8521      73697A65 
 8521      00
 8522              	.LASF196:
 8523 05da 636D705F 		.ascii	"cmp_mem_access_t\000"
 8523      6D656D5F 
 8523      61636365 
 8523      73735F74 
 8523      00
 8524              	.LASF164:
 8525 05eb 434D505F 		.ascii	"CMP_TYPE_SINT8\000"
 8525      54595045 
 8525      5F53494E 
 8525      543800
 8526              	.LASF348:
 8527 05fa 5F706172 		.ascii	"_param_val_matrix_s\000"
 8527      616D5F76 
 8527      616C5F6D 
 8527      61747269 
 8527      785F7300 
 8528              	.LASF278:
 8529 060e 73655F73 		.ascii	"se_state\000"
 8529      74617465 
 8529      00
 8530              	.LASF353:
 8531 0617 70617261 		.ascii	"parameter_msgpack_write\000"
 8531      6D657465 
 8531      725F6D73 
 8531      67706163 
ARM GAS  C:\Users\PCHAUT~1\AppData\Local\Temp\ccIm8FNl.s 			page 157


 8531      6B5F7772 
 8532              	.LASF293:
 8533 062f 6D5F6372 		.ascii	"m_crit_thd\000"
 8533      69745F74 
 8533      686400
 8534              	.LASF17:
 8535 063a 5F5F7569 		.ascii	"__uint64_t\000"
 8535      6E743634 
 8535      5F7400
 8536              	.LASF381:
 8537 0645 63685379 		.ascii	"chSysUnlock\000"
 8537      73556E6C 
 8537      6F636B00 
 8538              	.LASF87:
 8539 0651 5F703573 		.ascii	"_p5s\000"
 8539      00
 8540              	.LASF15:
 8541 0656 6C6F6E67 		.ascii	"long unsigned int\000"
 8541      20756E73 
 8541      69676E65 
 8541      6420696E 
 8541      7400
 8542              	.LASF312:
 8543 0668 63685F7A 		.ascii	"ch_zero\000"
 8543      65726F00 
 8544              	.LASF389:
 8545 0670 63685379 		.ascii	"chSysLock\000"
 8545      734C6F63 
 8545      6B00
 8546              	.LASF57:
 8547 067a 5F5F7346 		.ascii	"__sFILE\000"
 8547      494C4500 
 8548              	.LASF83:
 8549 0682 5F5F7364 		.ascii	"__sdidinit\000"
 8549      6964696E 
 8549      697400
 8550              	.LASF73:
 8551 068d 5F666C61 		.ascii	"_flags2\000"
 8551      67733200 
 8552              	.LASF356:
 8553 0695 70617261 		.ascii	"param\000"
 8553      6D00
 8554              	.LASF162:
 8555 069b 434D505F 		.ascii	"CMP_TYPE_UINT32\000"
 8555      54595045 
 8555      5F55494E 
 8555      54333200 
 8556              	.LASF303:
 8557 06ab 63685F73 		.ascii	"ch_semaphore\000"
 8557      656D6170 
 8557      686F7265 
 8557      00
 8558              	.LASF210:
 8559 06b8 63685F74 		.ascii	"ch_thread\000"
 8559      68726561 
 8559      6400
 8560              	.LASF253:
ARM GAS  C:\Users\PCHAUT~1\AppData\Local\Temp\ccIm8FNl.s 			page 158


 8561 06c2 76697274 		.ascii	"virtual_timers_list_t\000"
 8561      75616C5F 
 8561      74696D65 
 8561      72735F6C 
 8561      6973745F 
 8562              	.LASF176:
 8563 06d8 434D505F 		.ascii	"CMP_TYPE_ARRAY16\000"
 8563      54595045 
 8563      5F415252 
 8563      41593136 
 8563      00
 8564              	.LASF347:
 8565 06e9 6275665F 		.ascii	"buf_dim\000"
 8565      64696D00 
 8566              	.LASF75:
 8567 06f1 5F657272 		.ascii	"_errno\000"
 8567      6E6F00
 8568              	.LASF246:
 8569 06f8 76697274 		.ascii	"virtual_timer_t\000"
 8569      75616C5F 
 8569      74696D65 
 8569      725F7400 
 8570              	.LASF237:
 8571 0708 72656164 		.ascii	"ready_list_t\000"
 8571      795F6C69 
 8571      73745F74 
 8571      00
 8572              	.LASF338:
 8573 0715 70617261 		.ascii	"parameter_list\000"
 8573      6D657465 
 8573      725F6C69 
 8573      737400
 8574              	.LASF115:
 8575 0724 5F736967 		.ascii	"_signal_buf\000"
 8575      6E616C5F 
 8575      62756600 
 8576              	.LASF358:
 8577 0730 70617261 		.ascii	"parameter_msgpack_read\000"
 8577      6D657465 
 8577      725F6D73 
 8577      67706163 
 8577      6B5F7265 
 8578              	.LASF207:
 8579 0747 75636E74 		.ascii	"ucnt_t\000"
 8579      5F7400
 8580              	.LASF362:
 8581 074e 69645F73 		.ascii	"id_size\000"
 8581      697A6500 
 8582              	.LASF144:
 8583 0756 77726974 		.ascii	"write\000"
 8583      6500
 8584              	.LASF35:
 8585 075c 5F426967 		.ascii	"_Bigint\000"
 8585      696E7400 
 8586              	.LASF234:
 8587 0764 63685F74 		.ascii	"ch_threads_list\000"
 8587      68726561 
ARM GAS  C:\Users\PCHAUT~1\AppData\Local\Temp\ccIm8FNl.s 			page 159


 8587      64735F6C 
 8587      69737400 
 8588              	.LASF141:
 8589 0774 636D705F 		.ascii	"cmp_ctx_s\000"
 8589      6374785F 
 8589      7300
 8590              	.LASF192:
 8591 077e 636D705F 		.ascii	"cmp_ctx_t\000"
 8591      6374785F 
 8591      7400
 8592              	.LASF32:
 8593 0788 5F6D6178 		.ascii	"_maxwds\000"
 8593      77647300 
 8594              	.LASF291:
 8595 0790 6E5F6972 		.ascii	"n_irq\000"
 8595      7100
 8596              	.LASF84:
 8597 0796 5F5F636C 		.ascii	"__cleanup\000"
 8597      65616E75 
 8597      7000
 8598              	.LASF92:
 8599 07a0 5F617465 		.ascii	"_atexit0\000"
 8599      78697430 
 8599      00
 8600              	.LASF173:
 8601 07a9 434D505F 		.ascii	"CMP_TYPE_STR8\000"
 8601      54595045 
 8601      5F535452 
 8601      3800
 8602              	.LASF327:
 8603 07b7 63665F6F 		.ascii	"cf_off_preempt\000"
 8603      66665F70 
 8603      7265656D 
 8603      707400
 8604              	.LASF139:
 8605 07c6 636D705F 		.ascii	"cmp_reader\000"
 8605      72656164 
 8605      657200
 8606              	.LASF14:
 8607 07d1 5F5F7569 		.ascii	"__uint32_t\000"
 8607      6E743332 
 8607      5F7400
 8608              	.LASF80:
 8609 07dc 5F656D65 		.ascii	"_emergency\000"
 8609      7267656E 
 8609      637900
 8610              	.LASF160:
 8611 07e7 434D505F 		.ascii	"CMP_TYPE_UINT8\000"
 8611      54595045 
 8611      5F55494E 
 8611      543800
 8612              	.LASF1:
 8613 07f6 6C6F6E67 		.ascii	"long long int\000"
 8613      206C6F6E 
 8613      6720696E 
 8613      7400
 8614              	.LASF314:
ARM GAS  C:\Users\PCHAUT~1\AppData\Local\Temp\ccIm8FNl.s 			page 160


 8615 0804 63685F76 		.ascii	"ch_version\000"
 8615      65727369 
 8615      6F6E00
 8616              	.LASF177:
 8617 080f 434D505F 		.ascii	"CMP_TYPE_ARRAY32\000"
 8617      54595045 
 8617      5F415252 
 8617      41593332 
 8617      00
 8618              	.LASF385:
 8619 0820 2E2E2F6C 		.ascii	"../lib/e-puck2_main-processor/src/parameter/paramet"
 8619      69622F65 
 8619      2D707563 
 8619      6B325F6D 
 8619      61696E2D 
 8620 0853 65725F6D 		.ascii	"er_msgpack.c\000"
 8620      73677061 
 8620      636B2E63 
 8620      00
 8621              	.LASF98:
 8622 0860 5F6E696F 		.ascii	"_niobs\000"
 8622      627300
 8623              	.LASF282:
 8624 0867 74625F62 		.ascii	"tb_buffer\000"
 8624      75666665 
 8624      7200
 8625              	.LASF248:
 8626 0871 76745F6E 		.ascii	"vt_next\000"
 8626      65787400 
 8627              	.LASF94:
 8628 0879 5F5F7367 		.ascii	"__sglue\000"
 8628      6C756500 
 8629              	.LASF124:
 8630 0881 5F6E6D61 		.ascii	"_nmalloc\000"
 8630      6C6C6F63 
 8630      00
 8631              	.LASF249:
 8632 088a 76745F70 		.ascii	"vt_prev\000"
 8632      72657600 
 8633              	.LASF191:
 8634 0892 646F7562 		.ascii	"double\000"
 8634      6C6500
 8635              	.LASF188:
 8636 0899 7374725F 		.ascii	"str_size\000"
 8636      73697A65 
 8636      00
 8637              	.LASF355:
 8638 08a2 6368696C 		.ascii	"child\000"
 8638      6400
 8639              	.LASF316:
 8640 08a8 63685F74 		.ascii	"ch_timesize\000"
 8640      696D6573 
 8640      697A6500 
 8641              	.LASF108:
 8642 08b4 5F67616D 		.ascii	"_gamma_signgam\000"
 8642      6D615F73 
 8642      69676E67 
ARM GAS  C:\Users\PCHAUT~1\AppData\Local\Temp\ccIm8FNl.s 			page 161


 8642      616D00
 8643              	.LASF158:
 8644 08c3 434D505F 		.ascii	"CMP_TYPE_FLOAT\000"
 8644      54595045 
 8644      5F464C4F 
 8644      415400
 8645              	.LASF280:
 8646 08d2 74625F73 		.ascii	"tb_size\000"
 8646      697A6500 
 8647              	.LASF354:
 8648 08da 70617261 		.ascii	"parameter_msgpack_write_cmp\000"
 8648      6D657465 
 8648      725F6D73 
 8648      67706163 
 8648      6B5F7772 
 8649              	.LASF384:
 8650 08f6 474E5520 		.ascii	"GNU C11 7.2.1 20170904 (release) [ARM/embedded-7-br"
 8650      43313120 
 8650      372E322E 
 8650      31203230 
 8650      31373039 
 8651 0929 616E6368 		.ascii	"anch revision 255204] -mcpu=cortex-m4 -mfloat-abi=h"
 8651      20726576 
 8651      6973696F 
 8651      6E203235 
 8651      35323034 
 8652 095c 61726420 		.ascii	"ard -mfpu=fpv4-sp-d16 -mno-thumb-interwork -mthumb "
 8652      2D6D6670 
 8652      753D6670 
 8652      76342D73 
 8652      702D6431 
 8653 098f 2D676764 		.ascii	"-ggdb -O0 -fomit-frame-pointer -falign-functions=16"
 8653      62202D4F 
 8653      30202D66 
 8653      6F6D6974 
 8653      2D667261 
 8654 09c2 202D666E 		.ascii	" -fno-strict-aliasing -fstack-protector-all -ffunct"
 8654      6F2D7374 
 8654      72696374 
 8654      2D616C69 
 8654      6173696E 
 8655 09f5 696F6E2D 		.ascii	"ion-sections -fdata-sections -fno-common -fsingle-p"
 8655      73656374 
 8655      696F6E73 
 8655      202D6664 
 8655      6174612D 
 8656 0a28 72656369 		.ascii	"recision-constant\000"
 8656      73696F6E 
 8656      2D636F6E 
 8656      7374616E 
 8656      7400
 8657              	.LASF149:
 8658 0a3a 434D505F 		.ascii	"CMP_TYPE_FIXSTR\000"
 8658      54595045 
 8658      5F464958 
 8658      53545200 
 8659              	.LASF163:
ARM GAS  C:\Users\PCHAUT~1\AppData\Local\Temp\ccIm8FNl.s 			page 162


 8660 0a4a 434D505F 		.ascii	"CMP_TYPE_UINT64\000"
 8660      54595045 
 8660      5F55494E 
 8660      54363400 
 8661              	.LASF88:
 8662 0a5a 5F667265 		.ascii	"_freelist\000"
 8662      656C6973 
 8662      7400
 8663              	.LASF335:
 8664 0a64 70617265 		.ascii	"parent\000"
 8664      6E7400
 8665              	.LASF99:
 8666 0a6b 5F696F62 		.ascii	"_iobs\000"
 8666      7300
 8667              	.LASF97:
 8668 0a71 5F676C75 		.ascii	"_glue\000"
 8668      6500
 8669              	.LASF168:
 8670 0a77 434D505F 		.ascii	"CMP_TYPE_FIXEXT1\000"
 8670      54595045 
 8670      5F464958 
 8670      45585431 
 8670      00
 8671              	.LASF33:
 8672 0a88 5F736967 		.ascii	"_sign\000"
 8672      6E00
 8673              	.LASF170:
 8674 0a8e 434D505F 		.ascii	"CMP_TYPE_FIXEXT4\000"
 8674      54595045 
 8674      5F464958 
 8674      45585434 
 8674      00
 8675              	.LASF178:
 8676 0a9f 434D505F 		.ascii	"CMP_TYPE_MAP16\000"
 8676      54595045 
 8676      5F4D4150 
 8676      313600
 8677              	.LASF171:
 8678 0aae 434D505F 		.ascii	"CMP_TYPE_FIXEXT8\000"
 8678      54595045 
 8678      5F464958 
 8678      45585438 
 8678      00
 8679              	.LASF190:
 8680 0abf 666C6F61 		.ascii	"float\000"
 8680      7400
 8681              	.LASF152:
 8682 0ac5 434D505F 		.ascii	"CMP_TYPE_BIN8\000"
 8682      54595045 
 8682      5F42494E 
 8682      3800
 8683              	.LASF224:
 8684 0ad3 705F7761 		.ascii	"p_waiting\000"
 8684      6974696E 
 8684      6700
 8685              	.LASF369:
 8686 0add 72656164 		.ascii	"read_parameter_vector\000"
ARM GAS  C:\Users\PCHAUT~1\AppData\Local\Temp\ccIm8FNl.s 			page 163


 8686      5F706172 
 8686      616D6574 
 8686      65725F76 
 8686      6563746F 
 8687              	.LASF277:
 8688 0af3 73655F77 		.ascii	"se_wtobjp\000"
 8688      746F626A 
 8688      7000
 8689              	.LASF143:
 8690 0afd 72656164 		.ascii	"read\000"
 8690      00
 8691              	.LASF268:
 8692 0b02 69646C65 		.ascii	"idle_thread_wa\000"
 8692      5F746872 
 8692      6561645F 
 8692      776100
 8693              	.LASF0:
 8694 0b11 756E7369 		.ascii	"unsigned int\000"
 8694      676E6564 
 8694      20696E74 
 8694      00
 8695              	.LASF368:
 8696 0b1e 72656164 		.ascii	"read_parameter_var_vector\000"
 8696      5F706172 
 8696      616D6574 
 8696      65725F76 
 8696      61725F76 
 8697              	.LASF197:
 8698 0b38 7274636E 		.ascii	"rtcnt_t\000"
 8698      745F7400 
 8699              	.LASF230:
 8700 0b40 705F6D70 		.ascii	"p_mpool\000"
 8700      6F6F6C00 
 8701              	.LASF386:
 8702 0b48 433A5C55 		.ascii	"C:\\Users\\Pchautems\\Documents\\RobotiqueTP\\Proje"
 8702      73657273 
 8702      5C506368 
 8702      61757465 
 8702      6D735C44 
 8703 0b76 745C6D69 		.ascii	"t\\miniprojet\000"
 8703      6E697072 
 8703      6F6A6574 
 8703      00
 8704              	.LASF232:
 8705 0b83 74687265 		.ascii	"thread_reference_t\000"
 8705      61645F72 
 8705      65666572 
 8705      656E6365 
 8705      5F7400
 8706              	.LASF351:
 8707 0b96 6572725F 		.ascii	"err_cb\000"
 8707      636200
 8708              	.LASF221:
 8709 0b9d 705F7265 		.ascii	"p_refs\000"
 8709      667300
 8710              	.LASF289:
 8711 0ba4 63756D75 		.ascii	"cumulative\000"
ARM GAS  C:\Users\PCHAUT~1\AppData\Local\Temp\ccIm8FNl.s 			page 164


 8711      6C617469 
 8711      766500
 8712              	.LASF120:
 8713 0baf 5F776372 		.ascii	"_wcrtomb_state\000"
 8713      746F6D62 
 8713      5F737461 
 8713      746500
 8714              	.LASF40:
 8715 0bbe 5F5F746D 		.ascii	"__tm_mday\000"
 8715      5F6D6461 
 8715      7900
 8716              	.LASF295:
 8717 0bc8 6B65726E 		.ascii	"kernel_stats_t\000"
 8717      656C5F73 
 8717      74617473 
 8717      5F7400
 8718              	.LASF91:
 8719 0bd7 5F6E6577 		.ascii	"_new\000"
 8719      00
 8720              	.LASF193:
 8721 0bdc 636D705F 		.ascii	"cmp_object_s\000"
 8721      6F626A65 
 8721      63745F73 
 8721      00
 8722              	.LASF66:
 8723 0be9 5F756275 		.ascii	"_ubuf\000"
 8723      6600
 8724              	.LASF78:
 8725 0bef 5F737464 		.ascii	"_stderr\000"
 8725      65727200 
 8726              	.LASF113:
 8727 0bf7 5F776374 		.ascii	"_wctomb_state\000"
 8727      6F6D625F 
 8727      73746174 
 8727      6500
 8728              	.LASF377:
 8729 0c05 6765745F 		.ascii	"get_float\000"
 8729      666C6F61 
 8729      7400
 8730              	.LASF72:
 8731 0c0f 5F6D6273 		.ascii	"_mbstate\000"
 8731      74617465 
 8731      00
 8732              	.LASF365:
 8733 0c18 72656164 		.ascii	"read_parameter_string\000"
 8733      5F706172 
 8733      616D6574 
 8733      65725F73 
 8733      7472696E 
 8734              	.LASF109:
 8735 0c2e 5F72616E 		.ascii	"_rand_next\000"
 8735      645F6E65 
 8735      787400
 8736              	.LASF307:
 8737 0c39 6D5F7175 		.ascii	"m_queue\000"
 8737      65756500 
 8738              	.LASF58:
ARM GAS  C:\Users\PCHAUT~1\AppData\Local\Temp\ccIm8FNl.s 			page 165


 8739 0c41 5F666C61 		.ascii	"_flags\000"
 8739      677300
 8740              	.LASF284:
 8741 0c48 6F666673 		.ascii	"offset\000"
 8741      657400
 8742              	.LASF174:
 8743 0c4f 434D505F 		.ascii	"CMP_TYPE_STR16\000"
 8743      54595045 
 8743      5F535452 
 8743      313600
 8744              	.LASF51:
 8745 0c5e 5F617465 		.ascii	"_atexit\000"
 8745      78697400 
 8746              	.LASF223:
 8747 0c66 705F7469 		.ascii	"p_time\000"
 8747      6D6500
 8748              	.LASF326:
 8749 0c6d 63665F6F 		.ascii	"cf_off_refs\000"
 8749      66665F72 
 8749      65667300 
 8750              	.LASF25:
 8751 0c79 5F5F636F 		.ascii	"__count\000"
 8751      756E7400 
 8752              	.LASF357:
 8753 0c81 73756363 		.ascii	"success\000"
 8753      65737300 
 8754              	.LASF43:
 8755 0c89 5F5F746D 		.ascii	"__tm_wday\000"
 8755      5F776461 
 8755      7900
 8756              	.LASF209:
 8757 0c93 74687265 		.ascii	"thread_t\000"
 8757      61645F74 
 8757      00
 8758              	.LASF2:
 8759 0c9c 6C6F6E67 		.ascii	"long double\000"
 8759      20646F75 
 8759      626C6500 
 8760              	.LASF44:
 8761 0ca8 5F5F746D 		.ascii	"__tm_yday\000"
 8761      5F796461 
 8761      7900
 8762              	.LASF349:
 8763 0cb2 76656374 		.ascii	"vect\000"
 8763      00
 8764              	.LASF229:
 8765 0cb7 705F7265 		.ascii	"p_realprio\000"
 8765      616C7072 
 8765      696F00
 8766              	.LASF156:
 8767 0cc2 434D505F 		.ascii	"CMP_TYPE_EXT16\000"
 8767      54595045 
 8767      5F455854 
 8767      313600
 8768              	.LASF274:
 8769 0cd1 706F7274 		.ascii	"port_intctx\000"
 8769      5F696E74 
ARM GAS  C:\Users\PCHAUT~1\AppData\Local\Temp\ccIm8FNl.s 			page 166


 8769      63747800 
 8770              	.LASF101:
 8771 0cdd 5F736565 		.ascii	"_seed\000"
 8771      6400
 8772              	.LASF64:
 8773 0ce3 5F736565 		.ascii	"_seek\000"
 8773      6B00
 8774              	.LASF334:
 8775 0ce9 6368616E 		.ascii	"changed_cnt\000"
 8775      6765645F 
 8775      636E7400 
 8776              	.LASF250:
 8777 0cf5 76745F64 		.ascii	"vt_delta\000"
 8777      656C7461 
 8777      00
 8778              	.LASF21:
 8779 0cfe 5F66706F 		.ascii	"_fpos_t\000"
 8779      735F7400 
 8780              	.LASF24:
 8781 0d06 5F5F7763 		.ascii	"__wchb\000"
 8781      686200
 8782              	.LASF175:
 8783 0d0d 434D505F 		.ascii	"CMP_TYPE_STR32\000"
 8783      54595045 
 8783      5F535452 
 8783      333200
 8784              	.LASF247:
 8785 0d1c 63685F76 		.ascii	"ch_virtual_timer\000"
 8785      69727475 
 8785      616C5F74 
 8785      696D6572 
 8785      00
 8786              	.LASF305:
 8787 0d2d 735F636E 		.ascii	"s_cnt\000"
 8787      7400
 8788              	.LASF112:
 8789 0d33 5F6D6274 		.ascii	"_mbtowc_state\000"
 8789      6F77635F 
 8789      73746174 
 8789      6500
 8790              	.LASF4:
 8791 0d41 5F5F696E 		.ascii	"__int8_t\000"
 8791      74385F74 
 8791      00
 8792              	.LASF267:
 8793 0d4a 6B65726E 		.ascii	"kernel_stats\000"
 8793      656C5F73 
 8793      74617473 
 8793      00
 8794              	.LASF183:
 8795 0d57 73697A65 		.ascii	"size\000"
 8795      00
 8796              	.LASF147:
 8797 0d5c 434D505F 		.ascii	"CMP_TYPE_FIXMAP\000"
 8797      54595045 
 8797      5F464958 
 8797      4D415000 
ARM GAS  C:\Users\PCHAUT~1\AppData\Local\Temp\ccIm8FNl.s 			page 167


 8798              	.LASF18:
 8799 0d6c 6C6F6E67 		.ascii	"long long unsigned int\000"
 8799      206C6F6E 
 8799      6720756E 
 8799      7369676E 
 8799      65642069 
 8800              	.LASF216:
 8801 0d83 705F6F6C 		.ascii	"p_older\000"
 8801      64657200 
 8802              	.LASF134:
 8803 0d8b 75696E74 		.ascii	"uint16_t\000"
 8803      31365F74 
 8803      00
 8804              	.LASF48:
 8805 0d94 5F64736F 		.ascii	"_dso_handle\000"
 8805      5F68616E 
 8805      646C6500 
 8806              	.LASF204:
 8807 0da0 6D73675F 		.ascii	"msg_t\000"
 8807      7400
 8808              	.LASF236:
 8809 0da6 63685F74 		.ascii	"ch_threads_queue\000"
 8809      68726561 
 8809      64735F71 
 8809      75657565 
 8809      00
 8810              	.LASF100:
 8811 0db7 5F72616E 		.ascii	"_rand48\000"
 8811      64343800 
 8812              	.LASF325:
 8813 0dbf 63665F6F 		.ascii	"cf_off_flags\000"
 8813      66665F66 
 8813      6C616773 
 8813      00
 8814              	.LASF77:
 8815 0dcc 5F737464 		.ascii	"_stdout\000"
 8815      6F757400 
 8816              	.LASF202:
 8817 0dd4 74736C69 		.ascii	"tslices_t\000"
 8817      6365735F 
 8817      7400
 8818              	.LASF68:
 8819 0dde 5F626C6B 		.ascii	"_blksize\000"
 8819      73697A65 
 8819      00
 8820              	.LASF372:
 8821 0de7 72656164 		.ascii	"read_parameter_scalar\000"
 8821      5F706172 
 8821      616D6574 
 8821      65725F73 
 8821      63616C61 
 8822              	.LASF55:
 8823 0dfd 5F626173 		.ascii	"_base\000"
 8823      6500
 8824              	.LASF105:
 8825 0e03 5F737472 		.ascii	"_strtok_last\000"
 8825      746F6B5F 
ARM GAS  C:\Users\PCHAUT~1\AppData\Local\Temp\ccIm8FNl.s 			page 168


 8825      6C617374 
 8825      00
 8826              	.LASF118:
 8827 0e10 5F6D6272 		.ascii	"_mbrtowc_state\000"
 8827      746F7763 
 8827      5F737461 
 8827      746500
 8828              	.LASF266:
 8829 0e1f 6D61696E 		.ascii	"mainthread\000"
 8829      74687265 
 8829      616400
 8830              	.LASF179:
 8831 0e2a 434D505F 		.ascii	"CMP_TYPE_MAP32\000"
 8831      54595045 
 8831      5F4D4150 
 8831      333200
 8832              	.LASF28:
 8833 0e39 5F666C6F 		.ascii	"_flock_t\000"
 8833      636B5F74 
 8833      00
 8834              	.LASF96:
 8835 0e42 5F5F4649 		.ascii	"__FILE\000"
 8835      4C4500
 8836              	.LASF390:
 8837 0e49 5F5F7365 		.ascii	"__set_BASEPRI\000"
 8837      745F4241 
 8837      53455052 
 8837      4900
 8838              	.LASF8:
 8839 0e57 5F5F696E 		.ascii	"__int16_t\000"
 8839      7431365F 
 8839      7400
 8840              	.LASF286:
 8841 0e61 62657374 		.ascii	"best\000"
 8841      00
 8842              	.LASF27:
 8843 0e66 5F6D6273 		.ascii	"_mbstate_t\000"
 8843      74617465 
 8843      5F7400
 8844              	.LASF239:
 8845 0e71 725F7175 		.ascii	"r_queue\000"
 8845      65756500 
 8846              	.LASF270:
 8847 0e79 53797374 		.ascii	"SystemCoreClock\000"
 8847      656D436F 
 8847      7265436C 
 8847      6F636B00 
 8848              	.LASF110:
 8849 0e89 5F723438 		.ascii	"_r48\000"
 8849      00
 8850              	.LASF22:
 8851 0e8e 77696E74 		.ascii	"wint_t\000"
 8851      5F7400
 8852              	.LASF31:
 8853 0e95 5F6E6578 		.ascii	"_next\000"
 8853      7400
 8854              	.LASF70:
ARM GAS  C:\Users\PCHAUT~1\AppData\Local\Temp\ccIm8FNl.s 			page 169


 8855 0e9b 5F646174 		.ascii	"_data\000"
 8855      6100
 8856              	.LASF374:
 8857 0ea1 6572725F 		.ascii	"err_id\000"
 8857      696400
 8858              	.LASF264:
 8859 0ea8 726C6973 		.ascii	"rlist\000"
 8859      7400
 8860              	.LASF199:
 8861 0eae 746D6F64 		.ascii	"tmode_t\000"
 8861      655F7400 
 8862              	.LASF255:
 8863 0eb6 76745F73 		.ascii	"vt_systime\000"
 8863      79737469 
 8863      6D6500
 8864              	.LASF243:
 8865 0ec1 725F6F6C 		.ascii	"r_older\000"
 8865      64657200 
 8866              	.LASF285:
 8867 0ec9 746D5F63 		.ascii	"tm_calibration_t\000"
 8867      616C6962 
 8867      72617469 
 8867      6F6E5F74 
 8867      00
 8868              	.LASF383:
 8869 0eda 706F7274 		.ascii	"port_lock\000"
 8869      5F6C6F63 
 8869      6B00
 8870              	.LASF304:
 8871 0ee4 735F7175 		.ascii	"s_queue\000"
 8871      65756500 
 8872              	.LASF165:
 8873 0eec 434D505F 		.ascii	"CMP_TYPE_SINT16\000"
 8873      54595045 
 8873      5F53494E 
 8873      54313600 
 8874              	.LASF111:
 8875 0efc 5F6D626C 		.ascii	"_mblen_state\000"
 8875      656E5F73 
 8875      74617465 
 8875      00
 8876              	.LASF9:
 8877 0f09 73686F72 		.ascii	"short int\000"
 8877      7420696E 
 8877      7400
 8878              	.LASF138:
 8879 0f13 75696E74 		.ascii	"uint64_t\000"
 8879      36345F74 
 8879      00
 8880              	.LASF340:
 8881 0f1c 70617261 		.ascii	"parameter_s\000"
 8881      6D657465 
 8881      725F7300 
 8882              	.LASF339:
 8883 0f28 70617261 		.ascii	"parameter_t\000"
 8883      6D657465 
 8883      725F7400 
ARM GAS  C:\Users\PCHAUT~1\AppData\Local\Temp\ccIm8FNl.s 			page 170


 8884              	.LASF306:
 8885 0f34 63685F6D 		.ascii	"ch_mutex\000"
 8885      75746578 
 8885      00
 8886              	.LASF159:
 8887 0f3d 434D505F 		.ascii	"CMP_TYPE_DOUBLE\000"
 8887      54595045 
 8887      5F444F55 
 8887      424C4500 
 8888              	.LASF133:
 8889 0f4d 696E7431 		.ascii	"int16_t\000"
 8889      365F7400 
 8890              	.LASF130:
 8891 0f55 7375626F 		.ascii	"suboptarg\000"
 8891      70746172 
 8891      6700
 8892              	.LASF49:
 8893 0f5f 5F666E74 		.ascii	"_fntypes\000"
 8893      79706573 
 8893      00
 8894              	.LASF240:
 8895 0f68 725F7072 		.ascii	"r_prio\000"
 8895      696F00
 8896              	.LASF257:
 8897 0f6f 63685F73 		.ascii	"ch_system_debug\000"
 8897      79737465 
 8897      6D5F6465 
 8897      62756700 
 8898              	.LASF42:
 8899 0f7f 5F5F746D 		.ascii	"__tm_year\000"
 8899      5F796561 
 8899      7200
 8900              	.LASF151:
 8901 0f89 434D505F 		.ascii	"CMP_TYPE_BOOLEAN\000"
 8901      54595045 
 8901      5F424F4F 
 8901      4C45414E 
 8901      00
 8902              	.LASF321:
 8903 0f9a 63665F6F 		.ascii	"cf_off_older\000"
 8903      66665F6F 
 8903      6C646572 
 8903      00
 8904              	.LASF331:
 8905 0fa7 6D757465 		.ascii	"mutex_t\000"
 8905      785F7400 
 8906              	.LASF333:
 8907 0faf 70617261 		.ascii	"parameter_namespace_s\000"
 8907      6D657465 
 8907      725F6E61 
 8907      6D657370 
 8907      6163655F 
 8908              	.LASF332:
 8909 0fc5 70617261 		.ascii	"parameter_namespace_t\000"
 8909      6D657465 
 8909      725F6E61 
 8909      6D657370 
ARM GAS  C:\Users\PCHAUT~1\AppData\Local\Temp\ccIm8FNl.s 			page 171


 8909      6163655F 
 8910              	.LASF366:
 8911 0fdb 7374725F 		.ascii	"str_len\000"
 8911      6C656E00 
 8912              	.LASF269:
 8913 0fe3 49544D5F 		.ascii	"ITM_RxBuffer\000"
 8913      52784275 
 8913      66666572 
 8913      00
 8914              	.LASF60:
 8915 0ff0 5F6C6266 		.ascii	"_lbfsize\000"
 8915      73697A65 
 8915      00
 8916              	.LASF265:
 8917 0ff9 76746C69 		.ascii	"vtlist\000"
 8917      737400
 8918              	.LASF79:
 8919 1000 5F696E63 		.ascii	"_inc\000"
 8919      00
 8920              	.LASF52:
 8921 1005 5F696E64 		.ascii	"_ind\000"
 8921      00
 8922              	.LASF16:
 8923 100a 5F5F696E 		.ascii	"__int64_t\000"
 8923      7436345F 
 8923      7400
 8924              	.LASF187:
 8925 1014 6D61705F 		.ascii	"map_size\000"
 8925      73697A65 
 8925      00
 8926              	.LASF166:
 8927 101d 434D505F 		.ascii	"CMP_TYPE_SINT32\000"
 8927      54595045 
 8927      5F53494E 
 8927      54333200 
 8928              	.LASF344:
 8929 102d 5F706172 		.ascii	"_param_val_str_s\000"
 8929      616D5F76 
 8929      616C5F73 
 8929      74725F73 
 8929      00
 8930              	.LASF336:
 8931 103e 73756273 		.ascii	"subspaces\000"
 8931      70616365 
 8931      7300
 8932              	.LASF54:
 8933 1048 5F5F7362 		.ascii	"__sbuf\000"
 8933      756600
 8934              	.LASF50:
 8935 104f 5F69735F 		.ascii	"_is_cxa\000"
 8935      63786100 
 8936              	.LASF19:
 8937 1057 5F4C4F43 		.ascii	"_LOCK_T\000"
 8937      4B5F5400 
 8938              	.LASF153:
 8939 105f 434D505F 		.ascii	"CMP_TYPE_BIN16\000"
 8939      54595045 
ARM GAS  C:\Users\PCHAUT~1\AppData\Local\Temp\ccIm8FNl.s 			page 172


 8939      5F42494E 
 8939      313600
 8940              	.LASF201:
 8941 106e 74726566 		.ascii	"trefs_t\000"
 8941      735F7400 
 8942              	.LASF123:
 8943 1076 5F6E6578 		.ascii	"_nextf\000"
 8943      746600
 8944              	.LASF323:
 8945 107d 63665F6F 		.ascii	"cf_off_stklimit\000"
 8945      66665F73 
 8945      746B6C69 
 8945      6D697400 
 8946              	.LASF233:
 8947 108d 74687265 		.ascii	"threads_list_t\000"
 8947      6164735F 
 8947      6C697374 
 8947      5F7400
 8948              	.LASF373:
 8949 109c 6765745F 		.ascii	"get_vector\000"
 8949      76656374 
 8949      6F7200
 8950              	.LASF263:
 8951 10a7 63685F73 		.ascii	"ch_system\000"
 8951      79737465 
 8951      6D00
 8952              	.LASF82:
 8953 10b1 5F6C6F63 		.ascii	"_locale\000"
 8953      616C6500 
 8954              	.LASF30:
 8955 10b9 5F5F554C 		.ascii	"__ULong\000"
 8955      6F6E6700 
 8956              	.LASF136:
 8957 10c1 75696E74 		.ascii	"uint32_t\000"
 8957      33325F74 
 8957      00
 8958              	.LASF85:
 8959 10ca 5F726573 		.ascii	"_result\000"
 8959      756C7400 
 8960              	.LASF169:
 8961 10d2 434D505F 		.ascii	"CMP_TYPE_FIXEXT2\000"
 8961      54595045 
 8961      5F464958 
 8961      45585432 
 8961      00
 8962              	.LASF20:
 8963 10e3 5F6F6666 		.ascii	"_off_t\000"
 8963      5F7400
 8964              	.LASF345:
 8965 10ea 6275665F 		.ascii	"buf_len\000"
 8965      6C656E00 
 8966              	.LASF296:
 8967 10f2 7264796D 		.ascii	"rdymsg\000"
 8967      736700
 8968              	.LASF103:
 8969 10f9 5F616464 		.ascii	"_add\000"
 8969      00
ARM GAS  C:\Users\PCHAUT~1\AppData\Local\Temp\ccIm8FNl.s 			page 173


 8970              	.LASF11:
 8971 10fe 73686F72 		.ascii	"short unsigned int\000"
 8971      7420756E 
 8971      7369676E 
 8971      65642069 
 8971      6E7400
 8972              	.LASF39:
 8973 1111 5F5F746D 		.ascii	"__tm_hour\000"
 8973      5F686F75 
 8973      7200
 8974              	.LASF262:
 8975 111b 63685F73 		.ascii	"ch_system_t\000"
 8975      79737465 
 8975      6D5F7400 
 8976              	.LASF329:
 8977 1127 63686465 		.ascii	"chdebug_t\000"
 8977      6275675F 
 8977      7400
 8978              	.LASF313:
 8979 1131 63685F73 		.ascii	"ch_size\000"
 8979      697A6500 
 8980              	.LASF119:
 8981 1139 5F6D6273 		.ascii	"_mbsrtowcs_state\000"
 8981      72746F77 
 8981      63735F73 
 8981      74617465 
 8981      00
 8982              	.LASF154:
 8983 114a 434D505F 		.ascii	"CMP_TYPE_BIN32\000"
 8983      54595045 
 8983      5F42494E 
 8983      333200
 8984              	.LASF218:
 8985 1159 705F7374 		.ascii	"p_stklimit\000"
 8985      6B6C696D 
 8985      697400
 8986              	.LASF12:
 8987 1164 5F5F696E 		.ascii	"__int32_t\000"
 8987      7433325F 
 8987      7400
 8988              	.LASF137:
 8989 116e 696E7436 		.ascii	"int64_t\000"
 8989      345F7400 
 8990              	.LASF244:
 8991 1176 725F6375 		.ascii	"r_current\000"
 8991      7272656E 
 8991      7400
 8992              	.LASF47:
 8993 1180 5F666E61 		.ascii	"_fnargs\000"
 8993      72677300 
 8994              	.LASF148:
 8995 1188 434D505F 		.ascii	"CMP_TYPE_FIXARRAY\000"
 8995      54595045 
 8995      5F464958 
 8995      41525241 
 8995      5900
 8996              	.LASF45:
ARM GAS  C:\Users\PCHAUT~1\AppData\Local\Temp\ccIm8FNl.s 			page 174


 8997 119a 5F5F746D 		.ascii	"__tm_isdst\000"
 8997      5F697364 
 8997      737400
 8998              	.LASF167:
 8999 11a5 434D505F 		.ascii	"CMP_TYPE_SINT64\000"
 8999      54595045 
 8999      5F53494E 
 8999      54363400 
 9000              	.LASF217:
 9001 11b5 705F6E61 		.ascii	"p_name\000"
 9001      6D6500
 9002              	.LASF337:
 9003 11bc 6E657874 		.ascii	"next\000"
 9003      00
 9004              	.LASF309:
 9005 11c1 6D5F6E65 		.ascii	"m_next\000"
 9005      787400
 9006              	.LASF281:
 9007 11c8 74625F70 		.ascii	"tb_ptr\000"
 9007      747200
 9008              	.LASF375:
 9009 11cf 6765745F 		.ascii	"get_bool\000"
 9009      626F6F6C 
 9009      00
 9010              	.LASF38:
 9011 11d8 5F5F746D 		.ascii	"__tm_min\000"
 9011      5F6D696E 
 9011      00
 9012              	.LASF116:
 9013 11e1 5F676574 		.ascii	"_getdate_err\000"
 9013      64617465 
 9013      5F657272 
 9013      00
 9014              	.LASF360:
 9015 11ee 70617261 		.ascii	"parameter_msgpack_write_subtree\000"
 9015      6D657465 
 9015      725F6D73 
 9015      67706163 
 9015      6B5F7772 
 9016              	.LASF300:
 9017 120e 77747365 		.ascii	"wtsemp\000"
 9017      6D7000
 9018              	.LASF288:
 9019 1215 6C617374 		.ascii	"last\000"
 9019      00
 9020              	.LASF226:
 9021 121a 705F6D73 		.ascii	"p_msg\000"
 9021      6700
 9022              	.LASF186:
 9023 1220 61727261 		.ascii	"array_size\000"
 9023      795F7369 
 9023      7A6500
 9024              	.LASF219:
 9025 122b 705F7374 		.ascii	"p_state\000"
 9025      61746500 
 9026              	.LASF371:
 9027 1233 72656164 		.ascii	"read_parameter_integer\000"
ARM GAS  C:\Users\PCHAUT~1\AppData\Local\Temp\ccIm8FNl.s 			page 175


 9027      5F706172 
 9027      616D6574 
 9027      65725F69 
 9027      6E746567 
 9028              		.ident	"GCC: (GNU Tools for Arm Embedded Processors 7-2017-q4-major) 7.2.1 20170904 (release) [ARM
ARM GAS  C:\Users\PCHAUT~1\AppData\Local\Temp\ccIm8FNl.s 			page 176


DEFINED SYMBOLS
                            *ABS*:00000000 parameter_msgpack.c
C:\Users\PCHAUT~1\AppData\Local\Temp\ccIm8FNl.s:18     .text.port_lock:00000000 $t
C:\Users\PCHAUT~1\AppData\Local\Temp\ccIm8FNl.s:25     .text.port_lock:00000000 port_lock
C:\Users\PCHAUT~1\AppData\Local\Temp\ccIm8FNl.s:72     .text.port_lock:0000002c $d
C:\Users\PCHAUT~1\AppData\Local\Temp\ccIm8FNl.s:77     .text.port_unlock:00000000 $t
C:\Users\PCHAUT~1\AppData\Local\Temp\ccIm8FNl.s:84     .text.port_unlock:00000000 port_unlock
C:\Users\PCHAUT~1\AppData\Local\Temp\ccIm8FNl.s:129    .text.port_unlock:0000002c $d
C:\Users\PCHAUT~1\AppData\Local\Temp\ccIm8FNl.s:134    .text.chSysLock:00000000 $t
C:\Users\PCHAUT~1\AppData\Local\Temp\ccIm8FNl.s:141    .text.chSysLock:00000000 chSysLock
C:\Users\PCHAUT~1\AppData\Local\Temp\ccIm8FNl.s:179    .text.chSysLock:0000002c $d
C:\Users\PCHAUT~1\AppData\Local\Temp\ccIm8FNl.s:184    .text.chSysUnlock:00000000 $t
C:\Users\PCHAUT~1\AppData\Local\Temp\ccIm8FNl.s:191    .text.chSysUnlock:00000000 chSysUnlock
C:\Users\PCHAUT~1\AppData\Local\Temp\ccIm8FNl.s:247    .text.chSysUnlock:0000004c $d
C:\Users\PCHAUT~1\AppData\Local\Temp\ccIm8FNl.s:2922   .rodata.__func__.8568:00000000 __func__.8568
C:\Users\PCHAUT~1\AppData\Local\Temp\ccIm8FNl.s:254    .rodata:00000000 $d
C:\Users\PCHAUT~1\AppData\Local\Temp\ccIm8FNl.s:258    .text.discard_msgpack_element:00000000 $t
C:\Users\PCHAUT~1\AppData\Local\Temp\ccIm8FNl.s:265    .text.discard_msgpack_element:00000000 discard_msgpack_element
C:\Users\PCHAUT~1\AppData\Local\Temp\ccIm8FNl.s:296    .text.discard_msgpack_element:00000024 $d
C:\Users\PCHAUT~1\AppData\Local\Temp\ccIm8FNl.s:331    .text.discard_msgpack_element:000000b0 $t
C:\Users\PCHAUT~1\AppData\Local\Temp\ccIm8FNl.s:363    .text.discard_msgpack_element:000000d8 $d
C:\Users\PCHAUT~1\AppData\Local\Temp\ccIm8FNl.s:370    .text.get_float:00000000 $t
C:\Users\PCHAUT~1\AppData\Local\Temp\ccIm8FNl.s:377    .text.get_float:00000000 get_float
C:\Users\PCHAUT~1\AppData\Local\Temp\ccIm8FNl.s:452    .text.get_float:00000064 $d
C:\Users\PCHAUT~1\AppData\Local\Temp\ccIm8FNl.s:457    .text.get_int:00000000 $t
C:\Users\PCHAUT~1\AppData\Local\Temp\ccIm8FNl.s:464    .text.get_int:00000000 get_int
C:\Users\PCHAUT~1\AppData\Local\Temp\ccIm8FNl.s:511    .text.get_int:00000038 $d
C:\Users\PCHAUT~1\AppData\Local\Temp\ccIm8FNl.s:516    .text.get_bool:00000000 $t
C:\Users\PCHAUT~1\AppData\Local\Temp\ccIm8FNl.s:523    .text.get_bool:00000000 get_bool
C:\Users\PCHAUT~1\AppData\Local\Temp\ccIm8FNl.s:570    .text.get_bool:00000038 $d
C:\Users\PCHAUT~1\AppData\Local\Temp\ccIm8FNl.s:582    .text.get_vector:00000000 $t
C:\Users\PCHAUT~1\AppData\Local\Temp\ccIm8FNl.s:589    .text.get_vector:00000000 get_vector
C:\Users\PCHAUT~1\AppData\Local\Temp\ccIm8FNl.s:740    .text.get_vector:000000e8 $d
C:\Users\PCHAUT~1\AppData\Local\Temp\ccIm8FNl.s:747    .text.read_parameter_scalar:00000000 $t
C:\Users\PCHAUT~1\AppData\Local\Temp\ccIm8FNl.s:754    .text.read_parameter_scalar:00000000 read_parameter_scalar
C:\Users\PCHAUT~1\AppData\Local\Temp\ccIm8FNl.s:838    .text.read_parameter_scalar:00000078 $d
C:\Users\PCHAUT~1\AppData\Local\Temp\ccIm8FNl.s:844    .text.read_parameter_integer:00000000 $t
C:\Users\PCHAUT~1\AppData\Local\Temp\ccIm8FNl.s:851    .text.read_parameter_integer:00000000 read_parameter_integer
C:\Users\PCHAUT~1\AppData\Local\Temp\ccIm8FNl.s:935    .text.read_parameter_integer:00000074 $d
C:\Users\PCHAUT~1\AppData\Local\Temp\ccIm8FNl.s:941    .text.read_parameter_boolean:00000000 $t
C:\Users\PCHAUT~1\AppData\Local\Temp\ccIm8FNl.s:948    .text.read_parameter_boolean:00000000 read_parameter_boolean
C:\Users\PCHAUT~1\AppData\Local\Temp\ccIm8FNl.s:1037   .text.read_parameter_boolean:00000084 $d
C:\Users\PCHAUT~1\AppData\Local\Temp\ccIm8FNl.s:1050   .text.read_parameter_vector:00000000 $t
C:\Users\PCHAUT~1\AppData\Local\Temp\ccIm8FNl.s:1057   .text.read_parameter_vector:00000000 read_parameter_vector
C:\Users\PCHAUT~1\AppData\Local\Temp\ccIm8FNl.s:1243   .text.read_parameter_vector:00000118 $d
C:\Users\PCHAUT~1\AppData\Local\Temp\ccIm8FNl.s:1255   .text.read_parameter_var_vector:00000000 $t
C:\Users\PCHAUT~1\AppData\Local\Temp\ccIm8FNl.s:1262   .text.read_parameter_var_vector:00000000 read_parameter_var_vector
C:\Users\PCHAUT~1\AppData\Local\Temp\ccIm8FNl.s:1451   .text.read_parameter_var_vector:0000011c $d
C:\Users\PCHAUT~1\AppData\Local\Temp\ccIm8FNl.s:1466   .text.read_parameter_string:00000000 $t
C:\Users\PCHAUT~1\AppData\Local\Temp\ccIm8FNl.s:1473   .text.read_parameter_string:00000000 read_parameter_string
C:\Users\PCHAUT~1\AppData\Local\Temp\ccIm8FNl.s:1639   .text.read_parameter_string:0000010c $d
C:\Users\PCHAUT~1\AppData\Local\Temp\ccIm8FNl.s:1652   .text.read_parameter:00000000 $t
C:\Users\PCHAUT~1\AppData\Local\Temp\ccIm8FNl.s:1659   .text.read_parameter:00000000 read_parameter
C:\Users\PCHAUT~1\AppData\Local\Temp\ccIm8FNl.s:1690   .text.read_parameter:00000028 $d
C:\Users\PCHAUT~1\AppData\Local\Temp\ccIm8FNl.s:1696   .text.read_parameter:00000040 $t
C:\Users\PCHAUT~1\AppData\Local\Temp\ccIm8FNl.s:1799   .text.read_parameter:000000f0 $d
C:\Users\PCHAUT~1\AppData\Local\Temp\ccIm8FNl.s:1821   .text.read_namespace:00000000 $t
ARM GAS  C:\Users\PCHAUT~1\AppData\Local\Temp\ccIm8FNl.s 			page 177


C:\Users\PCHAUT~1\AppData\Local\Temp\ccIm8FNl.s:1828   .text.read_namespace:00000000 read_namespace
C:\Users\PCHAUT~1\AppData\Local\Temp\ccIm8FNl.s:2133   .text.read_namespace:000001d0 $d
C:\Users\PCHAUT~1\AppData\Local\Temp\ccIm8FNl.s:2143   .text.err_ignore_cb:00000000 $t
C:\Users\PCHAUT~1\AppData\Local\Temp\ccIm8FNl.s:2150   .text.err_ignore_cb:00000000 err_ignore_cb
C:\Users\PCHAUT~1\AppData\Local\Temp\ccIm8FNl.s:2184   .text.err_ignore_cb:00000028 $d
C:\Users\PCHAUT~1\AppData\Local\Temp\ccIm8FNl.s:2193   .text.parameter_msgpack_read_cmp:00000000 $t
C:\Users\PCHAUT~1\AppData\Local\Temp\ccIm8FNl.s:2201   .text.parameter_msgpack_read_cmp:00000000 parameter_msgpack_read_cmp
C:\Users\PCHAUT~1\AppData\Local\Temp\ccIm8FNl.s:2276   .text.parameter_msgpack_read_cmp:0000006c $d
C:\Users\PCHAUT~1\AppData\Local\Temp\ccIm8FNl.s:2283   .text.parameter_msgpack_read:00000000 $t
C:\Users\PCHAUT~1\AppData\Local\Temp\ccIm8FNl.s:2291   .text.parameter_msgpack_read:00000000 parameter_msgpack_read
C:\Users\PCHAUT~1\AppData\Local\Temp\ccIm8FNl.s:2341   .text.parameter_msgpack_read:00000048 $d
C:\Users\PCHAUT~1\AppData\Local\Temp\ccIm8FNl.s:2353   .text.parameter_msgpack_write_subtree:00000000 $t
C:\Users\PCHAUT~1\AppData\Local\Temp\ccIm8FNl.s:2360   .text.parameter_msgpack_write_subtree:00000000 parameter_msgpack_write_subtree
C:\Users\PCHAUT~1\AppData\Local\Temp\ccIm8FNl.s:2490   .text.parameter_msgpack_write_subtree:000000c4 $d
C:\Users\PCHAUT~1\AppData\Local\Temp\ccIm8FNl.s:2496   .text.parameter_msgpack_write_subtree:000000dc $t
C:\Users\PCHAUT~1\AppData\Local\Temp\ccIm8FNl.s:2735   .text.parameter_msgpack_write_subtree:000002d0 $d
C:\Users\PCHAUT~1\AppData\Local\Temp\ccIm8FNl.s:2738   .text.parameter_msgpack_write_subtree:000002d4 $t
C:\Users\PCHAUT~1\AppData\Local\Temp\ccIm8FNl.s:2792   .text.parameter_msgpack_write_subtree:00000324 $d
C:\Users\PCHAUT~1\AppData\Local\Temp\ccIm8FNl.s:2799   .text.parameter_msgpack_write_cmp:00000000 $t
C:\Users\PCHAUT~1\AppData\Local\Temp\ccIm8FNl.s:2807   .text.parameter_msgpack_write_cmp:00000000 parameter_msgpack_write_cmp
C:\Users\PCHAUT~1\AppData\Local\Temp\ccIm8FNl.s:2852   .text.parameter_msgpack_write_cmp:0000003c $d
C:\Users\PCHAUT~1\AppData\Local\Temp\ccIm8FNl.s:2857   .text.parameter_msgpack_write:00000000 $t
C:\Users\PCHAUT~1\AppData\Local\Temp\ccIm8FNl.s:2865   .text.parameter_msgpack_write:00000000 parameter_msgpack_write
C:\Users\PCHAUT~1\AppData\Local\Temp\ccIm8FNl.s:2914   .text.parameter_msgpack_write:00000044 $d
C:\Users\PCHAUT~1\AppData\Local\Temp\ccIm8FNl.s:2919   .rodata.__func__.8568:00000000 $d

UNDEFINED SYMBOLS
__stack_chk_fail
__stack_chk_guard
_stats_start_measure_crit_thd
_dbg_check_lock
_dbg_check_unlock
_stats_stop_measure_crit_thd
chSysHalt
ch
__aeabi_l2f
cmp_object_as_float
cmp_object_as_sinteger
cmp_object_as_int
cmp_object_as_bool
cmp_read_object
parameter_scalar_set
parameter_integer_set
parameter_boolean_set
cmp_object_as_array
malloc
free
parameter_vector_set
parameter_variable_vector_set
cmp_object_as_str
parameter_string_set_w_len
cmp_read_str_size
cmp_object_is_map
_parameter_namespace_find_w_id_len
cmp_object_as_map
_parameter_find_w_id_len
cmp_read_map
ARM GAS  C:\Users\PCHAUT~1\AppData\Local\Temp\ccIm8FNl.s 			page 178


cmp_mem_access_ro_init
cmp_write_map
strlen
cmp_write_str
cmp_write_float
cmp_write_s32
cmp_write_bool
cmp_write_array
cmp_mem_access_init
