ARM GAS  C:\Users\PCHAUT~1\AppData\Local\Temp\ccIm8FNl.s 			page 1


   1              		.cpu cortex-m4
   2              		.eabi_attribute 27, 1
   3              		.eabi_attribute 28, 1
   4              		.eabi_attribute 20, 1
   5              		.eabi_attribute 21, 1
   6              		.eabi_attribute 23, 3
   7              		.eabi_attribute 24, 1
   8              		.eabi_attribute 25, 1
   9              		.eabi_attribute 26, 1
  10              		.eabi_attribute 30, 6
  11              		.eabi_attribute 34, 1
  12              		.eabi_attribute 18, 4
  13              		.file	"parameter_msgpack.c"
  14              		.text
  15              	.Ltext0:
  16              		.cfi_sections	.debug_frame
  17              		.section	.text.port_lock,"ax",%progbits
  18              		.align	1
  19              		.p2align 4,,15
  20              		.syntax unified
  21              		.thumb
  22              		.thumb_func
  23              		.fpu fpv4-sp-d16
  24              		.type	port_lock, %function
  25              	port_lock:
  26              	.LFB116:
  27              		.file 1 "../lib/e-puck2_main-processor/ChibiOS//os/rt/ports/ARMCMx/chcore_v7m.h"
  28              		.loc 1 444 0
  29              		.cfi_startproc
  30              		@ args = 0, pretend = 0, frame = 8
  31              		@ frame_needed = 0, uses_anonymous_args = 0
  32 0000 00B5     		push	{lr}
  33              		.cfi_def_cfa_offset 4
  34              		.cfi_offset 14, -4
  35 0002 83B0     		sub	sp, sp, #12
  36              		.cfi_def_cfa_offset 16
  37              		.loc 1 444 0
  38 0004 094B     		ldr	r3, .L3
  39 0006 1B68     		ldr	r3, [r3]
  40 0008 0193     		str	r3, [sp, #4]
  41 000a 2023     		movs	r3, #32
  42 000c 0093     		str	r3, [sp]
  43              	.LBB6:
  44              	.LBB7:
  45              		.file 2 "../lib/e-puck2_main-processor/ChibiOS//os/ext/CMSIS/include/core_cmFunc.h"
  46              		.loc 2 546 0
  47 000e 009B     		ldr	r3, [sp]
  48              		.syntax unified
  49              	@ 546 "../lib/e-puck2_main-processor/ChibiOS//os/ext/CMSIS/include/core_cmFunc.h" 1
  50 0010 83F31188 		MSR basepri, r3
  51              	@ 0 "" 2
  52              		.thumb
  53              		.syntax unified
  54              	.LBE7:
  55              	.LBE6:
  56              		.loc 1 451 0
  57 0014 00BF     		nop
ARM GAS  C:\Users\PCHAUT~1\AppData\Local\Temp\ccIm8FNl.s 			page 2


  58 0016 054B     		ldr	r3, .L3
  59 0018 019A     		ldr	r2, [sp, #4]
  60 001a 1B68     		ldr	r3, [r3]
  61 001c 9A42     		cmp	r2, r3
  62 001e 01D0     		beq	.L2
  63 0020 FFF7FEFF 		bl	__stack_chk_fail
  64              	.L2:
  65 0024 03B0     		add	sp, sp, #12
  66              		.cfi_def_cfa_offset 4
  67              		@ sp needed
  68 0026 5DF804FB 		ldr	pc, [sp], #4
  69              	.L4:
  70 002a 00BF     		.align	2
  71              	.L3:
  72 002c 00000000 		.word	__stack_chk_guard
  73              		.cfi_endproc
  74              	.LFE116:
  75              		.size	port_lock, .-port_lock
  76              		.section	.text.port_unlock,"ax",%progbits
  77              		.align	1
  78              		.p2align 4,,15
  79              		.syntax unified
  80              		.thumb
  81              		.thumb_func
  82              		.fpu fpv4-sp-d16
  83              		.type	port_unlock, %function
  84              	port_unlock:
  85              	.LFB117:
  86              		.loc 1 458 0
  87              		.cfi_startproc
  88              		@ args = 0, pretend = 0, frame = 8
  89              		@ frame_needed = 0, uses_anonymous_args = 0
  90 0000 00B5     		push	{lr}
  91              		.cfi_def_cfa_offset 4
  92              		.cfi_offset 14, -4
  93 0002 83B0     		sub	sp, sp, #12
  94              		.cfi_def_cfa_offset 16
  95              		.loc 1 458 0
  96 0004 094B     		ldr	r3, .L7
  97 0006 1B68     		ldr	r3, [r3]
  98 0008 0193     		str	r3, [sp, #4]
  99 000a 0023     		movs	r3, #0
 100 000c 0093     		str	r3, [sp]
 101              	.LBB8:
 102              	.LBB9:
 103              		.loc 2 546 0
 104 000e 009B     		ldr	r3, [sp]
 105              		.syntax unified
 106              	@ 546 "../lib/e-puck2_main-processor/ChibiOS//os/ext/CMSIS/include/core_cmFunc.h" 1
 107 0010 83F31188 		MSR basepri, r3
 108              	@ 0 "" 2
 109              		.thumb
 110              		.syntax unified
 111              	.LBE9:
 112              	.LBE8:
 113              		.loc 1 465 0
 114 0014 00BF     		nop
ARM GAS  C:\Users\PCHAUT~1\AppData\Local\Temp\ccIm8FNl.s 			page 3


 115 0016 054B     		ldr	r3, .L7
 116 0018 019A     		ldr	r2, [sp, #4]
 117 001a 1B68     		ldr	r3, [r3]
 118 001c 9A42     		cmp	r2, r3
 119 001e 01D0     		beq	.L6
 120 0020 FFF7FEFF 		bl	__stack_chk_fail
 121              	.L6:
 122 0024 03B0     		add	sp, sp, #12
 123              		.cfi_def_cfa_offset 4
 124              		@ sp needed
 125 0026 5DF804FB 		ldr	pc, [sp], #4
 126              	.L8:
 127 002a 00BF     		.align	2
 128              	.L7:
 129 002c 00000000 		.word	__stack_chk_guard
 130              		.cfi_endproc
 131              	.LFE117:
 132              		.size	port_unlock, .-port_unlock
 133              		.section	.text.chSysLock,"ax",%progbits
 134              		.align	1
 135              		.p2align 4,,15
 136              		.syntax unified
 137              		.thumb
 138              		.thumb_func
 139              		.fpu fpv4-sp-d16
 140              		.type	chSysLock, %function
 141              	chSysLock:
 142              	.LFB145:
 143              		.file 3 "../lib/e-puck2_main-processor/ChibiOS//os/rt/include/chsys.h"
 144              		.loc 3 346 0
 145              		.cfi_startproc
 146              		@ args = 0, pretend = 0, frame = 8
 147              		@ frame_needed = 0, uses_anonymous_args = 0
 148 0000 00B5     		push	{lr}
 149              		.cfi_def_cfa_offset 4
 150              		.cfi_offset 14, -4
 151 0002 83B0     		sub	sp, sp, #12
 152              		.cfi_def_cfa_offset 16
 153              		.loc 3 346 0
 154 0004 094B     		ldr	r3, .L11
 155 0006 1B68     		ldr	r3, [r3]
 156 0008 0193     		str	r3, [sp, #4]
 157              		.loc 3 348 0
 158 000a FFF7FEFF 		bl	port_lock
 159              		.loc 3 349 0
 160 000e FFF7FEFF 		bl	_stats_start_measure_crit_thd
 161              		.loc 3 350 0
 162 0012 FFF7FEFF 		bl	_dbg_check_lock
 163              		.loc 3 351 0
 164 0016 00BF     		nop
 165 0018 044B     		ldr	r3, .L11
 166 001a 019A     		ldr	r2, [sp, #4]
 167 001c 1B68     		ldr	r3, [r3]
 168 001e 9A42     		cmp	r2, r3
 169 0020 01D0     		beq	.L10
 170 0022 FFF7FEFF 		bl	__stack_chk_fail
 171              	.L10:
ARM GAS  C:\Users\PCHAUT~1\AppData\Local\Temp\ccIm8FNl.s 			page 4


 172 0026 03B0     		add	sp, sp, #12
 173              		.cfi_def_cfa_offset 4
 174              		@ sp needed
 175 0028 5DF804FB 		ldr	pc, [sp], #4
 176              	.L12:
 177              		.align	2
 178              	.L11:
 179 002c 00000000 		.word	__stack_chk_guard
 180              		.cfi_endproc
 181              	.LFE145:
 182              		.size	chSysLock, .-chSysLock
 183              		.section	.text.chSysUnlock,"ax",%progbits
 184              		.align	1
 185              		.p2align 4,,15
 186              		.syntax unified
 187              		.thumb
 188              		.thumb_func
 189              		.fpu fpv4-sp-d16
 190              		.type	chSysUnlock, %function
 191              	chSysUnlock:
 192              	.LFB146:
 193              		.loc 3 358 0
 194              		.cfi_startproc
 195              		@ args = 0, pretend = 0, frame = 8
 196              		@ frame_needed = 0, uses_anonymous_args = 0
 197 0000 00B5     		push	{lr}
 198              		.cfi_def_cfa_offset 4
 199              		.cfi_offset 14, -4
 200 0002 83B0     		sub	sp, sp, #12
 201              		.cfi_def_cfa_offset 16
 202              		.loc 3 358 0
 203 0004 114B     		ldr	r3, .L16
 204 0006 1B68     		ldr	r3, [r3]
 205 0008 0193     		str	r3, [sp, #4]
 206              		.loc 3 360 0
 207 000a FFF7FEFF 		bl	_dbg_check_unlock
 208              		.loc 3 361 0
 209 000e FFF7FEFF 		bl	_stats_stop_measure_crit_thd
 210              		.loc 3 367 0
 211 0012 0F4B     		ldr	r3, .L16+4
 212 0014 1B68     		ldr	r3, [r3]
 213 0016 0E4A     		ldr	r2, .L16+4
 214 0018 9342     		cmp	r3, r2
 215 001a 0AD0     		beq	.L14
 216              		.loc 3 367 0 is_stmt 0 discriminator 2
 217 001c 0C4B     		ldr	r3, .L16+4
 218 001e 9B69     		ldr	r3, [r3, #24]
 219 0020 9A68     		ldr	r2, [r3, #8]
 220 0022 0B4B     		ldr	r3, .L16+4
 221 0024 1B68     		ldr	r3, [r3]
 222 0026 9B68     		ldr	r3, [r3, #8]
 223 0028 9A42     		cmp	r2, r3
 224 002a 02D2     		bcs	.L14
 225              		.loc 3 367 0 discriminator 3
 226 002c 0948     		ldr	r0, .L16+8
 227 002e FFF7FEFF 		bl	chSysHalt
 228              	.L14:
ARM GAS  C:\Users\PCHAUT~1\AppData\Local\Temp\ccIm8FNl.s 			page 5


 229              		.loc 3 371 0 is_stmt 1
 230 0032 FFF7FEFF 		bl	port_unlock
 231              		.loc 3 372 0
 232 0036 00BF     		nop
 233 0038 044B     		ldr	r3, .L16
 234 003a 019A     		ldr	r2, [sp, #4]
 235 003c 1B68     		ldr	r3, [r3]
 236 003e 9A42     		cmp	r2, r3
 237 0040 01D0     		beq	.L15
 238 0042 FFF7FEFF 		bl	__stack_chk_fail
 239              	.L15:
 240 0046 03B0     		add	sp, sp, #12
 241              		.cfi_def_cfa_offset 4
 242              		@ sp needed
 243 0048 5DF804FB 		ldr	pc, [sp], #4
 244              	.L17:
 245              		.align	2
 246              	.L16:
 247 004c 00000000 		.word	__stack_chk_guard
 248 0050 00000000 		.word	ch
 249 0054 00000000 		.word	__func__.8568
 250              		.cfi_endproc
 251              	.LFE146:
 252              		.size	chSysUnlock, .-chSysUnlock
 253              		.section	.rodata
 254              		.align	2
 255              	.LC0:
 256 0000 64697363 		.ascii	"discarding failed\000"
 256      61726469 
 256      6E672066 
 256      61696C65 
 256      6400
 257              		.section	.text.discard_msgpack_element,"ax",%progbits
 258              		.align	1
 259              		.p2align 4,,15
 260              		.syntax unified
 261              		.thumb
 262              		.thumb_func
 263              		.fpu fpv4-sp-d16
 264              		.type	discard_msgpack_element, %function
 265              	discard_msgpack_element:
 266              	.LFB250:
 267              		.file 4 "../lib/e-puck2_main-processor/src/parameter/parameter_msgpack.c"
 268              		.loc 4 12 0
 269              		.cfi_startproc
 270              		@ args = 4, pretend = 0, frame = 32
 271              		@ frame_needed = 0, uses_anonymous_args = 0
 272 0000 00B5     		push	{lr}
 273              		.cfi_def_cfa_offset 4
 274              		.cfi_offset 14, -4
 275 0002 89B0     		sub	sp, sp, #36
 276              		.cfi_def_cfa_offset 40
 277 0004 0590     		str	r0, [sp, #20]
 278 0006 0491     		str	r1, [sp, #16]
 279 0008 0392     		str	r2, [sp, #12]
 280 000a 0293     		str	r3, [sp, #8]
 281 000c 0A9B     		ldr	r3, [sp, #40]
ARM GAS  C:\Users\PCHAUT~1\AppData\Local\Temp\ccIm8FNl.s 			page 6


 282 000e 0193     		str	r3, [sp, #4]
 283              		.loc 4 12 0
 284 0010 314B     		ldr	r3, .L24
 285 0012 1B68     		ldr	r3, [r3]
 286 0014 0793     		str	r3, [sp, #28]
 287              		.loc 4 14 0
 288 0016 059B     		ldr	r3, [sp, #20]
 289 0018 1B78     		ldrb	r3, [r3]	@ zero_extendqisi2
 290 001a 222B     		cmp	r3, #34
 291 001c 4AD8     		bhi	.L19
 292 001e 01A2     		adr	r2, .L21
 293 0020 52F823F0 		ldr	pc, [r2, r3, lsl #2]
 294              		.p2align 2
 295              	.L21:
 296 0024 B1000000 		.word	.L20+1
 297 0028 B5000000 		.word	.L19+1
 298 002c B5000000 		.word	.L19+1
 299 0030 B5000000 		.word	.L19+1
 300 0034 B1000000 		.word	.L20+1
 301 0038 B1000000 		.word	.L20+1
 302 003c B5000000 		.word	.L19+1
 303 0040 B5000000 		.word	.L19+1
 304 0044 B5000000 		.word	.L19+1
 305 0048 B5000000 		.word	.L19+1
 306 004c B5000000 		.word	.L19+1
 307 0050 B5000000 		.word	.L19+1
 308 0054 B1000000 		.word	.L20+1
 309 0058 B1000000 		.word	.L20+1
 310 005c B1000000 		.word	.L20+1
 311 0060 B1000000 		.word	.L20+1
 312 0064 B1000000 		.word	.L20+1
 313 0068 B1000000 		.word	.L20+1
 314 006c B1000000 		.word	.L20+1
 315 0070 B1000000 		.word	.L20+1
 316 0074 B1000000 		.word	.L20+1
 317 0078 B1000000 		.word	.L20+1
 318 007c B5000000 		.word	.L19+1
 319 0080 B5000000 		.word	.L19+1
 320 0084 B5000000 		.word	.L19+1
 321 0088 B5000000 		.word	.L19+1
 322 008c B5000000 		.word	.L19+1
 323 0090 B5000000 		.word	.L19+1
 324 0094 B5000000 		.word	.L19+1
 325 0098 B5000000 		.word	.L19+1
 326 009c B5000000 		.word	.L19+1
 327 00a0 B5000000 		.word	.L19+1
 328 00a4 B5000000 		.word	.L19+1
 329 00a8 B5000000 		.word	.L19+1
 330 00ac B1000000 		.word	.L20+1
 331              		.p2align 1
 332              	.L20:
 333              		.loc 4 29 0
 334 00b0 0023     		movs	r3, #0
 335 00b2 06E0     		b	.L22
 336              	.L19:
 337              		.loc 4 32 0
 338 00b4 039B     		ldr	r3, [sp, #12]
ARM GAS  C:\Users\PCHAUT~1\AppData\Local\Temp\ccIm8FNl.s 			page 7


 339 00b6 094A     		ldr	r2, .L24+4
 340 00b8 0199     		ldr	r1, [sp, #4]
 341 00ba 0298     		ldr	r0, [sp, #8]
 342 00bc 9847     		blx	r3
 343              	.LVL0:
 344              		.loc 4 33 0
 345 00be 4FF0FF33 		mov	r3, #-1
 346              	.L22:
 347              		.loc 4 35 0
 348 00c2 1846     		mov	r0, r3
 349 00c4 044B     		ldr	r3, .L24
 350 00c6 079A     		ldr	r2, [sp, #28]
 351 00c8 1B68     		ldr	r3, [r3]
 352 00ca 9A42     		cmp	r2, r3
 353 00cc 01D0     		beq	.L23
 354 00ce FFF7FEFF 		bl	__stack_chk_fail
 355              	.L23:
 356 00d2 09B0     		add	sp, sp, #36
 357              		.cfi_def_cfa_offset 4
 358              		@ sp needed
 359 00d4 5DF804FB 		ldr	pc, [sp], #4
 360              	.L25:
 361              		.align	2
 362              	.L24:
 363 00d8 00000000 		.word	__stack_chk_guard
 364 00dc 00000000 		.word	.LC0
 365              		.cfi_endproc
 366              	.LFE250:
 367              		.size	discard_msgpack_element, .-discard_msgpack_element
 368              		.global	__aeabi_l2f
 369              		.section	.text.get_float,"ax",%progbits
 370              		.align	1
 371              		.p2align 4,,15
 372              		.syntax unified
 373              		.thumb
 374              		.thumb_func
 375              		.fpu fpv4-sp-d16
 376              		.type	get_float, %function
 377              	get_float:
 378              	.LFB251:
 379              		.loc 4 39 0
 380              		.cfi_startproc
 381              		@ args = 0, pretend = 0, frame = 32
 382              		@ frame_needed = 0, uses_anonymous_args = 0
 383 0000 10B5     		push	{r4, lr}
 384              		.cfi_def_cfa_offset 8
 385              		.cfi_offset 4, -8
 386              		.cfi_offset 14, -4
 387 0002 88B0     		sub	sp, sp, #32
 388              		.cfi_def_cfa_offset 40
 389 0004 0190     		str	r0, [sp, #4]
 390 0006 0091     		str	r1, [sp]
 391              		.loc 4 39 0
 392 0008 164B     		ldr	r3, .L32
 393 000a 1B68     		ldr	r3, [r3]
 394 000c 0793     		str	r3, [sp, #28]
 395              		.loc 4 42 0
ARM GAS  C:\Users\PCHAUT~1\AppData\Local\Temp\ccIm8FNl.s 			page 8


 396 000e 03AB     		add	r3, sp, #12
 397 0010 1946     		mov	r1, r3
 398 0012 0198     		ldr	r0, [sp, #4]
 399 0014 FFF7FEFF 		bl	cmp_object_as_float
 400 0018 0346     		mov	r3, r0
 401 001a 002B     		cmp	r3, #0
 402 001c 04D0     		beq	.L27
 403              		.loc 4 43 0
 404 001e 039A     		ldr	r2, [sp, #12]	@ float
 405 0020 009B     		ldr	r3, [sp]
 406 0022 1A60     		str	r2, [r3]	@ float
 407              		.loc 4 44 0
 408 0024 0123     		movs	r3, #1
 409 0026 13E0     		b	.L30
 410              	.L27:
 411              		.loc 4 45 0
 412 0028 04AB     		add	r3, sp, #16
 413 002a 1946     		mov	r1, r3
 414 002c 0198     		ldr	r0, [sp, #4]
 415 002e FFF7FEFF 		bl	cmp_object_as_sinteger
 416 0032 0346     		mov	r3, r0
 417 0034 002B     		cmp	r3, #0
 418 0036 0AD0     		beq	.L29
 419              		.loc 4 46 0
 420 0038 DDE90434 		ldrd	r3, [sp, #16]
 421 003c 1846     		mov	r0, r3
 422 003e 2146     		mov	r1, r4
 423 0040 FFF7FEFF 		bl	__aeabi_l2f
 424              	.LVL1:
 425 0044 0246     		mov	r2, r0	@ float
 426 0046 009B     		ldr	r3, [sp]
 427 0048 1A60     		str	r2, [r3]	@ float
 428              		.loc 4 47 0
 429 004a 0123     		movs	r3, #1
 430 004c 00E0     		b	.L30
 431              	.L29:
 432              		.loc 4 49 0
 433 004e 0023     		movs	r3, #0
 434              	.L30:
 435              		.loc 4 50 0 discriminator 1
 436 0050 1846     		mov	r0, r3
 437 0052 044B     		ldr	r3, .L32
 438 0054 079A     		ldr	r2, [sp, #28]
 439 0056 1B68     		ldr	r3, [r3]
 440 0058 9A42     		cmp	r2, r3
 441 005a 01D0     		beq	.L31
 442              		.loc 4 50 0 is_stmt 0
 443 005c FFF7FEFF 		bl	__stack_chk_fail
 444              	.L31:
 445 0060 08B0     		add	sp, sp, #32
 446              		.cfi_def_cfa_offset 8
 447              		@ sp needed
 448 0062 10BD     		pop	{r4, pc}
 449              	.L33:
 450              		.align	2
 451              	.L32:
 452 0064 00000000 		.word	__stack_chk_guard
ARM GAS  C:\Users\PCHAUT~1\AppData\Local\Temp\ccIm8FNl.s 			page 9


 453              		.cfi_endproc
 454              	.LFE251:
 455              		.size	get_float, .-get_float
 456              		.section	.text.get_int,"ax",%progbits
 457              		.align	1
 458              		.p2align 4,,15
 459              		.syntax unified
 460              		.thumb
 461              		.thumb_func
 462              		.fpu fpv4-sp-d16
 463              		.type	get_int, %function
 464              	get_int:
 465              	.LFB252:
 466              		.loc 4 53 0 is_stmt 1
 467              		.cfi_startproc
 468              		@ args = 0, pretend = 0, frame = 16
 469              		@ frame_needed = 0, uses_anonymous_args = 0
 470 0000 00B5     		push	{lr}
 471              		.cfi_def_cfa_offset 4
 472              		.cfi_offset 14, -4
 473 0002 85B0     		sub	sp, sp, #20
 474              		.cfi_def_cfa_offset 24
 475 0004 0190     		str	r0, [sp, #4]
 476 0006 0091     		str	r1, [sp]
 477              		.loc 4 53 0
 478 0008 0B4B     		ldr	r3, .L38
 479 000a 1B68     		ldr	r3, [r3]
 480 000c 0393     		str	r3, [sp, #12]
 481              		.loc 4 54 0
 482 000e 0099     		ldr	r1, [sp]
 483 0010 0198     		ldr	r0, [sp, #4]
 484 0012 FFF7FEFF 		bl	cmp_object_as_int
 485 0016 0346     		mov	r3, r0
 486 0018 002B     		cmp	r3, #0
 487 001a 01D0     		beq	.L35
 488              		.loc 4 55 0
 489 001c 0123     		movs	r3, #1
 490 001e 00E0     		b	.L36
 491              	.L35:
 492              		.loc 4 57 0
 493 0020 0023     		movs	r3, #0
 494              	.L36:
 495              		.loc 4 58 0
 496 0022 1846     		mov	r0, r3
 497 0024 044B     		ldr	r3, .L38
 498 0026 039A     		ldr	r2, [sp, #12]
 499 0028 1B68     		ldr	r3, [r3]
 500 002a 9A42     		cmp	r2, r3
 501 002c 01D0     		beq	.L37
 502 002e FFF7FEFF 		bl	__stack_chk_fail
 503              	.L37:
 504 0032 05B0     		add	sp, sp, #20
 505              		.cfi_def_cfa_offset 4
 506              		@ sp needed
 507 0034 5DF804FB 		ldr	pc, [sp], #4
 508              	.L39:
 509              		.align	2
ARM GAS  C:\Users\PCHAUT~1\AppData\Local\Temp\ccIm8FNl.s 			page 10


 510              	.L38:
 511 0038 00000000 		.word	__stack_chk_guard
 512              		.cfi_endproc
 513              	.LFE252:
 514              		.size	get_int, .-get_int
 515              		.section	.text.get_bool,"ax",%progbits
 516              		.align	1
 517              		.p2align 4,,15
 518              		.syntax unified
 519              		.thumb
 520              		.thumb_func
 521              		.fpu fpv4-sp-d16
 522              		.type	get_bool, %function
 523              	get_bool:
 524              	.LFB253:
 525              		.loc 4 61 0
 526              		.cfi_startproc
 527              		@ args = 0, pretend = 0, frame = 16
 528              		@ frame_needed = 0, uses_anonymous_args = 0
 529 0000 00B5     		push	{lr}
 530              		.cfi_def_cfa_offset 4
 531              		.cfi_offset 14, -4
 532 0002 85B0     		sub	sp, sp, #20
 533              		.cfi_def_cfa_offset 24
 534 0004 0190     		str	r0, [sp, #4]
 535 0006 0091     		str	r1, [sp]
 536              		.loc 4 61 0
 537 0008 0B4B     		ldr	r3, .L44
 538 000a 1B68     		ldr	r3, [r3]
 539 000c 0393     		str	r3, [sp, #12]
 540              		.loc 4 62 0
 541 000e 0099     		ldr	r1, [sp]
 542 0010 0198     		ldr	r0, [sp, #4]
 543 0012 FFF7FEFF 		bl	cmp_object_as_bool
 544 0016 0346     		mov	r3, r0
 545 0018 002B     		cmp	r3, #0
 546 001a 01D0     		beq	.L41
 547              		.loc 4 63 0
 548 001c 0123     		movs	r3, #1
 549 001e 00E0     		b	.L42
 550              	.L41:
 551              		.loc 4 65 0
 552 0020 0023     		movs	r3, #0
 553              	.L42:
 554              		.loc 4 66 0
 555 0022 1846     		mov	r0, r3
 556 0024 044B     		ldr	r3, .L44
 557 0026 039A     		ldr	r2, [sp, #12]
 558 0028 1B68     		ldr	r3, [r3]
 559 002a 9A42     		cmp	r2, r3
 560 002c 01D0     		beq	.L43
 561 002e FFF7FEFF 		bl	__stack_chk_fail
 562              	.L43:
 563 0032 05B0     		add	sp, sp, #20
 564              		.cfi_def_cfa_offset 4
 565              		@ sp needed
 566 0034 5DF804FB 		ldr	pc, [sp], #4
ARM GAS  C:\Users\PCHAUT~1\AppData\Local\Temp\ccIm8FNl.s 			page 11


 567              	.L45:
 568              		.align	2
 569              	.L44:
 570 0038 00000000 		.word	__stack_chk_guard
 571              		.cfi_endproc
 572              	.LFE253:
 573              		.size	get_bool, .-get_bool
 574              		.section	.rodata
 575 0012 0000     		.align	2
 576              	.LC1:
 577 0014 636F756C 		.ascii	"could not read object\000"
 577      64206E6F 
 577      74207265 
 577      6164206F 
 577      626A6563 
 578 002a 0000     		.align	2
 579              	.LC2:
 580 002c 7761726E 		.ascii	"warning: type mismatch\000"
 580      696E673A 
 580      20747970 
 580      65206D69 
 580      736D6174 
 581              		.section	.text.get_vector,"ax",%progbits
 582              		.align	1
 583              		.p2align 4,,15
 584              		.syntax unified
 585              		.thumb
 586              		.thumb_func
 587              		.fpu fpv4-sp-d16
 588              		.type	get_vector, %function
 589              	get_vector:
 590              	.LFB254:
 591              		.loc 4 74 0
 592              		.cfi_startproc
 593              		@ args = 8, pretend = 0, frame = 64
 594              		@ frame_needed = 0, uses_anonymous_args = 0
 595 0000 00B5     		push	{lr}
 596              		.cfi_def_cfa_offset 4
 597              		.cfi_offset 14, -4
 598 0002 93B0     		sub	sp, sp, #76
 599              		.cfi_def_cfa_offset 80
 600 0004 0790     		str	r0, [sp, #28]
 601 0006 0691     		str	r1, [sp, #24]
 602 0008 0592     		str	r2, [sp, #20]
 603 000a 0493     		str	r3, [sp, #16]
 604 000c 149B     		ldr	r3, [sp, #80]
 605 000e 0393     		str	r3, [sp, #12]
 606 0010 159B     		ldr	r3, [sp, #84]
 607 0012 0293     		str	r3, [sp, #8]
 608              		.loc 4 74 0
 609 0014 344B     		ldr	r3, .L57
 610 0016 1B68     		ldr	r3, [r3]
 611 0018 1193     		str	r3, [sp, #68]
 612              		.loc 4 75 0
 613 001a 0023     		movs	r3, #0
 614 001c 8DF82330 		strb	r3, [sp, #35]
 615              		.loc 4 77 0
ARM GAS  C:\Users\PCHAUT~1\AppData\Local\Temp\ccIm8FNl.s 			page 12


 616 0020 0023     		movs	r3, #0
 617 0022 0A93     		str	r3, [sp, #40]
 618 0024 49E0     		b	.L47
 619              	.L54:
 620              	.LBB10:
 621              		.loc 4 79 0
 622 0026 0CAB     		add	r3, sp, #48
 623 0028 1946     		mov	r1, r3
 624 002a 0798     		ldr	r0, [sp, #28]
 625 002c FFF7FEFF 		bl	cmp_read_object
 626 0030 0346     		mov	r3, r0
 627 0032 83F00103 		eor	r3, r3, #1
 628 0036 DBB2     		uxtb	r3, r3
 629 0038 002B     		cmp	r3, #0
 630 003a 07D0     		beq	.L48
 631              		.loc 4 80 0
 632 003c 049B     		ldr	r3, [sp, #16]
 633 003e 2B4A     		ldr	r2, .L57+4
 634 0040 0299     		ldr	r1, [sp, #8]
 635 0042 0398     		ldr	r0, [sp, #12]
 636 0044 9847     		blx	r3
 637              	.LVL2:
 638              		.loc 4 81 0
 639 0046 4FF0FF33 		mov	r3, #-1
 640 004a 42E0     		b	.L53
 641              	.L48:
 642              		.loc 4 84 0
 643 004c 9DF82330 		ldrb	r3, [sp, #35]
 644 0050 83F00103 		eor	r3, r3, #1
 645 0054 DBB2     		uxtb	r3, r3
 646 0056 002B     		cmp	r3, #0
 647 0058 0FD0     		beq	.L50
 648              		.loc 4 84 0 is_stmt 0 discriminator 1
 649 005a 09AA     		add	r2, sp, #36
 650 005c 0CAB     		add	r3, sp, #48
 651 005e 1146     		mov	r1, r2
 652 0060 1846     		mov	r0, r3
 653 0062 FFF7FEFF 		bl	get_float
 654 0066 0346     		mov	r3, r0
 655 0068 002B     		cmp	r3, #0
 656 006a 06D0     		beq	.L50
 657              		.loc 4 85 0 is_stmt 1
 658 006c 0A9B     		ldr	r3, [sp, #40]
 659 006e 9B00     		lsls	r3, r3, #2
 660 0070 069A     		ldr	r2, [sp, #24]
 661 0072 1344     		add	r3, r3, r2
 662 0074 099A     		ldr	r2, [sp, #36]	@ float
 663 0076 1A60     		str	r2, [r3]	@ float
 664 0078 1CE0     		b	.L51
 665              	.L50:
 666              	.LBB11:
 667              		.loc 4 87 0
 668 007a 9DF82330 		ldrb	r3, [sp, #35]
 669 007e 83F00103 		eor	r3, r3, #1
 670 0082 DBB2     		uxtb	r3, r3
 671 0084 002B     		cmp	r3, #0
 672 0086 07D0     		beq	.L52
ARM GAS  C:\Users\PCHAUT~1\AppData\Local\Temp\ccIm8FNl.s 			page 13


 673              		.loc 4 88 0
 674 0088 0123     		movs	r3, #1
 675 008a 8DF82330 		strb	r3, [sp, #35]
 676              		.loc 4 89 0
 677 008e 049B     		ldr	r3, [sp, #16]
 678 0090 174A     		ldr	r2, .L57+8
 679 0092 0299     		ldr	r1, [sp, #8]
 680 0094 0398     		ldr	r0, [sp, #12]
 681 0096 9847     		blx	r3
 682              	.LVL3:
 683              	.L52:
 684              		.loc 4 91 0
 685 0098 0CA8     		add	r0, sp, #48
 686 009a 029B     		ldr	r3, [sp, #8]
 687 009c 0093     		str	r3, [sp]
 688 009e 039B     		ldr	r3, [sp, #12]
 689 00a0 049A     		ldr	r2, [sp, #16]
 690 00a2 0799     		ldr	r1, [sp, #28]
 691 00a4 FFF7FEFF 		bl	discard_msgpack_element
 692 00a8 0B90     		str	r0, [sp, #44]
 693              		.loc 4 92 0
 694 00aa 0B9B     		ldr	r3, [sp, #44]
 695 00ac 002B     		cmp	r3, #0
 696 00ae 01D0     		beq	.L51
 697              		.loc 4 93 0
 698 00b0 0B9B     		ldr	r3, [sp, #44]
 699 00b2 0EE0     		b	.L53
 700              	.L51:
 701              	.LBE11:
 702              	.LBE10:
 703              		.loc 4 77 0
 704 00b4 0A9B     		ldr	r3, [sp, #40]
 705 00b6 0133     		adds	r3, r3, #1
 706 00b8 0A93     		str	r3, [sp, #40]
 707              	.L47:
 708              		.loc 4 77 0 is_stmt 0 discriminator 1
 709 00ba 0A9A     		ldr	r2, [sp, #40]
 710 00bc 059B     		ldr	r3, [sp, #20]
 711 00be 9A42     		cmp	r2, r3
 712 00c0 B1DB     		blt	.L54
 713              		.loc 4 97 0 is_stmt 1
 714 00c2 9DF82330 		ldrb	r3, [sp, #35]	@ zero_extendqisi2
 715 00c6 002B     		cmp	r3, #0
 716 00c8 02D0     		beq	.L55
 717              		.loc 4 98 0
 718 00ca 4FF0FF33 		mov	r3, #-1
 719 00ce 00E0     		b	.L53
 720              	.L55:
 721              		.loc 4 100 0
 722 00d0 0023     		movs	r3, #0
 723              	.L53:
 724              		.loc 4 102 0
 725 00d2 1846     		mov	r0, r3
 726 00d4 044B     		ldr	r3, .L57
 727 00d6 119A     		ldr	r2, [sp, #68]
 728 00d8 1B68     		ldr	r3, [r3]
 729 00da 9A42     		cmp	r2, r3
ARM GAS  C:\Users\PCHAUT~1\AppData\Local\Temp\ccIm8FNl.s 			page 14


 730 00dc 01D0     		beq	.L56
 731 00de FFF7FEFF 		bl	__stack_chk_fail
 732              	.L56:
 733 00e2 13B0     		add	sp, sp, #76
 734              		.cfi_def_cfa_offset 4
 735              		@ sp needed
 736 00e4 5DF804FB 		ldr	pc, [sp], #4
 737              	.L58:
 738              		.align	2
 739              	.L57:
 740 00e8 00000000 		.word	__stack_chk_guard
 741 00ec 14000000 		.word	.LC1
 742 00f0 2C000000 		.word	.LC2
 743              		.cfi_endproc
 744              	.LFE254:
 745              		.size	get_vector, .-get_vector
 746              		.section	.text.read_parameter_scalar,"ax",%progbits
 747              		.align	1
 748              		.p2align 4,,15
 749              		.syntax unified
 750              		.thumb
 751              		.thumb_func
 752              		.fpu fpv4-sp-d16
 753              		.type	read_parameter_scalar, %function
 754              	read_parameter_scalar:
 755              	.LFB255:
 756              		.loc 4 109 0
 757              		.cfi_startproc
 758              		@ args = 4, pretend = 0, frame = 40
 759              		@ frame_needed = 0, uses_anonymous_args = 0
 760 0000 00B5     		push	{lr}
 761              		.cfi_def_cfa_offset 4
 762              		.cfi_offset 14, -4
 763 0002 8DB0     		sub	sp, sp, #52
 764              		.cfi_def_cfa_offset 56
 765 0004 0790     		str	r0, [sp, #28]
 766 0006 0691     		str	r1, [sp, #24]
 767 0008 0592     		str	r2, [sp, #20]
 768 000a 0493     		str	r3, [sp, #16]
 769 000c 0E9B     		ldr	r3, [sp, #56]
 770 000e 0393     		str	r3, [sp, #12]
 771              		.loc 4 109 0
 772 0010 194B     		ldr	r3, .L65
 773 0012 1B68     		ldr	r3, [r3]
 774 0014 0B93     		str	r3, [sp, #44]
 775              		.loc 4 111 0
 776 0016 09AB     		add	r3, sp, #36
 777 0018 1946     		mov	r1, r3
 778 001a 0698     		ldr	r0, [sp, #24]
 779 001c FFF7FEFF 		bl	get_float
 780 0020 0346     		mov	r3, r0
 781 0022 002B     		cmp	r3, #0
 782 0024 07D0     		beq	.L60
 783              		.loc 4 112 0
 784 0026 DDED097A 		vldr.32	s15, [sp, #36]
 785 002a B0EE670A 		vmov.f32	s0, s15
 786 002e 0798     		ldr	r0, [sp, #28]
ARM GAS  C:\Users\PCHAUT~1\AppData\Local\Temp\ccIm8FNl.s 			page 15


 787 0030 FFF7FEFF 		bl	parameter_scalar_set
 788 0034 14E0     		b	.L61
 789              	.L60:
 790              	.LBB12:
 791              		.loc 4 114 0
 792 0036 079B     		ldr	r3, [sp, #28]
 793 0038 1968     		ldr	r1, [r3]
 794 003a 049B     		ldr	r3, [sp, #16]
 795 003c 0F4A     		ldr	r2, .L65+4
 796 003e 0398     		ldr	r0, [sp, #12]
 797 0040 9847     		blx	r3
 798              	.LVL4:
 799              		.loc 4 115 0
 800 0042 079B     		ldr	r3, [sp, #28]
 801 0044 1B68     		ldr	r3, [r3]
 802 0046 0093     		str	r3, [sp]
 803 0048 039B     		ldr	r3, [sp, #12]
 804 004a 049A     		ldr	r2, [sp, #16]
 805 004c 0599     		ldr	r1, [sp, #20]
 806 004e 0698     		ldr	r0, [sp, #24]
 807 0050 FFF7FEFF 		bl	discard_msgpack_element
 808 0054 0A90     		str	r0, [sp, #40]
 809              		.loc 4 116 0
 810 0056 0A9B     		ldr	r3, [sp, #40]
 811 0058 002B     		cmp	r3, #0
 812 005a 01D0     		beq	.L61
 813              		.loc 4 117 0
 814 005c 0A9B     		ldr	r3, [sp, #40]
 815 005e 00E0     		b	.L63
 816              	.L61:
 817              	.LBE12:
 818              		.loc 4 120 0
 819 0060 0023     		movs	r3, #0
 820              	.L63:
 821              		.loc 4 121 0 discriminator 1
 822 0062 1846     		mov	r0, r3
 823 0064 044B     		ldr	r3, .L65
 824 0066 0B9A     		ldr	r2, [sp, #44]
 825 0068 1B68     		ldr	r3, [r3]
 826 006a 9A42     		cmp	r2, r3
 827 006c 01D0     		beq	.L64
 828              		.loc 4 121 0 is_stmt 0
 829 006e FFF7FEFF 		bl	__stack_chk_fail
 830              	.L64:
 831 0072 0DB0     		add	sp, sp, #52
 832              		.cfi_def_cfa_offset 4
 833              		@ sp needed
 834 0074 5DF804FB 		ldr	pc, [sp], #4
 835              	.L66:
 836              		.align	2
 837              	.L65:
 838 0078 00000000 		.word	__stack_chk_guard
 839 007c 2C000000 		.word	.LC2
 840              		.cfi_endproc
 841              	.LFE255:
 842              		.size	read_parameter_scalar, .-read_parameter_scalar
 843              		.section	.text.read_parameter_integer,"ax",%progbits
ARM GAS  C:\Users\PCHAUT~1\AppData\Local\Temp\ccIm8FNl.s 			page 16


 844              		.align	1
 845              		.p2align 4,,15
 846              		.syntax unified
 847              		.thumb
 848              		.thumb_func
 849              		.fpu fpv4-sp-d16
 850              		.type	read_parameter_integer, %function
 851              	read_parameter_integer:
 852              	.LFB256:
 853              		.loc 4 128 0 is_stmt 1
 854              		.cfi_startproc
 855              		@ args = 4, pretend = 0, frame = 40
 856              		@ frame_needed = 0, uses_anonymous_args = 0
 857 0000 00B5     		push	{lr}
 858              		.cfi_def_cfa_offset 4
 859              		.cfi_offset 14, -4
 860 0002 8DB0     		sub	sp, sp, #52
 861              		.cfi_def_cfa_offset 56
 862 0004 0790     		str	r0, [sp, #28]
 863 0006 0691     		str	r1, [sp, #24]
 864 0008 0592     		str	r2, [sp, #20]
 865 000a 0493     		str	r3, [sp, #16]
 866 000c 0E9B     		ldr	r3, [sp, #56]
 867 000e 0393     		str	r3, [sp, #12]
 868              		.loc 4 128 0
 869 0010 184B     		ldr	r3, .L73
 870 0012 1B68     		ldr	r3, [r3]
 871 0014 0B93     		str	r3, [sp, #44]
 872              		.loc 4 130 0
 873 0016 09AB     		add	r3, sp, #36
 874 0018 1946     		mov	r1, r3
 875 001a 0698     		ldr	r0, [sp, #24]
 876 001c FFF7FEFF 		bl	get_int
 877 0020 0346     		mov	r3, r0
 878 0022 002B     		cmp	r3, #0
 879 0024 05D0     		beq	.L68
 880              		.loc 4 131 0
 881 0026 099B     		ldr	r3, [sp, #36]
 882 0028 1946     		mov	r1, r3
 883 002a 0798     		ldr	r0, [sp, #28]
 884 002c FFF7FEFF 		bl	parameter_integer_set
 885 0030 14E0     		b	.L69
 886              	.L68:
 887              	.LBB13:
 888              		.loc 4 133 0
 889 0032 079B     		ldr	r3, [sp, #28]
 890 0034 1968     		ldr	r1, [r3]
 891 0036 049B     		ldr	r3, [sp, #16]
 892 0038 0F4A     		ldr	r2, .L73+4
 893 003a 0398     		ldr	r0, [sp, #12]
 894 003c 9847     		blx	r3
 895              	.LVL5:
 896              		.loc 4 134 0
 897 003e 079B     		ldr	r3, [sp, #28]
 898 0040 1B68     		ldr	r3, [r3]
 899 0042 0093     		str	r3, [sp]
 900 0044 039B     		ldr	r3, [sp, #12]
ARM GAS  C:\Users\PCHAUT~1\AppData\Local\Temp\ccIm8FNl.s 			page 17


 901 0046 049A     		ldr	r2, [sp, #16]
 902 0048 0599     		ldr	r1, [sp, #20]
 903 004a 0698     		ldr	r0, [sp, #24]
 904 004c FFF7FEFF 		bl	discard_msgpack_element
 905 0050 0A90     		str	r0, [sp, #40]
 906              		.loc 4 135 0
 907 0052 0A9B     		ldr	r3, [sp, #40]
 908 0054 002B     		cmp	r3, #0
 909 0056 01D0     		beq	.L69
 910              		.loc 4 136 0
 911 0058 0A9B     		ldr	r3, [sp, #40]
 912 005a 00E0     		b	.L71
 913              	.L69:
 914              	.LBE13:
 915              		.loc 4 139 0
 916 005c 0023     		movs	r3, #0
 917              	.L71:
 918              		.loc 4 140 0 discriminator 1
 919 005e 1846     		mov	r0, r3
 920 0060 044B     		ldr	r3, .L73
 921 0062 0B9A     		ldr	r2, [sp, #44]
 922 0064 1B68     		ldr	r3, [r3]
 923 0066 9A42     		cmp	r2, r3
 924 0068 01D0     		beq	.L72
 925              		.loc 4 140 0 is_stmt 0
 926 006a FFF7FEFF 		bl	__stack_chk_fail
 927              	.L72:
 928 006e 0DB0     		add	sp, sp, #52
 929              		.cfi_def_cfa_offset 4
 930              		@ sp needed
 931 0070 5DF804FB 		ldr	pc, [sp], #4
 932              	.L74:
 933              		.align	2
 934              	.L73:
 935 0074 00000000 		.word	__stack_chk_guard
 936 0078 2C000000 		.word	.LC2
 937              		.cfi_endproc
 938              	.LFE256:
 939              		.size	read_parameter_integer, .-read_parameter_integer
 940              		.section	.text.read_parameter_boolean,"ax",%progbits
 941              		.align	1
 942              		.p2align 4,,15
 943              		.syntax unified
 944              		.thumb
 945              		.thumb_func
 946              		.fpu fpv4-sp-d16
 947              		.type	read_parameter_boolean, %function
 948              	read_parameter_boolean:
 949              	.LFB257:
 950              		.loc 4 147 0 is_stmt 1
 951              		.cfi_startproc
 952              		@ args = 4, pretend = 0, frame = 40
 953              		@ frame_needed = 0, uses_anonymous_args = 0
 954 0000 00B5     		push	{lr}
 955              		.cfi_def_cfa_offset 4
 956              		.cfi_offset 14, -4
 957 0002 8DB0     		sub	sp, sp, #52
ARM GAS  C:\Users\PCHAUT~1\AppData\Local\Temp\ccIm8FNl.s 			page 18


 958              		.cfi_def_cfa_offset 56
 959 0004 0790     		str	r0, [sp, #28]
 960 0006 0691     		str	r1, [sp, #24]
 961 0008 0592     		str	r2, [sp, #20]
 962 000a 0493     		str	r3, [sp, #16]
 963 000c 0E9B     		ldr	r3, [sp, #56]
 964 000e 0393     		str	r3, [sp, #12]
 965              		.loc 4 147 0
 966 0010 1C4B     		ldr	r3, .L81
 967 0012 1B68     		ldr	r3, [r3]
 968 0014 0B93     		str	r3, [sp, #44]
 969              		.loc 4 149 0
 970 0016 0DF12703 		add	r3, sp, #39
 971 001a 1946     		mov	r1, r3
 972 001c 0698     		ldr	r0, [sp, #24]
 973 001e FFF7FEFF 		bl	get_bool
 974 0022 0346     		mov	r3, r0
 975 0024 002B     		cmp	r3, #0
 976 0026 06D0     		beq	.L76
 977              		.loc 4 150 0
 978 0028 9DF82730 		ldrb	r3, [sp, #39]	@ zero_extendqisi2
 979 002c 1946     		mov	r1, r3
 980 002e 0798     		ldr	r0, [sp, #28]
 981 0030 FFF7FEFF 		bl	parameter_boolean_set
 982 0034 19E0     		b	.L77
 983              	.L76:
 984              	.LBB14:
 985              		.loc 4 152 0
 986 0036 079B     		ldr	r3, [sp, #28]
 987 0038 1968     		ldr	r1, [r3]
 988 003a 049B     		ldr	r3, [sp, #16]
 989 003c 124A     		ldr	r2, .L81+4
 990 003e 0398     		ldr	r0, [sp, #12]
 991 0040 9847     		blx	r3
 992              	.LVL6:
 993              		.loc 4 153 0
 994 0042 079B     		ldr	r3, [sp, #28]
 995 0044 1B68     		ldr	r3, [r3]
 996 0046 0093     		str	r3, [sp]
 997 0048 039B     		ldr	r3, [sp, #12]
 998 004a 049A     		ldr	r2, [sp, #16]
 999 004c 0599     		ldr	r1, [sp, #20]
 1000 004e 0698     		ldr	r0, [sp, #24]
 1001 0050 FFF7FEFF 		bl	discard_msgpack_element
 1002 0054 0A90     		str	r0, [sp, #40]
 1003              		.loc 4 154 0
 1004 0056 0A9B     		ldr	r3, [sp, #40]
 1005 0058 002B     		cmp	r3, #0
 1006 005a 06D0     		beq	.L77
 1007              		.loc 4 155 0
 1008 005c 0A9B     		ldr	r3, [sp, #40]
 1009 005e 002B     		cmp	r3, #0
 1010 0060 14BF     		ite	ne
 1011 0062 0123     		movne	r3, #1
 1012 0064 0023     		moveq	r3, #0
 1013 0066 DBB2     		uxtb	r3, r3
 1014 0068 00E0     		b	.L79
ARM GAS  C:\Users\PCHAUT~1\AppData\Local\Temp\ccIm8FNl.s 			page 19


 1015              	.L77:
 1016              	.LBE14:
 1017              		.loc 4 158 0
 1018 006a 0023     		movs	r3, #0
 1019              	.L79:
 1020              		.loc 4 159 0 discriminator 1
 1021 006c 1846     		mov	r0, r3
 1022 006e 054B     		ldr	r3, .L81
 1023 0070 0B9A     		ldr	r2, [sp, #44]
 1024 0072 1B68     		ldr	r3, [r3]
 1025 0074 9A42     		cmp	r2, r3
 1026 0076 01D0     		beq	.L80
 1027              		.loc 4 159 0 is_stmt 0
 1028 0078 FFF7FEFF 		bl	__stack_chk_fail
 1029              	.L80:
 1030 007c 0DB0     		add	sp, sp, #52
 1031              		.cfi_def_cfa_offset 4
 1032              		@ sp needed
 1033 007e 5DF804FB 		ldr	pc, [sp], #4
 1034              	.L82:
 1035 0082 00BF     		.align	2
 1036              	.L81:
 1037 0084 00000000 		.word	__stack_chk_guard
 1038 0088 2C000000 		.word	.LC2
 1039              		.cfi_endproc
 1040              	.LFE257:
 1041              		.size	read_parameter_boolean, .-read_parameter_boolean
 1042              		.section	.rodata
 1043 0043 00       		.align	2
 1044              	.LC3:
 1045 0044 7761726E 		.ascii	"warning: wrong vector dimension\000"
 1045      696E673A 
 1045      2077726F 
 1045      6E672076 
 1045      6563746F 
 1046              		.align	2
 1047              	.LC4:
 1048 0064 7761726E 		.ascii	"warning: allocation failed\000"
 1048      696E673A 
 1048      20616C6C 
 1048      6F636174 
 1048      696F6E20 
 1049              		.section	.text.read_parameter_vector,"ax",%progbits
 1050              		.align	1
 1051              		.p2align 4,,15
 1052              		.syntax unified
 1053              		.thumb
 1054              		.thumb_func
 1055              		.fpu fpv4-sp-d16
 1056              		.type	read_parameter_vector, %function
 1057              	read_parameter_vector:
 1058              	.LFB258:
 1059              		.loc 4 166 0 is_stmt 1
 1060              		.cfi_startproc
 1061              		@ args = 4, pretend = 0, frame = 56
 1062              		@ frame_needed = 0, uses_anonymous_args = 0
 1063 0000 00B5     		push	{lr}
ARM GAS  C:\Users\PCHAUT~1\AppData\Local\Temp\ccIm8FNl.s 			page 20


 1064              		.cfi_def_cfa_offset 4
 1065              		.cfi_offset 14, -4
 1066 0002 91B0     		sub	sp, sp, #68
 1067              		.cfi_def_cfa_offset 72
 1068 0004 0790     		str	r0, [sp, #28]
 1069 0006 0691     		str	r1, [sp, #24]
 1070 0008 0592     		str	r2, [sp, #20]
 1071 000a 0493     		str	r3, [sp, #16]
 1072 000c 129B     		ldr	r3, [sp, #72]
 1073 000e 0393     		str	r3, [sp, #12]
 1074              		.loc 4 166 0
 1075 0010 414B     		ldr	r3, .L92
 1076 0012 1B68     		ldr	r3, [r3]
 1077 0014 0F93     		str	r3, [sp, #60]
 1078              		.loc 4 168 0
 1079 0016 09AB     		add	r3, sp, #36
 1080 0018 1946     		mov	r1, r3
 1081 001a 0698     		ldr	r0, [sp, #24]
 1082 001c FFF7FEFF 		bl	cmp_object_as_array
 1083 0020 0346     		mov	r3, r0
 1084 0022 002B     		cmp	r3, #0
 1085 0024 56D0     		beq	.L84
 1086              	.LBB15:
 1087              		.loc 4 169 0
 1088 0026 079B     		ldr	r3, [sp, #28]
 1089 0028 DB8A     		ldrh	r3, [r3, #22]
 1090 002a 1A46     		mov	r2, r3
 1091 002c 099B     		ldr	r3, [sp, #36]
 1092 002e 9A42     		cmp	r2, r3
 1093 0030 14D0     		beq	.L85
 1094              	.LBB16:
 1095              		.loc 4 170 0
 1096 0032 079B     		ldr	r3, [sp, #28]
 1097 0034 1968     		ldr	r1, [r3]
 1098 0036 049B     		ldr	r3, [sp, #16]
 1099 0038 384A     		ldr	r2, .L92+4
 1100 003a 0398     		ldr	r0, [sp, #12]
 1101 003c 9847     		blx	r3
 1102              	.LVL7:
 1103              		.loc 4 171 0
 1104 003e 079B     		ldr	r3, [sp, #28]
 1105 0040 1B68     		ldr	r3, [r3]
 1106 0042 0093     		str	r3, [sp]
 1107 0044 039B     		ldr	r3, [sp, #12]
 1108 0046 049A     		ldr	r2, [sp, #16]
 1109 0048 0599     		ldr	r1, [sp, #20]
 1110 004a 0698     		ldr	r0, [sp, #24]
 1111 004c FFF7FEFF 		bl	discard_msgpack_element
 1112 0050 0B90     		str	r0, [sp, #44]
 1113              		.loc 4 172 0
 1114 0052 0B9B     		ldr	r3, [sp, #44]
 1115 0054 002B     		cmp	r3, #0
 1116 0056 01D0     		beq	.L85
 1117              		.loc 4 173 0
 1118 0058 0B9B     		ldr	r3, [sp, #44]
 1119 005a 51E0     		b	.L90
 1120              	.L85:
ARM GAS  C:\Users\PCHAUT~1\AppData\Local\Temp\ccIm8FNl.s 			page 21


 1121              	.LBE16:
 1122              		.loc 4 176 0
 1123 005c 099B     		ldr	r3, [sp, #36]
 1124 005e 9B00     		lsls	r3, r3, #2
 1125 0060 1846     		mov	r0, r3
 1126 0062 FFF7FEFF 		bl	malloc
 1127 0066 0346     		mov	r3, r0
 1128 0068 0C93     		str	r3, [sp, #48]
 1129              		.loc 4 177 0
 1130 006a 0C9B     		ldr	r3, [sp, #48]
 1131 006c 002B     		cmp	r3, #0
 1132 006e 14D1     		bne	.L87
 1133              	.LBB17:
 1134              		.loc 4 178 0
 1135 0070 079B     		ldr	r3, [sp, #28]
 1136 0072 1968     		ldr	r1, [r3]
 1137 0074 049B     		ldr	r3, [sp, #16]
 1138 0076 2A4A     		ldr	r2, .L92+8
 1139 0078 0398     		ldr	r0, [sp, #12]
 1140 007a 9847     		blx	r3
 1141              	.LVL8:
 1142              		.loc 4 179 0
 1143 007c 079B     		ldr	r3, [sp, #28]
 1144 007e 1B68     		ldr	r3, [r3]
 1145 0080 0093     		str	r3, [sp]
 1146 0082 039B     		ldr	r3, [sp, #12]
 1147 0084 049A     		ldr	r2, [sp, #16]
 1148 0086 0599     		ldr	r1, [sp, #20]
 1149 0088 0698     		ldr	r0, [sp, #24]
 1150 008a FFF7FEFF 		bl	discard_msgpack_element
 1151 008e 0D90     		str	r0, [sp, #52]
 1152              		.loc 4 180 0
 1153 0090 0D9B     		ldr	r3, [sp, #52]
 1154 0092 002B     		cmp	r3, #0
 1155 0094 01D0     		beq	.L87
 1156              		.loc 4 181 0
 1157 0096 0D9B     		ldr	r3, [sp, #52]
 1158 0098 32E0     		b	.L90
 1159              	.L87:
 1160              	.LBE17:
 1161              		.loc 4 184 0
 1162 009a 099B     		ldr	r3, [sp, #36]
 1163 009c 1A46     		mov	r2, r3
 1164 009e 079B     		ldr	r3, [sp, #28]
 1165 00a0 1B68     		ldr	r3, [r3]
 1166 00a2 0193     		str	r3, [sp, #4]
 1167 00a4 039B     		ldr	r3, [sp, #12]
 1168 00a6 0093     		str	r3, [sp]
 1169 00a8 049B     		ldr	r3, [sp, #16]
 1170 00aa 0C99     		ldr	r1, [sp, #48]
 1171 00ac 0598     		ldr	r0, [sp, #20]
 1172 00ae FFF7FEFF 		bl	get_vector
 1173 00b2 0E90     		str	r0, [sp, #56]
 1174              		.loc 4 185 0
 1175 00b4 0E9B     		ldr	r3, [sp, #56]
 1176 00b6 002B     		cmp	r3, #0
 1177 00b8 04D0     		beq	.L88
ARM GAS  C:\Users\PCHAUT~1\AppData\Local\Temp\ccIm8FNl.s 			page 22


 1178              		.loc 4 186 0
 1179 00ba 0C98     		ldr	r0, [sp, #48]
 1180 00bc FFF7FEFF 		bl	free
 1181              		.loc 4 187 0
 1182 00c0 0E9B     		ldr	r3, [sp, #56]
 1183 00c2 1DE0     		b	.L90
 1184              	.L88:
 1185              		.loc 4 189 0
 1186 00c4 0C99     		ldr	r1, [sp, #48]
 1187 00c6 0798     		ldr	r0, [sp, #28]
 1188 00c8 FFF7FEFF 		bl	parameter_vector_set
 1189              		.loc 4 190 0
 1190 00cc 0C98     		ldr	r0, [sp, #48]
 1191 00ce FFF7FEFF 		bl	free
 1192              	.LBE15:
 1193 00d2 14E0     		b	.L89
 1194              	.L84:
 1195              	.LBB18:
 1196              		.loc 4 192 0
 1197 00d4 079B     		ldr	r3, [sp, #28]
 1198 00d6 1968     		ldr	r1, [r3]
 1199 00d8 049B     		ldr	r3, [sp, #16]
 1200 00da 124A     		ldr	r2, .L92+12
 1201 00dc 0398     		ldr	r0, [sp, #12]
 1202 00de 9847     		blx	r3
 1203              	.LVL9:
 1204              		.loc 4 193 0
 1205 00e0 079B     		ldr	r3, [sp, #28]
 1206 00e2 1B68     		ldr	r3, [r3]
 1207 00e4 0093     		str	r3, [sp]
 1208 00e6 039B     		ldr	r3, [sp, #12]
 1209 00e8 049A     		ldr	r2, [sp, #16]
 1210 00ea 0599     		ldr	r1, [sp, #20]
 1211 00ec 0698     		ldr	r0, [sp, #24]
 1212 00ee FFF7FEFF 		bl	discard_msgpack_element
 1213 00f2 0A90     		str	r0, [sp, #40]
 1214              		.loc 4 194 0
 1215 00f4 0A9B     		ldr	r3, [sp, #40]
 1216 00f6 002B     		cmp	r3, #0
 1217 00f8 01D0     		beq	.L89
 1218              		.loc 4 195 0
 1219 00fa 0A9B     		ldr	r3, [sp, #40]
 1220 00fc 00E0     		b	.L90
 1221              	.L89:
 1222              	.LBE18:
 1223              		.loc 4 198 0
 1224 00fe 0023     		movs	r3, #0
 1225              	.L90:
 1226              		.loc 4 199 0 discriminator 1
 1227 0100 1846     		mov	r0, r3
 1228 0102 054B     		ldr	r3, .L92
 1229 0104 0F9A     		ldr	r2, [sp, #60]
 1230 0106 1B68     		ldr	r3, [r3]
 1231 0108 9A42     		cmp	r2, r3
 1232 010a 01D0     		beq	.L91
 1233              		.loc 4 199 0 is_stmt 0
 1234 010c FFF7FEFF 		bl	__stack_chk_fail
ARM GAS  C:\Users\PCHAUT~1\AppData\Local\Temp\ccIm8FNl.s 			page 23


 1235              	.L91:
 1236 0110 11B0     		add	sp, sp, #68
 1237              		.cfi_def_cfa_offset 4
 1238              		@ sp needed
 1239 0112 5DF804FB 		ldr	pc, [sp], #4
 1240              	.L93:
 1241 0116 00BF     		.align	2
 1242              	.L92:
 1243 0118 00000000 		.word	__stack_chk_guard
 1244 011c 44000000 		.word	.LC3
 1245 0120 64000000 		.word	.LC4
 1246 0124 2C000000 		.word	.LC2
 1247              		.cfi_endproc
 1248              	.LFE258:
 1249              		.size	read_parameter_vector, .-read_parameter_vector
 1250              		.section	.rodata
 1251 007f 00       		.align	2
 1252              	.LC5:
 1253 0080 7761726E 		.ascii	"warning: vector dimension too big\000"
 1253      696E673A 
 1253      20766563 
 1253      746F7220 
 1253      64696D65 
 1254              		.section	.text.read_parameter_var_vector,"ax",%progbits
 1255              		.align	1
 1256              		.p2align 4,,15
 1257              		.syntax unified
 1258              		.thumb
 1259              		.thumb_func
 1260              		.fpu fpv4-sp-d16
 1261              		.type	read_parameter_var_vector, %function
 1262              	read_parameter_var_vector:
 1263              	.LFB259:
 1264              		.loc 4 206 0 is_stmt 1
 1265              		.cfi_startproc
 1266              		@ args = 4, pretend = 0, frame = 56
 1267              		@ frame_needed = 0, uses_anonymous_args = 0
 1268 0000 00B5     		push	{lr}
 1269              		.cfi_def_cfa_offset 4
 1270              		.cfi_offset 14, -4
 1271 0002 91B0     		sub	sp, sp, #68
 1272              		.cfi_def_cfa_offset 72
 1273 0004 0790     		str	r0, [sp, #28]
 1274 0006 0691     		str	r1, [sp, #24]
 1275 0008 0592     		str	r2, [sp, #20]
 1276 000a 0493     		str	r3, [sp, #16]
 1277 000c 129B     		ldr	r3, [sp, #72]
 1278 000e 0393     		str	r3, [sp, #12]
 1279              		.loc 4 206 0
 1280 0010 424B     		ldr	r3, .L103
 1281 0012 1B68     		ldr	r3, [r3]
 1282 0014 0F93     		str	r3, [sp, #60]
 1283              		.loc 4 208 0
 1284 0016 09AB     		add	r3, sp, #36
 1285 0018 1946     		mov	r1, r3
 1286 001a 0698     		ldr	r0, [sp, #24]
 1287 001c FFF7FEFF 		bl	cmp_object_as_array
ARM GAS  C:\Users\PCHAUT~1\AppData\Local\Temp\ccIm8FNl.s 			page 24


 1288 0020 0346     		mov	r3, r0
 1289 0022 002B     		cmp	r3, #0
 1290 0024 59D0     		beq	.L95
 1291              	.LBB19:
 1292              		.loc 4 209 0
 1293 0026 079B     		ldr	r3, [sp, #28]
 1294 0028 9B8A     		ldrh	r3, [r3, #20]
 1295 002a 1A46     		mov	r2, r3
 1296 002c 099B     		ldr	r3, [sp, #36]
 1297 002e 9A42     		cmp	r2, r3
 1298 0030 14D2     		bcs	.L96
 1299              	.LBB20:
 1300              		.loc 4 210 0
 1301 0032 079B     		ldr	r3, [sp, #28]
 1302 0034 1968     		ldr	r1, [r3]
 1303 0036 049B     		ldr	r3, [sp, #16]
 1304 0038 394A     		ldr	r2, .L103+4
 1305 003a 0398     		ldr	r0, [sp, #12]
 1306 003c 9847     		blx	r3
 1307              	.LVL10:
 1308              		.loc 4 211 0
 1309 003e 079B     		ldr	r3, [sp, #28]
 1310 0040 1B68     		ldr	r3, [r3]
 1311 0042 0093     		str	r3, [sp]
 1312 0044 039B     		ldr	r3, [sp, #12]
 1313 0046 049A     		ldr	r2, [sp, #16]
 1314 0048 0599     		ldr	r1, [sp, #20]
 1315 004a 0698     		ldr	r0, [sp, #24]
 1316 004c FFF7FEFF 		bl	discard_msgpack_element
 1317 0050 0B90     		str	r0, [sp, #44]
 1318              		.loc 4 212 0
 1319 0052 0B9B     		ldr	r3, [sp, #44]
 1320 0054 002B     		cmp	r3, #0
 1321 0056 01D0     		beq	.L96
 1322              		.loc 4 213 0
 1323 0058 0B9B     		ldr	r3, [sp, #44]
 1324 005a 54E0     		b	.L101
 1325              	.L96:
 1326              	.LBE20:
 1327              		.loc 4 216 0
 1328 005c 099B     		ldr	r3, [sp, #36]
 1329 005e 9B00     		lsls	r3, r3, #2
 1330 0060 1846     		mov	r0, r3
 1331 0062 FFF7FEFF 		bl	malloc
 1332 0066 0346     		mov	r3, r0
 1333 0068 0C93     		str	r3, [sp, #48]
 1334              		.loc 4 217 0
 1335 006a 0C9B     		ldr	r3, [sp, #48]
 1336 006c 002B     		cmp	r3, #0
 1337 006e 14D1     		bne	.L98
 1338              	.LBB21:
 1339              		.loc 4 218 0
 1340 0070 079B     		ldr	r3, [sp, #28]
 1341 0072 1968     		ldr	r1, [r3]
 1342 0074 049B     		ldr	r3, [sp, #16]
 1343 0076 2B4A     		ldr	r2, .L103+8
 1344 0078 0398     		ldr	r0, [sp, #12]
ARM GAS  C:\Users\PCHAUT~1\AppData\Local\Temp\ccIm8FNl.s 			page 25


 1345 007a 9847     		blx	r3
 1346              	.LVL11:
 1347              		.loc 4 219 0
 1348 007c 079B     		ldr	r3, [sp, #28]
 1349 007e 1B68     		ldr	r3, [r3]
 1350 0080 0093     		str	r3, [sp]
 1351 0082 039B     		ldr	r3, [sp, #12]
 1352 0084 049A     		ldr	r2, [sp, #16]
 1353 0086 0599     		ldr	r1, [sp, #20]
 1354 0088 0698     		ldr	r0, [sp, #24]
 1355 008a FFF7FEFF 		bl	discard_msgpack_element
 1356 008e 0D90     		str	r0, [sp, #52]
 1357              		.loc 4 220 0
 1358 0090 0D9B     		ldr	r3, [sp, #52]
 1359 0092 002B     		cmp	r3, #0
 1360 0094 01D0     		beq	.L98
 1361              		.loc 4 221 0
 1362 0096 0D9B     		ldr	r3, [sp, #52]
 1363 0098 35E0     		b	.L101
 1364              	.L98:
 1365              	.LBE21:
 1366              		.loc 4 224 0
 1367 009a 099B     		ldr	r3, [sp, #36]
 1368 009c 1A46     		mov	r2, r3
 1369 009e 079B     		ldr	r3, [sp, #28]
 1370 00a0 1B68     		ldr	r3, [r3]
 1371 00a2 0193     		str	r3, [sp, #4]
 1372 00a4 039B     		ldr	r3, [sp, #12]
 1373 00a6 0093     		str	r3, [sp]
 1374 00a8 049B     		ldr	r3, [sp, #16]
 1375 00aa 0C99     		ldr	r1, [sp, #48]
 1376 00ac 0598     		ldr	r0, [sp, #20]
 1377 00ae FFF7FEFF 		bl	get_vector
 1378 00b2 0E90     		str	r0, [sp, #56]
 1379              		.loc 4 225 0
 1380 00b4 0E9B     		ldr	r3, [sp, #56]
 1381 00b6 002B     		cmp	r3, #0
 1382 00b8 04D0     		beq	.L99
 1383              		.loc 4 226 0
 1384 00ba 0C98     		ldr	r0, [sp, #48]
 1385 00bc FFF7FEFF 		bl	free
 1386              		.loc 4 227 0
 1387 00c0 0E9B     		ldr	r3, [sp, #56]
 1388 00c2 20E0     		b	.L101
 1389              	.L99:
 1390              		.loc 4 229 0
 1391 00c4 099B     		ldr	r3, [sp, #36]
 1392 00c6 9BB2     		uxth	r3, r3
 1393 00c8 1A46     		mov	r2, r3
 1394 00ca 0C99     		ldr	r1, [sp, #48]
 1395 00cc 0798     		ldr	r0, [sp, #28]
 1396 00ce FFF7FEFF 		bl	parameter_variable_vector_set
 1397              		.loc 4 230 0
 1398 00d2 0C98     		ldr	r0, [sp, #48]
 1399 00d4 FFF7FEFF 		bl	free
 1400              	.LBE19:
 1401 00d8 14E0     		b	.L100
ARM GAS  C:\Users\PCHAUT~1\AppData\Local\Temp\ccIm8FNl.s 			page 26


 1402              	.L95:
 1403              	.LBB22:
 1404              		.loc 4 232 0
 1405 00da 079B     		ldr	r3, [sp, #28]
 1406 00dc 1968     		ldr	r1, [r3]
 1407 00de 049B     		ldr	r3, [sp, #16]
 1408 00e0 114A     		ldr	r2, .L103+12
 1409 00e2 0398     		ldr	r0, [sp, #12]
 1410 00e4 9847     		blx	r3
 1411              	.LVL12:
 1412              		.loc 4 233 0
 1413 00e6 079B     		ldr	r3, [sp, #28]
 1414 00e8 1B68     		ldr	r3, [r3]
 1415 00ea 0093     		str	r3, [sp]
 1416 00ec 039B     		ldr	r3, [sp, #12]
 1417 00ee 049A     		ldr	r2, [sp, #16]
 1418 00f0 0599     		ldr	r1, [sp, #20]
 1419 00f2 0698     		ldr	r0, [sp, #24]
 1420 00f4 FFF7FEFF 		bl	discard_msgpack_element
 1421 00f8 0A90     		str	r0, [sp, #40]
 1422              		.loc 4 234 0
 1423 00fa 0A9B     		ldr	r3, [sp, #40]
 1424 00fc 002B     		cmp	r3, #0
 1425 00fe 01D0     		beq	.L100
 1426              		.loc 4 235 0
 1427 0100 0A9B     		ldr	r3, [sp, #40]
 1428 0102 00E0     		b	.L101
 1429              	.L100:
 1430              	.LBE22:
 1431              		.loc 4 238 0
 1432 0104 0023     		movs	r3, #0
 1433              	.L101:
 1434              		.loc 4 239 0 discriminator 1
 1435 0106 1846     		mov	r0, r3
 1436 0108 044B     		ldr	r3, .L103
 1437 010a 0F9A     		ldr	r2, [sp, #60]
 1438 010c 1B68     		ldr	r3, [r3]
 1439 010e 9A42     		cmp	r2, r3
 1440 0110 01D0     		beq	.L102
 1441              		.loc 4 239 0 is_stmt 0
 1442 0112 FFF7FEFF 		bl	__stack_chk_fail
 1443              	.L102:
 1444 0116 11B0     		add	sp, sp, #68
 1445              		.cfi_def_cfa_offset 4
 1446              		@ sp needed
 1447 0118 5DF804FB 		ldr	pc, [sp], #4
 1448              	.L104:
 1449              		.align	2
 1450              	.L103:
 1451 011c 00000000 		.word	__stack_chk_guard
 1452 0120 80000000 		.word	.LC5
 1453 0124 64000000 		.word	.LC4
 1454 0128 2C000000 		.word	.LC2
 1455              		.cfi_endproc
 1456              	.LFE259:
 1457              		.size	read_parameter_var_vector, .-read_parameter_var_vector
 1458              		.section	.rodata
ARM GAS  C:\Users\PCHAUT~1\AppData\Local\Temp\ccIm8FNl.s 			page 27


 1459 00a2 0000     		.align	2
 1460              	.LC6:
 1461 00a4 7761726E 		.ascii	"warning: string is too long\000"
 1461      696E673A 
 1461      20737472 
 1461      696E6720 
 1461      69732074 
 1462              		.align	2
 1463              	.LC7:
 1464 00c0 72656164 		.ascii	"read error\000"
 1464      20657272 
 1464      6F7200
 1465              		.section	.text.read_parameter_string,"ax",%progbits
 1466              		.align	1
 1467              		.p2align 4,,15
 1468              		.syntax unified
 1469              		.thumb
 1470              		.thumb_func
 1471              		.fpu fpv4-sp-d16
 1472              		.type	read_parameter_string, %function
 1473              	read_parameter_string:
 1474              	.LFB260:
 1475              		.loc 4 247 0 is_stmt 1
 1476              		.cfi_startproc
 1477              		@ args = 4, pretend = 0, frame = 40
 1478              		@ frame_needed = 0, uses_anonymous_args = 0
 1479 0000 00B5     		push	{lr}
 1480              		.cfi_def_cfa_offset 4
 1481              		.cfi_offset 14, -4
 1482 0002 8DB0     		sub	sp, sp, #52
 1483              		.cfi_def_cfa_offset 56
 1484 0004 0790     		str	r0, [sp, #28]
 1485 0006 0691     		str	r1, [sp, #24]
 1486 0008 0592     		str	r2, [sp, #20]
 1487 000a 0493     		str	r3, [sp, #16]
 1488 000c 0E9B     		ldr	r3, [sp, #56]
 1489 000e 0393     		str	r3, [sp, #12]
 1490              		.loc 4 247 0
 1491 0010 3E4B     		ldr	r3, .L113
 1492 0012 1B68     		ldr	r3, [r3]
 1493 0014 0B93     		str	r3, [sp, #44]
 1494              		.loc 4 249 0
 1495 0016 09AB     		add	r3, sp, #36
 1496 0018 1946     		mov	r1, r3
 1497 001a 0698     		ldr	r0, [sp, #24]
 1498 001c FFF7FEFF 		bl	cmp_object_as_str
 1499 0020 0346     		mov	r3, r0
 1500 0022 83F00103 		eor	r3, r3, #1
 1501 0026 DBB2     		uxtb	r3, r3
 1502 0028 002B     		cmp	r3, #0
 1503 002a 10D0     		beq	.L106
 1504              		.loc 4 250 0
 1505 002c 079B     		ldr	r3, [sp, #28]
 1506 002e 1968     		ldr	r1, [r3]
 1507 0030 049B     		ldr	r3, [sp, #16]
 1508 0032 374A     		ldr	r2, .L113+4
 1509 0034 0398     		ldr	r0, [sp, #12]
ARM GAS  C:\Users\PCHAUT~1\AppData\Local\Temp\ccIm8FNl.s 			page 28


 1510 0036 9847     		blx	r3
 1511              	.LVL13:
 1512              		.loc 4 251 0
 1513 0038 079B     		ldr	r3, [sp, #28]
 1514 003a 1B68     		ldr	r3, [r3]
 1515 003c 0093     		str	r3, [sp]
 1516 003e 039B     		ldr	r3, [sp, #12]
 1517 0040 049A     		ldr	r2, [sp, #16]
 1518 0042 0599     		ldr	r1, [sp, #20]
 1519 0044 0698     		ldr	r0, [sp, #24]
 1520 0046 FFF7FEFF 		bl	discard_msgpack_element
 1521 004a 0346     		mov	r3, r0
 1522 004c 53E0     		b	.L111
 1523              	.L106:
 1524              		.loc 4 253 0
 1525 004e 079B     		ldr	r3, [sp, #28]
 1526 0050 9B8A     		ldrh	r3, [r3, #20]
 1527 0052 1A46     		mov	r2, r3
 1528 0054 099B     		ldr	r3, [sp, #36]
 1529 0056 9A42     		cmp	r2, r3
 1530 0058 10D8     		bhi	.L108
 1531              		.loc 4 254 0
 1532 005a 079B     		ldr	r3, [sp, #28]
 1533 005c 1968     		ldr	r1, [r3]
 1534 005e 049B     		ldr	r3, [sp, #16]
 1535 0060 2C4A     		ldr	r2, .L113+8
 1536 0062 0398     		ldr	r0, [sp, #12]
 1537 0064 9847     		blx	r3
 1538              	.LVL14:
 1539              		.loc 4 255 0
 1540 0066 079B     		ldr	r3, [sp, #28]
 1541 0068 1B68     		ldr	r3, [r3]
 1542 006a 0093     		str	r3, [sp]
 1543 006c 039B     		ldr	r3, [sp, #12]
 1544 006e 049A     		ldr	r2, [sp, #16]
 1545 0070 0599     		ldr	r1, [sp, #20]
 1546 0072 0698     		ldr	r0, [sp, #24]
 1547 0074 FFF7FEFF 		bl	discard_msgpack_element
 1548 0078 0346     		mov	r3, r0
 1549 007a 3CE0     		b	.L111
 1550              	.L108:
 1551              		.loc 4 257 0
 1552 007c 099B     		ldr	r3, [sp, #36]
 1553 007e 1846     		mov	r0, r3
 1554 0080 FFF7FEFF 		bl	malloc
 1555 0084 0346     		mov	r3, r0
 1556 0086 0A93     		str	r3, [sp, #40]
 1557              		.loc 4 258 0
 1558 0088 0A9B     		ldr	r3, [sp, #40]
 1559 008a 002B     		cmp	r3, #0
 1560 008c 10D1     		bne	.L109
 1561              		.loc 4 259 0
 1562 008e 079B     		ldr	r3, [sp, #28]
 1563 0090 1968     		ldr	r1, [r3]
 1564 0092 049B     		ldr	r3, [sp, #16]
 1565 0094 204A     		ldr	r2, .L113+12
 1566 0096 0398     		ldr	r0, [sp, #12]
ARM GAS  C:\Users\PCHAUT~1\AppData\Local\Temp\ccIm8FNl.s 			page 29


 1567 0098 9847     		blx	r3
 1568              	.LVL15:
 1569              		.loc 4 260 0
 1570 009a 079B     		ldr	r3, [sp, #28]
 1571 009c 1B68     		ldr	r3, [r3]
 1572 009e 0093     		str	r3, [sp]
 1573 00a0 039B     		ldr	r3, [sp, #12]
 1574 00a2 049A     		ldr	r2, [sp, #16]
 1575 00a4 0599     		ldr	r1, [sp, #20]
 1576 00a6 0698     		ldr	r0, [sp, #24]
 1577 00a8 FFF7FEFF 		bl	discard_msgpack_element
 1578 00ac 0346     		mov	r3, r0
 1579 00ae 22E0     		b	.L111
 1580              	.L109:
 1581              		.loc 4 262 0
 1582 00b0 059B     		ldr	r3, [sp, #20]
 1583 00b2 9B68     		ldr	r3, [r3, #8]
 1584 00b4 099A     		ldr	r2, [sp, #36]
 1585 00b6 0A99     		ldr	r1, [sp, #40]
 1586 00b8 0598     		ldr	r0, [sp, #20]
 1587 00ba 9847     		blx	r3
 1588              	.LVL16:
 1589 00bc 0346     		mov	r3, r0
 1590 00be 83F00103 		eor	r3, r3, #1
 1591 00c2 DBB2     		uxtb	r3, r3
 1592 00c4 002B     		cmp	r3, #0
 1593 00c6 0BD0     		beq	.L110
 1594              		.loc 4 263 0
 1595 00c8 079B     		ldr	r3, [sp, #28]
 1596 00ca 1968     		ldr	r1, [r3]
 1597 00cc 049B     		ldr	r3, [sp, #16]
 1598 00ce 134A     		ldr	r2, .L113+16
 1599 00d0 0398     		ldr	r0, [sp, #12]
 1600 00d2 9847     		blx	r3
 1601              	.LVL17:
 1602              		.loc 4 264 0
 1603 00d4 0A98     		ldr	r0, [sp, #40]
 1604 00d6 FFF7FEFF 		bl	free
 1605              		.loc 4 265 0
 1606 00da 4FF0FF33 		mov	r3, #-1
 1607 00de 0AE0     		b	.L111
 1608              	.L110:
 1609              		.loc 4 267 0
 1610 00e0 099B     		ldr	r3, [sp, #36]
 1611 00e2 9BB2     		uxth	r3, r3
 1612 00e4 1A46     		mov	r2, r3
 1613 00e6 0A99     		ldr	r1, [sp, #40]
 1614 00e8 0798     		ldr	r0, [sp, #28]
 1615 00ea FFF7FEFF 		bl	parameter_string_set_w_len
 1616              		.loc 4 268 0
 1617 00ee 0A98     		ldr	r0, [sp, #40]
 1618 00f0 FFF7FEFF 		bl	free
 1619              		.loc 4 269 0
 1620 00f4 0023     		movs	r3, #0
 1621              	.L111:
 1622              		.loc 4 270 0 discriminator 1
 1623 00f6 1846     		mov	r0, r3
ARM GAS  C:\Users\PCHAUT~1\AppData\Local\Temp\ccIm8FNl.s 			page 30


 1624 00f8 044B     		ldr	r3, .L113
 1625 00fa 0B9A     		ldr	r2, [sp, #44]
 1626 00fc 1B68     		ldr	r3, [r3]
 1627 00fe 9A42     		cmp	r2, r3
 1628 0100 01D0     		beq	.L112
 1629              		.loc 4 270 0 is_stmt 0
 1630 0102 FFF7FEFF 		bl	__stack_chk_fail
 1631              	.L112:
 1632 0106 0DB0     		add	sp, sp, #52
 1633              		.cfi_def_cfa_offset 4
 1634              		@ sp needed
 1635 0108 5DF804FB 		ldr	pc, [sp], #4
 1636              	.L114:
 1637              		.align	2
 1638              	.L113:
 1639 010c 00000000 		.word	__stack_chk_guard
 1640 0110 2C000000 		.word	.LC2
 1641 0114 A4000000 		.word	.LC6
 1642 0118 64000000 		.word	.LC4
 1643 011c C0000000 		.word	.LC7
 1644              		.cfi_endproc
 1645              	.LFE260:
 1646              		.size	read_parameter_string, .-read_parameter_string
 1647              		.section	.rodata
 1648 00cb 00       		.align	2
 1649              	.LC8:
 1650 00cc 544F444F 		.ascii	"TODO not implemented yet\000"
 1650      206E6F74 
 1650      20696D70 
 1650      6C656D65 
 1650      6E746564 
 1651              		.section	.text.read_parameter,"ax",%progbits
 1652              		.align	1
 1653              		.p2align 4,,15
 1654              		.syntax unified
 1655              		.thumb
 1656              		.thumb_func
 1657              		.fpu fpv4-sp-d16
 1658              		.type	read_parameter, %function
 1659              	read_parameter:
 1660              	.LFB261:
 1661              		.loc 4 277 0 is_stmt 1
 1662              		.cfi_startproc
 1663              		@ args = 4, pretend = 0, frame = 32
 1664              		@ frame_needed = 0, uses_anonymous_args = 0
 1665 0000 00B5     		push	{lr}
 1666              		.cfi_def_cfa_offset 4
 1667              		.cfi_offset 14, -4
 1668 0002 8BB0     		sub	sp, sp, #44
 1669              		.cfi_def_cfa_offset 48
 1670 0004 0790     		str	r0, [sp, #28]
 1671 0006 0691     		str	r1, [sp, #24]
 1672 0008 0592     		str	r2, [sp, #20]
 1673 000a 0493     		str	r3, [sp, #16]
 1674 000c 0C9B     		ldr	r3, [sp, #48]
 1675 000e 0393     		str	r3, [sp, #12]
 1676              		.loc 4 277 0
ARM GAS  C:\Users\PCHAUT~1\AppData\Local\Temp\ccIm8FNl.s 			page 31


 1677 0010 374B     		ldr	r3, .L126
 1678 0012 1B68     		ldr	r3, [r3]
 1679 0014 0993     		str	r3, [sp, #36]
 1680              		.loc 4 278 0
 1681 0016 079B     		ldr	r3, [sp, #28]
 1682 0018 9B7B     		ldrb	r3, [r3, #14]	@ zero_extendqisi2
 1683 001a 013B     		subs	r3, r3, #1
 1684 001c 052B     		cmp	r3, #5
 1685 001e 4BD8     		bhi	.L116
 1686 0020 01A2     		adr	r2, .L118
 1687 0022 52F823F0 		ldr	pc, [r2, r3, lsl #2]
 1688 0026 00BF     		.p2align 2
 1689              	.L118:
 1690 0028 41000000 		.word	.L117+1
 1691 002c 69000000 		.word	.L119+1
 1692 0030 55000000 		.word	.L120+1
 1693 0034 A5000000 		.word	.L121+1
 1694 0038 7D000000 		.word	.L122+1
 1695 003c 91000000 		.word	.L123+1
 1696              		.p2align 1
 1697              	.L117:
 1698              		.loc 4 280 0
 1699 0040 039B     		ldr	r3, [sp, #12]
 1700 0042 0093     		str	r3, [sp]
 1701 0044 049B     		ldr	r3, [sp, #16]
 1702 0046 059A     		ldr	r2, [sp, #20]
 1703 0048 0699     		ldr	r1, [sp, #24]
 1704 004a 0798     		ldr	r0, [sp, #28]
 1705 004c FFF7FEFF 		bl	read_parameter_scalar
 1706 0050 0346     		mov	r3, r0
 1707 0052 41E0     		b	.L124
 1708              	.L120:
 1709              		.loc 4 282 0
 1710 0054 039B     		ldr	r3, [sp, #12]
 1711 0056 0093     		str	r3, [sp]
 1712 0058 049B     		ldr	r3, [sp, #16]
 1713 005a 059A     		ldr	r2, [sp, #20]
 1714 005c 0699     		ldr	r1, [sp, #24]
 1715 005e 0798     		ldr	r0, [sp, #28]
 1716 0060 FFF7FEFF 		bl	read_parameter_integer
 1717 0064 0346     		mov	r3, r0
 1718 0066 37E0     		b	.L124
 1719              	.L119:
 1720              		.loc 4 284 0
 1721 0068 039B     		ldr	r3, [sp, #12]
 1722 006a 0093     		str	r3, [sp]
 1723 006c 049B     		ldr	r3, [sp, #16]
 1724 006e 059A     		ldr	r2, [sp, #20]
 1725 0070 0699     		ldr	r1, [sp, #24]
 1726 0072 0798     		ldr	r0, [sp, #28]
 1727 0074 FFF7FEFF 		bl	read_parameter_boolean
 1728 0078 0346     		mov	r3, r0
 1729 007a 2DE0     		b	.L124
 1730              	.L122:
 1731              		.loc 4 286 0
 1732 007c 039B     		ldr	r3, [sp, #12]
 1733 007e 0093     		str	r3, [sp]
ARM GAS  C:\Users\PCHAUT~1\AppData\Local\Temp\ccIm8FNl.s 			page 32


 1734 0080 049B     		ldr	r3, [sp, #16]
 1735 0082 059A     		ldr	r2, [sp, #20]
 1736 0084 0699     		ldr	r1, [sp, #24]
 1737 0086 0798     		ldr	r0, [sp, #28]
 1738 0088 FFF7FEFF 		bl	read_parameter_vector
 1739 008c 0346     		mov	r3, r0
 1740 008e 23E0     		b	.L124
 1741              	.L123:
 1742              		.loc 4 288 0
 1743 0090 039B     		ldr	r3, [sp, #12]
 1744 0092 0093     		str	r3, [sp]
 1745 0094 049B     		ldr	r3, [sp, #16]
 1746 0096 059A     		ldr	r2, [sp, #20]
 1747 0098 0699     		ldr	r1, [sp, #24]
 1748 009a 0798     		ldr	r0, [sp, #28]
 1749 009c FFF7FEFF 		bl	read_parameter_var_vector
 1750 00a0 0346     		mov	r3, r0
 1751 00a2 19E0     		b	.L124
 1752              	.L121:
 1753              		.loc 4 290 0
 1754 00a4 039B     		ldr	r3, [sp, #12]
 1755 00a6 0093     		str	r3, [sp]
 1756 00a8 049B     		ldr	r3, [sp, #16]
 1757 00aa 059A     		ldr	r2, [sp, #20]
 1758 00ac 0699     		ldr	r1, [sp, #24]
 1759 00ae 0798     		ldr	r0, [sp, #28]
 1760 00b0 FFF7FEFF 		bl	read_parameter_string
 1761 00b4 0346     		mov	r3, r0
 1762 00b6 0FE0     		b	.L124
 1763              	.L116:
 1764              		.loc 4 292 0
 1765 00b8 079B     		ldr	r3, [sp, #28]
 1766 00ba 1968     		ldr	r1, [r3]
 1767 00bc 049B     		ldr	r3, [sp, #16]
 1768 00be 0D4A     		ldr	r2, .L126+4
 1769 00c0 0398     		ldr	r0, [sp, #12]
 1770 00c2 9847     		blx	r3
 1771              	.LVL18:
 1772              		.loc 4 293 0
 1773 00c4 079B     		ldr	r3, [sp, #28]
 1774 00c6 1B68     		ldr	r3, [r3]
 1775 00c8 0093     		str	r3, [sp]
 1776 00ca 039B     		ldr	r3, [sp, #12]
 1777 00cc 049A     		ldr	r2, [sp, #16]
 1778 00ce 0599     		ldr	r1, [sp, #20]
 1779 00d0 0698     		ldr	r0, [sp, #24]
 1780 00d2 FFF7FEFF 		bl	discard_msgpack_element
 1781 00d6 0346     		mov	r3, r0
 1782              	.L124:
 1783              		.loc 4 295 0
 1784 00d8 1846     		mov	r0, r3
 1785 00da 054B     		ldr	r3, .L126
 1786 00dc 099A     		ldr	r2, [sp, #36]
 1787 00de 1B68     		ldr	r3, [r3]
 1788 00e0 9A42     		cmp	r2, r3
 1789 00e2 01D0     		beq	.L125
 1790 00e4 FFF7FEFF 		bl	__stack_chk_fail
ARM GAS  C:\Users\PCHAUT~1\AppData\Local\Temp\ccIm8FNl.s 			page 33


 1791              	.L125:
 1792 00e8 0BB0     		add	sp, sp, #44
 1793              		.cfi_def_cfa_offset 4
 1794              		@ sp needed
 1795 00ea 5DF804FB 		ldr	pc, [sp], #4
 1796              	.L127:
 1797 00ee 00BF     		.align	2
 1798              	.L126:
 1799 00f0 00000000 		.word	__stack_chk_guard
 1800 00f4 CC000000 		.word	.LC8
 1801              		.cfi_endproc
 1802              	.LFE261:
 1803              		.size	read_parameter, .-read_parameter
 1804              		.section	.rodata
 1805 00e5 000000   		.align	2
 1806              	.LC9:
 1807 00e8 636F756C 		.ascii	"could not read id\000"
 1807      64206E6F 
 1807      74207265 
 1807      61642069 
 1807      6400
 1808 00fa 0000     		.align	2
 1809              	.LC10:
 1810 00fc 616C6C6F 		.ascii	"allocation failed\000"
 1810      63617469 
 1810      6F6E2066 
 1810      61696C65 
 1810      6400
 1811 010e 0000     		.align	2
 1812              	.LC11:
 1813 0110 636F756C 		.ascii	"could not read value\000"
 1813      64206E6F 
 1813      74207265 
 1813      61642076 
 1813      616C7565 
 1814 0125 000000   		.align	2
 1815              	.LC12:
 1816 0128 7761726E 		.ascii	"warning: namespace doesn't exist\000"
 1816      696E673A 
 1816      206E616D 
 1816      65737061 
 1816      63652064 
 1817 0149 000000   		.align	2
 1818              	.LC13:
 1819 014c 7761726E 		.ascii	"warning: parameter doesn't exist\000"
 1819      696E673A 
 1819      20706172 
 1819      616D6574 
 1819      65722064 
 1820              		.section	.text.read_namespace,"ax",%progbits
 1821              		.align	1
 1822              		.p2align 4,,15
 1823              		.syntax unified
 1824              		.thumb
 1825              		.thumb_func
 1826              		.fpu fpv4-sp-d16
 1827              		.type	read_namespace, %function
ARM GAS  C:\Users\PCHAUT~1\AppData\Local\Temp\ccIm8FNl.s 			page 34


 1828              	read_namespace:
 1829              	.LFB262:
 1830              		.loc 4 303 0
 1831              		.cfi_startproc
 1832              		@ args = 4, pretend = 0, frame = 88
 1833              		@ frame_needed = 0, uses_anonymous_args = 0
 1834 0000 00B5     		push	{lr}
 1835              		.cfi_def_cfa_offset 4
 1836              		.cfi_offset 14, -4
 1837 0002 99B0     		sub	sp, sp, #100
 1838              		.cfi_def_cfa_offset 104
 1839 0004 0790     		str	r0, [sp, #28]
 1840 0006 0691     		str	r1, [sp, #24]
 1841 0008 0592     		str	r2, [sp, #20]
 1842 000a 0493     		str	r3, [sp, #16]
 1843 000c 1A9B     		ldr	r3, [sp, #104]
 1844 000e 0393     		str	r3, [sp, #12]
 1845              		.loc 4 303 0
 1846 0010 6F4B     		ldr	r3, .L147
 1847 0012 1B68     		ldr	r3, [r3]
 1848 0014 1793     		str	r3, [sp, #92]
 1849              		.loc 4 305 0
 1850 0016 0023     		movs	r3, #0
 1851 0018 0A93     		str	r3, [sp, #40]
 1852 001a C8E0     		b	.L129
 1853              	.L145:
 1854              	.LBB23:
 1855              		.loc 4 307 0
 1856 001c 08AB     		add	r3, sp, #32
 1857 001e 1946     		mov	r1, r3
 1858 0020 0598     		ldr	r0, [sp, #20]
 1859 0022 FFF7FEFF 		bl	cmp_read_str_size
 1860 0026 0346     		mov	r3, r0
 1861 0028 83F00103 		eor	r3, r3, #1
 1862 002c DBB2     		uxtb	r3, r3
 1863 002e 002B     		cmp	r3, #0
 1864 0030 07D0     		beq	.L130
 1865              		.loc 4 308 0
 1866 0032 049B     		ldr	r3, [sp, #16]
 1867 0034 674A     		ldr	r2, .L147+4
 1868 0036 0021     		movs	r1, #0
 1869 0038 0398     		ldr	r0, [sp, #12]
 1870 003a 9847     		blx	r3
 1871              	.LVL19:
 1872              		.loc 4 309 0
 1873 003c 4FF0FF33 		mov	r3, #-1
 1874 0040 BBE0     		b	.L144
 1875              	.L130:
 1876              		.loc 4 311 0
 1877 0042 089B     		ldr	r3, [sp, #32]
 1878 0044 0133     		adds	r3, r3, #1
 1879 0046 1846     		mov	r0, r3
 1880 0048 FFF7FEFF 		bl	malloc
 1881 004c 0346     		mov	r3, r0
 1882 004e 0B93     		str	r3, [sp, #44]
 1883              		.loc 4 312 0
 1884 0050 0B9B     		ldr	r3, [sp, #44]
ARM GAS  C:\Users\PCHAUT~1\AppData\Local\Temp\ccIm8FNl.s 			page 35


 1885 0052 002B     		cmp	r3, #0
 1886 0054 07D1     		bne	.L132
 1887              		.loc 4 313 0
 1888 0056 049B     		ldr	r3, [sp, #16]
 1889 0058 5F4A     		ldr	r2, .L147+8
 1890 005a 0021     		movs	r1, #0
 1891 005c 0398     		ldr	r0, [sp, #12]
 1892 005e 9847     		blx	r3
 1893              	.LVL20:
 1894              		.loc 4 314 0
 1895 0060 4FF0FF33 		mov	r3, #-1
 1896 0064 A9E0     		b	.L144
 1897              	.L132:
 1898              		.loc 4 317 0
 1899 0066 059B     		ldr	r3, [sp, #20]
 1900 0068 9B68     		ldr	r3, [r3, #8]
 1901 006a 089A     		ldr	r2, [sp, #32]
 1902 006c 0B99     		ldr	r1, [sp, #44]
 1903 006e 0598     		ldr	r0, [sp, #20]
 1904 0070 9847     		blx	r3
 1905              	.LVL21:
 1906 0072 0346     		mov	r3, r0
 1907 0074 83F00103 		eor	r3, r3, #1
 1908 0078 DBB2     		uxtb	r3, r3
 1909 007a 002B     		cmp	r3, #0
 1910 007c 0AD0     		beq	.L133
 1911              		.loc 4 318 0
 1912 007e 049B     		ldr	r3, [sp, #16]
 1913 0080 544A     		ldr	r2, .L147+4
 1914 0082 0021     		movs	r1, #0
 1915 0084 0398     		ldr	r0, [sp, #12]
 1916 0086 9847     		blx	r3
 1917              	.LVL22:
 1918              		.loc 4 319 0
 1919 0088 0B98     		ldr	r0, [sp, #44]
 1920 008a FFF7FEFF 		bl	free
 1921              		.loc 4 320 0
 1922 008e 4FF0FF33 		mov	r3, #-1
 1923 0092 92E0     		b	.L144
 1924              	.L133:
 1925              		.loc 4 322 0
 1926 0094 089B     		ldr	r3, [sp, #32]
 1927 0096 0B9A     		ldr	r2, [sp, #44]
 1928 0098 1344     		add	r3, r3, r2
 1929 009a 0022     		movs	r2, #0
 1930 009c 1A70     		strb	r2, [r3]
 1931              		.loc 4 324 0
 1932 009e 12AB     		add	r3, sp, #72
 1933 00a0 1946     		mov	r1, r3
 1934 00a2 0598     		ldr	r0, [sp, #20]
 1935 00a4 FFF7FEFF 		bl	cmp_read_object
 1936 00a8 0346     		mov	r3, r0
 1937 00aa 83F00103 		eor	r3, r3, #1
 1938 00ae DBB2     		uxtb	r3, r3
 1939 00b0 002B     		cmp	r3, #0
 1940 00b2 0AD0     		beq	.L134
 1941              		.loc 4 325 0
ARM GAS  C:\Users\PCHAUT~1\AppData\Local\Temp\ccIm8FNl.s 			page 36


 1942 00b4 049B     		ldr	r3, [sp, #16]
 1943 00b6 494A     		ldr	r2, .L147+12
 1944 00b8 0B99     		ldr	r1, [sp, #44]
 1945 00ba 0398     		ldr	r0, [sp, #12]
 1946 00bc 9847     		blx	r3
 1947              	.LVL23:
 1948              		.loc 4 326 0
 1949 00be 0B98     		ldr	r0, [sp, #44]
 1950 00c0 FFF7FEFF 		bl	free
 1951              		.loc 4 327 0
 1952 00c4 4FF0FF33 		mov	r3, #-1
 1953 00c8 77E0     		b	.L144
 1954              	.L134:
 1955              		.loc 4 329 0
 1956 00ca 12AB     		add	r3, sp, #72
 1957 00cc 1846     		mov	r0, r3
 1958 00ce FFF7FEFF 		bl	cmp_object_is_map
 1959 00d2 0346     		mov	r3, r0
 1960 00d4 002B     		cmp	r3, #0
 1961 00d6 36D0     		beq	.L135
 1962              	.LBB24:
 1963              		.loc 4 330 0
 1964 00d8 089B     		ldr	r3, [sp, #32]
 1965 00da 1A46     		mov	r2, r3
 1966 00dc 0B99     		ldr	r1, [sp, #44]
 1967 00de 0798     		ldr	r0, [sp, #28]
 1968 00e0 FFF7FEFF 		bl	_parameter_namespace_find_w_id_len
 1969 00e4 0F90     		str	r0, [sp, #60]
 1970              		.loc 4 331 0
 1971 00e6 0F9B     		ldr	r3, [sp, #60]
 1972 00e8 002B     		cmp	r3, #0
 1973 00ea 04D1     		bne	.L136
 1974              		.loc 4 332 0
 1975 00ec 049B     		ldr	r3, [sp, #16]
 1976 00ee 3C4A     		ldr	r2, .L147+16
 1977 00f0 0B99     		ldr	r1, [sp, #44]
 1978 00f2 0398     		ldr	r0, [sp, #12]
 1979 00f4 9847     		blx	r3
 1980              	.LVL24:
 1981              	.L136:
 1982              		.loc 4 334 0
 1983 00f6 0B98     		ldr	r0, [sp, #44]
 1984 00f8 FFF7FEFF 		bl	free
 1985              		.loc 4 335 0
 1986 00fc 0F9B     		ldr	r3, [sp, #60]
 1987 00fe 002B     		cmp	r3, #0
 1988 0100 13D0     		beq	.L137
 1989              	.LBB25:
 1990              		.loc 4 337 0
 1991 0102 09AA     		add	r2, sp, #36
 1992 0104 12AB     		add	r3, sp, #72
 1993 0106 1146     		mov	r1, r2
 1994 0108 1846     		mov	r0, r3
 1995 010a FFF7FEFF 		bl	cmp_object_as_map
 1996              		.loc 4 338 0
 1997 010e 0999     		ldr	r1, [sp, #36]
 1998 0110 039B     		ldr	r3, [sp, #12]
ARM GAS  C:\Users\PCHAUT~1\AppData\Local\Temp\ccIm8FNl.s 			page 37


 1999 0112 0093     		str	r3, [sp]
 2000 0114 049B     		ldr	r3, [sp, #16]
 2001 0116 059A     		ldr	r2, [sp, #20]
 2002 0118 0F98     		ldr	r0, [sp, #60]
 2003 011a FFF771FF 		bl	read_namespace
 2004 011e 1190     		str	r0, [sp, #68]
 2005              		.loc 4 339 0
 2006 0120 119B     		ldr	r3, [sp, #68]
 2007 0122 002B     		cmp	r3, #0
 2008 0124 40D0     		beq	.L140
 2009              		.loc 4 340 0
 2010 0126 119B     		ldr	r3, [sp, #68]
 2011              	.LBE25:
 2012              	.LBE24:
 2013              		.loc 4 309 0
 2014 0128 47E0     		b	.L144
 2015              	.L137:
 2016              	.LBB27:
 2017              	.LBB26:
 2018              		.loc 4 343 0
 2019 012a 12A8     		add	r0, sp, #72
 2020 012c 0023     		movs	r3, #0
 2021 012e 0093     		str	r3, [sp]
 2022 0130 039B     		ldr	r3, [sp, #12]
 2023 0132 049A     		ldr	r2, [sp, #16]
 2024 0134 0599     		ldr	r1, [sp, #20]
 2025 0136 FFF7FEFF 		bl	discard_msgpack_element
 2026 013a 1090     		str	r0, [sp, #64]
 2027              		.loc 4 344 0
 2028 013c 109B     		ldr	r3, [sp, #64]
 2029 013e 002B     		cmp	r3, #0
 2030 0140 32D0     		beq	.L140
 2031              		.loc 4 345 0
 2032 0142 109B     		ldr	r3, [sp, #64]
 2033 0144 39E0     		b	.L144
 2034              	.L135:
 2035              	.LBE26:
 2036              	.LBE27:
 2037              	.LBB28:
 2038              		.loc 4 349 0
 2039 0146 089B     		ldr	r3, [sp, #32]
 2040 0148 1A46     		mov	r2, r3
 2041 014a 0B99     		ldr	r1, [sp, #44]
 2042 014c 0798     		ldr	r0, [sp, #28]
 2043 014e FFF7FEFF 		bl	_parameter_find_w_id_len
 2044 0152 0C90     		str	r0, [sp, #48]
 2045              		.loc 4 350 0
 2046 0154 0C9B     		ldr	r3, [sp, #48]
 2047 0156 002B     		cmp	r3, #0
 2048 0158 04D1     		bne	.L141
 2049              		.loc 4 351 0
 2050 015a 049B     		ldr	r3, [sp, #16]
 2051 015c 214A     		ldr	r2, .L147+20
 2052 015e 0B99     		ldr	r1, [sp, #44]
 2053 0160 0398     		ldr	r0, [sp, #12]
 2054 0162 9847     		blx	r3
 2055              	.LVL25:
ARM GAS  C:\Users\PCHAUT~1\AppData\Local\Temp\ccIm8FNl.s 			page 38


 2056              	.L141:
 2057              		.loc 4 353 0
 2058 0164 0B98     		ldr	r0, [sp, #44]
 2059 0166 FFF7FEFF 		bl	free
 2060              		.loc 4 354 0
 2061 016a 0C9B     		ldr	r3, [sp, #48]
 2062 016c 002B     		cmp	r3, #0
 2063 016e 0DD0     		beq	.L142
 2064              	.LBB29:
 2065              		.loc 4 355 0
 2066 0170 12A9     		add	r1, sp, #72
 2067 0172 039B     		ldr	r3, [sp, #12]
 2068 0174 0093     		str	r3, [sp]
 2069 0176 049B     		ldr	r3, [sp, #16]
 2070 0178 059A     		ldr	r2, [sp, #20]
 2071 017a 0C98     		ldr	r0, [sp, #48]
 2072 017c FFF7FEFF 		bl	read_parameter
 2073 0180 0E90     		str	r0, [sp, #56]
 2074              		.loc 4 356 0
 2075 0182 0E9B     		ldr	r3, [sp, #56]
 2076 0184 002B     		cmp	r3, #0
 2077 0186 0FD0     		beq	.L140
 2078              		.loc 4 357 0
 2079 0188 0E9B     		ldr	r3, [sp, #56]
 2080 018a 16E0     		b	.L144
 2081              	.L142:
 2082              	.LBE29:
 2083              	.LBB30:
 2084              		.loc 4 360 0
 2085 018c 12A8     		add	r0, sp, #72
 2086 018e 0023     		movs	r3, #0
 2087 0190 0093     		str	r3, [sp]
 2088 0192 039B     		ldr	r3, [sp, #12]
 2089 0194 049A     		ldr	r2, [sp, #16]
 2090 0196 0599     		ldr	r1, [sp, #20]
 2091 0198 FFF7FEFF 		bl	discard_msgpack_element
 2092 019c 0D90     		str	r0, [sp, #52]
 2093              		.loc 4 361 0
 2094 019e 0D9B     		ldr	r3, [sp, #52]
 2095 01a0 002B     		cmp	r3, #0
 2096 01a2 01D0     		beq	.L140
 2097              		.loc 4 362 0
 2098 01a4 0D9B     		ldr	r3, [sp, #52]
 2099 01a6 08E0     		b	.L144
 2100              	.L140:
 2101              	.LBE30:
 2102              	.LBE28:
 2103              	.LBE23:
 2104              		.loc 4 305 0 discriminator 2
 2105 01a8 0A9B     		ldr	r3, [sp, #40]
 2106 01aa 0133     		adds	r3, r3, #1
 2107 01ac 0A93     		str	r3, [sp, #40]
 2108              	.L129:
 2109              		.loc 4 305 0 is_stmt 0 discriminator 1
 2110 01ae 0A9A     		ldr	r2, [sp, #40]
 2111 01b0 069B     		ldr	r3, [sp, #24]
 2112 01b2 9A42     		cmp	r2, r3
ARM GAS  C:\Users\PCHAUT~1\AppData\Local\Temp\ccIm8FNl.s 			page 39


 2113 01b4 FFF432AF 		bcc	.L145
 2114              		.loc 4 367 0 is_stmt 1
 2115 01b8 0023     		movs	r3, #0
 2116              	.L144:
 2117              		.loc 4 368 0
 2118 01ba 1846     		mov	r0, r3
 2119 01bc 044B     		ldr	r3, .L147
 2120 01be 179A     		ldr	r2, [sp, #92]
 2121 01c0 1B68     		ldr	r3, [r3]
 2122 01c2 9A42     		cmp	r2, r3
 2123 01c4 01D0     		beq	.L146
 2124 01c6 FFF7FEFF 		bl	__stack_chk_fail
 2125              	.L146:
 2126 01ca 19B0     		add	sp, sp, #100
 2127              		.cfi_def_cfa_offset 4
 2128              		@ sp needed
 2129 01cc 5DF804FB 		ldr	pc, [sp], #4
 2130              	.L148:
 2131              		.align	2
 2132              	.L147:
 2133 01d0 00000000 		.word	__stack_chk_guard
 2134 01d4 E8000000 		.word	.LC9
 2135 01d8 FC000000 		.word	.LC10
 2136 01dc 10010000 		.word	.LC11
 2137 01e0 28010000 		.word	.LC12
 2138 01e4 4C010000 		.word	.LC13
 2139              		.cfi_endproc
 2140              	.LFE262:
 2141              		.size	read_namespace, .-read_namespace
 2142              		.section	.text.err_ignore_cb,"ax",%progbits
 2143              		.align	1
 2144              		.p2align 4,,15
 2145              		.syntax unified
 2146              		.thumb
 2147              		.thumb_func
 2148              		.fpu fpv4-sp-d16
 2149              		.type	err_ignore_cb, %function
 2150              	err_ignore_cb:
 2151              	.LFB263:
 2152              		.loc 4 372 0
 2153              		.cfi_startproc
 2154              		@ args = 0, pretend = 0, frame = 24
 2155              		@ frame_needed = 0, uses_anonymous_args = 0
 2156 0000 00B5     		push	{lr}
 2157              		.cfi_def_cfa_offset 4
 2158              		.cfi_offset 14, -4
 2159 0002 87B0     		sub	sp, sp, #28
 2160              		.cfi_def_cfa_offset 32
 2161 0004 0390     		str	r0, [sp, #12]
 2162 0006 0291     		str	r1, [sp, #8]
 2163 0008 0192     		str	r2, [sp, #4]
 2164              		.loc 4 372 0
 2165 000a 074B     		ldr	r3, .L151
 2166 000c 1B68     		ldr	r3, [r3]
 2167 000e 0593     		str	r3, [sp, #20]
 2168              		.loc 4 376 0
 2169 0010 00BF     		nop
ARM GAS  C:\Users\PCHAUT~1\AppData\Local\Temp\ccIm8FNl.s 			page 40


 2170 0012 054B     		ldr	r3, .L151
 2171 0014 059A     		ldr	r2, [sp, #20]
 2172 0016 1B68     		ldr	r3, [r3]
 2173 0018 9A42     		cmp	r2, r3
 2174 001a 01D0     		beq	.L150
 2175 001c FFF7FEFF 		bl	__stack_chk_fail
 2176              	.L150:
 2177 0020 07B0     		add	sp, sp, #28
 2178              		.cfi_def_cfa_offset 4
 2179              		@ sp needed
 2180 0022 5DF804FB 		ldr	pc, [sp], #4
 2181              	.L152:
 2182 0026 00BF     		.align	2
 2183              	.L151:
 2184 0028 00000000 		.word	__stack_chk_guard
 2185              		.cfi_endproc
 2186              	.LFE263:
 2187              		.size	err_ignore_cb, .-err_ignore_cb
 2188              		.section	.rodata
 2189 016d 000000   		.align	2
 2190              	.LC14:
 2191 0170 636F756C 		.ascii	"could not read namespace map\000"
 2191      64206E6F 
 2191      74207265 
 2191      6164206E 
 2191      616D6573 
 2192              		.section	.text.parameter_msgpack_read_cmp,"ax",%progbits
 2193              		.align	1
 2194              		.p2align 4,,15
 2195              		.global	parameter_msgpack_read_cmp
 2196              		.syntax unified
 2197              		.thumb
 2198              		.thumb_func
 2199              		.fpu fpv4-sp-d16
 2200              		.type	parameter_msgpack_read_cmp, %function
 2201              	parameter_msgpack_read_cmp:
 2202              	.LFB264:
 2203              		.loc 4 383 0
 2204              		.cfi_startproc
 2205              		@ args = 0, pretend = 0, frame = 24
 2206              		@ frame_needed = 0, uses_anonymous_args = 0
 2207 0000 00B5     		push	{lr}
 2208              		.cfi_def_cfa_offset 4
 2209              		.cfi_offset 14, -4
 2210 0002 89B0     		sub	sp, sp, #36
 2211              		.cfi_def_cfa_offset 40
 2212 0004 0590     		str	r0, [sp, #20]
 2213 0006 0491     		str	r1, [sp, #16]
 2214 0008 0392     		str	r2, [sp, #12]
 2215 000a 0293     		str	r3, [sp, #8]
 2216              		.loc 4 383 0
 2217 000c 174B     		ldr	r3, .L159
 2218 000e 1B68     		ldr	r3, [r3]
 2219 0010 0793     		str	r3, [sp, #28]
 2220              		.loc 4 384 0
 2221 0012 039B     		ldr	r3, [sp, #12]
 2222 0014 002B     		cmp	r3, #0
ARM GAS  C:\Users\PCHAUT~1\AppData\Local\Temp\ccIm8FNl.s 			page 41


 2223 0016 01D1     		bne	.L154
 2224              		.loc 4 385 0
 2225 0018 154B     		ldr	r3, .L159+4
 2226 001a 0393     		str	r3, [sp, #12]
 2227              	.L154:
 2228              		.loc 4 388 0
 2229 001c 06AB     		add	r3, sp, #24
 2230 001e 1946     		mov	r1, r3
 2231 0020 0498     		ldr	r0, [sp, #16]
 2232 0022 FFF7FEFF 		bl	cmp_read_map
 2233 0026 0346     		mov	r3, r0
 2234 0028 83F00103 		eor	r3, r3, #1
 2235 002c DBB2     		uxtb	r3, r3
 2236 002e 002B     		cmp	r3, #0
 2237 0030 07D0     		beq	.L155
 2238              		.loc 4 389 0
 2239 0032 039B     		ldr	r3, [sp, #12]
 2240 0034 0F4A     		ldr	r2, .L159+8
 2241 0036 0021     		movs	r1, #0
 2242 0038 0298     		ldr	r0, [sp, #8]
 2243 003a 9847     		blx	r3
 2244              	.LVL26:
 2245              		.loc 4 390 0
 2246 003c 4FF0FF33 		mov	r3, #-1
 2247 0040 08E0     		b	.L157
 2248              	.L155:
 2249              		.loc 4 392 0
 2250 0042 0699     		ldr	r1, [sp, #24]
 2251 0044 029B     		ldr	r3, [sp, #8]
 2252 0046 0093     		str	r3, [sp]
 2253 0048 039B     		ldr	r3, [sp, #12]
 2254 004a 049A     		ldr	r2, [sp, #16]
 2255 004c 0598     		ldr	r0, [sp, #20]
 2256 004e FFF7FEFF 		bl	read_namespace
 2257 0052 0346     		mov	r3, r0
 2258              	.L157:
 2259              		.loc 4 393 0 discriminator 1
 2260 0054 1846     		mov	r0, r3
 2261 0056 054B     		ldr	r3, .L159
 2262 0058 079A     		ldr	r2, [sp, #28]
 2263 005a 1B68     		ldr	r3, [r3]
 2264 005c 9A42     		cmp	r2, r3
 2265 005e 01D0     		beq	.L158
 2266              		.loc 4 393 0 is_stmt 0
 2267 0060 FFF7FEFF 		bl	__stack_chk_fail
 2268              	.L158:
 2269 0064 09B0     		add	sp, sp, #36
 2270              		.cfi_def_cfa_offset 4
 2271              		@ sp needed
 2272 0066 5DF804FB 		ldr	pc, [sp], #4
 2273              	.L160:
 2274 006a 00BF     		.align	2
 2275              	.L159:
 2276 006c 00000000 		.word	__stack_chk_guard
 2277 0070 00000000 		.word	err_ignore_cb
 2278 0074 70010000 		.word	.LC14
 2279              		.cfi_endproc
ARM GAS  C:\Users\PCHAUT~1\AppData\Local\Temp\ccIm8FNl.s 			page 42


 2280              	.LFE264:
 2281              		.size	parameter_msgpack_read_cmp, .-parameter_msgpack_read_cmp
 2282              		.section	.text.parameter_msgpack_read,"ax",%progbits
 2283              		.align	1
 2284              		.p2align 4,,15
 2285              		.global	parameter_msgpack_read
 2286              		.syntax unified
 2287              		.thumb
 2288              		.thumb_func
 2289              		.fpu fpv4-sp-d16
 2290              		.type	parameter_msgpack_read, %function
 2291              	parameter_msgpack_read:
 2292              	.LFB265:
 2293              		.loc 4 401 0 is_stmt 1
 2294              		.cfi_startproc
 2295              		@ args = 4, pretend = 0, frame = 56
 2296              		@ frame_needed = 0, uses_anonymous_args = 0
 2297 0000 00B5     		push	{lr}
 2298              		.cfi_def_cfa_offset 4
 2299              		.cfi_offset 14, -4
 2300 0002 8FB0     		sub	sp, sp, #60
 2301              		.cfi_def_cfa_offset 64
 2302 0004 0590     		str	r0, [sp, #20]
 2303 0006 0491     		str	r1, [sp, #16]
 2304 0008 0392     		str	r2, [sp, #12]
 2305 000a 0293     		str	r3, [sp, #8]
 2306 000c 109B     		ldr	r3, [sp, #64]
 2307 000e 0193     		str	r3, [sp, #4]
 2308              		.loc 4 401 0
 2309 0010 0D4B     		ldr	r3, .L164
 2310 0012 1B68     		ldr	r3, [r3]
 2311 0014 0D93     		str	r3, [sp, #52]
 2312              		.loc 4 404 0
 2313 0016 06A9     		add	r1, sp, #24
 2314 0018 09A8     		add	r0, sp, #36
 2315 001a 039B     		ldr	r3, [sp, #12]
 2316 001c 049A     		ldr	r2, [sp, #16]
 2317 001e FFF7FEFF 		bl	cmp_mem_access_ro_init
 2318              		.loc 4 405 0
 2319 0022 09A9     		add	r1, sp, #36
 2320 0024 019B     		ldr	r3, [sp, #4]
 2321 0026 029A     		ldr	r2, [sp, #8]
 2322 0028 0598     		ldr	r0, [sp, #20]
 2323 002a FFF7FEFF 		bl	parameter_msgpack_read_cmp
 2324 002e 0346     		mov	r3, r0
 2325              		.loc 4 406 0
 2326 0030 1846     		mov	r0, r3
 2327 0032 054B     		ldr	r3, .L164
 2328 0034 0D9A     		ldr	r2, [sp, #52]
 2329 0036 1B68     		ldr	r3, [r3]
 2330 0038 9A42     		cmp	r2, r3
 2331 003a 01D0     		beq	.L163
 2332 003c FFF7FEFF 		bl	__stack_chk_fail
 2333              	.L163:
 2334 0040 0FB0     		add	sp, sp, #60
 2335              		.cfi_def_cfa_offset 4
 2336              		@ sp needed
ARM GAS  C:\Users\PCHAUT~1\AppData\Local\Temp\ccIm8FNl.s 			page 43


 2337 0042 5DF804FB 		ldr	pc, [sp], #4
 2338              	.L165:
 2339 0046 00BF     		.align	2
 2340              	.L164:
 2341 0048 00000000 		.word	__stack_chk_guard
 2342              		.cfi_endproc
 2343              	.LFE265:
 2344              		.size	parameter_msgpack_read, .-parameter_msgpack_read
 2345              		.section	.rodata
 2346 018d 000000   		.align	2
 2347              	.LC15:
 2348 0190 756E7375 		.ascii	"unsupported type for saving\000"
 2348      70706F72 
 2348      74656420 
 2348      74797065 
 2348      20666F72 
 2349              		.align	2
 2350              	.LC16:
 2351 01ac 636D705F 		.ascii	"cmp_write failed\000"
 2351      77726974 
 2351      65206661 
 2351      696C6564 
 2351      00
 2352              		.section	.text.parameter_msgpack_write_subtree,"ax",%progbits
 2353              		.align	1
 2354              		.p2align 4,,15
 2355              		.syntax unified
 2356              		.thumb
 2357              		.thumb_func
 2358              		.fpu fpv4-sp-d16
 2359              		.type	parameter_msgpack_write_subtree, %function
 2360              	parameter_msgpack_write_subtree:
 2361              	.LFB266:
 2362              		.loc 4 413 0
 2363              		.cfi_startproc
 2364              		@ args = 0, pretend = 0, frame = 40
 2365              		@ frame_needed = 0, uses_anonymous_args = 0
 2366 0000 10B5     		push	{r4, lr}
 2367              		.cfi_def_cfa_offset 8
 2368              		.cfi_offset 4, -8
 2369              		.cfi_offset 14, -4
 2370 0002 8AB0     		sub	sp, sp, #40
 2371              		.cfi_def_cfa_offset 48
 2372 0004 0390     		str	r0, [sp, #12]
 2373 0006 0291     		str	r1, [sp, #8]
 2374 0008 0192     		str	r2, [sp, #4]
 2375 000a 0093     		str	r3, [sp]
 2376              		.loc 4 413 0
 2377 000c B04B     		ldr	r3, .L190
 2378 000e 1B68     		ldr	r3, [r3]
 2379 0010 0993     		str	r3, [sp, #36]
 2380              		.loc 4 414 0
 2381 0012 0023     		movs	r3, #0
 2382 0014 0593     		str	r3, [sp, #20]
 2383              		.loc 4 421 0
 2384 0016 039B     		ldr	r3, [sp, #12]
 2385 0018 DB68     		ldr	r3, [r3, #12]
ARM GAS  C:\Users\PCHAUT~1\AppData\Local\Temp\ccIm8FNl.s 			page 44


 2386 001a 0793     		str	r3, [sp, #28]
 2387 001c 05E0     		b	.L167
 2388              	.L168:
 2389              		.loc 4 422 0 discriminator 3
 2390 001e 059B     		ldr	r3, [sp, #20]
 2391 0020 0133     		adds	r3, r3, #1
 2392 0022 0593     		str	r3, [sp, #20]
 2393              		.loc 4 421 0 discriminator 3
 2394 0024 079B     		ldr	r3, [sp, #28]
 2395 0026 1B69     		ldr	r3, [r3, #16]
 2396 0028 0793     		str	r3, [sp, #28]
 2397              	.L167:
 2398              		.loc 4 421 0 is_stmt 0 discriminator 1
 2399 002a 079B     		ldr	r3, [sp, #28]
 2400 002c 002B     		cmp	r3, #0
 2401 002e F6D1     		bne	.L168
 2402              		.loc 4 425 0 is_stmt 1
 2403 0030 039B     		ldr	r3, [sp, #12]
 2404 0032 5B69     		ldr	r3, [r3, #20]
 2405 0034 0893     		str	r3, [sp, #32]
 2406 0036 09E0     		b	.L169
 2407              	.L171:
 2408              		.loc 4 426 0
 2409 0038 089B     		ldr	r3, [sp, #32]
 2410 003a 5B7B     		ldrb	r3, [r3, #13]	@ zero_extendqisi2
 2411 003c 002B     		cmp	r3, #0
 2412 003e 02D0     		beq	.L170
 2413              		.loc 4 427 0
 2414 0040 059B     		ldr	r3, [sp, #20]
 2415 0042 0133     		adds	r3, r3, #1
 2416 0044 0593     		str	r3, [sp, #20]
 2417              	.L170:
 2418              		.loc 4 425 0 discriminator 2
 2419 0046 089B     		ldr	r3, [sp, #32]
 2420 0048 9B68     		ldr	r3, [r3, #8]
 2421 004a 0893     		str	r3, [sp, #32]
 2422              	.L169:
 2423              		.loc 4 425 0 is_stmt 0 discriminator 1
 2424 004c 089B     		ldr	r3, [sp, #32]
 2425 004e 002B     		cmp	r3, #0
 2426 0050 F2D1     		bne	.L171
 2427              		.loc 4 431 0 is_stmt 1
 2428 0052 0599     		ldr	r1, [sp, #20]
 2429 0054 0298     		ldr	r0, [sp, #8]
 2430 0056 FFF7FEFF 		bl	cmp_write_map
 2431              		.loc 4 434 0
 2432 005a 039B     		ldr	r3, [sp, #12]
 2433 005c DB68     		ldr	r3, [r3, #12]
 2434 005e 0793     		str	r3, [sp, #28]
 2435 0060 15E0     		b	.L172
 2436              	.L173:
 2437              		.loc 4 435 0 discriminator 3
 2438 0062 079B     		ldr	r3, [sp, #28]
 2439 0064 1C68     		ldr	r4, [r3]
 2440 0066 079B     		ldr	r3, [sp, #28]
 2441 0068 1B68     		ldr	r3, [r3]
 2442 006a 1846     		mov	r0, r3
ARM GAS  C:\Users\PCHAUT~1\AppData\Local\Temp\ccIm8FNl.s 			page 45


 2443 006c FFF7FEFF 		bl	strlen
 2444 0070 0346     		mov	r3, r0
 2445 0072 1A46     		mov	r2, r3
 2446 0074 2146     		mov	r1, r4
 2447 0076 0298     		ldr	r0, [sp, #8]
 2448 0078 FFF7FEFF 		bl	cmp_write_str
 2449              		.loc 4 436 0 discriminator 3
 2450 007c 009B     		ldr	r3, [sp]
 2451 007e 019A     		ldr	r2, [sp, #4]
 2452 0080 0299     		ldr	r1, [sp, #8]
 2453 0082 0798     		ldr	r0, [sp, #28]
 2454 0084 FFF7BCFF 		bl	parameter_msgpack_write_subtree
 2455              		.loc 4 434 0 discriminator 3
 2456 0088 079B     		ldr	r3, [sp, #28]
 2457 008a 1B69     		ldr	r3, [r3, #16]
 2458 008c 0793     		str	r3, [sp, #28]
 2459              	.L172:
 2460              		.loc 4 434 0 is_stmt 0 discriminator 1
 2461 008e 079B     		ldr	r3, [sp, #28]
 2462 0090 002B     		cmp	r3, #0
 2463 0092 E6D1     		bne	.L173
 2464              		.loc 4 440 0 is_stmt 1
 2465 0094 039B     		ldr	r3, [sp, #12]
 2466 0096 5B69     		ldr	r3, [r3, #20]
 2467 0098 0893     		str	r3, [sp, #32]
 2468 009a 34E1     		b	.L174
 2469              	.L187:
 2470              		.loc 4 441 0
 2471 009c 0123     		movs	r3, #1
 2472 009e 8DF81330 		strb	r3, [sp, #19]
 2473              		.loc 4 443 0
 2474 00a2 089B     		ldr	r3, [sp, #32]
 2475 00a4 5B7B     		ldrb	r3, [r3, #13]	@ zero_extendqisi2
 2476 00a6 83F00103 		eor	r3, r3, #1
 2477 00aa DBB2     		uxtb	r3, r3
 2478 00ac 002B     		cmp	r3, #0
 2479 00ae 40F02681 		bne	.L189
 2480              		.loc 4 447 0
 2481 00b2 089B     		ldr	r3, [sp, #32]
 2482 00b4 9B7B     		ldrb	r3, [r3, #14]	@ zero_extendqisi2
 2483 00b6 013B     		subs	r3, r3, #1
 2484 00b8 052B     		cmp	r3, #5
 2485 00ba 00F20B81 		bhi	.L177
 2486 00be 01A2     		adr	r2, .L179
 2487 00c0 52F823F0 		ldr	pc, [r2, r3, lsl #2]
 2488              		.p2align 2
 2489              	.L179:
 2490 00c4 DD000000 		.word	.L178+1
 2491 00c8 89010000 		.word	.L180+1
 2492 00cc 35010000 		.word	.L181+1
 2493 00d0 DD010000 		.word	.L182+1
 2494 00d4 35020000 		.word	.L183+1
 2495 00d8 35020000 		.word	.L183+1
 2496              		.p2align 1
 2497              	.L178:
 2498              		.loc 4 449 0
 2499 00dc 089B     		ldr	r3, [sp, #32]
ARM GAS  C:\Users\PCHAUT~1\AppData\Local\Temp\ccIm8FNl.s 			page 46


 2500 00de 1C68     		ldr	r4, [r3]
 2501 00e0 089B     		ldr	r3, [sp, #32]
 2502 00e2 1B68     		ldr	r3, [r3]
 2503 00e4 1846     		mov	r0, r3
 2504 00e6 FFF7FEFF 		bl	strlen
 2505 00ea 0346     		mov	r3, r0
 2506 00ec 1A46     		mov	r2, r3
 2507 00ee 2146     		mov	r1, r4
 2508 00f0 0298     		ldr	r0, [sp, #8]
 2509 00f2 FFF7FEFF 		bl	cmp_write_str
 2510 00f6 0346     		mov	r3, r0
 2511 00f8 1A46     		mov	r2, r3
 2512 00fa 9DF81330 		ldrb	r3, [sp, #19]	@ zero_extendqisi2
 2513 00fe 1340     		ands	r3, r3, r2
 2514 0100 002B     		cmp	r3, #0
 2515 0102 14BF     		ite	ne
 2516 0104 0123     		movne	r3, #1
 2517 0106 0023     		moveq	r3, #0
 2518 0108 8DF81330 		strb	r3, [sp, #19]
 2519              		.loc 4 450 0
 2520 010c 089B     		ldr	r3, [sp, #32]
 2521 010e D3ED047A 		vldr.32	s15, [r3, #16]
 2522 0112 B0EE670A 		vmov.f32	s0, s15
 2523 0116 0298     		ldr	r0, [sp, #8]
 2524 0118 FFF7FEFF 		bl	cmp_write_float
 2525 011c 0346     		mov	r3, r0
 2526 011e 1A46     		mov	r2, r3
 2527 0120 9DF81330 		ldrb	r3, [sp, #19]	@ zero_extendqisi2
 2528 0124 1340     		ands	r3, r3, r2
 2529 0126 002B     		cmp	r3, #0
 2530 0128 14BF     		ite	ne
 2531 012a 0123     		movne	r3, #1
 2532 012c 0023     		moveq	r3, #0
 2533 012e 8DF81330 		strb	r3, [sp, #19]
 2534              		.loc 4 451 0
 2535 0132 D6E0     		b	.L184
 2536              	.L181:
 2537              		.loc 4 454 0
 2538 0134 089B     		ldr	r3, [sp, #32]
 2539 0136 1C68     		ldr	r4, [r3]
 2540 0138 089B     		ldr	r3, [sp, #32]
 2541 013a 1B68     		ldr	r3, [r3]
 2542 013c 1846     		mov	r0, r3
 2543 013e FFF7FEFF 		bl	strlen
 2544 0142 0346     		mov	r3, r0
 2545 0144 1A46     		mov	r2, r3
 2546 0146 2146     		mov	r1, r4
 2547 0148 0298     		ldr	r0, [sp, #8]
 2548 014a FFF7FEFF 		bl	cmp_write_str
 2549 014e 0346     		mov	r3, r0
 2550 0150 1A46     		mov	r2, r3
 2551 0152 9DF81330 		ldrb	r3, [sp, #19]	@ zero_extendqisi2
 2552 0156 1340     		ands	r3, r3, r2
 2553 0158 002B     		cmp	r3, #0
 2554 015a 14BF     		ite	ne
 2555 015c 0123     		movne	r3, #1
 2556 015e 0023     		moveq	r3, #0
ARM GAS  C:\Users\PCHAUT~1\AppData\Local\Temp\ccIm8FNl.s 			page 47


 2557 0160 8DF81330 		strb	r3, [sp, #19]
 2558              		.loc 4 455 0
 2559 0164 089B     		ldr	r3, [sp, #32]
 2560 0166 1B69     		ldr	r3, [r3, #16]
 2561 0168 1946     		mov	r1, r3
 2562 016a 0298     		ldr	r0, [sp, #8]
 2563 016c FFF7FEFF 		bl	cmp_write_s32
 2564 0170 0346     		mov	r3, r0
 2565 0172 1A46     		mov	r2, r3
 2566 0174 9DF81330 		ldrb	r3, [sp, #19]	@ zero_extendqisi2
 2567 0178 1340     		ands	r3, r3, r2
 2568 017a 002B     		cmp	r3, #0
 2569 017c 14BF     		ite	ne
 2570 017e 0123     		movne	r3, #1
 2571 0180 0023     		moveq	r3, #0
 2572 0182 8DF81330 		strb	r3, [sp, #19]
 2573              		.loc 4 456 0
 2574 0186 ACE0     		b	.L184
 2575              	.L180:
 2576              		.loc 4 459 0
 2577 0188 089B     		ldr	r3, [sp, #32]
 2578 018a 1C68     		ldr	r4, [r3]
 2579 018c 089B     		ldr	r3, [sp, #32]
 2580 018e 1B68     		ldr	r3, [r3]
 2581 0190 1846     		mov	r0, r3
 2582 0192 FFF7FEFF 		bl	strlen
 2583 0196 0346     		mov	r3, r0
 2584 0198 1A46     		mov	r2, r3
 2585 019a 2146     		mov	r1, r4
 2586 019c 0298     		ldr	r0, [sp, #8]
 2587 019e FFF7FEFF 		bl	cmp_write_str
 2588 01a2 0346     		mov	r3, r0
 2589 01a4 1A46     		mov	r2, r3
 2590 01a6 9DF81330 		ldrb	r3, [sp, #19]	@ zero_extendqisi2
 2591 01aa 1340     		ands	r3, r3, r2
 2592 01ac 002B     		cmp	r3, #0
 2593 01ae 14BF     		ite	ne
 2594 01b0 0123     		movne	r3, #1
 2595 01b2 0023     		moveq	r3, #0
 2596 01b4 8DF81330 		strb	r3, [sp, #19]
 2597              		.loc 4 460 0
 2598 01b8 089B     		ldr	r3, [sp, #32]
 2599 01ba 1B7C     		ldrb	r3, [r3, #16]	@ zero_extendqisi2
 2600 01bc 1946     		mov	r1, r3
 2601 01be 0298     		ldr	r0, [sp, #8]
 2602 01c0 FFF7FEFF 		bl	cmp_write_bool
 2603 01c4 0346     		mov	r3, r0
 2604 01c6 1A46     		mov	r2, r3
 2605 01c8 9DF81330 		ldrb	r3, [sp, #19]	@ zero_extendqisi2
 2606 01cc 1340     		ands	r3, r3, r2
 2607 01ce 002B     		cmp	r3, #0
 2608 01d0 14BF     		ite	ne
 2609 01d2 0123     		movne	r3, #1
 2610 01d4 0023     		moveq	r3, #0
 2611 01d6 8DF81330 		strb	r3, [sp, #19]
 2612              		.loc 4 461 0
 2613 01da 82E0     		b	.L184
ARM GAS  C:\Users\PCHAUT~1\AppData\Local\Temp\ccIm8FNl.s 			page 48


 2614              	.L182:
 2615              		.loc 4 464 0
 2616 01dc 089B     		ldr	r3, [sp, #32]
 2617 01de 1C68     		ldr	r4, [r3]
 2618 01e0 089B     		ldr	r3, [sp, #32]
 2619 01e2 1B68     		ldr	r3, [r3]
 2620 01e4 1846     		mov	r0, r3
 2621 01e6 FFF7FEFF 		bl	strlen
 2622 01ea 0346     		mov	r3, r0
 2623 01ec 1A46     		mov	r2, r3
 2624 01ee 2146     		mov	r1, r4
 2625 01f0 0298     		ldr	r0, [sp, #8]
 2626 01f2 FFF7FEFF 		bl	cmp_write_str
 2627 01f6 0346     		mov	r3, r0
 2628 01f8 1A46     		mov	r2, r3
 2629 01fa 9DF81330 		ldrb	r3, [sp, #19]	@ zero_extendqisi2
 2630 01fe 1340     		ands	r3, r3, r2
 2631 0200 002B     		cmp	r3, #0
 2632 0202 14BF     		ite	ne
 2633 0204 0123     		movne	r3, #1
 2634 0206 0023     		moveq	r3, #0
 2635 0208 8DF81330 		strb	r3, [sp, #19]
 2636              		.loc 4 465 0
 2637 020c 089B     		ldr	r3, [sp, #32]
 2638 020e 1969     		ldr	r1, [r3, #16]
 2639              		.loc 4 466 0
 2640 0210 089B     		ldr	r3, [sp, #32]
 2641 0212 DB8A     		ldrh	r3, [r3, #22]
 2642              		.loc 4 465 0
 2643 0214 1A46     		mov	r2, r3
 2644 0216 0298     		ldr	r0, [sp, #8]
 2645 0218 FFF7FEFF 		bl	cmp_write_str
 2646 021c 0346     		mov	r3, r0
 2647 021e 1A46     		mov	r2, r3
 2648 0220 9DF81330 		ldrb	r3, [sp, #19]	@ zero_extendqisi2
 2649 0224 1340     		ands	r3, r3, r2
 2650 0226 002B     		cmp	r3, #0
 2651 0228 14BF     		ite	ne
 2652 022a 0123     		movne	r3, #1
 2653 022c 0023     		moveq	r3, #0
 2654 022e 8DF81330 		strb	r3, [sp, #19]
 2655              		.loc 4 467 0
 2656 0232 56E0     		b	.L184
 2657              	.L183:
 2658              		.loc 4 471 0
 2659 0234 089B     		ldr	r3, [sp, #32]
 2660 0236 1C68     		ldr	r4, [r3]
 2661 0238 089B     		ldr	r3, [sp, #32]
 2662 023a 1B68     		ldr	r3, [r3]
 2663 023c 1846     		mov	r0, r3
 2664 023e FFF7FEFF 		bl	strlen
 2665 0242 0346     		mov	r3, r0
 2666 0244 1A46     		mov	r2, r3
 2667 0246 2146     		mov	r1, r4
 2668 0248 0298     		ldr	r0, [sp, #8]
 2669 024a FFF7FEFF 		bl	cmp_write_str
 2670 024e 0346     		mov	r3, r0
ARM GAS  C:\Users\PCHAUT~1\AppData\Local\Temp\ccIm8FNl.s 			page 49


 2671 0250 1A46     		mov	r2, r3
 2672 0252 9DF81330 		ldrb	r3, [sp, #19]	@ zero_extendqisi2
 2673 0256 1340     		ands	r3, r3, r2
 2674 0258 002B     		cmp	r3, #0
 2675 025a 14BF     		ite	ne
 2676 025c 0123     		movne	r3, #1
 2677 025e 0023     		moveq	r3, #0
 2678 0260 8DF81330 		strb	r3, [sp, #19]
 2679              		.loc 4 472 0
 2680 0264 089B     		ldr	r3, [sp, #32]
 2681 0266 DB8A     		ldrh	r3, [r3, #22]
 2682 0268 1946     		mov	r1, r3
 2683 026a 0298     		ldr	r0, [sp, #8]
 2684 026c FFF7FEFF 		bl	cmp_write_array
 2685 0270 0346     		mov	r3, r0
 2686 0272 1A46     		mov	r2, r3
 2687 0274 9DF81330 		ldrb	r3, [sp, #19]	@ zero_extendqisi2
 2688 0278 1340     		ands	r3, r3, r2
 2689 027a 002B     		cmp	r3, #0
 2690 027c 14BF     		ite	ne
 2691 027e 0123     		movne	r3, #1
 2692 0280 0023     		moveq	r3, #0
 2693 0282 8DF81330 		strb	r3, [sp, #19]
 2694              		.loc 4 473 0
 2695 0286 0023     		movs	r3, #0
 2696 0288 0693     		str	r3, [sp, #24]
 2697 028a 19E0     		b	.L185
 2698              	.L186:
 2699              		.loc 4 474 0 discriminator 3
 2700 028c 089B     		ldr	r3, [sp, #32]
 2701 028e 1A69     		ldr	r2, [r3, #16]
 2702 0290 069B     		ldr	r3, [sp, #24]
 2703 0292 9B00     		lsls	r3, r3, #2
 2704 0294 1344     		add	r3, r3, r2
 2705 0296 D3ED007A 		vldr.32	s15, [r3]
 2706 029a B0EE670A 		vmov.f32	s0, s15
 2707 029e 0298     		ldr	r0, [sp, #8]
 2708 02a0 FFF7FEFF 		bl	cmp_write_float
 2709 02a4 0346     		mov	r3, r0
 2710 02a6 1A46     		mov	r2, r3
 2711 02a8 9DF81330 		ldrb	r3, [sp, #19]	@ zero_extendqisi2
 2712 02ac 1340     		ands	r3, r3, r2
 2713 02ae 002B     		cmp	r3, #0
 2714 02b0 14BF     		ite	ne
 2715 02b2 0123     		movne	r3, #1
 2716 02b4 0023     		moveq	r3, #0
 2717 02b6 8DF81330 		strb	r3, [sp, #19]
 2718              		.loc 4 473 0 discriminator 3
 2719 02ba 069B     		ldr	r3, [sp, #24]
 2720 02bc 0133     		adds	r3, r3, #1
 2721 02be 0693     		str	r3, [sp, #24]
 2722              	.L185:
 2723              		.loc 4 473 0 is_stmt 0 discriminator 1
 2724 02c0 089B     		ldr	r3, [sp, #32]
 2725 02c2 DB8A     		ldrh	r3, [r3, #22]
 2726 02c4 1A46     		mov	r2, r3
 2727 02c6 069B     		ldr	r3, [sp, #24]
ARM GAS  C:\Users\PCHAUT~1\AppData\Local\Temp\ccIm8FNl.s 			page 50


 2728 02c8 9342     		cmp	r3, r2
 2729 02ca DFD3     		bcc	.L186
 2730              		.loc 4 476 0 is_stmt 1
 2731 02cc 09E0     		b	.L184
 2732              	.L191:
 2733 02ce 00BF     		.align	2
 2734              	.L190:
 2735 02d0 00000000 		.word	__stack_chk_guard
 2736              	.L177:
 2737              		.loc 4 479 0
 2738 02d4 089B     		ldr	r3, [sp, #32]
 2739 02d6 1968     		ldr	r1, [r3]
 2740 02d8 019B     		ldr	r3, [sp, #4]
 2741 02da 124A     		ldr	r2, .L192
 2742 02dc 0098     		ldr	r0, [sp]
 2743 02de 9847     		blx	r3
 2744              	.LVL27:
 2745              		.loc 4 480 0
 2746 02e0 00BF     		nop
 2747              	.L184:
 2748              		.loc 4 483 0
 2749 02e2 9DF81330 		ldrb	r3, [sp, #19]
 2750 02e6 83F00103 		eor	r3, r3, #1
 2751 02ea DBB2     		uxtb	r3, r3
 2752 02ec 002B     		cmp	r3, #0
 2753 02ee 07D0     		beq	.L176
 2754              		.loc 4 484 0
 2755 02f0 089B     		ldr	r3, [sp, #32]
 2756 02f2 1968     		ldr	r1, [r3]
 2757 02f4 019B     		ldr	r3, [sp, #4]
 2758 02f6 0C4A     		ldr	r2, .L192+4
 2759 02f8 0098     		ldr	r0, [sp]
 2760 02fa 9847     		blx	r3
 2761              	.LVL28:
 2762 02fc 00E0     		b	.L176
 2763              	.L189:
 2764              		.loc 4 444 0
 2765 02fe 00BF     		nop
 2766              	.L176:
 2767              		.loc 4 440 0 discriminator 2
 2768 0300 089B     		ldr	r3, [sp, #32]
 2769 0302 9B68     		ldr	r3, [r3, #8]
 2770 0304 0893     		str	r3, [sp, #32]
 2771              	.L174:
 2772              		.loc 4 440 0 is_stmt 0 discriminator 1
 2773 0306 089B     		ldr	r3, [sp, #32]
 2774 0308 002B     		cmp	r3, #0
 2775 030a 7FF4C7AE 		bne	.L187
 2776              		.loc 4 487 0 is_stmt 1
 2777 030e 00BF     		nop
 2778 0310 064B     		ldr	r3, .L192+8
 2779 0312 099A     		ldr	r2, [sp, #36]
 2780 0314 1B68     		ldr	r3, [r3]
 2781 0316 9A42     		cmp	r2, r3
 2782 0318 01D0     		beq	.L188
 2783 031a FFF7FEFF 		bl	__stack_chk_fail
 2784              	.L188:
ARM GAS  C:\Users\PCHAUT~1\AppData\Local\Temp\ccIm8FNl.s 			page 51


 2785 031e 0AB0     		add	sp, sp, #40
 2786              		.cfi_def_cfa_offset 8
 2787              		@ sp needed
 2788 0320 10BD     		pop	{r4, pc}
 2789              	.L193:
 2790 0322 00BF     		.align	2
 2791              	.L192:
 2792 0324 90010000 		.word	.LC15
 2793 0328 AC010000 		.word	.LC16
 2794 032c 00000000 		.word	__stack_chk_guard
 2795              		.cfi_endproc
 2796              	.LFE266:
 2797              		.size	parameter_msgpack_write_subtree, .-parameter_msgpack_write_subtree
 2798              		.section	.text.parameter_msgpack_write_cmp,"ax",%progbits
 2799              		.align	1
 2800              		.p2align 4,,15
 2801              		.global	parameter_msgpack_write_cmp
 2802              		.syntax unified
 2803              		.thumb
 2804              		.thumb_func
 2805              		.fpu fpv4-sp-d16
 2806              		.type	parameter_msgpack_write_cmp, %function
 2807              	parameter_msgpack_write_cmp:
 2808              	.LFB267:
 2809              		.loc 4 493 0
 2810              		.cfi_startproc
 2811              		@ args = 0, pretend = 0, frame = 24
 2812              		@ frame_needed = 0, uses_anonymous_args = 0
 2813 0000 00B5     		push	{lr}
 2814              		.cfi_def_cfa_offset 4
 2815              		.cfi_offset 14, -4
 2816 0002 87B0     		sub	sp, sp, #28
 2817              		.cfi_def_cfa_offset 32
 2818 0004 0390     		str	r0, [sp, #12]
 2819 0006 0291     		str	r1, [sp, #8]
 2820 0008 0192     		str	r2, [sp, #4]
 2821 000a 0093     		str	r3, [sp]
 2822              		.loc 4 493 0
 2823 000c 0B4B     		ldr	r3, .L196
 2824 000e 1B68     		ldr	r3, [r3]
 2825 0010 0593     		str	r3, [sp, #20]
 2826              		.loc 4 494 0
 2827 0012 FFF7FEFF 		bl	chSysLock
 2828              		.loc 4 495 0
 2829 0016 009B     		ldr	r3, [sp]
 2830 0018 019A     		ldr	r2, [sp, #4]
 2831 001a 0299     		ldr	r1, [sp, #8]
 2832 001c 0398     		ldr	r0, [sp, #12]
 2833 001e FFF7FEFF 		bl	parameter_msgpack_write_subtree
 2834              		.loc 4 496 0
 2835 0022 FFF7FEFF 		bl	chSysUnlock
 2836              		.loc 4 497 0
 2837 0026 00BF     		nop
 2838 0028 044B     		ldr	r3, .L196
 2839 002a 059A     		ldr	r2, [sp, #20]
 2840 002c 1B68     		ldr	r3, [r3]
 2841 002e 9A42     		cmp	r2, r3
ARM GAS  C:\Users\PCHAUT~1\AppData\Local\Temp\ccIm8FNl.s 			page 52


 2842 0030 01D0     		beq	.L195
 2843 0032 FFF7FEFF 		bl	__stack_chk_fail
 2844              	.L195:
 2845 0036 07B0     		add	sp, sp, #28
 2846              		.cfi_def_cfa_offset 4
 2847              		@ sp needed
 2848 0038 5DF804FB 		ldr	pc, [sp], #4
 2849              	.L197:
 2850              		.align	2
 2851              	.L196:
 2852 003c 00000000 		.word	__stack_chk_guard
 2853              		.cfi_endproc
 2854              	.LFE267:
 2855              		.size	parameter_msgpack_write_cmp, .-parameter_msgpack_write_cmp
 2856              		.section	.text.parameter_msgpack_write,"ax",%progbits
 2857              		.align	1
 2858              		.p2align 4,,15
 2859              		.global	parameter_msgpack_write
 2860              		.syntax unified
 2861              		.thumb
 2862              		.thumb_func
 2863              		.fpu fpv4-sp-d16
 2864              		.type	parameter_msgpack_write, %function
 2865              	parameter_msgpack_write:
 2866              	.LFB268:
 2867              		.loc 4 505 0
 2868              		.cfi_startproc
 2869              		@ args = 4, pretend = 0, frame = 56
 2870              		@ frame_needed = 0, uses_anonymous_args = 0
 2871 0000 00B5     		push	{lr}
 2872              		.cfi_def_cfa_offset 4
 2873              		.cfi_offset 14, -4
 2874 0002 8FB0     		sub	sp, sp, #60
 2875              		.cfi_def_cfa_offset 64
 2876 0004 0590     		str	r0, [sp, #20]
 2877 0006 0491     		str	r1, [sp, #16]
 2878 0008 0392     		str	r2, [sp, #12]
 2879 000a 0293     		str	r3, [sp, #8]
 2880 000c 109B     		ldr	r3, [sp, #64]
 2881 000e 0193     		str	r3, [sp, #4]
 2882              		.loc 4 505 0
 2883 0010 0C4B     		ldr	r3, .L200
 2884 0012 1B68     		ldr	r3, [r3]
 2885 0014 0D93     		str	r3, [sp, #52]
 2886              		.loc 4 508 0
 2887 0016 06A9     		add	r1, sp, #24
 2888 0018 09A8     		add	r0, sp, #36
 2889 001a 039B     		ldr	r3, [sp, #12]
 2890 001c 049A     		ldr	r2, [sp, #16]
 2891 001e FFF7FEFF 		bl	cmp_mem_access_init
 2892              		.loc 4 509 0
 2893 0022 09A9     		add	r1, sp, #36
 2894 0024 019B     		ldr	r3, [sp, #4]
 2895 0026 029A     		ldr	r2, [sp, #8]
 2896 0028 0598     		ldr	r0, [sp, #20]
 2897 002a FFF7FEFF 		bl	parameter_msgpack_write_cmp
 2898              		.loc 4 510 0
ARM GAS  C:\Users\PCHAUT~1\AppData\Local\Temp\ccIm8FNl.s 			page 53


 2899 002e 00BF     		nop
 2900 0030 044B     		ldr	r3, .L200
 2901 0032 0D9A     		ldr	r2, [sp, #52]
 2902 0034 1B68     		ldr	r3, [r3]
 2903 0036 9A42     		cmp	r2, r3
 2904 0038 01D0     		beq	.L199
 2905 003a FFF7FEFF 		bl	__stack_chk_fail
 2906              	.L199:
 2907 003e 0FB0     		add	sp, sp, #60
 2908              		.cfi_def_cfa_offset 4
 2909              		@ sp needed
 2910 0040 5DF804FB 		ldr	pc, [sp], #4
 2911              	.L201:
 2912              		.align	2
 2913              	.L200:
 2914 0044 00000000 		.word	__stack_chk_guard
 2915              		.cfi_endproc
 2916              	.LFE268:
 2917              		.size	parameter_msgpack_write, .-parameter_msgpack_write
 2918              		.section	.rodata.__func__.8568,"a",%progbits
 2919              		.align	2
 2920              		.type	__func__.8568, %object
 2921              		.size	__func__.8568, 12
 2922              	__func__.8568:
 2923 0000 63685379 		.ascii	"chSysUnlock\000"
 2923      73556E6C 
 2923      6F636B00 
 2924              		.text
 2925              	.Letext0:
 2926              		.file 5 "c:\\users\\pchautems\\documents\\robotiquetp\\eclipse_e-puck2\\tools\\gcc-arm-none-eabi-7
 2927              		.file 6 "c:\\users\\pchautems\\documents\\robotiquetp\\eclipse_e-puck2\\tools\\gcc-arm-none-eabi-7
 2928              		.file 7 "c:\\users\\pchautems\\documents\\robotiquetp\\eclipse_e-puck2\\tools\\gcc-arm-none-eabi-7
 2929              		.file 8 "c:\\users\\pchautems\\documents\\robotiquetp\\eclipse_e-puck2\\tools\\gcc-arm-none-eabi-7
 2930              		.file 9 "c:\\users\\pchautems\\documents\\robotiquetp\\eclipse_e-puck2\\tools\\gcc-arm-none-eabi-7
 2931              		.file 10 "c:\\users\\pchautems\\documents\\robotiquetp\\eclipse_e-puck2\\tools\\gcc-arm-none-eabi-
 2932              		.file 11 "c:\\users\\pchautems\\documents\\robotiquetp\\eclipse_e-puck2\\tools\\gcc-arm-none-eabi-
 2933              		.file 12 "../lib/e-puck2_main-processor/src/cmp/cmp.h"
 2934              		.file 13 "../lib/e-puck2_main-processor/src/cmp_mem_access/cmp_mem_access.h"
 2935              		.file 14 "../lib/e-puck2_main-processor/ChibiOS//os/rt/ports/ARMCMx/compilers/GCC/chtypes.h"
 2936              		.file 15 "../lib/e-puck2_main-processor/ChibiOS//os/rt/include/chsystypes.h"
 2937              		.file 16 "../lib/e-puck2_main-processor/ChibiOS//os/rt/include/chschd.h"
 2938              		.file 17 "../lib/e-puck2_main-processor/ChibiOS//os/ext/CMSIS/include/core_cm4.h"
 2939              		.file 18 "../lib/e-puck2_main-processor/ChibiOS//os/ext/CMSIS/ST/system_stm32f4xx.h"
 2940              		.file 19 "../lib/e-puck2_main-processor/ChibiOS//os/rt/ports/ARMCMx/chcore.h"
 2941              		.file 20 "../lib/e-puck2_main-processor/ChibiOS//os/rt/include/chdebug.h"
 2942              		.file 21 "../lib/e-puck2_main-processor/ChibiOS//os/rt/include/chtm.h"
 2943              		.file 22 "../lib/e-puck2_main-processor/ChibiOS//os/rt/include/chstats.h"
 2944              		.file 23 "../lib/e-puck2_main-processor/ChibiOS//os/rt/include/chsem.h"
 2945              		.file 24 "../lib/e-puck2_main-processor/ChibiOS//os/rt/include/chmtx.h"
 2946              		.file 25 "../lib/e-puck2_main-processor/ChibiOS//os/rt/include/chregistry.h"
 2947              		.file 26 "../lib/e-puck2_main-processor/src/parameter/parameter.h"
 2948              		.file 27 "../lib/e-puck2_main-processor/src/parameter/parameter_msgpack.h"