ARM GAS  C:\Users\PCHAUT~1\AppData\Local\Temp\ccxXBCq6.s 			page 1


   1              		.cpu cortex-m4
   2              		.eabi_attribute 27, 1
   3              		.eabi_attribute 28, 1
   4              		.eabi_attribute 20, 1
   5              		.eabi_attribute 21, 1
   6              		.eabi_attribute 23, 3
   7              		.eabi_attribute 24, 1
   8              		.eabi_attribute 25, 1
   9              		.eabi_attribute 26, 1
  10              		.eabi_attribute 30, 6
  11              		.eabi_attribute 34, 1
  12              		.eabi_attribute 18, 4
  13              		.file	"parameter.c"
  14              		.text
  15              	.Ltext0:
  16              		.cfi_sections	.debug_frame
  17              		.section	.text.port_lock,"ax",%progbits
  18              		.align	1
  19              		.p2align 4,,15
  20              		.syntax unified
  21              		.thumb
  22              		.thumb_func
  23              		.fpu fpv4-sp-d16
  24              		.type	port_lock, %function
  25              	port_lock:
  26              	.LFB116:
  27              		.file 1 "../lib/e-puck2_main-processor/ChibiOS//os/rt/ports/ARMCMx/chcore_v7m.h"
  28              		.loc 1 444 0
  29              		.cfi_startproc
  30              		@ args = 0, pretend = 0, frame = 8
  31              		@ frame_needed = 0, uses_anonymous_args = 0
  32 0000 00B5     		push	{lr}
  33              		.cfi_def_cfa_offset 4
  34              		.cfi_offset 14, -4
  35 0002 83B0     		sub	sp, sp, #12
  36              		.cfi_def_cfa_offset 16
  37              		.loc 1 444 0
  38 0004 094B     		ldr	r3, .L3
  39 0006 1B68     		ldr	r3, [r3]
  40 0008 0193     		str	r3, [sp, #4]
  41 000a 2023     		movs	r3, #32
  42 000c 0093     		str	r3, [sp]
  43              	.LBB6:
  44              	.LBB7:
  45              		.file 2 "../lib/e-puck2_main-processor/ChibiOS//os/ext/CMSIS/include/core_cmFunc.h"
  46              		.loc 2 546 0
  47 000e 009B     		ldr	r3, [sp]
  48              		.syntax unified
  49              	@ 546 "../lib/e-puck2_main-processor/ChibiOS//os/ext/CMSIS/include/core_cmFunc.h" 1
  50 0010 83F31188 		MSR basepri, r3
  51              	@ 0 "" 2
  52              		.thumb
  53              		.syntax unified
  54              	.LBE7:
  55              	.LBE6:
  56              		.loc 1 451 0
  57 0014 00BF     		nop
ARM GAS  C:\Users\PCHAUT~1\AppData\Local\Temp\ccxXBCq6.s 			page 2


  58 0016 054B     		ldr	r3, .L3
  59 0018 019A     		ldr	r2, [sp, #4]
  60 001a 1B68     		ldr	r3, [r3]
  61 001c 9A42     		cmp	r2, r3
  62 001e 01D0     		beq	.L2
  63 0020 FFF7FEFF 		bl	__stack_chk_fail
  64              	.L2:
  65 0024 03B0     		add	sp, sp, #12
  66              		.cfi_def_cfa_offset 4
  67              		@ sp needed
  68 0026 5DF804FB 		ldr	pc, [sp], #4
  69              	.L4:
  70 002a 00BF     		.align	2
  71              	.L3:
  72 002c 00000000 		.word	__stack_chk_guard
  73              		.cfi_endproc
  74              	.LFE116:
  75              		.size	port_lock, .-port_lock
  76              		.section	.text.port_unlock,"ax",%progbits
  77              		.align	1
  78              		.p2align 4,,15
  79              		.syntax unified
  80              		.thumb
  81              		.thumb_func
  82              		.fpu fpv4-sp-d16
  83              		.type	port_unlock, %function
  84              	port_unlock:
  85              	.LFB117:
  86              		.loc 1 458 0
  87              		.cfi_startproc
  88              		@ args = 0, pretend = 0, frame = 8
  89              		@ frame_needed = 0, uses_anonymous_args = 0
  90 0000 00B5     		push	{lr}
  91              		.cfi_def_cfa_offset 4
  92              		.cfi_offset 14, -4
  93 0002 83B0     		sub	sp, sp, #12
  94              		.cfi_def_cfa_offset 16
  95              		.loc 1 458 0
  96 0004 094B     		ldr	r3, .L7
  97 0006 1B68     		ldr	r3, [r3]
  98 0008 0193     		str	r3, [sp, #4]
  99 000a 0023     		movs	r3, #0
 100 000c 0093     		str	r3, [sp]
 101              	.LBB8:
 102              	.LBB9:
 103              		.loc 2 546 0
 104 000e 009B     		ldr	r3, [sp]
 105              		.syntax unified
 106              	@ 546 "../lib/e-puck2_main-processor/ChibiOS//os/ext/CMSIS/include/core_cmFunc.h" 1
 107 0010 83F31188 		MSR basepri, r3
 108              	@ 0 "" 2
 109              		.thumb
 110              		.syntax unified
 111              	.LBE9:
 112              	.LBE8:
 113              		.loc 1 465 0
 114 0014 00BF     		nop
ARM GAS  C:\Users\PCHAUT~1\AppData\Local\Temp\ccxXBCq6.s 			page 3


 115 0016 054B     		ldr	r3, .L7
 116 0018 019A     		ldr	r2, [sp, #4]
 117 001a 1B68     		ldr	r3, [r3]
 118 001c 9A42     		cmp	r2, r3
 119 001e 01D0     		beq	.L6
 120 0020 FFF7FEFF 		bl	__stack_chk_fail
 121              	.L6:
 122 0024 03B0     		add	sp, sp, #12
 123              		.cfi_def_cfa_offset 4
 124              		@ sp needed
 125 0026 5DF804FB 		ldr	pc, [sp], #4
 126              	.L8:
 127 002a 00BF     		.align	2
 128              	.L7:
 129 002c 00000000 		.word	__stack_chk_guard
 130              		.cfi_endproc
 131              	.LFE117:
 132              		.size	port_unlock, .-port_unlock
 133              		.section	.text.chSysLock,"ax",%progbits
 134              		.align	1
 135              		.p2align 4,,15
 136              		.syntax unified
 137              		.thumb
 138              		.thumb_func
 139              		.fpu fpv4-sp-d16
 140              		.type	chSysLock, %function
 141              	chSysLock:
 142              	.LFB145:
 143              		.file 3 "../lib/e-puck2_main-processor/ChibiOS//os/rt/include/chsys.h"
 144              		.loc 3 346 0
 145              		.cfi_startproc
 146              		@ args = 0, pretend = 0, frame = 8
 147              		@ frame_needed = 0, uses_anonymous_args = 0
 148 0000 00B5     		push	{lr}
 149              		.cfi_def_cfa_offset 4
 150              		.cfi_offset 14, -4
 151 0002 83B0     		sub	sp, sp, #12
 152              		.cfi_def_cfa_offset 16
 153              		.loc 3 346 0
 154 0004 094B     		ldr	r3, .L11
 155 0006 1B68     		ldr	r3, [r3]
 156 0008 0193     		str	r3, [sp, #4]
 157              		.loc 3 348 0
 158 000a FFF7FEFF 		bl	port_lock
 159              		.loc 3 349 0
 160 000e FFF7FEFF 		bl	_stats_start_measure_crit_thd
 161              		.loc 3 350 0
 162 0012 FFF7FEFF 		bl	_dbg_check_lock
 163              		.loc 3 351 0
 164 0016 00BF     		nop
 165 0018 044B     		ldr	r3, .L11
 166 001a 019A     		ldr	r2, [sp, #4]
 167 001c 1B68     		ldr	r3, [r3]
 168 001e 9A42     		cmp	r2, r3
 169 0020 01D0     		beq	.L10
 170 0022 FFF7FEFF 		bl	__stack_chk_fail
 171              	.L10:
ARM GAS  C:\Users\PCHAUT~1\AppData\Local\Temp\ccxXBCq6.s 			page 4


 172 0026 03B0     		add	sp, sp, #12
 173              		.cfi_def_cfa_offset 4
 174              		@ sp needed
 175 0028 5DF804FB 		ldr	pc, [sp], #4
 176              	.L12:
 177              		.align	2
 178              	.L11:
 179 002c 00000000 		.word	__stack_chk_guard
 180              		.cfi_endproc
 181              	.LFE145:
 182              		.size	chSysLock, .-chSysLock
 183              		.section	.text.chSysUnlock,"ax",%progbits
 184              		.align	1
 185              		.p2align 4,,15
 186              		.syntax unified
 187              		.thumb
 188              		.thumb_func
 189              		.fpu fpv4-sp-d16
 190              		.type	chSysUnlock, %function
 191              	chSysUnlock:
 192              	.LFB146:
 193              		.loc 3 358 0
 194              		.cfi_startproc
 195              		@ args = 0, pretend = 0, frame = 8
 196              		@ frame_needed = 0, uses_anonymous_args = 0
 197 0000 00B5     		push	{lr}
 198              		.cfi_def_cfa_offset 4
 199              		.cfi_offset 14, -4
 200 0002 83B0     		sub	sp, sp, #12
 201              		.cfi_def_cfa_offset 16
 202              		.loc 3 358 0
 203 0004 114B     		ldr	r3, .L16
 204 0006 1B68     		ldr	r3, [r3]
 205 0008 0193     		str	r3, [sp, #4]
 206              		.loc 3 360 0
 207 000a FFF7FEFF 		bl	_dbg_check_unlock
 208              		.loc 3 361 0
 209 000e FFF7FEFF 		bl	_stats_stop_measure_crit_thd
 210              		.loc 3 367 0
 211 0012 0F4B     		ldr	r3, .L16+4
 212 0014 1B68     		ldr	r3, [r3]
 213 0016 0E4A     		ldr	r2, .L16+4
 214 0018 9342     		cmp	r3, r2
 215 001a 0AD0     		beq	.L14
 216              		.loc 3 367 0 is_stmt 0 discriminator 2
 217 001c 0C4B     		ldr	r3, .L16+4
 218 001e 9B69     		ldr	r3, [r3, #24]
 219 0020 9A68     		ldr	r2, [r3, #8]
 220 0022 0B4B     		ldr	r3, .L16+4
 221 0024 1B68     		ldr	r3, [r3]
 222 0026 9B68     		ldr	r3, [r3, #8]
 223 0028 9A42     		cmp	r2, r3
 224 002a 02D2     		bcs	.L14
 225              		.loc 3 367 0 discriminator 3
 226 002c 0948     		ldr	r0, .L16+8
 227 002e FFF7FEFF 		bl	chSysHalt
 228              	.L14:
ARM GAS  C:\Users\PCHAUT~1\AppData\Local\Temp\ccxXBCq6.s 			page 5


 229              		.loc 3 371 0 is_stmt 1
 230 0032 FFF7FEFF 		bl	port_unlock
 231              		.loc 3 372 0
 232 0036 00BF     		nop
 233 0038 044B     		ldr	r3, .L16
 234 003a 019A     		ldr	r2, [sp, #4]
 235 003c 1B68     		ldr	r3, [r3]
 236 003e 9A42     		cmp	r2, r3
 237 0040 01D0     		beq	.L15
 238 0042 FFF7FEFF 		bl	__stack_chk_fail
 239              	.L15:
 240 0046 03B0     		add	sp, sp, #12
 241              		.cfi_def_cfa_offset 4
 242              		@ sp needed
 243 0048 5DF804FB 		ldr	pc, [sp], #4
 244              	.L17:
 245              		.align	2
 246              	.L16:
 247 004c 00000000 		.word	__stack_chk_guard
 248 0050 00000000 		.word	ch
 249 0054 00000000 		.word	__func__.8162
 250              		.cfi_endproc
 251              	.LFE146:
 252              		.size	chSysUnlock, .-chSysUnlock
 253              		.section	.text.id_split,"ax",%progbits
 254              		.align	1
 255              		.p2align 4,,15
 256              		.syntax unified
 257              		.thumb
 258              		.thumb_func
 259              		.fpu fpv4-sp-d16
 260              		.type	id_split, %function
 261              	id_split:
 262              	.LFB250:
 263              		.file 4 "../lib/e-puck2_main-processor/src/parameter/parameter.c"
 264              		.loc 4 32 0
 265              		.cfi_startproc
 266              		@ args = 0, pretend = 0, frame = 16
 267              		@ frame_needed = 0, uses_anonymous_args = 0
 268 0000 00B5     		push	{lr}
 269              		.cfi_def_cfa_offset 4
 270              		.cfi_offset 14, -4
 271 0002 85B0     		sub	sp, sp, #20
 272              		.cfi_def_cfa_offset 24
 273 0004 0190     		str	r0, [sp, #4]
 274 0006 0091     		str	r1, [sp]
 275              		.loc 4 32 0
 276 0008 114B     		ldr	r3, .L24
 277 000a 1B68     		ldr	r3, [r3]
 278 000c 0393     		str	r3, [sp, #12]
 279              		.loc 4 33 0
 280 000e 0023     		movs	r3, #0
 281 0010 0293     		str	r3, [sp, #8]
 282              		.loc 4 34 0
 283 0012 0023     		movs	r3, #0
 284 0014 0293     		str	r3, [sp, #8]
 285 0016 0AE0     		b	.L19
ARM GAS  C:\Users\PCHAUT~1\AppData\Local\Temp\ccxXBCq6.s 			page 6


 286              	.L22:
 287              		.loc 4 35 0
 288 0018 029B     		ldr	r3, [sp, #8]
 289 001a 019A     		ldr	r2, [sp, #4]
 290 001c 1344     		add	r3, r3, r2
 291 001e 1B78     		ldrb	r3, [r3]	@ zero_extendqisi2
 292 0020 2F2B     		cmp	r3, #47
 293 0022 01D1     		bne	.L20
 294              		.loc 4 36 0
 295 0024 029B     		ldr	r3, [sp, #8]
 296 0026 07E0     		b	.L21
 297              	.L20:
 298              		.loc 4 34 0 discriminator 2
 299 0028 029B     		ldr	r3, [sp, #8]
 300 002a 0133     		adds	r3, r3, #1
 301 002c 0293     		str	r3, [sp, #8]
 302              	.L19:
 303              		.loc 4 34 0 is_stmt 0 discriminator 1
 304 002e 029A     		ldr	r2, [sp, #8]
 305 0030 009B     		ldr	r3, [sp]
 306 0032 9A42     		cmp	r2, r3
 307 0034 F0DB     		blt	.L22
 308              		.loc 4 39 0 is_stmt 1
 309 0036 009B     		ldr	r3, [sp]
 310              	.L21:
 311              		.loc 4 40 0
 312 0038 1846     		mov	r0, r3
 313 003a 054B     		ldr	r3, .L24
 314 003c 039A     		ldr	r2, [sp, #12]
 315 003e 1B68     		ldr	r3, [r3]
 316 0040 9A42     		cmp	r2, r3
 317 0042 01D0     		beq	.L23
 318 0044 FFF7FEFF 		bl	__stack_chk_fail
 319              	.L23:
 320 0048 05B0     		add	sp, sp, #20
 321              		.cfi_def_cfa_offset 4
 322              		@ sp needed
 323 004a 5DF804FB 		ldr	pc, [sp], #4
 324              	.L25:
 325 004e 00BF     		.align	2
 326              	.L24:
 327 0050 00000000 		.word	__stack_chk_guard
 328              		.cfi_endproc
 329              	.LFE250:
 330              		.size	id_split, .-id_split
 331              		.section	.text.get_subnamespace,"ax",%progbits
 332              		.align	1
 333              		.p2align 4,,15
 334              		.syntax unified
 335              		.thumb
 336              		.thumb_func
 337              		.fpu fpv4-sp-d16
 338              		.type	get_subnamespace, %function
 339              	get_subnamespace:
 340              	.LFB251:
 341              		.loc 4 49 0
 342              		.cfi_startproc
ARM GAS  C:\Users\PCHAUT~1\AppData\Local\Temp\ccxXBCq6.s 			page 7


 343              		@ args = 0, pretend = 0, frame = 24
 344              		@ frame_needed = 0, uses_anonymous_args = 0
 345 0000 00B5     		push	{lr}
 346              		.cfi_def_cfa_offset 4
 347              		.cfi_offset 14, -4
 348 0002 87B0     		sub	sp, sp, #28
 349              		.cfi_def_cfa_offset 32
 350 0004 0390     		str	r0, [sp, #12]
 351 0006 0291     		str	r1, [sp, #8]
 352 0008 0192     		str	r2, [sp, #4]
 353              		.loc 4 49 0
 354 000a 1A4B     		ldr	r3, .L35
 355 000c 1B68     		ldr	r3, [r3]
 356 000e 0593     		str	r3, [sp, #20]
 357              		.loc 4 50 0
 358 0010 019B     		ldr	r3, [sp, #4]
 359 0012 002B     		cmp	r3, #0
 360 0014 01D1     		bne	.L27
 361              		.loc 4 51 0
 362 0016 039B     		ldr	r3, [sp, #12]
 363 0018 21E0     		b	.L28
 364              	.L27:
 365              		.loc 4 53 0
 366 001a FFF7FEFF 		bl	chSysLock
 367              		.loc 4 54 0
 368 001e 039B     		ldr	r3, [sp, #12]
 369 0020 DB68     		ldr	r3, [r3, #12]
 370 0022 0493     		str	r3, [sp, #16]
 371              		.loc 4 55 0
 372 0024 FFF7FEFF 		bl	chSysUnlock
 373              		.loc 4 56 0
 374 0028 13E0     		b	.L29
 375              	.L32:
 376              		.loc 4 57 0
 377 002a 049B     		ldr	r3, [sp, #16]
 378 002c 1B68     		ldr	r3, [r3]
 379 002e 019A     		ldr	r2, [sp, #4]
 380 0030 1946     		mov	r1, r3
 381 0032 0298     		ldr	r0, [sp, #8]
 382 0034 FFF7FEFF 		bl	strncmp
 383 0038 0346     		mov	r3, r0
 384 003a 002B     		cmp	r3, #0
 385 003c 06D1     		bne	.L30
 386              		.loc 4 57 0 is_stmt 0 discriminator 1
 387 003e 049B     		ldr	r3, [sp, #16]
 388 0040 1A68     		ldr	r2, [r3]
 389 0042 019B     		ldr	r3, [sp, #4]
 390 0044 1344     		add	r3, r3, r2
 391 0046 1B78     		ldrb	r3, [r3]	@ zero_extendqisi2
 392 0048 002B     		cmp	r3, #0
 393 004a 06D0     		beq	.L34
 394              	.L30:
 395              		.loc 4 62 0 is_stmt 1
 396 004c 049B     		ldr	r3, [sp, #16]
 397 004e 1B69     		ldr	r3, [r3, #16]
 398 0050 0493     		str	r3, [sp, #16]
 399              	.L29:
ARM GAS  C:\Users\PCHAUT~1\AppData\Local\Temp\ccxXBCq6.s 			page 8


 400              		.loc 4 56 0
 401 0052 049B     		ldr	r3, [sp, #16]
 402 0054 002B     		cmp	r3, #0
 403 0056 E8D1     		bne	.L32
 404 0058 00E0     		b	.L31
 405              	.L34:
 406              		.loc 4 60 0
 407 005a 00BF     		nop
 408              	.L31:
 409              		.loc 4 64 0
 410 005c 049B     		ldr	r3, [sp, #16]
 411              	.L28:
 412              		.loc 4 65 0
 413 005e 1846     		mov	r0, r3
 414 0060 044B     		ldr	r3, .L35
 415 0062 059A     		ldr	r2, [sp, #20]
 416 0064 1B68     		ldr	r3, [r3]
 417 0066 9A42     		cmp	r2, r3
 418 0068 01D0     		beq	.L33
 419 006a FFF7FEFF 		bl	__stack_chk_fail
 420              	.L33:
 421 006e 07B0     		add	sp, sp, #28
 422              		.cfi_def_cfa_offset 4
 423              		@ sp needed
 424 0070 5DF804FB 		ldr	pc, [sp], #4
 425              	.L36:
 426              		.align	2
 427              	.L35:
 428 0074 00000000 		.word	__stack_chk_guard
 429              		.cfi_endproc
 430              	.LFE251:
 431              		.size	get_subnamespace, .-get_subnamespace
 432              		.section	.text.get_parameter,"ax",%progbits
 433              		.align	1
 434              		.p2align 4,,15
 435              		.syntax unified
 436              		.thumb
 437              		.thumb_func
 438              		.fpu fpv4-sp-d16
 439              		.type	get_parameter, %function
 440              	get_parameter:
 441              	.LFB252:
 442              		.loc 4 72 0
 443              		.cfi_startproc
 444              		@ args = 0, pretend = 0, frame = 24
 445              		@ frame_needed = 0, uses_anonymous_args = 0
 446 0000 00B5     		push	{lr}
 447              		.cfi_def_cfa_offset 4
 448              		.cfi_offset 14, -4
 449 0002 87B0     		sub	sp, sp, #28
 450              		.cfi_def_cfa_offset 32
 451 0004 0390     		str	r0, [sp, #12]
 452 0006 0291     		str	r1, [sp, #8]
 453 0008 0192     		str	r2, [sp, #4]
 454              		.loc 4 72 0
 455 000a 1A4B     		ldr	r3, .L46
 456 000c 1B68     		ldr	r3, [r3]
ARM GAS  C:\Users\PCHAUT~1\AppData\Local\Temp\ccxXBCq6.s 			page 9


 457 000e 0593     		str	r3, [sp, #20]
 458              		.loc 4 73 0
 459 0010 019B     		ldr	r3, [sp, #4]
 460 0012 002B     		cmp	r3, #0
 461 0014 01D1     		bne	.L38
 462              		.loc 4 74 0
 463 0016 0023     		movs	r3, #0
 464 0018 21E0     		b	.L39
 465              	.L38:
 466              		.loc 4 76 0
 467 001a FFF7FEFF 		bl	chSysLock
 468              		.loc 4 77 0
 469 001e 039B     		ldr	r3, [sp, #12]
 470 0020 5B69     		ldr	r3, [r3, #20]
 471 0022 0493     		str	r3, [sp, #16]
 472              		.loc 4 78 0
 473 0024 FFF7FEFF 		bl	chSysUnlock
 474              		.loc 4 79 0
 475 0028 13E0     		b	.L40
 476              	.L43:
 477              		.loc 4 80 0
 478 002a 049B     		ldr	r3, [sp, #16]
 479 002c 1B68     		ldr	r3, [r3]
 480 002e 019A     		ldr	r2, [sp, #4]
 481 0030 1946     		mov	r1, r3
 482 0032 0298     		ldr	r0, [sp, #8]
 483 0034 FFF7FEFF 		bl	strncmp
 484 0038 0346     		mov	r3, r0
 485 003a 002B     		cmp	r3, #0
 486 003c 06D1     		bne	.L41
 487              		.loc 4 80 0 is_stmt 0 discriminator 1
 488 003e 049B     		ldr	r3, [sp, #16]
 489 0040 1A68     		ldr	r2, [r3]
 490 0042 019B     		ldr	r3, [sp, #4]
 491 0044 1344     		add	r3, r3, r2
 492 0046 1B78     		ldrb	r3, [r3]	@ zero_extendqisi2
 493 0048 002B     		cmp	r3, #0
 494 004a 06D0     		beq	.L45
 495              	.L41:
 496              		.loc 4 85 0 is_stmt 1
 497 004c 049B     		ldr	r3, [sp, #16]
 498 004e 9B68     		ldr	r3, [r3, #8]
 499 0050 0493     		str	r3, [sp, #16]
 500              	.L40:
 501              		.loc 4 79 0
 502 0052 049B     		ldr	r3, [sp, #16]
 503 0054 002B     		cmp	r3, #0
 504 0056 E8D1     		bne	.L43
 505 0058 00E0     		b	.L42
 506              	.L45:
 507              		.loc 4 83 0
 508 005a 00BF     		nop
 509              	.L42:
 510              		.loc 4 87 0
 511 005c 049B     		ldr	r3, [sp, #16]
 512              	.L39:
 513              		.loc 4 88 0
ARM GAS  C:\Users\PCHAUT~1\AppData\Local\Temp\ccxXBCq6.s 			page 10


 514 005e 1846     		mov	r0, r3
 515 0060 044B     		ldr	r3, .L46
 516 0062 059A     		ldr	r2, [sp, #20]
 517 0064 1B68     		ldr	r3, [r3]
 518 0066 9A42     		cmp	r2, r3
 519 0068 01D0     		beq	.L44
 520 006a FFF7FEFF 		bl	__stack_chk_fail
 521              	.L44:
 522 006e 07B0     		add	sp, sp, #28
 523              		.cfi_def_cfa_offset 4
 524              		@ sp needed
 525 0070 5DF804FB 		ldr	pc, [sp], #4
 526              	.L47:
 527              		.align	2
 528              	.L46:
 529 0074 00000000 		.word	__stack_chk_guard
 530              		.cfi_endproc
 531              	.LFE252:
 532              		.size	get_parameter, .-get_parameter
 533              		.section	.text.parameter_namespace_declare,"ax",%progbits
 534              		.align	1
 535              		.p2align 4,,15
 536              		.global	parameter_namespace_declare
 537              		.syntax unified
 538              		.thumb
 539              		.thumb_func
 540              		.fpu fpv4-sp-d16
 541              		.type	parameter_namespace_declare, %function
 542              	parameter_namespace_declare:
 543              	.LFB253:
 544              		.loc 4 93 0
 545              		.cfi_startproc
 546              		@ args = 0, pretend = 0, frame = 24
 547              		@ frame_needed = 0, uses_anonymous_args = 0
 548 0000 00B5     		push	{lr}
 549              		.cfi_def_cfa_offset 4
 550              		.cfi_offset 14, -4
 551 0002 87B0     		sub	sp, sp, #28
 552              		.cfi_def_cfa_offset 32
 553 0004 0390     		str	r0, [sp, #12]
 554 0006 0291     		str	r1, [sp, #8]
 555 0008 0192     		str	r2, [sp, #4]
 556              		.loc 4 93 0
 557 000a 184B     		ldr	r3, .L53
 558 000c 1B68     		ldr	r3, [r3]
 559 000e 0593     		str	r3, [sp, #20]
 560              		.loc 4 94 0
 561 0010 039B     		ldr	r3, [sp, #12]
 562 0012 019A     		ldr	r2, [sp, #4]
 563 0014 1A60     		str	r2, [r3]
 564              		.loc 4 95 0
 565 0016 039B     		ldr	r3, [sp, #12]
 566 0018 0022     		movs	r2, #0
 567 001a 5A60     		str	r2, [r3, #4]
 568              		.loc 4 96 0
 569 001c 039B     		ldr	r3, [sp, #12]
 570 001e 029A     		ldr	r2, [sp, #8]
ARM GAS  C:\Users\PCHAUT~1\AppData\Local\Temp\ccxXBCq6.s 			page 11


 571 0020 9A60     		str	r2, [r3, #8]
 572              		.loc 4 97 0
 573 0022 039B     		ldr	r3, [sp, #12]
 574 0024 0022     		movs	r2, #0
 575 0026 DA60     		str	r2, [r3, #12]
 576              		.loc 4 98 0
 577 0028 039B     		ldr	r3, [sp, #12]
 578 002a 0022     		movs	r2, #0
 579 002c 5A61     		str	r2, [r3, #20]
 580              		.loc 4 99 0
 581 002e 029B     		ldr	r3, [sp, #8]
 582 0030 002B     		cmp	r3, #0
 583 0032 0DD0     		beq	.L49
 584              		.loc 4 100 0
 585 0034 FFF7FEFF 		bl	chSysLock
 586              		.loc 4 102 0
 587 0038 039B     		ldr	r3, [sp, #12]
 588 003a 9B68     		ldr	r3, [r3, #8]
 589 003c DA68     		ldr	r2, [r3, #12]
 590 003e 039B     		ldr	r3, [sp, #12]
 591 0040 1A61     		str	r2, [r3, #16]
 592              		.loc 4 103 0
 593 0042 039B     		ldr	r3, [sp, #12]
 594 0044 9B68     		ldr	r3, [r3, #8]
 595 0046 039A     		ldr	r2, [sp, #12]
 596 0048 DA60     		str	r2, [r3, #12]
 597              		.loc 4 104 0
 598 004a FFF7FEFF 		bl	chSysUnlock
 599              		.loc 4 108 0
 600 004e 02E0     		b	.L52
 601              	.L49:
 602              		.loc 4 106 0
 603 0050 039B     		ldr	r3, [sp, #12]
 604 0052 0022     		movs	r2, #0
 605 0054 1A61     		str	r2, [r3, #16]
 606              	.L52:
 607              		.loc 4 108 0
 608 0056 00BF     		nop
 609 0058 044B     		ldr	r3, .L53
 610 005a 059A     		ldr	r2, [sp, #20]
 611 005c 1B68     		ldr	r3, [r3]
 612 005e 9A42     		cmp	r2, r3
 613 0060 01D0     		beq	.L51
 614 0062 FFF7FEFF 		bl	__stack_chk_fail
 615              	.L51:
 616 0066 07B0     		add	sp, sp, #28
 617              		.cfi_def_cfa_offset 4
 618              		@ sp needed
 619 0068 5DF804FB 		ldr	pc, [sp], #4
 620              	.L54:
 621              		.align	2
 622              	.L53:
 623 006c 00000000 		.word	__stack_chk_guard
 624              		.cfi_endproc
 625              	.LFE253:
 626              		.size	parameter_namespace_declare, .-parameter_namespace_declare
 627              		.section	.text._parameter_namespace_find_w_id_len,"ax",%progbits
ARM GAS  C:\Users\PCHAUT~1\AppData\Local\Temp\ccxXBCq6.s 			page 12


 628              		.align	1
 629              		.p2align 4,,15
 630              		.global	_parameter_namespace_find_w_id_len
 631              		.syntax unified
 632              		.thumb
 633              		.thumb_func
 634              		.fpu fpv4-sp-d16
 635              		.type	_parameter_namespace_find_w_id_len, %function
 636              	_parameter_namespace_find_w_id_len:
 637              	.LFB254:
 638              		.loc 4 113 0
 639              		.cfi_startproc
 640              		@ args = 0, pretend = 0, frame = 32
 641              		@ frame_needed = 0, uses_anonymous_args = 0
 642 0000 00B5     		push	{lr}
 643              		.cfi_def_cfa_offset 4
 644              		.cfi_offset 14, -4
 645 0002 89B0     		sub	sp, sp, #36
 646              		.cfi_def_cfa_offset 40
 647 0004 0390     		str	r0, [sp, #12]
 648 0006 0291     		str	r1, [sp, #8]
 649 0008 0192     		str	r2, [sp, #4]
 650              		.loc 4 113 0
 651 000a 194B     		ldr	r3, .L61
 652 000c 1B68     		ldr	r3, [r3]
 653 000e 0793     		str	r3, [sp, #28]
 654              		.loc 4 114 0
 655 0010 039B     		ldr	r3, [sp, #12]
 656 0012 0493     		str	r3, [sp, #16]
 657              		.loc 4 115 0
 658 0014 0023     		movs	r3, #0
 659 0016 0593     		str	r3, [sp, #20]
 660              		.loc 4 116 0
 661 0018 17E0     		b	.L56
 662              	.L58:
 663              	.LBB10:
 664              		.loc 4 117 0
 665 001a 029A     		ldr	r2, [sp, #8]
 666 001c 059B     		ldr	r3, [sp, #20]
 667 001e D018     		adds	r0, r2, r3
 668 0020 019A     		ldr	r2, [sp, #4]
 669 0022 059B     		ldr	r3, [sp, #20]
 670 0024 D31A     		subs	r3, r2, r3
 671 0026 1946     		mov	r1, r3
 672 0028 FFF7FEFF 		bl	id_split
 673 002c 0690     		str	r0, [sp, #24]
 674              		.loc 4 118 0
 675 002e 029A     		ldr	r2, [sp, #8]
 676 0030 059B     		ldr	r3, [sp, #20]
 677 0032 1344     		add	r3, r3, r2
 678 0034 069A     		ldr	r2, [sp, #24]
 679 0036 1946     		mov	r1, r3
 680 0038 0498     		ldr	r0, [sp, #16]
 681 003a FFF7FEFF 		bl	get_subnamespace
 682 003e 0490     		str	r0, [sp, #16]
 683              		.loc 4 119 0
 684 0040 069A     		ldr	r2, [sp, #24]
ARM GAS  C:\Users\PCHAUT~1\AppData\Local\Temp\ccxXBCq6.s 			page 13


 685 0042 059B     		ldr	r3, [sp, #20]
 686 0044 1344     		add	r3, r3, r2
 687 0046 0133     		adds	r3, r3, #1
 688 0048 0593     		str	r3, [sp, #20]
 689              	.L56:
 690              	.LBE10:
 691              		.loc 4 116 0
 692 004a 049B     		ldr	r3, [sp, #16]
 693 004c 002B     		cmp	r3, #0
 694 004e 03D0     		beq	.L57
 695              		.loc 4 116 0 is_stmt 0 discriminator 1
 696 0050 059A     		ldr	r2, [sp, #20]
 697 0052 019B     		ldr	r3, [sp, #4]
 698 0054 9A42     		cmp	r2, r3
 699 0056 E0D3     		bcc	.L58
 700              	.L57:
 701              		.loc 4 121 0 is_stmt 1
 702 0058 049B     		ldr	r3, [sp, #16]
 703              		.loc 4 122 0
 704 005a 1846     		mov	r0, r3
 705 005c 044B     		ldr	r3, .L61
 706 005e 079A     		ldr	r2, [sp, #28]
 707 0060 1B68     		ldr	r3, [r3]
 708 0062 9A42     		cmp	r2, r3
 709 0064 01D0     		beq	.L60
 710 0066 FFF7FEFF 		bl	__stack_chk_fail
 711              	.L60:
 712 006a 09B0     		add	sp, sp, #36
 713              		.cfi_def_cfa_offset 4
 714              		@ sp needed
 715 006c 5DF804FB 		ldr	pc, [sp], #4
 716              	.L62:
 717              		.align	2
 718              	.L61:
 719 0070 00000000 		.word	__stack_chk_guard
 720              		.cfi_endproc
 721              	.LFE254:
 722              		.size	_parameter_namespace_find_w_id_len, .-_parameter_namespace_find_w_id_len
 723              		.section	.text.parameter_namespace_find,"ax",%progbits
 724              		.align	1
 725              		.p2align 4,,15
 726              		.global	parameter_namespace_find
 727              		.syntax unified
 728              		.thumb
 729              		.thumb_func
 730              		.fpu fpv4-sp-d16
 731              		.type	parameter_namespace_find, %function
 732              	parameter_namespace_find:
 733              	.LFB255:
 734              		.loc 4 126 0
 735              		.cfi_startproc
 736              		@ args = 0, pretend = 0, frame = 16
 737              		@ frame_needed = 0, uses_anonymous_args = 0
 738 0000 00B5     		push	{lr}
 739              		.cfi_def_cfa_offset 4
 740              		.cfi_offset 14, -4
 741 0002 85B0     		sub	sp, sp, #20
ARM GAS  C:\Users\PCHAUT~1\AppData\Local\Temp\ccxXBCq6.s 			page 14


 742              		.cfi_def_cfa_offset 24
 743 0004 0190     		str	r0, [sp, #4]
 744 0006 0091     		str	r1, [sp]
 745              		.loc 4 126 0
 746 0008 0B4B     		ldr	r3, .L66
 747 000a 1B68     		ldr	r3, [r3]
 748 000c 0393     		str	r3, [sp, #12]
 749              		.loc 4 127 0
 750 000e 0098     		ldr	r0, [sp]
 751 0010 FFF7FEFF 		bl	strlen
 752 0014 0346     		mov	r3, r0
 753 0016 1A46     		mov	r2, r3
 754 0018 0099     		ldr	r1, [sp]
 755 001a 0198     		ldr	r0, [sp, #4]
 756 001c FFF7FEFF 		bl	_parameter_namespace_find_w_id_len
 757 0020 0346     		mov	r3, r0
 758              		.loc 4 128 0
 759 0022 1846     		mov	r0, r3
 760 0024 044B     		ldr	r3, .L66
 761 0026 039A     		ldr	r2, [sp, #12]
 762 0028 1B68     		ldr	r3, [r3]
 763 002a 9A42     		cmp	r2, r3
 764 002c 01D0     		beq	.L65
 765 002e FFF7FEFF 		bl	__stack_chk_fail
 766              	.L65:
 767 0032 05B0     		add	sp, sp, #20
 768              		.cfi_def_cfa_offset 4
 769              		@ sp needed
 770 0034 5DF804FB 		ldr	pc, [sp], #4
 771              	.L67:
 772              		.align	2
 773              	.L66:
 774 0038 00000000 		.word	__stack_chk_guard
 775              		.cfi_endproc
 776              	.LFE255:
 777              		.size	parameter_namespace_find, .-parameter_namespace_find
 778              		.section	.text._parameter_find_w_id_len,"ax",%progbits
 779              		.align	1
 780              		.p2align 4,,15
 781              		.global	_parameter_find_w_id_len
 782              		.syntax unified
 783              		.thumb
 784              		.thumb_func
 785              		.fpu fpv4-sp-d16
 786              		.type	_parameter_find_w_id_len, %function
 787              	_parameter_find_w_id_len:
 788              	.LFB256:
 789              		.loc 4 132 0
 790              		.cfi_startproc
 791              		@ args = 0, pretend = 0, frame = 32
 792              		@ frame_needed = 0, uses_anonymous_args = 0
 793 0000 00B5     		push	{lr}
 794              		.cfi_def_cfa_offset 4
 795              		.cfi_offset 14, -4
 796 0002 89B0     		sub	sp, sp, #36
 797              		.cfi_def_cfa_offset 40
 798 0004 0390     		str	r0, [sp, #12]
ARM GAS  C:\Users\PCHAUT~1\AppData\Local\Temp\ccxXBCq6.s 			page 15


 799 0006 0291     		str	r1, [sp, #8]
 800 0008 0192     		str	r2, [sp, #4]
 801              		.loc 4 132 0
 802 000a 204B     		ldr	r3, .L76
 803 000c 1B68     		ldr	r3, [r3]
 804 000e 0793     		str	r3, [sp, #28]
 805              		.loc 4 133 0
 806 0010 039B     		ldr	r3, [sp, #12]
 807 0012 0493     		str	r3, [sp, #16]
 808              		.loc 4 134 0
 809 0014 0023     		movs	r3, #0
 810 0016 0593     		str	r3, [sp, #20]
 811              		.loc 4 135 0
 812 0018 28E0     		b	.L69
 813              	.L73:
 814              	.LBB11:
 815              		.loc 4 136 0
 816 001a 029A     		ldr	r2, [sp, #8]
 817 001c 059B     		ldr	r3, [sp, #20]
 818 001e D018     		adds	r0, r2, r3
 819 0020 019A     		ldr	r2, [sp, #4]
 820 0022 059B     		ldr	r3, [sp, #20]
 821 0024 D31A     		subs	r3, r2, r3
 822 0026 1946     		mov	r1, r3
 823 0028 FFF7FEFF 		bl	id_split
 824 002c 0690     		str	r0, [sp, #24]
 825              		.loc 4 137 0
 826 002e 069A     		ldr	r2, [sp, #24]
 827 0030 059B     		ldr	r3, [sp, #20]
 828 0032 1344     		add	r3, r3, r2
 829 0034 019A     		ldr	r2, [sp, #4]
 830 0036 9A42     		cmp	r2, r3
 831 0038 09D9     		bls	.L70
 832              		.loc 4 138 0
 833 003a 029A     		ldr	r2, [sp, #8]
 834 003c 059B     		ldr	r3, [sp, #20]
 835 003e 1344     		add	r3, r3, r2
 836 0040 069A     		ldr	r2, [sp, #24]
 837 0042 1946     		mov	r1, r3
 838 0044 0498     		ldr	r0, [sp, #16]
 839 0046 FFF7FEFF 		bl	get_subnamespace
 840 004a 0490     		str	r0, [sp, #16]
 841 004c 09E0     		b	.L75
 842              	.L70:
 843              		.loc 4 140 0
 844 004e 029A     		ldr	r2, [sp, #8]
 845 0050 059B     		ldr	r3, [sp, #20]
 846 0052 1344     		add	r3, r3, r2
 847 0054 069A     		ldr	r2, [sp, #24]
 848 0056 1946     		mov	r1, r3
 849 0058 0498     		ldr	r0, [sp, #16]
 850 005a FFF7FEFF 		bl	get_parameter
 851 005e 0346     		mov	r3, r0
 852 0060 08E0     		b	.L72
 853              	.L75:
 854              		.loc 4 142 0
 855 0062 069A     		ldr	r2, [sp, #24]
ARM GAS  C:\Users\PCHAUT~1\AppData\Local\Temp\ccxXBCq6.s 			page 16


 856 0064 059B     		ldr	r3, [sp, #20]
 857 0066 1344     		add	r3, r3, r2
 858 0068 0133     		adds	r3, r3, #1
 859 006a 0593     		str	r3, [sp, #20]
 860              	.L69:
 861              	.LBE11:
 862              		.loc 4 135 0
 863 006c 049B     		ldr	r3, [sp, #16]
 864 006e 002B     		cmp	r3, #0
 865 0070 D3D1     		bne	.L73
 866              		.loc 4 144 0
 867 0072 0023     		movs	r3, #0
 868              	.L72:
 869              		.loc 4 145 0
 870 0074 1846     		mov	r0, r3
 871 0076 054B     		ldr	r3, .L76
 872 0078 079A     		ldr	r2, [sp, #28]
 873 007a 1B68     		ldr	r3, [r3]
 874 007c 9A42     		cmp	r2, r3
 875 007e 01D0     		beq	.L74
 876 0080 FFF7FEFF 		bl	__stack_chk_fail
 877              	.L74:
 878 0084 09B0     		add	sp, sp, #36
 879              		.cfi_def_cfa_offset 4
 880              		@ sp needed
 881 0086 5DF804FB 		ldr	pc, [sp], #4
 882              	.L77:
 883 008a 00BF     		.align	2
 884              	.L76:
 885 008c 00000000 		.word	__stack_chk_guard
 886              		.cfi_endproc
 887              	.LFE256:
 888              		.size	_parameter_find_w_id_len, .-_parameter_find_w_id_len
 889              		.section	.text.parameter_find,"ax",%progbits
 890              		.align	1
 891              		.p2align 4,,15
 892              		.global	parameter_find
 893              		.syntax unified
 894              		.thumb
 895              		.thumb_func
 896              		.fpu fpv4-sp-d16
 897              		.type	parameter_find, %function
 898              	parameter_find:
 899              	.LFB257:
 900              		.loc 4 148 0
 901              		.cfi_startproc
 902              		@ args = 0, pretend = 0, frame = 16
 903              		@ frame_needed = 0, uses_anonymous_args = 0
 904 0000 00B5     		push	{lr}
 905              		.cfi_def_cfa_offset 4
 906              		.cfi_offset 14, -4
 907 0002 85B0     		sub	sp, sp, #20
 908              		.cfi_def_cfa_offset 24
 909 0004 0190     		str	r0, [sp, #4]
 910 0006 0091     		str	r1, [sp]
 911              		.loc 4 148 0
 912 0008 0B4B     		ldr	r3, .L81
ARM GAS  C:\Users\PCHAUT~1\AppData\Local\Temp\ccxXBCq6.s 			page 17


 913 000a 1B68     		ldr	r3, [r3]
 914 000c 0393     		str	r3, [sp, #12]
 915              		.loc 4 149 0
 916 000e 0098     		ldr	r0, [sp]
 917 0010 FFF7FEFF 		bl	strlen
 918 0014 0346     		mov	r3, r0
 919 0016 1A46     		mov	r2, r3
 920 0018 0099     		ldr	r1, [sp]
 921 001a 0198     		ldr	r0, [sp, #4]
 922 001c FFF7FEFF 		bl	_parameter_find_w_id_len
 923 0020 0346     		mov	r3, r0
 924              		.loc 4 150 0
 925 0022 1846     		mov	r0, r3
 926 0024 044B     		ldr	r3, .L81
 927 0026 039A     		ldr	r2, [sp, #12]
 928 0028 1B68     		ldr	r3, [r3]
 929 002a 9A42     		cmp	r2, r3
 930 002c 01D0     		beq	.L80
 931 002e FFF7FEFF 		bl	__stack_chk_fail
 932              	.L80:
 933 0032 05B0     		add	sp, sp, #20
 934              		.cfi_def_cfa_offset 4
 935              		@ sp needed
 936 0034 5DF804FB 		ldr	pc, [sp], #4
 937              	.L82:
 938              		.align	2
 939              	.L81:
 940 0038 00000000 		.word	__stack_chk_guard
 941              		.cfi_endproc
 942              	.LFE257:
 943              		.size	parameter_find, .-parameter_find
 944              		.section	.text._parameter_declare,"ax",%progbits
 945              		.align	1
 946              		.p2align 4,,15
 947              		.global	_parameter_declare
 948              		.syntax unified
 949              		.thumb
 950              		.thumb_func
 951              		.fpu fpv4-sp-d16
 952              		.type	_parameter_declare, %function
 953              	_parameter_declare:
 954              	.LFB258:
 955              		.loc 4 154 0
 956              		.cfi_startproc
 957              		@ args = 0, pretend = 0, frame = 24
 958              		@ frame_needed = 0, uses_anonymous_args = 0
 959 0000 00B5     		push	{lr}
 960              		.cfi_def_cfa_offset 4
 961              		.cfi_offset 14, -4
 962 0002 87B0     		sub	sp, sp, #28
 963              		.cfi_def_cfa_offset 32
 964 0004 0390     		str	r0, [sp, #12]
 965 0006 0291     		str	r1, [sp, #8]
 966 0008 0192     		str	r2, [sp, #4]
 967              		.loc 4 154 0
 968 000a 134B     		ldr	r3, .L85
 969 000c 1B68     		ldr	r3, [r3]
ARM GAS  C:\Users\PCHAUT~1\AppData\Local\Temp\ccxXBCq6.s 			page 18


 970 000e 0593     		str	r3, [sp, #20]
 971              		.loc 4 155 0
 972 0010 039B     		ldr	r3, [sp, #12]
 973 0012 019A     		ldr	r2, [sp, #4]
 974 0014 1A60     		str	r2, [r3]
 975              		.loc 4 156 0
 976 0016 039B     		ldr	r3, [sp, #12]
 977 0018 029A     		ldr	r2, [sp, #8]
 978 001a 5A60     		str	r2, [r3, #4]
 979              		.loc 4 157 0
 980 001c 039B     		ldr	r3, [sp, #12]
 981 001e 0022     		movs	r2, #0
 982 0020 1A73     		strb	r2, [r3, #12]
 983              		.loc 4 158 0
 984 0022 039B     		ldr	r3, [sp, #12]
 985 0024 0022     		movs	r2, #0
 986 0026 5A73     		strb	r2, [r3, #13]
 987              		.loc 4 159 0
 988 0028 FFF7FEFF 		bl	chSysLock
 989              		.loc 4 161 0
 990 002c 039B     		ldr	r3, [sp, #12]
 991 002e 5B68     		ldr	r3, [r3, #4]
 992 0030 5A69     		ldr	r2, [r3, #20]
 993 0032 039B     		ldr	r3, [sp, #12]
 994 0034 9A60     		str	r2, [r3, #8]
 995              		.loc 4 162 0
 996 0036 039B     		ldr	r3, [sp, #12]
 997 0038 5B68     		ldr	r3, [r3, #4]
 998 003a 039A     		ldr	r2, [sp, #12]
 999 003c 5A61     		str	r2, [r3, #20]
 1000              		.loc 4 163 0
 1001 003e FFF7FEFF 		bl	chSysUnlock
 1002              		.loc 4 164 0
 1003 0042 00BF     		nop
 1004 0044 044B     		ldr	r3, .L85
 1005 0046 059A     		ldr	r2, [sp, #20]
 1006 0048 1B68     		ldr	r3, [r3]
 1007 004a 9A42     		cmp	r2, r3
 1008 004c 01D0     		beq	.L84
 1009 004e FFF7FEFF 		bl	__stack_chk_fail
 1010              	.L84:
 1011 0052 07B0     		add	sp, sp, #28
 1012              		.cfi_def_cfa_offset 4
 1013              		@ sp needed
 1014 0054 5DF804FB 		ldr	pc, [sp], #4
 1015              	.L86:
 1016              		.align	2
 1017              	.L85:
 1018 0058 00000000 		.word	__stack_chk_guard
 1019              		.cfi_endproc
 1020              	.LFE258:
 1021              		.size	_parameter_declare, .-_parameter_declare
 1022              		.section	.text.parameter_namespace_contains_changed,"ax",%progbits
 1023              		.align	1
 1024              		.p2align 4,,15
 1025              		.global	parameter_namespace_contains_changed
 1026              		.syntax unified
ARM GAS  C:\Users\PCHAUT~1\AppData\Local\Temp\ccxXBCq6.s 			page 19


 1027              		.thumb
 1028              		.thumb_func
 1029              		.fpu fpv4-sp-d16
 1030              		.type	parameter_namespace_contains_changed, %function
 1031              	parameter_namespace_contains_changed:
 1032              	.LFB259:
 1033              		.loc 4 167 0
 1034              		.cfi_startproc
 1035              		@ args = 0, pretend = 0, frame = 16
 1036              		@ frame_needed = 0, uses_anonymous_args = 0
 1037 0000 00B5     		push	{lr}
 1038              		.cfi_def_cfa_offset 4
 1039              		.cfi_offset 14, -4
 1040 0002 85B0     		sub	sp, sp, #20
 1041              		.cfi_def_cfa_offset 24
 1042 0004 0190     		str	r0, [sp, #4]
 1043              		.loc 4 167 0
 1044 0006 0D4B     		ldr	r3, .L90
 1045 0008 1B68     		ldr	r3, [r3]
 1046 000a 0393     		str	r3, [sp, #12]
 1047              		.loc 4 168 0
 1048 000c FFF7FEFF 		bl	chSysLock
 1049              		.loc 4 169 0
 1050 0010 019B     		ldr	r3, [sp, #4]
 1051 0012 5B68     		ldr	r3, [r3, #4]
 1052 0014 0293     		str	r3, [sp, #8]
 1053              		.loc 4 170 0
 1054 0016 FFF7FEFF 		bl	chSysUnlock
 1055              		.loc 4 171 0
 1056 001a 029B     		ldr	r3, [sp, #8]
 1057 001c 002B     		cmp	r3, #0
 1058 001e 14BF     		ite	ne
 1059 0020 0123     		movne	r3, #1
 1060 0022 0023     		moveq	r3, #0
 1061 0024 DBB2     		uxtb	r3, r3
 1062              		.loc 4 172 0
 1063 0026 1846     		mov	r0, r3
 1064 0028 044B     		ldr	r3, .L90
 1065 002a 039A     		ldr	r2, [sp, #12]
 1066 002c 1B68     		ldr	r3, [r3]
 1067 002e 9A42     		cmp	r2, r3
 1068 0030 01D0     		beq	.L89
 1069 0032 FFF7FEFF 		bl	__stack_chk_fail
 1070              	.L89:
 1071 0036 05B0     		add	sp, sp, #20
 1072              		.cfi_def_cfa_offset 4
 1073              		@ sp needed
 1074 0038 5DF804FB 		ldr	pc, [sp], #4
 1075              	.L91:
 1076              		.align	2
 1077              	.L90:
 1078 003c 00000000 		.word	__stack_chk_guard
 1079              		.cfi_endproc
 1080              	.LFE259:
 1081              		.size	parameter_namespace_contains_changed, .-parameter_namespace_contains_changed
 1082              		.section	.text.parameter_changed,"ax",%progbits
 1083              		.align	1
ARM GAS  C:\Users\PCHAUT~1\AppData\Local\Temp\ccxXBCq6.s 			page 20


 1084              		.p2align 4,,15
 1085              		.global	parameter_changed
 1086              		.syntax unified
 1087              		.thumb
 1088              		.thumb_func
 1089              		.fpu fpv4-sp-d16
 1090              		.type	parameter_changed, %function
 1091              	parameter_changed:
 1092              	.LFB260:
 1093              		.loc 4 175 0
 1094              		.cfi_startproc
 1095              		@ args = 0, pretend = 0, frame = 16
 1096              		@ frame_needed = 0, uses_anonymous_args = 0
 1097 0000 00B5     		push	{lr}
 1098              		.cfi_def_cfa_offset 4
 1099              		.cfi_offset 14, -4
 1100 0002 85B0     		sub	sp, sp, #20
 1101              		.cfi_def_cfa_offset 24
 1102 0004 0190     		str	r0, [sp, #4]
 1103              		.loc 4 175 0
 1104 0006 0C4B     		ldr	r3, .L95
 1105 0008 1B68     		ldr	r3, [r3]
 1106 000a 0393     		str	r3, [sp, #12]
 1107              		.loc 4 176 0
 1108 000c FFF7FEFF 		bl	chSysLock
 1109              		.loc 4 177 0
 1110 0010 019B     		ldr	r3, [sp, #4]
 1111 0012 1B7B     		ldrb	r3, [r3, #12]
 1112 0014 8DF80B30 		strb	r3, [sp, #11]
 1113              		.loc 4 178 0
 1114 0018 FFF7FEFF 		bl	chSysUnlock
 1115              		.loc 4 179 0
 1116 001c 9DF80B30 		ldrb	r3, [sp, #11]	@ zero_extendqisi2
 1117              		.loc 4 180 0
 1118 0020 1846     		mov	r0, r3
 1119 0022 054B     		ldr	r3, .L95
 1120 0024 039A     		ldr	r2, [sp, #12]
 1121 0026 1B68     		ldr	r3, [r3]
 1122 0028 9A42     		cmp	r2, r3
 1123 002a 01D0     		beq	.L94
 1124 002c FFF7FEFF 		bl	__stack_chk_fail
 1125              	.L94:
 1126 0030 05B0     		add	sp, sp, #20
 1127              		.cfi_def_cfa_offset 4
 1128              		@ sp needed
 1129 0032 5DF804FB 		ldr	pc, [sp], #4
 1130              	.L96:
 1131 0036 00BF     		.align	2
 1132              	.L95:
 1133 0038 00000000 		.word	__stack_chk_guard
 1134              		.cfi_endproc
 1135              	.LFE260:
 1136              		.size	parameter_changed, .-parameter_changed
 1137              		.section	.text.parameter_defined,"ax",%progbits
 1138              		.align	1
 1139              		.p2align 4,,15
 1140              		.global	parameter_defined
ARM GAS  C:\Users\PCHAUT~1\AppData\Local\Temp\ccxXBCq6.s 			page 21


 1141              		.syntax unified
 1142              		.thumb
 1143              		.thumb_func
 1144              		.fpu fpv4-sp-d16
 1145              		.type	parameter_defined, %function
 1146              	parameter_defined:
 1147              	.LFB261:
 1148              		.loc 4 183 0
 1149              		.cfi_startproc
 1150              		@ args = 0, pretend = 0, frame = 16
 1151              		@ frame_needed = 0, uses_anonymous_args = 0
 1152 0000 00B5     		push	{lr}
 1153              		.cfi_def_cfa_offset 4
 1154              		.cfi_offset 14, -4
 1155 0002 85B0     		sub	sp, sp, #20
 1156              		.cfi_def_cfa_offset 24
 1157 0004 0190     		str	r0, [sp, #4]
 1158              		.loc 4 183 0
 1159 0006 0E4B     		ldr	r3, .L101
 1160 0008 1B68     		ldr	r3, [r3]
 1161 000a 0393     		str	r3, [sp, #12]
 1162              		.loc 4 184 0
 1163 000c 019B     		ldr	r3, [sp, #4]
 1164 000e 002B     		cmp	r3, #0
 1165 0010 01D1     		bne	.L98
 1166              		.loc 4 185 0
 1167 0012 0023     		movs	r3, #0
 1168 0014 09E0     		b	.L99
 1169              	.L98:
 1170              		.loc 4 187 0
 1171 0016 FFF7FEFF 		bl	chSysLock
 1172              		.loc 4 188 0
 1173 001a 019B     		ldr	r3, [sp, #4]
 1174 001c 5B7B     		ldrb	r3, [r3, #13]
 1175 001e 8DF80B30 		strb	r3, [sp, #11]
 1176              		.loc 4 189 0
 1177 0022 FFF7FEFF 		bl	chSysUnlock
 1178              		.loc 4 190 0
 1179 0026 9DF80B30 		ldrb	r3, [sp, #11]	@ zero_extendqisi2
 1180              	.L99:
 1181              		.loc 4 191 0
 1182 002a 1846     		mov	r0, r3
 1183 002c 044B     		ldr	r3, .L101
 1184 002e 039A     		ldr	r2, [sp, #12]
 1185 0030 1B68     		ldr	r3, [r3]
 1186 0032 9A42     		cmp	r2, r3
 1187 0034 01D0     		beq	.L100
 1188 0036 FFF7FEFF 		bl	__stack_chk_fail
 1189              	.L100:
 1190 003a 05B0     		add	sp, sp, #20
 1191              		.cfi_def_cfa_offset 4
 1192              		@ sp needed
 1193 003c 5DF804FB 		ldr	pc, [sp], #4
 1194              	.L102:
 1195              		.align	2
 1196              	.L101:
 1197 0040 00000000 		.word	__stack_chk_guard
ARM GAS  C:\Users\PCHAUT~1\AppData\Local\Temp\ccxXBCq6.s 			page 22


 1198              		.cfi_endproc
 1199              	.LFE261:
 1200              		.size	parameter_defined, .-parameter_defined
 1201              		.section	.text._parameter_changed_set,"ax",%progbits
 1202              		.align	1
 1203              		.p2align 4,,15
 1204              		.global	_parameter_changed_set
 1205              		.syntax unified
 1206              		.thumb
 1207              		.thumb_func
 1208              		.fpu fpv4-sp-d16
 1209              		.type	_parameter_changed_set, %function
 1210              	_parameter_changed_set:
 1211              	.LFB262:
 1212              		.loc 4 194 0
 1213              		.cfi_startproc
 1214              		@ args = 0, pretend = 0, frame = 24
 1215              		@ frame_needed = 0, uses_anonymous_args = 0
 1216 0000 00B5     		push	{lr}
 1217              		.cfi_def_cfa_offset 4
 1218              		.cfi_offset 14, -4
 1219 0002 87B0     		sub	sp, sp, #28
 1220              		.cfi_def_cfa_offset 32
 1221 0004 0190     		str	r0, [sp, #4]
 1222              		.loc 4 194 0
 1223 0006 1A4B     		ldr	r3, .L110
 1224 0008 1B68     		ldr	r3, [r3]
 1225 000a 0593     		str	r3, [sp, #20]
 1226              		.loc 4 195 0
 1227 000c FFF7FEFF 		bl	chSysLock
 1228              		.loc 4 196 0
 1229 0010 019B     		ldr	r3, [sp, #4]
 1230 0012 1B7B     		ldrb	r3, [r3, #12]
 1231 0014 8DF80F30 		strb	r3, [sp, #15]
 1232              		.loc 4 197 0
 1233 0018 019B     		ldr	r3, [sp, #4]
 1234 001a 0122     		movs	r2, #1
 1235 001c 1A73     		strb	r2, [r3, #12]
 1236              		.loc 4 198 0
 1237 001e FFF7FEFF 		bl	chSysUnlock
 1238              		.loc 4 199 0
 1239 0022 9DF80F30 		ldrb	r3, [sp, #15]	@ zero_extendqisi2
 1240 0026 002B     		cmp	r3, #0
 1241 0028 16D1     		bne	.L109
 1242              		.loc 4 204 0
 1243 002a 019B     		ldr	r3, [sp, #4]
 1244 002c 5B68     		ldr	r3, [r3, #4]
 1245 002e 0493     		str	r3, [sp, #16]
 1246              		.loc 4 205 0
 1247 0030 0BE0     		b	.L106
 1248              	.L107:
 1249              		.loc 4 206 0
 1250 0032 FFF7FEFF 		bl	chSysLock
 1251              		.loc 4 207 0
 1252 0036 049B     		ldr	r3, [sp, #16]
 1253 0038 5B68     		ldr	r3, [r3, #4]
 1254 003a 5A1C     		adds	r2, r3, #1
ARM GAS  C:\Users\PCHAUT~1\AppData\Local\Temp\ccxXBCq6.s 			page 23


 1255 003c 049B     		ldr	r3, [sp, #16]
 1256 003e 5A60     		str	r2, [r3, #4]
 1257              		.loc 4 208 0
 1258 0040 FFF7FEFF 		bl	chSysUnlock
 1259              		.loc 4 209 0
 1260 0044 049B     		ldr	r3, [sp, #16]
 1261 0046 9B68     		ldr	r3, [r3, #8]
 1262 0048 0493     		str	r3, [sp, #16]
 1263              	.L106:
 1264              		.loc 4 205 0
 1265 004a 049B     		ldr	r3, [sp, #16]
 1266 004c 002B     		cmp	r3, #0
 1267 004e F0D1     		bne	.L107
 1268              		.loc 4 211 0
 1269 0050 019B     		ldr	r3, [sp, #4]
 1270 0052 0122     		movs	r2, #1
 1271 0054 5A73     		strb	r2, [r3, #13]
 1272 0056 00E0     		b	.L103
 1273              	.L109:
 1274              		.loc 4 200 0
 1275 0058 00BF     		nop
 1276              	.L103:
 1277              		.loc 4 212 0
 1278 005a 054B     		ldr	r3, .L110
 1279 005c 059A     		ldr	r2, [sp, #20]
 1280 005e 1B68     		ldr	r3, [r3]
 1281 0060 9A42     		cmp	r2, r3
 1282 0062 01D0     		beq	.L108
 1283 0064 FFF7FEFF 		bl	__stack_chk_fail
 1284              	.L108:
 1285 0068 07B0     		add	sp, sp, #28
 1286              		.cfi_def_cfa_offset 4
 1287              		@ sp needed
 1288 006a 5DF804FB 		ldr	pc, [sp], #4
 1289              	.L111:
 1290 006e 00BF     		.align	2
 1291              	.L110:
 1292 0070 00000000 		.word	__stack_chk_guard
 1293              		.cfi_endproc
 1294              	.LFE262:
 1295              		.size	_parameter_changed_set, .-_parameter_changed_set
 1296              		.section	.text._parameter_changed_clear,"ax",%progbits
 1297              		.align	1
 1298              		.p2align 4,,15
 1299              		.global	_parameter_changed_clear
 1300              		.syntax unified
 1301              		.thumb
 1302              		.thumb_func
 1303              		.fpu fpv4-sp-d16
 1304              		.type	_parameter_changed_clear, %function
 1305              	_parameter_changed_clear:
 1306              	.LFB263:
 1307              		.loc 4 215 0
 1308              		.cfi_startproc
 1309              		@ args = 0, pretend = 0, frame = 24
 1310              		@ frame_needed = 0, uses_anonymous_args = 0
 1311 0000 00B5     		push	{lr}
ARM GAS  C:\Users\PCHAUT~1\AppData\Local\Temp\ccxXBCq6.s 			page 24


 1312              		.cfi_def_cfa_offset 4
 1313              		.cfi_offset 14, -4
 1314 0002 87B0     		sub	sp, sp, #28
 1315              		.cfi_def_cfa_offset 32
 1316 0004 0190     		str	r0, [sp, #4]
 1317              		.loc 4 215 0
 1318 0006 1A4B     		ldr	r3, .L119
 1319 0008 1B68     		ldr	r3, [r3]
 1320 000a 0593     		str	r3, [sp, #20]
 1321              		.loc 4 216 0
 1322 000c FFF7FEFF 		bl	chSysLock
 1323              		.loc 4 217 0
 1324 0010 019B     		ldr	r3, [sp, #4]
 1325 0012 1B7B     		ldrb	r3, [r3, #12]
 1326 0014 8DF80F30 		strb	r3, [sp, #15]
 1327              		.loc 4 218 0
 1328 0018 019B     		ldr	r3, [sp, #4]
 1329 001a 0022     		movs	r2, #0
 1330 001c 1A73     		strb	r2, [r3, #12]
 1331              		.loc 4 219 0
 1332 001e FFF7FEFF 		bl	chSysUnlock
 1333              		.loc 4 220 0
 1334 0022 9DF80F30 		ldrb	r3, [sp, #15]
 1335 0026 83F00103 		eor	r3, r3, #1
 1336 002a DBB2     		uxtb	r3, r3
 1337 002c 002B     		cmp	r3, #0
 1338 002e 13D1     		bne	.L118
 1339              		.loc 4 225 0
 1340 0030 019B     		ldr	r3, [sp, #4]
 1341 0032 5B68     		ldr	r3, [r3, #4]
 1342 0034 0493     		str	r3, [sp, #16]
 1343              		.loc 4 226 0
 1344 0036 0BE0     		b	.L115
 1345              	.L116:
 1346              		.loc 4 227 0
 1347 0038 FFF7FEFF 		bl	chSysLock
 1348              		.loc 4 228 0
 1349 003c 049B     		ldr	r3, [sp, #16]
 1350 003e 5B68     		ldr	r3, [r3, #4]
 1351 0040 5A1E     		subs	r2, r3, #1
 1352 0042 049B     		ldr	r3, [sp, #16]
 1353 0044 5A60     		str	r2, [r3, #4]
 1354              		.loc 4 229 0
 1355 0046 FFF7FEFF 		bl	chSysUnlock
 1356              		.loc 4 230 0
 1357 004a 049B     		ldr	r3, [sp, #16]
 1358 004c 9B68     		ldr	r3, [r3, #8]
 1359 004e 0493     		str	r3, [sp, #16]
 1360              	.L115:
 1361              		.loc 4 226 0
 1362 0050 049B     		ldr	r3, [sp, #16]
 1363 0052 002B     		cmp	r3, #0
 1364 0054 F0D1     		bne	.L116
 1365 0056 00E0     		b	.L112
 1366              	.L118:
 1367              		.loc 4 221 0
 1368 0058 00BF     		nop
ARM GAS  C:\Users\PCHAUT~1\AppData\Local\Temp\ccxXBCq6.s 			page 25


 1369              	.L112:
 1370              		.loc 4 232 0
 1371 005a 054B     		ldr	r3, .L119
 1372 005c 059A     		ldr	r2, [sp, #20]
 1373 005e 1B68     		ldr	r3, [r3]
 1374 0060 9A42     		cmp	r2, r3
 1375 0062 01D0     		beq	.L117
 1376 0064 FFF7FEFF 		bl	__stack_chk_fail
 1377              	.L117:
 1378 0068 07B0     		add	sp, sp, #28
 1379              		.cfi_def_cfa_offset 4
 1380              		@ sp needed
 1381 006a 5DF804FB 		ldr	pc, [sp], #4
 1382              	.L120:
 1383 006e 00BF     		.align	2
 1384              	.L119:
 1385 0070 00000000 		.word	__stack_chk_guard
 1386              		.cfi_endproc
 1387              	.LFE263:
 1388              		.size	_parameter_changed_clear, .-_parameter_changed_clear
 1389              		.section	.text.parameter_scalar_declare,"ax",%progbits
 1390              		.align	1
 1391              		.p2align 4,,15
 1392              		.global	parameter_scalar_declare
 1393              		.syntax unified
 1394              		.thumb
 1395              		.thumb_func
 1396              		.fpu fpv4-sp-d16
 1397              		.type	parameter_scalar_declare, %function
 1398              	parameter_scalar_declare:
 1399              	.LFB264:
 1400              		.loc 4 240 0
 1401              		.cfi_startproc
 1402              		@ args = 0, pretend = 0, frame = 24
 1403              		@ frame_needed = 0, uses_anonymous_args = 0
 1404 0000 00B5     		push	{lr}
 1405              		.cfi_def_cfa_offset 4
 1406              		.cfi_offset 14, -4
 1407 0002 87B0     		sub	sp, sp, #28
 1408              		.cfi_def_cfa_offset 32
 1409 0004 0390     		str	r0, [sp, #12]
 1410 0006 0291     		str	r1, [sp, #8]
 1411 0008 0192     		str	r2, [sp, #4]
 1412              		.loc 4 240 0
 1413 000a 0B4B     		ldr	r3, .L123
 1414 000c 1B68     		ldr	r3, [r3]
 1415 000e 0593     		str	r3, [sp, #20]
 1416              		.loc 4 241 0
 1417 0010 039B     		ldr	r3, [sp, #12]
 1418 0012 0122     		movs	r2, #1
 1419 0014 9A73     		strb	r2, [r3, #14]
 1420              		.loc 4 242 0
 1421 0016 019A     		ldr	r2, [sp, #4]
 1422 0018 0299     		ldr	r1, [sp, #8]
 1423 001a 0398     		ldr	r0, [sp, #12]
 1424 001c FFF7FEFF 		bl	_parameter_declare
 1425              		.loc 4 243 0
ARM GAS  C:\Users\PCHAUT~1\AppData\Local\Temp\ccxXBCq6.s 			page 26


 1426 0020 00BF     		nop
 1427 0022 054B     		ldr	r3, .L123
 1428 0024 059A     		ldr	r2, [sp, #20]
 1429 0026 1B68     		ldr	r3, [r3]
 1430 0028 9A42     		cmp	r2, r3
 1431 002a 01D0     		beq	.L122
 1432 002c FFF7FEFF 		bl	__stack_chk_fail
 1433              	.L122:
 1434 0030 07B0     		add	sp, sp, #28
 1435              		.cfi_def_cfa_offset 4
 1436              		@ sp needed
 1437 0032 5DF804FB 		ldr	pc, [sp], #4
 1438              	.L124:
 1439 0036 00BF     		.align	2
 1440              	.L123:
 1441 0038 00000000 		.word	__stack_chk_guard
 1442              		.cfi_endproc
 1443              	.LFE264:
 1444              		.size	parameter_scalar_declare, .-parameter_scalar_declare
 1445              		.section	.text.parameter_scalar_declare_with_default,"ax",%progbits
 1446              		.align	1
 1447              		.p2align 4,,15
 1448              		.global	parameter_scalar_declare_with_default
 1449              		.syntax unified
 1450              		.thumb
 1451              		.thumb_func
 1452              		.fpu fpv4-sp-d16
 1453              		.type	parameter_scalar_declare_with_default, %function
 1454              	parameter_scalar_declare_with_default:
 1455              	.LFB265:
 1456              		.loc 4 249 0
 1457              		.cfi_startproc
 1458              		@ args = 0, pretend = 0, frame = 24
 1459              		@ frame_needed = 0, uses_anonymous_args = 0
 1460 0000 00B5     		push	{lr}
 1461              		.cfi_def_cfa_offset 4
 1462              		.cfi_offset 14, -4
 1463 0002 87B0     		sub	sp, sp, #28
 1464              		.cfi_def_cfa_offset 32
 1465 0004 0390     		str	r0, [sp, #12]
 1466 0006 0291     		str	r1, [sp, #8]
 1467 0008 0192     		str	r2, [sp, #4]
 1468 000a 8DED000A 		vstr.32	s0, [sp]
 1469              		.loc 4 249 0
 1470 000e 0E4B     		ldr	r3, .L127
 1471 0010 1B68     		ldr	r3, [r3]
 1472 0012 0593     		str	r3, [sp, #20]
 1473              		.loc 4 250 0
 1474 0014 039B     		ldr	r3, [sp, #12]
 1475 0016 009A     		ldr	r2, [sp]	@ float
 1476 0018 1A61     		str	r2, [r3, #16]	@ float
 1477              		.loc 4 251 0
 1478 001a 039B     		ldr	r3, [sp, #12]
 1479 001c 0122     		movs	r2, #1
 1480 001e 9A73     		strb	r2, [r3, #14]
 1481              		.loc 4 252 0
 1482 0020 019A     		ldr	r2, [sp, #4]
ARM GAS  C:\Users\PCHAUT~1\AppData\Local\Temp\ccxXBCq6.s 			page 27


 1483 0022 0299     		ldr	r1, [sp, #8]
 1484 0024 0398     		ldr	r0, [sp, #12]
 1485 0026 FFF7FEFF 		bl	_parameter_declare
 1486              		.loc 4 253 0
 1487 002a 0398     		ldr	r0, [sp, #12]
 1488 002c FFF7FEFF 		bl	_parameter_changed_set
 1489              		.loc 4 254 0
 1490 0030 00BF     		nop
 1491 0032 054B     		ldr	r3, .L127
 1492 0034 059A     		ldr	r2, [sp, #20]
 1493 0036 1B68     		ldr	r3, [r3]
 1494 0038 9A42     		cmp	r2, r3
 1495 003a 01D0     		beq	.L126
 1496 003c FFF7FEFF 		bl	__stack_chk_fail
 1497              	.L126:
 1498 0040 07B0     		add	sp, sp, #28
 1499              		.cfi_def_cfa_offset 4
 1500              		@ sp needed
 1501 0042 5DF804FB 		ldr	pc, [sp], #4
 1502              	.L128:
 1503 0046 00BF     		.align	2
 1504              	.L127:
 1505 0048 00000000 		.word	__stack_chk_guard
 1506              		.cfi_endproc
 1507              	.LFE265:
 1508              		.size	parameter_scalar_declare_with_default, .-parameter_scalar_declare_with_default
 1509              		.section	.text.parameter_scalar_get,"ax",%progbits
 1510              		.align	1
 1511              		.p2align 4,,15
 1512              		.global	parameter_scalar_get
 1513              		.syntax unified
 1514              		.thumb
 1515              		.thumb_func
 1516              		.fpu fpv4-sp-d16
 1517              		.type	parameter_scalar_get, %function
 1518              	parameter_scalar_get:
 1519              	.LFB266:
 1520              		.loc 4 257 0
 1521              		.cfi_startproc
 1522              		@ args = 0, pretend = 0, frame = 16
 1523              		@ frame_needed = 0, uses_anonymous_args = 0
 1524 0000 00B5     		push	{lr}
 1525              		.cfi_def_cfa_offset 4
 1526              		.cfi_offset 14, -4
 1527 0002 85B0     		sub	sp, sp, #20
 1528              		.cfi_def_cfa_offset 24
 1529 0004 0190     		str	r0, [sp, #4]
 1530              		.loc 4 257 0
 1531 0006 0B4B     		ldr	r3, .L132
 1532 0008 1B68     		ldr	r3, [r3]
 1533 000a 0393     		str	r3, [sp, #12]
 1534              		.loc 4 258 0
 1535 000c 0198     		ldr	r0, [sp, #4]
 1536 000e FFF7FEFF 		bl	_parameter_changed_clear
 1537              		.loc 4 259 0
 1538 0012 0198     		ldr	r0, [sp, #4]
 1539 0014 FFF7FEFF 		bl	parameter_scalar_read
ARM GAS  C:\Users\PCHAUT~1\AppData\Local\Temp\ccxXBCq6.s 			page 28


 1540 0018 F0EE407A 		vmov.f32	s15, s0
 1541              		.loc 4 260 0
 1542 001c B0EE670A 		vmov.f32	s0, s15
 1543 0020 044B     		ldr	r3, .L132
 1544 0022 039A     		ldr	r2, [sp, #12]
 1545 0024 1B68     		ldr	r3, [r3]
 1546 0026 9A42     		cmp	r2, r3
 1547 0028 01D0     		beq	.L131
 1548 002a FFF7FEFF 		bl	__stack_chk_fail
 1549              	.L131:
 1550 002e 05B0     		add	sp, sp, #20
 1551              		.cfi_def_cfa_offset 4
 1552              		@ sp needed
 1553 0030 5DF804FB 		ldr	pc, [sp], #4
 1554              	.L133:
 1555              		.align	2
 1556              	.L132:
 1557 0034 00000000 		.word	__stack_chk_guard
 1558              		.cfi_endproc
 1559              	.LFE266:
 1560              		.size	parameter_scalar_get, .-parameter_scalar_get
 1561              		.section	.text.parameter_scalar_read,"ax",%progbits
 1562              		.align	1
 1563              		.p2align 4,,15
 1564              		.global	parameter_scalar_read
 1565              		.syntax unified
 1566              		.thumb
 1567              		.thumb_func
 1568              		.fpu fpv4-sp-d16
 1569              		.type	parameter_scalar_read, %function
 1570              	parameter_scalar_read:
 1571              	.LFB267:
 1572              		.loc 4 263 0
 1573              		.cfi_startproc
 1574              		@ args = 0, pretend = 0, frame = 16
 1575              		@ frame_needed = 0, uses_anonymous_args = 0
 1576 0000 00B5     		push	{lr}
 1577              		.cfi_def_cfa_offset 4
 1578              		.cfi_offset 14, -4
 1579 0002 85B0     		sub	sp, sp, #20
 1580              		.cfi_def_cfa_offset 24
 1581 0004 0190     		str	r0, [sp, #4]
 1582              		.loc 4 263 0
 1583 0006 154B     		ldr	r3, .L139
 1584 0008 1B68     		ldr	r3, [r3]
 1585 000a 0393     		str	r3, [sp, #12]
 1586              		.loc 4 264 0
 1587 000c 019B     		ldr	r3, [sp, #4]
 1588 000e 9B7B     		ldrb	r3, [r3, #14]	@ zero_extendqisi2
 1589 0010 012B     		cmp	r3, #1
 1590 0012 02D0     		beq	.L135
 1591              		.loc 4 264 0 is_stmt 0 discriminator 2
 1592 0014 1248     		ldr	r0, .L139+4
 1593 0016 FFF7FEFF 		bl	chSysHalt
 1594              	.L135:
 1595              		.loc 4 265 0 is_stmt 1
 1596 001a FFF7FEFF 		bl	chSysLock
ARM GAS  C:\Users\PCHAUT~1\AppData\Local\Temp\ccxXBCq6.s 			page 29


 1597              		.loc 4 266 0
 1598 001e 019B     		ldr	r3, [sp, #4]
 1599 0020 5B7B     		ldrb	r3, [r3, #13]	@ zero_extendqisi2
 1600 0022 83F00103 		eor	r3, r3, #1
 1601 0026 DBB2     		uxtb	r3, r3
 1602 0028 002B     		cmp	r3, #0
 1603 002a 02D0     		beq	.L136
 1604              		.loc 4 266 0 is_stmt 0 discriminator 2
 1605 002c 0C48     		ldr	r0, .L139+4
 1606 002e FFF7FEFF 		bl	chSysHalt
 1607              	.L136:
 1608              		.loc 4 267 0 is_stmt 1
 1609 0032 019B     		ldr	r3, [sp, #4]
 1610 0034 1B69     		ldr	r3, [r3, #16]	@ float
 1611 0036 0293     		str	r3, [sp, #8]	@ float
 1612              		.loc 4 268 0
 1613 0038 FFF7FEFF 		bl	chSysUnlock
 1614              		.loc 4 269 0
 1615 003c 029B     		ldr	r3, [sp, #8]	@ float
 1616 003e 07EE903A 		vmov	s15, r3
 1617              		.loc 4 270 0
 1618 0042 B0EE670A 		vmov.f32	s0, s15
 1619 0046 054B     		ldr	r3, .L139
 1620 0048 039A     		ldr	r2, [sp, #12]
 1621 004a 1B68     		ldr	r3, [r3]
 1622 004c 9A42     		cmp	r2, r3
 1623 004e 01D0     		beq	.L138
 1624 0050 FFF7FEFF 		bl	__stack_chk_fail
 1625              	.L138:
 1626 0054 05B0     		add	sp, sp, #20
 1627              		.cfi_def_cfa_offset 4
 1628              		@ sp needed
 1629 0056 5DF804FB 		ldr	pc, [sp], #4
 1630              	.L140:
 1631 005a 00BF     		.align	2
 1632              	.L139:
 1633 005c 00000000 		.word	__stack_chk_guard
 1634 0060 00000000 		.word	__func__.9069
 1635              		.cfi_endproc
 1636              	.LFE267:
 1637              		.size	parameter_scalar_read, .-parameter_scalar_read
 1638              		.section	.text.parameter_scalar_set,"ax",%progbits
 1639              		.align	1
 1640              		.p2align 4,,15
 1641              		.global	parameter_scalar_set
 1642              		.syntax unified
 1643              		.thumb
 1644              		.thumb_func
 1645              		.fpu fpv4-sp-d16
 1646              		.type	parameter_scalar_set, %function
 1647              	parameter_scalar_set:
 1648              	.LFB268:
 1649              		.loc 4 273 0
 1650              		.cfi_startproc
 1651              		@ args = 0, pretend = 0, frame = 16
 1652              		@ frame_needed = 0, uses_anonymous_args = 0
 1653 0000 00B5     		push	{lr}
ARM GAS  C:\Users\PCHAUT~1\AppData\Local\Temp\ccxXBCq6.s 			page 30


 1654              		.cfi_def_cfa_offset 4
 1655              		.cfi_offset 14, -4
 1656 0002 85B0     		sub	sp, sp, #20
 1657              		.cfi_def_cfa_offset 24
 1658 0004 0190     		str	r0, [sp, #4]
 1659 0006 8DED000A 		vstr.32	s0, [sp]
 1660              		.loc 4 273 0
 1661 000a 0F4B     		ldr	r3, .L144
 1662 000c 1B68     		ldr	r3, [r3]
 1663 000e 0393     		str	r3, [sp, #12]
 1664              		.loc 4 274 0
 1665 0010 019B     		ldr	r3, [sp, #4]
 1666 0012 9B7B     		ldrb	r3, [r3, #14]	@ zero_extendqisi2
 1667 0014 012B     		cmp	r3, #1
 1668 0016 02D0     		beq	.L142
 1669              		.loc 4 274 0 is_stmt 0 discriminator 2
 1670 0018 0C48     		ldr	r0, .L144+4
 1671 001a FFF7FEFF 		bl	chSysHalt
 1672              	.L142:
 1673              		.loc 4 275 0 is_stmt 1
 1674 001e FFF7FEFF 		bl	chSysLock
 1675              		.loc 4 276 0
 1676 0022 019B     		ldr	r3, [sp, #4]
 1677 0024 009A     		ldr	r2, [sp]	@ float
 1678 0026 1A61     		str	r2, [r3, #16]	@ float
 1679              		.loc 4 277 0
 1680 0028 FFF7FEFF 		bl	chSysUnlock
 1681              		.loc 4 278 0
 1682 002c 0198     		ldr	r0, [sp, #4]
 1683 002e FFF7FEFF 		bl	_parameter_changed_set
 1684              		.loc 4 279 0
 1685 0032 00BF     		nop
 1686 0034 044B     		ldr	r3, .L144
 1687 0036 039A     		ldr	r2, [sp, #12]
 1688 0038 1B68     		ldr	r3, [r3]
 1689 003a 9A42     		cmp	r2, r3
 1690 003c 01D0     		beq	.L143
 1691 003e FFF7FEFF 		bl	__stack_chk_fail
 1692              	.L143:
 1693 0042 05B0     		add	sp, sp, #20
 1694              		.cfi_def_cfa_offset 4
 1695              		@ sp needed
 1696 0044 5DF804FB 		ldr	pc, [sp], #4
 1697              	.L145:
 1698              		.align	2
 1699              	.L144:
 1700 0048 00000000 		.word	__stack_chk_guard
 1701 004c 00000000 		.word	__func__.9075
 1702              		.cfi_endproc
 1703              	.LFE268:
 1704              		.size	parameter_scalar_set, .-parameter_scalar_set
 1705              		.section	.text.parameter_integer_declare,"ax",%progbits
 1706              		.align	1
 1707              		.p2align 4,,15
 1708              		.global	parameter_integer_declare
 1709              		.syntax unified
 1710              		.thumb
ARM GAS  C:\Users\PCHAUT~1\AppData\Local\Temp\ccxXBCq6.s 			page 31


 1711              		.thumb_func
 1712              		.fpu fpv4-sp-d16
 1713              		.type	parameter_integer_declare, %function
 1714              	parameter_integer_declare:
 1715              	.LFB269:
 1716              		.loc 4 288 0
 1717              		.cfi_startproc
 1718              		@ args = 0, pretend = 0, frame = 24
 1719              		@ frame_needed = 0, uses_anonymous_args = 0
 1720 0000 00B5     		push	{lr}
 1721              		.cfi_def_cfa_offset 4
 1722              		.cfi_offset 14, -4
 1723 0002 87B0     		sub	sp, sp, #28
 1724              		.cfi_def_cfa_offset 32
 1725 0004 0390     		str	r0, [sp, #12]
 1726 0006 0291     		str	r1, [sp, #8]
 1727 0008 0192     		str	r2, [sp, #4]
 1728              		.loc 4 288 0
 1729 000a 0B4B     		ldr	r3, .L148
 1730 000c 1B68     		ldr	r3, [r3]
 1731 000e 0593     		str	r3, [sp, #20]
 1732              		.loc 4 289 0
 1733 0010 039B     		ldr	r3, [sp, #12]
 1734 0012 0322     		movs	r2, #3
 1735 0014 9A73     		strb	r2, [r3, #14]
 1736              		.loc 4 290 0
 1737 0016 019A     		ldr	r2, [sp, #4]
 1738 0018 0299     		ldr	r1, [sp, #8]
 1739 001a 0398     		ldr	r0, [sp, #12]
 1740 001c FFF7FEFF 		bl	_parameter_declare
 1741              		.loc 4 291 0
 1742 0020 00BF     		nop
 1743 0022 054B     		ldr	r3, .L148
 1744 0024 059A     		ldr	r2, [sp, #20]
 1745 0026 1B68     		ldr	r3, [r3]
 1746 0028 9A42     		cmp	r2, r3
 1747 002a 01D0     		beq	.L147
 1748 002c FFF7FEFF 		bl	__stack_chk_fail
 1749              	.L147:
 1750 0030 07B0     		add	sp, sp, #28
 1751              		.cfi_def_cfa_offset 4
 1752              		@ sp needed
 1753 0032 5DF804FB 		ldr	pc, [sp], #4
 1754              	.L149:
 1755 0036 00BF     		.align	2
 1756              	.L148:
 1757 0038 00000000 		.word	__stack_chk_guard
 1758              		.cfi_endproc
 1759              	.LFE269:
 1760              		.size	parameter_integer_declare, .-parameter_integer_declare
 1761              		.section	.text.parameter_integer_declare_with_default,"ax",%progbits
 1762              		.align	1
 1763              		.p2align 4,,15
 1764              		.global	parameter_integer_declare_with_default
 1765              		.syntax unified
 1766              		.thumb
 1767              		.thumb_func
ARM GAS  C:\Users\PCHAUT~1\AppData\Local\Temp\ccxXBCq6.s 			page 32


 1768              		.fpu fpv4-sp-d16
 1769              		.type	parameter_integer_declare_with_default, %function
 1770              	parameter_integer_declare_with_default:
 1771              	.LFB270:
 1772              		.loc 4 297 0
 1773              		.cfi_startproc
 1774              		@ args = 0, pretend = 0, frame = 24
 1775              		@ frame_needed = 0, uses_anonymous_args = 0
 1776 0000 00B5     		push	{lr}
 1777              		.cfi_def_cfa_offset 4
 1778              		.cfi_offset 14, -4
 1779 0002 87B0     		sub	sp, sp, #28
 1780              		.cfi_def_cfa_offset 32
 1781 0004 0390     		str	r0, [sp, #12]
 1782 0006 0291     		str	r1, [sp, #8]
 1783 0008 0192     		str	r2, [sp, #4]
 1784 000a 0093     		str	r3, [sp]
 1785              		.loc 4 297 0
 1786 000c 0D4B     		ldr	r3, .L152
 1787 000e 1B68     		ldr	r3, [r3]
 1788 0010 0593     		str	r3, [sp, #20]
 1789              		.loc 4 298 0
 1790 0012 039B     		ldr	r3, [sp, #12]
 1791 0014 009A     		ldr	r2, [sp]
 1792 0016 1A61     		str	r2, [r3, #16]
 1793              		.loc 4 299 0
 1794 0018 039B     		ldr	r3, [sp, #12]
 1795 001a 0322     		movs	r2, #3
 1796 001c 9A73     		strb	r2, [r3, #14]
 1797              		.loc 4 300 0
 1798 001e 019A     		ldr	r2, [sp, #4]
 1799 0020 0299     		ldr	r1, [sp, #8]
 1800 0022 0398     		ldr	r0, [sp, #12]
 1801 0024 FFF7FEFF 		bl	_parameter_declare
 1802              		.loc 4 301 0
 1803 0028 0398     		ldr	r0, [sp, #12]
 1804 002a FFF7FEFF 		bl	_parameter_changed_set
 1805              		.loc 4 302 0
 1806 002e 00BF     		nop
 1807 0030 044B     		ldr	r3, .L152
 1808 0032 059A     		ldr	r2, [sp, #20]
 1809 0034 1B68     		ldr	r3, [r3]
 1810 0036 9A42     		cmp	r2, r3
 1811 0038 01D0     		beq	.L151
 1812 003a FFF7FEFF 		bl	__stack_chk_fail
 1813              	.L151:
 1814 003e 07B0     		add	sp, sp, #28
 1815              		.cfi_def_cfa_offset 4
 1816              		@ sp needed
 1817 0040 5DF804FB 		ldr	pc, [sp], #4
 1818              	.L153:
 1819              		.align	2
 1820              	.L152:
 1821 0044 00000000 		.word	__stack_chk_guard
 1822              		.cfi_endproc
 1823              	.LFE270:
 1824              		.size	parameter_integer_declare_with_default, .-parameter_integer_declare_with_default
ARM GAS  C:\Users\PCHAUT~1\AppData\Local\Temp\ccxXBCq6.s 			page 33


 1825              		.section	.text.parameter_integer_get,"ax",%progbits
 1826              		.align	1
 1827              		.p2align 4,,15
 1828              		.global	parameter_integer_get
 1829              		.syntax unified
 1830              		.thumb
 1831              		.thumb_func
 1832              		.fpu fpv4-sp-d16
 1833              		.type	parameter_integer_get, %function
 1834              	parameter_integer_get:
 1835              	.LFB271:
 1836              		.loc 4 305 0
 1837              		.cfi_startproc
 1838              		@ args = 0, pretend = 0, frame = 16
 1839              		@ frame_needed = 0, uses_anonymous_args = 0
 1840 0000 00B5     		push	{lr}
 1841              		.cfi_def_cfa_offset 4
 1842              		.cfi_offset 14, -4
 1843 0002 85B0     		sub	sp, sp, #20
 1844              		.cfi_def_cfa_offset 24
 1845 0004 0190     		str	r0, [sp, #4]
 1846              		.loc 4 305 0
 1847 0006 0A4B     		ldr	r3, .L157
 1848 0008 1B68     		ldr	r3, [r3]
 1849 000a 0393     		str	r3, [sp, #12]
 1850              		.loc 4 306 0
 1851 000c 0198     		ldr	r0, [sp, #4]
 1852 000e FFF7FEFF 		bl	_parameter_changed_clear
 1853              		.loc 4 307 0
 1854 0012 0198     		ldr	r0, [sp, #4]
 1855 0014 FFF7FEFF 		bl	parameter_integer_read
 1856 0018 0346     		mov	r3, r0
 1857              		.loc 4 308 0
 1858 001a 1846     		mov	r0, r3
 1859 001c 044B     		ldr	r3, .L157
 1860 001e 039A     		ldr	r2, [sp, #12]
 1861 0020 1B68     		ldr	r3, [r3]
 1862 0022 9A42     		cmp	r2, r3
 1863 0024 01D0     		beq	.L156
 1864 0026 FFF7FEFF 		bl	__stack_chk_fail
 1865              	.L156:
 1866 002a 05B0     		add	sp, sp, #20
 1867              		.cfi_def_cfa_offset 4
 1868              		@ sp needed
 1869 002c 5DF804FB 		ldr	pc, [sp], #4
 1870              	.L158:
 1871              		.align	2
 1872              	.L157:
 1873 0030 00000000 		.word	__stack_chk_guard
 1874              		.cfi_endproc
 1875              	.LFE271:
 1876              		.size	parameter_integer_get, .-parameter_integer_get
 1877              		.section	.text.parameter_integer_read,"ax",%progbits
 1878              		.align	1
 1879              		.p2align 4,,15
 1880              		.global	parameter_integer_read
 1881              		.syntax unified
ARM GAS  C:\Users\PCHAUT~1\AppData\Local\Temp\ccxXBCq6.s 			page 34


 1882              		.thumb
 1883              		.thumb_func
 1884              		.fpu fpv4-sp-d16
 1885              		.type	parameter_integer_read, %function
 1886              	parameter_integer_read:
 1887              	.LFB272:
 1888              		.loc 4 311 0
 1889              		.cfi_startproc
 1890              		@ args = 0, pretend = 0, frame = 16
 1891              		@ frame_needed = 0, uses_anonymous_args = 0
 1892 0000 00B5     		push	{lr}
 1893              		.cfi_def_cfa_offset 4
 1894              		.cfi_offset 14, -4
 1895 0002 85B0     		sub	sp, sp, #20
 1896              		.cfi_def_cfa_offset 24
 1897 0004 0190     		str	r0, [sp, #4]
 1898              		.loc 4 311 0
 1899 0006 134B     		ldr	r3, .L164
 1900 0008 1B68     		ldr	r3, [r3]
 1901 000a 0393     		str	r3, [sp, #12]
 1902              		.loc 4 312 0
 1903 000c 019B     		ldr	r3, [sp, #4]
 1904 000e 9B7B     		ldrb	r3, [r3, #14]	@ zero_extendqisi2
 1905 0010 032B     		cmp	r3, #3
 1906 0012 02D0     		beq	.L160
 1907              		.loc 4 312 0 is_stmt 0 discriminator 2
 1908 0014 1048     		ldr	r0, .L164+4
 1909 0016 FFF7FEFF 		bl	chSysHalt
 1910              	.L160:
 1911              		.loc 4 313 0 is_stmt 1
 1912 001a FFF7FEFF 		bl	chSysLock
 1913              		.loc 4 314 0
 1914 001e 019B     		ldr	r3, [sp, #4]
 1915 0020 5B7B     		ldrb	r3, [r3, #13]	@ zero_extendqisi2
 1916 0022 83F00103 		eor	r3, r3, #1
 1917 0026 DBB2     		uxtb	r3, r3
 1918 0028 002B     		cmp	r3, #0
 1919 002a 02D0     		beq	.L161
 1920              		.loc 4 314 0 is_stmt 0 discriminator 2
 1921 002c 0A48     		ldr	r0, .L164+4
 1922 002e FFF7FEFF 		bl	chSysHalt
 1923              	.L161:
 1924              		.loc 4 315 0 is_stmt 1
 1925 0032 019B     		ldr	r3, [sp, #4]
 1926 0034 1B69     		ldr	r3, [r3, #16]
 1927 0036 0293     		str	r3, [sp, #8]
 1928              		.loc 4 316 0
 1929 0038 FFF7FEFF 		bl	chSysUnlock
 1930              		.loc 4 317 0
 1931 003c 029B     		ldr	r3, [sp, #8]
 1932              		.loc 4 318 0
 1933 003e 1846     		mov	r0, r3
 1934 0040 044B     		ldr	r3, .L164
 1935 0042 039A     		ldr	r2, [sp, #12]
 1936 0044 1B68     		ldr	r3, [r3]
 1937 0046 9A42     		cmp	r2, r3
 1938 0048 01D0     		beq	.L163
ARM GAS  C:\Users\PCHAUT~1\AppData\Local\Temp\ccxXBCq6.s 			page 35


 1939 004a FFF7FEFF 		bl	__stack_chk_fail
 1940              	.L163:
 1941 004e 05B0     		add	sp, sp, #20
 1942              		.cfi_def_cfa_offset 4
 1943              		@ sp needed
 1944 0050 5DF804FB 		ldr	pc, [sp], #4
 1945              	.L165:
 1946              		.align	2
 1947              	.L164:
 1948 0054 00000000 		.word	__stack_chk_guard
 1949 0058 00000000 		.word	__func__.9093
 1950              		.cfi_endproc
 1951              	.LFE272:
 1952              		.size	parameter_integer_read, .-parameter_integer_read
 1953              		.section	.text.parameter_integer_set,"ax",%progbits
 1954              		.align	1
 1955              		.p2align 4,,15
 1956              		.global	parameter_integer_set
 1957              		.syntax unified
 1958              		.thumb
 1959              		.thumb_func
 1960              		.fpu fpv4-sp-d16
 1961              		.type	parameter_integer_set, %function
 1962              	parameter_integer_set:
 1963              	.LFB273:
 1964              		.loc 4 321 0
 1965              		.cfi_startproc
 1966              		@ args = 0, pretend = 0, frame = 16
 1967              		@ frame_needed = 0, uses_anonymous_args = 0
 1968 0000 00B5     		push	{lr}
 1969              		.cfi_def_cfa_offset 4
 1970              		.cfi_offset 14, -4
 1971 0002 85B0     		sub	sp, sp, #20
 1972              		.cfi_def_cfa_offset 24
 1973 0004 0190     		str	r0, [sp, #4]
 1974 0006 0091     		str	r1, [sp]
 1975              		.loc 4 321 0
 1976 0008 0F4B     		ldr	r3, .L169
 1977 000a 1B68     		ldr	r3, [r3]
 1978 000c 0393     		str	r3, [sp, #12]
 1979              		.loc 4 322 0
 1980 000e 019B     		ldr	r3, [sp, #4]
 1981 0010 9B7B     		ldrb	r3, [r3, #14]	@ zero_extendqisi2
 1982 0012 032B     		cmp	r3, #3
 1983 0014 02D0     		beq	.L167
 1984              		.loc 4 322 0 is_stmt 0 discriminator 2
 1985 0016 0D48     		ldr	r0, .L169+4
 1986 0018 FFF7FEFF 		bl	chSysHalt
 1987              	.L167:
 1988              		.loc 4 323 0 is_stmt 1
 1989 001c FFF7FEFF 		bl	chSysLock
 1990              		.loc 4 324 0
 1991 0020 019B     		ldr	r3, [sp, #4]
 1992 0022 009A     		ldr	r2, [sp]
 1993 0024 1A61     		str	r2, [r3, #16]
 1994              		.loc 4 325 0
 1995 0026 FFF7FEFF 		bl	chSysUnlock
ARM GAS  C:\Users\PCHAUT~1\AppData\Local\Temp\ccxXBCq6.s 			page 36


 1996              		.loc 4 326 0
 1997 002a 0198     		ldr	r0, [sp, #4]
 1998 002c FFF7FEFF 		bl	_parameter_changed_set
 1999              		.loc 4 327 0
 2000 0030 00BF     		nop
 2001 0032 054B     		ldr	r3, .L169
 2002 0034 039A     		ldr	r2, [sp, #12]
 2003 0036 1B68     		ldr	r3, [r3]
 2004 0038 9A42     		cmp	r2, r3
 2005 003a 01D0     		beq	.L168
 2006 003c FFF7FEFF 		bl	__stack_chk_fail
 2007              	.L168:
 2008 0040 05B0     		add	sp, sp, #20
 2009              		.cfi_def_cfa_offset 4
 2010              		@ sp needed
 2011 0042 5DF804FB 		ldr	pc, [sp], #4
 2012              	.L170:
 2013 0046 00BF     		.align	2
 2014              	.L169:
 2015 0048 00000000 		.word	__stack_chk_guard
 2016 004c 00000000 		.word	__func__.9099
 2017              		.cfi_endproc
 2018              	.LFE273:
 2019              		.size	parameter_integer_set, .-parameter_integer_set
 2020              		.section	.text.parameter_boolean_declare,"ax",%progbits
 2021              		.align	1
 2022              		.p2align 4,,15
 2023              		.global	parameter_boolean_declare
 2024              		.syntax unified
 2025              		.thumb
 2026              		.thumb_func
 2027              		.fpu fpv4-sp-d16
 2028              		.type	parameter_boolean_declare, %function
 2029              	parameter_boolean_declare:
 2030              	.LFB274:
 2031              		.loc 4 332 0
 2032              		.cfi_startproc
 2033              		@ args = 0, pretend = 0, frame = 24
 2034              		@ frame_needed = 0, uses_anonymous_args = 0
 2035 0000 00B5     		push	{lr}
 2036              		.cfi_def_cfa_offset 4
 2037              		.cfi_offset 14, -4
 2038 0002 87B0     		sub	sp, sp, #28
 2039              		.cfi_def_cfa_offset 32
 2040 0004 0390     		str	r0, [sp, #12]
 2041 0006 0291     		str	r1, [sp, #8]
 2042 0008 0192     		str	r2, [sp, #4]
 2043              		.loc 4 332 0
 2044 000a 0B4B     		ldr	r3, .L173
 2045 000c 1B68     		ldr	r3, [r3]
 2046 000e 0593     		str	r3, [sp, #20]
 2047              		.loc 4 333 0
 2048 0010 039B     		ldr	r3, [sp, #12]
 2049 0012 0222     		movs	r2, #2
 2050 0014 9A73     		strb	r2, [r3, #14]
 2051              		.loc 4 334 0
 2052 0016 019A     		ldr	r2, [sp, #4]
ARM GAS  C:\Users\PCHAUT~1\AppData\Local\Temp\ccxXBCq6.s 			page 37


 2053 0018 0299     		ldr	r1, [sp, #8]
 2054 001a 0398     		ldr	r0, [sp, #12]
 2055 001c FFF7FEFF 		bl	_parameter_declare
 2056              		.loc 4 335 0
 2057 0020 00BF     		nop
 2058 0022 054B     		ldr	r3, .L173
 2059 0024 059A     		ldr	r2, [sp, #20]
 2060 0026 1B68     		ldr	r3, [r3]
 2061 0028 9A42     		cmp	r2, r3
 2062 002a 01D0     		beq	.L172
 2063 002c FFF7FEFF 		bl	__stack_chk_fail
 2064              	.L172:
 2065 0030 07B0     		add	sp, sp, #28
 2066              		.cfi_def_cfa_offset 4
 2067              		@ sp needed
 2068 0032 5DF804FB 		ldr	pc, [sp], #4
 2069              	.L174:
 2070 0036 00BF     		.align	2
 2071              	.L173:
 2072 0038 00000000 		.word	__stack_chk_guard
 2073              		.cfi_endproc
 2074              	.LFE274:
 2075              		.size	parameter_boolean_declare, .-parameter_boolean_declare
 2076              		.section	.text.parameter_boolean_declare_with_default,"ax",%progbits
 2077              		.align	1
 2078              		.p2align 4,,15
 2079              		.global	parameter_boolean_declare_with_default
 2080              		.syntax unified
 2081              		.thumb
 2082              		.thumb_func
 2083              		.fpu fpv4-sp-d16
 2084              		.type	parameter_boolean_declare_with_default, %function
 2085              	parameter_boolean_declare_with_default:
 2086              	.LFB275:
 2087              		.loc 4 341 0
 2088              		.cfi_startproc
 2089              		@ args = 0, pretend = 0, frame = 24
 2090              		@ frame_needed = 0, uses_anonymous_args = 0
 2091 0000 00B5     		push	{lr}
 2092              		.cfi_def_cfa_offset 4
 2093              		.cfi_offset 14, -4
 2094 0002 87B0     		sub	sp, sp, #28
 2095              		.cfi_def_cfa_offset 32
 2096 0004 0390     		str	r0, [sp, #12]
 2097 0006 0291     		str	r1, [sp, #8]
 2098 0008 0192     		str	r2, [sp, #4]
 2099 000a 8DF80330 		strb	r3, [sp, #3]
 2100              		.loc 4 341 0
 2101 000e 0E4B     		ldr	r3, .L177
 2102 0010 1B68     		ldr	r3, [r3]
 2103 0012 0593     		str	r3, [sp, #20]
 2104              		.loc 4 342 0
 2105 0014 039B     		ldr	r3, [sp, #12]
 2106 0016 9DF80320 		ldrb	r2, [sp, #3]
 2107 001a 1A74     		strb	r2, [r3, #16]
 2108              		.loc 4 343 0
 2109 001c 039B     		ldr	r3, [sp, #12]
ARM GAS  C:\Users\PCHAUT~1\AppData\Local\Temp\ccxXBCq6.s 			page 38


 2110 001e 0222     		movs	r2, #2
 2111 0020 9A73     		strb	r2, [r3, #14]
 2112              		.loc 4 344 0
 2113 0022 019A     		ldr	r2, [sp, #4]
 2114 0024 0299     		ldr	r1, [sp, #8]
 2115 0026 0398     		ldr	r0, [sp, #12]
 2116 0028 FFF7FEFF 		bl	_parameter_declare
 2117              		.loc 4 345 0
 2118 002c 0398     		ldr	r0, [sp, #12]
 2119 002e FFF7FEFF 		bl	_parameter_changed_set
 2120              		.loc 4 346 0
 2121 0032 00BF     		nop
 2122 0034 044B     		ldr	r3, .L177
 2123 0036 059A     		ldr	r2, [sp, #20]
 2124 0038 1B68     		ldr	r3, [r3]
 2125 003a 9A42     		cmp	r2, r3
 2126 003c 01D0     		beq	.L176
 2127 003e FFF7FEFF 		bl	__stack_chk_fail
 2128              	.L176:
 2129 0042 07B0     		add	sp, sp, #28
 2130              		.cfi_def_cfa_offset 4
 2131              		@ sp needed
 2132 0044 5DF804FB 		ldr	pc, [sp], #4
 2133              	.L178:
 2134              		.align	2
 2135              	.L177:
 2136 0048 00000000 		.word	__stack_chk_guard
 2137              		.cfi_endproc
 2138              	.LFE275:
 2139              		.size	parameter_boolean_declare_with_default, .-parameter_boolean_declare_with_default
 2140              		.section	.text.parameter_boolean_set,"ax",%progbits
 2141              		.align	1
 2142              		.p2align 4,,15
 2143              		.global	parameter_boolean_set
 2144              		.syntax unified
 2145              		.thumb
 2146              		.thumb_func
 2147              		.fpu fpv4-sp-d16
 2148              		.type	parameter_boolean_set, %function
 2149              	parameter_boolean_set:
 2150              	.LFB276:
 2151              		.loc 4 349 0
 2152              		.cfi_startproc
 2153              		@ args = 0, pretend = 0, frame = 16
 2154              		@ frame_needed = 0, uses_anonymous_args = 0
 2155 0000 00B5     		push	{lr}
 2156              		.cfi_def_cfa_offset 4
 2157              		.cfi_offset 14, -4
 2158 0002 85B0     		sub	sp, sp, #20
 2159              		.cfi_def_cfa_offset 24
 2160 0004 0190     		str	r0, [sp, #4]
 2161 0006 0B46     		mov	r3, r1
 2162 0008 8DF80330 		strb	r3, [sp, #3]
 2163              		.loc 4 349 0
 2164 000c 0F4B     		ldr	r3, .L182
 2165 000e 1B68     		ldr	r3, [r3]
 2166 0010 0393     		str	r3, [sp, #12]
ARM GAS  C:\Users\PCHAUT~1\AppData\Local\Temp\ccxXBCq6.s 			page 39


 2167              		.loc 4 350 0
 2168 0012 019B     		ldr	r3, [sp, #4]
 2169 0014 9B7B     		ldrb	r3, [r3, #14]	@ zero_extendqisi2
 2170 0016 022B     		cmp	r3, #2
 2171 0018 02D0     		beq	.L180
 2172              		.loc 4 350 0 is_stmt 0 discriminator 2
 2173 001a 0D48     		ldr	r0, .L182+4
 2174 001c FFF7FEFF 		bl	chSysHalt
 2175              	.L180:
 2176              		.loc 4 352 0 is_stmt 1
 2177 0020 FFF7FEFF 		bl	chSysLock
 2178              		.loc 4 353 0
 2179 0024 019B     		ldr	r3, [sp, #4]
 2180 0026 9DF80320 		ldrb	r2, [sp, #3]
 2181 002a 1A74     		strb	r2, [r3, #16]
 2182              		.loc 4 354 0
 2183 002c FFF7FEFF 		bl	chSysUnlock
 2184              		.loc 4 355 0
 2185 0030 0198     		ldr	r0, [sp, #4]
 2186 0032 FFF7FEFF 		bl	_parameter_changed_set
 2187              		.loc 4 356 0
 2188 0036 00BF     		nop
 2189 0038 044B     		ldr	r3, .L182
 2190 003a 039A     		ldr	r2, [sp, #12]
 2191 003c 1B68     		ldr	r3, [r3]
 2192 003e 9A42     		cmp	r2, r3
 2193 0040 01D0     		beq	.L181
 2194 0042 FFF7FEFF 		bl	__stack_chk_fail
 2195              	.L181:
 2196 0046 05B0     		add	sp, sp, #20
 2197              		.cfi_def_cfa_offset 4
 2198              		@ sp needed
 2199 0048 5DF804FB 		ldr	pc, [sp], #4
 2200              	.L183:
 2201              		.align	2
 2202              	.L182:
 2203 004c 00000000 		.word	__stack_chk_guard
 2204 0050 00000000 		.word	__func__.9115
 2205              		.cfi_endproc
 2206              	.LFE276:
 2207              		.size	parameter_boolean_set, .-parameter_boolean_set
 2208              		.section	.text.parameter_boolean_get,"ax",%progbits
 2209              		.align	1
 2210              		.p2align 4,,15
 2211              		.global	parameter_boolean_get
 2212              		.syntax unified
 2213              		.thumb
 2214              		.thumb_func
 2215              		.fpu fpv4-sp-d16
 2216              		.type	parameter_boolean_get, %function
 2217              	parameter_boolean_get:
 2218              	.LFB277:
 2219              		.loc 4 359 0
 2220              		.cfi_startproc
 2221              		@ args = 0, pretend = 0, frame = 16
 2222              		@ frame_needed = 0, uses_anonymous_args = 0
 2223 0000 00B5     		push	{lr}
ARM GAS  C:\Users\PCHAUT~1\AppData\Local\Temp\ccxXBCq6.s 			page 40


 2224              		.cfi_def_cfa_offset 4
 2225              		.cfi_offset 14, -4
 2226 0002 85B0     		sub	sp, sp, #20
 2227              		.cfi_def_cfa_offset 24
 2228 0004 0190     		str	r0, [sp, #4]
 2229              		.loc 4 359 0
 2230 0006 0A4B     		ldr	r3, .L187
 2231 0008 1B68     		ldr	r3, [r3]
 2232 000a 0393     		str	r3, [sp, #12]
 2233              		.loc 4 360 0
 2234 000c 0198     		ldr	r0, [sp, #4]
 2235 000e FFF7FEFF 		bl	_parameter_changed_clear
 2236              		.loc 4 361 0
 2237 0012 0198     		ldr	r0, [sp, #4]
 2238 0014 FFF7FEFF 		bl	parameter_boolean_read
 2239 0018 0346     		mov	r3, r0
 2240              		.loc 4 362 0
 2241 001a 1846     		mov	r0, r3
 2242 001c 044B     		ldr	r3, .L187
 2243 001e 039A     		ldr	r2, [sp, #12]
 2244 0020 1B68     		ldr	r3, [r3]
 2245 0022 9A42     		cmp	r2, r3
 2246 0024 01D0     		beq	.L186
 2247 0026 FFF7FEFF 		bl	__stack_chk_fail
 2248              	.L186:
 2249 002a 05B0     		add	sp, sp, #20
 2250              		.cfi_def_cfa_offset 4
 2251              		@ sp needed
 2252 002c 5DF804FB 		ldr	pc, [sp], #4
 2253              	.L188:
 2254              		.align	2
 2255              	.L187:
 2256 0030 00000000 		.word	__stack_chk_guard
 2257              		.cfi_endproc
 2258              	.LFE277:
 2259              		.size	parameter_boolean_get, .-parameter_boolean_get
 2260              		.section	.text.parameter_boolean_read,"ax",%progbits
 2261              		.align	1
 2262              		.p2align 4,,15
 2263              		.global	parameter_boolean_read
 2264              		.syntax unified
 2265              		.thumb
 2266              		.thumb_func
 2267              		.fpu fpv4-sp-d16
 2268              		.type	parameter_boolean_read, %function
 2269              	parameter_boolean_read:
 2270              	.LFB278:
 2271              		.loc 4 365 0
 2272              		.cfi_startproc
 2273              		@ args = 0, pretend = 0, frame = 16
 2274              		@ frame_needed = 0, uses_anonymous_args = 0
 2275 0000 00B5     		push	{lr}
 2276              		.cfi_def_cfa_offset 4
 2277              		.cfi_offset 14, -4
 2278 0002 85B0     		sub	sp, sp, #20
 2279              		.cfi_def_cfa_offset 24
 2280 0004 0190     		str	r0, [sp, #4]
ARM GAS  C:\Users\PCHAUT~1\AppData\Local\Temp\ccxXBCq6.s 			page 41


 2281              		.loc 4 365 0
 2282 0006 144B     		ldr	r3, .L194
 2283 0008 1B68     		ldr	r3, [r3]
 2284 000a 0393     		str	r3, [sp, #12]
 2285              		.loc 4 366 0
 2286 000c 019B     		ldr	r3, [sp, #4]
 2287 000e 9B7B     		ldrb	r3, [r3, #14]	@ zero_extendqisi2
 2288 0010 022B     		cmp	r3, #2
 2289 0012 02D0     		beq	.L190
 2290              		.loc 4 366 0 is_stmt 0 discriminator 2
 2291 0014 1148     		ldr	r0, .L194+4
 2292 0016 FFF7FEFF 		bl	chSysHalt
 2293              	.L190:
 2294              		.loc 4 367 0 is_stmt 1
 2295 001a FFF7FEFF 		bl	chSysLock
 2296              		.loc 4 368 0
 2297 001e 019B     		ldr	r3, [sp, #4]
 2298 0020 5B7B     		ldrb	r3, [r3, #13]	@ zero_extendqisi2
 2299 0022 83F00103 		eor	r3, r3, #1
 2300 0026 DBB2     		uxtb	r3, r3
 2301 0028 002B     		cmp	r3, #0
 2302 002a 02D0     		beq	.L191
 2303              		.loc 4 368 0 is_stmt 0 discriminator 2
 2304 002c 0B48     		ldr	r0, .L194+4
 2305 002e FFF7FEFF 		bl	chSysHalt
 2306              	.L191:
 2307              		.loc 4 369 0 is_stmt 1
 2308 0032 019B     		ldr	r3, [sp, #4]
 2309 0034 1B7C     		ldrb	r3, [r3, #16]
 2310 0036 8DF80B30 		strb	r3, [sp, #11]
 2311              		.loc 4 370 0
 2312 003a FFF7FEFF 		bl	chSysUnlock
 2313              		.loc 4 371 0
 2314 003e 9DF80B30 		ldrb	r3, [sp, #11]	@ zero_extendqisi2
 2315              		.loc 4 372 0
 2316 0042 1846     		mov	r0, r3
 2317 0044 044B     		ldr	r3, .L194
 2318 0046 039A     		ldr	r2, [sp, #12]
 2319 0048 1B68     		ldr	r3, [r3]
 2320 004a 9A42     		cmp	r2, r3
 2321 004c 01D0     		beq	.L193
 2322 004e FFF7FEFF 		bl	__stack_chk_fail
 2323              	.L193:
 2324 0052 05B0     		add	sp, sp, #20
 2325              		.cfi_def_cfa_offset 4
 2326              		@ sp needed
 2327 0054 5DF804FB 		ldr	pc, [sp], #4
 2328              	.L195:
 2329              		.align	2
 2330              	.L194:
 2331 0058 00000000 		.word	__stack_chk_guard
 2332 005c 00000000 		.word	__func__.9122
 2333              		.cfi_endproc
 2334              	.LFE278:
 2335              		.size	parameter_boolean_read, .-parameter_boolean_read
 2336              		.section	.text.parameter_vector_declare,"ax",%progbits
 2337              		.align	1
ARM GAS  C:\Users\PCHAUT~1\AppData\Local\Temp\ccxXBCq6.s 			page 42


 2338              		.p2align 4,,15
 2339              		.global	parameter_vector_declare
 2340              		.syntax unified
 2341              		.thumb
 2342              		.thumb_func
 2343              		.fpu fpv4-sp-d16
 2344              		.type	parameter_vector_declare, %function
 2345              	parameter_vector_declare:
 2346              	.LFB279:
 2347              		.loc 4 381 0
 2348              		.cfi_startproc
 2349              		@ args = 4, pretend = 0, frame = 32
 2350              		@ frame_needed = 0, uses_anonymous_args = 0
 2351 0000 00B5     		push	{lr}
 2352              		.cfi_def_cfa_offset 4
 2353              		.cfi_offset 14, -4
 2354 0002 89B0     		sub	sp, sp, #36
 2355              		.cfi_def_cfa_offset 40
 2356 0004 0590     		str	r0, [sp, #20]
 2357 0006 0491     		str	r1, [sp, #16]
 2358 0008 0392     		str	r2, [sp, #12]
 2359 000a 0293     		str	r3, [sp, #8]
 2360 000c BDF82830 		ldrh	r3, [sp, #40]	@ movhi
 2361 0010 ADF80630 		strh	r3, [sp, #6]	@ movhi
 2362              		.loc 4 381 0
 2363 0014 0E4B     		ldr	r3, .L198
 2364 0016 1B68     		ldr	r3, [r3]
 2365 0018 0793     		str	r3, [sp, #28]
 2366              		.loc 4 382 0
 2367 001a 059B     		ldr	r3, [sp, #20]
 2368 001c 0522     		movs	r2, #5
 2369 001e 9A73     		strb	r2, [r3, #14]
 2370              		.loc 4 383 0
 2371 0020 059B     		ldr	r3, [sp, #20]
 2372 0022 029A     		ldr	r2, [sp, #8]
 2373 0024 1A61     		str	r2, [r3, #16]
 2374              		.loc 4 384 0
 2375 0026 059B     		ldr	r3, [sp, #20]
 2376 0028 BDF80620 		ldrh	r2, [sp, #6]	@ movhi
 2377 002c DA82     		strh	r2, [r3, #22]	@ movhi
 2378              		.loc 4 385 0
 2379 002e 039A     		ldr	r2, [sp, #12]
 2380 0030 0499     		ldr	r1, [sp, #16]
 2381 0032 0598     		ldr	r0, [sp, #20]
 2382 0034 FFF7FEFF 		bl	_parameter_declare
 2383              		.loc 4 386 0
 2384 0038 00BF     		nop
 2385 003a 054B     		ldr	r3, .L198
 2386 003c 079A     		ldr	r2, [sp, #28]
 2387 003e 1B68     		ldr	r3, [r3]
 2388 0040 9A42     		cmp	r2, r3
 2389 0042 01D0     		beq	.L197
 2390 0044 FFF7FEFF 		bl	__stack_chk_fail
 2391              	.L197:
 2392 0048 09B0     		add	sp, sp, #36
 2393              		.cfi_def_cfa_offset 4
 2394              		@ sp needed
ARM GAS  C:\Users\PCHAUT~1\AppData\Local\Temp\ccxXBCq6.s 			page 43


 2395 004a 5DF804FB 		ldr	pc, [sp], #4
 2396              	.L199:
 2397 004e 00BF     		.align	2
 2398              	.L198:
 2399 0050 00000000 		.word	__stack_chk_guard
 2400              		.cfi_endproc
 2401              	.LFE279:
 2402              		.size	parameter_vector_declare, .-parameter_vector_declare
 2403              		.section	.text.parameter_vector_declare_with_default,"ax",%progbits
 2404              		.align	1
 2405              		.p2align 4,,15
 2406              		.global	parameter_vector_declare_with_default
 2407              		.syntax unified
 2408              		.thumb
 2409              		.thumb_func
 2410              		.fpu fpv4-sp-d16
 2411              		.type	parameter_vector_declare_with_default, %function
 2412              	parameter_vector_declare_with_default:
 2413              	.LFB280:
 2414              		.loc 4 393 0
 2415              		.cfi_startproc
 2416              		@ args = 4, pretend = 0, frame = 32
 2417              		@ frame_needed = 0, uses_anonymous_args = 0
 2418 0000 00B5     		push	{lr}
 2419              		.cfi_def_cfa_offset 4
 2420              		.cfi_offset 14, -4
 2421 0002 8BB0     		sub	sp, sp, #44
 2422              		.cfi_def_cfa_offset 48
 2423 0004 0790     		str	r0, [sp, #28]
 2424 0006 0691     		str	r1, [sp, #24]
 2425 0008 0592     		str	r2, [sp, #20]
 2426 000a 0493     		str	r3, [sp, #16]
 2427 000c BDF83030 		ldrh	r3, [sp, #48]	@ movhi
 2428 0010 ADF80E30 		strh	r3, [sp, #14]	@ movhi
 2429              		.loc 4 393 0
 2430 0014 0C4B     		ldr	r3, .L202
 2431 0016 1B68     		ldr	r3, [r3]
 2432 0018 0993     		str	r3, [sp, #36]
 2433              		.loc 4 394 0
 2434 001a BDF80E30 		ldrh	r3, [sp, #14]
 2435 001e 0093     		str	r3, [sp]
 2436 0020 049B     		ldr	r3, [sp, #16]
 2437 0022 059A     		ldr	r2, [sp, #20]
 2438 0024 0699     		ldr	r1, [sp, #24]
 2439 0026 0798     		ldr	r0, [sp, #28]
 2440 0028 FFF7FEFF 		bl	parameter_vector_declare
 2441              		.loc 4 395 0
 2442 002c 0798     		ldr	r0, [sp, #28]
 2443 002e FFF7FEFF 		bl	_parameter_changed_set
 2444              		.loc 4 396 0
 2445 0032 00BF     		nop
 2446 0034 044B     		ldr	r3, .L202
 2447 0036 099A     		ldr	r2, [sp, #36]
 2448 0038 1B68     		ldr	r3, [r3]
 2449 003a 9A42     		cmp	r2, r3
 2450 003c 01D0     		beq	.L201
 2451 003e FFF7FEFF 		bl	__stack_chk_fail
ARM GAS  C:\Users\PCHAUT~1\AppData\Local\Temp\ccxXBCq6.s 			page 44


 2452              	.L201:
 2453 0042 0BB0     		add	sp, sp, #44
 2454              		.cfi_def_cfa_offset 4
 2455              		@ sp needed
 2456 0044 5DF804FB 		ldr	pc, [sp], #4
 2457              	.L203:
 2458              		.align	2
 2459              	.L202:
 2460 0048 00000000 		.word	__stack_chk_guard
 2461              		.cfi_endproc
 2462              	.LFE280:
 2463              		.size	parameter_vector_declare_with_default, .-parameter_vector_declare_with_default
 2464              		.section	.text.parameter_vector_dim,"ax",%progbits
 2465              		.align	1
 2466              		.p2align 4,,15
 2467              		.global	parameter_vector_dim
 2468              		.syntax unified
 2469              		.thumb
 2470              		.thumb_func
 2471              		.fpu fpv4-sp-d16
 2472              		.type	parameter_vector_dim, %function
 2473              	parameter_vector_dim:
 2474              	.LFB281:
 2475              		.loc 4 399 0
 2476              		.cfi_startproc
 2477              		@ args = 0, pretend = 0, frame = 16
 2478              		@ frame_needed = 0, uses_anonymous_args = 0
 2479 0000 00B5     		push	{lr}
 2480              		.cfi_def_cfa_offset 4
 2481              		.cfi_offset 14, -4
 2482 0002 85B0     		sub	sp, sp, #20
 2483              		.cfi_def_cfa_offset 24
 2484 0004 0190     		str	r0, [sp, #4]
 2485              		.loc 4 399 0
 2486 0006 0B4B     		ldr	r3, .L208
 2487 0008 1B68     		ldr	r3, [r3]
 2488 000a 0393     		str	r3, [sp, #12]
 2489              		.loc 4 400 0
 2490 000c 019B     		ldr	r3, [sp, #4]
 2491 000e 9B7B     		ldrb	r3, [r3, #14]	@ zero_extendqisi2
 2492 0010 052B     		cmp	r3, #5
 2493 0012 02D0     		beq	.L205
 2494              		.loc 4 400 0 is_stmt 0 discriminator 2
 2495 0014 0848     		ldr	r0, .L208+4
 2496 0016 FFF7FEFF 		bl	chSysHalt
 2497              	.L205:
 2498              		.loc 4 401 0 is_stmt 1
 2499 001a 019B     		ldr	r3, [sp, #4]
 2500 001c DB8A     		ldrh	r3, [r3, #22]
 2501              		.loc 4 402 0
 2502 001e 1846     		mov	r0, r3
 2503 0020 044B     		ldr	r3, .L208
 2504 0022 039A     		ldr	r2, [sp, #12]
 2505 0024 1B68     		ldr	r3, [r3]
 2506 0026 9A42     		cmp	r2, r3
 2507 0028 01D0     		beq	.L207
 2508 002a FFF7FEFF 		bl	__stack_chk_fail
ARM GAS  C:\Users\PCHAUT~1\AppData\Local\Temp\ccxXBCq6.s 			page 45


 2509              	.L207:
 2510 002e 05B0     		add	sp, sp, #20
 2511              		.cfi_def_cfa_offset 4
 2512              		@ sp needed
 2513 0030 5DF804FB 		ldr	pc, [sp], #4
 2514              	.L209:
 2515              		.align	2
 2516              	.L208:
 2517 0034 00000000 		.word	__stack_chk_guard
 2518 0038 00000000 		.word	__func__.9141
 2519              		.cfi_endproc
 2520              	.LFE281:
 2521              		.size	parameter_vector_dim, .-parameter_vector_dim
 2522              		.section	.text.parameter_vector_get,"ax",%progbits
 2523              		.align	1
 2524              		.p2align 4,,15
 2525              		.global	parameter_vector_get
 2526              		.syntax unified
 2527              		.thumb
 2528              		.thumb_func
 2529              		.fpu fpv4-sp-d16
 2530              		.type	parameter_vector_get, %function
 2531              	parameter_vector_get:
 2532              	.LFB282:
 2533              		.loc 4 405 0
 2534              		.cfi_startproc
 2535              		@ args = 0, pretend = 0, frame = 16
 2536              		@ frame_needed = 0, uses_anonymous_args = 0
 2537 0000 00B5     		push	{lr}
 2538              		.cfi_def_cfa_offset 4
 2539              		.cfi_offset 14, -4
 2540 0002 85B0     		sub	sp, sp, #20
 2541              		.cfi_def_cfa_offset 24
 2542 0004 0190     		str	r0, [sp, #4]
 2543 0006 0091     		str	r1, [sp]
 2544              		.loc 4 405 0
 2545 0008 0A4B     		ldr	r3, .L212
 2546 000a 1B68     		ldr	r3, [r3]
 2547 000c 0393     		str	r3, [sp, #12]
 2548              		.loc 4 406 0
 2549 000e 0198     		ldr	r0, [sp, #4]
 2550 0010 FFF7FEFF 		bl	_parameter_changed_clear
 2551              		.loc 4 407 0
 2552 0014 0099     		ldr	r1, [sp]
 2553 0016 0198     		ldr	r0, [sp, #4]
 2554 0018 FFF7FEFF 		bl	parameter_vector_read
 2555              		.loc 4 408 0
 2556 001c 00BF     		nop
 2557 001e 054B     		ldr	r3, .L212
 2558 0020 039A     		ldr	r2, [sp, #12]
 2559 0022 1B68     		ldr	r3, [r3]
 2560 0024 9A42     		cmp	r2, r3
 2561 0026 01D0     		beq	.L211
 2562 0028 FFF7FEFF 		bl	__stack_chk_fail
 2563              	.L211:
 2564 002c 05B0     		add	sp, sp, #20
 2565              		.cfi_def_cfa_offset 4
ARM GAS  C:\Users\PCHAUT~1\AppData\Local\Temp\ccxXBCq6.s 			page 46


 2566              		@ sp needed
 2567 002e 5DF804FB 		ldr	pc, [sp], #4
 2568              	.L213:
 2569 0032 00BF     		.align	2
 2570              	.L212:
 2571 0034 00000000 		.word	__stack_chk_guard
 2572              		.cfi_endproc
 2573              	.LFE282:
 2574              		.size	parameter_vector_get, .-parameter_vector_get
 2575              		.section	.text.parameter_vector_read,"ax",%progbits
 2576              		.align	1
 2577              		.p2align 4,,15
 2578              		.global	parameter_vector_read
 2579              		.syntax unified
 2580              		.thumb
 2581              		.thumb_func
 2582              		.fpu fpv4-sp-d16
 2583              		.type	parameter_vector_read, %function
 2584              	parameter_vector_read:
 2585              	.LFB283:
 2586              		.loc 4 411 0
 2587              		.cfi_startproc
 2588              		@ args = 0, pretend = 0, frame = 16
 2589              		@ frame_needed = 0, uses_anonymous_args = 0
 2590 0000 00B5     		push	{lr}
 2591              		.cfi_def_cfa_offset 4
 2592              		.cfi_offset 14, -4
 2593 0002 85B0     		sub	sp, sp, #20
 2594              		.cfi_def_cfa_offset 24
 2595 0004 0190     		str	r0, [sp, #4]
 2596 0006 0091     		str	r1, [sp]
 2597              		.loc 4 411 0
 2598 0008 1C4B     		ldr	r3, .L220
 2599 000a 1B68     		ldr	r3, [r3]
 2600 000c 0393     		str	r3, [sp, #12]
 2601              		.loc 4 412 0
 2602 000e 019B     		ldr	r3, [sp, #4]
 2603 0010 9B7B     		ldrb	r3, [r3, #14]	@ zero_extendqisi2
 2604 0012 052B     		cmp	r3, #5
 2605 0014 02D0     		beq	.L215
 2606              		.loc 4 412 0 is_stmt 0 discriminator 2
 2607 0016 1A48     		ldr	r0, .L220+4
 2608 0018 FFF7FEFF 		bl	chSysHalt
 2609              	.L215:
 2610              		.loc 4 413 0 is_stmt 1
 2611 001c FFF7FEFF 		bl	chSysLock
 2612              		.loc 4 414 0
 2613 0020 019B     		ldr	r3, [sp, #4]
 2614 0022 5B7B     		ldrb	r3, [r3, #13]	@ zero_extendqisi2
 2615 0024 83F00103 		eor	r3, r3, #1
 2616 0028 DBB2     		uxtb	r3, r3
 2617 002a 002B     		cmp	r3, #0
 2618 002c 02D0     		beq	.L216
 2619              		.loc 4 414 0 is_stmt 0 discriminator 2
 2620 002e 1448     		ldr	r0, .L220+4
 2621 0030 FFF7FEFF 		bl	chSysHalt
 2622              	.L216:
ARM GAS  C:\Users\PCHAUT~1\AppData\Local\Temp\ccxXBCq6.s 			page 47


 2623              		.loc 4 416 0 is_stmt 1
 2624 0034 0023     		movs	r3, #0
 2625 0036 0293     		str	r3, [sp, #8]
 2626 0038 0DE0     		b	.L217
 2627              	.L218:
 2628              		.loc 4 417 0 discriminator 3
 2629 003a 019B     		ldr	r3, [sp, #4]
 2630 003c 1A69     		ldr	r2, [r3, #16]
 2631 003e 029B     		ldr	r3, [sp, #8]
 2632 0040 9B00     		lsls	r3, r3, #2
 2633 0042 1A44     		add	r2, r2, r3
 2634 0044 029B     		ldr	r3, [sp, #8]
 2635 0046 9B00     		lsls	r3, r3, #2
 2636 0048 0099     		ldr	r1, [sp]
 2637 004a 0B44     		add	r3, r3, r1
 2638 004c 1268     		ldr	r2, [r2]	@ float
 2639 004e 1A60     		str	r2, [r3]	@ float
 2640              		.loc 4 416 0 discriminator 3
 2641 0050 029B     		ldr	r3, [sp, #8]
 2642 0052 0133     		adds	r3, r3, #1
 2643 0054 0293     		str	r3, [sp, #8]
 2644              	.L217:
 2645              		.loc 4 416 0 is_stmt 0 discriminator 1
 2646 0056 019B     		ldr	r3, [sp, #4]
 2647 0058 DB8A     		ldrh	r3, [r3, #22]
 2648 005a 1A46     		mov	r2, r3
 2649 005c 029B     		ldr	r3, [sp, #8]
 2650 005e 9342     		cmp	r3, r2
 2651 0060 EBDB     		blt	.L218
 2652              		.loc 4 419 0 is_stmt 1
 2653 0062 FFF7FEFF 		bl	chSysUnlock
 2654              		.loc 4 420 0
 2655 0066 00BF     		nop
 2656 0068 044B     		ldr	r3, .L220
 2657 006a 039A     		ldr	r2, [sp, #12]
 2658 006c 1B68     		ldr	r3, [r3]
 2659 006e 9A42     		cmp	r2, r3
 2660 0070 01D0     		beq	.L219
 2661 0072 FFF7FEFF 		bl	__stack_chk_fail
 2662              	.L219:
 2663 0076 05B0     		add	sp, sp, #20
 2664              		.cfi_def_cfa_offset 4
 2665              		@ sp needed
 2666 0078 5DF804FB 		ldr	pc, [sp], #4
 2667              	.L221:
 2668              		.align	2
 2669              	.L220:
 2670 007c 00000000 		.word	__stack_chk_guard
 2671 0080 00000000 		.word	__func__.9150
 2672              		.cfi_endproc
 2673              	.LFE283:
 2674              		.size	parameter_vector_read, .-parameter_vector_read
 2675              		.section	.text.parameter_vector_set,"ax",%progbits
 2676              		.align	1
 2677              		.p2align 4,,15
 2678              		.global	parameter_vector_set
 2679              		.syntax unified
ARM GAS  C:\Users\PCHAUT~1\AppData\Local\Temp\ccxXBCq6.s 			page 48


 2680              		.thumb
 2681              		.thumb_func
 2682              		.fpu fpv4-sp-d16
 2683              		.type	parameter_vector_set, %function
 2684              	parameter_vector_set:
 2685              	.LFB284:
 2686              		.loc 4 423 0
 2687              		.cfi_startproc
 2688              		@ args = 0, pretend = 0, frame = 16
 2689              		@ frame_needed = 0, uses_anonymous_args = 0
 2690 0000 00B5     		push	{lr}
 2691              		.cfi_def_cfa_offset 4
 2692              		.cfi_offset 14, -4
 2693 0002 85B0     		sub	sp, sp, #20
 2694              		.cfi_def_cfa_offset 24
 2695 0004 0190     		str	r0, [sp, #4]
 2696 0006 0091     		str	r1, [sp]
 2697              		.loc 4 423 0
 2698 0008 194B     		ldr	r3, .L227
 2699 000a 1B68     		ldr	r3, [r3]
 2700 000c 0393     		str	r3, [sp, #12]
 2701              		.loc 4 424 0
 2702 000e 019B     		ldr	r3, [sp, #4]
 2703 0010 9B7B     		ldrb	r3, [r3, #14]	@ zero_extendqisi2
 2704 0012 052B     		cmp	r3, #5
 2705 0014 02D0     		beq	.L223
 2706              		.loc 4 424 0 is_stmt 0 discriminator 2
 2707 0016 1748     		ldr	r0, .L227+4
 2708 0018 FFF7FEFF 		bl	chSysHalt
 2709              	.L223:
 2710              		.loc 4 425 0 is_stmt 1
 2711 001c FFF7FEFF 		bl	chSysLock
 2712              		.loc 4 427 0
 2713 0020 0023     		movs	r3, #0
 2714 0022 0293     		str	r3, [sp, #8]
 2715 0024 0DE0     		b	.L224
 2716              	.L225:
 2717              		.loc 4 428 0 discriminator 3
 2718 0026 029B     		ldr	r3, [sp, #8]
 2719 0028 9B00     		lsls	r3, r3, #2
 2720 002a 009A     		ldr	r2, [sp]
 2721 002c 1A44     		add	r2, r2, r3
 2722 002e 019B     		ldr	r3, [sp, #4]
 2723 0030 1969     		ldr	r1, [r3, #16]
 2724 0032 029B     		ldr	r3, [sp, #8]
 2725 0034 9B00     		lsls	r3, r3, #2
 2726 0036 0B44     		add	r3, r3, r1
 2727 0038 1268     		ldr	r2, [r2]	@ float
 2728 003a 1A60     		str	r2, [r3]	@ float
 2729              		.loc 4 427 0 discriminator 3
 2730 003c 029B     		ldr	r3, [sp, #8]
 2731 003e 0133     		adds	r3, r3, #1
 2732 0040 0293     		str	r3, [sp, #8]
 2733              	.L224:
 2734              		.loc 4 427 0 is_stmt 0 discriminator 1
 2735 0042 019B     		ldr	r3, [sp, #4]
 2736 0044 DB8A     		ldrh	r3, [r3, #22]
ARM GAS  C:\Users\PCHAUT~1\AppData\Local\Temp\ccxXBCq6.s 			page 49


 2737 0046 1A46     		mov	r2, r3
 2738 0048 029B     		ldr	r3, [sp, #8]
 2739 004a 9342     		cmp	r3, r2
 2740 004c EBDB     		blt	.L225
 2741              		.loc 4 430 0 is_stmt 1
 2742 004e FFF7FEFF 		bl	chSysUnlock
 2743              		.loc 4 431 0
 2744 0052 0198     		ldr	r0, [sp, #4]
 2745 0054 FFF7FEFF 		bl	_parameter_changed_set
 2746              		.loc 4 432 0
 2747 0058 00BF     		nop
 2748 005a 054B     		ldr	r3, .L227
 2749 005c 039A     		ldr	r2, [sp, #12]
 2750 005e 1B68     		ldr	r3, [r3]
 2751 0060 9A42     		cmp	r2, r3
 2752 0062 01D0     		beq	.L226
 2753 0064 FFF7FEFF 		bl	__stack_chk_fail
 2754              	.L226:
 2755 0068 05B0     		add	sp, sp, #20
 2756              		.cfi_def_cfa_offset 4
 2757              		@ sp needed
 2758 006a 5DF804FB 		ldr	pc, [sp], #4
 2759              	.L228:
 2760 006e 00BF     		.align	2
 2761              	.L227:
 2762 0070 00000000 		.word	__stack_chk_guard
 2763 0074 00000000 		.word	__func__.9159
 2764              		.cfi_endproc
 2765              	.LFE284:
 2766              		.size	parameter_vector_set, .-parameter_vector_set
 2767              		.section	.text.parameter_variable_vector_declare,"ax",%progbits
 2768              		.align	1
 2769              		.p2align 4,,15
 2770              		.global	parameter_variable_vector_declare
 2771              		.syntax unified
 2772              		.thumb
 2773              		.thumb_func
 2774              		.fpu fpv4-sp-d16
 2775              		.type	parameter_variable_vector_declare, %function
 2776              	parameter_variable_vector_declare:
 2777              	.LFB285:
 2778              		.loc 4 444 0
 2779              		.cfi_startproc
 2780              		@ args = 4, pretend = 0, frame = 32
 2781              		@ frame_needed = 0, uses_anonymous_args = 0
 2782 0000 00B5     		push	{lr}
 2783              		.cfi_def_cfa_offset 4
 2784              		.cfi_offset 14, -4
 2785 0002 89B0     		sub	sp, sp, #36
 2786              		.cfi_def_cfa_offset 40
 2787 0004 0590     		str	r0, [sp, #20]
 2788 0006 0491     		str	r1, [sp, #16]
 2789 0008 0392     		str	r2, [sp, #12]
 2790 000a 0293     		str	r3, [sp, #8]
 2791 000c BDF82830 		ldrh	r3, [sp, #40]	@ movhi
 2792 0010 ADF80630 		strh	r3, [sp, #6]	@ movhi
 2793              		.loc 4 444 0
ARM GAS  C:\Users\PCHAUT~1\AppData\Local\Temp\ccxXBCq6.s 			page 50


 2794 0014 0E4B     		ldr	r3, .L231
 2795 0016 1B68     		ldr	r3, [r3]
 2796 0018 0793     		str	r3, [sp, #28]
 2797              		.loc 4 445 0
 2798 001a 059B     		ldr	r3, [sp, #20]
 2799 001c 0622     		movs	r2, #6
 2800 001e 9A73     		strb	r2, [r3, #14]
 2801              		.loc 4 446 0
 2802 0020 059B     		ldr	r3, [sp, #20]
 2803 0022 029A     		ldr	r2, [sp, #8]
 2804 0024 1A61     		str	r2, [r3, #16]
 2805              		.loc 4 447 0
 2806 0026 059B     		ldr	r3, [sp, #20]
 2807 0028 BDF80620 		ldrh	r2, [sp, #6]	@ movhi
 2808 002c 9A82     		strh	r2, [r3, #20]	@ movhi
 2809              		.loc 4 448 0
 2810 002e 039A     		ldr	r2, [sp, #12]
 2811 0030 0499     		ldr	r1, [sp, #16]
 2812 0032 0598     		ldr	r0, [sp, #20]
 2813 0034 FFF7FEFF 		bl	_parameter_declare
 2814              		.loc 4 449 0
 2815 0038 00BF     		nop
 2816 003a 054B     		ldr	r3, .L231
 2817 003c 079A     		ldr	r2, [sp, #28]
 2818 003e 1B68     		ldr	r3, [r3]
 2819 0040 9A42     		cmp	r2, r3
 2820 0042 01D0     		beq	.L230
 2821 0044 FFF7FEFF 		bl	__stack_chk_fail
 2822              	.L230:
 2823 0048 09B0     		add	sp, sp, #36
 2824              		.cfi_def_cfa_offset 4
 2825              		@ sp needed
 2826 004a 5DF804FB 		ldr	pc, [sp], #4
 2827              	.L232:
 2828 004e 00BF     		.align	2
 2829              	.L231:
 2830 0050 00000000 		.word	__stack_chk_guard
 2831              		.cfi_endproc
 2832              	.LFE285:
 2833              		.size	parameter_variable_vector_declare, .-parameter_variable_vector_declare
 2834              		.section	.text.parameter_variable_vector_declare_with_default,"ax",%progbits
 2835              		.align	1
 2836              		.p2align 4,,15
 2837              		.global	parameter_variable_vector_declare_with_default
 2838              		.syntax unified
 2839              		.thumb
 2840              		.thumb_func
 2841              		.fpu fpv4-sp-d16
 2842              		.type	parameter_variable_vector_declare_with_default, %function
 2843              	parameter_variable_vector_declare_with_default:
 2844              	.LFB286:
 2845              		.loc 4 457 0
 2846              		.cfi_startproc
 2847              		@ args = 8, pretend = 0, frame = 32
 2848              		@ frame_needed = 0, uses_anonymous_args = 0
 2849 0000 00B5     		push	{lr}
 2850              		.cfi_def_cfa_offset 4
ARM GAS  C:\Users\PCHAUT~1\AppData\Local\Temp\ccxXBCq6.s 			page 51


 2851              		.cfi_offset 14, -4
 2852 0002 8BB0     		sub	sp, sp, #44
 2853              		.cfi_def_cfa_offset 48
 2854 0004 0790     		str	r0, [sp, #28]
 2855 0006 0691     		str	r1, [sp, #24]
 2856 0008 0592     		str	r2, [sp, #20]
 2857 000a 0493     		str	r3, [sp, #16]
 2858 000c BDF83030 		ldrh	r3, [sp, #48]	@ movhi
 2859 0010 ADF80E30 		strh	r3, [sp, #14]	@ movhi
 2860 0014 BDF83430 		ldrh	r3, [sp, #52]	@ movhi
 2861 0018 ADF80C30 		strh	r3, [sp, #12]	@ movhi
 2862              		.loc 4 457 0
 2863 001c 134B     		ldr	r3, .L236
 2864 001e 1B68     		ldr	r3, [r3]
 2865 0020 0993     		str	r3, [sp, #36]
 2866              		.loc 4 458 0
 2867 0022 BDF80E30 		ldrh	r3, [sp, #14]
 2868 0026 0093     		str	r3, [sp]
 2869 0028 049B     		ldr	r3, [sp, #16]
 2870 002a 059A     		ldr	r2, [sp, #20]
 2871 002c 0699     		ldr	r1, [sp, #24]
 2872 002e 0798     		ldr	r0, [sp, #28]
 2873 0030 FFF7FEFF 		bl	parameter_variable_vector_declare
 2874              		.loc 4 459 0
 2875 0034 BDF80C20 		ldrh	r2, [sp, #12]
 2876 0038 BDF80E30 		ldrh	r3, [sp, #14]
 2877 003c 9A42     		cmp	r2, r3
 2878 003e 02D9     		bls	.L234
 2879              		.loc 4 459 0 is_stmt 0 discriminator 2
 2880 0040 0B48     		ldr	r0, .L236+4
 2881 0042 FFF7FEFF 		bl	chSysHalt
 2882              	.L234:
 2883              		.loc 4 460 0 is_stmt 1
 2884 0046 079B     		ldr	r3, [sp, #28]
 2885 0048 BDF80C20 		ldrh	r2, [sp, #12]	@ movhi
 2886 004c DA82     		strh	r2, [r3, #22]	@ movhi
 2887              		.loc 4 461 0
 2888 004e 0798     		ldr	r0, [sp, #28]
 2889 0050 FFF7FEFF 		bl	_parameter_changed_set
 2890              		.loc 4 462 0
 2891 0054 00BF     		nop
 2892 0056 054B     		ldr	r3, .L236
 2893 0058 099A     		ldr	r2, [sp, #36]
 2894 005a 1B68     		ldr	r3, [r3]
 2895 005c 9A42     		cmp	r2, r3
 2896 005e 01D0     		beq	.L235
 2897 0060 FFF7FEFF 		bl	__stack_chk_fail
 2898              	.L235:
 2899 0064 0BB0     		add	sp, sp, #44
 2900              		.cfi_def_cfa_offset 4
 2901              		@ sp needed
 2902 0066 5DF804FB 		ldr	pc, [sp], #4
 2903              	.L237:
 2904 006a 00BF     		.align	2
 2905              	.L236:
 2906 006c 00000000 		.word	__stack_chk_guard
 2907 0070 00000000 		.word	__func__.9179
ARM GAS  C:\Users\PCHAUT~1\AppData\Local\Temp\ccxXBCq6.s 			page 52


 2908              		.cfi_endproc
 2909              	.LFE286:
 2910              		.size	parameter_variable_vector_declare_with_default, .-parameter_variable_vector_declare_with_def
 2911              		.section	.text.parameter_variable_vector_max_dim,"ax",%progbits
 2912              		.align	1
 2913              		.p2align 4,,15
 2914              		.global	parameter_variable_vector_max_dim
 2915              		.syntax unified
 2916              		.thumb
 2917              		.thumb_func
 2918              		.fpu fpv4-sp-d16
 2919              		.type	parameter_variable_vector_max_dim, %function
 2920              	parameter_variable_vector_max_dim:
 2921              	.LFB287:
 2922              		.loc 4 465 0
 2923              		.cfi_startproc
 2924              		@ args = 0, pretend = 0, frame = 16
 2925              		@ frame_needed = 0, uses_anonymous_args = 0
 2926 0000 00B5     		push	{lr}
 2927              		.cfi_def_cfa_offset 4
 2928              		.cfi_offset 14, -4
 2929 0002 85B0     		sub	sp, sp, #20
 2930              		.cfi_def_cfa_offset 24
 2931 0004 0190     		str	r0, [sp, #4]
 2932              		.loc 4 465 0
 2933 0006 0B4B     		ldr	r3, .L242
 2934 0008 1B68     		ldr	r3, [r3]
 2935 000a 0393     		str	r3, [sp, #12]
 2936              		.loc 4 466 0
 2937 000c 019B     		ldr	r3, [sp, #4]
 2938 000e 9B7B     		ldrb	r3, [r3, #14]	@ zero_extendqisi2
 2939 0010 062B     		cmp	r3, #6
 2940 0012 02D0     		beq	.L239
 2941              		.loc 4 466 0 is_stmt 0 discriminator 2
 2942 0014 0848     		ldr	r0, .L242+4
 2943 0016 FFF7FEFF 		bl	chSysHalt
 2944              	.L239:
 2945              		.loc 4 467 0 is_stmt 1
 2946 001a 019B     		ldr	r3, [sp, #4]
 2947 001c 9B8A     		ldrh	r3, [r3, #20]
 2948              		.loc 4 468 0
 2949 001e 1846     		mov	r0, r3
 2950 0020 044B     		ldr	r3, .L242
 2951 0022 039A     		ldr	r2, [sp, #12]
 2952 0024 1B68     		ldr	r3, [r3]
 2953 0026 9A42     		cmp	r2, r3
 2954 0028 01D0     		beq	.L241
 2955 002a FFF7FEFF 		bl	__stack_chk_fail
 2956              	.L241:
 2957 002e 05B0     		add	sp, sp, #20
 2958              		.cfi_def_cfa_offset 4
 2959              		@ sp needed
 2960 0030 5DF804FB 		ldr	pc, [sp], #4
 2961              	.L243:
 2962              		.align	2
 2963              	.L242:
 2964 0034 00000000 		.word	__stack_chk_guard
ARM GAS  C:\Users\PCHAUT~1\AppData\Local\Temp\ccxXBCq6.s 			page 53


 2965 0038 00000000 		.word	__func__.9183
 2966              		.cfi_endproc
 2967              	.LFE287:
 2968              		.size	parameter_variable_vector_max_dim, .-parameter_variable_vector_max_dim
 2969              		.section	.text.parameter_variable_vector_get,"ax",%progbits
 2970              		.align	1
 2971              		.p2align 4,,15
 2972              		.global	parameter_variable_vector_get
 2973              		.syntax unified
 2974              		.thumb
 2975              		.thumb_func
 2976              		.fpu fpv4-sp-d16
 2977              		.type	parameter_variable_vector_get, %function
 2978              	parameter_variable_vector_get:
 2979              	.LFB288:
 2980              		.loc 4 471 0
 2981              		.cfi_startproc
 2982              		@ args = 0, pretend = 0, frame = 16
 2983              		@ frame_needed = 0, uses_anonymous_args = 0
 2984 0000 00B5     		push	{lr}
 2985              		.cfi_def_cfa_offset 4
 2986              		.cfi_offset 14, -4
 2987 0002 85B0     		sub	sp, sp, #20
 2988              		.cfi_def_cfa_offset 24
 2989 0004 0190     		str	r0, [sp, #4]
 2990 0006 0091     		str	r1, [sp]
 2991              		.loc 4 471 0
 2992 0008 0A4B     		ldr	r3, .L247
 2993 000a 1B68     		ldr	r3, [r3]
 2994 000c 0393     		str	r3, [sp, #12]
 2995              		.loc 4 472 0
 2996 000e 0198     		ldr	r0, [sp, #4]
 2997 0010 FFF7FEFF 		bl	_parameter_changed_clear
 2998              		.loc 4 473 0
 2999 0014 0099     		ldr	r1, [sp]
 3000 0016 0198     		ldr	r0, [sp, #4]
 3001 0018 FFF7FEFF 		bl	parameter_variable_vector_read
 3002 001c 0346     		mov	r3, r0
 3003              		.loc 4 474 0
 3004 001e 1846     		mov	r0, r3
 3005 0020 044B     		ldr	r3, .L247
 3006 0022 039A     		ldr	r2, [sp, #12]
 3007 0024 1B68     		ldr	r3, [r3]
 3008 0026 9A42     		cmp	r2, r3
 3009 0028 01D0     		beq	.L246
 3010 002a FFF7FEFF 		bl	__stack_chk_fail
 3011              	.L246:
 3012 002e 05B0     		add	sp, sp, #20
 3013              		.cfi_def_cfa_offset 4
 3014              		@ sp needed
 3015 0030 5DF804FB 		ldr	pc, [sp], #4
 3016              	.L248:
 3017              		.align	2
 3018              	.L247:
 3019 0034 00000000 		.word	__stack_chk_guard
 3020              		.cfi_endproc
 3021              	.LFE288:
ARM GAS  C:\Users\PCHAUT~1\AppData\Local\Temp\ccxXBCq6.s 			page 54


 3022              		.size	parameter_variable_vector_get, .-parameter_variable_vector_get
 3023              		.section	.text.parameter_variable_vector_read,"ax",%progbits
 3024              		.align	1
 3025              		.p2align 4,,15
 3026              		.global	parameter_variable_vector_read
 3027              		.syntax unified
 3028              		.thumb
 3029              		.thumb_func
 3030              		.fpu fpv4-sp-d16
 3031              		.type	parameter_variable_vector_read, %function
 3032              	parameter_variable_vector_read:
 3033              	.LFB289:
 3034              		.loc 4 477 0
 3035              		.cfi_startproc
 3036              		@ args = 0, pretend = 0, frame = 24
 3037              		@ frame_needed = 0, uses_anonymous_args = 0
 3038 0000 00B5     		push	{lr}
 3039              		.cfi_def_cfa_offset 4
 3040              		.cfi_offset 14, -4
 3041 0002 87B0     		sub	sp, sp, #28
 3042              		.cfi_def_cfa_offset 32
 3043 0004 0190     		str	r0, [sp, #4]
 3044 0006 0091     		str	r1, [sp]
 3045              		.loc 4 477 0
 3046 0008 1F4B     		ldr	r3, .L256
 3047 000a 1B68     		ldr	r3, [r3]
 3048 000c 0593     		str	r3, [sp, #20]
 3049              		.loc 4 478 0
 3050 000e 019B     		ldr	r3, [sp, #4]
 3051 0010 9B7B     		ldrb	r3, [r3, #14]	@ zero_extendqisi2
 3052 0012 062B     		cmp	r3, #6
 3053 0014 02D0     		beq	.L250
 3054              		.loc 4 478 0 is_stmt 0 discriminator 2
 3055 0016 1D48     		ldr	r0, .L256+4
 3056 0018 FFF7FEFF 		bl	chSysHalt
 3057              	.L250:
 3058              		.loc 4 479 0 is_stmt 1
 3059 001c FFF7FEFF 		bl	chSysLock
 3060              		.loc 4 480 0
 3061 0020 019B     		ldr	r3, [sp, #4]
 3062 0022 5B7B     		ldrb	r3, [r3, #13]	@ zero_extendqisi2
 3063 0024 83F00103 		eor	r3, r3, #1
 3064 0028 DBB2     		uxtb	r3, r3
 3065 002a 002B     		cmp	r3, #0
 3066 002c 02D0     		beq	.L251
 3067              		.loc 4 480 0 is_stmt 0 discriminator 2
 3068 002e 1748     		ldr	r0, .L256+4
 3069 0030 FFF7FEFF 		bl	chSysHalt
 3070              	.L251:
 3071              		.loc 4 482 0 is_stmt 1
 3072 0034 0023     		movs	r3, #0
 3073 0036 0493     		str	r3, [sp, #16]
 3074 0038 0DE0     		b	.L252
 3075              	.L253:
 3076              		.loc 4 483 0 discriminator 3
 3077 003a 019B     		ldr	r3, [sp, #4]
 3078 003c 1A69     		ldr	r2, [r3, #16]
ARM GAS  C:\Users\PCHAUT~1\AppData\Local\Temp\ccxXBCq6.s 			page 55


 3079 003e 049B     		ldr	r3, [sp, #16]
 3080 0040 9B00     		lsls	r3, r3, #2
 3081 0042 1A44     		add	r2, r2, r3
 3082 0044 049B     		ldr	r3, [sp, #16]
 3083 0046 9B00     		lsls	r3, r3, #2
 3084 0048 0099     		ldr	r1, [sp]
 3085 004a 0B44     		add	r3, r3, r1
 3086 004c 1268     		ldr	r2, [r2]	@ float
 3087 004e 1A60     		str	r2, [r3]	@ float
 3088              		.loc 4 482 0 discriminator 3
 3089 0050 049B     		ldr	r3, [sp, #16]
 3090 0052 0133     		adds	r3, r3, #1
 3091 0054 0493     		str	r3, [sp, #16]
 3092              	.L252:
 3093              		.loc 4 482 0 is_stmt 0 discriminator 1
 3094 0056 019B     		ldr	r3, [sp, #4]
 3095 0058 DB8A     		ldrh	r3, [r3, #22]
 3096 005a 1A46     		mov	r2, r3
 3097 005c 049B     		ldr	r3, [sp, #16]
 3098 005e 9342     		cmp	r3, r2
 3099 0060 EBDB     		blt	.L253
 3100              		.loc 4 485 0 is_stmt 1
 3101 0062 019B     		ldr	r3, [sp, #4]
 3102 0064 DB8A     		ldrh	r3, [r3, #22]	@ movhi
 3103 0066 ADF80E30 		strh	r3, [sp, #14]	@ movhi
 3104              		.loc 4 486 0
 3105 006a FFF7FEFF 		bl	chSysUnlock
 3106              		.loc 4 487 0
 3107 006e BDF80E30 		ldrh	r3, [sp, #14]
 3108              		.loc 4 488 0
 3109 0072 1846     		mov	r0, r3
 3110 0074 044B     		ldr	r3, .L256
 3111 0076 059A     		ldr	r2, [sp, #20]
 3112 0078 1B68     		ldr	r3, [r3]
 3113 007a 9A42     		cmp	r2, r3
 3114 007c 01D0     		beq	.L255
 3115 007e FFF7FEFF 		bl	__stack_chk_fail
 3116              	.L255:
 3117 0082 07B0     		add	sp, sp, #28
 3118              		.cfi_def_cfa_offset 4
 3119              		@ sp needed
 3120 0084 5DF804FB 		ldr	pc, [sp], #4
 3121              	.L257:
 3122              		.align	2
 3123              	.L256:
 3124 0088 00000000 		.word	__stack_chk_guard
 3125 008c 00000000 		.word	__func__.9192
 3126              		.cfi_endproc
 3127              	.LFE289:
 3128              		.size	parameter_variable_vector_read, .-parameter_variable_vector_read
 3129              		.section	.text.parameter_variable_vector_set,"ax",%progbits
 3130              		.align	1
 3131              		.p2align 4,,15
 3132              		.global	parameter_variable_vector_set
 3133              		.syntax unified
 3134              		.thumb
 3135              		.thumb_func
ARM GAS  C:\Users\PCHAUT~1\AppData\Local\Temp\ccxXBCq6.s 			page 56


 3136              		.fpu fpv4-sp-d16
 3137              		.type	parameter_variable_vector_set, %function
 3138              	parameter_variable_vector_set:
 3139              	.LFB290:
 3140              		.loc 4 491 0
 3141              		.cfi_startproc
 3142              		@ args = 0, pretend = 0, frame = 24
 3143              		@ frame_needed = 0, uses_anonymous_args = 0
 3144 0000 00B5     		push	{lr}
 3145              		.cfi_def_cfa_offset 4
 3146              		.cfi_offset 14, -4
 3147 0002 87B0     		sub	sp, sp, #28
 3148              		.cfi_def_cfa_offset 32
 3149 0004 0390     		str	r0, [sp, #12]
 3150 0006 0291     		str	r1, [sp, #8]
 3151 0008 1346     		mov	r3, r2
 3152 000a ADF80630 		strh	r3, [sp, #6]	@ movhi
 3153              		.loc 4 491 0
 3154 000e 1F4B     		ldr	r3, .L264
 3155 0010 1B68     		ldr	r3, [r3]
 3156 0012 0593     		str	r3, [sp, #20]
 3157              		.loc 4 492 0
 3158 0014 039B     		ldr	r3, [sp, #12]
 3159 0016 9B7B     		ldrb	r3, [r3, #14]	@ zero_extendqisi2
 3160 0018 062B     		cmp	r3, #6
 3161 001a 02D0     		beq	.L259
 3162              		.loc 4 492 0 is_stmt 0 discriminator 2
 3163 001c 1C48     		ldr	r0, .L264+4
 3164 001e FFF7FEFF 		bl	chSysHalt
 3165              	.L259:
 3166              		.loc 4 493 0 is_stmt 1
 3167 0022 FFF7FEFF 		bl	chSysLock
 3168              		.loc 4 494 0
 3169 0026 039B     		ldr	r3, [sp, #12]
 3170 0028 9B8A     		ldrh	r3, [r3, #20]
 3171 002a BDF80620 		ldrh	r2, [sp, #6]
 3172 002e 9A42     		cmp	r2, r3
 3173 0030 02D9     		bls	.L260
 3174              		.loc 4 494 0 is_stmt 0 discriminator 2
 3175 0032 1748     		ldr	r0, .L264+4
 3176 0034 FFF7FEFF 		bl	chSysHalt
 3177              	.L260:
 3178              		.loc 4 496 0 is_stmt 1
 3179 0038 0023     		movs	r3, #0
 3180 003a 0493     		str	r3, [sp, #16]
 3181 003c 0DE0     		b	.L261
 3182              	.L262:
 3183              		.loc 4 497 0 discriminator 3
 3184 003e 049B     		ldr	r3, [sp, #16]
 3185 0040 9B00     		lsls	r3, r3, #2
 3186 0042 029A     		ldr	r2, [sp, #8]
 3187 0044 1A44     		add	r2, r2, r3
 3188 0046 039B     		ldr	r3, [sp, #12]
 3189 0048 1969     		ldr	r1, [r3, #16]
 3190 004a 049B     		ldr	r3, [sp, #16]
 3191 004c 9B00     		lsls	r3, r3, #2
 3192 004e 0B44     		add	r3, r3, r1
ARM GAS  C:\Users\PCHAUT~1\AppData\Local\Temp\ccxXBCq6.s 			page 57


 3193 0050 1268     		ldr	r2, [r2]	@ float
 3194 0052 1A60     		str	r2, [r3]	@ float
 3195              		.loc 4 496 0 discriminator 3
 3196 0054 049B     		ldr	r3, [sp, #16]
 3197 0056 0133     		adds	r3, r3, #1
 3198 0058 0493     		str	r3, [sp, #16]
 3199              	.L261:
 3200              		.loc 4 496 0 is_stmt 0 discriminator 1
 3201 005a BDF80630 		ldrh	r3, [sp, #6]
 3202 005e 049A     		ldr	r2, [sp, #16]
 3203 0060 9A42     		cmp	r2, r3
 3204 0062 ECDB     		blt	.L262
 3205              		.loc 4 499 0 is_stmt 1
 3206 0064 039B     		ldr	r3, [sp, #12]
 3207 0066 BDF80620 		ldrh	r2, [sp, #6]	@ movhi
 3208 006a DA82     		strh	r2, [r3, #22]	@ movhi
 3209              		.loc 4 500 0
 3210 006c FFF7FEFF 		bl	chSysUnlock
 3211              		.loc 4 501 0
 3212 0070 0398     		ldr	r0, [sp, #12]
 3213 0072 FFF7FEFF 		bl	_parameter_changed_set
 3214              		.loc 4 502 0
 3215 0076 00BF     		nop
 3216 0078 044B     		ldr	r3, .L264
 3217 007a 059A     		ldr	r2, [sp, #20]
 3218 007c 1B68     		ldr	r3, [r3]
 3219 007e 9A42     		cmp	r2, r3
 3220 0080 01D0     		beq	.L263
 3221 0082 FFF7FEFF 		bl	__stack_chk_fail
 3222              	.L263:
 3223 0086 07B0     		add	sp, sp, #28
 3224              		.cfi_def_cfa_offset 4
 3225              		@ sp needed
 3226 0088 5DF804FB 		ldr	pc, [sp], #4
 3227              	.L265:
 3228              		.align	2
 3229              	.L264:
 3230 008c 00000000 		.word	__stack_chk_guard
 3231 0090 00000000 		.word	__func__.9203
 3232              		.cfi_endproc
 3233              	.LFE290:
 3234              		.size	parameter_variable_vector_set, .-parameter_variable_vector_set
 3235              		.section	.text.parameter_string_declare,"ax",%progbits
 3236              		.align	1
 3237              		.p2align 4,,15
 3238              		.global	parameter_string_declare
 3239              		.syntax unified
 3240              		.thumb
 3241              		.thumb_func
 3242              		.fpu fpv4-sp-d16
 3243              		.type	parameter_string_declare, %function
 3244              	parameter_string_declare:
 3245              	.LFB291:
 3246              		.loc 4 514 0
 3247              		.cfi_startproc
 3248              		@ args = 4, pretend = 0, frame = 32
 3249              		@ frame_needed = 0, uses_anonymous_args = 0
ARM GAS  C:\Users\PCHAUT~1\AppData\Local\Temp\ccxXBCq6.s 			page 58


 3250 0000 00B5     		push	{lr}
 3251              		.cfi_def_cfa_offset 4
 3252              		.cfi_offset 14, -4
 3253 0002 89B0     		sub	sp, sp, #36
 3254              		.cfi_def_cfa_offset 40
 3255 0004 0590     		str	r0, [sp, #20]
 3256 0006 0491     		str	r1, [sp, #16]
 3257 0008 0392     		str	r2, [sp, #12]
 3258 000a 0293     		str	r3, [sp, #8]
 3259 000c BDF82830 		ldrh	r3, [sp, #40]	@ movhi
 3260 0010 ADF80630 		strh	r3, [sp, #6]	@ movhi
 3261              		.loc 4 514 0
 3262 0014 0E4B     		ldr	r3, .L268
 3263 0016 1B68     		ldr	r3, [r3]
 3264 0018 0793     		str	r3, [sp, #28]
 3265              		.loc 4 515 0
 3266 001a 059B     		ldr	r3, [sp, #20]
 3267 001c 0422     		movs	r2, #4
 3268 001e 9A73     		strb	r2, [r3, #14]
 3269              		.loc 4 516 0
 3270 0020 059B     		ldr	r3, [sp, #20]
 3271 0022 029A     		ldr	r2, [sp, #8]
 3272 0024 1A61     		str	r2, [r3, #16]
 3273              		.loc 4 517 0
 3274 0026 059B     		ldr	r3, [sp, #20]
 3275 0028 BDF80620 		ldrh	r2, [sp, #6]	@ movhi
 3276 002c 9A82     		strh	r2, [r3, #20]	@ movhi
 3277              		.loc 4 518 0
 3278 002e 039A     		ldr	r2, [sp, #12]
 3279 0030 0499     		ldr	r1, [sp, #16]
 3280 0032 0598     		ldr	r0, [sp, #20]
 3281 0034 FFF7FEFF 		bl	_parameter_declare
 3282              		.loc 4 519 0
 3283 0038 00BF     		nop
 3284 003a 054B     		ldr	r3, .L268
 3285 003c 079A     		ldr	r2, [sp, #28]
 3286 003e 1B68     		ldr	r3, [r3]
 3287 0040 9A42     		cmp	r2, r3
 3288 0042 01D0     		beq	.L267
 3289 0044 FFF7FEFF 		bl	__stack_chk_fail
 3290              	.L267:
 3291 0048 09B0     		add	sp, sp, #36
 3292              		.cfi_def_cfa_offset 4
 3293              		@ sp needed
 3294 004a 5DF804FB 		ldr	pc, [sp], #4
 3295              	.L269:
 3296 004e 00BF     		.align	2
 3297              	.L268:
 3298 0050 00000000 		.word	__stack_chk_guard
 3299              		.cfi_endproc
 3300              	.LFE291:
 3301              		.size	parameter_string_declare, .-parameter_string_declare
 3302              		.section	.text.parameter_string_declare_with_default,"ax",%progbits
 3303              		.align	1
 3304              		.p2align 4,,15
 3305              		.global	parameter_string_declare_with_default
 3306              		.syntax unified
ARM GAS  C:\Users\PCHAUT~1\AppData\Local\Temp\ccxXBCq6.s 			page 59


 3307              		.thumb
 3308              		.thumb_func
 3309              		.fpu fpv4-sp-d16
 3310              		.type	parameter_string_declare_with_default, %function
 3311              	parameter_string_declare_with_default:
 3312              	.LFB292:
 3313              		.loc 4 527 0
 3314              		.cfi_startproc
 3315              		@ args = 8, pretend = 0, frame = 32
 3316              		@ frame_needed = 0, uses_anonymous_args = 0
 3317 0000 00B5     		push	{lr}
 3318              		.cfi_def_cfa_offset 4
 3319              		.cfi_offset 14, -4
 3320 0002 8BB0     		sub	sp, sp, #44
 3321              		.cfi_def_cfa_offset 48
 3322 0004 0790     		str	r0, [sp, #28]
 3323 0006 0691     		str	r1, [sp, #24]
 3324 0008 0592     		str	r2, [sp, #20]
 3325 000a 0493     		str	r3, [sp, #16]
 3326 000c BDF83030 		ldrh	r3, [sp, #48]	@ movhi
 3327 0010 ADF80E30 		strh	r3, [sp, #14]	@ movhi
 3328 0014 0D9B     		ldr	r3, [sp, #52]
 3329 0016 0293     		str	r3, [sp, #8]
 3330              		.loc 4 527 0
 3331 0018 184B     		ldr	r3, .L273
 3332 001a 1B68     		ldr	r3, [r3]
 3333 001c 0993     		str	r3, [sp, #36]
 3334              		.loc 4 528 0
 3335 001e BDF80E30 		ldrh	r3, [sp, #14]
 3336 0022 0093     		str	r3, [sp]
 3337 0024 049B     		ldr	r3, [sp, #16]
 3338 0026 059A     		ldr	r2, [sp, #20]
 3339 0028 0699     		ldr	r1, [sp, #24]
 3340 002a 0798     		ldr	r0, [sp, #28]
 3341 002c FFF7FEFF 		bl	parameter_string_declare
 3342              		.loc 4 529 0
 3343 0030 0298     		ldr	r0, [sp, #8]
 3344 0032 FFF7FEFF 		bl	strlen
 3345 0036 0346     		mov	r3, r0
 3346 0038 9AB2     		uxth	r2, r3
 3347 003a 079B     		ldr	r3, [sp, #28]
 3348 003c DA82     		strh	r2, [r3, #22]	@ movhi
 3349              		.loc 4 530 0
 3350 003e 079B     		ldr	r3, [sp, #28]
 3351 0040 DB8A     		ldrh	r3, [r3, #22]
 3352 0042 BDF80E20 		ldrh	r2, [sp, #14]
 3353 0046 9A42     		cmp	r2, r3
 3354 0048 02D2     		bcs	.L271
 3355              		.loc 4 530 0 is_stmt 0 discriminator 2
 3356 004a 0D48     		ldr	r0, .L273+4
 3357 004c FFF7FEFF 		bl	chSysHalt
 3358              	.L271:
 3359              		.loc 4 531 0 is_stmt 1
 3360 0050 079B     		ldr	r3, [sp, #28]
 3361 0052 1B69     		ldr	r3, [r3, #16]
 3362 0054 BDF80E20 		ldrh	r2, [sp, #14]
 3363 0058 0299     		ldr	r1, [sp, #8]
ARM GAS  C:\Users\PCHAUT~1\AppData\Local\Temp\ccxXBCq6.s 			page 60


 3364 005a 1846     		mov	r0, r3
 3365 005c FFF7FEFF 		bl	strncpy
 3366              		.loc 4 532 0
 3367 0060 0798     		ldr	r0, [sp, #28]
 3368 0062 FFF7FEFF 		bl	_parameter_changed_set
 3369              		.loc 4 533 0
 3370 0066 00BF     		nop
 3371 0068 044B     		ldr	r3, .L273
 3372 006a 099A     		ldr	r2, [sp, #36]
 3373 006c 1B68     		ldr	r3, [r3]
 3374 006e 9A42     		cmp	r2, r3
 3375 0070 01D0     		beq	.L272
 3376 0072 FFF7FEFF 		bl	__stack_chk_fail
 3377              	.L272:
 3378 0076 0BB0     		add	sp, sp, #44
 3379              		.cfi_def_cfa_offset 4
 3380              		@ sp needed
 3381 0078 5DF804FB 		ldr	pc, [sp], #4
 3382              	.L274:
 3383              		.align	2
 3384              	.L273:
 3385 007c 00000000 		.word	__stack_chk_guard
 3386 0080 00000000 		.word	__func__.9223
 3387              		.cfi_endproc
 3388              	.LFE292:
 3389              		.size	parameter_string_declare_with_default, .-parameter_string_declare_with_default
 3390              		.section	.text.parameter_string_max_len,"ax",%progbits
 3391              		.align	1
 3392              		.p2align 4,,15
 3393              		.global	parameter_string_max_len
 3394              		.syntax unified
 3395              		.thumb
 3396              		.thumb_func
 3397              		.fpu fpv4-sp-d16
 3398              		.type	parameter_string_max_len, %function
 3399              	parameter_string_max_len:
 3400              	.LFB293:
 3401              		.loc 4 536 0
 3402              		.cfi_startproc
 3403              		@ args = 0, pretend = 0, frame = 16
 3404              		@ frame_needed = 0, uses_anonymous_args = 0
 3405 0000 00B5     		push	{lr}
 3406              		.cfi_def_cfa_offset 4
 3407              		.cfi_offset 14, -4
 3408 0002 85B0     		sub	sp, sp, #20
 3409              		.cfi_def_cfa_offset 24
 3410 0004 0190     		str	r0, [sp, #4]
 3411              		.loc 4 536 0
 3412 0006 0C4B     		ldr	r3, .L279
 3413 0008 1B68     		ldr	r3, [r3]
 3414 000a 0393     		str	r3, [sp, #12]
 3415              		.loc 4 537 0
 3416 000c 019B     		ldr	r3, [sp, #4]
 3417 000e 9B7B     		ldrb	r3, [r3, #14]	@ zero_extendqisi2
 3418 0010 042B     		cmp	r3, #4
 3419 0012 02D0     		beq	.L276
 3420              		.loc 4 537 0 is_stmt 0 discriminator 2
ARM GAS  C:\Users\PCHAUT~1\AppData\Local\Temp\ccxXBCq6.s 			page 61


 3421 0014 0948     		ldr	r0, .L279+4
 3422 0016 FFF7FEFF 		bl	chSysHalt
 3423              	.L276:
 3424              		.loc 4 538 0 is_stmt 1
 3425 001a 019B     		ldr	r3, [sp, #4]
 3426 001c 9B8A     		ldrh	r3, [r3, #20]
 3427 001e 0133     		adds	r3, r3, #1
 3428 0020 9BB2     		uxth	r3, r3
 3429              		.loc 4 539 0
 3430 0022 1846     		mov	r0, r3
 3431 0024 044B     		ldr	r3, .L279
 3432 0026 039A     		ldr	r2, [sp, #12]
 3433 0028 1B68     		ldr	r3, [r3]
 3434 002a 9A42     		cmp	r2, r3
 3435 002c 01D0     		beq	.L278
 3436 002e FFF7FEFF 		bl	__stack_chk_fail
 3437              	.L278:
 3438 0032 05B0     		add	sp, sp, #20
 3439              		.cfi_def_cfa_offset 4
 3440              		@ sp needed
 3441 0034 5DF804FB 		ldr	pc, [sp], #4
 3442              	.L280:
 3443              		.align	2
 3444              	.L279:
 3445 0038 00000000 		.word	__stack_chk_guard
 3446 003c 00000000 		.word	__func__.9227
 3447              		.cfi_endproc
 3448              	.LFE293:
 3449              		.size	parameter_string_max_len, .-parameter_string_max_len
 3450              		.section	.text.parameter_string_get,"ax",%progbits
 3451              		.align	1
 3452              		.p2align 4,,15
 3453              		.global	parameter_string_get
 3454              		.syntax unified
 3455              		.thumb
 3456              		.thumb_func
 3457              		.fpu fpv4-sp-d16
 3458              		.type	parameter_string_get, %function
 3459              	parameter_string_get:
 3460              	.LFB294:
 3461              		.loc 4 542 0
 3462              		.cfi_startproc
 3463              		@ args = 0, pretend = 0, frame = 24
 3464              		@ frame_needed = 0, uses_anonymous_args = 0
 3465 0000 00B5     		push	{lr}
 3466              		.cfi_def_cfa_offset 4
 3467              		.cfi_offset 14, -4
 3468 0002 87B0     		sub	sp, sp, #28
 3469              		.cfi_def_cfa_offset 32
 3470 0004 0390     		str	r0, [sp, #12]
 3471 0006 0291     		str	r1, [sp, #8]
 3472 0008 1346     		mov	r3, r2
 3473 000a ADF80630 		strh	r3, [sp, #6]	@ movhi
 3474              		.loc 4 542 0
 3475 000e 0C4B     		ldr	r3, .L284
 3476 0010 1B68     		ldr	r3, [r3]
 3477 0012 0593     		str	r3, [sp, #20]
ARM GAS  C:\Users\PCHAUT~1\AppData\Local\Temp\ccxXBCq6.s 			page 62


 3478              		.loc 4 543 0
 3479 0014 0398     		ldr	r0, [sp, #12]
 3480 0016 FFF7FEFF 		bl	_parameter_changed_clear
 3481              		.loc 4 544 0
 3482 001a BDF80630 		ldrh	r3, [sp, #6]
 3483 001e 1A46     		mov	r2, r3
 3484 0020 0299     		ldr	r1, [sp, #8]
 3485 0022 0398     		ldr	r0, [sp, #12]
 3486 0024 FFF7FEFF 		bl	parameter_string_read
 3487 0028 0346     		mov	r3, r0
 3488              		.loc 4 545 0
 3489 002a 1846     		mov	r0, r3
 3490 002c 044B     		ldr	r3, .L284
 3491 002e 059A     		ldr	r2, [sp, #20]
 3492 0030 1B68     		ldr	r3, [r3]
 3493 0032 9A42     		cmp	r2, r3
 3494 0034 01D0     		beq	.L283
 3495 0036 FFF7FEFF 		bl	__stack_chk_fail
 3496              	.L283:
 3497 003a 07B0     		add	sp, sp, #28
 3498              		.cfi_def_cfa_offset 4
 3499              		@ sp needed
 3500 003c 5DF804FB 		ldr	pc, [sp], #4
 3501              	.L285:
 3502              		.align	2
 3503              	.L284:
 3504 0040 00000000 		.word	__stack_chk_guard
 3505              		.cfi_endproc
 3506              	.LFE294:
 3507              		.size	parameter_string_get, .-parameter_string_get
 3508              		.section	.text.parameter_string_read,"ax",%progbits
 3509              		.align	1
 3510              		.p2align 4,,15
 3511              		.global	parameter_string_read
 3512              		.syntax unified
 3513              		.thumb
 3514              		.thumb_func
 3515              		.fpu fpv4-sp-d16
 3516              		.type	parameter_string_read, %function
 3517              	parameter_string_read:
 3518              	.LFB295:
 3519              		.loc 4 548 0
 3520              		.cfi_startproc
 3521              		@ args = 0, pretend = 0, frame = 24
 3522              		@ frame_needed = 0, uses_anonymous_args = 0
 3523 0000 00B5     		push	{lr}
 3524              		.cfi_def_cfa_offset 4
 3525              		.cfi_offset 14, -4
 3526 0002 87B0     		sub	sp, sp, #28
 3527              		.cfi_def_cfa_offset 32
 3528 0004 0390     		str	r0, [sp, #12]
 3529 0006 0291     		str	r1, [sp, #8]
 3530 0008 1346     		mov	r3, r2
 3531 000a ADF80630 		strh	r3, [sp, #6]	@ movhi
 3532              		.loc 4 548 0
 3533 000e 274B     		ldr	r3, .L293
 3534 0010 1B68     		ldr	r3, [r3]
ARM GAS  C:\Users\PCHAUT~1\AppData\Local\Temp\ccxXBCq6.s 			page 63


 3535 0012 0593     		str	r3, [sp, #20]
 3536              		.loc 4 549 0
 3537 0014 039B     		ldr	r3, [sp, #12]
 3538 0016 9B7B     		ldrb	r3, [r3, #14]	@ zero_extendqisi2
 3539 0018 042B     		cmp	r3, #4
 3540 001a 02D0     		beq	.L287
 3541              		.loc 4 549 0 is_stmt 0 discriminator 2
 3542 001c 2448     		ldr	r0, .L293+4
 3543 001e FFF7FEFF 		bl	chSysHalt
 3544              	.L287:
 3545              		.loc 4 550 0 is_stmt 1
 3546 0022 FFF7FEFF 		bl	chSysLock
 3547              		.loc 4 551 0
 3548 0026 039B     		ldr	r3, [sp, #12]
 3549 0028 5B7B     		ldrb	r3, [r3, #13]	@ zero_extendqisi2
 3550 002a 83F00103 		eor	r3, r3, #1
 3551 002e DBB2     		uxtb	r3, r3
 3552 0030 002B     		cmp	r3, #0
 3553 0032 02D0     		beq	.L288
 3554              		.loc 4 551 0 is_stmt 0 discriminator 2
 3555 0034 1E48     		ldr	r0, .L293+4
 3556 0036 FFF7FEFF 		bl	chSysHalt
 3557              	.L288:
 3558              		.loc 4 552 0 is_stmt 1
 3559 003a 039B     		ldr	r3, [sp, #12]
 3560 003c DB8A     		ldrh	r3, [r3, #22]	@ movhi
 3561 003e ADF81230 		strh	r3, [sp, #18]	@ movhi
 3562              		.loc 4 553 0
 3563 0042 BDF80620 		ldrh	r2, [sp, #6]
 3564 0046 BDF81230 		ldrh	r3, [sp, #18]
 3565 004a 9A42     		cmp	r2, r3
 3566 004c 0ED9     		bls	.L289
 3567              		.loc 4 554 0
 3568 004e 039B     		ldr	r3, [sp, #12]
 3569 0050 1B69     		ldr	r3, [r3, #16]
 3570 0052 BDF81220 		ldrh	r2, [sp, #18]
 3571 0056 1946     		mov	r1, r3
 3572 0058 0298     		ldr	r0, [sp, #8]
 3573 005a FFF7FEFF 		bl	memcpy
 3574              		.loc 4 555 0
 3575 005e BDF81230 		ldrh	r3, [sp, #18]
 3576 0062 029A     		ldr	r2, [sp, #8]
 3577 0064 1344     		add	r3, r3, r2
 3578 0066 0022     		movs	r2, #0
 3579 0068 1A70     		strb	r2, [r3]
 3580 006a 0FE0     		b	.L290
 3581              	.L289:
 3582              		.loc 4 557 0
 3583 006c 039B     		ldr	r3, [sp, #12]
 3584 006e 1969     		ldr	r1, [r3, #16]
 3585 0070 BDF80630 		ldrh	r3, [sp, #6]
 3586 0074 013B     		subs	r3, r3, #1
 3587 0076 1A46     		mov	r2, r3
 3588 0078 0298     		ldr	r0, [sp, #8]
 3589 007a FFF7FEFF 		bl	memcpy
 3590              		.loc 4 558 0
 3591 007e BDF80630 		ldrh	r3, [sp, #6]
ARM GAS  C:\Users\PCHAUT~1\AppData\Local\Temp\ccxXBCq6.s 			page 64


 3592 0082 013B     		subs	r3, r3, #1
 3593 0084 029A     		ldr	r2, [sp, #8]
 3594 0086 1344     		add	r3, r3, r2
 3595 0088 0022     		movs	r2, #0
 3596 008a 1A70     		strb	r2, [r3]
 3597              	.L290:
 3598              		.loc 4 560 0
 3599 008c FFF7FEFF 		bl	chSysUnlock
 3600              		.loc 4 561 0
 3601 0090 BDF81230 		ldrh	r3, [sp, #18]
 3602              		.loc 4 562 0
 3603 0094 1846     		mov	r0, r3
 3604 0096 054B     		ldr	r3, .L293
 3605 0098 059A     		ldr	r2, [sp, #20]
 3606 009a 1B68     		ldr	r3, [r3]
 3607 009c 9A42     		cmp	r2, r3
 3608 009e 01D0     		beq	.L292
 3609 00a0 FFF7FEFF 		bl	__stack_chk_fail
 3610              	.L292:
 3611 00a4 07B0     		add	sp, sp, #28
 3612              		.cfi_def_cfa_offset 4
 3613              		@ sp needed
 3614 00a6 5DF804FB 		ldr	pc, [sp], #4
 3615              	.L294:
 3616 00aa 00BF     		.align	2
 3617              	.L293:
 3618 00ac 00000000 		.word	__stack_chk_guard
 3619 00b0 00000000 		.word	__func__.9238
 3620              		.cfi_endproc
 3621              	.LFE295:
 3622              		.size	parameter_string_read, .-parameter_string_read
 3623              		.section	.text.parameter_string_set,"ax",%progbits
 3624              		.align	1
 3625              		.p2align 4,,15
 3626              		.global	parameter_string_set
 3627              		.syntax unified
 3628              		.thumb
 3629              		.thumb_func
 3630              		.fpu fpv4-sp-d16
 3631              		.type	parameter_string_set, %function
 3632              	parameter_string_set:
 3633              	.LFB296:
 3634              		.loc 4 565 0
 3635              		.cfi_startproc
 3636              		@ args = 0, pretend = 0, frame = 16
 3637              		@ frame_needed = 0, uses_anonymous_args = 0
 3638 0000 00B5     		push	{lr}
 3639              		.cfi_def_cfa_offset 4
 3640              		.cfi_offset 14, -4
 3641 0002 85B0     		sub	sp, sp, #20
 3642              		.cfi_def_cfa_offset 24
 3643 0004 0190     		str	r0, [sp, #4]
 3644 0006 0091     		str	r1, [sp]
 3645              		.loc 4 565 0
 3646 0008 0B4B     		ldr	r3, .L297
 3647 000a 1B68     		ldr	r3, [r3]
 3648 000c 0393     		str	r3, [sp, #12]
ARM GAS  C:\Users\PCHAUT~1\AppData\Local\Temp\ccxXBCq6.s 			page 65


 3649              		.loc 4 566 0
 3650 000e 0098     		ldr	r0, [sp]
 3651 0010 FFF7FEFF 		bl	strlen
 3652 0014 0346     		mov	r3, r0
 3653 0016 9BB2     		uxth	r3, r3
 3654 0018 1A46     		mov	r2, r3
 3655 001a 0099     		ldr	r1, [sp]
 3656 001c 0198     		ldr	r0, [sp, #4]
 3657 001e FFF7FEFF 		bl	parameter_string_set_w_len
 3658              		.loc 4 567 0
 3659 0022 00BF     		nop
 3660 0024 044B     		ldr	r3, .L297
 3661 0026 039A     		ldr	r2, [sp, #12]
 3662 0028 1B68     		ldr	r3, [r3]
 3663 002a 9A42     		cmp	r2, r3
 3664 002c 01D0     		beq	.L296
 3665 002e FFF7FEFF 		bl	__stack_chk_fail
 3666              	.L296:
 3667 0032 05B0     		add	sp, sp, #20
 3668              		.cfi_def_cfa_offset 4
 3669              		@ sp needed
 3670 0034 5DF804FB 		ldr	pc, [sp], #4
 3671              	.L298:
 3672              		.align	2
 3673              	.L297:
 3674 0038 00000000 		.word	__stack_chk_guard
 3675              		.cfi_endproc
 3676              	.LFE296:
 3677              		.size	parameter_string_set, .-parameter_string_set
 3678              		.section	.text.parameter_string_set_w_len,"ax",%progbits
 3679              		.align	1
 3680              		.p2align 4,,15
 3681              		.global	parameter_string_set_w_len
 3682              		.syntax unified
 3683              		.thumb
 3684              		.thumb_func
 3685              		.fpu fpv4-sp-d16
 3686              		.type	parameter_string_set_w_len, %function
 3687              	parameter_string_set_w_len:
 3688              	.LFB297:
 3689              		.loc 4 570 0
 3690              		.cfi_startproc
 3691              		@ args = 0, pretend = 0, frame = 24
 3692              		@ frame_needed = 0, uses_anonymous_args = 0
 3693 0000 00B5     		push	{lr}
 3694              		.cfi_def_cfa_offset 4
 3695              		.cfi_offset 14, -4
 3696 0002 87B0     		sub	sp, sp, #28
 3697              		.cfi_def_cfa_offset 32
 3698 0004 0390     		str	r0, [sp, #12]
 3699 0006 0291     		str	r1, [sp, #8]
 3700 0008 1346     		mov	r3, r2
 3701 000a ADF80630 		strh	r3, [sp, #6]	@ movhi
 3702              		.loc 4 570 0
 3703 000e 184B     		ldr	r3, .L303
 3704 0010 1B68     		ldr	r3, [r3]
 3705 0012 0593     		str	r3, [sp, #20]
ARM GAS  C:\Users\PCHAUT~1\AppData\Local\Temp\ccxXBCq6.s 			page 66


 3706              		.loc 4 571 0
 3707 0014 039B     		ldr	r3, [sp, #12]
 3708 0016 9B7B     		ldrb	r3, [r3, #14]	@ zero_extendqisi2
 3709 0018 042B     		cmp	r3, #4
 3710 001a 02D0     		beq	.L300
 3711              		.loc 4 571 0 is_stmt 0 discriminator 2
 3712 001c 1548     		ldr	r0, .L303+4
 3713 001e FFF7FEFF 		bl	chSysHalt
 3714              	.L300:
 3715              		.loc 4 572 0 is_stmt 1
 3716 0022 FFF7FEFF 		bl	chSysLock
 3717              		.loc 4 573 0
 3718 0026 039B     		ldr	r3, [sp, #12]
 3719 0028 9B8A     		ldrh	r3, [r3, #20]
 3720 002a BDF80620 		ldrh	r2, [sp, #6]
 3721 002e 9A42     		cmp	r2, r3
 3722 0030 02D9     		bls	.L301
 3723              		.loc 4 573 0 is_stmt 0 discriminator 2
 3724 0032 1048     		ldr	r0, .L303+4
 3725 0034 FFF7FEFF 		bl	chSysHalt
 3726              	.L301:
 3727              		.loc 4 574 0 is_stmt 1
 3728 0038 039B     		ldr	r3, [sp, #12]
 3729 003a 1B69     		ldr	r3, [r3, #16]
 3730 003c BDF80620 		ldrh	r2, [sp, #6]
 3731 0040 0299     		ldr	r1, [sp, #8]
 3732 0042 1846     		mov	r0, r3
 3733 0044 FFF7FEFF 		bl	memcpy
 3734              		.loc 4 575 0
 3735 0048 039B     		ldr	r3, [sp, #12]
 3736 004a BDF80620 		ldrh	r2, [sp, #6]	@ movhi
 3737 004e DA82     		strh	r2, [r3, #22]	@ movhi
 3738              		.loc 4 576 0
 3739 0050 FFF7FEFF 		bl	chSysUnlock
 3740              		.loc 4 577 0
 3741 0054 0398     		ldr	r0, [sp, #12]
 3742 0056 FFF7FEFF 		bl	_parameter_changed_set
 3743              		.loc 4 578 0
 3744 005a 00BF     		nop
 3745 005c 044B     		ldr	r3, .L303
 3746 005e 059A     		ldr	r2, [sp, #20]
 3747 0060 1B68     		ldr	r3, [r3]
 3748 0062 9A42     		cmp	r2, r3
 3749 0064 01D0     		beq	.L302
 3750 0066 FFF7FEFF 		bl	__stack_chk_fail
 3751              	.L302:
 3752 006a 07B0     		add	sp, sp, #28
 3753              		.cfi_def_cfa_offset 4
 3754              		@ sp needed
 3755 006c 5DF804FB 		ldr	pc, [sp], #4
 3756              	.L304:
 3757              		.align	2
 3758              	.L303:
 3759 0070 00000000 		.word	__stack_chk_guard
 3760 0074 00000000 		.word	__func__.9249
 3761              		.cfi_endproc
 3762              	.LFE297:
ARM GAS  C:\Users\PCHAUT~1\AppData\Local\Temp\ccxXBCq6.s 			page 67


 3763              		.size	parameter_string_set_w_len, .-parameter_string_set_w_len
 3764              		.section	.rodata.__func__.8162,"a",%progbits
 3765              		.align	2
 3766              		.type	__func__.8162, %object
 3767              		.size	__func__.8162, 12
 3768              	__func__.8162:
 3769 0000 63685379 		.ascii	"chSysUnlock\000"
 3769      73556E6C 
 3769      6F636B00 
 3770              		.section	.rodata.__func__.9069,"a",%progbits
 3771              		.align	2
 3772              		.type	__func__.9069, %object
 3773              		.size	__func__.9069, 22
 3774              	__func__.9069:
 3775 0000 70617261 		.ascii	"parameter_scalar_read\000"
 3775      6D657465 
 3775      725F7363 
 3775      616C6172 
 3775      5F726561 
 3776              		.section	.rodata.__func__.9075,"a",%progbits
 3777              		.align	2
 3778              		.type	__func__.9075, %object
 3779              		.size	__func__.9075, 21
 3780              	__func__.9075:
 3781 0000 70617261 		.ascii	"parameter_scalar_set\000"
 3781      6D657465 
 3781      725F7363 
 3781      616C6172 
 3781      5F736574 
 3782              		.section	.rodata.__func__.9093,"a",%progbits
 3783              		.align	2
 3784              		.type	__func__.9093, %object
 3785              		.size	__func__.9093, 23
 3786              	__func__.9093:
 3787 0000 70617261 		.ascii	"parameter_integer_read\000"
 3787      6D657465 
 3787      725F696E 
 3787      74656765 
 3787      725F7265 
 3788              		.section	.rodata.__func__.9099,"a",%progbits
 3789              		.align	2
 3790              		.type	__func__.9099, %object
 3791              		.size	__func__.9099, 22
 3792              	__func__.9099:
 3793 0000 70617261 		.ascii	"parameter_integer_set\000"
 3793      6D657465 
 3793      725F696E 
 3793      74656765 
 3793      725F7365 
 3794              		.section	.rodata.__func__.9115,"a",%progbits
 3795              		.align	2
 3796              		.type	__func__.9115, %object
 3797              		.size	__func__.9115, 22
 3798              	__func__.9115:
 3799 0000 70617261 		.ascii	"parameter_boolean_set\000"
 3799      6D657465 
 3799      725F626F 
ARM GAS  C:\Users\PCHAUT~1\AppData\Local\Temp\ccxXBCq6.s 			page 68


 3799      6F6C6561 
 3799      6E5F7365 
 3800              		.section	.rodata.__func__.9122,"a",%progbits
 3801              		.align	2
 3802              		.type	__func__.9122, %object
 3803              		.size	__func__.9122, 23
 3804              	__func__.9122:
 3805 0000 70617261 		.ascii	"parameter_boolean_read\000"
 3805      6D657465 
 3805      725F626F 
 3805      6F6C6561 
 3805      6E5F7265 
 3806              		.section	.rodata.__func__.9141,"a",%progbits
 3807              		.align	2
 3808              		.type	__func__.9141, %object
 3809              		.size	__func__.9141, 21
 3810              	__func__.9141:
 3811 0000 70617261 		.ascii	"parameter_vector_dim\000"
 3811      6D657465 
 3811      725F7665 
 3811      63746F72 
 3811      5F64696D 
 3812              		.section	.rodata.__func__.9150,"a",%progbits
 3813              		.align	2
 3814              		.type	__func__.9150, %object
 3815              		.size	__func__.9150, 22
 3816              	__func__.9150:
 3817 0000 70617261 		.ascii	"parameter_vector_read\000"
 3817      6D657465 
 3817      725F7665 
 3817      63746F72 
 3817      5F726561 
 3818              		.section	.rodata.__func__.9159,"a",%progbits
 3819              		.align	2
 3820              		.type	__func__.9159, %object
 3821              		.size	__func__.9159, 21
 3822              	__func__.9159:
 3823 0000 70617261 		.ascii	"parameter_vector_set\000"
 3823      6D657465 
 3823      725F7665 
 3823      63746F72 
 3823      5F736574 
 3824              		.section	.rodata.__func__.9179,"a",%progbits
 3825              		.align	2
 3826              		.type	__func__.9179, %object
 3827              		.size	__func__.9179, 47
 3828              	__func__.9179:
 3829 0000 70617261 		.ascii	"parameter_variable_vector_declare_with_default\000"
 3829      6D657465 
 3829      725F7661 
 3829      72696162 
 3829      6C655F76 
 3830              		.section	.rodata.__func__.9183,"a",%progbits
 3831              		.align	2
 3832              		.type	__func__.9183, %object
 3833              		.size	__func__.9183, 34
 3834              	__func__.9183:
ARM GAS  C:\Users\PCHAUT~1\AppData\Local\Temp\ccxXBCq6.s 			page 69


 3835 0000 70617261 		.ascii	"parameter_variable_vector_max_dim\000"
 3835      6D657465 
 3835      725F7661 
 3835      72696162 
 3835      6C655F76 
 3836              		.section	.rodata.__func__.9192,"a",%progbits
 3837              		.align	2
 3838              		.type	__func__.9192, %object
 3839              		.size	__func__.9192, 31
 3840              	__func__.9192:
 3841 0000 70617261 		.ascii	"parameter_variable_vector_read\000"
 3841      6D657465 
 3841      725F7661 
 3841      72696162 
 3841      6C655F76 
 3842              		.section	.rodata.__func__.9203,"a",%progbits
 3843              		.align	2
 3844              		.type	__func__.9203, %object
 3845              		.size	__func__.9203, 30
 3846              	__func__.9203:
 3847 0000 70617261 		.ascii	"parameter_variable_vector_set\000"
 3847      6D657465 
 3847      725F7661 
 3847      72696162 
 3847      6C655F76 
 3848              		.section	.rodata.__func__.9223,"a",%progbits
 3849              		.align	2
 3850              		.type	__func__.9223, %object
 3851              		.size	__func__.9223, 38
 3852              	__func__.9223:
 3853 0000 70617261 		.ascii	"parameter_string_declare_with_default\000"
 3853      6D657465 
 3853      725F7374 
 3853      72696E67 
 3853      5F646563 
 3854              		.section	.rodata.__func__.9227,"a",%progbits
 3855              		.align	2
 3856              		.type	__func__.9227, %object
 3857              		.size	__func__.9227, 25
 3858              	__func__.9227:
 3859 0000 70617261 		.ascii	"parameter_string_max_len\000"
 3859      6D657465 
 3859      725F7374 
 3859      72696E67 
 3859      5F6D6178 
 3860              		.section	.rodata.__func__.9238,"a",%progbits
 3861              		.align	2
 3862              		.type	__func__.9238, %object
 3863              		.size	__func__.9238, 22
 3864              	__func__.9238:
 3865 0000 70617261 		.ascii	"parameter_string_read\000"
 3865      6D657465 
 3865      725F7374 
 3865      72696E67 
 3865      5F726561 
 3866              		.section	.rodata.__func__.9249,"a",%progbits
 3867              		.align	2
ARM GAS  C:\Users\PCHAUT~1\AppData\Local\Temp\ccxXBCq6.s 			page 70


 3868              		.type	__func__.9249, %object
 3869              		.size	__func__.9249, 27
 3870              	__func__.9249:
 3871 0000 70617261 		.ascii	"parameter_string_set_w_len\000"
 3871      6D657465 
 3871      725F7374 
 3871      72696E67 
 3871      5F736574 
 3872              		.text
 3873              	.Letext0:
 3874              		.file 5 "c:\\users\\pchautems\\documents\\robotiquetp\\eclipse_e-puck2\\tools\\gcc-arm-none-eabi-7
 3875              		.file 6 "c:\\users\\pchautems\\documents\\robotiquetp\\eclipse_e-puck2\\tools\\gcc-arm-none-eabi-7
 3876              		.file 7 "c:\\users\\pchautems\\documents\\robotiquetp\\eclipse_e-puck2\\tools\\gcc-arm-none-eabi-7
 3877              		.file 8 "c:\\users\\pchautems\\documents\\robotiquetp\\eclipse_e-puck2\\tools\\gcc-arm-none-eabi-7
 3878              		.file 9 "c:\\users\\pchautems\\documents\\robotiquetp\\eclipse_e-puck2\\tools\\gcc-arm-none-eabi-7
 3879              		.file 10 "c:\\users\\pchautems\\documents\\robotiquetp\\eclipse_e-puck2\\tools\\gcc-arm-none-eabi-
 3880              		.file 11 "c:\\users\\pchautems\\documents\\robotiquetp\\eclipse_e-puck2\\tools\\gcc-arm-none-eabi-
 3881              		.file 12 "../lib/e-puck2_main-processor/src/parameter/parameter.h"
 3882              		.file 13 "../lib/e-puck2_main-processor/ChibiOS//os/rt/ports/ARMCMx/compilers/GCC/chtypes.h"
 3883              		.file 14 "../lib/e-puck2_main-processor/ChibiOS//os/rt/include/chsystypes.h"
 3884              		.file 15 "../lib/e-puck2_main-processor/ChibiOS//os/rt/include/chschd.h"
 3885              		.file 16 "../lib/e-puck2_main-processor/ChibiOS//os/ext/CMSIS/include/core_cm4.h"
 3886              		.file 17 "../lib/e-puck2_main-processor/ChibiOS//os/ext/CMSIS/ST/system_stm32f4xx.h"
 3887              		.file 18 "../lib/e-puck2_main-processor/ChibiOS//os/rt/ports/ARMCMx/chcore.h"
 3888              		.file 19 "../lib/e-puck2_main-processor/ChibiOS//os/rt/include/chdebug.h"
 3889              		.file 20 "../lib/e-puck2_main-processor/ChibiOS//os/rt/include/chtm.h"
 3890              		.file 21 "../lib/e-puck2_main-processor/ChibiOS//os/rt/include/chstats.h"
 3891              		.file 22 "../lib/e-puck2_main-processor/ChibiOS//os/rt/include/chsem.h"
 3892              		.file 23 "../lib/e-puck2_main-processor/ChibiOS//os/rt/include/chmtx.h"
 3893              		.file 24 "../lib/e-puck2_main-processor/ChibiOS//os/rt/include/chregistry.h"
 3894              		.section	.debug_info,"",%progbits
 3895              	.Ldebug_info0:
 3896 0000 FA220000 		.4byte	0x22fa
 3897 0004 0400     		.2byte	0x4
 3898 0006 00000000 		.4byte	.Ldebug_abbrev0
 3899 000a 04       		.byte	0x4
 3900 000b 01       		.uleb128 0x1
 3901 000c 29090000 		.4byte	.LASF353
 3902 0010 0C       		.byte	0xc
 3903 0011 14110000 		.4byte	.LASF354
 3904 0015 0A0B0000 		.4byte	.LASF355
 3905 0019 00000000 		.4byte	.Ldebug_ranges0+0
 3906 001d 00000000 		.4byte	0
 3907 0021 00000000 		.4byte	.Ldebug_line0
 3908 0025 02       		.uleb128 0x2
 3909 0026 04       		.byte	0x4
 3910 0027 05       		.byte	0x5
 3911 0028 696E7400 		.ascii	"int\000"
 3912 002c 03       		.uleb128 0x3
 3913 002d 2C000000 		.4byte	.LASF4
 3914 0031 05       		.byte	0x5
 3915 0032 D8       		.byte	0xd8
 3916 0033 37000000 		.4byte	0x37
 3917 0037 04       		.uleb128 0x4
 3918 0038 04       		.byte	0x4
 3919 0039 07       		.byte	0x7
 3920 003a ED0A0000 		.4byte	.LASF0
ARM GAS  C:\Users\PCHAUT~1\AppData\Local\Temp\ccxXBCq6.s 			page 71


 3921 003e 04       		.uleb128 0x4
 3922 003f 08       		.byte	0x8
 3923 0040 05       		.byte	0x5
 3924 0041 B3080000 		.4byte	.LASF1
 3925 0045 04       		.uleb128 0x4
 3926 0046 08       		.byte	0x8
 3927 0047 04       		.byte	0x4
 3928 0048 970C0000 		.4byte	.LASF2
 3929 004c 04       		.uleb128 0x4
 3930 004d 01       		.byte	0x1
 3931 004e 06       		.byte	0x6
 3932 004f C6030000 		.4byte	.LASF3
 3933 0053 03       		.uleb128 0x3
 3934 0054 81020000 		.4byte	.LASF5
 3935 0058 06       		.byte	0x6
 3936 0059 2B       		.byte	0x2b
 3937 005a 5E000000 		.4byte	0x5e
 3938 005e 04       		.uleb128 0x4
 3939 005f 01       		.byte	0x1
 3940 0060 08       		.byte	0x8
 3941 0061 2B040000 		.4byte	.LASF6
 3942 0065 04       		.uleb128 0x4
 3943 0066 02       		.byte	0x2
 3944 0067 05       		.byte	0x5
 3945 0068 200F0000 		.4byte	.LASF7
 3946 006c 03       		.uleb128 0x3
 3947 006d 68050000 		.4byte	.LASF8
 3948 0071 06       		.byte	0x6
 3949 0072 39       		.byte	0x39
 3950 0073 77000000 		.4byte	0x77
 3951 0077 04       		.uleb128 0x4
 3952 0078 02       		.byte	0x2
 3953 0079 07       		.byte	0x7
 3954 007a 67110000 		.4byte	.LASF9
 3955 007e 03       		.uleb128 0x3
 3956 007f E7110000 		.4byte	.LASF10
 3957 0083 06       		.byte	0x6
 3958 0084 4D       		.byte	0x4d
 3959 0085 89000000 		.4byte	0x89
 3960 0089 04       		.uleb128 0x4
 3961 008a 04       		.byte	0x4
 3962 008b 05       		.byte	0x5
 3963 008c CA020000 		.4byte	.LASF11
 3964 0090 03       		.uleb128 0x3
 3965 0091 9D080000 		.4byte	.LASF12
 3966 0095 06       		.byte	0x6
 3967 0096 4F       		.byte	0x4f
 3968 0097 9B000000 		.4byte	0x9b
 3969 009b 04       		.uleb128 0x4
 3970 009c 04       		.byte	0x4
 3971 009d 07       		.byte	0x7
 3972 009e 09070000 		.4byte	.LASF13
 3973 00a2 03       		.uleb128 0x3
 3974 00a3 E0060000 		.4byte	.LASF14
 3975 00a7 06       		.byte	0x6
 3976 00a8 69       		.byte	0x69
 3977 00a9 AD000000 		.4byte	0xad
ARM GAS  C:\Users\PCHAUT~1\AppData\Local\Temp\ccxXBCq6.s 			page 72


 3978 00ad 04       		.uleb128 0x4
 3979 00ae 08       		.byte	0x8
 3980 00af 07       		.byte	0x7
 3981 00b0 500D0000 		.4byte	.LASF15
 3982 00b4 03       		.uleb128 0x3
 3983 00b5 25100000 		.4byte	.LASF16
 3984 00b9 07       		.byte	0x7
 3985 00ba 22       		.byte	0x22
 3986 00bb BF000000 		.4byte	0xbf
 3987 00bf 05       		.uleb128 0x5
 3988 00c0 04       		.byte	0x4
 3989 00c1 C5000000 		.4byte	0xc5
 3990 00c5 06       		.uleb128 0x6
 3991 00c6 62060000 		.4byte	.LASF123
 3992 00ca 03       		.uleb128 0x3
 3993 00cb 4C110000 		.4byte	.LASF17
 3994 00cf 08       		.byte	0x8
 3995 00d0 2C       		.byte	0x2c
 3996 00d1 89000000 		.4byte	0x89
 3997 00d5 03       		.uleb128 0x3
 3998 00d6 EA0C0000 		.4byte	.LASF18
 3999 00da 08       		.byte	0x8
 4000 00db 72       		.byte	0x72
 4001 00dc 89000000 		.4byte	0x89
 4002 00e0 07       		.uleb128 0x7
 4003 00e1 900E0000 		.4byte	.LASF19
 4004 00e5 05       		.byte	0x5
 4005 00e6 6501     		.2byte	0x165
 4006 00e8 37000000 		.4byte	0x37
 4007 00ec 08       		.uleb128 0x8
 4008 00ed 04       		.byte	0x4
 4009 00ee 08       		.byte	0x8
 4010 00ef A6       		.byte	0xa6
 4011 00f0 0B010000 		.4byte	0x10b
 4012 00f4 09       		.uleb128 0x9
 4013 00f5 72020000 		.4byte	.LASF20
 4014 00f9 08       		.byte	0x8
 4015 00fa A8       		.byte	0xa8
 4016 00fb E0000000 		.4byte	0xe0
 4017 00ff 09       		.uleb128 0x9
 4018 0100 F20C0000 		.4byte	.LASF21
 4019 0104 08       		.byte	0x8
 4020 0105 A9       		.byte	0xa9
 4021 0106 0B010000 		.4byte	0x10b
 4022 010a 00       		.byte	0
 4023 010b 0A       		.uleb128 0xa
 4024 010c 5E000000 		.4byte	0x5e
 4025 0110 1B010000 		.4byte	0x11b
 4026 0114 0B       		.uleb128 0xb
 4027 0115 37000000 		.4byte	0x37
 4028 0119 03       		.byte	0x3
 4029 011a 00       		.byte	0
 4030 011b 0C       		.uleb128 0xc
 4031 011c 08       		.byte	0x8
 4032 011d 08       		.byte	0x8
 4033 011e A3       		.byte	0xa3
 4034 011f 3C010000 		.4byte	0x13c
ARM GAS  C:\Users\PCHAUT~1\AppData\Local\Temp\ccxXBCq6.s 			page 73


 4035 0123 0D       		.uleb128 0xd
 4036 0124 5E0C0000 		.4byte	.LASF22
 4037 0128 08       		.byte	0x8
 4038 0129 A5       		.byte	0xa5
 4039 012a 25000000 		.4byte	0x25
 4040 012e 00       		.byte	0
 4041 012f 0D       		.uleb128 0xd
 4042 0130 50000000 		.4byte	.LASF23
 4043 0134 08       		.byte	0x8
 4044 0135 AA       		.byte	0xaa
 4045 0136 EC000000 		.4byte	0xec
 4046 013a 04       		.byte	0x4
 4047 013b 00       		.byte	0
 4048 013c 03       		.uleb128 0x3
 4049 013d 5F0E0000 		.4byte	.LASF24
 4050 0141 08       		.byte	0x8
 4051 0142 AB       		.byte	0xab
 4052 0143 1B010000 		.4byte	0x11b
 4053 0147 03       		.uleb128 0x3
 4054 0148 270E0000 		.4byte	.LASF25
 4055 014c 08       		.byte	0x8
 4056 014d AF       		.byte	0xaf
 4057 014e B4000000 		.4byte	0xb4
 4058 0152 0E       		.uleb128 0xe
 4059 0153 04       		.byte	0x4
 4060 0154 05       		.uleb128 0x5
 4061 0155 04       		.byte	0x4
 4062 0156 5A010000 		.4byte	0x15a
 4063 015a 04       		.uleb128 0x4
 4064 015b 01       		.byte	0x1
 4065 015c 08       		.byte	0x8
 4066 015d 41050000 		.4byte	.LASF26
 4067 0161 0F       		.uleb128 0xf
 4068 0162 5A010000 		.4byte	0x15a
 4069 0166 03       		.uleb128 0x3
 4070 0167 E2100000 		.4byte	.LASF27
 4071 016b 09       		.byte	0x9
 4072 016c 16       		.byte	0x16
 4073 016d 9B000000 		.4byte	0x9b
 4074 0171 10       		.uleb128 0x10
 4075 0172 1B080000 		.4byte	.LASF32
 4076 0176 18       		.byte	0x18
 4077 0177 09       		.byte	0x9
 4078 0178 2F       		.byte	0x2f
 4079 0179 C4010000 		.4byte	0x1c4
 4080 017d 0D       		.uleb128 0xd
 4081 017e 970E0000 		.4byte	.LASF28
 4082 0182 09       		.byte	0x9
 4083 0183 31       		.byte	0x31
 4084 0184 C4010000 		.4byte	0x1c4
 4085 0188 00       		.byte	0
 4086 0189 11       		.uleb128 0x11
 4087 018a 5F6B00   		.ascii	"_k\000"
 4088 018d 09       		.byte	0x9
 4089 018e 32       		.byte	0x32
 4090 018f 25000000 		.4byte	0x25
 4091 0193 04       		.byte	0x4
ARM GAS  C:\Users\PCHAUT~1\AppData\Local\Temp\ccxXBCq6.s 			page 74


 4092 0194 0D       		.uleb128 0xd
 4093 0195 42080000 		.4byte	.LASF29
 4094 0199 09       		.byte	0x9
 4095 019a 32       		.byte	0x32
 4096 019b 25000000 		.4byte	0x25
 4097 019f 08       		.byte	0x8
 4098 01a0 0D       		.uleb128 0xd
 4099 01a1 A30A0000 		.4byte	.LASF30
 4100 01a5 09       		.byte	0x9
 4101 01a6 32       		.byte	0x32
 4102 01a7 25000000 		.4byte	0x25
 4103 01ab 0C       		.byte	0xc
 4104 01ac 0D       		.uleb128 0xd
 4105 01ad 4F060000 		.4byte	.LASF31
 4106 01b1 09       		.byte	0x9
 4107 01b2 32       		.byte	0x32
 4108 01b3 25000000 		.4byte	0x25
 4109 01b7 10       		.byte	0x10
 4110 01b8 11       		.uleb128 0x11
 4111 01b9 5F7800   		.ascii	"_x\000"
 4112 01bc 09       		.byte	0x9
 4113 01bd 33       		.byte	0x33
 4114 01be CA010000 		.4byte	0x1ca
 4115 01c2 14       		.byte	0x14
 4116 01c3 00       		.byte	0
 4117 01c4 05       		.uleb128 0x5
 4118 01c5 04       		.byte	0x4
 4119 01c6 71010000 		.4byte	0x171
 4120 01ca 0A       		.uleb128 0xa
 4121 01cb 66010000 		.4byte	0x166
 4122 01cf DA010000 		.4byte	0x1da
 4123 01d3 0B       		.uleb128 0xb
 4124 01d4 37000000 		.4byte	0x37
 4125 01d8 00       		.byte	0
 4126 01d9 00       		.byte	0
 4127 01da 10       		.uleb128 0x10
 4128 01db 5B010000 		.4byte	.LASF33
 4129 01df 24       		.byte	0x24
 4130 01e0 09       		.byte	0x9
 4131 01e1 37       		.byte	0x37
 4132 01e2 53020000 		.4byte	0x253
 4133 01e6 0D       		.uleb128 0xd
 4134 01e7 77010000 		.4byte	.LASF34
 4135 01eb 09       		.byte	0x9
 4136 01ec 39       		.byte	0x39
 4137 01ed 25000000 		.4byte	0x25
 4138 01f1 00       		.byte	0
 4139 01f2 0D       		.uleb128 0xd
 4140 01f3 43120000 		.4byte	.LASF35
 4141 01f7 09       		.byte	0x9
 4142 01f8 3A       		.byte	0x3a
 4143 01f9 25000000 		.4byte	0x25
 4144 01fd 04       		.byte	0x4
 4145 01fe 0D       		.uleb128 0xd
 4146 01ff 7A110000 		.4byte	.LASF36
 4147 0203 09       		.byte	0x9
 4148 0204 3B       		.byte	0x3b
ARM GAS  C:\Users\PCHAUT~1\AppData\Local\Temp\ccxXBCq6.s 			page 75


 4149 0205 25000000 		.4byte	0x25
 4150 0209 08       		.byte	0x8
 4151 020a 0D       		.uleb128 0xd
 4152 020b 710B0000 		.4byte	.LASF37
 4153 020f 09       		.byte	0x9
 4154 0210 3C       		.byte	0x3c
 4155 0211 25000000 		.4byte	0x25
 4156 0215 0C       		.byte	0xc
 4157 0216 0D       		.uleb128 0xd
 4158 0217 92030000 		.4byte	.LASF38
 4159 021b 09       		.byte	0x9
 4160 021c 3D       		.byte	0x3d
 4161 021d 25000000 		.4byte	0x25
 4162 0221 10       		.byte	0x10
 4163 0222 0D       		.uleb128 0xd
 4164 0223 7E0F0000 		.4byte	.LASF39
 4165 0227 09       		.byte	0x9
 4166 0228 3E       		.byte	0x3e
 4167 0229 25000000 		.4byte	0x25
 4168 022d 14       		.byte	0x14
 4169 022e 0D       		.uleb128 0xd
 4170 022f 840C0000 		.4byte	.LASF40
 4171 0233 09       		.byte	0x9
 4172 0234 3F       		.byte	0x3f
 4173 0235 25000000 		.4byte	0x25
 4174 0239 18       		.byte	0x18
 4175 023a 0D       		.uleb128 0xd
 4176 023b A30C0000 		.4byte	.LASF41
 4177 023f 09       		.byte	0x9
 4178 0240 40       		.byte	0x40
 4179 0241 25000000 		.4byte	0x25
 4180 0245 1C       		.byte	0x1c
 4181 0246 0D       		.uleb128 0xd
 4182 0247 11120000 		.4byte	.LASF42
 4183 024b 09       		.byte	0x9
 4184 024c 41       		.byte	0x41
 4185 024d 25000000 		.4byte	0x25
 4186 0251 20       		.byte	0x20
 4187 0252 00       		.byte	0
 4188 0253 12       		.uleb128 0x12
 4189 0254 A6020000 		.4byte	.LASF43
 4190 0258 0801     		.2byte	0x108
 4191 025a 09       		.byte	0x9
 4192 025b 4A       		.byte	0x4a
 4193 025c 93020000 		.4byte	0x293
 4194 0260 0D       		.uleb128 0xd
 4195 0261 FA110000 		.4byte	.LASF44
 4196 0265 09       		.byte	0x9
 4197 0266 4B       		.byte	0x4b
 4198 0267 93020000 		.4byte	0x293
 4199 026b 00       		.byte	0
 4200 026c 0D       		.uleb128 0xd
 4201 026d 780D0000 		.4byte	.LASF45
 4202 0271 09       		.byte	0x9
 4203 0272 4C       		.byte	0x4c
 4204 0273 93020000 		.4byte	0x293
 4205 0277 80       		.byte	0x80
ARM GAS  C:\Users\PCHAUT~1\AppData\Local\Temp\ccxXBCq6.s 			page 76


 4206 0278 13       		.uleb128 0x13
 4207 0279 5E0F0000 		.4byte	.LASF46
 4208 027d 09       		.byte	0x9
 4209 027e 4E       		.byte	0x4e
 4210 027f 66010000 		.4byte	0x166
 4211 0283 0001     		.2byte	0x100
 4212 0285 13       		.uleb128 0x13
 4213 0286 1D100000 		.4byte	.LASF47
 4214 028a 09       		.byte	0x9
 4215 028b 51       		.byte	0x51
 4216 028c 66010000 		.4byte	0x166
 4217 0290 0401     		.2byte	0x104
 4218 0292 00       		.byte	0
 4219 0293 0A       		.uleb128 0xa
 4220 0294 52010000 		.4byte	0x152
 4221 0298 A3020000 		.4byte	0x2a3
 4222 029c 0B       		.uleb128 0xb
 4223 029d 37000000 		.4byte	0x37
 4224 02a1 1F       		.byte	0x1f
 4225 02a2 00       		.byte	0
 4226 02a3 12       		.uleb128 0x12
 4227 02a4 370C0000 		.4byte	.LASF48
 4228 02a8 9001     		.2byte	0x190
 4229 02aa 09       		.byte	0x9
 4230 02ab 5D       		.byte	0x5d
 4231 02ac E1020000 		.4byte	0x2e1
 4232 02b0 0D       		.uleb128 0xd
 4233 02b1 970E0000 		.4byte	.LASF28
 4234 02b5 09       		.byte	0x9
 4235 02b6 5E       		.byte	0x5e
 4236 02b7 E1020000 		.4byte	0x2e1
 4237 02bb 00       		.byte	0
 4238 02bc 0D       		.uleb128 0xd
 4239 02bd 00100000 		.4byte	.LASF49
 4240 02c1 09       		.byte	0x9
 4241 02c2 5F       		.byte	0x5f
 4242 02c3 25000000 		.4byte	0x25
 4243 02c7 04       		.byte	0x4
 4244 02c8 0D       		.uleb128 0xd
 4245 02c9 4C050000 		.4byte	.LASF50
 4246 02cd 09       		.byte	0x9
 4247 02ce 61       		.byte	0x61
 4248 02cf E7020000 		.4byte	0x2e7
 4249 02d3 08       		.byte	0x8
 4250 02d4 0D       		.uleb128 0xd
 4251 02d5 A6020000 		.4byte	.LASF43
 4252 02d9 09       		.byte	0x9
 4253 02da 62       		.byte	0x62
 4254 02db 53020000 		.4byte	0x253
 4255 02df 88       		.byte	0x88
 4256 02e0 00       		.byte	0
 4257 02e1 05       		.uleb128 0x5
 4258 02e2 04       		.byte	0x4
 4259 02e3 A3020000 		.4byte	0x2a3
 4260 02e7 0A       		.uleb128 0xa
 4261 02e8 F7020000 		.4byte	0x2f7
 4262 02ec F7020000 		.4byte	0x2f7
ARM GAS  C:\Users\PCHAUT~1\AppData\Local\Temp\ccxXBCq6.s 			page 77


 4263 02f0 0B       		.uleb128 0xb
 4264 02f1 37000000 		.4byte	0x37
 4265 02f5 1F       		.byte	0x1f
 4266 02f6 00       		.byte	0
 4267 02f7 05       		.uleb128 0x5
 4268 02f8 04       		.byte	0x4
 4269 02f9 FD020000 		.4byte	0x2fd
 4270 02fd 14       		.uleb128 0x14
 4271 02fe 10       		.uleb128 0x10
 4272 02ff 16100000 		.4byte	.LASF51
 4273 0303 08       		.byte	0x8
 4274 0304 09       		.byte	0x9
 4275 0305 75       		.byte	0x75
 4276 0306 23030000 		.4byte	0x323
 4277 030a 0D       		.uleb128 0xd
 4278 030b E40D0000 		.4byte	.LASF52
 4279 030f 09       		.byte	0x9
 4280 0310 76       		.byte	0x76
 4281 0311 23030000 		.4byte	0x323
 4282 0315 00       		.byte	0
 4283 0316 0D       		.uleb128 0xd
 4284 0317 09030000 		.4byte	.LASF53
 4285 031b 09       		.byte	0x9
 4286 031c 77       		.byte	0x77
 4287 031d 25000000 		.4byte	0x25
 4288 0321 04       		.byte	0x4
 4289 0322 00       		.byte	0
 4290 0323 05       		.uleb128 0x5
 4291 0324 04       		.byte	0x4
 4292 0325 5E000000 		.4byte	0x5e
 4293 0329 10       		.uleb128 0x10
 4294 032a 4D070000 		.4byte	.LASF54
 4295 032e 68       		.byte	0x68
 4296 032f 09       		.byte	0x9
 4297 0330 B5       		.byte	0xb5
 4298 0331 53040000 		.4byte	0x453
 4299 0335 11       		.uleb128 0x11
 4300 0336 5F7000   		.ascii	"_p\000"
 4301 0339 09       		.byte	0x9
 4302 033a B6       		.byte	0xb6
 4303 033b 23030000 		.4byte	0x323
 4304 033f 00       		.byte	0
 4305 0340 11       		.uleb128 0x11
 4306 0341 5F7200   		.ascii	"_r\000"
 4307 0344 09       		.byte	0x9
 4308 0345 B7       		.byte	0xb7
 4309 0346 25000000 		.4byte	0x25
 4310 034a 04       		.byte	0x4
 4311 034b 11       		.uleb128 0x11
 4312 034c 5F7700   		.ascii	"_w\000"
 4313 034f 09       		.byte	0x9
 4314 0350 B8       		.byte	0xb8
 4315 0351 25000000 		.4byte	0x25
 4316 0355 08       		.byte	0x8
 4317 0356 0D       		.uleb128 0xd
 4318 0357 160C0000 		.4byte	.LASF55
 4319 035b 09       		.byte	0x9
ARM GAS  C:\Users\PCHAUT~1\AppData\Local\Temp\ccxXBCq6.s 			page 78


 4320 035c B9       		.byte	0xb9
 4321 035d 65000000 		.4byte	0x65
 4322 0361 0C       		.byte	0xc
 4323 0362 0D       		.uleb128 0xd
 4324 0363 92020000 		.4byte	.LASF56
 4325 0367 09       		.byte	0x9
 4326 0368 BA       		.byte	0xba
 4327 0369 65000000 		.4byte	0x65
 4328 036d 0E       		.byte	0xe
 4329 036e 11       		.uleb128 0x11
 4330 036f 5F626600 		.ascii	"_bf\000"
 4331 0373 09       		.byte	0x9
 4332 0374 BB       		.byte	0xbb
 4333 0375 FE020000 		.4byte	0x2fe
 4334 0379 10       		.byte	0x10
 4335 037a 0D       		.uleb128 0xd
 4336 037b EB0F0000 		.4byte	.LASF57
 4337 037f 09       		.byte	0x9
 4338 0380 BC       		.byte	0xbc
 4339 0381 25000000 		.4byte	0x25
 4340 0385 18       		.byte	0x18
 4341 0386 0D       		.uleb128 0xd
 4342 0387 23060000 		.4byte	.LASF58
 4343 038b 09       		.byte	0x9
 4344 038c C3       		.byte	0xc3
 4345 038d 52010000 		.4byte	0x152
 4346 0391 1C       		.byte	0x1c
 4347 0392 0D       		.uleb128 0xd
 4348 0393 AD000000 		.4byte	.LASF59
 4349 0397 09       		.byte	0x9
 4350 0398 C5       		.byte	0xc5
 4351 0399 AE050000 		.4byte	0x5ae
 4352 039d 20       		.byte	0x20
 4353 039e 0D       		.uleb128 0xd
 4354 039f CF000000 		.4byte	.LASF60
 4355 03a3 09       		.byte	0x9
 4356 03a4 C7       		.byte	0xc7
 4357 03a5 DD050000 		.4byte	0x5dd
 4358 03a9 24       		.byte	0x24
 4359 03aa 0D       		.uleb128 0xd
 4360 03ab CF0C0000 		.4byte	.LASF61
 4361 03af 09       		.byte	0x9
 4362 03b0 CA       		.byte	0xca
 4363 03b1 01060000 		.4byte	0x601
 4364 03b5 28       		.byte	0x28
 4365 03b6 0D       		.uleb128 0xd
 4366 03b7 51050000 		.4byte	.LASF62
 4367 03bb 09       		.byte	0x9
 4368 03bc CB       		.byte	0xcb
 4369 03bd 1B060000 		.4byte	0x61b
 4370 03c1 2C       		.byte	0x2c
 4371 03c2 11       		.uleb128 0x11
 4372 03c3 5F756200 		.ascii	"_ub\000"
 4373 03c7 09       		.byte	0x9
 4374 03c8 CE       		.byte	0xce
 4375 03c9 FE020000 		.4byte	0x2fe
 4376 03cd 30       		.byte	0x30
ARM GAS  C:\Users\PCHAUT~1\AppData\Local\Temp\ccxXBCq6.s 			page 79


 4377 03ce 11       		.uleb128 0x11
 4378 03cf 5F757000 		.ascii	"_up\000"
 4379 03d3 09       		.byte	0x9
 4380 03d4 CF       		.byte	0xcf
 4381 03d5 23030000 		.4byte	0x323
 4382 03d9 38       		.byte	0x38
 4383 03da 11       		.uleb128 0x11
 4384 03db 5F757200 		.ascii	"_ur\000"
 4385 03df 09       		.byte	0x9
 4386 03e0 D0       		.byte	0xd0
 4387 03e1 25000000 		.4byte	0x25
 4388 03e5 3C       		.byte	0x3c
 4389 03e6 0D       		.uleb128 0xd
 4390 03e7 A40B0000 		.4byte	.LASF63
 4391 03eb 09       		.byte	0x9
 4392 03ec D3       		.byte	0xd3
 4393 03ed 21060000 		.4byte	0x621
 4394 03f1 40       		.byte	0x40
 4395 03f2 0D       		.uleb128 0xd
 4396 03f3 71010000 		.4byte	.LASF64
 4397 03f7 09       		.byte	0x9
 4398 03f8 D4       		.byte	0xd4
 4399 03f9 31060000 		.4byte	0x631
 4400 03fd 43       		.byte	0x43
 4401 03fe 11       		.uleb128 0x11
 4402 03ff 5F6C6200 		.ascii	"_lb\000"
 4403 0403 09       		.byte	0x9
 4404 0404 D7       		.byte	0xd7
 4405 0405 FE020000 		.4byte	0x2fe
 4406 0409 44       		.byte	0x44
 4407 040a 0D       		.uleb128 0xd
 4408 040b DB0D0000 		.4byte	.LASF65
 4409 040f 09       		.byte	0x9
 4410 0410 DA       		.byte	0xda
 4411 0411 25000000 		.4byte	0x25
 4412 0415 4C       		.byte	0x4c
 4413 0416 0D       		.uleb128 0xd
 4414 0417 73060000 		.4byte	.LASF66
 4415 041b 09       		.byte	0x9
 4416 041c DB       		.byte	0xdb
 4417 041d CA000000 		.4byte	0xca
 4418 0421 50       		.byte	0x50
 4419 0422 0D       		.uleb128 0xd
 4420 0423 9D0E0000 		.4byte	.LASF67
 4421 0427 09       		.byte	0x9
 4422 0428 DE       		.byte	0xde
 4423 0429 71040000 		.4byte	0x471
 4424 042d 54       		.byte	0x54
 4425 042e 0D       		.uleb128 0xd
 4426 042f DD010000 		.4byte	.LASF68
 4427 0433 09       		.byte	0x9
 4428 0434 E2       		.byte	0xe2
 4429 0435 47010000 		.4byte	0x147
 4430 0439 58       		.byte	0x58
 4431 043a 0D       		.uleb128 0xd
 4432 043b EB0B0000 		.4byte	.LASF69
 4433 043f 09       		.byte	0x9
ARM GAS  C:\Users\PCHAUT~1\AppData\Local\Temp\ccxXBCq6.s 			page 80


 4434 0440 E4       		.byte	0xe4
 4435 0441 3C010000 		.4byte	0x13c
 4436 0445 5C       		.byte	0x5c
 4437 0446 0D       		.uleb128 0xd
 4438 0447 60070000 		.4byte	.LASF70
 4439 044b 09       		.byte	0x9
 4440 044c E5       		.byte	0xe5
 4441 044d 25000000 		.4byte	0x25
 4442 0451 64       		.byte	0x64
 4443 0452 00       		.byte	0
 4444 0453 15       		.uleb128 0x15
 4445 0454 25000000 		.4byte	0x25
 4446 0458 71040000 		.4byte	0x471
 4447 045c 16       		.uleb128 0x16
 4448 045d 71040000 		.4byte	0x471
 4449 0461 16       		.uleb128 0x16
 4450 0462 52010000 		.4byte	0x152
 4451 0466 16       		.uleb128 0x16
 4452 0467 54010000 		.4byte	0x154
 4453 046b 16       		.uleb128 0x16
 4454 046c 25000000 		.4byte	0x25
 4455 0470 00       		.byte	0
 4456 0471 05       		.uleb128 0x5
 4457 0472 04       		.byte	0x4
 4458 0473 7C040000 		.4byte	0x47c
 4459 0477 0F       		.uleb128 0xf
 4460 0478 71040000 		.4byte	0x471
 4461 047c 17       		.uleb128 0x17
 4462 047d B0040000 		.4byte	.LASF71
 4463 0481 2804     		.2byte	0x428
 4464 0483 09       		.byte	0x9
 4465 0484 3902     		.2byte	0x239
 4466 0486 AE050000 		.4byte	0x5ae
 4467 048a 18       		.uleb128 0x18
 4468 048b C7070000 		.4byte	.LASF72
 4469 048f 09       		.byte	0x9
 4470 0490 3B02     		.2byte	0x23b
 4471 0492 25000000 		.4byte	0x25
 4472 0496 00       		.byte	0
 4473 0497 18       		.uleb128 0x18
 4474 0498 A5050000 		.4byte	.LASF73
 4475 049c 09       		.byte	0x9
 4476 049d 4002     		.2byte	0x240
 4477 049f 88060000 		.4byte	0x688
 4478 04a3 04       		.byte	0x4
 4479 04a4 18       		.uleb128 0x18
 4480 04a5 B00D0000 		.4byte	.LASF74
 4481 04a9 09       		.byte	0x9
 4482 04aa 4002     		.2byte	0x240
 4483 04ac 88060000 		.4byte	0x688
 4484 04b0 08       		.byte	0x8
 4485 04b1 18       		.uleb128 0x18
 4486 04b2 B60B0000 		.4byte	.LASF75
 4487 04b6 09       		.byte	0x9
 4488 04b7 4002     		.2byte	0x240
 4489 04b9 88060000 		.4byte	0x688
 4490 04bd 0C       		.byte	0xc
ARM GAS  C:\Users\PCHAUT~1\AppData\Local\Temp\ccxXBCq6.s 			page 81


 4491 04be 18       		.uleb128 0x18
 4492 04bf FB0F0000 		.4byte	.LASF76
 4493 04c3 09       		.byte	0x9
 4494 04c4 4202     		.2byte	0x242
 4495 04c6 25000000 		.4byte	0x25
 4496 04ca 10       		.byte	0x10
 4497 04cb 18       		.uleb128 0x18
 4498 04cc A8080000 		.4byte	.LASF77
 4499 04d0 09       		.byte	0x9
 4500 04d1 4302     		.2byte	0x243
 4501 04d3 6A080000 		.4byte	0x86a
 4502 04d7 14       		.byte	0x14
 4503 04d8 18       		.uleb128 0x18
 4504 04d9 97040000 		.4byte	.LASF78
 4505 04dd 09       		.byte	0x9
 4506 04de 4602     		.2byte	0x246
 4507 04e0 25000000 		.4byte	0x25
 4508 04e4 30       		.byte	0x30
 4509 04e5 18       		.uleb128 0x18
 4510 04e6 DA100000 		.4byte	.LASF79
 4511 04ea 09       		.byte	0x9
 4512 04eb 4702     		.2byte	0x247
 4513 04ed 7F080000 		.4byte	0x87f
 4514 04f1 34       		.byte	0x34
 4515 04f2 18       		.uleb128 0x18
 4516 04f3 55070000 		.4byte	.LASF80
 4517 04f7 09       		.byte	0x9
 4518 04f8 4902     		.2byte	0x249
 4519 04fa 25000000 		.4byte	0x25
 4520 04fe 38       		.byte	0x38
 4521 04ff 18       		.uleb128 0x18
 4522 0500 50080000 		.4byte	.LASF81
 4523 0504 09       		.byte	0x9
 4524 0505 4B02     		.2byte	0x24b
 4525 0507 90080000 		.4byte	0x890
 4526 050b 3C       		.byte	0x3c
 4527 050c 18       		.uleb128 0x18
 4528 050d F3100000 		.4byte	.LASF82
 4529 0511 09       		.byte	0x9
 4530 0512 4E02     		.2byte	0x24e
 4531 0514 C4010000 		.4byte	0x1c4
 4532 0518 40       		.byte	0x40
 4533 0519 18       		.uleb128 0x18
 4534 051a F2020000 		.4byte	.LASF83
 4535 051e 09       		.byte	0x9
 4536 051f 4F02     		.2byte	0x24f
 4537 0521 25000000 		.4byte	0x25
 4538 0525 44       		.byte	0x44
 4539 0526 18       		.uleb128 0x18
 4540 0527 04070000 		.4byte	.LASF84
 4541 052b 09       		.byte	0x9
 4542 052c 5002     		.2byte	0x250
 4543 052e C4010000 		.4byte	0x1c4
 4544 0532 48       		.byte	0x48
 4545 0533 18       		.uleb128 0x18
 4546 0534 790A0000 		.4byte	.LASF85
 4547 0538 09       		.byte	0x9
ARM GAS  C:\Users\PCHAUT~1\AppData\Local\Temp\ccxXBCq6.s 			page 82


 4548 0539 5102     		.2byte	0x251
 4549 053b 96080000 		.4byte	0x896
 4550 053f 4C       		.byte	0x4c
 4551 0540 18       		.uleb128 0x18
 4552 0541 F1000000 		.4byte	.LASF86
 4553 0545 09       		.byte	0x9
 4554 0546 5402     		.2byte	0x254
 4555 0548 25000000 		.4byte	0x25
 4556 054c 50       		.byte	0x50
 4557 054d 18       		.uleb128 0x18
 4558 054e 7B060000 		.4byte	.LASF87
 4559 0552 09       		.byte	0x9
 4560 0553 5502     		.2byte	0x255
 4561 0555 54010000 		.4byte	0x154
 4562 0559 54       		.byte	0x54
 4563 055a 18       		.uleb128 0x18
 4564 055b 9F0B0000 		.4byte	.LASF88
 4565 055f 09       		.byte	0x9
 4566 0560 7802     		.2byte	0x278
 4567 0562 48080000 		.4byte	0x848
 4568 0566 58       		.byte	0x58
 4569 0567 19       		.uleb128 0x19
 4570 0568 370C0000 		.4byte	.LASF48
 4571 056c 09       		.byte	0x9
 4572 056d 7C02     		.2byte	0x27c
 4573 056f E1020000 		.4byte	0x2e1
 4574 0573 4801     		.2byte	0x148
 4575 0575 19       		.uleb128 0x19
 4576 0576 5A080000 		.4byte	.LASF89
 4577 057a 09       		.byte	0x9
 4578 057b 7D02     		.2byte	0x27d
 4579 057d A3020000 		.4byte	0x2a3
 4580 0581 4C01     		.2byte	0x14c
 4581 0583 19       		.uleb128 0x19
 4582 0584 69060000 		.4byte	.LASF90
 4583 0588 09       		.byte	0x9
 4584 0589 8102     		.2byte	0x281
 4585 058b A7080000 		.4byte	0x8a7
 4586 058f DC02     		.2byte	0x2dc
 4587 0591 19       		.uleb128 0x19
 4588 0592 ED080000 		.4byte	.LASF91
 4589 0596 09       		.byte	0x9
 4590 0597 8602     		.2byte	0x286
 4591 0599 4D060000 		.4byte	0x64d
 4592 059d E002     		.2byte	0x2e0
 4593 059f 19       		.uleb128 0x19
 4594 05a0 94000000 		.4byte	.LASF92
 4595 05a4 09       		.byte	0x9
 4596 05a5 8802     		.2byte	0x288
 4597 05a7 B3080000 		.4byte	0x8b3
 4598 05ab EC02     		.2byte	0x2ec
 4599 05ad 00       		.byte	0
 4600 05ae 05       		.uleb128 0x5
 4601 05af 04       		.byte	0x4
 4602 05b0 53040000 		.4byte	0x453
 4603 05b4 15       		.uleb128 0x15
 4604 05b5 25000000 		.4byte	0x25
ARM GAS  C:\Users\PCHAUT~1\AppData\Local\Temp\ccxXBCq6.s 			page 83


 4605 05b9 D2050000 		.4byte	0x5d2
 4606 05bd 16       		.uleb128 0x16
 4607 05be 71040000 		.4byte	0x471
 4608 05c2 16       		.uleb128 0x16
 4609 05c3 52010000 		.4byte	0x152
 4610 05c7 16       		.uleb128 0x16
 4611 05c8 D2050000 		.4byte	0x5d2
 4612 05cc 16       		.uleb128 0x16
 4613 05cd 25000000 		.4byte	0x25
 4614 05d1 00       		.byte	0
 4615 05d2 05       		.uleb128 0x5
 4616 05d3 04       		.byte	0x4
 4617 05d4 61010000 		.4byte	0x161
 4618 05d8 1A       		.uleb128 0x1a
 4619 05d9 D2050000 		.4byte	0x5d2
 4620 05dd 05       		.uleb128 0x5
 4621 05de 04       		.byte	0x4
 4622 05df B4050000 		.4byte	0x5b4
 4623 05e3 15       		.uleb128 0x15
 4624 05e4 D5000000 		.4byte	0xd5
 4625 05e8 01060000 		.4byte	0x601
 4626 05ec 16       		.uleb128 0x16
 4627 05ed 71040000 		.4byte	0x471
 4628 05f1 16       		.uleb128 0x16
 4629 05f2 52010000 		.4byte	0x152
 4630 05f6 16       		.uleb128 0x16
 4631 05f7 D5000000 		.4byte	0xd5
 4632 05fb 16       		.uleb128 0x16
 4633 05fc 25000000 		.4byte	0x25
 4634 0600 00       		.byte	0
 4635 0601 05       		.uleb128 0x5
 4636 0602 04       		.byte	0x4
 4637 0603 E3050000 		.4byte	0x5e3
 4638 0607 15       		.uleb128 0x15
 4639 0608 25000000 		.4byte	0x25
 4640 060c 1B060000 		.4byte	0x61b
 4641 0610 16       		.uleb128 0x16
 4642 0611 71040000 		.4byte	0x471
 4643 0615 16       		.uleb128 0x16
 4644 0616 52010000 		.4byte	0x152
 4645 061a 00       		.byte	0
 4646 061b 05       		.uleb128 0x5
 4647 061c 04       		.byte	0x4
 4648 061d 07060000 		.4byte	0x607
 4649 0621 0A       		.uleb128 0xa
 4650 0622 5E000000 		.4byte	0x5e
 4651 0626 31060000 		.4byte	0x631
 4652 062a 0B       		.uleb128 0xb
 4653 062b 37000000 		.4byte	0x37
 4654 062f 02       		.byte	0x2
 4655 0630 00       		.byte	0
 4656 0631 0A       		.uleb128 0xa
 4657 0632 5E000000 		.4byte	0x5e
 4658 0636 41060000 		.4byte	0x641
 4659 063a 0B       		.uleb128 0xb
 4660 063b 37000000 		.4byte	0x37
 4661 063f 00       		.byte	0
ARM GAS  C:\Users\PCHAUT~1\AppData\Local\Temp\ccxXBCq6.s 			page 84


 4662 0640 00       		.byte	0
 4663 0641 07       		.uleb128 0x7
 4664 0642 300E0000 		.4byte	.LASF93
 4665 0646 09       		.byte	0x9
 4666 0647 1F01     		.2byte	0x11f
 4667 0649 29030000 		.4byte	0x329
 4668 064d 1B       		.uleb128 0x1b
 4669 064e 900A0000 		.4byte	.LASF94
 4670 0652 0C       		.byte	0xc
 4671 0653 09       		.byte	0x9
 4672 0654 2301     		.2byte	0x123
 4673 0656 82060000 		.4byte	0x682
 4674 065a 18       		.uleb128 0x18
 4675 065b 970E0000 		.4byte	.LASF28
 4676 065f 09       		.byte	0x9
 4677 0660 2501     		.2byte	0x125
 4678 0662 82060000 		.4byte	0x682
 4679 0666 00       		.byte	0
 4680 0667 18       		.uleb128 0x18
 4681 0668 D4080000 		.4byte	.LASF95
 4682 066c 09       		.byte	0x9
 4683 066d 2601     		.2byte	0x126
 4684 066f 25000000 		.4byte	0x25
 4685 0673 04       		.byte	0x4
 4686 0674 18       		.uleb128 0x18
 4687 0675 8A0A0000 		.4byte	.LASF96
 4688 0679 09       		.byte	0x9
 4689 067a 2701     		.2byte	0x127
 4690 067c 88060000 		.4byte	0x688
 4691 0680 08       		.byte	0x8
 4692 0681 00       		.byte	0
 4693 0682 05       		.uleb128 0x5
 4694 0683 04       		.byte	0x4
 4695 0684 4D060000 		.4byte	0x64d
 4696 0688 05       		.uleb128 0x5
 4697 0689 04       		.byte	0x4
 4698 068a 41060000 		.4byte	0x641
 4699 068e 1B       		.uleb128 0x1b
 4700 068f 9B0D0000 		.4byte	.LASF97
 4701 0693 0E       		.byte	0xe
 4702 0694 09       		.byte	0x9
 4703 0695 3F01     		.2byte	0x13f
 4704 0697 C3060000 		.4byte	0x6c3
 4705 069b 18       		.uleb128 0x18
 4706 069c C90C0000 		.4byte	.LASF98
 4707 06a0 09       		.byte	0x9
 4708 06a1 4001     		.2byte	0x140
 4709 06a3 C3060000 		.4byte	0x6c3
 4710 06a7 00       		.byte	0
 4711 06a8 18       		.uleb128 0x18
 4712 06a9 23020000 		.4byte	.LASF99
 4713 06ad 09       		.byte	0x9
 4714 06ae 4101     		.2byte	0x141
 4715 06b0 C3060000 		.4byte	0x6c3
 4716 06b4 06       		.byte	0x6
 4717 06b5 18       		.uleb128 0x18
 4718 06b6 62110000 		.4byte	.LASF100
ARM GAS  C:\Users\PCHAUT~1\AppData\Local\Temp\ccxXBCq6.s 			page 85


 4719 06ba 09       		.byte	0x9
 4720 06bb 4201     		.2byte	0x142
 4721 06bd 77000000 		.4byte	0x77
 4722 06c1 0C       		.byte	0xc
 4723 06c2 00       		.byte	0
 4724 06c3 0A       		.uleb128 0xa
 4725 06c4 77000000 		.4byte	0x77
 4726 06c8 D3060000 		.4byte	0x6d3
 4727 06cc 0B       		.uleb128 0xb
 4728 06cd 37000000 		.4byte	0x37
 4729 06d1 02       		.byte	0x2
 4730 06d2 00       		.byte	0
 4731 06d3 1C       		.uleb128 0x1c
 4732 06d4 D0       		.byte	0xd0
 4733 06d5 09       		.byte	0x9
 4734 06d6 5902     		.2byte	0x259
 4735 06d8 D4070000 		.4byte	0x7d4
 4736 06dc 18       		.uleb128 0x18
 4737 06dd B9030000 		.4byte	.LASF101
 4738 06e1 09       		.byte	0x9
 4739 06e2 5B02     		.2byte	0x25b
 4740 06e4 37000000 		.4byte	0x37
 4741 06e8 00       		.byte	0
 4742 06e9 18       		.uleb128 0x18
 4743 06ea EA0D0000 		.4byte	.LASF102
 4744 06ee 09       		.byte	0x9
 4745 06ef 5C02     		.2byte	0x25c
 4746 06f1 54010000 		.4byte	0x154
 4747 06f5 04       		.byte	0x4
 4748 06f6 18       		.uleb128 0x18
 4749 06f7 E4000000 		.4byte	.LASF103
 4750 06fb 09       		.byte	0x9
 4751 06fc 5D02     		.2byte	0x25d
 4752 06fe D4070000 		.4byte	0x7d4
 4753 0702 08       		.byte	0x8
 4754 0703 18       		.uleb128 0x18
 4755 0704 16030000 		.4byte	.LASF104
 4756 0708 09       		.byte	0x9
 4757 0709 5E02     		.2byte	0x25e
 4758 070b DA010000 		.4byte	0x1da
 4759 070f 24       		.byte	0x24
 4760 0710 18       		.uleb128 0x18
 4761 0711 12090000 		.4byte	.LASF105
 4762 0715 09       		.byte	0x9
 4763 0716 5F02     		.2byte	0x25f
 4764 0718 25000000 		.4byte	0x25
 4765 071c 48       		.byte	0x48
 4766 071d 18       		.uleb128 0x18
 4767 071e F40B0000 		.4byte	.LASF106
 4768 0722 09       		.byte	0x9
 4769 0723 6002     		.2byte	0x260
 4770 0725 AD000000 		.4byte	0xad
 4771 0729 50       		.byte	0x50
 4772 072a 18       		.uleb128 0x18
 4773 072b 720E0000 		.4byte	.LASF107
 4774 072f 09       		.byte	0x9
 4775 0730 6102     		.2byte	0x261
ARM GAS  C:\Users\PCHAUT~1\AppData\Local\Temp\ccxXBCq6.s 			page 86


 4776 0732 8E060000 		.4byte	0x68e
 4777 0736 58       		.byte	0x58
 4778 0737 18       		.uleb128 0x18
 4779 0738 000F0000 		.4byte	.LASF108
 4780 073c 09       		.byte	0x9
 4781 073d 6202     		.2byte	0x262
 4782 073f 3C010000 		.4byte	0x13c
 4783 0743 68       		.byte	0x68
 4784 0744 18       		.uleb128 0x18
 4785 0745 250D0000 		.4byte	.LASF109
 4786 0749 09       		.byte	0x9
 4787 074a 6302     		.2byte	0x263
 4788 074c 3C010000 		.4byte	0x13c
 4789 0750 70       		.byte	0x70
 4790 0751 18       		.uleb128 0x18
 4791 0752 DD0B0000 		.4byte	.LASF110
 4792 0756 09       		.byte	0x9
 4793 0757 6402     		.2byte	0x264
 4794 0759 3C010000 		.4byte	0x13c
 4795 075d 78       		.byte	0x78
 4796 075e 18       		.uleb128 0x18
 4797 075f 91010000 		.4byte	.LASF111
 4798 0763 09       		.byte	0x9
 4799 0764 6502     		.2byte	0x265
 4800 0766 E4070000 		.4byte	0x7e4
 4801 076a 80       		.byte	0x80
 4802 076b 18       		.uleb128 0x18
 4803 076c 08080000 		.4byte	.LASF112
 4804 0770 09       		.byte	0x9
 4805 0771 6602     		.2byte	0x266
 4806 0773 F4070000 		.4byte	0x7f4
 4807 0777 88       		.byte	0x88
 4808 0778 18       		.uleb128 0x18
 4809 0779 4C120000 		.4byte	.LASF113
 4810 077d 09       		.byte	0x9
 4811 077e 6702     		.2byte	0x267
 4812 0780 25000000 		.4byte	0x25
 4813 0784 A0       		.byte	0xa0
 4814 0785 18       		.uleb128 0x18
 4815 0786 BC020000 		.4byte	.LASF114
 4816 078a 09       		.byte	0x9
 4817 078b 6802     		.2byte	0x268
 4818 078d 3C010000 		.4byte	0x13c
 4819 0791 A4       		.byte	0xa4
 4820 0792 18       		.uleb128 0x18
 4821 0793 0D0E0000 		.4byte	.LASF115
 4822 0797 09       		.byte	0x9
 4823 0798 6902     		.2byte	0x269
 4824 079a 3C010000 		.4byte	0x13c
 4825 079e AC       		.byte	0xac
 4826 079f 18       		.uleb128 0x18
 4827 07a0 A9110000 		.4byte	.LASF116
 4828 07a4 09       		.byte	0x9
 4829 07a5 6A02     		.2byte	0x26a
 4830 07a7 3C010000 		.4byte	0x13c
 4831 07ab B4       		.byte	0xb4
 4832 07ac 18       		.uleb128 0x18
ARM GAS  C:\Users\PCHAUT~1\AppData\Local\Temp\ccxXBCq6.s 			page 87


 4833 07ad 620B0000 		.4byte	.LASF117
 4834 07b1 09       		.byte	0x9
 4835 07b2 6B02     		.2byte	0x26b
 4836 07b4 3C010000 		.4byte	0x13c
 4837 07b8 BC       		.byte	0xbc
 4838 07b9 18       		.uleb128 0x18
 4839 07ba 60010000 		.4byte	.LASF118
 4840 07be 09       		.byte	0x9
 4841 07bf 6C02     		.2byte	0x26c
 4842 07c1 3C010000 		.4byte	0x13c
 4843 07c5 C4       		.byte	0xc4
 4844 07c6 18       		.uleb128 0x18
 4845 07c7 58050000 		.4byte	.LASF119
 4846 07cb 09       		.byte	0x9
 4847 07cc 6D02     		.2byte	0x26d
 4848 07ce 25000000 		.4byte	0x25
 4849 07d2 CC       		.byte	0xcc
 4850 07d3 00       		.byte	0
 4851 07d4 0A       		.uleb128 0xa
 4852 07d5 5A010000 		.4byte	0x15a
 4853 07d9 E4070000 		.4byte	0x7e4
 4854 07dd 0B       		.uleb128 0xb
 4855 07de 37000000 		.4byte	0x37
 4856 07e2 19       		.byte	0x19
 4857 07e3 00       		.byte	0
 4858 07e4 0A       		.uleb128 0xa
 4859 07e5 5A010000 		.4byte	0x15a
 4860 07e9 F4070000 		.4byte	0x7f4
 4861 07ed 0B       		.uleb128 0xb
 4862 07ee 37000000 		.4byte	0x37
 4863 07f2 07       		.byte	0x7
 4864 07f3 00       		.byte	0
 4865 07f4 0A       		.uleb128 0xa
 4866 07f5 5A010000 		.4byte	0x15a
 4867 07f9 04080000 		.4byte	0x804
 4868 07fd 0B       		.uleb128 0xb
 4869 07fe 37000000 		.4byte	0x37
 4870 0802 17       		.byte	0x17
 4871 0803 00       		.byte	0
 4872 0804 1C       		.uleb128 0x1c
 4873 0805 F0       		.byte	0xf0
 4874 0806 09       		.byte	0x9
 4875 0807 7202     		.2byte	0x272
 4876 0809 28080000 		.4byte	0x828
 4877 080d 18       		.uleb128 0x18
 4878 080e 53100000 		.4byte	.LASF120
 4879 0812 09       		.byte	0x9
 4880 0813 7502     		.2byte	0x275
 4881 0815 28080000 		.4byte	0x828
 4882 0819 00       		.byte	0
 4883 081a 18       		.uleb128 0x18
 4884 081b F5080000 		.4byte	.LASF121
 4885 081f 09       		.byte	0x9
 4886 0820 7602     		.2byte	0x276
 4887 0822 38080000 		.4byte	0x838
 4888 0826 78       		.byte	0x78
 4889 0827 00       		.byte	0
ARM GAS  C:\Users\PCHAUT~1\AppData\Local\Temp\ccxXBCq6.s 			page 88


 4890 0828 0A       		.uleb128 0xa
 4891 0829 23030000 		.4byte	0x323
 4892 082d 38080000 		.4byte	0x838
 4893 0831 0B       		.uleb128 0xb
 4894 0832 37000000 		.4byte	0x37
 4895 0836 1D       		.byte	0x1d
 4896 0837 00       		.byte	0
 4897 0838 0A       		.uleb128 0xa
 4898 0839 37000000 		.4byte	0x37
 4899 083d 48080000 		.4byte	0x848
 4900 0841 0B       		.uleb128 0xb
 4901 0842 37000000 		.4byte	0x37
 4902 0846 1D       		.byte	0x1d
 4903 0847 00       		.byte	0
 4904 0848 1D       		.uleb128 0x1d
 4905 0849 F0       		.byte	0xf0
 4906 084a 09       		.byte	0x9
 4907 084b 5702     		.2byte	0x257
 4908 084d 6A080000 		.4byte	0x86a
 4909 0851 1E       		.uleb128 0x1e
 4910 0852 B0040000 		.4byte	.LASF71
 4911 0856 09       		.byte	0x9
 4912 0857 6E02     		.2byte	0x26e
 4913 0859 D3060000 		.4byte	0x6d3
 4914 085d 1E       		.uleb128 0x1e
 4915 085e 53010000 		.4byte	.LASF122
 4916 0862 09       		.byte	0x9
 4917 0863 7702     		.2byte	0x277
 4918 0865 04080000 		.4byte	0x804
 4919 0869 00       		.byte	0
 4920 086a 0A       		.uleb128 0xa
 4921 086b 5A010000 		.4byte	0x15a
 4922 086f 7A080000 		.4byte	0x87a
 4923 0873 0B       		.uleb128 0xb
 4924 0874 37000000 		.4byte	0x37
 4925 0878 18       		.byte	0x18
 4926 0879 00       		.byte	0
 4927 087a 06       		.uleb128 0x6
 4928 087b 3D000000 		.4byte	.LASF124
 4929 087f 05       		.uleb128 0x5
 4930 0880 04       		.byte	0x4
 4931 0881 7A080000 		.4byte	0x87a
 4932 0885 1F       		.uleb128 0x1f
 4933 0886 90080000 		.4byte	0x890
 4934 088a 16       		.uleb128 0x16
 4935 088b 71040000 		.4byte	0x471
 4936 088f 00       		.byte	0
 4937 0890 05       		.uleb128 0x5
 4938 0891 04       		.byte	0x4
 4939 0892 85080000 		.4byte	0x885
 4940 0896 05       		.uleb128 0x5
 4941 0897 04       		.byte	0x4
 4942 0898 C4010000 		.4byte	0x1c4
 4943 089c 1F       		.uleb128 0x1f
 4944 089d A7080000 		.4byte	0x8a7
 4945 08a1 16       		.uleb128 0x16
 4946 08a2 25000000 		.4byte	0x25
ARM GAS  C:\Users\PCHAUT~1\AppData\Local\Temp\ccxXBCq6.s 			page 89


 4947 08a6 00       		.byte	0
 4948 08a7 05       		.uleb128 0x5
 4949 08a8 04       		.byte	0x4
 4950 08a9 AD080000 		.4byte	0x8ad
 4951 08ad 05       		.uleb128 0x5
 4952 08ae 04       		.byte	0x4
 4953 08af 9C080000 		.4byte	0x89c
 4954 08b3 0A       		.uleb128 0xa
 4955 08b4 41060000 		.4byte	0x641
 4956 08b8 C3080000 		.4byte	0x8c3
 4957 08bc 0B       		.uleb128 0xb
 4958 08bd 37000000 		.4byte	0x37
 4959 08c1 02       		.byte	0x2
 4960 08c2 00       		.byte	0
 4961 08c3 20       		.uleb128 0x20
 4962 08c4 E6020000 		.4byte	.LASF125
 4963 08c8 09       		.byte	0x9
 4964 08c9 0703     		.2byte	0x307
 4965 08cb 71040000 		.4byte	0x471
 4966 08cf 20       		.uleb128 0x20
 4967 08d0 BF040000 		.4byte	.LASF126
 4968 08d4 09       		.byte	0x9
 4969 08d5 0803     		.2byte	0x308
 4970 08d7 77040000 		.4byte	0x477
 4971 08db 03       		.uleb128 0x3
 4972 08dc DC030000 		.4byte	.LASF127
 4973 08e0 0A       		.byte	0xa
 4974 08e1 18       		.byte	0x18
 4975 08e2 53000000 		.4byte	0x53
 4976 08e6 03       		.uleb128 0x3
 4977 08e7 6F0D0000 		.4byte	.LASF128
 4978 08eb 0A       		.byte	0xa
 4979 08ec 24       		.byte	0x24
 4980 08ed 6C000000 		.4byte	0x6c
 4981 08f1 03       		.uleb128 0x3
 4982 08f2 DC000000 		.4byte	.LASF129
 4983 08f6 0A       		.byte	0xa
 4984 08f7 2C       		.byte	0x2c
 4985 08f8 7E000000 		.4byte	0x7e
 4986 08fc 1A       		.uleb128 0x1a
 4987 08fd F1080000 		.4byte	0x8f1
 4988 0901 03       		.uleb128 0x3
 4989 0902 EA100000 		.4byte	.LASF130
 4990 0906 0A       		.byte	0xa
 4991 0907 30       		.byte	0x30
 4992 0908 90000000 		.4byte	0x90
 4993 090c 03       		.uleb128 0x3
 4994 090d 2A0F0000 		.4byte	.LASF131
 4995 0911 0A       		.byte	0xa
 4996 0912 3C       		.byte	0x3c
 4997 0913 A2000000 		.4byte	0xa2
 4998 0917 21       		.uleb128 0x21
 4999 0918 540F0000 		.4byte	.LASF132
 5000 091c 0B       		.byte	0xb
 5001 091d 63       		.byte	0x63
 5002 091e 54010000 		.4byte	0x154
 5003 0922 03       		.uleb128 0x3
ARM GAS  C:\Users\PCHAUT~1\AppData\Local\Temp\ccxXBCq6.s 			page 90


 5004 0923 C30F0000 		.4byte	.LASF133
 5005 0927 0C       		.byte	0xc
 5006 0928 08       		.byte	0x8
 5007 0929 32090000 		.4byte	0x932
 5008 092d 0F       		.uleb128 0xf
 5009 092e 22090000 		.4byte	0x922
 5010 0932 10       		.uleb128 0x10
 5011 0933 AD0F0000 		.4byte	.LASF134
 5012 0937 18       		.byte	0x18
 5013 0938 0C       		.byte	0xc
 5014 0939 0B       		.byte	0xb
 5015 093a 86090000 		.4byte	0x986
 5016 093e 11       		.uleb128 0x11
 5017 093f 696400   		.ascii	"id\000"
 5018 0942 0C       		.byte	0xc
 5019 0943 0C       		.byte	0xc
 5020 0944 D2050000 		.4byte	0x5d2
 5021 0948 00       		.byte	0
 5022 0949 0D       		.uleb128 0xd
 5023 094a D50C0000 		.4byte	.LASF135
 5024 094e 0C       		.byte	0xc
 5025 094f 0D       		.byte	0xd
 5026 0950 F1080000 		.4byte	0x8f1
 5027 0954 04       		.byte	0x4
 5028 0955 0D       		.uleb128 0xd
 5029 0956 830A0000 		.4byte	.LASF136
 5030 095a 0C       		.byte	0xc
 5031 095b 0E       		.byte	0xe
 5032 095c F5090000 		.4byte	0x9f5
 5033 0960 08       		.byte	0x8
 5034 0961 0D       		.uleb128 0xd
 5035 0962 D0050000 		.4byte	.LASF137
 5036 0966 0C       		.byte	0xc
 5037 0967 0F       		.byte	0xf
 5038 0968 F5090000 		.4byte	0x9f5
 5039 096c 0C       		.byte	0xc
 5040 096d 0D       		.uleb128 0xd
 5041 096e 30120000 		.4byte	.LASF138
 5042 0972 0C       		.byte	0xc
 5043 0973 10       		.byte	0x10
 5044 0974 F5090000 		.4byte	0x9f5
 5045 0978 10       		.byte	0x10
 5046 0979 0D       		.uleb128 0xd
 5047 097a F9070000 		.4byte	.LASF139
 5048 097e 0C       		.byte	0xc
 5049 097f 11       		.byte	0x11
 5050 0980 FB090000 		.4byte	0x9fb
 5051 0984 14       		.byte	0x14
 5052 0985 00       		.byte	0
 5053 0986 03       		.uleb128 0x3
 5054 0987 3F0F0000 		.4byte	.LASF140
 5055 098b 0C       		.byte	0xc
 5056 098c 09       		.byte	0x9
 5057 098d 96090000 		.4byte	0x996
 5058 0991 0F       		.uleb128 0xf
 5059 0992 86090000 		.4byte	0x986
 5060 0996 10       		.uleb128 0x10
ARM GAS  C:\Users\PCHAUT~1\AppData\Local\Temp\ccxXBCq6.s 			page 91


 5061 0997 330F0000 		.4byte	.LASF141
 5062 099b 18       		.byte	0x18
 5063 099c 0C       		.byte	0xc
 5064 099d 2E       		.byte	0x2e
 5065 099e F5090000 		.4byte	0x9f5
 5066 09a2 11       		.uleb128 0x11
 5067 09a3 696400   		.ascii	"id\000"
 5068 09a6 0C       		.byte	0xc
 5069 09a7 2F       		.byte	0x2f
 5070 09a8 D2050000 		.4byte	0x5d2
 5071 09ac 00       		.byte	0
 5072 09ad 11       		.uleb128 0x11
 5073 09ae 6E7300   		.ascii	"ns\000"
 5074 09b1 0C       		.byte	0xc
 5075 09b2 30       		.byte	0x30
 5076 09b3 F5090000 		.4byte	0x9f5
 5077 09b7 04       		.byte	0x4
 5078 09b8 0D       		.uleb128 0xd
 5079 09b9 30120000 		.4byte	.LASF138
 5080 09bd 0C       		.byte	0xc
 5081 09be 31       		.byte	0x31
 5082 09bf FB090000 		.4byte	0x9fb
 5083 09c3 08       		.byte	0x8
 5084 09c4 0D       		.uleb128 0xd
 5085 09c5 48000000 		.4byte	.LASF142
 5086 09c9 0C       		.byte	0xc
 5087 09ca 32       		.byte	0x32
 5088 09cb E70A0000 		.4byte	0xae7
 5089 09cf 0C       		.byte	0xc
 5090 09d0 0D       		.uleb128 0xd
 5091 09d1 1C000000 		.4byte	.LASF143
 5092 09d5 0C       		.byte	0xc
 5093 09d6 33       		.byte	0x33
 5094 09d7 E70A0000 		.4byte	0xae7
 5095 09db 0D       		.byte	0xd
 5096 09dc 0D       		.uleb128 0xd
 5097 09dd 1E020000 		.4byte	.LASF144
 5098 09e1 0C       		.byte	0xc
 5099 09e2 34       		.byte	0x34
 5100 09e3 DB080000 		.4byte	0x8db
 5101 09e7 0E       		.byte	0xe
 5102 09e8 0D       		.uleb128 0xd
 5103 09e9 3B050000 		.4byte	.LASF145
 5104 09ed 0C       		.byte	0xc
 5105 09ee 3C       		.byte	0x3c
 5106 09ef A20A0000 		.4byte	0xaa2
 5107 09f3 10       		.byte	0x10
 5108 09f4 00       		.byte	0
 5109 09f5 05       		.uleb128 0x5
 5110 09f6 04       		.byte	0x4
 5111 09f7 22090000 		.4byte	0x922
 5112 09fb 05       		.uleb128 0x5
 5113 09fc 04       		.byte	0x4
 5114 09fd 86090000 		.4byte	0x986
 5115 0a01 10       		.uleb128 0x10
 5116 0a02 05100000 		.4byte	.LASF146
 5117 0a06 08       		.byte	0x8
ARM GAS  C:\Users\PCHAUT~1\AppData\Local\Temp\ccxXBCq6.s 			page 92


 5118 0a07 0C       		.byte	0xc
 5119 0a08 14       		.byte	0x14
 5120 0a09 320A0000 		.4byte	0xa32
 5121 0a0d 11       		.uleb128 0x11
 5122 0a0e 62756600 		.ascii	"buf\000"
 5123 0a12 0C       		.byte	0xc
 5124 0a13 15       		.byte	0x15
 5125 0a14 54010000 		.4byte	0x154
 5126 0a18 00       		.byte	0
 5127 0a19 0D       		.uleb128 0xd
 5128 0a1a 53110000 		.4byte	.LASF147
 5129 0a1e 0C       		.byte	0xc
 5130 0a1f 16       		.byte	0x16
 5131 0a20 E6080000 		.4byte	0x8e6
 5132 0a24 04       		.byte	0x4
 5133 0a25 11       		.uleb128 0x11
 5134 0a26 6C656E00 		.ascii	"len\000"
 5135 0a2a 0C       		.byte	0xc
 5136 0a2b 17       		.byte	0x17
 5137 0a2c E6080000 		.4byte	0x8e6
 5138 0a30 06       		.byte	0x6
 5139 0a31 00       		.byte	0
 5140 0a32 10       		.uleb128 0x10
 5141 0a33 C9010000 		.4byte	.LASF148
 5142 0a37 08       		.byte	0x8
 5143 0a38 0C       		.byte	0xc
 5144 0a39 1A       		.byte	0x1a
 5145 0a3a 630A0000 		.4byte	0xa63
 5146 0a3e 11       		.uleb128 0x11
 5147 0a3f 62756600 		.ascii	"buf\000"
 5148 0a43 0C       		.byte	0xc
 5149 0a44 1B       		.byte	0x1b
 5150 0a45 630A0000 		.4byte	0xa63
 5151 0a49 00       		.byte	0
 5152 0a4a 0D       		.uleb128 0xd
 5153 0a4b BF070000 		.4byte	.LASF149
 5154 0a4f 0C       		.byte	0xc
 5155 0a50 1C       		.byte	0x1c
 5156 0a51 E6080000 		.4byte	0x8e6
 5157 0a55 04       		.byte	0x4
 5158 0a56 11       		.uleb128 0x11
 5159 0a57 64696D00 		.ascii	"dim\000"
 5160 0a5b 0C       		.byte	0xc
 5161 0a5c 1D       		.byte	0x1d
 5162 0a5d E6080000 		.4byte	0x8e6
 5163 0a61 06       		.byte	0x6
 5164 0a62 00       		.byte	0
 5165 0a63 05       		.uleb128 0x5
 5166 0a64 04       		.byte	0x4
 5167 0a65 690A0000 		.4byte	0xa69
 5168 0a69 04       		.uleb128 0x4
 5169 0a6a 04       		.byte	0x4
 5170 0a6b 04       		.byte	0x4
 5171 0a6c A90A0000 		.4byte	.LASF150
 5172 0a70 0F       		.uleb128 0xf
 5173 0a71 690A0000 		.4byte	0xa69
 5174 0a75 10       		.uleb128 0x10
ARM GAS  C:\Users\PCHAUT~1\AppData\Local\Temp\ccxXBCq6.s 			page 93


 5175 0a76 B8060000 		.4byte	.LASF151
 5176 0a7a 08       		.byte	0x8
 5177 0a7b 0C       		.byte	0xc
 5178 0a7c 20       		.byte	0x20
 5179 0a7d A20A0000 		.4byte	0xaa2
 5180 0a81 11       		.uleb128 0x11
 5181 0a82 62756600 		.ascii	"buf\000"
 5182 0a86 0C       		.byte	0xc
 5183 0a87 21       		.byte	0x21
 5184 0a88 630A0000 		.4byte	0xa63
 5185 0a8c 00       		.byte	0
 5186 0a8d 11       		.uleb128 0x11
 5187 0a8e 6E00     		.ascii	"n\000"
 5188 0a90 0C       		.byte	0xc
 5189 0a91 22       		.byte	0x22
 5190 0a92 E6080000 		.4byte	0x8e6
 5191 0a96 04       		.byte	0x4
 5192 0a97 11       		.uleb128 0x11
 5193 0a98 6D00     		.ascii	"m\000"
 5194 0a9a 0C       		.byte	0xc
 5195 0a9b 23       		.byte	0x23
 5196 0a9c E6080000 		.4byte	0x8e6
 5197 0aa0 06       		.byte	0x6
 5198 0aa1 00       		.byte	0
 5199 0aa2 08       		.uleb128 0x8
 5200 0aa3 08       		.byte	0x8
 5201 0aa4 0C       		.byte	0xc
 5202 0aa5 35       		.byte	0x35
 5203 0aa6 E70A0000 		.4byte	0xae7
 5204 0aaa 22       		.uleb128 0x22
 5205 0aab 6200     		.ascii	"b\000"
 5206 0aad 0C       		.byte	0xc
 5207 0aae 36       		.byte	0x36
 5208 0aaf E70A0000 		.4byte	0xae7
 5209 0ab3 22       		.uleb128 0x22
 5210 0ab4 7300     		.ascii	"s\000"
 5211 0ab6 0C       		.byte	0xc
 5212 0ab7 37       		.byte	0x37
 5213 0ab8 690A0000 		.4byte	0xa69
 5214 0abc 22       		.uleb128 0x22
 5215 0abd 6900     		.ascii	"i\000"
 5216 0abf 0C       		.byte	0xc
 5217 0ac0 38       		.byte	0x38
 5218 0ac1 F1080000 		.4byte	0x8f1
 5219 0ac5 22       		.uleb128 0x22
 5220 0ac6 73747200 		.ascii	"str\000"
 5221 0aca 0C       		.byte	0xc
 5222 0acb 39       		.byte	0x39
 5223 0acc 010A0000 		.4byte	0xa01
 5224 0ad0 09       		.uleb128 0x9
 5225 0ad1 AD0C0000 		.4byte	.LASF152
 5226 0ad5 0C       		.byte	0xc
 5227 0ad6 3A       		.byte	0x3a
 5228 0ad7 320A0000 		.4byte	0xa32
 5229 0adb 22       		.uleb128 0x22
 5230 0adc 6D617400 		.ascii	"mat\000"
 5231 0ae0 0C       		.byte	0xc
ARM GAS  C:\Users\PCHAUT~1\AppData\Local\Temp\ccxXBCq6.s 			page 94


 5232 0ae1 3B       		.byte	0x3b
 5233 0ae2 750A0000 		.4byte	0xa75
 5234 0ae6 00       		.byte	0
 5235 0ae7 04       		.uleb128 0x4
 5236 0ae8 01       		.byte	0x1
 5237 0ae9 02       		.byte	0x2
 5238 0aea 2F050000 		.4byte	.LASF153
 5239 0aee 03       		.uleb128 0x3
 5240 0aef FA0A0000 		.4byte	.LASF154
 5241 0af3 0D       		.byte	0xd
 5242 0af4 45       		.byte	0x45
 5243 0af5 01090000 		.4byte	0x901
 5244 0af9 03       		.uleb128 0x3
 5245 0afa 44030000 		.4byte	.LASF155
 5246 0afe 0D       		.byte	0xd
 5247 0aff 46       		.byte	0x46
 5248 0b00 0C090000 		.4byte	0x90c
 5249 0b04 03       		.uleb128 0x3
 5250 0b05 A90E0000 		.4byte	.LASF156
 5251 0b09 0D       		.byte	0xd
 5252 0b0a 48       		.byte	0x48
 5253 0b0b DB080000 		.4byte	0x8db
 5254 0b0f 03       		.uleb128 0x3
 5255 0b10 3B030000 		.4byte	.LASF157
 5256 0b14 0D       		.byte	0xd
 5257 0b15 49       		.byte	0x49
 5258 0b16 DB080000 		.4byte	0x8db
 5259 0b1a 03       		.uleb128 0x3
 5260 0b1b 4B100000 		.4byte	.LASF158
 5261 0b1f 0D       		.byte	0xd
 5262 0b20 4A       		.byte	0x4a
 5263 0b21 DB080000 		.4byte	0x8db
 5264 0b25 03       		.uleb128 0x3
 5265 0b26 B80D0000 		.4byte	.LASF159
 5266 0b2a 0D       		.byte	0xd
 5267 0b2b 4B       		.byte	0x4b
 5268 0b2c DB080000 		.4byte	0x8db
 5269 0b30 03       		.uleb128 0x3
 5270 0b31 B3000000 		.4byte	.LASF160
 5271 0b35 0D       		.byte	0xd
 5272 0b36 4C       		.byte	0x4c
 5273 0b37 01090000 		.4byte	0x901
 5274 0b3b 03       		.uleb128 0x3
 5275 0b3c 840D0000 		.4byte	.LASF161
 5276 0b40 0D       		.byte	0xd
 5277 0b41 4D       		.byte	0x4d
 5278 0b42 F1080000 		.4byte	0x8f1
 5279 0b46 03       		.uleb128 0x3
 5280 0b47 11040000 		.4byte	.LASF162
 5281 0b4b 0D       		.byte	0xd
 5282 0b4c 4F       		.byte	0x4f
 5283 0b4d 01090000 		.4byte	0x901
 5284 0b51 03       		.uleb128 0x3
 5285 0b52 EF050000 		.4byte	.LASF163
 5286 0b56 0D       		.byte	0xd
 5287 0b57 51       		.byte	0x51
 5288 0b58 F1080000 		.4byte	0x8f1
ARM GAS  C:\Users\PCHAUT~1\AppData\Local\Temp\ccxXBCq6.s 			page 95


 5289 0b5c 03       		.uleb128 0x3
 5290 0b5d 14080000 		.4byte	.LASF164
 5291 0b61 0D       		.byte	0xd
 5292 0b62 52       		.byte	0x52
 5293 0b63 01090000 		.4byte	0x901
 5294 0b67 03       		.uleb128 0x3
 5295 0b68 64000000 		.4byte	.LASF165
 5296 0b6c 0E       		.byte	0xe
 5297 0b6d 33       		.byte	0x33
 5298 0b6e 01090000 		.4byte	0x901
 5299 0b72 1A       		.uleb128 0x1a
 5300 0b73 670B0000 		.4byte	0xb67
 5301 0b77 03       		.uleb128 0x3
 5302 0b78 8E0C0000 		.4byte	.LASF166
 5303 0b7c 0E       		.byte	0xe
 5304 0b7d 3F       		.byte	0x3f
 5305 0b7e 820B0000 		.4byte	0xb82
 5306 0b82 10       		.uleb128 0x10
 5307 0b83 85070000 		.4byte	.LASF167
 5308 0b87 68       		.byte	0x68
 5309 0b88 0F       		.byte	0xf
 5310 0b89 C2       		.byte	0xc2
 5311 0b8a A00C0000 		.4byte	0xca0
 5312 0b8e 0D       		.uleb128 0xd
 5313 0b8f D3020000 		.4byte	.LASF168
 5314 0b93 0F       		.byte	0xf
 5315 0b94 C3       		.byte	0xc3
 5316 0b95 AB0C0000 		.4byte	0xcab
 5317 0b99 00       		.byte	0
 5318 0b9a 0D       		.uleb128 0xd
 5319 0b9b 0F030000 		.4byte	.LASF169
 5320 0b9f 0F       		.byte	0xf
 5321 0ba0 C5       		.byte	0xc5
 5322 0ba1 AB0C0000 		.4byte	0xcab
 5323 0ba5 04       		.byte	0x4
 5324 0ba6 0D       		.uleb128 0xd
 5325 0ba7 61050000 		.4byte	.LASF170
 5326 0bab 0F       		.byte	0xf
 5327 0bac C7       		.byte	0xc7
 5328 0bad 300B0000 		.4byte	0xb30
 5329 0bb1 08       		.byte	0x8
 5330 0bb2 0D       		.uleb128 0xd
 5331 0bb3 A7000000 		.4byte	.LASF171
 5332 0bb7 0F       		.byte	0xf
 5333 0bb8 C8       		.byte	0xc8
 5334 0bb9 220F0000 		.4byte	0xf22
 5335 0bbd 0C       		.byte	0xc
 5336 0bbe 0D       		.uleb128 0xd
 5337 0bbf B4020000 		.4byte	.LASF172
 5338 0bc3 0F       		.byte	0xf
 5339 0bc4 CA       		.byte	0xca
 5340 0bc5 AB0C0000 		.4byte	0xcab
 5341 0bc9 10       		.byte	0x10
 5342 0bca 0D       		.uleb128 0xd
 5343 0bcb 670D0000 		.4byte	.LASF173
 5344 0bcf 0F       		.byte	0xf
 5345 0bd0 CB       		.byte	0xcb
ARM GAS  C:\Users\PCHAUT~1\AppData\Local\Temp\ccxXBCq6.s 			page 96


 5346 0bd1 AB0C0000 		.4byte	0xcab
 5347 0bd5 14       		.byte	0x14
 5348 0bd6 0D       		.uleb128 0xd
 5349 0bd7 29120000 		.4byte	.LASF174
 5350 0bdb 0F       		.byte	0xf
 5351 0bdc D2       		.byte	0xd2
 5352 0bdd D2050000 		.4byte	0x5d2
 5353 0be1 18       		.byte	0x18
 5354 0be2 0D       		.uleb128 0xd
 5355 0be3 BA110000 		.4byte	.LASF175
 5356 0be7 0F       		.byte	0xf
 5357 0be8 D8       		.byte	0xd8
 5358 0be9 98120000 		.4byte	0x1298
 5359 0bed 1C       		.byte	0x1c
 5360 0bee 0D       		.uleb128 0xd
 5361 0bef 6B120000 		.4byte	.LASF176
 5362 0bf3 0F       		.byte	0xf
 5363 0bf4 DD       		.byte	0xdd
 5364 0bf5 0F0B0000 		.4byte	0xb0f
 5365 0bf9 20       		.byte	0x20
 5366 0bfa 0D       		.uleb128 0xd
 5367 0bfb 6A020000 		.4byte	.LASF177
 5368 0bff 0F       		.byte	0xf
 5369 0c00 E1       		.byte	0xe1
 5370 0c01 040B0000 		.4byte	0xb04
 5371 0c05 21       		.byte	0x21
 5372 0c06 0D       		.uleb128 0xd
 5373 0c07 5B0B0000 		.4byte	.LASF178
 5374 0c0b 0F       		.byte	0xf
 5375 0c0c E6       		.byte	0xe6
 5376 0c0d 1A0B0000 		.4byte	0xb1a
 5377 0c11 22       		.byte	0x22
 5378 0c12 0D       		.uleb128 0xd
 5379 0c13 D2030000 		.4byte	.LASF179
 5380 0c17 0F       		.byte	0xf
 5381 0c18 EC       		.byte	0xec
 5382 0c19 250B0000 		.4byte	0xb25
 5383 0c1d 23       		.byte	0x23
 5384 0c1e 0D       		.uleb128 0xd
 5385 0c1f 4B0C0000 		.4byte	.LASF180
 5386 0c23 0F       		.byte	0xf
 5387 0c24 F3       		.byte	0xf3
 5388 0c25 720B0000 		.4byte	0xb72
 5389 0c29 24       		.byte	0x24
 5390 0c2a 23       		.uleb128 0x23
 5391 0c2b 705F7500 		.ascii	"p_u\000"
 5392 0c2f 0F       		.byte	0xf
 5393 0c30 3101     		.2byte	0x131
 5394 0c32 C7110000 		.4byte	0x11c7
 5395 0c36 28       		.byte	0x28
 5396 0c37 18       		.uleb128 0x18
 5397 0c38 CA0A0000 		.4byte	.LASF181
 5398 0c3c 0F       		.byte	0xf
 5399 0c3d 3601     		.2byte	0x136
 5400 0c3f B10C0000 		.4byte	0xcb1
 5401 0c43 2C       		.byte	0x2c
 5402 0c44 18       		.uleb128 0x18
ARM GAS  C:\Users\PCHAUT~1\AppData\Local\Temp\ccxXBCq6.s 			page 97


 5403 0c45 C4000000 		.4byte	.LASF182
 5404 0c49 0F       		.byte	0xf
 5405 0c4a 3C01     		.2byte	0x13c
 5406 0c4c D50C0000 		.4byte	0xcd5
 5407 0c50 30       		.byte	0x30
 5408 0c51 18       		.uleb128 0x18
 5409 0c52 65120000 		.4byte	.LASF183
 5410 0c56 0F       		.byte	0xf
 5411 0c57 4001     		.2byte	0x140
 5412 0c59 3B0B0000 		.4byte	0xb3b
 5413 0c5d 38       		.byte	0x38
 5414 0c5e 18       		.uleb128 0x18
 5415 0c5f 3D060000 		.4byte	.LASF184
 5416 0c63 0F       		.byte	0xf
 5417 0c64 4601     		.2byte	0x146
 5418 0c66 460B0000 		.4byte	0xb46
 5419 0c6a 3C       		.byte	0x3c
 5420 0c6b 18       		.uleb128 0x18
 5421 0c6c 5D030000 		.4byte	.LASF185
 5422 0c70 0F       		.byte	0xf
 5423 0c71 4D01     		.2byte	0x14d
 5424 0c73 92120000 		.4byte	0x1292
 5425 0c77 40       		.byte	0x40
 5426 0c78 18       		.uleb128 0x18
 5427 0c79 B20C0000 		.4byte	.LASF186
 5428 0c7d 0F       		.byte	0xf
 5429 0c7e 5101     		.2byte	0x151
 5430 0c80 300B0000 		.4byte	0xb30
 5431 0c84 44       		.byte	0x44
 5432 0c85 18       		.uleb128 0x18
 5433 0c86 020B0000 		.4byte	.LASF187
 5434 0c8a 0F       		.byte	0xf
 5435 0c8b 5801     		.2byte	0x158
 5436 0c8d 52010000 		.4byte	0x152
 5437 0c91 48       		.byte	0x48
 5438 0c92 18       		.uleb128 0x18
 5439 0c93 24000000 		.4byte	.LASF188
 5440 0c97 0F       		.byte	0xf
 5441 0c98 5E01     		.2byte	0x15e
 5442 0c9a 78110000 		.4byte	0x1178
 5443 0c9e 50       		.byte	0x50
 5444 0c9f 00       		.byte	0
 5445 0ca0 03       		.uleb128 0x3
 5446 0ca1 240C0000 		.4byte	.LASF189
 5447 0ca5 0E       		.byte	0xe
 5448 0ca6 44       		.byte	0x44
 5449 0ca7 AB0C0000 		.4byte	0xcab
 5450 0cab 05       		.uleb128 0x5
 5451 0cac 04       		.byte	0x4
 5452 0cad 770B0000 		.4byte	0xb77
 5453 0cb1 03       		.uleb128 0x3
 5454 0cb2 6A100000 		.4byte	.LASF190
 5455 0cb6 0E       		.byte	0xe
 5456 0cb7 49       		.byte	0x49
 5457 0cb8 BC0C0000 		.4byte	0xcbc
 5458 0cbc 10       		.uleb128 0x10
 5459 0cbd 23080000 		.4byte	.LASF191
ARM GAS  C:\Users\PCHAUT~1\AppData\Local\Temp\ccxXBCq6.s 			page 98


 5460 0cc1 04       		.byte	0x4
 5461 0cc2 0F       		.byte	0xf
 5462 0cc3 B0       		.byte	0xb0
 5463 0cc4 D50C0000 		.4byte	0xcd5
 5464 0cc8 0D       		.uleb128 0xd
 5465 0cc9 D3020000 		.4byte	.LASF168
 5466 0ccd 0F       		.byte	0xf
 5467 0cce B1       		.byte	0xb1
 5468 0ccf AB0C0000 		.4byte	0xcab
 5469 0cd3 00       		.byte	0
 5470 0cd4 00       		.byte	0
 5471 0cd5 03       		.uleb128 0x3
 5472 0cd6 4D030000 		.4byte	.LASF192
 5473 0cda 0E       		.byte	0xe
 5474 0cdb 50       		.byte	0x50
 5475 0cdc E00C0000 		.4byte	0xce0
 5476 0ce0 10       		.uleb128 0x10
 5477 0ce1 8A0D0000 		.4byte	.LASF193
 5478 0ce5 08       		.byte	0x8
 5479 0ce6 0F       		.byte	0xf
 5480 0ce7 B7       		.byte	0xb7
 5481 0ce8 050D0000 		.4byte	0xd05
 5482 0cec 0D       		.uleb128 0xd
 5483 0ced D3020000 		.4byte	.LASF168
 5484 0cf1 0F       		.byte	0xf
 5485 0cf2 B8       		.byte	0xb8
 5486 0cf3 AB0C0000 		.4byte	0xcab
 5487 0cf7 00       		.byte	0
 5488 0cf8 0D       		.uleb128 0xd
 5489 0cf9 0F030000 		.4byte	.LASF169
 5490 0cfd 0F       		.byte	0xf
 5491 0cfe B9       		.byte	0xb9
 5492 0cff AB0C0000 		.4byte	0xcab
 5493 0d03 04       		.byte	0x4
 5494 0d04 00       		.byte	0
 5495 0d05 03       		.uleb128 0x3
 5496 0d06 EC070000 		.4byte	.LASF194
 5497 0d0a 0E       		.byte	0xe
 5498 0d0b 57       		.byte	0x57
 5499 0d0c 100D0000 		.4byte	0xd10
 5500 0d10 1B       		.uleb128 0x1b
 5501 0d11 54060000 		.4byte	.LASF195
 5502 0d15 1C       		.byte	0x1c
 5503 0d16 0F       		.byte	0xf
 5504 0d17 9001     		.2byte	0x190
 5505 0d19 6C0D0000 		.4byte	0xd6c
 5506 0d1d 18       		.uleb128 0x18
 5507 0d1e 6A0E0000 		.4byte	.LASF196
 5508 0d22 0F       		.byte	0xf
 5509 0d23 9101     		.2byte	0x191
 5510 0d25 D50C0000 		.4byte	0xcd5
 5511 0d29 00       		.byte	0
 5512 0d2a 18       		.uleb128 0x18
 5513 0d2b 670F0000 		.4byte	.LASF197
 5514 0d2f 0F       		.byte	0xf
 5515 0d30 9201     		.2byte	0x192
 5516 0d32 300B0000 		.4byte	0xb30
ARM GAS  C:\Users\PCHAUT~1\AppData\Local\Temp\ccxXBCq6.s 			page 99


 5517 0d36 08       		.byte	0x8
 5518 0d37 18       		.uleb128 0x18
 5519 0d38 D6000000 		.4byte	.LASF198
 5520 0d3c 0F       		.byte	0xf
 5521 0d3d 9401     		.2byte	0x194
 5522 0d3f 220F0000 		.4byte	0xf22
 5523 0d43 0C       		.byte	0xc
 5524 0d44 18       		.uleb128 0x18
 5525 0d45 B7040000 		.4byte	.LASF199
 5526 0d49 0F       		.byte	0xf
 5527 0d4a 9701     		.2byte	0x197
 5528 0d4c AB0C0000 		.4byte	0xcab
 5529 0d50 10       		.byte	0x10
 5530 0d51 18       		.uleb128 0x18
 5531 0d52 BC0E0000 		.4byte	.LASF200
 5532 0d56 0F       		.byte	0xf
 5533 0d57 9801     		.2byte	0x198
 5534 0d59 AB0C0000 		.4byte	0xcab
 5535 0d5d 14       		.byte	0x14
 5536 0d5e 18       		.uleb128 0x18
 5537 0d5f 07040000 		.4byte	.LASF201
 5538 0d63 0F       		.byte	0xf
 5539 0d64 9B01     		.2byte	0x19b
 5540 0d66 AB0C0000 		.4byte	0xcab
 5541 0d6a 18       		.byte	0x18
 5542 0d6b 00       		.byte	0
 5543 0d6c 03       		.uleb128 0x3
 5544 0d6d 04010000 		.4byte	.LASF202
 5545 0d71 0E       		.byte	0xe
 5546 0d72 5C       		.byte	0x5c
 5547 0d73 770D0000 		.4byte	0xd77
 5548 0d77 05       		.uleb128 0x5
 5549 0d78 04       		.byte	0x4
 5550 0d79 7D0D0000 		.4byte	0xd7d
 5551 0d7d 1F       		.uleb128 0x1f
 5552 0d7e 880D0000 		.4byte	0xd88
 5553 0d82 16       		.uleb128 0x16
 5554 0d83 52010000 		.4byte	0x152
 5555 0d87 00       		.byte	0
 5556 0d88 03       		.uleb128 0x3
 5557 0d89 DC070000 		.4byte	.LASF203
 5558 0d8d 0E       		.byte	0xe
 5559 0d8e 61       		.byte	0x61
 5560 0d8f 930D0000 		.4byte	0xd93
 5561 0d93 1B       		.uleb128 0x1b
 5562 0d94 0E0D0000 		.4byte	.LASF204
 5563 0d98 14       		.byte	0x14
 5564 0d99 0F       		.byte	0xf
 5565 0d9a 6B01     		.2byte	0x16b
 5566 0d9c E20D0000 		.4byte	0xde2
 5567 0da0 18       		.uleb128 0x18
 5568 0da1 E5080000 		.4byte	.LASF205
 5569 0da5 0F       		.byte	0xf
 5570 0da6 6C01     		.2byte	0x16c
 5571 0da8 9E120000 		.4byte	0x129e
 5572 0dac 00       		.byte	0
 5573 0dad 18       		.uleb128 0x18
ARM GAS  C:\Users\PCHAUT~1\AppData\Local\Temp\ccxXBCq6.s 			page 100


 5574 0dae FE080000 		.4byte	.LASF206
 5575 0db2 0F       		.byte	0xf
 5576 0db3 6D01     		.2byte	0x16d
 5577 0db5 9E120000 		.4byte	0x129e
 5578 0db9 04       		.byte	0x4
 5579 0dba 18       		.uleb128 0x18
 5580 0dbb E10C0000 		.4byte	.LASF207
 5581 0dbf 0F       		.byte	0xf
 5582 0dc0 6E01     		.2byte	0x16e
 5583 0dc2 670B0000 		.4byte	0xb67
 5584 0dc6 08       		.byte	0x8
 5585 0dc7 18       		.uleb128 0x18
 5586 0dc8 02060000 		.4byte	.LASF208
 5587 0dcc 0F       		.byte	0xf
 5588 0dcd 6F01     		.2byte	0x16f
 5589 0dcf 6C0D0000 		.4byte	0xd6c
 5590 0dd3 0C       		.byte	0xc
 5591 0dd4 18       		.uleb128 0x18
 5592 0dd5 63020000 		.4byte	.LASF209
 5593 0dd9 0F       		.byte	0xf
 5594 0dda 7101     		.2byte	0x171
 5595 0ddc 52010000 		.4byte	0x152
 5596 0de0 10       		.byte	0x10
 5597 0de1 00       		.byte	0
 5598 0de2 03       		.uleb128 0x3
 5599 0de3 A9070000 		.4byte	.LASF210
 5600 0de7 0E       		.byte	0xe
 5601 0de8 66       		.byte	0x66
 5602 0de9 ED0D0000 		.4byte	0xded
 5603 0ded 1B       		.uleb128 0x1b
 5604 0dee 16010000 		.4byte	.LASF211
 5605 0df2 10       		.byte	0x10
 5606 0df3 0F       		.byte	0xf
 5607 0df4 7B01     		.2byte	0x17b
 5608 0df6 2F0E0000 		.4byte	0xe2f
 5609 0dfa 18       		.uleb128 0x18
 5610 0dfb E5080000 		.4byte	.LASF205
 5611 0dff 0F       		.byte	0xf
 5612 0e00 7C01     		.2byte	0x17c
 5613 0e02 9E120000 		.4byte	0x129e
 5614 0e06 00       		.byte	0
 5615 0e07 18       		.uleb128 0x18
 5616 0e08 FE080000 		.4byte	.LASF206
 5617 0e0c 0F       		.byte	0xf
 5618 0e0d 7E01     		.2byte	0x17e
 5619 0e0f 9E120000 		.4byte	0x129e
 5620 0e13 04       		.byte	0x4
 5621 0e14 18       		.uleb128 0x18
 5622 0e15 E10C0000 		.4byte	.LASF207
 5623 0e19 0F       		.byte	0xf
 5624 0e1a 8001     		.2byte	0x180
 5625 0e1c 670B0000 		.4byte	0xb67
 5626 0e20 08       		.byte	0x8
 5627 0e21 18       		.uleb128 0x18
 5628 0e22 B10E0000 		.4byte	.LASF212
 5629 0e26 0F       		.byte	0xf
 5630 0e27 8201     		.2byte	0x182
ARM GAS  C:\Users\PCHAUT~1\AppData\Local\Temp\ccxXBCq6.s 			page 101


 5631 0e29 720B0000 		.4byte	0xb72
 5632 0e2d 0C       		.byte	0xc
 5633 0e2e 00       		.byte	0
 5634 0e2f 03       		.uleb128 0x3
 5635 0e30 DC040000 		.4byte	.LASF213
 5636 0e34 0E       		.byte	0xe
 5637 0e35 6B       		.byte	0x6b
 5638 0e36 3A0E0000 		.4byte	0xe3a
 5639 0e3a 17       		.uleb128 0x17
 5640 0e3b 6E0F0000 		.4byte	.LASF214
 5641 0e3f 1404     		.2byte	0x414
 5642 0e41 0F       		.byte	0xf
 5643 0e42 A201     		.2byte	0x1a2
 5644 0e44 7D0E0000 		.4byte	0xe7d
 5645 0e48 18       		.uleb128 0x18
 5646 0e49 8D040000 		.4byte	.LASF215
 5647 0e4d 0F       		.byte	0xf
 5648 0e4e AA01     		.2byte	0x1aa
 5649 0e50 D8050000 		.4byte	0x5d8
 5650 0e54 00       		.byte	0
 5651 0e55 18       		.uleb128 0x18
 5652 0e56 83060000 		.4byte	.LASF216
 5653 0e5a 0F       		.byte	0xf
 5654 0e5b AF01     		.2byte	0x1af
 5655 0e5d 510B0000 		.4byte	0xb51
 5656 0e61 04       		.byte	0x4
 5657 0e62 18       		.uleb128 0x18
 5658 0e63 E3010000 		.4byte	.LASF217
 5659 0e67 0F       		.byte	0xf
 5660 0e68 B301     		.2byte	0x1b3
 5661 0e6a 510B0000 		.4byte	0xb51
 5662 0e6e 08       		.byte	0x8
 5663 0e6f 18       		.uleb128 0x18
 5664 0e70 F5050000 		.4byte	.LASF218
 5665 0e74 0F       		.byte	0xf
 5666 0e75 B901     		.2byte	0x1b9
 5667 0e77 0A110000 		.4byte	0x110a
 5668 0e7b 0C       		.byte	0xc
 5669 0e7c 00       		.byte	0
 5670 0e7d 03       		.uleb128 0x3
 5671 0e7e 84110000 		.4byte	.LASF219
 5672 0e82 0E       		.byte	0xe
 5673 0e83 70       		.byte	0x70
 5674 0e84 880E0000 		.4byte	0xe88
 5675 0e88 17       		.uleb128 0x17
 5676 0e89 A9100000 		.4byte	.LASF220
 5677 0e8d 7006     		.2byte	0x670
 5678 0e8f 0F       		.byte	0xf
 5679 0e90 C201     		.2byte	0x1c2
 5680 0e92 F50E0000 		.4byte	0xef5
 5681 0e96 18       		.uleb128 0x18
 5682 0e97 A30E0000 		.4byte	.LASF221
 5683 0e9b 0F       		.byte	0xf
 5684 0e9c C601     		.2byte	0x1c6
 5685 0e9e 050D0000 		.4byte	0xd05
 5686 0ea2 00       		.byte	0
 5687 0ea3 18       		.uleb128 0x18
ARM GAS  C:\Users\PCHAUT~1\AppData\Local\Temp\ccxXBCq6.s 			page 102


 5688 0ea4 F40F0000 		.4byte	.LASF222
 5689 0ea8 0F       		.byte	0xf
 5690 0ea9 CA01     		.2byte	0x1ca
 5691 0eab E20D0000 		.4byte	0xde2
 5692 0eaf 1C       		.byte	0x1c
 5693 0eb0 23       		.uleb128 0x23
 5694 0eb1 64626700 		.ascii	"dbg\000"
 5695 0eb5 0F       		.byte	0xf
 5696 0eb6 CE01     		.2byte	0x1ce
 5697 0eb8 2F0E0000 		.4byte	0xe2f
 5698 0ebc 2C       		.byte	0x2c
 5699 0ebd 19       		.uleb128 0x19
 5700 0ebe 1C0E0000 		.4byte	.LASF223
 5701 0ec2 0F       		.byte	0xf
 5702 0ec3 D201     		.2byte	0x1d2
 5703 0ec5 770B0000 		.4byte	0xb77
 5704 0ec9 4004     		.2byte	0x440
 5705 0ecb 24       		.uleb128 0x24
 5706 0ecc 746D00   		.ascii	"tm\000"
 5707 0ecf 0F       		.byte	0xf
 5708 0ed0 D701     		.2byte	0x1d7
 5709 0ed2 2A110000 		.4byte	0x112a
 5710 0ed6 A804     		.2byte	0x4a8
 5711 0ed8 19       		.uleb128 0x19
 5712 0ed9 330D0000 		.4byte	.LASF224
 5713 0edd 0F       		.byte	0xf
 5714 0ede DD01     		.2byte	0x1dd
 5715 0ee0 BC110000 		.4byte	0x11bc
 5716 0ee4 B004     		.2byte	0x4b0
 5717 0ee6 19       		.uleb128 0x19
 5718 0ee7 DE0A0000 		.4byte	.LASF225
 5719 0eeb 0F       		.byte	0xf
 5720 0eec E301     		.2byte	0x1e3
 5721 0eee A4120000 		.4byte	0x12a4
 5722 0ef2 E804     		.2byte	0x4e8
 5723 0ef4 00       		.byte	0
 5724 0ef5 20       		.uleb128 0x20
 5725 0ef6 960A0000 		.4byte	.LASF226
 5726 0efa 10       		.byte	0x10
 5727 0efb A706     		.2byte	0x6a7
 5728 0efd FC080000 		.4byte	0x8fc
 5729 0f01 21       		.uleb128 0x21
 5730 0f02 68070000 		.4byte	.LASF227
 5731 0f06 11       		.byte	0x11
 5732 0f07 4C       		.byte	0x4c
 5733 0f08 01090000 		.4byte	0x901
 5734 0f0c 03       		.uleb128 0x3
 5735 0f0d 67030000 		.4byte	.LASF228
 5736 0f11 12       		.byte	0x12
 5737 0f12 65       		.byte	0x65
 5738 0f13 52010000 		.4byte	0x152
 5739 0f17 03       		.uleb128 0x3
 5740 0f18 B9050000 		.4byte	.LASF229
 5741 0f1c 12       		.byte	0x12
 5742 0f1d 6D       		.byte	0x6d
 5743 0f1e 0C090000 		.4byte	0x90c
 5744 0f22 10       		.uleb128 0x10
ARM GAS  C:\Users\PCHAUT~1\AppData\Local\Temp\ccxXBCq6.s 			page 103


 5745 0f23 1D040000 		.4byte	.LASF230
 5746 0f27 04       		.byte	0x4
 5747 0f28 12       		.byte	0x12
 5748 0f29 89       		.byte	0x89
 5749 0f2a 3B0F0000 		.4byte	0xf3b
 5750 0f2e 11       		.uleb128 0x11
 5751 0f2f 72313300 		.ascii	"r13\000"
 5752 0f33 12       		.byte	0x12
 5753 0f34 8A       		.byte	0x8a
 5754 0f35 7C100000 		.4byte	0x107c
 5755 0f39 00       		.byte	0
 5756 0f3a 00       		.byte	0
 5757 0f3b 10       		.uleb128 0x10
 5758 0f3c BD0C0000 		.4byte	.LASF231
 5759 0f40 64       		.byte	0x64
 5760 0f41 01       		.byte	0x1
 5761 0f42 F4       		.byte	0xf4
 5762 0f43 7C100000 		.4byte	0x107c
 5763 0f47 11       		.uleb128 0x11
 5764 0f48 73313600 		.ascii	"s16\000"
 5765 0f4c 01       		.byte	0x1
 5766 0f4d F6       		.byte	0xf6
 5767 0f4e 0C0F0000 		.4byte	0xf0c
 5768 0f52 00       		.byte	0
 5769 0f53 11       		.uleb128 0x11
 5770 0f54 73313700 		.ascii	"s17\000"
 5771 0f58 01       		.byte	0x1
 5772 0f59 F7       		.byte	0xf7
 5773 0f5a 0C0F0000 		.4byte	0xf0c
 5774 0f5e 04       		.byte	0x4
 5775 0f5f 11       		.uleb128 0x11
 5776 0f60 73313800 		.ascii	"s18\000"
 5777 0f64 01       		.byte	0x1
 5778 0f65 F8       		.byte	0xf8
 5779 0f66 0C0F0000 		.4byte	0xf0c
 5780 0f6a 08       		.byte	0x8
 5781 0f6b 11       		.uleb128 0x11
 5782 0f6c 73313900 		.ascii	"s19\000"
 5783 0f70 01       		.byte	0x1
 5784 0f71 F9       		.byte	0xf9
 5785 0f72 0C0F0000 		.4byte	0xf0c
 5786 0f76 0C       		.byte	0xc
 5787 0f77 11       		.uleb128 0x11
 5788 0f78 73323000 		.ascii	"s20\000"
 5789 0f7c 01       		.byte	0x1
 5790 0f7d FA       		.byte	0xfa
 5791 0f7e 0C0F0000 		.4byte	0xf0c
 5792 0f82 10       		.byte	0x10
 5793 0f83 11       		.uleb128 0x11
 5794 0f84 73323100 		.ascii	"s21\000"
 5795 0f88 01       		.byte	0x1
 5796 0f89 FB       		.byte	0xfb
 5797 0f8a 0C0F0000 		.4byte	0xf0c
 5798 0f8e 14       		.byte	0x14
 5799 0f8f 11       		.uleb128 0x11
 5800 0f90 73323200 		.ascii	"s22\000"
 5801 0f94 01       		.byte	0x1
ARM GAS  C:\Users\PCHAUT~1\AppData\Local\Temp\ccxXBCq6.s 			page 104


 5802 0f95 FC       		.byte	0xfc
 5803 0f96 0C0F0000 		.4byte	0xf0c
 5804 0f9a 18       		.byte	0x18
 5805 0f9b 11       		.uleb128 0x11
 5806 0f9c 73323300 		.ascii	"s23\000"
 5807 0fa0 01       		.byte	0x1
 5808 0fa1 FD       		.byte	0xfd
 5809 0fa2 0C0F0000 		.4byte	0xf0c
 5810 0fa6 1C       		.byte	0x1c
 5811 0fa7 11       		.uleb128 0x11
 5812 0fa8 73323400 		.ascii	"s24\000"
 5813 0fac 01       		.byte	0x1
 5814 0fad FE       		.byte	0xfe
 5815 0fae 0C0F0000 		.4byte	0xf0c
 5816 0fb2 20       		.byte	0x20
 5817 0fb3 11       		.uleb128 0x11
 5818 0fb4 73323500 		.ascii	"s25\000"
 5819 0fb8 01       		.byte	0x1
 5820 0fb9 FF       		.byte	0xff
 5821 0fba 0C0F0000 		.4byte	0xf0c
 5822 0fbe 24       		.byte	0x24
 5823 0fbf 23       		.uleb128 0x23
 5824 0fc0 73323600 		.ascii	"s26\000"
 5825 0fc4 01       		.byte	0x1
 5826 0fc5 0001     		.2byte	0x100
 5827 0fc7 0C0F0000 		.4byte	0xf0c
 5828 0fcb 28       		.byte	0x28
 5829 0fcc 23       		.uleb128 0x23
 5830 0fcd 73323700 		.ascii	"s27\000"
 5831 0fd1 01       		.byte	0x1
 5832 0fd2 0101     		.2byte	0x101
 5833 0fd4 0C0F0000 		.4byte	0xf0c
 5834 0fd8 2C       		.byte	0x2c
 5835 0fd9 23       		.uleb128 0x23
 5836 0fda 73323800 		.ascii	"s28\000"
 5837 0fde 01       		.byte	0x1
 5838 0fdf 0201     		.2byte	0x102
 5839 0fe1 0C0F0000 		.4byte	0xf0c
 5840 0fe5 30       		.byte	0x30
 5841 0fe6 23       		.uleb128 0x23
 5842 0fe7 73323900 		.ascii	"s29\000"
 5843 0feb 01       		.byte	0x1
 5844 0fec 0301     		.2byte	0x103
 5845 0fee 0C0F0000 		.4byte	0xf0c
 5846 0ff2 34       		.byte	0x34
 5847 0ff3 23       		.uleb128 0x23
 5848 0ff4 73333000 		.ascii	"s30\000"
 5849 0ff8 01       		.byte	0x1
 5850 0ff9 0401     		.2byte	0x104
 5851 0ffb 0C0F0000 		.4byte	0xf0c
 5852 0fff 38       		.byte	0x38
 5853 1000 23       		.uleb128 0x23
 5854 1001 73333100 		.ascii	"s31\000"
 5855 1005 01       		.byte	0x1
 5856 1006 0501     		.2byte	0x105
 5857 1008 0C0F0000 		.4byte	0xf0c
 5858 100c 3C       		.byte	0x3c
ARM GAS  C:\Users\PCHAUT~1\AppData\Local\Temp\ccxXBCq6.s 			page 105


 5859 100d 23       		.uleb128 0x23
 5860 100e 723400   		.ascii	"r4\000"
 5861 1011 01       		.byte	0x1
 5862 1012 0701     		.2byte	0x107
 5863 1014 0C0F0000 		.4byte	0xf0c
 5864 1018 40       		.byte	0x40
 5865 1019 23       		.uleb128 0x23
 5866 101a 723500   		.ascii	"r5\000"
 5867 101d 01       		.byte	0x1
 5868 101e 0801     		.2byte	0x108
 5869 1020 0C0F0000 		.4byte	0xf0c
 5870 1024 44       		.byte	0x44
 5871 1025 23       		.uleb128 0x23
 5872 1026 723600   		.ascii	"r6\000"
 5873 1029 01       		.byte	0x1
 5874 102a 0901     		.2byte	0x109
 5875 102c 0C0F0000 		.4byte	0xf0c
 5876 1030 48       		.byte	0x48
 5877 1031 23       		.uleb128 0x23
 5878 1032 723700   		.ascii	"r7\000"
 5879 1035 01       		.byte	0x1
 5880 1036 0A01     		.2byte	0x10a
 5881 1038 0C0F0000 		.4byte	0xf0c
 5882 103c 4C       		.byte	0x4c
 5883 103d 23       		.uleb128 0x23
 5884 103e 723800   		.ascii	"r8\000"
 5885 1041 01       		.byte	0x1
 5886 1042 0B01     		.2byte	0x10b
 5887 1044 0C0F0000 		.4byte	0xf0c
 5888 1048 50       		.byte	0x50
 5889 1049 23       		.uleb128 0x23
 5890 104a 723900   		.ascii	"r9\000"
 5891 104d 01       		.byte	0x1
 5892 104e 0C01     		.2byte	0x10c
 5893 1050 0C0F0000 		.4byte	0xf0c
 5894 1054 54       		.byte	0x54
 5895 1055 23       		.uleb128 0x23
 5896 1056 72313000 		.ascii	"r10\000"
 5897 105a 01       		.byte	0x1
 5898 105b 0D01     		.2byte	0x10d
 5899 105d 0C0F0000 		.4byte	0xf0c
 5900 1061 58       		.byte	0x58
 5901 1062 23       		.uleb128 0x23
 5902 1063 72313100 		.ascii	"r11\000"
 5903 1067 01       		.byte	0x1
 5904 1068 0E01     		.2byte	0x10e
 5905 106a 0C0F0000 		.4byte	0xf0c
 5906 106e 5C       		.byte	0x5c
 5907 106f 23       		.uleb128 0x23
 5908 1070 6C7200   		.ascii	"lr\000"
 5909 1073 01       		.byte	0x1
 5910 1074 0F01     		.2byte	0x10f
 5911 1076 0C0F0000 		.4byte	0xf0c
 5912 107a 60       		.byte	0x60
 5913 107b 00       		.byte	0
 5914 107c 05       		.uleb128 0x5
 5915 107d 04       		.byte	0x4
ARM GAS  C:\Users\PCHAUT~1\AppData\Local\Temp\ccxXBCq6.s 			page 106


 5916 107e 3B0F0000 		.4byte	0xf3b
 5917 1082 0C       		.uleb128 0xc
 5918 1083 10       		.byte	0x10
 5919 1084 13       		.byte	0x13
 5920 1085 51       		.byte	0x51
 5921 1086 BB100000 		.4byte	0x10bb
 5922 108a 0D       		.uleb128 0xd
 5923 108b 21120000 		.4byte	.LASF232
 5924 108f 13       		.byte	0x13
 5925 1090 55       		.byte	0x55
 5926 1091 670B0000 		.4byte	0xb67
 5927 1095 00       		.byte	0
 5928 1096 0D       		.uleb128 0xd
 5929 1097 29020000 		.4byte	.LASF233
 5930 109b 13       		.byte	0x13
 5931 109c 59       		.byte	0x59
 5932 109d AB0C0000 		.4byte	0xcab
 5933 10a1 04       		.byte	0x4
 5934 10a2 0D       		.uleb128 0xd
 5935 10a3 D40A0000 		.4byte	.LASF234
 5936 10a7 13       		.byte	0x13
 5937 10a8 5D       		.byte	0x5d
 5938 10a9 52010000 		.4byte	0x152
 5939 10ad 08       		.byte	0x8
 5940 10ae 0D       		.uleb128 0xd
 5941 10af CC060000 		.4byte	.LASF235
 5942 10b3 13       		.byte	0x13
 5943 10b4 61       		.byte	0x61
 5944 10b5 DB080000 		.4byte	0x8db
 5945 10b9 0C       		.byte	0xc
 5946 10ba 00       		.byte	0
 5947 10bb 03       		.uleb128 0x3
 5948 10bc 33080000 		.4byte	.LASF236
 5949 10c0 13       		.byte	0x13
 5950 10c1 62       		.byte	0x62
 5951 10c2 82100000 		.4byte	0x1082
 5952 10c6 25       		.uleb128 0x25
 5953 10c7 0804     		.2byte	0x408
 5954 10c9 13       		.byte	0x13
 5955 10ca 67       		.byte	0x67
 5956 10cb F4100000 		.4byte	0x10f4
 5957 10cf 0D       		.uleb128 0xd
 5958 10d0 21090000 		.4byte	.LASF237
 5959 10d4 13       		.byte	0x13
 5960 10d5 6B       		.byte	0x6b
 5961 10d6 37000000 		.4byte	0x37
 5962 10da 00       		.byte	0
 5963 10db 0D       		.uleb128 0xd
 5964 10dc 3C120000 		.4byte	.LASF238
 5965 10e0 13       		.byte	0x13
 5966 10e1 6F       		.byte	0x6f
 5967 10e2 F4100000 		.4byte	0x10f4
 5968 10e6 04       		.byte	0x4
 5969 10e7 0D       		.uleb128 0xd
 5970 10e8 DB080000 		.4byte	.LASF239
 5971 10ec 13       		.byte	0x13
 5972 10ed 73       		.byte	0x73
ARM GAS  C:\Users\PCHAUT~1\AppData\Local\Temp\ccxXBCq6.s 			page 107


 5973 10ee FA100000 		.4byte	0x10fa
 5974 10f2 08       		.byte	0x8
 5975 10f3 00       		.byte	0
 5976 10f4 05       		.uleb128 0x5
 5977 10f5 04       		.byte	0x4
 5978 10f6 BB100000 		.4byte	0x10bb
 5979 10fa 0A       		.uleb128 0xa
 5980 10fb BB100000 		.4byte	0x10bb
 5981 10ff 0A110000 		.4byte	0x110a
 5982 1103 0B       		.uleb128 0xb
 5983 1104 37000000 		.4byte	0x37
 5984 1108 3F       		.byte	0x3f
 5985 1109 00       		.byte	0
 5986 110a 03       		.uleb128 0x3
 5987 110b 2B060000 		.4byte	.LASF240
 5988 110f 13       		.byte	0x13
 5989 1110 74       		.byte	0x74
 5990 1111 C6100000 		.4byte	0x10c6
 5991 1115 0C       		.uleb128 0xc
 5992 1116 04       		.byte	0x4
 5993 1117 14       		.byte	0x14
 5994 1118 38       		.byte	0x38
 5995 1119 2A110000 		.4byte	0x112a
 5996 111d 0D       		.uleb128 0xd
 5997 111e 1D0C0000 		.4byte	.LASF241
 5998 1122 14       		.byte	0x14
 5999 1123 3C       		.byte	0x3c
 6000 1124 EE0A0000 		.4byte	0xaee
 6001 1128 00       		.byte	0
 6002 1129 00       		.byte	0
 6003 112a 03       		.uleb128 0x3
 6004 112b C40E0000 		.4byte	.LASF242
 6005 112f 14       		.byte	0x14
 6006 1130 3D       		.byte	0x3d
 6007 1131 15110000 		.4byte	0x1115
 6008 1135 0C       		.uleb128 0xc
 6009 1136 18       		.byte	0x18
 6010 1137 14       		.byte	0x14
 6011 1138 48       		.byte	0x48
 6012 1139 78110000 		.4byte	0x1178
 6013 113d 0D       		.uleb128 0xd
 6014 113e 450E0000 		.4byte	.LASF243
 6015 1142 14       		.byte	0x14
 6016 1143 49       		.byte	0x49
 6017 1144 EE0A0000 		.4byte	0xaee
 6018 1148 00       		.byte	0
 6019 1149 0D       		.uleb128 0xd
 6020 114a 880F0000 		.4byte	.LASF244
 6021 114e 14       		.byte	0x14
 6022 114f 4A       		.byte	0x4a
 6023 1150 EE0A0000 		.4byte	0xaee
 6024 1154 04       		.byte	0x4
 6025 1155 0D       		.uleb128 0xd
 6026 1156 60120000 		.4byte	.LASF245
 6027 115a 14       		.byte	0x14
 6028 115b 4B       		.byte	0x4b
 6029 115c EE0A0000 		.4byte	0xaee
ARM GAS  C:\Users\PCHAUT~1\AppData\Local\Temp\ccxXBCq6.s 			page 108


 6030 1160 08       		.byte	0x8
 6031 1161 11       		.uleb128 0x11
 6032 1162 6E00     		.ascii	"n\000"
 6033 1164 14       		.byte	0x14
 6034 1165 4C       		.byte	0x4c
 6035 1166 5C0B0000 		.4byte	0xb5c
 6036 116a 0C       		.byte	0xc
 6037 116b 0D       		.uleb128 0xd
 6038 116c 8B060000 		.4byte	.LASF246
 6039 1170 14       		.byte	0x14
 6040 1171 4D       		.byte	0x4d
 6041 1172 F90A0000 		.4byte	0xaf9
 6042 1176 10       		.byte	0x10
 6043 1177 00       		.byte	0
 6044 1178 03       		.uleb128 0x3
 6045 1179 2F020000 		.4byte	.LASF247
 6046 117d 14       		.byte	0x14
 6047 117e 4E       		.byte	0x4e
 6048 117f 35110000 		.4byte	0x1135
 6049 1183 0C       		.uleb128 0xc
 6050 1184 38       		.byte	0x38
 6051 1185 15       		.byte	0x15
 6052 1186 38       		.byte	0x38
 6053 1187 BC110000 		.4byte	0x11bc
 6054 118b 0D       		.uleb128 0xd
 6055 118c 4A080000 		.4byte	.LASF248
 6056 1190 15       		.byte	0x15
 6057 1191 39       		.byte	0x39
 6058 1192 5C0B0000 		.4byte	0xb5c
 6059 1196 00       		.byte	0
 6060 1197 0D       		.uleb128 0xd
 6061 1198 9C050000 		.4byte	.LASF249
 6062 119c 15       		.byte	0x15
 6063 119d 3A       		.byte	0x3a
 6064 119e 5C0B0000 		.4byte	0xb5c
 6065 11a2 04       		.byte	0x4
 6066 11a3 0D       		.uleb128 0xd
 6067 11a4 D5060000 		.4byte	.LASF250
 6068 11a8 15       		.byte	0x15
 6069 11a9 3B       		.byte	0x3b
 6070 11aa 78110000 		.4byte	0x1178
 6071 11ae 08       		.byte	0x8
 6072 11af 0D       		.uleb128 0xd
 6073 11b0 AD060000 		.4byte	.LASF251
 6074 11b4 15       		.byte	0x15
 6075 11b5 3D       		.byte	0x3d
 6076 11b6 78110000 		.4byte	0x1178
 6077 11ba 20       		.byte	0x20
 6078 11bb 00       		.byte	0
 6079 11bc 03       		.uleb128 0x3
 6080 11bd 900B0000 		.4byte	.LASF252
 6081 11c1 15       		.byte	0x15
 6082 11c2 3F       		.byte	0x3f
 6083 11c3 83110000 		.4byte	0x1183
 6084 11c7 08       		.uleb128 0x8
 6085 11c8 04       		.byte	0x4
 6086 11c9 0F       		.byte	0xf
ARM GAS  C:\Users\PCHAUT~1\AppData\Local\Temp\ccxXBCq6.s 			page 109


 6087 11ca FA       		.byte	0xfa
 6088 11cb 24120000 		.4byte	0x1224
 6089 11cf 1E       		.uleb128 0x1e
 6090 11d0 5B110000 		.4byte	.LASF253
 6091 11d4 0F       		.byte	0xf
 6092 11d5 0101     		.2byte	0x101
 6093 11d7 3B0B0000 		.4byte	0xb3b
 6094 11db 1E       		.uleb128 0x1e
 6095 11dc 78020000 		.4byte	.LASF254
 6096 11e0 0F       		.byte	0xf
 6097 11e1 0801     		.2byte	0x108
 6098 11e3 3B0B0000 		.4byte	0xb3b
 6099 11e7 1E       		.uleb128 0x1e
 6100 11e8 89050000 		.4byte	.LASF255
 6101 11ec 0F       		.byte	0xf
 6102 11ed 0F01     		.2byte	0x10f
 6103 11ef 52010000 		.4byte	0x152
 6104 11f3 1E       		.uleb128 0x1e
 6105 11f4 25040000 		.4byte	.LASF256
 6106 11f8 0F       		.byte	0xf
 6107 11f9 1601     		.2byte	0x116
 6108 11fb 24120000 		.4byte	0x1224
 6109 11ff 1E       		.uleb128 0x1e
 6110 1200 59120000 		.4byte	.LASF257
 6111 1204 0F       		.byte	0xf
 6112 1205 1E01     		.2byte	0x11e
 6113 1207 4F120000 		.4byte	0x124f
 6114 120b 1E       		.uleb128 0x1e
 6115 120c 48060000 		.4byte	.LASF258
 6116 1210 0F       		.byte	0xf
 6117 1211 2701     		.2byte	0x127
 6118 1213 92120000 		.4byte	0x1292
 6119 1217 1E       		.uleb128 0x1e
 6120 1218 8B020000 		.4byte	.LASF259
 6121 121c 0F       		.byte	0xf
 6122 121d 2F01     		.2byte	0x12f
 6123 121f 460B0000 		.4byte	0xb46
 6124 1223 00       		.byte	0
 6125 1224 05       		.uleb128 0x5
 6126 1225 04       		.byte	0x4
 6127 1226 A00C0000 		.4byte	0xca0
 6128 122a 10       		.uleb128 0x10
 6129 122b 78070000 		.4byte	.LASF260
 6130 122f 0C       		.byte	0xc
 6131 1230 16       		.byte	0x16
 6132 1231 34       		.byte	0x34
 6133 1232 4F120000 		.4byte	0x124f
 6134 1236 0D       		.uleb128 0xd
 6135 1237 F80E0000 		.4byte	.LASF261
 6136 123b 16       		.byte	0x16
 6137 123c 35       		.byte	0x35
 6138 123d D50C0000 		.4byte	0xcd5
 6139 1241 00       		.byte	0
 6140 1242 0D       		.uleb128 0xd
 6141 1243 1F0D0000 		.4byte	.LASF262
 6142 1247 16       		.byte	0x16
 6143 1248 37       		.byte	0x37
ARM GAS  C:\Users\PCHAUT~1\AppData\Local\Temp\ccxXBCq6.s 			page 110


 6144 1249 510B0000 		.4byte	0xb51
 6145 124d 08       		.byte	0x8
 6146 124e 00       		.byte	0
 6147 124f 05       		.uleb128 0x5
 6148 1250 04       		.byte	0x4
 6149 1251 2A120000 		.4byte	0x122a
 6150 1255 10       		.uleb128 0x10
 6151 1256 4B0F0000 		.4byte	.LASF263
 6152 125a 14       		.byte	0x14
 6153 125b 17       		.byte	0x17
 6154 125c 39       		.byte	0x39
 6155 125d 92120000 		.4byte	0x1292
 6156 1261 0D       		.uleb128 0xd
 6157 1262 CC080000 		.4byte	.LASF264
 6158 1266 17       		.byte	0x17
 6159 1267 3A       		.byte	0x3a
 6160 1268 D50C0000 		.4byte	0xcd5
 6161 126c 00       		.byte	0
 6162 126d 0D       		.uleb128 0xd
 6163 126e 5B020000 		.4byte	.LASF265
 6164 1272 17       		.byte	0x17
 6165 1273 3C       		.byte	0x3c
 6166 1274 AB0C0000 		.4byte	0xcab
 6167 1278 08       		.byte	0x8
 6168 1279 0D       		.uleb128 0xd
 6169 127a 35120000 		.4byte	.LASF266
 6170 127e 17       		.byte	0x17
 6171 127f 3E       		.byte	0x3e
 6172 1280 D6130000 		.4byte	0x13d6
 6173 1284 0C       		.byte	0xc
 6174 1285 0D       		.uleb128 0xd
 6175 1286 46050000 		.4byte	.LASF267
 6176 128a 17       		.byte	0x17
 6177 128b 41       		.byte	0x41
 6178 128c 510B0000 		.4byte	0xb51
 6179 1290 10       		.byte	0x10
 6180 1291 00       		.byte	0
 6181 1292 05       		.uleb128 0x5
 6182 1293 04       		.byte	0x4
 6183 1294 55120000 		.4byte	0x1255
 6184 1298 05       		.uleb128 0x5
 6185 1299 04       		.byte	0x4
 6186 129a 170F0000 		.4byte	0xf17
 6187 129e 05       		.uleb128 0x5
 6188 129f 04       		.byte	0x4
 6189 12a0 880D0000 		.4byte	0xd88
 6190 12a4 0A       		.uleb128 0xa
 6191 12a5 170F0000 		.4byte	0xf17
 6192 12a9 B4120000 		.4byte	0x12b4
 6193 12ad 0B       		.uleb128 0xb
 6194 12ae 37000000 		.4byte	0x37
 6195 12b2 30       		.byte	0x30
 6196 12b3 00       		.byte	0
 6197 12b4 26       		.uleb128 0x26
 6198 12b5 636800   		.ascii	"ch\000"
 6199 12b8 0F       		.byte	0xf
 6200 12b9 0902     		.2byte	0x209
ARM GAS  C:\Users\PCHAUT~1\AppData\Local\Temp\ccxXBCq6.s 			page 111


 6201 12bb 7D0E0000 		.4byte	0xe7d
 6202 12bf 0C       		.uleb128 0xc
 6203 12c0 16       		.byte	0x16
 6204 12c1 18       		.byte	0x18
 6205 12c2 34       		.byte	0x34
 6206 12c3 A0130000 		.4byte	0x13a0
 6207 12c7 0D       		.uleb128 0xd
 6208 12c8 99000000 		.4byte	.LASF268
 6209 12cc 18       		.byte	0x18
 6210 12cd 35       		.byte	0x35
 6211 12ce A0130000 		.4byte	0x13a0
 6212 12d2 00       		.byte	0
 6213 12d3 0D       		.uleb128 0xd
 6214 12d4 1B070000 		.4byte	.LASF269
 6215 12d8 18       		.byte	0x18
 6216 12d9 36       		.byte	0x36
 6217 12da DB080000 		.4byte	0x8db
 6218 12de 04       		.byte	0x4
 6219 12df 0D       		.uleb128 0xd
 6220 12e0 A1110000 		.4byte	.LASF270
 6221 12e4 18       		.byte	0x18
 6222 12e5 37       		.byte	0x37
 6223 12e6 DB080000 		.4byte	0x8db
 6224 12ea 05       		.byte	0x5
 6225 12eb 0D       		.uleb128 0xd
 6226 12ec C1080000 		.4byte	.LASF271
 6227 12f0 18       		.byte	0x18
 6228 12f1 38       		.byte	0x38
 6229 12f2 E6080000 		.4byte	0x8e6
 6230 12f6 06       		.byte	0x6
 6231 12f7 0D       		.uleb128 0xd
 6232 12f8 13020000 		.4byte	.LASF272
 6233 12fc 18       		.byte	0x18
 6234 12fd 39       		.byte	0x39
 6235 12fe DB080000 		.4byte	0x8db
 6236 1302 08       		.byte	0x8
 6237 1303 0D       		.uleb128 0xd
 6238 1304 06090000 		.4byte	.LASF273
 6239 1308 18       		.byte	0x18
 6240 1309 3A       		.byte	0x3a
 6241 130a DB080000 		.4byte	0x8db
 6242 130e 09       		.byte	0x9
 6243 130f 0D       		.uleb128 0xd
 6244 1310 98020000 		.4byte	.LASF274
 6245 1314 18       		.byte	0x18
 6246 1315 3B       		.byte	0x3b
 6247 1316 DB080000 		.4byte	0x8db
 6248 131a 0A       		.byte	0xa
 6249 131b 0D       		.uleb128 0xd
 6250 131c C4050000 		.4byte	.LASF275
 6251 1320 18       		.byte	0x18
 6252 1321 3C       		.byte	0x3c
 6253 1322 DB080000 		.4byte	0x8db
 6254 1326 0B       		.byte	0xb
 6255 1327 0D       		.uleb128 0xd
 6256 1328 F9000000 		.4byte	.LASF276
 6257 132c 18       		.byte	0x18
ARM GAS  C:\Users\PCHAUT~1\AppData\Local\Temp\ccxXBCq6.s 			page 112


 6258 132d 3D       		.byte	0x3d
 6259 132e DB080000 		.4byte	0x8db
 6260 1332 0C       		.byte	0xc
 6261 1333 0D       		.uleb128 0xd
 6262 1334 AC050000 		.4byte	.LASF277
 6263 1338 18       		.byte	0x18
 6264 1339 3E       		.byte	0x3e
 6265 133a DB080000 		.4byte	0x8db
 6266 133e 0D       		.byte	0xd
 6267 133f 0D       		.uleb128 0xd
 6268 1340 8E0F0000 		.4byte	.LASF278
 6269 1344 18       		.byte	0x18
 6270 1345 3F       		.byte	0x3f
 6271 1346 DB080000 		.4byte	0x8db
 6272 134a 0E       		.byte	0xe
 6273 134b 0D       		.uleb128 0xd
 6274 134c 58000000 		.4byte	.LASF279
 6275 1350 18       		.byte	0x18
 6276 1351 40       		.byte	0x40
 6277 1352 DB080000 		.4byte	0x8db
 6278 1356 0F       		.byte	0xf
 6279 1357 0D       		.uleb128 0xd
 6280 1358 5A100000 		.4byte	.LASF280
 6281 135c 18       		.byte	0x18
 6282 135d 41       		.byte	0x41
 6283 135e DB080000 		.4byte	0x8db
 6284 1362 10       		.byte	0x10
 6285 1363 0D       		.uleb128 0xd
 6286 1364 FC020000 		.4byte	.LASF281
 6287 1368 18       		.byte	0x18
 6288 1369 43       		.byte	0x43
 6289 136a DB080000 		.4byte	0x8db
 6290 136e 11       		.byte	0x11
 6291 136f 0D       		.uleb128 0xd
 6292 1370 A30D0000 		.4byte	.LASF282
 6293 1374 18       		.byte	0x18
 6294 1375 44       		.byte	0x44
 6295 1376 DB080000 		.4byte	0x8db
 6296 137a 12       		.byte	0x12
 6297 137b 0D       		.uleb128 0xd
 6298 137c 520C0000 		.4byte	.LASF283
 6299 1380 18       		.byte	0x18
 6300 1381 45       		.byte	0x45
 6301 1382 DB080000 		.4byte	0x8db
 6302 1386 13       		.byte	0x13
 6303 1387 0D       		.uleb128 0xd
 6304 1388 78080000 		.4byte	.LASF284
 6305 138c 18       		.byte	0x18
 6306 138d 46       		.byte	0x46
 6307 138e DB080000 		.4byte	0x8db
 6308 1392 14       		.byte	0x14
 6309 1393 0D       		.uleb128 0xd
 6310 1394 90050000 		.4byte	.LASF285
 6311 1398 18       		.byte	0x18
 6312 1399 48       		.byte	0x48
 6313 139a DB080000 		.4byte	0x8db
 6314 139e 15       		.byte	0x15
ARM GAS  C:\Users\PCHAUT~1\AppData\Local\Temp\ccxXBCq6.s 			page 113


 6315 139f 00       		.byte	0
 6316 13a0 0A       		.uleb128 0xa
 6317 13a1 5A010000 		.4byte	0x15a
 6318 13a5 B0130000 		.4byte	0x13b0
 6319 13a9 0B       		.uleb128 0xb
 6320 13aa 37000000 		.4byte	0x37
 6321 13ae 03       		.byte	0x3
 6322 13af 00       		.byte	0
 6323 13b0 03       		.uleb128 0x3
 6324 13b1 90110000 		.4byte	.LASF286
 6325 13b5 18       		.byte	0x18
 6326 13b6 49       		.byte	0x49
 6327 13b7 BF120000 		.4byte	0x12bf
 6328 13bb 0F       		.uleb128 0xf
 6329 13bc B0130000 		.4byte	0x13b0
 6330 13c0 21       		.uleb128 0x21
 6331 13c1 BB000000 		.4byte	.LASF287
 6332 13c5 18       		.byte	0x18
 6333 13c6 6E       		.byte	0x6e
 6334 13c7 BB130000 		.4byte	0x13bb
 6335 13cb 03       		.uleb128 0x3
 6336 13cc 2D100000 		.4byte	.LASF288
 6337 13d0 17       		.byte	0x17
 6338 13d1 34       		.byte	0x34
 6339 13d2 55120000 		.4byte	0x1255
 6340 13d6 05       		.uleb128 0x5
 6341 13d7 04       		.byte	0x4
 6342 13d8 CB130000 		.4byte	0x13cb
 6343 13dc 27       		.uleb128 0x27
 6344 13dd AF0A0000 		.4byte	.LASF289
 6345 13e1 04       		.byte	0x4
 6346 13e2 3902     		.2byte	0x239
 6347 13e4 00000000 		.4byte	.LFB297
 6348 13e8 78000000 		.4byte	.LFE297-.LFB297
 6349 13ec 01       		.uleb128 0x1
 6350 13ed 9C       		.byte	0x9c
 6351 13ee 2D140000 		.4byte	0x142d
 6352 13f2 28       		.uleb128 0x28
 6353 13f3 7000     		.ascii	"p\000"
 6354 13f5 04       		.byte	0x4
 6355 13f6 3902     		.2byte	0x239
 6356 13f8 FB090000 		.4byte	0x9fb
 6357 13fc 02       		.uleb128 0x2
 6358 13fd 91       		.byte	0x91
 6359 13fe 6C       		.sleb128 -20
 6360 13ff 28       		.uleb128 0x28
 6361 1400 73747200 		.ascii	"str\000"
 6362 1404 04       		.byte	0x4
 6363 1405 3902     		.2byte	0x239
 6364 1407 D2050000 		.4byte	0x5d2
 6365 140b 02       		.uleb128 0x2
 6366 140c 91       		.byte	0x91
 6367 140d 68       		.sleb128 -24
 6368 140e 28       		.uleb128 0x28
 6369 140f 6C656E00 		.ascii	"len\000"
 6370 1413 04       		.byte	0x4
 6371 1414 3902     		.2byte	0x239
ARM GAS  C:\Users\PCHAUT~1\AppData\Local\Temp\ccxXBCq6.s 			page 114


 6372 1416 E6080000 		.4byte	0x8e6
 6373 141a 02       		.uleb128 0x2
 6374 141b 91       		.byte	0x91
 6375 141c 66       		.sleb128 -26
 6376 141d 29       		.uleb128 0x29
 6377 141e 0D010000 		.4byte	.LASF292
 6378 1422 3D140000 		.4byte	0x143d
 6379 1426 05       		.uleb128 0x5
 6380 1427 03       		.byte	0x3
 6381 1428 00000000 		.4byte	__func__.9249
 6382 142c 00       		.byte	0
 6383 142d 0A       		.uleb128 0xa
 6384 142e 61010000 		.4byte	0x161
 6385 1432 3D140000 		.4byte	0x143d
 6386 1436 0B       		.uleb128 0xb
 6387 1437 37000000 		.4byte	0x37
 6388 143b 1A       		.byte	0x1a
 6389 143c 00       		.byte	0
 6390 143d 0F       		.uleb128 0xf
 6391 143e 2D140000 		.4byte	0x142d
 6392 1442 27       		.uleb128 0x27
 6393 1443 4A0E0000 		.4byte	.LASF290
 6394 1447 04       		.byte	0x4
 6395 1448 3402     		.2byte	0x234
 6396 144a 00000000 		.4byte	.LFB296
 6397 144e 3C000000 		.4byte	.LFE296-.LFB296
 6398 1452 01       		.uleb128 0x1
 6399 1453 9C       		.byte	0x9c
 6400 1454 75140000 		.4byte	0x1475
 6401 1458 28       		.uleb128 0x28
 6402 1459 7000     		.ascii	"p\000"
 6403 145b 04       		.byte	0x4
 6404 145c 3402     		.2byte	0x234
 6405 145e FB090000 		.4byte	0x9fb
 6406 1462 02       		.uleb128 0x2
 6407 1463 91       		.byte	0x91
 6408 1464 6C       		.sleb128 -20
 6409 1465 28       		.uleb128 0x28
 6410 1466 73747200 		.ascii	"str\000"
 6411 146a 04       		.byte	0x4
 6412 146b 3402     		.2byte	0x234
 6413 146d D2050000 		.4byte	0x5d2
 6414 1471 02       		.uleb128 0x2
 6415 1472 91       		.byte	0x91
 6416 1473 68       		.sleb128 -24
 6417 1474 00       		.byte	0
 6418 1475 2A       		.uleb128 0x2a
 6419 1476 25030000 		.4byte	.LASF293
 6420 147a 04       		.byte	0x4
 6421 147b 2302     		.2byte	0x223
 6422 147d E6080000 		.4byte	0x8e6
 6423 1481 00000000 		.4byte	.LFB295
 6424 1485 B4000000 		.4byte	.LFE295-.LFB295
 6425 1489 01       		.uleb128 0x1
 6426 148a 9C       		.byte	0x9c
 6427 148b D9140000 		.4byte	0x14d9
 6428 148f 28       		.uleb128 0x28
ARM GAS  C:\Users\PCHAUT~1\AppData\Local\Temp\ccxXBCq6.s 			page 115


 6429 1490 7000     		.ascii	"p\000"
 6430 1492 04       		.byte	0x4
 6431 1493 2302     		.2byte	0x223
 6432 1495 FB090000 		.4byte	0x9fb
 6433 1499 02       		.uleb128 0x2
 6434 149a 91       		.byte	0x91
 6435 149b 6C       		.sleb128 -20
 6436 149c 28       		.uleb128 0x28
 6437 149d 6F757400 		.ascii	"out\000"
 6438 14a1 04       		.byte	0x4
 6439 14a2 2302     		.2byte	0x223
 6440 14a4 54010000 		.4byte	0x154
 6441 14a8 02       		.uleb128 0x2
 6442 14a9 91       		.byte	0x91
 6443 14aa 68       		.sleb128 -24
 6444 14ab 2B       		.uleb128 0x2b
 6445 14ac 26050000 		.4byte	.LASF291
 6446 14b0 04       		.byte	0x4
 6447 14b1 2302     		.2byte	0x223
 6448 14b3 E6080000 		.4byte	0x8e6
 6449 14b7 02       		.uleb128 0x2
 6450 14b8 91       		.byte	0x91
 6451 14b9 66       		.sleb128 -26
 6452 14ba 29       		.uleb128 0x29
 6453 14bb 0D010000 		.4byte	.LASF292
 6454 14bf E9140000 		.4byte	0x14e9
 6455 14c3 05       		.uleb128 0x5
 6456 14c4 03       		.byte	0x3
 6457 14c5 00000000 		.4byte	__func__.9238
 6458 14c9 2C       		.uleb128 0x2c
 6459 14ca 6C656E00 		.ascii	"len\000"
 6460 14ce 04       		.byte	0x4
 6461 14cf 2802     		.2byte	0x228
 6462 14d1 E6080000 		.4byte	0x8e6
 6463 14d5 02       		.uleb128 0x2
 6464 14d6 91       		.byte	0x91
 6465 14d7 72       		.sleb128 -14
 6466 14d8 00       		.byte	0
 6467 14d9 0A       		.uleb128 0xa
 6468 14da 61010000 		.4byte	0x161
 6469 14de E9140000 		.4byte	0x14e9
 6470 14e2 0B       		.uleb128 0xb
 6471 14e3 37000000 		.4byte	0x37
 6472 14e7 15       		.byte	0x15
 6473 14e8 00       		.byte	0
 6474 14e9 0F       		.uleb128 0xf
 6475 14ea D9140000 		.4byte	0x14d9
 6476 14ee 2A       		.uleb128 0x2a
 6477 14ef DA050000 		.4byte	.LASF294
 6478 14f3 04       		.byte	0x4
 6479 14f4 1D02     		.2byte	0x21d
 6480 14f6 E6080000 		.4byte	0x8e6
 6481 14fa 00000000 		.4byte	.LFB294
 6482 14fe 44000000 		.4byte	.LFE294-.LFB294
 6483 1502 01       		.uleb128 0x1
 6484 1503 9C       		.byte	0x9c
 6485 1504 34150000 		.4byte	0x1534
ARM GAS  C:\Users\PCHAUT~1\AppData\Local\Temp\ccxXBCq6.s 			page 116


 6486 1508 28       		.uleb128 0x28
 6487 1509 7000     		.ascii	"p\000"
 6488 150b 04       		.byte	0x4
 6489 150c 1D02     		.2byte	0x21d
 6490 150e FB090000 		.4byte	0x9fb
 6491 1512 02       		.uleb128 0x2
 6492 1513 91       		.byte	0x91
 6493 1514 6C       		.sleb128 -20
 6494 1515 28       		.uleb128 0x28
 6495 1516 6F757400 		.ascii	"out\000"
 6496 151a 04       		.byte	0x4
 6497 151b 1D02     		.2byte	0x21d
 6498 151d 54010000 		.4byte	0x154
 6499 1521 02       		.uleb128 0x2
 6500 1522 91       		.byte	0x91
 6501 1523 68       		.sleb128 -24
 6502 1524 2B       		.uleb128 0x2b
 6503 1525 26050000 		.4byte	.LASF291
 6504 1529 04       		.byte	0x4
 6505 152a 1D02     		.2byte	0x21d
 6506 152c E6080000 		.4byte	0x8e6
 6507 1530 02       		.uleb128 0x2
 6508 1531 91       		.byte	0x91
 6509 1532 66       		.sleb128 -26
 6510 1533 00       		.byte	0
 6511 1534 2A       		.uleb128 0x2a
 6512 1535 770E0000 		.4byte	.LASF295
 6513 1539 04       		.byte	0x4
 6514 153a 1702     		.2byte	0x217
 6515 153c E6080000 		.4byte	0x8e6
 6516 1540 00000000 		.4byte	.LFB293
 6517 1544 40000000 		.4byte	.LFE293-.LFB293
 6518 1548 01       		.uleb128 0x1
 6519 1549 9C       		.byte	0x9c
 6520 154a 6B150000 		.4byte	0x156b
 6521 154e 28       		.uleb128 0x28
 6522 154f 7000     		.ascii	"p\000"
 6523 1551 04       		.byte	0x4
 6524 1552 1702     		.2byte	0x217
 6525 1554 FB090000 		.4byte	0x9fb
 6526 1558 02       		.uleb128 0x2
 6527 1559 91       		.byte	0x91
 6528 155a 6C       		.sleb128 -20
 6529 155b 29       		.uleb128 0x29
 6530 155c 0D010000 		.4byte	.LASF292
 6531 1560 7B150000 		.4byte	0x157b
 6532 1564 05       		.uleb128 0x5
 6533 1565 03       		.byte	0x3
 6534 1566 00000000 		.4byte	__func__.9227
 6535 156a 00       		.byte	0
 6536 156b 0A       		.uleb128 0xa
 6537 156c 61010000 		.4byte	0x161
 6538 1570 7B150000 		.4byte	0x157b
 6539 1574 0B       		.uleb128 0xb
 6540 1575 37000000 		.4byte	0x37
 6541 1579 18       		.byte	0x18
 6542 157a 00       		.byte	0
ARM GAS  C:\Users\PCHAUT~1\AppData\Local\Temp\ccxXBCq6.s 			page 117


 6543 157b 0F       		.uleb128 0xf
 6544 157c 6B150000 		.4byte	0x156b
 6545 1580 27       		.uleb128 0x27
 6546 1581 6E000000 		.4byte	.LASF296
 6547 1585 04       		.byte	0x4
 6548 1586 0902     		.2byte	0x209
 6549 1588 00000000 		.4byte	.LFB292
 6550 158c 84000000 		.4byte	.LFE292-.LFB292
 6551 1590 01       		.uleb128 0x1
 6552 1591 9C       		.byte	0x9c
 6553 1592 FC150000 		.4byte	0x15fc
 6554 1596 28       		.uleb128 0x28
 6555 1597 7000     		.ascii	"p\000"
 6556 1599 04       		.byte	0x4
 6557 159a 0902     		.2byte	0x209
 6558 159c FB090000 		.4byte	0x9fb
 6559 15a0 02       		.uleb128 0x2
 6560 15a1 91       		.byte	0x91
 6561 15a2 6C       		.sleb128 -20
 6562 15a3 28       		.uleb128 0x28
 6563 15a4 6E7300   		.ascii	"ns\000"
 6564 15a7 04       		.byte	0x4
 6565 15a8 0A02     		.2byte	0x20a
 6566 15aa F5090000 		.4byte	0x9f5
 6567 15ae 02       		.uleb128 0x2
 6568 15af 91       		.byte	0x91
 6569 15b0 68       		.sleb128 -24
 6570 15b1 28       		.uleb128 0x28
 6571 15b2 696400   		.ascii	"id\000"
 6572 15b5 04       		.byte	0x4
 6573 15b6 0B02     		.2byte	0x20b
 6574 15b8 D2050000 		.4byte	0x5d2
 6575 15bc 02       		.uleb128 0x2
 6576 15bd 91       		.byte	0x91
 6577 15be 64       		.sleb128 -28
 6578 15bf 28       		.uleb128 0x28
 6579 15c0 62756600 		.ascii	"buf\000"
 6580 15c4 04       		.byte	0x4
 6581 15c5 0C02     		.2byte	0x20c
 6582 15c7 54010000 		.4byte	0x154
 6583 15cb 02       		.uleb128 0x2
 6584 15cc 91       		.byte	0x91
 6585 15cd 60       		.sleb128 -32
 6586 15ce 2B       		.uleb128 0x2b
 6587 15cf 44070000 		.4byte	.LASF297
 6588 15d3 04       		.byte	0x4
 6589 15d4 0D02     		.2byte	0x20d
 6590 15d6 E6080000 		.4byte	0x8e6
 6591 15da 02       		.uleb128 0x2
 6592 15db 91       		.byte	0x91
 6593 15dc 5E       		.sleb128 -34
 6594 15dd 2B       		.uleb128 0x2b
 6595 15de 3F0C0000 		.4byte	.LASF298
 6596 15e2 04       		.byte	0x4
 6597 15e3 0E02     		.2byte	0x20e
 6598 15e5 D2050000 		.4byte	0x5d2
 6599 15e9 02       		.uleb128 0x2
ARM GAS  C:\Users\PCHAUT~1\AppData\Local\Temp\ccxXBCq6.s 			page 118


 6600 15ea 91       		.byte	0x91
 6601 15eb 58       		.sleb128 -40
 6602 15ec 29       		.uleb128 0x29
 6603 15ed 0D010000 		.4byte	.LASF292
 6604 15f1 0C160000 		.4byte	0x160c
 6605 15f5 05       		.uleb128 0x5
 6606 15f6 03       		.byte	0x3
 6607 15f7 00000000 		.4byte	__func__.9223
 6608 15fb 00       		.byte	0
 6609 15fc 0A       		.uleb128 0xa
 6610 15fd 61010000 		.4byte	0x161
 6611 1601 0C160000 		.4byte	0x160c
 6612 1605 0B       		.uleb128 0xb
 6613 1606 37000000 		.4byte	0x37
 6614 160a 25       		.byte	0x25
 6615 160b 00       		.byte	0
 6616 160c 0F       		.uleb128 0xf
 6617 160d FC150000 		.4byte	0x15fc
 6618 1611 27       		.uleb128 0x27
 6619 1612 D50E0000 		.4byte	.LASF299
 6620 1616 04       		.byte	0x4
 6621 1617 FD01     		.2byte	0x1fd
 6622 1619 00000000 		.4byte	.LFB291
 6623 161d 54000000 		.4byte	.LFE291-.LFB291
 6624 1621 01       		.uleb128 0x1
 6625 1622 9C       		.byte	0x9c
 6626 1623 6F160000 		.4byte	0x166f
 6627 1627 28       		.uleb128 0x28
 6628 1628 7000     		.ascii	"p\000"
 6629 162a 04       		.byte	0x4
 6630 162b FD01     		.2byte	0x1fd
 6631 162d FB090000 		.4byte	0x9fb
 6632 1631 02       		.uleb128 0x2
 6633 1632 91       		.byte	0x91
 6634 1633 6C       		.sleb128 -20
 6635 1634 28       		.uleb128 0x28
 6636 1635 6E7300   		.ascii	"ns\000"
 6637 1638 04       		.byte	0x4
 6638 1639 FE01     		.2byte	0x1fe
 6639 163b F5090000 		.4byte	0x9f5
 6640 163f 02       		.uleb128 0x2
 6641 1640 91       		.byte	0x91
 6642 1641 68       		.sleb128 -24
 6643 1642 28       		.uleb128 0x28
 6644 1643 696400   		.ascii	"id\000"
 6645 1646 04       		.byte	0x4
 6646 1647 FF01     		.2byte	0x1ff
 6647 1649 D2050000 		.4byte	0x5d2
 6648 164d 02       		.uleb128 0x2
 6649 164e 91       		.byte	0x91
 6650 164f 64       		.sleb128 -28
 6651 1650 28       		.uleb128 0x28
 6652 1651 62756600 		.ascii	"buf\000"
 6653 1655 04       		.byte	0x4
 6654 1656 0002     		.2byte	0x200
 6655 1658 54010000 		.4byte	0x154
 6656 165c 02       		.uleb128 0x2
ARM GAS  C:\Users\PCHAUT~1\AppData\Local\Temp\ccxXBCq6.s 			page 119


 6657 165d 91       		.byte	0x91
 6658 165e 60       		.sleb128 -32
 6659 165f 2B       		.uleb128 0x2b
 6660 1660 44070000 		.4byte	.LASF297
 6661 1664 04       		.byte	0x4
 6662 1665 0102     		.2byte	0x201
 6663 1667 E6080000 		.4byte	0x8e6
 6664 166b 02       		.uleb128 0x2
 6665 166c 91       		.byte	0x91
 6666 166d 5E       		.sleb128 -34
 6667 166e 00       		.byte	0
 6668 166f 27       		.uleb128 0x27
 6669 1670 660C0000 		.4byte	.LASF300
 6670 1674 04       		.byte	0x4
 6671 1675 EA01     		.2byte	0x1ea
 6672 1677 00000000 		.4byte	.LFB290
 6673 167b 94000000 		.4byte	.LFE290-.LFB290
 6674 167f 01       		.uleb128 0x1
 6675 1680 9C       		.byte	0x9c
 6676 1681 CB160000 		.4byte	0x16cb
 6677 1685 28       		.uleb128 0x28
 6678 1686 7000     		.ascii	"p\000"
 6679 1688 04       		.byte	0x4
 6680 1689 EA01     		.2byte	0x1ea
 6681 168b FB090000 		.4byte	0x9fb
 6682 168f 02       		.uleb128 0x2
 6683 1690 91       		.byte	0x91
 6684 1691 6C       		.sleb128 -20
 6685 1692 28       		.uleb128 0x28
 6686 1693 7600     		.ascii	"v\000"
 6687 1695 04       		.byte	0x4
 6688 1696 EA01     		.2byte	0x1ea
 6689 1698 CB160000 		.4byte	0x16cb
 6690 169c 02       		.uleb128 0x2
 6691 169d 91       		.byte	0x91
 6692 169e 68       		.sleb128 -24
 6693 169f 28       		.uleb128 0x28
 6694 16a0 64696D00 		.ascii	"dim\000"
 6695 16a4 04       		.byte	0x4
 6696 16a5 EA01     		.2byte	0x1ea
 6697 16a7 E6080000 		.4byte	0x8e6
 6698 16ab 02       		.uleb128 0x2
 6699 16ac 91       		.byte	0x91
 6700 16ad 66       		.sleb128 -26
 6701 16ae 29       		.uleb128 0x29
 6702 16af 0D010000 		.4byte	.LASF292
 6703 16b3 E1160000 		.4byte	0x16e1
 6704 16b7 05       		.uleb128 0x5
 6705 16b8 03       		.byte	0x3
 6706 16b9 00000000 		.4byte	__func__.9203
 6707 16bd 2C       		.uleb128 0x2c
 6708 16be 6900     		.ascii	"i\000"
 6709 16c0 04       		.byte	0x4
 6710 16c1 EF01     		.2byte	0x1ef
 6711 16c3 25000000 		.4byte	0x25
 6712 16c7 02       		.uleb128 0x2
 6713 16c8 91       		.byte	0x91
ARM GAS  C:\Users\PCHAUT~1\AppData\Local\Temp\ccxXBCq6.s 			page 120


 6714 16c9 70       		.sleb128 -16
 6715 16ca 00       		.byte	0
 6716 16cb 05       		.uleb128 0x5
 6717 16cc 04       		.byte	0x4
 6718 16cd 700A0000 		.4byte	0xa70
 6719 16d1 0A       		.uleb128 0xa
 6720 16d2 61010000 		.4byte	0x161
 6721 16d6 E1160000 		.4byte	0x16e1
 6722 16da 0B       		.uleb128 0xb
 6723 16db 37000000 		.4byte	0x37
 6724 16df 1D       		.byte	0x1d
 6725 16e0 00       		.byte	0
 6726 16e1 0F       		.uleb128 0xf
 6727 16e2 D1160000 		.4byte	0x16d1
 6728 16e6 2A       		.uleb128 0x2a
 6729 16e7 BE0B0000 		.4byte	.LASF301
 6730 16eb 04       		.byte	0x4
 6731 16ec DC01     		.2byte	0x1dc
 6732 16ee E6080000 		.4byte	0x8e6
 6733 16f2 00000000 		.4byte	.LFB289
 6734 16f6 90000000 		.4byte	.LFE289-.LFB289
 6735 16fa 01       		.uleb128 0x1
 6736 16fb 9C       		.byte	0x9c
 6737 16fc 48170000 		.4byte	0x1748
 6738 1700 28       		.uleb128 0x28
 6739 1701 7000     		.ascii	"p\000"
 6740 1703 04       		.byte	0x4
 6741 1704 DC01     		.2byte	0x1dc
 6742 1706 FB090000 		.4byte	0x9fb
 6743 170a 02       		.uleb128 0x2
 6744 170b 91       		.byte	0x91
 6745 170c 64       		.sleb128 -28
 6746 170d 28       		.uleb128 0x28
 6747 170e 6F757400 		.ascii	"out\000"
 6748 1712 04       		.byte	0x4
 6749 1713 DC01     		.2byte	0x1dc
 6750 1715 630A0000 		.4byte	0xa63
 6751 1719 02       		.uleb128 0x2
 6752 171a 91       		.byte	0x91
 6753 171b 60       		.sleb128 -32
 6754 171c 29       		.uleb128 0x29
 6755 171d 0D010000 		.4byte	.LASF292
 6756 1721 58170000 		.4byte	0x1758
 6757 1725 05       		.uleb128 0x5
 6758 1726 03       		.byte	0x3
 6759 1727 00000000 		.4byte	__func__.9192
 6760 172b 2C       		.uleb128 0x2c
 6761 172c 6900     		.ascii	"i\000"
 6762 172e 04       		.byte	0x4
 6763 172f E101     		.2byte	0x1e1
 6764 1731 25000000 		.4byte	0x25
 6765 1735 02       		.uleb128 0x2
 6766 1736 91       		.byte	0x91
 6767 1737 70       		.sleb128 -16
 6768 1738 2C       		.uleb128 0x2c
 6769 1739 72657400 		.ascii	"ret\000"
 6770 173d 04       		.byte	0x4
ARM GAS  C:\Users\PCHAUT~1\AppData\Local\Temp\ccxXBCq6.s 			page 121


 6771 173e E501     		.2byte	0x1e5
 6772 1740 E6080000 		.4byte	0x8e6
 6773 1744 02       		.uleb128 0x2
 6774 1745 91       		.byte	0x91
 6775 1746 6E       		.sleb128 -18
 6776 1747 00       		.byte	0
 6777 1748 0A       		.uleb128 0xa
 6778 1749 61010000 		.4byte	0x161
 6779 174d 58170000 		.4byte	0x1758
 6780 1751 0B       		.uleb128 0xb
 6781 1752 37000000 		.4byte	0x37
 6782 1756 1E       		.byte	0x1e
 6783 1757 00       		.byte	0
 6784 1758 0F       		.uleb128 0xf
 6785 1759 48170000 		.4byte	0x1748
 6786 175d 2A       		.uleb128 0x2a
 6787 175e 9B030000 		.4byte	.LASF302
 6788 1762 04       		.byte	0x4
 6789 1763 D601     		.2byte	0x1d6
 6790 1765 E6080000 		.4byte	0x8e6
 6791 1769 00000000 		.4byte	.LFB288
 6792 176d 38000000 		.4byte	.LFE288-.LFB288
 6793 1771 01       		.uleb128 0x1
 6794 1772 9C       		.byte	0x9c
 6795 1773 94170000 		.4byte	0x1794
 6796 1777 28       		.uleb128 0x28
 6797 1778 7000     		.ascii	"p\000"
 6798 177a 04       		.byte	0x4
 6799 177b D601     		.2byte	0x1d6
 6800 177d FB090000 		.4byte	0x9fb
 6801 1781 02       		.uleb128 0x2
 6802 1782 91       		.byte	0x91
 6803 1783 6C       		.sleb128 -20
 6804 1784 28       		.uleb128 0x28
 6805 1785 6F757400 		.ascii	"out\000"
 6806 1789 04       		.byte	0x4
 6807 178a D601     		.2byte	0x1d6
 6808 178c 630A0000 		.4byte	0xa63
 6809 1790 02       		.uleb128 0x2
 6810 1791 91       		.byte	0x91
 6811 1792 68       		.sleb128 -24
 6812 1793 00       		.byte	0
 6813 1794 2A       		.uleb128 0x2a
 6814 1795 70030000 		.4byte	.LASF303
 6815 1799 04       		.byte	0x4
 6816 179a D001     		.2byte	0x1d0
 6817 179c E6080000 		.4byte	0x8e6
 6818 17a0 00000000 		.4byte	.LFB287
 6819 17a4 3C000000 		.4byte	.LFE287-.LFB287
 6820 17a8 01       		.uleb128 0x1
 6821 17a9 9C       		.byte	0x9c
 6822 17aa CB170000 		.4byte	0x17cb
 6823 17ae 28       		.uleb128 0x28
 6824 17af 7000     		.ascii	"p\000"
 6825 17b1 04       		.byte	0x4
 6826 17b2 D001     		.2byte	0x1d0
 6827 17b4 FB090000 		.4byte	0x9fb
ARM GAS  C:\Users\PCHAUT~1\AppData\Local\Temp\ccxXBCq6.s 			page 122


 6828 17b8 02       		.uleb128 0x2
 6829 17b9 91       		.byte	0x91
 6830 17ba 6C       		.sleb128 -20
 6831 17bb 29       		.uleb128 0x29
 6832 17bc 0D010000 		.4byte	.LASF292
 6833 17c0 DB170000 		.4byte	0x17db
 6834 17c4 05       		.uleb128 0x5
 6835 17c5 03       		.byte	0x3
 6836 17c6 00000000 		.4byte	__func__.9183
 6837 17ca 00       		.byte	0
 6838 17cb 0A       		.uleb128 0xa
 6839 17cc 61010000 		.4byte	0x161
 6840 17d0 DB170000 		.4byte	0x17db
 6841 17d4 0B       		.uleb128 0xb
 6842 17d5 37000000 		.4byte	0x37
 6843 17d9 21       		.byte	0x21
 6844 17da 00       		.byte	0
 6845 17db 0F       		.uleb128 0xf
 6846 17dc CB170000 		.4byte	0x17cb
 6847 17e0 27       		.uleb128 0x27
 6848 17e1 39040000 		.4byte	.LASF304
 6849 17e5 04       		.byte	0x4
 6850 17e6 C301     		.2byte	0x1c3
 6851 17e8 00000000 		.4byte	.LFB286
 6852 17ec 74000000 		.4byte	.LFE286-.LFB286
 6853 17f0 01       		.uleb128 0x1
 6854 17f1 9C       		.byte	0x9c
 6855 17f2 5C180000 		.4byte	0x185c
 6856 17f6 28       		.uleb128 0x28
 6857 17f7 7000     		.ascii	"p\000"
 6858 17f9 04       		.byte	0x4
 6859 17fa C301     		.2byte	0x1c3
 6860 17fc FB090000 		.4byte	0x9fb
 6861 1800 02       		.uleb128 0x2
 6862 1801 91       		.byte	0x91
 6863 1802 6C       		.sleb128 -20
 6864 1803 28       		.uleb128 0x28
 6865 1804 6E7300   		.ascii	"ns\000"
 6866 1807 04       		.byte	0x4
 6867 1808 C401     		.2byte	0x1c4
 6868 180a F5090000 		.4byte	0x9f5
 6869 180e 02       		.uleb128 0x2
 6870 180f 91       		.byte	0x91
 6871 1810 68       		.sleb128 -24
 6872 1811 28       		.uleb128 0x28
 6873 1812 696400   		.ascii	"id\000"
 6874 1815 04       		.byte	0x4
 6875 1816 C501     		.2byte	0x1c5
 6876 1818 D2050000 		.4byte	0x5d2
 6877 181c 02       		.uleb128 0x2
 6878 181d 91       		.byte	0x91
 6879 181e 64       		.sleb128 -28
 6880 181f 28       		.uleb128 0x28
 6881 1820 62756600 		.ascii	"buf\000"
 6882 1824 04       		.byte	0x4
 6883 1825 C601     		.2byte	0x1c6
 6884 1827 630A0000 		.4byte	0xa63
ARM GAS  C:\Users\PCHAUT~1\AppData\Local\Temp\ccxXBCq6.s 			page 123


 6885 182b 02       		.uleb128 0x2
 6886 182c 91       		.byte	0x91
 6887 182d 60       		.sleb128 -32
 6888 182e 2B       		.uleb128 0x2b
 6889 182f 44070000 		.4byte	.LASF297
 6890 1833 04       		.byte	0x4
 6891 1834 C701     		.2byte	0x1c7
 6892 1836 E6080000 		.4byte	0x8e6
 6893 183a 02       		.uleb128 0x2
 6894 183b 91       		.byte	0x91
 6895 183c 5E       		.sleb128 -34
 6896 183d 2B       		.uleb128 0x2b
 6897 183e D2040000 		.4byte	.LASF305
 6898 1842 04       		.byte	0x4
 6899 1843 C801     		.2byte	0x1c8
 6900 1845 E6080000 		.4byte	0x8e6
 6901 1849 02       		.uleb128 0x2
 6902 184a 91       		.byte	0x91
 6903 184b 5C       		.sleb128 -36
 6904 184c 29       		.uleb128 0x29
 6905 184d 0D010000 		.4byte	.LASF292
 6906 1851 6C180000 		.4byte	0x186c
 6907 1855 05       		.uleb128 0x5
 6908 1856 03       		.byte	0x3
 6909 1857 00000000 		.4byte	__func__.9179
 6910 185b 00       		.byte	0
 6911 185c 0A       		.uleb128 0xa
 6912 185d 61010000 		.4byte	0x161
 6913 1861 6C180000 		.4byte	0x186c
 6914 1865 0B       		.uleb128 0xb
 6915 1866 37000000 		.4byte	0x37
 6916 186a 2E       		.byte	0x2e
 6917 186b 00       		.byte	0
 6918 186c 0F       		.uleb128 0xf
 6919 186d 5C180000 		.4byte	0x185c
 6920 1871 27       		.uleb128 0x27
 6921 1872 C5110000 		.4byte	.LASF306
 6922 1876 04       		.byte	0x4
 6923 1877 B701     		.2byte	0x1b7
 6924 1879 00000000 		.4byte	.LFB285
 6925 187d 54000000 		.4byte	.LFE285-.LFB285
 6926 1881 01       		.uleb128 0x1
 6927 1882 9C       		.byte	0x9c
 6928 1883 CF180000 		.4byte	0x18cf
 6929 1887 28       		.uleb128 0x28
 6930 1888 7000     		.ascii	"p\000"
 6931 188a 04       		.byte	0x4
 6932 188b B701     		.2byte	0x1b7
 6933 188d FB090000 		.4byte	0x9fb
 6934 1891 02       		.uleb128 0x2
 6935 1892 91       		.byte	0x91
 6936 1893 6C       		.sleb128 -20
 6937 1894 28       		.uleb128 0x28
 6938 1895 6E7300   		.ascii	"ns\000"
 6939 1898 04       		.byte	0x4
 6940 1899 B801     		.2byte	0x1b8
 6941 189b F5090000 		.4byte	0x9f5
ARM GAS  C:\Users\PCHAUT~1\AppData\Local\Temp\ccxXBCq6.s 			page 124


 6942 189f 02       		.uleb128 0x2
 6943 18a0 91       		.byte	0x91
 6944 18a1 68       		.sleb128 -24
 6945 18a2 28       		.uleb128 0x28
 6946 18a3 696400   		.ascii	"id\000"
 6947 18a6 04       		.byte	0x4
 6948 18a7 B901     		.2byte	0x1b9
 6949 18a9 D2050000 		.4byte	0x5d2
 6950 18ad 02       		.uleb128 0x2
 6951 18ae 91       		.byte	0x91
 6952 18af 64       		.sleb128 -28
 6953 18b0 28       		.uleb128 0x28
 6954 18b1 62756600 		.ascii	"buf\000"
 6955 18b5 04       		.byte	0x4
 6956 18b6 BA01     		.2byte	0x1ba
 6957 18b8 630A0000 		.4byte	0xa63
 6958 18bc 02       		.uleb128 0x2
 6959 18bd 91       		.byte	0x91
 6960 18be 60       		.sleb128 -32
 6961 18bf 2B       		.uleb128 0x2b
 6962 18c0 44070000 		.4byte	.LASF297
 6963 18c4 04       		.byte	0x4
 6964 18c5 BB01     		.2byte	0x1bb
 6965 18c7 E6080000 		.4byte	0x8e6
 6966 18cb 02       		.uleb128 0x2
 6967 18cc 91       		.byte	0x91
 6968 18cd 5E       		.sleb128 -34
 6969 18ce 00       		.byte	0
 6970 18cf 27       		.uleb128 0x27
 6971 18d0 63080000 		.4byte	.LASF307
 6972 18d4 04       		.byte	0x4
 6973 18d5 A601     		.2byte	0x1a6
 6974 18d7 00000000 		.4byte	.LFB284
 6975 18db 78000000 		.4byte	.LFE284-.LFB284
 6976 18df 01       		.uleb128 0x1
 6977 18e0 9C       		.byte	0x9c
 6978 18e1 1C190000 		.4byte	0x191c
 6979 18e5 28       		.uleb128 0x28
 6980 18e6 7000     		.ascii	"p\000"
 6981 18e8 04       		.byte	0x4
 6982 18e9 A601     		.2byte	0x1a6
 6983 18eb FB090000 		.4byte	0x9fb
 6984 18ef 02       		.uleb128 0x2
 6985 18f0 91       		.byte	0x91
 6986 18f1 6C       		.sleb128 -20
 6987 18f2 28       		.uleb128 0x28
 6988 18f3 7600     		.ascii	"v\000"
 6989 18f5 04       		.byte	0x4
 6990 18f6 A601     		.2byte	0x1a6
 6991 18f8 CB160000 		.4byte	0x16cb
 6992 18fc 02       		.uleb128 0x2
 6993 18fd 91       		.byte	0x91
 6994 18fe 68       		.sleb128 -24
 6995 18ff 29       		.uleb128 0x29
 6996 1900 0D010000 		.4byte	.LASF292
 6997 1904 2C190000 		.4byte	0x192c
 6998 1908 05       		.uleb128 0x5
ARM GAS  C:\Users\PCHAUT~1\AppData\Local\Temp\ccxXBCq6.s 			page 125


 6999 1909 03       		.byte	0x3
 7000 190a 00000000 		.4byte	__func__.9159
 7001 190e 2C       		.uleb128 0x2c
 7002 190f 6900     		.ascii	"i\000"
 7003 1911 04       		.byte	0x4
 7004 1912 AA01     		.2byte	0x1aa
 7005 1914 25000000 		.4byte	0x25
 7006 1918 02       		.uleb128 0x2
 7007 1919 91       		.byte	0x91
 7008 191a 70       		.sleb128 -16
 7009 191b 00       		.byte	0
 7010 191c 0A       		.uleb128 0xa
 7011 191d 61010000 		.4byte	0x161
 7012 1921 2C190000 		.4byte	0x192c
 7013 1925 0B       		.uleb128 0xb
 7014 1926 37000000 		.4byte	0x37
 7015 192a 14       		.byte	0x14
 7016 192b 00       		.byte	0
 7017 192c 0F       		.uleb128 0xf
 7018 192d 1C190000 		.4byte	0x191c
 7019 1931 27       		.uleb128 0x27
 7020 1932 450B0000 		.4byte	.LASF308
 7021 1936 04       		.byte	0x4
 7022 1937 9A01     		.2byte	0x19a
 7023 1939 00000000 		.4byte	.LFB283
 7024 193d 84000000 		.4byte	.LFE283-.LFB283
 7025 1941 01       		.uleb128 0x1
 7026 1942 9C       		.byte	0x9c
 7027 1943 80190000 		.4byte	0x1980
 7028 1947 28       		.uleb128 0x28
 7029 1948 7000     		.ascii	"p\000"
 7030 194a 04       		.byte	0x4
 7031 194b 9A01     		.2byte	0x19a
 7032 194d FB090000 		.4byte	0x9fb
 7033 1951 02       		.uleb128 0x2
 7034 1952 91       		.byte	0x91
 7035 1953 6C       		.sleb128 -20
 7036 1954 28       		.uleb128 0x28
 7037 1955 6F757400 		.ascii	"out\000"
 7038 1959 04       		.byte	0x4
 7039 195a 9A01     		.2byte	0x19a
 7040 195c 630A0000 		.4byte	0xa63
 7041 1960 02       		.uleb128 0x2
 7042 1961 91       		.byte	0x91
 7043 1962 68       		.sleb128 -24
 7044 1963 29       		.uleb128 0x29
 7045 1964 0D010000 		.4byte	.LASF292
 7046 1968 E9140000 		.4byte	0x14e9
 7047 196c 05       		.uleb128 0x5
 7048 196d 03       		.byte	0x3
 7049 196e 00000000 		.4byte	__func__.9150
 7050 1972 2C       		.uleb128 0x2c
 7051 1973 6900     		.ascii	"i\000"
 7052 1975 04       		.byte	0x4
 7053 1976 9F01     		.2byte	0x19f
 7054 1978 25000000 		.4byte	0x25
 7055 197c 02       		.uleb128 0x2
ARM GAS  C:\Users\PCHAUT~1\AppData\Local\Temp\ccxXBCq6.s 			page 126


 7056 197d 91       		.byte	0x91
 7057 197e 70       		.sleb128 -16
 7058 197f 00       		.byte	0
 7059 1980 27       		.uleb128 0x27
 7060 1981 B4010000 		.4byte	.LASF309
 7061 1985 04       		.byte	0x4
 7062 1986 9401     		.2byte	0x194
 7063 1988 00000000 		.4byte	.LFB282
 7064 198c 38000000 		.4byte	.LFE282-.LFB282
 7065 1990 01       		.uleb128 0x1
 7066 1991 9C       		.byte	0x9c
 7067 1992 B3190000 		.4byte	0x19b3
 7068 1996 28       		.uleb128 0x28
 7069 1997 7000     		.ascii	"p\000"
 7070 1999 04       		.byte	0x4
 7071 199a 9401     		.2byte	0x194
 7072 199c FB090000 		.4byte	0x9fb
 7073 19a0 02       		.uleb128 0x2
 7074 19a1 91       		.byte	0x91
 7075 19a2 6C       		.sleb128 -20
 7076 19a3 28       		.uleb128 0x28
 7077 19a4 6F757400 		.ascii	"out\000"
 7078 19a8 04       		.byte	0x4
 7079 19a9 9401     		.2byte	0x194
 7080 19ab 630A0000 		.4byte	0xa63
 7081 19af 02       		.uleb128 0x2
 7082 19b0 91       		.byte	0x91
 7083 19b1 68       		.sleb128 -24
 7084 19b2 00       		.byte	0
 7085 19b3 2A       		.uleb128 0x2a
 7086 19b4 7B0B0000 		.4byte	.LASF310
 7087 19b8 04       		.byte	0x4
 7088 19b9 8E01     		.2byte	0x18e
 7089 19bb E6080000 		.4byte	0x8e6
 7090 19bf 00000000 		.4byte	.LFB281
 7091 19c3 3C000000 		.4byte	.LFE281-.LFB281
 7092 19c7 01       		.uleb128 0x1
 7093 19c8 9C       		.byte	0x9c
 7094 19c9 EA190000 		.4byte	0x19ea
 7095 19cd 28       		.uleb128 0x28
 7096 19ce 7000     		.ascii	"p\000"
 7097 19d0 04       		.byte	0x4
 7098 19d1 8E01     		.2byte	0x18e
 7099 19d3 FB090000 		.4byte	0x9fb
 7100 19d7 02       		.uleb128 0x2
 7101 19d8 91       		.byte	0x91
 7102 19d9 6C       		.sleb128 -20
 7103 19da 29       		.uleb128 0x29
 7104 19db 0D010000 		.4byte	.LASF292
 7105 19df 2C190000 		.4byte	0x192c
 7106 19e3 05       		.uleb128 0x5
 7107 19e4 03       		.byte	0x3
 7108 19e5 00000000 		.4byte	__func__.9141
 7109 19e9 00       		.byte	0
 7110 19ea 27       		.uleb128 0x27
 7111 19eb EB040000 		.4byte	.LASF311
 7112 19ef 04       		.byte	0x4
ARM GAS  C:\Users\PCHAUT~1\AppData\Local\Temp\ccxXBCq6.s 			page 127


 7113 19f0 8401     		.2byte	0x184
 7114 19f2 00000000 		.4byte	.LFB280
 7115 19f6 4C000000 		.4byte	.LFE280-.LFB280
 7116 19fa 01       		.uleb128 0x1
 7117 19fb 9C       		.byte	0x9c
 7118 19fc 481A0000 		.4byte	0x1a48
 7119 1a00 28       		.uleb128 0x28
 7120 1a01 7000     		.ascii	"p\000"
 7121 1a03 04       		.byte	0x4
 7122 1a04 8401     		.2byte	0x184
 7123 1a06 FB090000 		.4byte	0x9fb
 7124 1a0a 02       		.uleb128 0x2
 7125 1a0b 91       		.byte	0x91
 7126 1a0c 6C       		.sleb128 -20
 7127 1a0d 28       		.uleb128 0x28
 7128 1a0e 6E7300   		.ascii	"ns\000"
 7129 1a11 04       		.byte	0x4
 7130 1a12 8501     		.2byte	0x185
 7131 1a14 F5090000 		.4byte	0x9f5
 7132 1a18 02       		.uleb128 0x2
 7133 1a19 91       		.byte	0x91
 7134 1a1a 68       		.sleb128 -24
 7135 1a1b 28       		.uleb128 0x28
 7136 1a1c 696400   		.ascii	"id\000"
 7137 1a1f 04       		.byte	0x4
 7138 1a20 8601     		.2byte	0x186
 7139 1a22 D2050000 		.4byte	0x5d2
 7140 1a26 02       		.uleb128 0x2
 7141 1a27 91       		.byte	0x91
 7142 1a28 64       		.sleb128 -28
 7143 1a29 28       		.uleb128 0x28
 7144 1a2a 62756600 		.ascii	"buf\000"
 7145 1a2e 04       		.byte	0x4
 7146 1a2f 8701     		.2byte	0x187
 7147 1a31 630A0000 		.4byte	0xa63
 7148 1a35 02       		.uleb128 0x2
 7149 1a36 91       		.byte	0x91
 7150 1a37 60       		.sleb128 -32
 7151 1a38 28       		.uleb128 0x28
 7152 1a39 64696D00 		.ascii	"dim\000"
 7153 1a3d 04       		.byte	0x4
 7154 1a3e 8801     		.2byte	0x188
 7155 1a40 E6080000 		.4byte	0x8e6
 7156 1a44 02       		.uleb128 0x2
 7157 1a45 91       		.byte	0x91
 7158 1a46 5E       		.sleb128 -34
 7159 1a47 00       		.byte	0
 7160 1a48 27       		.uleb128 0x27
 7161 1a49 C20D0000 		.4byte	.LASF312
 7162 1a4d 04       		.byte	0x4
 7163 1a4e 7B01     		.2byte	0x17b
 7164 1a50 00000000 		.4byte	.LFB279
 7165 1a54 54000000 		.4byte	.LFE279-.LFB279
 7166 1a58 01       		.uleb128 0x1
 7167 1a59 9C       		.byte	0x9c
 7168 1a5a A61A0000 		.4byte	0x1aa6
 7169 1a5e 28       		.uleb128 0x28
ARM GAS  C:\Users\PCHAUT~1\AppData\Local\Temp\ccxXBCq6.s 			page 128


 7170 1a5f 7000     		.ascii	"p\000"
 7171 1a61 04       		.byte	0x4
 7172 1a62 7B01     		.2byte	0x17b
 7173 1a64 FB090000 		.4byte	0x9fb
 7174 1a68 02       		.uleb128 0x2
 7175 1a69 91       		.byte	0x91
 7176 1a6a 6C       		.sleb128 -20
 7177 1a6b 28       		.uleb128 0x28
 7178 1a6c 6E7300   		.ascii	"ns\000"
 7179 1a6f 04       		.byte	0x4
 7180 1a70 7B01     		.2byte	0x17b
 7181 1a72 F5090000 		.4byte	0x9f5
 7182 1a76 02       		.uleb128 0x2
 7183 1a77 91       		.byte	0x91
 7184 1a78 68       		.sleb128 -24
 7185 1a79 28       		.uleb128 0x28
 7186 1a7a 696400   		.ascii	"id\000"
 7187 1a7d 04       		.byte	0x4
 7188 1a7e 7C01     		.2byte	0x17c
 7189 1a80 D2050000 		.4byte	0x5d2
 7190 1a84 02       		.uleb128 0x2
 7191 1a85 91       		.byte	0x91
 7192 1a86 64       		.sleb128 -28
 7193 1a87 28       		.uleb128 0x28
 7194 1a88 62756600 		.ascii	"buf\000"
 7195 1a8c 04       		.byte	0x4
 7196 1a8d 7C01     		.2byte	0x17c
 7197 1a8f 630A0000 		.4byte	0xa63
 7198 1a93 02       		.uleb128 0x2
 7199 1a94 91       		.byte	0x91
 7200 1a95 60       		.sleb128 -32
 7201 1a96 28       		.uleb128 0x28
 7202 1a97 64696D00 		.ascii	"dim\000"
 7203 1a9b 04       		.byte	0x4
 7204 1a9c 7C01     		.2byte	0x17c
 7205 1a9e E6080000 		.4byte	0x8e6
 7206 1aa2 02       		.uleb128 0x2
 7207 1aa3 91       		.byte	0x91
 7208 1aa4 5E       		.sleb128 -34
 7209 1aa5 00       		.byte	0
 7210 1aa6 2A       		.uleb128 0x2a
 7211 1aa7 96060000 		.4byte	.LASF313
 7212 1aab 04       		.byte	0x4
 7213 1aac 6C01     		.2byte	0x16c
 7214 1aae E70A0000 		.4byte	0xae7
 7215 1ab2 00000000 		.4byte	.LFB278
 7216 1ab6 60000000 		.4byte	.LFE278-.LFB278
 7217 1aba 01       		.uleb128 0x1
 7218 1abb 9C       		.byte	0x9c
 7219 1abc EC1A0000 		.4byte	0x1aec
 7220 1ac0 28       		.uleb128 0x28
 7221 1ac1 7000     		.ascii	"p\000"
 7222 1ac3 04       		.byte	0x4
 7223 1ac4 6C01     		.2byte	0x16c
 7224 1ac6 FB090000 		.4byte	0x9fb
 7225 1aca 02       		.uleb128 0x2
 7226 1acb 91       		.byte	0x91
ARM GAS  C:\Users\PCHAUT~1\AppData\Local\Temp\ccxXBCq6.s 			page 129


 7227 1acc 6C       		.sleb128 -20
 7228 1acd 29       		.uleb128 0x29
 7229 1ace 0D010000 		.4byte	.LASF292
 7230 1ad2 FC1A0000 		.4byte	0x1afc
 7231 1ad6 05       		.uleb128 0x5
 7232 1ad7 03       		.byte	0x3
 7233 1ad8 00000000 		.4byte	__func__.9122
 7234 1adc 2C       		.uleb128 0x2c
 7235 1add 72657400 		.ascii	"ret\000"
 7236 1ae1 04       		.byte	0x4
 7237 1ae2 7101     		.2byte	0x171
 7238 1ae4 E70A0000 		.4byte	0xae7
 7239 1ae8 02       		.uleb128 0x2
 7240 1ae9 91       		.byte	0x91
 7241 1aea 73       		.sleb128 -13
 7242 1aeb 00       		.byte	0
 7243 1aec 0A       		.uleb128 0xa
 7244 1aed 61010000 		.4byte	0x161
 7245 1af1 FC1A0000 		.4byte	0x1afc
 7246 1af5 0B       		.uleb128 0xb
 7247 1af6 37000000 		.4byte	0x37
 7248 1afa 16       		.byte	0x16
 7249 1afb 00       		.byte	0
 7250 1afc 0F       		.uleb128 0xf
 7251 1afd EC1A0000 		.4byte	0x1aec
 7252 1b01 2A       		.uleb128 0x2a
 7253 1b02 F70D0000 		.4byte	.LASF314
 7254 1b06 04       		.byte	0x4
 7255 1b07 6601     		.2byte	0x166
 7256 1b09 E70A0000 		.4byte	0xae7
 7257 1b0d 00000000 		.4byte	.LFB277
 7258 1b11 34000000 		.4byte	.LFE277-.LFB277
 7259 1b15 01       		.uleb128 0x1
 7260 1b16 9C       		.byte	0x9c
 7261 1b17 291B0000 		.4byte	0x1b29
 7262 1b1b 28       		.uleb128 0x28
 7263 1b1c 7000     		.ascii	"p\000"
 7264 1b1e 04       		.byte	0x4
 7265 1b1f 6601     		.2byte	0x166
 7266 1b21 FB090000 		.4byte	0x9fb
 7267 1b25 02       		.uleb128 0x2
 7268 1b26 91       		.byte	0x91
 7269 1b27 6C       		.sleb128 -20
 7270 1b28 00       		.byte	0
 7271 1b29 27       		.uleb128 0x27
 7272 1b2a 73050000 		.4byte	.LASF315
 7273 1b2e 04       		.byte	0x4
 7274 1b2f 5C01     		.2byte	0x15c
 7275 1b31 00000000 		.4byte	.LFB276
 7276 1b35 54000000 		.4byte	.LFE276-.LFB276
 7277 1b39 01       		.uleb128 0x1
 7278 1b3a 9C       		.byte	0x9c
 7279 1b3b 6B1B0000 		.4byte	0x1b6b
 7280 1b3f 28       		.uleb128 0x28
 7281 1b40 7000     		.ascii	"p\000"
 7282 1b42 04       		.byte	0x4
 7283 1b43 5C01     		.2byte	0x15c
ARM GAS  C:\Users\PCHAUT~1\AppData\Local\Temp\ccxXBCq6.s 			page 130


 7284 1b45 FB090000 		.4byte	0x9fb
 7285 1b49 02       		.uleb128 0x2
 7286 1b4a 91       		.byte	0x91
 7287 1b4b 6C       		.sleb128 -20
 7288 1b4c 2B       		.uleb128 0x2b
 7289 1b4d 3B050000 		.4byte	.LASF145
 7290 1b51 04       		.byte	0x4
 7291 1b52 5C01     		.2byte	0x15c
 7292 1b54 E70A0000 		.4byte	0xae7
 7293 1b58 02       		.uleb128 0x2
 7294 1b59 91       		.byte	0x91
 7295 1b5a 6B       		.sleb128 -21
 7296 1b5b 29       		.uleb128 0x29
 7297 1b5c 0D010000 		.4byte	.LASF292
 7298 1b60 E9140000 		.4byte	0x14e9
 7299 1b64 05       		.uleb128 0x5
 7300 1b65 03       		.byte	0x3
 7301 1b66 00000000 		.4byte	__func__.9115
 7302 1b6a 00       		.byte	0
 7303 1b6b 27       		.uleb128 0x27
 7304 1b6c EC010000 		.4byte	.LASF316
 7305 1b70 04       		.byte	0x4
 7306 1b71 5101     		.2byte	0x151
 7307 1b73 00000000 		.4byte	.LFB275
 7308 1b77 4C000000 		.4byte	.LFE275-.LFB275
 7309 1b7b 01       		.uleb128 0x1
 7310 1b7c 9C       		.byte	0x9c
 7311 1b7d BA1B0000 		.4byte	0x1bba
 7312 1b81 28       		.uleb128 0x28
 7313 1b82 7000     		.ascii	"p\000"
 7314 1b84 04       		.byte	0x4
 7315 1b85 5101     		.2byte	0x151
 7316 1b87 FB090000 		.4byte	0x9fb
 7317 1b8b 02       		.uleb128 0x2
 7318 1b8c 91       		.byte	0x91
 7319 1b8d 6C       		.sleb128 -20
 7320 1b8e 28       		.uleb128 0x28
 7321 1b8f 6E7300   		.ascii	"ns\000"
 7322 1b92 04       		.byte	0x4
 7323 1b93 5201     		.2byte	0x152
 7324 1b95 F5090000 		.4byte	0x9f5
 7325 1b99 02       		.uleb128 0x2
 7326 1b9a 91       		.byte	0x91
 7327 1b9b 68       		.sleb128 -24
 7328 1b9c 28       		.uleb128 0x28
 7329 1b9d 696400   		.ascii	"id\000"
 7330 1ba0 04       		.byte	0x4
 7331 1ba1 5301     		.2byte	0x153
 7332 1ba3 D2050000 		.4byte	0x5d2
 7333 1ba7 02       		.uleb128 0x2
 7334 1ba8 91       		.byte	0x91
 7335 1ba9 64       		.sleb128 -28
 7336 1baa 2B       		.uleb128 0x2b
 7337 1bab AA0B0000 		.4byte	.LASF317
 7338 1baf 04       		.byte	0x4
 7339 1bb0 5401     		.2byte	0x154
 7340 1bb2 E70A0000 		.4byte	0xae7
ARM GAS  C:\Users\PCHAUT~1\AppData\Local\Temp\ccxXBCq6.s 			page 131


 7341 1bb6 02       		.uleb128 0x2
 7342 1bb7 91       		.byte	0x91
 7343 1bb8 63       		.sleb128 -29
 7344 1bb9 00       		.byte	0
 7345 1bba 27       		.uleb128 0x27
 7346 1bbb 8F070000 		.4byte	.LASF318
 7347 1bbf 04       		.byte	0x4
 7348 1bc0 4B01     		.2byte	0x14b
 7349 1bc2 00000000 		.4byte	.LFB274
 7350 1bc6 3C000000 		.4byte	.LFE274-.LFB274
 7351 1bca 01       		.uleb128 0x1
 7352 1bcb 9C       		.byte	0x9c
 7353 1bcc FA1B0000 		.4byte	0x1bfa
 7354 1bd0 28       		.uleb128 0x28
 7355 1bd1 7000     		.ascii	"p\000"
 7356 1bd3 04       		.byte	0x4
 7357 1bd4 4B01     		.2byte	0x14b
 7358 1bd6 FB090000 		.4byte	0x9fb
 7359 1bda 02       		.uleb128 0x2
 7360 1bdb 91       		.byte	0x91
 7361 1bdc 6C       		.sleb128 -20
 7362 1bdd 28       		.uleb128 0x28
 7363 1bde 6E7300   		.ascii	"ns\000"
 7364 1be1 04       		.byte	0x4
 7365 1be2 4B01     		.2byte	0x14b
 7366 1be4 F5090000 		.4byte	0x9f5
 7367 1be8 02       		.uleb128 0x2
 7368 1be9 91       		.byte	0x91
 7369 1bea 68       		.sleb128 -24
 7370 1beb 28       		.uleb128 0x28
 7371 1bec 696400   		.ascii	"id\000"
 7372 1bef 04       		.byte	0x4
 7373 1bf0 4B01     		.2byte	0x14b
 7374 1bf2 D2050000 		.4byte	0x5d2
 7375 1bf6 02       		.uleb128 0x2
 7376 1bf7 91       		.byte	0x91
 7377 1bf8 64       		.sleb128 -28
 7378 1bf9 00       		.byte	0
 7379 1bfa 27       		.uleb128 0x27
 7380 1bfb 93100000 		.4byte	.LASF319
 7381 1bff 04       		.byte	0x4
 7382 1c00 4001     		.2byte	0x140
 7383 1c02 00000000 		.4byte	.LFB273
 7384 1c06 50000000 		.4byte	.LFE273-.LFB273
 7385 1c0a 01       		.uleb128 0x1
 7386 1c0b 9C       		.byte	0x9c
 7387 1c0c 3C1C0000 		.4byte	0x1c3c
 7388 1c10 28       		.uleb128 0x28
 7389 1c11 7000     		.ascii	"p\000"
 7390 1c13 04       		.byte	0x4
 7391 1c14 4001     		.2byte	0x140
 7392 1c16 FB090000 		.4byte	0x9fb
 7393 1c1a 02       		.uleb128 0x2
 7394 1c1b 91       		.byte	0x91
 7395 1c1c 6C       		.sleb128 -20
 7396 1c1d 2B       		.uleb128 0x2b
 7397 1c1e 3B050000 		.4byte	.LASF145
ARM GAS  C:\Users\PCHAUT~1\AppData\Local\Temp\ccxXBCq6.s 			page 132


 7398 1c22 04       		.byte	0x4
 7399 1c23 4001     		.2byte	0x140
 7400 1c25 F1080000 		.4byte	0x8f1
 7401 1c29 02       		.uleb128 0x2
 7402 1c2a 91       		.byte	0x91
 7403 1c2b 68       		.sleb128 -24
 7404 1c2c 29       		.uleb128 0x29
 7405 1c2d 0D010000 		.4byte	.LASF292
 7406 1c31 E9140000 		.4byte	0x14e9
 7407 1c35 05       		.uleb128 0x5
 7408 1c36 03       		.byte	0x3
 7409 1c37 00000000 		.4byte	__func__.9099
 7410 1c3b 00       		.byte	0
 7411 1c3c 2A       		.uleb128 0x2a
 7412 1c3d FF0B0000 		.4byte	.LASF320
 7413 1c41 04       		.byte	0x4
 7414 1c42 3601     		.2byte	0x136
 7415 1c44 F1080000 		.4byte	0x8f1
 7416 1c48 00000000 		.4byte	.LFB272
 7417 1c4c 5C000000 		.4byte	.LFE272-.LFB272
 7418 1c50 01       		.uleb128 0x1
 7419 1c51 9C       		.byte	0x9c
 7420 1c52 821C0000 		.4byte	0x1c82
 7421 1c56 28       		.uleb128 0x28
 7422 1c57 7000     		.ascii	"p\000"
 7423 1c59 04       		.byte	0x4
 7424 1c5a 3601     		.2byte	0x136
 7425 1c5c FB090000 		.4byte	0x9fb
 7426 1c60 02       		.uleb128 0x2
 7427 1c61 91       		.byte	0x91
 7428 1c62 6C       		.sleb128 -20
 7429 1c63 29       		.uleb128 0x29
 7430 1c64 0D010000 		.4byte	.LASF292
 7431 1c68 FC1A0000 		.4byte	0x1afc
 7432 1c6c 05       		.uleb128 0x5
 7433 1c6d 03       		.byte	0x3
 7434 1c6e 00000000 		.4byte	__func__.9093
 7435 1c72 2C       		.uleb128 0x2c
 7436 1c73 72657400 		.ascii	"ret\000"
 7437 1c77 04       		.byte	0x4
 7438 1c78 3B01     		.2byte	0x13b
 7439 1c7a F1080000 		.4byte	0x8f1
 7440 1c7e 02       		.uleb128 0x2
 7441 1c7f 91       		.byte	0x91
 7442 1c80 70       		.sleb128 -16
 7443 1c81 00       		.byte	0
 7444 1c82 2A       		.uleb128 0x2a
 7445 1c83 35100000 		.4byte	.LASF321
 7446 1c87 04       		.byte	0x4
 7447 1c88 3001     		.2byte	0x130
 7448 1c8a F1080000 		.4byte	0x8f1
 7449 1c8e 00000000 		.4byte	.LFB271
 7450 1c92 34000000 		.4byte	.LFE271-.LFB271
 7451 1c96 01       		.uleb128 0x1
 7452 1c97 9C       		.byte	0x9c
 7453 1c98 AA1C0000 		.4byte	0x1caa
 7454 1c9c 28       		.uleb128 0x28
ARM GAS  C:\Users\PCHAUT~1\AppData\Local\Temp\ccxXBCq6.s 			page 133


 7455 1c9d 7000     		.ascii	"p\000"
 7456 1c9f 04       		.byte	0x4
 7457 1ca0 3001     		.2byte	0x130
 7458 1ca2 FB090000 		.4byte	0x9fb
 7459 1ca6 02       		.uleb128 0x2
 7460 1ca7 91       		.byte	0x91
 7461 1ca8 6C       		.sleb128 -20
 7462 1ca9 00       		.byte	0
 7463 1caa 27       		.uleb128 0x27
 7464 1cab B3100000 		.4byte	.LASF322
 7465 1caf 04       		.byte	0x4
 7466 1cb0 2501     		.2byte	0x125
 7467 1cb2 00000000 		.4byte	.LFB270
 7468 1cb6 48000000 		.4byte	.LFE270-.LFB270
 7469 1cba 01       		.uleb128 0x1
 7470 1cbb 9C       		.byte	0x9c
 7471 1cbc F91C0000 		.4byte	0x1cf9
 7472 1cc0 28       		.uleb128 0x28
 7473 1cc1 7000     		.ascii	"p\000"
 7474 1cc3 04       		.byte	0x4
 7475 1cc4 2501     		.2byte	0x125
 7476 1cc6 FB090000 		.4byte	0x9fb
 7477 1cca 02       		.uleb128 0x2
 7478 1ccb 91       		.byte	0x91
 7479 1ccc 6C       		.sleb128 -20
 7480 1ccd 28       		.uleb128 0x28
 7481 1cce 6E7300   		.ascii	"ns\000"
 7482 1cd1 04       		.byte	0x4
 7483 1cd2 2601     		.2byte	0x126
 7484 1cd4 F5090000 		.4byte	0x9f5
 7485 1cd8 02       		.uleb128 0x2
 7486 1cd9 91       		.byte	0x91
 7487 1cda 68       		.sleb128 -24
 7488 1cdb 28       		.uleb128 0x28
 7489 1cdc 696400   		.ascii	"id\000"
 7490 1cdf 04       		.byte	0x4
 7491 1ce0 2701     		.2byte	0x127
 7492 1ce2 D2050000 		.4byte	0x5d2
 7493 1ce6 02       		.uleb128 0x2
 7494 1ce7 91       		.byte	0x91
 7495 1ce8 64       		.sleb128 -28
 7496 1ce9 2B       		.uleb128 0x2b
 7497 1cea AA0B0000 		.4byte	.LASF317
 7498 1cee 04       		.byte	0x4
 7499 1cef 2801     		.2byte	0x128
 7500 1cf1 F1080000 		.4byte	0x8f1
 7501 1cf5 02       		.uleb128 0x2
 7502 1cf6 91       		.byte	0x91
 7503 1cf7 60       		.sleb128 -32
 7504 1cf8 00       		.byte	0
 7505 1cf9 27       		.uleb128 0x27
 7506 1cfa 79100000 		.4byte	.LASF323
 7507 1cfe 04       		.byte	0x4
 7508 1cff 1E01     		.2byte	0x11e
 7509 1d01 00000000 		.4byte	.LFB269
 7510 1d05 3C000000 		.4byte	.LFE269-.LFB269
 7511 1d09 01       		.uleb128 0x1
ARM GAS  C:\Users\PCHAUT~1\AppData\Local\Temp\ccxXBCq6.s 			page 134


 7512 1d0a 9C       		.byte	0x9c
 7513 1d0b 391D0000 		.4byte	0x1d39
 7514 1d0f 28       		.uleb128 0x28
 7515 1d10 7000     		.ascii	"p\000"
 7516 1d12 04       		.byte	0x4
 7517 1d13 1E01     		.2byte	0x11e
 7518 1d15 FB090000 		.4byte	0x9fb
 7519 1d19 02       		.uleb128 0x2
 7520 1d1a 91       		.byte	0x91
 7521 1d1b 6C       		.sleb128 -20
 7522 1d1c 28       		.uleb128 0x28
 7523 1d1d 6E7300   		.ascii	"ns\000"
 7524 1d20 04       		.byte	0x4
 7525 1d21 1E01     		.2byte	0x11e
 7526 1d23 F5090000 		.4byte	0x9f5
 7527 1d27 02       		.uleb128 0x2
 7528 1d28 91       		.byte	0x91
 7529 1d29 68       		.sleb128 -24
 7530 1d2a 28       		.uleb128 0x28
 7531 1d2b 696400   		.ascii	"id\000"
 7532 1d2e 04       		.byte	0x4
 7533 1d2f 1F01     		.2byte	0x11f
 7534 1d31 D2050000 		.4byte	0x5d2
 7535 1d35 02       		.uleb128 0x2
 7536 1d36 91       		.byte	0x91
 7537 1d37 64       		.sleb128 -28
 7538 1d38 00       		.byte	0
 7539 1d39 27       		.uleb128 0x27
 7540 1d3a F90C0000 		.4byte	.LASF324
 7541 1d3e 04       		.byte	0x4
 7542 1d3f 1001     		.2byte	0x110
 7543 1d41 00000000 		.4byte	.LFB268
 7544 1d45 50000000 		.4byte	.LFE268-.LFB268
 7545 1d49 01       		.uleb128 0x1
 7546 1d4a 9C       		.byte	0x9c
 7547 1d4b 7B1D0000 		.4byte	0x1d7b
 7548 1d4f 28       		.uleb128 0x28
 7549 1d50 7000     		.ascii	"p\000"
 7550 1d52 04       		.byte	0x4
 7551 1d53 1001     		.2byte	0x110
 7552 1d55 FB090000 		.4byte	0x9fb
 7553 1d59 02       		.uleb128 0x2
 7554 1d5a 91       		.byte	0x91
 7555 1d5b 6C       		.sleb128 -20
 7556 1d5c 2B       		.uleb128 0x2b
 7557 1d5d 3B050000 		.4byte	.LASF145
 7558 1d61 04       		.byte	0x4
 7559 1d62 1001     		.2byte	0x110
 7560 1d64 690A0000 		.4byte	0xa69
 7561 1d68 02       		.uleb128 0x2
 7562 1d69 91       		.byte	0x91
 7563 1d6a 68       		.sleb128 -24
 7564 1d6b 29       		.uleb128 0x29
 7565 1d6c 0D010000 		.4byte	.LASF292
 7566 1d70 2C190000 		.4byte	0x192c
 7567 1d74 05       		.uleb128 0x5
 7568 1d75 03       		.byte	0x3
ARM GAS  C:\Users\PCHAUT~1\AppData\Local\Temp\ccxXBCq6.s 			page 135


 7569 1d76 00000000 		.4byte	__func__.9075
 7570 1d7a 00       		.byte	0
 7571 1d7b 2A       		.uleb128 0x2a
 7572 1d7c 87080000 		.4byte	.LASF325
 7573 1d80 04       		.byte	0x4
 7574 1d81 0601     		.2byte	0x106
 7575 1d83 690A0000 		.4byte	0xa69
 7576 1d87 00000000 		.4byte	.LFB267
 7577 1d8b 64000000 		.4byte	.LFE267-.LFB267
 7578 1d8f 01       		.uleb128 0x1
 7579 1d90 9C       		.byte	0x9c
 7580 1d91 C11D0000 		.4byte	0x1dc1
 7581 1d95 28       		.uleb128 0x28
 7582 1d96 7000     		.ascii	"p\000"
 7583 1d98 04       		.byte	0x4
 7584 1d99 0601     		.2byte	0x106
 7585 1d9b FB090000 		.4byte	0x9fb
 7586 1d9f 02       		.uleb128 0x2
 7587 1da0 91       		.byte	0x91
 7588 1da1 6C       		.sleb128 -20
 7589 1da2 29       		.uleb128 0x29
 7590 1da3 0D010000 		.4byte	.LASF292
 7591 1da7 E9140000 		.4byte	0x14e9
 7592 1dab 05       		.uleb128 0x5
 7593 1dac 03       		.byte	0x3
 7594 1dad 00000000 		.4byte	__func__.9069
 7595 1db1 2C       		.uleb128 0x2c
 7596 1db2 72657400 		.ascii	"ret\000"
 7597 1db6 04       		.byte	0x4
 7598 1db7 0B01     		.2byte	0x10b
 7599 1db9 690A0000 		.4byte	0xa69
 7600 1dbd 02       		.uleb128 0x2
 7601 1dbe 91       		.byte	0x91
 7602 1dbf 70       		.sleb128 -16
 7603 1dc0 00       		.byte	0
 7604 1dc1 2A       		.uleb128 0x2a
 7605 1dc2 11050000 		.4byte	.LASF326
 7606 1dc6 04       		.byte	0x4
 7607 1dc7 0001     		.2byte	0x100
 7608 1dc9 690A0000 		.4byte	0xa69
 7609 1dcd 00000000 		.4byte	.LFB266
 7610 1dd1 38000000 		.4byte	.LFE266-.LFB266
 7611 1dd5 01       		.uleb128 0x1
 7612 1dd6 9C       		.byte	0x9c
 7613 1dd7 E91D0000 		.4byte	0x1de9
 7614 1ddb 28       		.uleb128 0x28
 7615 1ddc 7000     		.ascii	"p\000"
 7616 1dde 04       		.byte	0x4
 7617 1ddf 0001     		.2byte	0x100
 7618 1de1 FB090000 		.4byte	0x9fb
 7619 1de5 02       		.uleb128 0x2
 7620 1de6 91       		.byte	0x91
 7621 1de7 6C       		.sleb128 -20
 7622 1de8 00       		.byte	0
 7623 1de9 2D       		.uleb128 0x2d
 7624 1dea 2D010000 		.4byte	.LASF327
 7625 1dee 04       		.byte	0x4
ARM GAS  C:\Users\PCHAUT~1\AppData\Local\Temp\ccxXBCq6.s 			page 136


 7626 1def F5       		.byte	0xf5
 7627 1df0 00000000 		.4byte	.LFB265
 7628 1df4 4C000000 		.4byte	.LFE265-.LFB265
 7629 1df8 01       		.uleb128 0x1
 7630 1df9 9C       		.byte	0x9c
 7631 1dfa 331E0000 		.4byte	0x1e33
 7632 1dfe 2E       		.uleb128 0x2e
 7633 1dff 7000     		.ascii	"p\000"
 7634 1e01 04       		.byte	0x4
 7635 1e02 F5       		.byte	0xf5
 7636 1e03 FB090000 		.4byte	0x9fb
 7637 1e07 02       		.uleb128 0x2
 7638 1e08 91       		.byte	0x91
 7639 1e09 6C       		.sleb128 -20
 7640 1e0a 2E       		.uleb128 0x2e
 7641 1e0b 6E7300   		.ascii	"ns\000"
 7642 1e0e 04       		.byte	0x4
 7643 1e0f F6       		.byte	0xf6
 7644 1e10 F5090000 		.4byte	0x9f5
 7645 1e14 02       		.uleb128 0x2
 7646 1e15 91       		.byte	0x91
 7647 1e16 68       		.sleb128 -24
 7648 1e17 2E       		.uleb128 0x2e
 7649 1e18 696400   		.ascii	"id\000"
 7650 1e1b 04       		.byte	0x4
 7651 1e1c F7       		.byte	0xf7
 7652 1e1d D2050000 		.4byte	0x5d2
 7653 1e21 02       		.uleb128 0x2
 7654 1e22 91       		.byte	0x91
 7655 1e23 64       		.sleb128 -28
 7656 1e24 2F       		.uleb128 0x2f
 7657 1e25 AA0B0000 		.4byte	.LASF317
 7658 1e29 04       		.byte	0x4
 7659 1e2a F8       		.byte	0xf8
 7660 1e2b 690A0000 		.4byte	0xa69
 7661 1e2f 02       		.uleb128 0x2
 7662 1e30 91       		.byte	0x91
 7663 1e31 60       		.sleb128 -32
 7664 1e32 00       		.byte	0
 7665 1e33 2D       		.uleb128 0x2d
 7666 1e34 9B010000 		.4byte	.LASF328
 7667 1e38 04       		.byte	0x4
 7668 1e39 EE       		.byte	0xee
 7669 1e3a 00000000 		.4byte	.LFB264
 7670 1e3e 3C000000 		.4byte	.LFE264-.LFB264
 7671 1e42 01       		.uleb128 0x1
 7672 1e43 9C       		.byte	0x9c
 7673 1e44 6F1E0000 		.4byte	0x1e6f
 7674 1e48 2E       		.uleb128 0x2e
 7675 1e49 7000     		.ascii	"p\000"
 7676 1e4b 04       		.byte	0x4
 7677 1e4c EE       		.byte	0xee
 7678 1e4d FB090000 		.4byte	0x9fb
 7679 1e51 02       		.uleb128 0x2
 7680 1e52 91       		.byte	0x91
 7681 1e53 6C       		.sleb128 -20
 7682 1e54 2E       		.uleb128 0x2e
ARM GAS  C:\Users\PCHAUT~1\AppData\Local\Temp\ccxXBCq6.s 			page 137


 7683 1e55 6E7300   		.ascii	"ns\000"
 7684 1e58 04       		.byte	0x4
 7685 1e59 EE       		.byte	0xee
 7686 1e5a F5090000 		.4byte	0x9f5
 7687 1e5e 02       		.uleb128 0x2
 7688 1e5f 91       		.byte	0x91
 7689 1e60 68       		.sleb128 -24
 7690 1e61 2E       		.uleb128 0x2e
 7691 1e62 696400   		.ascii	"id\000"
 7692 1e65 04       		.byte	0x4
 7693 1e66 EF       		.byte	0xef
 7694 1e67 D2050000 		.4byte	0x5d2
 7695 1e6b 02       		.uleb128 0x2
 7696 1e6c 91       		.byte	0x91
 7697 1e6d 64       		.sleb128 -28
 7698 1e6e 00       		.byte	0
 7699 1e6f 2D       		.uleb128 0x2d
 7700 1e70 FB100000 		.4byte	.LASF329
 7701 1e74 04       		.byte	0x4
 7702 1e75 D6       		.byte	0xd6
 7703 1e76 00000000 		.4byte	.LFB263
 7704 1e7a 74000000 		.4byte	.LFE263-.LFB263
 7705 1e7e 01       		.uleb128 0x1
 7706 1e7f 9C       		.byte	0x9c
 7707 1e80 AC1E0000 		.4byte	0x1eac
 7708 1e84 2E       		.uleb128 0x2e
 7709 1e85 7000     		.ascii	"p\000"
 7710 1e87 04       		.byte	0x4
 7711 1e88 D6       		.byte	0xd6
 7712 1e89 FB090000 		.4byte	0x9fb
 7713 1e8d 02       		.uleb128 0x2
 7714 1e8e 91       		.byte	0x91
 7715 1e8f 64       		.sleb128 -28
 7716 1e90 30       		.uleb128 0x30
 7717 1e91 400D0000 		.4byte	.LASF330
 7718 1e95 04       		.byte	0x4
 7719 1e96 D9       		.byte	0xd9
 7720 1e97 E70A0000 		.4byte	0xae7
 7721 1e9b 02       		.uleb128 0x2
 7722 1e9c 91       		.byte	0x91
 7723 1e9d 6F       		.sleb128 -17
 7724 1e9e 31       		.uleb128 0x31
 7725 1e9f 6E7300   		.ascii	"ns\000"
 7726 1ea2 04       		.byte	0x4
 7727 1ea3 E1       		.byte	0xe1
 7728 1ea4 F5090000 		.4byte	0x9f5
 7729 1ea8 02       		.uleb128 0x2
 7730 1ea9 91       		.byte	0x91
 7731 1eaa 70       		.sleb128 -16
 7732 1eab 00       		.byte	0
 7733 1eac 2D       		.uleb128 0x2d
 7734 1ead 2D070000 		.4byte	.LASF331
 7735 1eb1 04       		.byte	0x4
 7736 1eb2 C1       		.byte	0xc1
 7737 1eb3 00000000 		.4byte	.LFB262
 7738 1eb7 74000000 		.4byte	.LFE262-.LFB262
 7739 1ebb 01       		.uleb128 0x1
ARM GAS  C:\Users\PCHAUT~1\AppData\Local\Temp\ccxXBCq6.s 			page 138


 7740 1ebc 9C       		.byte	0x9c
 7741 1ebd E91E0000 		.4byte	0x1ee9
 7742 1ec1 2E       		.uleb128 0x2e
 7743 1ec2 7000     		.ascii	"p\000"
 7744 1ec4 04       		.byte	0x4
 7745 1ec5 C1       		.byte	0xc1
 7746 1ec6 FB090000 		.4byte	0x9fb
 7747 1eca 02       		.uleb128 0x2
 7748 1ecb 91       		.byte	0x91
 7749 1ecc 64       		.sleb128 -28
 7750 1ecd 30       		.uleb128 0x30
 7751 1ece 400D0000 		.4byte	.LASF330
 7752 1ed2 04       		.byte	0x4
 7753 1ed3 C4       		.byte	0xc4
 7754 1ed4 E70A0000 		.4byte	0xae7
 7755 1ed8 02       		.uleb128 0x2
 7756 1ed9 91       		.byte	0x91
 7757 1eda 6F       		.sleb128 -17
 7758 1edb 31       		.uleb128 0x31
 7759 1edc 6E7300   		.ascii	"ns\000"
 7760 1edf 04       		.byte	0x4
 7761 1ee0 CC       		.byte	0xcc
 7762 1ee1 F5090000 		.4byte	0x9f5
 7763 1ee5 02       		.uleb128 0x2
 7764 1ee6 91       		.byte	0x91
 7765 1ee7 70       		.sleb128 -16
 7766 1ee8 00       		.byte	0
 7767 1ee9 32       		.uleb128 0x32
 7768 1eea 9B0F0000 		.4byte	.LASF332
 7769 1eee 04       		.byte	0x4
 7770 1eef B6       		.byte	0xb6
 7771 1ef0 E70A0000 		.4byte	0xae7
 7772 1ef4 00000000 		.4byte	.LFB261
 7773 1ef8 44000000 		.4byte	.LFE261-.LFB261
 7774 1efc 01       		.uleb128 0x1
 7775 1efd 9C       		.byte	0x9c
 7776 1efe 1D1F0000 		.4byte	0x1f1d
 7777 1f02 2E       		.uleb128 0x2e
 7778 1f03 7000     		.ascii	"p\000"
 7779 1f05 04       		.byte	0x4
 7780 1f06 B6       		.byte	0xb6
 7781 1f07 1D1F0000 		.4byte	0x1f1d
 7782 1f0b 02       		.uleb128 0x2
 7783 1f0c 91       		.byte	0x91
 7784 1f0d 6C       		.sleb128 -20
 7785 1f0e 30       		.uleb128 0x30
 7786 1f0f 1C000000 		.4byte	.LASF143
 7787 1f13 04       		.byte	0x4
 7788 1f14 BC       		.byte	0xbc
 7789 1f15 E70A0000 		.4byte	0xae7
 7790 1f19 02       		.uleb128 0x2
 7791 1f1a 91       		.byte	0x91
 7792 1f1b 73       		.sleb128 -13
 7793 1f1c 00       		.byte	0
 7794 1f1d 05       		.uleb128 0x5
 7795 1f1e 04       		.byte	0x4
 7796 1f1f 91090000 		.4byte	0x991
ARM GAS  C:\Users\PCHAUT~1\AppData\Local\Temp\ccxXBCq6.s 			page 139


 7797 1f23 32       		.uleb128 0x32
 7798 1f24 D90F0000 		.4byte	.LASF333
 7799 1f28 04       		.byte	0x4
 7800 1f29 AE       		.byte	0xae
 7801 1f2a E70A0000 		.4byte	0xae7
 7802 1f2e 00000000 		.4byte	.LFB260
 7803 1f32 3C000000 		.4byte	.LFE260-.LFB260
 7804 1f36 01       		.uleb128 0x1
 7805 1f37 9C       		.byte	0x9c
 7806 1f38 571F0000 		.4byte	0x1f57
 7807 1f3c 2E       		.uleb128 0x2e
 7808 1f3d 7000     		.ascii	"p\000"
 7809 1f3f 04       		.byte	0x4
 7810 1f40 AE       		.byte	0xae
 7811 1f41 1D1F0000 		.4byte	0x1f1d
 7812 1f45 02       		.uleb128 0x2
 7813 1f46 91       		.byte	0x91
 7814 1f47 6C       		.sleb128 -20
 7815 1f48 30       		.uleb128 0x30
 7816 1f49 48000000 		.4byte	.LASF142
 7817 1f4d 04       		.byte	0x4
 7818 1f4e B1       		.byte	0xb1
 7819 1f4f E70A0000 		.4byte	0xae7
 7820 1f53 02       		.uleb128 0x2
 7821 1f54 91       		.byte	0x91
 7822 1f55 73       		.sleb128 -13
 7823 1f56 00       		.byte	0
 7824 1f57 32       		.uleb128 0x32
 7825 1f58 68040000 		.4byte	.LASF334
 7826 1f5c 04       		.byte	0x4
 7827 1f5d A6       		.byte	0xa6
 7828 1f5e E70A0000 		.4byte	0xae7
 7829 1f62 00000000 		.4byte	.LFB259
 7830 1f66 40000000 		.4byte	.LFE259-.LFB259
 7831 1f6a 01       		.uleb128 0x1
 7832 1f6b 9C       		.byte	0x9c
 7833 1f6c 8C1F0000 		.4byte	0x1f8c
 7834 1f70 2E       		.uleb128 0x2e
 7835 1f71 6E7300   		.ascii	"ns\000"
 7836 1f74 04       		.byte	0x4
 7837 1f75 A6       		.byte	0xa6
 7838 1f76 8C1F0000 		.4byte	0x1f8c
 7839 1f7a 02       		.uleb128 0x2
 7840 1f7b 91       		.byte	0x91
 7841 1f7c 6C       		.sleb128 -20
 7842 1f7d 30       		.uleb128 0x30
 7843 1f7e D50C0000 		.4byte	.LASF135
 7844 1f82 04       		.byte	0x4
 7845 1f83 A9       		.byte	0xa9
 7846 1f84 01090000 		.4byte	0x901
 7847 1f88 02       		.uleb128 0x2
 7848 1f89 91       		.byte	0x91
 7849 1f8a 70       		.sleb128 -16
 7850 1f8b 00       		.byte	0
 7851 1f8c 05       		.uleb128 0x5
 7852 1f8d 04       		.byte	0x4
 7853 1f8e 2D090000 		.4byte	0x92d
ARM GAS  C:\Users\PCHAUT~1\AppData\Local\Temp\ccxXBCq6.s 			page 140


 7854 1f92 2D       		.uleb128 0x2d
 7855 1f93 0D0F0000 		.4byte	.LASF335
 7856 1f97 04       		.byte	0x4
 7857 1f98 98       		.byte	0x98
 7858 1f99 00000000 		.4byte	.LFB258
 7859 1f9d 5C000000 		.4byte	.LFE258-.LFB258
 7860 1fa1 01       		.uleb128 0x1
 7861 1fa2 9C       		.byte	0x9c
 7862 1fa3 CE1F0000 		.4byte	0x1fce
 7863 1fa7 2E       		.uleb128 0x2e
 7864 1fa8 7000     		.ascii	"p\000"
 7865 1faa 04       		.byte	0x4
 7866 1fab 98       		.byte	0x98
 7867 1fac FB090000 		.4byte	0x9fb
 7868 1fb0 02       		.uleb128 0x2
 7869 1fb1 91       		.byte	0x91
 7870 1fb2 6C       		.sleb128 -20
 7871 1fb3 2E       		.uleb128 0x2e
 7872 1fb4 6E7300   		.ascii	"ns\000"
 7873 1fb7 04       		.byte	0x4
 7874 1fb8 98       		.byte	0x98
 7875 1fb9 F5090000 		.4byte	0x9f5
 7876 1fbd 02       		.uleb128 0x2
 7877 1fbe 91       		.byte	0x91
 7878 1fbf 68       		.sleb128 -24
 7879 1fc0 2E       		.uleb128 0x2e
 7880 1fc1 696400   		.ascii	"id\000"
 7881 1fc4 04       		.byte	0x4
 7882 1fc5 99       		.byte	0x99
 7883 1fc6 D2050000 		.4byte	0x5d2
 7884 1fca 02       		.uleb128 0x2
 7885 1fcb 91       		.byte	0x91
 7886 1fcc 64       		.sleb128 -28
 7887 1fcd 00       		.byte	0
 7888 1fce 32       		.uleb128 0x32
 7889 1fcf 02120000 		.4byte	.LASF336
 7890 1fd3 04       		.byte	0x4
 7891 1fd4 93       		.byte	0x93
 7892 1fd5 FB090000 		.4byte	0x9fb
 7893 1fd9 00000000 		.4byte	.LFB257
 7894 1fdd 3C000000 		.4byte	.LFE257-.LFB257
 7895 1fe1 01       		.uleb128 0x1
 7896 1fe2 9C       		.byte	0x9c
 7897 1fe3 02200000 		.4byte	0x2002
 7898 1fe7 2E       		.uleb128 0x2e
 7899 1fe8 6E7300   		.ascii	"ns\000"
 7900 1feb 04       		.byte	0x4
 7901 1fec 93       		.byte	0x93
 7902 1fed F5090000 		.4byte	0x9f5
 7903 1ff1 02       		.uleb128 0x2
 7904 1ff2 91       		.byte	0x91
 7905 1ff3 6C       		.sleb128 -20
 7906 1ff4 2E       		.uleb128 0x2e
 7907 1ff5 696400   		.ascii	"id\000"
 7908 1ff8 04       		.byte	0x4
 7909 1ff9 93       		.byte	0x93
 7910 1ffa D2050000 		.4byte	0x5d2
ARM GAS  C:\Users\PCHAUT~1\AppData\Local\Temp\ccxXBCq6.s 			page 141


 7911 1ffe 02       		.uleb128 0x2
 7912 1fff 91       		.byte	0x91
 7913 2000 68       		.sleb128 -24
 7914 2001 00       		.byte	0
 7915 2002 32       		.uleb128 0x32
 7916 2003 42020000 		.4byte	.LASF337
 7917 2007 04       		.byte	0x4
 7918 2008 82       		.byte	0x82
 7919 2009 FB090000 		.4byte	0x9fb
 7920 200d 00000000 		.4byte	.LFB256
 7921 2011 90000000 		.4byte	.LFE256-.LFB256
 7922 2015 01       		.uleb128 0x1
 7923 2016 9C       		.byte	0x9c
 7924 2017 76200000 		.4byte	0x2076
 7925 201b 2E       		.uleb128 0x2e
 7926 201c 6E7300   		.ascii	"ns\000"
 7927 201f 04       		.byte	0x4
 7928 2020 82       		.byte	0x82
 7929 2021 F5090000 		.4byte	0x9f5
 7930 2025 02       		.uleb128 0x2
 7931 2026 91       		.byte	0x91
 7932 2027 64       		.sleb128 -28
 7933 2028 2E       		.uleb128 0x2e
 7934 2029 696400   		.ascii	"id\000"
 7935 202c 04       		.byte	0x4
 7936 202d 83       		.byte	0x83
 7937 202e D2050000 		.4byte	0x5d2
 7938 2032 02       		.uleb128 0x2
 7939 2033 91       		.byte	0x91
 7940 2034 60       		.sleb128 -32
 7941 2035 2F       		.uleb128 0x2f
 7942 2036 9A110000 		.4byte	.LASF338
 7943 203a 04       		.byte	0x4
 7944 203b 83       		.byte	0x83
 7945 203c 2C000000 		.4byte	0x2c
 7946 2040 02       		.uleb128 0x2
 7947 2041 91       		.byte	0x91
 7948 2042 5C       		.sleb128 -36
 7949 2043 31       		.uleb128 0x31
 7950 2044 706E7300 		.ascii	"pns\000"
 7951 2048 04       		.byte	0x4
 7952 2049 85       		.byte	0x85
 7953 204a F5090000 		.4byte	0x9f5
 7954 204e 02       		.uleb128 0x2
 7955 204f 91       		.byte	0x91
 7956 2050 68       		.sleb128 -24
 7957 2051 31       		.uleb128 0x31
 7958 2052 6900     		.ascii	"i\000"
 7959 2054 04       		.byte	0x4
 7960 2055 86       		.byte	0x86
 7961 2056 01090000 		.4byte	0x901
 7962 205a 02       		.uleb128 0x2
 7963 205b 91       		.byte	0x91
 7964 205c 6C       		.sleb128 -20
 7965 205d 33       		.uleb128 0x33
 7966 205e 1A000000 		.4byte	.LBB11
 7967 2062 52000000 		.4byte	.LBE11-.LBB11
ARM GAS  C:\Users\PCHAUT~1\AppData\Local\Temp\ccxXBCq6.s 			page 142


 7968 2066 30       		.uleb128 0x30
 7969 2067 6D0A0000 		.4byte	.LASF339
 7970 206b 04       		.byte	0x4
 7971 206c 88       		.byte	0x88
 7972 206d 25000000 		.4byte	0x25
 7973 2071 02       		.uleb128 0x2
 7974 2072 91       		.byte	0x91
 7975 2073 70       		.sleb128 -16
 7976 2074 00       		.byte	0
 7977 2075 00       		.byte	0
 7978 2076 32       		.uleb128 0x32
 7979 2077 0A060000 		.4byte	.LASF340
 7980 207b 04       		.byte	0x4
 7981 207c 7C       		.byte	0x7c
 7982 207d F5090000 		.4byte	0x9f5
 7983 2081 00000000 		.4byte	.LFB255
 7984 2085 3C000000 		.4byte	.LFE255-.LFB255
 7985 2089 01       		.uleb128 0x1
 7986 208a 9C       		.byte	0x9c
 7987 208b AA200000 		.4byte	0x20aa
 7988 208f 2E       		.uleb128 0x2e
 7989 2090 6E7300   		.ascii	"ns\000"
 7990 2093 04       		.byte	0x4
 7991 2094 7C       		.byte	0x7c
 7992 2095 F5090000 		.4byte	0x9f5
 7993 2099 02       		.uleb128 0x2
 7994 209a 91       		.byte	0x91
 7995 209b 6C       		.sleb128 -20
 7996 209c 2E       		.uleb128 0x2e
 7997 209d 696400   		.ascii	"id\000"
 7998 20a0 04       		.byte	0x4
 7999 20a1 7D       		.byte	0x7d
 8000 20a2 D2050000 		.4byte	0x5d2
 8001 20a6 02       		.uleb128 0x2
 8002 20a7 91       		.byte	0x91
 8003 20a8 68       		.sleb128 -24
 8004 20a9 00       		.byte	0
 8005 20aa 32       		.uleb128 0x32
 8006 20ab E4030000 		.4byte	.LASF341
 8007 20af 04       		.byte	0x4
 8008 20b0 6F       		.byte	0x6f
 8009 20b1 F5090000 		.4byte	0x9f5
 8010 20b5 00000000 		.4byte	.LFB254
 8011 20b9 74000000 		.4byte	.LFE254-.LFB254
 8012 20bd 01       		.uleb128 0x1
 8013 20be 9C       		.byte	0x9c
 8014 20bf 1E210000 		.4byte	0x211e
 8015 20c3 2E       		.uleb128 0x2e
 8016 20c4 6E7300   		.ascii	"ns\000"
 8017 20c7 04       		.byte	0x4
 8018 20c8 6F       		.byte	0x6f
 8019 20c9 F5090000 		.4byte	0x9f5
 8020 20cd 02       		.uleb128 0x2
 8021 20ce 91       		.byte	0x91
 8022 20cf 64       		.sleb128 -28
 8023 20d0 2E       		.uleb128 0x2e
 8024 20d1 696400   		.ascii	"id\000"
ARM GAS  C:\Users\PCHAUT~1\AppData\Local\Temp\ccxXBCq6.s 			page 143


 8025 20d4 04       		.byte	0x4
 8026 20d5 70       		.byte	0x70
 8027 20d6 D2050000 		.4byte	0x5d2
 8028 20da 02       		.uleb128 0x2
 8029 20db 91       		.byte	0x91
 8030 20dc 60       		.sleb128 -32
 8031 20dd 2F       		.uleb128 0x2f
 8032 20de 9A110000 		.4byte	.LASF338
 8033 20e2 04       		.byte	0x4
 8034 20e3 70       		.byte	0x70
 8035 20e4 2C000000 		.4byte	0x2c
 8036 20e8 02       		.uleb128 0x2
 8037 20e9 91       		.byte	0x91
 8038 20ea 5C       		.sleb128 -36
 8039 20eb 30       		.uleb128 0x30
 8040 20ec 1C120000 		.4byte	.LASF342
 8041 20f0 04       		.byte	0x4
 8042 20f1 72       		.byte	0x72
 8043 20f2 F5090000 		.4byte	0x9f5
 8044 20f6 02       		.uleb128 0x2
 8045 20f7 91       		.byte	0x91
 8046 20f8 68       		.sleb128 -24
 8047 20f9 31       		.uleb128 0x31
 8048 20fa 6900     		.ascii	"i\000"
 8049 20fc 04       		.byte	0x4
 8050 20fd 73       		.byte	0x73
 8051 20fe 01090000 		.4byte	0x901
 8052 2102 02       		.uleb128 0x2
 8053 2103 91       		.byte	0x91
 8054 2104 6C       		.sleb128 -20
 8055 2105 33       		.uleb128 0x33
 8056 2106 1A000000 		.4byte	.LBB10
 8057 210a 30000000 		.4byte	.LBE10-.LBB10
 8058 210e 30       		.uleb128 0x30
 8059 210f 6D0A0000 		.4byte	.LASF339
 8060 2113 04       		.byte	0x4
 8061 2114 75       		.byte	0x75
 8062 2115 25000000 		.4byte	0x25
 8063 2119 02       		.uleb128 0x2
 8064 211a 91       		.byte	0x91
 8065 211b 70       		.sleb128 -16
 8066 211c 00       		.byte	0
 8067 211d 00       		.byte	0
 8068 211e 2D       		.uleb128 0x2d
 8069 211f 00000000 		.4byte	.LASF343
 8070 2123 04       		.byte	0x4
 8071 2124 5A       		.byte	0x5a
 8072 2125 00000000 		.4byte	.LFB253
 8073 2129 70000000 		.4byte	.LFE253-.LFB253
 8074 212d 01       		.uleb128 0x1
 8075 212e 9C       		.byte	0x9c
 8076 212f 5C210000 		.4byte	0x215c
 8077 2133 2E       		.uleb128 0x2e
 8078 2134 6E7300   		.ascii	"ns\000"
 8079 2137 04       		.byte	0x4
 8080 2138 5A       		.byte	0x5a
 8081 2139 F5090000 		.4byte	0x9f5
ARM GAS  C:\Users\PCHAUT~1\AppData\Local\Temp\ccxXBCq6.s 			page 144


 8082 213d 02       		.uleb128 0x2
 8083 213e 91       		.byte	0x91
 8084 213f 6C       		.sleb128 -20
 8085 2140 2F       		.uleb128 0x2f
 8086 2141 830A0000 		.4byte	.LASF136
 8087 2145 04       		.byte	0x4
 8088 2146 5B       		.byte	0x5b
 8089 2147 F5090000 		.4byte	0x9f5
 8090 214b 02       		.uleb128 0x2
 8091 214c 91       		.byte	0x91
 8092 214d 68       		.sleb128 -24
 8093 214e 2E       		.uleb128 0x2e
 8094 214f 696400   		.ascii	"id\000"
 8095 2152 04       		.byte	0x4
 8096 2153 5C       		.byte	0x5c
 8097 2154 D2050000 		.4byte	0x5d2
 8098 2158 02       		.uleb128 0x2
 8099 2159 91       		.byte	0x91
 8100 215a 64       		.sleb128 -28
 8101 215b 00       		.byte	0
 8102 215c 34       		.uleb128 0x34
 8103 215d CE070000 		.4byte	.LASF345
 8104 2161 04       		.byte	0x4
 8105 2162 46       		.byte	0x46
 8106 2163 FB090000 		.4byte	0x9fb
 8107 2167 00000000 		.4byte	.LFB252
 8108 216b 78000000 		.4byte	.LFE252-.LFB252
 8109 216f 01       		.uleb128 0x1
 8110 2170 9C       		.byte	0x9c
 8111 2171 AA210000 		.4byte	0x21aa
 8112 2175 2E       		.uleb128 0x2e
 8113 2176 6E7300   		.ascii	"ns\000"
 8114 2179 04       		.byte	0x4
 8115 217a 46       		.byte	0x46
 8116 217b F5090000 		.4byte	0x9f5
 8117 217f 02       		.uleb128 0x2
 8118 2180 91       		.byte	0x91
 8119 2181 6C       		.sleb128 -20
 8120 2182 2E       		.uleb128 0x2e
 8121 2183 696400   		.ascii	"id\000"
 8122 2186 04       		.byte	0x4
 8123 2187 46       		.byte	0x46
 8124 2188 D2050000 		.4byte	0x5d2
 8125 218c 02       		.uleb128 0x2
 8126 218d 91       		.byte	0x91
 8127 218e 68       		.sleb128 -24
 8128 218f 2F       		.uleb128 0x2f
 8129 2190 EB060000 		.4byte	.LASF344
 8130 2194 04       		.byte	0x4
 8131 2195 47       		.byte	0x47
 8132 2196 2C000000 		.4byte	0x2c
 8133 219a 02       		.uleb128 0x2
 8134 219b 91       		.byte	0x91
 8135 219c 64       		.sleb128 -28
 8136 219d 31       		.uleb128 0x31
 8137 219e 6900     		.ascii	"i\000"
 8138 21a0 04       		.byte	0x4
ARM GAS  C:\Users\PCHAUT~1\AppData\Local\Temp\ccxXBCq6.s 			page 145


 8139 21a1 4D       		.byte	0x4d
 8140 21a2 FB090000 		.4byte	0x9fb
 8141 21a6 02       		.uleb128 0x2
 8142 21a7 91       		.byte	0x91
 8143 21a8 70       		.sleb128 -16
 8144 21a9 00       		.byte	0
 8145 21aa 34       		.uleb128 0x34
 8146 21ab 80010000 		.4byte	.LASF346
 8147 21af 04       		.byte	0x4
 8148 21b0 2E       		.byte	0x2e
 8149 21b1 F5090000 		.4byte	0x9f5
 8150 21b5 00000000 		.4byte	.LFB251
 8151 21b9 78000000 		.4byte	.LFE251-.LFB251
 8152 21bd 01       		.uleb128 0x1
 8153 21be 9C       		.byte	0x9c
 8154 21bf F9210000 		.4byte	0x21f9
 8155 21c3 2E       		.uleb128 0x2e
 8156 21c4 6E7300   		.ascii	"ns\000"
 8157 21c7 04       		.byte	0x4
 8158 21c8 2E       		.byte	0x2e
 8159 21c9 F5090000 		.4byte	0x9f5
 8160 21cd 02       		.uleb128 0x2
 8161 21ce 91       		.byte	0x91
 8162 21cf 6C       		.sleb128 -20
 8163 21d0 2F       		.uleb128 0x2f
 8164 21d1 35050000 		.4byte	.LASF347
 8165 21d5 04       		.byte	0x4
 8166 21d6 2F       		.byte	0x2f
 8167 21d7 D2050000 		.4byte	0x5d2
 8168 21db 02       		.uleb128 0x2
 8169 21dc 91       		.byte	0x91
 8170 21dd 68       		.sleb128 -24
 8171 21de 2F       		.uleb128 0x2f
 8172 21df 33000000 		.4byte	.LASF348
 8173 21e3 04       		.byte	0x4
 8174 21e4 30       		.byte	0x30
 8175 21e5 2C000000 		.4byte	0x2c
 8176 21e9 02       		.uleb128 0x2
 8177 21ea 91       		.byte	0x91
 8178 21eb 64       		.sleb128 -28
 8179 21ec 31       		.uleb128 0x31
 8180 21ed 6900     		.ascii	"i\000"
 8181 21ef 04       		.byte	0x4
 8182 21f0 36       		.byte	0x36
 8183 21f1 F5090000 		.4byte	0x9f5
 8184 21f5 02       		.uleb128 0x2
 8185 21f6 91       		.byte	0x91
 8186 21f7 70       		.sleb128 -16
 8187 21f8 00       		.byte	0
 8188 21f9 34       		.uleb128 0x34
 8189 21fa F1110000 		.4byte	.LASF349
 8190 21fe 04       		.byte	0x4
 8191 21ff 1F       		.byte	0x1f
 8192 2200 25000000 		.4byte	0x25
 8193 2204 00000000 		.4byte	.LFB250
 8194 2208 54000000 		.4byte	.LFE250-.LFB250
 8195 220c 01       		.uleb128 0x1
ARM GAS  C:\Users\PCHAUT~1\AppData\Local\Temp\ccxXBCq6.s 			page 146


 8196 220d 9C       		.byte	0x9c
 8197 220e 3A220000 		.4byte	0x223a
 8198 2212 2E       		.uleb128 0x2e
 8199 2213 696400   		.ascii	"id\000"
 8200 2216 04       		.byte	0x4
 8201 2217 1F       		.byte	0x1f
 8202 2218 D2050000 		.4byte	0x5d2
 8203 221c 02       		.uleb128 0x2
 8204 221d 91       		.byte	0x91
 8205 221e 6C       		.sleb128 -20
 8206 221f 2F       		.uleb128 0x2f
 8207 2220 9A110000 		.4byte	.LASF338
 8208 2224 04       		.byte	0x4
 8209 2225 1F       		.byte	0x1f
 8210 2226 25000000 		.4byte	0x25
 8211 222a 02       		.uleb128 0x2
 8212 222b 91       		.byte	0x91
 8213 222c 68       		.sleb128 -24
 8214 222d 31       		.uleb128 0x31
 8215 222e 6900     		.ascii	"i\000"
 8216 2230 04       		.byte	0x4
 8217 2231 21       		.byte	0x21
 8218 2232 25000000 		.4byte	0x25
 8219 2236 02       		.uleb128 0x2
 8220 2237 91       		.byte	0x91
 8221 2238 70       		.sleb128 -16
 8222 2239 00       		.byte	0
 8223 223a 35       		.uleb128 0x35
 8224 223b F8060000 		.4byte	.LASF350
 8225 223f 03       		.byte	0x3
 8226 2240 6601     		.2byte	0x166
 8227 2242 00000000 		.4byte	.LFB146
 8228 2246 58000000 		.4byte	.LFE146-.LFB146
 8229 224a 01       		.uleb128 0x1
 8230 224b 9C       		.byte	0x9c
 8231 224c 60220000 		.4byte	0x2260
 8232 2250 29       		.uleb128 0x29
 8233 2251 0D010000 		.4byte	.LASF292
 8234 2255 70220000 		.4byte	0x2270
 8235 2259 05       		.uleb128 0x5
 8236 225a 03       		.byte	0x3
 8237 225b 00000000 		.4byte	__func__.8162
 8238 225f 00       		.byte	0
 8239 2260 0A       		.uleb128 0xa
 8240 2261 61010000 		.4byte	0x161
 8241 2265 70220000 		.4byte	0x2270
 8242 2269 0B       		.uleb128 0xb
 8243 226a 37000000 		.4byte	0x37
 8244 226e 0B       		.byte	0xb
 8245 226f 00       		.byte	0
 8246 2270 0F       		.uleb128 0xf
 8247 2271 60220000 		.4byte	0x2260
 8248 2275 36       		.uleb128 0x36
 8249 2276 23070000 		.4byte	.LASF356
 8250 227a 03       		.byte	0x3
 8251 227b 5A01     		.2byte	0x15a
 8252 227d 00000000 		.4byte	.LFB145
ARM GAS  C:\Users\PCHAUT~1\AppData\Local\Temp\ccxXBCq6.s 			page 147


 8253 2281 30000000 		.4byte	.LFE145-.LFB145
 8254 2285 01       		.uleb128 0x1
 8255 2286 9C       		.byte	0x9c
 8256 2287 35       		.uleb128 0x35
 8257 2288 DA020000 		.4byte	.LASF351
 8258 228c 01       		.byte	0x1
 8259 228d CA01     		.2byte	0x1ca
 8260 228f 00000000 		.4byte	.LFB117
 8261 2293 30000000 		.4byte	.LFE117-.LFB117
 8262 2297 01       		.uleb128 0x1
 8263 2298 9C       		.byte	0x9c
 8264 2299 B7220000 		.4byte	0x22b7
 8265 229d 37       		.uleb128 0x37
 8266 229e E7220000 		.4byte	0x22e7
 8267 22a2 0E000000 		.4byte	.LBB8
 8268 22a6 06000000 		.4byte	.LBE8-.LBB8
 8269 22aa 01       		.byte	0x1
 8270 22ab CD01     		.2byte	0x1cd
 8271 22ad 38       		.uleb128 0x38
 8272 22ae F0220000 		.4byte	0x22f0
 8273 22b2 02       		.uleb128 0x2
 8274 22b3 91       		.byte	0x91
 8275 22b4 70       		.sleb128 -16
 8276 22b5 00       		.byte	0
 8277 22b6 00       		.byte	0
 8278 22b7 35       		.uleb128 0x35
 8279 22b8 EE0E0000 		.4byte	.LASF352
 8280 22bc 01       		.byte	0x1
 8281 22bd BC01     		.2byte	0x1bc
 8282 22bf 00000000 		.4byte	.LFB116
 8283 22c3 30000000 		.4byte	.LFE116-.LFB116
 8284 22c7 01       		.uleb128 0x1
 8285 22c8 9C       		.byte	0x9c
 8286 22c9 E7220000 		.4byte	0x22e7
 8287 22cd 37       		.uleb128 0x37
 8288 22ce E7220000 		.4byte	0x22e7
 8289 22d2 0E000000 		.4byte	.LBB6
 8290 22d6 06000000 		.4byte	.LBE6-.LBB6
 8291 22da 01       		.byte	0x1
 8292 22db BF01     		.2byte	0x1bf
 8293 22dd 38       		.uleb128 0x38
 8294 22de F0220000 		.4byte	0x22f0
 8295 22e2 02       		.uleb128 0x2
 8296 22e3 91       		.byte	0x91
 8297 22e4 70       		.sleb128 -16
 8298 22e5 00       		.byte	0
 8299 22e6 00       		.byte	0
 8300 22e7 39       		.uleb128 0x39
 8301 22e8 370E0000 		.4byte	.LASF357
 8302 22ec 02       		.byte	0x2
 8303 22ed 2002     		.2byte	0x220
 8304 22ef 03       		.byte	0x3
 8305 22f0 3A       		.uleb128 0x3a
 8306 22f1 3B050000 		.4byte	.LASF145
 8307 22f5 02       		.byte	0x2
 8308 22f6 2002     		.2byte	0x220
 8309 22f8 01090000 		.4byte	0x901
ARM GAS  C:\Users\PCHAUT~1\AppData\Local\Temp\ccxXBCq6.s 			page 148


 8310 22fc 00       		.byte	0
 8311 22fd 00       		.byte	0
 8312              		.section	.debug_abbrev,"",%progbits
 8313              	.Ldebug_abbrev0:
 8314 0000 01       		.uleb128 0x1
 8315 0001 11       		.uleb128 0x11
 8316 0002 01       		.byte	0x1
 8317 0003 25       		.uleb128 0x25
 8318 0004 0E       		.uleb128 0xe
 8319 0005 13       		.uleb128 0x13
 8320 0006 0B       		.uleb128 0xb
 8321 0007 03       		.uleb128 0x3
 8322 0008 0E       		.uleb128 0xe
 8323 0009 1B       		.uleb128 0x1b
 8324 000a 0E       		.uleb128 0xe
 8325 000b 55       		.uleb128 0x55
 8326 000c 17       		.uleb128 0x17
 8327 000d 11       		.uleb128 0x11
 8328 000e 01       		.uleb128 0x1
 8329 000f 10       		.uleb128 0x10
 8330 0010 17       		.uleb128 0x17
 8331 0011 00       		.byte	0
 8332 0012 00       		.byte	0
 8333 0013 02       		.uleb128 0x2
 8334 0014 24       		.uleb128 0x24
 8335 0015 00       		.byte	0
 8336 0016 0B       		.uleb128 0xb
 8337 0017 0B       		.uleb128 0xb
 8338 0018 3E       		.uleb128 0x3e
 8339 0019 0B       		.uleb128 0xb
 8340 001a 03       		.uleb128 0x3
 8341 001b 08       		.uleb128 0x8
 8342 001c 00       		.byte	0
 8343 001d 00       		.byte	0
 8344 001e 03       		.uleb128 0x3
 8345 001f 16       		.uleb128 0x16
 8346 0020 00       		.byte	0
 8347 0021 03       		.uleb128 0x3
 8348 0022 0E       		.uleb128 0xe
 8349 0023 3A       		.uleb128 0x3a
 8350 0024 0B       		.uleb128 0xb
 8351 0025 3B       		.uleb128 0x3b
 8352 0026 0B       		.uleb128 0xb
 8353 0027 49       		.uleb128 0x49
 8354 0028 13       		.uleb128 0x13
 8355 0029 00       		.byte	0
 8356 002a 00       		.byte	0
 8357 002b 04       		.uleb128 0x4
 8358 002c 24       		.uleb128 0x24
 8359 002d 00       		.byte	0
 8360 002e 0B       		.uleb128 0xb
 8361 002f 0B       		.uleb128 0xb
 8362 0030 3E       		.uleb128 0x3e
 8363 0031 0B       		.uleb128 0xb
 8364 0032 03       		.uleb128 0x3
 8365 0033 0E       		.uleb128 0xe
 8366 0034 00       		.byte	0
ARM GAS  C:\Users\PCHAUT~1\AppData\Local\Temp\ccxXBCq6.s 			page 149


 8367 0035 00       		.byte	0
 8368 0036 05       		.uleb128 0x5
 8369 0037 0F       		.uleb128 0xf
 8370 0038 00       		.byte	0
 8371 0039 0B       		.uleb128 0xb
 8372 003a 0B       		.uleb128 0xb
 8373 003b 49       		.uleb128 0x49
 8374 003c 13       		.uleb128 0x13
 8375 003d 00       		.byte	0
 8376 003e 00       		.byte	0
 8377 003f 06       		.uleb128 0x6
 8378 0040 13       		.uleb128 0x13
 8379 0041 00       		.byte	0
 8380 0042 03       		.uleb128 0x3
 8381 0043 0E       		.uleb128 0xe
 8382 0044 3C       		.uleb128 0x3c
 8383 0045 19       		.uleb128 0x19
 8384 0046 00       		.byte	0
 8385 0047 00       		.byte	0
 8386 0048 07       		.uleb128 0x7
 8387 0049 16       		.uleb128 0x16
 8388 004a 00       		.byte	0
 8389 004b 03       		.uleb128 0x3
 8390 004c 0E       		.uleb128 0xe
 8391 004d 3A       		.uleb128 0x3a
 8392 004e 0B       		.uleb128 0xb
 8393 004f 3B       		.uleb128 0x3b
 8394 0050 05       		.uleb128 0x5
 8395 0051 49       		.uleb128 0x49
 8396 0052 13       		.uleb128 0x13
 8397 0053 00       		.byte	0
 8398 0054 00       		.byte	0
 8399 0055 08       		.uleb128 0x8
 8400 0056 17       		.uleb128 0x17
 8401 0057 01       		.byte	0x1
 8402 0058 0B       		.uleb128 0xb
 8403 0059 0B       		.uleb128 0xb
 8404 005a 3A       		.uleb128 0x3a
 8405 005b 0B       		.uleb128 0xb
 8406 005c 3B       		.uleb128 0x3b
 8407 005d 0B       		.uleb128 0xb
 8408 005e 01       		.uleb128 0x1
 8409 005f 13       		.uleb128 0x13
 8410 0060 00       		.byte	0
 8411 0061 00       		.byte	0
 8412 0062 09       		.uleb128 0x9
 8413 0063 0D       		.uleb128 0xd
 8414 0064 00       		.byte	0
 8415 0065 03       		.uleb128 0x3
 8416 0066 0E       		.uleb128 0xe
 8417 0067 3A       		.uleb128 0x3a
 8418 0068 0B       		.uleb128 0xb
 8419 0069 3B       		.uleb128 0x3b
 8420 006a 0B       		.uleb128 0xb
 8421 006b 49       		.uleb128 0x49
 8422 006c 13       		.uleb128 0x13
 8423 006d 00       		.byte	0
ARM GAS  C:\Users\PCHAUT~1\AppData\Local\Temp\ccxXBCq6.s 			page 150


 8424 006e 00       		.byte	0
 8425 006f 0A       		.uleb128 0xa
 8426 0070 01       		.uleb128 0x1
 8427 0071 01       		.byte	0x1
 8428 0072 49       		.uleb128 0x49
 8429 0073 13       		.uleb128 0x13
 8430 0074 01       		.uleb128 0x1
 8431 0075 13       		.uleb128 0x13
 8432 0076 00       		.byte	0
 8433 0077 00       		.byte	0
 8434 0078 0B       		.uleb128 0xb
 8435 0079 21       		.uleb128 0x21
 8436 007a 00       		.byte	0
 8437 007b 49       		.uleb128 0x49
 8438 007c 13       		.uleb128 0x13
 8439 007d 2F       		.uleb128 0x2f
 8440 007e 0B       		.uleb128 0xb
 8441 007f 00       		.byte	0
 8442 0080 00       		.byte	0
 8443 0081 0C       		.uleb128 0xc
 8444 0082 13       		.uleb128 0x13
 8445 0083 01       		.byte	0x1
 8446 0084 0B       		.uleb128 0xb
 8447 0085 0B       		.uleb128 0xb
 8448 0086 3A       		.uleb128 0x3a
 8449 0087 0B       		.uleb128 0xb
 8450 0088 3B       		.uleb128 0x3b
 8451 0089 0B       		.uleb128 0xb
 8452 008a 01       		.uleb128 0x1
 8453 008b 13       		.uleb128 0x13
 8454 008c 00       		.byte	0
 8455 008d 00       		.byte	0
 8456 008e 0D       		.uleb128 0xd
 8457 008f 0D       		.uleb128 0xd
 8458 0090 00       		.byte	0
 8459 0091 03       		.uleb128 0x3
 8460 0092 0E       		.uleb128 0xe
 8461 0093 3A       		.uleb128 0x3a
 8462 0094 0B       		.uleb128 0xb
 8463 0095 3B       		.uleb128 0x3b
 8464 0096 0B       		.uleb128 0xb
 8465 0097 49       		.uleb128 0x49
 8466 0098 13       		.uleb128 0x13
 8467 0099 38       		.uleb128 0x38
 8468 009a 0B       		.uleb128 0xb
 8469 009b 00       		.byte	0
 8470 009c 00       		.byte	0
 8471 009d 0E       		.uleb128 0xe
 8472 009e 0F       		.uleb128 0xf
 8473 009f 00       		.byte	0
 8474 00a0 0B       		.uleb128 0xb
 8475 00a1 0B       		.uleb128 0xb
 8476 00a2 00       		.byte	0
 8477 00a3 00       		.byte	0
 8478 00a4 0F       		.uleb128 0xf
 8479 00a5 26       		.uleb128 0x26
 8480 00a6 00       		.byte	0
ARM GAS  C:\Users\PCHAUT~1\AppData\Local\Temp\ccxXBCq6.s 			page 151


 8481 00a7 49       		.uleb128 0x49
 8482 00a8 13       		.uleb128 0x13
 8483 00a9 00       		.byte	0
 8484 00aa 00       		.byte	0
 8485 00ab 10       		.uleb128 0x10
 8486 00ac 13       		.uleb128 0x13
 8487 00ad 01       		.byte	0x1
 8488 00ae 03       		.uleb128 0x3
 8489 00af 0E       		.uleb128 0xe
 8490 00b0 0B       		.uleb128 0xb
 8491 00b1 0B       		.uleb128 0xb
 8492 00b2 3A       		.uleb128 0x3a
 8493 00b3 0B       		.uleb128 0xb
 8494 00b4 3B       		.uleb128 0x3b
 8495 00b5 0B       		.uleb128 0xb
 8496 00b6 01       		.uleb128 0x1
 8497 00b7 13       		.uleb128 0x13
 8498 00b8 00       		.byte	0
 8499 00b9 00       		.byte	0
 8500 00ba 11       		.uleb128 0x11
 8501 00bb 0D       		.uleb128 0xd
 8502 00bc 00       		.byte	0
 8503 00bd 03       		.uleb128 0x3
 8504 00be 08       		.uleb128 0x8
 8505 00bf 3A       		.uleb128 0x3a
 8506 00c0 0B       		.uleb128 0xb
 8507 00c1 3B       		.uleb128 0x3b
 8508 00c2 0B       		.uleb128 0xb
 8509 00c3 49       		.uleb128 0x49
 8510 00c4 13       		.uleb128 0x13
 8511 00c5 38       		.uleb128 0x38
 8512 00c6 0B       		.uleb128 0xb
 8513 00c7 00       		.byte	0
 8514 00c8 00       		.byte	0
 8515 00c9 12       		.uleb128 0x12
 8516 00ca 13       		.uleb128 0x13
 8517 00cb 01       		.byte	0x1
 8518 00cc 03       		.uleb128 0x3
 8519 00cd 0E       		.uleb128 0xe
 8520 00ce 0B       		.uleb128 0xb
 8521 00cf 05       		.uleb128 0x5
 8522 00d0 3A       		.uleb128 0x3a
 8523 00d1 0B       		.uleb128 0xb
 8524 00d2 3B       		.uleb128 0x3b
 8525 00d3 0B       		.uleb128 0xb
 8526 00d4 01       		.uleb128 0x1
 8527 00d5 13       		.uleb128 0x13
 8528 00d6 00       		.byte	0
 8529 00d7 00       		.byte	0
 8530 00d8 13       		.uleb128 0x13
 8531 00d9 0D       		.uleb128 0xd
 8532 00da 00       		.byte	0
 8533 00db 03       		.uleb128 0x3
 8534 00dc 0E       		.uleb128 0xe
 8535 00dd 3A       		.uleb128 0x3a
 8536 00de 0B       		.uleb128 0xb
 8537 00df 3B       		.uleb128 0x3b
ARM GAS  C:\Users\PCHAUT~1\AppData\Local\Temp\ccxXBCq6.s 			page 152


 8538 00e0 0B       		.uleb128 0xb
 8539 00e1 49       		.uleb128 0x49
 8540 00e2 13       		.uleb128 0x13
 8541 00e3 38       		.uleb128 0x38
 8542 00e4 05       		.uleb128 0x5
 8543 00e5 00       		.byte	0
 8544 00e6 00       		.byte	0
 8545 00e7 14       		.uleb128 0x14
 8546 00e8 15       		.uleb128 0x15
 8547 00e9 00       		.byte	0
 8548 00ea 27       		.uleb128 0x27
 8549 00eb 19       		.uleb128 0x19
 8550 00ec 00       		.byte	0
 8551 00ed 00       		.byte	0
 8552 00ee 15       		.uleb128 0x15
 8553 00ef 15       		.uleb128 0x15
 8554 00f0 01       		.byte	0x1
 8555 00f1 27       		.uleb128 0x27
 8556 00f2 19       		.uleb128 0x19
 8557 00f3 49       		.uleb128 0x49
 8558 00f4 13       		.uleb128 0x13
 8559 00f5 01       		.uleb128 0x1
 8560 00f6 13       		.uleb128 0x13
 8561 00f7 00       		.byte	0
 8562 00f8 00       		.byte	0
 8563 00f9 16       		.uleb128 0x16
 8564 00fa 05       		.uleb128 0x5
 8565 00fb 00       		.byte	0
 8566 00fc 49       		.uleb128 0x49
 8567 00fd 13       		.uleb128 0x13
 8568 00fe 00       		.byte	0
 8569 00ff 00       		.byte	0
 8570 0100 17       		.uleb128 0x17
 8571 0101 13       		.uleb128 0x13
 8572 0102 01       		.byte	0x1
 8573 0103 03       		.uleb128 0x3
 8574 0104 0E       		.uleb128 0xe
 8575 0105 0B       		.uleb128 0xb
 8576 0106 05       		.uleb128 0x5
 8577 0107 3A       		.uleb128 0x3a
 8578 0108 0B       		.uleb128 0xb
 8579 0109 3B       		.uleb128 0x3b
 8580 010a 05       		.uleb128 0x5
 8581 010b 01       		.uleb128 0x1
 8582 010c 13       		.uleb128 0x13
 8583 010d 00       		.byte	0
 8584 010e 00       		.byte	0
 8585 010f 18       		.uleb128 0x18
 8586 0110 0D       		.uleb128 0xd
 8587 0111 00       		.byte	0
 8588 0112 03       		.uleb128 0x3
 8589 0113 0E       		.uleb128 0xe
 8590 0114 3A       		.uleb128 0x3a
 8591 0115 0B       		.uleb128 0xb
 8592 0116 3B       		.uleb128 0x3b
 8593 0117 05       		.uleb128 0x5
 8594 0118 49       		.uleb128 0x49
ARM GAS  C:\Users\PCHAUT~1\AppData\Local\Temp\ccxXBCq6.s 			page 153


 8595 0119 13       		.uleb128 0x13
 8596 011a 38       		.uleb128 0x38
 8597 011b 0B       		.uleb128 0xb
 8598 011c 00       		.byte	0
 8599 011d 00       		.byte	0
 8600 011e 19       		.uleb128 0x19
 8601 011f 0D       		.uleb128 0xd
 8602 0120 00       		.byte	0
 8603 0121 03       		.uleb128 0x3
 8604 0122 0E       		.uleb128 0xe
 8605 0123 3A       		.uleb128 0x3a
 8606 0124 0B       		.uleb128 0xb
 8607 0125 3B       		.uleb128 0x3b
 8608 0126 05       		.uleb128 0x5
 8609 0127 49       		.uleb128 0x49
 8610 0128 13       		.uleb128 0x13
 8611 0129 38       		.uleb128 0x38
 8612 012a 05       		.uleb128 0x5
 8613 012b 00       		.byte	0
 8614 012c 00       		.byte	0
 8615 012d 1A       		.uleb128 0x1a
 8616 012e 35       		.uleb128 0x35
 8617 012f 00       		.byte	0
 8618 0130 49       		.uleb128 0x49
 8619 0131 13       		.uleb128 0x13
 8620 0132 00       		.byte	0
 8621 0133 00       		.byte	0
 8622 0134 1B       		.uleb128 0x1b
 8623 0135 13       		.uleb128 0x13
 8624 0136 01       		.byte	0x1
 8625 0137 03       		.uleb128 0x3
 8626 0138 0E       		.uleb128 0xe
 8627 0139 0B       		.uleb128 0xb
 8628 013a 0B       		.uleb128 0xb
 8629 013b 3A       		.uleb128 0x3a
 8630 013c 0B       		.uleb128 0xb
 8631 013d 3B       		.uleb128 0x3b
 8632 013e 05       		.uleb128 0x5
 8633 013f 01       		.uleb128 0x1
 8634 0140 13       		.uleb128 0x13
 8635 0141 00       		.byte	0
 8636 0142 00       		.byte	0
 8637 0143 1C       		.uleb128 0x1c
 8638 0144 13       		.uleb128 0x13
 8639 0145 01       		.byte	0x1
 8640 0146 0B       		.uleb128 0xb
 8641 0147 0B       		.uleb128 0xb
 8642 0148 3A       		.uleb128 0x3a
 8643 0149 0B       		.uleb128 0xb
 8644 014a 3B       		.uleb128 0x3b
 8645 014b 05       		.uleb128 0x5
 8646 014c 01       		.uleb128 0x1
 8647 014d 13       		.uleb128 0x13
 8648 014e 00       		.byte	0
 8649 014f 00       		.byte	0
 8650 0150 1D       		.uleb128 0x1d
 8651 0151 17       		.uleb128 0x17
ARM GAS  C:\Users\PCHAUT~1\AppData\Local\Temp\ccxXBCq6.s 			page 154


 8652 0152 01       		.byte	0x1
 8653 0153 0B       		.uleb128 0xb
 8654 0154 0B       		.uleb128 0xb
 8655 0155 3A       		.uleb128 0x3a
 8656 0156 0B       		.uleb128 0xb
 8657 0157 3B       		.uleb128 0x3b
 8658 0158 05       		.uleb128 0x5
 8659 0159 01       		.uleb128 0x1
 8660 015a 13       		.uleb128 0x13
 8661 015b 00       		.byte	0
 8662 015c 00       		.byte	0
 8663 015d 1E       		.uleb128 0x1e
 8664 015e 0D       		.uleb128 0xd
 8665 015f 00       		.byte	0
 8666 0160 03       		.uleb128 0x3
 8667 0161 0E       		.uleb128 0xe
 8668 0162 3A       		.uleb128 0x3a
 8669 0163 0B       		.uleb128 0xb
 8670 0164 3B       		.uleb128 0x3b
 8671 0165 05       		.uleb128 0x5
 8672 0166 49       		.uleb128 0x49
 8673 0167 13       		.uleb128 0x13
 8674 0168 00       		.byte	0
 8675 0169 00       		.byte	0
 8676 016a 1F       		.uleb128 0x1f
 8677 016b 15       		.uleb128 0x15
 8678 016c 01       		.byte	0x1
 8679 016d 27       		.uleb128 0x27
 8680 016e 19       		.uleb128 0x19
 8681 016f 01       		.uleb128 0x1
 8682 0170 13       		.uleb128 0x13
 8683 0171 00       		.byte	0
 8684 0172 00       		.byte	0
 8685 0173 20       		.uleb128 0x20
 8686 0174 34       		.uleb128 0x34
 8687 0175 00       		.byte	0
 8688 0176 03       		.uleb128 0x3
 8689 0177 0E       		.uleb128 0xe
 8690 0178 3A       		.uleb128 0x3a
 8691 0179 0B       		.uleb128 0xb
 8692 017a 3B       		.uleb128 0x3b
 8693 017b 05       		.uleb128 0x5
 8694 017c 49       		.uleb128 0x49
 8695 017d 13       		.uleb128 0x13
 8696 017e 3F       		.uleb128 0x3f
 8697 017f 19       		.uleb128 0x19
 8698 0180 3C       		.uleb128 0x3c
 8699 0181 19       		.uleb128 0x19
 8700 0182 00       		.byte	0
 8701 0183 00       		.byte	0
 8702 0184 21       		.uleb128 0x21
 8703 0185 34       		.uleb128 0x34
 8704 0186 00       		.byte	0
 8705 0187 03       		.uleb128 0x3
 8706 0188 0E       		.uleb128 0xe
 8707 0189 3A       		.uleb128 0x3a
 8708 018a 0B       		.uleb128 0xb
ARM GAS  C:\Users\PCHAUT~1\AppData\Local\Temp\ccxXBCq6.s 			page 155


 8709 018b 3B       		.uleb128 0x3b
 8710 018c 0B       		.uleb128 0xb
 8711 018d 49       		.uleb128 0x49
 8712 018e 13       		.uleb128 0x13
 8713 018f 3F       		.uleb128 0x3f
 8714 0190 19       		.uleb128 0x19
 8715 0191 3C       		.uleb128 0x3c
 8716 0192 19       		.uleb128 0x19
 8717 0193 00       		.byte	0
 8718 0194 00       		.byte	0
 8719 0195 22       		.uleb128 0x22
 8720 0196 0D       		.uleb128 0xd
 8721 0197 00       		.byte	0
 8722 0198 03       		.uleb128 0x3
 8723 0199 08       		.uleb128 0x8
 8724 019a 3A       		.uleb128 0x3a
 8725 019b 0B       		.uleb128 0xb
 8726 019c 3B       		.uleb128 0x3b
 8727 019d 0B       		.uleb128 0xb
 8728 019e 49       		.uleb128 0x49
 8729 019f 13       		.uleb128 0x13
 8730 01a0 00       		.byte	0
 8731 01a1 00       		.byte	0
 8732 01a2 23       		.uleb128 0x23
 8733 01a3 0D       		.uleb128 0xd
 8734 01a4 00       		.byte	0
 8735 01a5 03       		.uleb128 0x3
 8736 01a6 08       		.uleb128 0x8
 8737 01a7 3A       		.uleb128 0x3a
 8738 01a8 0B       		.uleb128 0xb
 8739 01a9 3B       		.uleb128 0x3b
 8740 01aa 05       		.uleb128 0x5
 8741 01ab 49       		.uleb128 0x49
 8742 01ac 13       		.uleb128 0x13
 8743 01ad 38       		.uleb128 0x38
 8744 01ae 0B       		.uleb128 0xb
 8745 01af 00       		.byte	0
 8746 01b0 00       		.byte	0
 8747 01b1 24       		.uleb128 0x24
 8748 01b2 0D       		.uleb128 0xd
 8749 01b3 00       		.byte	0
 8750 01b4 03       		.uleb128 0x3
 8751 01b5 08       		.uleb128 0x8
 8752 01b6 3A       		.uleb128 0x3a
 8753 01b7 0B       		.uleb128 0xb
 8754 01b8 3B       		.uleb128 0x3b
 8755 01b9 05       		.uleb128 0x5
 8756 01ba 49       		.uleb128 0x49
 8757 01bb 13       		.uleb128 0x13
 8758 01bc 38       		.uleb128 0x38
 8759 01bd 05       		.uleb128 0x5
 8760 01be 00       		.byte	0
 8761 01bf 00       		.byte	0
 8762 01c0 25       		.uleb128 0x25
 8763 01c1 13       		.uleb128 0x13
 8764 01c2 01       		.byte	0x1
 8765 01c3 0B       		.uleb128 0xb
ARM GAS  C:\Users\PCHAUT~1\AppData\Local\Temp\ccxXBCq6.s 			page 156


 8766 01c4 05       		.uleb128 0x5
 8767 01c5 3A       		.uleb128 0x3a
 8768 01c6 0B       		.uleb128 0xb
 8769 01c7 3B       		.uleb128 0x3b
 8770 01c8 0B       		.uleb128 0xb
 8771 01c9 01       		.uleb128 0x1
 8772 01ca 13       		.uleb128 0x13
 8773 01cb 00       		.byte	0
 8774 01cc 00       		.byte	0
 8775 01cd 26       		.uleb128 0x26
 8776 01ce 34       		.uleb128 0x34
 8777 01cf 00       		.byte	0
 8778 01d0 03       		.uleb128 0x3
 8779 01d1 08       		.uleb128 0x8
 8780 01d2 3A       		.uleb128 0x3a
 8781 01d3 0B       		.uleb128 0xb
 8782 01d4 3B       		.uleb128 0x3b
 8783 01d5 05       		.uleb128 0x5
 8784 01d6 49       		.uleb128 0x49
 8785 01d7 13       		.uleb128 0x13
 8786 01d8 3F       		.uleb128 0x3f
 8787 01d9 19       		.uleb128 0x19
 8788 01da 3C       		.uleb128 0x3c
 8789 01db 19       		.uleb128 0x19
 8790 01dc 00       		.byte	0
 8791 01dd 00       		.byte	0
 8792 01de 27       		.uleb128 0x27
 8793 01df 2E       		.uleb128 0x2e
 8794 01e0 01       		.byte	0x1
 8795 01e1 3F       		.uleb128 0x3f
 8796 01e2 19       		.uleb128 0x19
 8797 01e3 03       		.uleb128 0x3
 8798 01e4 0E       		.uleb128 0xe
 8799 01e5 3A       		.uleb128 0x3a
 8800 01e6 0B       		.uleb128 0xb
 8801 01e7 3B       		.uleb128 0x3b
 8802 01e8 05       		.uleb128 0x5
 8803 01e9 27       		.uleb128 0x27
 8804 01ea 19       		.uleb128 0x19
 8805 01eb 11       		.uleb128 0x11
 8806 01ec 01       		.uleb128 0x1
 8807 01ed 12       		.uleb128 0x12
 8808 01ee 06       		.uleb128 0x6
 8809 01ef 40       		.uleb128 0x40
 8810 01f0 18       		.uleb128 0x18
 8811 01f1 9642     		.uleb128 0x2116
 8812 01f3 19       		.uleb128 0x19
 8813 01f4 01       		.uleb128 0x1
 8814 01f5 13       		.uleb128 0x13
 8815 01f6 00       		.byte	0
 8816 01f7 00       		.byte	0
 8817 01f8 28       		.uleb128 0x28
 8818 01f9 05       		.uleb128 0x5
 8819 01fa 00       		.byte	0
 8820 01fb 03       		.uleb128 0x3
 8821 01fc 08       		.uleb128 0x8
 8822 01fd 3A       		.uleb128 0x3a
ARM GAS  C:\Users\PCHAUT~1\AppData\Local\Temp\ccxXBCq6.s 			page 157


 8823 01fe 0B       		.uleb128 0xb
 8824 01ff 3B       		.uleb128 0x3b
 8825 0200 05       		.uleb128 0x5
 8826 0201 49       		.uleb128 0x49
 8827 0202 13       		.uleb128 0x13
 8828 0203 02       		.uleb128 0x2
 8829 0204 18       		.uleb128 0x18
 8830 0205 00       		.byte	0
 8831 0206 00       		.byte	0
 8832 0207 29       		.uleb128 0x29
 8833 0208 34       		.uleb128 0x34
 8834 0209 00       		.byte	0
 8835 020a 03       		.uleb128 0x3
 8836 020b 0E       		.uleb128 0xe
 8837 020c 49       		.uleb128 0x49
 8838 020d 13       		.uleb128 0x13
 8839 020e 34       		.uleb128 0x34
 8840 020f 19       		.uleb128 0x19
 8841 0210 02       		.uleb128 0x2
 8842 0211 18       		.uleb128 0x18
 8843 0212 00       		.byte	0
 8844 0213 00       		.byte	0
 8845 0214 2A       		.uleb128 0x2a
 8846 0215 2E       		.uleb128 0x2e
 8847 0216 01       		.byte	0x1
 8848 0217 3F       		.uleb128 0x3f
 8849 0218 19       		.uleb128 0x19
 8850 0219 03       		.uleb128 0x3
 8851 021a 0E       		.uleb128 0xe
 8852 021b 3A       		.uleb128 0x3a
 8853 021c 0B       		.uleb128 0xb
 8854 021d 3B       		.uleb128 0x3b
 8855 021e 05       		.uleb128 0x5
 8856 021f 27       		.uleb128 0x27
 8857 0220 19       		.uleb128 0x19
 8858 0221 49       		.uleb128 0x49
 8859 0222 13       		.uleb128 0x13
 8860 0223 11       		.uleb128 0x11
 8861 0224 01       		.uleb128 0x1
 8862 0225 12       		.uleb128 0x12
 8863 0226 06       		.uleb128 0x6
 8864 0227 40       		.uleb128 0x40
 8865 0228 18       		.uleb128 0x18
 8866 0229 9642     		.uleb128 0x2116
 8867 022b 19       		.uleb128 0x19
 8868 022c 01       		.uleb128 0x1
 8869 022d 13       		.uleb128 0x13
 8870 022e 00       		.byte	0
 8871 022f 00       		.byte	0
 8872 0230 2B       		.uleb128 0x2b
 8873 0231 05       		.uleb128 0x5
 8874 0232 00       		.byte	0
 8875 0233 03       		.uleb128 0x3
 8876 0234 0E       		.uleb128 0xe
 8877 0235 3A       		.uleb128 0x3a
 8878 0236 0B       		.uleb128 0xb
 8879 0237 3B       		.uleb128 0x3b
ARM GAS  C:\Users\PCHAUT~1\AppData\Local\Temp\ccxXBCq6.s 			page 158


 8880 0238 05       		.uleb128 0x5
 8881 0239 49       		.uleb128 0x49
 8882 023a 13       		.uleb128 0x13
 8883 023b 02       		.uleb128 0x2
 8884 023c 18       		.uleb128 0x18
 8885 023d 00       		.byte	0
 8886 023e 00       		.byte	0
 8887 023f 2C       		.uleb128 0x2c
 8888 0240 34       		.uleb128 0x34
 8889 0241 00       		.byte	0
 8890 0242 03       		.uleb128 0x3
 8891 0243 08       		.uleb128 0x8
 8892 0244 3A       		.uleb128 0x3a
 8893 0245 0B       		.uleb128 0xb
 8894 0246 3B       		.uleb128 0x3b
 8895 0247 05       		.uleb128 0x5
 8896 0248 49       		.uleb128 0x49
 8897 0249 13       		.uleb128 0x13
 8898 024a 02       		.uleb128 0x2
 8899 024b 18       		.uleb128 0x18
 8900 024c 00       		.byte	0
 8901 024d 00       		.byte	0
 8902 024e 2D       		.uleb128 0x2d
 8903 024f 2E       		.uleb128 0x2e
 8904 0250 01       		.byte	0x1
 8905 0251 3F       		.uleb128 0x3f
 8906 0252 19       		.uleb128 0x19
 8907 0253 03       		.uleb128 0x3
 8908 0254 0E       		.uleb128 0xe
 8909 0255 3A       		.uleb128 0x3a
 8910 0256 0B       		.uleb128 0xb
 8911 0257 3B       		.uleb128 0x3b
 8912 0258 0B       		.uleb128 0xb
 8913 0259 27       		.uleb128 0x27
 8914 025a 19       		.uleb128 0x19
 8915 025b 11       		.uleb128 0x11
 8916 025c 01       		.uleb128 0x1
 8917 025d 12       		.uleb128 0x12
 8918 025e 06       		.uleb128 0x6
 8919 025f 40       		.uleb128 0x40
 8920 0260 18       		.uleb128 0x18
 8921 0261 9642     		.uleb128 0x2116
 8922 0263 19       		.uleb128 0x19
 8923 0264 01       		.uleb128 0x1
 8924 0265 13       		.uleb128 0x13
 8925 0266 00       		.byte	0
 8926 0267 00       		.byte	0
 8927 0268 2E       		.uleb128 0x2e
 8928 0269 05       		.uleb128 0x5
 8929 026a 00       		.byte	0
 8930 026b 03       		.uleb128 0x3
 8931 026c 08       		.uleb128 0x8
 8932 026d 3A       		.uleb128 0x3a
 8933 026e 0B       		.uleb128 0xb
 8934 026f 3B       		.uleb128 0x3b
 8935 0270 0B       		.uleb128 0xb
 8936 0271 49       		.uleb128 0x49
ARM GAS  C:\Users\PCHAUT~1\AppData\Local\Temp\ccxXBCq6.s 			page 159


 8937 0272 13       		.uleb128 0x13
 8938 0273 02       		.uleb128 0x2
 8939 0274 18       		.uleb128 0x18
 8940 0275 00       		.byte	0
 8941 0276 00       		.byte	0
 8942 0277 2F       		.uleb128 0x2f
 8943 0278 05       		.uleb128 0x5
 8944 0279 00       		.byte	0
 8945 027a 03       		.uleb128 0x3
 8946 027b 0E       		.uleb128 0xe
 8947 027c 3A       		.uleb128 0x3a
 8948 027d 0B       		.uleb128 0xb
 8949 027e 3B       		.uleb128 0x3b
 8950 027f 0B       		.uleb128 0xb
 8951 0280 49       		.uleb128 0x49
 8952 0281 13       		.uleb128 0x13
 8953 0282 02       		.uleb128 0x2
 8954 0283 18       		.uleb128 0x18
 8955 0284 00       		.byte	0
 8956 0285 00       		.byte	0
 8957 0286 30       		.uleb128 0x30
 8958 0287 34       		.uleb128 0x34
 8959 0288 00       		.byte	0
 8960 0289 03       		.uleb128 0x3
 8961 028a 0E       		.uleb128 0xe
 8962 028b 3A       		.uleb128 0x3a
 8963 028c 0B       		.uleb128 0xb
 8964 028d 3B       		.uleb128 0x3b
 8965 028e 0B       		.uleb128 0xb
 8966 028f 49       		.uleb128 0x49
 8967 0290 13       		.uleb128 0x13
 8968 0291 02       		.uleb128 0x2
 8969 0292 18       		.uleb128 0x18
 8970 0293 00       		.byte	0
 8971 0294 00       		.byte	0
 8972 0295 31       		.uleb128 0x31
 8973 0296 34       		.uleb128 0x34
 8974 0297 00       		.byte	0
 8975 0298 03       		.uleb128 0x3
 8976 0299 08       		.uleb128 0x8
 8977 029a 3A       		.uleb128 0x3a
 8978 029b 0B       		.uleb128 0xb
 8979 029c 3B       		.uleb128 0x3b
 8980 029d 0B       		.uleb128 0xb
 8981 029e 49       		.uleb128 0x49
 8982 029f 13       		.uleb128 0x13
 8983 02a0 02       		.uleb128 0x2
 8984 02a1 18       		.uleb128 0x18
 8985 02a2 00       		.byte	0
 8986 02a3 00       		.byte	0
 8987 02a4 32       		.uleb128 0x32
 8988 02a5 2E       		.uleb128 0x2e
 8989 02a6 01       		.byte	0x1
 8990 02a7 3F       		.uleb128 0x3f
 8991 02a8 19       		.uleb128 0x19
 8992 02a9 03       		.uleb128 0x3
 8993 02aa 0E       		.uleb128 0xe
ARM GAS  C:\Users\PCHAUT~1\AppData\Local\Temp\ccxXBCq6.s 			page 160


 8994 02ab 3A       		.uleb128 0x3a
 8995 02ac 0B       		.uleb128 0xb
 8996 02ad 3B       		.uleb128 0x3b
 8997 02ae 0B       		.uleb128 0xb
 8998 02af 27       		.uleb128 0x27
 8999 02b0 19       		.uleb128 0x19
 9000 02b1 49       		.uleb128 0x49
 9001 02b2 13       		.uleb128 0x13
 9002 02b3 11       		.uleb128 0x11
 9003 02b4 01       		.uleb128 0x1
 9004 02b5 12       		.uleb128 0x12
 9005 02b6 06       		.uleb128 0x6
 9006 02b7 40       		.uleb128 0x40
 9007 02b8 18       		.uleb128 0x18
 9008 02b9 9642     		.uleb128 0x2116
 9009 02bb 19       		.uleb128 0x19
 9010 02bc 01       		.uleb128 0x1
 9011 02bd 13       		.uleb128 0x13
 9012 02be 00       		.byte	0
 9013 02bf 00       		.byte	0
 9014 02c0 33       		.uleb128 0x33
 9015 02c1 0B       		.uleb128 0xb
 9016 02c2 01       		.byte	0x1
 9017 02c3 11       		.uleb128 0x11
 9018 02c4 01       		.uleb128 0x1
 9019 02c5 12       		.uleb128 0x12
 9020 02c6 06       		.uleb128 0x6
 9021 02c7 00       		.byte	0
 9022 02c8 00       		.byte	0
 9023 02c9 34       		.uleb128 0x34
 9024 02ca 2E       		.uleb128 0x2e
 9025 02cb 01       		.byte	0x1
 9026 02cc 03       		.uleb128 0x3
 9027 02cd 0E       		.uleb128 0xe
 9028 02ce 3A       		.uleb128 0x3a
 9029 02cf 0B       		.uleb128 0xb
 9030 02d0 3B       		.uleb128 0x3b
 9031 02d1 0B       		.uleb128 0xb
 9032 02d2 27       		.uleb128 0x27
 9033 02d3 19       		.uleb128 0x19
 9034 02d4 49       		.uleb128 0x49
 9035 02d5 13       		.uleb128 0x13
 9036 02d6 11       		.uleb128 0x11
 9037 02d7 01       		.uleb128 0x1
 9038 02d8 12       		.uleb128 0x12
 9039 02d9 06       		.uleb128 0x6
 9040 02da 40       		.uleb128 0x40
 9041 02db 18       		.uleb128 0x18
 9042 02dc 9642     		.uleb128 0x2116
 9043 02de 19       		.uleb128 0x19
 9044 02df 01       		.uleb128 0x1
 9045 02e0 13       		.uleb128 0x13
 9046 02e1 00       		.byte	0
 9047 02e2 00       		.byte	0
 9048 02e3 35       		.uleb128 0x35
 9049 02e4 2E       		.uleb128 0x2e
 9050 02e5 01       		.byte	0x1
ARM GAS  C:\Users\PCHAUT~1\AppData\Local\Temp\ccxXBCq6.s 			page 161


 9051 02e6 03       		.uleb128 0x3
 9052 02e7 0E       		.uleb128 0xe
 9053 02e8 3A       		.uleb128 0x3a
 9054 02e9 0B       		.uleb128 0xb
 9055 02ea 3B       		.uleb128 0x3b
 9056 02eb 05       		.uleb128 0x5
 9057 02ec 27       		.uleb128 0x27
 9058 02ed 19       		.uleb128 0x19
 9059 02ee 11       		.uleb128 0x11
 9060 02ef 01       		.uleb128 0x1
 9061 02f0 12       		.uleb128 0x12
 9062 02f1 06       		.uleb128 0x6
 9063 02f2 40       		.uleb128 0x40
 9064 02f3 18       		.uleb128 0x18
 9065 02f4 9642     		.uleb128 0x2116
 9066 02f6 19       		.uleb128 0x19
 9067 02f7 01       		.uleb128 0x1
 9068 02f8 13       		.uleb128 0x13
 9069 02f9 00       		.byte	0
 9070 02fa 00       		.byte	0
 9071 02fb 36       		.uleb128 0x36
 9072 02fc 2E       		.uleb128 0x2e
 9073 02fd 00       		.byte	0
 9074 02fe 03       		.uleb128 0x3
 9075 02ff 0E       		.uleb128 0xe
 9076 0300 3A       		.uleb128 0x3a
 9077 0301 0B       		.uleb128 0xb
 9078 0302 3B       		.uleb128 0x3b
 9079 0303 05       		.uleb128 0x5
 9080 0304 27       		.uleb128 0x27
 9081 0305 19       		.uleb128 0x19
 9082 0306 11       		.uleb128 0x11
 9083 0307 01       		.uleb128 0x1
 9084 0308 12       		.uleb128 0x12
 9085 0309 06       		.uleb128 0x6
 9086 030a 40       		.uleb128 0x40
 9087 030b 18       		.uleb128 0x18
 9088 030c 9642     		.uleb128 0x2116
 9089 030e 19       		.uleb128 0x19
 9090 030f 00       		.byte	0
 9091 0310 00       		.byte	0
 9092 0311 37       		.uleb128 0x37
 9093 0312 1D       		.uleb128 0x1d
 9094 0313 01       		.byte	0x1
 9095 0314 31       		.uleb128 0x31
 9096 0315 13       		.uleb128 0x13
 9097 0316 11       		.uleb128 0x11
 9098 0317 01       		.uleb128 0x1
 9099 0318 12       		.uleb128 0x12
 9100 0319 06       		.uleb128 0x6
 9101 031a 58       		.uleb128 0x58
 9102 031b 0B       		.uleb128 0xb
 9103 031c 59       		.uleb128 0x59
 9104 031d 05       		.uleb128 0x5
 9105 031e 00       		.byte	0
 9106 031f 00       		.byte	0
 9107 0320 38       		.uleb128 0x38
ARM GAS  C:\Users\PCHAUT~1\AppData\Local\Temp\ccxXBCq6.s 			page 162


 9108 0321 05       		.uleb128 0x5
 9109 0322 00       		.byte	0
 9110 0323 31       		.uleb128 0x31
 9111 0324 13       		.uleb128 0x13
 9112 0325 02       		.uleb128 0x2
 9113 0326 18       		.uleb128 0x18
 9114 0327 00       		.byte	0
 9115 0328 00       		.byte	0
 9116 0329 39       		.uleb128 0x39
 9117 032a 2E       		.uleb128 0x2e
 9118 032b 01       		.byte	0x1
 9119 032c 03       		.uleb128 0x3
 9120 032d 0E       		.uleb128 0xe
 9121 032e 3A       		.uleb128 0x3a
 9122 032f 0B       		.uleb128 0xb
 9123 0330 3B       		.uleb128 0x3b
 9124 0331 05       		.uleb128 0x5
 9125 0332 27       		.uleb128 0x27
 9126 0333 19       		.uleb128 0x19
 9127 0334 20       		.uleb128 0x20
 9128 0335 0B       		.uleb128 0xb
 9129 0336 00       		.byte	0
 9130 0337 00       		.byte	0
 9131 0338 3A       		.uleb128 0x3a
 9132 0339 05       		.uleb128 0x5
 9133 033a 00       		.byte	0
 9134 033b 03       		.uleb128 0x3
 9135 033c 0E       		.uleb128 0xe
 9136 033d 3A       		.uleb128 0x3a
 9137 033e 0B       		.uleb128 0xb
 9138 033f 3B       		.uleb128 0x3b
 9139 0340 05       		.uleb128 0x5
 9140 0341 49       		.uleb128 0x49
 9141 0342 13       		.uleb128 0x13
 9142 0343 00       		.byte	0
 9143 0344 00       		.byte	0
 9144 0345 00       		.byte	0
 9145              		.section	.debug_aranges,"",%progbits
 9146 0000 B4010000 		.4byte	0x1b4
 9147 0004 0200     		.2byte	0x2
 9148 0006 00000000 		.4byte	.Ldebug_info0
 9149 000a 04       		.byte	0x4
 9150 000b 00       		.byte	0
 9151 000c 0000     		.2byte	0
 9152 000e 0000     		.2byte	0
 9153 0010 00000000 		.4byte	.LFB116
 9154 0014 30000000 		.4byte	.LFE116-.LFB116
 9155 0018 00000000 		.4byte	.LFB117
 9156 001c 30000000 		.4byte	.LFE117-.LFB117
 9157 0020 00000000 		.4byte	.LFB145
 9158 0024 30000000 		.4byte	.LFE145-.LFB145
 9159 0028 00000000 		.4byte	.LFB146
 9160 002c 58000000 		.4byte	.LFE146-.LFB146
 9161 0030 00000000 		.4byte	.LFB250
 9162 0034 54000000 		.4byte	.LFE250-.LFB250
 9163 0038 00000000 		.4byte	.LFB251
 9164 003c 78000000 		.4byte	.LFE251-.LFB251
ARM GAS  C:\Users\PCHAUT~1\AppData\Local\Temp\ccxXBCq6.s 			page 163


 9165 0040 00000000 		.4byte	.LFB252
 9166 0044 78000000 		.4byte	.LFE252-.LFB252
 9167 0048 00000000 		.4byte	.LFB253
 9168 004c 70000000 		.4byte	.LFE253-.LFB253
 9169 0050 00000000 		.4byte	.LFB254
 9170 0054 74000000 		.4byte	.LFE254-.LFB254
 9171 0058 00000000 		.4byte	.LFB255
 9172 005c 3C000000 		.4byte	.LFE255-.LFB255
 9173 0060 00000000 		.4byte	.LFB256
 9174 0064 90000000 		.4byte	.LFE256-.LFB256
 9175 0068 00000000 		.4byte	.LFB257
 9176 006c 3C000000 		.4byte	.LFE257-.LFB257
 9177 0070 00000000 		.4byte	.LFB258
 9178 0074 5C000000 		.4byte	.LFE258-.LFB258
 9179 0078 00000000 		.4byte	.LFB259
 9180 007c 40000000 		.4byte	.LFE259-.LFB259
 9181 0080 00000000 		.4byte	.LFB260
 9182 0084 3C000000 		.4byte	.LFE260-.LFB260
 9183 0088 00000000 		.4byte	.LFB261
 9184 008c 44000000 		.4byte	.LFE261-.LFB261
 9185 0090 00000000 		.4byte	.LFB262
 9186 0094 74000000 		.4byte	.LFE262-.LFB262
 9187 0098 00000000 		.4byte	.LFB263
 9188 009c 74000000 		.4byte	.LFE263-.LFB263
 9189 00a0 00000000 		.4byte	.LFB264
 9190 00a4 3C000000 		.4byte	.LFE264-.LFB264
 9191 00a8 00000000 		.4byte	.LFB265
 9192 00ac 4C000000 		.4byte	.LFE265-.LFB265
 9193 00b0 00000000 		.4byte	.LFB266
 9194 00b4 38000000 		.4byte	.LFE266-.LFB266
 9195 00b8 00000000 		.4byte	.LFB267
 9196 00bc 64000000 		.4byte	.LFE267-.LFB267
 9197 00c0 00000000 		.4byte	.LFB268
 9198 00c4 50000000 		.4byte	.LFE268-.LFB268
 9199 00c8 00000000 		.4byte	.LFB269
 9200 00cc 3C000000 		.4byte	.LFE269-.LFB269
 9201 00d0 00000000 		.4byte	.LFB270
 9202 00d4 48000000 		.4byte	.LFE270-.LFB270
 9203 00d8 00000000 		.4byte	.LFB271
 9204 00dc 34000000 		.4byte	.LFE271-.LFB271
 9205 00e0 00000000 		.4byte	.LFB272
 9206 00e4 5C000000 		.4byte	.LFE272-.LFB272
 9207 00e8 00000000 		.4byte	.LFB273
 9208 00ec 50000000 		.4byte	.LFE273-.LFB273
 9209 00f0 00000000 		.4byte	.LFB274
 9210 00f4 3C000000 		.4byte	.LFE274-.LFB274
 9211 00f8 00000000 		.4byte	.LFB275
 9212 00fc 4C000000 		.4byte	.LFE275-.LFB275
 9213 0100 00000000 		.4byte	.LFB276
 9214 0104 54000000 		.4byte	.LFE276-.LFB276
 9215 0108 00000000 		.4byte	.LFB277
 9216 010c 34000000 		.4byte	.LFE277-.LFB277
 9217 0110 00000000 		.4byte	.LFB278
 9218 0114 60000000 		.4byte	.LFE278-.LFB278
 9219 0118 00000000 		.4byte	.LFB279
 9220 011c 54000000 		.4byte	.LFE279-.LFB279
 9221 0120 00000000 		.4byte	.LFB280
ARM GAS  C:\Users\PCHAUT~1\AppData\Local\Temp\ccxXBCq6.s 			page 164


 9222 0124 4C000000 		.4byte	.LFE280-.LFB280
 9223 0128 00000000 		.4byte	.LFB281
 9224 012c 3C000000 		.4byte	.LFE281-.LFB281
 9225 0130 00000000 		.4byte	.LFB282
 9226 0134 38000000 		.4byte	.LFE282-.LFB282
 9227 0138 00000000 		.4byte	.LFB283
 9228 013c 84000000 		.4byte	.LFE283-.LFB283
 9229 0140 00000000 		.4byte	.LFB284
 9230 0144 78000000 		.4byte	.LFE284-.LFB284
 9231 0148 00000000 		.4byte	.LFB285
 9232 014c 54000000 		.4byte	.LFE285-.LFB285
 9233 0150 00000000 		.4byte	.LFB286
 9234 0154 74000000 		.4byte	.LFE286-.LFB286
 9235 0158 00000000 		.4byte	.LFB287
 9236 015c 3C000000 		.4byte	.LFE287-.LFB287
 9237 0160 00000000 		.4byte	.LFB288
 9238 0164 38000000 		.4byte	.LFE288-.LFB288
 9239 0168 00000000 		.4byte	.LFB289
 9240 016c 90000000 		.4byte	.LFE289-.LFB289
 9241 0170 00000000 		.4byte	.LFB290
 9242 0174 94000000 		.4byte	.LFE290-.LFB290
 9243 0178 00000000 		.4byte	.LFB291
 9244 017c 54000000 		.4byte	.LFE291-.LFB291
 9245 0180 00000000 		.4byte	.LFB292
 9246 0184 84000000 		.4byte	.LFE292-.LFB292
 9247 0188 00000000 		.4byte	.LFB293
 9248 018c 40000000 		.4byte	.LFE293-.LFB293
 9249 0190 00000000 		.4byte	.LFB294
 9250 0194 44000000 		.4byte	.LFE294-.LFB294
 9251 0198 00000000 		.4byte	.LFB295
 9252 019c B4000000 		.4byte	.LFE295-.LFB295
 9253 01a0 00000000 		.4byte	.LFB296
 9254 01a4 3C000000 		.4byte	.LFE296-.LFB296
 9255 01a8 00000000 		.4byte	.LFB297
 9256 01ac 78000000 		.4byte	.LFE297-.LFB297
 9257 01b0 00000000 		.4byte	0
 9258 01b4 00000000 		.4byte	0
 9259              		.section	.debug_ranges,"",%progbits
 9260              	.Ldebug_ranges0:
 9261 0000 00000000 		.4byte	.LFB116
 9262 0004 30000000 		.4byte	.LFE116
 9263 0008 00000000 		.4byte	.LFB117
 9264 000c 30000000 		.4byte	.LFE117
 9265 0010 00000000 		.4byte	.LFB145
 9266 0014 30000000 		.4byte	.LFE145
 9267 0018 00000000 		.4byte	.LFB146
 9268 001c 58000000 		.4byte	.LFE146
 9269 0020 00000000 		.4byte	.LFB250
 9270 0024 54000000 		.4byte	.LFE250
 9271 0028 00000000 		.4byte	.LFB251
 9272 002c 78000000 		.4byte	.LFE251
 9273 0030 00000000 		.4byte	.LFB252
 9274 0034 78000000 		.4byte	.LFE252
 9275 0038 00000000 		.4byte	.LFB253
 9276 003c 70000000 		.4byte	.LFE253
 9277 0040 00000000 		.4byte	.LFB254
 9278 0044 74000000 		.4byte	.LFE254
ARM GAS  C:\Users\PCHAUT~1\AppData\Local\Temp\ccxXBCq6.s 			page 165


 9279 0048 00000000 		.4byte	.LFB255
 9280 004c 3C000000 		.4byte	.LFE255
 9281 0050 00000000 		.4byte	.LFB256
 9282 0054 90000000 		.4byte	.LFE256
 9283 0058 00000000 		.4byte	.LFB257
 9284 005c 3C000000 		.4byte	.LFE257
 9285 0060 00000000 		.4byte	.LFB258
 9286 0064 5C000000 		.4byte	.LFE258
 9287 0068 00000000 		.4byte	.LFB259
 9288 006c 40000000 		.4byte	.LFE259
 9289 0070 00000000 		.4byte	.LFB260
 9290 0074 3C000000 		.4byte	.LFE260
 9291 0078 00000000 		.4byte	.LFB261
 9292 007c 44000000 		.4byte	.LFE261
 9293 0080 00000000 		.4byte	.LFB262
 9294 0084 74000000 		.4byte	.LFE262
 9295 0088 00000000 		.4byte	.LFB263
 9296 008c 74000000 		.4byte	.LFE263
 9297 0090 00000000 		.4byte	.LFB264
 9298 0094 3C000000 		.4byte	.LFE264
 9299 0098 00000000 		.4byte	.LFB265
 9300 009c 4C000000 		.4byte	.LFE265
 9301 00a0 00000000 		.4byte	.LFB266
 9302 00a4 38000000 		.4byte	.LFE266
 9303 00a8 00000000 		.4byte	.LFB267
 9304 00ac 64000000 		.4byte	.LFE267
 9305 00b0 00000000 		.4byte	.LFB268
 9306 00b4 50000000 		.4byte	.LFE268
 9307 00b8 00000000 		.4byte	.LFB269
 9308 00bc 3C000000 		.4byte	.LFE269
 9309 00c0 00000000 		.4byte	.LFB270
 9310 00c4 48000000 		.4byte	.LFE270
 9311 00c8 00000000 		.4byte	.LFB271
 9312 00cc 34000000 		.4byte	.LFE271
 9313 00d0 00000000 		.4byte	.LFB272
 9314 00d4 5C000000 		.4byte	.LFE272
 9315 00d8 00000000 		.4byte	.LFB273
 9316 00dc 50000000 		.4byte	.LFE273
 9317 00e0 00000000 		.4byte	.LFB274
 9318 00e4 3C000000 		.4byte	.LFE274
 9319 00e8 00000000 		.4byte	.LFB275
 9320 00ec 4C000000 		.4byte	.LFE275
 9321 00f0 00000000 		.4byte	.LFB276
 9322 00f4 54000000 		.4byte	.LFE276
 9323 00f8 00000000 		.4byte	.LFB277
 9324 00fc 34000000 		.4byte	.LFE277
 9325 0100 00000000 		.4byte	.LFB278
 9326 0104 60000000 		.4byte	.LFE278
 9327 0108 00000000 		.4byte	.LFB279
 9328 010c 54000000 		.4byte	.LFE279
 9329 0110 00000000 		.4byte	.LFB280
 9330 0114 4C000000 		.4byte	.LFE280
 9331 0118 00000000 		.4byte	.LFB281
 9332 011c 3C000000 		.4byte	.LFE281
 9333 0120 00000000 		.4byte	.LFB282
 9334 0124 38000000 		.4byte	.LFE282
 9335 0128 00000000 		.4byte	.LFB283
ARM GAS  C:\Users\PCHAUT~1\AppData\Local\Temp\ccxXBCq6.s 			page 166


 9336 012c 84000000 		.4byte	.LFE283
 9337 0130 00000000 		.4byte	.LFB284
 9338 0134 78000000 		.4byte	.LFE284
 9339 0138 00000000 		.4byte	.LFB285
 9340 013c 54000000 		.4byte	.LFE285
 9341 0140 00000000 		.4byte	.LFB286
 9342 0144 74000000 		.4byte	.LFE286
 9343 0148 00000000 		.4byte	.LFB287
 9344 014c 3C000000 		.4byte	.LFE287
 9345 0150 00000000 		.4byte	.LFB288
 9346 0154 38000000 		.4byte	.LFE288
 9347 0158 00000000 		.4byte	.LFB289
 9348 015c 90000000 		.4byte	.LFE289
 9349 0160 00000000 		.4byte	.LFB290
 9350 0164 94000000 		.4byte	.LFE290
 9351 0168 00000000 		.4byte	.LFB291
 9352 016c 54000000 		.4byte	.LFE291
 9353 0170 00000000 		.4byte	.LFB292
 9354 0174 84000000 		.4byte	.LFE292
 9355 0178 00000000 		.4byte	.LFB293
 9356 017c 40000000 		.4byte	.LFE293
 9357 0180 00000000 		.4byte	.LFB294
 9358 0184 44000000 		.4byte	.LFE294
 9359 0188 00000000 		.4byte	.LFB295
 9360 018c B4000000 		.4byte	.LFE295
 9361 0190 00000000 		.4byte	.LFB296
 9362 0194 3C000000 		.4byte	.LFE296
 9363 0198 00000000 		.4byte	.LFB297
 9364 019c 78000000 		.4byte	.LFE297
 9365 01a0 00000000 		.4byte	0
 9366 01a4 00000000 		.4byte	0
 9367              		.section	.debug_line,"",%progbits
 9368              	.Ldebug_line0:
 9369 0000 0A0B0000 		.section	.debug_str,"MS",%progbits,1
 9369      0200BE04 
 9369      00000201 
 9369      FB0E0D00 
 9369      01010101 
 9370              	.LASF343:
 9371 0000 70617261 		.ascii	"parameter_namespace_declare\000"
 9371      6D657465 
 9371      725F6E61 
 9371      6D657370 
 9371      6163655F 
 9372              	.LASF143:
 9373 001c 64656669 		.ascii	"defined\000"
 9373      6E656400 
 9374              	.LASF188:
 9375 0024 705F7374 		.ascii	"p_stats\000"
 9375      61747300 
 9376              	.LASF4:
 9377 002c 73697A65 		.ascii	"size_t\000"
 9377      5F7400
 9378              	.LASF348:
 9379 0033 6E735F69 		.ascii	"ns_id_len\000"
 9379      645F6C65 
 9379      6E00
ARM GAS  C:\Users\PCHAUT~1\AppData\Local\Temp\ccxXBCq6.s 			page 167


 9380              	.LASF124:
 9381 003d 5F5F6C6F 		.ascii	"__locale_t\000"
 9381      63616C65 
 9381      5F7400
 9382              	.LASF142:
 9383 0048 6368616E 		.ascii	"changed\000"
 9383      67656400 
 9384              	.LASF23:
 9385 0050 5F5F7661 		.ascii	"__value\000"
 9385      6C756500 
 9386              	.LASF279:
 9387 0058 63665F6F 		.ascii	"cf_off_name\000"
 9387      66665F6E 
 9387      616D6500 
 9388              	.LASF165:
 9389 0064 73797374 		.ascii	"systime_t\000"
 9389      696D655F 
 9389      7400
 9390              	.LASF296:
 9391 006e 70617261 		.ascii	"parameter_string_declare_with_default\000"
 9391      6D657465 
 9391      725F7374 
 9391      72696E67 
 9391      5F646563 
 9392              	.LASF92:
 9393 0094 5F5F7366 		.ascii	"__sf\000"
 9393      00
 9394              	.LASF268:
 9395 0099 63685F69 		.ascii	"ch_identifier\000"
 9395      64656E74 
 9395      69666965 
 9395      7200
 9396              	.LASF171:
 9397 00a7 705F6374 		.ascii	"p_ctx\000"
 9397      7800
 9398              	.LASF59:
 9399 00ad 5F726561 		.ascii	"_read\000"
 9399      6400
 9400              	.LASF160:
 9401 00b3 74707269 		.ascii	"tprio_t\000"
 9401      6F5F7400 
 9402              	.LASF287:
 9403 00bb 63685F64 		.ascii	"ch_debug\000"
 9403      65627567 
 9403      00
 9404              	.LASF182:
 9405 00c4 705F6D73 		.ascii	"p_msgqueue\000"
 9405      67717565 
 9405      756500
 9406              	.LASF60:
 9407 00cf 5F777269 		.ascii	"_write\000"
 9407      746500
 9408              	.LASF198:
 9409 00d6 725F6374 		.ascii	"r_ctx\000"
 9409      7800
 9410              	.LASF129:
 9411 00dc 696E7433 		.ascii	"int32_t\000"
ARM GAS  C:\Users\PCHAUT~1\AppData\Local\Temp\ccxXBCq6.s 			page 168


 9411      325F7400 
 9412              	.LASF103:
 9413 00e4 5F617363 		.ascii	"_asctime_buf\000"
 9413      74696D65 
 9413      5F627566 
 9413      00
 9414              	.LASF86:
 9415 00f1 5F637674 		.ascii	"_cvtlen\000"
 9415      6C656E00 
 9416              	.LASF276:
 9417 00f9 63665F6F 		.ascii	"cf_off_ctx\000"
 9417      66665F63 
 9417      747800
 9418              	.LASF202:
 9419 0104 76746675 		.ascii	"vtfunc_t\000"
 9419      6E635F74 
 9419      00
 9420              	.LASF292:
 9421 010d 5F5F6675 		.ascii	"__func__\000"
 9421      6E635F5F 
 9421      00
 9422              	.LASF211:
 9423 0116 63685F76 		.ascii	"ch_virtual_timers_list\000"
 9423      69727475 
 9423      616C5F74 
 9423      696D6572 
 9423      735F6C69 
 9424              	.LASF327:
 9425 012d 70617261 		.ascii	"parameter_scalar_declare_with_default\000"
 9425      6D657465 
 9425      725F7363 
 9425      616C6172 
 9425      5F646563 
 9426              	.LASF122:
 9427 0153 5F756E75 		.ascii	"_unused\000"
 9427      73656400 
 9428              	.LASF33:
 9429 015b 5F5F746D 		.ascii	"__tm\000"
 9429      00
 9430              	.LASF118:
 9431 0160 5F776373 		.ascii	"_wcsrtombs_state\000"
 9431      72746F6D 
 9431      62735F73 
 9431      74617465 
 9431      00
 9432              	.LASF64:
 9433 0171 5F6E6275 		.ascii	"_nbuf\000"
 9433      6600
 9434              	.LASF34:
 9435 0177 5F5F746D 		.ascii	"__tm_sec\000"
 9435      5F736563 
 9435      00
 9436              	.LASF346:
 9437 0180 6765745F 		.ascii	"get_subnamespace\000"
 9437      7375626E 
 9437      616D6573 
 9437      70616365 
ARM GAS  C:\Users\PCHAUT~1\AppData\Local\Temp\ccxXBCq6.s 			page 169


 9437      00
 9438              	.LASF111:
 9439 0191 5F6C3634 		.ascii	"_l64a_buf\000"
 9439      615F6275 
 9439      6600
 9440              	.LASF328:
 9441 019b 70617261 		.ascii	"parameter_scalar_declare\000"
 9441      6D657465 
 9441      725F7363 
 9441      616C6172 
 9441      5F646563 
 9442              	.LASF309:
 9443 01b4 70617261 		.ascii	"parameter_vector_get\000"
 9443      6D657465 
 9443      725F7665 
 9443      63746F72 
 9443      5F676574 
 9444              	.LASF148:
 9445 01c9 5F706172 		.ascii	"_param_val_vector_s\000"
 9445      616D5F76 
 9445      616C5F76 
 9445      6563746F 
 9445      725F7300 
 9446              	.LASF68:
 9447 01dd 5F6C6F63 		.ascii	"_lock\000"
 9447      6B00
 9448              	.LASF217:
 9449 01e3 6C6F636B 		.ascii	"lock_cnt\000"
 9449      5F636E74 
 9449      00
 9450              	.LASF316:
 9451 01ec 70617261 		.ascii	"parameter_boolean_declare_with_default\000"
 9451      6D657465 
 9451      725F626F 
 9451      6F6C6561 
 9451      6E5F6465 
 9452              	.LASF272:
 9453 0213 63685F70 		.ascii	"ch_ptrsize\000"
 9453      74727369 
 9453      7A6500
 9454              	.LASF144:
 9455 021e 74797065 		.ascii	"type\000"
 9455      00
 9456              	.LASF99:
 9457 0223 5F6D756C 		.ascii	"_mult\000"
 9457      7400
 9458              	.LASF233:
 9459 0229 73655F74 		.ascii	"se_tp\000"
 9459      7000
 9460              	.LASF247:
 9461 022f 74696D65 		.ascii	"time_measurement_t\000"
 9461      5F6D6561 
 9461      73757265 
 9461      6D656E74 
 9461      5F7400
 9462              	.LASF337:
 9463 0242 5F706172 		.ascii	"_parameter_find_w_id_len\000"
ARM GAS  C:\Users\PCHAUT~1\AppData\Local\Temp\ccxXBCq6.s 			page 170


 9463      616D6574 
 9463      65725F66 
 9463      696E645F 
 9463      775F6964 
 9464              	.LASF265:
 9465 025b 6D5F6F77 		.ascii	"m_owner\000"
 9465      6E657200 
 9466              	.LASF209:
 9467 0263 76745F70 		.ascii	"vt_par\000"
 9467      617200
 9468              	.LASF177:
 9469 026a 705F666C 		.ascii	"p_flags\000"
 9469      61677300 
 9470              	.LASF20:
 9471 0272 5F5F7763 		.ascii	"__wch\000"
 9471      6800
 9472              	.LASF254:
 9473 0278 65786974 		.ascii	"exitcode\000"
 9473      636F6465 
 9473      00
 9474              	.LASF5:
 9475 0281 5F5F7569 		.ascii	"__uint8_t\000"
 9475      6E74385F 
 9475      7400
 9476              	.LASF259:
 9477 028b 65776D61 		.ascii	"ewmask\000"
 9477      736B00
 9478              	.LASF56:
 9479 0292 5F66696C 		.ascii	"_file\000"
 9479      6500
 9480              	.LASF274:
 9481 0298 63685F74 		.ascii	"ch_threadsize\000"
 9481      68726561 
 9481      6473697A 
 9481      6500
 9482              	.LASF43:
 9483 02a6 5F6F6E5F 		.ascii	"_on_exit_args\000"
 9483      65786974 
 9483      5F617267 
 9483      7300
 9484              	.LASF172:
 9485 02b4 705F6E65 		.ascii	"p_newer\000"
 9485      77657200 
 9486              	.LASF114:
 9487 02bc 5F6D6272 		.ascii	"_mbrlen_state\000"
 9487      6C656E5F 
 9487      73746174 
 9487      6500
 9488              	.LASF11:
 9489 02ca 6C6F6E67 		.ascii	"long int\000"
 9489      20696E74 
 9489      00
 9490              	.LASF168:
 9491 02d3 705F6E65 		.ascii	"p_next\000"
 9491      787400
 9492              	.LASF351:
 9493 02da 706F7274 		.ascii	"port_unlock\000"
ARM GAS  C:\Users\PCHAUT~1\AppData\Local\Temp\ccxXBCq6.s 			page 171


 9493      5F756E6C 
 9493      6F636B00 
 9494              	.LASF125:
 9495 02e6 5F696D70 		.ascii	"_impure_ptr\000"
 9495      7572655F 
 9495      70747200 
 9496              	.LASF83:
 9497 02f2 5F726573 		.ascii	"_result_k\000"
 9497      756C745F 
 9497      6B00
 9498              	.LASF281:
 9499 02fc 63665F6F 		.ascii	"cf_off_state\000"
 9499      66665F73 
 9499      74617465 
 9499      00
 9500              	.LASF53:
 9501 0309 5F73697A 		.ascii	"_size\000"
 9501      6500
 9502              	.LASF169:
 9503 030f 705F7072 		.ascii	"p_prev\000"
 9503      657600
 9504              	.LASF104:
 9505 0316 5F6C6F63 		.ascii	"_localtime_buf\000"
 9505      616C7469 
 9505      6D655F62 
 9505      756600
 9506              	.LASF293:
 9507 0325 70617261 		.ascii	"parameter_string_read\000"
 9507      6D657465 
 9507      725F7374 
 9507      72696E67 
 9507      5F726561 
 9508              	.LASF157:
 9509 033b 74737461 		.ascii	"tstate_t\000"
 9509      74655F74 
 9509      00
 9510              	.LASF155:
 9511 0344 72747469 		.ascii	"rttime_t\000"
 9511      6D655F74 
 9511      00
 9512              	.LASF192:
 9513 034d 74687265 		.ascii	"threads_queue_t\000"
 9513      6164735F 
 9513      71756575 
 9513      655F7400 
 9514              	.LASF185:
 9515 035d 705F6D74 		.ascii	"p_mtxlist\000"
 9515      786C6973 
 9515      7400
 9516              	.LASF228:
 9517 0367 72656761 		.ascii	"regarm_t\000"
 9517      726D5F74 
 9517      00
 9518              	.LASF303:
 9519 0370 70617261 		.ascii	"parameter_variable_vector_max_dim\000"
 9519      6D657465 
 9519      725F7661 
ARM GAS  C:\Users\PCHAUT~1\AppData\Local\Temp\ccxXBCq6.s 			page 172


 9519      72696162 
 9519      6C655F76 
 9520              	.LASF38:
 9521 0392 5F5F746D 		.ascii	"__tm_mon\000"
 9521      5F6D6F6E 
 9521      00
 9522              	.LASF302:
 9523 039b 70617261 		.ascii	"parameter_variable_vector_get\000"
 9523      6D657465 
 9523      725F7661 
 9523      72696162 
 9523      6C655F76 
 9524              	.LASF101:
 9525 03b9 5F756E75 		.ascii	"_unused_rand\000"
 9525      7365645F 
 9525      72616E64 
 9525      00
 9526              	.LASF3:
 9527 03c6 7369676E 		.ascii	"signed char\000"
 9527      65642063 
 9527      68617200 
 9528              	.LASF179:
 9529 03d2 705F7072 		.ascii	"p_preempt\000"
 9529      65656D70 
 9529      7400
 9530              	.LASF127:
 9531 03dc 75696E74 		.ascii	"uint8_t\000"
 9531      385F7400 
 9532              	.LASF341:
 9533 03e4 5F706172 		.ascii	"_parameter_namespace_find_w_id_len\000"
 9533      616D6574 
 9533      65725F6E 
 9533      616D6573 
 9533      70616365 
 9534              	.LASF201:
 9535 0407 725F6375 		.ascii	"r_current\000"
 9535      7272656E 
 9535      7400
 9536              	.LASF162:
 9537 0411 6576656E 		.ascii	"eventmask_t\000"
 9537      746D6173 
 9537      6B5F7400 
 9538              	.LASF230:
 9539 041d 636F6E74 		.ascii	"context\000"
 9539      65787400 
 9540              	.LASF256:
 9541 0425 77747472 		.ascii	"wttrp\000"
 9541      7000
 9542              	.LASF6:
 9543 042b 756E7369 		.ascii	"unsigned char\000"
 9543      676E6564 
 9543      20636861 
 9543      7200
 9544              	.LASF304:
 9545 0439 70617261 		.ascii	"parameter_variable_vector_declare_with_default\000"
 9545      6D657465 
 9545      725F7661 
ARM GAS  C:\Users\PCHAUT~1\AppData\Local\Temp\ccxXBCq6.s 			page 173


 9545      72696162 
 9545      6C655F76 
 9546              	.LASF334:
 9547 0468 70617261 		.ascii	"parameter_namespace_contains_changed\000"
 9547      6D657465 
 9547      725F6E61 
 9547      6D657370 
 9547      6163655F 
 9548              	.LASF215:
 9549 048d 70616E69 		.ascii	"panic_msg\000"
 9549      635F6D73 
 9549      6700
 9550              	.LASF78:
 9551 0497 5F756E73 		.ascii	"_unspecified_locale_info\000"
 9551      70656369 
 9551      66696564 
 9551      5F6C6F63 
 9551      616C655F 
 9552              	.LASF71:
 9553 04b0 5F726565 		.ascii	"_reent\000"
 9553      6E7400
 9554              	.LASF199:
 9555 04b7 725F6E65 		.ascii	"r_newer\000"
 9555      77657200 
 9556              	.LASF126:
 9557 04bf 5F676C6F 		.ascii	"_global_impure_ptr\000"
 9557      62616C5F 
 9557      696D7075 
 9557      72655F70 
 9557      747200
 9558              	.LASF305:
 9559 04d2 696E6974 		.ascii	"init_size\000"
 9559      5F73697A 
 9559      6500
 9560              	.LASF213:
 9561 04dc 73797374 		.ascii	"system_debug_t\000"
 9561      656D5F64 
 9561      65627567 
 9561      5F7400
 9562              	.LASF311:
 9563 04eb 70617261 		.ascii	"parameter_vector_declare_with_default\000"
 9563      6D657465 
 9563      725F7665 
 9563      63746F72 
 9563      5F646563 
 9564              	.LASF326:
 9565 0511 70617261 		.ascii	"parameter_scalar_get\000"
 9565      6D657465 
 9565      725F7363 
 9565      616C6172 
 9565      5F676574 
 9566              	.LASF291:
 9567 0526 6F75745F 		.ascii	"out_size\000"
 9567      73697A65 
 9567      00
 9568              	.LASF153:
 9569 052f 5F426F6F 		.ascii	"_Bool\000"
ARM GAS  C:\Users\PCHAUT~1\AppData\Local\Temp\ccxXBCq6.s 			page 174


 9569      6C00
 9570              	.LASF347:
 9571 0535 6E735F69 		.ascii	"ns_id\000"
 9571      6400
 9572              	.LASF145:
 9573 053b 76616C75 		.ascii	"value\000"
 9573      6500
 9574              	.LASF26:
 9575 0541 63686172 		.ascii	"char\000"
 9575      00
 9576              	.LASF267:
 9577 0546 6D5F636E 		.ascii	"m_cnt\000"
 9577      7400
 9578              	.LASF50:
 9579 054c 5F666E73 		.ascii	"_fns\000"
 9579      00
 9580              	.LASF62:
 9581 0551 5F636C6F 		.ascii	"_close\000"
 9581      736500
 9582              	.LASF119:
 9583 0558 5F685F65 		.ascii	"_h_errno\000"
 9583      72726E6F 
 9583      00
 9584              	.LASF170:
 9585 0561 705F7072 		.ascii	"p_prio\000"
 9585      696F00
 9586              	.LASF8:
 9587 0568 5F5F7569 		.ascii	"__uint16_t\000"
 9587      6E743136 
 9587      5F7400
 9588              	.LASF315:
 9589 0573 70617261 		.ascii	"parameter_boolean_set\000"
 9589      6D657465 
 9589      725F626F 
 9589      6F6C6561 
 9589      6E5F7365 
 9590              	.LASF255:
 9591 0589 77746F62 		.ascii	"wtobjp\000"
 9591      6A7000
 9592              	.LASF285:
 9593 0590 63665F6F 		.ascii	"cf_off_time\000"
 9593      66665F74 
 9593      696D6500 
 9594              	.LASF249:
 9595 059c 6E5F6374 		.ascii	"n_ctxswc\000"
 9595      78737763 
 9595      00
 9596              	.LASF73:
 9597 05a5 5F737464 		.ascii	"_stdin\000"
 9597      696E00
 9598              	.LASF277:
 9599 05ac 63665F6F 		.ascii	"cf_off_newer\000"
 9599      66665F6E 
 9599      65776572 
 9599      00
 9600              	.LASF229:
 9601 05b9 73746B61 		.ascii	"stkalign_t\000"
ARM GAS  C:\Users\PCHAUT~1\AppData\Local\Temp\ccxXBCq6.s 			page 175


 9601      6C69676E 
 9601      5F7400
 9602              	.LASF275:
 9603 05c4 63665F6F 		.ascii	"cf_off_prio\000"
 9603      66665F70 
 9603      72696F00 
 9604              	.LASF137:
 9605 05d0 73756273 		.ascii	"subspaces\000"
 9605      70616365 
 9605      7300
 9606              	.LASF294:
 9607 05da 70617261 		.ascii	"parameter_string_get\000"
 9607      6D657465 
 9607      725F7374 
 9607      72696E67 
 9607      5F676574 
 9608              	.LASF163:
 9609 05ef 636E745F 		.ascii	"cnt_t\000"
 9609      7400
 9610              	.LASF218:
 9611 05f5 74726163 		.ascii	"trace_buffer\000"
 9611      655F6275 
 9611      66666572 
 9611      00
 9612              	.LASF208:
 9613 0602 76745F66 		.ascii	"vt_func\000"
 9613      756E6300 
 9614              	.LASF340:
 9615 060a 70617261 		.ascii	"parameter_namespace_find\000"
 9615      6D657465 
 9615      725F6E61 
 9615      6D657370 
 9615      6163655F 
 9616              	.LASF58:
 9617 0623 5F636F6F 		.ascii	"_cookie\000"
 9617      6B696500 
 9618              	.LASF240:
 9619 062b 63685F74 		.ascii	"ch_trace_buffer_t\000"
 9619      72616365 
 9619      5F627566 
 9619      6665725F 
 9619      7400
 9620              	.LASF184:
 9621 063d 705F6570 		.ascii	"p_epending\000"
 9621      656E6469 
 9621      6E6700
 9622              	.LASF258:
 9623 0648 77746D74 		.ascii	"wtmtxp\000"
 9623      787000
 9624              	.LASF31:
 9625 064f 5F776473 		.ascii	"_wds\000"
 9625      00
 9626              	.LASF195:
 9627 0654 63685F72 		.ascii	"ch_ready_list\000"
 9627      65616479 
 9627      5F6C6973 
 9627      7400
ARM GAS  C:\Users\PCHAUT~1\AppData\Local\Temp\ccxXBCq6.s 			page 176


 9628              	.LASF123:
 9629 0662 5F5F6C6F 		.ascii	"__lock\000"
 9629      636B00
 9630              	.LASF90:
 9631 0669 5F736967 		.ascii	"_sig_func\000"
 9631      5F66756E 
 9631      6300
 9632              	.LASF66:
 9633 0673 5F6F6666 		.ascii	"_offset\000"
 9633      73657400 
 9634              	.LASF87:
 9635 067b 5F637674 		.ascii	"_cvtbuf\000"
 9635      62756600 
 9636              	.LASF216:
 9637 0683 6973725F 		.ascii	"isr_cnt\000"
 9637      636E7400 
 9638              	.LASF246:
 9639 068b 63756D75 		.ascii	"cumulative\000"
 9639      6C617469 
 9639      766500
 9640              	.LASF313:
 9641 0696 70617261 		.ascii	"parameter_boolean_read\000"
 9641      6D657465 
 9641      725F626F 
 9641      6F6C6561 
 9641      6E5F7265 
 9642              	.LASF251:
 9643 06ad 6D5F6372 		.ascii	"m_crit_isr\000"
 9643      69745F69 
 9643      737200
 9644              	.LASF151:
 9645 06b8 5F706172 		.ascii	"_param_val_matrix_s\000"
 9645      616D5F76 
 9645      616C5F6D 
 9645      61747269 
 9645      785F7300 
 9646              	.LASF235:
 9647 06cc 73655F73 		.ascii	"se_state\000"
 9647      74617465 
 9647      00
 9648              	.LASF250:
 9649 06d5 6D5F6372 		.ascii	"m_crit_thd\000"
 9649      69745F74 
 9649      686400
 9650              	.LASF14:
 9651 06e0 5F5F7569 		.ascii	"__uint64_t\000"
 9651      6E743634 
 9651      5F7400
 9652              	.LASF344:
 9653 06eb 70617261 		.ascii	"param_id_len\000"
 9653      6D5F6964 
 9653      5F6C656E 
 9653      00
 9654              	.LASF350:
 9655 06f8 63685379 		.ascii	"chSysUnlock\000"
 9655      73556E6C 
 9655      6F636B00 
ARM GAS  C:\Users\PCHAUT~1\AppData\Local\Temp\ccxXBCq6.s 			page 177


 9656              	.LASF84:
 9657 0704 5F703573 		.ascii	"_p5s\000"
 9657      00
 9658              	.LASF13:
 9659 0709 6C6F6E67 		.ascii	"long unsigned int\000"
 9659      20756E73 
 9659      69676E65 
 9659      6420696E 
 9659      7400
 9660              	.LASF269:
 9661 071b 63685F7A 		.ascii	"ch_zero\000"
 9661      65726F00 
 9662              	.LASF356:
 9663 0723 63685379 		.ascii	"chSysLock\000"
 9663      734C6F63 
 9663      6B00
 9664              	.LASF331:
 9665 072d 5F706172 		.ascii	"_parameter_changed_set\000"
 9665      616D6574 
 9665      65725F63 
 9665      68616E67 
 9665      65645F73 
 9666              	.LASF297:
 9667 0744 6275665F 		.ascii	"buf_size\000"
 9667      73697A65 
 9667      00
 9668              	.LASF54:
 9669 074d 5F5F7346 		.ascii	"__sFILE\000"
 9669      494C4500 
 9670              	.LASF80:
 9671 0755 5F5F7364 		.ascii	"__sdidinit\000"
 9671      6964696E 
 9671      697400
 9672              	.LASF70:
 9673 0760 5F666C61 		.ascii	"_flags2\000"
 9673      67733200 
 9674              	.LASF227:
 9675 0768 53797374 		.ascii	"SystemCoreClock\000"
 9675      656D436F 
 9675      7265436C 
 9675      6F636B00 
 9676              	.LASF260:
 9677 0778 63685F73 		.ascii	"ch_semaphore\000"
 9677      656D6170 
 9677      686F7265 
 9677      00
 9678              	.LASF167:
 9679 0785 63685F74 		.ascii	"ch_thread\000"
 9679      68726561 
 9679      6400
 9680              	.LASF318:
 9681 078f 70617261 		.ascii	"parameter_boolean_declare\000"
 9681      6D657465 
 9681      725F626F 
 9681      6F6C6561 
 9681      6E5F6465 
 9682              	.LASF210:
ARM GAS  C:\Users\PCHAUT~1\AppData\Local\Temp\ccxXBCq6.s 			page 178


 9683 07a9 76697274 		.ascii	"virtual_timers_list_t\000"
 9683      75616C5F 
 9683      74696D65 
 9683      72735F6C 
 9683      6973745F 
 9684              	.LASF149:
 9685 07bf 6275665F 		.ascii	"buf_dim\000"
 9685      64696D00 
 9686              	.LASF72:
 9687 07c7 5F657272 		.ascii	"_errno\000"
 9687      6E6F00
 9688              	.LASF345:
 9689 07ce 6765745F 		.ascii	"get_parameter\000"
 9689      70617261 
 9689      6D657465 
 9689      7200
 9690              	.LASF203:
 9691 07dc 76697274 		.ascii	"virtual_timer_t\000"
 9691      75616C5F 
 9691      74696D65 
 9691      725F7400 
 9692              	.LASF194:
 9693 07ec 72656164 		.ascii	"ready_list_t\000"
 9693      795F6C69 
 9693      73745F74 
 9693      00
 9694              	.LASF139:
 9695 07f9 70617261 		.ascii	"parameter_list\000"
 9695      6D657465 
 9695      725F6C69 
 9695      737400
 9696              	.LASF112:
 9697 0808 5F736967 		.ascii	"_signal_buf\000"
 9697      6E616C5F 
 9697      62756600 
 9698              	.LASF164:
 9699 0814 75636E74 		.ascii	"ucnt_t\000"
 9699      5F7400
 9700              	.LASF32:
 9701 081b 5F426967 		.ascii	"_Bigint\000"
 9701      696E7400 
 9702              	.LASF191:
 9703 0823 63685F74 		.ascii	"ch_threads_list\000"
 9703      68726561 
 9703      64735F6C 
 9703      69737400 
 9704              	.LASF236:
 9705 0833 63685F73 		.ascii	"ch_swc_event_t\000"
 9705      77635F65 
 9705      76656E74 
 9705      5F7400
 9706              	.LASF29:
 9707 0842 5F6D6178 		.ascii	"_maxwds\000"
 9707      77647300 
 9708              	.LASF248:
 9709 084a 6E5F6972 		.ascii	"n_irq\000"
 9709      7100
ARM GAS  C:\Users\PCHAUT~1\AppData\Local\Temp\ccxXBCq6.s 			page 179


 9710              	.LASF81:
 9711 0850 5F5F636C 		.ascii	"__cleanup\000"
 9711      65616E75 
 9711      7000
 9712              	.LASF89:
 9713 085a 5F617465 		.ascii	"_atexit0\000"
 9713      78697430 
 9713      00
 9714              	.LASF307:
 9715 0863 70617261 		.ascii	"parameter_vector_set\000"
 9715      6D657465 
 9715      725F7665 
 9715      63746F72 
 9715      5F736574 
 9716              	.LASF284:
 9717 0878 63665F6F 		.ascii	"cf_off_preempt\000"
 9717      66665F70 
 9717      7265656D 
 9717      707400
 9718              	.LASF325:
 9719 0887 70617261 		.ascii	"parameter_scalar_read\000"
 9719      6D657465 
 9719      725F7363 
 9719      616C6172 
 9719      5F726561 
 9720              	.LASF12:
 9721 089d 5F5F7569 		.ascii	"__uint32_t\000"
 9721      6E743332 
 9721      5F7400
 9722              	.LASF77:
 9723 08a8 5F656D65 		.ascii	"_emergency\000"
 9723      7267656E 
 9723      637900
 9724              	.LASF1:
 9725 08b3 6C6F6E67 		.ascii	"long long int\000"
 9725      206C6F6E 
 9725      6720696E 
 9725      7400
 9726              	.LASF271:
 9727 08c1 63685F76 		.ascii	"ch_version\000"
 9727      65727369 
 9727      6F6E00
 9728              	.LASF264:
 9729 08cc 6D5F7175 		.ascii	"m_queue\000"
 9729      65756500 
 9730              	.LASF95:
 9731 08d4 5F6E696F 		.ascii	"_niobs\000"
 9731      627300
 9732              	.LASF239:
 9733 08db 74625F62 		.ascii	"tb_buffer\000"
 9733      75666665 
 9733      7200
 9734              	.LASF205:
 9735 08e5 76745F6E 		.ascii	"vt_next\000"
 9735      65787400 
 9736              	.LASF91:
 9737 08ed 5F5F7367 		.ascii	"__sglue\000"
ARM GAS  C:\Users\PCHAUT~1\AppData\Local\Temp\ccxXBCq6.s 			page 180


 9737      6C756500 
 9738              	.LASF121:
 9739 08f5 5F6E6D61 		.ascii	"_nmalloc\000"
 9739      6C6C6F63 
 9739      00
 9740              	.LASF206:
 9741 08fe 76745F70 		.ascii	"vt_prev\000"
 9741      72657600 
 9742              	.LASF273:
 9743 0906 63685F74 		.ascii	"ch_timesize\000"
 9743      696D6573 
 9743      697A6500 
 9744              	.LASF105:
 9745 0912 5F67616D 		.ascii	"_gamma_signgam\000"
 9745      6D615F73 
 9745      69676E67 
 9745      616D00
 9746              	.LASF237:
 9747 0921 74625F73 		.ascii	"tb_size\000"
 9747      697A6500 
 9748              	.LASF353:
 9749 0929 474E5520 		.ascii	"GNU C11 7.2.1 20170904 (release) [ARM/embedded-7-br"
 9749      43313120 
 9749      372E322E 
 9749      31203230 
 9749      31373039 
 9750 095c 616E6368 		.ascii	"anch revision 255204] -mcpu=cortex-m4 -mfloat-abi=h"
 9750      20726576 
 9750      6973696F 
 9750      6E203235 
 9750      35323034 
 9751 098f 61726420 		.ascii	"ard -mfpu=fpv4-sp-d16 -mno-thumb-interwork -mthumb "
 9751      2D6D6670 
 9751      753D6670 
 9751      76342D73 
 9751      702D6431 
 9752 09c2 2D676764 		.ascii	"-ggdb -O0 -fomit-frame-pointer -falign-functions=16"
 9752      62202D4F 
 9752      30202D66 
 9752      6F6D6974 
 9752      2D667261 
 9753 09f5 202D666E 		.ascii	" -fno-strict-aliasing -fstack-protector-all -ffunct"
 9753      6F2D7374 
 9753      72696374 
 9753      2D616C69 
 9753      6173696E 
 9754 0a28 696F6E2D 		.ascii	"ion-sections -fdata-sections -fno-common -fsingle-p"
 9754      73656374 
 9754      696F6E73 
 9754      202D6664 
 9754      6174612D 
 9755 0a5b 72656369 		.ascii	"recision-constant\000"
 9755      73696F6E 
 9755      2D636F6E 
 9755      7374616E 
 9755      7400
 9756              	.LASF339:
ARM GAS  C:\Users\PCHAUT~1\AppData\Local\Temp\ccxXBCq6.s 			page 181


 9757 0a6d 69645F65 		.ascii	"id_elem_len\000"
 9757      6C656D5F 
 9757      6C656E00 
 9758              	.LASF85:
 9759 0a79 5F667265 		.ascii	"_freelist\000"
 9759      656C6973 
 9759      7400
 9760              	.LASF136:
 9761 0a83 70617265 		.ascii	"parent\000"
 9761      6E7400
 9762              	.LASF96:
 9763 0a8a 5F696F62 		.ascii	"_iobs\000"
 9763      7300
 9764              	.LASF94:
 9765 0a90 5F676C75 		.ascii	"_glue\000"
 9765      6500
 9766              	.LASF226:
 9767 0a96 49544D5F 		.ascii	"ITM_RxBuffer\000"
 9767      52784275 
 9767      66666572 
 9767      00
 9768              	.LASF30:
 9769 0aa3 5F736967 		.ascii	"_sign\000"
 9769      6E00
 9770              	.LASF150:
 9771 0aa9 666C6F61 		.ascii	"float\000"
 9771      7400
 9772              	.LASF289:
 9773 0aaf 70617261 		.ascii	"parameter_string_set_w_len\000"
 9773      6D657465 
 9773      725F7374 
 9773      72696E67 
 9773      5F736574 
 9774              	.LASF181:
 9775 0aca 705F7761 		.ascii	"p_waiting\000"
 9775      6974696E 
 9775      6700
 9776              	.LASF234:
 9777 0ad4 73655F77 		.ascii	"se_wtobjp\000"
 9777      746F626A 
 9777      7000
 9778              	.LASF225:
 9779 0ade 69646C65 		.ascii	"idle_thread_wa\000"
 9779      5F746872 
 9779      6561645F 
 9779      776100
 9780              	.LASF0:
 9781 0aed 756E7369 		.ascii	"unsigned int\000"
 9781      676E6564 
 9781      20696E74 
 9781      00
 9782              	.LASF154:
 9783 0afa 7274636E 		.ascii	"rtcnt_t\000"
 9783      745F7400 
 9784              	.LASF187:
 9785 0b02 705F6D70 		.ascii	"p_mpool\000"
 9785      6F6F6C00 
ARM GAS  C:\Users\PCHAUT~1\AppData\Local\Temp\ccxXBCq6.s 			page 182


 9786              	.LASF355:
 9787 0b0a 433A5C55 		.ascii	"C:\\Users\\Pchautems\\Documents\\RobotiqueTP\\Proje"
 9787      73657273 
 9787      5C506368 
 9787      61757465 
 9787      6D735C44 
 9788 0b38 745C6D69 		.ascii	"t\\miniprojet\000"
 9788      6E697072 
 9788      6F6A6574 
 9788      00
 9789              	.LASF308:
 9790 0b45 70617261 		.ascii	"parameter_vector_read\000"
 9790      6D657465 
 9790      725F7665 
 9790      63746F72 
 9790      5F726561 
 9791              	.LASF178:
 9792 0b5b 705F7265 		.ascii	"p_refs\000"
 9792      667300
 9793              	.LASF117:
 9794 0b62 5F776372 		.ascii	"_wcrtomb_state\000"
 9794      746F6D62 
 9794      5F737461 
 9794      746500
 9795              	.LASF37:
 9796 0b71 5F5F746D 		.ascii	"__tm_mday\000"
 9796      5F6D6461 
 9796      7900
 9797              	.LASF310:
 9798 0b7b 70617261 		.ascii	"parameter_vector_dim\000"
 9798      6D657465 
 9798      725F7665 
 9798      63746F72 
 9798      5F64696D 
 9799              	.LASF252:
 9800 0b90 6B65726E 		.ascii	"kernel_stats_t\000"
 9800      656C5F73 
 9800      74617473 
 9800      5F7400
 9801              	.LASF88:
 9802 0b9f 5F6E6577 		.ascii	"_new\000"
 9802      00
 9803              	.LASF63:
 9804 0ba4 5F756275 		.ascii	"_ubuf\000"
 9804      6600
 9805              	.LASF317:
 9806 0baa 64656661 		.ascii	"default_val\000"
 9806      756C745F 
 9806      76616C00 
 9807              	.LASF75:
 9808 0bb6 5F737464 		.ascii	"_stderr\000"
 9808      65727200 
 9809              	.LASF301:
 9810 0bbe 70617261 		.ascii	"parameter_variable_vector_read\000"
 9810      6D657465 
 9810      725F7661 
 9810      72696162 
ARM GAS  C:\Users\PCHAUT~1\AppData\Local\Temp\ccxXBCq6.s 			page 183


 9810      6C655F76 
 9811              	.LASF110:
 9812 0bdd 5F776374 		.ascii	"_wctomb_state\000"
 9812      6F6D625F 
 9812      73746174 
 9812      6500
 9813              	.LASF69:
 9814 0beb 5F6D6273 		.ascii	"_mbstate\000"
 9814      74617465 
 9814      00
 9815              	.LASF106:
 9816 0bf4 5F72616E 		.ascii	"_rand_next\000"
 9816      645F6E65 
 9816      787400
 9817              	.LASF320:
 9818 0bff 70617261 		.ascii	"parameter_integer_read\000"
 9818      6D657465 
 9818      725F696E 
 9818      74656765 
 9818      725F7265 
 9819              	.LASF55:
 9820 0c16 5F666C61 		.ascii	"_flags\000"
 9820      677300
 9821              	.LASF241:
 9822 0c1d 6F666673 		.ascii	"offset\000"
 9822      657400
 9823              	.LASF189:
 9824 0c24 74687265 		.ascii	"thread_reference_t\000"
 9824      61645F72 
 9824      65666572 
 9824      656E6365 
 9824      5F7400
 9825              	.LASF48:
 9826 0c37 5F617465 		.ascii	"_atexit\000"
 9826      78697400 
 9827              	.LASF298:
 9828 0c3f 64656661 		.ascii	"default_str\000"
 9828      756C745F 
 9828      73747200 
 9829              	.LASF180:
 9830 0c4b 705F7469 		.ascii	"p_time\000"
 9830      6D6500
 9831              	.LASF283:
 9832 0c52 63665F6F 		.ascii	"cf_off_refs\000"
 9832      66665F72 
 9832      65667300 
 9833              	.LASF22:
 9834 0c5e 5F5F636F 		.ascii	"__count\000"
 9834      756E7400 
 9835              	.LASF300:
 9836 0c66 70617261 		.ascii	"parameter_variable_vector_set\000"
 9836      6D657465 
 9836      725F7661 
 9836      72696162 
 9836      6C655F76 
 9837              	.LASF40:
 9838 0c84 5F5F746D 		.ascii	"__tm_wday\000"
ARM GAS  C:\Users\PCHAUT~1\AppData\Local\Temp\ccxXBCq6.s 			page 184


 9838      5F776461 
 9838      7900
 9839              	.LASF166:
 9840 0c8e 74687265 		.ascii	"thread_t\000"
 9840      61645F74 
 9840      00
 9841              	.LASF2:
 9842 0c97 6C6F6E67 		.ascii	"long double\000"
 9842      20646F75 
 9842      626C6500 
 9843              	.LASF41:
 9844 0ca3 5F5F746D 		.ascii	"__tm_yday\000"
 9844      5F796461 
 9844      7900
 9845              	.LASF152:
 9846 0cad 76656374 		.ascii	"vect\000"
 9846      00
 9847              	.LASF186:
 9848 0cb2 705F7265 		.ascii	"p_realprio\000"
 9848      616C7072 
 9848      696F00
 9849              	.LASF231:
 9850 0cbd 706F7274 		.ascii	"port_intctx\000"
 9850      5F696E74 
 9850      63747800 
 9851              	.LASF98:
 9852 0cc9 5F736565 		.ascii	"_seed\000"
 9852      6400
 9853              	.LASF61:
 9854 0ccf 5F736565 		.ascii	"_seek\000"
 9854      6B00
 9855              	.LASF135:
 9856 0cd5 6368616E 		.ascii	"changed_cnt\000"
 9856      6765645F 
 9856      636E7400 
 9857              	.LASF207:
 9858 0ce1 76745F64 		.ascii	"vt_delta\000"
 9858      656C7461 
 9858      00
 9859              	.LASF18:
 9860 0cea 5F66706F 		.ascii	"_fpos_t\000"
 9860      735F7400 
 9861              	.LASF21:
 9862 0cf2 5F5F7763 		.ascii	"__wchb\000"
 9862      686200
 9863              	.LASF324:
 9864 0cf9 70617261 		.ascii	"parameter_scalar_set\000"
 9864      6D657465 
 9864      725F7363 
 9864      616C6172 
 9864      5F736574 
 9865              	.LASF204:
 9866 0d0e 63685F76 		.ascii	"ch_virtual_timer\000"
 9866      69727475 
 9866      616C5F74 
 9866      696D6572 
 9866      00
ARM GAS  C:\Users\PCHAUT~1\AppData\Local\Temp\ccxXBCq6.s 			page 185


 9867              	.LASF262:
 9868 0d1f 735F636E 		.ascii	"s_cnt\000"
 9868      7400
 9869              	.LASF109:
 9870 0d25 5F6D6274 		.ascii	"_mbtowc_state\000"
 9870      6F77635F 
 9870      73746174 
 9870      6500
 9871              	.LASF224:
 9872 0d33 6B65726E 		.ascii	"kernel_stats\000"
 9872      656C5F73 
 9872      74617473 
 9872      00
 9873              	.LASF330:
 9874 0d40 6368616E 		.ascii	"changed_was_set\000"
 9874      6765645F 
 9874      7761735F 
 9874      73657400 
 9875              	.LASF15:
 9876 0d50 6C6F6E67 		.ascii	"long long unsigned int\000"
 9876      206C6F6E 
 9876      6720756E 
 9876      7369676E 
 9876      65642069 
 9877              	.LASF173:
 9878 0d67 705F6F6C 		.ascii	"p_older\000"
 9878      64657200 
 9879              	.LASF128:
 9880 0d6f 75696E74 		.ascii	"uint16_t\000"
 9880      31365F74 
 9880      00
 9881              	.LASF45:
 9882 0d78 5F64736F 		.ascii	"_dso_handle\000"
 9882      5F68616E 
 9882      646C6500 
 9883              	.LASF161:
 9884 0d84 6D73675F 		.ascii	"msg_t\000"
 9884      7400
 9885              	.LASF193:
 9886 0d8a 63685F74 		.ascii	"ch_threads_queue\000"
 9886      68726561 
 9886      64735F71 
 9886      75657565 
 9886      00
 9887              	.LASF97:
 9888 0d9b 5F72616E 		.ascii	"_rand48\000"
 9888      64343800 
 9889              	.LASF282:
 9890 0da3 63665F6F 		.ascii	"cf_off_flags\000"
 9890      66665F66 
 9890      6C616773 
 9890      00
 9891              	.LASF74:
 9892 0db0 5F737464 		.ascii	"_stdout\000"
 9892      6F757400 
 9893              	.LASF159:
 9894 0db8 74736C69 		.ascii	"tslices_t\000"
ARM GAS  C:\Users\PCHAUT~1\AppData\Local\Temp\ccxXBCq6.s 			page 186


 9894      6365735F 
 9894      7400
 9895              	.LASF312:
 9896 0dc2 70617261 		.ascii	"parameter_vector_declare\000"
 9896      6D657465 
 9896      725F7665 
 9896      63746F72 
 9896      5F646563 
 9897              	.LASF65:
 9898 0ddb 5F626C6B 		.ascii	"_blksize\000"
 9898      73697A65 
 9898      00
 9899              	.LASF52:
 9900 0de4 5F626173 		.ascii	"_base\000"
 9900      6500
 9901              	.LASF102:
 9902 0dea 5F737472 		.ascii	"_strtok_last\000"
 9902      746F6B5F 
 9902      6C617374 
 9902      00
 9903              	.LASF314:
 9904 0df7 70617261 		.ascii	"parameter_boolean_get\000"
 9904      6D657465 
 9904      725F626F 
 9904      6F6C6561 
 9904      6E5F6765 
 9905              	.LASF115:
 9906 0e0d 5F6D6272 		.ascii	"_mbrtowc_state\000"
 9906      746F7763 
 9906      5F737461 
 9906      746500
 9907              	.LASF223:
 9908 0e1c 6D61696E 		.ascii	"mainthread\000"
 9908      74687265 
 9908      616400
 9909              	.LASF25:
 9910 0e27 5F666C6F 		.ascii	"_flock_t\000"
 9910      636B5F74 
 9910      00
 9911              	.LASF93:
 9912 0e30 5F5F4649 		.ascii	"__FILE\000"
 9912      4C4500
 9913              	.LASF357:
 9914 0e37 5F5F7365 		.ascii	"__set_BASEPRI\000"
 9914      745F4241 
 9914      53455052 
 9914      4900
 9915              	.LASF243:
 9916 0e45 62657374 		.ascii	"best\000"
 9916      00
 9917              	.LASF290:
 9918 0e4a 70617261 		.ascii	"parameter_string_set\000"
 9918      6D657465 
 9918      725F7374 
 9918      72696E67 
 9918      5F736574 
 9919              	.LASF24:
ARM GAS  C:\Users\PCHAUT~1\AppData\Local\Temp\ccxXBCq6.s 			page 187


 9920 0e5f 5F6D6273 		.ascii	"_mbstate_t\000"
 9920      74617465 
 9920      5F7400
 9921              	.LASF196:
 9922 0e6a 725F7175 		.ascii	"r_queue\000"
 9922      65756500 
 9923              	.LASF107:
 9924 0e72 5F723438 		.ascii	"_r48\000"
 9924      00
 9925              	.LASF295:
 9926 0e77 70617261 		.ascii	"parameter_string_max_len\000"
 9926      6D657465 
 9926      725F7374 
 9926      72696E67 
 9926      5F6D6178 
 9927              	.LASF19:
 9928 0e90 77696E74 		.ascii	"wint_t\000"
 9928      5F7400
 9929              	.LASF28:
 9930 0e97 5F6E6578 		.ascii	"_next\000"
 9930      7400
 9931              	.LASF67:
 9932 0e9d 5F646174 		.ascii	"_data\000"
 9932      6100
 9933              	.LASF221:
 9934 0ea3 726C6973 		.ascii	"rlist\000"
 9934      7400
 9935              	.LASF156:
 9936 0ea9 746D6F64 		.ascii	"tmode_t\000"
 9936      655F7400 
 9937              	.LASF212:
 9938 0eb1 76745F73 		.ascii	"vt_systime\000"
 9938      79737469 
 9938      6D6500
 9939              	.LASF200:
 9940 0ebc 725F6F6C 		.ascii	"r_older\000"
 9940      64657200 
 9941              	.LASF242:
 9942 0ec4 746D5F63 		.ascii	"tm_calibration_t\000"
 9942      616C6962 
 9942      72617469 
 9942      6F6E5F74 
 9942      00
 9943              	.LASF299:
 9944 0ed5 70617261 		.ascii	"parameter_string_declare\000"
 9944      6D657465 
 9944      725F7374 
 9944      72696E67 
 9944      5F646563 
 9945              	.LASF352:
 9946 0eee 706F7274 		.ascii	"port_lock\000"
 9946      5F6C6F63 
 9946      6B00
 9947              	.LASF261:
 9948 0ef8 735F7175 		.ascii	"s_queue\000"
 9948      65756500 
 9949              	.LASF108:
ARM GAS  C:\Users\PCHAUT~1\AppData\Local\Temp\ccxXBCq6.s 			page 188


 9950 0f00 5F6D626C 		.ascii	"_mblen_state\000"
 9950      656E5F73 
 9950      74617465 
 9950      00
 9951              	.LASF335:
 9952 0f0d 5F706172 		.ascii	"_parameter_declare\000"
 9952      616D6574 
 9952      65725F64 
 9952      65636C61 
 9952      726500
 9953              	.LASF7:
 9954 0f20 73686F72 		.ascii	"short int\000"
 9954      7420696E 
 9954      7400
 9955              	.LASF131:
 9956 0f2a 75696E74 		.ascii	"uint64_t\000"
 9956      36345F74 
 9956      00
 9957              	.LASF141:
 9958 0f33 70617261 		.ascii	"parameter_s\000"
 9958      6D657465 
 9958      725F7300 
 9959              	.LASF140:
 9960 0f3f 70617261 		.ascii	"parameter_t\000"
 9960      6D657465 
 9960      725F7400 
 9961              	.LASF263:
 9962 0f4b 63685F6D 		.ascii	"ch_mutex\000"
 9962      75746578 
 9962      00
 9963              	.LASF132:
 9964 0f54 7375626F 		.ascii	"suboptarg\000"
 9964      70746172 
 9964      6700
 9965              	.LASF46:
 9966 0f5e 5F666E74 		.ascii	"_fntypes\000"
 9966      79706573 
 9966      00
 9967              	.LASF197:
 9968 0f67 725F7072 		.ascii	"r_prio\000"
 9968      696F00
 9969              	.LASF214:
 9970 0f6e 63685F73 		.ascii	"ch_system_debug\000"
 9970      79737465 
 9970      6D5F6465 
 9970      62756700 
 9971              	.LASF39:
 9972 0f7e 5F5F746D 		.ascii	"__tm_year\000"
 9972      5F796561 
 9972      7200
 9973              	.LASF244:
 9974 0f88 776F7273 		.ascii	"worst\000"
 9974      7400
 9975              	.LASF278:
 9976 0f8e 63665F6F 		.ascii	"cf_off_older\000"
 9976      66665F6F 
 9976      6C646572 
ARM GAS  C:\Users\PCHAUT~1\AppData\Local\Temp\ccxXBCq6.s 			page 189


 9976      00
 9977              	.LASF332:
 9978 0f9b 70617261 		.ascii	"parameter_defined\000"
 9978      6D657465 
 9978      725F6465 
 9978      66696E65 
 9978      6400
 9979              	.LASF134:
 9980 0fad 70617261 		.ascii	"parameter_namespace_s\000"
 9980      6D657465 
 9980      725F6E61 
 9980      6D657370 
 9980      6163655F 
 9981              	.LASF133:
 9982 0fc3 70617261 		.ascii	"parameter_namespace_t\000"
 9982      6D657465 
 9982      725F6E61 
 9982      6D657370 
 9982      6163655F 
 9983              	.LASF333:
 9984 0fd9 70617261 		.ascii	"parameter_changed\000"
 9984      6D657465 
 9984      725F6368 
 9984      616E6765 
 9984      6400
 9985              	.LASF57:
 9986 0feb 5F6C6266 		.ascii	"_lbfsize\000"
 9986      73697A65 
 9986      00
 9987              	.LASF222:
 9988 0ff4 76746C69 		.ascii	"vtlist\000"
 9988      737400
 9989              	.LASF76:
 9990 0ffb 5F696E63 		.ascii	"_inc\000"
 9990      00
 9991              	.LASF49:
 9992 1000 5F696E64 		.ascii	"_ind\000"
 9992      00
 9993              	.LASF146:
 9994 1005 5F706172 		.ascii	"_param_val_str_s\000"
 9994      616D5F76 
 9994      616C5F73 
 9994      74725F73 
 9994      00
 9995              	.LASF51:
 9996 1016 5F5F7362 		.ascii	"__sbuf\000"
 9996      756600
 9997              	.LASF47:
 9998 101d 5F69735F 		.ascii	"_is_cxa\000"
 9998      63786100 
 9999              	.LASF16:
 10000 1025 5F4C4F43 		.ascii	"_LOCK_T\000"
 10000      4B5F5400 
 10001              	.LASF288:
 10002 102d 6D757465 		.ascii	"mutex_t\000"
 10002      785F7400 
 10003              	.LASF321:
ARM GAS  C:\Users\PCHAUT~1\AppData\Local\Temp\ccxXBCq6.s 			page 190


 10004 1035 70617261 		.ascii	"parameter_integer_get\000"
 10004      6D657465 
 10004      725F696E 
 10004      74656765 
 10004      725F6765 
 10005              	.LASF158:
 10006 104b 74726566 		.ascii	"trefs_t\000"
 10006      735F7400 
 10007              	.LASF120:
 10008 1053 5F6E6578 		.ascii	"_nextf\000"
 10008      746600
 10009              	.LASF280:
 10010 105a 63665F6F 		.ascii	"cf_off_stklimit\000"
 10010      66665F73 
 10010      746B6C69 
 10010      6D697400 
 10011              	.LASF190:
 10012 106a 74687265 		.ascii	"threads_list_t\000"
 10012      6164735F 
 10012      6C697374 
 10012      5F7400
 10013              	.LASF323:
 10014 1079 70617261 		.ascii	"parameter_integer_declare\000"
 10014      6D657465 
 10014      725F696E 
 10014      74656765 
 10014      725F6465 
 10015              	.LASF319:
 10016 1093 70617261 		.ascii	"parameter_integer_set\000"
 10016      6D657465 
 10016      725F696E 
 10016      74656765 
 10016      725F7365 
 10017              	.LASF220:
 10018 10a9 63685F73 		.ascii	"ch_system\000"
 10018      79737465 
 10018      6D00
 10019              	.LASF322:
 10020 10b3 70617261 		.ascii	"parameter_integer_declare_with_default\000"
 10020      6D657465 
 10020      725F696E 
 10020      74656765 
 10020      725F6465 
 10021              	.LASF79:
 10022 10da 5F6C6F63 		.ascii	"_locale\000"
 10022      616C6500 
 10023              	.LASF27:
 10024 10e2 5F5F554C 		.ascii	"__ULong\000"
 10024      6F6E6700 
 10025              	.LASF130:
 10026 10ea 75696E74 		.ascii	"uint32_t\000"
 10026      33325F74 
 10026      00
 10027              	.LASF82:
 10028 10f3 5F726573 		.ascii	"_result\000"
 10028      756C7400 
 10029              	.LASF329:
ARM GAS  C:\Users\PCHAUT~1\AppData\Local\Temp\ccxXBCq6.s 			page 191


 10030 10fb 5F706172 		.ascii	"_parameter_changed_clear\000"
 10030      616D6574 
 10030      65725F63 
 10030      68616E67 
 10030      65645F63 
 10031              	.LASF354:
 10032 1114 2E2E2F6C 		.ascii	"../lib/e-puck2_main-processor/src/parameter/paramet"
 10032      69622F65 
 10032      2D707563 
 10032      6B325F6D 
 10032      61696E2D 
 10033 1147 65722E63 		.ascii	"er.c\000"
 10033      00
 10034              	.LASF17:
 10035 114c 5F6F6666 		.ascii	"_off_t\000"
 10035      5F7400
 10036              	.LASF147:
 10037 1153 6275665F 		.ascii	"buf_len\000"
 10037      6C656E00 
 10038              	.LASF253:
 10039 115b 7264796D 		.ascii	"rdymsg\000"
 10039      736700
 10040              	.LASF100:
 10041 1162 5F616464 		.ascii	"_add\000"
 10041      00
 10042              	.LASF9:
 10043 1167 73686F72 		.ascii	"short unsigned int\000"
 10043      7420756E 
 10043      7369676E 
 10043      65642069 
 10043      6E7400
 10044              	.LASF36:
 10045 117a 5F5F746D 		.ascii	"__tm_hour\000"
 10045      5F686F75 
 10045      7200
 10046              	.LASF219:
 10047 1184 63685F73 		.ascii	"ch_system_t\000"
 10047      79737465 
 10047      6D5F7400 
 10048              	.LASF286:
 10049 1190 63686465 		.ascii	"chdebug_t\000"
 10049      6275675F 
 10049      7400
 10050              	.LASF338:
 10051 119a 69645F6C 		.ascii	"id_len\000"
 10051      656E00
 10052              	.LASF270:
 10053 11a1 63685F73 		.ascii	"ch_size\000"
 10053      697A6500 
 10054              	.LASF116:
 10055 11a9 5F6D6273 		.ascii	"_mbsrtowcs_state\000"
 10055      72746F77 
 10055      63735F73 
 10055      74617465 
 10055      00
 10056              	.LASF175:
 10057 11ba 705F7374 		.ascii	"p_stklimit\000"
ARM GAS  C:\Users\PCHAUT~1\AppData\Local\Temp\ccxXBCq6.s 			page 192


 10057      6B6C696D 
 10057      697400
 10058              	.LASF306:
 10059 11c5 70617261 		.ascii	"parameter_variable_vector_declare\000"
 10059      6D657465 
 10059      725F7661 
 10059      72696162 
 10059      6C655F76 
 10060              	.LASF10:
 10061 11e7 5F5F696E 		.ascii	"__int32_t\000"
 10061      7433325F 
 10061      7400
 10062              	.LASF349:
 10063 11f1 69645F73 		.ascii	"id_split\000"
 10063      706C6974 
 10063      00
 10064              	.LASF44:
 10065 11fa 5F666E61 		.ascii	"_fnargs\000"
 10065      72677300 
 10066              	.LASF336:
 10067 1202 70617261 		.ascii	"parameter_find\000"
 10067      6D657465 
 10067      725F6669 
 10067      6E6400
 10068              	.LASF42:
 10069 1211 5F5F746D 		.ascii	"__tm_isdst\000"
 10069      5F697364 
 10069      737400
 10070              	.LASF342:
 10071 121c 6E726574 		.ascii	"nret\000"
 10071      00
 10072              	.LASF232:
 10073 1221 73655F74 		.ascii	"se_time\000"
 10073      696D6500 
 10074              	.LASF174:
 10075 1229 705F6E61 		.ascii	"p_name\000"
 10075      6D6500
 10076              	.LASF138:
 10077 1230 6E657874 		.ascii	"next\000"
 10077      00
 10078              	.LASF266:
 10079 1235 6D5F6E65 		.ascii	"m_next\000"
 10079      787400
 10080              	.LASF238:
 10081 123c 74625F70 		.ascii	"tb_ptr\000"
 10081      747200
 10082              	.LASF35:
 10083 1243 5F5F746D 		.ascii	"__tm_min\000"
 10083      5F6D696E 
 10083      00
 10084              	.LASF113:
 10085 124c 5F676574 		.ascii	"_getdate_err\000"
 10085      64617465 
 10085      5F657272 
 10085      00
 10086              	.LASF257:
 10087 1259 77747365 		.ascii	"wtsemp\000"
ARM GAS  C:\Users\PCHAUT~1\AppData\Local\Temp\ccxXBCq6.s 			page 193


 10087      6D7000
 10088              	.LASF245:
 10089 1260 6C617374 		.ascii	"last\000"
 10089      00
 10090              	.LASF183:
 10091 1265 705F6D73 		.ascii	"p_msg\000"
 10091      6700
 10092              	.LASF176:
 10093 126b 705F7374 		.ascii	"p_state\000"
 10093      61746500 
 10094              		.ident	"GCC: (GNU Tools for Arm Embedded Processors 7-2017-q4-major) 7.2.1 20170904 (release) [ARM
ARM GAS  C:\Users\PCHAUT~1\AppData\Local\Temp\ccxXBCq6.s 			page 194


DEFINED SYMBOLS
                            *ABS*:00000000 parameter.c
C:\Users\PCHAUT~1\AppData\Local\Temp\ccxXBCq6.s:18     .text.port_lock:00000000 $t
C:\Users\PCHAUT~1\AppData\Local\Temp\ccxXBCq6.s:25     .text.port_lock:00000000 port_lock
C:\Users\PCHAUT~1\AppData\Local\Temp\ccxXBCq6.s:72     .text.port_lock:0000002c $d
C:\Users\PCHAUT~1\AppData\Local\Temp\ccxXBCq6.s:77     .text.port_unlock:00000000 $t
C:\Users\PCHAUT~1\AppData\Local\Temp\ccxXBCq6.s:84     .text.port_unlock:00000000 port_unlock
C:\Users\PCHAUT~1\AppData\Local\Temp\ccxXBCq6.s:129    .text.port_unlock:0000002c $d
C:\Users\PCHAUT~1\AppData\Local\Temp\ccxXBCq6.s:134    .text.chSysLock:00000000 $t
C:\Users\PCHAUT~1\AppData\Local\Temp\ccxXBCq6.s:141    .text.chSysLock:00000000 chSysLock
C:\Users\PCHAUT~1\AppData\Local\Temp\ccxXBCq6.s:179    .text.chSysLock:0000002c $d
C:\Users\PCHAUT~1\AppData\Local\Temp\ccxXBCq6.s:184    .text.chSysUnlock:00000000 $t
C:\Users\PCHAUT~1\AppData\Local\Temp\ccxXBCq6.s:191    .text.chSysUnlock:00000000 chSysUnlock
C:\Users\PCHAUT~1\AppData\Local\Temp\ccxXBCq6.s:247    .text.chSysUnlock:0000004c $d
C:\Users\PCHAUT~1\AppData\Local\Temp\ccxXBCq6.s:3768   .rodata.__func__.8162:00000000 __func__.8162
C:\Users\PCHAUT~1\AppData\Local\Temp\ccxXBCq6.s:254    .text.id_split:00000000 $t
C:\Users\PCHAUT~1\AppData\Local\Temp\ccxXBCq6.s:261    .text.id_split:00000000 id_split
C:\Users\PCHAUT~1\AppData\Local\Temp\ccxXBCq6.s:327    .text.id_split:00000050 $d
C:\Users\PCHAUT~1\AppData\Local\Temp\ccxXBCq6.s:332    .text.get_subnamespace:00000000 $t
C:\Users\PCHAUT~1\AppData\Local\Temp\ccxXBCq6.s:339    .text.get_subnamespace:00000000 get_subnamespace
C:\Users\PCHAUT~1\AppData\Local\Temp\ccxXBCq6.s:428    .text.get_subnamespace:00000074 $d
C:\Users\PCHAUT~1\AppData\Local\Temp\ccxXBCq6.s:433    .text.get_parameter:00000000 $t
C:\Users\PCHAUT~1\AppData\Local\Temp\ccxXBCq6.s:440    .text.get_parameter:00000000 get_parameter
C:\Users\PCHAUT~1\AppData\Local\Temp\ccxXBCq6.s:529    .text.get_parameter:00000074 $d
C:\Users\PCHAUT~1\AppData\Local\Temp\ccxXBCq6.s:534    .text.parameter_namespace_declare:00000000 $t
C:\Users\PCHAUT~1\AppData\Local\Temp\ccxXBCq6.s:542    .text.parameter_namespace_declare:00000000 parameter_namespace_declare
C:\Users\PCHAUT~1\AppData\Local\Temp\ccxXBCq6.s:623    .text.parameter_namespace_declare:0000006c $d
C:\Users\PCHAUT~1\AppData\Local\Temp\ccxXBCq6.s:628    .text._parameter_namespace_find_w_id_len:00000000 $t
C:\Users\PCHAUT~1\AppData\Local\Temp\ccxXBCq6.s:636    .text._parameter_namespace_find_w_id_len:00000000 _parameter_namespace_find_w_id_len
C:\Users\PCHAUT~1\AppData\Local\Temp\ccxXBCq6.s:719    .text._parameter_namespace_find_w_id_len:00000070 $d
C:\Users\PCHAUT~1\AppData\Local\Temp\ccxXBCq6.s:724    .text.parameter_namespace_find:00000000 $t
C:\Users\PCHAUT~1\AppData\Local\Temp\ccxXBCq6.s:732    .text.parameter_namespace_find:00000000 parameter_namespace_find
C:\Users\PCHAUT~1\AppData\Local\Temp\ccxXBCq6.s:774    .text.parameter_namespace_find:00000038 $d
C:\Users\PCHAUT~1\AppData\Local\Temp\ccxXBCq6.s:779    .text._parameter_find_w_id_len:00000000 $t
C:\Users\PCHAUT~1\AppData\Local\Temp\ccxXBCq6.s:787    .text._parameter_find_w_id_len:00000000 _parameter_find_w_id_len
C:\Users\PCHAUT~1\AppData\Local\Temp\ccxXBCq6.s:885    .text._parameter_find_w_id_len:0000008c $d
C:\Users\PCHAUT~1\AppData\Local\Temp\ccxXBCq6.s:890    .text.parameter_find:00000000 $t
C:\Users\PCHAUT~1\AppData\Local\Temp\ccxXBCq6.s:898    .text.parameter_find:00000000 parameter_find
C:\Users\PCHAUT~1\AppData\Local\Temp\ccxXBCq6.s:940    .text.parameter_find:00000038 $d
C:\Users\PCHAUT~1\AppData\Local\Temp\ccxXBCq6.s:945    .text._parameter_declare:00000000 $t
C:\Users\PCHAUT~1\AppData\Local\Temp\ccxXBCq6.s:953    .text._parameter_declare:00000000 _parameter_declare
C:\Users\PCHAUT~1\AppData\Local\Temp\ccxXBCq6.s:1018   .text._parameter_declare:00000058 $d
C:\Users\PCHAUT~1\AppData\Local\Temp\ccxXBCq6.s:1023   .text.parameter_namespace_contains_changed:00000000 $t
C:\Users\PCHAUT~1\AppData\Local\Temp\ccxXBCq6.s:1031   .text.parameter_namespace_contains_changed:00000000 parameter_namespace_contains_changed
C:\Users\PCHAUT~1\AppData\Local\Temp\ccxXBCq6.s:1078   .text.parameter_namespace_contains_changed:0000003c $d
C:\Users\PCHAUT~1\AppData\Local\Temp\ccxXBCq6.s:1083   .text.parameter_changed:00000000 $t
C:\Users\PCHAUT~1\AppData\Local\Temp\ccxXBCq6.s:1091   .text.parameter_changed:00000000 parameter_changed
C:\Users\PCHAUT~1\AppData\Local\Temp\ccxXBCq6.s:1133   .text.parameter_changed:00000038 $d
C:\Users\PCHAUT~1\AppData\Local\Temp\ccxXBCq6.s:1138   .text.parameter_defined:00000000 $t
C:\Users\PCHAUT~1\AppData\Local\Temp\ccxXBCq6.s:1146   .text.parameter_defined:00000000 parameter_defined
C:\Users\PCHAUT~1\AppData\Local\Temp\ccxXBCq6.s:1197   .text.parameter_defined:00000040 $d
C:\Users\PCHAUT~1\AppData\Local\Temp\ccxXBCq6.s:1202   .text._parameter_changed_set:00000000 $t
C:\Users\PCHAUT~1\AppData\Local\Temp\ccxXBCq6.s:1210   .text._parameter_changed_set:00000000 _parameter_changed_set
C:\Users\PCHAUT~1\AppData\Local\Temp\ccxXBCq6.s:1292   .text._parameter_changed_set:00000070 $d
C:\Users\PCHAUT~1\AppData\Local\Temp\ccxXBCq6.s:1297   .text._parameter_changed_clear:00000000 $t
C:\Users\PCHAUT~1\AppData\Local\Temp\ccxXBCq6.s:1305   .text._parameter_changed_clear:00000000 _parameter_changed_clear
C:\Users\PCHAUT~1\AppData\Local\Temp\ccxXBCq6.s:1385   .text._parameter_changed_clear:00000070 $d
ARM GAS  C:\Users\PCHAUT~1\AppData\Local\Temp\ccxXBCq6.s 			page 195


C:\Users\PCHAUT~1\AppData\Local\Temp\ccxXBCq6.s:1390   .text.parameter_scalar_declare:00000000 $t
C:\Users\PCHAUT~1\AppData\Local\Temp\ccxXBCq6.s:1398   .text.parameter_scalar_declare:00000000 parameter_scalar_declare
C:\Users\PCHAUT~1\AppData\Local\Temp\ccxXBCq6.s:1441   .text.parameter_scalar_declare:00000038 $d
C:\Users\PCHAUT~1\AppData\Local\Temp\ccxXBCq6.s:1446   .text.parameter_scalar_declare_with_default:00000000 $t
C:\Users\PCHAUT~1\AppData\Local\Temp\ccxXBCq6.s:1454   .text.parameter_scalar_declare_with_default:00000000 parameter_scalar_declare_with_default
C:\Users\PCHAUT~1\AppData\Local\Temp\ccxXBCq6.s:1505   .text.parameter_scalar_declare_with_default:00000048 $d
C:\Users\PCHAUT~1\AppData\Local\Temp\ccxXBCq6.s:1510   .text.parameter_scalar_get:00000000 $t
C:\Users\PCHAUT~1\AppData\Local\Temp\ccxXBCq6.s:1518   .text.parameter_scalar_get:00000000 parameter_scalar_get
C:\Users\PCHAUT~1\AppData\Local\Temp\ccxXBCq6.s:1570   .text.parameter_scalar_read:00000000 parameter_scalar_read
C:\Users\PCHAUT~1\AppData\Local\Temp\ccxXBCq6.s:1557   .text.parameter_scalar_get:00000034 $d
C:\Users\PCHAUT~1\AppData\Local\Temp\ccxXBCq6.s:1562   .text.parameter_scalar_read:00000000 $t
C:\Users\PCHAUT~1\AppData\Local\Temp\ccxXBCq6.s:1633   .text.parameter_scalar_read:0000005c $d
C:\Users\PCHAUT~1\AppData\Local\Temp\ccxXBCq6.s:3774   .rodata.__func__.9069:00000000 __func__.9069
C:\Users\PCHAUT~1\AppData\Local\Temp\ccxXBCq6.s:1639   .text.parameter_scalar_set:00000000 $t
C:\Users\PCHAUT~1\AppData\Local\Temp\ccxXBCq6.s:1647   .text.parameter_scalar_set:00000000 parameter_scalar_set
C:\Users\PCHAUT~1\AppData\Local\Temp\ccxXBCq6.s:1700   .text.parameter_scalar_set:00000048 $d
C:\Users\PCHAUT~1\AppData\Local\Temp\ccxXBCq6.s:3780   .rodata.__func__.9075:00000000 __func__.9075
C:\Users\PCHAUT~1\AppData\Local\Temp\ccxXBCq6.s:1706   .text.parameter_integer_declare:00000000 $t
C:\Users\PCHAUT~1\AppData\Local\Temp\ccxXBCq6.s:1714   .text.parameter_integer_declare:00000000 parameter_integer_declare
C:\Users\PCHAUT~1\AppData\Local\Temp\ccxXBCq6.s:1757   .text.parameter_integer_declare:00000038 $d
C:\Users\PCHAUT~1\AppData\Local\Temp\ccxXBCq6.s:1762   .text.parameter_integer_declare_with_default:00000000 $t
C:\Users\PCHAUT~1\AppData\Local\Temp\ccxXBCq6.s:1770   .text.parameter_integer_declare_with_default:00000000 parameter_integer_declare_with_default
C:\Users\PCHAUT~1\AppData\Local\Temp\ccxXBCq6.s:1821   .text.parameter_integer_declare_with_default:00000044 $d
C:\Users\PCHAUT~1\AppData\Local\Temp\ccxXBCq6.s:1826   .text.parameter_integer_get:00000000 $t
C:\Users\PCHAUT~1\AppData\Local\Temp\ccxXBCq6.s:1834   .text.parameter_integer_get:00000000 parameter_integer_get
C:\Users\PCHAUT~1\AppData\Local\Temp\ccxXBCq6.s:1886   .text.parameter_integer_read:00000000 parameter_integer_read
C:\Users\PCHAUT~1\AppData\Local\Temp\ccxXBCq6.s:1873   .text.parameter_integer_get:00000030 $d
C:\Users\PCHAUT~1\AppData\Local\Temp\ccxXBCq6.s:1878   .text.parameter_integer_read:00000000 $t
C:\Users\PCHAUT~1\AppData\Local\Temp\ccxXBCq6.s:1948   .text.parameter_integer_read:00000054 $d
C:\Users\PCHAUT~1\AppData\Local\Temp\ccxXBCq6.s:3786   .rodata.__func__.9093:00000000 __func__.9093
C:\Users\PCHAUT~1\AppData\Local\Temp\ccxXBCq6.s:1954   .text.parameter_integer_set:00000000 $t
C:\Users\PCHAUT~1\AppData\Local\Temp\ccxXBCq6.s:1962   .text.parameter_integer_set:00000000 parameter_integer_set
C:\Users\PCHAUT~1\AppData\Local\Temp\ccxXBCq6.s:2015   .text.parameter_integer_set:00000048 $d
C:\Users\PCHAUT~1\AppData\Local\Temp\ccxXBCq6.s:3792   .rodata.__func__.9099:00000000 __func__.9099
C:\Users\PCHAUT~1\AppData\Local\Temp\ccxXBCq6.s:2021   .text.parameter_boolean_declare:00000000 $t
C:\Users\PCHAUT~1\AppData\Local\Temp\ccxXBCq6.s:2029   .text.parameter_boolean_declare:00000000 parameter_boolean_declare
C:\Users\PCHAUT~1\AppData\Local\Temp\ccxXBCq6.s:2072   .text.parameter_boolean_declare:00000038 $d
C:\Users\PCHAUT~1\AppData\Local\Temp\ccxXBCq6.s:2077   .text.parameter_boolean_declare_with_default:00000000 $t
C:\Users\PCHAUT~1\AppData\Local\Temp\ccxXBCq6.s:2085   .text.parameter_boolean_declare_with_default:00000000 parameter_boolean_declare_with_default
C:\Users\PCHAUT~1\AppData\Local\Temp\ccxXBCq6.s:2136   .text.parameter_boolean_declare_with_default:00000048 $d
C:\Users\PCHAUT~1\AppData\Local\Temp\ccxXBCq6.s:2141   .text.parameter_boolean_set:00000000 $t
C:\Users\PCHAUT~1\AppData\Local\Temp\ccxXBCq6.s:2149   .text.parameter_boolean_set:00000000 parameter_boolean_set
C:\Users\PCHAUT~1\AppData\Local\Temp\ccxXBCq6.s:2203   .text.parameter_boolean_set:0000004c $d
C:\Users\PCHAUT~1\AppData\Local\Temp\ccxXBCq6.s:3798   .rodata.__func__.9115:00000000 __func__.9115
C:\Users\PCHAUT~1\AppData\Local\Temp\ccxXBCq6.s:2209   .text.parameter_boolean_get:00000000 $t
C:\Users\PCHAUT~1\AppData\Local\Temp\ccxXBCq6.s:2217   .text.parameter_boolean_get:00000000 parameter_boolean_get
C:\Users\PCHAUT~1\AppData\Local\Temp\ccxXBCq6.s:2269   .text.parameter_boolean_read:00000000 parameter_boolean_read
C:\Users\PCHAUT~1\AppData\Local\Temp\ccxXBCq6.s:2256   .text.parameter_boolean_get:00000030 $d
C:\Users\PCHAUT~1\AppData\Local\Temp\ccxXBCq6.s:2261   .text.parameter_boolean_read:00000000 $t
C:\Users\PCHAUT~1\AppData\Local\Temp\ccxXBCq6.s:2331   .text.parameter_boolean_read:00000058 $d
C:\Users\PCHAUT~1\AppData\Local\Temp\ccxXBCq6.s:3804   .rodata.__func__.9122:00000000 __func__.9122
C:\Users\PCHAUT~1\AppData\Local\Temp\ccxXBCq6.s:2337   .text.parameter_vector_declare:00000000 $t
C:\Users\PCHAUT~1\AppData\Local\Temp\ccxXBCq6.s:2345   .text.parameter_vector_declare:00000000 parameter_vector_declare
C:\Users\PCHAUT~1\AppData\Local\Temp\ccxXBCq6.s:2399   .text.parameter_vector_declare:00000050 $d
C:\Users\PCHAUT~1\AppData\Local\Temp\ccxXBCq6.s:2404   .text.parameter_vector_declare_with_default:00000000 $t
C:\Users\PCHAUT~1\AppData\Local\Temp\ccxXBCq6.s:2412   .text.parameter_vector_declare_with_default:00000000 parameter_vector_declare_with_default
C:\Users\PCHAUT~1\AppData\Local\Temp\ccxXBCq6.s:2460   .text.parameter_vector_declare_with_default:00000048 $d
ARM GAS  C:\Users\PCHAUT~1\AppData\Local\Temp\ccxXBCq6.s 			page 196


C:\Users\PCHAUT~1\AppData\Local\Temp\ccxXBCq6.s:2465   .text.parameter_vector_dim:00000000 $t
C:\Users\PCHAUT~1\AppData\Local\Temp\ccxXBCq6.s:2473   .text.parameter_vector_dim:00000000 parameter_vector_dim
C:\Users\PCHAUT~1\AppData\Local\Temp\ccxXBCq6.s:2517   .text.parameter_vector_dim:00000034 $d
C:\Users\PCHAUT~1\AppData\Local\Temp\ccxXBCq6.s:3810   .rodata.__func__.9141:00000000 __func__.9141
C:\Users\PCHAUT~1\AppData\Local\Temp\ccxXBCq6.s:2523   .text.parameter_vector_get:00000000 $t
C:\Users\PCHAUT~1\AppData\Local\Temp\ccxXBCq6.s:2531   .text.parameter_vector_get:00000000 parameter_vector_get
C:\Users\PCHAUT~1\AppData\Local\Temp\ccxXBCq6.s:2584   .text.parameter_vector_read:00000000 parameter_vector_read
C:\Users\PCHAUT~1\AppData\Local\Temp\ccxXBCq6.s:2571   .text.parameter_vector_get:00000034 $d
C:\Users\PCHAUT~1\AppData\Local\Temp\ccxXBCq6.s:2576   .text.parameter_vector_read:00000000 $t
C:\Users\PCHAUT~1\AppData\Local\Temp\ccxXBCq6.s:2670   .text.parameter_vector_read:0000007c $d
C:\Users\PCHAUT~1\AppData\Local\Temp\ccxXBCq6.s:3816   .rodata.__func__.9150:00000000 __func__.9150
C:\Users\PCHAUT~1\AppData\Local\Temp\ccxXBCq6.s:2676   .text.parameter_vector_set:00000000 $t
C:\Users\PCHAUT~1\AppData\Local\Temp\ccxXBCq6.s:2684   .text.parameter_vector_set:00000000 parameter_vector_set
C:\Users\PCHAUT~1\AppData\Local\Temp\ccxXBCq6.s:2762   .text.parameter_vector_set:00000070 $d
C:\Users\PCHAUT~1\AppData\Local\Temp\ccxXBCq6.s:3822   .rodata.__func__.9159:00000000 __func__.9159
C:\Users\PCHAUT~1\AppData\Local\Temp\ccxXBCq6.s:2768   .text.parameter_variable_vector_declare:00000000 $t
C:\Users\PCHAUT~1\AppData\Local\Temp\ccxXBCq6.s:2776   .text.parameter_variable_vector_declare:00000000 parameter_variable_vector_declare
C:\Users\PCHAUT~1\AppData\Local\Temp\ccxXBCq6.s:2830   .text.parameter_variable_vector_declare:00000050 $d
C:\Users\PCHAUT~1\AppData\Local\Temp\ccxXBCq6.s:2835   .text.parameter_variable_vector_declare_with_default:00000000 $t
C:\Users\PCHAUT~1\AppData\Local\Temp\ccxXBCq6.s:2843   .text.parameter_variable_vector_declare_with_default:00000000 parameter_variable_vector_declare_with_default
C:\Users\PCHAUT~1\AppData\Local\Temp\ccxXBCq6.s:2906   .text.parameter_variable_vector_declare_with_default:0000006c $d
C:\Users\PCHAUT~1\AppData\Local\Temp\ccxXBCq6.s:3828   .rodata.__func__.9179:00000000 __func__.9179
C:\Users\PCHAUT~1\AppData\Local\Temp\ccxXBCq6.s:2912   .text.parameter_variable_vector_max_dim:00000000 $t
C:\Users\PCHAUT~1\AppData\Local\Temp\ccxXBCq6.s:2920   .text.parameter_variable_vector_max_dim:00000000 parameter_variable_vector_max_dim
C:\Users\PCHAUT~1\AppData\Local\Temp\ccxXBCq6.s:2964   .text.parameter_variable_vector_max_dim:00000034 $d
C:\Users\PCHAUT~1\AppData\Local\Temp\ccxXBCq6.s:3834   .rodata.__func__.9183:00000000 __func__.9183
C:\Users\PCHAUT~1\AppData\Local\Temp\ccxXBCq6.s:2970   .text.parameter_variable_vector_get:00000000 $t
C:\Users\PCHAUT~1\AppData\Local\Temp\ccxXBCq6.s:2978   .text.parameter_variable_vector_get:00000000 parameter_variable_vector_get
C:\Users\PCHAUT~1\AppData\Local\Temp\ccxXBCq6.s:3032   .text.parameter_variable_vector_read:00000000 parameter_variable_vector_read
C:\Users\PCHAUT~1\AppData\Local\Temp\ccxXBCq6.s:3019   .text.parameter_variable_vector_get:00000034 $d
C:\Users\PCHAUT~1\AppData\Local\Temp\ccxXBCq6.s:3024   .text.parameter_variable_vector_read:00000000 $t
C:\Users\PCHAUT~1\AppData\Local\Temp\ccxXBCq6.s:3124   .text.parameter_variable_vector_read:00000088 $d
C:\Users\PCHAUT~1\AppData\Local\Temp\ccxXBCq6.s:3840   .rodata.__func__.9192:00000000 __func__.9192
C:\Users\PCHAUT~1\AppData\Local\Temp\ccxXBCq6.s:3130   .text.parameter_variable_vector_set:00000000 $t
C:\Users\PCHAUT~1\AppData\Local\Temp\ccxXBCq6.s:3138   .text.parameter_variable_vector_set:00000000 parameter_variable_vector_set
C:\Users\PCHAUT~1\AppData\Local\Temp\ccxXBCq6.s:3230   .text.parameter_variable_vector_set:0000008c $d
C:\Users\PCHAUT~1\AppData\Local\Temp\ccxXBCq6.s:3846   .rodata.__func__.9203:00000000 __func__.9203
C:\Users\PCHAUT~1\AppData\Local\Temp\ccxXBCq6.s:3236   .text.parameter_string_declare:00000000 $t
C:\Users\PCHAUT~1\AppData\Local\Temp\ccxXBCq6.s:3244   .text.parameter_string_declare:00000000 parameter_string_declare
C:\Users\PCHAUT~1\AppData\Local\Temp\ccxXBCq6.s:3298   .text.parameter_string_declare:00000050 $d
C:\Users\PCHAUT~1\AppData\Local\Temp\ccxXBCq6.s:3303   .text.parameter_string_declare_with_default:00000000 $t
C:\Users\PCHAUT~1\AppData\Local\Temp\ccxXBCq6.s:3311   .text.parameter_string_declare_with_default:00000000 parameter_string_declare_with_default
C:\Users\PCHAUT~1\AppData\Local\Temp\ccxXBCq6.s:3385   .text.parameter_string_declare_with_default:0000007c $d
C:\Users\PCHAUT~1\AppData\Local\Temp\ccxXBCq6.s:3852   .rodata.__func__.9223:00000000 __func__.9223
C:\Users\PCHAUT~1\AppData\Local\Temp\ccxXBCq6.s:3391   .text.parameter_string_max_len:00000000 $t
C:\Users\PCHAUT~1\AppData\Local\Temp\ccxXBCq6.s:3399   .text.parameter_string_max_len:00000000 parameter_string_max_len
C:\Users\PCHAUT~1\AppData\Local\Temp\ccxXBCq6.s:3445   .text.parameter_string_max_len:00000038 $d
C:\Users\PCHAUT~1\AppData\Local\Temp\ccxXBCq6.s:3858   .rodata.__func__.9227:00000000 __func__.9227
C:\Users\PCHAUT~1\AppData\Local\Temp\ccxXBCq6.s:3451   .text.parameter_string_get:00000000 $t
C:\Users\PCHAUT~1\AppData\Local\Temp\ccxXBCq6.s:3459   .text.parameter_string_get:00000000 parameter_string_get
C:\Users\PCHAUT~1\AppData\Local\Temp\ccxXBCq6.s:3517   .text.parameter_string_read:00000000 parameter_string_read
C:\Users\PCHAUT~1\AppData\Local\Temp\ccxXBCq6.s:3504   .text.parameter_string_get:00000040 $d
C:\Users\PCHAUT~1\AppData\Local\Temp\ccxXBCq6.s:3509   .text.parameter_string_read:00000000 $t
C:\Users\PCHAUT~1\AppData\Local\Temp\ccxXBCq6.s:3618   .text.parameter_string_read:000000ac $d
C:\Users\PCHAUT~1\AppData\Local\Temp\ccxXBCq6.s:3864   .rodata.__func__.9238:00000000 __func__.9238
C:\Users\PCHAUT~1\AppData\Local\Temp\ccxXBCq6.s:3624   .text.parameter_string_set:00000000 $t
C:\Users\PCHAUT~1\AppData\Local\Temp\ccxXBCq6.s:3632   .text.parameter_string_set:00000000 parameter_string_set
ARM GAS  C:\Users\PCHAUT~1\AppData\Local\Temp\ccxXBCq6.s 			page 197


C:\Users\PCHAUT~1\AppData\Local\Temp\ccxXBCq6.s:3687   .text.parameter_string_set_w_len:00000000 parameter_string_set_w_len
C:\Users\PCHAUT~1\AppData\Local\Temp\ccxXBCq6.s:3674   .text.parameter_string_set:00000038 $d
C:\Users\PCHAUT~1\AppData\Local\Temp\ccxXBCq6.s:3679   .text.parameter_string_set_w_len:00000000 $t
C:\Users\PCHAUT~1\AppData\Local\Temp\ccxXBCq6.s:3759   .text.parameter_string_set_w_len:00000070 $d
C:\Users\PCHAUT~1\AppData\Local\Temp\ccxXBCq6.s:3870   .rodata.__func__.9249:00000000 __func__.9249
C:\Users\PCHAUT~1\AppData\Local\Temp\ccxXBCq6.s:3765   .rodata.__func__.8162:00000000 $d
C:\Users\PCHAUT~1\AppData\Local\Temp\ccxXBCq6.s:3771   .rodata.__func__.9069:00000000 $d
C:\Users\PCHAUT~1\AppData\Local\Temp\ccxXBCq6.s:3777   .rodata.__func__.9075:00000000 $d
C:\Users\PCHAUT~1\AppData\Local\Temp\ccxXBCq6.s:3783   .rodata.__func__.9093:00000000 $d
C:\Users\PCHAUT~1\AppData\Local\Temp\ccxXBCq6.s:3789   .rodata.__func__.9099:00000000 $d
C:\Users\PCHAUT~1\AppData\Local\Temp\ccxXBCq6.s:3795   .rodata.__func__.9115:00000000 $d
C:\Users\PCHAUT~1\AppData\Local\Temp\ccxXBCq6.s:3801   .rodata.__func__.9122:00000000 $d
C:\Users\PCHAUT~1\AppData\Local\Temp\ccxXBCq6.s:3807   .rodata.__func__.9141:00000000 $d
C:\Users\PCHAUT~1\AppData\Local\Temp\ccxXBCq6.s:3813   .rodata.__func__.9150:00000000 $d
C:\Users\PCHAUT~1\AppData\Local\Temp\ccxXBCq6.s:3819   .rodata.__func__.9159:00000000 $d
C:\Users\PCHAUT~1\AppData\Local\Temp\ccxXBCq6.s:3825   .rodata.__func__.9179:00000000 $d
C:\Users\PCHAUT~1\AppData\Local\Temp\ccxXBCq6.s:3831   .rodata.__func__.9183:00000000 $d
C:\Users\PCHAUT~1\AppData\Local\Temp\ccxXBCq6.s:3837   .rodata.__func__.9192:00000000 $d
C:\Users\PCHAUT~1\AppData\Local\Temp\ccxXBCq6.s:3843   .rodata.__func__.9203:00000000 $d
C:\Users\PCHAUT~1\AppData\Local\Temp\ccxXBCq6.s:3849   .rodata.__func__.9223:00000000 $d
C:\Users\PCHAUT~1\AppData\Local\Temp\ccxXBCq6.s:3855   .rodata.__func__.9227:00000000 $d
C:\Users\PCHAUT~1\AppData\Local\Temp\ccxXBCq6.s:3861   .rodata.__func__.9238:00000000 $d
C:\Users\PCHAUT~1\AppData\Local\Temp\ccxXBCq6.s:3867   .rodata.__func__.9249:00000000 $d

UNDEFINED SYMBOLS
__stack_chk_fail
__stack_chk_guard
_stats_start_measure_crit_thd
_dbg_check_lock
_dbg_check_unlock
_stats_stop_measure_crit_thd
chSysHalt
ch
strncmp
strlen
strncpy
memcpy
