ARM GAS  C:\Users\PCHAUT~1\AppData\Local\Temp\ccxXBCq6.s 			page 1


   1              		.cpu cortex-m4
   2              		.eabi_attribute 27, 1
   3              		.eabi_attribute 28, 1
   4              		.eabi_attribute 20, 1
   5              		.eabi_attribute 21, 1
   6              		.eabi_attribute 23, 3
   7              		.eabi_attribute 24, 1
   8              		.eabi_attribute 25, 1
   9              		.eabi_attribute 26, 1
  10              		.eabi_attribute 30, 6
  11              		.eabi_attribute 34, 1
  12              		.eabi_attribute 18, 4
  13              		.file	"parameter.c"
  14              		.text
  15              	.Ltext0:
  16              		.cfi_sections	.debug_frame
  17              		.section	.text.port_lock,"ax",%progbits
  18              		.align	1
  19              		.p2align 4,,15
  20              		.syntax unified
  21              		.thumb
  22              		.thumb_func
  23              		.fpu fpv4-sp-d16
  24              		.type	port_lock, %function
  25              	port_lock:
  26              	.LFB116:
  27              		.file 1 "../lib/e-puck2_main-processor/ChibiOS//os/rt/ports/ARMCMx/chcore_v7m.h"
  28              		.loc 1 444 0
  29              		.cfi_startproc
  30              		@ args = 0, pretend = 0, frame = 8
  31              		@ frame_needed = 0, uses_anonymous_args = 0
  32 0000 00B5     		push	{lr}
  33              		.cfi_def_cfa_offset 4
  34              		.cfi_offset 14, -4
  35 0002 83B0     		sub	sp, sp, #12
  36              		.cfi_def_cfa_offset 16
  37              		.loc 1 444 0
  38 0004 094B     		ldr	r3, .L3
  39 0006 1B68     		ldr	r3, [r3]
  40 0008 0193     		str	r3, [sp, #4]
  41 000a 2023     		movs	r3, #32
  42 000c 0093     		str	r3, [sp]
  43              	.LBB6:
  44              	.LBB7:
  45              		.file 2 "../lib/e-puck2_main-processor/ChibiOS//os/ext/CMSIS/include/core_cmFunc.h"
  46              		.loc 2 546 0
  47 000e 009B     		ldr	r3, [sp]
  48              		.syntax unified
  49              	@ 546 "../lib/e-puck2_main-processor/ChibiOS//os/ext/CMSIS/include/core_cmFunc.h" 1
  50 0010 83F31188 		MSR basepri, r3
  51              	@ 0 "" 2
  52              		.thumb
  53              		.syntax unified
  54              	.LBE7:
  55              	.LBE6:
  56              		.loc 1 451 0
  57 0014 00BF     		nop
ARM GAS  C:\Users\PCHAUT~1\AppData\Local\Temp\ccxXBCq6.s 			page 2


  58 0016 054B     		ldr	r3, .L3
  59 0018 019A     		ldr	r2, [sp, #4]
  60 001a 1B68     		ldr	r3, [r3]
  61 001c 9A42     		cmp	r2, r3
  62 001e 01D0     		beq	.L2
  63 0020 FFF7FEFF 		bl	__stack_chk_fail
  64              	.L2:
  65 0024 03B0     		add	sp, sp, #12
  66              		.cfi_def_cfa_offset 4
  67              		@ sp needed
  68 0026 5DF804FB 		ldr	pc, [sp], #4
  69              	.L4:
  70 002a 00BF     		.align	2
  71              	.L3:
  72 002c 00000000 		.word	__stack_chk_guard
  73              		.cfi_endproc
  74              	.LFE116:
  75              		.size	port_lock, .-port_lock
  76              		.section	.text.port_unlock,"ax",%progbits
  77              		.align	1
  78              		.p2align 4,,15
  79              		.syntax unified
  80              		.thumb
  81              		.thumb_func
  82              		.fpu fpv4-sp-d16
  83              		.type	port_unlock, %function
  84              	port_unlock:
  85              	.LFB117:
  86              		.loc 1 458 0
  87              		.cfi_startproc
  88              		@ args = 0, pretend = 0, frame = 8
  89              		@ frame_needed = 0, uses_anonymous_args = 0
  90 0000 00B5     		push	{lr}
  91              		.cfi_def_cfa_offset 4
  92              		.cfi_offset 14, -4
  93 0002 83B0     		sub	sp, sp, #12
  94              		.cfi_def_cfa_offset 16
  95              		.loc 1 458 0
  96 0004 094B     		ldr	r3, .L7
  97 0006 1B68     		ldr	r3, [r3]
  98 0008 0193     		str	r3, [sp, #4]
  99 000a 0023     		movs	r3, #0
 100 000c 0093     		str	r3, [sp]
 101              	.LBB8:
 102              	.LBB9:
 103              		.loc 2 546 0
 104 000e 009B     		ldr	r3, [sp]
 105              		.syntax unified
 106              	@ 546 "../lib/e-puck2_main-processor/ChibiOS//os/ext/CMSIS/include/core_cmFunc.h" 1
 107 0010 83F31188 		MSR basepri, r3
 108              	@ 0 "" 2
 109              		.thumb
 110              		.syntax unified
 111              	.LBE9:
 112              	.LBE8:
 113              		.loc 1 465 0
 114 0014 00BF     		nop
ARM GAS  C:\Users\PCHAUT~1\AppData\Local\Temp\ccxXBCq6.s 			page 3


 115 0016 054B     		ldr	r3, .L7
 116 0018 019A     		ldr	r2, [sp, #4]
 117 001a 1B68     		ldr	r3, [r3]
 118 001c 9A42     		cmp	r2, r3
 119 001e 01D0     		beq	.L6
 120 0020 FFF7FEFF 		bl	__stack_chk_fail
 121              	.L6:
 122 0024 03B0     		add	sp, sp, #12
 123              		.cfi_def_cfa_offset 4
 124              		@ sp needed
 125 0026 5DF804FB 		ldr	pc, [sp], #4
 126              	.L8:
 127 002a 00BF     		.align	2
 128              	.L7:
 129 002c 00000000 		.word	__stack_chk_guard
 130              		.cfi_endproc
 131              	.LFE117:
 132              		.size	port_unlock, .-port_unlock
 133              		.section	.text.chSysLock,"ax",%progbits
 134              		.align	1
 135              		.p2align 4,,15
 136              		.syntax unified
 137              		.thumb
 138              		.thumb_func
 139              		.fpu fpv4-sp-d16
 140              		.type	chSysLock, %function
 141              	chSysLock:
 142              	.LFB145:
 143              		.file 3 "../lib/e-puck2_main-processor/ChibiOS//os/rt/include/chsys.h"
 144              		.loc 3 346 0
 145              		.cfi_startproc
 146              		@ args = 0, pretend = 0, frame = 8
 147              		@ frame_needed = 0, uses_anonymous_args = 0
 148 0000 00B5     		push	{lr}
 149              		.cfi_def_cfa_offset 4
 150              		.cfi_offset 14, -4
 151 0002 83B0     		sub	sp, sp, #12
 152              		.cfi_def_cfa_offset 16
 153              		.loc 3 346 0
 154 0004 094B     		ldr	r3, .L11
 155 0006 1B68     		ldr	r3, [r3]
 156 0008 0193     		str	r3, [sp, #4]
 157              		.loc 3 348 0
 158 000a FFF7FEFF 		bl	port_lock
 159              		.loc 3 349 0
 160 000e FFF7FEFF 		bl	_stats_start_measure_crit_thd
 161              		.loc 3 350 0
 162 0012 FFF7FEFF 		bl	_dbg_check_lock
 163              		.loc 3 351 0
 164 0016 00BF     		nop
 165 0018 044B     		ldr	r3, .L11
 166 001a 019A     		ldr	r2, [sp, #4]
 167 001c 1B68     		ldr	r3, [r3]
 168 001e 9A42     		cmp	r2, r3
 169 0020 01D0     		beq	.L10
 170 0022 FFF7FEFF 		bl	__stack_chk_fail
 171              	.L10:
ARM GAS  C:\Users\PCHAUT~1\AppData\Local\Temp\ccxXBCq6.s 			page 4


 172 0026 03B0     		add	sp, sp, #12
 173              		.cfi_def_cfa_offset 4
 174              		@ sp needed
 175 0028 5DF804FB 		ldr	pc, [sp], #4
 176              	.L12:
 177              		.align	2
 178              	.L11:
 179 002c 00000000 		.word	__stack_chk_guard
 180              		.cfi_endproc
 181              	.LFE145:
 182              		.size	chSysLock, .-chSysLock
 183              		.section	.text.chSysUnlock,"ax",%progbits
 184              		.align	1
 185              		.p2align 4,,15
 186              		.syntax unified
 187              		.thumb
 188              		.thumb_func
 189              		.fpu fpv4-sp-d16
 190              		.type	chSysUnlock, %function
 191              	chSysUnlock:
 192              	.LFB146:
 193              		.loc 3 358 0
 194              		.cfi_startproc
 195              		@ args = 0, pretend = 0, frame = 8
 196              		@ frame_needed = 0, uses_anonymous_args = 0
 197 0000 00B5     		push	{lr}
 198              		.cfi_def_cfa_offset 4
 199              		.cfi_offset 14, -4
 200 0002 83B0     		sub	sp, sp, #12
 201              		.cfi_def_cfa_offset 16
 202              		.loc 3 358 0
 203 0004 114B     		ldr	r3, .L16
 204 0006 1B68     		ldr	r3, [r3]
 205 0008 0193     		str	r3, [sp, #4]
 206              		.loc 3 360 0
 207 000a FFF7FEFF 		bl	_dbg_check_unlock
 208              		.loc 3 361 0
 209 000e FFF7FEFF 		bl	_stats_stop_measure_crit_thd
 210              		.loc 3 367 0
 211 0012 0F4B     		ldr	r3, .L16+4
 212 0014 1B68     		ldr	r3, [r3]
 213 0016 0E4A     		ldr	r2, .L16+4
 214 0018 9342     		cmp	r3, r2
 215 001a 0AD0     		beq	.L14
 216              		.loc 3 367 0 is_stmt 0 discriminator 2
 217 001c 0C4B     		ldr	r3, .L16+4
 218 001e 9B69     		ldr	r3, [r3, #24]
 219 0020 9A68     		ldr	r2, [r3, #8]
 220 0022 0B4B     		ldr	r3, .L16+4
 221 0024 1B68     		ldr	r3, [r3]
 222 0026 9B68     		ldr	r3, [r3, #8]
 223 0028 9A42     		cmp	r2, r3
 224 002a 02D2     		bcs	.L14
 225              		.loc 3 367 0 discriminator 3
 226 002c 0948     		ldr	r0, .L16+8
 227 002e FFF7FEFF 		bl	chSysHalt
 228              	.L14:
ARM GAS  C:\Users\PCHAUT~1\AppData\Local\Temp\ccxXBCq6.s 			page 5


 229              		.loc 3 371 0 is_stmt 1
 230 0032 FFF7FEFF 		bl	port_unlock
 231              		.loc 3 372 0
 232 0036 00BF     		nop
 233 0038 044B     		ldr	r3, .L16
 234 003a 019A     		ldr	r2, [sp, #4]
 235 003c 1B68     		ldr	r3, [r3]
 236 003e 9A42     		cmp	r2, r3
 237 0040 01D0     		beq	.L15
 238 0042 FFF7FEFF 		bl	__stack_chk_fail
 239              	.L15:
 240 0046 03B0     		add	sp, sp, #12
 241              		.cfi_def_cfa_offset 4
 242              		@ sp needed
 243 0048 5DF804FB 		ldr	pc, [sp], #4
 244              	.L17:
 245              		.align	2
 246              	.L16:
 247 004c 00000000 		.word	__stack_chk_guard
 248 0050 00000000 		.word	ch
 249 0054 00000000 		.word	__func__.8162
 250              		.cfi_endproc
 251              	.LFE146:
 252              		.size	chSysUnlock, .-chSysUnlock
 253              		.section	.text.id_split,"ax",%progbits
 254              		.align	1
 255              		.p2align 4,,15
 256              		.syntax unified
 257              		.thumb
 258              		.thumb_func
 259              		.fpu fpv4-sp-d16
 260              		.type	id_split, %function
 261              	id_split:
 262              	.LFB250:
 263              		.file 4 "../lib/e-puck2_main-processor/src/parameter/parameter.c"
 264              		.loc 4 32 0
 265              		.cfi_startproc
 266              		@ args = 0, pretend = 0, frame = 16
 267              		@ frame_needed = 0, uses_anonymous_args = 0
 268 0000 00B5     		push	{lr}
 269              		.cfi_def_cfa_offset 4
 270              		.cfi_offset 14, -4
 271 0002 85B0     		sub	sp, sp, #20
 272              		.cfi_def_cfa_offset 24
 273 0004 0190     		str	r0, [sp, #4]
 274 0006 0091     		str	r1, [sp]
 275              		.loc 4 32 0
 276 0008 114B     		ldr	r3, .L24
 277 000a 1B68     		ldr	r3, [r3]
 278 000c 0393     		str	r3, [sp, #12]
 279              		.loc 4 33 0
 280 000e 0023     		movs	r3, #0
 281 0010 0293     		str	r3, [sp, #8]
 282              		.loc 4 34 0
 283 0012 0023     		movs	r3, #0
 284 0014 0293     		str	r3, [sp, #8]
 285 0016 0AE0     		b	.L19
ARM GAS  C:\Users\PCHAUT~1\AppData\Local\Temp\ccxXBCq6.s 			page 6


 286              	.L22:
 287              		.loc 4 35 0
 288 0018 029B     		ldr	r3, [sp, #8]
 289 001a 019A     		ldr	r2, [sp, #4]
 290 001c 1344     		add	r3, r3, r2
 291 001e 1B78     		ldrb	r3, [r3]	@ zero_extendqisi2
 292 0020 2F2B     		cmp	r3, #47
 293 0022 01D1     		bne	.L20
 294              		.loc 4 36 0
 295 0024 029B     		ldr	r3, [sp, #8]
 296 0026 07E0     		b	.L21
 297              	.L20:
 298              		.loc 4 34 0 discriminator 2
 299 0028 029B     		ldr	r3, [sp, #8]
 300 002a 0133     		adds	r3, r3, #1
 301 002c 0293     		str	r3, [sp, #8]
 302              	.L19:
 303              		.loc 4 34 0 is_stmt 0 discriminator 1
 304 002e 029A     		ldr	r2, [sp, #8]
 305 0030 009B     		ldr	r3, [sp]
 306 0032 9A42     		cmp	r2, r3
 307 0034 F0DB     		blt	.L22
 308              		.loc 4 39 0 is_stmt 1
 309 0036 009B     		ldr	r3, [sp]
 310              	.L21:
 311              		.loc 4 40 0
 312 0038 1846     		mov	r0, r3
 313 003a 054B     		ldr	r3, .L24
 314 003c 039A     		ldr	r2, [sp, #12]
 315 003e 1B68     		ldr	r3, [r3]
 316 0040 9A42     		cmp	r2, r3
 317 0042 01D0     		beq	.L23
 318 0044 FFF7FEFF 		bl	__stack_chk_fail
 319              	.L23:
 320 0048 05B0     		add	sp, sp, #20
 321              		.cfi_def_cfa_offset 4
 322              		@ sp needed
 323 004a 5DF804FB 		ldr	pc, [sp], #4
 324              	.L25:
 325 004e 00BF     		.align	2
 326              	.L24:
 327 0050 00000000 		.word	__stack_chk_guard
 328              		.cfi_endproc
 329              	.LFE250:
 330              		.size	id_split, .-id_split
 331              		.section	.text.get_subnamespace,"ax",%progbits
 332              		.align	1
 333              		.p2align 4,,15
 334              		.syntax unified
 335              		.thumb
 336              		.thumb_func
 337              		.fpu fpv4-sp-d16
 338              		.type	get_subnamespace, %function
 339              	get_subnamespace:
 340              	.LFB251:
 341              		.loc 4 49 0
 342              		.cfi_startproc
ARM GAS  C:\Users\PCHAUT~1\AppData\Local\Temp\ccxXBCq6.s 			page 7


 343              		@ args = 0, pretend = 0, frame = 24
 344              		@ frame_needed = 0, uses_anonymous_args = 0
 345 0000 00B5     		push	{lr}
 346              		.cfi_def_cfa_offset 4
 347              		.cfi_offset 14, -4
 348 0002 87B0     		sub	sp, sp, #28
 349              		.cfi_def_cfa_offset 32
 350 0004 0390     		str	r0, [sp, #12]
 351 0006 0291     		str	r1, [sp, #8]
 352 0008 0192     		str	r2, [sp, #4]
 353              		.loc 4 49 0
 354 000a 1A4B     		ldr	r3, .L35
 355 000c 1B68     		ldr	r3, [r3]
 356 000e 0593     		str	r3, [sp, #20]
 357              		.loc 4 50 0
 358 0010 019B     		ldr	r3, [sp, #4]
 359 0012 002B     		cmp	r3, #0
 360 0014 01D1     		bne	.L27
 361              		.loc 4 51 0
 362 0016 039B     		ldr	r3, [sp, #12]
 363 0018 21E0     		b	.L28
 364              	.L27:
 365              		.loc 4 53 0
 366 001a FFF7FEFF 		bl	chSysLock
 367              		.loc 4 54 0
 368 001e 039B     		ldr	r3, [sp, #12]
 369 0020 DB68     		ldr	r3, [r3, #12]
 370 0022 0493     		str	r3, [sp, #16]
 371              		.loc 4 55 0
 372 0024 FFF7FEFF 		bl	chSysUnlock
 373              		.loc 4 56 0
 374 0028 13E0     		b	.L29
 375              	.L32:
 376              		.loc 4 57 0
 377 002a 049B     		ldr	r3, [sp, #16]
 378 002c 1B68     		ldr	r3, [r3]
 379 002e 019A     		ldr	r2, [sp, #4]
 380 0030 1946     		mov	r1, r3
 381 0032 0298     		ldr	r0, [sp, #8]
 382 0034 FFF7FEFF 		bl	strncmp
 383 0038 0346     		mov	r3, r0
 384 003a 002B     		cmp	r3, #0
 385 003c 06D1     		bne	.L30
 386              		.loc 4 57 0 is_stmt 0 discriminator 1
 387 003e 049B     		ldr	r3, [sp, #16]
 388 0040 1A68     		ldr	r2, [r3]
 389 0042 019B     		ldr	r3, [sp, #4]
 390 0044 1344     		add	r3, r3, r2
 391 0046 1B78     		ldrb	r3, [r3]	@ zero_extendqisi2
 392 0048 002B     		cmp	r3, #0
 393 004a 06D0     		beq	.L34
 394              	.L30:
 395              		.loc 4 62 0 is_stmt 1
 396 004c 049B     		ldr	r3, [sp, #16]
 397 004e 1B69     		ldr	r3, [r3, #16]
 398 0050 0493     		str	r3, [sp, #16]
 399              	.L29:
ARM GAS  C:\Users\PCHAUT~1\AppData\Local\Temp\ccxXBCq6.s 			page 8


 400              		.loc 4 56 0
 401 0052 049B     		ldr	r3, [sp, #16]
 402 0054 002B     		cmp	r3, #0
 403 0056 E8D1     		bne	.L32
 404 0058 00E0     		b	.L31
 405              	.L34:
 406              		.loc 4 60 0
 407 005a 00BF     		nop
 408              	.L31:
 409              		.loc 4 64 0
 410 005c 049B     		ldr	r3, [sp, #16]
 411              	.L28:
 412              		.loc 4 65 0
 413 005e 1846     		mov	r0, r3
 414 0060 044B     		ldr	r3, .L35
 415 0062 059A     		ldr	r2, [sp, #20]
 416 0064 1B68     		ldr	r3, [r3]
 417 0066 9A42     		cmp	r2, r3
 418 0068 01D0     		beq	.L33
 419 006a FFF7FEFF 		bl	__stack_chk_fail
 420              	.L33:
 421 006e 07B0     		add	sp, sp, #28
 422              		.cfi_def_cfa_offset 4
 423              		@ sp needed
 424 0070 5DF804FB 		ldr	pc, [sp], #4
 425              	.L36:
 426              		.align	2
 427              	.L35:
 428 0074 00000000 		.word	__stack_chk_guard
 429              		.cfi_endproc
 430              	.LFE251:
 431              		.size	get_subnamespace, .-get_subnamespace
 432              		.section	.text.get_parameter,"ax",%progbits
 433              		.align	1
 434              		.p2align 4,,15
 435              		.syntax unified
 436              		.thumb
 437              		.thumb_func
 438              		.fpu fpv4-sp-d16
 439              		.type	get_parameter, %function
 440              	get_parameter:
 441              	.LFB252:
 442              		.loc 4 72 0
 443              		.cfi_startproc
 444              		@ args = 0, pretend = 0, frame = 24
 445              		@ frame_needed = 0, uses_anonymous_args = 0
 446 0000 00B5     		push	{lr}
 447              		.cfi_def_cfa_offset 4
 448              		.cfi_offset 14, -4
 449 0002 87B0     		sub	sp, sp, #28
 450              		.cfi_def_cfa_offset 32
 451 0004 0390     		str	r0, [sp, #12]
 452 0006 0291     		str	r1, [sp, #8]
 453 0008 0192     		str	r2, [sp, #4]
 454              		.loc 4 72 0
 455 000a 1A4B     		ldr	r3, .L46
 456 000c 1B68     		ldr	r3, [r3]
ARM GAS  C:\Users\PCHAUT~1\AppData\Local\Temp\ccxXBCq6.s 			page 9


 457 000e 0593     		str	r3, [sp, #20]
 458              		.loc 4 73 0
 459 0010 019B     		ldr	r3, [sp, #4]
 460 0012 002B     		cmp	r3, #0
 461 0014 01D1     		bne	.L38
 462              		.loc 4 74 0
 463 0016 0023     		movs	r3, #0
 464 0018 21E0     		b	.L39
 465              	.L38:
 466              		.loc 4 76 0
 467 001a FFF7FEFF 		bl	chSysLock
 468              		.loc 4 77 0
 469 001e 039B     		ldr	r3, [sp, #12]
 470 0020 5B69     		ldr	r3, [r3, #20]
 471 0022 0493     		str	r3, [sp, #16]
 472              		.loc 4 78 0
 473 0024 FFF7FEFF 		bl	chSysUnlock
 474              		.loc 4 79 0
 475 0028 13E0     		b	.L40
 476              	.L43:
 477              		.loc 4 80 0
 478 002a 049B     		ldr	r3, [sp, #16]
 479 002c 1B68     		ldr	r3, [r3]
 480 002e 019A     		ldr	r2, [sp, #4]
 481 0030 1946     		mov	r1, r3
 482 0032 0298     		ldr	r0, [sp, #8]
 483 0034 FFF7FEFF 		bl	strncmp
 484 0038 0346     		mov	r3, r0
 485 003a 002B     		cmp	r3, #0
 486 003c 06D1     		bne	.L41
 487              		.loc 4 80 0 is_stmt 0 discriminator 1
 488 003e 049B     		ldr	r3, [sp, #16]
 489 0040 1A68     		ldr	r2, [r3]
 490 0042 019B     		ldr	r3, [sp, #4]
 491 0044 1344     		add	r3, r3, r2
 492 0046 1B78     		ldrb	r3, [r3]	@ zero_extendqisi2
 493 0048 002B     		cmp	r3, #0
 494 004a 06D0     		beq	.L45
 495              	.L41:
 496              		.loc 4 85 0 is_stmt 1
 497 004c 049B     		ldr	r3, [sp, #16]
 498 004e 9B68     		ldr	r3, [r3, #8]
 499 0050 0493     		str	r3, [sp, #16]
 500              	.L40:
 501              		.loc 4 79 0
 502 0052 049B     		ldr	r3, [sp, #16]
 503 0054 002B     		cmp	r3, #0
 504 0056 E8D1     		bne	.L43
 505 0058 00E0     		b	.L42
 506              	.L45:
 507              		.loc 4 83 0
 508 005a 00BF     		nop
 509              	.L42:
 510              		.loc 4 87 0
 511 005c 049B     		ldr	r3, [sp, #16]
 512              	.L39:
 513              		.loc 4 88 0
ARM GAS  C:\Users\PCHAUT~1\AppData\Local\Temp\ccxXBCq6.s 			page 10


 514 005e 1846     		mov	r0, r3
 515 0060 044B     		ldr	r3, .L46
 516 0062 059A     		ldr	r2, [sp, #20]
 517 0064 1B68     		ldr	r3, [r3]
 518 0066 9A42     		cmp	r2, r3
 519 0068 01D0     		beq	.L44
 520 006a FFF7FEFF 		bl	__stack_chk_fail
 521              	.L44:
 522 006e 07B0     		add	sp, sp, #28
 523              		.cfi_def_cfa_offset 4
 524              		@ sp needed
 525 0070 5DF804FB 		ldr	pc, [sp], #4
 526              	.L47:
 527              		.align	2
 528              	.L46:
 529 0074 00000000 		.word	__stack_chk_guard
 530              		.cfi_endproc
 531              	.LFE252:
 532              		.size	get_parameter, .-get_parameter
 533              		.section	.text.parameter_namespace_declare,"ax",%progbits
 534              		.align	1
 535              		.p2align 4,,15
 536              		.global	parameter_namespace_declare
 537              		.syntax unified
 538              		.thumb
 539              		.thumb_func
 540              		.fpu fpv4-sp-d16
 541              		.type	parameter_namespace_declare, %function
 542              	parameter_namespace_declare:
 543              	.LFB253:
 544              		.loc 4 93 0
 545              		.cfi_startproc
 546              		@ args = 0, pretend = 0, frame = 24
 547              		@ frame_needed = 0, uses_anonymous_args = 0
 548 0000 00B5     		push	{lr}
 549              		.cfi_def_cfa_offset 4
 550              		.cfi_offset 14, -4
 551 0002 87B0     		sub	sp, sp, #28
 552              		.cfi_def_cfa_offset 32
 553 0004 0390     		str	r0, [sp, #12]
 554 0006 0291     		str	r1, [sp, #8]
 555 0008 0192     		str	r2, [sp, #4]
 556              		.loc 4 93 0
 557 000a 184B     		ldr	r3, .L53
 558 000c 1B68     		ldr	r3, [r3]
 559 000e 0593     		str	r3, [sp, #20]
 560              		.loc 4 94 0
 561 0010 039B     		ldr	r3, [sp, #12]
 562 0012 019A     		ldr	r2, [sp, #4]
 563 0014 1A60     		str	r2, [r3]
 564              		.loc 4 95 0
 565 0016 039B     		ldr	r3, [sp, #12]
 566 0018 0022     		movs	r2, #0
 567 001a 5A60     		str	r2, [r3, #4]
 568              		.loc 4 96 0
 569 001c 039B     		ldr	r3, [sp, #12]
 570 001e 029A     		ldr	r2, [sp, #8]
ARM GAS  C:\Users\PCHAUT~1\AppData\Local\Temp\ccxXBCq6.s 			page 11


 571 0020 9A60     		str	r2, [r3, #8]
 572              		.loc 4 97 0
 573 0022 039B     		ldr	r3, [sp, #12]
 574 0024 0022     		movs	r2, #0
 575 0026 DA60     		str	r2, [r3, #12]
 576              		.loc 4 98 0
 577 0028 039B     		ldr	r3, [sp, #12]
 578 002a 0022     		movs	r2, #0
 579 002c 5A61     		str	r2, [r3, #20]
 580              		.loc 4 99 0
 581 002e 029B     		ldr	r3, [sp, #8]
 582 0030 002B     		cmp	r3, #0
 583 0032 0DD0     		beq	.L49
 584              		.loc 4 100 0
 585 0034 FFF7FEFF 		bl	chSysLock
 586              		.loc 4 102 0
 587 0038 039B     		ldr	r3, [sp, #12]
 588 003a 9B68     		ldr	r3, [r3, #8]
 589 003c DA68     		ldr	r2, [r3, #12]
 590 003e 039B     		ldr	r3, [sp, #12]
 591 0040 1A61     		str	r2, [r3, #16]
 592              		.loc 4 103 0
 593 0042 039B     		ldr	r3, [sp, #12]
 594 0044 9B68     		ldr	r3, [r3, #8]
 595 0046 039A     		ldr	r2, [sp, #12]
 596 0048 DA60     		str	r2, [r3, #12]
 597              		.loc 4 104 0
 598 004a FFF7FEFF 		bl	chSysUnlock
 599              		.loc 4 108 0
 600 004e 02E0     		b	.L52
 601              	.L49:
 602              		.loc 4 106 0
 603 0050 039B     		ldr	r3, [sp, #12]
 604 0052 0022     		movs	r2, #0
 605 0054 1A61     		str	r2, [r3, #16]
 606              	.L52:
 607              		.loc 4 108 0
 608 0056 00BF     		nop
 609 0058 044B     		ldr	r3, .L53
 610 005a 059A     		ldr	r2, [sp, #20]
 611 005c 1B68     		ldr	r3, [r3]
 612 005e 9A42     		cmp	r2, r3
 613 0060 01D0     		beq	.L51
 614 0062 FFF7FEFF 		bl	__stack_chk_fail
 615              	.L51:
 616 0066 07B0     		add	sp, sp, #28
 617              		.cfi_def_cfa_offset 4
 618              		@ sp needed
 619 0068 5DF804FB 		ldr	pc, [sp], #4
 620              	.L54:
 621              		.align	2
 622              	.L53:
 623 006c 00000000 		.word	__stack_chk_guard
 624              		.cfi_endproc
 625              	.LFE253:
 626              		.size	parameter_namespace_declare, .-parameter_namespace_declare
 627              		.section	.text._parameter_namespace_find_w_id_len,"ax",%progbits
ARM GAS  C:\Users\PCHAUT~1\AppData\Local\Temp\ccxXBCq6.s 			page 12


 628              		.align	1
 629              		.p2align 4,,15
 630              		.global	_parameter_namespace_find_w_id_len
 631              		.syntax unified
 632              		.thumb
 633              		.thumb_func
 634              		.fpu fpv4-sp-d16
 635              		.type	_parameter_namespace_find_w_id_len, %function
 636              	_parameter_namespace_find_w_id_len:
 637              	.LFB254:
 638              		.loc 4 113 0
 639              		.cfi_startproc
 640              		@ args = 0, pretend = 0, frame = 32
 641              		@ frame_needed = 0, uses_anonymous_args = 0
 642 0000 00B5     		push	{lr}
 643              		.cfi_def_cfa_offset 4
 644              		.cfi_offset 14, -4
 645 0002 89B0     		sub	sp, sp, #36
 646              		.cfi_def_cfa_offset 40
 647 0004 0390     		str	r0, [sp, #12]
 648 0006 0291     		str	r1, [sp, #8]
 649 0008 0192     		str	r2, [sp, #4]
 650              		.loc 4 113 0
 651 000a 194B     		ldr	r3, .L61
 652 000c 1B68     		ldr	r3, [r3]
 653 000e 0793     		str	r3, [sp, #28]
 654              		.loc 4 114 0
 655 0010 039B     		ldr	r3, [sp, #12]
 656 0012 0493     		str	r3, [sp, #16]
 657              		.loc 4 115 0
 658 0014 0023     		movs	r3, #0
 659 0016 0593     		str	r3, [sp, #20]
 660              		.loc 4 116 0
 661 0018 17E0     		b	.L56
 662              	.L58:
 663              	.LBB10:
 664              		.loc 4 117 0
 665 001a 029A     		ldr	r2, [sp, #8]
 666 001c 059B     		ldr	r3, [sp, #20]
 667 001e D018     		adds	r0, r2, r3
 668 0020 019A     		ldr	r2, [sp, #4]
 669 0022 059B     		ldr	r3, [sp, #20]
 670 0024 D31A     		subs	r3, r2, r3
 671 0026 1946     		mov	r1, r3
 672 0028 FFF7FEFF 		bl	id_split
 673 002c 0690     		str	r0, [sp, #24]
 674              		.loc 4 118 0
 675 002e 029A     		ldr	r2, [sp, #8]
 676 0030 059B     		ldr	r3, [sp, #20]
 677 0032 1344     		add	r3, r3, r2
 678 0034 069A     		ldr	r2, [sp, #24]
 679 0036 1946     		mov	r1, r3
 680 0038 0498     		ldr	r0, [sp, #16]
 681 003a FFF7FEFF 		bl	get_subnamespace
 682 003e 0490     		str	r0, [sp, #16]
 683              		.loc 4 119 0
 684 0040 069A     		ldr	r2, [sp, #24]
ARM GAS  C:\Users\PCHAUT~1\AppData\Local\Temp\ccxXBCq6.s 			page 13


 685 0042 059B     		ldr	r3, [sp, #20]
 686 0044 1344     		add	r3, r3, r2
 687 0046 0133     		adds	r3, r3, #1
 688 0048 0593     		str	r3, [sp, #20]
 689              	.L56:
 690              	.LBE10:
 691              		.loc 4 116 0
 692 004a 049B     		ldr	r3, [sp, #16]
 693 004c 002B     		cmp	r3, #0
 694 004e 03D0     		beq	.L57
 695              		.loc 4 116 0 is_stmt 0 discriminator 1
 696 0050 059A     		ldr	r2, [sp, #20]
 697 0052 019B     		ldr	r3, [sp, #4]
 698 0054 9A42     		cmp	r2, r3
 699 0056 E0D3     		bcc	.L58
 700              	.L57:
 701              		.loc 4 121 0 is_stmt 1
 702 0058 049B     		ldr	r3, [sp, #16]
 703              		.loc 4 122 0
 704 005a 1846     		mov	r0, r3
 705 005c 044B     		ldr	r3, .L61
 706 005e 079A     		ldr	r2, [sp, #28]
 707 0060 1B68     		ldr	r3, [r3]
 708 0062 9A42     		cmp	r2, r3
 709 0064 01D0     		beq	.L60
 710 0066 FFF7FEFF 		bl	__stack_chk_fail
 711              	.L60:
 712 006a 09B0     		add	sp, sp, #36
 713              		.cfi_def_cfa_offset 4
 714              		@ sp needed
 715 006c 5DF804FB 		ldr	pc, [sp], #4
 716              	.L62:
 717              		.align	2
 718              	.L61:
 719 0070 00000000 		.word	__stack_chk_guard
 720              		.cfi_endproc
 721              	.LFE254:
 722              		.size	_parameter_namespace_find_w_id_len, .-_parameter_namespace_find_w_id_len
 723              		.section	.text.parameter_namespace_find,"ax",%progbits
 724              		.align	1
 725              		.p2align 4,,15
 726              		.global	parameter_namespace_find
 727              		.syntax unified
 728              		.thumb
 729              		.thumb_func
 730              		.fpu fpv4-sp-d16
 731              		.type	parameter_namespace_find, %function
 732              	parameter_namespace_find:
 733              	.LFB255:
 734              		.loc 4 126 0
 735              		.cfi_startproc
 736              		@ args = 0, pretend = 0, frame = 16
 737              		@ frame_needed = 0, uses_anonymous_args = 0
 738 0000 00B5     		push	{lr}
 739              		.cfi_def_cfa_offset 4
 740              		.cfi_offset 14, -4
 741 0002 85B0     		sub	sp, sp, #20
ARM GAS  C:\Users\PCHAUT~1\AppData\Local\Temp\ccxXBCq6.s 			page 14


 742              		.cfi_def_cfa_offset 24
 743 0004 0190     		str	r0, [sp, #4]
 744 0006 0091     		str	r1, [sp]
 745              		.loc 4 126 0
 746 0008 0B4B     		ldr	r3, .L66
 747 000a 1B68     		ldr	r3, [r3]
 748 000c 0393     		str	r3, [sp, #12]
 749              		.loc 4 127 0
 750 000e 0098     		ldr	r0, [sp]
 751 0010 FFF7FEFF 		bl	strlen
 752 0014 0346     		mov	r3, r0
 753 0016 1A46     		mov	r2, r3
 754 0018 0099     		ldr	r1, [sp]
 755 001a 0198     		ldr	r0, [sp, #4]
 756 001c FFF7FEFF 		bl	_parameter_namespace_find_w_id_len
 757 0020 0346     		mov	r3, r0
 758              		.loc 4 128 0
 759 0022 1846     		mov	r0, r3
 760 0024 044B     		ldr	r3, .L66
 761 0026 039A     		ldr	r2, [sp, #12]
 762 0028 1B68     		ldr	r3, [r3]
 763 002a 9A42     		cmp	r2, r3
 764 002c 01D0     		beq	.L65
 765 002e FFF7FEFF 		bl	__stack_chk_fail
 766              	.L65:
 767 0032 05B0     		add	sp, sp, #20
 768              		.cfi_def_cfa_offset 4
 769              		@ sp needed
 770 0034 5DF804FB 		ldr	pc, [sp], #4
 771              	.L67:
 772              		.align	2
 773              	.L66:
 774 0038 00000000 		.word	__stack_chk_guard
 775              		.cfi_endproc
 776              	.LFE255:
 777              		.size	parameter_namespace_find, .-parameter_namespace_find
 778              		.section	.text._parameter_find_w_id_len,"ax",%progbits
 779              		.align	1
 780              		.p2align 4,,15
 781              		.global	_parameter_find_w_id_len
 782              		.syntax unified
 783              		.thumb
 784              		.thumb_func
 785              		.fpu fpv4-sp-d16
 786              		.type	_parameter_find_w_id_len, %function
 787              	_parameter_find_w_id_len:
 788              	.LFB256:
 789              		.loc 4 132 0
 790              		.cfi_startproc
 791              		@ args = 0, pretend = 0, frame = 32
 792              		@ frame_needed = 0, uses_anonymous_args = 0
 793 0000 00B5     		push	{lr}
 794              		.cfi_def_cfa_offset 4
 795              		.cfi_offset 14, -4
 796 0002 89B0     		sub	sp, sp, #36
 797              		.cfi_def_cfa_offset 40
 798 0004 0390     		str	r0, [sp, #12]
ARM GAS  C:\Users\PCHAUT~1\AppData\Local\Temp\ccxXBCq6.s 			page 15


 799 0006 0291     		str	r1, [sp, #8]
 800 0008 0192     		str	r2, [sp, #4]
 801              		.loc 4 132 0
 802 000a 204B     		ldr	r3, .L76
 803 000c 1B68     		ldr	r3, [r3]
 804 000e 0793     		str	r3, [sp, #28]
 805              		.loc 4 133 0
 806 0010 039B     		ldr	r3, [sp, #12]
 807 0012 0493     		str	r3, [sp, #16]
 808              		.loc 4 134 0
 809 0014 0023     		movs	r3, #0
 810 0016 0593     		str	r3, [sp, #20]
 811              		.loc 4 135 0
 812 0018 28E0     		b	.L69
 813              	.L73:
 814              	.LBB11:
 815              		.loc 4 136 0
 816 001a 029A     		ldr	r2, [sp, #8]
 817 001c 059B     		ldr	r3, [sp, #20]
 818 001e D018     		adds	r0, r2, r3
 819 0020 019A     		ldr	r2, [sp, #4]
 820 0022 059B     		ldr	r3, [sp, #20]
 821 0024 D31A     		subs	r3, r2, r3
 822 0026 1946     		mov	r1, r3
 823 0028 FFF7FEFF 		bl	id_split
 824 002c 0690     		str	r0, [sp, #24]
 825              		.loc 4 137 0
 826 002e 069A     		ldr	r2, [sp, #24]
 827 0030 059B     		ldr	r3, [sp, #20]
 828 0032 1344     		add	r3, r3, r2
 829 0034 019A     		ldr	r2, [sp, #4]
 830 0036 9A42     		cmp	r2, r3
 831 0038 09D9     		bls	.L70
 832              		.loc 4 138 0
 833 003a 029A     		ldr	r2, [sp, #8]
 834 003c 059B     		ldr	r3, [sp, #20]
 835 003e 1344     		add	r3, r3, r2
 836 0040 069A     		ldr	r2, [sp, #24]
 837 0042 1946     		mov	r1, r3
 838 0044 0498     		ldr	r0, [sp, #16]
 839 0046 FFF7FEFF 		bl	get_subnamespace
 840 004a 0490     		str	r0, [sp, #16]
 841 004c 09E0     		b	.L75
 842              	.L70:
 843              		.loc 4 140 0
 844 004e 029A     		ldr	r2, [sp, #8]
 845 0050 059B     		ldr	r3, [sp, #20]
 846 0052 1344     		add	r3, r3, r2
 847 0054 069A     		ldr	r2, [sp, #24]
 848 0056 1946     		mov	r1, r3
 849 0058 0498     		ldr	r0, [sp, #16]
 850 005a FFF7FEFF 		bl	get_parameter
 851 005e 0346     		mov	r3, r0
 852 0060 08E0     		b	.L72
 853              	.L75:
 854              		.loc 4 142 0
 855 0062 069A     		ldr	r2, [sp, #24]
ARM GAS  C:\Users\PCHAUT~1\AppData\Local\Temp\ccxXBCq6.s 			page 16


 856 0064 059B     		ldr	r3, [sp, #20]
 857 0066 1344     		add	r3, r3, r2
 858 0068 0133     		adds	r3, r3, #1
 859 006a 0593     		str	r3, [sp, #20]
 860              	.L69:
 861              	.LBE11:
 862              		.loc 4 135 0
 863 006c 049B     		ldr	r3, [sp, #16]
 864 006e 002B     		cmp	r3, #0
 865 0070 D3D1     		bne	.L73
 866              		.loc 4 144 0
 867 0072 0023     		movs	r3, #0
 868              	.L72:
 869              		.loc 4 145 0
 870 0074 1846     		mov	r0, r3
 871 0076 054B     		ldr	r3, .L76
 872 0078 079A     		ldr	r2, [sp, #28]
 873 007a 1B68     		ldr	r3, [r3]
 874 007c 9A42     		cmp	r2, r3
 875 007e 01D0     		beq	.L74
 876 0080 FFF7FEFF 		bl	__stack_chk_fail
 877              	.L74:
 878 0084 09B0     		add	sp, sp, #36
 879              		.cfi_def_cfa_offset 4
 880              		@ sp needed
 881 0086 5DF804FB 		ldr	pc, [sp], #4
 882              	.L77:
 883 008a 00BF     		.align	2
 884              	.L76:
 885 008c 00000000 		.word	__stack_chk_guard
 886              		.cfi_endproc
 887              	.LFE256:
 888              		.size	_parameter_find_w_id_len, .-_parameter_find_w_id_len
 889              		.section	.text.parameter_find,"ax",%progbits
 890              		.align	1
 891              		.p2align 4,,15
 892              		.global	parameter_find
 893              		.syntax unified
 894              		.thumb
 895              		.thumb_func
 896              		.fpu fpv4-sp-d16
 897              		.type	parameter_find, %function
 898              	parameter_find:
 899              	.LFB257:
 900              		.loc 4 148 0
 901              		.cfi_startproc
 902              		@ args = 0, pretend = 0, frame = 16
 903              		@ frame_needed = 0, uses_anonymous_args = 0
 904 0000 00B5     		push	{lr}
 905              		.cfi_def_cfa_offset 4
 906              		.cfi_offset 14, -4
 907 0002 85B0     		sub	sp, sp, #20
 908              		.cfi_def_cfa_offset 24
 909 0004 0190     		str	r0, [sp, #4]
 910 0006 0091     		str	r1, [sp]
 911              		.loc 4 148 0
 912 0008 0B4B     		ldr	r3, .L81
ARM GAS  C:\Users\PCHAUT~1\AppData\Local\Temp\ccxXBCq6.s 			page 17


 913 000a 1B68     		ldr	r3, [r3]
 914 000c 0393     		str	r3, [sp, #12]
 915              		.loc 4 149 0
 916 000e 0098     		ldr	r0, [sp]
 917 0010 FFF7FEFF 		bl	strlen
 918 0014 0346     		mov	r3, r0
 919 0016 1A46     		mov	r2, r3
 920 0018 0099     		ldr	r1, [sp]
 921 001a 0198     		ldr	r0, [sp, #4]
 922 001c FFF7FEFF 		bl	_parameter_find_w_id_len
 923 0020 0346     		mov	r3, r0
 924              		.loc 4 150 0
 925 0022 1846     		mov	r0, r3
 926 0024 044B     		ldr	r3, .L81
 927 0026 039A     		ldr	r2, [sp, #12]
 928 0028 1B68     		ldr	r3, [r3]
 929 002a 9A42     		cmp	r2, r3
 930 002c 01D0     		beq	.L80
 931 002e FFF7FEFF 		bl	__stack_chk_fail
 932              	.L80:
 933 0032 05B0     		add	sp, sp, #20
 934              		.cfi_def_cfa_offset 4
 935              		@ sp needed
 936 0034 5DF804FB 		ldr	pc, [sp], #4
 937              	.L82:
 938              		.align	2
 939              	.L81:
 940 0038 00000000 		.word	__stack_chk_guard
 941              		.cfi_endproc
 942              	.LFE257:
 943              		.size	parameter_find, .-parameter_find
 944              		.section	.text._parameter_declare,"ax",%progbits
 945              		.align	1
 946              		.p2align 4,,15
 947              		.global	_parameter_declare
 948              		.syntax unified
 949              		.thumb
 950              		.thumb_func
 951              		.fpu fpv4-sp-d16
 952              		.type	_parameter_declare, %function
 953              	_parameter_declare:
 954              	.LFB258:
 955              		.loc 4 154 0
 956              		.cfi_startproc
 957              		@ args = 0, pretend = 0, frame = 24
 958              		@ frame_needed = 0, uses_anonymous_args = 0
 959 0000 00B5     		push	{lr}
 960              		.cfi_def_cfa_offset 4
 961              		.cfi_offset 14, -4
 962 0002 87B0     		sub	sp, sp, #28
 963              		.cfi_def_cfa_offset 32
 964 0004 0390     		str	r0, [sp, #12]
 965 0006 0291     		str	r1, [sp, #8]
 966 0008 0192     		str	r2, [sp, #4]
 967              		.loc 4 154 0
 968 000a 134B     		ldr	r3, .L85
 969 000c 1B68     		ldr	r3, [r3]
ARM GAS  C:\Users\PCHAUT~1\AppData\Local\Temp\ccxXBCq6.s 			page 18


 970 000e 0593     		str	r3, [sp, #20]
 971              		.loc 4 155 0
 972 0010 039B     		ldr	r3, [sp, #12]
 973 0012 019A     		ldr	r2, [sp, #4]
 974 0014 1A60     		str	r2, [r3]
 975              		.loc 4 156 0
 976 0016 039B     		ldr	r3, [sp, #12]
 977 0018 029A     		ldr	r2, [sp, #8]
 978 001a 5A60     		str	r2, [r3, #4]
 979              		.loc 4 157 0
 980 001c 039B     		ldr	r3, [sp, #12]
 981 001e 0022     		movs	r2, #0
 982 0020 1A73     		strb	r2, [r3, #12]
 983              		.loc 4 158 0
 984 0022 039B     		ldr	r3, [sp, #12]
 985 0024 0022     		movs	r2, #0
 986 0026 5A73     		strb	r2, [r3, #13]
 987              		.loc 4 159 0
 988 0028 FFF7FEFF 		bl	chSysLock
 989              		.loc 4 161 0
 990 002c 039B     		ldr	r3, [sp, #12]
 991 002e 5B68     		ldr	r3, [r3, #4]
 992 0030 5A69     		ldr	r2, [r3, #20]
 993 0032 039B     		ldr	r3, [sp, #12]
 994 0034 9A60     		str	r2, [r3, #8]
 995              		.loc 4 162 0
 996 0036 039B     		ldr	r3, [sp, #12]
 997 0038 5B68     		ldr	r3, [r3, #4]
 998 003a 039A     		ldr	r2, [sp, #12]
 999 003c 5A61     		str	r2, [r3, #20]
 1000              		.loc 4 163 0
 1001 003e FFF7FEFF 		bl	chSysUnlock
 1002              		.loc 4 164 0
 1003 0042 00BF     		nop
 1004 0044 044B     		ldr	r3, .L85
 1005 0046 059A     		ldr	r2, [sp, #20]
 1006 0048 1B68     		ldr	r3, [r3]
 1007 004a 9A42     		cmp	r2, r3
 1008 004c 01D0     		beq	.L84
 1009 004e FFF7FEFF 		bl	__stack_chk_fail
 1010              	.L84:
 1011 0052 07B0     		add	sp, sp, #28
 1012              		.cfi_def_cfa_offset 4
 1013              		@ sp needed
 1014 0054 5DF804FB 		ldr	pc, [sp], #4
 1015              	.L86:
 1016              		.align	2
 1017              	.L85:
 1018 0058 00000000 		.word	__stack_chk_guard
 1019              		.cfi_endproc
 1020              	.LFE258:
 1021              		.size	_parameter_declare, .-_parameter_declare
 1022              		.section	.text.parameter_namespace_contains_changed,"ax",%progbits
 1023              		.align	1
 1024              		.p2align 4,,15
 1025              		.global	parameter_namespace_contains_changed
 1026              		.syntax unified
ARM GAS  C:\Users\PCHAUT~1\AppData\Local\Temp\ccxXBCq6.s 			page 19


 1027              		.thumb
 1028              		.thumb_func
 1029              		.fpu fpv4-sp-d16
 1030              		.type	parameter_namespace_contains_changed, %function
 1031              	parameter_namespace_contains_changed:
 1032              	.LFB259:
 1033              		.loc 4 167 0
 1034              		.cfi_startproc
 1035              		@ args = 0, pretend = 0, frame = 16
 1036              		@ frame_needed = 0, uses_anonymous_args = 0
 1037 0000 00B5     		push	{lr}
 1038              		.cfi_def_cfa_offset 4
 1039              		.cfi_offset 14, -4
 1040 0002 85B0     		sub	sp, sp, #20
 1041              		.cfi_def_cfa_offset 24
 1042 0004 0190     		str	r0, [sp, #4]
 1043              		.loc 4 167 0
 1044 0006 0D4B     		ldr	r3, .L90
 1045 0008 1B68     		ldr	r3, [r3]
 1046 000a 0393     		str	r3, [sp, #12]
 1047              		.loc 4 168 0
 1048 000c FFF7FEFF 		bl	chSysLock
 1049              		.loc 4 169 0
 1050 0010 019B     		ldr	r3, [sp, #4]
 1051 0012 5B68     		ldr	r3, [r3, #4]
 1052 0014 0293     		str	r3, [sp, #8]
 1053              		.loc 4 170 0
 1054 0016 FFF7FEFF 		bl	chSysUnlock
 1055              		.loc 4 171 0
 1056 001a 029B     		ldr	r3, [sp, #8]
 1057 001c 002B     		cmp	r3, #0
 1058 001e 14BF     		ite	ne
 1059 0020 0123     		movne	r3, #1
 1060 0022 0023     		moveq	r3, #0
 1061 0024 DBB2     		uxtb	r3, r3
 1062              		.loc 4 172 0
 1063 0026 1846     		mov	r0, r3
 1064 0028 044B     		ldr	r3, .L90
 1065 002a 039A     		ldr	r2, [sp, #12]
 1066 002c 1B68     		ldr	r3, [r3]
 1067 002e 9A42     		cmp	r2, r3
 1068 0030 01D0     		beq	.L89
 1069 0032 FFF7FEFF 		bl	__stack_chk_fail
 1070              	.L89:
 1071 0036 05B0     		add	sp, sp, #20
 1072              		.cfi_def_cfa_offset 4
 1073              		@ sp needed
 1074 0038 5DF804FB 		ldr	pc, [sp], #4
 1075              	.L91:
 1076              		.align	2
 1077              	.L90:
 1078 003c 00000000 		.word	__stack_chk_guard
 1079              		.cfi_endproc
 1080              	.LFE259:
 1081              		.size	parameter_namespace_contains_changed, .-parameter_namespace_contains_changed
 1082              		.section	.text.parameter_changed,"ax",%progbits
 1083              		.align	1
ARM GAS  C:\Users\PCHAUT~1\AppData\Local\Temp\ccxXBCq6.s 			page 20


 1084              		.p2align 4,,15
 1085              		.global	parameter_changed
 1086              		.syntax unified
 1087              		.thumb
 1088              		.thumb_func
 1089              		.fpu fpv4-sp-d16
 1090              		.type	parameter_changed, %function
 1091              	parameter_changed:
 1092              	.LFB260:
 1093              		.loc 4 175 0
 1094              		.cfi_startproc
 1095              		@ args = 0, pretend = 0, frame = 16
 1096              		@ frame_needed = 0, uses_anonymous_args = 0
 1097 0000 00B5     		push	{lr}
 1098              		.cfi_def_cfa_offset 4
 1099              		.cfi_offset 14, -4
 1100 0002 85B0     		sub	sp, sp, #20
 1101              		.cfi_def_cfa_offset 24
 1102 0004 0190     		str	r0, [sp, #4]
 1103              		.loc 4 175 0
 1104 0006 0C4B     		ldr	r3, .L95
 1105 0008 1B68     		ldr	r3, [r3]
 1106 000a 0393     		str	r3, [sp, #12]
 1107              		.loc 4 176 0
 1108 000c FFF7FEFF 		bl	chSysLock
 1109              		.loc 4 177 0
 1110 0010 019B     		ldr	r3, [sp, #4]
 1111 0012 1B7B     		ldrb	r3, [r3, #12]
 1112 0014 8DF80B30 		strb	r3, [sp, #11]
 1113              		.loc 4 178 0
 1114 0018 FFF7FEFF 		bl	chSysUnlock
 1115              		.loc 4 179 0
 1116 001c 9DF80B30 		ldrb	r3, [sp, #11]	@ zero_extendqisi2
 1117              		.loc 4 180 0
 1118 0020 1846     		mov	r0, r3
 1119 0022 054B     		ldr	r3, .L95
 1120 0024 039A     		ldr	r2, [sp, #12]
 1121 0026 1B68     		ldr	r3, [r3]
 1122 0028 9A42     		cmp	r2, r3
 1123 002a 01D0     		beq	.L94
 1124 002c FFF7FEFF 		bl	__stack_chk_fail
 1125              	.L94:
 1126 0030 05B0     		add	sp, sp, #20
 1127              		.cfi_def_cfa_offset 4
 1128              		@ sp needed
 1129 0032 5DF804FB 		ldr	pc, [sp], #4
 1130              	.L96:
 1131 0036 00BF     		.align	2
 1132              	.L95:
 1133 0038 00000000 		.word	__stack_chk_guard
 1134              		.cfi_endproc
 1135              	.LFE260:
 1136              		.size	parameter_changed, .-parameter_changed
 1137              		.section	.text.parameter_defined,"ax",%progbits
 1138              		.align	1
 1139              		.p2align 4,,15
 1140              		.global	parameter_defined
ARM GAS  C:\Users\PCHAUT~1\AppData\Local\Temp\ccxXBCq6.s 			page 21


 1141              		.syntax unified
 1142              		.thumb
 1143              		.thumb_func
 1144              		.fpu fpv4-sp-d16
 1145              		.type	parameter_defined, %function
 1146              	parameter_defined:
 1147              	.LFB261:
 1148              		.loc 4 183 0
 1149              		.cfi_startproc
 1150              		@ args = 0, pretend = 0, frame = 16
 1151              		@ frame_needed = 0, uses_anonymous_args = 0
 1152 0000 00B5     		push	{lr}
 1153              		.cfi_def_cfa_offset 4
 1154              		.cfi_offset 14, -4
 1155 0002 85B0     		sub	sp, sp, #20
 1156              		.cfi_def_cfa_offset 24
 1157 0004 0190     		str	r0, [sp, #4]
 1158              		.loc 4 183 0
 1159 0006 0E4B     		ldr	r3, .L101
 1160 0008 1B68     		ldr	r3, [r3]
 1161 000a 0393     		str	r3, [sp, #12]
 1162              		.loc 4 184 0
 1163 000c 019B     		ldr	r3, [sp, #4]
 1164 000e 002B     		cmp	r3, #0
 1165 0010 01D1     		bne	.L98
 1166              		.loc 4 185 0
 1167 0012 0023     		movs	r3, #0
 1168 0014 09E0     		b	.L99
 1169              	.L98:
 1170              		.loc 4 187 0
 1171 0016 FFF7FEFF 		bl	chSysLock
 1172              		.loc 4 188 0
 1173 001a 019B     		ldr	r3, [sp, #4]
 1174 001c 5B7B     		ldrb	r3, [r3, #13]
 1175 001e 8DF80B30 		strb	r3, [sp, #11]
 1176              		.loc 4 189 0
 1177 0022 FFF7FEFF 		bl	chSysUnlock
 1178              		.loc 4 190 0
 1179 0026 9DF80B30 		ldrb	r3, [sp, #11]	@ zero_extendqisi2
 1180              	.L99:
 1181              		.loc 4 191 0
 1182 002a 1846     		mov	r0, r3
 1183 002c 044B     		ldr	r3, .L101
 1184 002e 039A     		ldr	r2, [sp, #12]
 1185 0030 1B68     		ldr	r3, [r3]
 1186 0032 9A42     		cmp	r2, r3
 1187 0034 01D0     		beq	.L100
 1188 0036 FFF7FEFF 		bl	__stack_chk_fail
 1189              	.L100:
 1190 003a 05B0     		add	sp, sp, #20
 1191              		.cfi_def_cfa_offset 4
 1192              		@ sp needed
 1193 003c 5DF804FB 		ldr	pc, [sp], #4
 1194              	.L102:
 1195              		.align	2
 1196              	.L101:
 1197 0040 00000000 		.word	__stack_chk_guard
ARM GAS  C:\Users\PCHAUT~1\AppData\Local\Temp\ccxXBCq6.s 			page 22


 1198              		.cfi_endproc
 1199              	.LFE261:
 1200              		.size	parameter_defined, .-parameter_defined
 1201              		.section	.text._parameter_changed_set,"ax",%progbits
 1202              		.align	1
 1203              		.p2align 4,,15
 1204              		.global	_parameter_changed_set
 1205              		.syntax unified
 1206              		.thumb
 1207              		.thumb_func
 1208              		.fpu fpv4-sp-d16
 1209              		.type	_parameter_changed_set, %function
 1210              	_parameter_changed_set:
 1211              	.LFB262:
 1212              		.loc 4 194 0
 1213              		.cfi_startproc
 1214              		@ args = 0, pretend = 0, frame = 24
 1215              		@ frame_needed = 0, uses_anonymous_args = 0
 1216 0000 00B5     		push	{lr}
 1217              		.cfi_def_cfa_offset 4
 1218              		.cfi_offset 14, -4
 1219 0002 87B0     		sub	sp, sp, #28
 1220              		.cfi_def_cfa_offset 32
 1221 0004 0190     		str	r0, [sp, #4]
 1222              		.loc 4 194 0
 1223 0006 1A4B     		ldr	r3, .L110
 1224 0008 1B68     		ldr	r3, [r3]
 1225 000a 0593     		str	r3, [sp, #20]
 1226              		.loc 4 195 0
 1227 000c FFF7FEFF 		bl	chSysLock
 1228              		.loc 4 196 0
 1229 0010 019B     		ldr	r3, [sp, #4]
 1230 0012 1B7B     		ldrb	r3, [r3, #12]
 1231 0014 8DF80F30 		strb	r3, [sp, #15]
 1232              		.loc 4 197 0
 1233 0018 019B     		ldr	r3, [sp, #4]
 1234 001a 0122     		movs	r2, #1
 1235 001c 1A73     		strb	r2, [r3, #12]
 1236              		.loc 4 198 0
 1237 001e FFF7FEFF 		bl	chSysUnlock
 1238              		.loc 4 199 0
 1239 0022 9DF80F30 		ldrb	r3, [sp, #15]	@ zero_extendqisi2
 1240 0026 002B     		cmp	r3, #0
 1241 0028 16D1     		bne	.L109
 1242              		.loc 4 204 0
 1243 002a 019B     		ldr	r3, [sp, #4]
 1244 002c 5B68     		ldr	r3, [r3, #4]
 1245 002e 0493     		str	r3, [sp, #16]
 1246              		.loc 4 205 0
 1247 0030 0BE0     		b	.L106
 1248              	.L107:
 1249              		.loc 4 206 0
 1250 0032 FFF7FEFF 		bl	chSysLock
 1251              		.loc 4 207 0
 1252 0036 049B     		ldr	r3, [sp, #16]
 1253 0038 5B68     		ldr	r3, [r3, #4]
 1254 003a 5A1C     		adds	r2, r3, #1
ARM GAS  C:\Users\PCHAUT~1\AppData\Local\Temp\ccxXBCq6.s 			page 23


 1255 003c 049B     		ldr	r3, [sp, #16]
 1256 003e 5A60     		str	r2, [r3, #4]
 1257              		.loc 4 208 0
 1258 0040 FFF7FEFF 		bl	chSysUnlock
 1259              		.loc 4 209 0
 1260 0044 049B     		ldr	r3, [sp, #16]
 1261 0046 9B68     		ldr	r3, [r3, #8]
 1262 0048 0493     		str	r3, [sp, #16]
 1263              	.L106:
 1264              		.loc 4 205 0
 1265 004a 049B     		ldr	r3, [sp, #16]
 1266 004c 002B     		cmp	r3, #0
 1267 004e F0D1     		bne	.L107
 1268              		.loc 4 211 0
 1269 0050 019B     		ldr	r3, [sp, #4]
 1270 0052 0122     		movs	r2, #1
 1271 0054 5A73     		strb	r2, [r3, #13]
 1272 0056 00E0     		b	.L103
 1273              	.L109:
 1274              		.loc 4 200 0
 1275 0058 00BF     		nop
 1276              	.L103:
 1277              		.loc 4 212 0
 1278 005a 054B     		ldr	r3, .L110
 1279 005c 059A     		ldr	r2, [sp, #20]
 1280 005e 1B68     		ldr	r3, [r3]
 1281 0060 9A42     		cmp	r2, r3
 1282 0062 01D0     		beq	.L108
 1283 0064 FFF7FEFF 		bl	__stack_chk_fail
 1284              	.L108:
 1285 0068 07B0     		add	sp, sp, #28
 1286              		.cfi_def_cfa_offset 4
 1287              		@ sp needed
 1288 006a 5DF804FB 		ldr	pc, [sp], #4
 1289              	.L111:
 1290 006e 00BF     		.align	2
 1291              	.L110:
 1292 0070 00000000 		.word	__stack_chk_guard
 1293              		.cfi_endproc
 1294              	.LFE262:
 1295              		.size	_parameter_changed_set, .-_parameter_changed_set
 1296              		.section	.text._parameter_changed_clear,"ax",%progbits
 1297              		.align	1
 1298              		.p2align 4,,15
 1299              		.global	_parameter_changed_clear
 1300              		.syntax unified
 1301              		.thumb
 1302              		.thumb_func
 1303              		.fpu fpv4-sp-d16
 1304              		.type	_parameter_changed_clear, %function
 1305              	_parameter_changed_clear:
 1306              	.LFB263:
 1307              		.loc 4 215 0
 1308              		.cfi_startproc
 1309              		@ args = 0, pretend = 0, frame = 24
 1310              		@ frame_needed = 0, uses_anonymous_args = 0
 1311 0000 00B5     		push	{lr}
ARM GAS  C:\Users\PCHAUT~1\AppData\Local\Temp\ccxXBCq6.s 			page 24


 1312              		.cfi_def_cfa_offset 4
 1313              		.cfi_offset 14, -4
 1314 0002 87B0     		sub	sp, sp, #28
 1315              		.cfi_def_cfa_offset 32
 1316 0004 0190     		str	r0, [sp, #4]
 1317              		.loc 4 215 0
 1318 0006 1A4B     		ldr	r3, .L119
 1319 0008 1B68     		ldr	r3, [r3]
 1320 000a 0593     		str	r3, [sp, #20]
 1321              		.loc 4 216 0
 1322 000c FFF7FEFF 		bl	chSysLock
 1323              		.loc 4 217 0
 1324 0010 019B     		ldr	r3, [sp, #4]
 1325 0012 1B7B     		ldrb	r3, [r3, #12]
 1326 0014 8DF80F30 		strb	r3, [sp, #15]
 1327              		.loc 4 218 0
 1328 0018 019B     		ldr	r3, [sp, #4]
 1329 001a 0022     		movs	r2, #0
 1330 001c 1A73     		strb	r2, [r3, #12]
 1331              		.loc 4 219 0
 1332 001e FFF7FEFF 		bl	chSysUnlock
 1333              		.loc 4 220 0
 1334 0022 9DF80F30 		ldrb	r3, [sp, #15]
 1335 0026 83F00103 		eor	r3, r3, #1
 1336 002a DBB2     		uxtb	r3, r3
 1337 002c 002B     		cmp	r3, #0
 1338 002e 13D1     		bne	.L118
 1339              		.loc 4 225 0
 1340 0030 019B     		ldr	r3, [sp, #4]
 1341 0032 5B68     		ldr	r3, [r3, #4]
 1342 0034 0493     		str	r3, [sp, #16]
 1343              		.loc 4 226 0
 1344 0036 0BE0     		b	.L115
 1345              	.L116:
 1346              		.loc 4 227 0
 1347 0038 FFF7FEFF 		bl	chSysLock
 1348              		.loc 4 228 0
 1349 003c 049B     		ldr	r3, [sp, #16]
 1350 003e 5B68     		ldr	r3, [r3, #4]
 1351 0040 5A1E     		subs	r2, r3, #1
 1352 0042 049B     		ldr	r3, [sp, #16]
 1353 0044 5A60     		str	r2, [r3, #4]
 1354              		.loc 4 229 0
 1355 0046 FFF7FEFF 		bl	chSysUnlock
 1356              		.loc 4 230 0
 1357 004a 049B     		ldr	r3, [sp, #16]
 1358 004c 9B68     		ldr	r3, [r3, #8]
 1359 004e 0493     		str	r3, [sp, #16]
 1360              	.L115:
 1361              		.loc 4 226 0
 1362 0050 049B     		ldr	r3, [sp, #16]
 1363 0052 002B     		cmp	r3, #0
 1364 0054 F0D1     		bne	.L116
 1365 0056 00E0     		b	.L112
 1366              	.L118:
 1367              		.loc 4 221 0
 1368 0058 00BF     		nop
ARM GAS  C:\Users\PCHAUT~1\AppData\Local\Temp\ccxXBCq6.s 			page 25


 1369              	.L112:
 1370              		.loc 4 232 0
 1371 005a 054B     		ldr	r3, .L119
 1372 005c 059A     		ldr	r2, [sp, #20]
 1373 005e 1B68     		ldr	r3, [r3]
 1374 0060 9A42     		cmp	r2, r3
 1375 0062 01D0     		beq	.L117
 1376 0064 FFF7FEFF 		bl	__stack_chk_fail
 1377              	.L117:
 1378 0068 07B0     		add	sp, sp, #28
 1379              		.cfi_def_cfa_offset 4
 1380              		@ sp needed
 1381 006a 5DF804FB 		ldr	pc, [sp], #4
 1382              	.L120:
 1383 006e 00BF     		.align	2
 1384              	.L119:
 1385 0070 00000000 		.word	__stack_chk_guard
 1386              		.cfi_endproc
 1387              	.LFE263:
 1388              		.size	_parameter_changed_clear, .-_parameter_changed_clear
 1389              		.section	.text.parameter_scalar_declare,"ax",%progbits
 1390              		.align	1
 1391              		.p2align 4,,15
 1392              		.global	parameter_scalar_declare
 1393              		.syntax unified
 1394              		.thumb
 1395              		.thumb_func
 1396              		.fpu fpv4-sp-d16
 1397              		.type	parameter_scalar_declare, %function
 1398              	parameter_scalar_declare:
 1399              	.LFB264:
 1400              		.loc 4 240 0
 1401              		.cfi_startproc
 1402              		@ args = 0, pretend = 0, frame = 24
 1403              		@ frame_needed = 0, uses_anonymous_args = 0
 1404 0000 00B5     		push	{lr}
 1405              		.cfi_def_cfa_offset 4
 1406              		.cfi_offset 14, -4
 1407 0002 87B0     		sub	sp, sp, #28
 1408              		.cfi_def_cfa_offset 32
 1409 0004 0390     		str	r0, [sp, #12]
 1410 0006 0291     		str	r1, [sp, #8]
 1411 0008 0192     		str	r2, [sp, #4]
 1412              		.loc 4 240 0
 1413 000a 0B4B     		ldr	r3, .L123
 1414 000c 1B68     		ldr	r3, [r3]
 1415 000e 0593     		str	r3, [sp, #20]
 1416              		.loc 4 241 0
 1417 0010 039B     		ldr	r3, [sp, #12]
 1418 0012 0122     		movs	r2, #1
 1419 0014 9A73     		strb	r2, [r3, #14]
 1420              		.loc 4 242 0
 1421 0016 019A     		ldr	r2, [sp, #4]
 1422 0018 0299     		ldr	r1, [sp, #8]
 1423 001a 0398     		ldr	r0, [sp, #12]
 1424 001c FFF7FEFF 		bl	_parameter_declare
 1425              		.loc 4 243 0
ARM GAS  C:\Users\PCHAUT~1\AppData\Local\Temp\ccxXBCq6.s 			page 26


 1426 0020 00BF     		nop
 1427 0022 054B     		ldr	r3, .L123
 1428 0024 059A     		ldr	r2, [sp, #20]
 1429 0026 1B68     		ldr	r3, [r3]
 1430 0028 9A42     		cmp	r2, r3
 1431 002a 01D0     		beq	.L122
 1432 002c FFF7FEFF 		bl	__stack_chk_fail
 1433              	.L122:
 1434 0030 07B0     		add	sp, sp, #28
 1435              		.cfi_def_cfa_offset 4
 1436              		@ sp needed
 1437 0032 5DF804FB 		ldr	pc, [sp], #4
 1438              	.L124:
 1439 0036 00BF     		.align	2
 1440              	.L123:
 1441 0038 00000000 		.word	__stack_chk_guard
 1442              		.cfi_endproc
 1443              	.LFE264:
 1444              		.size	parameter_scalar_declare, .-parameter_scalar_declare
 1445              		.section	.text.parameter_scalar_declare_with_default,"ax",%progbits
 1446              		.align	1
 1447              		.p2align 4,,15
 1448              		.global	parameter_scalar_declare_with_default
 1449              		.syntax unified
 1450              		.thumb
 1451              		.thumb_func
 1452              		.fpu fpv4-sp-d16
 1453              		.type	parameter_scalar_declare_with_default, %function
 1454              	parameter_scalar_declare_with_default:
 1455              	.LFB265:
 1456              		.loc 4 249 0
 1457              		.cfi_startproc
 1458              		@ args = 0, pretend = 0, frame = 24
 1459              		@ frame_needed = 0, uses_anonymous_args = 0
 1460 0000 00B5     		push	{lr}
 1461              		.cfi_def_cfa_offset 4
 1462              		.cfi_offset 14, -4
 1463 0002 87B0     		sub	sp, sp, #28
 1464              		.cfi_def_cfa_offset 32
 1465 0004 0390     		str	r0, [sp, #12]
 1466 0006 0291     		str	r1, [sp, #8]
 1467 0008 0192     		str	r2, [sp, #4]
 1468 000a 8DED000A 		vstr.32	s0, [sp]
 1469              		.loc 4 249 0
 1470 000e 0E4B     		ldr	r3, .L127
 1471 0010 1B68     		ldr	r3, [r3]
 1472 0012 0593     		str	r3, [sp, #20]
 1473              		.loc 4 250 0
 1474 0014 039B     		ldr	r3, [sp, #12]
 1475 0016 009A     		ldr	r2, [sp]	@ float
 1476 0018 1A61     		str	r2, [r3, #16]	@ float
 1477              		.loc 4 251 0
 1478 001a 039B     		ldr	r3, [sp, #12]
 1479 001c 0122     		movs	r2, #1
 1480 001e 9A73     		strb	r2, [r3, #14]
 1481              		.loc 4 252 0
 1482 0020 019A     		ldr	r2, [sp, #4]
ARM GAS  C:\Users\PCHAUT~1\AppData\Local\Temp\ccxXBCq6.s 			page 27


 1483 0022 0299     		ldr	r1, [sp, #8]
 1484 0024 0398     		ldr	r0, [sp, #12]
 1485 0026 FFF7FEFF 		bl	_parameter_declare
 1486              		.loc 4 253 0
 1487 002a 0398     		ldr	r0, [sp, #12]
 1488 002c FFF7FEFF 		bl	_parameter_changed_set
 1489              		.loc 4 254 0
 1490 0030 00BF     		nop
 1491 0032 054B     		ldr	r3, .L127
 1492 0034 059A     		ldr	r2, [sp, #20]
 1493 0036 1B68     		ldr	r3, [r3]
 1494 0038 9A42     		cmp	r2, r3
 1495 003a 01D0     		beq	.L126
 1496 003c FFF7FEFF 		bl	__stack_chk_fail
 1497              	.L126:
 1498 0040 07B0     		add	sp, sp, #28
 1499              		.cfi_def_cfa_offset 4
 1500              		@ sp needed
 1501 0042 5DF804FB 		ldr	pc, [sp], #4
 1502              	.L128:
 1503 0046 00BF     		.align	2
 1504              	.L127:
 1505 0048 00000000 		.word	__stack_chk_guard
 1506              		.cfi_endproc
 1507              	.LFE265:
 1508              		.size	parameter_scalar_declare_with_default, .-parameter_scalar_declare_with_default
 1509              		.section	.text.parameter_scalar_get,"ax",%progbits
 1510              		.align	1
 1511              		.p2align 4,,15
 1512              		.global	parameter_scalar_get
 1513              		.syntax unified
 1514              		.thumb
 1515              		.thumb_func
 1516              		.fpu fpv4-sp-d16
 1517              		.type	parameter_scalar_get, %function
 1518              	parameter_scalar_get:
 1519              	.LFB266:
 1520              		.loc 4 257 0
 1521              		.cfi_startproc
 1522              		@ args = 0, pretend = 0, frame = 16
 1523              		@ frame_needed = 0, uses_anonymous_args = 0
 1524 0000 00B5     		push	{lr}
 1525              		.cfi_def_cfa_offset 4
 1526              		.cfi_offset 14, -4
 1527 0002 85B0     		sub	sp, sp, #20
 1528              		.cfi_def_cfa_offset 24
 1529 0004 0190     		str	r0, [sp, #4]
 1530              		.loc 4 257 0
 1531 0006 0B4B     		ldr	r3, .L132
 1532 0008 1B68     		ldr	r3, [r3]
 1533 000a 0393     		str	r3, [sp, #12]
 1534              		.loc 4 258 0
 1535 000c 0198     		ldr	r0, [sp, #4]
 1536 000e FFF7FEFF 		bl	_parameter_changed_clear
 1537              		.loc 4 259 0
 1538 0012 0198     		ldr	r0, [sp, #4]
 1539 0014 FFF7FEFF 		bl	parameter_scalar_read
ARM GAS  C:\Users\PCHAUT~1\AppData\Local\Temp\ccxXBCq6.s 			page 28


 1540 0018 F0EE407A 		vmov.f32	s15, s0
 1541              		.loc 4 260 0
 1542 001c B0EE670A 		vmov.f32	s0, s15
 1543 0020 044B     		ldr	r3, .L132
 1544 0022 039A     		ldr	r2, [sp, #12]
 1545 0024 1B68     		ldr	r3, [r3]
 1546 0026 9A42     		cmp	r2, r3
 1547 0028 01D0     		beq	.L131
 1548 002a FFF7FEFF 		bl	__stack_chk_fail
 1549              	.L131:
 1550 002e 05B0     		add	sp, sp, #20
 1551              		.cfi_def_cfa_offset 4
 1552              		@ sp needed
 1553 0030 5DF804FB 		ldr	pc, [sp], #4
 1554              	.L133:
 1555              		.align	2
 1556              	.L132:
 1557 0034 00000000 		.word	__stack_chk_guard
 1558              		.cfi_endproc
 1559              	.LFE266:
 1560              		.size	parameter_scalar_get, .-parameter_scalar_get
 1561              		.section	.text.parameter_scalar_read,"ax",%progbits
 1562              		.align	1
 1563              		.p2align 4,,15
 1564              		.global	parameter_scalar_read
 1565              		.syntax unified
 1566              		.thumb
 1567              		.thumb_func
 1568              		.fpu fpv4-sp-d16
 1569              		.type	parameter_scalar_read, %function
 1570              	parameter_scalar_read:
 1571              	.LFB267:
 1572              		.loc 4 263 0
 1573              		.cfi_startproc
 1574              		@ args = 0, pretend = 0, frame = 16
 1575              		@ frame_needed = 0, uses_anonymous_args = 0
 1576 0000 00B5     		push	{lr}
 1577              		.cfi_def_cfa_offset 4
 1578              		.cfi_offset 14, -4
 1579 0002 85B0     		sub	sp, sp, #20
 1580              		.cfi_def_cfa_offset 24
 1581 0004 0190     		str	r0, [sp, #4]
 1582              		.loc 4 263 0
 1583 0006 154B     		ldr	r3, .L139
 1584 0008 1B68     		ldr	r3, [r3]
 1585 000a 0393     		str	r3, [sp, #12]
 1586              		.loc 4 264 0
 1587 000c 019B     		ldr	r3, [sp, #4]
 1588 000e 9B7B     		ldrb	r3, [r3, #14]	@ zero_extendqisi2
 1589 0010 012B     		cmp	r3, #1
 1590 0012 02D0     		beq	.L135
 1591              		.loc 4 264 0 is_stmt 0 discriminator 2
 1592 0014 1248     		ldr	r0, .L139+4
 1593 0016 FFF7FEFF 		bl	chSysHalt
 1594              	.L135:
 1595              		.loc 4 265 0 is_stmt 1
 1596 001a FFF7FEFF 		bl	chSysLock
ARM GAS  C:\Users\PCHAUT~1\AppData\Local\Temp\ccxXBCq6.s 			page 29


 1597              		.loc 4 266 0
 1598 001e 019B     		ldr	r3, [sp, #4]
 1599 0020 5B7B     		ldrb	r3, [r3, #13]	@ zero_extendqisi2
 1600 0022 83F00103 		eor	r3, r3, #1
 1601 0026 DBB2     		uxtb	r3, r3
 1602 0028 002B     		cmp	r3, #0
 1603 002a 02D0     		beq	.L136
 1604              		.loc 4 266 0 is_stmt 0 discriminator 2
 1605 002c 0C48     		ldr	r0, .L139+4
 1606 002e FFF7FEFF 		bl	chSysHalt
 1607              	.L136:
 1608              		.loc 4 267 0 is_stmt 1
 1609 0032 019B     		ldr	r3, [sp, #4]
 1610 0034 1B69     		ldr	r3, [r3, #16]	@ float
 1611 0036 0293     		str	r3, [sp, #8]	@ float
 1612              		.loc 4 268 0
 1613 0038 FFF7FEFF 		bl	chSysUnlock
 1614              		.loc 4 269 0
 1615 003c 029B     		ldr	r3, [sp, #8]	@ float
 1616 003e 07EE903A 		vmov	s15, r3
 1617              		.loc 4 270 0
 1618 0042 B0EE670A 		vmov.f32	s0, s15
 1619 0046 054B     		ldr	r3, .L139
 1620 0048 039A     		ldr	r2, [sp, #12]
 1621 004a 1B68     		ldr	r3, [r3]
 1622 004c 9A42     		cmp	r2, r3
 1623 004e 01D0     		beq	.L138
 1624 0050 FFF7FEFF 		bl	__stack_chk_fail
 1625              	.L138:
 1626 0054 05B0     		add	sp, sp, #20
 1627              		.cfi_def_cfa_offset 4
 1628              		@ sp needed
 1629 0056 5DF804FB 		ldr	pc, [sp], #4
 1630              	.L140:
 1631 005a 00BF     		.align	2
 1632              	.L139:
 1633 005c 00000000 		.word	__stack_chk_guard
 1634 0060 00000000 		.word	__func__.9069
 1635              		.cfi_endproc
 1636              	.LFE267:
 1637              		.size	parameter_scalar_read, .-parameter_scalar_read
 1638              		.section	.text.parameter_scalar_set,"ax",%progbits
 1639              		.align	1
 1640              		.p2align 4,,15
 1641              		.global	parameter_scalar_set
 1642              		.syntax unified
 1643              		.thumb
 1644              		.thumb_func
 1645              		.fpu fpv4-sp-d16
 1646              		.type	parameter_scalar_set, %function
 1647              	parameter_scalar_set:
 1648              	.LFB268:
 1649              		.loc 4 273 0
 1650              		.cfi_startproc
 1651              		@ args = 0, pretend = 0, frame = 16
 1652              		@ frame_needed = 0, uses_anonymous_args = 0
 1653 0000 00B5     		push	{lr}
ARM GAS  C:\Users\PCHAUT~1\AppData\Local\Temp\ccxXBCq6.s 			page 30


 1654              		.cfi_def_cfa_offset 4
 1655              		.cfi_offset 14, -4
 1656 0002 85B0     		sub	sp, sp, #20
 1657              		.cfi_def_cfa_offset 24
 1658 0004 0190     		str	r0, [sp, #4]
 1659 0006 8DED000A 		vstr.32	s0, [sp]
 1660              		.loc 4 273 0
 1661 000a 0F4B     		ldr	r3, .L144
 1662 000c 1B68     		ldr	r3, [r3]
 1663 000e 0393     		str	r3, [sp, #12]
 1664              		.loc 4 274 0
 1665 0010 019B     		ldr	r3, [sp, #4]
 1666 0012 9B7B     		ldrb	r3, [r3, #14]	@ zero_extendqisi2
 1667 0014 012B     		cmp	r3, #1
 1668 0016 02D0     		beq	.L142
 1669              		.loc 4 274 0 is_stmt 0 discriminator 2
 1670 0018 0C48     		ldr	r0, .L144+4
 1671 001a FFF7FEFF 		bl	chSysHalt
 1672              	.L142:
 1673              		.loc 4 275 0 is_stmt 1
 1674 001e FFF7FEFF 		bl	chSysLock
 1675              		.loc 4 276 0
 1676 0022 019B     		ldr	r3, [sp, #4]
 1677 0024 009A     		ldr	r2, [sp]	@ float
 1678 0026 1A61     		str	r2, [r3, #16]	@ float
 1679              		.loc 4 277 0
 1680 0028 FFF7FEFF 		bl	chSysUnlock
 1681              		.loc 4 278 0
 1682 002c 0198     		ldr	r0, [sp, #4]
 1683 002e FFF7FEFF 		bl	_parameter_changed_set
 1684              		.loc 4 279 0
 1685 0032 00BF     		nop
 1686 0034 044B     		ldr	r3, .L144
 1687 0036 039A     		ldr	r2, [sp, #12]
 1688 0038 1B68     		ldr	r3, [r3]
 1689 003a 9A42     		cmp	r2, r3
 1690 003c 01D0     		beq	.L143
 1691 003e FFF7FEFF 		bl	__stack_chk_fail
 1692              	.L143:
 1693 0042 05B0     		add	sp, sp, #20
 1694              		.cfi_def_cfa_offset 4
 1695              		@ sp needed
 1696 0044 5DF804FB 		ldr	pc, [sp], #4
 1697              	.L145:
 1698              		.align	2
 1699              	.L144:
 1700 0048 00000000 		.word	__stack_chk_guard
 1701 004c 00000000 		.word	__func__.9075
 1702              		.cfi_endproc
 1703              	.LFE268:
 1704              		.size	parameter_scalar_set, .-parameter_scalar_set
 1705              		.section	.text.parameter_integer_declare,"ax",%progbits
 1706              		.align	1
 1707              		.p2align 4,,15
 1708              		.global	parameter_integer_declare
 1709              		.syntax unified
 1710              		.thumb
ARM GAS  C:\Users\PCHAUT~1\AppData\Local\Temp\ccxXBCq6.s 			page 31


 1711              		.thumb_func
 1712              		.fpu fpv4-sp-d16
 1713              		.type	parameter_integer_declare, %function
 1714              	parameter_integer_declare:
 1715              	.LFB269:
 1716              		.loc 4 288 0
 1717              		.cfi_startproc
 1718              		@ args = 0, pretend = 0, frame = 24
 1719              		@ frame_needed = 0, uses_anonymous_args = 0
 1720 0000 00B5     		push	{lr}
 1721              		.cfi_def_cfa_offset 4
 1722              		.cfi_offset 14, -4
 1723 0002 87B0     		sub	sp, sp, #28
 1724              		.cfi_def_cfa_offset 32
 1725 0004 0390     		str	r0, [sp, #12]
 1726 0006 0291     		str	r1, [sp, #8]
 1727 0008 0192     		str	r2, [sp, #4]
 1728              		.loc 4 288 0
 1729 000a 0B4B     		ldr	r3, .L148
 1730 000c 1B68     		ldr	r3, [r3]
 1731 000e 0593     		str	r3, [sp, #20]
 1732              		.loc 4 289 0
 1733 0010 039B     		ldr	r3, [sp, #12]
 1734 0012 0322     		movs	r2, #3
 1735 0014 9A73     		strb	r2, [r3, #14]
 1736              		.loc 4 290 0
 1737 0016 019A     		ldr	r2, [sp, #4]
 1738 0018 0299     		ldr	r1, [sp, #8]
 1739 001a 0398     		ldr	r0, [sp, #12]
 1740 001c FFF7FEFF 		bl	_parameter_declare
 1741              		.loc 4 291 0
 1742 0020 00BF     		nop
 1743 0022 054B     		ldr	r3, .L148
 1744 0024 059A     		ldr	r2, [sp, #20]
 1745 0026 1B68     		ldr	r3, [r3]
 1746 0028 9A42     		cmp	r2, r3
 1747 002a 01D0     		beq	.L147
 1748 002c FFF7FEFF 		bl	__stack_chk_fail
 1749              	.L147:
 1750 0030 07B0     		add	sp, sp, #28
 1751              		.cfi_def_cfa_offset 4
 1752              		@ sp needed
 1753 0032 5DF804FB 		ldr	pc, [sp], #4
 1754              	.L149:
 1755 0036 00BF     		.align	2
 1756              	.L148:
 1757 0038 00000000 		.word	__stack_chk_guard
 1758              		.cfi_endproc
 1759              	.LFE269:
 1760              		.size	parameter_integer_declare, .-parameter_integer_declare
 1761              		.section	.text.parameter_integer_declare_with_default,"ax",%progbits
 1762              		.align	1
 1763              		.p2align 4,,15
 1764              		.global	parameter_integer_declare_with_default
 1765              		.syntax unified
 1766              		.thumb
 1767              		.thumb_func
ARM GAS  C:\Users\PCHAUT~1\AppData\Local\Temp\ccxXBCq6.s 			page 32


 1768              		.fpu fpv4-sp-d16
 1769              		.type	parameter_integer_declare_with_default, %function
 1770              	parameter_integer_declare_with_default:
 1771              	.LFB270:
 1772              		.loc 4 297 0
 1773              		.cfi_startproc
 1774              		@ args = 0, pretend = 0, frame = 24
 1775              		@ frame_needed = 0, uses_anonymous_args = 0
 1776 0000 00B5     		push	{lr}
 1777              		.cfi_def_cfa_offset 4
 1778              		.cfi_offset 14, -4
 1779 0002 87B0     		sub	sp, sp, #28
 1780              		.cfi_def_cfa_offset 32
 1781 0004 0390     		str	r0, [sp, #12]
 1782 0006 0291     		str	r1, [sp, #8]
 1783 0008 0192     		str	r2, [sp, #4]
 1784 000a 0093     		str	r3, [sp]
 1785              		.loc 4 297 0
 1786 000c 0D4B     		ldr	r3, .L152
 1787 000e 1B68     		ldr	r3, [r3]
 1788 0010 0593     		str	r3, [sp, #20]
 1789              		.loc 4 298 0
 1790 0012 039B     		ldr	r3, [sp, #12]
 1791 0014 009A     		ldr	r2, [sp]
 1792 0016 1A61     		str	r2, [r3, #16]
 1793              		.loc 4 299 0
 1794 0018 039B     		ldr	r3, [sp, #12]
 1795 001a 0322     		movs	r2, #3
 1796 001c 9A73     		strb	r2, [r3, #14]
 1797              		.loc 4 300 0
 1798 001e 019A     		ldr	r2, [sp, #4]
 1799 0020 0299     		ldr	r1, [sp, #8]
 1800 0022 0398     		ldr	r0, [sp, #12]
 1801 0024 FFF7FEFF 		bl	_parameter_declare
 1802              		.loc 4 301 0
 1803 0028 0398     		ldr	r0, [sp, #12]
 1804 002a FFF7FEFF 		bl	_parameter_changed_set
 1805              		.loc 4 302 0
 1806 002e 00BF     		nop
 1807 0030 044B     		ldr	r3, .L152
 1808 0032 059A     		ldr	r2, [sp, #20]
 1809 0034 1B68     		ldr	r3, [r3]
 1810 0036 9A42     		cmp	r2, r3
 1811 0038 01D0     		beq	.L151
 1812 003a FFF7FEFF 		bl	__stack_chk_fail
 1813              	.L151:
 1814 003e 07B0     		add	sp, sp, #28
 1815              		.cfi_def_cfa_offset 4
 1816              		@ sp needed
 1817 0040 5DF804FB 		ldr	pc, [sp], #4
 1818              	.L153:
 1819              		.align	2
 1820              	.L152:
 1821 0044 00000000 		.word	__stack_chk_guard
 1822              		.cfi_endproc
 1823              	.LFE270:
 1824              		.size	parameter_integer_declare_with_default, .-parameter_integer_declare_with_default
ARM GAS  C:\Users\PCHAUT~1\AppData\Local\Temp\ccxXBCq6.s 			page 33


 1825              		.section	.text.parameter_integer_get,"ax",%progbits
 1826              		.align	1
 1827              		.p2align 4,,15
 1828              		.global	parameter_integer_get
 1829              		.syntax unified
 1830              		.thumb
 1831              		.thumb_func
 1832              		.fpu fpv4-sp-d16
 1833              		.type	parameter_integer_get, %function
 1834              	parameter_integer_get:
 1835              	.LFB271:
 1836              		.loc 4 305 0
 1837              		.cfi_startproc
 1838              		@ args = 0, pretend = 0, frame = 16
 1839              		@ frame_needed = 0, uses_anonymous_args = 0
 1840 0000 00B5     		push	{lr}
 1841              		.cfi_def_cfa_offset 4
 1842              		.cfi_offset 14, -4
 1843 0002 85B0     		sub	sp, sp, #20
 1844              		.cfi_def_cfa_offset 24
 1845 0004 0190     		str	r0, [sp, #4]
 1846              		.loc 4 305 0
 1847 0006 0A4B     		ldr	r3, .L157
 1848 0008 1B68     		ldr	r3, [r3]
 1849 000a 0393     		str	r3, [sp, #12]
 1850              		.loc 4 306 0
 1851 000c 0198     		ldr	r0, [sp, #4]
 1852 000e FFF7FEFF 		bl	_parameter_changed_clear
 1853              		.loc 4 307 0
 1854 0012 0198     		ldr	r0, [sp, #4]
 1855 0014 FFF7FEFF 		bl	parameter_integer_read
 1856 0018 0346     		mov	r3, r0
 1857              		.loc 4 308 0
 1858 001a 1846     		mov	r0, r3
 1859 001c 044B     		ldr	r3, .L157
 1860 001e 039A     		ldr	r2, [sp, #12]
 1861 0020 1B68     		ldr	r3, [r3]
 1862 0022 9A42     		cmp	r2, r3
 1863 0024 01D0     		beq	.L156
 1864 0026 FFF7FEFF 		bl	__stack_chk_fail
 1865              	.L156:
 1866 002a 05B0     		add	sp, sp, #20
 1867              		.cfi_def_cfa_offset 4
 1868              		@ sp needed
 1869 002c 5DF804FB 		ldr	pc, [sp], #4
 1870              	.L158:
 1871              		.align	2
 1872              	.L157:
 1873 0030 00000000 		.word	__stack_chk_guard
 1874              		.cfi_endproc
 1875              	.LFE271:
 1876              		.size	parameter_integer_get, .-parameter_integer_get
 1877              		.section	.text.parameter_integer_read,"ax",%progbits
 1878              		.align	1
 1879              		.p2align 4,,15
 1880              		.global	parameter_integer_read
 1881              		.syntax unified
ARM GAS  C:\Users\PCHAUT~1\AppData\Local\Temp\ccxXBCq6.s 			page 34


 1882              		.thumb
 1883              		.thumb_func
 1884              		.fpu fpv4-sp-d16
 1885              		.type	parameter_integer_read, %function
 1886              	parameter_integer_read:
 1887              	.LFB272:
 1888              		.loc 4 311 0
 1889              		.cfi_startproc
 1890              		@ args = 0, pretend = 0, frame = 16
 1891              		@ frame_needed = 0, uses_anonymous_args = 0
 1892 0000 00B5     		push	{lr}
 1893              		.cfi_def_cfa_offset 4
 1894              		.cfi_offset 14, -4
 1895 0002 85B0     		sub	sp, sp, #20
 1896              		.cfi_def_cfa_offset 24
 1897 0004 0190     		str	r0, [sp, #4]
 1898              		.loc 4 311 0
 1899 0006 134B     		ldr	r3, .L164
 1900 0008 1B68     		ldr	r3, [r3]
 1901 000a 0393     		str	r3, [sp, #12]
 1902              		.loc 4 312 0
 1903 000c 019B     		ldr	r3, [sp, #4]
 1904 000e 9B7B     		ldrb	r3, [r3, #14]	@ zero_extendqisi2
 1905 0010 032B     		cmp	r3, #3
 1906 0012 02D0     		beq	.L160
 1907              		.loc 4 312 0 is_stmt 0 discriminator 2
 1908 0014 1048     		ldr	r0, .L164+4
 1909 0016 FFF7FEFF 		bl	chSysHalt
 1910              	.L160:
 1911              		.loc 4 313 0 is_stmt 1
 1912 001a FFF7FEFF 		bl	chSysLock
 1913              		.loc 4 314 0
 1914 001e 019B     		ldr	r3, [sp, #4]
 1915 0020 5B7B     		ldrb	r3, [r3, #13]	@ zero_extendqisi2
 1916 0022 83F00103 		eor	r3, r3, #1
 1917 0026 DBB2     		uxtb	r3, r3
 1918 0028 002B     		cmp	r3, #0
 1919 002a 02D0     		beq	.L161
 1920              		.loc 4 314 0 is_stmt 0 discriminator 2
 1921 002c 0A48     		ldr	r0, .L164+4
 1922 002e FFF7FEFF 		bl	chSysHalt
 1923              	.L161:
 1924              		.loc 4 315 0 is_stmt 1
 1925 0032 019B     		ldr	r3, [sp, #4]
 1926 0034 1B69     		ldr	r3, [r3, #16]
 1927 0036 0293     		str	r3, [sp, #8]
 1928              		.loc 4 316 0
 1929 0038 FFF7FEFF 		bl	chSysUnlock
 1930              		.loc 4 317 0
 1931 003c 029B     		ldr	r3, [sp, #8]
 1932              		.loc 4 318 0
 1933 003e 1846     		mov	r0, r3
 1934 0040 044B     		ldr	r3, .L164
 1935 0042 039A     		ldr	r2, [sp, #12]
 1936 0044 1B68     		ldr	r3, [r3]
 1937 0046 9A42     		cmp	r2, r3
 1938 0048 01D0     		beq	.L163
ARM GAS  C:\Users\PCHAUT~1\AppData\Local\Temp\ccxXBCq6.s 			page 35


 1939 004a FFF7FEFF 		bl	__stack_chk_fail
 1940              	.L163:
 1941 004e 05B0     		add	sp, sp, #20
 1942              		.cfi_def_cfa_offset 4
 1943              		@ sp needed
 1944 0050 5DF804FB 		ldr	pc, [sp], #4
 1945              	.L165:
 1946              		.align	2
 1947              	.L164:
 1948 0054 00000000 		.word	__stack_chk_guard
 1949 0058 00000000 		.word	__func__.9093
 1950              		.cfi_endproc
 1951              	.LFE272:
 1952              		.size	parameter_integer_read, .-parameter_integer_read
 1953              		.section	.text.parameter_integer_set,"ax",%progbits
 1954              		.align	1
 1955              		.p2align 4,,15
 1956              		.global	parameter_integer_set
 1957              		.syntax unified
 1958              		.thumb
 1959              		.thumb_func
 1960              		.fpu fpv4-sp-d16
 1961              		.type	parameter_integer_set, %function
 1962              	parameter_integer_set:
 1963              	.LFB273:
 1964              		.loc 4 321 0
 1965              		.cfi_startproc
 1966              		@ args = 0, pretend = 0, frame = 16
 1967              		@ frame_needed = 0, uses_anonymous_args = 0
 1968 0000 00B5     		push	{lr}
 1969              		.cfi_def_cfa_offset 4
 1970              		.cfi_offset 14, -4
 1971 0002 85B0     		sub	sp, sp, #20
 1972              		.cfi_def_cfa_offset 24
 1973 0004 0190     		str	r0, [sp, #4]
 1974 0006 0091     		str	r1, [sp]
 1975              		.loc 4 321 0
 1976 0008 0F4B     		ldr	r3, .L169
 1977 000a 1B68     		ldr	r3, [r3]
 1978 000c 0393     		str	r3, [sp, #12]
 1979              		.loc 4 322 0
 1980 000e 019B     		ldr	r3, [sp, #4]
 1981 0010 9B7B     		ldrb	r3, [r3, #14]	@ zero_extendqisi2
 1982 0012 032B     		cmp	r3, #3
 1983 0014 02D0     		beq	.L167
 1984              		.loc 4 322 0 is_stmt 0 discriminator 2
 1985 0016 0D48     		ldr	r0, .L169+4
 1986 0018 FFF7FEFF 		bl	chSysHalt
 1987              	.L167:
 1988              		.loc 4 323 0 is_stmt 1
 1989 001c FFF7FEFF 		bl	chSysLock
 1990              		.loc 4 324 0
 1991 0020 019B     		ldr	r3, [sp, #4]
 1992 0022 009A     		ldr	r2, [sp]
 1993 0024 1A61     		str	r2, [r3, #16]
 1994              		.loc 4 325 0
 1995 0026 FFF7FEFF 		bl	chSysUnlock
ARM GAS  C:\Users\PCHAUT~1\AppData\Local\Temp\ccxXBCq6.s 			page 36


 1996              		.loc 4 326 0
 1997 002a 0198     		ldr	r0, [sp, #4]
 1998 002c FFF7FEFF 		bl	_parameter_changed_set
 1999              		.loc 4 327 0
 2000 0030 00BF     		nop
 2001 0032 054B     		ldr	r3, .L169
 2002 0034 039A     		ldr	r2, [sp, #12]
 2003 0036 1B68     		ldr	r3, [r3]
 2004 0038 9A42     		cmp	r2, r3
 2005 003a 01D0     		beq	.L168
 2006 003c FFF7FEFF 		bl	__stack_chk_fail
 2007              	.L168:
 2008 0040 05B0     		add	sp, sp, #20
 2009              		.cfi_def_cfa_offset 4
 2010              		@ sp needed
 2011 0042 5DF804FB 		ldr	pc, [sp], #4
 2012              	.L170:
 2013 0046 00BF     		.align	2
 2014              	.L169:
 2015 0048 00000000 		.word	__stack_chk_guard
 2016 004c 00000000 		.word	__func__.9099
 2017              		.cfi_endproc
 2018              	.LFE273:
 2019              		.size	parameter_integer_set, .-parameter_integer_set
 2020              		.section	.text.parameter_boolean_declare,"ax",%progbits
 2021              		.align	1
 2022              		.p2align 4,,15
 2023              		.global	parameter_boolean_declare
 2024              		.syntax unified
 2025              		.thumb
 2026              		.thumb_func
 2027              		.fpu fpv4-sp-d16
 2028              		.type	parameter_boolean_declare, %function
 2029              	parameter_boolean_declare:
 2030              	.LFB274:
 2031              		.loc 4 332 0
 2032              		.cfi_startproc
 2033              		@ args = 0, pretend = 0, frame = 24
 2034              		@ frame_needed = 0, uses_anonymous_args = 0
 2035 0000 00B5     		push	{lr}
 2036              		.cfi_def_cfa_offset 4
 2037              		.cfi_offset 14, -4
 2038 0002 87B0     		sub	sp, sp, #28
 2039              		.cfi_def_cfa_offset 32
 2040 0004 0390     		str	r0, [sp, #12]
 2041 0006 0291     		str	r1, [sp, #8]
 2042 0008 0192     		str	r2, [sp, #4]
 2043              		.loc 4 332 0
 2044 000a 0B4B     		ldr	r3, .L173
 2045 000c 1B68     		ldr	r3, [r3]
 2046 000e 0593     		str	r3, [sp, #20]
 2047              		.loc 4 333 0
 2048 0010 039B     		ldr	r3, [sp, #12]
 2049 0012 0222     		movs	r2, #2
 2050 0014 9A73     		strb	r2, [r3, #14]
 2051              		.loc 4 334 0
 2052 0016 019A     		ldr	r2, [sp, #4]
ARM GAS  C:\Users\PCHAUT~1\AppData\Local\Temp\ccxXBCq6.s 			page 37


 2053 0018 0299     		ldr	r1, [sp, #8]
 2054 001a 0398     		ldr	r0, [sp, #12]
 2055 001c FFF7FEFF 		bl	_parameter_declare
 2056              		.loc 4 335 0
 2057 0020 00BF     		nop
 2058 0022 054B     		ldr	r3, .L173
 2059 0024 059A     		ldr	r2, [sp, #20]
 2060 0026 1B68     		ldr	r3, [r3]
 2061 0028 9A42     		cmp	r2, r3
 2062 002a 01D0     		beq	.L172
 2063 002c FFF7FEFF 		bl	__stack_chk_fail
 2064              	.L172:
 2065 0030 07B0     		add	sp, sp, #28
 2066              		.cfi_def_cfa_offset 4
 2067              		@ sp needed
 2068 0032 5DF804FB 		ldr	pc, [sp], #4
 2069              	.L174:
 2070 0036 00BF     		.align	2
 2071              	.L173:
 2072 0038 00000000 		.word	__stack_chk_guard
 2073              		.cfi_endproc
 2074              	.LFE274:
 2075              		.size	parameter_boolean_declare, .-parameter_boolean_declare
 2076              		.section	.text.parameter_boolean_declare_with_default,"ax",%progbits
 2077              		.align	1
 2078              		.p2align 4,,15
 2079              		.global	parameter_boolean_declare_with_default
 2080              		.syntax unified
 2081              		.thumb
 2082              		.thumb_func
 2083              		.fpu fpv4-sp-d16
 2084              		.type	parameter_boolean_declare_with_default, %function
 2085              	parameter_boolean_declare_with_default:
 2086              	.LFB275:
 2087              		.loc 4 341 0
 2088              		.cfi_startproc
 2089              		@ args = 0, pretend = 0, frame = 24
 2090              		@ frame_needed = 0, uses_anonymous_args = 0
 2091 0000 00B5     		push	{lr}
 2092              		.cfi_def_cfa_offset 4
 2093              		.cfi_offset 14, -4
 2094 0002 87B0     		sub	sp, sp, #28
 2095              		.cfi_def_cfa_offset 32
 2096 0004 0390     		str	r0, [sp, #12]
 2097 0006 0291     		str	r1, [sp, #8]
 2098 0008 0192     		str	r2, [sp, #4]
 2099 000a 8DF80330 		strb	r3, [sp, #3]
 2100              		.loc 4 341 0
 2101 000e 0E4B     		ldr	r3, .L177
 2102 0010 1B68     		ldr	r3, [r3]
 2103 0012 0593     		str	r3, [sp, #20]
 2104              		.loc 4 342 0
 2105 0014 039B     		ldr	r3, [sp, #12]
 2106 0016 9DF80320 		ldrb	r2, [sp, #3]
 2107 001a 1A74     		strb	r2, [r3, #16]
 2108              		.loc 4 343 0
 2109 001c 039B     		ldr	r3, [sp, #12]
ARM GAS  C:\Users\PCHAUT~1\AppData\Local\Temp\ccxXBCq6.s 			page 38


 2110 001e 0222     		movs	r2, #2
 2111 0020 9A73     		strb	r2, [r3, #14]
 2112              		.loc 4 344 0
 2113 0022 019A     		ldr	r2, [sp, #4]
 2114 0024 0299     		ldr	r1, [sp, #8]
 2115 0026 0398     		ldr	r0, [sp, #12]
 2116 0028 FFF7FEFF 		bl	_parameter_declare
 2117              		.loc 4 345 0
 2118 002c 0398     		ldr	r0, [sp, #12]
 2119 002e FFF7FEFF 		bl	_parameter_changed_set
 2120              		.loc 4 346 0
 2121 0032 00BF     		nop
 2122 0034 044B     		ldr	r3, .L177
 2123 0036 059A     		ldr	r2, [sp, #20]
 2124 0038 1B68     		ldr	r3, [r3]
 2125 003a 9A42     		cmp	r2, r3
 2126 003c 01D0     		beq	.L176
 2127 003e FFF7FEFF 		bl	__stack_chk_fail
 2128              	.L176:
 2129 0042 07B0     		add	sp, sp, #28
 2130              		.cfi_def_cfa_offset 4
 2131              		@ sp needed
 2132 0044 5DF804FB 		ldr	pc, [sp], #4
 2133              	.L178:
 2134              		.align	2
 2135              	.L177:
 2136 0048 00000000 		.word	__stack_chk_guard
 2137              		.cfi_endproc
 2138              	.LFE275:
 2139              		.size	parameter_boolean_declare_with_default, .-parameter_boolean_declare_with_default
 2140              		.section	.text.parameter_boolean_set,"ax",%progbits
 2141              		.align	1
 2142              		.p2align 4,,15
 2143              		.global	parameter_boolean_set
 2144              		.syntax unified
 2145              		.thumb
 2146              		.thumb_func
 2147              		.fpu fpv4-sp-d16
 2148              		.type	parameter_boolean_set, %function
 2149              	parameter_boolean_set:
 2150              	.LFB276:
 2151              		.loc 4 349 0
 2152              		.cfi_startproc
 2153              		@ args = 0, pretend = 0, frame = 16
 2154              		@ frame_needed = 0, uses_anonymous_args = 0
 2155 0000 00B5     		push	{lr}
 2156              		.cfi_def_cfa_offset 4
 2157              		.cfi_offset 14, -4
 2158 0002 85B0     		sub	sp, sp, #20
 2159              		.cfi_def_cfa_offset 24
 2160 0004 0190     		str	r0, [sp, #4]
 2161 0006 0B46     		mov	r3, r1
 2162 0008 8DF80330 		strb	r3, [sp, #3]
 2163              		.loc 4 349 0
 2164 000c 0F4B     		ldr	r3, .L182
 2165 000e 1B68     		ldr	r3, [r3]
 2166 0010 0393     		str	r3, [sp, #12]
ARM GAS  C:\Users\PCHAUT~1\AppData\Local\Temp\ccxXBCq6.s 			page 39


 2167              		.loc 4 350 0
 2168 0012 019B     		ldr	r3, [sp, #4]
 2169 0014 9B7B     		ldrb	r3, [r3, #14]	@ zero_extendqisi2
 2170 0016 022B     		cmp	r3, #2
 2171 0018 02D0     		beq	.L180
 2172              		.loc 4 350 0 is_stmt 0 discriminator 2
 2173 001a 0D48     		ldr	r0, .L182+4
 2174 001c FFF7FEFF 		bl	chSysHalt
 2175              	.L180:
 2176              		.loc 4 352 0 is_stmt 1
 2177 0020 FFF7FEFF 		bl	chSysLock
 2178              		.loc 4 353 0
 2179 0024 019B     		ldr	r3, [sp, #4]
 2180 0026 9DF80320 		ldrb	r2, [sp, #3]
 2181 002a 1A74     		strb	r2, [r3, #16]
 2182              		.loc 4 354 0
 2183 002c FFF7FEFF 		bl	chSysUnlock
 2184              		.loc 4 355 0
 2185 0030 0198     		ldr	r0, [sp, #4]
 2186 0032 FFF7FEFF 		bl	_parameter_changed_set
 2187              		.loc 4 356 0
 2188 0036 00BF     		nop
 2189 0038 044B     		ldr	r3, .L182
 2190 003a 039A     		ldr	r2, [sp, #12]
 2191 003c 1B68     		ldr	r3, [r3]
 2192 003e 9A42     		cmp	r2, r3
 2193 0040 01D0     		beq	.L181
 2194 0042 FFF7FEFF 		bl	__stack_chk_fail
 2195              	.L181:
 2196 0046 05B0     		add	sp, sp, #20
 2197              		.cfi_def_cfa_offset 4
 2198              		@ sp needed
 2199 0048 5DF804FB 		ldr	pc, [sp], #4
 2200              	.L183:
 2201              		.align	2
 2202              	.L182:
 2203 004c 00000000 		.word	__stack_chk_guard
 2204 0050 00000000 		.word	__func__.9115
 2205              		.cfi_endproc
 2206              	.LFE276:
 2207              		.size	parameter_boolean_set, .-parameter_boolean_set
 2208              		.section	.text.parameter_boolean_get,"ax",%progbits
 2209              		.align	1
 2210              		.p2align 4,,15
 2211              		.global	parameter_boolean_get
 2212              		.syntax unified
 2213              		.thumb
 2214              		.thumb_func
 2215              		.fpu fpv4-sp-d16
 2216              		.type	parameter_boolean_get, %function
 2217              	parameter_boolean_get:
 2218              	.LFB277:
 2219              		.loc 4 359 0
 2220              		.cfi_startproc
 2221              		@ args = 0, pretend = 0, frame = 16
 2222              		@ frame_needed = 0, uses_anonymous_args = 0
 2223 0000 00B5     		push	{lr}
ARM GAS  C:\Users\PCHAUT~1\AppData\Local\Temp\ccxXBCq6.s 			page 40


 2224              		.cfi_def_cfa_offset 4
 2225              		.cfi_offset 14, -4
 2226 0002 85B0     		sub	sp, sp, #20
 2227              		.cfi_def_cfa_offset 24
 2228 0004 0190     		str	r0, [sp, #4]
 2229              		.loc 4 359 0
 2230 0006 0A4B     		ldr	r3, .L187
 2231 0008 1B68     		ldr	r3, [r3]
 2232 000a 0393     		str	r3, [sp, #12]
 2233              		.loc 4 360 0
 2234 000c 0198     		ldr	r0, [sp, #4]
 2235 000e FFF7FEFF 		bl	_parameter_changed_clear
 2236              		.loc 4 361 0
 2237 0012 0198     		ldr	r0, [sp, #4]
 2238 0014 FFF7FEFF 		bl	parameter_boolean_read
 2239 0018 0346     		mov	r3, r0
 2240              		.loc 4 362 0
 2241 001a 1846     		mov	r0, r3
 2242 001c 044B     		ldr	r3, .L187
 2243 001e 039A     		ldr	r2, [sp, #12]
 2244 0020 1B68     		ldr	r3, [r3]
 2245 0022 9A42     		cmp	r2, r3
 2246 0024 01D0     		beq	.L186
 2247 0026 FFF7FEFF 		bl	__stack_chk_fail
 2248              	.L186:
 2249 002a 05B0     		add	sp, sp, #20
 2250              		.cfi_def_cfa_offset 4
 2251              		@ sp needed
 2252 002c 5DF804FB 		ldr	pc, [sp], #4
 2253              	.L188:
 2254              		.align	2
 2255              	.L187:
 2256 0030 00000000 		.word	__stack_chk_guard
 2257              		.cfi_endproc
 2258              	.LFE277:
 2259              		.size	parameter_boolean_get, .-parameter_boolean_get
 2260              		.section	.text.parameter_boolean_read,"ax",%progbits
 2261              		.align	1
 2262              		.p2align 4,,15
 2263              		.global	parameter_boolean_read
 2264              		.syntax unified
 2265              		.thumb
 2266              		.thumb_func
 2267              		.fpu fpv4-sp-d16
 2268              		.type	parameter_boolean_read, %function
 2269              	parameter_boolean_read:
 2270              	.LFB278:
 2271              		.loc 4 365 0
 2272              		.cfi_startproc
 2273              		@ args = 0, pretend = 0, frame = 16
 2274              		@ frame_needed = 0, uses_anonymous_args = 0
 2275 0000 00B5     		push	{lr}
 2276              		.cfi_def_cfa_offset 4
 2277              		.cfi_offset 14, -4
 2278 0002 85B0     		sub	sp, sp, #20
 2279              		.cfi_def_cfa_offset 24
 2280 0004 0190     		str	r0, [sp, #4]
ARM GAS  C:\Users\PCHAUT~1\AppData\Local\Temp\ccxXBCq6.s 			page 41


 2281              		.loc 4 365 0
 2282 0006 144B     		ldr	r3, .L194
 2283 0008 1B68     		ldr	r3, [r3]
 2284 000a 0393     		str	r3, [sp, #12]
 2285              		.loc 4 366 0
 2286 000c 019B     		ldr	r3, [sp, #4]
 2287 000e 9B7B     		ldrb	r3, [r3, #14]	@ zero_extendqisi2
 2288 0010 022B     		cmp	r3, #2
 2289 0012 02D0     		beq	.L190
 2290              		.loc 4 366 0 is_stmt 0 discriminator 2
 2291 0014 1148     		ldr	r0, .L194+4
 2292 0016 FFF7FEFF 		bl	chSysHalt
 2293              	.L190:
 2294              		.loc 4 367 0 is_stmt 1
 2295 001a FFF7FEFF 		bl	chSysLock
 2296              		.loc 4 368 0
 2297 001e 019B     		ldr	r3, [sp, #4]
 2298 0020 5B7B     		ldrb	r3, [r3, #13]	@ zero_extendqisi2
 2299 0022 83F00103 		eor	r3, r3, #1
 2300 0026 DBB2     		uxtb	r3, r3
 2301 0028 002B     		cmp	r3, #0
 2302 002a 02D0     		beq	.L191
 2303              		.loc 4 368 0 is_stmt 0 discriminator 2
 2304 002c 0B48     		ldr	r0, .L194+4
 2305 002e FFF7FEFF 		bl	chSysHalt
 2306              	.L191:
 2307              		.loc 4 369 0 is_stmt 1
 2308 0032 019B     		ldr	r3, [sp, #4]
 2309 0034 1B7C     		ldrb	r3, [r3, #16]
 2310 0036 8DF80B30 		strb	r3, [sp, #11]
 2311              		.loc 4 370 0
 2312 003a FFF7FEFF 		bl	chSysUnlock
 2313              		.loc 4 371 0
 2314 003e 9DF80B30 		ldrb	r3, [sp, #11]	@ zero_extendqisi2
 2315              		.loc 4 372 0
 2316 0042 1846     		mov	r0, r3
 2317 0044 044B     		ldr	r3, .L194
 2318 0046 039A     		ldr	r2, [sp, #12]
 2319 0048 1B68     		ldr	r3, [r3]
 2320 004a 9A42     		cmp	r2, r3
 2321 004c 01D0     		beq	.L193
 2322 004e FFF7FEFF 		bl	__stack_chk_fail
 2323              	.L193:
 2324 0052 05B0     		add	sp, sp, #20
 2325              		.cfi_def_cfa_offset 4
 2326              		@ sp needed
 2327 0054 5DF804FB 		ldr	pc, [sp], #4
 2328              	.L195:
 2329              		.align	2
 2330              	.L194:
 2331 0058 00000000 		.word	__stack_chk_guard
 2332 005c 00000000 		.word	__func__.9122
 2333              		.cfi_endproc
 2334              	.LFE278:
 2335              		.size	parameter_boolean_read, .-parameter_boolean_read
 2336              		.section	.text.parameter_vector_declare,"ax",%progbits
 2337              		.align	1
ARM GAS  C:\Users\PCHAUT~1\AppData\Local\Temp\ccxXBCq6.s 			page 42


 2338              		.p2align 4,,15
 2339              		.global	parameter_vector_declare
 2340              		.syntax unified
 2341              		.thumb
 2342              		.thumb_func
 2343              		.fpu fpv4-sp-d16
 2344              		.type	parameter_vector_declare, %function
 2345              	parameter_vector_declare:
 2346              	.LFB279:
 2347              		.loc 4 381 0
 2348              		.cfi_startproc
 2349              		@ args = 4, pretend = 0, frame = 32
 2350              		@ frame_needed = 0, uses_anonymous_args = 0
 2351 0000 00B5     		push	{lr}
 2352              		.cfi_def_cfa_offset 4
 2353              		.cfi_offset 14, -4
 2354 0002 89B0     		sub	sp, sp, #36
 2355              		.cfi_def_cfa_offset 40
 2356 0004 0590     		str	r0, [sp, #20]
 2357 0006 0491     		str	r1, [sp, #16]
 2358 0008 0392     		str	r2, [sp, #12]
 2359 000a 0293     		str	r3, [sp, #8]
 2360 000c BDF82830 		ldrh	r3, [sp, #40]	@ movhi
 2361 0010 ADF80630 		strh	r3, [sp, #6]	@ movhi
 2362              		.loc 4 381 0
 2363 0014 0E4B     		ldr	r3, .L198
 2364 0016 1B68     		ldr	r3, [r3]
 2365 0018 0793     		str	r3, [sp, #28]
 2366              		.loc 4 382 0
 2367 001a 059B     		ldr	r3, [sp, #20]
 2368 001c 0522     		movs	r2, #5
 2369 001e 9A73     		strb	r2, [r3, #14]
 2370              		.loc 4 383 0
 2371 0020 059B     		ldr	r3, [sp, #20]
 2372 0022 029A     		ldr	r2, [sp, #8]
 2373 0024 1A61     		str	r2, [r3, #16]
 2374              		.loc 4 384 0
 2375 0026 059B     		ldr	r3, [sp, #20]
 2376 0028 BDF80620 		ldrh	r2, [sp, #6]	@ movhi
 2377 002c DA82     		strh	r2, [r3, #22]	@ movhi
 2378              		.loc 4 385 0
 2379 002e 039A     		ldr	r2, [sp, #12]
 2380 0030 0499     		ldr	r1, [sp, #16]
 2381 0032 0598     		ldr	r0, [sp, #20]
 2382 0034 FFF7FEFF 		bl	_parameter_declare
 2383              		.loc 4 386 0
 2384 0038 00BF     		nop
 2385 003a 054B     		ldr	r3, .L198
 2386 003c 079A     		ldr	r2, [sp, #28]
 2387 003e 1B68     		ldr	r3, [r3]
 2388 0040 9A42     		cmp	r2, r3
 2389 0042 01D0     		beq	.L197
 2390 0044 FFF7FEFF 		bl	__stack_chk_fail
 2391              	.L197:
 2392 0048 09B0     		add	sp, sp, #36
 2393              		.cfi_def_cfa_offset 4
 2394              		@ sp needed
ARM GAS  C:\Users\PCHAUT~1\AppData\Local\Temp\ccxXBCq6.s 			page 43


 2395 004a 5DF804FB 		ldr	pc, [sp], #4
 2396              	.L199:
 2397 004e 00BF     		.align	2
 2398              	.L198:
 2399 0050 00000000 		.word	__stack_chk_guard
 2400              		.cfi_endproc
 2401              	.LFE279:
 2402              		.size	parameter_vector_declare, .-parameter_vector_declare
 2403              		.section	.text.parameter_vector_declare_with_default,"ax",%progbits
 2404              		.align	1
 2405              		.p2align 4,,15
 2406              		.global	parameter_vector_declare_with_default
 2407              		.syntax unified
 2408              		.thumb
 2409              		.thumb_func
 2410              		.fpu fpv4-sp-d16
 2411              		.type	parameter_vector_declare_with_default, %function
 2412              	parameter_vector_declare_with_default:
 2413              	.LFB280:
 2414              		.loc 4 393 0
 2415              		.cfi_startproc
 2416              		@ args = 4, pretend = 0, frame = 32
 2417              		@ frame_needed = 0, uses_anonymous_args = 0
 2418 0000 00B5     		push	{lr}
 2419              		.cfi_def_cfa_offset 4
 2420              		.cfi_offset 14, -4
 2421 0002 8BB0     		sub	sp, sp, #44
 2422              		.cfi_def_cfa_offset 48
 2423 0004 0790     		str	r0, [sp, #28]
 2424 0006 0691     		str	r1, [sp, #24]
 2425 0008 0592     		str	r2, [sp, #20]
 2426 000a 0493     		str	r3, [sp, #16]
 2427 000c BDF83030 		ldrh	r3, [sp, #48]	@ movhi
 2428 0010 ADF80E30 		strh	r3, [sp, #14]	@ movhi
 2429              		.loc 4 393 0
 2430 0014 0C4B     		ldr	r3, .L202
 2431 0016 1B68     		ldr	r3, [r3]
 2432 0018 0993     		str	r3, [sp, #36]
 2433              		.loc 4 394 0
 2434 001a BDF80E30 		ldrh	r3, [sp, #14]
 2435 001e 0093     		str	r3, [sp]
 2436 0020 049B     		ldr	r3, [sp, #16]
 2437 0022 059A     		ldr	r2, [sp, #20]
 2438 0024 0699     		ldr	r1, [sp, #24]
 2439 0026 0798     		ldr	r0, [sp, #28]
 2440 0028 FFF7FEFF 		bl	parameter_vector_declare
 2441              		.loc 4 395 0
 2442 002c 0798     		ldr	r0, [sp, #28]
 2443 002e FFF7FEFF 		bl	_parameter_changed_set
 2444              		.loc 4 396 0
 2445 0032 00BF     		nop
 2446 0034 044B     		ldr	r3, .L202
 2447 0036 099A     		ldr	r2, [sp, #36]
 2448 0038 1B68     		ldr	r3, [r3]
 2449 003a 9A42     		cmp	r2, r3
 2450 003c 01D0     		beq	.L201
 2451 003e FFF7FEFF 		bl	__stack_chk_fail
ARM GAS  C:\Users\PCHAUT~1\AppData\Local\Temp\ccxXBCq6.s 			page 44


 2452              	.L201:
 2453 0042 0BB0     		add	sp, sp, #44
 2454              		.cfi_def_cfa_offset 4
 2455              		@ sp needed
 2456 0044 5DF804FB 		ldr	pc, [sp], #4
 2457              	.L203:
 2458              		.align	2
 2459              	.L202:
 2460 0048 00000000 		.word	__stack_chk_guard
 2461              		.cfi_endproc
 2462              	.LFE280:
 2463              		.size	parameter_vector_declare_with_default, .-parameter_vector_declare_with_default
 2464              		.section	.text.parameter_vector_dim,"ax",%progbits
 2465              		.align	1
 2466              		.p2align 4,,15
 2467              		.global	parameter_vector_dim
 2468              		.syntax unified
 2469              		.thumb
 2470              		.thumb_func
 2471              		.fpu fpv4-sp-d16
 2472              		.type	parameter_vector_dim, %function
 2473              	parameter_vector_dim:
 2474              	.LFB281:
 2475              		.loc 4 399 0
 2476              		.cfi_startproc
 2477              		@ args = 0, pretend = 0, frame = 16
 2478              		@ frame_needed = 0, uses_anonymous_args = 0
 2479 0000 00B5     		push	{lr}
 2480              		.cfi_def_cfa_offset 4
 2481              		.cfi_offset 14, -4
 2482 0002 85B0     		sub	sp, sp, #20
 2483              		.cfi_def_cfa_offset 24
 2484 0004 0190     		str	r0, [sp, #4]
 2485              		.loc 4 399 0
 2486 0006 0B4B     		ldr	r3, .L208
 2487 0008 1B68     		ldr	r3, [r3]
 2488 000a 0393     		str	r3, [sp, #12]
 2489              		.loc 4 400 0
 2490 000c 019B     		ldr	r3, [sp, #4]
 2491 000e 9B7B     		ldrb	r3, [r3, #14]	@ zero_extendqisi2
 2492 0010 052B     		cmp	r3, #5
 2493 0012 02D0     		beq	.L205
 2494              		.loc 4 400 0 is_stmt 0 discriminator 2
 2495 0014 0848     		ldr	r0, .L208+4
 2496 0016 FFF7FEFF 		bl	chSysHalt
 2497              	.L205:
 2498              		.loc 4 401 0 is_stmt 1
 2499 001a 019B     		ldr	r3, [sp, #4]
 2500 001c DB8A     		ldrh	r3, [r3, #22]
 2501              		.loc 4 402 0
 2502 001e 1846     		mov	r0, r3
 2503 0020 044B     		ldr	r3, .L208
 2504 0022 039A     		ldr	r2, [sp, #12]
 2505 0024 1B68     		ldr	r3, [r3]
 2506 0026 9A42     		cmp	r2, r3
 2507 0028 01D0     		beq	.L207
 2508 002a FFF7FEFF 		bl	__stack_chk_fail
ARM GAS  C:\Users\PCHAUT~1\AppData\Local\Temp\ccxXBCq6.s 			page 45


 2509              	.L207:
 2510 002e 05B0     		add	sp, sp, #20
 2511              		.cfi_def_cfa_offset 4
 2512              		@ sp needed
 2513 0030 5DF804FB 		ldr	pc, [sp], #4
 2514              	.L209:
 2515              		.align	2
 2516              	.L208:
 2517 0034 00000000 		.word	__stack_chk_guard
 2518 0038 00000000 		.word	__func__.9141
 2519              		.cfi_endproc
 2520              	.LFE281:
 2521              		.size	parameter_vector_dim, .-parameter_vector_dim
 2522              		.section	.text.parameter_vector_get,"ax",%progbits
 2523              		.align	1
 2524              		.p2align 4,,15
 2525              		.global	parameter_vector_get
 2526              		.syntax unified
 2527              		.thumb
 2528              		.thumb_func
 2529              		.fpu fpv4-sp-d16
 2530              		.type	parameter_vector_get, %function
 2531              	parameter_vector_get:
 2532              	.LFB282:
 2533              		.loc 4 405 0
 2534              		.cfi_startproc
 2535              		@ args = 0, pretend = 0, frame = 16
 2536              		@ frame_needed = 0, uses_anonymous_args = 0
 2537 0000 00B5     		push	{lr}
 2538              		.cfi_def_cfa_offset 4
 2539              		.cfi_offset 14, -4
 2540 0002 85B0     		sub	sp, sp, #20
 2541              		.cfi_def_cfa_offset 24
 2542 0004 0190     		str	r0, [sp, #4]
 2543 0006 0091     		str	r1, [sp]
 2544              		.loc 4 405 0
 2545 0008 0A4B     		ldr	r3, .L212
 2546 000a 1B68     		ldr	r3, [r3]
 2547 000c 0393     		str	r3, [sp, #12]
 2548              		.loc 4 406 0
 2549 000e 0198     		ldr	r0, [sp, #4]
 2550 0010 FFF7FEFF 		bl	_parameter_changed_clear
 2551              		.loc 4 407 0
 2552 0014 0099     		ldr	r1, [sp]
 2553 0016 0198     		ldr	r0, [sp, #4]
 2554 0018 FFF7FEFF 		bl	parameter_vector_read
 2555              		.loc 4 408 0
 2556 001c 00BF     		nop
 2557 001e 054B     		ldr	r3, .L212
 2558 0020 039A     		ldr	r2, [sp, #12]
 2559 0022 1B68     		ldr	r3, [r3]
 2560 0024 9A42     		cmp	r2, r3
 2561 0026 01D0     		beq	.L211
 2562 0028 FFF7FEFF 		bl	__stack_chk_fail
 2563              	.L211:
 2564 002c 05B0     		add	sp, sp, #20
 2565              		.cfi_def_cfa_offset 4
ARM GAS  C:\Users\PCHAUT~1\AppData\Local\Temp\ccxXBCq6.s 			page 46


 2566              		@ sp needed
 2567 002e 5DF804FB 		ldr	pc, [sp], #4
 2568              	.L213:
 2569 0032 00BF     		.align	2
 2570              	.L212:
 2571 0034 00000000 		.word	__stack_chk_guard
 2572              		.cfi_endproc
 2573              	.LFE282:
 2574              		.size	parameter_vector_get, .-parameter_vector_get
 2575              		.section	.text.parameter_vector_read,"ax",%progbits
 2576              		.align	1
 2577              		.p2align 4,,15
 2578              		.global	parameter_vector_read
 2579              		.syntax unified
 2580              		.thumb
 2581              		.thumb_func
 2582              		.fpu fpv4-sp-d16
 2583              		.type	parameter_vector_read, %function
 2584              	parameter_vector_read:
 2585              	.LFB283:
 2586              		.loc 4 411 0
 2587              		.cfi_startproc
 2588              		@ args = 0, pretend = 0, frame = 16
 2589              		@ frame_needed = 0, uses_anonymous_args = 0
 2590 0000 00B5     		push	{lr}
 2591              		.cfi_def_cfa_offset 4
 2592              		.cfi_offset 14, -4
 2593 0002 85B0     		sub	sp, sp, #20
 2594              		.cfi_def_cfa_offset 24
 2595 0004 0190     		str	r0, [sp, #4]
 2596 0006 0091     		str	r1, [sp]
 2597              		.loc 4 411 0
 2598 0008 1C4B     		ldr	r3, .L220
 2599 000a 1B68     		ldr	r3, [r3]
 2600 000c 0393     		str	r3, [sp, #12]
 2601              		.loc 4 412 0
 2602 000e 019B     		ldr	r3, [sp, #4]
 2603 0010 9B7B     		ldrb	r3, [r3, #14]	@ zero_extendqisi2
 2604 0012 052B     		cmp	r3, #5
 2605 0014 02D0     		beq	.L215
 2606              		.loc 4 412 0 is_stmt 0 discriminator 2
 2607 0016 1A48     		ldr	r0, .L220+4
 2608 0018 FFF7FEFF 		bl	chSysHalt
 2609              	.L215:
 2610              		.loc 4 413 0 is_stmt 1
 2611 001c FFF7FEFF 		bl	chSysLock
 2612              		.loc 4 414 0
 2613 0020 019B     		ldr	r3, [sp, #4]
 2614 0022 5B7B     		ldrb	r3, [r3, #13]	@ zero_extendqisi2
 2615 0024 83F00103 		eor	r3, r3, #1
 2616 0028 DBB2     		uxtb	r3, r3
 2617 002a 002B     		cmp	r3, #0
 2618 002c 02D0     		beq	.L216
 2619              		.loc 4 414 0 is_stmt 0 discriminator 2
 2620 002e 1448     		ldr	r0, .L220+4
 2621 0030 FFF7FEFF 		bl	chSysHalt
 2622              	.L216:
ARM GAS  C:\Users\PCHAUT~1\AppData\Local\Temp\ccxXBCq6.s 			page 47


 2623              		.loc 4 416 0 is_stmt 1
 2624 0034 0023     		movs	r3, #0
 2625 0036 0293     		str	r3, [sp, #8]
 2626 0038 0DE0     		b	.L217
 2627              	.L218:
 2628              		.loc 4 417 0 discriminator 3
 2629 003a 019B     		ldr	r3, [sp, #4]
 2630 003c 1A69     		ldr	r2, [r3, #16]
 2631 003e 029B     		ldr	r3, [sp, #8]
 2632 0040 9B00     		lsls	r3, r3, #2
 2633 0042 1A44     		add	r2, r2, r3
 2634 0044 029B     		ldr	r3, [sp, #8]
 2635 0046 9B00     		lsls	r3, r3, #2
 2636 0048 0099     		ldr	r1, [sp]
 2637 004a 0B44     		add	r3, r3, r1
 2638 004c 1268     		ldr	r2, [r2]	@ float
 2639 004e 1A60     		str	r2, [r3]	@ float
 2640              		.loc 4 416 0 discriminator 3
 2641 0050 029B     		ldr	r3, [sp, #8]
 2642 0052 0133     		adds	r3, r3, #1
 2643 0054 0293     		str	r3, [sp, #8]
 2644              	.L217:
 2645              		.loc 4 416 0 is_stmt 0 discriminator 1
 2646 0056 019B     		ldr	r3, [sp, #4]
 2647 0058 DB8A     		ldrh	r3, [r3, #22]
 2648 005a 1A46     		mov	r2, r3
 2649 005c 029B     		ldr	r3, [sp, #8]
 2650 005e 9342     		cmp	r3, r2
 2651 0060 EBDB     		blt	.L218
 2652              		.loc 4 419 0 is_stmt 1
 2653 0062 FFF7FEFF 		bl	chSysUnlock
 2654              		.loc 4 420 0
 2655 0066 00BF     		nop
 2656 0068 044B     		ldr	r3, .L220
 2657 006a 039A     		ldr	r2, [sp, #12]
 2658 006c 1B68     		ldr	r3, [r3]
 2659 006e 9A42     		cmp	r2, r3
 2660 0070 01D0     		beq	.L219
 2661 0072 FFF7FEFF 		bl	__stack_chk_fail
 2662              	.L219:
 2663 0076 05B0     		add	sp, sp, #20
 2664              		.cfi_def_cfa_offset 4
 2665              		@ sp needed
 2666 0078 5DF804FB 		ldr	pc, [sp], #4
 2667              	.L221:
 2668              		.align	2
 2669              	.L220:
 2670 007c 00000000 		.word	__stack_chk_guard
 2671 0080 00000000 		.word	__func__.9150
 2672              		.cfi_endproc
 2673              	.LFE283:
 2674              		.size	parameter_vector_read, .-parameter_vector_read
 2675              		.section	.text.parameter_vector_set,"ax",%progbits
 2676              		.align	1
 2677              		.p2align 4,,15
 2678              		.global	parameter_vector_set
 2679              		.syntax unified
ARM GAS  C:\Users\PCHAUT~1\AppData\Local\Temp\ccxXBCq6.s 			page 48


 2680              		.thumb
 2681              		.thumb_func
 2682              		.fpu fpv4-sp-d16
 2683              		.type	parameter_vector_set, %function
 2684              	parameter_vector_set:
 2685              	.LFB284:
 2686              		.loc 4 423 0
 2687              		.cfi_startproc
 2688              		@ args = 0, pretend = 0, frame = 16
 2689              		@ frame_needed = 0, uses_anonymous_args = 0
 2690 0000 00B5     		push	{lr}
 2691              		.cfi_def_cfa_offset 4
 2692              		.cfi_offset 14, -4
 2693 0002 85B0     		sub	sp, sp, #20
 2694              		.cfi_def_cfa_offset 24
 2695 0004 0190     		str	r0, [sp, #4]
 2696 0006 0091     		str	r1, [sp]
 2697              		.loc 4 423 0
 2698 0008 194B     		ldr	r3, .L227
 2699 000a 1B68     		ldr	r3, [r3]
 2700 000c 0393     		str	r3, [sp, #12]
 2701              		.loc 4 424 0
 2702 000e 019B     		ldr	r3, [sp, #4]
 2703 0010 9B7B     		ldrb	r3, [r3, #14]	@ zero_extendqisi2
 2704 0012 052B     		cmp	r3, #5
 2705 0014 02D0     		beq	.L223
 2706              		.loc 4 424 0 is_stmt 0 discriminator 2
 2707 0016 1748     		ldr	r0, .L227+4
 2708 0018 FFF7FEFF 		bl	chSysHalt
 2709              	.L223:
 2710              		.loc 4 425 0 is_stmt 1
 2711 001c FFF7FEFF 		bl	chSysLock
 2712              		.loc 4 427 0
 2713 0020 0023     		movs	r3, #0
 2714 0022 0293     		str	r3, [sp, #8]
 2715 0024 0DE0     		b	.L224
 2716              	.L225:
 2717              		.loc 4 428 0 discriminator 3
 2718 0026 029B     		ldr	r3, [sp, #8]
 2719 0028 9B00     		lsls	r3, r3, #2
 2720 002a 009A     		ldr	r2, [sp]
 2721 002c 1A44     		add	r2, r2, r3
 2722 002e 019B     		ldr	r3, [sp, #4]
 2723 0030 1969     		ldr	r1, [r3, #16]
 2724 0032 029B     		ldr	r3, [sp, #8]
 2725 0034 9B00     		lsls	r3, r3, #2
 2726 0036 0B44     		add	r3, r3, r1
 2727 0038 1268     		ldr	r2, [r2]	@ float
 2728 003a 1A60     		str	r2, [r3]	@ float
 2729              		.loc 4 427 0 discriminator 3
 2730 003c 029B     		ldr	r3, [sp, #8]
 2731 003e 0133     		adds	r3, r3, #1
 2732 0040 0293     		str	r3, [sp, #8]
 2733              	.L224:
 2734              		.loc 4 427 0 is_stmt 0 discriminator 1
 2735 0042 019B     		ldr	r3, [sp, #4]
 2736 0044 DB8A     		ldrh	r3, [r3, #22]
ARM GAS  C:\Users\PCHAUT~1\AppData\Local\Temp\ccxXBCq6.s 			page 49


 2737 0046 1A46     		mov	r2, r3
 2738 0048 029B     		ldr	r3, [sp, #8]
 2739 004a 9342     		cmp	r3, r2
 2740 004c EBDB     		blt	.L225
 2741              		.loc 4 430 0 is_stmt 1
 2742 004e FFF7FEFF 		bl	chSysUnlock
 2743              		.loc 4 431 0
 2744 0052 0198     		ldr	r0, [sp, #4]
 2745 0054 FFF7FEFF 		bl	_parameter_changed_set
 2746              		.loc 4 432 0
 2747 0058 00BF     		nop
 2748 005a 054B     		ldr	r3, .L227
 2749 005c 039A     		ldr	r2, [sp, #12]
 2750 005e 1B68     		ldr	r3, [r3]
 2751 0060 9A42     		cmp	r2, r3
 2752 0062 01D0     		beq	.L226
 2753 0064 FFF7FEFF 		bl	__stack_chk_fail
 2754              	.L226:
 2755 0068 05B0     		add	sp, sp, #20
 2756              		.cfi_def_cfa_offset 4
 2757              		@ sp needed
 2758 006a 5DF804FB 		ldr	pc, [sp], #4
 2759              	.L228:
 2760 006e 00BF     		.align	2
 2761              	.L227:
 2762 0070 00000000 		.word	__stack_chk_guard
 2763 0074 00000000 		.word	__func__.9159
 2764              		.cfi_endproc
 2765              	.LFE284:
 2766              		.size	parameter_vector_set, .-parameter_vector_set
 2767              		.section	.text.parameter_variable_vector_declare,"ax",%progbits
 2768              		.align	1
 2769              		.p2align 4,,15
 2770              		.global	parameter_variable_vector_declare
 2771              		.syntax unified
 2772              		.thumb
 2773              		.thumb_func
 2774              		.fpu fpv4-sp-d16
 2775              		.type	parameter_variable_vector_declare, %function
 2776              	parameter_variable_vector_declare:
 2777              	.LFB285:
 2778              		.loc 4 444 0
 2779              		.cfi_startproc
 2780              		@ args = 4, pretend = 0, frame = 32
 2781              		@ frame_needed = 0, uses_anonymous_args = 0
 2782 0000 00B5     		push	{lr}
 2783              		.cfi_def_cfa_offset 4
 2784              		.cfi_offset 14, -4
 2785 0002 89B0     		sub	sp, sp, #36
 2786              		.cfi_def_cfa_offset 40
 2787 0004 0590     		str	r0, [sp, #20]
 2788 0006 0491     		str	r1, [sp, #16]
 2789 0008 0392     		str	r2, [sp, #12]
 2790 000a 0293     		str	r3, [sp, #8]
 2791 000c BDF82830 		ldrh	r3, [sp, #40]	@ movhi
 2792 0010 ADF80630 		strh	r3, [sp, #6]	@ movhi
 2793              		.loc 4 444 0
ARM GAS  C:\Users\PCHAUT~1\AppData\Local\Temp\ccxXBCq6.s 			page 50


 2794 0014 0E4B     		ldr	r3, .L231
 2795 0016 1B68     		ldr	r3, [r3]
 2796 0018 0793     		str	r3, [sp, #28]
 2797              		.loc 4 445 0
 2798 001a 059B     		ldr	r3, [sp, #20]
 2799 001c 0622     		movs	r2, #6
 2800 001e 9A73     		strb	r2, [r3, #14]
 2801              		.loc 4 446 0
 2802 0020 059B     		ldr	r3, [sp, #20]
 2803 0022 029A     		ldr	r2, [sp, #8]
 2804 0024 1A61     		str	r2, [r3, #16]
 2805              		.loc 4 447 0
 2806 0026 059B     		ldr	r3, [sp, #20]
 2807 0028 BDF80620 		ldrh	r2, [sp, #6]	@ movhi
 2808 002c 9A82     		strh	r2, [r3, #20]	@ movhi
 2809              		.loc 4 448 0
 2810 002e 039A     		ldr	r2, [sp, #12]
 2811 0030 0499     		ldr	r1, [sp, #16]
 2812 0032 0598     		ldr	r0, [sp, #20]
 2813 0034 FFF7FEFF 		bl	_parameter_declare
 2814              		.loc 4 449 0
 2815 0038 00BF     		nop
 2816 003a 054B     		ldr	r3, .L231
 2817 003c 079A     		ldr	r2, [sp, #28]
 2818 003e 1B68     		ldr	r3, [r3]
 2819 0040 9A42     		cmp	r2, r3
 2820 0042 01D0     		beq	.L230
 2821 0044 FFF7FEFF 		bl	__stack_chk_fail
 2822              	.L230:
 2823 0048 09B0     		add	sp, sp, #36
 2824              		.cfi_def_cfa_offset 4
 2825              		@ sp needed
 2826 004a 5DF804FB 		ldr	pc, [sp], #4
 2827              	.L232:
 2828 004e 00BF     		.align	2
 2829              	.L231:
 2830 0050 00000000 		.word	__stack_chk_guard
 2831              		.cfi_endproc
 2832              	.LFE285:
 2833              		.size	parameter_variable_vector_declare, .-parameter_variable_vector_declare
 2834              		.section	.text.parameter_variable_vector_declare_with_default,"ax",%progbits
 2835              		.align	1
 2836              		.p2align 4,,15
 2837              		.global	parameter_variable_vector_declare_with_default
 2838              		.syntax unified
 2839              		.thumb
 2840              		.thumb_func
 2841              		.fpu fpv4-sp-d16
 2842              		.type	parameter_variable_vector_declare_with_default, %function
 2843              	parameter_variable_vector_declare_with_default:
 2844              	.LFB286:
 2845              		.loc 4 457 0
 2846              		.cfi_startproc
 2847              		@ args = 8, pretend = 0, frame = 32
 2848              		@ frame_needed = 0, uses_anonymous_args = 0
 2849 0000 00B5     		push	{lr}
 2850              		.cfi_def_cfa_offset 4
ARM GAS  C:\Users\PCHAUT~1\AppData\Local\Temp\ccxXBCq6.s 			page 51


 2851              		.cfi_offset 14, -4
 2852 0002 8BB0     		sub	sp, sp, #44
 2853              		.cfi_def_cfa_offset 48
 2854 0004 0790     		str	r0, [sp, #28]
 2855 0006 0691     		str	r1, [sp, #24]
 2856 0008 0592     		str	r2, [sp, #20]
 2857 000a 0493     		str	r3, [sp, #16]
 2858 000c BDF83030 		ldrh	r3, [sp, #48]	@ movhi
 2859 0010 ADF80E30 		strh	r3, [sp, #14]	@ movhi
 2860 0014 BDF83430 		ldrh	r3, [sp, #52]	@ movhi
 2861 0018 ADF80C30 		strh	r3, [sp, #12]	@ movhi
 2862              		.loc 4 457 0
 2863 001c 134B     		ldr	r3, .L236
 2864 001e 1B68     		ldr	r3, [r3]
 2865 0020 0993     		str	r3, [sp, #36]
 2866              		.loc 4 458 0
 2867 0022 BDF80E30 		ldrh	r3, [sp, #14]
 2868 0026 0093     		str	r3, [sp]
 2869 0028 049B     		ldr	r3, [sp, #16]
 2870 002a 059A     		ldr	r2, [sp, #20]
 2871 002c 0699     		ldr	r1, [sp, #24]
 2872 002e 0798     		ldr	r0, [sp, #28]
 2873 0030 FFF7FEFF 		bl	parameter_variable_vector_declare
 2874              		.loc 4 459 0
 2875 0034 BDF80C20 		ldrh	r2, [sp, #12]
 2876 0038 BDF80E30 		ldrh	r3, [sp, #14]
 2877 003c 9A42     		cmp	r2, r3
 2878 003e 02D9     		bls	.L234
 2879              		.loc 4 459 0 is_stmt 0 discriminator 2
 2880 0040 0B48     		ldr	r0, .L236+4
 2881 0042 FFF7FEFF 		bl	chSysHalt
 2882              	.L234:
 2883              		.loc 4 460 0 is_stmt 1
 2884 0046 079B     		ldr	r3, [sp, #28]
 2885 0048 BDF80C20 		ldrh	r2, [sp, #12]	@ movhi
 2886 004c DA82     		strh	r2, [r3, #22]	@ movhi
 2887              		.loc 4 461 0
 2888 004e 0798     		ldr	r0, [sp, #28]
 2889 0050 FFF7FEFF 		bl	_parameter_changed_set
 2890              		.loc 4 462 0
 2891 0054 00BF     		nop
 2892 0056 054B     		ldr	r3, .L236
 2893 0058 099A     		ldr	r2, [sp, #36]
 2894 005a 1B68     		ldr	r3, [r3]
 2895 005c 9A42     		cmp	r2, r3
 2896 005e 01D0     		beq	.L235
 2897 0060 FFF7FEFF 		bl	__stack_chk_fail
 2898              	.L235:
 2899 0064 0BB0     		add	sp, sp, #44
 2900              		.cfi_def_cfa_offset 4
 2901              		@ sp needed
 2902 0066 5DF804FB 		ldr	pc, [sp], #4
 2903              	.L237:
 2904 006a 00BF     		.align	2
 2905              	.L236:
 2906 006c 00000000 		.word	__stack_chk_guard
 2907 0070 00000000 		.word	__func__.9179
ARM GAS  C:\Users\PCHAUT~1\AppData\Local\Temp\ccxXBCq6.s 			page 52


 2908              		.cfi_endproc
 2909              	.LFE286:
 2910              		.size	parameter_variable_vector_declare_with_default, .-parameter_variable_vector_declare_with_def
 2911              		.section	.text.parameter_variable_vector_max_dim,"ax",%progbits
 2912              		.align	1
 2913              		.p2align 4,,15
 2914              		.global	parameter_variable_vector_max_dim
 2915              		.syntax unified
 2916              		.thumb
 2917              		.thumb_func
 2918              		.fpu fpv4-sp-d16
 2919              		.type	parameter_variable_vector_max_dim, %function
 2920              	parameter_variable_vector_max_dim:
 2921              	.LFB287:
 2922              		.loc 4 465 0
 2923              		.cfi_startproc
 2924              		@ args = 0, pretend = 0, frame = 16
 2925              		@ frame_needed = 0, uses_anonymous_args = 0
 2926 0000 00B5     		push	{lr}
 2927              		.cfi_def_cfa_offset 4
 2928              		.cfi_offset 14, -4
 2929 0002 85B0     		sub	sp, sp, #20
 2930              		.cfi_def_cfa_offset 24
 2931 0004 0190     		str	r0, [sp, #4]
 2932              		.loc 4 465 0
 2933 0006 0B4B     		ldr	r3, .L242
 2934 0008 1B68     		ldr	r3, [r3]
 2935 000a 0393     		str	r3, [sp, #12]
 2936              		.loc 4 466 0
 2937 000c 019B     		ldr	r3, [sp, #4]
 2938 000e 9B7B     		ldrb	r3, [r3, #14]	@ zero_extendqisi2
 2939 0010 062B     		cmp	r3, #6
 2940 0012 02D0     		beq	.L239
 2941              		.loc 4 466 0 is_stmt 0 discriminator 2
 2942 0014 0848     		ldr	r0, .L242+4
 2943 0016 FFF7FEFF 		bl	chSysHalt
 2944              	.L239:
 2945              		.loc 4 467 0 is_stmt 1
 2946 001a 019B     		ldr	r3, [sp, #4]
 2947 001c 9B8A     		ldrh	r3, [r3, #20]
 2948              		.loc 4 468 0
 2949 001e 1846     		mov	r0, r3
 2950 0020 044B     		ldr	r3, .L242
 2951 0022 039A     		ldr	r2, [sp, #12]
 2952 0024 1B68     		ldr	r3, [r3]
 2953 0026 9A42     		cmp	r2, r3
 2954 0028 01D0     		beq	.L241
 2955 002a FFF7FEFF 		bl	__stack_chk_fail
 2956              	.L241:
 2957 002e 05B0     		add	sp, sp, #20
 2958              		.cfi_def_cfa_offset 4
 2959              		@ sp needed
 2960 0030 5DF804FB 		ldr	pc, [sp], #4
 2961              	.L243:
 2962              		.align	2
 2963              	.L242:
 2964 0034 00000000 		.word	__stack_chk_guard
ARM GAS  C:\Users\PCHAUT~1\AppData\Local\Temp\ccxXBCq6.s 			page 53


 2965 0038 00000000 		.word	__func__.9183
 2966              		.cfi_endproc
 2967              	.LFE287:
 2968              		.size	parameter_variable_vector_max_dim, .-parameter_variable_vector_max_dim
 2969              		.section	.text.parameter_variable_vector_get,"ax",%progbits
 2970              		.align	1
 2971              		.p2align 4,,15
 2972              		.global	parameter_variable_vector_get
 2973              		.syntax unified
 2974              		.thumb
 2975              		.thumb_func
 2976              		.fpu fpv4-sp-d16
 2977              		.type	parameter_variable_vector_get, %function
 2978              	parameter_variable_vector_get:
 2979              	.LFB288:
 2980              		.loc 4 471 0
 2981              		.cfi_startproc
 2982              		@ args = 0, pretend = 0, frame = 16
 2983              		@ frame_needed = 0, uses_anonymous_args = 0
 2984 0000 00B5     		push	{lr}
 2985              		.cfi_def_cfa_offset 4
 2986              		.cfi_offset 14, -4
 2987 0002 85B0     		sub	sp, sp, #20
 2988              		.cfi_def_cfa_offset 24
 2989 0004 0190     		str	r0, [sp, #4]
 2990 0006 0091     		str	r1, [sp]
 2991              		.loc 4 471 0
 2992 0008 0A4B     		ldr	r3, .L247
 2993 000a 1B68     		ldr	r3, [r3]
 2994 000c 0393     		str	r3, [sp, #12]
 2995              		.loc 4 472 0
 2996 000e 0198     		ldr	r0, [sp, #4]
 2997 0010 FFF7FEFF 		bl	_parameter_changed_clear
 2998              		.loc 4 473 0
 2999 0014 0099     		ldr	r1, [sp]
 3000 0016 0198     		ldr	r0, [sp, #4]
 3001 0018 FFF7FEFF 		bl	parameter_variable_vector_read
 3002 001c 0346     		mov	r3, r0
 3003              		.loc 4 474 0
 3004 001e 1846     		mov	r0, r3
 3005 0020 044B     		ldr	r3, .L247
 3006 0022 039A     		ldr	r2, [sp, #12]
 3007 0024 1B68     		ldr	r3, [r3]
 3008 0026 9A42     		cmp	r2, r3
 3009 0028 01D0     		beq	.L246
 3010 002a FFF7FEFF 		bl	__stack_chk_fail
 3011              	.L246:
 3012 002e 05B0     		add	sp, sp, #20
 3013              		.cfi_def_cfa_offset 4
 3014              		@ sp needed
 3015 0030 5DF804FB 		ldr	pc, [sp], #4
 3016              	.L248:
 3017              		.align	2
 3018              	.L247:
 3019 0034 00000000 		.word	__stack_chk_guard
 3020              		.cfi_endproc
 3021              	.LFE288:
ARM GAS  C:\Users\PCHAUT~1\AppData\Local\Temp\ccxXBCq6.s 			page 54


 3022              		.size	parameter_variable_vector_get, .-parameter_variable_vector_get
 3023              		.section	.text.parameter_variable_vector_read,"ax",%progbits
 3024              		.align	1
 3025              		.p2align 4,,15
 3026              		.global	parameter_variable_vector_read
 3027              		.syntax unified
 3028              		.thumb
 3029              		.thumb_func
 3030              		.fpu fpv4-sp-d16
 3031              		.type	parameter_variable_vector_read, %function
 3032              	parameter_variable_vector_read:
 3033              	.LFB289:
 3034              		.loc 4 477 0
 3035              		.cfi_startproc
 3036              		@ args = 0, pretend = 0, frame = 24
 3037              		@ frame_needed = 0, uses_anonymous_args = 0
 3038 0000 00B5     		push	{lr}
 3039              		.cfi_def_cfa_offset 4
 3040              		.cfi_offset 14, -4
 3041 0002 87B0     		sub	sp, sp, #28
 3042              		.cfi_def_cfa_offset 32
 3043 0004 0190     		str	r0, [sp, #4]
 3044 0006 0091     		str	r1, [sp]
 3045              		.loc 4 477 0
 3046 0008 1F4B     		ldr	r3, .L256
 3047 000a 1B68     		ldr	r3, [r3]
 3048 000c 0593     		str	r3, [sp, #20]
 3049              		.loc 4 478 0
 3050 000e 019B     		ldr	r3, [sp, #4]
 3051 0010 9B7B     		ldrb	r3, [r3, #14]	@ zero_extendqisi2
 3052 0012 062B     		cmp	r3, #6
 3053 0014 02D0     		beq	.L250
 3054              		.loc 4 478 0 is_stmt 0 discriminator 2
 3055 0016 1D48     		ldr	r0, .L256+4
 3056 0018 FFF7FEFF 		bl	chSysHalt
 3057              	.L250:
 3058              		.loc 4 479 0 is_stmt 1
 3059 001c FFF7FEFF 		bl	chSysLock
 3060              		.loc 4 480 0
 3061 0020 019B     		ldr	r3, [sp, #4]
 3062 0022 5B7B     		ldrb	r3, [r3, #13]	@ zero_extendqisi2
 3063 0024 83F00103 		eor	r3, r3, #1
 3064 0028 DBB2     		uxtb	r3, r3
 3065 002a 002B     		cmp	r3, #0
 3066 002c 02D0     		beq	.L251
 3067              		.loc 4 480 0 is_stmt 0 discriminator 2
 3068 002e 1748     		ldr	r0, .L256+4
 3069 0030 FFF7FEFF 		bl	chSysHalt
 3070              	.L251:
 3071              		.loc 4 482 0 is_stmt 1
 3072 0034 0023     		movs	r3, #0
 3073 0036 0493     		str	r3, [sp, #16]
 3074 0038 0DE0     		b	.L252
 3075              	.L253:
 3076              		.loc 4 483 0 discriminator 3
 3077 003a 019B     		ldr	r3, [sp, #4]
 3078 003c 1A69     		ldr	r2, [r3, #16]
ARM GAS  C:\Users\PCHAUT~1\AppData\Local\Temp\ccxXBCq6.s 			page 55


 3079 003e 049B     		ldr	r3, [sp, #16]
 3080 0040 9B00     		lsls	r3, r3, #2
 3081 0042 1A44     		add	r2, r2, r3
 3082 0044 049B     		ldr	r3, [sp, #16]
 3083 0046 9B00     		lsls	r3, r3, #2
 3084 0048 0099     		ldr	r1, [sp]
 3085 004a 0B44     		add	r3, r3, r1
 3086 004c 1268     		ldr	r2, [r2]	@ float
 3087 004e 1A60     		str	r2, [r3]	@ float
 3088              		.loc 4 482 0 discriminator 3
 3089 0050 049B     		ldr	r3, [sp, #16]
 3090 0052 0133     		adds	r3, r3, #1
 3091 0054 0493     		str	r3, [sp, #16]
 3092              	.L252:
 3093              		.loc 4 482 0 is_stmt 0 discriminator 1
 3094 0056 019B     		ldr	r3, [sp, #4]
 3095 0058 DB8A     		ldrh	r3, [r3, #22]
 3096 005a 1A46     		mov	r2, r3
 3097 005c 049B     		ldr	r3, [sp, #16]
 3098 005e 9342     		cmp	r3, r2
 3099 0060 EBDB     		blt	.L253
 3100              		.loc 4 485 0 is_stmt 1
 3101 0062 019B     		ldr	r3, [sp, #4]
 3102 0064 DB8A     		ldrh	r3, [r3, #22]	@ movhi
 3103 0066 ADF80E30 		strh	r3, [sp, #14]	@ movhi
 3104              		.loc 4 486 0
 3105 006a FFF7FEFF 		bl	chSysUnlock
 3106              		.loc 4 487 0
 3107 006e BDF80E30 		ldrh	r3, [sp, #14]
 3108              		.loc 4 488 0
 3109 0072 1846     		mov	r0, r3
 3110 0074 044B     		ldr	r3, .L256
 3111 0076 059A     		ldr	r2, [sp, #20]
 3112 0078 1B68     		ldr	r3, [r3]
 3113 007a 9A42     		cmp	r2, r3
 3114 007c 01D0     		beq	.L255
 3115 007e FFF7FEFF 		bl	__stack_chk_fail
 3116              	.L255:
 3117 0082 07B0     		add	sp, sp, #28
 3118              		.cfi_def_cfa_offset 4
 3119              		@ sp needed
 3120 0084 5DF804FB 		ldr	pc, [sp], #4
 3121              	.L257:
 3122              		.align	2
 3123              	.L256:
 3124 0088 00000000 		.word	__stack_chk_guard
 3125 008c 00000000 		.word	__func__.9192
 3126              		.cfi_endproc
 3127              	.LFE289:
 3128              		.size	parameter_variable_vector_read, .-parameter_variable_vector_read
 3129              		.section	.text.parameter_variable_vector_set,"ax",%progbits
 3130              		.align	1
 3131              		.p2align 4,,15
 3132              		.global	parameter_variable_vector_set
 3133              		.syntax unified
 3134              		.thumb
 3135              		.thumb_func
ARM GAS  C:\Users\PCHAUT~1\AppData\Local\Temp\ccxXBCq6.s 			page 56


 3136              		.fpu fpv4-sp-d16
 3137              		.type	parameter_variable_vector_set, %function
 3138              	parameter_variable_vector_set:
 3139              	.LFB290:
 3140              		.loc 4 491 0
 3141              		.cfi_startproc
 3142              		@ args = 0, pretend = 0, frame = 24
 3143              		@ frame_needed = 0, uses_anonymous_args = 0
 3144 0000 00B5     		push	{lr}
 3145              		.cfi_def_cfa_offset 4
 3146              		.cfi_offset 14, -4
 3147 0002 87B0     		sub	sp, sp, #28
 3148              		.cfi_def_cfa_offset 32
 3149 0004 0390     		str	r0, [sp, #12]
 3150 0006 0291     		str	r1, [sp, #8]
 3151 0008 1346     		mov	r3, r2
 3152 000a ADF80630 		strh	r3, [sp, #6]	@ movhi
 3153              		.loc 4 491 0
 3154 000e 1F4B     		ldr	r3, .L264
 3155 0010 1B68     		ldr	r3, [r3]
 3156 0012 0593     		str	r3, [sp, #20]
 3157              		.loc 4 492 0
 3158 0014 039B     		ldr	r3, [sp, #12]
 3159 0016 9B7B     		ldrb	r3, [r3, #14]	@ zero_extendqisi2
 3160 0018 062B     		cmp	r3, #6
 3161 001a 02D0     		beq	.L259
 3162              		.loc 4 492 0 is_stmt 0 discriminator 2
 3163 001c 1C48     		ldr	r0, .L264+4
 3164 001e FFF7FEFF 		bl	chSysHalt
 3165              	.L259:
 3166              		.loc 4 493 0 is_stmt 1
 3167 0022 FFF7FEFF 		bl	chSysLock
 3168              		.loc 4 494 0
 3169 0026 039B     		ldr	r3, [sp, #12]
 3170 0028 9B8A     		ldrh	r3, [r3, #20]
 3171 002a BDF80620 		ldrh	r2, [sp, #6]
 3172 002e 9A42     		cmp	r2, r3
 3173 0030 02D9     		bls	.L260
 3174              		.loc 4 494 0 is_stmt 0 discriminator 2
 3175 0032 1748     		ldr	r0, .L264+4
 3176 0034 FFF7FEFF 		bl	chSysHalt
 3177              	.L260:
 3178              		.loc 4 496 0 is_stmt 1
 3179 0038 0023     		movs	r3, #0
 3180 003a 0493     		str	r3, [sp, #16]
 3181 003c 0DE0     		b	.L261
 3182              	.L262:
 3183              		.loc 4 497 0 discriminator 3
 3184 003e 049B     		ldr	r3, [sp, #16]
 3185 0040 9B00     		lsls	r3, r3, #2
 3186 0042 029A     		ldr	r2, [sp, #8]
 3187 0044 1A44     		add	r2, r2, r3
 3188 0046 039B     		ldr	r3, [sp, #12]
 3189 0048 1969     		ldr	r1, [r3, #16]
 3190 004a 049B     		ldr	r3, [sp, #16]
 3191 004c 9B00     		lsls	r3, r3, #2
 3192 004e 0B44     		add	r3, r3, r1
ARM GAS  C:\Users\PCHAUT~1\AppData\Local\Temp\ccxXBCq6.s 			page 57


 3193 0050 1268     		ldr	r2, [r2]	@ float
 3194 0052 1A60     		str	r2, [r3]	@ float
 3195              		.loc 4 496 0 discriminator 3
 3196 0054 049B     		ldr	r3, [sp, #16]
 3197 0056 0133     		adds	r3, r3, #1
 3198 0058 0493     		str	r3, [sp, #16]
 3199              	.L261:
 3200              		.loc 4 496 0 is_stmt 0 discriminator 1
 3201 005a BDF80630 		ldrh	r3, [sp, #6]
 3202 005e 049A     		ldr	r2, [sp, #16]
 3203 0060 9A42     		cmp	r2, r3
 3204 0062 ECDB     		blt	.L262
 3205              		.loc 4 499 0 is_stmt 1
 3206 0064 039B     		ldr	r3, [sp, #12]
 3207 0066 BDF80620 		ldrh	r2, [sp, #6]	@ movhi
 3208 006a DA82     		strh	r2, [r3, #22]	@ movhi
 3209              		.loc 4 500 0
 3210 006c FFF7FEFF 		bl	chSysUnlock
 3211              		.loc 4 501 0
 3212 0070 0398     		ldr	r0, [sp, #12]
 3213 0072 FFF7FEFF 		bl	_parameter_changed_set
 3214              		.loc 4 502 0
 3215 0076 00BF     		nop
 3216 0078 044B     		ldr	r3, .L264
 3217 007a 059A     		ldr	r2, [sp, #20]
 3218 007c 1B68     		ldr	r3, [r3]
 3219 007e 9A42     		cmp	r2, r3
 3220 0080 01D0     		beq	.L263
 3221 0082 FFF7FEFF 		bl	__stack_chk_fail
 3222              	.L263:
 3223 0086 07B0     		add	sp, sp, #28
 3224              		.cfi_def_cfa_offset 4
 3225              		@ sp needed
 3226 0088 5DF804FB 		ldr	pc, [sp], #4
 3227              	.L265:
 3228              		.align	2
 3229              	.L264:
 3230 008c 00000000 		.word	__stack_chk_guard
 3231 0090 00000000 		.word	__func__.9203
 3232              		.cfi_endproc
 3233              	.LFE290:
 3234              		.size	parameter_variable_vector_set, .-parameter_variable_vector_set
 3235              		.section	.text.parameter_string_declare,"ax",%progbits
 3236              		.align	1
 3237              		.p2align 4,,15
 3238              		.global	parameter_string_declare
 3239              		.syntax unified
 3240              		.thumb
 3241              		.thumb_func
 3242              		.fpu fpv4-sp-d16
 3243              		.type	parameter_string_declare, %function
 3244              	parameter_string_declare:
 3245              	.LFB291:
 3246              		.loc 4 514 0
 3247              		.cfi_startproc
 3248              		@ args = 4, pretend = 0, frame = 32
 3249              		@ frame_needed = 0, uses_anonymous_args = 0
ARM GAS  C:\Users\PCHAUT~1\AppData\Local\Temp\ccxXBCq6.s 			page 58


 3250 0000 00B5     		push	{lr}
 3251              		.cfi_def_cfa_offset 4
 3252              		.cfi_offset 14, -4
 3253 0002 89B0     		sub	sp, sp, #36
 3254              		.cfi_def_cfa_offset 40
 3255 0004 0590     		str	r0, [sp, #20]
 3256 0006 0491     		str	r1, [sp, #16]
 3257 0008 0392     		str	r2, [sp, #12]
 3258 000a 0293     		str	r3, [sp, #8]
 3259 000c BDF82830 		ldrh	r3, [sp, #40]	@ movhi
 3260 0010 ADF80630 		strh	r3, [sp, #6]	@ movhi
 3261              		.loc 4 514 0
 3262 0014 0E4B     		ldr	r3, .L268
 3263 0016 1B68     		ldr	r3, [r3]
 3264 0018 0793     		str	r3, [sp, #28]
 3265              		.loc 4 515 0
 3266 001a 059B     		ldr	r3, [sp, #20]
 3267 001c 0422     		movs	r2, #4
 3268 001e 9A73     		strb	r2, [r3, #14]
 3269              		.loc 4 516 0
 3270 0020 059B     		ldr	r3, [sp, #20]
 3271 0022 029A     		ldr	r2, [sp, #8]
 3272 0024 1A61     		str	r2, [r3, #16]
 3273              		.loc 4 517 0
 3274 0026 059B     		ldr	r3, [sp, #20]
 3275 0028 BDF80620 		ldrh	r2, [sp, #6]	@ movhi
 3276 002c 9A82     		strh	r2, [r3, #20]	@ movhi
 3277              		.loc 4 518 0
 3278 002e 039A     		ldr	r2, [sp, #12]
 3279 0030 0499     		ldr	r1, [sp, #16]
 3280 0032 0598     		ldr	r0, [sp, #20]
 3281 0034 FFF7FEFF 		bl	_parameter_declare
 3282              		.loc 4 519 0
 3283 0038 00BF     		nop
 3284 003a 054B     		ldr	r3, .L268
 3285 003c 079A     		ldr	r2, [sp, #28]
 3286 003e 1B68     		ldr	r3, [r3]
 3287 0040 9A42     		cmp	r2, r3
 3288 0042 01D0     		beq	.L267
 3289 0044 FFF7FEFF 		bl	__stack_chk_fail
 3290              	.L267:
 3291 0048 09B0     		add	sp, sp, #36
 3292              		.cfi_def_cfa_offset 4
 3293              		@ sp needed
 3294 004a 5DF804FB 		ldr	pc, [sp], #4
 3295              	.L269:
 3296 004e 00BF     		.align	2
 3297              	.L268:
 3298 0050 00000000 		.word	__stack_chk_guard
 3299              		.cfi_endproc
 3300              	.LFE291:
 3301              		.size	parameter_string_declare, .-parameter_string_declare
 3302              		.section	.text.parameter_string_declare_with_default,"ax",%progbits
 3303              		.align	1
 3304              		.p2align 4,,15
 3305              		.global	parameter_string_declare_with_default
 3306              		.syntax unified
ARM GAS  C:\Users\PCHAUT~1\AppData\Local\Temp\ccxXBCq6.s 			page 59


 3307              		.thumb
 3308              		.thumb_func
 3309              		.fpu fpv4-sp-d16
 3310              		.type	parameter_string_declare_with_default, %function
 3311              	parameter_string_declare_with_default:
 3312              	.LFB292:
 3313              		.loc 4 527 0
 3314              		.cfi_startproc
 3315              		@ args = 8, pretend = 0, frame = 32
 3316              		@ frame_needed = 0, uses_anonymous_args = 0
 3317 0000 00B5     		push	{lr}
 3318              		.cfi_def_cfa_offset 4
 3319              		.cfi_offset 14, -4
 3320 0002 8BB0     		sub	sp, sp, #44
 3321              		.cfi_def_cfa_offset 48
 3322 0004 0790     		str	r0, [sp, #28]
 3323 0006 0691     		str	r1, [sp, #24]
 3324 0008 0592     		str	r2, [sp, #20]
 3325 000a 0493     		str	r3, [sp, #16]
 3326 000c BDF83030 		ldrh	r3, [sp, #48]	@ movhi
 3327 0010 ADF80E30 		strh	r3, [sp, #14]	@ movhi
 3328 0014 0D9B     		ldr	r3, [sp, #52]
 3329 0016 0293     		str	r3, [sp, #8]
 3330              		.loc 4 527 0
 3331 0018 184B     		ldr	r3, .L273
 3332 001a 1B68     		ldr	r3, [r3]
 3333 001c 0993     		str	r3, [sp, #36]
 3334              		.loc 4 528 0
 3335 001e BDF80E30 		ldrh	r3, [sp, #14]
 3336 0022 0093     		str	r3, [sp]
 3337 0024 049B     		ldr	r3, [sp, #16]
 3338 0026 059A     		ldr	r2, [sp, #20]
 3339 0028 0699     		ldr	r1, [sp, #24]
 3340 002a 0798     		ldr	r0, [sp, #28]
 3341 002c FFF7FEFF 		bl	parameter_string_declare
 3342              		.loc 4 529 0
 3343 0030 0298     		ldr	r0, [sp, #8]
 3344 0032 FFF7FEFF 		bl	strlen
 3345 0036 0346     		mov	r3, r0
 3346 0038 9AB2     		uxth	r2, r3
 3347 003a 079B     		ldr	r3, [sp, #28]
 3348 003c DA82     		strh	r2, [r3, #22]	@ movhi
 3349              		.loc 4 530 0
 3350 003e 079B     		ldr	r3, [sp, #28]
 3351 0040 DB8A     		ldrh	r3, [r3, #22]
 3352 0042 BDF80E20 		ldrh	r2, [sp, #14]
 3353 0046 9A42     		cmp	r2, r3
 3354 0048 02D2     		bcs	.L271
 3355              		.loc 4 530 0 is_stmt 0 discriminator 2
 3356 004a 0D48     		ldr	r0, .L273+4
 3357 004c FFF7FEFF 		bl	chSysHalt
 3358              	.L271:
 3359              		.loc 4 531 0 is_stmt 1
 3360 0050 079B     		ldr	r3, [sp, #28]
 3361 0052 1B69     		ldr	r3, [r3, #16]
 3362 0054 BDF80E20 		ldrh	r2, [sp, #14]
 3363 0058 0299     		ldr	r1, [sp, #8]
ARM GAS  C:\Users\PCHAUT~1\AppData\Local\Temp\ccxXBCq6.s 			page 60


 3364 005a 1846     		mov	r0, r3
 3365 005c FFF7FEFF 		bl	strncpy
 3366              		.loc 4 532 0
 3367 0060 0798     		ldr	r0, [sp, #28]
 3368 0062 FFF7FEFF 		bl	_parameter_changed_set
 3369              		.loc 4 533 0
 3370 0066 00BF     		nop
 3371 0068 044B     		ldr	r3, .L273
 3372 006a 099A     		ldr	r2, [sp, #36]
 3373 006c 1B68     		ldr	r3, [r3]
 3374 006e 9A42     		cmp	r2, r3
 3375 0070 01D0     		beq	.L272
 3376 0072 FFF7FEFF 		bl	__stack_chk_fail
 3377              	.L272:
 3378 0076 0BB0     		add	sp, sp, #44
 3379              		.cfi_def_cfa_offset 4
 3380              		@ sp needed
 3381 0078 5DF804FB 		ldr	pc, [sp], #4
 3382              	.L274:
 3383              		.align	2
 3384              	.L273:
 3385 007c 00000000 		.word	__stack_chk_guard
 3386 0080 00000000 		.word	__func__.9223
 3387              		.cfi_endproc
 3388              	.LFE292:
 3389              		.size	parameter_string_declare_with_default, .-parameter_string_declare_with_default
 3390              		.section	.text.parameter_string_max_len,"ax",%progbits
 3391              		.align	1
 3392              		.p2align 4,,15
 3393              		.global	parameter_string_max_len
 3394              		.syntax unified
 3395              		.thumb
 3396              		.thumb_func
 3397              		.fpu fpv4-sp-d16
 3398              		.type	parameter_string_max_len, %function
 3399              	parameter_string_max_len:
 3400              	.LFB293:
 3401              		.loc 4 536 0
 3402              		.cfi_startproc
 3403              		@ args = 0, pretend = 0, frame = 16
 3404              		@ frame_needed = 0, uses_anonymous_args = 0
 3405 0000 00B5     		push	{lr}
 3406              		.cfi_def_cfa_offset 4
 3407              		.cfi_offset 14, -4
 3408 0002 85B0     		sub	sp, sp, #20
 3409              		.cfi_def_cfa_offset 24
 3410 0004 0190     		str	r0, [sp, #4]
 3411              		.loc 4 536 0
 3412 0006 0C4B     		ldr	r3, .L279
 3413 0008 1B68     		ldr	r3, [r3]
 3414 000a 0393     		str	r3, [sp, #12]
 3415              		.loc 4 537 0
 3416 000c 019B     		ldr	r3, [sp, #4]
 3417 000e 9B7B     		ldrb	r3, [r3, #14]	@ zero_extendqisi2
 3418 0010 042B     		cmp	r3, #4
 3419 0012 02D0     		beq	.L276
 3420              		.loc 4 537 0 is_stmt 0 discriminator 2
ARM GAS  C:\Users\PCHAUT~1\AppData\Local\Temp\ccxXBCq6.s 			page 61


 3421 0014 0948     		ldr	r0, .L279+4
 3422 0016 FFF7FEFF 		bl	chSysHalt
 3423              	.L276:
 3424              		.loc 4 538 0 is_stmt 1
 3425 001a 019B     		ldr	r3, [sp, #4]
 3426 001c 9B8A     		ldrh	r3, [r3, #20]
 3427 001e 0133     		adds	r3, r3, #1
 3428 0020 9BB2     		uxth	r3, r3
 3429              		.loc 4 539 0
 3430 0022 1846     		mov	r0, r3
 3431 0024 044B     		ldr	r3, .L279
 3432 0026 039A     		ldr	r2, [sp, #12]
 3433 0028 1B68     		ldr	r3, [r3]
 3434 002a 9A42     		cmp	r2, r3
 3435 002c 01D0     		beq	.L278
 3436 002e FFF7FEFF 		bl	__stack_chk_fail
 3437              	.L278:
 3438 0032 05B0     		add	sp, sp, #20
 3439              		.cfi_def_cfa_offset 4
 3440              		@ sp needed
 3441 0034 5DF804FB 		ldr	pc, [sp], #4
 3442              	.L280:
 3443              		.align	2
 3444              	.L279:
 3445 0038 00000000 		.word	__stack_chk_guard
 3446 003c 00000000 		.word	__func__.9227
 3447              		.cfi_endproc
 3448              	.LFE293:
 3449              		.size	parameter_string_max_len, .-parameter_string_max_len
 3450              		.section	.text.parameter_string_get,"ax",%progbits
 3451              		.align	1
 3452              		.p2align 4,,15
 3453              		.global	parameter_string_get
 3454              		.syntax unified
 3455              		.thumb
 3456              		.thumb_func
 3457              		.fpu fpv4-sp-d16
 3458              		.type	parameter_string_get, %function
 3459              	parameter_string_get:
 3460              	.LFB294:
 3461              		.loc 4 542 0
 3462              		.cfi_startproc
 3463              		@ args = 0, pretend = 0, frame = 24
 3464              		@ frame_needed = 0, uses_anonymous_args = 0
 3465 0000 00B5     		push	{lr}
 3466              		.cfi_def_cfa_offset 4
 3467              		.cfi_offset 14, -4
 3468 0002 87B0     		sub	sp, sp, #28
 3469              		.cfi_def_cfa_offset 32
 3470 0004 0390     		str	r0, [sp, #12]
 3471 0006 0291     		str	r1, [sp, #8]
 3472 0008 1346     		mov	r3, r2
 3473 000a ADF80630 		strh	r3, [sp, #6]	@ movhi
 3474              		.loc 4 542 0
 3475 000e 0C4B     		ldr	r3, .L284
 3476 0010 1B68     		ldr	r3, [r3]
 3477 0012 0593     		str	r3, [sp, #20]
ARM GAS  C:\Users\PCHAUT~1\AppData\Local\Temp\ccxXBCq6.s 			page 62


 3478              		.loc 4 543 0
 3479 0014 0398     		ldr	r0, [sp, #12]
 3480 0016 FFF7FEFF 		bl	_parameter_changed_clear
 3481              		.loc 4 544 0
 3482 001a BDF80630 		ldrh	r3, [sp, #6]
 3483 001e 1A46     		mov	r2, r3
 3484 0020 0299     		ldr	r1, [sp, #8]
 3485 0022 0398     		ldr	r0, [sp, #12]
 3486 0024 FFF7FEFF 		bl	parameter_string_read
 3487 0028 0346     		mov	r3, r0
 3488              		.loc 4 545 0
 3489 002a 1846     		mov	r0, r3
 3490 002c 044B     		ldr	r3, .L284
 3491 002e 059A     		ldr	r2, [sp, #20]
 3492 0030 1B68     		ldr	r3, [r3]
 3493 0032 9A42     		cmp	r2, r3
 3494 0034 01D0     		beq	.L283
 3495 0036 FFF7FEFF 		bl	__stack_chk_fail
 3496              	.L283:
 3497 003a 07B0     		add	sp, sp, #28
 3498              		.cfi_def_cfa_offset 4
 3499              		@ sp needed
 3500 003c 5DF804FB 		ldr	pc, [sp], #4
 3501              	.L285:
 3502              		.align	2
 3503              	.L284:
 3504 0040 00000000 		.word	__stack_chk_guard
 3505              		.cfi_endproc
 3506              	.LFE294:
 3507              		.size	parameter_string_get, .-parameter_string_get
 3508              		.section	.text.parameter_string_read,"ax",%progbits
 3509              		.align	1
 3510              		.p2align 4,,15
 3511              		.global	parameter_string_read
 3512              		.syntax unified
 3513              		.thumb
 3514              		.thumb_func
 3515              		.fpu fpv4-sp-d16
 3516              		.type	parameter_string_read, %function
 3517              	parameter_string_read:
 3518              	.LFB295:
 3519              		.loc 4 548 0
 3520              		.cfi_startproc
 3521              		@ args = 0, pretend = 0, frame = 24
 3522              		@ frame_needed = 0, uses_anonymous_args = 0
 3523 0000 00B5     		push	{lr}
 3524              		.cfi_def_cfa_offset 4
 3525              		.cfi_offset 14, -4
 3526 0002 87B0     		sub	sp, sp, #28
 3527              		.cfi_def_cfa_offset 32
 3528 0004 0390     		str	r0, [sp, #12]
 3529 0006 0291     		str	r1, [sp, #8]
 3530 0008 1346     		mov	r3, r2
 3531 000a ADF80630 		strh	r3, [sp, #6]	@ movhi
 3532              		.loc 4 548 0
 3533 000e 274B     		ldr	r3, .L293
 3534 0010 1B68     		ldr	r3, [r3]
ARM GAS  C:\Users\PCHAUT~1\AppData\Local\Temp\ccxXBCq6.s 			page 63


 3535 0012 0593     		str	r3, [sp, #20]
 3536              		.loc 4 549 0
 3537 0014 039B     		ldr	r3, [sp, #12]
 3538 0016 9B7B     		ldrb	r3, [r3, #14]	@ zero_extendqisi2
 3539 0018 042B     		cmp	r3, #4
 3540 001a 02D0     		beq	.L287
 3541              		.loc 4 549 0 is_stmt 0 discriminator 2
 3542 001c 2448     		ldr	r0, .L293+4
 3543 001e FFF7FEFF 		bl	chSysHalt
 3544              	.L287:
 3545              		.loc 4 550 0 is_stmt 1
 3546 0022 FFF7FEFF 		bl	chSysLock
 3547              		.loc 4 551 0
 3548 0026 039B     		ldr	r3, [sp, #12]
 3549 0028 5B7B     		ldrb	r3, [r3, #13]	@ zero_extendqisi2
 3550 002a 83F00103 		eor	r3, r3, #1
 3551 002e DBB2     		uxtb	r3, r3
 3552 0030 002B     		cmp	r3, #0
 3553 0032 02D0     		beq	.L288
 3554              		.loc 4 551 0 is_stmt 0 discriminator 2
 3555 0034 1E48     		ldr	r0, .L293+4
 3556 0036 FFF7FEFF 		bl	chSysHalt
 3557              	.L288:
 3558              		.loc 4 552 0 is_stmt 1
 3559 003a 039B     		ldr	r3, [sp, #12]
 3560 003c DB8A     		ldrh	r3, [r3, #22]	@ movhi
 3561 003e ADF81230 		strh	r3, [sp, #18]	@ movhi
 3562              		.loc 4 553 0
 3563 0042 BDF80620 		ldrh	r2, [sp, #6]
 3564 0046 BDF81230 		ldrh	r3, [sp, #18]
 3565 004a 9A42     		cmp	r2, r3
 3566 004c 0ED9     		bls	.L289
 3567              		.loc 4 554 0
 3568 004e 039B     		ldr	r3, [sp, #12]
 3569 0050 1B69     		ldr	r3, [r3, #16]
 3570 0052 BDF81220 		ldrh	r2, [sp, #18]
 3571 0056 1946     		mov	r1, r3
 3572 0058 0298     		ldr	r0, [sp, #8]
 3573 005a FFF7FEFF 		bl	memcpy
 3574              		.loc 4 555 0
 3575 005e BDF81230 		ldrh	r3, [sp, #18]
 3576 0062 029A     		ldr	r2, [sp, #8]
 3577 0064 1344     		add	r3, r3, r2
 3578 0066 0022     		movs	r2, #0
 3579 0068 1A70     		strb	r2, [r3]
 3580 006a 0FE0     		b	.L290
 3581              	.L289:
 3582              		.loc 4 557 0
 3583 006c 039B     		ldr	r3, [sp, #12]
 3584 006e 1969     		ldr	r1, [r3, #16]
 3585 0070 BDF80630 		ldrh	r3, [sp, #6]
 3586 0074 013B     		subs	r3, r3, #1
 3587 0076 1A46     		mov	r2, r3
 3588 0078 0298     		ldr	r0, [sp, #8]
 3589 007a FFF7FEFF 		bl	memcpy
 3590              		.loc 4 558 0
 3591 007e BDF80630 		ldrh	r3, [sp, #6]
ARM GAS  C:\Users\PCHAUT~1\AppData\Local\Temp\ccxXBCq6.s 			page 64


 3592 0082 013B     		subs	r3, r3, #1
 3593 0084 029A     		ldr	r2, [sp, #8]
 3594 0086 1344     		add	r3, r3, r2
 3595 0088 0022     		movs	r2, #0
 3596 008a 1A70     		strb	r2, [r3]
 3597              	.L290:
 3598              		.loc 4 560 0
 3599 008c FFF7FEFF 		bl	chSysUnlock
 3600              		.loc 4 561 0
 3601 0090 BDF81230 		ldrh	r3, [sp, #18]
 3602              		.loc 4 562 0
 3603 0094 1846     		mov	r0, r3
 3604 0096 054B     		ldr	r3, .L293
 3605 0098 059A     		ldr	r2, [sp, #20]
 3606 009a 1B68     		ldr	r3, [r3]
 3607 009c 9A42     		cmp	r2, r3
 3608 009e 01D0     		beq	.L292
 3609 00a0 FFF7FEFF 		bl	__stack_chk_fail
 3610              	.L292:
 3611 00a4 07B0     		add	sp, sp, #28
 3612              		.cfi_def_cfa_offset 4
 3613              		@ sp needed
 3614 00a6 5DF804FB 		ldr	pc, [sp], #4
 3615              	.L294:
 3616 00aa 00BF     		.align	2
 3617              	.L293:
 3618 00ac 00000000 		.word	__stack_chk_guard
 3619 00b0 00000000 		.word	__func__.9238
 3620              		.cfi_endproc
 3621              	.LFE295:
 3622              		.size	parameter_string_read, .-parameter_string_read
 3623              		.section	.text.parameter_string_set,"ax",%progbits
 3624              		.align	1
 3625              		.p2align 4,,15
 3626              		.global	parameter_string_set
 3627              		.syntax unified
 3628              		.thumb
 3629              		.thumb_func
 3630              		.fpu fpv4-sp-d16
 3631              		.type	parameter_string_set, %function
 3632              	parameter_string_set:
 3633              	.LFB296:
 3634              		.loc 4 565 0
 3635              		.cfi_startproc
 3636              		@ args = 0, pretend = 0, frame = 16
 3637              		@ frame_needed = 0, uses_anonymous_args = 0
 3638 0000 00B5     		push	{lr}
 3639              		.cfi_def_cfa_offset 4
 3640              		.cfi_offset 14, -4
 3641 0002 85B0     		sub	sp, sp, #20
 3642              		.cfi_def_cfa_offset 24
 3643 0004 0190     		str	r0, [sp, #4]
 3644 0006 0091     		str	r1, [sp]
 3645              		.loc 4 565 0
 3646 0008 0B4B     		ldr	r3, .L297
 3647 000a 1B68     		ldr	r3, [r3]
 3648 000c 0393     		str	r3, [sp, #12]
ARM GAS  C:\Users\PCHAUT~1\AppData\Local\Temp\ccxXBCq6.s 			page 65


 3649              		.loc 4 566 0
 3650 000e 0098     		ldr	r0, [sp]
 3651 0010 FFF7FEFF 		bl	strlen
 3652 0014 0346     		mov	r3, r0
 3653 0016 9BB2     		uxth	r3, r3
 3654 0018 1A46     		mov	r2, r3
 3655 001a 0099     		ldr	r1, [sp]
 3656 001c 0198     		ldr	r0, [sp, #4]
 3657 001e FFF7FEFF 		bl	parameter_string_set_w_len
 3658              		.loc 4 567 0
 3659 0022 00BF     		nop
 3660 0024 044B     		ldr	r3, .L297
 3661 0026 039A     		ldr	r2, [sp, #12]
 3662 0028 1B68     		ldr	r3, [r3]
 3663 002a 9A42     		cmp	r2, r3
 3664 002c 01D0     		beq	.L296
 3665 002e FFF7FEFF 		bl	__stack_chk_fail
 3666              	.L296:
 3667 0032 05B0     		add	sp, sp, #20
 3668              		.cfi_def_cfa_offset 4
 3669              		@ sp needed
 3670 0034 5DF804FB 		ldr	pc, [sp], #4
 3671              	.L298:
 3672              		.align	2
 3673              	.L297:
 3674 0038 00000000 		.word	__stack_chk_guard
 3675              		.cfi_endproc
 3676              	.LFE296:
 3677              		.size	parameter_string_set, .-parameter_string_set
 3678              		.section	.text.parameter_string_set_w_len,"ax",%progbits
 3679              		.align	1
 3680              		.p2align 4,,15
 3681              		.global	parameter_string_set_w_len
 3682              		.syntax unified
 3683              		.thumb
 3684              		.thumb_func
 3685              		.fpu fpv4-sp-d16
 3686              		.type	parameter_string_set_w_len, %function
 3687              	parameter_string_set_w_len:
 3688              	.LFB297:
 3689              		.loc 4 570 0
 3690              		.cfi_startproc
 3691              		@ args = 0, pretend = 0, frame = 24
 3692              		@ frame_needed = 0, uses_anonymous_args = 0
 3693 0000 00B5     		push	{lr}
 3694              		.cfi_def_cfa_offset 4
 3695              		.cfi_offset 14, -4
 3696 0002 87B0     		sub	sp, sp, #28
 3697              		.cfi_def_cfa_offset 32
 3698 0004 0390     		str	r0, [sp, #12]
 3699 0006 0291     		str	r1, [sp, #8]
 3700 0008 1346     		mov	r3, r2
 3701 000a ADF80630 		strh	r3, [sp, #6]	@ movhi
 3702              		.loc 4 570 0
 3703 000e 184B     		ldr	r3, .L303
 3704 0010 1B68     		ldr	r3, [r3]
 3705 0012 0593     		str	r3, [sp, #20]
ARM GAS  C:\Users\PCHAUT~1\AppData\Local\Temp\ccxXBCq6.s 			page 66


 3706              		.loc 4 571 0
 3707 0014 039B     		ldr	r3, [sp, #12]
 3708 0016 9B7B     		ldrb	r3, [r3, #14]	@ zero_extendqisi2
 3709 0018 042B     		cmp	r3, #4
 3710 001a 02D0     		beq	.L300
 3711              		.loc 4 571 0 is_stmt 0 discriminator 2
 3712 001c 1548     		ldr	r0, .L303+4
 3713 001e FFF7FEFF 		bl	chSysHalt
 3714              	.L300:
 3715              		.loc 4 572 0 is_stmt 1
 3716 0022 FFF7FEFF 		bl	chSysLock
 3717              		.loc 4 573 0
 3718 0026 039B     		ldr	r3, [sp, #12]
 3719 0028 9B8A     		ldrh	r3, [r3, #20]
 3720 002a BDF80620 		ldrh	r2, [sp, #6]
 3721 002e 9A42     		cmp	r2, r3
 3722 0030 02D9     		bls	.L301
 3723              		.loc 4 573 0 is_stmt 0 discriminator 2
 3724 0032 1048     		ldr	r0, .L303+4
 3725 0034 FFF7FEFF 		bl	chSysHalt
 3726              	.L301:
 3727              		.loc 4 574 0 is_stmt 1
 3728 0038 039B     		ldr	r3, [sp, #12]
 3729 003a 1B69     		ldr	r3, [r3, #16]
 3730 003c BDF80620 		ldrh	r2, [sp, #6]
 3731 0040 0299     		ldr	r1, [sp, #8]
 3732 0042 1846     		mov	r0, r3
 3733 0044 FFF7FEFF 		bl	memcpy
 3734              		.loc 4 575 0
 3735 0048 039B     		ldr	r3, [sp, #12]
 3736 004a BDF80620 		ldrh	r2, [sp, #6]	@ movhi
 3737 004e DA82     		strh	r2, [r3, #22]	@ movhi
 3738              		.loc 4 576 0
 3739 0050 FFF7FEFF 		bl	chSysUnlock
 3740              		.loc 4 577 0
 3741 0054 0398     		ldr	r0, [sp, #12]
 3742 0056 FFF7FEFF 		bl	_parameter_changed_set
 3743              		.loc 4 578 0
 3744 005a 00BF     		nop
 3745 005c 044B     		ldr	r3, .L303
 3746 005e 059A     		ldr	r2, [sp, #20]
 3747 0060 1B68     		ldr	r3, [r3]
 3748 0062 9A42     		cmp	r2, r3
 3749 0064 01D0     		beq	.L302
 3750 0066 FFF7FEFF 		bl	__stack_chk_fail
 3751              	.L302:
 3752 006a 07B0     		add	sp, sp, #28
 3753              		.cfi_def_cfa_offset 4
 3754              		@ sp needed
 3755 006c 5DF804FB 		ldr	pc, [sp], #4
 3756              	.L304:
 3757              		.align	2
 3758              	.L303:
 3759 0070 00000000 		.word	__stack_chk_guard
 3760 0074 00000000 		.word	__func__.9249
 3761              		.cfi_endproc
 3762              	.LFE297:
ARM GAS  C:\Users\PCHAUT~1\AppData\Local\Temp\ccxXBCq6.s 			page 67


 3763              		.size	parameter_string_set_w_len, .-parameter_string_set_w_len
 3764              		.section	.rodata.__func__.8162,"a",%progbits
 3765              		.align	2
 3766              		.type	__func__.8162, %object
 3767              		.size	__func__.8162, 12
 3768              	__func__.8162:
 3769 0000 63685379 		.ascii	"chSysUnlock\000"
 3769      73556E6C 
 3769      6F636B00 
 3770              		.section	.rodata.__func__.9069,"a",%progbits
 3771              		.align	2
 3772              		.type	__func__.9069, %object
 3773              		.size	__func__.9069, 22
 3774              	__func__.9069:
 3775 0000 70617261 		.ascii	"parameter_scalar_read\000"
 3775      6D657465 
 3775      725F7363 
 3775      616C6172 
 3775      5F726561 
 3776              		.section	.rodata.__func__.9075,"a",%progbits
 3777              		.align	2
 3778              		.type	__func__.9075, %object
 3779              		.size	__func__.9075, 21
 3780              	__func__.9075:
 3781 0000 70617261 		.ascii	"parameter_scalar_set\000"
 3781      6D657465 
 3781      725F7363 
 3781      616C6172 
 3781      5F736574 
 3782              		.section	.rodata.__func__.9093,"a",%progbits
 3783              		.align	2
 3784              		.type	__func__.9093, %object
 3785              		.size	__func__.9093, 23
 3786              	__func__.9093:
 3787 0000 70617261 		.ascii	"parameter_integer_read\000"
 3787      6D657465 
 3787      725F696E 
 3787      74656765 
 3787      725F7265 
 3788              		.section	.rodata.__func__.9099,"a",%progbits
 3789              		.align	2
 3790              		.type	__func__.9099, %object
 3791              		.size	__func__.9099, 22
 3792              	__func__.9099:
 3793 0000 70617261 		.ascii	"parameter_integer_set\000"
 3793      6D657465 
 3793      725F696E 
 3793      74656765 
 3793      725F7365 
 3794              		.section	.rodata.__func__.9115,"a",%progbits
 3795              		.align	2
 3796              		.type	__func__.9115, %object
 3797              		.size	__func__.9115, 22
 3798              	__func__.9115:
 3799 0000 70617261 		.ascii	"parameter_boolean_set\000"
 3799      6D657465 
 3799      725F626F 
ARM GAS  C:\Users\PCHAUT~1\AppData\Local\Temp\ccxXBCq6.s 			page 68


 3799      6F6C6561 
 3799      6E5F7365 
 3800              		.section	.rodata.__func__.9122,"a",%progbits
 3801              		.align	2
 3802              		.type	__func__.9122, %object
 3803              		.size	__func__.9122, 23
 3804              	__func__.9122:
 3805 0000 70617261 		.ascii	"parameter_boolean_read\000"
 3805      6D657465 
 3805      725F626F 
 3805      6F6C6561 
 3805      6E5F7265 
 3806              		.section	.rodata.__func__.9141,"a",%progbits
 3807              		.align	2
 3808              		.type	__func__.9141, %object
 3809              		.size	__func__.9141, 21
 3810              	__func__.9141:
 3811 0000 70617261 		.ascii	"parameter_vector_dim\000"
 3811      6D657465 
 3811      725F7665 
 3811      63746F72 
 3811      5F64696D 
 3812              		.section	.rodata.__func__.9150,"a",%progbits
 3813              		.align	2
 3814              		.type	__func__.9150, %object
 3815              		.size	__func__.9150, 22
 3816              	__func__.9150:
 3817 0000 70617261 		.ascii	"parameter_vector_read\000"
 3817      6D657465 
 3817      725F7665 
 3817      63746F72 
 3817      5F726561 
 3818              		.section	.rodata.__func__.9159,"a",%progbits
 3819              		.align	2
 3820              		.type	__func__.9159, %object
 3821              		.size	__func__.9159, 21
 3822              	__func__.9159:
 3823 0000 70617261 		.ascii	"parameter_vector_set\000"
 3823      6D657465 
 3823      725F7665 
 3823      63746F72 
 3823      5F736574 
 3824              		.section	.rodata.__func__.9179,"a",%progbits
 3825              		.align	2
 3826              		.type	__func__.9179, %object
 3827              		.size	__func__.9179, 47
 3828              	__func__.9179:
 3829 0000 70617261 		.ascii	"parameter_variable_vector_declare_with_default\000"
 3829      6D657465 
 3829      725F7661 
 3829      72696162 
 3829      6C655F76 
 3830              		.section	.rodata.__func__.9183,"a",%progbits
 3831              		.align	2
 3832              		.type	__func__.9183, %object
 3833              		.size	__func__.9183, 34
 3834              	__func__.9183:
ARM GAS  C:\Users\PCHAUT~1\AppData\Local\Temp\ccxXBCq6.s 			page 69


 3835 0000 70617261 		.ascii	"parameter_variable_vector_max_dim\000"
 3835      6D657465 
 3835      725F7661 
 3835      72696162 
 3835      6C655F76 
 3836              		.section	.rodata.__func__.9192,"a",%progbits
 3837              		.align	2
 3838              		.type	__func__.9192, %object
 3839              		.size	__func__.9192, 31
 3840              	__func__.9192:
 3841 0000 70617261 		.ascii	"parameter_variable_vector_read\000"
 3841      6D657465 
 3841      725F7661 
 3841      72696162 
 3841      6C655F76 
 3842              		.section	.rodata.__func__.9203,"a",%progbits
 3843              		.align	2
 3844              		.type	__func__.9203, %object
 3845              		.size	__func__.9203, 30
 3846              	__func__.9203:
 3847 0000 70617261 		.ascii	"parameter_variable_vector_set\000"
 3847      6D657465 
 3847      725F7661 
 3847      72696162 
 3847      6C655F76 
 3848              		.section	.rodata.__func__.9223,"a",%progbits
 3849              		.align	2
 3850              		.type	__func__.9223, %object
 3851              		.size	__func__.9223, 38
 3852              	__func__.9223:
 3853 0000 70617261 		.ascii	"parameter_string_declare_with_default\000"
 3853      6D657465 
 3853      725F7374 
 3853      72696E67 
 3853      5F646563 
 3854              		.section	.rodata.__func__.9227,"a",%progbits
 3855              		.align	2
 3856              		.type	__func__.9227, %object
 3857              		.size	__func__.9227, 25
 3858              	__func__.9227:
 3859 0000 70617261 		.ascii	"parameter_string_max_len\000"
 3859      6D657465 
 3859      725F7374 
 3859      72696E67 
 3859      5F6D6178 
 3860              		.section	.rodata.__func__.9238,"a",%progbits
 3861              		.align	2
 3862              		.type	__func__.9238, %object
 3863              		.size	__func__.9238, 22
 3864              	__func__.9238:
 3865 0000 70617261 		.ascii	"parameter_string_read\000"
 3865      6D657465 
 3865      725F7374 
 3865      72696E67 
 3865      5F726561 
 3866              		.section	.rodata.__func__.9249,"a",%progbits
 3867              		.align	2
ARM GAS  C:\Users\PCHAUT~1\AppData\Local\Temp\ccxXBCq6.s 			page 70


 3868              		.type	__func__.9249, %object
 3869              		.size	__func__.9249, 27
 3870              	__func__.9249:
 3871 0000 70617261 		.ascii	"parameter_string_set_w_len\000"
 3871      6D657465 
 3871      725F7374 
 3871      72696E67 
 3871      5F736574 
 3872              		.text
 3873              	.Letext0:
 3874              		.file 5 "c:\\users\\pchautems\\documents\\robotiquetp\\eclipse_e-puck2\\tools\\gcc-arm-none-eabi-7
 3875              		.file 6 "c:\\users\\pchautems\\documents\\robotiquetp\\eclipse_e-puck2\\tools\\gcc-arm-none-eabi-7
 3876              		.file 7 "c:\\users\\pchautems\\documents\\robotiquetp\\eclipse_e-puck2\\tools\\gcc-arm-none-eabi-7
 3877              		.file 8 "c:\\users\\pchautems\\documents\\robotiquetp\\eclipse_e-puck2\\tools\\gcc-arm-none-eabi-7
 3878              		.file 9 "c:\\users\\pchautems\\documents\\robotiquetp\\eclipse_e-puck2\\tools\\gcc-arm-none-eabi-7
 3879              		.file 10 "c:\\users\\pchautems\\documents\\robotiquetp\\eclipse_e-puck2\\tools\\gcc-arm-none-eabi-
 3880              		.file 11 "c:\\users\\pchautems\\documents\\robotiquetp\\eclipse_e-puck2\\tools\\gcc-arm-none-eabi-
 3881              		.file 12 "../lib/e-puck2_main-processor/src/parameter/parameter.h"
 3882              		.file 13 "../lib/e-puck2_main-processor/ChibiOS//os/rt/ports/ARMCMx/compilers/GCC/chtypes.h"
 3883              		.file 14 "../lib/e-puck2_main-processor/ChibiOS//os/rt/include/chsystypes.h"
 3884              		.file 15 "../lib/e-puck2_main-processor/ChibiOS//os/rt/include/chschd.h"
 3885              		.file 16 "../lib/e-puck2_main-processor/ChibiOS//os/ext/CMSIS/include/core_cm4.h"
 3886              		.file 17 "../lib/e-puck2_main-processor/ChibiOS//os/ext/CMSIS/ST/system_stm32f4xx.h"
 3887              		.file 18 "../lib/e-puck2_main-processor/ChibiOS//os/rt/ports/ARMCMx/chcore.h"
 3888              		.file 19 "../lib/e-puck2_main-processor/ChibiOS//os/rt/include/chdebug.h"
 3889              		.file 20 "../lib/e-puck2_main-processor/ChibiOS//os/rt/include/chtm.h"
 3890              		.file 21 "../lib/e-puck2_main-processor/ChibiOS//os/rt/include/chstats.h"
 3891              		.file 22 "../lib/e-puck2_main-processor/ChibiOS//os/rt/include/chsem.h"
 3892              		.file 23 "../lib/e-puck2_main-processor/ChibiOS//os/rt/include/chmtx.h"
 3893              		.file 24 "../lib/e-puck2_main-processor/ChibiOS//os/rt/include/chregistry.h"