ARM GAS  C:\Users\PCHAUT~1\AppData\Local\Temp\ccmBgndF.s 			page 1


   1              		.cpu cortex-m4
   2              		.eabi_attribute 27, 1
   3              		.eabi_attribute 28, 1
   4              		.eabi_attribute 20, 1
   5              		.eabi_attribute 21, 1
   6              		.eabi_attribute 23, 3
   7              		.eabi_attribute 24, 1
   8              		.eabi_attribute 25, 1
   9              		.eabi_attribute 26, 1
  10              		.eabi_attribute 30, 6
  11              		.eabi_attribute 34, 1
  12              		.eabi_attribute 18, 4
  13              		.file	"parameter_print.c"
  14              		.text
  15              	.Ltext0:
  16              		.cfi_sections	.debug_frame
  17              		.section	.rodata
  18              		.align	2
  19              	.LC0:
  20 0000 202000   		.ascii	"  \000"
  21              		.section	.text.indent,"ax",%progbits
  22              		.align	1
  23              		.p2align 4,,15
  24              		.syntax unified
  25              		.thumb
  26              		.thumb_func
  27              		.fpu fpv4-sp-d16
  28              		.type	indent, %function
  29              	indent:
  30              	.LFB0:
  31              		.file 1 "../lib/e-puck2_main-processor/src/parameter/parameter_print.c"
  32              		.loc 1 10 0
  33              		.cfi_startproc
  34              		@ args = 0, pretend = 0, frame = 24
  35              		@ frame_needed = 0, uses_anonymous_args = 0
  36 0000 00B5     		push	{lr}
  37              		.cfi_def_cfa_offset 4
  38              		.cfi_offset 14, -4
  39 0002 87B0     		sub	sp, sp, #28
  40              		.cfi_def_cfa_offset 32
  41 0004 0390     		str	r0, [sp, #12]
  42 0006 0291     		str	r1, [sp, #8]
  43 0008 0192     		str	r2, [sp, #4]
  44              		.loc 1 10 0
  45 000a 0E4B     		ldr	r3, .L5
  46 000c 1B68     		ldr	r3, [r3]
  47 000e 0593     		str	r3, [sp, #20]
  48              		.loc 1 12 0
  49 0010 0023     		movs	r3, #0
  50 0012 0493     		str	r3, [sp, #16]
  51 0014 06E0     		b	.L2
  52              	.L3:
  53              		.loc 1 13 0 discriminator 3
  54 0016 029B     		ldr	r3, [sp, #8]
  55 0018 0B49     		ldr	r1, .L5+4
  56 001a 0198     		ldr	r0, [sp, #4]
  57 001c 9847     		blx	r3
ARM GAS  C:\Users\PCHAUT~1\AppData\Local\Temp\ccmBgndF.s 			page 2


  58              	.LVL0:
  59              		.loc 1 12 0 discriminator 3
  60 001e 049B     		ldr	r3, [sp, #16]
  61 0020 0133     		adds	r3, r3, #1
  62 0022 0493     		str	r3, [sp, #16]
  63              	.L2:
  64              		.loc 1 12 0 is_stmt 0 discriminator 1
  65 0024 049A     		ldr	r2, [sp, #16]
  66 0026 039B     		ldr	r3, [sp, #12]
  67 0028 9A42     		cmp	r2, r3
  68 002a F4DB     		blt	.L3
  69              		.loc 1 15 0 is_stmt 1
  70 002c 00BF     		nop
  71 002e 054B     		ldr	r3, .L5
  72 0030 059A     		ldr	r2, [sp, #20]
  73 0032 1B68     		ldr	r3, [r3]
  74 0034 9A42     		cmp	r2, r3
  75 0036 01D0     		beq	.L4
  76 0038 FFF7FEFF 		bl	__stack_chk_fail
  77              	.L4:
  78 003c 07B0     		add	sp, sp, #28
  79              		.cfi_def_cfa_offset 4
  80              		@ sp needed
  81 003e 5DF804FB 		ldr	pc, [sp], #4
  82              	.L6:
  83 0042 00BF     		.align	2
  84              	.L5:
  85 0044 00000000 		.word	__stack_chk_guard
  86 0048 00000000 		.word	.LC0
  87              		.cfi_endproc
  88              	.LFE0:
  89              		.size	indent, .-indent
  90              		.section	.rodata
  91 0003 00       		.align	2
  92              	.LC1:
  93 0004 5B00     		.ascii	"[\000"
  94              		.global	__aeabi_f2d
  95 0006 0000     		.align	2
  96              	.LC2:
  97 0008 256600   		.ascii	"%f\000"
  98 000b 00       		.align	2
  99              	.LC3:
 100 000c 25662C20 		.ascii	"%f, \000"
 100      00
 101 0011 000000   		.align	2
 102              	.LC4:
 103 0014 5D0A00   		.ascii	"]\012\000"
 104              		.section	.text.print_array,"ax",%progbits
 105              		.align	1
 106              		.p2align 4,,15
 107              		.syntax unified
 108              		.thumb
 109              		.thumb_func
 110              		.fpu fpv4-sp-d16
 111              		.type	print_array, %function
 112              	print_array:
 113              	.LFB1:
ARM GAS  C:\Users\PCHAUT~1\AppData\Local\Temp\ccmBgndF.s 			page 3


 114              		.loc 1 22 0
 115              		.cfi_startproc
 116              		@ args = 0, pretend = 0, frame = 24
 117              		@ frame_needed = 0, uses_anonymous_args = 0
 118 0000 10B5     		push	{r4, lr}
 119              		.cfi_def_cfa_offset 8
 120              		.cfi_offset 4, -8
 121              		.cfi_offset 14, -4
 122 0002 86B0     		sub	sp, sp, #24
 123              		.cfi_def_cfa_offset 32
 124 0004 0390     		str	r0, [sp, #12]
 125 0006 0291     		str	r1, [sp, #8]
 126 0008 0192     		str	r2, [sp, #4]
 127 000a 0093     		str	r3, [sp]
 128              		.loc 1 22 0
 129 000c 204B     		ldr	r3, .L13
 130 000e 1B68     		ldr	r3, [r3]
 131 0010 0593     		str	r3, [sp, #20]
 132              		.loc 1 23 0
 133 0012 019B     		ldr	r3, [sp, #4]
 134 0014 1F49     		ldr	r1, .L13+4
 135 0016 0098     		ldr	r0, [sp]
 136 0018 9847     		blx	r3
 137              	.LVL1:
 138              		.loc 1 25 0
 139 001a 0023     		movs	r3, #0
 140 001c 0493     		str	r3, [sp, #16]
 141 001e 24E0     		b	.L8
 142              	.L11:
 143              		.loc 1 26 0
 144 0020 029B     		ldr	r3, [sp, #8]
 145 0022 013B     		subs	r3, r3, #1
 146 0024 049A     		ldr	r2, [sp, #16]
 147 0026 9A42     		cmp	r2, r3
 148 0028 0ED1     		bne	.L9
 149              		.loc 1 27 0
 150 002a 049B     		ldr	r3, [sp, #16]
 151 002c 9B00     		lsls	r3, r3, #2
 152 002e 039A     		ldr	r2, [sp, #12]
 153 0030 1344     		add	r3, r3, r2
 154 0032 1B68     		ldr	r3, [r3]	@ float
 155 0034 1846     		mov	r0, r3	@ float
 156 0036 FFF7FEFF 		bl	__aeabi_f2d
 157              	.LVL2:
 158 003a 0246     		mov	r2, r0
 159 003c 0B46     		mov	r3, r1
 160 003e 019C     		ldr	r4, [sp, #4]
 161 0040 1549     		ldr	r1, .L13+8
 162 0042 0098     		ldr	r0, [sp]
 163 0044 A047     		blx	r4
 164              	.LVL3:
 165 0046 0DE0     		b	.L10
 166              	.L9:
 167              		.loc 1 29 0
 168 0048 049B     		ldr	r3, [sp, #16]
 169 004a 9B00     		lsls	r3, r3, #2
 170 004c 039A     		ldr	r2, [sp, #12]
ARM GAS  C:\Users\PCHAUT~1\AppData\Local\Temp\ccmBgndF.s 			page 4


 171 004e 1344     		add	r3, r3, r2
 172 0050 1B68     		ldr	r3, [r3]	@ float
 173 0052 1846     		mov	r0, r3	@ float
 174 0054 FFF7FEFF 		bl	__aeabi_f2d
 175              	.LVL4:
 176 0058 0246     		mov	r2, r0
 177 005a 0B46     		mov	r3, r1
 178 005c 019C     		ldr	r4, [sp, #4]
 179 005e 0F49     		ldr	r1, .L13+12
 180 0060 0098     		ldr	r0, [sp]
 181 0062 A047     		blx	r4
 182              	.LVL5:
 183              	.L10:
 184              		.loc 1 25 0 discriminator 2
 185 0064 049B     		ldr	r3, [sp, #16]
 186 0066 0133     		adds	r3, r3, #1
 187 0068 0493     		str	r3, [sp, #16]
 188              	.L8:
 189              		.loc 1 25 0 is_stmt 0 discriminator 1
 190 006a 049A     		ldr	r2, [sp, #16]
 191 006c 029B     		ldr	r3, [sp, #8]
 192 006e 9A42     		cmp	r2, r3
 193 0070 D6DB     		blt	.L11
 194              		.loc 1 32 0 is_stmt 1
 195 0072 019B     		ldr	r3, [sp, #4]
 196 0074 0A49     		ldr	r1, .L13+16
 197 0076 0098     		ldr	r0, [sp]
 198 0078 9847     		blx	r3
 199              	.LVL6:
 200              		.loc 1 33 0
 201 007a 00BF     		nop
 202 007c 044B     		ldr	r3, .L13
 203 007e 059A     		ldr	r2, [sp, #20]
 204 0080 1B68     		ldr	r3, [r3]
 205 0082 9A42     		cmp	r2, r3
 206 0084 01D0     		beq	.L12
 207 0086 FFF7FEFF 		bl	__stack_chk_fail
 208              	.L12:
 209 008a 06B0     		add	sp, sp, #24
 210              		.cfi_def_cfa_offset 8
 211              		@ sp needed
 212 008c 10BD     		pop	{r4, pc}
 213              	.L14:
 214 008e 00BF     		.align	2
 215              	.L13:
 216 0090 00000000 		.word	__stack_chk_guard
 217 0094 04000000 		.word	.LC1
 218 0098 08000000 		.word	.LC2
 219 009c 0C000000 		.word	.LC3
 220 00a0 14000000 		.word	.LC4
 221              		.cfi_endproc
 222              	.LFE1:
 223              		.size	print_array, .-print_array
 224              		.section	.rodata
 225 0017 00       		.align	2
 226              	.LC5:
 227 0018 25733A20 		.ascii	"%s: \000"
ARM GAS  C:\Users\PCHAUT~1\AppData\Local\Temp\ccmBgndF.s 			page 5


 227      00
 228 001d 000000   		.align	2
 229              	.LC6:
 230 0020 7E0A00   		.ascii	"~\012\000"
 231 0023 00       		.align	2
 232              	.LC7:
 233 0024 25660A00 		.ascii	"%f\012\000"
 234              		.align	2
 235              	.LC8:
 236 0028 25640A00 		.ascii	"%d\012\000"
 237              		.align	2
 238              	.LC9:
 239 002c 74727565 		.ascii	"true\000"
 239      00
 240 0031 000000   		.align	2
 241              	.LC10:
 242 0034 66616C73 		.ascii	"false\000"
 242      6500
 243 003a 0000     		.align	2
 244              	.LC11:
 245 003c 25730A00 		.ascii	"%s\012\000"
 246              		.align	2
 247              	.LC12:
 248 0040 22257322 		.ascii	"\"%s\"\012\000"
 248      0A00
 249 0046 0000     		.align	2
 250              	.LC13:
 251 0048 23207761 		.ascii	"# warning: malloc failed during serialization!\000"
 251      726E696E 
 251      673A206D 
 251      616C6C6F 
 251      63206661 
 252 0077 00       		.align	2
 253              	.LC14:
 254 0078 22222025 		.ascii	"\"\" %s\012\000"
 254      730A00
 255 007f 00       		.align	2
 256              	.LC15:
 257 0080 5B5D2025 		.ascii	"[] %s\012\000"
 257      730A00
 258              		.section	.text.param_entry_print,"ax",%progbits
 259              		.align	1
 260              		.p2align 4,,15
 261              		.syntax unified
 262              		.thumb
 263              		.thumb_func
 264              		.fpu fpv4-sp-d16
 265              		.type	param_entry_print, %function
 266              	param_entry_print:
 267              	.LFB2:
 268              		.loc 1 40 0
 269              		.cfi_startproc
 270              		@ args = 0, pretend = 0, frame = 48
 271              		@ frame_needed = 0, uses_anonymous_args = 0
 272 0000 10B5     		push	{r4, lr}
 273              		.cfi_def_cfa_offset 8
 274              		.cfi_offset 4, -8
ARM GAS  C:\Users\PCHAUT~1\AppData\Local\Temp\ccmBgndF.s 			page 6


 275              		.cfi_offset 14, -4
 276 0002 8CB0     		sub	sp, sp, #48
 277              		.cfi_def_cfa_offset 56
 278 0004 0390     		str	r0, [sp, #12]
 279 0006 0291     		str	r1, [sp, #8]
 280 0008 0192     		str	r2, [sp, #4]
 281 000a 0093     		str	r3, [sp]
 282              		.loc 1 40 0
 283 000c 664B     		ldr	r3, .L34
 284 000e 1B68     		ldr	r3, [r3]
 285 0010 0B93     		str	r3, [sp, #44]
 286              		.loc 1 41 0
 287 0012 009A     		ldr	r2, [sp]
 288 0014 0199     		ldr	r1, [sp, #4]
 289 0016 0298     		ldr	r0, [sp, #8]
 290 0018 FFF7FEFF 		bl	indent
 291              		.loc 1 42 0
 292 001c 039B     		ldr	r3, [sp, #12]
 293 001e 1A68     		ldr	r2, [r3]
 294 0020 019B     		ldr	r3, [sp, #4]
 295 0022 6249     		ldr	r1, .L34+4
 296 0024 0098     		ldr	r0, [sp]
 297 0026 9847     		blx	r3
 298              	.LVL7:
 299              		.loc 1 43 0
 300 0028 0398     		ldr	r0, [sp, #12]
 301 002a FFF7FEFF 		bl	parameter_defined
 302 002e 0346     		mov	r3, r0
 303 0030 83F00103 		eor	r3, r3, #1
 304 0034 DBB2     		uxtb	r3, r3
 305 0036 002B     		cmp	r3, #0
 306 0038 04D0     		beq	.L16
 307              		.loc 1 44 0
 308 003a 019B     		ldr	r3, [sp, #4]
 309 003c 5C49     		ldr	r1, .L34+8
 310 003e 0098     		ldr	r0, [sp]
 311 0040 9847     		blx	r3
 312              	.LVL8:
 313              		.loc 1 45 0
 314 0042 A7E0     		b	.L15
 315              	.L16:
 316              		.loc 1 47 0
 317 0044 039B     		ldr	r3, [sp, #12]
 318 0046 9B7B     		ldrb	r3, [r3, #14]	@ zero_extendqisi2
 319 0048 013B     		subs	r3, r3, #1
 320 004a 052B     		cmp	r3, #5
 321 004c 00F2A280 		bhi	.L15
 322 0050 01A2     		adr	r2, .L19
 323 0052 52F823F0 		ldr	pc, [r2, r3, lsl #2]
 324 0056 00BF     		.p2align 2
 325              	.L19:
 326 0058 71000000 		.word	.L18+1
 327 005c A1000000 		.word	.L20+1
 328 0060 8F000000 		.word	.L21+1
 329 0064 BD000000 		.word	.L22+1
 330 0068 05010000 		.word	.L23+1
 331 006c 4B010000 		.word	.L24+1
ARM GAS  C:\Users\PCHAUT~1\AppData\Local\Temp\ccmBgndF.s 			page 7


 332              		.p2align 1
 333              	.L18:
 334              		.loc 1 49 0
 335 0070 0398     		ldr	r0, [sp, #12]
 336 0072 FFF7FEFF 		bl	parameter_scalar_read
 337 0076 10EE103A 		vmov	r3, s0
 338 007a 1846     		mov	r0, r3	@ float
 339 007c FFF7FEFF 		bl	__aeabi_f2d
 340              	.LVL9:
 341 0080 0246     		mov	r2, r0
 342 0082 0B46     		mov	r3, r1
 343 0084 019C     		ldr	r4, [sp, #4]
 344 0086 4B49     		ldr	r1, .L34+12
 345 0088 0098     		ldr	r0, [sp]
 346 008a A047     		blx	r4
 347              	.LVL10:
 348              		.loc 1 50 0
 349 008c 82E0     		b	.L15
 350              	.L21:
 351              		.loc 1 53 0
 352 008e 0398     		ldr	r0, [sp, #12]
 353 0090 FFF7FEFF 		bl	parameter_integer_read
 354 0094 0246     		mov	r2, r0
 355 0096 019B     		ldr	r3, [sp, #4]
 356 0098 4749     		ldr	r1, .L34+16
 357 009a 0098     		ldr	r0, [sp]
 358 009c 9847     		blx	r3
 359              	.LVL11:
 360              		.loc 1 54 0
 361 009e 79E0     		b	.L15
 362              	.L20:
 363              		.loc 1 57 0
 364 00a0 0398     		ldr	r0, [sp, #12]
 365 00a2 FFF7FEFF 		bl	parameter_boolean_read
 366 00a6 0346     		mov	r3, r0
 367 00a8 002B     		cmp	r3, #0
 368 00aa 01D0     		beq	.L25
 369              		.loc 1 57 0 is_stmt 0 discriminator 1
 370 00ac 434A     		ldr	r2, .L34+20
 371 00ae 00E0     		b	.L26
 372              	.L25:
 373              		.loc 1 57 0 discriminator 2
 374 00b0 434A     		ldr	r2, .L34+24
 375              	.L26:
 376              		.loc 1 57 0 discriminator 4
 377 00b2 019B     		ldr	r3, [sp, #4]
 378 00b4 4349     		ldr	r1, .L34+28
 379 00b6 0098     		ldr	r0, [sp]
 380 00b8 9847     		blx	r3
 381              	.LVL12:
 382              		.loc 1 58 0 is_stmt 1 discriminator 4
 383 00ba 6BE0     		b	.L15
 384              	.L22:
 385              	.LBB2:
 386              		.loc 1 61 0
 387 00bc 0398     		ldr	r0, [sp, #12]
 388 00be FFF7FEFF 		bl	parameter_string_max_len
ARM GAS  C:\Users\PCHAUT~1\AppData\Local\Temp\ccmBgndF.s 			page 8


 389 00c2 0346     		mov	r3, r0
 390 00c4 0993     		str	r3, [sp, #36]
 391              		.loc 1 62 0
 392 00c6 099B     		ldr	r3, [sp, #36]
 393 00c8 1846     		mov	r0, r3
 394 00ca FFF7FEFF 		bl	malloc
 395 00ce 0346     		mov	r3, r0
 396 00d0 0A93     		str	r3, [sp, #40]
 397              		.loc 1 63 0
 398 00d2 0A9B     		ldr	r3, [sp, #40]
 399 00d4 002B     		cmp	r3, #0
 400 00d6 0FD0     		beq	.L27
 401              		.loc 1 64 0
 402 00d8 099B     		ldr	r3, [sp, #36]
 403 00da 9BB2     		uxth	r3, r3
 404 00dc 1A46     		mov	r2, r3
 405 00de 0A99     		ldr	r1, [sp, #40]
 406 00e0 0398     		ldr	r0, [sp, #12]
 407 00e2 FFF7FEFF 		bl	parameter_string_read
 408              		.loc 1 65 0
 409 00e6 019B     		ldr	r3, [sp, #4]
 410 00e8 0A9A     		ldr	r2, [sp, #40]
 411 00ea 3749     		ldr	r1, .L34+32
 412 00ec 0098     		ldr	r0, [sp]
 413 00ee 9847     		blx	r3
 414              	.LVL13:
 415              		.loc 1 66 0
 416 00f0 0A98     		ldr	r0, [sp, #40]
 417 00f2 FFF7FEFF 		bl	free
 418              		.loc 1 70 0
 419 00f6 4DE0     		b	.L15
 420              	.L27:
 421              		.loc 1 68 0
 422 00f8 019B     		ldr	r3, [sp, #4]
 423 00fa 344A     		ldr	r2, .L34+36
 424 00fc 3449     		ldr	r1, .L34+40
 425 00fe 0098     		ldr	r0, [sp]
 426 0100 9847     		blx	r3
 427              	.LVL14:
 428              		.loc 1 70 0
 429 0102 47E0     		b	.L15
 430              	.L23:
 431              	.LBE2:
 432              	.LBB3:
 433              		.loc 1 73 0
 434 0104 0398     		ldr	r0, [sp, #12]
 435 0106 FFF7FEFF 		bl	parameter_vector_dim
 436 010a 0346     		mov	r3, r0
 437 010c 0793     		str	r3, [sp, #28]
 438              		.loc 1 74 0
 439 010e 079B     		ldr	r3, [sp, #28]
 440 0110 9B00     		lsls	r3, r3, #2
 441 0112 1846     		mov	r0, r3
 442 0114 FFF7FEFF 		bl	malloc
 443 0118 0346     		mov	r3, r0
 444 011a 0893     		str	r3, [sp, #32]
 445              		.loc 1 75 0
ARM GAS  C:\Users\PCHAUT~1\AppData\Local\Temp\ccmBgndF.s 			page 9


 446 011c 089B     		ldr	r3, [sp, #32]
 447 011e 002B     		cmp	r3, #0
 448 0120 0DD0     		beq	.L29
 449              		.loc 1 76 0
 450 0122 0899     		ldr	r1, [sp, #32]
 451 0124 0398     		ldr	r0, [sp, #12]
 452 0126 FFF7FEFF 		bl	parameter_vector_read
 453              		.loc 1 77 0
 454 012a 009B     		ldr	r3, [sp]
 455 012c 019A     		ldr	r2, [sp, #4]
 456 012e 0799     		ldr	r1, [sp, #28]
 457 0130 0898     		ldr	r0, [sp, #32]
 458 0132 FFF7FEFF 		bl	print_array
 459              		.loc 1 78 0
 460 0136 0898     		ldr	r0, [sp, #32]
 461 0138 FFF7FEFF 		bl	free
 462              		.loc 1 82 0
 463 013c 2AE0     		b	.L15
 464              	.L29:
 465              		.loc 1 80 0
 466 013e 019B     		ldr	r3, [sp, #4]
 467 0140 224A     		ldr	r2, .L34+36
 468 0142 2449     		ldr	r1, .L34+44
 469 0144 0098     		ldr	r0, [sp]
 470 0146 9847     		blx	r3
 471              	.LVL15:
 472              		.loc 1 82 0
 473 0148 24E0     		b	.L15
 474              	.L24:
 475              	.LBE3:
 476              	.LBB4:
 477              		.loc 1 85 0
 478 014a 0398     		ldr	r0, [sp, #12]
 479 014c FFF7FEFF 		bl	parameter_variable_vector_max_dim
 480 0150 0346     		mov	r3, r0
 481 0152 0593     		str	r3, [sp, #20]
 482              		.loc 1 86 0
 483 0154 059B     		ldr	r3, [sp, #20]
 484 0156 9B00     		lsls	r3, r3, #2
 485 0158 1846     		mov	r0, r3
 486 015a FFF7FEFF 		bl	malloc
 487 015e 0346     		mov	r3, r0
 488 0160 0693     		str	r3, [sp, #24]
 489              		.loc 1 87 0
 490 0162 069B     		ldr	r3, [sp, #24]
 491 0164 002B     		cmp	r3, #0
 492 0166 0FD0     		beq	.L31
 493              		.loc 1 88 0
 494 0168 0699     		ldr	r1, [sp, #24]
 495 016a 0398     		ldr	r0, [sp, #12]
 496 016c FFF7FEFF 		bl	parameter_variable_vector_read
 497 0170 0346     		mov	r3, r0
 498 0172 0593     		str	r3, [sp, #20]
 499              		.loc 1 89 0
 500 0174 009B     		ldr	r3, [sp]
 501 0176 019A     		ldr	r2, [sp, #4]
 502 0178 0599     		ldr	r1, [sp, #20]
ARM GAS  C:\Users\PCHAUT~1\AppData\Local\Temp\ccmBgndF.s 			page 10


 503 017a 0698     		ldr	r0, [sp, #24]
 504 017c FFF7FEFF 		bl	print_array
 505              		.loc 1 90 0
 506 0180 0698     		ldr	r0, [sp, #24]
 507 0182 FFF7FEFF 		bl	free
 508              		.loc 1 94 0
 509 0186 05E0     		b	.L15
 510              	.L31:
 511              		.loc 1 92 0
 512 0188 019B     		ldr	r3, [sp, #4]
 513 018a 104A     		ldr	r2, .L34+36
 514 018c 1149     		ldr	r1, .L34+44
 515 018e 0098     		ldr	r0, [sp]
 516 0190 9847     		blx	r3
 517              	.LVL16:
 518              		.loc 1 94 0
 519 0192 00BF     		nop
 520              	.L15:
 521              	.LBE4:
 522              		.loc 1 97 0
 523 0194 044B     		ldr	r3, .L34
 524 0196 0B9A     		ldr	r2, [sp, #44]
 525 0198 1B68     		ldr	r3, [r3]
 526 019a 9A42     		cmp	r2, r3
 527 019c 01D0     		beq	.L33
 528 019e FFF7FEFF 		bl	__stack_chk_fail
 529              	.L33:
 530 01a2 0CB0     		add	sp, sp, #48
 531              		.cfi_def_cfa_offset 8
 532              		@ sp needed
 533 01a4 10BD     		pop	{r4, pc}
 534              	.L35:
 535 01a6 00BF     		.align	2
 536              	.L34:
 537 01a8 00000000 		.word	__stack_chk_guard
 538 01ac 18000000 		.word	.LC5
 539 01b0 20000000 		.word	.LC6
 540 01b4 24000000 		.word	.LC7
 541 01b8 28000000 		.word	.LC8
 542 01bc 2C000000 		.word	.LC9
 543 01c0 34000000 		.word	.LC10
 544 01c4 3C000000 		.word	.LC11
 545 01c8 40000000 		.word	.LC12
 546 01cc 48000000 		.word	.LC13
 547 01d0 78000000 		.word	.LC14
 548 01d4 80000000 		.word	.LC15
 549              		.cfi_endproc
 550              	.LFE2:
 551              		.size	param_entry_print, .-param_entry_print
 552              		.section	.rodata
 553 0087 00       		.align	2
 554              	.LC16:
 555 0088 25733A0A 		.ascii	"%s:\012\000"
 555      00
 556              		.section	.text.param_ns_print,"ax",%progbits
 557              		.align	1
 558              		.p2align 4,,15
ARM GAS  C:\Users\PCHAUT~1\AppData\Local\Temp\ccmBgndF.s 			page 11


 559              		.syntax unified
 560              		.thumb
 561              		.thumb_func
 562              		.fpu fpv4-sp-d16
 563              		.type	param_ns_print, %function
 564              	param_ns_print:
 565              	.LFB3:
 566              		.loc 1 104 0
 567              		.cfi_startproc
 568              		@ args = 0, pretend = 0, frame = 32
 569              		@ frame_needed = 0, uses_anonymous_args = 0
 570 0000 00B5     		push	{lr}
 571              		.cfi_def_cfa_offset 4
 572              		.cfi_offset 14, -4
 573 0002 89B0     		sub	sp, sp, #36
 574              		.cfi_def_cfa_offset 40
 575 0004 0390     		str	r0, [sp, #12]
 576 0006 0291     		str	r1, [sp, #8]
 577 0008 0192     		str	r2, [sp, #4]
 578 000a 0093     		str	r3, [sp]
 579              		.loc 1 104 0
 580 000c 1C4B     		ldr	r3, .L42
 581 000e 1B68     		ldr	r3, [r3]
 582 0010 0793     		str	r3, [sp, #28]
 583              		.loc 1 105 0
 584 0012 039B     		ldr	r3, [sp, #12]
 585 0014 5B69     		ldr	r3, [r3, #20]
 586 0016 0593     		str	r3, [sp, #20]
 587              		.loc 1 106 0
 588 0018 08E0     		b	.L37
 589              	.L38:
 590              		.loc 1 107 0
 591 001a 009B     		ldr	r3, [sp]
 592 001c 019A     		ldr	r2, [sp, #4]
 593 001e 0299     		ldr	r1, [sp, #8]
 594 0020 0598     		ldr	r0, [sp, #20]
 595 0022 FFF7FEFF 		bl	param_entry_print
 596              		.loc 1 108 0
 597 0026 059B     		ldr	r3, [sp, #20]
 598 0028 9B68     		ldr	r3, [r3, #8]
 599 002a 0593     		str	r3, [sp, #20]
 600              	.L37:
 601              		.loc 1 106 0
 602 002c 059B     		ldr	r3, [sp, #20]
 603 002e 002B     		cmp	r3, #0
 604 0030 F3D1     		bne	.L38
 605              		.loc 1 110 0
 606 0032 039B     		ldr	r3, [sp, #12]
 607 0034 DB68     		ldr	r3, [r3, #12]
 608 0036 0693     		str	r3, [sp, #24]
 609              		.loc 1 111 0
 610 0038 14E0     		b	.L39
 611              	.L40:
 612              		.loc 1 112 0
 613 003a 009A     		ldr	r2, [sp]
 614 003c 0199     		ldr	r1, [sp, #4]
 615 003e 0298     		ldr	r0, [sp, #8]
ARM GAS  C:\Users\PCHAUT~1\AppData\Local\Temp\ccmBgndF.s 			page 12


 616 0040 FFF7FEFF 		bl	indent
 617              		.loc 1 113 0
 618 0044 069B     		ldr	r3, [sp, #24]
 619 0046 1A68     		ldr	r2, [r3]
 620 0048 019B     		ldr	r3, [sp, #4]
 621 004a 0E49     		ldr	r1, .L42+4
 622 004c 0098     		ldr	r0, [sp]
 623 004e 9847     		blx	r3
 624              	.LVL17:
 625              		.loc 1 114 0
 626 0050 029B     		ldr	r3, [sp, #8]
 627 0052 591C     		adds	r1, r3, #1
 628 0054 009B     		ldr	r3, [sp]
 629 0056 019A     		ldr	r2, [sp, #4]
 630 0058 0698     		ldr	r0, [sp, #24]
 631 005a FFF7D1FF 		bl	param_ns_print
 632              		.loc 1 115 0
 633 005e 069B     		ldr	r3, [sp, #24]
 634 0060 1B69     		ldr	r3, [r3, #16]
 635 0062 0693     		str	r3, [sp, #24]
 636              	.L39:
 637              		.loc 1 111 0
 638 0064 069B     		ldr	r3, [sp, #24]
 639 0066 002B     		cmp	r3, #0
 640 0068 E7D1     		bne	.L40
 641              		.loc 1 117 0
 642 006a 00BF     		nop
 643 006c 044B     		ldr	r3, .L42
 644 006e 079A     		ldr	r2, [sp, #28]
 645 0070 1B68     		ldr	r3, [r3]
 646 0072 9A42     		cmp	r2, r3
 647 0074 01D0     		beq	.L41
 648 0076 FFF7FEFF 		bl	__stack_chk_fail
 649              	.L41:
 650 007a 09B0     		add	sp, sp, #36
 651              		.cfi_def_cfa_offset 4
 652              		@ sp needed
 653 007c 5DF804FB 		ldr	pc, [sp], #4
 654              	.L43:
 655              		.align	2
 656              	.L42:
 657 0080 00000000 		.word	__stack_chk_guard
 658 0084 88000000 		.word	.LC16
 659              		.cfi_endproc
 660              	.LFE3:
 661              		.size	param_ns_print, .-param_ns_print
 662              		.section	.text.parameter_print,"ax",%progbits
 663              		.align	1
 664              		.p2align 4,,15
 665              		.global	parameter_print
 666              		.syntax unified
 667              		.thumb
 668              		.thumb_func
 669              		.fpu fpv4-sp-d16
 670              		.type	parameter_print, %function
 671              	parameter_print:
 672              	.LFB4:
ARM GAS  C:\Users\PCHAUT~1\AppData\Local\Temp\ccmBgndF.s 			page 13


 673              		.loc 1 123 0
 674              		.cfi_startproc
 675              		@ args = 0, pretend = 0, frame = 24
 676              		@ frame_needed = 0, uses_anonymous_args = 0
 677 0000 00B5     		push	{lr}
 678              		.cfi_def_cfa_offset 4
 679              		.cfi_offset 14, -4
 680 0002 87B0     		sub	sp, sp, #28
 681              		.cfi_def_cfa_offset 32
 682 0004 0390     		str	r0, [sp, #12]
 683 0006 0291     		str	r1, [sp, #8]
 684 0008 0192     		str	r2, [sp, #4]
 685              		.loc 1 123 0
 686 000a 0A4B     		ldr	r3, .L46
 687 000c 1B68     		ldr	r3, [r3]
 688 000e 0593     		str	r3, [sp, #20]
 689              		.loc 1 124 0
 690 0010 019B     		ldr	r3, [sp, #4]
 691 0012 029A     		ldr	r2, [sp, #8]
 692 0014 0021     		movs	r1, #0
 693 0016 0398     		ldr	r0, [sp, #12]
 694 0018 FFF7FEFF 		bl	param_ns_print
 695              		.loc 1 125 0
 696 001c 00BF     		nop
 697 001e 054B     		ldr	r3, .L46
 698 0020 059A     		ldr	r2, [sp, #20]
 699 0022 1B68     		ldr	r3, [r3]
 700 0024 9A42     		cmp	r2, r3
 701 0026 01D0     		beq	.L45
 702 0028 FFF7FEFF 		bl	__stack_chk_fail
 703              	.L45:
 704 002c 07B0     		add	sp, sp, #28
 705              		.cfi_def_cfa_offset 4
 706              		@ sp needed
 707 002e 5DF804FB 		ldr	pc, [sp], #4
 708              	.L47:
 709 0032 00BF     		.align	2
 710              	.L46:
 711 0034 00000000 		.word	__stack_chk_guard
 712              		.cfi_endproc
 713              	.LFE4:
 714              		.size	parameter_print, .-parameter_print
 715              		.text
 716              	.Letext0:
 717              		.file 2 "c:\\users\\pchautems\\documents\\robotiquetp\\eclipse_e-puck2\\tools\\gcc-arm-none-eabi-7
 718              		.file 3 "c:\\users\\pchautems\\documents\\robotiquetp\\eclipse_e-puck2\\tools\\gcc-arm-none-eabi-7
 719              		.file 4 "c:\\users\\pchautems\\documents\\robotiquetp\\eclipse_e-puck2\\tools\\gcc-arm-none-eabi-7
 720              		.file 5 "c:\\users\\pchautems\\documents\\robotiquetp\\eclipse_e-puck2\\tools\\gcc-arm-none-eabi-7
 721              		.file 6 "c:\\users\\pchautems\\documents\\robotiquetp\\eclipse_e-puck2\\tools\\gcc-arm-none-eabi-7
 722              		.file 7 "c:\\users\\pchautems\\documents\\robotiquetp\\eclipse_e-puck2\\tools\\gcc-arm-none-eabi-7
 723              		.file 8 "c:\\users\\pchautems\\documents\\robotiquetp\\eclipse_e-puck2\\tools\\gcc-arm-none-eabi-7
 724              		.file 9 "../lib/e-puck2_main-processor/src/parameter/parameter.h"
 725              		.file 10 "../lib/e-puck2_main-processor/src/parameter/parameter_print.h"
 726              		.section	.debug_info,"",%progbits
 727              	.Ldebug_info0:
 728 0000 C50C0000 		.4byte	0xcc5
 729 0004 0400     		.2byte	0x4
ARM GAS  C:\Users\PCHAUT~1\AppData\Local\Temp\ccmBgndF.s 			page 14


 730 0006 00000000 		.4byte	.Ldebug_abbrev0
 731 000a 04       		.byte	0x4
 732 000b 01       		.uleb128 0x1
 733 000c 90010000 		.4byte	.LASF156
 734 0010 0C       		.byte	0xc
 735 0011 9F060000 		.4byte	.LASF157
 736 0015 A2050000 		.4byte	.LASF158
 737 0019 00000000 		.4byte	.Ldebug_ranges0+0
 738 001d 00000000 		.4byte	0
 739 0021 00000000 		.4byte	.Ldebug_line0
 740 0025 02       		.uleb128 0x2
 741 0026 01       		.byte	0x1
 742 0027 06       		.byte	0x6
 743 0028 1A010000 		.4byte	.LASF0
 744 002c 03       		.uleb128 0x3
 745 002d 2B000000 		.4byte	.LASF3
 746 0031 02       		.byte	0x2
 747 0032 2B       		.byte	0x2b
 748 0033 37000000 		.4byte	0x37
 749 0037 02       		.uleb128 0x2
 750 0038 01       		.byte	0x1
 751 0039 08       		.byte	0x8
 752 003a 02050000 		.4byte	.LASF1
 753 003e 02       		.uleb128 0x2
 754 003f 02       		.byte	0x2
 755 0040 05       		.byte	0x5
 756 0041 1E050000 		.4byte	.LASF2
 757 0045 03       		.uleb128 0x3
 758 0046 63060000 		.4byte	.LASF4
 759 004a 02       		.byte	0x2
 760 004b 39       		.byte	0x39
 761 004c 50000000 		.4byte	0x50
 762 0050 02       		.uleb128 0x2
 763 0051 02       		.byte	0x2
 764 0052 07       		.byte	0x7
 765 0053 E9030000 		.4byte	.LASF5
 766 0057 03       		.uleb128 0x3
 767 0058 73060000 		.4byte	.LASF6
 768 005c 02       		.byte	0x2
 769 005d 4D       		.byte	0x4d
 770 005e 62000000 		.4byte	0x62
 771 0062 02       		.uleb128 0x2
 772 0063 04       		.byte	0x4
 773 0064 05       		.byte	0x5
 774 0065 87010000 		.4byte	.LASF7
 775 0069 02       		.uleb128 0x2
 776 006a 04       		.byte	0x4
 777 006b 07       		.byte	0x7
 778 006c CA030000 		.4byte	.LASF8
 779 0070 02       		.uleb128 0x2
 780 0071 08       		.byte	0x8
 781 0072 05       		.byte	0x5
 782 0073 0C010000 		.4byte	.LASF9
 783 0077 02       		.uleb128 0x2
 784 0078 08       		.byte	0x8
 785 0079 07       		.byte	0x7
 786 007a B0000000 		.4byte	.LASF10
ARM GAS  C:\Users\PCHAUT~1\AppData\Local\Temp\ccmBgndF.s 			page 15


 787 007e 04       		.uleb128 0x4
 788 007f 04       		.byte	0x4
 789 0080 05       		.byte	0x5
 790 0081 696E7400 		.ascii	"int\000"
 791 0085 02       		.uleb128 0x2
 792 0086 04       		.byte	0x4
 793 0087 07       		.byte	0x7
 794 0088 A6030000 		.4byte	.LASF11
 795 008c 03       		.uleb128 0x3
 796 008d 38070000 		.4byte	.LASF12
 797 0091 03       		.byte	0x3
 798 0092 18       		.byte	0x18
 799 0093 2C000000 		.4byte	0x2c
 800 0097 03       		.uleb128 0x3
 801 0098 F3020000 		.4byte	.LASF13
 802 009c 03       		.byte	0x3
 803 009d 24       		.byte	0x24
 804 009e 45000000 		.4byte	0x45
 805 00a2 03       		.uleb128 0x3
 806 00a3 FA040000 		.4byte	.LASF14
 807 00a7 03       		.byte	0x3
 808 00a8 2C       		.byte	0x2c
 809 00a9 57000000 		.4byte	0x57
 810 00ad 02       		.uleb128 0x2
 811 00ae 08       		.byte	0x8
 812 00af 04       		.byte	0x4
 813 00b0 75040000 		.4byte	.LASF15
 814 00b4 03       		.uleb128 0x3
 815 00b5 2C040000 		.4byte	.LASF16
 816 00b9 04       		.byte	0x4
 817 00ba 22       		.byte	0x22
 818 00bb BF000000 		.4byte	0xbf
 819 00bf 05       		.uleb128 0x5
 820 00c0 04       		.byte	0x4
 821 00c1 C5000000 		.4byte	0xc5
 822 00c5 06       		.uleb128 0x6
 823 00c6 25060000 		.4byte	.LASF123
 824 00ca 03       		.uleb128 0x3
 825 00cb C0040000 		.4byte	.LASF17
 826 00cf 05       		.byte	0x5
 827 00d0 2C       		.byte	0x2c
 828 00d1 62000000 		.4byte	0x62
 829 00d5 03       		.uleb128 0x3
 830 00d6 46060000 		.4byte	.LASF18
 831 00da 05       		.byte	0x5
 832 00db 72       		.byte	0x72
 833 00dc 62000000 		.4byte	0x62
 834 00e0 07       		.uleb128 0x7
 835 00e1 34040000 		.4byte	.LASF19
 836 00e5 06       		.byte	0x6
 837 00e6 6501     		.2byte	0x165
 838 00e8 85000000 		.4byte	0x85
 839 00ec 08       		.uleb128 0x8
 840 00ed 04       		.byte	0x4
 841 00ee 05       		.byte	0x5
 842 00ef A6       		.byte	0xa6
 843 00f0 0B010000 		.4byte	0x10b
ARM GAS  C:\Users\PCHAUT~1\AppData\Local\Temp\ccmBgndF.s 			page 16


 844 00f4 09       		.uleb128 0x9
 845 00f5 26040000 		.4byte	.LASF20
 846 00f9 05       		.byte	0x5
 847 00fa A8       		.byte	0xa8
 848 00fb E0000000 		.4byte	0xe0
 849 00ff 09       		.uleb128 0x9
 850 0100 B3030000 		.4byte	.LASF21
 851 0104 05       		.byte	0x5
 852 0105 A9       		.byte	0xa9
 853 0106 0B010000 		.4byte	0x10b
 854 010a 00       		.byte	0
 855 010b 0A       		.uleb128 0xa
 856 010c 37000000 		.4byte	0x37
 857 0110 1B010000 		.4byte	0x11b
 858 0114 0B       		.uleb128 0xb
 859 0115 85000000 		.4byte	0x85
 860 0119 03       		.byte	0x3
 861 011a 00       		.byte	0
 862 011b 0C       		.uleb128 0xc
 863 011c 08       		.byte	0x8
 864 011d 05       		.byte	0x5
 865 011e A3       		.byte	0xa3
 866 011f 3C010000 		.4byte	0x13c
 867 0123 0D       		.uleb128 0xd
 868 0124 1D060000 		.4byte	.LASF22
 869 0128 05       		.byte	0x5
 870 0129 A5       		.byte	0xa5
 871 012a 7E000000 		.4byte	0x7e
 872 012e 00       		.byte	0
 873 012f 0D       		.uleb128 0xd
 874 0130 2C060000 		.4byte	.LASF23
 875 0134 05       		.byte	0x5
 876 0135 AA       		.byte	0xaa
 877 0136 EC000000 		.4byte	0xec
 878 013a 04       		.byte	0x4
 879 013b 00       		.byte	0
 880 013c 03       		.uleb128 0x3
 881 013d 5A050000 		.4byte	.LASF24
 882 0141 05       		.byte	0x5
 883 0142 AB       		.byte	0xab
 884 0143 1B010000 		.4byte	0x11b
 885 0147 03       		.uleb128 0x3
 886 0148 55030000 		.4byte	.LASF25
 887 014c 05       		.byte	0x5
 888 014d AF       		.byte	0xaf
 889 014e B4000000 		.4byte	0xb4
 890 0152 0E       		.uleb128 0xe
 891 0153 04       		.byte	0x4
 892 0154 05       		.uleb128 0x5
 893 0155 04       		.byte	0x4
 894 0156 5A010000 		.4byte	0x15a
 895 015a 02       		.uleb128 0x2
 896 015b 01       		.byte	0x1
 897 015c 08       		.byte	0x8
 898 015d 55060000 		.4byte	.LASF26
 899 0161 0F       		.uleb128 0xf
 900 0162 5A010000 		.4byte	0x15a
ARM GAS  C:\Users\PCHAUT~1\AppData\Local\Temp\ccmBgndF.s 			page 17


 901 0166 03       		.uleb128 0x3
 902 0167 EE060000 		.4byte	.LASF27
 903 016b 07       		.byte	0x7
 904 016c 16       		.byte	0x16
 905 016d 69000000 		.4byte	0x69
 906 0171 10       		.uleb128 0x10
 907 0172 66030000 		.4byte	.LASF32
 908 0176 18       		.byte	0x18
 909 0177 07       		.byte	0x7
 910 0178 2F       		.byte	0x2f
 911 0179 C4010000 		.4byte	0x1c4
 912 017d 0D       		.uleb128 0xd
 913 017e 83060000 		.4byte	.LASF28
 914 0182 07       		.byte	0x7
 915 0183 31       		.byte	0x31
 916 0184 C4010000 		.4byte	0x1c4
 917 0188 00       		.byte	0
 918 0189 11       		.uleb128 0x11
 919 018a 5F6B00   		.ascii	"_k\000"
 920 018d 07       		.byte	0x7
 921 018e 32       		.byte	0x32
 922 018f 7E000000 		.4byte	0x7e
 923 0193 04       		.byte	0x4
 924 0194 0D       		.uleb128 0xd
 925 0195 08060000 		.4byte	.LASF29
 926 0199 07       		.byte	0x7
 927 019a 32       		.byte	0x32
 928 019b 7E000000 		.4byte	0x7e
 929 019f 08       		.byte	0x8
 930 01a0 0D       		.uleb128 0xd
 931 01a1 4F030000 		.4byte	.LASF30
 932 01a5 07       		.byte	0x7
 933 01a6 32       		.byte	0x32
 934 01a7 7E000000 		.4byte	0x7e
 935 01ab 0C       		.byte	0xc
 936 01ac 0D       		.uleb128 0xd
 937 01ad 23070000 		.4byte	.LASF31
 938 01b1 07       		.byte	0x7
 939 01b2 32       		.byte	0x32
 940 01b3 7E000000 		.4byte	0x7e
 941 01b7 10       		.byte	0x10
 942 01b8 11       		.uleb128 0x11
 943 01b9 5F7800   		.ascii	"_x\000"
 944 01bc 07       		.byte	0x7
 945 01bd 33       		.byte	0x33
 946 01be CA010000 		.4byte	0x1ca
 947 01c2 14       		.byte	0x14
 948 01c3 00       		.byte	0
 949 01c4 05       		.uleb128 0x5
 950 01c5 04       		.byte	0x4
 951 01c6 71010000 		.4byte	0x171
 952 01ca 0A       		.uleb128 0xa
 953 01cb 66010000 		.4byte	0x166
 954 01cf DA010000 		.4byte	0x1da
 955 01d3 0B       		.uleb128 0xb
 956 01d4 85000000 		.4byte	0x85
 957 01d8 00       		.byte	0
ARM GAS  C:\Users\PCHAUT~1\AppData\Local\Temp\ccmBgndF.s 			page 18


 958 01d9 00       		.byte	0
 959 01da 10       		.uleb128 0x10
 960 01db A1030000 		.4byte	.LASF33
 961 01df 24       		.byte	0x24
 962 01e0 07       		.byte	0x7
 963 01e1 37       		.byte	0x37
 964 01e2 53020000 		.4byte	0x253
 965 01e6 0D       		.uleb128 0xd
 966 01e7 03010000 		.4byte	.LASF34
 967 01eb 07       		.byte	0x7
 968 01ec 39       		.byte	0x39
 969 01ed 7E000000 		.4byte	0x7e
 970 01f1 00       		.byte	0
 971 01f2 0D       		.uleb128 0xd
 972 01f3 5A060000 		.4byte	.LASF35
 973 01f7 07       		.byte	0x7
 974 01f8 3A       		.byte	0x3a
 975 01f9 7E000000 		.4byte	0x7e
 976 01fd 04       		.byte	0x4
 977 01fe 0D       		.uleb128 0xd
 978 01ff 42010000 		.4byte	.LASF36
 979 0203 07       		.byte	0x7
 980 0204 3B       		.byte	0x3b
 981 0205 7E000000 		.4byte	0x7e
 982 0209 08       		.byte	0x8
 983 020a 0D       		.uleb128 0xd
 984 020b C7070000 		.4byte	.LASF37
 985 020f 07       		.byte	0x7
 986 0210 3C       		.byte	0x3c
 987 0211 7E000000 		.4byte	0x7e
 988 0215 0C       		.byte	0xc
 989 0216 0D       		.uleb128 0xd
 990 0217 9A040000 		.4byte	.LASF38
 991 021b 07       		.byte	0x7
 992 021c 3D       		.byte	0x3d
 993 021d 7E000000 		.4byte	0x7e
 994 0221 10       		.byte	0x10
 995 0222 0D       		.uleb128 0xd
 996 0223 62040000 		.4byte	.LASF39
 997 0227 07       		.byte	0x7
 998 0228 3E       		.byte	0x3e
 999 0229 7E000000 		.4byte	0x7e
 1000 022d 14       		.byte	0x14
 1001 022e 0D       		.uleb128 0xd
 1002 022f 28070000 		.4byte	.LASF40
 1003 0233 07       		.byte	0x7
 1004 0234 3F       		.byte	0x3f
 1005 0235 7E000000 		.4byte	0x7e
 1006 0239 18       		.byte	0x18
 1007 023a 0D       		.uleb128 0xd
 1008 023b 28050000 		.4byte	.LASF41
 1009 023f 07       		.byte	0x7
 1010 0240 40       		.byte	0x40
 1011 0241 7E000000 		.4byte	0x7e
 1012 0245 1C       		.byte	0x1c
 1013 0246 0D       		.uleb128 0xd
 1014 0247 8E070000 		.4byte	.LASF42
ARM GAS  C:\Users\PCHAUT~1\AppData\Local\Temp\ccmBgndF.s 			page 19


 1015 024b 07       		.byte	0x7
 1016 024c 41       		.byte	0x41
 1017 024d 7E000000 		.4byte	0x7e
 1018 0251 20       		.byte	0x20
 1019 0252 00       		.byte	0
 1020 0253 12       		.uleb128 0x12
 1021 0254 51010000 		.4byte	.LASF43
 1022 0258 0801     		.2byte	0x108
 1023 025a 07       		.byte	0x7
 1024 025b 4A       		.byte	0x4a
 1025 025c 93020000 		.4byte	0x293
 1026 0260 0D       		.uleb128 0xd
 1027 0261 42030000 		.4byte	.LASF44
 1028 0265 07       		.byte	0x7
 1029 0266 4B       		.byte	0x4b
 1030 0267 93020000 		.4byte	0x293
 1031 026b 00       		.byte	0
 1032 026c 0D       		.uleb128 0xd
 1033 026d 00000000 		.4byte	.LASF45
 1034 0271 07       		.byte	0x7
 1035 0272 4C       		.byte	0x4c
 1036 0273 93020000 		.4byte	0x293
 1037 0277 80       		.byte	0x80
 1038 0278 13       		.uleb128 0x13
 1039 0279 96060000 		.4byte	.LASF46
 1040 027d 07       		.byte	0x7
 1041 027e 4E       		.byte	0x4e
 1042 027f 66010000 		.4byte	0x166
 1043 0283 0001     		.2byte	0x100
 1044 0285 13       		.uleb128 0x13
 1045 0286 DB020000 		.4byte	.LASF47
 1046 028a 07       		.byte	0x7
 1047 028b 51       		.byte	0x51
 1048 028c 66010000 		.4byte	0x166
 1049 0290 0401     		.2byte	0x104
 1050 0292 00       		.byte	0
 1051 0293 0A       		.uleb128 0xa
 1052 0294 52010000 		.4byte	0x152
 1053 0298 A3020000 		.4byte	0x2a3
 1054 029c 0B       		.uleb128 0xb
 1055 029d 85000000 		.4byte	0x85
 1056 02a1 1F       		.byte	0x1f
 1057 02a2 00       		.byte	0
 1058 02a3 12       		.uleb128 0x12
 1059 02a4 A3040000 		.4byte	.LASF48
 1060 02a8 9001     		.2byte	0x190
 1061 02aa 07       		.byte	0x7
 1062 02ab 5D       		.byte	0x5d
 1063 02ac E1020000 		.4byte	0x2e1
 1064 02b0 0D       		.uleb128 0xd
 1065 02b1 83060000 		.4byte	.LASF28
 1066 02b5 07       		.byte	0x7
 1067 02b6 5E       		.byte	0x5e
 1068 02b7 E1020000 		.4byte	0x2e1
 1069 02bb 00       		.byte	0
 1070 02bc 0D       		.uleb128 0xd
 1071 02bd 9D050000 		.4byte	.LASF49
ARM GAS  C:\Users\PCHAUT~1\AppData\Local\Temp\ccmBgndF.s 			page 20


 1072 02c1 07       		.byte	0x7
 1073 02c2 5F       		.byte	0x5f
 1074 02c3 7E000000 		.4byte	0x7e
 1075 02c7 04       		.byte	0x4
 1076 02c8 0D       		.uleb128 0xd
 1077 02c9 4A030000 		.4byte	.LASF50
 1078 02cd 07       		.byte	0x7
 1079 02ce 61       		.byte	0x61
 1080 02cf E7020000 		.4byte	0x2e7
 1081 02d3 08       		.byte	0x8
 1082 02d4 0D       		.uleb128 0xd
 1083 02d5 51010000 		.4byte	.LASF43
 1084 02d9 07       		.byte	0x7
 1085 02da 62       		.byte	0x62
 1086 02db 53020000 		.4byte	0x253
 1087 02df 88       		.byte	0x88
 1088 02e0 00       		.byte	0
 1089 02e1 05       		.uleb128 0x5
 1090 02e2 04       		.byte	0x4
 1091 02e3 A3020000 		.4byte	0x2a3
 1092 02e7 0A       		.uleb128 0xa
 1093 02e8 F7020000 		.4byte	0x2f7
 1094 02ec F7020000 		.4byte	0x2f7
 1095 02f0 0B       		.uleb128 0xb
 1096 02f1 85000000 		.4byte	0x85
 1097 02f5 1F       		.byte	0x1f
 1098 02f6 00       		.byte	0
 1099 02f7 05       		.uleb128 0x5
 1100 02f8 04       		.byte	0x4
 1101 02f9 FD020000 		.4byte	0x2fd
 1102 02fd 14       		.uleb128 0x14
 1103 02fe 10       		.uleb128 0x10
 1104 02ff 32050000 		.4byte	.LASF51
 1105 0303 08       		.byte	0x8
 1106 0304 07       		.byte	0x7
 1107 0305 75       		.byte	0x75
 1108 0306 23030000 		.4byte	0x323
 1109 030a 0D       		.uleb128 0xd
 1110 030b 3C010000 		.4byte	.LASF52
 1111 030f 07       		.byte	0x7
 1112 0310 76       		.byte	0x76
 1113 0311 23030000 		.4byte	0x323
 1114 0315 00       		.byte	0
 1115 0316 0D       		.uleb128 0xd
 1116 0317 12000000 		.4byte	.LASF53
 1117 031b 07       		.byte	0x7
 1118 031c 77       		.byte	0x77
 1119 031d 7E000000 		.4byte	0x7e
 1120 0321 04       		.byte	0x4
 1121 0322 00       		.byte	0
 1122 0323 05       		.uleb128 0x5
 1123 0324 04       		.byte	0x4
 1124 0325 37000000 		.4byte	0x37
 1125 0329 10       		.uleb128 0x10
 1126 032a 65050000 		.4byte	.LASF54
 1127 032e 68       		.byte	0x68
 1128 032f 07       		.byte	0x7
ARM GAS  C:\Users\PCHAUT~1\AppData\Local\Temp\ccmBgndF.s 			page 21


 1129 0330 B5       		.byte	0xb5
 1130 0331 53040000 		.4byte	0x453
 1131 0335 11       		.uleb128 0x11
 1132 0336 5F7000   		.ascii	"_p\000"
 1133 0339 07       		.byte	0x7
 1134 033a B6       		.byte	0xb6
 1135 033b 23030000 		.4byte	0x323
 1136 033f 00       		.byte	0
 1137 0340 11       		.uleb128 0x11
 1138 0341 5F7200   		.ascii	"_r\000"
 1139 0344 07       		.byte	0x7
 1140 0345 B7       		.byte	0xb7
 1141 0346 7E000000 		.4byte	0x7e
 1142 034a 04       		.byte	0x4
 1143 034b 11       		.uleb128 0x11
 1144 034c 5F7700   		.ascii	"_w\000"
 1145 034f 07       		.byte	0x7
 1146 0350 B8       		.byte	0xb8
 1147 0351 7E000000 		.4byte	0x7e
 1148 0355 08       		.byte	0x8
 1149 0356 0D       		.uleb128 0xd
 1150 0357 D4020000 		.4byte	.LASF55
 1151 035b 07       		.byte	0x7
 1152 035c B9       		.byte	0xb9
 1153 035d 3E000000 		.4byte	0x3e
 1154 0361 0C       		.byte	0xc
 1155 0362 0D       		.uleb128 0xd
 1156 0363 DC030000 		.4byte	.LASF56
 1157 0367 07       		.byte	0x7
 1158 0368 BA       		.byte	0xba
 1159 0369 3E000000 		.4byte	0x3e
 1160 036d 0E       		.byte	0xe
 1161 036e 11       		.uleb128 0x11
 1162 036f 5F626600 		.ascii	"_bf\000"
 1163 0373 07       		.byte	0x7
 1164 0374 BB       		.byte	0xbb
 1165 0375 FE020000 		.4byte	0x2fe
 1166 0379 10       		.byte	0x10
 1167 037a 0D       		.uleb128 0xd
 1168 037b C7000000 		.4byte	.LASF57
 1169 037f 07       		.byte	0x7
 1170 0380 BC       		.byte	0xbc
 1171 0381 7E000000 		.4byte	0x7e
 1172 0385 18       		.byte	0x18
 1173 0386 0D       		.uleb128 0xd
 1174 0387 70010000 		.4byte	.LASF58
 1175 038b 07       		.byte	0x7
 1176 038c C3       		.byte	0xc3
 1177 038d 52010000 		.4byte	0x152
 1178 0391 1C       		.byte	0x1c
 1179 0392 0D       		.uleb128 0xd
 1180 0393 91030000 		.4byte	.LASF59
 1181 0397 07       		.byte	0x7
 1182 0398 C5       		.byte	0xc5
 1183 0399 AE050000 		.4byte	0x5ae
 1184 039d 20       		.byte	0x20
 1185 039e 0D       		.uleb128 0xd
ARM GAS  C:\Users\PCHAUT~1\AppData\Local\Temp\ccmBgndF.s 			page 22


 1186 039f 5B040000 		.4byte	.LASF60
 1187 03a3 07       		.byte	0x7
 1188 03a4 C7       		.byte	0xc7
 1189 03a5 D8050000 		.4byte	0x5d8
 1190 03a9 24       		.byte	0x24
 1191 03aa 0D       		.uleb128 0xd
 1192 03ab 34060000 		.4byte	.LASF61
 1193 03af 07       		.byte	0x7
 1194 03b0 CA       		.byte	0xca
 1195 03b1 FC050000 		.4byte	0x5fc
 1196 03b5 28       		.byte	0x28
 1197 03b6 0D       		.uleb128 0xd
 1198 03b7 A8070000 		.4byte	.LASF62
 1199 03bb 07       		.byte	0x7
 1200 03bc CB       		.byte	0xcb
 1201 03bd 16060000 		.4byte	0x616
 1202 03c1 2C       		.byte	0x2c
 1203 03c2 11       		.uleb128 0x11
 1204 03c3 5F756200 		.ascii	"_ub\000"
 1205 03c7 07       		.byte	0x7
 1206 03c8 CE       		.byte	0xce
 1207 03c9 FE020000 		.4byte	0x2fe
 1208 03cd 30       		.byte	0x30
 1209 03ce 11       		.uleb128 0x11
 1210 03cf 5F757000 		.ascii	"_up\000"
 1211 03d3 07       		.byte	0x7
 1212 03d4 CF       		.byte	0xcf
 1213 03d5 23030000 		.4byte	0x323
 1214 03d9 38       		.byte	0x38
 1215 03da 11       		.uleb128 0x11
 1216 03db 5F757200 		.ascii	"_ur\000"
 1217 03df 07       		.byte	0x7
 1218 03e0 D0       		.byte	0xd0
 1219 03e1 7E000000 		.4byte	0x7e
 1220 03e5 3C       		.byte	0x3c
 1221 03e6 0D       		.uleb128 0xd
 1222 03e7 2E010000 		.4byte	.LASF63
 1223 03eb 07       		.byte	0x7
 1224 03ec D3       		.byte	0xd3
 1225 03ed 1C060000 		.4byte	0x61c
 1226 03f1 40       		.byte	0x40
 1227 03f2 0D       		.uleb128 0xd
 1228 03f3 70070000 		.4byte	.LASF64
 1229 03f7 07       		.byte	0x7
 1230 03f8 D4       		.byte	0xd4
 1231 03f9 2C060000 		.4byte	0x62c
 1232 03fd 43       		.byte	0x43
 1233 03fe 11       		.uleb128 0x11
 1234 03ff 5F6C6200 		.ascii	"_lb\000"
 1235 0403 07       		.byte	0x7
 1236 0404 D7       		.byte	0xd7
 1237 0405 FE020000 		.4byte	0x2fe
 1238 0409 44       		.byte	0x44
 1239 040a 0D       		.uleb128 0xd
 1240 040b EA020000 		.4byte	.LASF65
 1241 040f 07       		.byte	0x7
 1242 0410 DA       		.byte	0xda
ARM GAS  C:\Users\PCHAUT~1\AppData\Local\Temp\ccmBgndF.s 			page 23


 1243 0411 7E000000 		.4byte	0x7e
 1244 0415 4C       		.byte	0x4c
 1245 0416 0D       		.uleb128 0xd
 1246 0417 1B030000 		.4byte	.LASF66
 1247 041b 07       		.byte	0x7
 1248 041c DB       		.byte	0xdb
 1249 041d CA000000 		.4byte	0xca
 1250 0421 50       		.byte	0x50
 1251 0422 0D       		.uleb128 0xd
 1252 0423 4D000000 		.4byte	.LASF67
 1253 0427 07       		.byte	0x7
 1254 0428 DE       		.byte	0xde
 1255 0429 71040000 		.4byte	0x471
 1256 042d 54       		.byte	0x54
 1257 042e 0D       		.uleb128 0xd
 1258 042f 3B040000 		.4byte	.LASF68
 1259 0433 07       		.byte	0x7
 1260 0434 E2       		.byte	0xe2
 1261 0435 47010000 		.4byte	0x147
 1262 0439 58       		.byte	0x58
 1263 043a 0D       		.uleb128 0xd
 1264 043b 6D050000 		.4byte	.LASF69
 1265 043f 07       		.byte	0x7
 1266 0440 E4       		.byte	0xe4
 1267 0441 3C010000 		.4byte	0x13c
 1268 0445 5C       		.byte	0x5c
 1269 0446 0D       		.uleb128 0xd
 1270 0447 48040000 		.4byte	.LASF70
 1271 044b 07       		.byte	0x7
 1272 044c E5       		.byte	0xe5
 1273 044d 7E000000 		.4byte	0x7e
 1274 0451 64       		.byte	0x64
 1275 0452 00       		.byte	0
 1276 0453 15       		.uleb128 0x15
 1277 0454 7E000000 		.4byte	0x7e
 1278 0458 71040000 		.4byte	0x471
 1279 045c 16       		.uleb128 0x16
 1280 045d 71040000 		.4byte	0x471
 1281 0461 16       		.uleb128 0x16
 1282 0462 52010000 		.4byte	0x152
 1283 0466 16       		.uleb128 0x16
 1284 0467 54010000 		.4byte	0x154
 1285 046b 16       		.uleb128 0x16
 1286 046c 7E000000 		.4byte	0x7e
 1287 0470 00       		.byte	0
 1288 0471 05       		.uleb128 0x5
 1289 0472 04       		.byte	0x4
 1290 0473 7C040000 		.4byte	0x47c
 1291 0477 0F       		.uleb128 0xf
 1292 0478 71040000 		.4byte	0x471
 1293 047c 17       		.uleb128 0x17
 1294 047d 10060000 		.4byte	.LASF71
 1295 0481 2804     		.2byte	0x428
 1296 0483 07       		.byte	0x7
 1297 0484 3902     		.2byte	0x239
 1298 0486 AE050000 		.4byte	0x5ae
 1299 048a 18       		.uleb128 0x18
ARM GAS  C:\Users\PCHAUT~1\AppData\Local\Temp\ccmBgndF.s 			page 24


 1300 048b 4E060000 		.4byte	.LASF72
 1301 048f 07       		.byte	0x7
 1302 0490 3B02     		.2byte	0x23b
 1303 0492 7E000000 		.4byte	0x7e
 1304 0496 00       		.byte	0
 1305 0497 18       		.uleb128 0x18
 1306 0498 E3020000 		.4byte	.LASF73
 1307 049c 07       		.byte	0x7
 1308 049d 4002     		.2byte	0x240
 1309 049f 83060000 		.4byte	0x683
 1310 04a3 04       		.byte	0x4
 1311 04a4 18       		.uleb128 0x18
 1312 04a5 BA030000 		.4byte	.LASF74
 1313 04a9 07       		.byte	0x7
 1314 04aa 4002     		.2byte	0x240
 1315 04ac 83060000 		.4byte	0x683
 1316 04b0 08       		.byte	0x8
 1317 04b1 18       		.uleb128 0x18
 1318 04b2 5E030000 		.4byte	.LASF75
 1319 04b6 07       		.byte	0x7
 1320 04b7 4002     		.2byte	0x240
 1321 04b9 83060000 		.4byte	0x683
 1322 04bd 0C       		.byte	0xc
 1323 04be 18       		.uleb128 0x18
 1324 04bf 98050000 		.4byte	.LASF76
 1325 04c3 07       		.byte	0x7
 1326 04c4 4202     		.2byte	0x242
 1327 04c6 7E000000 		.4byte	0x7e
 1328 04ca 10       		.byte	0x10
 1329 04cb 18       		.uleb128 0x18
 1330 04cc 20000000 		.4byte	.LASF77
 1331 04d0 07       		.byte	0x7
 1332 04d1 4302     		.2byte	0x243
 1333 04d3 65080000 		.4byte	0x865
 1334 04d7 14       		.byte	0x14
 1335 04d8 18       		.uleb128 0x18
 1336 04d9 EF050000 		.4byte	.LASF78
 1337 04dd 07       		.byte	0x7
 1338 04de 4602     		.2byte	0x246
 1339 04e0 7E000000 		.4byte	0x7e
 1340 04e4 30       		.byte	0x30
 1341 04e5 18       		.uleb128 0x18
 1342 04e6 DD050000 		.4byte	.LASF79
 1343 04ea 07       		.byte	0x7
 1344 04eb 4702     		.2byte	0x247
 1345 04ed 7A080000 		.4byte	0x87a
 1346 04f1 34       		.byte	0x34
 1347 04f2 18       		.uleb128 0x18
 1348 04f3 B5040000 		.4byte	.LASF80
 1349 04f7 07       		.byte	0x7
 1350 04f8 4902     		.2byte	0x249
 1351 04fa 7E000000 		.4byte	0x7e
 1352 04fe 38       		.byte	0x38
 1353 04ff 18       		.uleb128 0x18
 1354 0500 E5050000 		.4byte	.LASF81
 1355 0504 07       		.byte	0x7
 1356 0505 4B02     		.2byte	0x24b
ARM GAS  C:\Users\PCHAUT~1\AppData\Local\Temp\ccmBgndF.s 			page 25


 1357 0507 8B080000 		.4byte	0x88b
 1358 050b 3C       		.byte	0x3c
 1359 050c 18       		.uleb128 0x18
 1360 050d 1E040000 		.4byte	.LASF82
 1361 0511 07       		.byte	0x7
 1362 0512 4E02     		.2byte	0x24e
 1363 0514 C4010000 		.4byte	0x1c4
 1364 0518 40       		.byte	0x40
 1365 0519 18       		.uleb128 0x18
 1366 051a 97030000 		.4byte	.LASF83
 1367 051e 07       		.byte	0x7
 1368 051f 4F02     		.2byte	0x24f
 1369 0521 7E000000 		.4byte	0x7e
 1370 0525 44       		.byte	0x44
 1371 0526 18       		.uleb128 0x18
 1372 0527 C2070000 		.4byte	.LASF84
 1373 052b 07       		.byte	0x7
 1374 052c 5002     		.2byte	0x250
 1375 052e C4010000 		.4byte	0x1c4
 1376 0532 48       		.byte	0x48
 1377 0533 18       		.uleb128 0x18
 1378 0534 CD040000 		.4byte	.LASF85
 1379 0538 07       		.byte	0x7
 1380 0539 5102     		.2byte	0x251
 1381 053b 91080000 		.4byte	0x891
 1382 053f 4C       		.byte	0x4c
 1383 0540 18       		.uleb128 0x18
 1384 0541 C2030000 		.4byte	.LASF86
 1385 0545 07       		.byte	0x7
 1386 0546 5402     		.2byte	0x254
 1387 0548 7E000000 		.4byte	0x7e
 1388 054c 50       		.byte	0x50
 1389 054d 18       		.uleb128 0x18
 1390 054e 13030000 		.4byte	.LASF87
 1391 0552 07       		.byte	0x7
 1392 0553 5502     		.2byte	0x255
 1393 0555 54010000 		.4byte	0x154
 1394 0559 54       		.byte	0x54
 1395 055a 18       		.uleb128 0x18
 1396 055b 10050000 		.4byte	.LASF88
 1397 055f 07       		.byte	0x7
 1398 0560 7802     		.2byte	0x278
 1399 0562 43080000 		.4byte	0x843
 1400 0566 58       		.byte	0x58
 1401 0567 19       		.uleb128 0x19
 1402 0568 A3040000 		.4byte	.LASF48
 1403 056c 07       		.byte	0x7
 1404 056d 7C02     		.2byte	0x27c
 1405 056f E1020000 		.4byte	0x2e1
 1406 0573 4801     		.2byte	0x148
 1407 0575 19       		.uleb128 0x19
 1408 0576 FC030000 		.4byte	.LASF89
 1409 057a 07       		.byte	0x7
 1410 057b 7D02     		.2byte	0x27d
 1411 057d A3020000 		.4byte	0x2a3
 1412 0581 4C01     		.2byte	0x14c
 1413 0583 19       		.uleb128 0x19
ARM GAS  C:\Users\PCHAUT~1\AppData\Local\Temp\ccmBgndF.s 			page 26


 1414 0584 4A070000 		.4byte	.LASF90
 1415 0588 07       		.byte	0x7
 1416 0589 8102     		.2byte	0x281
 1417 058b A2080000 		.4byte	0x8a2
 1418 058f DC02     		.2byte	0x2dc
 1419 0591 19       		.uleb128 0x19
 1420 0592 7F010000 		.4byte	.LASF91
 1421 0596 07       		.byte	0x7
 1422 0597 8602     		.2byte	0x286
 1423 0599 48060000 		.4byte	0x648
 1424 059d E002     		.2byte	0x2e0
 1425 059f 19       		.uleb128 0x19
 1426 05a0 4C010000 		.4byte	.LASF92
 1427 05a4 07       		.byte	0x7
 1428 05a5 8802     		.2byte	0x288
 1429 05a7 AE080000 		.4byte	0x8ae
 1430 05ab EC02     		.2byte	0x2ec
 1431 05ad 00       		.byte	0
 1432 05ae 05       		.uleb128 0x5
 1433 05af 04       		.byte	0x4
 1434 05b0 53040000 		.4byte	0x453
 1435 05b4 15       		.uleb128 0x15
 1436 05b5 7E000000 		.4byte	0x7e
 1437 05b9 D2050000 		.4byte	0x5d2
 1438 05bd 16       		.uleb128 0x16
 1439 05be 71040000 		.4byte	0x471
 1440 05c2 16       		.uleb128 0x16
 1441 05c3 52010000 		.4byte	0x152
 1442 05c7 16       		.uleb128 0x16
 1443 05c8 D2050000 		.4byte	0x5d2
 1444 05cc 16       		.uleb128 0x16
 1445 05cd 7E000000 		.4byte	0x7e
 1446 05d1 00       		.byte	0
 1447 05d2 05       		.uleb128 0x5
 1448 05d3 04       		.byte	0x4
 1449 05d4 61010000 		.4byte	0x161
 1450 05d8 05       		.uleb128 0x5
 1451 05d9 04       		.byte	0x4
 1452 05da B4050000 		.4byte	0x5b4
 1453 05de 15       		.uleb128 0x15
 1454 05df D5000000 		.4byte	0xd5
 1455 05e3 FC050000 		.4byte	0x5fc
 1456 05e7 16       		.uleb128 0x16
 1457 05e8 71040000 		.4byte	0x471
 1458 05ec 16       		.uleb128 0x16
 1459 05ed 52010000 		.4byte	0x152
 1460 05f1 16       		.uleb128 0x16
 1461 05f2 D5000000 		.4byte	0xd5
 1462 05f6 16       		.uleb128 0x16
 1463 05f7 7E000000 		.4byte	0x7e
 1464 05fb 00       		.byte	0
 1465 05fc 05       		.uleb128 0x5
 1466 05fd 04       		.byte	0x4
 1467 05fe DE050000 		.4byte	0x5de
 1468 0602 15       		.uleb128 0x15
 1469 0603 7E000000 		.4byte	0x7e
 1470 0607 16060000 		.4byte	0x616
ARM GAS  C:\Users\PCHAUT~1\AppData\Local\Temp\ccmBgndF.s 			page 27


 1471 060b 16       		.uleb128 0x16
 1472 060c 71040000 		.4byte	0x471
 1473 0610 16       		.uleb128 0x16
 1474 0611 52010000 		.4byte	0x152
 1475 0615 00       		.byte	0
 1476 0616 05       		.uleb128 0x5
 1477 0617 04       		.byte	0x4
 1478 0618 02060000 		.4byte	0x602
 1479 061c 0A       		.uleb128 0xa
 1480 061d 37000000 		.4byte	0x37
 1481 0621 2C060000 		.4byte	0x62c
 1482 0625 0B       		.uleb128 0xb
 1483 0626 85000000 		.4byte	0x85
 1484 062a 02       		.byte	0x2
 1485 062b 00       		.byte	0
 1486 062c 0A       		.uleb128 0xa
 1487 062d 37000000 		.4byte	0x37
 1488 0631 3C060000 		.4byte	0x63c
 1489 0635 0B       		.uleb128 0xb
 1490 0636 85000000 		.4byte	0x85
 1491 063a 00       		.byte	0
 1492 063b 00       		.byte	0
 1493 063c 07       		.uleb128 0x7
 1494 063d 53050000 		.4byte	.LASF93
 1495 0641 07       		.byte	0x7
 1496 0642 1F01     		.2byte	0x11f
 1497 0644 29030000 		.4byte	0x329
 1498 0648 1A       		.uleb128 0x1a
 1499 0649 32070000 		.4byte	.LASF94
 1500 064d 0C       		.byte	0xc
 1501 064e 07       		.byte	0x7
 1502 064f 2301     		.2byte	0x123
 1503 0651 7D060000 		.4byte	0x67d
 1504 0655 18       		.uleb128 0x18
 1505 0656 83060000 		.4byte	.LASF28
 1506 065a 07       		.byte	0x7
 1507 065b 2501     		.2byte	0x125
 1508 065d 7D060000 		.4byte	0x67d
 1509 0661 00       		.byte	0
 1510 0662 18       		.uleb128 0x18
 1511 0663 E2030000 		.4byte	.LASF95
 1512 0667 07       		.byte	0x7
 1513 0668 2601     		.2byte	0x126
 1514 066a 7E000000 		.4byte	0x7e
 1515 066e 04       		.byte	0x4
 1516 066f 18       		.uleb128 0x18
 1517 0670 4D050000 		.4byte	.LASF96
 1518 0674 07       		.byte	0x7
 1519 0675 2701     		.2byte	0x127
 1520 0677 83060000 		.4byte	0x683
 1521 067b 08       		.byte	0x8
 1522 067c 00       		.byte	0
 1523 067d 05       		.uleb128 0x5
 1524 067e 04       		.byte	0x4
 1525 067f 48060000 		.4byte	0x648
 1526 0683 05       		.uleb128 0x5
 1527 0684 04       		.byte	0x4
ARM GAS  C:\Users\PCHAUT~1\AppData\Local\Temp\ccmBgndF.s 			page 28


 1528 0685 3C060000 		.4byte	0x63c
 1529 0689 1A       		.uleb128 0x1a
 1530 068a 18000000 		.4byte	.LASF97
 1531 068e 0E       		.byte	0xe
 1532 068f 07       		.byte	0x7
 1533 0690 3F01     		.2byte	0x13f
 1534 0692 BE060000 		.4byte	0x6be
 1535 0696 18       		.uleb128 0x18
 1536 0697 17060000 		.4byte	.LASF98
 1537 069b 07       		.byte	0x7
 1538 069c 4001     		.2byte	0x140
 1539 069e BE060000 		.4byte	0x6be
 1540 06a2 00       		.byte	0
 1541 06a3 18       		.uleb128 0x18
 1542 06a4 7D060000 		.4byte	.LASF99
 1543 06a8 07       		.byte	0x7
 1544 06a9 4101     		.2byte	0x141
 1545 06ab BE060000 		.4byte	0x6be
 1546 06af 06       		.byte	0x6
 1547 06b0 18       		.uleb128 0x18
 1548 06b1 E9060000 		.4byte	.LASF100
 1549 06b5 07       		.byte	0x7
 1550 06b6 4201     		.2byte	0x142
 1551 06b8 50000000 		.4byte	0x50
 1552 06bc 0C       		.byte	0xc
 1553 06bd 00       		.byte	0
 1554 06be 0A       		.uleb128 0xa
 1555 06bf 50000000 		.4byte	0x50
 1556 06c3 CE060000 		.4byte	0x6ce
 1557 06c7 0B       		.uleb128 0xb
 1558 06c8 85000000 		.4byte	0x85
 1559 06cc 02       		.byte	0x2
 1560 06cd 00       		.byte	0
 1561 06ce 1B       		.uleb128 0x1b
 1562 06cf D0       		.byte	0xd0
 1563 06d0 07       		.byte	0x7
 1564 06d1 5902     		.2byte	0x259
 1565 06d3 CF070000 		.4byte	0x7cf
 1566 06d7 18       		.uleb128 0x18
 1567 06d8 16070000 		.4byte	.LASF101
 1568 06dc 07       		.byte	0x7
 1569 06dd 5B02     		.2byte	0x25b
 1570 06df 85000000 		.4byte	0x85
 1571 06e3 00       		.byte	0
 1572 06e4 18       		.uleb128 0x18
 1573 06e5 89060000 		.4byte	.LASF102
 1574 06e9 07       		.byte	0x7
 1575 06ea 5C02     		.2byte	0x25c
 1576 06ec 54010000 		.4byte	0x154
 1577 06f0 04       		.byte	0x4
 1578 06f1 18       		.uleb128 0x18
 1579 06f2 11040000 		.4byte	.LASF103
 1580 06f6 07       		.byte	0x7
 1581 06f7 5D02     		.2byte	0x25d
 1582 06f9 CF070000 		.4byte	0x7cf
 1583 06fd 08       		.byte	0x8
 1584 06fe 18       		.uleb128 0x18
ARM GAS  C:\Users\PCHAUT~1\AppData\Local\Temp\ccmBgndF.s 			page 29


 1585 06ff 99070000 		.4byte	.LASF104
 1586 0703 07       		.byte	0x7
 1587 0704 5E02     		.2byte	0x25e
 1588 0706 DA010000 		.4byte	0x1da
 1589 070a 24       		.byte	0x24
 1590 070b 18       		.uleb128 0x18
 1591 070c 6E030000 		.4byte	.LASF105
 1592 0710 07       		.byte	0x7
 1593 0711 5F02     		.2byte	0x25f
 1594 0713 7E000000 		.4byte	0x7e
 1595 0717 48       		.byte	0x48
 1596 0718 18       		.uleb128 0x18
 1597 0719 76050000 		.4byte	.LASF106
 1598 071d 07       		.byte	0x7
 1599 071e 6002     		.2byte	0x260
 1600 0720 77000000 		.4byte	0x77
 1601 0724 50       		.byte	0x50
 1602 0725 18       		.uleb128 0x18
 1603 0726 AF070000 		.4byte	.LASF107
 1604 072a 07       		.byte	0x7
 1605 072b 6102     		.2byte	0x261
 1606 072d 89060000 		.4byte	0x689
 1607 0731 58       		.byte	0x58
 1608 0732 18       		.uleb128 0x18
 1609 0733 8B050000 		.4byte	.LASF108
 1610 0737 07       		.byte	0x7
 1611 0738 6202     		.2byte	0x262
 1612 073a 3C010000 		.4byte	0x13c
 1613 073e 68       		.byte	0x68
 1614 073f 18       		.uleb128 0x18
 1615 0740 B4070000 		.4byte	.LASF109
 1616 0744 07       		.byte	0x7
 1617 0745 6302     		.2byte	0x263
 1618 0747 3C010000 		.4byte	0x13c
 1619 074b 70       		.byte	0x70
 1620 074c 18       		.uleb128 0x18
 1621 074d E6040000 		.4byte	.LASF110
 1622 0751 07       		.byte	0x7
 1623 0752 6402     		.2byte	0x264
 1624 0754 3C010000 		.4byte	0x13c
 1625 0758 78       		.byte	0x78
 1626 0759 18       		.uleb128 0x18
 1627 075a 40070000 		.4byte	.LASF111
 1628 075e 07       		.byte	0x7
 1629 075f 6502     		.2byte	0x265
 1630 0761 DF070000 		.4byte	0x7df
 1631 0765 80       		.byte	0x80
 1632 0766 18       		.uleb128 0x18
 1633 0767 05040000 		.4byte	.LASF112
 1634 076b 07       		.byte	0x7
 1635 076c 6602     		.2byte	0x266
 1636 076e EF070000 		.4byte	0x7ef
 1637 0772 88       		.byte	0x88
 1638 0773 18       		.uleb128 0x18
 1639 0774 F6060000 		.4byte	.LASF113
 1640 0778 07       		.byte	0x7
 1641 0779 6702     		.2byte	0x267
ARM GAS  C:\Users\PCHAUT~1\AppData\Local\Temp\ccmBgndF.s 			page 30


 1642 077b 7E000000 		.4byte	0x7e
 1643 077f A0       		.byte	0xa0
 1644 0780 18       		.uleb128 0x18
 1645 0781 34030000 		.4byte	.LASF114
 1646 0785 07       		.byte	0x7
 1647 0786 6802     		.2byte	0x268
 1648 0788 3C010000 		.4byte	0x13c
 1649 078c A4       		.byte	0xa4
 1650 078d 18       		.uleb128 0x18
 1651 078e EF000000 		.4byte	.LASF115
 1652 0792 07       		.byte	0x7
 1653 0793 6902     		.2byte	0x269
 1654 0795 3C010000 		.4byte	0x13c
 1655 0799 AC       		.byte	0xac
 1656 079a 18       		.uleb128 0x18
 1657 079b 23030000 		.4byte	.LASF116
 1658 079f 07       		.byte	0x7
 1659 07a0 6A02     		.2byte	0x26a
 1660 07a2 3C010000 		.4byte	0x13c
 1661 07a6 B4       		.byte	0xb4
 1662 07a7 18       		.uleb128 0x18
 1663 07a8 84000000 		.4byte	.LASF117
 1664 07ac 07       		.byte	0x7
 1665 07ad 6B02     		.2byte	0x26b
 1666 07af 3C010000 		.4byte	0x13c
 1667 07b3 BC       		.byte	0xbc
 1668 07b4 18       		.uleb128 0x18
 1669 07b5 9F000000 		.4byte	.LASF118
 1670 07b9 07       		.byte	0x7
 1671 07ba 6C02     		.2byte	0x26c
 1672 07bc 3C010000 		.4byte	0x13c
 1673 07c0 C4       		.byte	0xc4
 1674 07c1 18       		.uleb128 0x18
 1675 07c2 15050000 		.4byte	.LASF119
 1676 07c6 07       		.byte	0x7
 1677 07c7 6D02     		.2byte	0x26d
 1678 07c9 7E000000 		.4byte	0x7e
 1679 07cd CC       		.byte	0xcc
 1680 07ce 00       		.byte	0
 1681 07cf 0A       		.uleb128 0xa
 1682 07d0 5A010000 		.4byte	0x15a
 1683 07d4 DF070000 		.4byte	0x7df
 1684 07d8 0B       		.uleb128 0xb
 1685 07d9 85000000 		.4byte	0x85
 1686 07dd 19       		.byte	0x19
 1687 07de 00       		.byte	0
 1688 07df 0A       		.uleb128 0xa
 1689 07e0 5A010000 		.4byte	0x15a
 1690 07e4 EF070000 		.4byte	0x7ef
 1691 07e8 0B       		.uleb128 0xb
 1692 07e9 85000000 		.4byte	0x85
 1693 07ed 07       		.byte	0x7
 1694 07ee 00       		.byte	0
 1695 07ef 0A       		.uleb128 0xa
 1696 07f0 5A010000 		.4byte	0x15a
 1697 07f4 FF070000 		.4byte	0x7ff
 1698 07f8 0B       		.uleb128 0xb
ARM GAS  C:\Users\PCHAUT~1\AppData\Local\Temp\ccmBgndF.s 			page 31


 1699 07f9 85000000 		.4byte	0x85
 1700 07fd 17       		.byte	0x17
 1701 07fe 00       		.byte	0
 1702 07ff 1B       		.uleb128 0x1b
 1703 0800 F0       		.byte	0xf0
 1704 0801 07       		.byte	0x7
 1705 0802 7202     		.2byte	0x272
 1706 0804 23080000 		.4byte	0x823
 1707 0808 18       		.uleb128 0x18
 1708 0809 81040000 		.4byte	.LASF120
 1709 080d 07       		.byte	0x7
 1710 080e 7502     		.2byte	0x275
 1711 0810 23080000 		.4byte	0x823
 1712 0814 00       		.byte	0
 1713 0815 18       		.uleb128 0x18
 1714 0816 6C040000 		.4byte	.LASF121
 1715 081a 07       		.byte	0x7
 1716 081b 7602     		.2byte	0x276
 1717 081d 33080000 		.4byte	0x833
 1718 0821 78       		.byte	0x78
 1719 0822 00       		.byte	0
 1720 0823 0A       		.uleb128 0xa
 1721 0824 23030000 		.4byte	0x323
 1722 0828 33080000 		.4byte	0x833
 1723 082c 0B       		.uleb128 0xb
 1724 082d 85000000 		.4byte	0x85
 1725 0831 1D       		.byte	0x1d
 1726 0832 00       		.byte	0
 1727 0833 0A       		.uleb128 0xa
 1728 0834 85000000 		.4byte	0x85
 1729 0838 43080000 		.4byte	0x843
 1730 083c 0B       		.uleb128 0xb
 1731 083d 85000000 		.4byte	0x85
 1732 0841 1D       		.byte	0x1d
 1733 0842 00       		.byte	0
 1734 0843 1C       		.uleb128 0x1c
 1735 0844 F0       		.byte	0xf0
 1736 0845 07       		.byte	0x7
 1737 0846 5702     		.2byte	0x257
 1738 0848 65080000 		.4byte	0x865
 1739 084c 1D       		.uleb128 0x1d
 1740 084d 10060000 		.4byte	.LASF71
 1741 0851 07       		.byte	0x7
 1742 0852 6E02     		.2byte	0x26e
 1743 0854 CE060000 		.4byte	0x6ce
 1744 0858 1D       		.uleb128 0x1d
 1745 0859 76070000 		.4byte	.LASF122
 1746 085d 07       		.byte	0x7
 1747 085e 7702     		.2byte	0x277
 1748 0860 FF070000 		.4byte	0x7ff
 1749 0864 00       		.byte	0
 1750 0865 0A       		.uleb128 0xa
 1751 0866 5A010000 		.4byte	0x15a
 1752 086a 75080000 		.4byte	0x875
 1753 086e 0B       		.uleb128 0xb
 1754 086f 85000000 		.4byte	0x85
 1755 0873 18       		.byte	0x18
ARM GAS  C:\Users\PCHAUT~1\AppData\Local\Temp\ccmBgndF.s 			page 32


 1756 0874 00       		.byte	0
 1757 0875 06       		.uleb128 0x6
 1758 0876 D0000000 		.4byte	.LASF124
 1759 087a 05       		.uleb128 0x5
 1760 087b 04       		.byte	0x4
 1761 087c 75080000 		.4byte	0x875
 1762 0880 1E       		.uleb128 0x1e
 1763 0881 8B080000 		.4byte	0x88b
 1764 0885 16       		.uleb128 0x16
 1765 0886 71040000 		.4byte	0x471
 1766 088a 00       		.byte	0
 1767 088b 05       		.uleb128 0x5
 1768 088c 04       		.byte	0x4
 1769 088d 80080000 		.4byte	0x880
 1770 0891 05       		.uleb128 0x5
 1771 0892 04       		.byte	0x4
 1772 0893 C4010000 		.4byte	0x1c4
 1773 0897 1E       		.uleb128 0x1e
 1774 0898 A2080000 		.4byte	0x8a2
 1775 089c 16       		.uleb128 0x16
 1776 089d 7E000000 		.4byte	0x7e
 1777 08a1 00       		.byte	0
 1778 08a2 05       		.uleb128 0x5
 1779 08a3 04       		.byte	0x4
 1780 08a4 A8080000 		.4byte	0x8a8
 1781 08a8 05       		.uleb128 0x5
 1782 08a9 04       		.byte	0x4
 1783 08aa 97080000 		.4byte	0x897
 1784 08ae 0A       		.uleb128 0xa
 1785 08af 3C060000 		.4byte	0x63c
 1786 08b3 BE080000 		.4byte	0x8be
 1787 08b7 0B       		.uleb128 0xb
 1788 08b8 85000000 		.4byte	0x85
 1789 08bc 02       		.byte	0x2
 1790 08bd 00       		.byte	0
 1791 08be 1F       		.uleb128 0x1f
 1792 08bf 3A060000 		.4byte	.LASF125
 1793 08c3 07       		.byte	0x7
 1794 08c4 0703     		.2byte	0x307
 1795 08c6 71040000 		.4byte	0x471
 1796 08ca 1F       		.uleb128 0x1f
 1797 08cb 03070000 		.4byte	.LASF126
 1798 08cf 07       		.byte	0x7
 1799 08d0 0803     		.2byte	0x308
 1800 08d2 77040000 		.4byte	0x477
 1801 08d6 20       		.uleb128 0x20
 1802 08d7 AB040000 		.4byte	.LASF127
 1803 08db 08       		.byte	0x8
 1804 08dc 63       		.byte	0x63
 1805 08dd 54010000 		.4byte	0x154
 1806 08e1 03       		.uleb128 0x3
 1807 08e2 6E000000 		.4byte	.LASF128
 1808 08e6 09       		.byte	0x9
 1809 08e7 08       		.byte	0x8
 1810 08e8 EC080000 		.4byte	0x8ec
 1811 08ec 10       		.uleb128 0x10
 1812 08ed 58000000 		.4byte	.LASF129
ARM GAS  C:\Users\PCHAUT~1\AppData\Local\Temp\ccmBgndF.s 			page 33


 1813 08f1 18       		.byte	0x18
 1814 08f2 09       		.byte	0x9
 1815 08f3 0B       		.byte	0xb
 1816 08f4 40090000 		.4byte	0x940
 1817 08f8 11       		.uleb128 0x11
 1818 08f9 696400   		.ascii	"id\000"
 1819 08fc 09       		.byte	0x9
 1820 08fd 0C       		.byte	0xc
 1821 08fe D2050000 		.4byte	0x5d2
 1822 0902 00       		.byte	0
 1823 0903 0D       		.uleb128 0xd
 1824 0904 DD060000 		.4byte	.LASF130
 1825 0908 09       		.byte	0x9
 1826 0909 0D       		.byte	0xd
 1827 090a A2000000 		.4byte	0xa2
 1828 090e 04       		.byte	0x4
 1829 090f 0D       		.uleb128 0xd
 1830 0910 78010000 		.4byte	.LASF131
 1831 0914 09       		.byte	0x9
 1832 0915 0E       		.byte	0xe
 1833 0916 AA090000 		.4byte	0x9aa
 1834 091a 08       		.byte	0x8
 1835 091b 0D       		.uleb128 0xd
 1836 091c 81050000 		.4byte	.LASF132
 1837 0920 09       		.byte	0x9
 1838 0921 0F       		.byte	0xf
 1839 0922 AA090000 		.4byte	0x9aa
 1840 0926 0C       		.byte	0xc
 1841 0927 0D       		.uleb128 0xd
 1842 0928 FE000000 		.4byte	.LASF133
 1843 092c 09       		.byte	0x9
 1844 092d 10       		.byte	0x10
 1845 092e AA090000 		.4byte	0x9aa
 1846 0932 10       		.byte	0x10
 1847 0933 0D       		.uleb128 0xd
 1848 0934 04030000 		.4byte	.LASF134
 1849 0938 09       		.byte	0x9
 1850 0939 11       		.byte	0x11
 1851 093a B0090000 		.4byte	0x9b0
 1852 093e 14       		.byte	0x14
 1853 093f 00       		.byte	0
 1854 0940 03       		.uleb128 0x3
 1855 0941 DB000000 		.4byte	.LASF135
 1856 0945 09       		.byte	0x9
 1857 0946 09       		.byte	0x9
 1858 0947 4B090000 		.4byte	0x94b
 1859 094b 10       		.uleb128 0x10
 1860 094c 93000000 		.4byte	.LASF136
 1861 0950 18       		.byte	0x18
 1862 0951 09       		.byte	0x9
 1863 0952 2E       		.byte	0x2e
 1864 0953 AA090000 		.4byte	0x9aa
 1865 0957 11       		.uleb128 0x11
 1866 0958 696400   		.ascii	"id\000"
 1867 095b 09       		.byte	0x9
 1868 095c 2F       		.byte	0x2f
 1869 095d D2050000 		.4byte	0x5d2
ARM GAS  C:\Users\PCHAUT~1\AppData\Local\Temp\ccmBgndF.s 			page 34


 1870 0961 00       		.byte	0
 1871 0962 11       		.uleb128 0x11
 1872 0963 6E7300   		.ascii	"ns\000"
 1873 0966 09       		.byte	0x9
 1874 0967 30       		.byte	0x30
 1875 0968 AA090000 		.4byte	0x9aa
 1876 096c 04       		.byte	0x4
 1877 096d 0D       		.uleb128 0xd
 1878 096e FE000000 		.4byte	.LASF133
 1879 0972 09       		.byte	0x9
 1880 0973 31       		.byte	0x31
 1881 0974 B0090000 		.4byte	0x9b0
 1882 0978 08       		.byte	0x8
 1883 0979 0D       		.uleb128 0xd
 1884 097a 34010000 		.4byte	.LASF137
 1885 097e 09       		.byte	0x9
 1886 097f 32       		.byte	0x32
 1887 0980 970A0000 		.4byte	0xa97
 1888 0984 0C       		.byte	0xc
 1889 0985 0D       		.uleb128 0xd
 1890 0986 FC020000 		.4byte	.LASF138
 1891 098a 09       		.byte	0x9
 1892 098b 33       		.byte	0x33
 1893 098c 970A0000 		.4byte	0xa97
 1894 0990 0D       		.byte	0xd
 1895 0991 0D       		.uleb128 0xd
 1896 0992 53000000 		.4byte	.LASF139
 1897 0996 09       		.byte	0x9
 1898 0997 34       		.byte	0x34
 1899 0998 8C000000 		.4byte	0x8c
 1900 099c 0E       		.byte	0xe
 1901 099d 0D       		.uleb128 0xd
 1902 099e 0C000000 		.4byte	.LASF140
 1903 09a2 09       		.byte	0x9
 1904 09a3 3C       		.byte	0x3c
 1905 09a4 520A0000 		.4byte	0xa52
 1906 09a8 10       		.byte	0x10
 1907 09a9 00       		.byte	0
 1908 09aa 05       		.uleb128 0x5
 1909 09ab 04       		.byte	0x4
 1910 09ac E1080000 		.4byte	0x8e1
 1911 09b0 05       		.uleb128 0x5
 1912 09b1 04       		.byte	0x4
 1913 09b2 40090000 		.4byte	0x940
 1914 09b6 10       		.uleb128 0x10
 1915 09b7 5F010000 		.4byte	.LASF141
 1916 09bb 08       		.byte	0x8
 1917 09bc 09       		.byte	0x9
 1918 09bd 14       		.byte	0x14
 1919 09be E7090000 		.4byte	0x9e7
 1920 09c2 11       		.uleb128 0x11
 1921 09c3 62756600 		.ascii	"buf\000"
 1922 09c7 09       		.byte	0x9
 1923 09c8 15       		.byte	0x15
 1924 09c9 54010000 		.4byte	0x154
 1925 09cd 00       		.byte	0
 1926 09ce 0D       		.uleb128 0xd
ARM GAS  C:\Users\PCHAUT~1\AppData\Local\Temp\ccmBgndF.s 			page 35


 1927 09cf 26010000 		.4byte	.LASF142
 1928 09d3 09       		.byte	0x9
 1929 09d4 16       		.byte	0x16
 1930 09d5 97000000 		.4byte	0x97
 1931 09d9 04       		.byte	0x4
 1932 09da 11       		.uleb128 0x11
 1933 09db 6C656E00 		.ascii	"len\000"
 1934 09df 09       		.byte	0x9
 1935 09e0 17       		.byte	0x17
 1936 09e1 97000000 		.4byte	0x97
 1937 09e5 06       		.byte	0x6
 1938 09e6 00       		.byte	0
 1939 09e7 10       		.uleb128 0x10
 1940 09e8 39050000 		.4byte	.LASF143
 1941 09ec 08       		.byte	0x8
 1942 09ed 09       		.byte	0x9
 1943 09ee 1A       		.byte	0x1a
 1944 09ef 180A0000 		.4byte	0xa18
 1945 09f3 11       		.uleb128 0x11
 1946 09f4 62756600 		.ascii	"buf\000"
 1947 09f8 09       		.byte	0x9
 1948 09f9 1B       		.byte	0x1b
 1949 09fa 180A0000 		.4byte	0xa18
 1950 09fe 00       		.byte	0
 1951 09ff 0D       		.uleb128 0xd
 1952 0a00 E7000000 		.4byte	.LASF144
 1953 0a04 09       		.byte	0x9
 1954 0a05 1C       		.byte	0x1c
 1955 0a06 97000000 		.4byte	0x97
 1956 0a0a 04       		.byte	0x4
 1957 0a0b 11       		.uleb128 0x11
 1958 0a0c 64696D00 		.ascii	"dim\000"
 1959 0a10 09       		.byte	0x9
 1960 0a11 1D       		.byte	0x1d
 1961 0a12 97000000 		.4byte	0x97
 1962 0a16 06       		.byte	0x6
 1963 0a17 00       		.byte	0
 1964 0a18 05       		.uleb128 0x5
 1965 0a19 04       		.byte	0x4
 1966 0a1a 1E0A0000 		.4byte	0xa1e
 1967 0a1e 02       		.uleb128 0x2
 1968 0a1f 04       		.byte	0x4
 1969 0a20 04       		.byte	0x4
 1970 0a21 C7040000 		.4byte	.LASF145
 1971 0a25 10       		.uleb128 0x10
 1972 0a26 7D030000 		.4byte	.LASF146
 1973 0a2a 08       		.byte	0x8
 1974 0a2b 09       		.byte	0x9
 1975 0a2c 20       		.byte	0x20
 1976 0a2d 520A0000 		.4byte	0xa52
 1977 0a31 11       		.uleb128 0x11
 1978 0a32 62756600 		.ascii	"buf\000"
 1979 0a36 09       		.byte	0x9
 1980 0a37 21       		.byte	0x21
 1981 0a38 180A0000 		.4byte	0xa18
 1982 0a3c 00       		.byte	0
 1983 0a3d 11       		.uleb128 0x11
ARM GAS  C:\Users\PCHAUT~1\AppData\Local\Temp\ccmBgndF.s 			page 36


 1984 0a3e 6E00     		.ascii	"n\000"
 1985 0a40 09       		.byte	0x9
 1986 0a41 22       		.byte	0x22
 1987 0a42 97000000 		.4byte	0x97
 1988 0a46 04       		.byte	0x4
 1989 0a47 11       		.uleb128 0x11
 1990 0a48 6D00     		.ascii	"m\000"
 1991 0a4a 09       		.byte	0x9
 1992 0a4b 23       		.byte	0x23
 1993 0a4c 97000000 		.4byte	0x97
 1994 0a50 06       		.byte	0x6
 1995 0a51 00       		.byte	0
 1996 0a52 08       		.uleb128 0x8
 1997 0a53 08       		.byte	0x8
 1998 0a54 09       		.byte	0x9
 1999 0a55 35       		.byte	0x35
 2000 0a56 970A0000 		.4byte	0xa97
 2001 0a5a 21       		.uleb128 0x21
 2002 0a5b 6200     		.ascii	"b\000"
 2003 0a5d 09       		.byte	0x9
 2004 0a5e 36       		.byte	0x36
 2005 0a5f 970A0000 		.4byte	0xa97
 2006 0a63 21       		.uleb128 0x21
 2007 0a64 7300     		.ascii	"s\000"
 2008 0a66 09       		.byte	0x9
 2009 0a67 37       		.byte	0x37
 2010 0a68 1E0A0000 		.4byte	0xa1e
 2011 0a6c 21       		.uleb128 0x21
 2012 0a6d 6900     		.ascii	"i\000"
 2013 0a6f 09       		.byte	0x9
 2014 0a70 38       		.byte	0x38
 2015 0a71 A2000000 		.4byte	0xa2
 2016 0a75 21       		.uleb128 0x21
 2017 0a76 73747200 		.ascii	"str\000"
 2018 0a7a 09       		.byte	0x9
 2019 0a7b 39       		.byte	0x39
 2020 0a7c B6090000 		.4byte	0x9b6
 2021 0a80 09       		.uleb128 0x9
 2022 0a81 6E060000 		.4byte	.LASF147
 2023 0a85 09       		.byte	0x9
 2024 0a86 3A       		.byte	0x3a
 2025 0a87 E7090000 		.4byte	0x9e7
 2026 0a8b 21       		.uleb128 0x21
 2027 0a8c 6D617400 		.ascii	"mat\000"
 2028 0a90 09       		.byte	0x9
 2029 0a91 3B       		.byte	0x3b
 2030 0a92 250A0000 		.4byte	0xa25
 2031 0a96 00       		.byte	0
 2032 0a97 02       		.uleb128 0x2
 2033 0a98 01       		.byte	0x1
 2034 0a99 02       		.byte	0x2
 2035 0a9a F4040000 		.4byte	.LASF148
 2036 0a9e 03       		.uleb128 0x3
 2037 0a9f 5C070000 		.4byte	.LASF149
 2038 0aa3 0A       		.byte	0xa
 2039 0aa4 0A       		.byte	0xa
 2040 0aa5 A90A0000 		.4byte	0xaa9
ARM GAS  C:\Users\PCHAUT~1\AppData\Local\Temp\ccmBgndF.s 			page 37


 2041 0aa9 05       		.uleb128 0x5
 2042 0aaa 04       		.byte	0x4
 2043 0aab AF0A0000 		.4byte	0xaaf
 2044 0aaf 15       		.uleb128 0x15
 2045 0ab0 7E000000 		.4byte	0x7e
 2046 0ab4 C40A0000 		.4byte	0xac4
 2047 0ab8 16       		.uleb128 0x16
 2048 0ab9 52010000 		.4byte	0x152
 2049 0abd 16       		.uleb128 0x16
 2050 0abe D2050000 		.4byte	0x5d2
 2051 0ac2 22       		.uleb128 0x22
 2052 0ac3 00       		.byte	0
 2053 0ac4 23       		.uleb128 0x23
 2054 0ac5 7E070000 		.4byte	.LASF159
 2055 0ac9 01       		.byte	0x1
 2056 0aca 78       		.byte	0x78
 2057 0acb 00000000 		.4byte	.LFB4
 2058 0acf 38000000 		.4byte	.LFE4-.LFB4
 2059 0ad3 01       		.uleb128 0x1
 2060 0ad4 9C       		.byte	0x9c
 2061 0ad5 030B0000 		.4byte	0xb03
 2062 0ad9 24       		.uleb128 0x24
 2063 0ada 6E7300   		.ascii	"ns\000"
 2064 0add 01       		.byte	0x1
 2065 0ade 78       		.byte	0x78
 2066 0adf AA090000 		.4byte	0x9aa
 2067 0ae3 02       		.uleb128 0x2
 2068 0ae4 91       		.byte	0x91
 2069 0ae5 6C       		.sleb128 -20
 2070 0ae6 25       		.uleb128 0x25
 2071 0ae7 54070000 		.4byte	.LASF150
 2072 0aeb 01       		.byte	0x1
 2073 0aec 79       		.byte	0x79
 2074 0aed 9E0A0000 		.4byte	0xa9e
 2075 0af1 02       		.uleb128 0x2
 2076 0af2 91       		.byte	0x91
 2077 0af3 68       		.sleb128 -24
 2078 0af4 25       		.uleb128 0x25
 2079 0af5 35000000 		.4byte	.LASF151
 2080 0af9 01       		.byte	0x1
 2081 0afa 7A       		.byte	0x7a
 2082 0afb 52010000 		.4byte	0x152
 2083 0aff 02       		.uleb128 0x2
 2084 0b00 91       		.byte	0x91
 2085 0b01 64       		.sleb128 -28
 2086 0b02 00       		.byte	0
 2087 0b03 26       		.uleb128 0x26
 2088 0b04 D7040000 		.4byte	.LASF153
 2089 0b08 01       		.byte	0x1
 2090 0b09 64       		.byte	0x64
 2091 0b0a 00000000 		.4byte	.LFB3
 2092 0b0e 88000000 		.4byte	.LFE3-.LFB3
 2093 0b12 01       		.uleb128 0x1
 2094 0b13 9C       		.byte	0x9c
 2095 0b14 680B0000 		.4byte	0xb68
 2096 0b18 24       		.uleb128 0x24
 2097 0b19 6E7300   		.ascii	"ns\000"
ARM GAS  C:\Users\PCHAUT~1\AppData\Local\Temp\ccmBgndF.s 			page 38


 2098 0b1c 01       		.byte	0x1
 2099 0b1d 64       		.byte	0x64
 2100 0b1e AA090000 		.4byte	0x9aa
 2101 0b22 02       		.uleb128 0x2
 2102 0b23 91       		.byte	0x91
 2103 0b24 64       		.sleb128 -28
 2104 0b25 25       		.uleb128 0x25
 2105 0b26 50040000 		.4byte	.LASF152
 2106 0b2a 01       		.byte	0x1
 2107 0b2b 65       		.byte	0x65
 2108 0b2c 7E000000 		.4byte	0x7e
 2109 0b30 02       		.uleb128 0x2
 2110 0b31 91       		.byte	0x91
 2111 0b32 60       		.sleb128 -32
 2112 0b33 25       		.uleb128 0x25
 2113 0b34 54070000 		.4byte	.LASF150
 2114 0b38 01       		.byte	0x1
 2115 0b39 66       		.byte	0x66
 2116 0b3a 9E0A0000 		.4byte	0xa9e
 2117 0b3e 02       		.uleb128 0x2
 2118 0b3f 91       		.byte	0x91
 2119 0b40 5C       		.sleb128 -36
 2120 0b41 25       		.uleb128 0x25
 2121 0b42 35000000 		.4byte	.LASF151
 2122 0b46 01       		.byte	0x1
 2123 0b47 67       		.byte	0x67
 2124 0b48 52010000 		.4byte	0x152
 2125 0b4c 02       		.uleb128 0x2
 2126 0b4d 91       		.byte	0x91
 2127 0b4e 58       		.sleb128 -40
 2128 0b4f 27       		.uleb128 0x27
 2129 0b50 7000     		.ascii	"p\000"
 2130 0b52 01       		.byte	0x1
 2131 0b53 69       		.byte	0x69
 2132 0b54 B0090000 		.4byte	0x9b0
 2133 0b58 02       		.uleb128 0x2
 2134 0b59 91       		.byte	0x91
 2135 0b5a 6C       		.sleb128 -20
 2136 0b5b 27       		.uleb128 0x27
 2137 0b5c 6E00     		.ascii	"n\000"
 2138 0b5e 01       		.byte	0x1
 2139 0b5f 6E       		.byte	0x6e
 2140 0b60 AA090000 		.4byte	0x9aa
 2141 0b64 02       		.uleb128 0x2
 2142 0b65 91       		.byte	0x91
 2143 0b66 70       		.sleb128 -16
 2144 0b67 00       		.byte	0
 2145 0b68 26       		.uleb128 0x26
 2146 0b69 88040000 		.4byte	.LASF154
 2147 0b6d 01       		.byte	0x1
 2148 0b6e 24       		.byte	0x24
 2149 0b6f 00000000 		.4byte	.LFB2
 2150 0b73 D8010000 		.4byte	.LFE2-.LFB2
 2151 0b77 01       		.uleb128 0x1
 2152 0b78 9C       		.byte	0x9c
 2153 0b79 280C0000 		.4byte	0xc28
 2154 0b7d 24       		.uleb128 0x24
ARM GAS  C:\Users\PCHAUT~1\AppData\Local\Temp\ccmBgndF.s 			page 39


 2155 0b7e 7000     		.ascii	"p\000"
 2156 0b80 01       		.byte	0x1
 2157 0b81 24       		.byte	0x24
 2158 0b82 B0090000 		.4byte	0x9b0
 2159 0b86 02       		.uleb128 0x2
 2160 0b87 91       		.byte	0x91
 2161 0b88 54       		.sleb128 -44
 2162 0b89 25       		.uleb128 0x25
 2163 0b8a 50040000 		.4byte	.LASF152
 2164 0b8e 01       		.byte	0x1
 2165 0b8f 25       		.byte	0x25
 2166 0b90 7E000000 		.4byte	0x7e
 2167 0b94 02       		.uleb128 0x2
 2168 0b95 91       		.byte	0x91
 2169 0b96 50       		.sleb128 -48
 2170 0b97 25       		.uleb128 0x25
 2171 0b98 54070000 		.4byte	.LASF150
 2172 0b9c 01       		.byte	0x1
 2173 0b9d 26       		.byte	0x26
 2174 0b9e 9E0A0000 		.4byte	0xa9e
 2175 0ba2 02       		.uleb128 0x2
 2176 0ba3 91       		.byte	0x91
 2177 0ba4 4C       		.sleb128 -52
 2178 0ba5 25       		.uleb128 0x25
 2179 0ba6 35000000 		.4byte	.LASF151
 2180 0baa 01       		.byte	0x1
 2181 0bab 27       		.byte	0x27
 2182 0bac 52010000 		.4byte	0x152
 2183 0bb0 02       		.uleb128 0x2
 2184 0bb1 91       		.byte	0x91
 2185 0bb2 48       		.sleb128 -56
 2186 0bb3 28       		.uleb128 0x28
 2187 0bb4 BC000000 		.4byte	.LBB2
 2188 0bb8 48000000 		.4byte	.LBE2-.LBB2
 2189 0bbc DB0B0000 		.4byte	0xbdb
 2190 0bc0 27       		.uleb128 0x27
 2191 0bc1 6C656E00 		.ascii	"len\000"
 2192 0bc5 01       		.byte	0x1
 2193 0bc6 3D       		.byte	0x3d
 2194 0bc7 7E000000 		.4byte	0x7e
 2195 0bcb 02       		.uleb128 0x2
 2196 0bcc 91       		.byte	0x91
 2197 0bcd 6C       		.sleb128 -20
 2198 0bce 27       		.uleb128 0x27
 2199 0bcf 7300     		.ascii	"s\000"
 2200 0bd1 01       		.byte	0x1
 2201 0bd2 3E       		.byte	0x3e
 2202 0bd3 54010000 		.4byte	0x154
 2203 0bd7 02       		.uleb128 0x2
 2204 0bd8 91       		.byte	0x91
 2205 0bd9 70       		.sleb128 -16
 2206 0bda 00       		.byte	0
 2207 0bdb 28       		.uleb128 0x28
 2208 0bdc 04010000 		.4byte	.LBB3
 2209 0be0 46000000 		.4byte	.LBE3-.LBB3
 2210 0be4 030C0000 		.4byte	0xc03
 2211 0be8 27       		.uleb128 0x27
ARM GAS  C:\Users\PCHAUT~1\AppData\Local\Temp\ccmBgndF.s 			page 40


 2212 0be9 64696D00 		.ascii	"dim\000"
 2213 0bed 01       		.byte	0x1
 2214 0bee 49       		.byte	0x49
 2215 0bef 7E000000 		.4byte	0x7e
 2216 0bf3 02       		.uleb128 0x2
 2217 0bf4 91       		.byte	0x91
 2218 0bf5 64       		.sleb128 -28
 2219 0bf6 27       		.uleb128 0x27
 2220 0bf7 7600     		.ascii	"v\000"
 2221 0bf9 01       		.byte	0x1
 2222 0bfa 4A       		.byte	0x4a
 2223 0bfb 180A0000 		.4byte	0xa18
 2224 0bff 02       		.uleb128 0x2
 2225 0c00 91       		.byte	0x91
 2226 0c01 68       		.sleb128 -24
 2227 0c02 00       		.byte	0
 2228 0c03 29       		.uleb128 0x29
 2229 0c04 4A010000 		.4byte	.LBB4
 2230 0c08 4A000000 		.4byte	.LBE4-.LBB4
 2231 0c0c 27       		.uleb128 0x27
 2232 0c0d 64696D00 		.ascii	"dim\000"
 2233 0c11 01       		.byte	0x1
 2234 0c12 55       		.byte	0x55
 2235 0c13 7E000000 		.4byte	0x7e
 2236 0c17 02       		.uleb128 0x2
 2237 0c18 91       		.byte	0x91
 2238 0c19 5C       		.sleb128 -36
 2239 0c1a 27       		.uleb128 0x27
 2240 0c1b 7600     		.ascii	"v\000"
 2241 0c1d 01       		.byte	0x1
 2242 0c1e 56       		.byte	0x56
 2243 0c1f 180A0000 		.4byte	0xa18
 2244 0c23 02       		.uleb128 0x2
 2245 0c24 91       		.byte	0x91
 2246 0c25 60       		.sleb128 -32
 2247 0c26 00       		.byte	0
 2248 0c27 00       		.byte	0
 2249 0c28 26       		.uleb128 0x26
 2250 0c29 41000000 		.4byte	.LASF155
 2251 0c2d 01       		.byte	0x1
 2252 0c2e 12       		.byte	0x12
 2253 0c2f 00000000 		.4byte	.LFB1
 2254 0c33 A4000000 		.4byte	.LFE1-.LFB1
 2255 0c37 01       		.uleb128 0x1
 2256 0c38 9C       		.byte	0x9c
 2257 0c39 800C0000 		.4byte	0xc80
 2258 0c3d 24       		.uleb128 0x24
 2259 0c3e 6100     		.ascii	"a\000"
 2260 0c40 01       		.byte	0x1
 2261 0c41 12       		.byte	0x12
 2262 0c42 180A0000 		.4byte	0xa18
 2263 0c46 02       		.uleb128 0x2
 2264 0c47 91       		.byte	0x91
 2265 0c48 6C       		.sleb128 -20
 2266 0c49 24       		.uleb128 0x24
 2267 0c4a 6C656E00 		.ascii	"len\000"
 2268 0c4e 01       		.byte	0x1
ARM GAS  C:\Users\PCHAUT~1\AppData\Local\Temp\ccmBgndF.s 			page 41


 2269 0c4f 13       		.byte	0x13
 2270 0c50 7E000000 		.4byte	0x7e
 2271 0c54 02       		.uleb128 0x2
 2272 0c55 91       		.byte	0x91
 2273 0c56 68       		.sleb128 -24
 2274 0c57 25       		.uleb128 0x25
 2275 0c58 54070000 		.4byte	.LASF150
 2276 0c5c 01       		.byte	0x1
 2277 0c5d 14       		.byte	0x14
 2278 0c5e 9E0A0000 		.4byte	0xa9e
 2279 0c62 02       		.uleb128 0x2
 2280 0c63 91       		.byte	0x91
 2281 0c64 64       		.sleb128 -28
 2282 0c65 25       		.uleb128 0x25
 2283 0c66 35000000 		.4byte	.LASF151
 2284 0c6a 01       		.byte	0x1
 2285 0c6b 15       		.byte	0x15
 2286 0c6c 52010000 		.4byte	0x152
 2287 0c70 02       		.uleb128 0x2
 2288 0c71 91       		.byte	0x91
 2289 0c72 60       		.sleb128 -32
 2290 0c73 27       		.uleb128 0x27
 2291 0c74 6900     		.ascii	"i\000"
 2292 0c76 01       		.byte	0x1
 2293 0c77 18       		.byte	0x18
 2294 0c78 7E000000 		.4byte	0x7e
 2295 0c7c 02       		.uleb128 0x2
 2296 0c7d 91       		.byte	0x91
 2297 0c7e 70       		.sleb128 -16
 2298 0c7f 00       		.byte	0
 2299 0c80 2A       		.uleb128 0x2a
 2300 0c81 41040000 		.4byte	.LASF160
 2301 0c85 01       		.byte	0x1
 2302 0c86 07       		.byte	0x7
 2303 0c87 00000000 		.4byte	.LFB0
 2304 0c8b 4C000000 		.4byte	.LFE0-.LFB0
 2305 0c8f 01       		.uleb128 0x1
 2306 0c90 9C       		.byte	0x9c
 2307 0c91 25       		.uleb128 0x25
 2308 0c92 50040000 		.4byte	.LASF152
 2309 0c96 01       		.byte	0x1
 2310 0c97 07       		.byte	0x7
 2311 0c98 7E000000 		.4byte	0x7e
 2312 0c9c 02       		.uleb128 0x2
 2313 0c9d 91       		.byte	0x91
 2314 0c9e 6C       		.sleb128 -20
 2315 0c9f 25       		.uleb128 0x25
 2316 0ca0 54070000 		.4byte	.LASF150
 2317 0ca4 01       		.byte	0x1
 2318 0ca5 08       		.byte	0x8
 2319 0ca6 9E0A0000 		.4byte	0xa9e
 2320 0caa 02       		.uleb128 0x2
 2321 0cab 91       		.byte	0x91
 2322 0cac 68       		.sleb128 -24
 2323 0cad 25       		.uleb128 0x25
 2324 0cae 35000000 		.4byte	.LASF151
 2325 0cb2 01       		.byte	0x1
ARM GAS  C:\Users\PCHAUT~1\AppData\Local\Temp\ccmBgndF.s 			page 42


 2326 0cb3 09       		.byte	0x9
 2327 0cb4 52010000 		.4byte	0x152
 2328 0cb8 02       		.uleb128 0x2
 2329 0cb9 91       		.byte	0x91
 2330 0cba 64       		.sleb128 -28
 2331 0cbb 27       		.uleb128 0x27
 2332 0cbc 6900     		.ascii	"i\000"
 2333 0cbe 01       		.byte	0x1
 2334 0cbf 0B       		.byte	0xb
 2335 0cc0 7E000000 		.4byte	0x7e
 2336 0cc4 02       		.uleb128 0x2
 2337 0cc5 91       		.byte	0x91
 2338 0cc6 70       		.sleb128 -16
 2339 0cc7 00       		.byte	0
 2340 0cc8 00       		.byte	0
 2341              		.section	.debug_abbrev,"",%progbits
 2342              	.Ldebug_abbrev0:
 2343 0000 01       		.uleb128 0x1
 2344 0001 11       		.uleb128 0x11
 2345 0002 01       		.byte	0x1
 2346 0003 25       		.uleb128 0x25
 2347 0004 0E       		.uleb128 0xe
 2348 0005 13       		.uleb128 0x13
 2349 0006 0B       		.uleb128 0xb
 2350 0007 03       		.uleb128 0x3
 2351 0008 0E       		.uleb128 0xe
 2352 0009 1B       		.uleb128 0x1b
 2353 000a 0E       		.uleb128 0xe
 2354 000b 55       		.uleb128 0x55
 2355 000c 17       		.uleb128 0x17
 2356 000d 11       		.uleb128 0x11
 2357 000e 01       		.uleb128 0x1
 2358 000f 10       		.uleb128 0x10
 2359 0010 17       		.uleb128 0x17
 2360 0011 00       		.byte	0
 2361 0012 00       		.byte	0
 2362 0013 02       		.uleb128 0x2
 2363 0014 24       		.uleb128 0x24
 2364 0015 00       		.byte	0
 2365 0016 0B       		.uleb128 0xb
 2366 0017 0B       		.uleb128 0xb
 2367 0018 3E       		.uleb128 0x3e
 2368 0019 0B       		.uleb128 0xb
 2369 001a 03       		.uleb128 0x3
 2370 001b 0E       		.uleb128 0xe
 2371 001c 00       		.byte	0
 2372 001d 00       		.byte	0
 2373 001e 03       		.uleb128 0x3
 2374 001f 16       		.uleb128 0x16
 2375 0020 00       		.byte	0
 2376 0021 03       		.uleb128 0x3
 2377 0022 0E       		.uleb128 0xe
 2378 0023 3A       		.uleb128 0x3a
 2379 0024 0B       		.uleb128 0xb
 2380 0025 3B       		.uleb128 0x3b
 2381 0026 0B       		.uleb128 0xb
 2382 0027 49       		.uleb128 0x49
ARM GAS  C:\Users\PCHAUT~1\AppData\Local\Temp\ccmBgndF.s 			page 43


 2383 0028 13       		.uleb128 0x13
 2384 0029 00       		.byte	0
 2385 002a 00       		.byte	0
 2386 002b 04       		.uleb128 0x4
 2387 002c 24       		.uleb128 0x24
 2388 002d 00       		.byte	0
 2389 002e 0B       		.uleb128 0xb
 2390 002f 0B       		.uleb128 0xb
 2391 0030 3E       		.uleb128 0x3e
 2392 0031 0B       		.uleb128 0xb
 2393 0032 03       		.uleb128 0x3
 2394 0033 08       		.uleb128 0x8
 2395 0034 00       		.byte	0
 2396 0035 00       		.byte	0
 2397 0036 05       		.uleb128 0x5
 2398 0037 0F       		.uleb128 0xf
 2399 0038 00       		.byte	0
 2400 0039 0B       		.uleb128 0xb
 2401 003a 0B       		.uleb128 0xb
 2402 003b 49       		.uleb128 0x49
 2403 003c 13       		.uleb128 0x13
 2404 003d 00       		.byte	0
 2405 003e 00       		.byte	0
 2406 003f 06       		.uleb128 0x6
 2407 0040 13       		.uleb128 0x13
 2408 0041 00       		.byte	0
 2409 0042 03       		.uleb128 0x3
 2410 0043 0E       		.uleb128 0xe
 2411 0044 3C       		.uleb128 0x3c
 2412 0045 19       		.uleb128 0x19
 2413 0046 00       		.byte	0
 2414 0047 00       		.byte	0
 2415 0048 07       		.uleb128 0x7
 2416 0049 16       		.uleb128 0x16
 2417 004a 00       		.byte	0
 2418 004b 03       		.uleb128 0x3
 2419 004c 0E       		.uleb128 0xe
 2420 004d 3A       		.uleb128 0x3a
 2421 004e 0B       		.uleb128 0xb
 2422 004f 3B       		.uleb128 0x3b
 2423 0050 05       		.uleb128 0x5
 2424 0051 49       		.uleb128 0x49
 2425 0052 13       		.uleb128 0x13
 2426 0053 00       		.byte	0
 2427 0054 00       		.byte	0
 2428 0055 08       		.uleb128 0x8
 2429 0056 17       		.uleb128 0x17
 2430 0057 01       		.byte	0x1
 2431 0058 0B       		.uleb128 0xb
 2432 0059 0B       		.uleb128 0xb
 2433 005a 3A       		.uleb128 0x3a
 2434 005b 0B       		.uleb128 0xb
 2435 005c 3B       		.uleb128 0x3b
 2436 005d 0B       		.uleb128 0xb
 2437 005e 01       		.uleb128 0x1
 2438 005f 13       		.uleb128 0x13
 2439 0060 00       		.byte	0
ARM GAS  C:\Users\PCHAUT~1\AppData\Local\Temp\ccmBgndF.s 			page 44


 2440 0061 00       		.byte	0
 2441 0062 09       		.uleb128 0x9
 2442 0063 0D       		.uleb128 0xd
 2443 0064 00       		.byte	0
 2444 0065 03       		.uleb128 0x3
 2445 0066 0E       		.uleb128 0xe
 2446 0067 3A       		.uleb128 0x3a
 2447 0068 0B       		.uleb128 0xb
 2448 0069 3B       		.uleb128 0x3b
 2449 006a 0B       		.uleb128 0xb
 2450 006b 49       		.uleb128 0x49
 2451 006c 13       		.uleb128 0x13
 2452 006d 00       		.byte	0
 2453 006e 00       		.byte	0
 2454 006f 0A       		.uleb128 0xa
 2455 0070 01       		.uleb128 0x1
 2456 0071 01       		.byte	0x1
 2457 0072 49       		.uleb128 0x49
 2458 0073 13       		.uleb128 0x13
 2459 0074 01       		.uleb128 0x1
 2460 0075 13       		.uleb128 0x13
 2461 0076 00       		.byte	0
 2462 0077 00       		.byte	0
 2463 0078 0B       		.uleb128 0xb
 2464 0079 21       		.uleb128 0x21
 2465 007a 00       		.byte	0
 2466 007b 49       		.uleb128 0x49
 2467 007c 13       		.uleb128 0x13
 2468 007d 2F       		.uleb128 0x2f
 2469 007e 0B       		.uleb128 0xb
 2470 007f 00       		.byte	0
 2471 0080 00       		.byte	0
 2472 0081 0C       		.uleb128 0xc
 2473 0082 13       		.uleb128 0x13
 2474 0083 01       		.byte	0x1
 2475 0084 0B       		.uleb128 0xb
 2476 0085 0B       		.uleb128 0xb
 2477 0086 3A       		.uleb128 0x3a
 2478 0087 0B       		.uleb128 0xb
 2479 0088 3B       		.uleb128 0x3b
 2480 0089 0B       		.uleb128 0xb
 2481 008a 01       		.uleb128 0x1
 2482 008b 13       		.uleb128 0x13
 2483 008c 00       		.byte	0
 2484 008d 00       		.byte	0
 2485 008e 0D       		.uleb128 0xd
 2486 008f 0D       		.uleb128 0xd
 2487 0090 00       		.byte	0
 2488 0091 03       		.uleb128 0x3
 2489 0092 0E       		.uleb128 0xe
 2490 0093 3A       		.uleb128 0x3a
 2491 0094 0B       		.uleb128 0xb
 2492 0095 3B       		.uleb128 0x3b
 2493 0096 0B       		.uleb128 0xb
 2494 0097 49       		.uleb128 0x49
 2495 0098 13       		.uleb128 0x13
 2496 0099 38       		.uleb128 0x38
ARM GAS  C:\Users\PCHAUT~1\AppData\Local\Temp\ccmBgndF.s 			page 45


 2497 009a 0B       		.uleb128 0xb
 2498 009b 00       		.byte	0
 2499 009c 00       		.byte	0
 2500 009d 0E       		.uleb128 0xe
 2501 009e 0F       		.uleb128 0xf
 2502 009f 00       		.byte	0
 2503 00a0 0B       		.uleb128 0xb
 2504 00a1 0B       		.uleb128 0xb
 2505 00a2 00       		.byte	0
 2506 00a3 00       		.byte	0
 2507 00a4 0F       		.uleb128 0xf
 2508 00a5 26       		.uleb128 0x26
 2509 00a6 00       		.byte	0
 2510 00a7 49       		.uleb128 0x49
 2511 00a8 13       		.uleb128 0x13
 2512 00a9 00       		.byte	0
 2513 00aa 00       		.byte	0
 2514 00ab 10       		.uleb128 0x10
 2515 00ac 13       		.uleb128 0x13
 2516 00ad 01       		.byte	0x1
 2517 00ae 03       		.uleb128 0x3
 2518 00af 0E       		.uleb128 0xe
 2519 00b0 0B       		.uleb128 0xb
 2520 00b1 0B       		.uleb128 0xb
 2521 00b2 3A       		.uleb128 0x3a
 2522 00b3 0B       		.uleb128 0xb
 2523 00b4 3B       		.uleb128 0x3b
 2524 00b5 0B       		.uleb128 0xb
 2525 00b6 01       		.uleb128 0x1
 2526 00b7 13       		.uleb128 0x13
 2527 00b8 00       		.byte	0
 2528 00b9 00       		.byte	0
 2529 00ba 11       		.uleb128 0x11
 2530 00bb 0D       		.uleb128 0xd
 2531 00bc 00       		.byte	0
 2532 00bd 03       		.uleb128 0x3
 2533 00be 08       		.uleb128 0x8
 2534 00bf 3A       		.uleb128 0x3a
 2535 00c0 0B       		.uleb128 0xb
 2536 00c1 3B       		.uleb128 0x3b
 2537 00c2 0B       		.uleb128 0xb
 2538 00c3 49       		.uleb128 0x49
 2539 00c4 13       		.uleb128 0x13
 2540 00c5 38       		.uleb128 0x38
 2541 00c6 0B       		.uleb128 0xb
 2542 00c7 00       		.byte	0
 2543 00c8 00       		.byte	0
 2544 00c9 12       		.uleb128 0x12
 2545 00ca 13       		.uleb128 0x13
 2546 00cb 01       		.byte	0x1
 2547 00cc 03       		.uleb128 0x3
 2548 00cd 0E       		.uleb128 0xe
 2549 00ce 0B       		.uleb128 0xb
 2550 00cf 05       		.uleb128 0x5
 2551 00d0 3A       		.uleb128 0x3a
 2552 00d1 0B       		.uleb128 0xb
 2553 00d2 3B       		.uleb128 0x3b
ARM GAS  C:\Users\PCHAUT~1\AppData\Local\Temp\ccmBgndF.s 			page 46


 2554 00d3 0B       		.uleb128 0xb
 2555 00d4 01       		.uleb128 0x1
 2556 00d5 13       		.uleb128 0x13
 2557 00d6 00       		.byte	0
 2558 00d7 00       		.byte	0
 2559 00d8 13       		.uleb128 0x13
 2560 00d9 0D       		.uleb128 0xd
 2561 00da 00       		.byte	0
 2562 00db 03       		.uleb128 0x3
 2563 00dc 0E       		.uleb128 0xe
 2564 00dd 3A       		.uleb128 0x3a
 2565 00de 0B       		.uleb128 0xb
 2566 00df 3B       		.uleb128 0x3b
 2567 00e0 0B       		.uleb128 0xb
 2568 00e1 49       		.uleb128 0x49
 2569 00e2 13       		.uleb128 0x13
 2570 00e3 38       		.uleb128 0x38
 2571 00e4 05       		.uleb128 0x5
 2572 00e5 00       		.byte	0
 2573 00e6 00       		.byte	0
 2574 00e7 14       		.uleb128 0x14
 2575 00e8 15       		.uleb128 0x15
 2576 00e9 00       		.byte	0
 2577 00ea 27       		.uleb128 0x27
 2578 00eb 19       		.uleb128 0x19
 2579 00ec 00       		.byte	0
 2580 00ed 00       		.byte	0
 2581 00ee 15       		.uleb128 0x15
 2582 00ef 15       		.uleb128 0x15
 2583 00f0 01       		.byte	0x1
 2584 00f1 27       		.uleb128 0x27
 2585 00f2 19       		.uleb128 0x19
 2586 00f3 49       		.uleb128 0x49
 2587 00f4 13       		.uleb128 0x13
 2588 00f5 01       		.uleb128 0x1
 2589 00f6 13       		.uleb128 0x13
 2590 00f7 00       		.byte	0
 2591 00f8 00       		.byte	0
 2592 00f9 16       		.uleb128 0x16
 2593 00fa 05       		.uleb128 0x5
 2594 00fb 00       		.byte	0
 2595 00fc 49       		.uleb128 0x49
 2596 00fd 13       		.uleb128 0x13
 2597 00fe 00       		.byte	0
 2598 00ff 00       		.byte	0
 2599 0100 17       		.uleb128 0x17
 2600 0101 13       		.uleb128 0x13
 2601 0102 01       		.byte	0x1
 2602 0103 03       		.uleb128 0x3
 2603 0104 0E       		.uleb128 0xe
 2604 0105 0B       		.uleb128 0xb
 2605 0106 05       		.uleb128 0x5
 2606 0107 3A       		.uleb128 0x3a
 2607 0108 0B       		.uleb128 0xb
 2608 0109 3B       		.uleb128 0x3b
 2609 010a 05       		.uleb128 0x5
 2610 010b 01       		.uleb128 0x1
ARM GAS  C:\Users\PCHAUT~1\AppData\Local\Temp\ccmBgndF.s 			page 47


 2611 010c 13       		.uleb128 0x13
 2612 010d 00       		.byte	0
 2613 010e 00       		.byte	0
 2614 010f 18       		.uleb128 0x18
 2615 0110 0D       		.uleb128 0xd
 2616 0111 00       		.byte	0
 2617 0112 03       		.uleb128 0x3
 2618 0113 0E       		.uleb128 0xe
 2619 0114 3A       		.uleb128 0x3a
 2620 0115 0B       		.uleb128 0xb
 2621 0116 3B       		.uleb128 0x3b
 2622 0117 05       		.uleb128 0x5
 2623 0118 49       		.uleb128 0x49
 2624 0119 13       		.uleb128 0x13
 2625 011a 38       		.uleb128 0x38
 2626 011b 0B       		.uleb128 0xb
 2627 011c 00       		.byte	0
 2628 011d 00       		.byte	0
 2629 011e 19       		.uleb128 0x19
 2630 011f 0D       		.uleb128 0xd
 2631 0120 00       		.byte	0
 2632 0121 03       		.uleb128 0x3
 2633 0122 0E       		.uleb128 0xe
 2634 0123 3A       		.uleb128 0x3a
 2635 0124 0B       		.uleb128 0xb
 2636 0125 3B       		.uleb128 0x3b
 2637 0126 05       		.uleb128 0x5
 2638 0127 49       		.uleb128 0x49
 2639 0128 13       		.uleb128 0x13
 2640 0129 38       		.uleb128 0x38
 2641 012a 05       		.uleb128 0x5
 2642 012b 00       		.byte	0
 2643 012c 00       		.byte	0
 2644 012d 1A       		.uleb128 0x1a
 2645 012e 13       		.uleb128 0x13
 2646 012f 01       		.byte	0x1
 2647 0130 03       		.uleb128 0x3
 2648 0131 0E       		.uleb128 0xe
 2649 0132 0B       		.uleb128 0xb
 2650 0133 0B       		.uleb128 0xb
 2651 0134 3A       		.uleb128 0x3a
 2652 0135 0B       		.uleb128 0xb
 2653 0136 3B       		.uleb128 0x3b
 2654 0137 05       		.uleb128 0x5
 2655 0138 01       		.uleb128 0x1
 2656 0139 13       		.uleb128 0x13
 2657 013a 00       		.byte	0
 2658 013b 00       		.byte	0
 2659 013c 1B       		.uleb128 0x1b
 2660 013d 13       		.uleb128 0x13
 2661 013e 01       		.byte	0x1
 2662 013f 0B       		.uleb128 0xb
 2663 0140 0B       		.uleb128 0xb
 2664 0141 3A       		.uleb128 0x3a
 2665 0142 0B       		.uleb128 0xb
 2666 0143 3B       		.uleb128 0x3b
 2667 0144 05       		.uleb128 0x5
ARM GAS  C:\Users\PCHAUT~1\AppData\Local\Temp\ccmBgndF.s 			page 48


 2668 0145 01       		.uleb128 0x1
 2669 0146 13       		.uleb128 0x13
 2670 0147 00       		.byte	0
 2671 0148 00       		.byte	0
 2672 0149 1C       		.uleb128 0x1c
 2673 014a 17       		.uleb128 0x17
 2674 014b 01       		.byte	0x1
 2675 014c 0B       		.uleb128 0xb
 2676 014d 0B       		.uleb128 0xb
 2677 014e 3A       		.uleb128 0x3a
 2678 014f 0B       		.uleb128 0xb
 2679 0150 3B       		.uleb128 0x3b
 2680 0151 05       		.uleb128 0x5
 2681 0152 01       		.uleb128 0x1
 2682 0153 13       		.uleb128 0x13
 2683 0154 00       		.byte	0
 2684 0155 00       		.byte	0
 2685 0156 1D       		.uleb128 0x1d
 2686 0157 0D       		.uleb128 0xd
 2687 0158 00       		.byte	0
 2688 0159 03       		.uleb128 0x3
 2689 015a 0E       		.uleb128 0xe
 2690 015b 3A       		.uleb128 0x3a
 2691 015c 0B       		.uleb128 0xb
 2692 015d 3B       		.uleb128 0x3b
 2693 015e 05       		.uleb128 0x5
 2694 015f 49       		.uleb128 0x49
 2695 0160 13       		.uleb128 0x13
 2696 0161 00       		.byte	0
 2697 0162 00       		.byte	0
 2698 0163 1E       		.uleb128 0x1e
 2699 0164 15       		.uleb128 0x15
 2700 0165 01       		.byte	0x1
 2701 0166 27       		.uleb128 0x27
 2702 0167 19       		.uleb128 0x19
 2703 0168 01       		.uleb128 0x1
 2704 0169 13       		.uleb128 0x13
 2705 016a 00       		.byte	0
 2706 016b 00       		.byte	0
 2707 016c 1F       		.uleb128 0x1f
 2708 016d 34       		.uleb128 0x34
 2709 016e 00       		.byte	0
 2710 016f 03       		.uleb128 0x3
 2711 0170 0E       		.uleb128 0xe
 2712 0171 3A       		.uleb128 0x3a
 2713 0172 0B       		.uleb128 0xb
 2714 0173 3B       		.uleb128 0x3b
 2715 0174 05       		.uleb128 0x5
 2716 0175 49       		.uleb128 0x49
 2717 0176 13       		.uleb128 0x13
 2718 0177 3F       		.uleb128 0x3f
 2719 0178 19       		.uleb128 0x19
 2720 0179 3C       		.uleb128 0x3c
 2721 017a 19       		.uleb128 0x19
 2722 017b 00       		.byte	0
 2723 017c 00       		.byte	0
 2724 017d 20       		.uleb128 0x20
ARM GAS  C:\Users\PCHAUT~1\AppData\Local\Temp\ccmBgndF.s 			page 49


 2725 017e 34       		.uleb128 0x34
 2726 017f 00       		.byte	0
 2727 0180 03       		.uleb128 0x3
 2728 0181 0E       		.uleb128 0xe
 2729 0182 3A       		.uleb128 0x3a
 2730 0183 0B       		.uleb128 0xb
 2731 0184 3B       		.uleb128 0x3b
 2732 0185 0B       		.uleb128 0xb
 2733 0186 49       		.uleb128 0x49
 2734 0187 13       		.uleb128 0x13
 2735 0188 3F       		.uleb128 0x3f
 2736 0189 19       		.uleb128 0x19
 2737 018a 3C       		.uleb128 0x3c
 2738 018b 19       		.uleb128 0x19
 2739 018c 00       		.byte	0
 2740 018d 00       		.byte	0
 2741 018e 21       		.uleb128 0x21
 2742 018f 0D       		.uleb128 0xd
 2743 0190 00       		.byte	0
 2744 0191 03       		.uleb128 0x3
 2745 0192 08       		.uleb128 0x8
 2746 0193 3A       		.uleb128 0x3a
 2747 0194 0B       		.uleb128 0xb
 2748 0195 3B       		.uleb128 0x3b
 2749 0196 0B       		.uleb128 0xb
 2750 0197 49       		.uleb128 0x49
 2751 0198 13       		.uleb128 0x13
 2752 0199 00       		.byte	0
 2753 019a 00       		.byte	0
 2754 019b 22       		.uleb128 0x22
 2755 019c 18       		.uleb128 0x18
 2756 019d 00       		.byte	0
 2757 019e 00       		.byte	0
 2758 019f 00       		.byte	0
 2759 01a0 23       		.uleb128 0x23
 2760 01a1 2E       		.uleb128 0x2e
 2761 01a2 01       		.byte	0x1
 2762 01a3 3F       		.uleb128 0x3f
 2763 01a4 19       		.uleb128 0x19
 2764 01a5 03       		.uleb128 0x3
 2765 01a6 0E       		.uleb128 0xe
 2766 01a7 3A       		.uleb128 0x3a
 2767 01a8 0B       		.uleb128 0xb
 2768 01a9 3B       		.uleb128 0x3b
 2769 01aa 0B       		.uleb128 0xb
 2770 01ab 27       		.uleb128 0x27
 2771 01ac 19       		.uleb128 0x19
 2772 01ad 11       		.uleb128 0x11
 2773 01ae 01       		.uleb128 0x1
 2774 01af 12       		.uleb128 0x12
 2775 01b0 06       		.uleb128 0x6
 2776 01b1 40       		.uleb128 0x40
 2777 01b2 18       		.uleb128 0x18
 2778 01b3 9642     		.uleb128 0x2116
 2779 01b5 19       		.uleb128 0x19
 2780 01b6 01       		.uleb128 0x1
 2781 01b7 13       		.uleb128 0x13
ARM GAS  C:\Users\PCHAUT~1\AppData\Local\Temp\ccmBgndF.s 			page 50


 2782 01b8 00       		.byte	0
 2783 01b9 00       		.byte	0
 2784 01ba 24       		.uleb128 0x24
 2785 01bb 05       		.uleb128 0x5
 2786 01bc 00       		.byte	0
 2787 01bd 03       		.uleb128 0x3
 2788 01be 08       		.uleb128 0x8
 2789 01bf 3A       		.uleb128 0x3a
 2790 01c0 0B       		.uleb128 0xb
 2791 01c1 3B       		.uleb128 0x3b
 2792 01c2 0B       		.uleb128 0xb
 2793 01c3 49       		.uleb128 0x49
 2794 01c4 13       		.uleb128 0x13
 2795 01c5 02       		.uleb128 0x2
 2796 01c6 18       		.uleb128 0x18
 2797 01c7 00       		.byte	0
 2798 01c8 00       		.byte	0
 2799 01c9 25       		.uleb128 0x25
 2800 01ca 05       		.uleb128 0x5
 2801 01cb 00       		.byte	0
 2802 01cc 03       		.uleb128 0x3
 2803 01cd 0E       		.uleb128 0xe
 2804 01ce 3A       		.uleb128 0x3a
 2805 01cf 0B       		.uleb128 0xb
 2806 01d0 3B       		.uleb128 0x3b
 2807 01d1 0B       		.uleb128 0xb
 2808 01d2 49       		.uleb128 0x49
 2809 01d3 13       		.uleb128 0x13
 2810 01d4 02       		.uleb128 0x2
 2811 01d5 18       		.uleb128 0x18
 2812 01d6 00       		.byte	0
 2813 01d7 00       		.byte	0
 2814 01d8 26       		.uleb128 0x26
 2815 01d9 2E       		.uleb128 0x2e
 2816 01da 01       		.byte	0x1
 2817 01db 03       		.uleb128 0x3
 2818 01dc 0E       		.uleb128 0xe
 2819 01dd 3A       		.uleb128 0x3a
 2820 01de 0B       		.uleb128 0xb
 2821 01df 3B       		.uleb128 0x3b
 2822 01e0 0B       		.uleb128 0xb
 2823 01e1 27       		.uleb128 0x27
 2824 01e2 19       		.uleb128 0x19
 2825 01e3 11       		.uleb128 0x11
 2826 01e4 01       		.uleb128 0x1
 2827 01e5 12       		.uleb128 0x12
 2828 01e6 06       		.uleb128 0x6
 2829 01e7 40       		.uleb128 0x40
 2830 01e8 18       		.uleb128 0x18
 2831 01e9 9642     		.uleb128 0x2116
 2832 01eb 19       		.uleb128 0x19
 2833 01ec 01       		.uleb128 0x1
 2834 01ed 13       		.uleb128 0x13
 2835 01ee 00       		.byte	0
 2836 01ef 00       		.byte	0
 2837 01f0 27       		.uleb128 0x27
 2838 01f1 34       		.uleb128 0x34
ARM GAS  C:\Users\PCHAUT~1\AppData\Local\Temp\ccmBgndF.s 			page 51


 2839 01f2 00       		.byte	0
 2840 01f3 03       		.uleb128 0x3
 2841 01f4 08       		.uleb128 0x8
 2842 01f5 3A       		.uleb128 0x3a
 2843 01f6 0B       		.uleb128 0xb
 2844 01f7 3B       		.uleb128 0x3b
 2845 01f8 0B       		.uleb128 0xb
 2846 01f9 49       		.uleb128 0x49
 2847 01fa 13       		.uleb128 0x13
 2848 01fb 02       		.uleb128 0x2
 2849 01fc 18       		.uleb128 0x18
 2850 01fd 00       		.byte	0
 2851 01fe 00       		.byte	0
 2852 01ff 28       		.uleb128 0x28
 2853 0200 0B       		.uleb128 0xb
 2854 0201 01       		.byte	0x1
 2855 0202 11       		.uleb128 0x11
 2856 0203 01       		.uleb128 0x1
 2857 0204 12       		.uleb128 0x12
 2858 0205 06       		.uleb128 0x6
 2859 0206 01       		.uleb128 0x1
 2860 0207 13       		.uleb128 0x13
 2861 0208 00       		.byte	0
 2862 0209 00       		.byte	0
 2863 020a 29       		.uleb128 0x29
 2864 020b 0B       		.uleb128 0xb
 2865 020c 01       		.byte	0x1
 2866 020d 11       		.uleb128 0x11
 2867 020e 01       		.uleb128 0x1
 2868 020f 12       		.uleb128 0x12
 2869 0210 06       		.uleb128 0x6
 2870 0211 00       		.byte	0
 2871 0212 00       		.byte	0
 2872 0213 2A       		.uleb128 0x2a
 2873 0214 2E       		.uleb128 0x2e
 2874 0215 01       		.byte	0x1
 2875 0216 03       		.uleb128 0x3
 2876 0217 0E       		.uleb128 0xe
 2877 0218 3A       		.uleb128 0x3a
 2878 0219 0B       		.uleb128 0xb
 2879 021a 3B       		.uleb128 0x3b
 2880 021b 0B       		.uleb128 0xb
 2881 021c 27       		.uleb128 0x27
 2882 021d 19       		.uleb128 0x19
 2883 021e 11       		.uleb128 0x11
 2884 021f 01       		.uleb128 0x1
 2885 0220 12       		.uleb128 0x12
 2886 0221 06       		.uleb128 0x6
 2887 0222 40       		.uleb128 0x40
 2888 0223 18       		.uleb128 0x18
 2889 0224 9642     		.uleb128 0x2116
 2890 0226 19       		.uleb128 0x19
 2891 0227 00       		.byte	0
 2892 0228 00       		.byte	0
 2893 0229 00       		.byte	0
 2894              		.section	.debug_aranges,"",%progbits
 2895 0000 3C000000 		.4byte	0x3c
ARM GAS  C:\Users\PCHAUT~1\AppData\Local\Temp\ccmBgndF.s 			page 52


 2896 0004 0200     		.2byte	0x2
 2897 0006 00000000 		.4byte	.Ldebug_info0
 2898 000a 04       		.byte	0x4
 2899 000b 00       		.byte	0
 2900 000c 0000     		.2byte	0
 2901 000e 0000     		.2byte	0
 2902 0010 00000000 		.4byte	.LFB0
 2903 0014 4C000000 		.4byte	.LFE0-.LFB0
 2904 0018 00000000 		.4byte	.LFB1
 2905 001c A4000000 		.4byte	.LFE1-.LFB1
 2906 0020 00000000 		.4byte	.LFB2
 2907 0024 D8010000 		.4byte	.LFE2-.LFB2
 2908 0028 00000000 		.4byte	.LFB3
 2909 002c 88000000 		.4byte	.LFE3-.LFB3
 2910 0030 00000000 		.4byte	.LFB4
 2911 0034 38000000 		.4byte	.LFE4-.LFB4
 2912 0038 00000000 		.4byte	0
 2913 003c 00000000 		.4byte	0
 2914              		.section	.debug_ranges,"",%progbits
 2915              	.Ldebug_ranges0:
 2916 0000 00000000 		.4byte	.LFB0
 2917 0004 4C000000 		.4byte	.LFE0
 2918 0008 00000000 		.4byte	.LFB1
 2919 000c A4000000 		.4byte	.LFE1
 2920 0010 00000000 		.4byte	.LFB2
 2921 0014 D8010000 		.4byte	.LFE2
 2922 0018 00000000 		.4byte	.LFB3
 2923 001c 88000000 		.4byte	.LFE3
 2924 0020 00000000 		.4byte	.LFB4
 2925 0024 38000000 		.4byte	.LFE4
 2926 0028 00000000 		.4byte	0
 2927 002c 00000000 		.4byte	0
 2928              		.section	.debug_line,"",%progbits
 2929              	.Ldebug_line0:
 2930 0000 AB030000 		.section	.debug_str,"MS",%progbits,1
 2930      0200E002 
 2930      00000201 
 2930      FB0E0D00 
 2930      01010101 
 2931              	.LASF45:
 2932 0000 5F64736F 		.ascii	"_dso_handle\000"
 2932      5F68616E 
 2932      646C6500 
 2933              	.LASF140:
 2934 000c 76616C75 		.ascii	"value\000"
 2934      6500
 2935              	.LASF53:
 2936 0012 5F73697A 		.ascii	"_size\000"
 2936      6500
 2937              	.LASF97:
 2938 0018 5F72616E 		.ascii	"_rand48\000"
 2938      64343800 
 2939              	.LASF77:
 2940 0020 5F656D65 		.ascii	"_emergency\000"
 2940      7267656E 
 2940      637900
 2941              	.LASF3:
ARM GAS  C:\Users\PCHAUT~1\AppData\Local\Temp\ccmBgndF.s 			page 53


 2942 002b 5F5F7569 		.ascii	"__uint8_t\000"
 2942      6E74385F 
 2942      7400
 2943              	.LASF151:
 2944 0035 7072696E 		.ascii	"printfn_arg\000"
 2944      74666E5F 
 2944      61726700 
 2945              	.LASF155:
 2946 0041 7072696E 		.ascii	"print_array\000"
 2946      745F6172 
 2946      72617900 
 2947              	.LASF67:
 2948 004d 5F646174 		.ascii	"_data\000"
 2948      6100
 2949              	.LASF139:
 2950 0053 74797065 		.ascii	"type\000"
 2950      00
 2951              	.LASF129:
 2952 0058 70617261 		.ascii	"parameter_namespace_s\000"
 2952      6D657465 
 2952      725F6E61 
 2952      6D657370 
 2952      6163655F 
 2953              	.LASF128:
 2954 006e 70617261 		.ascii	"parameter_namespace_t\000"
 2954      6D657465 
 2954      725F6E61 
 2954      6D657370 
 2954      6163655F 
 2955              	.LASF117:
 2956 0084 5F776372 		.ascii	"_wcrtomb_state\000"
 2956      746F6D62 
 2956      5F737461 
 2956      746500
 2957              	.LASF136:
 2958 0093 70617261 		.ascii	"parameter_s\000"
 2958      6D657465 
 2958      725F7300 
 2959              	.LASF118:
 2960 009f 5F776373 		.ascii	"_wcsrtombs_state\000"
 2960      72746F6D 
 2960      62735F73 
 2960      74617465 
 2960      00
 2961              	.LASF10:
 2962 00b0 6C6F6E67 		.ascii	"long long unsigned int\000"
 2962      206C6F6E 
 2962      6720756E 
 2962      7369676E 
 2962      65642069 
 2963              	.LASF57:
 2964 00c7 5F6C6266 		.ascii	"_lbfsize\000"
 2964      73697A65 
 2964      00
 2965              	.LASF124:
 2966 00d0 5F5F6C6F 		.ascii	"__locale_t\000"
 2966      63616C65 
ARM GAS  C:\Users\PCHAUT~1\AppData\Local\Temp\ccmBgndF.s 			page 54


 2966      5F7400
 2967              	.LASF135:
 2968 00db 70617261 		.ascii	"parameter_t\000"
 2968      6D657465 
 2968      725F7400 
 2969              	.LASF144:
 2970 00e7 6275665F 		.ascii	"buf_dim\000"
 2970      64696D00 
 2971              	.LASF115:
 2972 00ef 5F6D6272 		.ascii	"_mbrtowc_state\000"
 2972      746F7763 
 2972      5F737461 
 2972      746500
 2973              	.LASF133:
 2974 00fe 6E657874 		.ascii	"next\000"
 2974      00
 2975              	.LASF34:
 2976 0103 5F5F746D 		.ascii	"__tm_sec\000"
 2976      5F736563 
 2976      00
 2977              	.LASF9:
 2978 010c 6C6F6E67 		.ascii	"long long int\000"
 2978      206C6F6E 
 2978      6720696E 
 2978      7400
 2979              	.LASF0:
 2980 011a 7369676E 		.ascii	"signed char\000"
 2980      65642063 
 2980      68617200 
 2981              	.LASF142:
 2982 0126 6275665F 		.ascii	"buf_len\000"
 2982      6C656E00 
 2983              	.LASF63:
 2984 012e 5F756275 		.ascii	"_ubuf\000"
 2984      6600
 2985              	.LASF137:
 2986 0134 6368616E 		.ascii	"changed\000"
 2986      67656400 
 2987              	.LASF52:
 2988 013c 5F626173 		.ascii	"_base\000"
 2988      6500
 2989              	.LASF36:
 2990 0142 5F5F746D 		.ascii	"__tm_hour\000"
 2990      5F686F75 
 2990      7200
 2991              	.LASF92:
 2992 014c 5F5F7366 		.ascii	"__sf\000"
 2992      00
 2993              	.LASF43:
 2994 0151 5F6F6E5F 		.ascii	"_on_exit_args\000"
 2994      65786974 
 2994      5F617267 
 2994      7300
 2995              	.LASF141:
 2996 015f 5F706172 		.ascii	"_param_val_str_s\000"
 2996      616D5F76 
 2996      616C5F73 
ARM GAS  C:\Users\PCHAUT~1\AppData\Local\Temp\ccmBgndF.s 			page 55


 2996      74725F73 
 2996      00
 2997              	.LASF58:
 2998 0170 5F636F6F 		.ascii	"_cookie\000"
 2998      6B696500 
 2999              	.LASF131:
 3000 0178 70617265 		.ascii	"parent\000"
 3000      6E7400
 3001              	.LASF91:
 3002 017f 5F5F7367 		.ascii	"__sglue\000"
 3002      6C756500 
 3003              	.LASF7:
 3004 0187 6C6F6E67 		.ascii	"long int\000"
 3004      20696E74 
 3004      00
 3005              	.LASF156:
 3006 0190 474E5520 		.ascii	"GNU C11 7.2.1 20170904 (release) [ARM/embedded-7-br"
 3006      43313120 
 3006      372E322E 
 3006      31203230 
 3006      31373039 
 3007 01c3 616E6368 		.ascii	"anch revision 255204] -mcpu=cortex-m4 -mfloat-abi=h"
 3007      20726576 
 3007      6973696F 
 3007      6E203235 
 3007      35323034 
 3008 01f6 61726420 		.ascii	"ard -mfpu=fpv4-sp-d16 -mno-thumb-interwork -mthumb "
 3008      2D6D6670 
 3008      753D6670 
 3008      76342D73 
 3008      702D6431 
 3009 0229 2D676764 		.ascii	"-ggdb -O0 -fomit-frame-pointer -falign-functions=16"
 3009      62202D4F 
 3009      30202D66 
 3009      6F6D6974 
 3009      2D667261 
 3010 025c 202D666E 		.ascii	" -fno-strict-aliasing -fstack-protector-all -ffunct"
 3010      6F2D7374 
 3010      72696374 
 3010      2D616C69 
 3010      6173696E 
 3011 028f 696F6E2D 		.ascii	"ion-sections -fdata-sections -fno-common -fsingle-p"
 3011      73656374 
 3011      696F6E73 
 3011      202D6664 
 3011      6174612D 
 3012 02c2 72656369 		.ascii	"recision-constant\000"
 3012      73696F6E 
 3012      2D636F6E 
 3012      7374616E 
 3012      7400
 3013              	.LASF55:
 3014 02d4 5F666C61 		.ascii	"_flags\000"
 3014      677300
 3015              	.LASF47:
 3016 02db 5F69735F 		.ascii	"_is_cxa\000"
 3016      63786100 
ARM GAS  C:\Users\PCHAUT~1\AppData\Local\Temp\ccmBgndF.s 			page 56


 3017              	.LASF73:
 3018 02e3 5F737464 		.ascii	"_stdin\000"
 3018      696E00
 3019              	.LASF65:
 3020 02ea 5F626C6B 		.ascii	"_blksize\000"
 3020      73697A65 
 3020      00
 3021              	.LASF13:
 3022 02f3 75696E74 		.ascii	"uint16_t\000"
 3022      31365F74 
 3022      00
 3023              	.LASF138:
 3024 02fc 64656669 		.ascii	"defined\000"
 3024      6E656400 
 3025              	.LASF134:
 3026 0304 70617261 		.ascii	"parameter_list\000"
 3026      6D657465 
 3026      725F6C69 
 3026      737400
 3027              	.LASF87:
 3028 0313 5F637674 		.ascii	"_cvtbuf\000"
 3028      62756600 
 3029              	.LASF66:
 3030 031b 5F6F6666 		.ascii	"_offset\000"
 3030      73657400 
 3031              	.LASF116:
 3032 0323 5F6D6273 		.ascii	"_mbsrtowcs_state\000"
 3032      72746F77 
 3032      63735F73 
 3032      74617465 
 3032      00
 3033              	.LASF114:
 3034 0334 5F6D6272 		.ascii	"_mbrlen_state\000"
 3034      6C656E5F 
 3034      73746174 
 3034      6500
 3035              	.LASF44:
 3036 0342 5F666E61 		.ascii	"_fnargs\000"
 3036      72677300 
 3037              	.LASF50:
 3038 034a 5F666E73 		.ascii	"_fns\000"
 3038      00
 3039              	.LASF30:
 3040 034f 5F736967 		.ascii	"_sign\000"
 3040      6E00
 3041              	.LASF25:
 3042 0355 5F666C6F 		.ascii	"_flock_t\000"
 3042      636B5F74 
 3042      00
 3043              	.LASF75:
 3044 035e 5F737464 		.ascii	"_stderr\000"
 3044      65727200 
 3045              	.LASF32:
 3046 0366 5F426967 		.ascii	"_Bigint\000"
 3046      696E7400 
 3047              	.LASF105:
 3048 036e 5F67616D 		.ascii	"_gamma_signgam\000"
ARM GAS  C:\Users\PCHAUT~1\AppData\Local\Temp\ccmBgndF.s 			page 57


 3048      6D615F73 
 3048      69676E67 
 3048      616D00
 3049              	.LASF146:
 3050 037d 5F706172 		.ascii	"_param_val_matrix_s\000"
 3050      616D5F76 
 3050      616C5F6D 
 3050      61747269 
 3050      785F7300 
 3051              	.LASF59:
 3052 0391 5F726561 		.ascii	"_read\000"
 3052      6400
 3053              	.LASF83:
 3054 0397 5F726573 		.ascii	"_result_k\000"
 3054      756C745F 
 3054      6B00
 3055              	.LASF33:
 3056 03a1 5F5F746D 		.ascii	"__tm\000"
 3056      00
 3057              	.LASF11:
 3058 03a6 756E7369 		.ascii	"unsigned int\000"
 3058      676E6564 
 3058      20696E74 
 3058      00
 3059              	.LASF21:
 3060 03b3 5F5F7763 		.ascii	"__wchb\000"
 3060      686200
 3061              	.LASF74:
 3062 03ba 5F737464 		.ascii	"_stdout\000"
 3062      6F757400 
 3063              	.LASF86:
 3064 03c2 5F637674 		.ascii	"_cvtlen\000"
 3064      6C656E00 
 3065              	.LASF8:
 3066 03ca 6C6F6E67 		.ascii	"long unsigned int\000"
 3066      20756E73 
 3066      69676E65 
 3066      6420696E 
 3066      7400
 3067              	.LASF56:
 3068 03dc 5F66696C 		.ascii	"_file\000"
 3068      6500
 3069              	.LASF95:
 3070 03e2 5F6E696F 		.ascii	"_niobs\000"
 3070      627300
 3071              	.LASF5:
 3072 03e9 73686F72 		.ascii	"short unsigned int\000"
 3072      7420756E 
 3072      7369676E 
 3072      65642069 
 3072      6E7400
 3073              	.LASF89:
 3074 03fc 5F617465 		.ascii	"_atexit0\000"
 3074      78697430 
 3074      00
 3075              	.LASF112:
 3076 0405 5F736967 		.ascii	"_signal_buf\000"
ARM GAS  C:\Users\PCHAUT~1\AppData\Local\Temp\ccmBgndF.s 			page 58


 3076      6E616C5F 
 3076      62756600 
 3077              	.LASF103:
 3078 0411 5F617363 		.ascii	"_asctime_buf\000"
 3078      74696D65 
 3078      5F627566 
 3078      00
 3079              	.LASF82:
 3080 041e 5F726573 		.ascii	"_result\000"
 3080      756C7400 
 3081              	.LASF20:
 3082 0426 5F5F7763 		.ascii	"__wch\000"
 3082      6800
 3083              	.LASF16:
 3084 042c 5F4C4F43 		.ascii	"_LOCK_T\000"
 3084      4B5F5400 
 3085              	.LASF19:
 3086 0434 77696E74 		.ascii	"wint_t\000"
 3086      5F7400
 3087              	.LASF68:
 3088 043b 5F6C6F63 		.ascii	"_lock\000"
 3088      6B00
 3089              	.LASF160:
 3090 0441 696E6465 		.ascii	"indent\000"
 3090      6E7400
 3091              	.LASF70:
 3092 0448 5F666C61 		.ascii	"_flags2\000"
 3092      67733200 
 3093              	.LASF152:
 3094 0450 696E6465 		.ascii	"indent_lvl\000"
 3094      6E745F6C 
 3094      766C00
 3095              	.LASF60:
 3096 045b 5F777269 		.ascii	"_write\000"
 3096      746500
 3097              	.LASF39:
 3098 0462 5F5F746D 		.ascii	"__tm_year\000"
 3098      5F796561 
 3098      7200
 3099              	.LASF121:
 3100 046c 5F6E6D61 		.ascii	"_nmalloc\000"
 3100      6C6C6F63 
 3100      00
 3101              	.LASF15:
 3102 0475 6C6F6E67 		.ascii	"long double\000"
 3102      20646F75 
 3102      626C6500 
 3103              	.LASF120:
 3104 0481 5F6E6578 		.ascii	"_nextf\000"
 3104      746600
 3105              	.LASF154:
 3106 0488 70617261 		.ascii	"param_entry_print\000"
 3106      6D5F656E 
 3106      7472795F 
 3106      7072696E 
 3106      7400
 3107              	.LASF38:
ARM GAS  C:\Users\PCHAUT~1\AppData\Local\Temp\ccmBgndF.s 			page 59


 3108 049a 5F5F746D 		.ascii	"__tm_mon\000"
 3108      5F6D6F6E 
 3108      00
 3109              	.LASF48:
 3110 04a3 5F617465 		.ascii	"_atexit\000"
 3110      78697400 
 3111              	.LASF127:
 3112 04ab 7375626F 		.ascii	"suboptarg\000"
 3112      70746172 
 3112      6700
 3113              	.LASF80:
 3114 04b5 5F5F7364 		.ascii	"__sdidinit\000"
 3114      6964696E 
 3114      697400
 3115              	.LASF17:
 3116 04c0 5F6F6666 		.ascii	"_off_t\000"
 3116      5F7400
 3117              	.LASF145:
 3118 04c7 666C6F61 		.ascii	"float\000"
 3118      7400
 3119              	.LASF85:
 3120 04cd 5F667265 		.ascii	"_freelist\000"
 3120      656C6973 
 3120      7400
 3121              	.LASF153:
 3122 04d7 70617261 		.ascii	"param_ns_print\000"
 3122      6D5F6E73 
 3122      5F707269 
 3122      6E7400
 3123              	.LASF110:
 3124 04e6 5F776374 		.ascii	"_wctomb_state\000"
 3124      6F6D625F 
 3124      73746174 
 3124      6500
 3125              	.LASF148:
 3126 04f4 5F426F6F 		.ascii	"_Bool\000"
 3126      6C00
 3127              	.LASF14:
 3128 04fa 696E7433 		.ascii	"int32_t\000"
 3128      325F7400 
 3129              	.LASF1:
 3130 0502 756E7369 		.ascii	"unsigned char\000"
 3130      676E6564 
 3130      20636861 
 3130      7200
 3131              	.LASF88:
 3132 0510 5F6E6577 		.ascii	"_new\000"
 3132      00
 3133              	.LASF119:
 3134 0515 5F685F65 		.ascii	"_h_errno\000"
 3134      72726E6F 
 3134      00
 3135              	.LASF2:
 3136 051e 73686F72 		.ascii	"short int\000"
 3136      7420696E 
 3136      7400
 3137              	.LASF41:
ARM GAS  C:\Users\PCHAUT~1\AppData\Local\Temp\ccmBgndF.s 			page 60


 3138 0528 5F5F746D 		.ascii	"__tm_yday\000"
 3138      5F796461 
 3138      7900
 3139              	.LASF51:
 3140 0532 5F5F7362 		.ascii	"__sbuf\000"
 3140      756600
 3141              	.LASF143:
 3142 0539 5F706172 		.ascii	"_param_val_vector_s\000"
 3142      616D5F76 
 3142      616C5F76 
 3142      6563746F 
 3142      725F7300 
 3143              	.LASF96:
 3144 054d 5F696F62 		.ascii	"_iobs\000"
 3144      7300
 3145              	.LASF93:
 3146 0553 5F5F4649 		.ascii	"__FILE\000"
 3146      4C4500
 3147              	.LASF24:
 3148 055a 5F6D6273 		.ascii	"_mbstate_t\000"
 3148      74617465 
 3148      5F7400
 3149              	.LASF54:
 3150 0565 5F5F7346 		.ascii	"__sFILE\000"
 3150      494C4500 
 3151              	.LASF69:
 3152 056d 5F6D6273 		.ascii	"_mbstate\000"
 3152      74617465 
 3152      00
 3153              	.LASF106:
 3154 0576 5F72616E 		.ascii	"_rand_next\000"
 3154      645F6E65 
 3154      787400
 3155              	.LASF132:
 3156 0581 73756273 		.ascii	"subspaces\000"
 3156      70616365 
 3156      7300
 3157              	.LASF108:
 3158 058b 5F6D626C 		.ascii	"_mblen_state\000"
 3158      656E5F73 
 3158      74617465 
 3158      00
 3159              	.LASF76:
 3160 0598 5F696E63 		.ascii	"_inc\000"
 3160      00
 3161              	.LASF49:
 3162 059d 5F696E64 		.ascii	"_ind\000"
 3162      00
 3163              	.LASF158:
 3164 05a2 433A5C55 		.ascii	"C:\\Users\\Pchautems\\Documents\\RobotiqueTP\\Proje"
 3164      73657273 
 3164      5C506368 
 3164      61757465 
 3164      6D735C44 
 3165 05d0 745C6D69 		.ascii	"t\\miniprojet\000"
 3165      6E697072 
 3165      6F6A6574 
ARM GAS  C:\Users\PCHAUT~1\AppData\Local\Temp\ccmBgndF.s 			page 61


 3165      00
 3166              	.LASF79:
 3167 05dd 5F6C6F63 		.ascii	"_locale\000"
 3167      616C6500 
 3168              	.LASF81:
 3169 05e5 5F5F636C 		.ascii	"__cleanup\000"
 3169      65616E75 
 3169      7000
 3170              	.LASF78:
 3171 05ef 5F756E73 		.ascii	"_unspecified_locale_info\000"
 3171      70656369 
 3171      66696564 
 3171      5F6C6F63 
 3171      616C655F 
 3172              	.LASF29:
 3173 0608 5F6D6178 		.ascii	"_maxwds\000"
 3173      77647300 
 3174              	.LASF71:
 3175 0610 5F726565 		.ascii	"_reent\000"
 3175      6E7400
 3176              	.LASF98:
 3177 0617 5F736565 		.ascii	"_seed\000"
 3177      6400
 3178              	.LASF22:
 3179 061d 5F5F636F 		.ascii	"__count\000"
 3179      756E7400 
 3180              	.LASF123:
 3181 0625 5F5F6C6F 		.ascii	"__lock\000"
 3181      636B00
 3182              	.LASF23:
 3183 062c 5F5F7661 		.ascii	"__value\000"
 3183      6C756500 
 3184              	.LASF61:
 3185 0634 5F736565 		.ascii	"_seek\000"
 3185      6B00
 3186              	.LASF125:
 3187 063a 5F696D70 		.ascii	"_impure_ptr\000"
 3187      7572655F 
 3187      70747200 
 3188              	.LASF18:
 3189 0646 5F66706F 		.ascii	"_fpos_t\000"
 3189      735F7400 
 3190              	.LASF72:
 3191 064e 5F657272 		.ascii	"_errno\000"
 3191      6E6F00
 3192              	.LASF26:
 3193 0655 63686172 		.ascii	"char\000"
 3193      00
 3194              	.LASF35:
 3195 065a 5F5F746D 		.ascii	"__tm_min\000"
 3195      5F6D696E 
 3195      00
 3196              	.LASF4:
 3197 0663 5F5F7569 		.ascii	"__uint16_t\000"
 3197      6E743136 
 3197      5F7400
 3198              	.LASF147:
ARM GAS  C:\Users\PCHAUT~1\AppData\Local\Temp\ccmBgndF.s 			page 62


 3199 066e 76656374 		.ascii	"vect\000"
 3199      00
 3200              	.LASF6:
 3201 0673 5F5F696E 		.ascii	"__int32_t\000"
 3201      7433325F 
 3201      7400
 3202              	.LASF99:
 3203 067d 5F6D756C 		.ascii	"_mult\000"
 3203      7400
 3204              	.LASF28:
 3205 0683 5F6E6578 		.ascii	"_next\000"
 3205      7400
 3206              	.LASF102:
 3207 0689 5F737472 		.ascii	"_strtok_last\000"
 3207      746F6B5F 
 3207      6C617374 
 3207      00
 3208              	.LASF46:
 3209 0696 5F666E74 		.ascii	"_fntypes\000"
 3209      79706573 
 3209      00
 3210              	.LASF157:
 3211 069f 2E2E2F6C 		.ascii	"../lib/e-puck2_main-processor/src/parameter/paramet"
 3211      69622F65 
 3211      2D707563 
 3211      6B325F6D 
 3211      61696E2D 
 3212 06d2 65725F70 		.ascii	"er_print.c\000"
 3212      72696E74 
 3212      2E6300
 3213              	.LASF130:
 3214 06dd 6368616E 		.ascii	"changed_cnt\000"
 3214      6765645F 
 3214      636E7400 
 3215              	.LASF100:
 3216 06e9 5F616464 		.ascii	"_add\000"
 3216      00
 3217              	.LASF27:
 3218 06ee 5F5F554C 		.ascii	"__ULong\000"
 3218      6F6E6700 
 3219              	.LASF113:
 3220 06f6 5F676574 		.ascii	"_getdate_err\000"
 3220      64617465 
 3220      5F657272 
 3220      00
 3221              	.LASF126:
 3222 0703 5F676C6F 		.ascii	"_global_impure_ptr\000"
 3222      62616C5F 
 3222      696D7075 
 3222      72655F70 
 3222      747200
 3223              	.LASF101:
 3224 0716 5F756E75 		.ascii	"_unused_rand\000"
 3224      7365645F 
 3224      72616E64 
 3224      00
 3225              	.LASF31:
ARM GAS  C:\Users\PCHAUT~1\AppData\Local\Temp\ccmBgndF.s 			page 63


 3226 0723 5F776473 		.ascii	"_wds\000"
 3226      00
 3227              	.LASF40:
 3228 0728 5F5F746D 		.ascii	"__tm_wday\000"
 3228      5F776461 
 3228      7900
 3229              	.LASF94:
 3230 0732 5F676C75 		.ascii	"_glue\000"
 3230      6500
 3231              	.LASF12:
 3232 0738 75696E74 		.ascii	"uint8_t\000"
 3232      385F7400 
 3233              	.LASF111:
 3234 0740 5F6C3634 		.ascii	"_l64a_buf\000"
 3234      615F6275 
 3234      6600
 3235              	.LASF90:
 3236 074a 5F736967 		.ascii	"_sig_func\000"
 3236      5F66756E 
 3236      6300
 3237              	.LASF150:
 3238 0754 7072696E 		.ascii	"printfn\000"
 3238      74666E00 
 3239              	.LASF149:
 3240 075c 70617261 		.ascii	"parameter_printfn_t\000"
 3240      6D657465 
 3240      725F7072 
 3240      696E7466 
 3240      6E5F7400 
 3241              	.LASF64:
 3242 0770 5F6E6275 		.ascii	"_nbuf\000"
 3242      6600
 3243              	.LASF122:
 3244 0776 5F756E75 		.ascii	"_unused\000"
 3244      73656400 
 3245              	.LASF159:
 3246 077e 70617261 		.ascii	"parameter_print\000"
 3246      6D657465 
 3246      725F7072 
 3246      696E7400 
 3247              	.LASF42:
 3248 078e 5F5F746D 		.ascii	"__tm_isdst\000"
 3248      5F697364 
 3248      737400
 3249              	.LASF104:
 3250 0799 5F6C6F63 		.ascii	"_localtime_buf\000"
 3250      616C7469 
 3250      6D655F62 
 3250      756600
 3251              	.LASF62:
 3252 07a8 5F636C6F 		.ascii	"_close\000"
 3252      736500
 3253              	.LASF107:
 3254 07af 5F723438 		.ascii	"_r48\000"
 3254      00
 3255              	.LASF109:
 3256 07b4 5F6D6274 		.ascii	"_mbtowc_state\000"
ARM GAS  C:\Users\PCHAUT~1\AppData\Local\Temp\ccmBgndF.s 			page 64


 3256      6F77635F 
 3256      73746174 
 3256      6500
 3257              	.LASF84:
 3258 07c2 5F703573 		.ascii	"_p5s\000"
 3258      00
 3259              	.LASF37:
 3260 07c7 5F5F746D 		.ascii	"__tm_mday\000"
 3260      5F6D6461 
 3260      7900
 3261              		.ident	"GCC: (GNU Tools for Arm Embedded Processors 7-2017-q4-major) 7.2.1 20170904 (release) [ARM
ARM GAS  C:\Users\PCHAUT~1\AppData\Local\Temp\ccmBgndF.s 			page 65


DEFINED SYMBOLS
                            *ABS*:00000000 parameter_print.c
C:\Users\PCHAUT~1\AppData\Local\Temp\ccmBgndF.s:18     .rodata:00000000 $d
C:\Users\PCHAUT~1\AppData\Local\Temp\ccmBgndF.s:22     .text.indent:00000000 $t
C:\Users\PCHAUT~1\AppData\Local\Temp\ccmBgndF.s:29     .text.indent:00000000 indent
C:\Users\PCHAUT~1\AppData\Local\Temp\ccmBgndF.s:85     .text.indent:00000044 $d
C:\Users\PCHAUT~1\AppData\Local\Temp\ccmBgndF.s:105    .text.print_array:00000000 $t
C:\Users\PCHAUT~1\AppData\Local\Temp\ccmBgndF.s:112    .text.print_array:00000000 print_array
C:\Users\PCHAUT~1\AppData\Local\Temp\ccmBgndF.s:216    .text.print_array:00000090 $d
C:\Users\PCHAUT~1\AppData\Local\Temp\ccmBgndF.s:259    .text.param_entry_print:00000000 $t
C:\Users\PCHAUT~1\AppData\Local\Temp\ccmBgndF.s:266    .text.param_entry_print:00000000 param_entry_print
C:\Users\PCHAUT~1\AppData\Local\Temp\ccmBgndF.s:326    .text.param_entry_print:00000058 $d
C:\Users\PCHAUT~1\AppData\Local\Temp\ccmBgndF.s:332    .text.param_entry_print:00000070 $t
C:\Users\PCHAUT~1\AppData\Local\Temp\ccmBgndF.s:537    .text.param_entry_print:000001a8 $d
C:\Users\PCHAUT~1\AppData\Local\Temp\ccmBgndF.s:557    .text.param_ns_print:00000000 $t
C:\Users\PCHAUT~1\AppData\Local\Temp\ccmBgndF.s:564    .text.param_ns_print:00000000 param_ns_print
C:\Users\PCHAUT~1\AppData\Local\Temp\ccmBgndF.s:657    .text.param_ns_print:00000080 $d
C:\Users\PCHAUT~1\AppData\Local\Temp\ccmBgndF.s:663    .text.parameter_print:00000000 $t
C:\Users\PCHAUT~1\AppData\Local\Temp\ccmBgndF.s:671    .text.parameter_print:00000000 parameter_print
C:\Users\PCHAUT~1\AppData\Local\Temp\ccmBgndF.s:711    .text.parameter_print:00000034 $d

UNDEFINED SYMBOLS
__stack_chk_fail
__stack_chk_guard
__aeabi_f2d
parameter_defined
parameter_scalar_read
parameter_integer_read
parameter_boolean_read
parameter_string_max_len
malloc
parameter_string_read
free
parameter_vector_dim
parameter_vector_read
parameter_variable_vector_max_dim
parameter_variable_vector_read
