ARM GAS  C:\Users\PCHAUT~1\AppData\Local\Temp\ccMxpIDf.s 			page 1


   1              		.cpu cortex-m4
   2              		.eabi_attribute 27, 1
   3              		.eabi_attribute 28, 1
   4              		.eabi_attribute 20, 1
   5              		.eabi_attribute 21, 1
   6              		.eabi_attribute 23, 3
   7              		.eabi_attribute 24, 1
   8              		.eabi_attribute 25, 1
   9              		.eabi_attribute 26, 1
  10              		.eabi_attribute 30, 6
  11              		.eabi_attribute 34, 1
  12              		.eabi_attribute 18, 4
  13              		.file	"po8030.c"
  14              		.text
  15              	.Ltext0:
  16              		.cfi_sections	.debug_frame
  17              		.section	.bss.po8030_conf,"aw",%nobits
  18              		.align	2
  19              		.type	po8030_conf, %object
  20              		.size	po8030_conf, 8
  21              	po8030_conf:
  22 0000 00000000 		.space	8
  22      00000000 
  23              		.section	.bss.cam_configured,"aw",%nobits
  24              		.type	cam_configured, %object
  25              		.size	cam_configured, 1
  26              	cam_configured:
  27 0000 00       		.space	1
  28              		.section	.text.po8030_read_id,"ax",%progbits
  29              		.align	1
  30              		.p2align 4,,15
  31              		.global	po8030_read_id
  32              		.syntax unified
  33              		.thumb
  34              		.thumb_func
  35              		.fpu fpv4-sp-d16
  36              		.type	po8030_read_id, %function
  37              	po8030_read_id:
  38              	.LFB257:
  39              		.file 1 "../lib/e-puck2_main-processor/src/camera/po8030.c"
  40              		.loc 1 93 0
  41              		.cfi_startproc
  42              		@ args = 0, pretend = 0, frame = 24
  43              		@ frame_needed = 0, uses_anonymous_args = 0
  44 0000 00B5     		push	{lr}
  45              		.cfi_def_cfa_offset 4
  46              		.cfi_offset 14, -4
  47 0002 87B0     		sub	sp, sp, #28
  48              		.cfi_def_cfa_offset 32
  49 0004 0190     		str	r0, [sp, #4]
  50              		.loc 1 93 0
  51 0006 1F4B     		ldr	r3, .L7
  52 0008 1B68     		ldr	r3, [r3]
  53 000a 0593     		str	r3, [sp, #20]
  54              		.loc 1 94 0
  55 000c 0023     		movs	r3, #0
  56 000e ADF81030 		strh	r3, [sp, #16]	@ movhi
ARM GAS  C:\Users\PCHAUT~1\AppData\Local\Temp\ccMxpIDf.s 			page 2


  57              		.loc 1 95 0
  58 0012 0023     		movs	r3, #0
  59 0014 8DF80F30 		strb	r3, [sp, #15]
  60              		.loc 1 97 0
  61 0018 04AB     		add	r3, sp, #16
  62 001a 1A46     		mov	r2, r3
  63 001c 0021     		movs	r1, #0
  64 001e 6E20     		movs	r0, #110
  65 0020 FFF7FEFF 		bl	read_reg
  66 0024 0346     		mov	r3, r0
  67 0026 8DF80F30 		strb	r3, [sp, #15]
  68 002a 9DF90F30 		ldrsb	r3, [sp, #15]
  69 002e 002B     		cmp	r3, #0
  70 0030 02D0     		beq	.L2
  71              		.loc 1 98 0
  72 0032 9DF90F30 		ldrsb	r3, [sp, #15]
  73 0036 1AE0     		b	.L5
  74              	.L2:
  75              		.loc 1 100 0
  76 0038 04AB     		add	r3, sp, #16
  77 003a 0133     		adds	r3, r3, #1
  78 003c 1A46     		mov	r2, r3
  79 003e 0121     		movs	r1, #1
  80 0040 6E20     		movs	r0, #110
  81 0042 FFF7FEFF 		bl	read_reg
  82 0046 0346     		mov	r3, r0
  83 0048 8DF80F30 		strb	r3, [sp, #15]
  84 004c 9DF90F30 		ldrsb	r3, [sp, #15]
  85 0050 002B     		cmp	r3, #0
  86 0052 02D0     		beq	.L4
  87              		.loc 1 101 0
  88 0054 9DF90F30 		ldrsb	r3, [sp, #15]
  89 0058 09E0     		b	.L5
  90              	.L4:
  91              		.loc 1 103 0
  92 005a 9DF81020 		ldrb	r2, [sp, #16]	@ zero_extendqisi2
  93 005e 9DF81130 		ldrb	r3, [sp, #17]	@ zero_extendqisi2
  94 0062 1343     		orrs	r3, r3, r2
  95 0064 DBB2     		uxtb	r3, r3
  96 0066 9AB2     		uxth	r2, r3
  97 0068 019B     		ldr	r3, [sp, #4]
  98 006a 1A80     		strh	r2, [r3]	@ movhi
  99              		.loc 1 105 0
 100 006c 0023     		movs	r3, #0
 101              	.L5:
 102              		.loc 1 106 0 discriminator 1
 103 006e 1846     		mov	r0, r3
 104 0070 044B     		ldr	r3, .L7
 105 0072 059A     		ldr	r2, [sp, #20]
 106 0074 1B68     		ldr	r3, [r3]
 107 0076 9A42     		cmp	r2, r3
 108 0078 01D0     		beq	.L6
 109              		.loc 1 106 0 is_stmt 0
 110 007a FFF7FEFF 		bl	__stack_chk_fail
 111              	.L6:
 112 007e 07B0     		add	sp, sp, #28
 113              		.cfi_def_cfa_offset 4
ARM GAS  C:\Users\PCHAUT~1\AppData\Local\Temp\ccMxpIDf.s 			page 3


 114              		@ sp needed
 115 0080 5DF804FB 		ldr	pc, [sp], #4
 116              	.L8:
 117              		.align	2
 118              	.L7:
 119 0084 00000000 		.word	__stack_chk_guard
 120              		.cfi_endproc
 121              	.LFE257:
 122              		.size	po8030_read_id, .-po8030_read_id
 123              		.section	.text.po8030_set_bank,"ax",%progbits
 124              		.align	1
 125              		.p2align 4,,15
 126              		.global	po8030_set_bank
 127              		.syntax unified
 128              		.thumb
 129              		.thumb_func
 130              		.fpu fpv4-sp-d16
 131              		.type	po8030_set_bank, %function
 132              	po8030_set_bank:
 133              	.LFB258:
 134              		.loc 1 118 0 is_stmt 1
 135              		.cfi_startproc
 136              		@ args = 0, pretend = 0, frame = 16
 137              		@ frame_needed = 0, uses_anonymous_args = 0
 138 0000 00B5     		push	{lr}
 139              		.cfi_def_cfa_offset 4
 140              		.cfi_offset 14, -4
 141 0002 85B0     		sub	sp, sp, #20
 142              		.cfi_def_cfa_offset 24
 143 0004 0346     		mov	r3, r0
 144 0006 8DF80730 		strb	r3, [sp, #7]
 145              		.loc 1 118 0
 146 000a 0B4B     		ldr	r3, .L12
 147 000c 1B68     		ldr	r3, [r3]
 148 000e 0393     		str	r3, [sp, #12]
 149              		.loc 1 119 0
 150 0010 9DF80730 		ldrb	r3, [sp, #7]	@ zero_extendqisi2
 151 0014 1A46     		mov	r2, r3
 152 0016 0321     		movs	r1, #3
 153 0018 6E20     		movs	r0, #110
 154 001a FFF7FEFF 		bl	write_reg
 155 001e 0346     		mov	r3, r0
 156              		.loc 1 120 0
 157 0020 1846     		mov	r0, r3
 158 0022 054B     		ldr	r3, .L12
 159 0024 039A     		ldr	r2, [sp, #12]
 160 0026 1B68     		ldr	r3, [r3]
 161 0028 9A42     		cmp	r2, r3
 162 002a 01D0     		beq	.L11
 163 002c FFF7FEFF 		bl	__stack_chk_fail
 164              	.L11:
 165 0030 05B0     		add	sp, sp, #20
 166              		.cfi_def_cfa_offset 4
 167              		@ sp needed
 168 0032 5DF804FB 		ldr	pc, [sp], #4
 169              	.L13:
 170 0036 00BF     		.align	2
ARM GAS  C:\Users\PCHAUT~1\AppData\Local\Temp\ccMxpIDf.s 			page 4


 171              	.L12:
 172 0038 00000000 		.word	__stack_chk_guard
 173              		.cfi_endproc
 174              	.LFE258:
 175              		.size	po8030_set_bank, .-po8030_set_bank
 176              		.section	.text.po8030_set_format,"ax",%progbits
 177              		.align	1
 178              		.p2align 4,,15
 179              		.global	po8030_set_format
 180              		.syntax unified
 181              		.thumb
 182              		.thumb_func
 183              		.fpu fpv4-sp-d16
 184              		.type	po8030_set_format, %function
 185              	po8030_set_format:
 186              	.LFB259:
 187              		.loc 1 132 0
 188              		.cfi_startproc
 189              		@ args = 0, pretend = 0, frame = 16
 190              		@ frame_needed = 0, uses_anonymous_args = 0
 191 0000 00B5     		push	{lr}
 192              		.cfi_def_cfa_offset 4
 193              		.cfi_offset 14, -4
 194 0002 85B0     		sub	sp, sp, #20
 195              		.cfi_def_cfa_offset 24
 196 0004 0346     		mov	r3, r0
 197 0006 8DF80730 		strb	r3, [sp, #7]
 198              		.loc 1 132 0
 199 000a 474B     		ldr	r3, .L25
 200 000c 1B68     		ldr	r3, [r3]
 201 000e 0393     		str	r3, [sp, #12]
 202              		.loc 1 133 0
 203 0010 0023     		movs	r3, #0
 204 0012 8DF80B30 		strb	r3, [sp, #11]
 205              		.loc 1 135 0
 206 0016 0120     		movs	r0, #1
 207 0018 FFF7FEFF 		bl	po8030_set_bank
 208 001c 0346     		mov	r3, r0
 209 001e 8DF80B30 		strb	r3, [sp, #11]
 210 0022 9DF90B30 		ldrsb	r3, [sp, #11]
 211 0026 002B     		cmp	r3, #0
 212 0028 02D0     		beq	.L15
 213              		.loc 1 136 0
 214 002a 9DF90B30 		ldrsb	r3, [sp, #11]
 215 002e 6FE0     		b	.L16
 216              	.L15:
 217              		.loc 1 139 0
 218 0030 9DF80730 		ldrb	r3, [sp, #7]	@ zero_extendqisi2
 219 0034 1A46     		mov	r2, r3
 220 0036 4E21     		movs	r1, #78
 221 0038 6E20     		movs	r0, #110
 222 003a FFF7FEFF 		bl	write_reg
 223 003e 0346     		mov	r3, r0
 224 0040 8DF80B30 		strb	r3, [sp, #11]
 225 0044 9DF90B30 		ldrsb	r3, [sp, #11]
 226 0048 002B     		cmp	r3, #0
 227 004a 02D0     		beq	.L17
ARM GAS  C:\Users\PCHAUT~1\AppData\Local\Temp\ccMxpIDf.s 			page 5


 228              		.loc 1 140 0
 229 004c 9DF90B30 		ldrsb	r3, [sp, #11]
 230 0050 5EE0     		b	.L16
 231              	.L17:
 232              		.loc 1 143 0
 233 0052 9DF80730 		ldrb	r3, [sp, #7]	@ zero_extendqisi2
 234 0056 442B     		cmp	r3, #68
 235 0058 2AD1     		bne	.L18
 236              		.loc 1 144 0
 237 005a 0122     		movs	r2, #1
 238 005c B721     		movs	r1, #183
 239 005e 6E20     		movs	r0, #110
 240 0060 FFF7FEFF 		bl	write_reg
 241 0064 0346     		mov	r3, r0
 242 0066 8DF80B30 		strb	r3, [sp, #11]
 243 006a 9DF90B30 		ldrsb	r3, [sp, #11]
 244 006e 002B     		cmp	r3, #0
 245 0070 02D0     		beq	.L19
 246              		.loc 1 145 0
 247 0072 9DF90B30 		ldrsb	r3, [sp, #11]
 248 0076 4BE0     		b	.L16
 249              	.L19:
 250              		.loc 1 147 0
 251 0078 0020     		movs	r0, #0
 252 007a FFF7FEFF 		bl	po8030_set_bank
 253 007e 0346     		mov	r3, r0
 254 0080 8DF80B30 		strb	r3, [sp, #11]
 255 0084 9DF90B30 		ldrsb	r3, [sp, #11]
 256 0088 002B     		cmp	r3, #0
 257 008a 02D0     		beq	.L20
 258              		.loc 1 148 0
 259 008c 9DF90B30 		ldrsb	r3, [sp, #11]
 260 0090 3EE0     		b	.L16
 261              	.L20:
 262              		.loc 1 150 0
 263 0092 0322     		movs	r2, #3
 264 0094 1121     		movs	r1, #17
 265 0096 6E20     		movs	r0, #110
 266 0098 FFF7FEFF 		bl	write_reg
 267 009c 0346     		mov	r3, r0
 268 009e 8DF80B30 		strb	r3, [sp, #11]
 269 00a2 9DF90B30 		ldrsb	r3, [sp, #11]
 270 00a6 002B     		cmp	r3, #0
 271 00a8 2DD0     		beq	.L21
 272              		.loc 1 151 0
 273 00aa 9DF90B30 		ldrsb	r3, [sp, #11]
 274 00ae 2FE0     		b	.L16
 275              	.L18:
 276              		.loc 1 154 0
 277 00b0 0022     		movs	r2, #0
 278 00b2 B721     		movs	r1, #183
 279 00b4 6E20     		movs	r0, #110
 280 00b6 FFF7FEFF 		bl	write_reg
 281 00ba 0346     		mov	r3, r0
 282 00bc 8DF80B30 		strb	r3, [sp, #11]
 283 00c0 9DF90B30 		ldrsb	r3, [sp, #11]
 284 00c4 002B     		cmp	r3, #0
ARM GAS  C:\Users\PCHAUT~1\AppData\Local\Temp\ccMxpIDf.s 			page 6


 285 00c6 02D0     		beq	.L22
 286              		.loc 1 155 0
 287 00c8 9DF90B30 		ldrsb	r3, [sp, #11]
 288 00cc 20E0     		b	.L16
 289              	.L22:
 290              		.loc 1 157 0
 291 00ce 0020     		movs	r0, #0
 292 00d0 FFF7FEFF 		bl	po8030_set_bank
 293 00d4 0346     		mov	r3, r0
 294 00d6 8DF80B30 		strb	r3, [sp, #11]
 295 00da 9DF90B30 		ldrsb	r3, [sp, #11]
 296 00de 002B     		cmp	r3, #0
 297 00e0 02D0     		beq	.L23
 298              		.loc 1 158 0
 299 00e2 9DF90B30 		ldrsb	r3, [sp, #11]
 300 00e6 13E0     		b	.L16
 301              	.L23:
 302              		.loc 1 160 0
 303 00e8 0A22     		movs	r2, #10
 304 00ea 1121     		movs	r1, #17
 305 00ec 6E20     		movs	r0, #110
 306 00ee FFF7FEFF 		bl	write_reg
 307 00f2 0346     		mov	r3, r0
 308 00f4 8DF80B30 		strb	r3, [sp, #11]
 309 00f8 9DF90B30 		ldrsb	r3, [sp, #11]
 310 00fc 002B     		cmp	r3, #0
 311 00fe 02D0     		beq	.L21
 312              		.loc 1 161 0
 313 0100 9DF90B30 		ldrsb	r3, [sp, #11]
 314 0104 04E0     		b	.L16
 315              	.L21:
 316              		.loc 1 165 0
 317 0106 094A     		ldr	r2, .L25+4
 318 0108 9DF80730 		ldrb	r3, [sp, #7]
 319 010c 1371     		strb	r3, [r2, #4]
 320              		.loc 1 167 0
 321 010e 0023     		movs	r3, #0
 322              	.L16:
 323              		.loc 1 168 0
 324 0110 1846     		mov	r0, r3
 325 0112 054B     		ldr	r3, .L25
 326 0114 039A     		ldr	r2, [sp, #12]
 327 0116 1B68     		ldr	r3, [r3]
 328 0118 9A42     		cmp	r2, r3
 329 011a 01D0     		beq	.L24
 330 011c FFF7FEFF 		bl	__stack_chk_fail
 331              	.L24:
 332 0120 05B0     		add	sp, sp, #20
 333              		.cfi_def_cfa_offset 4
 334              		@ sp needed
 335 0122 5DF804FB 		ldr	pc, [sp], #4
 336              	.L26:
 337 0126 00BF     		.align	2
 338              	.L25:
 339 0128 00000000 		.word	__stack_chk_guard
 340 012c 00000000 		.word	po8030_conf
 341              		.cfi_endproc
ARM GAS  C:\Users\PCHAUT~1\AppData\Local\Temp\ccMxpIDf.s 			page 7


 342              	.LFE259:
 343              		.size	po8030_set_format, .-po8030_set_format
 344              		.section	.text.po8030_set_vga,"ax",%progbits
 345              		.align	1
 346              		.p2align 4,,15
 347              		.global	po8030_set_vga
 348              		.syntax unified
 349              		.thumb
 350              		.thumb_func
 351              		.fpu fpv4-sp-d16
 352              		.type	po8030_set_vga, %function
 353              	po8030_set_vga:
 354              	.LFB260:
 355              		.loc 1 178 0
 356              		.cfi_startproc
 357              		@ args = 0, pretend = 0, frame = 8
 358              		@ frame_needed = 0, uses_anonymous_args = 0
 359 0000 00B5     		push	{lr}
 360              		.cfi_def_cfa_offset 4
 361              		.cfi_offset 14, -4
 362 0002 83B0     		sub	sp, sp, #12
 363              		.cfi_def_cfa_offset 16
 364              		.loc 1 178 0
 365 0004 D24B     		ldr	r3, .L58
 366 0006 1B68     		ldr	r3, [r3]
 367 0008 0193     		str	r3, [sp, #4]
 368              		.loc 1 179 0
 369 000a 0023     		movs	r3, #0
 370 000c 8DF80330 		strb	r3, [sp, #3]
 371              		.loc 1 181 0
 372 0010 0020     		movs	r0, #0
 373 0012 FFF7FEFF 		bl	po8030_set_bank
 374 0016 0346     		mov	r3, r0
 375 0018 8DF80330 		strb	r3, [sp, #3]
 376 001c 9DF90330 		ldrsb	r3, [sp, #3]
 377 0020 002B     		cmp	r3, #0
 378 0022 02D0     		beq	.L28
 379              		.loc 1 182 0
 380 0024 9DF90330 		ldrsb	r3, [sp, #3]
 381 0028 A3E1     		b	.L29
 382              	.L28:
 383              		.loc 1 185 0
 384 002a 0022     		movs	r2, #0
 385 002c 0821     		movs	r1, #8
 386 002e 6E20     		movs	r0, #110
 387 0030 FFF7FEFF 		bl	write_reg
 388 0034 0346     		mov	r3, r0
 389 0036 8DF80330 		strb	r3, [sp, #3]
 390 003a 9DF90330 		ldrsb	r3, [sp, #3]
 391 003e 002B     		cmp	r3, #0
 392 0040 02D0     		beq	.L30
 393              		.loc 1 186 0
 394 0042 9DF90330 		ldrsb	r3, [sp, #3]
 395 0046 94E1     		b	.L29
 396              	.L30:
 397              		.loc 1 188 0
 398 0048 0122     		movs	r2, #1
ARM GAS  C:\Users\PCHAUT~1\AppData\Local\Temp\ccMxpIDf.s 			page 8


 399 004a 0921     		movs	r1, #9
 400 004c 6E20     		movs	r0, #110
 401 004e FFF7FEFF 		bl	write_reg
 402 0052 0346     		mov	r3, r0
 403 0054 8DF80330 		strb	r3, [sp, #3]
 404 0058 9DF90330 		ldrsb	r3, [sp, #3]
 405 005c 002B     		cmp	r3, #0
 406 005e 02D0     		beq	.L31
 407              		.loc 1 189 0
 408 0060 9DF90330 		ldrsb	r3, [sp, #3]
 409 0064 85E1     		b	.L29
 410              	.L31:
 411              		.loc 1 191 0
 412 0066 0022     		movs	r2, #0
 413 0068 0A21     		movs	r1, #10
 414 006a 6E20     		movs	r0, #110
 415 006c FFF7FEFF 		bl	write_reg
 416 0070 0346     		mov	r3, r0
 417 0072 8DF80330 		strb	r3, [sp, #3]
 418 0076 9DF90330 		ldrsb	r3, [sp, #3]
 419 007a 002B     		cmp	r3, #0
 420 007c 02D0     		beq	.L32
 421              		.loc 1 192 0
 422 007e 9DF90330 		ldrsb	r3, [sp, #3]
 423 0082 76E1     		b	.L29
 424              	.L32:
 425              		.loc 1 194 0
 426 0084 0122     		movs	r2, #1
 427 0086 0B21     		movs	r1, #11
 428 0088 6E20     		movs	r0, #110
 429 008a FFF7FEFF 		bl	write_reg
 430 008e 0346     		mov	r3, r0
 431 0090 8DF80330 		strb	r3, [sp, #3]
 432 0094 9DF90330 		ldrsb	r3, [sp, #3]
 433 0098 002B     		cmp	r3, #0
 434 009a 02D0     		beq	.L33
 435              		.loc 1 195 0
 436 009c 9DF90330 		ldrsb	r3, [sp, #3]
 437 00a0 67E1     		b	.L29
 438              	.L33:
 439              		.loc 1 197 0
 440 00a2 0222     		movs	r2, #2
 441 00a4 0C21     		movs	r1, #12
 442 00a6 6E20     		movs	r0, #110
 443 00a8 FFF7FEFF 		bl	write_reg
 444 00ac 0346     		mov	r3, r0
 445 00ae 8DF80330 		strb	r3, [sp, #3]
 446 00b2 9DF90330 		ldrsb	r3, [sp, #3]
 447 00b6 002B     		cmp	r3, #0
 448 00b8 02D0     		beq	.L34
 449              		.loc 1 198 0
 450 00ba 9DF90330 		ldrsb	r3, [sp, #3]
 451 00be 58E1     		b	.L29
 452              	.L34:
 453              		.loc 1 200 0
 454 00c0 8022     		movs	r2, #128
 455 00c2 0D21     		movs	r1, #13
ARM GAS  C:\Users\PCHAUT~1\AppData\Local\Temp\ccMxpIDf.s 			page 9


 456 00c4 6E20     		movs	r0, #110
 457 00c6 FFF7FEFF 		bl	write_reg
 458 00ca 0346     		mov	r3, r0
 459 00cc 8DF80330 		strb	r3, [sp, #3]
 460 00d0 9DF90330 		ldrsb	r3, [sp, #3]
 461 00d4 002B     		cmp	r3, #0
 462 00d6 02D0     		beq	.L35
 463              		.loc 1 201 0
 464 00d8 9DF90330 		ldrsb	r3, [sp, #3]
 465 00dc 49E1     		b	.L29
 466              	.L35:
 467              		.loc 1 203 0
 468 00de 0122     		movs	r2, #1
 469 00e0 0E21     		movs	r1, #14
 470 00e2 6E20     		movs	r0, #110
 471 00e4 FFF7FEFF 		bl	write_reg
 472 00e8 0346     		mov	r3, r0
 473 00ea 8DF80330 		strb	r3, [sp, #3]
 474 00ee 9DF90330 		ldrsb	r3, [sp, #3]
 475 00f2 002B     		cmp	r3, #0
 476 00f4 02D0     		beq	.L36
 477              		.loc 1 204 0
 478 00f6 9DF90330 		ldrsb	r3, [sp, #3]
 479 00fa 3AE1     		b	.L29
 480              	.L36:
 481              		.loc 1 206 0
 482 00fc E022     		movs	r2, #224
 483 00fe 0F21     		movs	r1, #15
 484 0100 6E20     		movs	r0, #110
 485 0102 FFF7FEFF 		bl	write_reg
 486 0106 0346     		mov	r3, r0
 487 0108 8DF80330 		strb	r3, [sp, #3]
 488 010c 9DF90330 		ldrsb	r3, [sp, #3]
 489 0110 002B     		cmp	r3, #0
 490 0112 02D0     		beq	.L37
 491              		.loc 1 207 0
 492 0114 9DF90330 		ldrsb	r3, [sp, #3]
 493 0118 2BE1     		b	.L29
 494              	.L37:
 495              		.loc 1 210 0
 496 011a 0022     		movs	r2, #0
 497 011c 3521     		movs	r1, #53
 498 011e 6E20     		movs	r0, #110
 499 0120 FFF7FEFF 		bl	write_reg
 500 0124 0346     		mov	r3, r0
 501 0126 8DF80330 		strb	r3, [sp, #3]
 502 012a 9DF90330 		ldrsb	r3, [sp, #3]
 503 012e 002B     		cmp	r3, #0
 504 0130 02D0     		beq	.L38
 505              		.loc 1 211 0
 506 0132 9DF90330 		ldrsb	r3, [sp, #3]
 507 0136 1CE1     		b	.L29
 508              	.L38:
 509              		.loc 1 213 0
 510 0138 0122     		movs	r2, #1
 511 013a 3621     		movs	r1, #54
 512 013c 6E20     		movs	r0, #110
ARM GAS  C:\Users\PCHAUT~1\AppData\Local\Temp\ccMxpIDf.s 			page 10


 513 013e FFF7FEFF 		bl	write_reg
 514 0142 0346     		mov	r3, r0
 515 0144 8DF80330 		strb	r3, [sp, #3]
 516 0148 9DF90330 		ldrsb	r3, [sp, #3]
 517 014c 002B     		cmp	r3, #0
 518 014e 02D0     		beq	.L39
 519              		.loc 1 214 0
 520 0150 9DF90330 		ldrsb	r3, [sp, #3]
 521 0154 0DE1     		b	.L29
 522              	.L39:
 523              		.loc 1 216 0
 524 0156 0222     		movs	r2, #2
 525 0158 3721     		movs	r1, #55
 526 015a 6E20     		movs	r0, #110
 527 015c FFF7FEFF 		bl	write_reg
 528 0160 0346     		mov	r3, r0
 529 0162 8DF80330 		strb	r3, [sp, #3]
 530 0166 9DF90330 		ldrsb	r3, [sp, #3]
 531 016a 002B     		cmp	r3, #0
 532 016c 02D0     		beq	.L40
 533              		.loc 1 217 0
 534 016e 9DF90330 		ldrsb	r3, [sp, #3]
 535 0172 FEE0     		b	.L29
 536              	.L40:
 537              		.loc 1 219 0
 538 0174 8022     		movs	r2, #128
 539 0176 3821     		movs	r1, #56
 540 0178 6E20     		movs	r0, #110
 541 017a FFF7FEFF 		bl	write_reg
 542 017e 0346     		mov	r3, r0
 543 0180 8DF80330 		strb	r3, [sp, #3]
 544 0184 9DF90330 		ldrsb	r3, [sp, #3]
 545 0188 002B     		cmp	r3, #0
 546 018a 02D0     		beq	.L41
 547              		.loc 1 220 0
 548 018c 9DF90330 		ldrsb	r3, [sp, #3]
 549 0190 EFE0     		b	.L29
 550              	.L41:
 551              		.loc 1 222 0
 552 0192 0022     		movs	r2, #0
 553 0194 3921     		movs	r1, #57
 554 0196 6E20     		movs	r0, #110
 555 0198 FFF7FEFF 		bl	write_reg
 556 019c 0346     		mov	r3, r0
 557 019e 8DF80330 		strb	r3, [sp, #3]
 558 01a2 9DF90330 		ldrsb	r3, [sp, #3]
 559 01a6 002B     		cmp	r3, #0
 560 01a8 02D0     		beq	.L42
 561              		.loc 1 223 0
 562 01aa 9DF90330 		ldrsb	r3, [sp, #3]
 563 01ae E0E0     		b	.L29
 564              	.L42:
 565              		.loc 1 225 0
 566 01b0 0122     		movs	r2, #1
 567 01b2 3A21     		movs	r1, #58
 568 01b4 6E20     		movs	r0, #110
 569 01b6 FFF7FEFF 		bl	write_reg
ARM GAS  C:\Users\PCHAUT~1\AppData\Local\Temp\ccMxpIDf.s 			page 11


 570 01ba 0346     		mov	r3, r0
 571 01bc 8DF80330 		strb	r3, [sp, #3]
 572 01c0 9DF90330 		ldrsb	r3, [sp, #3]
 573 01c4 002B     		cmp	r3, #0
 574 01c6 02D0     		beq	.L43
 575              		.loc 1 226 0
 576 01c8 9DF90330 		ldrsb	r3, [sp, #3]
 577 01cc D1E0     		b	.L29
 578              	.L43:
 579              		.loc 1 228 0
 580 01ce 0122     		movs	r2, #1
 581 01d0 3B21     		movs	r1, #59
 582 01d2 6E20     		movs	r0, #110
 583 01d4 FFF7FEFF 		bl	write_reg
 584 01d8 0346     		mov	r3, r0
 585 01da 8DF80330 		strb	r3, [sp, #3]
 586 01de 9DF90330 		ldrsb	r3, [sp, #3]
 587 01e2 002B     		cmp	r3, #0
 588 01e4 02D0     		beq	.L44
 589              		.loc 1 229 0
 590 01e6 9DF90330 		ldrsb	r3, [sp, #3]
 591 01ea C2E0     		b	.L29
 592              	.L44:
 593              		.loc 1 231 0
 594 01ec E022     		movs	r2, #224
 595 01ee 3C21     		movs	r1, #60
 596 01f0 6E20     		movs	r0, #110
 597 01f2 FFF7FEFF 		bl	write_reg
 598 01f6 0346     		mov	r3, r0
 599 01f8 8DF80330 		strb	r3, [sp, #3]
 600 01fc 9DF90330 		ldrsb	r3, [sp, #3]
 601 0200 002B     		cmp	r3, #0
 602 0202 02D0     		beq	.L45
 603              		.loc 1 232 0
 604 0204 9DF90330 		ldrsb	r3, [sp, #3]
 605 0208 B3E0     		b	.L29
 606              	.L45:
 607              		.loc 1 235 0
 608 020a 0022     		movs	r2, #0
 609 020c 3D21     		movs	r1, #61
 610 020e 6E20     		movs	r0, #110
 611 0210 FFF7FEFF 		bl	write_reg
 612 0214 0346     		mov	r3, r0
 613 0216 8DF80330 		strb	r3, [sp, #3]
 614 021a 9DF90330 		ldrsb	r3, [sp, #3]
 615 021e 002B     		cmp	r3, #0
 616 0220 02D0     		beq	.L46
 617              		.loc 1 236 0
 618 0222 9DF90330 		ldrsb	r3, [sp, #3]
 619 0226 A4E0     		b	.L29
 620              	.L46:
 621              		.loc 1 238 0
 622 0228 D622     		movs	r2, #214
 623 022a 3E21     		movs	r1, #62
 624 022c 6E20     		movs	r0, #110
 625 022e FFF7FEFF 		bl	write_reg
 626 0232 0346     		mov	r3, r0
ARM GAS  C:\Users\PCHAUT~1\AppData\Local\Temp\ccMxpIDf.s 			page 12


 627 0234 8DF80330 		strb	r3, [sp, #3]
 628 0238 9DF90330 		ldrsb	r3, [sp, #3]
 629 023c 002B     		cmp	r3, #0
 630 023e 02D0     		beq	.L47
 631              		.loc 1 239 0
 632 0240 9DF90330 		ldrsb	r3, [sp, #3]
 633 0244 95E0     		b	.L29
 634              	.L47:
 635              		.loc 1 241 0
 636 0246 0122     		movs	r2, #1
 637 0248 3F21     		movs	r1, #63
 638 024a 6E20     		movs	r0, #110
 639 024c FFF7FEFF 		bl	write_reg
 640 0250 0346     		mov	r3, r0
 641 0252 8DF80330 		strb	r3, [sp, #3]
 642 0256 9DF90330 		ldrsb	r3, [sp, #3]
 643 025a 002B     		cmp	r3, #0
 644 025c 02D0     		beq	.L48
 645              		.loc 1 242 0
 646 025e 9DF90330 		ldrsb	r3, [sp, #3]
 647 0262 86E0     		b	.L29
 648              	.L48:
 649              		.loc 1 244 0
 650 0264 AB22     		movs	r2, #171
 651 0266 4021     		movs	r1, #64
 652 0268 6E20     		movs	r0, #110
 653 026a FFF7FEFF 		bl	write_reg
 654 026e 0346     		mov	r3, r0
 655 0270 8DF80330 		strb	r3, [sp, #3]
 656 0274 9DF90330 		ldrsb	r3, [sp, #3]
 657 0278 002B     		cmp	r3, #0
 658 027a 02D0     		beq	.L49
 659              		.loc 1 245 0
 660 027c 9DF90330 		ldrsb	r3, [sp, #3]
 661 0280 77E0     		b	.L29
 662              	.L49:
 663              		.loc 1 247 0
 664 0282 0022     		movs	r2, #0
 665 0284 4121     		movs	r1, #65
 666 0286 6E20     		movs	r0, #110
 667 0288 FFF7FEFF 		bl	write_reg
 668 028c 0346     		mov	r3, r0
 669 028e 8DF80330 		strb	r3, [sp, #3]
 670 0292 9DF90330 		ldrsb	r3, [sp, #3]
 671 0296 002B     		cmp	r3, #0
 672 0298 02D0     		beq	.L50
 673              		.loc 1 248 0
 674 029a 9DF90330 		ldrsb	r3, [sp, #3]
 675 029e 68E0     		b	.L29
 676              	.L50:
 677              		.loc 1 250 0
 678 02a0 A122     		movs	r2, #161
 679 02a2 4221     		movs	r1, #66
 680 02a4 6E20     		movs	r0, #110
 681 02a6 FFF7FEFF 		bl	write_reg
 682 02aa 0346     		mov	r3, r0
 683 02ac 8DF80330 		strb	r3, [sp, #3]
ARM GAS  C:\Users\PCHAUT~1\AppData\Local\Temp\ccMxpIDf.s 			page 13


 684 02b0 9DF90330 		ldrsb	r3, [sp, #3]
 685 02b4 002B     		cmp	r3, #0
 686 02b6 02D0     		beq	.L51
 687              		.loc 1 251 0
 688 02b8 9DF90330 		ldrsb	r3, [sp, #3]
 689 02bc 59E0     		b	.L29
 690              	.L51:
 691              		.loc 1 253 0
 692 02be 0122     		movs	r2, #1
 693 02c0 4321     		movs	r1, #67
 694 02c2 6E20     		movs	r0, #110
 695 02c4 FFF7FEFF 		bl	write_reg
 696 02c8 0346     		mov	r3, r0
 697 02ca 8DF80330 		strb	r3, [sp, #3]
 698 02ce 9DF90330 		ldrsb	r3, [sp, #3]
 699 02d2 002B     		cmp	r3, #0
 700 02d4 02D0     		beq	.L52
 701              		.loc 1 254 0
 702 02d6 9DF90330 		ldrsb	r3, [sp, #3]
 703 02da 4AE0     		b	.L29
 704              	.L52:
 705              		.loc 1 256 0
 706 02dc 4022     		movs	r2, #64
 707 02de 4421     		movs	r1, #68
 708 02e0 6E20     		movs	r0, #110
 709 02e2 FFF7FEFF 		bl	write_reg
 710 02e6 0346     		mov	r3, r0
 711 02e8 8DF80330 		strb	r3, [sp, #3]
 712 02ec 9DF90330 		ldrsb	r3, [sp, #3]
 713 02f0 002B     		cmp	r3, #0
 714 02f2 02D0     		beq	.L53
 715              		.loc 1 257 0
 716 02f4 9DF90330 		ldrsb	r3, [sp, #3]
 717 02f8 3BE0     		b	.L29
 718              	.L53:
 719              		.loc 1 260 0
 720 02fa 0120     		movs	r0, #1
 721 02fc FFF7FEFF 		bl	po8030_set_bank
 722 0300 0346     		mov	r3, r0
 723 0302 8DF80330 		strb	r3, [sp, #3]
 724 0306 9DF90330 		ldrsb	r3, [sp, #3]
 725 030a 002B     		cmp	r3, #0
 726 030c 02D0     		beq	.L54
 727              		.loc 1 261 0
 728 030e 9DF90330 		ldrsb	r3, [sp, #3]
 729 0312 2EE0     		b	.L29
 730              	.L54:
 731              		.loc 1 264 0
 732 0314 2022     		movs	r2, #32
 733 0316 9321     		movs	r1, #147
 734 0318 6E20     		movs	r0, #110
 735 031a FFF7FEFF 		bl	write_reg
 736 031e 0346     		mov	r3, r0
 737 0320 8DF80330 		strb	r3, [sp, #3]
 738 0324 9DF90330 		ldrsb	r3, [sp, #3]
 739 0328 002B     		cmp	r3, #0
 740 032a 02D0     		beq	.L55
ARM GAS  C:\Users\PCHAUT~1\AppData\Local\Temp\ccMxpIDf.s 			page 14


 741              		.loc 1 265 0
 742 032c 9DF90330 		ldrsb	r3, [sp, #3]
 743 0330 1FE0     		b	.L29
 744              	.L55:
 745              		.loc 1 267 0
 746 0332 2022     		movs	r2, #32
 747 0334 9421     		movs	r1, #148
 748 0336 6E20     		movs	r0, #110
 749 0338 FFF7FEFF 		bl	write_reg
 750 033c 0346     		mov	r3, r0
 751 033e 8DF80330 		strb	r3, [sp, #3]
 752 0342 9DF90330 		ldrsb	r3, [sp, #3]
 753 0346 002B     		cmp	r3, #0
 754 0348 04D0     		beq	.L56
 755              		.loc 1 268 0
 756 034a 9DF90330 		ldrsb	r3, [sp, #3]
 757 034e 10E0     		b	.L29
 758              	.L59:
 759              		.align	2
 760              	.L58:
 761 0350 00000000 		.word	__stack_chk_guard
 762              	.L56:
 763              		.loc 1 271 0
 764 0354 0C4B     		ldr	r3, .L60
 765 0356 4FF42072 		mov	r2, #640
 766 035a 1A80     		strh	r2, [r3]	@ movhi
 767              		.loc 1 272 0
 768 035c 0A4B     		ldr	r3, .L60
 769 035e 4FF4F072 		mov	r2, #480
 770 0362 5A80     		strh	r2, [r3, #2]	@ movhi
 771              		.loc 1 273 0
 772 0364 084B     		ldr	r3, .L60
 773 0366 2022     		movs	r2, #32
 774 0368 5A71     		strb	r2, [r3, #5]
 775              		.loc 1 274 0
 776 036a 074B     		ldr	r3, .L60
 777 036c 2022     		movs	r2, #32
 778 036e 9A71     		strb	r2, [r3, #6]
 779              		.loc 1 276 0
 780 0370 0023     		movs	r3, #0
 781              	.L29:
 782              		.loc 1 277 0
 783 0372 1846     		mov	r0, r3
 784 0374 054B     		ldr	r3, .L60+4
 785 0376 019A     		ldr	r2, [sp, #4]
 786 0378 1B68     		ldr	r3, [r3]
 787 037a 9A42     		cmp	r2, r3
 788 037c 01D0     		beq	.L57
 789 037e FFF7FEFF 		bl	__stack_chk_fail
 790              	.L57:
 791 0382 03B0     		add	sp, sp, #12
 792              		.cfi_def_cfa_offset 4
 793              		@ sp needed
 794 0384 5DF804FB 		ldr	pc, [sp], #4
 795              	.L61:
 796              		.align	2
 797              	.L60:
ARM GAS  C:\Users\PCHAUT~1\AppData\Local\Temp\ccMxpIDf.s 			page 15


 798 0388 00000000 		.word	po8030_conf
 799 038c 00000000 		.word	__stack_chk_guard
 800              		.cfi_endproc
 801              	.LFE260:
 802              		.size	po8030_set_vga, .-po8030_set_vga
 803              		.section	.text.po8030_set_qvga,"ax",%progbits
 804              		.align	1
 805              		.p2align 4,,15
 806              		.global	po8030_set_qvga
 807              		.syntax unified
 808              		.thumb
 809              		.thumb_func
 810              		.fpu fpv4-sp-d16
 811              		.type	po8030_set_qvga, %function
 812              	po8030_set_qvga:
 813              	.LFB261:
 814              		.loc 1 287 0
 815              		.cfi_startproc
 816              		@ args = 0, pretend = 0, frame = 8
 817              		@ frame_needed = 0, uses_anonymous_args = 0
 818 0000 00B5     		push	{lr}
 819              		.cfi_def_cfa_offset 4
 820              		.cfi_offset 14, -4
 821 0002 83B0     		sub	sp, sp, #12
 822              		.cfi_def_cfa_offset 16
 823              		.loc 1 287 0
 824 0004 D24B     		ldr	r3, .L93
 825 0006 1B68     		ldr	r3, [r3]
 826 0008 0193     		str	r3, [sp, #4]
 827              		.loc 1 288 0
 828 000a 0023     		movs	r3, #0
 829 000c 8DF80330 		strb	r3, [sp, #3]
 830              		.loc 1 290 0
 831 0010 0020     		movs	r0, #0
 832 0012 FFF7FEFF 		bl	po8030_set_bank
 833 0016 0346     		mov	r3, r0
 834 0018 8DF80330 		strb	r3, [sp, #3]
 835 001c 9DF90330 		ldrsb	r3, [sp, #3]
 836 0020 002B     		cmp	r3, #0
 837 0022 02D0     		beq	.L63
 838              		.loc 1 291 0
 839 0024 9DF90330 		ldrsb	r3, [sp, #3]
 840 0028 A2E1     		b	.L64
 841              	.L63:
 842              		.loc 1 294 0
 843 002a 0022     		movs	r2, #0
 844 002c 0821     		movs	r1, #8
 845 002e 6E20     		movs	r0, #110
 846 0030 FFF7FEFF 		bl	write_reg
 847 0034 0346     		mov	r3, r0
 848 0036 8DF80330 		strb	r3, [sp, #3]
 849 003a 9DF90330 		ldrsb	r3, [sp, #3]
 850 003e 002B     		cmp	r3, #0
 851 0040 02D0     		beq	.L65
 852              		.loc 1 295 0
 853 0042 9DF90330 		ldrsb	r3, [sp, #3]
 854 0046 93E1     		b	.L64
ARM GAS  C:\Users\PCHAUT~1\AppData\Local\Temp\ccMxpIDf.s 			page 16


 855              	.L65:
 856              		.loc 1 297 0
 857 0048 0122     		movs	r2, #1
 858 004a 0921     		movs	r1, #9
 859 004c 6E20     		movs	r0, #110
 860 004e FFF7FEFF 		bl	write_reg
 861 0052 0346     		mov	r3, r0
 862 0054 8DF80330 		strb	r3, [sp, #3]
 863 0058 9DF90330 		ldrsb	r3, [sp, #3]
 864 005c 002B     		cmp	r3, #0
 865 005e 02D0     		beq	.L66
 866              		.loc 1 298 0
 867 0060 9DF90330 		ldrsb	r3, [sp, #3]
 868 0064 84E1     		b	.L64
 869              	.L66:
 870              		.loc 1 300 0
 871 0066 0022     		movs	r2, #0
 872 0068 0A21     		movs	r1, #10
 873 006a 6E20     		movs	r0, #110
 874 006c FFF7FEFF 		bl	write_reg
 875 0070 0346     		mov	r3, r0
 876 0072 8DF80330 		strb	r3, [sp, #3]
 877 0076 9DF90330 		ldrsb	r3, [sp, #3]
 878 007a 002B     		cmp	r3, #0
 879 007c 02D0     		beq	.L67
 880              		.loc 1 301 0
 881 007e 9DF90330 		ldrsb	r3, [sp, #3]
 882 0082 75E1     		b	.L64
 883              	.L67:
 884              		.loc 1 303 0
 885 0084 0122     		movs	r2, #1
 886 0086 0B21     		movs	r1, #11
 887 0088 6E20     		movs	r0, #110
 888 008a FFF7FEFF 		bl	write_reg
 889 008e 0346     		mov	r3, r0
 890 0090 8DF80330 		strb	r3, [sp, #3]
 891 0094 9DF90330 		ldrsb	r3, [sp, #3]
 892 0098 002B     		cmp	r3, #0
 893 009a 02D0     		beq	.L68
 894              		.loc 1 304 0
 895 009c 9DF90330 		ldrsb	r3, [sp, #3]
 896 00a0 66E1     		b	.L64
 897              	.L68:
 898              		.loc 1 306 0
 899 00a2 0122     		movs	r2, #1
 900 00a4 0C21     		movs	r1, #12
 901 00a6 6E20     		movs	r0, #110
 902 00a8 FFF7FEFF 		bl	write_reg
 903 00ac 0346     		mov	r3, r0
 904 00ae 8DF80330 		strb	r3, [sp, #3]
 905 00b2 9DF90330 		ldrsb	r3, [sp, #3]
 906 00b6 002B     		cmp	r3, #0
 907 00b8 02D0     		beq	.L69
 908              		.loc 1 307 0
 909 00ba 9DF90330 		ldrsb	r3, [sp, #3]
 910 00be 57E1     		b	.L64
 911              	.L69:
ARM GAS  C:\Users\PCHAUT~1\AppData\Local\Temp\ccMxpIDf.s 			page 17


 912              		.loc 1 309 0
 913 00c0 4022     		movs	r2, #64
 914 00c2 0D21     		movs	r1, #13
 915 00c4 6E20     		movs	r0, #110
 916 00c6 FFF7FEFF 		bl	write_reg
 917 00ca 0346     		mov	r3, r0
 918 00cc 8DF80330 		strb	r3, [sp, #3]
 919 00d0 9DF90330 		ldrsb	r3, [sp, #3]
 920 00d4 002B     		cmp	r3, #0
 921 00d6 02D0     		beq	.L70
 922              		.loc 1 310 0
 923 00d8 9DF90330 		ldrsb	r3, [sp, #3]
 924 00dc 48E1     		b	.L64
 925              	.L70:
 926              		.loc 1 312 0
 927 00de 0022     		movs	r2, #0
 928 00e0 0E21     		movs	r1, #14
 929 00e2 6E20     		movs	r0, #110
 930 00e4 FFF7FEFF 		bl	write_reg
 931 00e8 0346     		mov	r3, r0
 932 00ea 8DF80330 		strb	r3, [sp, #3]
 933 00ee 9DF90330 		ldrsb	r3, [sp, #3]
 934 00f2 002B     		cmp	r3, #0
 935 00f4 02D0     		beq	.L71
 936              		.loc 1 313 0
 937 00f6 9DF90330 		ldrsb	r3, [sp, #3]
 938 00fa 39E1     		b	.L64
 939              	.L71:
 940              		.loc 1 315 0
 941 00fc F022     		movs	r2, #240
 942 00fe 0F21     		movs	r1, #15
 943 0100 6E20     		movs	r0, #110
 944 0102 FFF7FEFF 		bl	write_reg
 945 0106 0346     		mov	r3, r0
 946 0108 8DF80330 		strb	r3, [sp, #3]
 947 010c 9DF90330 		ldrsb	r3, [sp, #3]
 948 0110 002B     		cmp	r3, #0
 949 0112 02D0     		beq	.L72
 950              		.loc 1 316 0
 951 0114 9DF90330 		ldrsb	r3, [sp, #3]
 952 0118 2AE1     		b	.L64
 953              	.L72:
 954              		.loc 1 319 0
 955 011a 0022     		movs	r2, #0
 956 011c 3521     		movs	r1, #53
 957 011e 6E20     		movs	r0, #110
 958 0120 FFF7FEFF 		bl	write_reg
 959 0124 0346     		mov	r3, r0
 960 0126 8DF80330 		strb	r3, [sp, #3]
 961 012a 9DF90330 		ldrsb	r3, [sp, #3]
 962 012e 002B     		cmp	r3, #0
 963 0130 02D0     		beq	.L73
 964              		.loc 1 320 0
 965 0132 9DF90330 		ldrsb	r3, [sp, #3]
 966 0136 1BE1     		b	.L64
 967              	.L73:
 968              		.loc 1 322 0
ARM GAS  C:\Users\PCHAUT~1\AppData\Local\Temp\ccMxpIDf.s 			page 18


 969 0138 0122     		movs	r2, #1
 970 013a 3621     		movs	r1, #54
 971 013c 6E20     		movs	r0, #110
 972 013e FFF7FEFF 		bl	write_reg
 973 0142 0346     		mov	r3, r0
 974 0144 8DF80330 		strb	r3, [sp, #3]
 975 0148 9DF90330 		ldrsb	r3, [sp, #3]
 976 014c 002B     		cmp	r3, #0
 977 014e 02D0     		beq	.L74
 978              		.loc 1 323 0
 979 0150 9DF90330 		ldrsb	r3, [sp, #3]
 980 0154 0CE1     		b	.L64
 981              	.L74:
 982              		.loc 1 325 0
 983 0156 0122     		movs	r2, #1
 984 0158 3721     		movs	r1, #55
 985 015a 6E20     		movs	r0, #110
 986 015c FFF7FEFF 		bl	write_reg
 987 0160 0346     		mov	r3, r0
 988 0162 8DF80330 		strb	r3, [sp, #3]
 989 0166 9DF90330 		ldrsb	r3, [sp, #3]
 990 016a 002B     		cmp	r3, #0
 991 016c 02D0     		beq	.L75
 992              		.loc 1 326 0
 993 016e 9DF90330 		ldrsb	r3, [sp, #3]
 994 0172 FDE0     		b	.L64
 995              	.L75:
 996              		.loc 1 328 0
 997 0174 4022     		movs	r2, #64
 998 0176 3821     		movs	r1, #56
 999 0178 6E20     		movs	r0, #110
 1000 017a FFF7FEFF 		bl	write_reg
 1001 017e 0346     		mov	r3, r0
 1002 0180 8DF80330 		strb	r3, [sp, #3]
 1003 0184 9DF90330 		ldrsb	r3, [sp, #3]
 1004 0188 002B     		cmp	r3, #0
 1005 018a 02D0     		beq	.L76
 1006              		.loc 1 329 0
 1007 018c 9DF90330 		ldrsb	r3, [sp, #3]
 1008 0190 EEE0     		b	.L64
 1009              	.L76:
 1010              		.loc 1 331 0
 1011 0192 0022     		movs	r2, #0
 1012 0194 3921     		movs	r1, #57
 1013 0196 6E20     		movs	r0, #110
 1014 0198 FFF7FEFF 		bl	write_reg
 1015 019c 0346     		mov	r3, r0
 1016 019e 8DF80330 		strb	r3, [sp, #3]
 1017 01a2 9DF90330 		ldrsb	r3, [sp, #3]
 1018 01a6 002B     		cmp	r3, #0
 1019 01a8 02D0     		beq	.L77
 1020              		.loc 1 332 0
 1021 01aa 9DF90330 		ldrsb	r3, [sp, #3]
 1022 01ae DFE0     		b	.L64
 1023              	.L77:
 1024              		.loc 1 334 0
 1025 01b0 0122     		movs	r2, #1
ARM GAS  C:\Users\PCHAUT~1\AppData\Local\Temp\ccMxpIDf.s 			page 19


 1026 01b2 3A21     		movs	r1, #58
 1027 01b4 6E20     		movs	r0, #110
 1028 01b6 FFF7FEFF 		bl	write_reg
 1029 01ba 0346     		mov	r3, r0
 1030 01bc 8DF80330 		strb	r3, [sp, #3]
 1031 01c0 9DF90330 		ldrsb	r3, [sp, #3]
 1032 01c4 002B     		cmp	r3, #0
 1033 01c6 02D0     		beq	.L78
 1034              		.loc 1 335 0
 1035 01c8 9DF90330 		ldrsb	r3, [sp, #3]
 1036 01cc D0E0     		b	.L64
 1037              	.L78:
 1038              		.loc 1 337 0
 1039 01ce 0022     		movs	r2, #0
 1040 01d0 3B21     		movs	r1, #59
 1041 01d2 6E20     		movs	r0, #110
 1042 01d4 FFF7FEFF 		bl	write_reg
 1043 01d8 0346     		mov	r3, r0
 1044 01da 8DF80330 		strb	r3, [sp, #3]
 1045 01de 9DF90330 		ldrsb	r3, [sp, #3]
 1046 01e2 002B     		cmp	r3, #0
 1047 01e4 02D0     		beq	.L79
 1048              		.loc 1 338 0
 1049 01e6 9DF90330 		ldrsb	r3, [sp, #3]
 1050 01ea C1E0     		b	.L64
 1051              	.L79:
 1052              		.loc 1 340 0
 1053 01ec F022     		movs	r2, #240
 1054 01ee 3C21     		movs	r1, #60
 1055 01f0 6E20     		movs	r0, #110
 1056 01f2 FFF7FEFF 		bl	write_reg
 1057 01f6 0346     		mov	r3, r0
 1058 01f8 8DF80330 		strb	r3, [sp, #3]
 1059 01fc 9DF90330 		ldrsb	r3, [sp, #3]
 1060 0200 002B     		cmp	r3, #0
 1061 0202 02D0     		beq	.L80
 1062              		.loc 1 341 0
 1063 0204 9DF90330 		ldrsb	r3, [sp, #3]
 1064 0208 B2E0     		b	.L64
 1065              	.L80:
 1066              		.loc 1 344 0
 1067 020a 0022     		movs	r2, #0
 1068 020c 3D21     		movs	r1, #61
 1069 020e 6E20     		movs	r0, #110
 1070 0210 FFF7FEFF 		bl	write_reg
 1071 0214 0346     		mov	r3, r0
 1072 0216 8DF80330 		strb	r3, [sp, #3]
 1073 021a 9DF90330 		ldrsb	r3, [sp, #3]
 1074 021e 002B     		cmp	r3, #0
 1075 0220 02D0     		beq	.L81
 1076              		.loc 1 345 0
 1077 0222 9DF90330 		ldrsb	r3, [sp, #3]
 1078 0226 A3E0     		b	.L64
 1079              	.L81:
 1080              		.loc 1 347 0
 1081 0228 6B22     		movs	r2, #107
 1082 022a 3E21     		movs	r1, #62
ARM GAS  C:\Users\PCHAUT~1\AppData\Local\Temp\ccMxpIDf.s 			page 20


 1083 022c 6E20     		movs	r0, #110
 1084 022e FFF7FEFF 		bl	write_reg
 1085 0232 0346     		mov	r3, r0
 1086 0234 8DF80330 		strb	r3, [sp, #3]
 1087 0238 9DF90330 		ldrsb	r3, [sp, #3]
 1088 023c 002B     		cmp	r3, #0
 1089 023e 02D0     		beq	.L82
 1090              		.loc 1 348 0
 1091 0240 9DF90330 		ldrsb	r3, [sp, #3]
 1092 0244 94E0     		b	.L64
 1093              	.L82:
 1094              		.loc 1 350 0
 1095 0246 0022     		movs	r2, #0
 1096 0248 3F21     		movs	r1, #63
 1097 024a 6E20     		movs	r0, #110
 1098 024c FFF7FEFF 		bl	write_reg
 1099 0250 0346     		mov	r3, r0
 1100 0252 8DF80330 		strb	r3, [sp, #3]
 1101 0256 9DF90330 		ldrsb	r3, [sp, #3]
 1102 025a 002B     		cmp	r3, #0
 1103 025c 02D0     		beq	.L83
 1104              		.loc 1 351 0
 1105 025e 9DF90330 		ldrsb	r3, [sp, #3]
 1106 0262 85E0     		b	.L64
 1107              	.L83:
 1108              		.loc 1 353 0
 1109 0264 D622     		movs	r2, #214
 1110 0266 4021     		movs	r1, #64
 1111 0268 6E20     		movs	r0, #110
 1112 026a FFF7FEFF 		bl	write_reg
 1113 026e 0346     		mov	r3, r0
 1114 0270 8DF80330 		strb	r3, [sp, #3]
 1115 0274 9DF90330 		ldrsb	r3, [sp, #3]
 1116 0278 002B     		cmp	r3, #0
 1117 027a 02D0     		beq	.L84
 1118              		.loc 1 354 0
 1119 027c 9DF90330 		ldrsb	r3, [sp, #3]
 1120 0280 76E0     		b	.L64
 1121              	.L84:
 1122              		.loc 1 356 0
 1123 0282 0022     		movs	r2, #0
 1124 0284 4121     		movs	r1, #65
 1125 0286 6E20     		movs	r0, #110
 1126 0288 FFF7FEFF 		bl	write_reg
 1127 028c 0346     		mov	r3, r0
 1128 028e 8DF80330 		strb	r3, [sp, #3]
 1129 0292 9DF90330 		ldrsb	r3, [sp, #3]
 1130 0296 002B     		cmp	r3, #0
 1131 0298 02D0     		beq	.L85
 1132              		.loc 1 357 0
 1133 029a 9DF90330 		ldrsb	r3, [sp, #3]
 1134 029e 67E0     		b	.L64
 1135              	.L85:
 1136              		.loc 1 359 0
 1137 02a0 5022     		movs	r2, #80
 1138 02a2 4221     		movs	r1, #66
 1139 02a4 6E20     		movs	r0, #110
ARM GAS  C:\Users\PCHAUT~1\AppData\Local\Temp\ccMxpIDf.s 			page 21


 1140 02a6 FFF7FEFF 		bl	write_reg
 1141 02aa 0346     		mov	r3, r0
 1142 02ac 8DF80330 		strb	r3, [sp, #3]
 1143 02b0 9DF90330 		ldrsb	r3, [sp, #3]
 1144 02b4 002B     		cmp	r3, #0
 1145 02b6 02D0     		beq	.L86
 1146              		.loc 1 360 0
 1147 02b8 9DF90330 		ldrsb	r3, [sp, #3]
 1148 02bc 58E0     		b	.L64
 1149              	.L86:
 1150              		.loc 1 362 0
 1151 02be 0022     		movs	r2, #0
 1152 02c0 4321     		movs	r1, #67
 1153 02c2 6E20     		movs	r0, #110
 1154 02c4 FFF7FEFF 		bl	write_reg
 1155 02c8 0346     		mov	r3, r0
 1156 02ca 8DF80330 		strb	r3, [sp, #3]
 1157 02ce 9DF90330 		ldrsb	r3, [sp, #3]
 1158 02d2 002B     		cmp	r3, #0
 1159 02d4 02D0     		beq	.L87
 1160              		.loc 1 363 0
 1161 02d6 9DF90330 		ldrsb	r3, [sp, #3]
 1162 02da 49E0     		b	.L64
 1163              	.L87:
 1164              		.loc 1 365 0
 1165 02dc A022     		movs	r2, #160
 1166 02de 4421     		movs	r1, #68
 1167 02e0 6E20     		movs	r0, #110
 1168 02e2 FFF7FEFF 		bl	write_reg
 1169 02e6 0346     		mov	r3, r0
 1170 02e8 8DF80330 		strb	r3, [sp, #3]
 1171 02ec 9DF90330 		ldrsb	r3, [sp, #3]
 1172 02f0 002B     		cmp	r3, #0
 1173 02f2 02D0     		beq	.L88
 1174              		.loc 1 366 0
 1175 02f4 9DF90330 		ldrsb	r3, [sp, #3]
 1176 02f8 3AE0     		b	.L64
 1177              	.L88:
 1178              		.loc 1 369 0
 1179 02fa 0120     		movs	r0, #1
 1180 02fc FFF7FEFF 		bl	po8030_set_bank
 1181 0300 0346     		mov	r3, r0
 1182 0302 8DF80330 		strb	r3, [sp, #3]
 1183 0306 9DF90330 		ldrsb	r3, [sp, #3]
 1184 030a 002B     		cmp	r3, #0
 1185 030c 02D0     		beq	.L89
 1186              		.loc 1 370 0
 1187 030e 9DF90330 		ldrsb	r3, [sp, #3]
 1188 0312 2DE0     		b	.L64
 1189              	.L89:
 1190              		.loc 1 373 0
 1191 0314 4022     		movs	r2, #64
 1192 0316 9321     		movs	r1, #147
 1193 0318 6E20     		movs	r0, #110
 1194 031a FFF7FEFF 		bl	write_reg
 1195 031e 0346     		mov	r3, r0
 1196 0320 8DF80330 		strb	r3, [sp, #3]
ARM GAS  C:\Users\PCHAUT~1\AppData\Local\Temp\ccMxpIDf.s 			page 22


 1197 0324 9DF90330 		ldrsb	r3, [sp, #3]
 1198 0328 002B     		cmp	r3, #0
 1199 032a 02D0     		beq	.L90
 1200              		.loc 1 374 0
 1201 032c 9DF90330 		ldrsb	r3, [sp, #3]
 1202 0330 1EE0     		b	.L64
 1203              	.L90:
 1204              		.loc 1 376 0
 1205 0332 4022     		movs	r2, #64
 1206 0334 9421     		movs	r1, #148
 1207 0336 6E20     		movs	r0, #110
 1208 0338 FFF7FEFF 		bl	write_reg
 1209 033c 0346     		mov	r3, r0
 1210 033e 8DF80330 		strb	r3, [sp, #3]
 1211 0342 9DF90330 		ldrsb	r3, [sp, #3]
 1212 0346 002B     		cmp	r3, #0
 1213 0348 04D0     		beq	.L91
 1214              		.loc 1 377 0
 1215 034a 9DF90330 		ldrsb	r3, [sp, #3]
 1216 034e 0FE0     		b	.L64
 1217              	.L94:
 1218              		.align	2
 1219              	.L93:
 1220 0350 00000000 		.word	__stack_chk_guard
 1221              	.L91:
 1222              		.loc 1 380 0
 1223 0354 0C4B     		ldr	r3, .L95
 1224 0356 4FF4A072 		mov	r2, #320
 1225 035a 1A80     		strh	r2, [r3]	@ movhi
 1226              		.loc 1 381 0
 1227 035c 0A4B     		ldr	r3, .L95
 1228 035e F022     		movs	r2, #240
 1229 0360 5A80     		strh	r2, [r3, #2]	@ movhi
 1230              		.loc 1 382 0
 1231 0362 094B     		ldr	r3, .L95
 1232 0364 2022     		movs	r2, #32
 1233 0366 5A71     		strb	r2, [r3, #5]
 1234              		.loc 1 383 0
 1235 0368 074B     		ldr	r3, .L95
 1236 036a 2022     		movs	r2, #32
 1237 036c 9A71     		strb	r2, [r3, #6]
 1238              		.loc 1 385 0
 1239 036e 0023     		movs	r3, #0
 1240              	.L64:
 1241              		.loc 1 386 0
 1242 0370 1846     		mov	r0, r3
 1243 0372 064B     		ldr	r3, .L95+4
 1244 0374 019A     		ldr	r2, [sp, #4]
 1245 0376 1B68     		ldr	r3, [r3]
 1246 0378 9A42     		cmp	r2, r3
 1247 037a 01D0     		beq	.L92
 1248 037c FFF7FEFF 		bl	__stack_chk_fail
 1249              	.L92:
 1250 0380 03B0     		add	sp, sp, #12
 1251              		.cfi_def_cfa_offset 4
 1252              		@ sp needed
 1253 0382 5DF804FB 		ldr	pc, [sp], #4
ARM GAS  C:\Users\PCHAUT~1\AppData\Local\Temp\ccMxpIDf.s 			page 23


 1254              	.L96:
 1255 0386 00BF     		.align	2
 1256              	.L95:
 1257 0388 00000000 		.word	po8030_conf
 1258 038c 00000000 		.word	__stack_chk_guard
 1259              		.cfi_endproc
 1260              	.LFE261:
 1261              		.size	po8030_set_qvga, .-po8030_set_qvga
 1262              		.section	.text.po8030_set_qqvga,"ax",%progbits
 1263              		.align	1
 1264              		.p2align 4,,15
 1265              		.global	po8030_set_qqvga
 1266              		.syntax unified
 1267              		.thumb
 1268              		.thumb_func
 1269              		.fpu fpv4-sp-d16
 1270              		.type	po8030_set_qqvga, %function
 1271              	po8030_set_qqvga:
 1272              	.LFB262:
 1273              		.loc 1 396 0
 1274              		.cfi_startproc
 1275              		@ args = 0, pretend = 0, frame = 8
 1276              		@ frame_needed = 0, uses_anonymous_args = 0
 1277 0000 00B5     		push	{lr}
 1278              		.cfi_def_cfa_offset 4
 1279              		.cfi_offset 14, -4
 1280 0002 83B0     		sub	sp, sp, #12
 1281              		.cfi_def_cfa_offset 16
 1282              		.loc 1 396 0
 1283 0004 D24B     		ldr	r3, .L128
 1284 0006 1B68     		ldr	r3, [r3]
 1285 0008 0193     		str	r3, [sp, #4]
 1286              		.loc 1 397 0
 1287 000a 0023     		movs	r3, #0
 1288 000c 8DF80330 		strb	r3, [sp, #3]
 1289              		.loc 1 399 0
 1290 0010 0020     		movs	r0, #0
 1291 0012 FFF7FEFF 		bl	po8030_set_bank
 1292 0016 0346     		mov	r3, r0
 1293 0018 8DF80330 		strb	r3, [sp, #3]
 1294 001c 9DF90330 		ldrsb	r3, [sp, #3]
 1295 0020 002B     		cmp	r3, #0
 1296 0022 02D0     		beq	.L98
 1297              		.loc 1 400 0
 1298 0024 9DF90330 		ldrsb	r3, [sp, #3]
 1299 0028 A1E1     		b	.L99
 1300              	.L98:
 1301              		.loc 1 403 0
 1302 002a 0022     		movs	r2, #0
 1303 002c 0821     		movs	r1, #8
 1304 002e 6E20     		movs	r0, #110
 1305 0030 FFF7FEFF 		bl	write_reg
 1306 0034 0346     		mov	r3, r0
 1307 0036 8DF80330 		strb	r3, [sp, #3]
 1308 003a 9DF90330 		ldrsb	r3, [sp, #3]
 1309 003e 002B     		cmp	r3, #0
 1310 0040 02D0     		beq	.L100
ARM GAS  C:\Users\PCHAUT~1\AppData\Local\Temp\ccMxpIDf.s 			page 24


 1311              		.loc 1 404 0
 1312 0042 9DF90330 		ldrsb	r3, [sp, #3]
 1313 0046 92E1     		b	.L99
 1314              	.L100:
 1315              		.loc 1 406 0
 1316 0048 0122     		movs	r2, #1
 1317 004a 0921     		movs	r1, #9
 1318 004c 6E20     		movs	r0, #110
 1319 004e FFF7FEFF 		bl	write_reg
 1320 0052 0346     		mov	r3, r0
 1321 0054 8DF80330 		strb	r3, [sp, #3]
 1322 0058 9DF90330 		ldrsb	r3, [sp, #3]
 1323 005c 002B     		cmp	r3, #0
 1324 005e 02D0     		beq	.L101
 1325              		.loc 1 407 0
 1326 0060 9DF90330 		ldrsb	r3, [sp, #3]
 1327 0064 83E1     		b	.L99
 1328              	.L101:
 1329              		.loc 1 409 0
 1330 0066 0022     		movs	r2, #0
 1331 0068 0A21     		movs	r1, #10
 1332 006a 6E20     		movs	r0, #110
 1333 006c FFF7FEFF 		bl	write_reg
 1334 0070 0346     		mov	r3, r0
 1335 0072 8DF80330 		strb	r3, [sp, #3]
 1336 0076 9DF90330 		ldrsb	r3, [sp, #3]
 1337 007a 002B     		cmp	r3, #0
 1338 007c 02D0     		beq	.L102
 1339              		.loc 1 410 0
 1340 007e 9DF90330 		ldrsb	r3, [sp, #3]
 1341 0082 74E1     		b	.L99
 1342              	.L102:
 1343              		.loc 1 412 0
 1344 0084 0122     		movs	r2, #1
 1345 0086 0B21     		movs	r1, #11
 1346 0088 6E20     		movs	r0, #110
 1347 008a FFF7FEFF 		bl	write_reg
 1348 008e 0346     		mov	r3, r0
 1349 0090 8DF80330 		strb	r3, [sp, #3]
 1350 0094 9DF90330 		ldrsb	r3, [sp, #3]
 1351 0098 002B     		cmp	r3, #0
 1352 009a 02D0     		beq	.L103
 1353              		.loc 1 413 0
 1354 009c 9DF90330 		ldrsb	r3, [sp, #3]
 1355 00a0 65E1     		b	.L99
 1356              	.L103:
 1357              		.loc 1 415 0
 1358 00a2 0022     		movs	r2, #0
 1359 00a4 0C21     		movs	r1, #12
 1360 00a6 6E20     		movs	r0, #110
 1361 00a8 FFF7FEFF 		bl	write_reg
 1362 00ac 0346     		mov	r3, r0
 1363 00ae 8DF80330 		strb	r3, [sp, #3]
 1364 00b2 9DF90330 		ldrsb	r3, [sp, #3]
 1365 00b6 002B     		cmp	r3, #0
 1366 00b8 02D0     		beq	.L104
 1367              		.loc 1 416 0
ARM GAS  C:\Users\PCHAUT~1\AppData\Local\Temp\ccMxpIDf.s 			page 25


 1368 00ba 9DF90330 		ldrsb	r3, [sp, #3]
 1369 00be 56E1     		b	.L99
 1370              	.L104:
 1371              		.loc 1 418 0
 1372 00c0 A022     		movs	r2, #160
 1373 00c2 0D21     		movs	r1, #13
 1374 00c4 6E20     		movs	r0, #110
 1375 00c6 FFF7FEFF 		bl	write_reg
 1376 00ca 0346     		mov	r3, r0
 1377 00cc 8DF80330 		strb	r3, [sp, #3]
 1378 00d0 9DF90330 		ldrsb	r3, [sp, #3]
 1379 00d4 002B     		cmp	r3, #0
 1380 00d6 02D0     		beq	.L105
 1381              		.loc 1 419 0
 1382 00d8 9DF90330 		ldrsb	r3, [sp, #3]
 1383 00dc 47E1     		b	.L99
 1384              	.L105:
 1385              		.loc 1 421 0
 1386 00de 0022     		movs	r2, #0
 1387 00e0 0E21     		movs	r1, #14
 1388 00e2 6E20     		movs	r0, #110
 1389 00e4 FFF7FEFF 		bl	write_reg
 1390 00e8 0346     		mov	r3, r0
 1391 00ea 8DF80330 		strb	r3, [sp, #3]
 1392 00ee 9DF90330 		ldrsb	r3, [sp, #3]
 1393 00f2 002B     		cmp	r3, #0
 1394 00f4 02D0     		beq	.L106
 1395              		.loc 1 422 0
 1396 00f6 9DF90330 		ldrsb	r3, [sp, #3]
 1397 00fa 38E1     		b	.L99
 1398              	.L106:
 1399              		.loc 1 424 0
 1400 00fc 7822     		movs	r2, #120
 1401 00fe 0F21     		movs	r1, #15
 1402 0100 6E20     		movs	r0, #110
 1403 0102 FFF7FEFF 		bl	write_reg
 1404 0106 0346     		mov	r3, r0
 1405 0108 8DF80330 		strb	r3, [sp, #3]
 1406 010c 9DF90330 		ldrsb	r3, [sp, #3]
 1407 0110 002B     		cmp	r3, #0
 1408 0112 02D0     		beq	.L107
 1409              		.loc 1 425 0
 1410 0114 9DF90330 		ldrsb	r3, [sp, #3]
 1411 0118 29E1     		b	.L99
 1412              	.L107:
 1413              		.loc 1 428 0
 1414 011a 0022     		movs	r2, #0
 1415 011c 3521     		movs	r1, #53
 1416 011e 6E20     		movs	r0, #110
 1417 0120 FFF7FEFF 		bl	write_reg
 1418 0124 0346     		mov	r3, r0
 1419 0126 8DF80330 		strb	r3, [sp, #3]
 1420 012a 9DF90330 		ldrsb	r3, [sp, #3]
 1421 012e 002B     		cmp	r3, #0
 1422 0130 02D0     		beq	.L108
 1423              		.loc 1 429 0
 1424 0132 9DF90330 		ldrsb	r3, [sp, #3]
ARM GAS  C:\Users\PCHAUT~1\AppData\Local\Temp\ccMxpIDf.s 			page 26


 1425 0136 1AE1     		b	.L99
 1426              	.L108:
 1427              		.loc 1 431 0
 1428 0138 0122     		movs	r2, #1
 1429 013a 3621     		movs	r1, #54
 1430 013c 6E20     		movs	r0, #110
 1431 013e FFF7FEFF 		bl	write_reg
 1432 0142 0346     		mov	r3, r0
 1433 0144 8DF80330 		strb	r3, [sp, #3]
 1434 0148 9DF90330 		ldrsb	r3, [sp, #3]
 1435 014c 002B     		cmp	r3, #0
 1436 014e 02D0     		beq	.L109
 1437              		.loc 1 432 0
 1438 0150 9DF90330 		ldrsb	r3, [sp, #3]
 1439 0154 0BE1     		b	.L99
 1440              	.L109:
 1441              		.loc 1 434 0
 1442 0156 0022     		movs	r2, #0
 1443 0158 3721     		movs	r1, #55
 1444 015a 6E20     		movs	r0, #110
 1445 015c FFF7FEFF 		bl	write_reg
 1446 0160 0346     		mov	r3, r0
 1447 0162 8DF80330 		strb	r3, [sp, #3]
 1448 0166 9DF90330 		ldrsb	r3, [sp, #3]
 1449 016a 002B     		cmp	r3, #0
 1450 016c 02D0     		beq	.L110
 1451              		.loc 1 435 0
 1452 016e 9DF90330 		ldrsb	r3, [sp, #3]
 1453 0172 FCE0     		b	.L99
 1454              	.L110:
 1455              		.loc 1 437 0
 1456 0174 A022     		movs	r2, #160
 1457 0176 3821     		movs	r1, #56
 1458 0178 6E20     		movs	r0, #110
 1459 017a FFF7FEFF 		bl	write_reg
 1460 017e 0346     		mov	r3, r0
 1461 0180 8DF80330 		strb	r3, [sp, #3]
 1462 0184 9DF90330 		ldrsb	r3, [sp, #3]
 1463 0188 002B     		cmp	r3, #0
 1464 018a 02D0     		beq	.L111
 1465              		.loc 1 438 0
 1466 018c 9DF90330 		ldrsb	r3, [sp, #3]
 1467 0190 EDE0     		b	.L99
 1468              	.L111:
 1469              		.loc 1 440 0
 1470 0192 0022     		movs	r2, #0
 1471 0194 3921     		movs	r1, #57
 1472 0196 6E20     		movs	r0, #110
 1473 0198 FFF7FEFF 		bl	write_reg
 1474 019c 0346     		mov	r3, r0
 1475 019e 8DF80330 		strb	r3, [sp, #3]
 1476 01a2 9DF90330 		ldrsb	r3, [sp, #3]
 1477 01a6 002B     		cmp	r3, #0
 1478 01a8 02D0     		beq	.L112
 1479              		.loc 1 441 0
 1480 01aa 9DF90330 		ldrsb	r3, [sp, #3]
 1481 01ae DEE0     		b	.L99
ARM GAS  C:\Users\PCHAUT~1\AppData\Local\Temp\ccMxpIDf.s 			page 27


 1482              	.L112:
 1483              		.loc 1 443 0
 1484 01b0 0122     		movs	r2, #1
 1485 01b2 3A21     		movs	r1, #58
 1486 01b4 6E20     		movs	r0, #110
 1487 01b6 FFF7FEFF 		bl	write_reg
 1488 01ba 0346     		mov	r3, r0
 1489 01bc 8DF80330 		strb	r3, [sp, #3]
 1490 01c0 9DF90330 		ldrsb	r3, [sp, #3]
 1491 01c4 002B     		cmp	r3, #0
 1492 01c6 02D0     		beq	.L113
 1493              		.loc 1 444 0
 1494 01c8 9DF90330 		ldrsb	r3, [sp, #3]
 1495 01cc CFE0     		b	.L99
 1496              	.L113:
 1497              		.loc 1 446 0
 1498 01ce 0022     		movs	r2, #0
 1499 01d0 3B21     		movs	r1, #59
 1500 01d2 6E20     		movs	r0, #110
 1501 01d4 FFF7FEFF 		bl	write_reg
 1502 01d8 0346     		mov	r3, r0
 1503 01da 8DF80330 		strb	r3, [sp, #3]
 1504 01de 9DF90330 		ldrsb	r3, [sp, #3]
 1505 01e2 002B     		cmp	r3, #0
 1506 01e4 02D0     		beq	.L114
 1507              		.loc 1 447 0
 1508 01e6 9DF90330 		ldrsb	r3, [sp, #3]
 1509 01ea C0E0     		b	.L99
 1510              	.L114:
 1511              		.loc 1 449 0
 1512 01ec 7822     		movs	r2, #120
 1513 01ee 3C21     		movs	r1, #60
 1514 01f0 6E20     		movs	r0, #110
 1515 01f2 FFF7FEFF 		bl	write_reg
 1516 01f6 0346     		mov	r3, r0
 1517 01f8 8DF80330 		strb	r3, [sp, #3]
 1518 01fc 9DF90330 		ldrsb	r3, [sp, #3]
 1519 0200 002B     		cmp	r3, #0
 1520 0202 02D0     		beq	.L115
 1521              		.loc 1 450 0
 1522 0204 9DF90330 		ldrsb	r3, [sp, #3]
 1523 0208 B1E0     		b	.L99
 1524              	.L115:
 1525              		.loc 1 453 0
 1526 020a 0022     		movs	r2, #0
 1527 020c 3D21     		movs	r1, #61
 1528 020e 6E20     		movs	r0, #110
 1529 0210 FFF7FEFF 		bl	write_reg
 1530 0214 0346     		mov	r3, r0
 1531 0216 8DF80330 		strb	r3, [sp, #3]
 1532 021a 9DF90330 		ldrsb	r3, [sp, #3]
 1533 021e 002B     		cmp	r3, #0
 1534 0220 02D0     		beq	.L116
 1535              		.loc 1 454 0
 1536 0222 9DF90330 		ldrsb	r3, [sp, #3]
 1537 0226 A2E0     		b	.L99
 1538              	.L116:
ARM GAS  C:\Users\PCHAUT~1\AppData\Local\Temp\ccMxpIDf.s 			page 28


 1539              		.loc 1 456 0
 1540 0228 3622     		movs	r2, #54
 1541 022a 3E21     		movs	r1, #62
 1542 022c 6E20     		movs	r0, #110
 1543 022e FFF7FEFF 		bl	write_reg
 1544 0232 0346     		mov	r3, r0
 1545 0234 8DF80330 		strb	r3, [sp, #3]
 1546 0238 9DF90330 		ldrsb	r3, [sp, #3]
 1547 023c 002B     		cmp	r3, #0
 1548 023e 02D0     		beq	.L117
 1549              		.loc 1 457 0
 1550 0240 9DF90330 		ldrsb	r3, [sp, #3]
 1551 0244 93E0     		b	.L99
 1552              	.L117:
 1553              		.loc 1 459 0
 1554 0246 0022     		movs	r2, #0
 1555 0248 3F21     		movs	r1, #63
 1556 024a 6E20     		movs	r0, #110
 1557 024c FFF7FEFF 		bl	write_reg
 1558 0250 0346     		mov	r3, r0
 1559 0252 8DF80330 		strb	r3, [sp, #3]
 1560 0256 9DF90330 		ldrsb	r3, [sp, #3]
 1561 025a 002B     		cmp	r3, #0
 1562 025c 02D0     		beq	.L118
 1563              		.loc 1 460 0
 1564 025e 9DF90330 		ldrsb	r3, [sp, #3]
 1565 0262 84E0     		b	.L99
 1566              	.L118:
 1567              		.loc 1 462 0
 1568 0264 6B22     		movs	r2, #107
 1569 0266 4021     		movs	r1, #64
 1570 0268 6E20     		movs	r0, #110
 1571 026a FFF7FEFF 		bl	write_reg
 1572 026e 0346     		mov	r3, r0
 1573 0270 8DF80330 		strb	r3, [sp, #3]
 1574 0274 9DF90330 		ldrsb	r3, [sp, #3]
 1575 0278 002B     		cmp	r3, #0
 1576 027a 02D0     		beq	.L119
 1577              		.loc 1 463 0
 1578 027c 9DF90330 		ldrsb	r3, [sp, #3]
 1579 0280 75E0     		b	.L99
 1580              	.L119:
 1581              		.loc 1 465 0
 1582 0282 0022     		movs	r2, #0
 1583 0284 4121     		movs	r1, #65
 1584 0286 6E20     		movs	r0, #110
 1585 0288 FFF7FEFF 		bl	write_reg
 1586 028c 0346     		mov	r3, r0
 1587 028e 8DF80330 		strb	r3, [sp, #3]
 1588 0292 9DF90330 		ldrsb	r3, [sp, #3]
 1589 0296 002B     		cmp	r3, #0
 1590 0298 02D0     		beq	.L120
 1591              		.loc 1 466 0
 1592 029a 9DF90330 		ldrsb	r3, [sp, #3]
 1593 029e 66E0     		b	.L99
 1594              	.L120:
 1595              		.loc 1 468 0
ARM GAS  C:\Users\PCHAUT~1\AppData\Local\Temp\ccMxpIDf.s 			page 29


 1596 02a0 2922     		movs	r2, #41
 1597 02a2 4221     		movs	r1, #66
 1598 02a4 6E20     		movs	r0, #110
 1599 02a6 FFF7FEFF 		bl	write_reg
 1600 02aa 0346     		mov	r3, r0
 1601 02ac 8DF80330 		strb	r3, [sp, #3]
 1602 02b0 9DF90330 		ldrsb	r3, [sp, #3]
 1603 02b4 002B     		cmp	r3, #0
 1604 02b6 02D0     		beq	.L121
 1605              		.loc 1 469 0
 1606 02b8 9DF90330 		ldrsb	r3, [sp, #3]
 1607 02bc 57E0     		b	.L99
 1608              	.L121:
 1609              		.loc 1 471 0
 1610 02be 0022     		movs	r2, #0
 1611 02c0 4321     		movs	r1, #67
 1612 02c2 6E20     		movs	r0, #110
 1613 02c4 FFF7FEFF 		bl	write_reg
 1614 02c8 0346     		mov	r3, r0
 1615 02ca 8DF80330 		strb	r3, [sp, #3]
 1616 02ce 9DF90330 		ldrsb	r3, [sp, #3]
 1617 02d2 002B     		cmp	r3, #0
 1618 02d4 02D0     		beq	.L122
 1619              		.loc 1 472 0
 1620 02d6 9DF90330 		ldrsb	r3, [sp, #3]
 1621 02da 48E0     		b	.L99
 1622              	.L122:
 1623              		.loc 1 474 0
 1624 02dc 5022     		movs	r2, #80
 1625 02de 4421     		movs	r1, #68
 1626 02e0 6E20     		movs	r0, #110
 1627 02e2 FFF7FEFF 		bl	write_reg
 1628 02e6 0346     		mov	r3, r0
 1629 02e8 8DF80330 		strb	r3, [sp, #3]
 1630 02ec 9DF90330 		ldrsb	r3, [sp, #3]
 1631 02f0 002B     		cmp	r3, #0
 1632 02f2 02D0     		beq	.L123
 1633              		.loc 1 475 0
 1634 02f4 9DF90330 		ldrsb	r3, [sp, #3]
 1635 02f8 39E0     		b	.L99
 1636              	.L123:
 1637              		.loc 1 478 0
 1638 02fa 0120     		movs	r0, #1
 1639 02fc FFF7FEFF 		bl	po8030_set_bank
 1640 0300 0346     		mov	r3, r0
 1641 0302 8DF80330 		strb	r3, [sp, #3]
 1642 0306 9DF90330 		ldrsb	r3, [sp, #3]
 1643 030a 002B     		cmp	r3, #0
 1644 030c 02D0     		beq	.L124
 1645              		.loc 1 479 0
 1646 030e 9DF90330 		ldrsb	r3, [sp, #3]
 1647 0312 2CE0     		b	.L99
 1648              	.L124:
 1649              		.loc 1 482 0
 1650 0314 8022     		movs	r2, #128
 1651 0316 9321     		movs	r1, #147
 1652 0318 6E20     		movs	r0, #110
ARM GAS  C:\Users\PCHAUT~1\AppData\Local\Temp\ccMxpIDf.s 			page 30


 1653 031a FFF7FEFF 		bl	write_reg
 1654 031e 0346     		mov	r3, r0
 1655 0320 8DF80330 		strb	r3, [sp, #3]
 1656 0324 9DF90330 		ldrsb	r3, [sp, #3]
 1657 0328 002B     		cmp	r3, #0
 1658 032a 02D0     		beq	.L125
 1659              		.loc 1 483 0
 1660 032c 9DF90330 		ldrsb	r3, [sp, #3]
 1661 0330 1DE0     		b	.L99
 1662              	.L125:
 1663              		.loc 1 485 0
 1664 0332 8022     		movs	r2, #128
 1665 0334 9421     		movs	r1, #148
 1666 0336 6E20     		movs	r0, #110
 1667 0338 FFF7FEFF 		bl	write_reg
 1668 033c 0346     		mov	r3, r0
 1669 033e 8DF80330 		strb	r3, [sp, #3]
 1670 0342 9DF90330 		ldrsb	r3, [sp, #3]
 1671 0346 002B     		cmp	r3, #0
 1672 0348 04D0     		beq	.L126
 1673              		.loc 1 486 0
 1674 034a 9DF90330 		ldrsb	r3, [sp, #3]
 1675 034e 0EE0     		b	.L99
 1676              	.L129:
 1677              		.align	2
 1678              	.L128:
 1679 0350 00000000 		.word	__stack_chk_guard
 1680              	.L126:
 1681              		.loc 1 489 0
 1682 0354 0B4B     		ldr	r3, .L130
 1683 0356 A022     		movs	r2, #160
 1684 0358 1A80     		strh	r2, [r3]	@ movhi
 1685              		.loc 1 490 0
 1686 035a 0A4B     		ldr	r3, .L130
 1687 035c 7822     		movs	r2, #120
 1688 035e 5A80     		strh	r2, [r3, #2]	@ movhi
 1689              		.loc 1 491 0
 1690 0360 084B     		ldr	r3, .L130
 1691 0362 2022     		movs	r2, #32
 1692 0364 5A71     		strb	r2, [r3, #5]
 1693              		.loc 1 492 0
 1694 0366 074B     		ldr	r3, .L130
 1695 0368 2022     		movs	r2, #32
 1696 036a 9A71     		strb	r2, [r3, #6]
 1697              		.loc 1 494 0
 1698 036c 0023     		movs	r3, #0
 1699              	.L99:
 1700              		.loc 1 495 0
 1701 036e 1846     		mov	r0, r3
 1702 0370 054B     		ldr	r3, .L130+4
 1703 0372 019A     		ldr	r2, [sp, #4]
 1704 0374 1B68     		ldr	r3, [r3]
 1705 0376 9A42     		cmp	r2, r3
 1706 0378 01D0     		beq	.L127
 1707 037a FFF7FEFF 		bl	__stack_chk_fail
 1708              	.L127:
 1709 037e 03B0     		add	sp, sp, #12
ARM GAS  C:\Users\PCHAUT~1\AppData\Local\Temp\ccMxpIDf.s 			page 31


 1710              		.cfi_def_cfa_offset 4
 1711              		@ sp needed
 1712 0380 5DF804FB 		ldr	pc, [sp], #4
 1713              	.L131:
 1714              		.align	2
 1715              	.L130:
 1716 0384 00000000 		.word	po8030_conf
 1717 0388 00000000 		.word	__stack_chk_guard
 1718              		.cfi_endproc
 1719              	.LFE262:
 1720              		.size	po8030_set_qqvga, .-po8030_set_qqvga
 1721              		.section	.text.po8030_set_size,"ax",%progbits
 1722              		.align	1
 1723              		.p2align 4,,15
 1724              		.global	po8030_set_size
 1725              		.syntax unified
 1726              		.thumb
 1727              		.thumb_func
 1728              		.fpu fpv4-sp-d16
 1729              		.type	po8030_set_size, %function
 1730              	po8030_set_size:
 1731              	.LFB263:
 1732              		.loc 1 507 0
 1733              		.cfi_startproc
 1734              		@ args = 0, pretend = 0, frame = 16
 1735              		@ frame_needed = 0, uses_anonymous_args = 0
 1736 0000 00B5     		push	{lr}
 1737              		.cfi_def_cfa_offset 4
 1738              		.cfi_offset 14, -4
 1739 0002 85B0     		sub	sp, sp, #20
 1740              		.cfi_def_cfa_offset 24
 1741 0004 0346     		mov	r3, r0
 1742 0006 8DF80730 		strb	r3, [sp, #7]
 1743              		.loc 1 507 0
 1744 000a 144B     		ldr	r3, .L138
 1745 000c 1B68     		ldr	r3, [r3]
 1746 000e 0393     		str	r3, [sp, #12]
 1747              		.loc 1 508 0
 1748 0010 9DF80730 		ldrb	r3, [sp, #7]	@ zero_extendqisi2
 1749 0014 002B     		cmp	r3, #0
 1750 0016 03D1     		bne	.L133
 1751              		.loc 1 509 0
 1752 0018 FFF7FEFF 		bl	po8030_set_vga
 1753 001c 0346     		mov	r3, r0
 1754 001e 11E0     		b	.L134
 1755              	.L133:
 1756              		.loc 1 510 0
 1757 0020 9DF80730 		ldrb	r3, [sp, #7]	@ zero_extendqisi2
 1758 0024 012B     		cmp	r3, #1
 1759 0026 03D1     		bne	.L135
 1760              		.loc 1 511 0
 1761 0028 FFF7FEFF 		bl	po8030_set_qvga
 1762 002c 0346     		mov	r3, r0
 1763 002e 09E0     		b	.L134
 1764              	.L135:
 1765              		.loc 1 512 0
 1766 0030 9DF80730 		ldrb	r3, [sp, #7]	@ zero_extendqisi2
ARM GAS  C:\Users\PCHAUT~1\AppData\Local\Temp\ccMxpIDf.s 			page 32


 1767 0034 022B     		cmp	r3, #2
 1768 0036 03D1     		bne	.L136
 1769              		.loc 1 513 0
 1770 0038 FFF7FEFF 		bl	po8030_set_qqvga
 1771 003c 0346     		mov	r3, r0
 1772 003e 01E0     		b	.L134
 1773              	.L136:
 1774              		.loc 1 515 0
 1775 0040 4FF0FF33 		mov	r3, #-1
 1776              	.L134:
 1777              		.loc 1 517 0
 1778 0044 1846     		mov	r0, r3
 1779 0046 054B     		ldr	r3, .L138
 1780 0048 039A     		ldr	r2, [sp, #12]
 1781 004a 1B68     		ldr	r3, [r3]
 1782 004c 9A42     		cmp	r2, r3
 1783 004e 01D0     		beq	.L137
 1784 0050 FFF7FEFF 		bl	__stack_chk_fail
 1785              	.L137:
 1786 0054 05B0     		add	sp, sp, #20
 1787              		.cfi_def_cfa_offset 4
 1788              		@ sp needed
 1789 0056 5DF804FB 		ldr	pc, [sp], #4
 1790              	.L139:
 1791 005a 00BF     		.align	2
 1792              	.L138:
 1793 005c 00000000 		.word	__stack_chk_guard
 1794              		.cfi_endproc
 1795              	.LFE263:
 1796              		.size	po8030_set_size, .-po8030_set_size
 1797              		.section	.text.po8030_set_scale_buffer_size,"ax",%progbits
 1798              		.align	1
 1799              		.p2align 4,,15
 1800              		.global	po8030_set_scale_buffer_size
 1801              		.syntax unified
 1802              		.thumb
 1803              		.thumb_func
 1804              		.fpu fpv4-sp-d16
 1805              		.type	po8030_set_scale_buffer_size, %function
 1806              	po8030_set_scale_buffer_size:
 1807              	.LFB264:
 1808              		.loc 1 530 0
 1809              		.cfi_startproc
 1810              		@ args = 0, pretend = 0, frame = 16
 1811              		@ frame_needed = 0, uses_anonymous_args = 0
 1812 0000 00B5     		push	{lr}
 1813              		.cfi_def_cfa_offset 4
 1814              		.cfi_offset 14, -4
 1815 0002 85B0     		sub	sp, sp, #20
 1816              		.cfi_def_cfa_offset 24
 1817 0004 0346     		mov	r3, r0
 1818 0006 0A46     		mov	r2, r1
 1819 0008 8DF80730 		strb	r3, [sp, #7]
 1820 000c 1346     		mov	r3, r2
 1821 000e 8DF80630 		strb	r3, [sp, #6]
 1822              		.loc 1 530 0
 1823 0012 7A4B     		ldr	r3, .L171
ARM GAS  C:\Users\PCHAUT~1\AppData\Local\Temp\ccMxpIDf.s 			page 33


 1824 0014 1B68     		ldr	r3, [r3]
 1825 0016 0393     		str	r3, [sp, #12]
 1826              		.loc 1 531 0
 1827 0018 0023     		movs	r3, #0
 1828 001a 8DF80B30 		strb	r3, [sp, #11]
 1829              		.loc 1 533 0
 1830 001e 0120     		movs	r0, #1
 1831 0020 FFF7FEFF 		bl	po8030_set_bank
 1832 0024 0346     		mov	r3, r0
 1833 0026 8DF80B30 		strb	r3, [sp, #11]
 1834 002a 9DF90B30 		ldrsb	r3, [sp, #11]
 1835 002e 002B     		cmp	r3, #0
 1836 0030 02D0     		beq	.L141
 1837              		.loc 1 534 0
 1838 0032 9DF90B30 		ldrsb	r3, [sp, #11]
 1839 0036 D6E0     		b	.L142
 1840              	.L141:
 1841              		.loc 1 537 0
 1842 0038 9DF80730 		ldrb	r3, [sp, #7]	@ zero_extendqisi2
 1843 003c 442B     		cmp	r3, #68
 1844 003e 64D1     		bne	.L143
 1845              		.loc 1 538 0
 1846 0040 9DF80630 		ldrb	r3, [sp, #6]	@ zero_extendqisi2
 1847 0044 012B     		cmp	r3, #1
 1848 0046 23D0     		beq	.L145
 1849 0048 022B     		cmp	r3, #2
 1850 004a 40D0     		beq	.L146
 1851 004c 002B     		cmp	r3, #0
 1852 004e 40F0C980 		bne	.L154
 1853              		.loc 1 540 0
 1854 0052 0022     		movs	r2, #0
 1855 0054 9521     		movs	r1, #149
 1856 0056 6E20     		movs	r0, #110
 1857 0058 FFF7FEFF 		bl	write_reg
 1858 005c 0346     		mov	r3, r0
 1859 005e 8DF80B30 		strb	r3, [sp, #11]
 1860 0062 9DF90B30 		ldrsb	r3, [sp, #11]
 1861 0066 002B     		cmp	r3, #0
 1862 0068 02D0     		beq	.L148
 1863              		.loc 1 541 0
 1864 006a 9DF90B30 		ldrsb	r3, [sp, #11]
 1865 006e BAE0     		b	.L142
 1866              	.L148:
 1867              		.loc 1 543 0
 1868 0070 0822     		movs	r2, #8
 1869 0072 9621     		movs	r1, #150
 1870 0074 6E20     		movs	r0, #110
 1871 0076 FFF7FEFF 		bl	write_reg
 1872 007a 0346     		mov	r3, r0
 1873 007c 8DF80B30 		strb	r3, [sp, #11]
 1874 0080 9DF90B30 		ldrsb	r3, [sp, #11]
 1875 0084 002B     		cmp	r3, #0
 1876 0086 00F0A280 		beq	.L165
 1877              		.loc 1 544 0
 1878 008a 9DF90B30 		ldrsb	r3, [sp, #11]
 1879 008e AAE0     		b	.L142
 1880              	.L145:
ARM GAS  C:\Users\PCHAUT~1\AppData\Local\Temp\ccMxpIDf.s 			page 34


 1881              		.loc 1 549 0
 1882 0090 0022     		movs	r2, #0
 1883 0092 9521     		movs	r1, #149
 1884 0094 6E20     		movs	r0, #110
 1885 0096 FFF7FEFF 		bl	write_reg
 1886 009a 0346     		mov	r3, r0
 1887 009c 8DF80B30 		strb	r3, [sp, #11]
 1888 00a0 9DF90B30 		ldrsb	r3, [sp, #11]
 1889 00a4 002B     		cmp	r3, #0
 1890 00a6 02D0     		beq	.L150
 1891              		.loc 1 550 0
 1892 00a8 9DF90B30 		ldrsb	r3, [sp, #11]
 1893 00ac 9BE0     		b	.L142
 1894              	.L150:
 1895              		.loc 1 552 0
 1896 00ae A422     		movs	r2, #164
 1897 00b0 9621     		movs	r1, #150
 1898 00b2 6E20     		movs	r0, #110
 1899 00b4 FFF7FEFF 		bl	write_reg
 1900 00b8 0346     		mov	r3, r0
 1901 00ba 8DF80B30 		strb	r3, [sp, #11]
 1902 00be 9DF90B30 		ldrsb	r3, [sp, #11]
 1903 00c2 002B     		cmp	r3, #0
 1904 00c4 00F08580 		beq	.L166
 1905              		.loc 1 553 0
 1906 00c8 9DF90B30 		ldrsb	r3, [sp, #11]
 1907 00cc 8BE0     		b	.L142
 1908              	.L146:
 1909              		.loc 1 558 0
 1910 00ce 0022     		movs	r2, #0
 1911 00d0 9521     		movs	r1, #149
 1912 00d2 6E20     		movs	r0, #110
 1913 00d4 FFF7FEFF 		bl	write_reg
 1914 00d8 0346     		mov	r3, r0
 1915 00da 8DF80B30 		strb	r3, [sp, #11]
 1916 00de 9DF90B30 		ldrsb	r3, [sp, #11]
 1917 00e2 002B     		cmp	r3, #0
 1918 00e4 02D0     		beq	.L152
 1919              		.loc 1 559 0
 1920 00e6 9DF90B30 		ldrsb	r3, [sp, #11]
 1921 00ea 7CE0     		b	.L142
 1922              	.L152:
 1923              		.loc 1 561 0
 1924 00ec 7C22     		movs	r2, #124
 1925 00ee 9621     		movs	r1, #150
 1926 00f0 6E20     		movs	r0, #110
 1927 00f2 FFF7FEFF 		bl	write_reg
 1928 00f6 0346     		mov	r3, r0
 1929 00f8 8DF80B30 		strb	r3, [sp, #11]
 1930 00fc 9DF90B30 		ldrsb	r3, [sp, #11]
 1931 0100 002B     		cmp	r3, #0
 1932 0102 68D0     		beq	.L167
 1933              		.loc 1 562 0
 1934 0104 9DF90B30 		ldrsb	r3, [sp, #11]
 1935 0108 6DE0     		b	.L142
 1936              	.L143:
 1937              		.loc 1 567 0
ARM GAS  C:\Users\PCHAUT~1\AppData\Local\Temp\ccMxpIDf.s 			page 35


 1938 010a 9DF80630 		ldrb	r3, [sp, #6]	@ zero_extendqisi2
 1939 010e 012B     		cmp	r3, #1
 1940 0110 21D0     		beq	.L155
 1941 0112 022B     		cmp	r3, #2
 1942 0114 3DD0     		beq	.L156
 1943 0116 002B     		cmp	r3, #0
 1944 0118 64D1     		bne	.L154
 1945              		.loc 1 569 0
 1946 011a 0022     		movs	r2, #0
 1947 011c 9521     		movs	r1, #149
 1948 011e 6E20     		movs	r0, #110
 1949 0120 FFF7FEFF 		bl	write_reg
 1950 0124 0346     		mov	r3, r0
 1951 0126 8DF80B30 		strb	r3, [sp, #11]
 1952 012a 9DF90B30 		ldrsb	r3, [sp, #11]
 1953 012e 002B     		cmp	r3, #0
 1954 0130 02D0     		beq	.L158
 1955              		.loc 1 570 0
 1956 0132 9DF90B30 		ldrsb	r3, [sp, #11]
 1957 0136 56E0     		b	.L142
 1958              	.L158:
 1959              		.loc 1 572 0
 1960 0138 0A22     		movs	r2, #10
 1961 013a 9621     		movs	r1, #150
 1962 013c 6E20     		movs	r0, #110
 1963 013e FFF7FEFF 		bl	write_reg
 1964 0142 0346     		mov	r3, r0
 1965 0144 8DF80B30 		strb	r3, [sp, #11]
 1966 0148 9DF90B30 		ldrsb	r3, [sp, #11]
 1967 014c 002B     		cmp	r3, #0
 1968 014e 44D0     		beq	.L168
 1969              		.loc 1 573 0
 1970 0150 9DF90B30 		ldrsb	r3, [sp, #11]
 1971 0154 47E0     		b	.L142
 1972              	.L155:
 1973              		.loc 1 578 0
 1974 0156 0122     		movs	r2, #1
 1975 0158 9521     		movs	r1, #149
 1976 015a 6E20     		movs	r0, #110
 1977 015c FFF7FEFF 		bl	write_reg
 1978 0160 0346     		mov	r3, r0
 1979 0162 8DF80B30 		strb	r3, [sp, #11]
 1980 0166 9DF90B30 		ldrsb	r3, [sp, #11]
 1981 016a 002B     		cmp	r3, #0
 1982 016c 02D0     		beq	.L160
 1983              		.loc 1 579 0
 1984 016e 9DF90B30 		ldrsb	r3, [sp, #11]
 1985 0172 38E0     		b	.L142
 1986              	.L160:
 1987              		.loc 1 581 0
 1988 0174 4622     		movs	r2, #70
 1989 0176 9621     		movs	r1, #150
 1990 0178 6E20     		movs	r0, #110
 1991 017a FFF7FEFF 		bl	write_reg
 1992 017e 0346     		mov	r3, r0
 1993 0180 8DF80B30 		strb	r3, [sp, #11]
 1994 0184 9DF90B30 		ldrsb	r3, [sp, #11]
ARM GAS  C:\Users\PCHAUT~1\AppData\Local\Temp\ccMxpIDf.s 			page 36


 1995 0188 002B     		cmp	r3, #0
 1996 018a 28D0     		beq	.L169
 1997              		.loc 1 582 0
 1998 018c 9DF90B30 		ldrsb	r3, [sp, #11]
 1999 0190 29E0     		b	.L142
 2000              	.L156:
 2001              		.loc 1 587 0
 2002 0192 0022     		movs	r2, #0
 2003 0194 9521     		movs	r1, #149
 2004 0196 6E20     		movs	r0, #110
 2005 0198 FFF7FEFF 		bl	write_reg
 2006 019c 0346     		mov	r3, r0
 2007 019e 8DF80B30 		strb	r3, [sp, #11]
 2008 01a2 9DF90B30 		ldrsb	r3, [sp, #11]
 2009 01a6 002B     		cmp	r3, #0
 2010 01a8 02D0     		beq	.L162
 2011              		.loc 1 588 0
 2012 01aa 9DF90B30 		ldrsb	r3, [sp, #11]
 2013 01ae 1AE0     		b	.L142
 2014              	.L162:
 2015              		.loc 1 590 0
 2016 01b0 F522     		movs	r2, #245
 2017 01b2 9621     		movs	r1, #150
 2018 01b4 6E20     		movs	r0, #110
 2019 01b6 FFF7FEFF 		bl	write_reg
 2020 01ba 0346     		mov	r3, r0
 2021 01bc 8DF80B30 		strb	r3, [sp, #11]
 2022 01c0 9DF90B30 		ldrsb	r3, [sp, #11]
 2023 01c4 002B     		cmp	r3, #0
 2024 01c6 0CD0     		beq	.L170
 2025              		.loc 1 591 0
 2026 01c8 9DF90B30 		ldrsb	r3, [sp, #11]
 2027 01cc 0BE0     		b	.L142
 2028              	.L165:
 2029              		.loc 1 546 0
 2030 01ce 00BF     		nop
 2031 01d0 08E0     		b	.L154
 2032              	.L166:
 2033              		.loc 1 555 0
 2034 01d2 00BF     		nop
 2035 01d4 06E0     		b	.L154
 2036              	.L167:
 2037              		.loc 1 564 0
 2038 01d6 00BF     		nop
 2039 01d8 04E0     		b	.L154
 2040              	.L168:
 2041              		.loc 1 575 0
 2042 01da 00BF     		nop
 2043 01dc 02E0     		b	.L154
 2044              	.L169:
 2045              		.loc 1 584 0
 2046 01de 00BF     		nop
 2047 01e0 00E0     		b	.L154
 2048              	.L170:
 2049              		.loc 1 593 0
 2050 01e2 00BF     		nop
 2051              	.L154:
ARM GAS  C:\Users\PCHAUT~1\AppData\Local\Temp\ccMxpIDf.s 			page 37


 2052              		.loc 1 597 0
 2053 01e4 0023     		movs	r3, #0
 2054              	.L142:
 2055              		.loc 1 598 0
 2056 01e6 1846     		mov	r0, r3
 2057 01e8 044B     		ldr	r3, .L171
 2058 01ea 039A     		ldr	r2, [sp, #12]
 2059 01ec 1B68     		ldr	r3, [r3]
 2060 01ee 9A42     		cmp	r2, r3
 2061 01f0 01D0     		beq	.L164
 2062 01f2 FFF7FEFF 		bl	__stack_chk_fail
 2063              	.L164:
 2064 01f6 05B0     		add	sp, sp, #20
 2065              		.cfi_def_cfa_offset 4
 2066              		@ sp needed
 2067 01f8 5DF804FB 		ldr	pc, [sp], #4
 2068              	.L172:
 2069              		.align	2
 2070              	.L171:
 2071 01fc 00000000 		.word	__stack_chk_guard
 2072              		.cfi_endproc
 2073              	.LFE264:
 2074              		.size	po8030_set_scale_buffer_size, .-po8030_set_scale_buffer_size
 2075              		.section	.text.po8030_start,"ax",%progbits
 2076              		.align	1
 2077              		.p2align 4,,15
 2078              		.global	po8030_start
 2079              		.syntax unified
 2080              		.thumb
 2081              		.thumb_func
 2082              		.fpu fpv4-sp-d16
 2083              		.type	po8030_start, %function
 2084              	po8030_start:
 2085              	.LFB265:
 2086              		.loc 1 605 0
 2087              		.cfi_startproc
 2088              		@ args = 0, pretend = 0, frame = 8
 2089              		@ frame_needed = 0, uses_anonymous_args = 0
 2090 0000 00B5     		push	{lr}
 2091              		.cfi_def_cfa_offset 4
 2092              		.cfi_offset 14, -4
 2093 0002 87B0     		sub	sp, sp, #28
 2094              		.cfi_def_cfa_offset 32
 2095              		.loc 1 605 0
 2096 0004 124B     		ldr	r3, .L175
 2097 0006 1B68     		ldr	r3, [r3]
 2098 0008 0593     		str	r3, [sp, #20]
 2099              		.loc 1 607 0
 2100 000a FFF7FEFF 		bl	i2c_start
 2101              		.loc 1 623 0
 2102 000e 1149     		ldr	r1, .L175+4
 2103 0010 1148     		ldr	r0, .L175+8
 2104 0012 FFF7FEFF 		bl	pwmStart
 2105              		.loc 1 625 0
 2106 0016 0122     		movs	r2, #1
 2107 0018 0021     		movs	r1, #0
 2108 001a 0F48     		ldr	r0, .L175+8
ARM GAS  C:\Users\PCHAUT~1\AppData\Local\Temp\ccMxpIDf.s 			page 38


 2109 001c FFF7FEFF 		bl	pwmEnableChannel
 2110              		.loc 1 628 0
 2111 0020 2023     		movs	r3, #32
 2112 0022 0293     		str	r3, [sp, #8]
 2113 0024 2023     		movs	r3, #32
 2114 0026 0193     		str	r3, [sp, #4]
 2115 0028 7823     		movs	r3, #120
 2116 002a 0093     		str	r3, [sp]
 2117 002c A023     		movs	r3, #160
 2118 002e B422     		movs	r2, #180
 2119 0030 F021     		movs	r1, #240
 2120 0032 0220     		movs	r0, #2
 2121 0034 FFF7FEFF 		bl	po8030_advanced_config
 2122              		.loc 1 629 0
 2123 0038 00BF     		nop
 2124 003a 054B     		ldr	r3, .L175
 2125 003c 059A     		ldr	r2, [sp, #20]
 2126 003e 1B68     		ldr	r3, [r3]
 2127 0040 9A42     		cmp	r2, r3
 2128 0042 01D0     		beq	.L174
 2129 0044 FFF7FEFF 		bl	__stack_chk_fail
 2130              	.L174:
 2131 0048 07B0     		add	sp, sp, #28
 2132              		.cfi_def_cfa_offset 4
 2133              		@ sp needed
 2134 004a 5DF804FB 		ldr	pc, [sp], #4
 2135              	.L176:
 2136 004e 00BF     		.align	2
 2137              	.L175:
 2138 0050 00000000 		.word	__stack_chk_guard
 2139 0054 00000000 		.word	pwmcfg_cam.9992
 2140 0058 00000000 		.word	PWMD5
 2141              		.cfi_endproc
 2142              	.LFE265:
 2143              		.size	po8030_start, .-po8030_start
 2144              		.section	.text.po8030_config,"ax",%progbits
 2145              		.align	1
 2146              		.p2align 4,,15
 2147              		.global	po8030_config
 2148              		.syntax unified
 2149              		.thumb
 2150              		.thumb_func
 2151              		.fpu fpv4-sp-d16
 2152              		.type	po8030_config, %function
 2153              	po8030_config:
 2154              	.LFB266:
 2155              		.loc 1 631 0
 2156              		.cfi_startproc
 2157              		@ args = 0, pretend = 0, frame = 16
 2158              		@ frame_needed = 0, uses_anonymous_args = 0
 2159 0000 00B5     		push	{lr}
 2160              		.cfi_def_cfa_offset 4
 2161              		.cfi_offset 14, -4
 2162 0002 85B0     		sub	sp, sp, #20
 2163              		.cfi_def_cfa_offset 24
 2164 0004 0346     		mov	r3, r0
 2165 0006 0A46     		mov	r2, r1
ARM GAS  C:\Users\PCHAUT~1\AppData\Local\Temp\ccMxpIDf.s 			page 39


 2166 0008 8DF80730 		strb	r3, [sp, #7]
 2167 000c 1346     		mov	r3, r2
 2168 000e 8DF80630 		strb	r3, [sp, #6]
 2169              		.loc 1 631 0
 2170 0012 2F4B     		ldr	r3, .L185
 2171 0014 1B68     		ldr	r3, [r3]
 2172 0016 0393     		str	r3, [sp, #12]
 2173              		.loc 1 633 0
 2174 0018 0023     		movs	r3, #0
 2175 001a 8DF80B30 		strb	r3, [sp, #11]
 2176              		.loc 1 635 0
 2177 001e 0020     		movs	r0, #0
 2178 0020 FFF7FEFF 		bl	po8030_set_bank
 2179 0024 0346     		mov	r3, r0
 2180 0026 8DF80B30 		strb	r3, [sp, #11]
 2181 002a 9DF90B30 		ldrsb	r3, [sp, #11]
 2182 002e 002B     		cmp	r3, #0
 2183 0030 02D0     		beq	.L178
 2184              		.loc 1 636 0
 2185 0032 9DF90B30 		ldrsb	r3, [sp, #11]
 2186 0036 3FE0     		b	.L179
 2187              	.L178:
 2188              		.loc 1 638 0
 2189 0038 0022     		movs	r2, #0
 2190 003a 5B21     		movs	r1, #91
 2191 003c 6E20     		movs	r0, #110
 2192 003e FFF7FEFF 		bl	write_reg
 2193 0042 0346     		mov	r3, r0
 2194 0044 8DF80B30 		strb	r3, [sp, #11]
 2195 0048 9DF90B30 		ldrsb	r3, [sp, #11]
 2196 004c 002B     		cmp	r3, #0
 2197 004e 02D0     		beq	.L180
 2198              		.loc 1 639 0
 2199 0050 9DF90B30 		ldrsb	r3, [sp, #11]
 2200 0054 30E0     		b	.L179
 2201              	.L180:
 2202              		.loc 1 642 0
 2203 0056 9DF80730 		ldrb	r3, [sp, #7]	@ zero_extendqisi2
 2204 005a 1846     		mov	r0, r3
 2205 005c FFF7FEFF 		bl	po8030_set_format
 2206 0060 0346     		mov	r3, r0
 2207 0062 8DF80B30 		strb	r3, [sp, #11]
 2208 0066 9DF90B30 		ldrsb	r3, [sp, #11]
 2209 006a 002B     		cmp	r3, #0
 2210 006c 02D0     		beq	.L181
 2211              		.loc 1 643 0
 2212 006e 9DF90B30 		ldrsb	r3, [sp, #11]
 2213 0072 21E0     		b	.L179
 2214              	.L181:
 2215              		.loc 1 646 0
 2216 0074 9DF80630 		ldrb	r3, [sp, #6]	@ zero_extendqisi2
 2217 0078 1846     		mov	r0, r3
 2218 007a FFF7FEFF 		bl	po8030_set_size
 2219 007e 0346     		mov	r3, r0
 2220 0080 8DF80B30 		strb	r3, [sp, #11]
 2221 0084 9DF90B30 		ldrsb	r3, [sp, #11]
 2222 0088 002B     		cmp	r3, #0
ARM GAS  C:\Users\PCHAUT~1\AppData\Local\Temp\ccMxpIDf.s 			page 40


 2223 008a 02D0     		beq	.L182
 2224              		.loc 1 647 0
 2225 008c 9DF90B30 		ldrsb	r3, [sp, #11]
 2226 0090 12E0     		b	.L179
 2227              	.L182:
 2228              		.loc 1 650 0
 2229 0092 9DF80620 		ldrb	r2, [sp, #6]	@ zero_extendqisi2
 2230 0096 9DF80730 		ldrb	r3, [sp, #7]	@ zero_extendqisi2
 2231 009a 1146     		mov	r1, r2
 2232 009c 1846     		mov	r0, r3
 2233 009e FFF7FEFF 		bl	po8030_set_scale_buffer_size
 2234 00a2 0346     		mov	r3, r0
 2235 00a4 8DF80B30 		strb	r3, [sp, #11]
 2236 00a8 9DF90B30 		ldrsb	r3, [sp, #11]
 2237 00ac 002B     		cmp	r3, #0
 2238 00ae 02D0     		beq	.L183
 2239              		.loc 1 651 0
 2240 00b0 9DF90B30 		ldrsb	r3, [sp, #11]
 2241 00b4 00E0     		b	.L179
 2242              	.L183:
 2243              		.loc 1 654 0
 2244 00b6 0023     		movs	r3, #0
 2245              	.L179:
 2246              		.loc 1 655 0
 2247 00b8 1846     		mov	r0, r3
 2248 00ba 054B     		ldr	r3, .L185
 2249 00bc 039A     		ldr	r2, [sp, #12]
 2250 00be 1B68     		ldr	r3, [r3]
 2251 00c0 9A42     		cmp	r2, r3
 2252 00c2 01D0     		beq	.L184
 2253 00c4 FFF7FEFF 		bl	__stack_chk_fail
 2254              	.L184:
 2255 00c8 05B0     		add	sp, sp, #20
 2256              		.cfi_def_cfa_offset 4
 2257              		@ sp needed
 2258 00ca 5DF804FB 		ldr	pc, [sp], #4
 2259              	.L186:
 2260 00ce 00BF     		.align	2
 2261              	.L185:
 2262 00d0 00000000 		.word	__stack_chk_guard
 2263              		.cfi_endproc
 2264              	.LFE266:
 2265              		.size	po8030_config, .-po8030_config
 2266              		.section	.text.po8030_advanced_config,"ax",%progbits
 2267              		.align	1
 2268              		.p2align 4,,15
 2269              		.global	po8030_advanced_config
 2270              		.syntax unified
 2271              		.thumb
 2272              		.thumb_func
 2273              		.fpu fpv4-sp-d16
 2274              		.type	po8030_advanced_config, %function
 2275              	po8030_advanced_config:
 2276              	.LFB267:
 2277              		.loc 1 659 0
 2278              		.cfi_startproc
 2279              		@ args = 12, pretend = 0, frame = 64
ARM GAS  C:\Users\PCHAUT~1\AppData\Local\Temp\ccMxpIDf.s 			page 41


 2280              		@ frame_needed = 0, uses_anonymous_args = 0
 2281 0000 00B5     		push	{lr}
 2282              		.cfi_def_cfa_offset 4
 2283              		.cfi_offset 14, -4
 2284 0002 91B0     		sub	sp, sp, #68
 2285              		.cfi_def_cfa_offset 72
 2286 0004 0491     		str	r1, [sp, #16]
 2287 0006 0392     		str	r2, [sp, #12]
 2288 0008 0293     		str	r3, [sp, #8]
 2289 000a 0346     		mov	r3, r0
 2290 000c 8DF81730 		strb	r3, [sp, #23]
 2291 0010 129B     		ldr	r3, [sp, #72]
 2292 0012 0193     		str	r3, [sp, #4]
 2293 0014 9DF84C30 		ldrb	r3, [sp, #76]
 2294 0018 8DF81630 		strb	r3, [sp, #22]
 2295 001c 9DF85030 		ldrb	r3, [sp, #80]
 2296 0020 8DF81530 		strb	r3, [sp, #21]
 2297              		.loc 1 659 0
 2298 0024 B24B     		ldr	r3, .L247
 2299 0026 1B68     		ldr	r3, [r3]
 2300 0028 0F93     		str	r3, [sp, #60]
 2301              		.loc 1 660 0
 2302 002a 0023     		movs	r3, #0
 2303 002c 8DF81B30 		strb	r3, [sp, #27]
 2304              		.loc 1 661 0
 2305 0030 049A     		ldr	r2, [sp, #16]
 2306 0032 029B     		ldr	r3, [sp, #8]
 2307 0034 1344     		add	r3, r3, r2
 2308 0036 013B     		subs	r3, r3, #1
 2309 0038 0793     		str	r3, [sp, #28]
 2310              		.loc 1 662 0
 2311 003a 039A     		ldr	r2, [sp, #12]
 2312 003c 019B     		ldr	r3, [sp, #4]
 2313 003e 1344     		add	r3, r3, r2
 2314 0040 013B     		subs	r3, r3, #1
 2315 0042 0893     		str	r3, [sp, #32]
 2316              		.loc 1 663 0
 2317 0044 0023     		movs	r3, #0
 2318 0046 0993     		str	r3, [sp, #36]
 2319 0048 0023     		movs	r3, #0
 2320 004a 0A93     		str	r3, [sp, #40]
 2321              		.loc 1 664 0
 2322 004c 0023     		movs	r3, #0
 2323 004e 0B93     		str	r3, [sp, #44]
 2324 0050 0023     		movs	r3, #0
 2325 0052 0C93     		str	r3, [sp, #48]
 2326              		.loc 1 668 0
 2327 0054 029B     		ldr	r3, [sp, #8]
 2328 0056 B3F5207F 		cmp	r3, #640
 2329 005a 03D8     		bhi	.L188
 2330              		.loc 1 668 0 is_stmt 0 discriminator 1
 2331 005c 019B     		ldr	r3, [sp, #4]
 2332 005e B3F5F07F 		cmp	r3, #480
 2333 0062 02D9     		bls	.L189
 2334              	.L188:
 2335              		.loc 1 669 0 is_stmt 1
 2336 0064 6FF00703 		mvn	r3, #7
ARM GAS  C:\Users\PCHAUT~1\AppData\Local\Temp\ccMxpIDf.s 			page 42


 2337 0068 A5E3     		b	.L190
 2338              	.L189:
 2339              		.loc 1 672 0
 2340 006a 049B     		ldr	r3, [sp, #16]
 2341 006c B3F5207F 		cmp	r3, #640
 2342 0070 02D9     		bls	.L191
 2343              		.loc 1 673 0
 2344 0072 6FF00103 		mvn	r3, #1
 2345 0076 9EE3     		b	.L190
 2346              	.L191:
 2347              		.loc 1 676 0
 2348 0078 039B     		ldr	r3, [sp, #12]
 2349 007a B3F5F07F 		cmp	r3, #480
 2350 007e 02D9     		bls	.L192
 2351              		.loc 1 677 0
 2352 0080 6FF00203 		mvn	r3, #2
 2353 0084 97E3     		b	.L190
 2354              	.L192:
 2355              		.loc 1 680 0
 2356 0086 079A     		ldr	r2, [sp, #28]
 2357 0088 049B     		ldr	r3, [sp, #16]
 2358 008a 9A42     		cmp	r2, r3
 2359 008c 03D9     		bls	.L193
 2360              		.loc 1 680 0 is_stmt 0 discriminator 1
 2361 008e 079B     		ldr	r3, [sp, #28]
 2362 0090 B3F5207F 		cmp	r3, #640
 2363 0094 02D9     		bls	.L194
 2364              	.L193:
 2365              		.loc 1 681 0 is_stmt 1
 2366 0096 6FF00303 		mvn	r3, #3
 2367 009a 8CE3     		b	.L190
 2368              	.L194:
 2369              		.loc 1 684 0
 2370 009c 089A     		ldr	r2, [sp, #32]
 2371 009e 039B     		ldr	r3, [sp, #12]
 2372 00a0 9A42     		cmp	r2, r3
 2373 00a2 03D9     		bls	.L195
 2374              		.loc 1 684 0 is_stmt 0 discriminator 1
 2375 00a4 089B     		ldr	r3, [sp, #32]
 2376 00a6 B3F5F07F 		cmp	r3, #480
 2377 00aa 02D9     		bls	.L196
 2378              	.L195:
 2379              		.loc 1 685 0 is_stmt 1
 2380 00ac 6FF00403 		mvn	r3, #4
 2381 00b0 81E3     		b	.L190
 2382              	.L196:
 2383              		.loc 1 688 0
 2384 00b2 9DF81630 		ldrb	r3, [sp, #22]	@ zero_extendqisi2
 2385 00b6 402B     		cmp	r3, #64
 2386 00b8 15D0     		beq	.L198
 2387 00ba 802B     		cmp	r3, #128
 2388 00bc 37D0     		beq	.L199
 2389 00be 202B     		cmp	r3, #32
 2390 00c0 59D1     		bne	.L197
 2391              		.loc 1 690 0
 2392 00c2 029B     		ldr	r3, [sp, #8]
 2393 00c4 8B4A     		ldr	r2, .L247+4
ARM GAS  C:\Users\PCHAUT~1\AppData\Local\Temp\ccMxpIDf.s 			page 43


 2394 00c6 A2FB0323 		umull	r2, r3, r2, r3
 2395 00ca 5B08     		lsrs	r3, r3, #1
 2396 00cc 049A     		ldr	r2, [sp, #16]
 2397 00ce 1344     		add	r3, r3, r2
 2398 00d0 0993     		str	r3, [sp, #36]
 2399              		.loc 1 691 0
 2400 00d2 029B     		ldr	r3, [sp, #8]
 2401 00d4 5B00     		lsls	r3, r3, #1
 2402 00d6 874A     		ldr	r2, .L247+4
 2403 00d8 A2FB0323 		umull	r2, r3, r2, r3
 2404 00dc 5B08     		lsrs	r3, r3, #1
 2405 00de 049A     		ldr	r2, [sp, #16]
 2406 00e0 1344     		add	r3, r3, r2
 2407 00e2 0A93     		str	r3, [sp, #40]
 2408              		.loc 1 692 0
 2409 00e4 47E0     		b	.L197
 2410              	.L198:
 2411              		.loc 1 696 0
 2412 00e6 029B     		ldr	r3, [sp, #8]
 2413 00e8 03F00103 		and	r3, r3, #1
 2414 00ec 002B     		cmp	r3, #0
 2415 00ee 02D0     		beq	.L201
 2416              		.loc 1 697 0
 2417 00f0 6FF00503 		mvn	r3, #5
 2418 00f4 5FE3     		b	.L190
 2419              	.L201:
 2420              		.loc 1 699 0
 2421 00f6 049B     		ldr	r3, [sp, #16]
 2422 00f8 5B08     		lsrs	r3, r3, #1
 2423 00fa 0133     		adds	r3, r3, #1
 2424 00fc 0493     		str	r3, [sp, #16]
 2425              		.loc 1 700 0
 2426 00fe 029B     		ldr	r3, [sp, #8]
 2427 0100 5A08     		lsrs	r2, r3, #1
 2428 0102 049B     		ldr	r3, [sp, #16]
 2429 0104 1344     		add	r3, r3, r2
 2430 0106 013B     		subs	r3, r3, #1
 2431 0108 0793     		str	r3, [sp, #28]
 2432              		.loc 1 701 0
 2433 010a 029B     		ldr	r3, [sp, #8]
 2434 010c 794A     		ldr	r2, .L247+4
 2435 010e A2FB0323 		umull	r2, r3, r2, r3
 2436 0112 9B08     		lsrs	r3, r3, #2
 2437 0114 049A     		ldr	r2, [sp, #16]
 2438 0116 1344     		add	r3, r3, r2
 2439 0118 0993     		str	r3, [sp, #36]
 2440              		.loc 1 702 0
 2441 011a 029B     		ldr	r3, [sp, #8]
 2442 011c 5B00     		lsls	r3, r3, #1
 2443 011e 754A     		ldr	r2, .L247+4
 2444 0120 A2FB0323 		umull	r2, r3, r2, r3
 2445 0124 9B08     		lsrs	r3, r3, #2
 2446 0126 049A     		ldr	r2, [sp, #16]
 2447 0128 1344     		add	r3, r3, r2
 2448 012a 0A93     		str	r3, [sp, #40]
 2449              		.loc 1 704 0
 2450 012c 23E0     		b	.L197
ARM GAS  C:\Users\PCHAUT~1\AppData\Local\Temp\ccMxpIDf.s 			page 44


 2451              	.L199:
 2452              		.loc 1 708 0
 2453 012e 029B     		ldr	r3, [sp, #8]
 2454 0130 03F00303 		and	r3, r3, #3
 2455 0134 002B     		cmp	r3, #0
 2456 0136 02D0     		beq	.L202
 2457              		.loc 1 709 0
 2458 0138 6FF00503 		mvn	r3, #5
 2459 013c 3BE3     		b	.L190
 2460              	.L202:
 2461              		.loc 1 711 0
 2462 013e 049B     		ldr	r3, [sp, #16]
 2463 0140 9B08     		lsrs	r3, r3, #2
 2464 0142 0133     		adds	r3, r3, #1
 2465 0144 0493     		str	r3, [sp, #16]
 2466              		.loc 1 712 0
 2467 0146 029B     		ldr	r3, [sp, #8]
 2468 0148 9A08     		lsrs	r2, r3, #2
 2469 014a 049B     		ldr	r3, [sp, #16]
 2470 014c 1344     		add	r3, r3, r2
 2471 014e 013B     		subs	r3, r3, #1
 2472 0150 0793     		str	r3, [sp, #28]
 2473              		.loc 1 713 0
 2474 0152 029B     		ldr	r3, [sp, #8]
 2475 0154 674A     		ldr	r2, .L247+4
 2476 0156 A2FB0323 		umull	r2, r3, r2, r3
 2477 015a DB08     		lsrs	r3, r3, #3
 2478 015c 049A     		ldr	r2, [sp, #16]
 2479 015e 1344     		add	r3, r3, r2
 2480 0160 0993     		str	r3, [sp, #36]
 2481              		.loc 1 714 0
 2482 0162 029B     		ldr	r3, [sp, #8]
 2483 0164 5B00     		lsls	r3, r3, #1
 2484 0166 634A     		ldr	r2, .L247+4
 2485 0168 A2FB0323 		umull	r2, r3, r2, r3
 2486 016c DB08     		lsrs	r3, r3, #3
 2487 016e 049A     		ldr	r2, [sp, #16]
 2488 0170 1344     		add	r3, r3, r2
 2489 0172 0A93     		str	r3, [sp, #40]
 2490              		.loc 1 716 0
 2491 0174 00BF     		nop
 2492              	.L197:
 2493              		.loc 1 719 0
 2494 0176 9DF81530 		ldrb	r3, [sp, #21]	@ zero_extendqisi2
 2495 017a 402B     		cmp	r3, #64
 2496 017c 15D0     		beq	.L204
 2497 017e 802B     		cmp	r3, #128
 2498 0180 37D0     		beq	.L205
 2499 0182 202B     		cmp	r3, #32
 2500 0184 59D1     		bne	.L203
 2501              		.loc 1 721 0
 2502 0186 019B     		ldr	r3, [sp, #4]
 2503 0188 5A4A     		ldr	r2, .L247+4
 2504 018a A2FB0323 		umull	r2, r3, r2, r3
 2505 018e 5B08     		lsrs	r3, r3, #1
 2506 0190 039A     		ldr	r2, [sp, #12]
 2507 0192 1344     		add	r3, r3, r2
ARM GAS  C:\Users\PCHAUT~1\AppData\Local\Temp\ccMxpIDf.s 			page 45


 2508 0194 0B93     		str	r3, [sp, #44]
 2509              		.loc 1 722 0
 2510 0196 019B     		ldr	r3, [sp, #4]
 2511 0198 5B00     		lsls	r3, r3, #1
 2512 019a 564A     		ldr	r2, .L247+4
 2513 019c A2FB0323 		umull	r2, r3, r2, r3
 2514 01a0 5B08     		lsrs	r3, r3, #1
 2515 01a2 039A     		ldr	r2, [sp, #12]
 2516 01a4 1344     		add	r3, r3, r2
 2517 01a6 0C93     		str	r3, [sp, #48]
 2518              		.loc 1 723 0
 2519 01a8 47E0     		b	.L203
 2520              	.L204:
 2521              		.loc 1 727 0
 2522 01aa 019B     		ldr	r3, [sp, #4]
 2523 01ac 03F00103 		and	r3, r3, #1
 2524 01b0 002B     		cmp	r3, #0
 2525 01b2 02D0     		beq	.L207
 2526              		.loc 1 728 0
 2527 01b4 6FF00603 		mvn	r3, #6
 2528 01b8 FDE2     		b	.L190
 2529              	.L207:
 2530              		.loc 1 730 0
 2531 01ba 039B     		ldr	r3, [sp, #12]
 2532 01bc 5B08     		lsrs	r3, r3, #1
 2533 01be 0133     		adds	r3, r3, #1
 2534 01c0 0393     		str	r3, [sp, #12]
 2535              		.loc 1 731 0
 2536 01c2 019B     		ldr	r3, [sp, #4]
 2537 01c4 5A08     		lsrs	r2, r3, #1
 2538 01c6 039B     		ldr	r3, [sp, #12]
 2539 01c8 1344     		add	r3, r3, r2
 2540 01ca 013B     		subs	r3, r3, #1
 2541 01cc 0893     		str	r3, [sp, #32]
 2542              		.loc 1 732 0
 2543 01ce 019B     		ldr	r3, [sp, #4]
 2544 01d0 484A     		ldr	r2, .L247+4
 2545 01d2 A2FB0323 		umull	r2, r3, r2, r3
 2546 01d6 9B08     		lsrs	r3, r3, #2
 2547 01d8 039A     		ldr	r2, [sp, #12]
 2548 01da 1344     		add	r3, r3, r2
 2549 01dc 0B93     		str	r3, [sp, #44]
 2550              		.loc 1 733 0
 2551 01de 019B     		ldr	r3, [sp, #4]
 2552 01e0 5B00     		lsls	r3, r3, #1
 2553 01e2 444A     		ldr	r2, .L247+4
 2554 01e4 A2FB0323 		umull	r2, r3, r2, r3
 2555 01e8 9B08     		lsrs	r3, r3, #2
 2556 01ea 039A     		ldr	r2, [sp, #12]
 2557 01ec 1344     		add	r3, r3, r2
 2558 01ee 0C93     		str	r3, [sp, #48]
 2559              		.loc 1 735 0
 2560 01f0 23E0     		b	.L203
 2561              	.L205:
 2562              		.loc 1 739 0
 2563 01f2 019B     		ldr	r3, [sp, #4]
 2564 01f4 03F00303 		and	r3, r3, #3
ARM GAS  C:\Users\PCHAUT~1\AppData\Local\Temp\ccMxpIDf.s 			page 46


 2565 01f8 002B     		cmp	r3, #0
 2566 01fa 02D0     		beq	.L208
 2567              		.loc 1 740 0
 2568 01fc 6FF00603 		mvn	r3, #6
 2569 0200 D9E2     		b	.L190
 2570              	.L208:
 2571              		.loc 1 742 0
 2572 0202 039B     		ldr	r3, [sp, #12]
 2573 0204 9B08     		lsrs	r3, r3, #2
 2574 0206 0133     		adds	r3, r3, #1
 2575 0208 0393     		str	r3, [sp, #12]
 2576              		.loc 1 743 0
 2577 020a 019B     		ldr	r3, [sp, #4]
 2578 020c 9A08     		lsrs	r2, r3, #2
 2579 020e 039B     		ldr	r3, [sp, #12]
 2580 0210 1344     		add	r3, r3, r2
 2581 0212 013B     		subs	r3, r3, #1
 2582 0214 0893     		str	r3, [sp, #32]
 2583              		.loc 1 744 0
 2584 0216 019B     		ldr	r3, [sp, #4]
 2585 0218 364A     		ldr	r2, .L247+4
 2586 021a A2FB0323 		umull	r2, r3, r2, r3
 2587 021e DB08     		lsrs	r3, r3, #3
 2588 0220 039A     		ldr	r2, [sp, #12]
 2589 0222 1344     		add	r3, r3, r2
 2590 0224 0B93     		str	r3, [sp, #44]
 2591              		.loc 1 745 0
 2592 0226 019B     		ldr	r3, [sp, #4]
 2593 0228 5B00     		lsls	r3, r3, #1
 2594 022a 324A     		ldr	r2, .L247+4
 2595 022c A2FB0323 		umull	r2, r3, r2, r3
 2596 0230 DB08     		lsrs	r3, r3, #3
 2597 0232 039A     		ldr	r2, [sp, #12]
 2598 0234 1344     		add	r3, r3, r2
 2599 0236 0C93     		str	r3, [sp, #48]
 2600              		.loc 1 747 0
 2601 0238 00BF     		nop
 2602              	.L203:
 2603              		.loc 1 750 0
 2604 023a 0020     		movs	r0, #0
 2605 023c FFF7FEFF 		bl	po8030_set_bank
 2606 0240 0346     		mov	r3, r0
 2607 0242 8DF81B30 		strb	r3, [sp, #27]
 2608 0246 9DF91B30 		ldrsb	r3, [sp, #27]
 2609 024a 002B     		cmp	r3, #0
 2610 024c 02D0     		beq	.L209
 2611              		.loc 1 751 0
 2612 024e 9DF91B30 		ldrsb	r3, [sp, #27]
 2613 0252 B0E2     		b	.L190
 2614              	.L209:
 2615              		.loc 1 753 0
 2616 0254 0022     		movs	r2, #0
 2617 0256 5B21     		movs	r1, #91
 2618 0258 6E20     		movs	r0, #110
 2619 025a FFF7FEFF 		bl	write_reg
 2620 025e 0346     		mov	r3, r0
 2621 0260 8DF81B30 		strb	r3, [sp, #27]
ARM GAS  C:\Users\PCHAUT~1\AppData\Local\Temp\ccMxpIDf.s 			page 47


 2622 0264 9DF91B30 		ldrsb	r3, [sp, #27]
 2623 0268 002B     		cmp	r3, #0
 2624 026a 02D0     		beq	.L210
 2625              		.loc 1 754 0
 2626 026c 9DF91B30 		ldrsb	r3, [sp, #27]
 2627 0270 A1E2     		b	.L190
 2628              	.L210:
 2629              		.loc 1 757 0
 2630 0272 9DF81730 		ldrb	r3, [sp, #23]	@ zero_extendqisi2
 2631 0276 1846     		mov	r0, r3
 2632 0278 FFF7FEFF 		bl	po8030_set_format
 2633 027c 0346     		mov	r3, r0
 2634 027e 8DF81B30 		strb	r3, [sp, #27]
 2635 0282 9DF91B30 		ldrsb	r3, [sp, #27]
 2636 0286 002B     		cmp	r3, #0
 2637 0288 02D0     		beq	.L211
 2638              		.loc 1 758 0
 2639 028a 9DF91B30 		ldrsb	r3, [sp, #27]
 2640 028e 92E2     		b	.L190
 2641              	.L211:
 2642              		.loc 1 761 0
 2643 0290 0020     		movs	r0, #0
 2644 0292 FFF7FEFF 		bl	po8030_set_bank
 2645 0296 0346     		mov	r3, r0
 2646 0298 8DF81B30 		strb	r3, [sp, #27]
 2647 029c 9DF91B30 		ldrsb	r3, [sp, #27]
 2648 02a0 002B     		cmp	r3, #0
 2649 02a2 02D0     		beq	.L212
 2650              		.loc 1 762 0
 2651 02a4 9DF91B30 		ldrsb	r3, [sp, #27]
 2652 02a8 85E2     		b	.L190
 2653              	.L212:
 2654              		.loc 1 765 0
 2655 02aa 049B     		ldr	r3, [sp, #16]
 2656 02ac 1B0A     		lsrs	r3, r3, #8
 2657 02ae DBB2     		uxtb	r3, r3
 2658 02b0 1A46     		mov	r2, r3
 2659 02b2 0821     		movs	r1, #8
 2660 02b4 6E20     		movs	r0, #110
 2661 02b6 FFF7FEFF 		bl	write_reg
 2662 02ba 0346     		mov	r3, r0
 2663 02bc 8DF81B30 		strb	r3, [sp, #27]
 2664 02c0 9DF91B30 		ldrsb	r3, [sp, #27]
 2665 02c4 002B     		cmp	r3, #0
 2666 02c6 02D0     		beq	.L213
 2667              		.loc 1 766 0
 2668 02c8 9DF91B30 		ldrsb	r3, [sp, #27]
 2669 02cc 73E2     		b	.L190
 2670              	.L213:
 2671              		.loc 1 768 0
 2672 02ce 049B     		ldr	r3, [sp, #16]
 2673 02d0 DBB2     		uxtb	r3, r3
 2674 02d2 1A46     		mov	r2, r3
 2675 02d4 0921     		movs	r1, #9
 2676 02d6 6E20     		movs	r0, #110
 2677 02d8 FFF7FEFF 		bl	write_reg
 2678 02dc 0346     		mov	r3, r0
ARM GAS  C:\Users\PCHAUT~1\AppData\Local\Temp\ccMxpIDf.s 			page 48


 2679 02de 8DF81B30 		strb	r3, [sp, #27]
 2680 02e2 9DF91B30 		ldrsb	r3, [sp, #27]
 2681 02e6 002B     		cmp	r3, #0
 2682 02e8 06D0     		beq	.L214
 2683              		.loc 1 769 0
 2684 02ea 9DF91B30 		ldrsb	r3, [sp, #27]
 2685 02ee 62E2     		b	.L190
 2686              	.L248:
 2687              		.align	2
 2688              	.L247:
 2689 02f0 00000000 		.word	__stack_chk_guard
 2690 02f4 ABAAAAAA 		.word	-1431655765
 2691              	.L214:
 2692              		.loc 1 771 0
 2693 02f8 039B     		ldr	r3, [sp, #12]
 2694 02fa 1B0A     		lsrs	r3, r3, #8
 2695 02fc DBB2     		uxtb	r3, r3
 2696 02fe 1A46     		mov	r2, r3
 2697 0300 0A21     		movs	r1, #10
 2698 0302 6E20     		movs	r0, #110
 2699 0304 FFF7FEFF 		bl	write_reg
 2700 0308 0346     		mov	r3, r0
 2701 030a 8DF81B30 		strb	r3, [sp, #27]
 2702 030e 9DF91B30 		ldrsb	r3, [sp, #27]
 2703 0312 002B     		cmp	r3, #0
 2704 0314 02D0     		beq	.L215
 2705              		.loc 1 772 0
 2706 0316 9DF91B30 		ldrsb	r3, [sp, #27]
 2707 031a 4CE2     		b	.L190
 2708              	.L215:
 2709              		.loc 1 774 0
 2710 031c 039B     		ldr	r3, [sp, #12]
 2711 031e DBB2     		uxtb	r3, r3
 2712 0320 1A46     		mov	r2, r3
 2713 0322 0B21     		movs	r1, #11
 2714 0324 6E20     		movs	r0, #110
 2715 0326 FFF7FEFF 		bl	write_reg
 2716 032a 0346     		mov	r3, r0
 2717 032c 8DF81B30 		strb	r3, [sp, #27]
 2718 0330 9DF91B30 		ldrsb	r3, [sp, #27]
 2719 0334 002B     		cmp	r3, #0
 2720 0336 02D0     		beq	.L216
 2721              		.loc 1 775 0
 2722 0338 9DF91B30 		ldrsb	r3, [sp, #27]
 2723 033c 3BE2     		b	.L190
 2724              	.L216:
 2725              		.loc 1 777 0
 2726 033e 079B     		ldr	r3, [sp, #28]
 2727 0340 1B0A     		lsrs	r3, r3, #8
 2728 0342 DBB2     		uxtb	r3, r3
 2729 0344 1A46     		mov	r2, r3
 2730 0346 0C21     		movs	r1, #12
 2731 0348 6E20     		movs	r0, #110
 2732 034a FFF7FEFF 		bl	write_reg
 2733 034e 0346     		mov	r3, r0
 2734 0350 8DF81B30 		strb	r3, [sp, #27]
 2735 0354 9DF91B30 		ldrsb	r3, [sp, #27]
ARM GAS  C:\Users\PCHAUT~1\AppData\Local\Temp\ccMxpIDf.s 			page 49


 2736 0358 002B     		cmp	r3, #0
 2737 035a 02D0     		beq	.L217
 2738              		.loc 1 778 0
 2739 035c 9DF91B30 		ldrsb	r3, [sp, #27]
 2740 0360 29E2     		b	.L190
 2741              	.L217:
 2742              		.loc 1 780 0
 2743 0362 079B     		ldr	r3, [sp, #28]
 2744 0364 DBB2     		uxtb	r3, r3
 2745 0366 1A46     		mov	r2, r3
 2746 0368 0D21     		movs	r1, #13
 2747 036a 6E20     		movs	r0, #110
 2748 036c FFF7FEFF 		bl	write_reg
 2749 0370 0346     		mov	r3, r0
 2750 0372 8DF81B30 		strb	r3, [sp, #27]
 2751 0376 9DF91B30 		ldrsb	r3, [sp, #27]
 2752 037a 002B     		cmp	r3, #0
 2753 037c 02D0     		beq	.L218
 2754              		.loc 1 781 0
 2755 037e 9DF91B30 		ldrsb	r3, [sp, #27]
 2756 0382 18E2     		b	.L190
 2757              	.L218:
 2758              		.loc 1 783 0
 2759 0384 089B     		ldr	r3, [sp, #32]
 2760 0386 1B0A     		lsrs	r3, r3, #8
 2761 0388 DBB2     		uxtb	r3, r3
 2762 038a 1A46     		mov	r2, r3
 2763 038c 0E21     		movs	r1, #14
 2764 038e 6E20     		movs	r0, #110
 2765 0390 FFF7FEFF 		bl	write_reg
 2766 0394 0346     		mov	r3, r0
 2767 0396 8DF81B30 		strb	r3, [sp, #27]
 2768 039a 9DF91B30 		ldrsb	r3, [sp, #27]
 2769 039e 002B     		cmp	r3, #0
 2770 03a0 02D0     		beq	.L219
 2771              		.loc 1 784 0
 2772 03a2 9DF91B30 		ldrsb	r3, [sp, #27]
 2773 03a6 06E2     		b	.L190
 2774              	.L219:
 2775              		.loc 1 786 0
 2776 03a8 089B     		ldr	r3, [sp, #32]
 2777 03aa DBB2     		uxtb	r3, r3
 2778 03ac 1A46     		mov	r2, r3
 2779 03ae 0F21     		movs	r1, #15
 2780 03b0 6E20     		movs	r0, #110
 2781 03b2 FFF7FEFF 		bl	write_reg
 2782 03b6 0346     		mov	r3, r0
 2783 03b8 8DF81B30 		strb	r3, [sp, #27]
 2784 03bc 9DF91B30 		ldrsb	r3, [sp, #27]
 2785 03c0 002B     		cmp	r3, #0
 2786 03c2 02D0     		beq	.L220
 2787              		.loc 1 787 0
 2788 03c4 9DF91B30 		ldrsb	r3, [sp, #27]
 2789 03c8 F5E1     		b	.L190
 2790              	.L220:
 2791              		.loc 1 790 0
 2792 03ca 049B     		ldr	r3, [sp, #16]
ARM GAS  C:\Users\PCHAUT~1\AppData\Local\Temp\ccMxpIDf.s 			page 50


 2793 03cc 1B0A     		lsrs	r3, r3, #8
 2794 03ce DBB2     		uxtb	r3, r3
 2795 03d0 1A46     		mov	r2, r3
 2796 03d2 3521     		movs	r1, #53
 2797 03d4 6E20     		movs	r0, #110
 2798 03d6 FFF7FEFF 		bl	write_reg
 2799 03da 0346     		mov	r3, r0
 2800 03dc 8DF81B30 		strb	r3, [sp, #27]
 2801 03e0 9DF91B30 		ldrsb	r3, [sp, #27]
 2802 03e4 002B     		cmp	r3, #0
 2803 03e6 02D0     		beq	.L221
 2804              		.loc 1 791 0
 2805 03e8 9DF91B30 		ldrsb	r3, [sp, #27]
 2806 03ec E3E1     		b	.L190
 2807              	.L221:
 2808              		.loc 1 793 0
 2809 03ee 049B     		ldr	r3, [sp, #16]
 2810 03f0 DBB2     		uxtb	r3, r3
 2811 03f2 1A46     		mov	r2, r3
 2812 03f4 3621     		movs	r1, #54
 2813 03f6 6E20     		movs	r0, #110
 2814 03f8 FFF7FEFF 		bl	write_reg
 2815 03fc 0346     		mov	r3, r0
 2816 03fe 8DF81B30 		strb	r3, [sp, #27]
 2817 0402 9DF91B30 		ldrsb	r3, [sp, #27]
 2818 0406 002B     		cmp	r3, #0
 2819 0408 02D0     		beq	.L222
 2820              		.loc 1 794 0
 2821 040a 9DF91B30 		ldrsb	r3, [sp, #27]
 2822 040e D2E1     		b	.L190
 2823              	.L222:
 2824              		.loc 1 796 0
 2825 0410 079B     		ldr	r3, [sp, #28]
 2826 0412 1B0A     		lsrs	r3, r3, #8
 2827 0414 DBB2     		uxtb	r3, r3
 2828 0416 1A46     		mov	r2, r3
 2829 0418 3721     		movs	r1, #55
 2830 041a 6E20     		movs	r0, #110
 2831 041c FFF7FEFF 		bl	write_reg
 2832 0420 0346     		mov	r3, r0
 2833 0422 8DF81B30 		strb	r3, [sp, #27]
 2834 0426 9DF91B30 		ldrsb	r3, [sp, #27]
 2835 042a 002B     		cmp	r3, #0
 2836 042c 02D0     		beq	.L223
 2837              		.loc 1 797 0
 2838 042e 9DF91B30 		ldrsb	r3, [sp, #27]
 2839 0432 C0E1     		b	.L190
 2840              	.L223:
 2841              		.loc 1 799 0
 2842 0434 079B     		ldr	r3, [sp, #28]
 2843 0436 DBB2     		uxtb	r3, r3
 2844 0438 1A46     		mov	r2, r3
 2845 043a 3821     		movs	r1, #56
 2846 043c 6E20     		movs	r0, #110
 2847 043e FFF7FEFF 		bl	write_reg
 2848 0442 0346     		mov	r3, r0
 2849 0444 8DF81B30 		strb	r3, [sp, #27]
ARM GAS  C:\Users\PCHAUT~1\AppData\Local\Temp\ccMxpIDf.s 			page 51


 2850 0448 9DF91B30 		ldrsb	r3, [sp, #27]
 2851 044c 002B     		cmp	r3, #0
 2852 044e 02D0     		beq	.L224
 2853              		.loc 1 800 0
 2854 0450 9DF91B30 		ldrsb	r3, [sp, #27]
 2855 0454 AFE1     		b	.L190
 2856              	.L224:
 2857              		.loc 1 802 0
 2858 0456 039B     		ldr	r3, [sp, #12]
 2859 0458 1B0A     		lsrs	r3, r3, #8
 2860 045a DBB2     		uxtb	r3, r3
 2861 045c 1A46     		mov	r2, r3
 2862 045e 3921     		movs	r1, #57
 2863 0460 6E20     		movs	r0, #110
 2864 0462 FFF7FEFF 		bl	write_reg
 2865 0466 0346     		mov	r3, r0
 2866 0468 8DF81B30 		strb	r3, [sp, #27]
 2867 046c 9DF91B30 		ldrsb	r3, [sp, #27]
 2868 0470 002B     		cmp	r3, #0
 2869 0472 02D0     		beq	.L225
 2870              		.loc 1 803 0
 2871 0474 9DF91B30 		ldrsb	r3, [sp, #27]
 2872 0478 9DE1     		b	.L190
 2873              	.L225:
 2874              		.loc 1 805 0
 2875 047a 039B     		ldr	r3, [sp, #12]
 2876 047c DBB2     		uxtb	r3, r3
 2877 047e 1A46     		mov	r2, r3
 2878 0480 3A21     		movs	r1, #58
 2879 0482 6E20     		movs	r0, #110
 2880 0484 FFF7FEFF 		bl	write_reg
 2881 0488 0346     		mov	r3, r0
 2882 048a 8DF81B30 		strb	r3, [sp, #27]
 2883 048e 9DF91B30 		ldrsb	r3, [sp, #27]
 2884 0492 002B     		cmp	r3, #0
 2885 0494 02D0     		beq	.L226
 2886              		.loc 1 806 0
 2887 0496 9DF91B30 		ldrsb	r3, [sp, #27]
 2888 049a 8CE1     		b	.L190
 2889              	.L226:
 2890              		.loc 1 808 0
 2891 049c 089B     		ldr	r3, [sp, #32]
 2892 049e 1B0A     		lsrs	r3, r3, #8
 2893 04a0 DBB2     		uxtb	r3, r3
 2894 04a2 1A46     		mov	r2, r3
 2895 04a4 3B21     		movs	r1, #59
 2896 04a6 6E20     		movs	r0, #110
 2897 04a8 FFF7FEFF 		bl	write_reg
 2898 04ac 0346     		mov	r3, r0
 2899 04ae 8DF81B30 		strb	r3, [sp, #27]
 2900 04b2 9DF91B30 		ldrsb	r3, [sp, #27]
 2901 04b6 002B     		cmp	r3, #0
 2902 04b8 02D0     		beq	.L227
 2903              		.loc 1 809 0
 2904 04ba 9DF91B30 		ldrsb	r3, [sp, #27]
 2905 04be 7AE1     		b	.L190
 2906              	.L227:
ARM GAS  C:\Users\PCHAUT~1\AppData\Local\Temp\ccMxpIDf.s 			page 52


 2907              		.loc 1 811 0
 2908 04c0 089B     		ldr	r3, [sp, #32]
 2909 04c2 DBB2     		uxtb	r3, r3
 2910 04c4 1A46     		mov	r2, r3
 2911 04c6 3C21     		movs	r1, #60
 2912 04c8 6E20     		movs	r0, #110
 2913 04ca FFF7FEFF 		bl	write_reg
 2914 04ce 0346     		mov	r3, r0
 2915 04d0 8DF81B30 		strb	r3, [sp, #27]
 2916 04d4 9DF91B30 		ldrsb	r3, [sp, #27]
 2917 04d8 002B     		cmp	r3, #0
 2918 04da 02D0     		beq	.L228
 2919              		.loc 1 812 0
 2920 04dc 9DF91B30 		ldrsb	r3, [sp, #27]
 2921 04e0 69E1     		b	.L190
 2922              	.L228:
 2923              		.loc 1 815 0
 2924 04e2 099B     		ldr	r3, [sp, #36]
 2925 04e4 1B0A     		lsrs	r3, r3, #8
 2926 04e6 DBB2     		uxtb	r3, r3
 2927 04e8 1A46     		mov	r2, r3
 2928 04ea 3D21     		movs	r1, #61
 2929 04ec 6E20     		movs	r0, #110
 2930 04ee FFF7FEFF 		bl	write_reg
 2931 04f2 0346     		mov	r3, r0
 2932 04f4 8DF81B30 		strb	r3, [sp, #27]
 2933 04f8 9DF91B30 		ldrsb	r3, [sp, #27]
 2934 04fc 002B     		cmp	r3, #0
 2935 04fe 02D0     		beq	.L229
 2936              		.loc 1 816 0
 2937 0500 9DF91B30 		ldrsb	r3, [sp, #27]
 2938 0504 57E1     		b	.L190
 2939              	.L229:
 2940              		.loc 1 818 0
 2941 0506 099B     		ldr	r3, [sp, #36]
 2942 0508 DBB2     		uxtb	r3, r3
 2943 050a 1A46     		mov	r2, r3
 2944 050c 3E21     		movs	r1, #62
 2945 050e 6E20     		movs	r0, #110
 2946 0510 FFF7FEFF 		bl	write_reg
 2947 0514 0346     		mov	r3, r0
 2948 0516 8DF81B30 		strb	r3, [sp, #27]
 2949 051a 9DF91B30 		ldrsb	r3, [sp, #27]
 2950 051e 002B     		cmp	r3, #0
 2951 0520 02D0     		beq	.L230
 2952              		.loc 1 819 0
 2953 0522 9DF91B30 		ldrsb	r3, [sp, #27]
 2954 0526 46E1     		b	.L190
 2955              	.L230:
 2956              		.loc 1 821 0
 2957 0528 0A9B     		ldr	r3, [sp, #40]
 2958 052a 1B0A     		lsrs	r3, r3, #8
 2959 052c DBB2     		uxtb	r3, r3
 2960 052e 1A46     		mov	r2, r3
 2961 0530 3F21     		movs	r1, #63
 2962 0532 6E20     		movs	r0, #110
 2963 0534 FFF7FEFF 		bl	write_reg
ARM GAS  C:\Users\PCHAUT~1\AppData\Local\Temp\ccMxpIDf.s 			page 53


 2964 0538 0346     		mov	r3, r0
 2965 053a 8DF81B30 		strb	r3, [sp, #27]
 2966 053e 9DF91B30 		ldrsb	r3, [sp, #27]
 2967 0542 002B     		cmp	r3, #0
 2968 0544 02D0     		beq	.L231
 2969              		.loc 1 822 0
 2970 0546 9DF91B30 		ldrsb	r3, [sp, #27]
 2971 054a 34E1     		b	.L190
 2972              	.L231:
 2973              		.loc 1 824 0
 2974 054c 0A9B     		ldr	r3, [sp, #40]
 2975 054e DBB2     		uxtb	r3, r3
 2976 0550 1A46     		mov	r2, r3
 2977 0552 4021     		movs	r1, #64
 2978 0554 6E20     		movs	r0, #110
 2979 0556 FFF7FEFF 		bl	write_reg
 2980 055a 0346     		mov	r3, r0
 2981 055c 8DF81B30 		strb	r3, [sp, #27]
 2982 0560 9DF91B30 		ldrsb	r3, [sp, #27]
 2983 0564 002B     		cmp	r3, #0
 2984 0566 02D0     		beq	.L232
 2985              		.loc 1 825 0
 2986 0568 9DF91B30 		ldrsb	r3, [sp, #27]
 2987 056c 23E1     		b	.L190
 2988              	.L232:
 2989              		.loc 1 827 0
 2990 056e 0B9B     		ldr	r3, [sp, #44]
 2991 0570 1B0A     		lsrs	r3, r3, #8
 2992 0572 DBB2     		uxtb	r3, r3
 2993 0574 1A46     		mov	r2, r3
 2994 0576 4121     		movs	r1, #65
 2995 0578 6E20     		movs	r0, #110
 2996 057a FFF7FEFF 		bl	write_reg
 2997 057e 0346     		mov	r3, r0
 2998 0580 8DF81B30 		strb	r3, [sp, #27]
 2999 0584 9DF91B30 		ldrsb	r3, [sp, #27]
 3000 0588 002B     		cmp	r3, #0
 3001 058a 02D0     		beq	.L233
 3002              		.loc 1 828 0
 3003 058c 9DF91B30 		ldrsb	r3, [sp, #27]
 3004 0590 11E1     		b	.L190
 3005              	.L233:
 3006              		.loc 1 830 0
 3007 0592 0B9B     		ldr	r3, [sp, #44]
 3008 0594 DBB2     		uxtb	r3, r3
 3009 0596 1A46     		mov	r2, r3
 3010 0598 4221     		movs	r1, #66
 3011 059a 6E20     		movs	r0, #110
 3012 059c FFF7FEFF 		bl	write_reg
 3013 05a0 0346     		mov	r3, r0
 3014 05a2 8DF81B30 		strb	r3, [sp, #27]
 3015 05a6 9DF91B30 		ldrsb	r3, [sp, #27]
 3016 05aa 002B     		cmp	r3, #0
 3017 05ac 02D0     		beq	.L234
 3018              		.loc 1 831 0
 3019 05ae 9DF91B30 		ldrsb	r3, [sp, #27]
 3020 05b2 00E1     		b	.L190
ARM GAS  C:\Users\PCHAUT~1\AppData\Local\Temp\ccMxpIDf.s 			page 54


 3021              	.L234:
 3022              		.loc 1 833 0
 3023 05b4 0C9B     		ldr	r3, [sp, #48]
 3024 05b6 1B0A     		lsrs	r3, r3, #8
 3025 05b8 DBB2     		uxtb	r3, r3
 3026 05ba 1A46     		mov	r2, r3
 3027 05bc 4321     		movs	r1, #67
 3028 05be 6E20     		movs	r0, #110
 3029 05c0 FFF7FEFF 		bl	write_reg
 3030 05c4 0346     		mov	r3, r0
 3031 05c6 8DF81B30 		strb	r3, [sp, #27]
 3032 05ca 9DF91B30 		ldrsb	r3, [sp, #27]
 3033 05ce 002B     		cmp	r3, #0
 3034 05d0 02D0     		beq	.L235
 3035              		.loc 1 834 0
 3036 05d2 9DF91B30 		ldrsb	r3, [sp, #27]
 3037 05d6 EEE0     		b	.L190
 3038              	.L235:
 3039              		.loc 1 836 0
 3040 05d8 0C9B     		ldr	r3, [sp, #48]
 3041 05da DBB2     		uxtb	r3, r3
 3042 05dc 1A46     		mov	r2, r3
 3043 05de 4421     		movs	r1, #68
 3044 05e0 6E20     		movs	r0, #110
 3045 05e2 FFF7FEFF 		bl	write_reg
 3046 05e6 0346     		mov	r3, r0
 3047 05e8 8DF81B30 		strb	r3, [sp, #27]
 3048 05ec 9DF91B30 		ldrsb	r3, [sp, #27]
 3049 05f0 002B     		cmp	r3, #0
 3050 05f2 02D0     		beq	.L236
 3051              		.loc 1 837 0
 3052 05f4 9DF91B30 		ldrsb	r3, [sp, #27]
 3053 05f8 DDE0     		b	.L190
 3054              	.L236:
 3055              		.loc 1 840 0
 3056 05fa 0120     		movs	r0, #1
 3057 05fc FFF7FEFF 		bl	po8030_set_bank
 3058 0600 0346     		mov	r3, r0
 3059 0602 8DF81B30 		strb	r3, [sp, #27]
 3060 0606 9DF91B30 		ldrsb	r3, [sp, #27]
 3061 060a 002B     		cmp	r3, #0
 3062 060c 02D0     		beq	.L237
 3063              		.loc 1 841 0
 3064 060e 9DF91B30 		ldrsb	r3, [sp, #27]
 3065 0612 D0E0     		b	.L190
 3066              	.L237:
 3067              		.loc 1 844 0
 3068 0614 9DF81630 		ldrb	r3, [sp, #22]	@ zero_extendqisi2
 3069 0618 1A46     		mov	r2, r3
 3070 061a 9321     		movs	r1, #147
 3071 061c 6E20     		movs	r0, #110
 3072 061e FFF7FEFF 		bl	write_reg
 3073 0622 0346     		mov	r3, r0
 3074 0624 8DF81B30 		strb	r3, [sp, #27]
 3075 0628 9DF91B30 		ldrsb	r3, [sp, #27]
 3076 062c 002B     		cmp	r3, #0
 3077 062e 02D0     		beq	.L238
ARM GAS  C:\Users\PCHAUT~1\AppData\Local\Temp\ccMxpIDf.s 			page 55


 3078              		.loc 1 845 0
 3079 0630 9DF91B30 		ldrsb	r3, [sp, #27]
 3080 0634 BFE0     		b	.L190
 3081              	.L238:
 3082              		.loc 1 847 0
 3083 0636 9DF81530 		ldrb	r3, [sp, #21]	@ zero_extendqisi2
 3084 063a 1A46     		mov	r2, r3
 3085 063c 9421     		movs	r1, #148
 3086 063e 6E20     		movs	r0, #110
 3087 0640 FFF7FEFF 		bl	write_reg
 3088 0644 0346     		mov	r3, r0
 3089 0646 8DF81B30 		strb	r3, [sp, #27]
 3090 064a 9DF91B30 		ldrsb	r3, [sp, #27]
 3091 064e 002B     		cmp	r3, #0
 3092 0650 02D0     		beq	.L239
 3093              		.loc 1 848 0
 3094 0652 9DF91B30 		ldrsb	r3, [sp, #27]
 3095 0656 AEE0     		b	.L190
 3096              	.L239:
 3097              		.loc 1 852 0
 3098 0658 0120     		movs	r0, #1
 3099 065a FFF7FEFF 		bl	po8030_set_bank
 3100 065e 0346     		mov	r3, r0
 3101 0660 8DF81B30 		strb	r3, [sp, #27]
 3102 0664 9DF91B30 		ldrsb	r3, [sp, #27]
 3103 0668 002B     		cmp	r3, #0
 3104 066a 02D0     		beq	.L240
 3105              		.loc 1 853 0
 3106 066c 9DF91B30 		ldrsb	r3, [sp, #27]
 3107 0670 A1E0     		b	.L190
 3108              	.L240:
 3109              		.loc 1 856 0
 3110 0672 9DF81730 		ldrb	r3, [sp, #23]	@ zero_extendqisi2
 3111 0676 442B     		cmp	r3, #68
 3112 0678 27D1     		bne	.L241
 3113              		.loc 1 857 0
 3114 067a 079A     		ldr	r2, [sp, #28]
 3115 067c 049B     		ldr	r3, [sp, #16]
 3116 067e D31A     		subs	r3, r2, r3
 3117 0680 0133     		adds	r3, r3, #1
 3118 0682 07EE903A 		vmov	s15, r3	@ int
 3119 0686 F8EE677A 		vcvt.f32.u32	s15, s15
 3120 068a 9FED507A 		vldr.32	s14, .L249
 3121 068e 37EE677A 		vsub.f32	s14, s14, s15
 3122 0692 079A     		ldr	r2, [sp, #28]
 3123 0694 049B     		ldr	r3, [sp, #16]
 3124 0696 D31A     		subs	r3, r2, r3
 3125 0698 0133     		adds	r3, r3, #1
 3126 069a 07EE903A 		vmov	s15, r3	@ int
 3127 069e F8EE677A 		vcvt.f32.u32	s15, s15
 3128 06a2 F2EE006A 		vmov.f32	s13, #8.0e+0
 3129 06a6 77EEA67A 		vadd.f32	s15, s15, s13
 3130 06aa 27EE277A 		vmul.f32	s14, s14, s15
 3131 06ae DFED486A 		vldr.32	s13, .L249+4
 3132 06b2 C7EE267A 		vdiv.f32	s15, s14, s13
 3133 06b6 CDED0E7A 		vstr.32	s15, [sp, #56]
 3134              		.loc 1 858 0
ARM GAS  C:\Users\PCHAUT~1\AppData\Local\Temp\ccMxpIDf.s 			page 56


 3135 06ba DDED0E7A 		vldr.32	s15, [sp, #56]
 3136 06be FCEEE77A 		vcvt.u32.f32	s15, s15
 3137 06c2 17EE903A 		vmov	r3, s15	@ int
 3138 06c6 0D93     		str	r3, [sp, #52]
 3139 06c8 2AE0     		b	.L242
 3140              	.L241:
 3141              		.loc 1 860 0
 3142 06ca 079A     		ldr	r2, [sp, #28]
 3143 06cc 049B     		ldr	r3, [sp, #16]
 3144 06ce D31A     		subs	r3, r2, r3
 3145 06d0 0133     		adds	r3, r3, #1
 3146 06d2 07EE903A 		vmov	s15, r3	@ int
 3147 06d6 F8EE677A 		vcvt.f32.u32	s15, s15
 3148 06da 9FED3C7A 		vldr.32	s14, .L249
 3149 06de 77EE677A 		vsub.f32	s15, s14, s15
 3150 06e2 37EEA77A 		vadd.f32	s14, s15, s15
 3151 06e6 079A     		ldr	r2, [sp, #28]
 3152 06e8 049B     		ldr	r3, [sp, #16]
 3153 06ea D31A     		subs	r3, r2, r3
 3154 06ec 0133     		adds	r3, r3, #1
 3155 06ee 07EE903A 		vmov	s15, r3	@ int
 3156 06f2 F8EE677A 		vcvt.f32.u32	s15, s15
 3157 06f6 77EEA77A 		vadd.f32	s15, s15, s15
 3158 06fa F2EE006A 		vmov.f32	s13, #8.0e+0
 3159 06fe 77EEA67A 		vadd.f32	s15, s15, s13
 3160 0702 27EE277A 		vmul.f32	s14, s14, s15
 3161 0706 DFED336A 		vldr.32	s13, .L249+8
 3162 070a C7EE267A 		vdiv.f32	s15, s14, s13
 3163 070e CDED0E7A 		vstr.32	s15, [sp, #56]
 3164              		.loc 1 861 0
 3165 0712 DDED0E7A 		vldr.32	s15, [sp, #56]
 3166 0716 FCEEE77A 		vcvt.u32.f32	s15, s15
 3167 071a 17EE903A 		vmov	r3, s15	@ int
 3168 071e 0D93     		str	r3, [sp, #52]
 3169              	.L242:
 3170              		.loc 1 864 0
 3171 0720 0D9B     		ldr	r3, [sp, #52]
 3172 0722 1B0A     		lsrs	r3, r3, #8
 3173 0724 DBB2     		uxtb	r3, r3
 3174 0726 1A46     		mov	r2, r3
 3175 0728 9521     		movs	r1, #149
 3176 072a 6E20     		movs	r0, #110
 3177 072c FFF7FEFF 		bl	write_reg
 3178 0730 0346     		mov	r3, r0
 3179 0732 8DF81B30 		strb	r3, [sp, #27]
 3180 0736 9DF91B30 		ldrsb	r3, [sp, #27]
 3181 073a 002B     		cmp	r3, #0
 3182 073c 02D0     		beq	.L243
 3183              		.loc 1 865 0
 3184 073e 9DF91B30 		ldrsb	r3, [sp, #27]
 3185 0742 38E0     		b	.L190
 3186              	.L243:
 3187              		.loc 1 867 0
 3188 0744 0D9B     		ldr	r3, [sp, #52]
 3189 0746 DBB2     		uxtb	r3, r3
 3190 0748 1A46     		mov	r2, r3
 3191 074a 9621     		movs	r1, #150
ARM GAS  C:\Users\PCHAUT~1\AppData\Local\Temp\ccMxpIDf.s 			page 57


 3192 074c 6E20     		movs	r0, #110
 3193 074e FFF7FEFF 		bl	write_reg
 3194 0752 0346     		mov	r3, r0
 3195 0754 8DF81B30 		strb	r3, [sp, #27]
 3196 0758 9DF91B30 		ldrsb	r3, [sp, #27]
 3197 075c 002B     		cmp	r3, #0
 3198 075e 02D0     		beq	.L244
 3199              		.loc 1 868 0
 3200 0760 9DF91B30 		ldrsb	r3, [sp, #27]
 3201 0764 27E0     		b	.L190
 3202              	.L244:
 3203              		.loc 1 871 0
 3204 0766 079B     		ldr	r3, [sp, #28]
 3205 0768 9AB2     		uxth	r2, r3
 3206 076a 049B     		ldr	r3, [sp, #16]
 3207 076c 9BB2     		uxth	r3, r3
 3208 076e D31A     		subs	r3, r2, r3
 3209 0770 9BB2     		uxth	r3, r3
 3210 0772 0133     		adds	r3, r3, #1
 3211 0774 9AB2     		uxth	r2, r3
 3212 0776 184B     		ldr	r3, .L249+12
 3213 0778 1A80     		strh	r2, [r3]	@ movhi
 3214              		.loc 1 872 0
 3215 077a 089B     		ldr	r3, [sp, #32]
 3216 077c 9AB2     		uxth	r2, r3
 3217 077e 039B     		ldr	r3, [sp, #12]
 3218 0780 9BB2     		uxth	r3, r3
 3219 0782 D31A     		subs	r3, r2, r3
 3220 0784 9BB2     		uxth	r3, r3
 3221 0786 0133     		adds	r3, r3, #1
 3222 0788 9AB2     		uxth	r2, r3
 3223 078a 134B     		ldr	r3, .L249+12
 3224 078c 5A80     		strh	r2, [r3, #2]	@ movhi
 3225              		.loc 1 873 0
 3226 078e 124A     		ldr	r2, .L249+12
 3227 0790 9DF81730 		ldrb	r3, [sp, #23]
 3228 0794 1371     		strb	r3, [r2, #4]
 3229              		.loc 1 874 0
 3230 0796 104A     		ldr	r2, .L249+12
 3231 0798 9DF81630 		ldrb	r3, [sp, #22]
 3232 079c 5371     		strb	r3, [r2, #5]
 3233              		.loc 1 875 0
 3234 079e 0E4A     		ldr	r2, .L249+12
 3235 07a0 9DF81530 		ldrb	r3, [sp, #21]
 3236 07a4 9371     		strb	r3, [r2, #6]
 3237              		.loc 1 877 0
 3238 07a6 9DF91B30 		ldrsb	r3, [sp, #27]
 3239 07aa 002B     		cmp	r3, #0
 3240 07ac 02D1     		bne	.L245
 3241              		.loc 1 878 0
 3242 07ae 0B4B     		ldr	r3, .L249+16
 3243 07b0 0122     		movs	r2, #1
 3244 07b2 1A70     		strb	r2, [r3]
 3245              	.L245:
 3246              		.loc 1 881 0
 3247 07b4 0023     		movs	r3, #0
 3248              	.L190:
ARM GAS  C:\Users\PCHAUT~1\AppData\Local\Temp\ccMxpIDf.s 			page 58


 3249              		.loc 1 882 0
 3250 07b6 1846     		mov	r0, r3
 3251 07b8 094B     		ldr	r3, .L249+20
 3252 07ba 0F9A     		ldr	r2, [sp, #60]
 3253 07bc 1B68     		ldr	r3, [r3]
 3254 07be 9A42     		cmp	r2, r3
 3255 07c0 01D0     		beq	.L246
 3256 07c2 FFF7FEFF 		bl	__stack_chk_fail
 3257              	.L246:
 3258 07c6 11B0     		add	sp, sp, #68
 3259              		.cfi_def_cfa_offset 4
 3260              		@ sp needed
 3261 07c8 5DF804FB 		ldr	pc, [sp], #4
 3262              	.L250:
 3263              		.align	2
 3264              	.L249:
 3265 07cc 00002244 		.word	1143078912
 3266 07d0 00002444 		.word	1143209984
 3267 07d4 0000A344 		.word	1151533056
 3268 07d8 00000000 		.word	po8030_conf
 3269 07dc 00000000 		.word	cam_configured
 3270 07e0 00000000 		.word	__stack_chk_guard
 3271              		.cfi_endproc
 3272              	.LFE267:
 3273              		.size	po8030_advanced_config, .-po8030_advanced_config
 3274              		.section	.text.po8030_set_brightness,"ax",%progbits
 3275              		.align	1
 3276              		.p2align 4,,15
 3277              		.global	po8030_set_brightness
 3278              		.syntax unified
 3279              		.thumb
 3280              		.thumb_func
 3281              		.fpu fpv4-sp-d16
 3282              		.type	po8030_set_brightness, %function
 3283              	po8030_set_brightness:
 3284              	.LFB268:
 3285              		.loc 1 887 0
 3286              		.cfi_startproc
 3287              		@ args = 0, pretend = 0, frame = 16
 3288              		@ frame_needed = 0, uses_anonymous_args = 0
 3289 0000 00B5     		push	{lr}
 3290              		.cfi_def_cfa_offset 4
 3291              		.cfi_offset 14, -4
 3292 0002 85B0     		sub	sp, sp, #20
 3293              		.cfi_def_cfa_offset 24
 3294 0004 0346     		mov	r3, r0
 3295 0006 8DF80730 		strb	r3, [sp, #7]
 3296              		.loc 1 887 0
 3297 000a 134B     		ldr	r3, .L255
 3298 000c 1B68     		ldr	r3, [r3]
 3299 000e 0393     		str	r3, [sp, #12]
 3300              		.loc 1 888 0
 3301 0010 0023     		movs	r3, #0
 3302 0012 8DF80B30 		strb	r3, [sp, #11]
 3303              		.loc 1 889 0
 3304 0016 0120     		movs	r0, #1
 3305 0018 FFF7FEFF 		bl	po8030_set_bank
ARM GAS  C:\Users\PCHAUT~1\AppData\Local\Temp\ccMxpIDf.s 			page 59


 3306 001c 0346     		mov	r3, r0
 3307 001e 8DF80B30 		strb	r3, [sp, #11]
 3308 0022 9DF90B30 		ldrsb	r3, [sp, #11]
 3309 0026 002B     		cmp	r3, #0
 3310 0028 02D0     		beq	.L252
 3311              		.loc 1 890 0
 3312 002a 9DF90B30 		ldrsb	r3, [sp, #11]
 3313 002e 07E0     		b	.L253
 3314              	.L252:
 3315              		.loc 1 892 0
 3316 0030 9DF80730 		ldrb	r3, [sp, #7]	@ zero_extendqisi2
 3317 0034 1A46     		mov	r2, r3
 3318 0036 9E21     		movs	r1, #158
 3319 0038 6E20     		movs	r0, #110
 3320 003a FFF7FEFF 		bl	write_reg
 3321 003e 0346     		mov	r3, r0
 3322              	.L253:
 3323              		.loc 1 893 0
 3324 0040 1846     		mov	r0, r3
 3325 0042 054B     		ldr	r3, .L255
 3326 0044 039A     		ldr	r2, [sp, #12]
 3327 0046 1B68     		ldr	r3, [r3]
 3328 0048 9A42     		cmp	r2, r3
 3329 004a 01D0     		beq	.L254
 3330 004c FFF7FEFF 		bl	__stack_chk_fail
 3331              	.L254:
 3332 0050 05B0     		add	sp, sp, #20
 3333              		.cfi_def_cfa_offset 4
 3334              		@ sp needed
 3335 0052 5DF804FB 		ldr	pc, [sp], #4
 3336              	.L256:
 3337 0056 00BF     		.align	2
 3338              	.L255:
 3339 0058 00000000 		.word	__stack_chk_guard
 3340              		.cfi_endproc
 3341              	.LFE268:
 3342              		.size	po8030_set_brightness, .-po8030_set_brightness
 3343              		.section	.text.po8030_set_contrast,"ax",%progbits
 3344              		.align	1
 3345              		.p2align 4,,15
 3346              		.global	po8030_set_contrast
 3347              		.syntax unified
 3348              		.thumb
 3349              		.thumb_func
 3350              		.fpu fpv4-sp-d16
 3351              		.type	po8030_set_contrast, %function
 3352              	po8030_set_contrast:
 3353              	.LFB269:
 3354              		.loc 1 898 0
 3355              		.cfi_startproc
 3356              		@ args = 0, pretend = 0, frame = 16
 3357              		@ frame_needed = 0, uses_anonymous_args = 0
 3358 0000 00B5     		push	{lr}
 3359              		.cfi_def_cfa_offset 4
 3360              		.cfi_offset 14, -4
 3361 0002 85B0     		sub	sp, sp, #20
 3362              		.cfi_def_cfa_offset 24
ARM GAS  C:\Users\PCHAUT~1\AppData\Local\Temp\ccMxpIDf.s 			page 60


 3363 0004 0346     		mov	r3, r0
 3364 0006 8DF80730 		strb	r3, [sp, #7]
 3365              		.loc 1 898 0
 3366 000a 134B     		ldr	r3, .L261
 3367 000c 1B68     		ldr	r3, [r3]
 3368 000e 0393     		str	r3, [sp, #12]
 3369              		.loc 1 899 0
 3370 0010 0023     		movs	r3, #0
 3371 0012 8DF80B30 		strb	r3, [sp, #11]
 3372              		.loc 1 900 0
 3373 0016 0120     		movs	r0, #1
 3374 0018 FFF7FEFF 		bl	po8030_set_bank
 3375 001c 0346     		mov	r3, r0
 3376 001e 8DF80B30 		strb	r3, [sp, #11]
 3377 0022 9DF90B30 		ldrsb	r3, [sp, #11]
 3378 0026 002B     		cmp	r3, #0
 3379 0028 02D0     		beq	.L258
 3380              		.loc 1 901 0
 3381 002a 9DF90B30 		ldrsb	r3, [sp, #11]
 3382 002e 07E0     		b	.L259
 3383              	.L258:
 3384              		.loc 1 903 0
 3385 0030 9DF80730 		ldrb	r3, [sp, #7]	@ zero_extendqisi2
 3386 0034 1A46     		mov	r2, r3
 3387 0036 9D21     		movs	r1, #157
 3388 0038 6E20     		movs	r0, #110
 3389 003a FFF7FEFF 		bl	write_reg
 3390 003e 0346     		mov	r3, r0
 3391              	.L259:
 3392              		.loc 1 904 0
 3393 0040 1846     		mov	r0, r3
 3394 0042 054B     		ldr	r3, .L261
 3395 0044 039A     		ldr	r2, [sp, #12]
 3396 0046 1B68     		ldr	r3, [r3]
 3397 0048 9A42     		cmp	r2, r3
 3398 004a 01D0     		beq	.L260
 3399 004c FFF7FEFF 		bl	__stack_chk_fail
 3400              	.L260:
 3401 0050 05B0     		add	sp, sp, #20
 3402              		.cfi_def_cfa_offset 4
 3403              		@ sp needed
 3404 0052 5DF804FB 		ldr	pc, [sp], #4
 3405              	.L262:
 3406 0056 00BF     		.align	2
 3407              	.L261:
 3408 0058 00000000 		.word	__stack_chk_guard
 3409              		.cfi_endproc
 3410              	.LFE269:
 3411              		.size	po8030_set_contrast, .-po8030_set_contrast
 3412              		.section	.text.po8030_set_mirror,"ax",%progbits
 3413              		.align	1
 3414              		.p2align 4,,15
 3415              		.global	po8030_set_mirror
 3416              		.syntax unified
 3417              		.thumb
 3418              		.thumb_func
 3419              		.fpu fpv4-sp-d16
ARM GAS  C:\Users\PCHAUT~1\AppData\Local\Temp\ccMxpIDf.s 			page 61


 3420              		.type	po8030_set_mirror, %function
 3421              	po8030_set_mirror:
 3422              	.LFB270:
 3423              		.loc 1 910 0
 3424              		.cfi_startproc
 3425              		@ args = 0, pretend = 0, frame = 16
 3426              		@ frame_needed = 0, uses_anonymous_args = 0
 3427 0000 00B5     		push	{lr}
 3428              		.cfi_def_cfa_offset 4
 3429              		.cfi_offset 14, -4
 3430 0002 85B0     		sub	sp, sp, #20
 3431              		.cfi_def_cfa_offset 24
 3432 0004 0346     		mov	r3, r0
 3433 0006 0A46     		mov	r2, r1
 3434 0008 8DF80730 		strb	r3, [sp, #7]
 3435 000c 1346     		mov	r3, r2
 3436 000e 8DF80630 		strb	r3, [sp, #6]
 3437              		.loc 1 910 0
 3438 0012 1E4B     		ldr	r3, .L269
 3439 0014 1B68     		ldr	r3, [r3]
 3440 0016 0393     		str	r3, [sp, #12]
 3441              		.loc 1 911 0
 3442 0018 0023     		movs	r3, #0
 3443 001a 8DF80B30 		strb	r3, [sp, #11]
 3444              		.loc 1 912 0
 3445 001e 0023     		movs	r3, #0
 3446 0020 8DF80A30 		strb	r3, [sp, #10]
 3447              		.loc 1 914 0
 3448 0024 0020     		movs	r0, #0
 3449 0026 FFF7FEFF 		bl	po8030_set_bank
 3450 002a 0346     		mov	r3, r0
 3451 002c 8DF80B30 		strb	r3, [sp, #11]
 3452 0030 9DF90B30 		ldrsb	r3, [sp, #11]
 3453 0034 002B     		cmp	r3, #0
 3454 0036 02D0     		beq	.L264
 3455              		.loc 1 915 0
 3456 0038 9DF90B30 		ldrsb	r3, [sp, #11]
 3457 003c 1BE0     		b	.L265
 3458              	.L264:
 3459              		.loc 1 918 0
 3460 003e 9DF80730 		ldrb	r3, [sp, #7]	@ zero_extendqisi2
 3461 0042 012B     		cmp	r3, #1
 3462 0044 05D1     		bne	.L266
 3463              		.loc 1 919 0
 3464 0046 9DF80A30 		ldrb	r3, [sp, #10]
 3465 004a 63F07F03 		orn	r3, r3, #127
 3466 004e 8DF80A30 		strb	r3, [sp, #10]
 3467              	.L266:
 3468              		.loc 1 921 0
 3469 0052 9DF80630 		ldrb	r3, [sp, #6]	@ zero_extendqisi2
 3470 0056 012B     		cmp	r3, #1
 3471 0058 05D1     		bne	.L267
 3472              		.loc 1 922 0
 3473 005a 9DF80A30 		ldrb	r3, [sp, #10]
 3474 005e 43F04003 		orr	r3, r3, #64
 3475 0062 8DF80A30 		strb	r3, [sp, #10]
 3476              	.L267:
ARM GAS  C:\Users\PCHAUT~1\AppData\Local\Temp\ccMxpIDf.s 			page 62


 3477              		.loc 1 925 0
 3478 0066 9DF80A30 		ldrb	r3, [sp, #10]	@ zero_extendqisi2
 3479 006a 1A46     		mov	r2, r3
 3480 006c 6C21     		movs	r1, #108
 3481 006e 6E20     		movs	r0, #110
 3482 0070 FFF7FEFF 		bl	write_reg
 3483 0074 0346     		mov	r3, r0
 3484              	.L265:
 3485              		.loc 1 926 0
 3486 0076 1846     		mov	r0, r3
 3487 0078 044B     		ldr	r3, .L269
 3488 007a 039A     		ldr	r2, [sp, #12]
 3489 007c 1B68     		ldr	r3, [r3]
 3490 007e 9A42     		cmp	r2, r3
 3491 0080 01D0     		beq	.L268
 3492 0082 FFF7FEFF 		bl	__stack_chk_fail
 3493              	.L268:
 3494 0086 05B0     		add	sp, sp, #20
 3495              		.cfi_def_cfa_offset 4
 3496              		@ sp needed
 3497 0088 5DF804FB 		ldr	pc, [sp], #4
 3498              	.L270:
 3499              		.align	2
 3500              	.L269:
 3501 008c 00000000 		.word	__stack_chk_guard
 3502              		.cfi_endproc
 3503              	.LFE270:
 3504              		.size	po8030_set_mirror, .-po8030_set_mirror
 3505              		.section	.text.po8030_set_awb,"ax",%progbits
 3506              		.align	1
 3507              		.p2align 4,,15
 3508              		.global	po8030_set_awb
 3509              		.syntax unified
 3510              		.thumb
 3511              		.thumb_func
 3512              		.fpu fpv4-sp-d16
 3513              		.type	po8030_set_awb, %function
 3514              	po8030_set_awb:
 3515              	.LFB271:
 3516              		.loc 1 931 0
 3517              		.cfi_startproc
 3518              		@ args = 0, pretend = 0, frame = 16
 3519              		@ frame_needed = 0, uses_anonymous_args = 0
 3520 0000 00B5     		push	{lr}
 3521              		.cfi_def_cfa_offset 4
 3522              		.cfi_offset 14, -4
 3523 0002 85B0     		sub	sp, sp, #20
 3524              		.cfi_def_cfa_offset 24
 3525 0004 0346     		mov	r3, r0
 3526 0006 8DF80730 		strb	r3, [sp, #7]
 3527              		.loc 1 931 0
 3528 000a 264B     		ldr	r3, .L279
 3529 000c 1B68     		ldr	r3, [r3]
 3530 000e 0393     		str	r3, [sp, #12]
 3531              		.loc 1 932 0
 3532 0010 0023     		movs	r3, #0
 3533 0012 8DF80B30 		strb	r3, [sp, #11]
ARM GAS  C:\Users\PCHAUT~1\AppData\Local\Temp\ccMxpIDf.s 			page 63


 3534              		.loc 1 933 0
 3535 0016 0023     		movs	r3, #0
 3536 0018 8DF80A30 		strb	r3, [sp, #10]
 3537              		.loc 1 935 0
 3538 001c 0220     		movs	r0, #2
 3539 001e FFF7FEFF 		bl	po8030_set_bank
 3540 0022 0346     		mov	r3, r0
 3541 0024 8DF80B30 		strb	r3, [sp, #11]
 3542 0028 9DF90B30 		ldrsb	r3, [sp, #11]
 3543 002c 002B     		cmp	r3, #0
 3544 002e 02D0     		beq	.L272
 3545              		.loc 1 936 0
 3546 0030 9DF90B30 		ldrsb	r3, [sp, #11]
 3547 0034 2BE0     		b	.L277
 3548              	.L272:
 3549              		.loc 1 939 0
 3550 0036 0DF10A03 		add	r3, sp, #10
 3551 003a 1A46     		mov	r2, r3
 3552 003c 0421     		movs	r1, #4
 3553 003e 6E20     		movs	r0, #110
 3554 0040 FFF7FEFF 		bl	read_reg
 3555 0044 0346     		mov	r3, r0
 3556 0046 8DF80B30 		strb	r3, [sp, #11]
 3557 004a 9DF90B30 		ldrsb	r3, [sp, #11]
 3558 004e 002B     		cmp	r3, #0
 3559 0050 02D0     		beq	.L274
 3560              		.loc 1 940 0
 3561 0052 9DF90B30 		ldrsb	r3, [sp, #11]
 3562 0056 1AE0     		b	.L277
 3563              	.L274:
 3564              		.loc 1 943 0
 3565 0058 9DF80730 		ldrb	r3, [sp, #7]	@ zero_extendqisi2
 3566 005c 012B     		cmp	r3, #1
 3567 005e 07D1     		bne	.L275
 3568              		.loc 1 944 0
 3569 0060 9DF80A30 		ldrb	r3, [sp, #10]	@ zero_extendqisi2
 3570 0064 23F00403 		bic	r3, r3, #4
 3571 0068 DBB2     		uxtb	r3, r3
 3572 006a 8DF80A30 		strb	r3, [sp, #10]
 3573 006e 06E0     		b	.L276
 3574              	.L275:
 3575              		.loc 1 946 0
 3576 0070 9DF80A30 		ldrb	r3, [sp, #10]	@ zero_extendqisi2
 3577 0074 43F00403 		orr	r3, r3, #4
 3578 0078 DBB2     		uxtb	r3, r3
 3579 007a 8DF80A30 		strb	r3, [sp, #10]
 3580              	.L276:
 3581              		.loc 1 949 0
 3582 007e 9DF80A30 		ldrb	r3, [sp, #10]	@ zero_extendqisi2
 3583 0082 1A46     		mov	r2, r3
 3584 0084 0421     		movs	r1, #4
 3585 0086 6E20     		movs	r0, #110
 3586 0088 FFF7FEFF 		bl	write_reg
 3587 008c 0346     		mov	r3, r0
 3588              	.L277:
 3589              		.loc 1 950 0 discriminator 1
 3590 008e 1846     		mov	r0, r3
ARM GAS  C:\Users\PCHAUT~1\AppData\Local\Temp\ccMxpIDf.s 			page 64


 3591 0090 044B     		ldr	r3, .L279
 3592 0092 039A     		ldr	r2, [sp, #12]
 3593 0094 1B68     		ldr	r3, [r3]
 3594 0096 9A42     		cmp	r2, r3
 3595 0098 01D0     		beq	.L278
 3596              		.loc 1 950 0 is_stmt 0
 3597 009a FFF7FEFF 		bl	__stack_chk_fail
 3598              	.L278:
 3599 009e 05B0     		add	sp, sp, #20
 3600              		.cfi_def_cfa_offset 4
 3601              		@ sp needed
 3602 00a0 5DF804FB 		ldr	pc, [sp], #4
 3603              	.L280:
 3604              		.align	2
 3605              	.L279:
 3606 00a4 00000000 		.word	__stack_chk_guard
 3607              		.cfi_endproc
 3608              	.LFE271:
 3609              		.size	po8030_set_awb, .-po8030_set_awb
 3610              		.section	.text.po8030_set_rgb_gain,"ax",%progbits
 3611              		.align	1
 3612              		.p2align 4,,15
 3613              		.global	po8030_set_rgb_gain
 3614              		.syntax unified
 3615              		.thumb
 3616              		.thumb_func
 3617              		.fpu fpv4-sp-d16
 3618              		.type	po8030_set_rgb_gain, %function
 3619              	po8030_set_rgb_gain:
 3620              	.LFB272:
 3621              		.loc 1 958 0 is_stmt 1
 3622              		.cfi_startproc
 3623              		@ args = 0, pretend = 0, frame = 16
 3624              		@ frame_needed = 0, uses_anonymous_args = 0
 3625 0000 00B5     		push	{lr}
 3626              		.cfi_def_cfa_offset 4
 3627              		.cfi_offset 14, -4
 3628 0002 85B0     		sub	sp, sp, #20
 3629              		.cfi_def_cfa_offset 24
 3630 0004 0346     		mov	r3, r0
 3631 0006 8DF80730 		strb	r3, [sp, #7]
 3632 000a 0B46     		mov	r3, r1
 3633 000c 8DF80630 		strb	r3, [sp, #6]
 3634 0010 1346     		mov	r3, r2
 3635 0012 8DF80530 		strb	r3, [sp, #5]
 3636              		.loc 1 958 0
 3637 0016 2F4B     		ldr	r3, .L289
 3638 0018 1B68     		ldr	r3, [r3]
 3639 001a 0393     		str	r3, [sp, #12]
 3640              		.loc 1 959 0
 3641 001c 0023     		movs	r3, #0
 3642 001e 8DF80B30 		strb	r3, [sp, #11]
 3643              		.loc 1 961 0
 3644 0022 0020     		movs	r0, #0
 3645 0024 FFF7FEFF 		bl	po8030_set_awb
 3646 0028 0346     		mov	r3, r0
 3647 002a 8DF80B30 		strb	r3, [sp, #11]
ARM GAS  C:\Users\PCHAUT~1\AppData\Local\Temp\ccMxpIDf.s 			page 65


 3648 002e 9DF90B30 		ldrsb	r3, [sp, #11]
 3649 0032 002B     		cmp	r3, #0
 3650 0034 02D0     		beq	.L282
 3651              		.loc 1 962 0
 3652 0036 9DF90B30 		ldrsb	r3, [sp, #11]
 3653 003a 40E0     		b	.L283
 3654              	.L282:
 3655              		.loc 1 965 0
 3656 003c 0020     		movs	r0, #0
 3657 003e FFF7FEFF 		bl	po8030_set_bank
 3658 0042 0346     		mov	r3, r0
 3659 0044 8DF80B30 		strb	r3, [sp, #11]
 3660 0048 9DF90B30 		ldrsb	r3, [sp, #11]
 3661 004c 002B     		cmp	r3, #0
 3662 004e 02D0     		beq	.L284
 3663              		.loc 1 966 0
 3664 0050 9DF90B30 		ldrsb	r3, [sp, #11]
 3665 0054 33E0     		b	.L283
 3666              	.L284:
 3667              		.loc 1 969 0
 3668 0056 9DF80730 		ldrb	r3, [sp, #7]	@ zero_extendqisi2
 3669 005a 1A46     		mov	r2, r3
 3670 005c 2321     		movs	r1, #35
 3671 005e 6E20     		movs	r0, #110
 3672 0060 FFF7FEFF 		bl	write_reg
 3673 0064 0346     		mov	r3, r0
 3674 0066 8DF80B30 		strb	r3, [sp, #11]
 3675 006a 9DF90B30 		ldrsb	r3, [sp, #11]
 3676 006e 002B     		cmp	r3, #0
 3677 0070 02D0     		beq	.L285
 3678              		.loc 1 970 0
 3679 0072 9DF90B30 		ldrsb	r3, [sp, #11]
 3680 0076 22E0     		b	.L283
 3681              	.L285:
 3682              		.loc 1 972 0
 3683 0078 9DF80630 		ldrb	r3, [sp, #6]	@ zero_extendqisi2
 3684 007c 1A46     		mov	r2, r3
 3685 007e 2421     		movs	r1, #36
 3686 0080 6E20     		movs	r0, #110
 3687 0082 FFF7FEFF 		bl	write_reg
 3688 0086 0346     		mov	r3, r0
 3689 0088 8DF80B30 		strb	r3, [sp, #11]
 3690 008c 9DF90B30 		ldrsb	r3, [sp, #11]
 3691 0090 002B     		cmp	r3, #0
 3692 0092 02D0     		beq	.L286
 3693              		.loc 1 973 0
 3694 0094 9DF90B30 		ldrsb	r3, [sp, #11]
 3695 0098 11E0     		b	.L283
 3696              	.L286:
 3697              		.loc 1 975 0
 3698 009a 9DF80530 		ldrb	r3, [sp, #5]	@ zero_extendqisi2
 3699 009e 1A46     		mov	r2, r3
 3700 00a0 2521     		movs	r1, #37
 3701 00a2 6E20     		movs	r0, #110
 3702 00a4 FFF7FEFF 		bl	write_reg
 3703 00a8 0346     		mov	r3, r0
 3704 00aa 8DF80B30 		strb	r3, [sp, #11]
ARM GAS  C:\Users\PCHAUT~1\AppData\Local\Temp\ccMxpIDf.s 			page 66


 3705 00ae 9DF90B30 		ldrsb	r3, [sp, #11]
 3706 00b2 002B     		cmp	r3, #0
 3707 00b4 02D0     		beq	.L287
 3708              		.loc 1 976 0
 3709 00b6 9DF90B30 		ldrsb	r3, [sp, #11]
 3710 00ba 00E0     		b	.L283
 3711              	.L287:
 3712              		.loc 1 979 0
 3713 00bc 0023     		movs	r3, #0
 3714              	.L283:
 3715              		.loc 1 980 0
 3716 00be 1846     		mov	r0, r3
 3717 00c0 044B     		ldr	r3, .L289
 3718 00c2 039A     		ldr	r2, [sp, #12]
 3719 00c4 1B68     		ldr	r3, [r3]
 3720 00c6 9A42     		cmp	r2, r3
 3721 00c8 01D0     		beq	.L288
 3722 00ca FFF7FEFF 		bl	__stack_chk_fail
 3723              	.L288:
 3724 00ce 05B0     		add	sp, sp, #20
 3725              		.cfi_def_cfa_offset 4
 3726              		@ sp needed
 3727 00d0 5DF804FB 		ldr	pc, [sp], #4
 3728              	.L290:
 3729              		.align	2
 3730              	.L289:
 3731 00d4 00000000 		.word	__stack_chk_guard
 3732              		.cfi_endproc
 3733              	.LFE272:
 3734              		.size	po8030_set_rgb_gain, .-po8030_set_rgb_gain
 3735              		.section	.text.po8030_set_ae,"ax",%progbits
 3736              		.align	1
 3737              		.p2align 4,,15
 3738              		.global	po8030_set_ae
 3739              		.syntax unified
 3740              		.thumb
 3741              		.thumb_func
 3742              		.fpu fpv4-sp-d16
 3743              		.type	po8030_set_ae, %function
 3744              	po8030_set_ae:
 3745              	.LFB273:
 3746              		.loc 1 985 0
 3747              		.cfi_startproc
 3748              		@ args = 0, pretend = 0, frame = 16
 3749              		@ frame_needed = 0, uses_anonymous_args = 0
 3750 0000 00B5     		push	{lr}
 3751              		.cfi_def_cfa_offset 4
 3752              		.cfi_offset 14, -4
 3753 0002 85B0     		sub	sp, sp, #20
 3754              		.cfi_def_cfa_offset 24
 3755 0004 0346     		mov	r3, r0
 3756 0006 8DF80730 		strb	r3, [sp, #7]
 3757              		.loc 1 985 0
 3758 000a 264B     		ldr	r3, .L299
 3759 000c 1B68     		ldr	r3, [r3]
 3760 000e 0393     		str	r3, [sp, #12]
 3761              		.loc 1 986 0
ARM GAS  C:\Users\PCHAUT~1\AppData\Local\Temp\ccMxpIDf.s 			page 67


 3762 0010 0023     		movs	r3, #0
 3763 0012 8DF80B30 		strb	r3, [sp, #11]
 3764              		.loc 1 987 0
 3765 0016 0023     		movs	r3, #0
 3766 0018 8DF80A30 		strb	r3, [sp, #10]
 3767              		.loc 1 989 0
 3768 001c 0220     		movs	r0, #2
 3769 001e FFF7FEFF 		bl	po8030_set_bank
 3770 0022 0346     		mov	r3, r0
 3771 0024 8DF80B30 		strb	r3, [sp, #11]
 3772 0028 9DF90B30 		ldrsb	r3, [sp, #11]
 3773 002c 002B     		cmp	r3, #0
 3774 002e 02D0     		beq	.L292
 3775              		.loc 1 990 0
 3776 0030 9DF90B30 		ldrsb	r3, [sp, #11]
 3777 0034 2BE0     		b	.L297
 3778              	.L292:
 3779              		.loc 1 993 0
 3780 0036 0DF10A03 		add	r3, sp, #10
 3781 003a 1A46     		mov	r2, r3
 3782 003c 0421     		movs	r1, #4
 3783 003e 6E20     		movs	r0, #110
 3784 0040 FFF7FEFF 		bl	read_reg
 3785 0044 0346     		mov	r3, r0
 3786 0046 8DF80B30 		strb	r3, [sp, #11]
 3787 004a 9DF90B30 		ldrsb	r3, [sp, #11]
 3788 004e 002B     		cmp	r3, #0
 3789 0050 02D0     		beq	.L294
 3790              		.loc 1 994 0
 3791 0052 9DF90B30 		ldrsb	r3, [sp, #11]
 3792 0056 1AE0     		b	.L297
 3793              	.L294:
 3794              		.loc 1 997 0
 3795 0058 9DF80730 		ldrb	r3, [sp, #7]	@ zero_extendqisi2
 3796 005c 012B     		cmp	r3, #1
 3797 005e 07D1     		bne	.L295
 3798              		.loc 1 998 0
 3799 0060 9DF80A30 		ldrb	r3, [sp, #10]	@ zero_extendqisi2
 3800 0064 23F00303 		bic	r3, r3, #3
 3801 0068 DBB2     		uxtb	r3, r3
 3802 006a 8DF80A30 		strb	r3, [sp, #10]
 3803 006e 06E0     		b	.L296
 3804              	.L295:
 3805              		.loc 1 1000 0
 3806 0070 9DF80A30 		ldrb	r3, [sp, #10]	@ zero_extendqisi2
 3807 0074 43F00303 		orr	r3, r3, #3
 3808 0078 DBB2     		uxtb	r3, r3
 3809 007a 8DF80A30 		strb	r3, [sp, #10]
 3810              	.L296:
 3811              		.loc 1 1003 0
 3812 007e 9DF80A30 		ldrb	r3, [sp, #10]	@ zero_extendqisi2
 3813 0082 1A46     		mov	r2, r3
 3814 0084 0421     		movs	r1, #4
 3815 0086 6E20     		movs	r0, #110
 3816 0088 FFF7FEFF 		bl	write_reg
 3817 008c 0346     		mov	r3, r0
 3818              	.L297:
ARM GAS  C:\Users\PCHAUT~1\AppData\Local\Temp\ccMxpIDf.s 			page 68


 3819              		.loc 1 1004 0 discriminator 1
 3820 008e 1846     		mov	r0, r3
 3821 0090 044B     		ldr	r3, .L299
 3822 0092 039A     		ldr	r2, [sp, #12]
 3823 0094 1B68     		ldr	r3, [r3]
 3824 0096 9A42     		cmp	r2, r3
 3825 0098 01D0     		beq	.L298
 3826              		.loc 1 1004 0 is_stmt 0
 3827 009a FFF7FEFF 		bl	__stack_chk_fail
 3828              	.L298:
 3829 009e 05B0     		add	sp, sp, #20
 3830              		.cfi_def_cfa_offset 4
 3831              		@ sp needed
 3832 00a0 5DF804FB 		ldr	pc, [sp], #4
 3833              	.L300:
 3834              		.align	2
 3835              	.L299:
 3836 00a4 00000000 		.word	__stack_chk_guard
 3837              		.cfi_endproc
 3838              	.LFE273:
 3839              		.size	po8030_set_ae, .-po8030_set_ae
 3840              		.section	.text.po8030_set_exposure,"ax",%progbits
 3841              		.align	1
 3842              		.p2align 4,,15
 3843              		.global	po8030_set_exposure
 3844              		.syntax unified
 3845              		.thumb
 3846              		.thumb_func
 3847              		.fpu fpv4-sp-d16
 3848              		.type	po8030_set_exposure, %function
 3849              	po8030_set_exposure:
 3850              	.LFB274:
 3851              		.loc 1 1011 0 is_stmt 1
 3852              		.cfi_startproc
 3853              		@ args = 0, pretend = 0, frame = 16
 3854              		@ frame_needed = 0, uses_anonymous_args = 0
 3855 0000 00B5     		push	{lr}
 3856              		.cfi_def_cfa_offset 4
 3857              		.cfi_offset 14, -4
 3858 0002 85B0     		sub	sp, sp, #20
 3859              		.cfi_def_cfa_offset 24
 3860 0004 0346     		mov	r3, r0
 3861 0006 0A46     		mov	r2, r1
 3862 0008 ADF80630 		strh	r3, [sp, #6]	@ movhi
 3863 000c 1346     		mov	r3, r2
 3864 000e 8DF80530 		strb	r3, [sp, #5]
 3865              		.loc 1 1011 0
 3866 0012 314B     		ldr	r3, .L309
 3867 0014 1B68     		ldr	r3, [r3]
 3868 0016 0393     		str	r3, [sp, #12]
 3869              		.loc 1 1012 0
 3870 0018 0023     		movs	r3, #0
 3871 001a 8DF80B30 		strb	r3, [sp, #11]
 3872              		.loc 1 1014 0
 3873 001e 0020     		movs	r0, #0
 3874 0020 FFF7FEFF 		bl	po8030_set_ae
 3875 0024 0346     		mov	r3, r0
ARM GAS  C:\Users\PCHAUT~1\AppData\Local\Temp\ccMxpIDf.s 			page 69


 3876 0026 8DF80B30 		strb	r3, [sp, #11]
 3877 002a 9DF90B30 		ldrsb	r3, [sp, #11]
 3878 002e 002B     		cmp	r3, #0
 3879 0030 02D0     		beq	.L302
 3880              		.loc 1 1015 0
 3881 0032 9DF90B30 		ldrsb	r3, [sp, #11]
 3882 0036 44E0     		b	.L303
 3883              	.L302:
 3884              		.loc 1 1018 0
 3885 0038 0020     		movs	r0, #0
 3886 003a FFF7FEFF 		bl	po8030_set_bank
 3887 003e 0346     		mov	r3, r0
 3888 0040 8DF80B30 		strb	r3, [sp, #11]
 3889 0044 9DF90B30 		ldrsb	r3, [sp, #11]
 3890 0048 002B     		cmp	r3, #0
 3891 004a 02D0     		beq	.L304
 3892              		.loc 1 1019 0
 3893 004c 9DF90B30 		ldrsb	r3, [sp, #11]
 3894 0050 37E0     		b	.L303
 3895              	.L304:
 3896              		.loc 1 1022 0
 3897 0052 BDF80630 		ldrh	r3, [sp, #6]
 3898 0056 1B0A     		lsrs	r3, r3, #8
 3899 0058 9BB2     		uxth	r3, r3
 3900 005a DBB2     		uxtb	r3, r3
 3901 005c 1A46     		mov	r2, r3
 3902 005e 1721     		movs	r1, #23
 3903 0060 6E20     		movs	r0, #110
 3904 0062 FFF7FEFF 		bl	write_reg
 3905 0066 0346     		mov	r3, r0
 3906 0068 8DF80B30 		strb	r3, [sp, #11]
 3907 006c 9DF90B30 		ldrsb	r3, [sp, #11]
 3908 0070 002B     		cmp	r3, #0
 3909 0072 02D0     		beq	.L305
 3910              		.loc 1 1023 0
 3911 0074 9DF90B30 		ldrsb	r3, [sp, #11]
 3912 0078 23E0     		b	.L303
 3913              	.L305:
 3914              		.loc 1 1025 0
 3915 007a BDF80630 		ldrh	r3, [sp, #6]	@ movhi
 3916 007e DBB2     		uxtb	r3, r3
 3917 0080 1A46     		mov	r2, r3
 3918 0082 1821     		movs	r1, #24
 3919 0084 6E20     		movs	r0, #110
 3920 0086 FFF7FEFF 		bl	write_reg
 3921 008a 0346     		mov	r3, r0
 3922 008c 8DF80B30 		strb	r3, [sp, #11]
 3923 0090 9DF90B30 		ldrsb	r3, [sp, #11]
 3924 0094 002B     		cmp	r3, #0
 3925 0096 02D0     		beq	.L306
 3926              		.loc 1 1026 0
 3927 0098 9DF90B30 		ldrsb	r3, [sp, #11]
 3928 009c 11E0     		b	.L303
 3929              	.L306:
 3930              		.loc 1 1028 0
 3931 009e 9DF80530 		ldrb	r3, [sp, #5]	@ zero_extendqisi2
 3932 00a2 1A46     		mov	r2, r3
ARM GAS  C:\Users\PCHAUT~1\AppData\Local\Temp\ccMxpIDf.s 			page 70


 3933 00a4 1921     		movs	r1, #25
 3934 00a6 6E20     		movs	r0, #110
 3935 00a8 FFF7FEFF 		bl	write_reg
 3936 00ac 0346     		mov	r3, r0
 3937 00ae 8DF80B30 		strb	r3, [sp, #11]
 3938 00b2 9DF90B30 		ldrsb	r3, [sp, #11]
 3939 00b6 002B     		cmp	r3, #0
 3940 00b8 02D0     		beq	.L307
 3941              		.loc 1 1029 0
 3942 00ba 9DF90B30 		ldrsb	r3, [sp, #11]
 3943 00be 00E0     		b	.L303
 3944              	.L307:
 3945              		.loc 1 1032 0
 3946 00c0 0023     		movs	r3, #0
 3947              	.L303:
 3948              		.loc 1 1033 0
 3949 00c2 1846     		mov	r0, r3
 3950 00c4 044B     		ldr	r3, .L309
 3951 00c6 039A     		ldr	r2, [sp, #12]
 3952 00c8 1B68     		ldr	r3, [r3]
 3953 00ca 9A42     		cmp	r2, r3
 3954 00cc 01D0     		beq	.L308
 3955 00ce FFF7FEFF 		bl	__stack_chk_fail
 3956              	.L308:
 3957 00d2 05B0     		add	sp, sp, #20
 3958              		.cfi_def_cfa_offset 4
 3959              		@ sp needed
 3960 00d4 5DF804FB 		ldr	pc, [sp], #4
 3961              	.L310:
 3962              		.align	2
 3963              	.L309:
 3964 00d8 00000000 		.word	__stack_chk_guard
 3965              		.cfi_endproc
 3966              	.LFE274:
 3967              		.size	po8030_set_exposure, .-po8030_set_exposure
 3968              		.section	.text.po8030_get_image_size,"ax",%progbits
 3969              		.align	1
 3970              		.p2align 4,,15
 3971              		.global	po8030_get_image_size
 3972              		.syntax unified
 3973              		.thumb
 3974              		.thumb_func
 3975              		.fpu fpv4-sp-d16
 3976              		.type	po8030_get_image_size, %function
 3977              	po8030_get_image_size:
 3978              	.LFB275:
 3979              		.loc 1 1037 0
 3980              		.cfi_startproc
 3981              		@ args = 0, pretend = 0, frame = 8
 3982              		@ frame_needed = 0, uses_anonymous_args = 0
 3983 0000 00B5     		push	{lr}
 3984              		.cfi_def_cfa_offset 4
 3985              		.cfi_offset 14, -4
 3986 0002 83B0     		sub	sp, sp, #12
 3987              		.cfi_def_cfa_offset 16
 3988              		.loc 1 1037 0
 3989 0004 104B     		ldr	r3, .L315
ARM GAS  C:\Users\PCHAUT~1\AppData\Local\Temp\ccMxpIDf.s 			page 71


 3990 0006 1B68     		ldr	r3, [r3]
 3991 0008 0193     		str	r3, [sp, #4]
 3992              		.loc 1 1038 0
 3993 000a 104B     		ldr	r3, .L315+4
 3994 000c 1B79     		ldrb	r3, [r3, #4]	@ zero_extendqisi2
 3995 000e 442B     		cmp	r3, #68
 3996 0010 07D1     		bne	.L312
 3997              		.loc 1 1039 0
 3998 0012 0E4B     		ldr	r3, .L315+4
 3999 0014 1B88     		ldrh	r3, [r3]
 4000 0016 1A46     		mov	r2, r3
 4001 0018 0C4B     		ldr	r3, .L315+4
 4002 001a 5B88     		ldrh	r3, [r3, #2]
 4003 001c 03FB02F3 		mul	r3, r3, r2
 4004 0020 07E0     		b	.L313
 4005              	.L312:
 4006              		.loc 1 1041 0
 4007 0022 0A4B     		ldr	r3, .L315+4
 4008 0024 1B88     		ldrh	r3, [r3]
 4009 0026 1A46     		mov	r2, r3
 4010 0028 084B     		ldr	r3, .L315+4
 4011 002a 5B88     		ldrh	r3, [r3, #2]
 4012 002c 03FB02F3 		mul	r3, r3, r2
 4013 0030 5B00     		lsls	r3, r3, #1
 4014              	.L313:
 4015              		.loc 1 1043 0
 4016 0032 1846     		mov	r0, r3
 4017 0034 044B     		ldr	r3, .L315
 4018 0036 019A     		ldr	r2, [sp, #4]
 4019 0038 1B68     		ldr	r3, [r3]
 4020 003a 9A42     		cmp	r2, r3
 4021 003c 01D0     		beq	.L314
 4022 003e FFF7FEFF 		bl	__stack_chk_fail
 4023              	.L314:
 4024 0042 03B0     		add	sp, sp, #12
 4025              		.cfi_def_cfa_offset 4
 4026              		@ sp needed
 4027 0044 5DF804FB 		ldr	pc, [sp], #4
 4028              	.L316:
 4029              		.align	2
 4030              	.L315:
 4031 0048 00000000 		.word	__stack_chk_guard
 4032 004c 00000000 		.word	po8030_conf
 4033              		.cfi_endproc
 4034              	.LFE275:
 4035              		.size	po8030_get_image_size, .-po8030_get_image_size
 4036              		.section	.rodata.pwmcfg_cam.9992,"a",%progbits
 4037              		.align	2
 4038              		.type	pwmcfg_cam.9992, %object
 4039              		.size	pwmcfg_cam.9992, 52
 4040              	pwmcfg_cam.9992:
 4041 0000 80DE8002 		.word	42000000
 4042 0004 02000000 		.word	2
 4043 0008 00000000 		.word	0
 4044 000c 01000000 		.word	1
 4045 0010 00000000 		.word	0
 4046 0014 00000000 		.word	0
ARM GAS  C:\Users\PCHAUT~1\AppData\Local\Temp\ccMxpIDf.s 			page 72


 4047 0018 00000000 		.word	0
 4048 001c 00000000 		.word	0
 4049 0020 00000000 		.word	0
 4050 0024 00000000 		.word	0
 4051 0028 00000000 		.word	0
 4052 002c 00000000 		.word	0
 4053 0030 00000000 		.space	4
 4054              		.text
 4055              	.Letext0:
 4056              		.file 2 "c:\\users\\pchautems\\documents\\robotiquetp\\eclipse_e-puck2\\tools\\gcc-arm-none-eabi-7
 4057              		.file 3 "c:\\users\\pchautems\\documents\\robotiquetp\\eclipse_e-puck2\\tools\\gcc-arm-none-eabi-7
 4058              		.file 4 "c:\\users\\pchautems\\documents\\robotiquetp\\eclipse_e-puck2\\tools\\gcc-arm-none-eabi-7
 4059              		.file 5 "../lib/e-puck2_main-processor/ChibiOS//os/rt/ports/ARMCMx/compilers/GCC/chtypes.h"
 4060              		.file 6 "../lib/e-puck2_main-processor/ChibiOS//os/rt/include/chsystypes.h"
 4061              		.file 7 "../lib/e-puck2_main-processor/ChibiOS//os/rt/include/chschd.h"
 4062              		.file 8 "../lib/e-puck2_main-processor/ChibiOS//os/ext/CMSIS/include/core_cm4.h"
 4063              		.file 9 "../lib/e-puck2_main-processor/ChibiOS//os/ext/CMSIS/ST/system_stm32f4xx.h"
 4064              		.file 10 "../lib/e-puck2_main-processor/ChibiOS//os/ext/CMSIS/ST/stm32f407xx.h"
 4065              		.file 11 "../lib/e-puck2_main-processor/ChibiOS//os/rt/ports/ARMCMx/chcore.h"
 4066              		.file 12 "../lib/e-puck2_main-processor/ChibiOS//os/rt/ports/ARMCMx/chcore_v7m.h"
 4067              		.file 13 "../lib/e-puck2_main-processor/ChibiOS//os/rt/include/chdebug.h"
 4068              		.file 14 "../lib/e-puck2_main-processor/ChibiOS//os/rt/include/chtm.h"
 4069              		.file 15 "../lib/e-puck2_main-processor/ChibiOS//os/rt/include/chstats.h"
 4070              		.file 16 "../lib/e-puck2_main-processor/ChibiOS//os/rt/include/chsem.h"
 4071              		.file 17 "../lib/e-puck2_main-processor/ChibiOS//os/rt/include/chmtx.h"
 4072              		.file 18 "../lib/e-puck2_main-processor/ChibiOS//os/rt/include/chregistry.h"
 4073              		.file 19 "../lib/e-puck2_main-processor/ChibiOS//os/rt/include/chevents.h"
 4074              		.file 20 "../lib/e-puck2_main-processor/ChibiOS//os/rt/include/chqueues.h"
 4075              		.file 21 "../lib/e-puck2_main-processor/ChibiOS//os/hal/ports/STM32/STM32F4xx/stm32_dma.h"
 4076              		.file 22 "../lib/e-puck2_main-processor/ChibiOS//os/hal/include/hal_ioblock.h"
 4077              		.file 23 "../lib/e-puck2_main-processor/ChibiOS//os/hal/ports/STM32/LLD/GPIOv2/pal_lld.h"
 4078              		.file 24 "../lib/e-puck2_main-processor/ChibiOS//os/hal/include/adc.h"
 4079              		.file 25 "../lib/e-puck2_main-processor/ChibiOS//os/hal/ports/STM32/STM32F4xx/adc_lld.h"
 4080              		.file 26 "../lib/e-puck2_main-processor/ChibiOS//os/hal/include/can.h"
 4081              		.file 27 "../lib/e-puck2_main-processor/ChibiOS//os/hal/ports/STM32/LLD/can_lld.h"
 4082              		.file 28 "../lib/e-puck2_main-processor/ChibiOS//os/hal/include/dac.h"
 4083              		.file 29 "../lib/e-puck2_main-processor/ChibiOS//os/hal/ports/STM32/LLD/DACv1/dac_lld.h"
 4084              		.file 30 "../lib/e-puck2_main-processor/ChibiOS//os/hal/include/ext.h"
 4085              		.file 31 "../lib/e-puck2_main-processor/ChibiOS//os/hal/ports/STM32/LLD/ext_lld.h"
 4086              		.file 32 "../lib/e-puck2_main-processor/ChibiOS//os/hal/include/gpt.h"
 4087              		.file 33 "../lib/e-puck2_main-processor/ChibiOS//os/hal/ports/STM32/LLD/TIMv1/gpt_lld.h"
 4088              		.file 34 "../lib/e-puck2_main-processor/ChibiOS//os/hal/ports/STM32/LLD/TIMv1/stm32_tim.h"
 4089              		.file 35 "../lib/e-puck2_main-processor/ChibiOS//os/hal/include/i2c.h"
 4090              		.file 36 "../lib/e-puck2_main-processor/ChibiOS//os/hal/ports/STM32/LLD/I2Cv1/i2c_lld.h"
 4091              		.file 37 "../lib/e-puck2_main-processor/ChibiOS//os/hal/include/i2s.h"
 4092              		.file 38 "../lib/e-puck2_main-processor/ChibiOS//os/hal/ports/STM32/LLD/SPIv1/i2s_lld.h"
 4093              		.file 39 "../lib/e-puck2_main-processor/ChibiOS//os/hal/include/pwm.h"
 4094              		.file 40 "../lib/e-puck2_main-processor/ChibiOS//os/hal/ports/STM32/LLD/TIMv1/pwm_lld.h"
 4095              		.file 41 "../lib/e-puck2_main-processor/ChibiOS//os/hal/include/serial.h"
 4096              		.file 42 "../lib/e-puck2_main-processor/ChibiOS//os/hal/ports/STM32/LLD/USARTv1/serial_lld.h"
 4097              		.file 43 "../lib/e-puck2_main-processor/ChibiOS//os/hal/include/sdc.h"
 4098              		.file 44 "../lib/e-puck2_main-processor/ChibiOS//os/hal/ports/STM32/LLD/sdc_lld.h"
 4099              		.file 45 "../lib/e-puck2_main-processor/ChibiOS//os/hal/include/spi.h"
 4100              		.file 46 "../lib/e-puck2_main-processor/ChibiOS//os/hal/ports/STM32/LLD/SPIv1/spi_lld.h"
 4101              		.file 47 "../lib/e-puck2_main-processor/ChibiOS//os/hal/include/usb.h"
 4102              		.file 48 "../lib/e-puck2_main-processor/ChibiOS//os/hal/ports/STM32/LLD/OTGv1/usb_lld.h"
 4103              		.file 49 "../lib/e-puck2_main-processor/ChibiOS//os/hal/ports/STM32/LLD/OTGv1/stm32_otg.h"
ARM GAS  C:\Users\PCHAUT~1\AppData\Local\Temp\ccMxpIDf.s 			page 73


 4104              		.file 50 "../lib/e-puck2_main-processor/ChibiOS//os/hal/include/serial_usb.h"
 4105              		.file 51 "../lib/e-puck2_main-processor/src/camera/po8030.h"
 4106              		.file 52 "../lib/e-puck2_main-processor/src/usbcfg.h"
 4107              		.section	.debug_info,"",%progbits
 4108              	.Ldebug_info0:
 4109 0000 EC3C0000 		.4byte	0x3cec
 4110 0004 0400     		.2byte	0x4
 4111 0006 00000000 		.4byte	.Ldebug_abbrev0
 4112 000a 04       		.byte	0x4
 4113 000b 01       		.uleb128 0x1
 4114 000c A0070000 		.4byte	.LASF792
 4115 0010 0C       		.byte	0xc
 4116 0011 DE110000 		.4byte	.LASF793
 4117 0015 6F000000 		.4byte	.LASF794
 4118 0019 00000000 		.4byte	.Ldebug_ranges0+0
 4119 001d 00000000 		.4byte	0
 4120 0021 00000000 		.4byte	.Ldebug_line0
 4121 0025 02       		.uleb128 0x2
 4122 0026 04       		.byte	0x4
 4123 0027 05       		.byte	0x5
 4124 0028 696E7400 		.ascii	"int\000"
 4125 002c 03       		.uleb128 0x3
 4126 002d AC0C0000 		.4byte	.LASF3
 4127 0031 02       		.byte	0x2
 4128 0032 D8       		.byte	0xd8
 4129 0033 37000000 		.4byte	0x37
 4130 0037 04       		.uleb128 0x4
 4131 0038 04       		.byte	0x4
 4132 0039 07       		.byte	0x7
 4133 003a 2F200000 		.4byte	.LASF0
 4134 003e 04       		.uleb128 0x4
 4135 003f 08       		.byte	0x8
 4136 0040 05       		.byte	0x5
 4137 0041 131E0000 		.4byte	.LASF1
 4138 0045 04       		.uleb128 0x4
 4139 0046 08       		.byte	0x8
 4140 0047 04       		.byte	0x4
 4141 0048 F2150000 		.4byte	.LASF2
 4142 004c 03       		.uleb128 0x3
 4143 004d CA1F0000 		.4byte	.LASF4
 4144 0051 03       		.byte	0x3
 4145 0052 29       		.byte	0x29
 4146 0053 57000000 		.4byte	0x57
 4147 0057 04       		.uleb128 0x4
 4148 0058 01       		.byte	0x1
 4149 0059 06       		.byte	0x6
 4150 005a B5120000 		.4byte	.LASF5
 4151 005e 03       		.uleb128 0x3
 4152 005f EE000000 		.4byte	.LASF6
 4153 0063 03       		.byte	0x3
 4154 0064 2B       		.byte	0x2b
 4155 0065 69000000 		.4byte	0x69
 4156 0069 04       		.uleb128 0x4
 4157 006a 01       		.byte	0x1
 4158 006b 08       		.byte	0x8
 4159 006c 49090000 		.4byte	.LASF7
 4160 0070 03       		.uleb128 0x3
ARM GAS  C:\Users\PCHAUT~1\AppData\Local\Temp\ccMxpIDf.s 			page 74


 4161 0071 8D060000 		.4byte	.LASF8
 4162 0075 03       		.byte	0x3
 4163 0076 37       		.byte	0x37
 4164 0077 7B000000 		.4byte	0x7b
 4165 007b 04       		.uleb128 0x4
 4166 007c 02       		.byte	0x2
 4167 007d 05       		.byte	0x5
 4168 007e 90200000 		.4byte	.LASF9
 4169 0082 03       		.uleb128 0x3
 4170 0083 97060000 		.4byte	.LASF10
 4171 0087 03       		.byte	0x3
 4172 0088 39       		.byte	0x39
 4173 0089 8D000000 		.4byte	0x8d
 4174 008d 04       		.uleb128 0x4
 4175 008e 02       		.byte	0x2
 4176 008f 07       		.byte	0x7
 4177 0090 9A120000 		.4byte	.LASF11
 4178 0094 03       		.uleb128 0x3
 4179 0095 E9190000 		.4byte	.LASF12
 4180 0099 03       		.byte	0x3
 4181 009a 4D       		.byte	0x4d
 4182 009b 9F000000 		.4byte	0x9f
 4183 009f 04       		.uleb128 0x4
 4184 00a0 04       		.byte	0x4
 4185 00a1 05       		.byte	0x5
 4186 00a2 E0140000 		.4byte	.LASF13
 4187 00a6 03       		.uleb128 0x3
 4188 00a7 F3190000 		.4byte	.LASF14
 4189 00ab 03       		.byte	0x3
 4190 00ac 4F       		.byte	0x4f
 4191 00ad B1000000 		.4byte	0xb1
 4192 00b1 04       		.uleb128 0x4
 4193 00b2 04       		.byte	0x4
 4194 00b3 07       		.byte	0x7
 4195 00b4 37160000 		.4byte	.LASF15
 4196 00b8 03       		.uleb128 0x3
 4197 00b9 490F0000 		.4byte	.LASF16
 4198 00bd 03       		.byte	0x3
 4199 00be 69       		.byte	0x69
 4200 00bf C3000000 		.4byte	0xc3
 4201 00c3 04       		.uleb128 0x4
 4202 00c4 08       		.byte	0x8
 4203 00c5 07       		.byte	0x7
 4204 00c6 E71B0000 		.4byte	.LASF17
 4205 00ca 03       		.uleb128 0x3
 4206 00cb 67110000 		.4byte	.LASF18
 4207 00cf 04       		.byte	0x4
 4208 00d0 14       		.byte	0x14
 4209 00d1 4C000000 		.4byte	0x4c
 4210 00d5 03       		.uleb128 0x3
 4211 00d6 C90C0000 		.4byte	.LASF19
 4212 00da 04       		.byte	0x4
 4213 00db 18       		.byte	0x18
 4214 00dc 5E000000 		.4byte	0x5e
 4215 00e0 05       		.uleb128 0x5
 4216 00e1 D5000000 		.4byte	0xd5
 4217 00e5 03       		.uleb128 0x3
ARM GAS  C:\Users\PCHAUT~1\AppData\Local\Temp\ccMxpIDf.s 			page 75


 4218 00e6 7D120000 		.4byte	.LASF20
 4219 00ea 04       		.byte	0x4
 4220 00eb 20       		.byte	0x20
 4221 00ec 70000000 		.4byte	0x70
 4222 00f0 03       		.uleb128 0x3
 4223 00f1 B4010000 		.4byte	.LASF21
 4224 00f5 04       		.byte	0x4
 4225 00f6 24       		.byte	0x24
 4226 00f7 82000000 		.4byte	0x82
 4227 00fb 03       		.uleb128 0x3
 4228 00fc 32030000 		.4byte	.LASF22
 4229 0100 04       		.byte	0x4
 4230 0101 2C       		.byte	0x2c
 4231 0102 94000000 		.4byte	0x94
 4232 0106 06       		.uleb128 0x6
 4233 0107 FB000000 		.4byte	0xfb
 4234 010b 03       		.uleb128 0x3
 4235 010c CD150000 		.4byte	.LASF23
 4236 0110 04       		.byte	0x4
 4237 0111 30       		.byte	0x30
 4238 0112 A6000000 		.4byte	0xa6
 4239 0116 06       		.uleb128 0x6
 4240 0117 0B010000 		.4byte	0x10b
 4241 011b 05       		.uleb128 0x5
 4242 011c 16010000 		.4byte	0x116
 4243 0120 03       		.uleb128 0x3
 4244 0121 700A0000 		.4byte	.LASF24
 4245 0125 04       		.byte	0x4
 4246 0126 3C       		.byte	0x3c
 4247 0127 B8000000 		.4byte	0xb8
 4248 012b 03       		.uleb128 0x3
 4249 012c 2A0C0000 		.4byte	.LASF25
 4250 0130 05       		.byte	0x5
 4251 0131 45       		.byte	0x45
 4252 0132 0B010000 		.4byte	0x10b
 4253 0136 03       		.uleb128 0x3
 4254 0137 05050000 		.4byte	.LASF26
 4255 013b 05       		.byte	0x5
 4256 013c 46       		.byte	0x46
 4257 013d 20010000 		.4byte	0x120
 4258 0141 03       		.uleb128 0x3
 4259 0142 A6100000 		.4byte	.LASF27
 4260 0146 05       		.byte	0x5
 4261 0147 48       		.byte	0x48
 4262 0148 D5000000 		.4byte	0xd5
 4263 014c 03       		.uleb128 0x3
 4264 014d E81C0000 		.4byte	.LASF28
 4265 0151 05       		.byte	0x5
 4266 0152 49       		.byte	0x49
 4267 0153 D5000000 		.4byte	0xd5
 4268 0157 03       		.uleb128 0x3
 4269 0158 3E100000 		.4byte	.LASF29
 4270 015c 05       		.byte	0x5
 4271 015d 4A       		.byte	0x4a
 4272 015e D5000000 		.4byte	0xd5
 4273 0162 03       		.uleb128 0x3
 4274 0163 15120000 		.4byte	.LASF30
ARM GAS  C:\Users\PCHAUT~1\AppData\Local\Temp\ccMxpIDf.s 			page 76


 4275 0167 05       		.byte	0x5
 4276 0168 4B       		.byte	0x4b
 4277 0169 D5000000 		.4byte	0xd5
 4278 016d 03       		.uleb128 0x3
 4279 016e A0050000 		.4byte	.LASF31
 4280 0172 05       		.byte	0x5
 4281 0173 4C       		.byte	0x4c
 4282 0174 0B010000 		.4byte	0x10b
 4283 0178 03       		.uleb128 0x3
 4284 0179 45000000 		.4byte	.LASF32
 4285 017d 05       		.byte	0x5
 4286 017e 4D       		.byte	0x4d
 4287 017f FB000000 		.4byte	0xfb
 4288 0183 03       		.uleb128 0x3
 4289 0184 12160000 		.4byte	.LASF33
 4290 0188 05       		.byte	0x5
 4291 0189 4F       		.byte	0x4f
 4292 018a 0B010000 		.4byte	0x10b
 4293 018e 03       		.uleb128 0x3
 4294 018f 6F1E0000 		.4byte	.LASF34
 4295 0193 05       		.byte	0x5
 4296 0194 50       		.byte	0x50
 4297 0195 0B010000 		.4byte	0x10b
 4298 0199 03       		.uleb128 0x3
 4299 019a F8170000 		.4byte	.LASF35
 4300 019e 05       		.byte	0x5
 4301 019f 51       		.byte	0x51
 4302 01a0 FB000000 		.4byte	0xfb
 4303 01a4 03       		.uleb128 0x3
 4304 01a5 E3120000 		.4byte	.LASF36
 4305 01a9 05       		.byte	0x5
 4306 01aa 52       		.byte	0x52
 4307 01ab 0B010000 		.4byte	0x10b
 4308 01af 03       		.uleb128 0x3
 4309 01b0 46030000 		.4byte	.LASF37
 4310 01b4 06       		.byte	0x6
 4311 01b5 33       		.byte	0x33
 4312 01b6 0B010000 		.4byte	0x10b
 4313 01ba 06       		.uleb128 0x6
 4314 01bb AF010000 		.4byte	0x1af
 4315 01bf 03       		.uleb128 0x3
 4316 01c0 EA020000 		.4byte	.LASF38
 4317 01c4 06       		.byte	0x6
 4318 01c5 3F       		.byte	0x3f
 4319 01c6 CA010000 		.4byte	0x1ca
 4320 01ca 07       		.uleb128 0x7
 4321 01cb 8A090000 		.4byte	.LASF62
 4322 01cf 68       		.byte	0x68
 4323 01d0 07       		.byte	0x7
 4324 01d1 C2       		.byte	0xc2
 4325 01d2 E8020000 		.4byte	0x2e8
 4326 01d6 08       		.uleb128 0x8
 4327 01d7 DB0F0000 		.4byte	.LASF39
 4328 01db 07       		.byte	0x7
 4329 01dc C3       		.byte	0xc3
 4330 01dd F3020000 		.4byte	0x2f3
 4331 01e1 00       		.byte	0
ARM GAS  C:\Users\PCHAUT~1\AppData\Local\Temp\ccMxpIDf.s 			page 77


 4332 01e2 08       		.uleb128 0x8
 4333 01e3 E90C0000 		.4byte	.LASF40
 4334 01e7 07       		.byte	0x7
 4335 01e8 C5       		.byte	0xc5
 4336 01e9 F3020000 		.4byte	0x2f3
 4337 01ed 04       		.byte	0x4
 4338 01ee 08       		.uleb128 0x8
 4339 01ef 080F0000 		.4byte	.LASF41
 4340 01f3 07       		.byte	0x7
 4341 01f4 C7       		.byte	0xc7
 4342 01f5 6D010000 		.4byte	0x16d
 4343 01f9 08       		.byte	0x8
 4344 01fa 08       		.uleb128 0x8
 4345 01fb 110A0000 		.4byte	.LASF42
 4346 01ff 07       		.byte	0x7
 4347 0200 C8       		.byte	0xc8
 4348 0201 FD0C0000 		.4byte	0xcfd
 4349 0205 0C       		.byte	0xc
 4350 0206 08       		.uleb128 0x8
 4351 0207 36020000 		.4byte	.LASF43
 4352 020b 07       		.byte	0x7
 4353 020c CA       		.byte	0xca
 4354 020d F3020000 		.4byte	0x2f3
 4355 0211 10       		.byte	0x10
 4356 0212 08       		.uleb128 0x8
 4357 0213 041F0000 		.4byte	.LASF44
 4358 0217 07       		.byte	0x7
 4359 0218 CB       		.byte	0xcb
 4360 0219 F3020000 		.4byte	0x2f3
 4361 021d 14       		.byte	0x14
 4362 021e 08       		.uleb128 0x8
 4363 021f 4A1D0000 		.4byte	.LASF45
 4364 0223 07       		.byte	0x7
 4365 0224 D2       		.byte	0xd2
 4366 0225 73100000 		.4byte	0x1073
 4367 0229 18       		.byte	0x18
 4368 022a 08       		.uleb128 0x8
 4369 022b ED170000 		.4byte	.LASF46
 4370 022f 07       		.byte	0x7
 4371 0230 D8       		.byte	0xd8
 4372 0231 8A100000 		.4byte	0x108a
 4373 0235 1C       		.byte	0x1c
 4374 0236 08       		.uleb128 0x8
 4375 0237 1B210000 		.4byte	.LASF47
 4376 023b 07       		.byte	0x7
 4377 023c DD       		.byte	0xdd
 4378 023d 4C010000 		.4byte	0x14c
 4379 0241 20       		.byte	0x20
 4380 0242 08       		.uleb128 0x8
 4381 0243 AE1C0000 		.4byte	.LASF48
 4382 0247 07       		.byte	0x7
 4383 0248 E1       		.byte	0xe1
 4384 0249 41010000 		.4byte	0x141
 4385 024d 21       		.byte	0x21
 4386 024e 08       		.uleb128 0x8
 4387 024f BF140000 		.4byte	.LASF49
 4388 0253 07       		.byte	0x7
ARM GAS  C:\Users\PCHAUT~1\AppData\Local\Temp\ccMxpIDf.s 			page 78


 4389 0254 E6       		.byte	0xe6
 4390 0255 57010000 		.4byte	0x157
 4391 0259 22       		.byte	0x22
 4392 025a 08       		.uleb128 0x8
 4393 025b CA120000 		.4byte	.LASF50
 4394 025f 07       		.byte	0x7
 4395 0260 EC       		.byte	0xec
 4396 0261 62010000 		.4byte	0x162
 4397 0265 23       		.byte	0x23
 4398 0266 08       		.uleb128 0x8
 4399 0267 B8140000 		.4byte	.LASF51
 4400 026b 07       		.byte	0x7
 4401 026c F3       		.byte	0xf3
 4402 026d BA010000 		.4byte	0x1ba
 4403 0271 24       		.byte	0x24
 4404 0272 09       		.uleb128 0x9
 4405 0273 705F7500 		.ascii	"p_u\000"
 4406 0277 07       		.byte	0x7
 4407 0278 3101     		.2byte	0x131
 4408 027a A20F0000 		.4byte	0xfa2
 4409 027e 28       		.byte	0x28
 4410 027f 0A       		.uleb128 0xa
 4411 0280 60040000 		.4byte	.LASF52
 4412 0284 07       		.byte	0x7
 4413 0285 3601     		.2byte	0x136
 4414 0287 F9020000 		.4byte	0x2f9
 4415 028b 2C       		.byte	0x2c
 4416 028c 0A       		.uleb128 0xa
 4417 028d 4B130000 		.4byte	.LASF53
 4418 0291 07       		.byte	0x7
 4419 0292 3C01     		.2byte	0x13c
 4420 0294 1D030000 		.4byte	0x31d
 4421 0298 30       		.byte	0x30
 4422 0299 0A       		.uleb128 0xa
 4423 029a BA060000 		.4byte	.LASF54
 4424 029e 07       		.byte	0x7
 4425 029f 4001     		.2byte	0x140
 4426 02a1 78010000 		.4byte	0x178
 4427 02a5 38       		.byte	0x38
 4428 02a6 0A       		.uleb128 0xa
 4429 02a7 811A0000 		.4byte	.LASF55
 4430 02ab 07       		.byte	0x7
 4431 02ac 4601     		.2byte	0x146
 4432 02ae 83010000 		.4byte	0x183
 4433 02b2 3C       		.byte	0x3c
 4434 02b3 0A       		.uleb128 0xa
 4435 02b4 D31C0000 		.4byte	.LASF56
 4436 02b8 07       		.byte	0x7
 4437 02b9 4D01     		.2byte	0x14d
 4438 02bb 6D100000 		.4byte	0x106d
 4439 02bf 40       		.byte	0x40
 4440 02c0 0A       		.uleb128 0xa
 4441 02c1 3A190000 		.4byte	.LASF57
 4442 02c5 07       		.byte	0x7
 4443 02c6 5101     		.2byte	0x151
 4444 02c8 6D010000 		.4byte	0x16d
 4445 02cc 44       		.byte	0x44
ARM GAS  C:\Users\PCHAUT~1\AppData\Local\Temp\ccMxpIDf.s 			page 79


 4446 02cd 0A       		.uleb128 0xa
 4447 02ce 46100000 		.4byte	.LASF58
 4448 02d2 07       		.byte	0x7
 4449 02d3 5801     		.2byte	0x158
 4450 02d5 D0030000 		.4byte	0x3d0
 4451 02d9 48       		.byte	0x48
 4452 02da 0A       		.uleb128 0xa
 4453 02db 56210000 		.4byte	.LASF59
 4454 02df 07       		.byte	0x7
 4455 02e0 5E01     		.2byte	0x15e
 4456 02e2 530F0000 		.4byte	0xf53
 4457 02e6 50       		.byte	0x50
 4458 02e7 00       		.byte	0
 4459 02e8 03       		.uleb128 0x3
 4460 02e9 5E1F0000 		.4byte	.LASF60
 4461 02ed 06       		.byte	0x6
 4462 02ee 44       		.byte	0x44
 4463 02ef F3020000 		.4byte	0x2f3
 4464 02f3 0B       		.uleb128 0xb
 4465 02f4 04       		.byte	0x4
 4466 02f5 BF010000 		.4byte	0x1bf
 4467 02f9 03       		.uleb128 0x3
 4468 02fa 9F040000 		.4byte	.LASF61
 4469 02fe 06       		.byte	0x6
 4470 02ff 49       		.byte	0x49
 4471 0300 04030000 		.4byte	0x304
 4472 0304 07       		.uleb128 0x7
 4473 0305 35210000 		.4byte	.LASF63
 4474 0309 04       		.byte	0x4
 4475 030a 07       		.byte	0x7
 4476 030b B0       		.byte	0xb0
 4477 030c 1D030000 		.4byte	0x31d
 4478 0310 08       		.uleb128 0x8
 4479 0311 DB0F0000 		.4byte	.LASF39
 4480 0315 07       		.byte	0x7
 4481 0316 B1       		.byte	0xb1
 4482 0317 F3020000 		.4byte	0x2f3
 4483 031b 00       		.byte	0
 4484 031c 00       		.byte	0
 4485 031d 03       		.uleb128 0x3
 4486 031e 9D140000 		.4byte	.LASF64
 4487 0322 06       		.byte	0x6
 4488 0323 50       		.byte	0x50
 4489 0324 28030000 		.4byte	0x328
 4490 0328 07       		.uleb128 0x7
 4491 0329 17020000 		.4byte	.LASF65
 4492 032d 08       		.byte	0x8
 4493 032e 07       		.byte	0x7
 4494 032f B7       		.byte	0xb7
 4495 0330 4D030000 		.4byte	0x34d
 4496 0334 08       		.uleb128 0x8
 4497 0335 DB0F0000 		.4byte	.LASF39
 4498 0339 07       		.byte	0x7
 4499 033a B8       		.byte	0xb8
 4500 033b F3020000 		.4byte	0x2f3
 4501 033f 00       		.byte	0
 4502 0340 08       		.uleb128 0x8
ARM GAS  C:\Users\PCHAUT~1\AppData\Local\Temp\ccMxpIDf.s 			page 80


 4503 0341 E90C0000 		.4byte	.LASF40
 4504 0345 07       		.byte	0x7
 4505 0346 B9       		.byte	0xb9
 4506 0347 F3020000 		.4byte	0x2f3
 4507 034b 04       		.byte	0x4
 4508 034c 00       		.byte	0
 4509 034d 03       		.uleb128 0x3
 4510 034e 7D090000 		.4byte	.LASF66
 4511 0352 06       		.byte	0x6
 4512 0353 57       		.byte	0x57
 4513 0354 58030000 		.4byte	0x358
 4514 0358 0C       		.uleb128 0xc
 4515 0359 D5190000 		.4byte	.LASF67
 4516 035d 1C       		.byte	0x1c
 4517 035e 07       		.byte	0x7
 4518 035f 9001     		.2byte	0x190
 4519 0361 B4030000 		.4byte	0x3b4
 4520 0365 0A       		.uleb128 0xa
 4521 0366 DC160000 		.4byte	.LASF68
 4522 036a 07       		.byte	0x7
 4523 036b 9101     		.2byte	0x191
 4524 036d 1D030000 		.4byte	0x31d
 4525 0371 00       		.byte	0
 4526 0372 0A       		.uleb128 0xa
 4527 0373 BC1B0000 		.4byte	.LASF69
 4528 0377 07       		.byte	0x7
 4529 0378 9201     		.2byte	0x192
 4530 037a 6D010000 		.4byte	0x16d
 4531 037e 08       		.byte	0x8
 4532 037f 0A       		.uleb128 0xa
 4533 0380 0A0C0000 		.4byte	.LASF70
 4534 0384 07       		.byte	0x7
 4535 0385 9401     		.2byte	0x194
 4536 0387 FD0C0000 		.4byte	0xcfd
 4537 038b 0C       		.byte	0xc
 4538 038c 0A       		.uleb128 0xa
 4539 038d 8C110000 		.4byte	.LASF71
 4540 0391 07       		.byte	0x7
 4541 0392 9701     		.2byte	0x197
 4542 0394 F3020000 		.4byte	0x2f3
 4543 0398 10       		.byte	0x10
 4544 0399 0A       		.uleb128 0xa
 4545 039a E10C0000 		.4byte	.LASF72
 4546 039e 07       		.byte	0x7
 4547 039f 9801     		.2byte	0x198
 4548 03a1 F3020000 		.4byte	0x2f3
 4549 03a5 14       		.byte	0x14
 4550 03a6 0A       		.uleb128 0xa
 4551 03a7 360A0000 		.4byte	.LASF73
 4552 03ab 07       		.byte	0x7
 4553 03ac 9B01     		.2byte	0x19b
 4554 03ae F3020000 		.4byte	0x2f3
 4555 03b2 18       		.byte	0x18
 4556 03b3 00       		.byte	0
 4557 03b4 03       		.uleb128 0x3
 4558 03b5 F1180000 		.4byte	.LASF74
 4559 03b9 06       		.byte	0x6
ARM GAS  C:\Users\PCHAUT~1\AppData\Local\Temp\ccMxpIDf.s 			page 81


 4560 03ba 5C       		.byte	0x5c
 4561 03bb BF030000 		.4byte	0x3bf
 4562 03bf 0B       		.uleb128 0xb
 4563 03c0 04       		.byte	0x4
 4564 03c1 C5030000 		.4byte	0x3c5
 4565 03c5 0D       		.uleb128 0xd
 4566 03c6 D0030000 		.4byte	0x3d0
 4567 03ca 0E       		.uleb128 0xe
 4568 03cb D0030000 		.4byte	0x3d0
 4569 03cf 00       		.byte	0
 4570 03d0 0F       		.uleb128 0xf
 4571 03d1 04       		.byte	0x4
 4572 03d2 03       		.uleb128 0x3
 4573 03d3 EE0B0000 		.4byte	.LASF75
 4574 03d7 06       		.byte	0x6
 4575 03d8 61       		.byte	0x61
 4576 03d9 DD030000 		.4byte	0x3dd
 4577 03dd 0C       		.uleb128 0xc
 4578 03de 9D1C0000 		.4byte	.LASF76
 4579 03e2 14       		.byte	0x14
 4580 03e3 07       		.byte	0x7
 4581 03e4 6B01     		.2byte	0x16b
 4582 03e6 2C040000 		.4byte	0x42c
 4583 03ea 0A       		.uleb128 0xa
 4584 03eb 100C0000 		.4byte	.LASF77
 4585 03ef 07       		.byte	0x7
 4586 03f0 6C01     		.2byte	0x16c
 4587 03f2 90100000 		.4byte	0x1090
 4588 03f6 00       		.byte	0
 4589 03f7 0A       		.uleb128 0xa
 4590 03f8 31090000 		.4byte	.LASF78
 4591 03fc 07       		.byte	0x7
 4592 03fd 6D01     		.2byte	0x16d
 4593 03ff 90100000 		.4byte	0x1090
 4594 0403 04       		.byte	0x4
 4595 0404 0A       		.uleb128 0xa
 4596 0405 53120000 		.4byte	.LASF79
 4597 0409 07       		.byte	0x7
 4598 040a 6E01     		.2byte	0x16e
 4599 040c AF010000 		.4byte	0x1af
 4600 0410 08       		.byte	0x8
 4601 0411 0A       		.uleb128 0xa
 4602 0412 6A1C0000 		.4byte	.LASF80
 4603 0416 07       		.byte	0x7
 4604 0417 6F01     		.2byte	0x16f
 4605 0419 B4030000 		.4byte	0x3b4
 4606 041d 0C       		.byte	0xc
 4607 041e 0A       		.uleb128 0xa
 4608 041f 170A0000 		.4byte	.LASF81
 4609 0423 07       		.byte	0x7
 4610 0424 7101     		.2byte	0x171
 4611 0426 D0030000 		.4byte	0x3d0
 4612 042a 10       		.byte	0x10
 4613 042b 00       		.byte	0
 4614 042c 03       		.uleb128 0x3
 4615 042d 931D0000 		.4byte	.LASF82
 4616 0431 06       		.byte	0x6
ARM GAS  C:\Users\PCHAUT~1\AppData\Local\Temp\ccMxpIDf.s 			page 82


 4617 0432 66       		.byte	0x66
 4618 0433 37040000 		.4byte	0x437
 4619 0437 0C       		.uleb128 0xc
 4620 0438 14030000 		.4byte	.LASF83
 4621 043c 10       		.byte	0x10
 4622 043d 07       		.byte	0x7
 4623 043e 7B01     		.2byte	0x17b
 4624 0440 79040000 		.4byte	0x479
 4625 0444 0A       		.uleb128 0xa
 4626 0445 100C0000 		.4byte	.LASF77
 4627 0449 07       		.byte	0x7
 4628 044a 7C01     		.2byte	0x17c
 4629 044c 90100000 		.4byte	0x1090
 4630 0450 00       		.byte	0
 4631 0451 0A       		.uleb128 0xa
 4632 0452 31090000 		.4byte	.LASF78
 4633 0456 07       		.byte	0x7
 4634 0457 7E01     		.2byte	0x17e
 4635 0459 90100000 		.4byte	0x1090
 4636 045d 04       		.byte	0x4
 4637 045e 0A       		.uleb128 0xa
 4638 045f 53120000 		.4byte	.LASF79
 4639 0463 07       		.byte	0x7
 4640 0464 8001     		.2byte	0x180
 4641 0466 AF010000 		.4byte	0x1af
 4642 046a 08       		.byte	0x8
 4643 046b 0A       		.uleb128 0xa
 4644 046c 5D010000 		.4byte	.LASF84
 4645 0470 07       		.byte	0x7
 4646 0471 8201     		.2byte	0x182
 4647 0473 BA010000 		.4byte	0x1ba
 4648 0477 0C       		.byte	0xc
 4649 0478 00       		.byte	0
 4650 0479 03       		.uleb128 0x3
 4651 047a EF090000 		.4byte	.LASF85
 4652 047e 06       		.byte	0x6
 4653 047f 6B       		.byte	0x6b
 4654 0480 84040000 		.4byte	0x484
 4655 0484 10       		.uleb128 0x10
 4656 0485 FE190000 		.4byte	.LASF86
 4657 0489 1404     		.2byte	0x414
 4658 048b 07       		.byte	0x7
 4659 048c A201     		.2byte	0x1a2
 4660 048e C7040000 		.4byte	0x4c7
 4661 0492 0A       		.uleb128 0xa
 4662 0493 6E110000 		.4byte	.LASF87
 4663 0497 07       		.byte	0x7
 4664 0498 AA01     		.2byte	0x1aa
 4665 049a 79100000 		.4byte	0x1079
 4666 049e 00       		.byte	0
 4667 049f 0A       		.uleb128 0xa
 4668 04a0 3C110000 		.4byte	.LASF88
 4669 04a4 07       		.byte	0x7
 4670 04a5 AF01     		.2byte	0x1af
 4671 04a7 99010000 		.4byte	0x199
 4672 04ab 04       		.byte	0x4
 4673 04ac 0A       		.uleb128 0xa
ARM GAS  C:\Users\PCHAUT~1\AppData\Local\Temp\ccMxpIDf.s 			page 83


 4674 04ad 0E020000 		.4byte	.LASF89
 4675 04b1 07       		.byte	0x7
 4676 04b2 B301     		.2byte	0x1b3
 4677 04b4 99010000 		.4byte	0x199
 4678 04b8 08       		.byte	0x8
 4679 04b9 0A       		.uleb128 0xa
 4680 04ba 2D140000 		.4byte	.LASF90
 4681 04be 07       		.byte	0x7
 4682 04bf B901     		.2byte	0x1b9
 4683 04c1 E50E0000 		.4byte	0xee5
 4684 04c5 0C       		.byte	0xc
 4685 04c6 00       		.byte	0
 4686 04c7 03       		.uleb128 0x3
 4687 04c8 E2000000 		.4byte	.LASF91
 4688 04cc 06       		.byte	0x6
 4689 04cd 70       		.byte	0x70
 4690 04ce D2040000 		.4byte	0x4d2
 4691 04d2 10       		.uleb128 0x10
 4692 04d3 1D140000 		.4byte	.LASF92
 4693 04d7 7006     		.2byte	0x670
 4694 04d9 07       		.byte	0x7
 4695 04da C201     		.2byte	0x1c2
 4696 04dc 3F050000 		.4byte	0x53f
 4697 04e0 0A       		.uleb128 0xa
 4698 04e1 99040000 		.4byte	.LASF93
 4699 04e5 07       		.byte	0x7
 4700 04e6 C601     		.2byte	0x1c6
 4701 04e8 4D030000 		.4byte	0x34d
 4702 04ec 00       		.byte	0
 4703 04ed 0A       		.uleb128 0xa
 4704 04ee 36040000 		.4byte	.LASF94
 4705 04f2 07       		.byte	0x7
 4706 04f3 CA01     		.2byte	0x1ca
 4707 04f5 2C040000 		.4byte	0x42c
 4708 04f9 1C       		.byte	0x1c
 4709 04fa 09       		.uleb128 0x9
 4710 04fb 64626700 		.ascii	"dbg\000"
 4711 04ff 07       		.byte	0x7
 4712 0500 CE01     		.2byte	0x1ce
 4713 0502 79040000 		.4byte	0x479
 4714 0506 2C       		.byte	0x2c
 4715 0507 11       		.uleb128 0x11
 4716 0508 E9140000 		.4byte	.LASF95
 4717 050c 07       		.byte	0x7
 4718 050d D201     		.2byte	0x1d2
 4719 050f BF010000 		.4byte	0x1bf
 4720 0513 4004     		.2byte	0x440
 4721 0515 12       		.uleb128 0x12
 4722 0516 746D00   		.ascii	"tm\000"
 4723 0519 07       		.byte	0x7
 4724 051a D701     		.2byte	0x1d7
 4725 051c 050F0000 		.4byte	0xf05
 4726 0520 A804     		.2byte	0x4a8
 4727 0522 11       		.uleb128 0x11
 4728 0523 B30C0000 		.4byte	.LASF96
 4729 0527 07       		.byte	0x7
 4730 0528 DD01     		.2byte	0x1dd
ARM GAS  C:\Users\PCHAUT~1\AppData\Local\Temp\ccMxpIDf.s 			page 84


 4731 052a 970F0000 		.4byte	0xf97
 4732 052e B004     		.2byte	0x4b0
 4733 0530 11       		.uleb128 0x11
 4734 0531 471C0000 		.4byte	.LASF97
 4735 0535 07       		.byte	0x7
 4736 0536 E301     		.2byte	0x1e3
 4737 0538 96100000 		.4byte	0x1096
 4738 053c E804     		.2byte	0x4e8
 4739 053e 00       		.byte	0
 4740 053f 13       		.uleb128 0x13
 4741 0540 0B010000 		.4byte	0x10b
 4742 0544 4F050000 		.4byte	0x54f
 4743 0548 14       		.uleb128 0x14
 4744 0549 37000000 		.4byte	0x37
 4745 054d 01       		.byte	0x1
 4746 054e 00       		.byte	0
 4747 054f 13       		.uleb128 0x13
 4748 0550 0B010000 		.4byte	0x10b
 4749 0554 5F050000 		.4byte	0x55f
 4750 0558 14       		.uleb128 0x14
 4751 0559 37000000 		.4byte	0x37
 4752 055d 07       		.byte	0x7
 4753 055e 00       		.byte	0
 4754 055f 15       		.uleb128 0x15
 4755 0560 CA1B0000 		.4byte	.LASF98
 4756 0564 08       		.byte	0x8
 4757 0565 A706     		.2byte	0x6a7
 4758 0567 06010000 		.4byte	0x106
 4759 056b 16       		.uleb128 0x16
 4760 056c 74130000 		.4byte	.LASF99
 4761 0570 09       		.byte	0x9
 4762 0571 4C       		.byte	0x4c
 4763 0572 0B010000 		.4byte	0x10b
 4764 0576 17       		.uleb128 0x17
 4765 0577 50       		.byte	0x50
 4766 0578 0A       		.byte	0xa
 4767 0579 C4       		.byte	0xc4
 4768 057a 6D060000 		.4byte	0x66d
 4769 057e 18       		.uleb128 0x18
 4770 057f 535200   		.ascii	"SR\000"
 4771 0582 0A       		.byte	0xa
 4772 0583 C6       		.byte	0xc6
 4773 0584 16010000 		.4byte	0x116
 4774 0588 00       		.byte	0
 4775 0589 18       		.uleb128 0x18
 4776 058a 43523100 		.ascii	"CR1\000"
 4777 058e 0A       		.byte	0xa
 4778 058f C7       		.byte	0xc7
 4779 0590 16010000 		.4byte	0x116
 4780 0594 04       		.byte	0x4
 4781 0595 18       		.uleb128 0x18
 4782 0596 43523200 		.ascii	"CR2\000"
 4783 059a 0A       		.byte	0xa
 4784 059b C8       		.byte	0xc8
 4785 059c 16010000 		.4byte	0x116
 4786 05a0 08       		.byte	0x8
 4787 05a1 08       		.uleb128 0x8
ARM GAS  C:\Users\PCHAUT~1\AppData\Local\Temp\ccMxpIDf.s 			page 85


 4788 05a2 5F020000 		.4byte	.LASF100
 4789 05a6 0A       		.byte	0xa
 4790 05a7 C9       		.byte	0xc9
 4791 05a8 16010000 		.4byte	0x116
 4792 05ac 0C       		.byte	0xc
 4793 05ad 08       		.uleb128 0x8
 4794 05ae 65020000 		.4byte	.LASF101
 4795 05b2 0A       		.byte	0xa
 4796 05b3 CA       		.byte	0xca
 4797 05b4 16010000 		.4byte	0x116
 4798 05b8 10       		.byte	0x10
 4799 05b9 08       		.uleb128 0x8
 4800 05ba 1E0A0000 		.4byte	.LASF102
 4801 05be 0A       		.byte	0xa
 4802 05bf CB       		.byte	0xcb
 4803 05c0 16010000 		.4byte	0x116
 4804 05c4 14       		.byte	0x14
 4805 05c5 08       		.uleb128 0x8
 4806 05c6 240A0000 		.4byte	.LASF103
 4807 05ca 0A       		.byte	0xa
 4808 05cb CC       		.byte	0xcc
 4809 05cc 16010000 		.4byte	0x116
 4810 05d0 18       		.byte	0x18
 4811 05d1 08       		.uleb128 0x8
 4812 05d2 2A0A0000 		.4byte	.LASF104
 4813 05d6 0A       		.byte	0xa
 4814 05d7 CD       		.byte	0xcd
 4815 05d8 16010000 		.4byte	0x116
 4816 05dc 1C       		.byte	0x1c
 4817 05dd 08       		.uleb128 0x8
 4818 05de 300A0000 		.4byte	.LASF105
 4819 05e2 0A       		.byte	0xa
 4820 05e3 CE       		.byte	0xce
 4821 05e4 16010000 		.4byte	0x116
 4822 05e8 20       		.byte	0x20
 4823 05e9 18       		.uleb128 0x18
 4824 05ea 48545200 		.ascii	"HTR\000"
 4825 05ee 0A       		.byte	0xa
 4826 05ef CF       		.byte	0xcf
 4827 05f0 16010000 		.4byte	0x116
 4828 05f4 24       		.byte	0x24
 4829 05f5 18       		.uleb128 0x18
 4830 05f6 4C545200 		.ascii	"LTR\000"
 4831 05fa 0A       		.byte	0xa
 4832 05fb D0       		.byte	0xd0
 4833 05fc 16010000 		.4byte	0x116
 4834 0600 28       		.byte	0x28
 4835 0601 08       		.uleb128 0x8
 4836 0602 B9100000 		.4byte	.LASF106
 4837 0606 0A       		.byte	0xa
 4838 0607 D1       		.byte	0xd1
 4839 0608 16010000 		.4byte	0x116
 4840 060c 2C       		.byte	0x2c
 4841 060d 08       		.uleb128 0x8
 4842 060e BE100000 		.4byte	.LASF107
 4843 0612 0A       		.byte	0xa
 4844 0613 D2       		.byte	0xd2
ARM GAS  C:\Users\PCHAUT~1\AppData\Local\Temp\ccMxpIDf.s 			page 86


 4845 0614 16010000 		.4byte	0x116
 4846 0618 30       		.byte	0x30
 4847 0619 08       		.uleb128 0x8
 4848 061a C3100000 		.4byte	.LASF108
 4849 061e 0A       		.byte	0xa
 4850 061f D3       		.byte	0xd3
 4851 0620 16010000 		.4byte	0x116
 4852 0624 34       		.byte	0x34
 4853 0625 08       		.uleb128 0x8
 4854 0626 CC0B0000 		.4byte	.LASF109
 4855 062a 0A       		.byte	0xa
 4856 062b D4       		.byte	0xd4
 4857 062c 16010000 		.4byte	0x116
 4858 0630 38       		.byte	0x38
 4859 0631 08       		.uleb128 0x8
 4860 0632 5E1D0000 		.4byte	.LASF110
 4861 0636 0A       		.byte	0xa
 4862 0637 D5       		.byte	0xd5
 4863 0638 16010000 		.4byte	0x116
 4864 063c 3C       		.byte	0x3c
 4865 063d 08       		.uleb128 0x8
 4866 063e 631D0000 		.4byte	.LASF111
 4867 0642 0A       		.byte	0xa
 4868 0643 D6       		.byte	0xd6
 4869 0644 16010000 		.4byte	0x116
 4870 0648 40       		.byte	0x40
 4871 0649 08       		.uleb128 0x8
 4872 064a 681D0000 		.4byte	.LASF112
 4873 064e 0A       		.byte	0xa
 4874 064f D7       		.byte	0xd7
 4875 0650 16010000 		.4byte	0x116
 4876 0654 44       		.byte	0x44
 4877 0655 08       		.uleb128 0x8
 4878 0656 6D1D0000 		.4byte	.LASF113
 4879 065a 0A       		.byte	0xa
 4880 065b D8       		.byte	0xd8
 4881 065c 16010000 		.4byte	0x116
 4882 0660 48       		.byte	0x48
 4883 0661 18       		.uleb128 0x18
 4884 0662 445200   		.ascii	"DR\000"
 4885 0665 0A       		.byte	0xa
 4886 0666 D9       		.byte	0xd9
 4887 0667 16010000 		.4byte	0x116
 4888 066b 4C       		.byte	0x4c
 4889 066c 00       		.byte	0
 4890 066d 03       		.uleb128 0x3
 4891 066e 8E120000 		.4byte	.LASF114
 4892 0672 0A       		.byte	0xa
 4893 0673 DA       		.byte	0xda
 4894 0674 76050000 		.4byte	0x576
 4895 0678 17       		.uleb128 0x17
 4896 0679 10       		.byte	0x10
 4897 067a 0A       		.byte	0xa
 4898 067b E9       		.byte	0xe9
 4899 067c B1060000 		.4byte	0x6b1
 4900 0680 18       		.uleb128 0x18
 4901 0681 54495200 		.ascii	"TIR\000"
ARM GAS  C:\Users\PCHAUT~1\AppData\Local\Temp\ccMxpIDf.s 			page 87


 4902 0685 0A       		.byte	0xa
 4903 0686 EB       		.byte	0xeb
 4904 0687 16010000 		.4byte	0x116
 4905 068b 00       		.byte	0
 4906 068c 08       		.uleb128 0x8
 4907 068d B40E0000 		.4byte	.LASF115
 4908 0691 0A       		.byte	0xa
 4909 0692 EC       		.byte	0xec
 4910 0693 16010000 		.4byte	0x116
 4911 0697 04       		.byte	0x4
 4912 0698 08       		.uleb128 0x8
 4913 0699 DB140000 		.4byte	.LASF116
 4914 069d 0A       		.byte	0xa
 4915 069e ED       		.byte	0xed
 4916 069f 16010000 		.4byte	0x116
 4917 06a3 08       		.byte	0x8
 4918 06a4 08       		.uleb128 0x8
 4919 06a5 EA120000 		.4byte	.LASF117
 4920 06a9 0A       		.byte	0xa
 4921 06aa EE       		.byte	0xee
 4922 06ab 16010000 		.4byte	0x116
 4923 06af 0C       		.byte	0xc
 4924 06b0 00       		.byte	0
 4925 06b1 03       		.uleb128 0x3
 4926 06b2 83040000 		.4byte	.LASF118
 4927 06b6 0A       		.byte	0xa
 4928 06b7 EF       		.byte	0xef
 4929 06b8 78060000 		.4byte	0x678
 4930 06bc 17       		.uleb128 0x17
 4931 06bd 10       		.byte	0x10
 4932 06be 0A       		.byte	0xa
 4933 06bf F5       		.byte	0xf5
 4934 06c0 F5060000 		.4byte	0x6f5
 4935 06c4 18       		.uleb128 0x18
 4936 06c5 52495200 		.ascii	"RIR\000"
 4937 06c9 0A       		.byte	0xa
 4938 06ca F7       		.byte	0xf7
 4939 06cb 16010000 		.4byte	0x116
 4940 06cf 00       		.byte	0
 4941 06d0 08       		.uleb128 0x8
 4942 06d1 8B190000 		.4byte	.LASF119
 4943 06d5 0A       		.byte	0xa
 4944 06d6 F8       		.byte	0xf8
 4945 06d7 16010000 		.4byte	0x116
 4946 06db 04       		.byte	0x4
 4947 06dc 08       		.uleb128 0x8
 4948 06dd ED150000 		.4byte	.LASF120
 4949 06e1 0A       		.byte	0xa
 4950 06e2 F9       		.byte	0xf9
 4951 06e3 16010000 		.4byte	0x116
 4952 06e7 08       		.byte	0x8
 4953 06e8 08       		.uleb128 0x8
 4954 06e9 EE130000 		.4byte	.LASF121
 4955 06ed 0A       		.byte	0xa
 4956 06ee FA       		.byte	0xfa
 4957 06ef 16010000 		.4byte	0x116
 4958 06f3 0C       		.byte	0xc
ARM GAS  C:\Users\PCHAUT~1\AppData\Local\Temp\ccMxpIDf.s 			page 88


 4959 06f4 00       		.byte	0
 4960 06f5 03       		.uleb128 0x3
 4961 06f6 FA180000 		.4byte	.LASF122
 4962 06fa 0A       		.byte	0xa
 4963 06fb FB       		.byte	0xfb
 4964 06fc BC060000 		.4byte	0x6bc
 4965 0700 19       		.uleb128 0x19
 4966 0701 08       		.byte	0x8
 4967 0702 0A       		.byte	0xa
 4968 0703 0101     		.2byte	0x101
 4969 0705 24070000 		.4byte	0x724
 4970 0709 09       		.uleb128 0x9
 4971 070a 46523100 		.ascii	"FR1\000"
 4972 070e 0A       		.byte	0xa
 4973 070f 0301     		.2byte	0x103
 4974 0711 16010000 		.4byte	0x116
 4975 0715 00       		.byte	0
 4976 0716 09       		.uleb128 0x9
 4977 0717 46523200 		.ascii	"FR2\000"
 4978 071b 0A       		.byte	0xa
 4979 071c 0401     		.2byte	0x104
 4980 071e 16010000 		.4byte	0x116
 4981 0722 04       		.byte	0x4
 4982 0723 00       		.byte	0
 4983 0724 1A       		.uleb128 0x1a
 4984 0725 B90E0000 		.4byte	.LASF123
 4985 0729 0A       		.byte	0xa
 4986 072a 0501     		.2byte	0x105
 4987 072c 00070000 		.4byte	0x700
 4988 0730 1B       		.uleb128 0x1b
 4989 0731 2003     		.2byte	0x320
 4990 0733 0A       		.byte	0xa
 4991 0734 0B01     		.2byte	0x10b
 4992 0736 66080000 		.4byte	0x866
 4993 073a 09       		.uleb128 0x9
 4994 073b 4D435200 		.ascii	"MCR\000"
 4995 073f 0A       		.byte	0xa
 4996 0740 0D01     		.2byte	0x10d
 4997 0742 16010000 		.4byte	0x116
 4998 0746 00       		.byte	0
 4999 0747 09       		.uleb128 0x9
 5000 0748 4D535200 		.ascii	"MSR\000"
 5001 074c 0A       		.byte	0xa
 5002 074d 0E01     		.2byte	0x10e
 5003 074f 16010000 		.4byte	0x116
 5004 0753 04       		.byte	0x4
 5005 0754 09       		.uleb128 0x9
 5006 0755 54535200 		.ascii	"TSR\000"
 5007 0759 0A       		.byte	0xa
 5008 075a 0F01     		.2byte	0x10f
 5009 075c 16010000 		.4byte	0x116
 5010 0760 08       		.byte	0x8
 5011 0761 0A       		.uleb128 0xa
 5012 0762 850D0000 		.4byte	.LASF124
 5013 0766 0A       		.byte	0xa
 5014 0767 1001     		.2byte	0x110
 5015 0769 16010000 		.4byte	0x116
ARM GAS  C:\Users\PCHAUT~1\AppData\Local\Temp\ccMxpIDf.s 			page 89


 5016 076d 0C       		.byte	0xc
 5017 076e 0A       		.uleb128 0xa
 5018 076f 150E0000 		.4byte	.LASF125
 5019 0773 0A       		.byte	0xa
 5020 0774 1101     		.2byte	0x111
 5021 0776 16010000 		.4byte	0x116
 5022 077a 10       		.byte	0x10
 5023 077b 09       		.uleb128 0x9
 5024 077c 49455200 		.ascii	"IER\000"
 5025 0780 0A       		.byte	0xa
 5026 0781 1201     		.2byte	0x112
 5027 0783 16010000 		.4byte	0x116
 5028 0787 14       		.byte	0x14
 5029 0788 09       		.uleb128 0x9
 5030 0789 45535200 		.ascii	"ESR\000"
 5031 078d 0A       		.byte	0xa
 5032 078e 1301     		.2byte	0x113
 5033 0790 16010000 		.4byte	0x116
 5034 0794 18       		.byte	0x18
 5035 0795 09       		.uleb128 0x9
 5036 0796 42545200 		.ascii	"BTR\000"
 5037 079a 0A       		.byte	0xa
 5038 079b 1401     		.2byte	0x114
 5039 079d 16010000 		.4byte	0x116
 5040 07a1 1C       		.byte	0x1c
 5041 07a2 0A       		.uleb128 0xa
 5042 07a3 CE1A0000 		.4byte	.LASF126
 5043 07a7 0A       		.byte	0xa
 5044 07a8 1501     		.2byte	0x115
 5045 07aa 66080000 		.4byte	0x866
 5046 07ae 20       		.byte	0x20
 5047 07af 11       		.uleb128 0x11
 5048 07b0 AD0F0000 		.4byte	.LASF127
 5049 07b4 0A       		.byte	0xa
 5050 07b5 1601     		.2byte	0x116
 5051 07b7 76080000 		.4byte	0x876
 5052 07bb 8001     		.2byte	0x180
 5053 07bd 11       		.uleb128 0x11
 5054 07be 861E0000 		.4byte	.LASF128
 5055 07c2 0A       		.byte	0xa
 5056 07c3 1701     		.2byte	0x117
 5057 07c5 86080000 		.4byte	0x886
 5058 07c9 B001     		.2byte	0x1b0
 5059 07cb 11       		.uleb128 0x11
 5060 07cc D81A0000 		.4byte	.LASF129
 5061 07d0 0A       		.byte	0xa
 5062 07d1 1801     		.2byte	0x118
 5063 07d3 96080000 		.4byte	0x896
 5064 07d7 D001     		.2byte	0x1d0
 5065 07d9 12       		.uleb128 0x12
 5066 07da 464D5200 		.ascii	"FMR\000"
 5067 07de 0A       		.byte	0xa
 5068 07df 1901     		.2byte	0x119
 5069 07e1 16010000 		.4byte	0x116
 5070 07e5 0002     		.2byte	0x200
 5071 07e7 11       		.uleb128 0x11
 5072 07e8 900A0000 		.4byte	.LASF130
ARM GAS  C:\Users\PCHAUT~1\AppData\Local\Temp\ccMxpIDf.s 			page 90


 5073 07ec 0A       		.byte	0xa
 5074 07ed 1A01     		.2byte	0x11a
 5075 07ef 16010000 		.4byte	0x116
 5076 07f3 0402     		.2byte	0x204
 5077 07f5 11       		.uleb128 0x11
 5078 07f6 E21A0000 		.4byte	.LASF131
 5079 07fa 0A       		.byte	0xa
 5080 07fb 1B01     		.2byte	0x11b
 5081 07fd 0B010000 		.4byte	0x10b
 5082 0801 0802     		.2byte	0x208
 5083 0803 11       		.uleb128 0x11
 5084 0804 E31C0000 		.4byte	.LASF132
 5085 0808 0A       		.byte	0xa
 5086 0809 1C01     		.2byte	0x11c
 5087 080b 16010000 		.4byte	0x116
 5088 080f 0C02     		.2byte	0x20c
 5089 0811 11       		.uleb128 0x11
 5090 0812 EC1A0000 		.4byte	.LASF133
 5091 0816 0A       		.byte	0xa
 5092 0817 1D01     		.2byte	0x11d
 5093 0819 0B010000 		.4byte	0x10b
 5094 081d 1002     		.2byte	0x210
 5095 081f 11       		.uleb128 0x11
 5096 0820 24160000 		.4byte	.LASF134
 5097 0824 0A       		.byte	0xa
 5098 0825 1E01     		.2byte	0x11e
 5099 0827 16010000 		.4byte	0x116
 5100 082b 1402     		.2byte	0x214
 5101 082d 11       		.uleb128 0x11
 5102 082e F61A0000 		.4byte	.LASF135
 5103 0832 0A       		.byte	0xa
 5104 0833 1F01     		.2byte	0x11f
 5105 0835 0B010000 		.4byte	0x10b
 5106 0839 1802     		.2byte	0x218
 5107 083b 11       		.uleb128 0x11
 5108 083c 8E030000 		.4byte	.LASF136
 5109 0840 0A       		.byte	0xa
 5110 0841 2001     		.2byte	0x120
 5111 0843 16010000 		.4byte	0x116
 5112 0847 1C02     		.2byte	0x21c
 5113 0849 11       		.uleb128 0x11
 5114 084a 001B0000 		.4byte	.LASF137
 5115 084e 0A       		.byte	0xa
 5116 084f 2101     		.2byte	0x121
 5117 0851 4F050000 		.4byte	0x54f
 5118 0855 2002     		.2byte	0x220
 5119 0857 11       		.uleb128 0x11
 5120 0858 28050000 		.4byte	.LASF138
 5121 085c 0A       		.byte	0xa
 5122 085d 2201     		.2byte	0x122
 5123 085f A6080000 		.4byte	0x8a6
 5124 0863 4002     		.2byte	0x240
 5125 0865 00       		.byte	0
 5126 0866 13       		.uleb128 0x13
 5127 0867 0B010000 		.4byte	0x10b
 5128 086b 76080000 		.4byte	0x876
 5129 086f 14       		.uleb128 0x14
ARM GAS  C:\Users\PCHAUT~1\AppData\Local\Temp\ccMxpIDf.s 			page 91


 5130 0870 37000000 		.4byte	0x37
 5131 0874 57       		.byte	0x57
 5132 0875 00       		.byte	0
 5133 0876 13       		.uleb128 0x13
 5134 0877 B1060000 		.4byte	0x6b1
 5135 087b 86080000 		.4byte	0x886
 5136 087f 14       		.uleb128 0x14
 5137 0880 37000000 		.4byte	0x37
 5138 0884 02       		.byte	0x2
 5139 0885 00       		.byte	0
 5140 0886 13       		.uleb128 0x13
 5141 0887 F5060000 		.4byte	0x6f5
 5142 088b 96080000 		.4byte	0x896
 5143 088f 14       		.uleb128 0x14
 5144 0890 37000000 		.4byte	0x37
 5145 0894 01       		.byte	0x1
 5146 0895 00       		.byte	0
 5147 0896 13       		.uleb128 0x13
 5148 0897 0B010000 		.4byte	0x10b
 5149 089b A6080000 		.4byte	0x8a6
 5150 089f 14       		.uleb128 0x14
 5151 08a0 37000000 		.4byte	0x37
 5152 08a4 0B       		.byte	0xb
 5153 08a5 00       		.byte	0
 5154 08a6 13       		.uleb128 0x13
 5155 08a7 24070000 		.4byte	0x724
 5156 08ab B6080000 		.4byte	0x8b6
 5157 08af 14       		.uleb128 0x14
 5158 08b0 37000000 		.4byte	0x37
 5159 08b4 1B       		.byte	0x1b
 5160 08b5 00       		.byte	0
 5161 08b6 1A       		.uleb128 0x1a
 5162 08b7 820C0000 		.4byte	.LASF139
 5163 08bb 0A       		.byte	0xa
 5164 08bc 2301     		.2byte	0x123
 5165 08be 30070000 		.4byte	0x730
 5166 08c2 19       		.uleb128 0x19
 5167 08c3 38       		.byte	0x38
 5168 08c4 0A       		.byte	0xa
 5169 08c5 3601     		.2byte	0x136
 5170 08c7 80090000 		.4byte	0x980
 5171 08cb 09       		.uleb128 0x9
 5172 08cc 435200   		.ascii	"CR\000"
 5173 08cf 0A       		.byte	0xa
 5174 08d0 3801     		.2byte	0x138
 5175 08d2 16010000 		.4byte	0x116
 5176 08d6 00       		.byte	0
 5177 08d7 0A       		.uleb128 0xa
 5178 08d8 C6130000 		.4byte	.LASF140
 5179 08dc 0A       		.byte	0xa
 5180 08dd 3901     		.2byte	0x139
 5181 08df 16010000 		.4byte	0x116
 5182 08e3 04       		.byte	0x4
 5183 08e4 0A       		.uleb128 0xa
 5184 08e5 1C1B0000 		.4byte	.LASF141
 5185 08e9 0A       		.byte	0xa
 5186 08ea 3A01     		.2byte	0x13a
ARM GAS  C:\Users\PCHAUT~1\AppData\Local\Temp\ccMxpIDf.s 			page 92


 5187 08ec 16010000 		.4byte	0x116
 5188 08f0 08       		.byte	0x8
 5189 08f1 0A       		.uleb128 0xa
 5190 08f2 AE170000 		.4byte	.LASF142
 5191 08f6 0A       		.byte	0xa
 5192 08f7 3B01     		.2byte	0x13b
 5193 08f9 16010000 		.4byte	0x116
 5194 08fd 0C       		.byte	0xc
 5195 08fe 0A       		.uleb128 0xa
 5196 08ff FE090000 		.4byte	.LASF143
 5197 0903 0A       		.byte	0xa
 5198 0904 3C01     		.2byte	0x13c
 5199 0906 16010000 		.4byte	0x116
 5200 090a 10       		.byte	0x10
 5201 090b 0A       		.uleb128 0xa
 5202 090c 241B0000 		.4byte	.LASF144
 5203 0910 0A       		.byte	0xa
 5204 0911 3D01     		.2byte	0x13d
 5205 0913 16010000 		.4byte	0x116
 5206 0917 14       		.byte	0x14
 5207 0918 0A       		.uleb128 0xa
 5208 0919 B6170000 		.4byte	.LASF145
 5209 091d 0A       		.byte	0xa
 5210 091e 3E01     		.2byte	0x13e
 5211 0920 16010000 		.4byte	0x116
 5212 0924 18       		.byte	0x18
 5213 0925 0A       		.uleb128 0xa
 5214 0926 050A0000 		.4byte	.LASF146
 5215 092a 0A       		.byte	0xa
 5216 092b 3F01     		.2byte	0x13f
 5217 092d 16010000 		.4byte	0x116
 5218 0931 1C       		.byte	0x1c
 5219 0932 0A       		.uleb128 0xa
 5220 0933 6B1B0000 		.4byte	.LASF147
 5221 0937 0A       		.byte	0xa
 5222 0938 4001     		.2byte	0x140
 5223 093a 16010000 		.4byte	0x116
 5224 093e 20       		.byte	0x20
 5225 093f 0A       		.uleb128 0xa
 5226 0940 D7170000 		.4byte	.LASF148
 5227 0944 0A       		.byte	0xa
 5228 0945 4101     		.2byte	0x141
 5229 0947 16010000 		.4byte	0x116
 5230 094b 24       		.byte	0x24
 5231 094c 0A       		.uleb128 0xa
 5232 094d 9D1E0000 		.4byte	.LASF149
 5233 0951 0A       		.byte	0xa
 5234 0952 4201     		.2byte	0x142
 5235 0954 16010000 		.4byte	0x116
 5236 0958 28       		.byte	0x28
 5237 0959 0A       		.uleb128 0xa
 5238 095a 68010000 		.4byte	.LASF150
 5239 095e 0A       		.byte	0xa
 5240 095f 4301     		.2byte	0x143
 5241 0961 16010000 		.4byte	0x116
 5242 0965 2C       		.byte	0x2c
 5243 0966 0A       		.uleb128 0xa
ARM GAS  C:\Users\PCHAUT~1\AppData\Local\Temp\ccMxpIDf.s 			page 93


 5244 0967 6D010000 		.4byte	.LASF151
 5245 096b 0A       		.byte	0xa
 5246 096c 4401     		.2byte	0x144
 5247 096e 16010000 		.4byte	0x116
 5248 0972 30       		.byte	0x30
 5249 0973 09       		.uleb128 0x9
 5250 0974 535200   		.ascii	"SR\000"
 5251 0977 0A       		.byte	0xa
 5252 0978 4501     		.2byte	0x145
 5253 097a 16010000 		.4byte	0x116
 5254 097e 34       		.byte	0x34
 5255 097f 00       		.byte	0
 5256 0980 1A       		.uleb128 0x1a
 5257 0981 12190000 		.4byte	.LASF152
 5258 0985 0A       		.byte	0xa
 5259 0986 4601     		.2byte	0x146
 5260 0988 C2080000 		.4byte	0x8c2
 5261 098c 19       		.uleb128 0x19
 5262 098d 18       		.byte	0x18
 5263 098e 0A       		.byte	0xa
 5264 098f 6B01     		.2byte	0x16b
 5265 0991 E3090000 		.4byte	0x9e3
 5266 0995 09       		.uleb128 0x9
 5267 0996 435200   		.ascii	"CR\000"
 5268 0999 0A       		.byte	0xa
 5269 099a 6D01     		.2byte	0x16d
 5270 099c 16010000 		.4byte	0x116
 5271 09a0 00       		.byte	0
 5272 09a1 0A       		.uleb128 0xa
 5273 09a2 201C0000 		.4byte	.LASF153
 5274 09a6 0A       		.byte	0xa
 5275 09a7 6E01     		.2byte	0x16e
 5276 09a9 16010000 		.4byte	0x116
 5277 09ad 04       		.byte	0x4
 5278 09ae 09       		.uleb128 0x9
 5279 09af 50415200 		.ascii	"PAR\000"
 5280 09b3 0A       		.byte	0xa
 5281 09b4 6F01     		.2byte	0x16f
 5282 09b6 16010000 		.4byte	0x116
 5283 09ba 08       		.byte	0x8
 5284 09bb 0A       		.uleb128 0xa
 5285 09bc 70030000 		.4byte	.LASF154
 5286 09c0 0A       		.byte	0xa
 5287 09c1 7001     		.2byte	0x170
 5288 09c3 16010000 		.4byte	0x116
 5289 09c7 0C       		.byte	0xc
 5290 09c8 0A       		.uleb128 0xa
 5291 09c9 EC060000 		.4byte	.LASF155
 5292 09cd 0A       		.byte	0xa
 5293 09ce 7101     		.2byte	0x171
 5294 09d0 16010000 		.4byte	0x116
 5295 09d4 10       		.byte	0x10
 5296 09d5 09       		.uleb128 0x9
 5297 09d6 46435200 		.ascii	"FCR\000"
 5298 09da 0A       		.byte	0xa
 5299 09db 7201     		.2byte	0x172
 5300 09dd 16010000 		.4byte	0x116
ARM GAS  C:\Users\PCHAUT~1\AppData\Local\Temp\ccMxpIDf.s 			page 94


 5301 09e1 14       		.byte	0x14
 5302 09e2 00       		.byte	0
 5303 09e3 1A       		.uleb128 0x1a
 5304 09e4 F6060000 		.4byte	.LASF156
 5305 09e8 0A       		.byte	0xa
 5306 09e9 7301     		.2byte	0x173
 5307 09eb 8C090000 		.4byte	0x98c
 5308 09ef 13       		.uleb128 0x13
 5309 09f0 16010000 		.4byte	0x116
 5310 09f4 FF090000 		.4byte	0x9ff
 5311 09f8 14       		.uleb128 0x14
 5312 09f9 37000000 		.4byte	0x37
 5313 09fd 01       		.byte	0x1
 5314 09fe 00       		.byte	0
 5315 09ff 06       		.uleb128 0x6
 5316 0a00 EF090000 		.4byte	0x9ef
 5317 0a04 13       		.uleb128 0x13
 5318 0a05 16010000 		.4byte	0x116
 5319 0a09 140A0000 		.4byte	0xa14
 5320 0a0d 14       		.uleb128 0x14
 5321 0a0e 37000000 		.4byte	0x37
 5322 0a12 03       		.byte	0x3
 5323 0a13 00       		.byte	0
 5324 0a14 06       		.uleb128 0x6
 5325 0a15 040A0000 		.4byte	0xa04
 5326 0a19 19       		.uleb128 0x19
 5327 0a1a 28       		.byte	0x28
 5328 0a1b 0A       		.byte	0xa
 5329 0a1c 3F02     		.2byte	0x23f
 5330 0a1e A40A0000 		.4byte	0xaa4
 5331 0a22 09       		.uleb128 0x9
 5332 0a23 43523100 		.ascii	"CR1\000"
 5333 0a27 0A       		.byte	0xa
 5334 0a28 4102     		.2byte	0x241
 5335 0a2a 16010000 		.4byte	0x116
 5336 0a2e 00       		.byte	0
 5337 0a2f 09       		.uleb128 0x9
 5338 0a30 43523200 		.ascii	"CR2\000"
 5339 0a34 0A       		.byte	0xa
 5340 0a35 4202     		.2byte	0x242
 5341 0a37 16010000 		.4byte	0x116
 5342 0a3b 04       		.byte	0x4
 5343 0a3c 0A       		.uleb128 0xa
 5344 0a3d 4C210000 		.4byte	.LASF157
 5345 0a41 0A       		.byte	0xa
 5346 0a42 4302     		.2byte	0x243
 5347 0a44 16010000 		.4byte	0x116
 5348 0a48 08       		.byte	0x8
 5349 0a49 0A       		.uleb128 0xa
 5350 0a4a 51210000 		.4byte	.LASF158
 5351 0a4e 0A       		.byte	0xa
 5352 0a4f 4402     		.2byte	0x244
 5353 0a51 16010000 		.4byte	0x116
 5354 0a55 0C       		.byte	0xc
 5355 0a56 09       		.uleb128 0x9
 5356 0a57 445200   		.ascii	"DR\000"
 5357 0a5a 0A       		.byte	0xa
ARM GAS  C:\Users\PCHAUT~1\AppData\Local\Temp\ccMxpIDf.s 			page 95


 5358 0a5b 4502     		.2byte	0x245
 5359 0a5d 16010000 		.4byte	0x116
 5360 0a61 10       		.byte	0x10
 5361 0a62 09       		.uleb128 0x9
 5362 0a63 53523100 		.ascii	"SR1\000"
 5363 0a67 0A       		.byte	0xa
 5364 0a68 4602     		.2byte	0x246
 5365 0a6a 16010000 		.4byte	0x116
 5366 0a6e 14       		.byte	0x14
 5367 0a6f 09       		.uleb128 0x9
 5368 0a70 53523200 		.ascii	"SR2\000"
 5369 0a74 0A       		.byte	0xa
 5370 0a75 4702     		.2byte	0x247
 5371 0a77 16010000 		.4byte	0x116
 5372 0a7b 18       		.byte	0x18
 5373 0a7c 09       		.uleb128 0x9
 5374 0a7d 43435200 		.ascii	"CCR\000"
 5375 0a81 0A       		.byte	0xa
 5376 0a82 4802     		.2byte	0x248
 5377 0a84 16010000 		.4byte	0x116
 5378 0a88 1C       		.byte	0x1c
 5379 0a89 0A       		.uleb128 0xa
 5380 0a8a 51040000 		.4byte	.LASF159
 5381 0a8e 0A       		.byte	0xa
 5382 0a8f 4902     		.2byte	0x249
 5383 0a91 16010000 		.4byte	0x116
 5384 0a95 20       		.byte	0x20
 5385 0a96 0A       		.uleb128 0xa
 5386 0a97 18200000 		.4byte	.LASF160
 5387 0a9b 0A       		.byte	0xa
 5388 0a9c 4A02     		.2byte	0x24a
 5389 0a9e 16010000 		.4byte	0x116
 5390 0aa2 24       		.byte	0x24
 5391 0aa3 00       		.byte	0
 5392 0aa4 1A       		.uleb128 0x1a
 5393 0aa5 E2130000 		.4byte	.LASF161
 5394 0aa9 0A       		.byte	0xa
 5395 0aaa 4B02     		.2byte	0x24b
 5396 0aac 190A0000 		.4byte	0xa19
 5397 0ab0 19       		.uleb128 0x19
 5398 0ab1 84       		.byte	0x84
 5399 0ab2 0A       		.byte	0xa
 5400 0ab3 BF02     		.2byte	0x2bf
 5401 0ab5 BE0B0000 		.4byte	0xbbe
 5402 0ab9 0A       		.uleb128 0xa
 5403 0aba 27140000 		.4byte	.LASF162
 5404 0abe 0A       		.byte	0xa
 5405 0abf C102     		.2byte	0x2c1
 5406 0ac1 16010000 		.4byte	0x116
 5407 0ac5 00       		.byte	0
 5408 0ac6 0A       		.uleb128 0xa
 5409 0ac7 3A1D0000 		.4byte	.LASF163
 5410 0acb 0A       		.byte	0xa
 5411 0acc C202     		.2byte	0x2c2
 5412 0ace 16010000 		.4byte	0x116
 5413 0ad2 04       		.byte	0x4
 5414 0ad3 09       		.uleb128 0x9
ARM GAS  C:\Users\PCHAUT~1\AppData\Local\Temp\ccMxpIDf.s 			page 96


 5415 0ad4 41524700 		.ascii	"ARG\000"
 5416 0ad8 0A       		.byte	0xa
 5417 0ad9 C302     		.2byte	0x2c3
 5418 0adb 16010000 		.4byte	0x116
 5419 0adf 08       		.byte	0x8
 5420 0ae0 09       		.uleb128 0x9
 5421 0ae1 434D4400 		.ascii	"CMD\000"
 5422 0ae5 0A       		.byte	0xa
 5423 0ae6 C402     		.2byte	0x2c4
 5424 0ae8 16010000 		.4byte	0x116
 5425 0aec 0C       		.byte	0xc
 5426 0aed 0A       		.uleb128 0xa
 5427 0aee A6160000 		.4byte	.LASF164
 5428 0af2 0A       		.byte	0xa
 5429 0af3 C502     		.2byte	0x2c5
 5430 0af5 1B010000 		.4byte	0x11b
 5431 0af9 10       		.byte	0x10
 5432 0afa 0A       		.uleb128 0xa
 5433 0afb 41050000 		.4byte	.LASF165
 5434 0aff 0A       		.byte	0xa
 5435 0b00 C602     		.2byte	0x2c6
 5436 0b02 1B010000 		.4byte	0x11b
 5437 0b06 14       		.byte	0x14
 5438 0b07 0A       		.uleb128 0xa
 5439 0b08 47050000 		.4byte	.LASF166
 5440 0b0c 0A       		.byte	0xa
 5441 0b0d C702     		.2byte	0x2c7
 5442 0b0f 1B010000 		.4byte	0x11b
 5443 0b13 18       		.byte	0x18
 5444 0b14 0A       		.uleb128 0xa
 5445 0b15 4D050000 		.4byte	.LASF167
 5446 0b19 0A       		.byte	0xa
 5447 0b1a C802     		.2byte	0x2c8
 5448 0b1c 1B010000 		.4byte	0x11b
 5449 0b20 1C       		.byte	0x1c
 5450 0b21 0A       		.uleb128 0xa
 5451 0b22 53050000 		.4byte	.LASF168
 5452 0b26 0A       		.byte	0xa
 5453 0b27 C902     		.2byte	0x2c9
 5454 0b29 1B010000 		.4byte	0x11b
 5455 0b2d 20       		.byte	0x20
 5456 0b2e 0A       		.uleb128 0xa
 5457 0b2f 85110000 		.4byte	.LASF169
 5458 0b33 0A       		.byte	0xa
 5459 0b34 CA02     		.2byte	0x2ca
 5460 0b36 16010000 		.4byte	0x116
 5461 0b3a 24       		.byte	0x24
 5462 0b3b 0A       		.uleb128 0xa
 5463 0b3c 14130000 		.4byte	.LASF170
 5464 0b40 0A       		.byte	0xa
 5465 0b41 CB02     		.2byte	0x2cb
 5466 0b43 16010000 		.4byte	0x116
 5467 0b47 28       		.byte	0x28
 5468 0b48 0A       		.uleb128 0xa
 5469 0b49 04200000 		.4byte	.LASF171
 5470 0b4d 0A       		.byte	0xa
 5471 0b4e CC02     		.2byte	0x2cc
ARM GAS  C:\Users\PCHAUT~1\AppData\Local\Temp\ccMxpIDf.s 			page 97


 5472 0b50 16010000 		.4byte	0x116
 5473 0b54 2C       		.byte	0x2c
 5474 0b55 0A       		.uleb128 0xa
 5475 0b56 45210000 		.4byte	.LASF172
 5476 0b5a 0A       		.byte	0xa
 5477 0b5b CD02     		.2byte	0x2cd
 5478 0b5d 1B010000 		.4byte	0x11b
 5479 0b61 30       		.byte	0x30
 5480 0b62 09       		.uleb128 0x9
 5481 0b63 53544100 		.ascii	"STA\000"
 5482 0b67 0A       		.byte	0xa
 5483 0b68 CE02     		.2byte	0x2ce
 5484 0b6a 1B010000 		.4byte	0x11b
 5485 0b6e 34       		.byte	0x34
 5486 0b6f 09       		.uleb128 0x9
 5487 0b70 49435200 		.ascii	"ICR\000"
 5488 0b74 0A       		.byte	0xa
 5489 0b75 CF02     		.2byte	0x2cf
 5490 0b77 16010000 		.4byte	0x116
 5491 0b7b 38       		.byte	0x38
 5492 0b7c 0A       		.uleb128 0xa
 5493 0b7d 8A010000 		.4byte	.LASF173
 5494 0b81 0A       		.byte	0xa
 5495 0b82 D002     		.2byte	0x2d0
 5496 0b84 16010000 		.4byte	0x116
 5497 0b88 3C       		.byte	0x3c
 5498 0b89 0A       		.uleb128 0xa
 5499 0b8a CE1A0000 		.4byte	.LASF126
 5500 0b8e 0A       		.byte	0xa
 5501 0b8f D102     		.2byte	0x2d1
 5502 0b91 3F050000 		.4byte	0x53f
 5503 0b95 40       		.byte	0x40
 5504 0b96 0A       		.uleb128 0xa
 5505 0b97 33120000 		.4byte	.LASF174
 5506 0b9b 0A       		.byte	0xa
 5507 0b9c D202     		.2byte	0x2d2
 5508 0b9e 1B010000 		.4byte	0x11b
 5509 0ba2 48       		.byte	0x48
 5510 0ba3 0A       		.uleb128 0xa
 5511 0ba4 D81A0000 		.4byte	.LASF129
 5512 0ba8 0A       		.byte	0xa
 5513 0ba9 D302     		.2byte	0x2d3
 5514 0bab BE0B0000 		.4byte	0xbbe
 5515 0baf 4C       		.byte	0x4c
 5516 0bb0 0A       		.uleb128 0xa
 5517 0bb1 60090000 		.4byte	.LASF175
 5518 0bb5 0A       		.byte	0xa
 5519 0bb6 D402     		.2byte	0x2d4
 5520 0bb8 16010000 		.4byte	0x116
 5521 0bbc 80       		.byte	0x80
 5522 0bbd 00       		.byte	0
 5523 0bbe 13       		.uleb128 0x13
 5524 0bbf 0B010000 		.4byte	0x10b
 5525 0bc3 CE0B0000 		.4byte	0xbce
 5526 0bc7 14       		.uleb128 0x14
 5527 0bc8 37000000 		.4byte	0x37
 5528 0bcc 0C       		.byte	0xc
ARM GAS  C:\Users\PCHAUT~1\AppData\Local\Temp\ccMxpIDf.s 			page 98


 5529 0bcd 00       		.byte	0
 5530 0bce 1A       		.uleb128 0x1a
 5531 0bcf FE1B0000 		.4byte	.LASF176
 5532 0bd3 0A       		.byte	0xa
 5533 0bd4 D502     		.2byte	0x2d5
 5534 0bd6 B00A0000 		.4byte	0xab0
 5535 0bda 19       		.uleb128 0x19
 5536 0bdb 24       		.byte	0x24
 5537 0bdc 0A       		.byte	0xa
 5538 0bdd DB02     		.2byte	0x2db
 5539 0bdf 570C0000 		.4byte	0xc57
 5540 0be3 09       		.uleb128 0x9
 5541 0be4 43523100 		.ascii	"CR1\000"
 5542 0be8 0A       		.byte	0xa
 5543 0be9 DD02     		.2byte	0x2dd
 5544 0beb 16010000 		.4byte	0x116
 5545 0bef 00       		.byte	0
 5546 0bf0 09       		.uleb128 0x9
 5547 0bf1 43523200 		.ascii	"CR2\000"
 5548 0bf5 0A       		.byte	0xa
 5549 0bf6 DE02     		.2byte	0x2de
 5550 0bf8 16010000 		.4byte	0x116
 5551 0bfc 04       		.byte	0x4
 5552 0bfd 09       		.uleb128 0x9
 5553 0bfe 535200   		.ascii	"SR\000"
 5554 0c01 0A       		.byte	0xa
 5555 0c02 DF02     		.2byte	0x2df
 5556 0c04 16010000 		.4byte	0x116
 5557 0c08 08       		.byte	0x8
 5558 0c09 09       		.uleb128 0x9
 5559 0c0a 445200   		.ascii	"DR\000"
 5560 0c0d 0A       		.byte	0xa
 5561 0c0e E002     		.2byte	0x2e0
 5562 0c10 16010000 		.4byte	0x116
 5563 0c14 0C       		.byte	0xc
 5564 0c15 0A       		.uleb128 0xa
 5565 0c16 7D060000 		.4byte	.LASF177
 5566 0c1a 0A       		.byte	0xa
 5567 0c1b E102     		.2byte	0x2e1
 5568 0c1d 16010000 		.4byte	0x116
 5569 0c21 10       		.byte	0x10
 5570 0c22 0A       		.uleb128 0xa
 5571 0c23 020B0000 		.4byte	.LASF178
 5572 0c27 0A       		.byte	0xa
 5573 0c28 E202     		.2byte	0x2e2
 5574 0c2a 16010000 		.4byte	0x116
 5575 0c2e 14       		.byte	0x14
 5576 0c2f 0A       		.uleb128 0xa
 5577 0c30 400A0000 		.4byte	.LASF179
 5578 0c34 0A       		.byte	0xa
 5579 0c35 E302     		.2byte	0x2e3
 5580 0c37 16010000 		.4byte	0x116
 5581 0c3b 18       		.byte	0x18
 5582 0c3c 0A       		.uleb128 0xa
 5583 0c3d F11D0000 		.4byte	.LASF180
 5584 0c41 0A       		.byte	0xa
 5585 0c42 E402     		.2byte	0x2e4
ARM GAS  C:\Users\PCHAUT~1\AppData\Local\Temp\ccMxpIDf.s 			page 99


 5586 0c44 16010000 		.4byte	0x116
 5587 0c48 1C       		.byte	0x1c
 5588 0c49 0A       		.uleb128 0xa
 5589 0c4a 3E060000 		.4byte	.LASF181
 5590 0c4e 0A       		.byte	0xa
 5591 0c4f E502     		.2byte	0x2e5
 5592 0c51 16010000 		.4byte	0x116
 5593 0c55 20       		.byte	0x20
 5594 0c56 00       		.byte	0
 5595 0c57 1A       		.uleb128 0x1a
 5596 0c58 5E1C0000 		.4byte	.LASF182
 5597 0c5c 0A       		.byte	0xa
 5598 0c5d E602     		.2byte	0x2e6
 5599 0c5f DA0B0000 		.4byte	0xbda
 5600 0c63 19       		.uleb128 0x19
 5601 0c64 1C       		.byte	0x1c
 5602 0c65 0A       		.byte	0xa
 5603 0c66 0903     		.2byte	0x309
 5604 0c68 C60C0000 		.4byte	0xcc6
 5605 0c6c 09       		.uleb128 0x9
 5606 0c6d 535200   		.ascii	"SR\000"
 5607 0c70 0A       		.byte	0xa
 5608 0c71 0B03     		.2byte	0x30b
 5609 0c73 16010000 		.4byte	0x116
 5610 0c77 00       		.byte	0
 5611 0c78 09       		.uleb128 0x9
 5612 0c79 445200   		.ascii	"DR\000"
 5613 0c7c 0A       		.byte	0xa
 5614 0c7d 0C03     		.2byte	0x30c
 5615 0c7f 16010000 		.4byte	0x116
 5616 0c83 04       		.byte	0x4
 5617 0c84 09       		.uleb128 0x9
 5618 0c85 42525200 		.ascii	"BRR\000"
 5619 0c89 0A       		.byte	0xa
 5620 0c8a 0D03     		.2byte	0x30d
 5621 0c8c 16010000 		.4byte	0x116
 5622 0c90 08       		.byte	0x8
 5623 0c91 09       		.uleb128 0x9
 5624 0c92 43523100 		.ascii	"CR1\000"
 5625 0c96 0A       		.byte	0xa
 5626 0c97 0E03     		.2byte	0x30e
 5627 0c99 16010000 		.4byte	0x116
 5628 0c9d 0C       		.byte	0xc
 5629 0c9e 09       		.uleb128 0x9
 5630 0c9f 43523200 		.ascii	"CR2\000"
 5631 0ca3 0A       		.byte	0xa
 5632 0ca4 0F03     		.2byte	0x30f
 5633 0ca6 16010000 		.4byte	0x116
 5634 0caa 10       		.byte	0x10
 5635 0cab 09       		.uleb128 0x9
 5636 0cac 43523300 		.ascii	"CR3\000"
 5637 0cb0 0A       		.byte	0xa
 5638 0cb1 1003     		.2byte	0x310
 5639 0cb3 16010000 		.4byte	0x116
 5640 0cb7 14       		.byte	0x14
 5641 0cb8 0A       		.uleb128 0xa
 5642 0cb9 E51F0000 		.4byte	.LASF183
ARM GAS  C:\Users\PCHAUT~1\AppData\Local\Temp\ccMxpIDf.s 			page 100


 5643 0cbd 0A       		.byte	0xa
 5644 0cbe 1103     		.2byte	0x311
 5645 0cc0 16010000 		.4byte	0x116
 5646 0cc4 18       		.byte	0x18
 5647 0cc5 00       		.byte	0
 5648 0cc6 1A       		.uleb128 0x1a
 5649 0cc7 B0200000 		.4byte	.LASF184
 5650 0ccb 0A       		.byte	0xa
 5651 0ccc 1203     		.2byte	0x312
 5652 0cce 630C0000 		.4byte	0xc63
 5653 0cd2 13       		.uleb128 0x13
 5654 0cd3 16010000 		.4byte	0x116
 5655 0cd7 E20C0000 		.4byte	0xce2
 5656 0cdb 14       		.uleb128 0x14
 5657 0cdc 37000000 		.4byte	0x37
 5658 0ce0 0E       		.byte	0xe
 5659 0ce1 00       		.byte	0
 5660 0ce2 06       		.uleb128 0x6
 5661 0ce3 D20C0000 		.4byte	0xcd2
 5662 0ce7 03       		.uleb128 0x3
 5663 0ce8 FE150000 		.4byte	.LASF185
 5664 0cec 0B       		.byte	0xb
 5665 0ced 65       		.byte	0x65
 5666 0cee D0030000 		.4byte	0x3d0
 5667 0cf2 03       		.uleb128 0x3
 5668 0cf3 07090000 		.4byte	.LASF186
 5669 0cf7 0B       		.byte	0xb
 5670 0cf8 6D       		.byte	0x6d
 5671 0cf9 20010000 		.4byte	0x120
 5672 0cfd 07       		.uleb128 0x7
 5673 0cfe 88150000 		.4byte	.LASF187
 5674 0d02 04       		.byte	0x4
 5675 0d03 0B       		.byte	0xb
 5676 0d04 89       		.byte	0x89
 5677 0d05 160D0000 		.4byte	0xd16
 5678 0d09 18       		.uleb128 0x18
 5679 0d0a 72313300 		.ascii	"r13\000"
 5680 0d0e 0B       		.byte	0xb
 5681 0d0f 8A       		.byte	0x8a
 5682 0d10 570E0000 		.4byte	0xe57
 5683 0d14 00       		.byte	0
 5684 0d15 00       		.byte	0
 5685 0d16 07       		.uleb128 0x7
 5686 0d17 09000000 		.4byte	.LASF188
 5687 0d1b 64       		.byte	0x64
 5688 0d1c 0C       		.byte	0xc
 5689 0d1d F4       		.byte	0xf4
 5690 0d1e 570E0000 		.4byte	0xe57
 5691 0d22 18       		.uleb128 0x18
 5692 0d23 73313600 		.ascii	"s16\000"
 5693 0d27 0C       		.byte	0xc
 5694 0d28 F6       		.byte	0xf6
 5695 0d29 E70C0000 		.4byte	0xce7
 5696 0d2d 00       		.byte	0
 5697 0d2e 18       		.uleb128 0x18
 5698 0d2f 73313700 		.ascii	"s17\000"
 5699 0d33 0C       		.byte	0xc
ARM GAS  C:\Users\PCHAUT~1\AppData\Local\Temp\ccMxpIDf.s 			page 101


 5700 0d34 F7       		.byte	0xf7
 5701 0d35 E70C0000 		.4byte	0xce7
 5702 0d39 04       		.byte	0x4
 5703 0d3a 18       		.uleb128 0x18
 5704 0d3b 73313800 		.ascii	"s18\000"
 5705 0d3f 0C       		.byte	0xc
 5706 0d40 F8       		.byte	0xf8
 5707 0d41 E70C0000 		.4byte	0xce7
 5708 0d45 08       		.byte	0x8
 5709 0d46 18       		.uleb128 0x18
 5710 0d47 73313900 		.ascii	"s19\000"
 5711 0d4b 0C       		.byte	0xc
 5712 0d4c F9       		.byte	0xf9
 5713 0d4d E70C0000 		.4byte	0xce7
 5714 0d51 0C       		.byte	0xc
 5715 0d52 18       		.uleb128 0x18
 5716 0d53 73323000 		.ascii	"s20\000"
 5717 0d57 0C       		.byte	0xc
 5718 0d58 FA       		.byte	0xfa
 5719 0d59 E70C0000 		.4byte	0xce7
 5720 0d5d 10       		.byte	0x10
 5721 0d5e 18       		.uleb128 0x18
 5722 0d5f 73323100 		.ascii	"s21\000"
 5723 0d63 0C       		.byte	0xc
 5724 0d64 FB       		.byte	0xfb
 5725 0d65 E70C0000 		.4byte	0xce7
 5726 0d69 14       		.byte	0x14
 5727 0d6a 18       		.uleb128 0x18
 5728 0d6b 73323200 		.ascii	"s22\000"
 5729 0d6f 0C       		.byte	0xc
 5730 0d70 FC       		.byte	0xfc
 5731 0d71 E70C0000 		.4byte	0xce7
 5732 0d75 18       		.byte	0x18
 5733 0d76 18       		.uleb128 0x18
 5734 0d77 73323300 		.ascii	"s23\000"
 5735 0d7b 0C       		.byte	0xc
 5736 0d7c FD       		.byte	0xfd
 5737 0d7d E70C0000 		.4byte	0xce7
 5738 0d81 1C       		.byte	0x1c
 5739 0d82 18       		.uleb128 0x18
 5740 0d83 73323400 		.ascii	"s24\000"
 5741 0d87 0C       		.byte	0xc
 5742 0d88 FE       		.byte	0xfe
 5743 0d89 E70C0000 		.4byte	0xce7
 5744 0d8d 20       		.byte	0x20
 5745 0d8e 18       		.uleb128 0x18
 5746 0d8f 73323500 		.ascii	"s25\000"
 5747 0d93 0C       		.byte	0xc
 5748 0d94 FF       		.byte	0xff
 5749 0d95 E70C0000 		.4byte	0xce7
 5750 0d99 24       		.byte	0x24
 5751 0d9a 09       		.uleb128 0x9
 5752 0d9b 73323600 		.ascii	"s26\000"
 5753 0d9f 0C       		.byte	0xc
 5754 0da0 0001     		.2byte	0x100
 5755 0da2 E70C0000 		.4byte	0xce7
 5756 0da6 28       		.byte	0x28
ARM GAS  C:\Users\PCHAUT~1\AppData\Local\Temp\ccMxpIDf.s 			page 102


 5757 0da7 09       		.uleb128 0x9
 5758 0da8 73323700 		.ascii	"s27\000"
 5759 0dac 0C       		.byte	0xc
 5760 0dad 0101     		.2byte	0x101
 5761 0daf E70C0000 		.4byte	0xce7
 5762 0db3 2C       		.byte	0x2c
 5763 0db4 09       		.uleb128 0x9
 5764 0db5 73323800 		.ascii	"s28\000"
 5765 0db9 0C       		.byte	0xc
 5766 0dba 0201     		.2byte	0x102
 5767 0dbc E70C0000 		.4byte	0xce7
 5768 0dc0 30       		.byte	0x30
 5769 0dc1 09       		.uleb128 0x9
 5770 0dc2 73323900 		.ascii	"s29\000"
 5771 0dc6 0C       		.byte	0xc
 5772 0dc7 0301     		.2byte	0x103
 5773 0dc9 E70C0000 		.4byte	0xce7
 5774 0dcd 34       		.byte	0x34
 5775 0dce 09       		.uleb128 0x9
 5776 0dcf 73333000 		.ascii	"s30\000"
 5777 0dd3 0C       		.byte	0xc
 5778 0dd4 0401     		.2byte	0x104
 5779 0dd6 E70C0000 		.4byte	0xce7
 5780 0dda 38       		.byte	0x38
 5781 0ddb 09       		.uleb128 0x9
 5782 0ddc 73333100 		.ascii	"s31\000"
 5783 0de0 0C       		.byte	0xc
 5784 0de1 0501     		.2byte	0x105
 5785 0de3 E70C0000 		.4byte	0xce7
 5786 0de7 3C       		.byte	0x3c
 5787 0de8 09       		.uleb128 0x9
 5788 0de9 723400   		.ascii	"r4\000"
 5789 0dec 0C       		.byte	0xc
 5790 0ded 0701     		.2byte	0x107
 5791 0def E70C0000 		.4byte	0xce7
 5792 0df3 40       		.byte	0x40
 5793 0df4 09       		.uleb128 0x9
 5794 0df5 723500   		.ascii	"r5\000"
 5795 0df8 0C       		.byte	0xc
 5796 0df9 0801     		.2byte	0x108
 5797 0dfb E70C0000 		.4byte	0xce7
 5798 0dff 44       		.byte	0x44
 5799 0e00 09       		.uleb128 0x9
 5800 0e01 723600   		.ascii	"r6\000"
 5801 0e04 0C       		.byte	0xc
 5802 0e05 0901     		.2byte	0x109
 5803 0e07 E70C0000 		.4byte	0xce7
 5804 0e0b 48       		.byte	0x48
 5805 0e0c 09       		.uleb128 0x9
 5806 0e0d 723700   		.ascii	"r7\000"
 5807 0e10 0C       		.byte	0xc
 5808 0e11 0A01     		.2byte	0x10a
 5809 0e13 E70C0000 		.4byte	0xce7
 5810 0e17 4C       		.byte	0x4c
 5811 0e18 09       		.uleb128 0x9
 5812 0e19 723800   		.ascii	"r8\000"
 5813 0e1c 0C       		.byte	0xc
ARM GAS  C:\Users\PCHAUT~1\AppData\Local\Temp\ccMxpIDf.s 			page 103


 5814 0e1d 0B01     		.2byte	0x10b
 5815 0e1f E70C0000 		.4byte	0xce7
 5816 0e23 50       		.byte	0x50
 5817 0e24 09       		.uleb128 0x9
 5818 0e25 723900   		.ascii	"r9\000"
 5819 0e28 0C       		.byte	0xc
 5820 0e29 0C01     		.2byte	0x10c
 5821 0e2b E70C0000 		.4byte	0xce7
 5822 0e2f 54       		.byte	0x54
 5823 0e30 09       		.uleb128 0x9
 5824 0e31 72313000 		.ascii	"r10\000"
 5825 0e35 0C       		.byte	0xc
 5826 0e36 0D01     		.2byte	0x10d
 5827 0e38 E70C0000 		.4byte	0xce7
 5828 0e3c 58       		.byte	0x58
 5829 0e3d 09       		.uleb128 0x9
 5830 0e3e 72313100 		.ascii	"r11\000"
 5831 0e42 0C       		.byte	0xc
 5832 0e43 0E01     		.2byte	0x10e
 5833 0e45 E70C0000 		.4byte	0xce7
 5834 0e49 5C       		.byte	0x5c
 5835 0e4a 09       		.uleb128 0x9
 5836 0e4b 6C7200   		.ascii	"lr\000"
 5837 0e4e 0C       		.byte	0xc
 5838 0e4f 0F01     		.2byte	0x10f
 5839 0e51 E70C0000 		.4byte	0xce7
 5840 0e55 60       		.byte	0x60
 5841 0e56 00       		.byte	0
 5842 0e57 0B       		.uleb128 0xb
 5843 0e58 04       		.byte	0x4
 5844 0e59 160D0000 		.4byte	0xd16
 5845 0e5d 17       		.uleb128 0x17
 5846 0e5e 10       		.byte	0x10
 5847 0e5f 0D       		.byte	0xd
 5848 0e60 51       		.byte	0x51
 5849 0e61 960E0000 		.4byte	0xe96
 5850 0e65 08       		.uleb128 0x8
 5851 0e66 421B0000 		.4byte	.LASF189
 5852 0e6a 0D       		.byte	0xd
 5853 0e6b 55       		.byte	0x55
 5854 0e6c AF010000 		.4byte	0x1af
 5855 0e70 00       		.byte	0
 5856 0e71 08       		.uleb128 0x8
 5857 0e72 69160000 		.4byte	.LASF190
 5858 0e76 0D       		.byte	0xd
 5859 0e77 59       		.byte	0x59
 5860 0e78 F3020000 		.4byte	0x2f3
 5861 0e7c 04       		.byte	0x4
 5862 0e7d 08       		.uleb128 0x8
 5863 0e7e C20B0000 		.4byte	.LASF191
 5864 0e82 0D       		.byte	0xd
 5865 0e83 5D       		.byte	0x5d
 5866 0e84 D0030000 		.4byte	0x3d0
 5867 0e88 08       		.byte	0x8
 5868 0e89 08       		.uleb128 0x8
 5869 0e8a D5090000 		.4byte	.LASF192
 5870 0e8e 0D       		.byte	0xd
ARM GAS  C:\Users\PCHAUT~1\AppData\Local\Temp\ccMxpIDf.s 			page 104


 5871 0e8f 61       		.byte	0x61
 5872 0e90 D5000000 		.4byte	0xd5
 5873 0e94 0C       		.byte	0xc
 5874 0e95 00       		.byte	0
 5875 0e96 03       		.uleb128 0x3
 5876 0e97 8E0C0000 		.4byte	.LASF193
 5877 0e9b 0D       		.byte	0xd
 5878 0e9c 62       		.byte	0x62
 5879 0e9d 5D0E0000 		.4byte	0xe5d
 5880 0ea1 1C       		.uleb128 0x1c
 5881 0ea2 0804     		.2byte	0x408
 5882 0ea4 0D       		.byte	0xd
 5883 0ea5 67       		.byte	0x67
 5884 0ea6 CF0E0000 		.4byte	0xecf
 5885 0eaa 08       		.uleb128 0x8
 5886 0eab 3D0D0000 		.4byte	.LASF194
 5887 0eaf 0D       		.byte	0xd
 5888 0eb0 6B       		.byte	0x6b
 5889 0eb1 37000000 		.4byte	0x37
 5890 0eb5 00       		.byte	0
 5891 0eb6 08       		.uleb128 0x8
 5892 0eb7 5C120000 		.4byte	.LASF195
 5893 0ebb 0D       		.byte	0xd
 5894 0ebc 6F       		.byte	0x6f
 5895 0ebd CF0E0000 		.4byte	0xecf
 5896 0ec1 04       		.byte	0x4
 5897 0ec2 08       		.uleb128 0x8
 5898 0ec3 65090000 		.4byte	.LASF196
 5899 0ec7 0D       		.byte	0xd
 5900 0ec8 73       		.byte	0x73
 5901 0ec9 D50E0000 		.4byte	0xed5
 5902 0ecd 08       		.byte	0x8
 5903 0ece 00       		.byte	0
 5904 0ecf 0B       		.uleb128 0xb
 5905 0ed0 04       		.byte	0x4
 5906 0ed1 960E0000 		.4byte	0xe96
 5907 0ed5 13       		.uleb128 0x13
 5908 0ed6 960E0000 		.4byte	0xe96
 5909 0eda E50E0000 		.4byte	0xee5
 5910 0ede 14       		.uleb128 0x14
 5911 0edf 37000000 		.4byte	0x37
 5912 0ee3 3F       		.byte	0x3f
 5913 0ee4 00       		.byte	0
 5914 0ee5 03       		.uleb128 0x3
 5915 0ee6 15000000 		.4byte	.LASF197
 5916 0eea 0D       		.byte	0xd
 5917 0eeb 74       		.byte	0x74
 5918 0eec A10E0000 		.4byte	0xea1
 5919 0ef0 17       		.uleb128 0x17
 5920 0ef1 04       		.byte	0x4
 5921 0ef2 0E       		.byte	0xe
 5922 0ef3 38       		.byte	0x38
 5923 0ef4 050F0000 		.4byte	0xf05
 5924 0ef8 08       		.uleb128 0x8
 5925 0ef9 0B1C0000 		.4byte	.LASF198
 5926 0efd 0E       		.byte	0xe
 5927 0efe 3C       		.byte	0x3c
ARM GAS  C:\Users\PCHAUT~1\AppData\Local\Temp\ccMxpIDf.s 			page 105


 5928 0eff 2B010000 		.4byte	0x12b
 5929 0f03 00       		.byte	0
 5930 0f04 00       		.byte	0
 5931 0f05 03       		.uleb128 0x3
 5932 0f06 A21F0000 		.4byte	.LASF199
 5933 0f0a 0E       		.byte	0xe
 5934 0f0b 3D       		.byte	0x3d
 5935 0f0c F00E0000 		.4byte	0xef0
 5936 0f10 17       		.uleb128 0x17
 5937 0f11 18       		.byte	0x18
 5938 0f12 0E       		.byte	0xe
 5939 0f13 48       		.byte	0x48
 5940 0f14 530F0000 		.4byte	0xf53
 5941 0f18 08       		.uleb128 0x8
 5942 0f19 4F060000 		.4byte	.LASF200
 5943 0f1d 0E       		.byte	0xe
 5944 0f1e 49       		.byte	0x49
 5945 0f1f 2B010000 		.4byte	0x12b
 5946 0f23 00       		.byte	0
 5947 0f24 08       		.uleb128 0x8
 5948 0f25 57010000 		.4byte	.LASF201
 5949 0f29 0E       		.byte	0xe
 5950 0f2a 4A       		.byte	0x4a
 5951 0f2b 2B010000 		.4byte	0x12b
 5952 0f2f 04       		.byte	0x4
 5953 0f30 08       		.uleb128 0x8
 5954 0f31 AB150000 		.4byte	.LASF202
 5955 0f35 0E       		.byte	0xe
 5956 0f36 4B       		.byte	0x4b
 5957 0f37 2B010000 		.4byte	0x12b
 5958 0f3b 08       		.byte	0x8
 5959 0f3c 18       		.uleb128 0x18
 5960 0f3d 6E00     		.ascii	"n\000"
 5961 0f3f 0E       		.byte	0xe
 5962 0f40 4C       		.byte	0x4c
 5963 0f41 A4010000 		.4byte	0x1a4
 5964 0f45 0C       		.byte	0xc
 5965 0f46 08       		.uleb128 0x8
 5966 0f47 64150000 		.4byte	.LASF203
 5967 0f4b 0E       		.byte	0xe
 5968 0f4c 4D       		.byte	0x4d
 5969 0f4d 36010000 		.4byte	0x136
 5970 0f51 10       		.byte	0x10
 5971 0f52 00       		.byte	0
 5972 0f53 03       		.uleb128 0x3
 5973 0f54 361E0000 		.4byte	.LASF204
 5974 0f58 0E       		.byte	0xe
 5975 0f59 4E       		.byte	0x4e
 5976 0f5a 100F0000 		.4byte	0xf10
 5977 0f5e 17       		.uleb128 0x17
 5978 0f5f 38       		.byte	0x38
 5979 0f60 0F       		.byte	0xf
 5980 0f61 38       		.byte	0x38
 5981 0f62 970F0000 		.4byte	0xf97
 5982 0f66 08       		.uleb128 0x8
 5983 0f67 A8050000 		.4byte	.LASF205
 5984 0f6b 0F       		.byte	0xf
ARM GAS  C:\Users\PCHAUT~1\AppData\Local\Temp\ccMxpIDf.s 			page 106


 5985 0f6c 39       		.byte	0x39
 5986 0f6d A4010000 		.4byte	0x1a4
 5987 0f71 00       		.byte	0
 5988 0f72 08       		.uleb128 0x8
 5989 0f73 790A0000 		.4byte	.LASF206
 5990 0f77 0F       		.byte	0xf
 5991 0f78 3A       		.byte	0x3a
 5992 0f79 A4010000 		.4byte	0x1a4
 5993 0f7d 04       		.byte	0x4
 5994 0f7e 08       		.uleb128 0x8
 5995 0f7f D41D0000 		.4byte	.LASF207
 5996 0f83 0F       		.byte	0xf
 5997 0f84 3B       		.byte	0x3b
 5998 0f85 530F0000 		.4byte	0xf53
 5999 0f89 08       		.byte	0x8
 6000 0f8a 08       		.uleb128 0x8
 6001 0f8b 64000000 		.4byte	.LASF208
 6002 0f8f 0F       		.byte	0xf
 6003 0f90 3D       		.byte	0x3d
 6004 0f91 530F0000 		.4byte	0xf53
 6005 0f95 20       		.byte	0x20
 6006 0f96 00       		.byte	0
 6007 0f97 03       		.uleb128 0x3
 6008 0f98 6A040000 		.4byte	.LASF209
 6009 0f9c 0F       		.byte	0xf
 6010 0f9d 3F       		.byte	0x3f
 6011 0f9e 5E0F0000 		.4byte	0xf5e
 6012 0fa2 1D       		.uleb128 0x1d
 6013 0fa3 04       		.byte	0x4
 6014 0fa4 07       		.byte	0x7
 6015 0fa5 FA       		.byte	0xfa
 6016 0fa6 FF0F0000 		.4byte	0xfff
 6017 0faa 1E       		.uleb128 0x1e
 6018 0fab A30E0000 		.4byte	.LASF210
 6019 0faf 07       		.byte	0x7
 6020 0fb0 0101     		.2byte	0x101
 6021 0fb2 78010000 		.4byte	0x178
 6022 0fb6 1E       		.uleb128 0x1e
 6023 0fb7 E3060000 		.4byte	.LASF211
 6024 0fbb 07       		.byte	0x7
 6025 0fbc 0801     		.2byte	0x108
 6026 0fbe 78010000 		.4byte	0x178
 6027 0fc2 1E       		.uleb128 0x1e
 6028 0fc3 1E190000 		.4byte	.LASF212
 6029 0fc7 07       		.byte	0x7
 6030 0fc8 0F01     		.2byte	0x10f
 6031 0fca D0030000 		.4byte	0x3d0
 6032 0fce 1E       		.uleb128 0x1e
 6033 0fcf 7A150000 		.4byte	.LASF213
 6034 0fd3 07       		.byte	0x7
 6035 0fd4 1601     		.2byte	0x116
 6036 0fd6 FF0F0000 		.4byte	0xfff
 6037 0fda 1E       		.uleb128 0x1e
 6038 0fdb F8000000 		.4byte	.LASF214
 6039 0fdf 07       		.byte	0x7
 6040 0fe0 1E01     		.2byte	0x11e
 6041 0fe2 2A100000 		.4byte	0x102a
ARM GAS  C:\Users\PCHAUT~1\AppData\Local\Temp\ccMxpIDf.s 			page 107


 6042 0fe6 1E       		.uleb128 0x1e
 6043 0fe7 67190000 		.4byte	.LASF215
 6044 0feb 07       		.byte	0x7
 6045 0fec 2701     		.2byte	0x127
 6046 0fee 6D100000 		.4byte	0x106d
 6047 0ff2 1E       		.uleb128 0x1e
 6048 0ff3 B61C0000 		.4byte	.LASF216
 6049 0ff7 07       		.byte	0x7
 6050 0ff8 2F01     		.2byte	0x12f
 6051 0ffa 83010000 		.4byte	0x183
 6052 0ffe 00       		.byte	0
 6053 0fff 0B       		.uleb128 0xb
 6054 1000 04       		.byte	0x4
 6055 1001 E8020000 		.4byte	0x2e8
 6056 1005 07       		.uleb128 0x7
 6057 1006 59140000 		.4byte	.LASF217
 6058 100a 0C       		.byte	0xc
 6059 100b 10       		.byte	0x10
 6060 100c 34       		.byte	0x34
 6061 100d 2A100000 		.4byte	0x102a
 6062 1011 08       		.uleb128 0x8
 6063 1012 CC1D0000 		.4byte	.LASF218
 6064 1016 10       		.byte	0x10
 6065 1017 35       		.byte	0x35
 6066 1018 1D030000 		.4byte	0x31d
 6067 101c 00       		.byte	0
 6068 101d 08       		.uleb128 0x8
 6069 101e 77090000 		.4byte	.LASF219
 6070 1022 10       		.byte	0x10
 6071 1023 37       		.byte	0x37
 6072 1024 99010000 		.4byte	0x199
 6073 1028 08       		.byte	0x8
 6074 1029 00       		.byte	0
 6075 102a 0B       		.uleb128 0xb
 6076 102b 04       		.byte	0x4
 6077 102c 05100000 		.4byte	0x1005
 6078 1030 07       		.uleb128 0x7
 6079 1031 170B0000 		.4byte	.LASF220
 6080 1035 14       		.byte	0x14
 6081 1036 11       		.byte	0x11
 6082 1037 39       		.byte	0x39
 6083 1038 6D100000 		.4byte	0x106d
 6084 103c 08       		.uleb128 0x8
 6085 103d 02150000 		.4byte	.LASF221
 6086 1041 11       		.byte	0x11
 6087 1042 3A       		.byte	0x3a
 6088 1043 1D030000 		.4byte	0x31d
 6089 1047 00       		.byte	0
 6090 1048 08       		.uleb128 0x8
 6091 1049 6C130000 		.4byte	.LASF222
 6092 104d 11       		.byte	0x11
 6093 104e 3C       		.byte	0x3c
 6094 104f F3020000 		.4byte	0x2f3
 6095 1053 08       		.byte	0x8
 6096 1054 08       		.uleb128 0x8
 6097 1055 7C010000 		.4byte	.LASF223
 6098 1059 11       		.byte	0x11
ARM GAS  C:\Users\PCHAUT~1\AppData\Local\Temp\ccMxpIDf.s 			page 108


 6099 105a 3E       		.byte	0x3e
 6100 105b C8110000 		.4byte	0x11c8
 6101 105f 0C       		.byte	0xc
 6102 1060 08       		.uleb128 0x8
 6103 1061 5B070000 		.4byte	.LASF224
 6104 1065 11       		.byte	0x11
 6105 1066 41       		.byte	0x41
 6106 1067 99010000 		.4byte	0x199
 6107 106b 10       		.byte	0x10
 6108 106c 00       		.byte	0
 6109 106d 0B       		.uleb128 0xb
 6110 106e 04       		.byte	0x4
 6111 106f 30100000 		.4byte	0x1030
 6112 1073 0B       		.uleb128 0xb
 6113 1074 04       		.byte	0x4
 6114 1075 85100000 		.4byte	0x1085
 6115 1079 06       		.uleb128 0x6
 6116 107a 73100000 		.4byte	0x1073
 6117 107e 04       		.uleb128 0x4
 6118 107f 01       		.byte	0x1
 6119 1080 08       		.byte	0x8
 6120 1081 C6160000 		.4byte	.LASF225
 6121 1085 05       		.uleb128 0x5
 6122 1086 7E100000 		.4byte	0x107e
 6123 108a 0B       		.uleb128 0xb
 6124 108b 04       		.byte	0x4
 6125 108c F20C0000 		.4byte	0xcf2
 6126 1090 0B       		.uleb128 0xb
 6127 1091 04       		.byte	0x4
 6128 1092 D2030000 		.4byte	0x3d2
 6129 1096 13       		.uleb128 0x13
 6130 1097 F20C0000 		.4byte	0xcf2
 6131 109b A6100000 		.4byte	0x10a6
 6132 109f 14       		.uleb128 0x14
 6133 10a0 37000000 		.4byte	0x37
 6134 10a4 30       		.byte	0x30
 6135 10a5 00       		.byte	0
 6136 10a6 1F       		.uleb128 0x1f
 6137 10a7 636800   		.ascii	"ch\000"
 6138 10aa 07       		.byte	0x7
 6139 10ab 0902     		.2byte	0x209
 6140 10ad C7040000 		.4byte	0x4c7
 6141 10b1 17       		.uleb128 0x17
 6142 10b2 16       		.byte	0x16
 6143 10b3 12       		.byte	0x12
 6144 10b4 34       		.byte	0x34
 6145 10b5 92110000 		.4byte	0x1192
 6146 10b9 08       		.uleb128 0x8
 6147 10ba FE1D0000 		.4byte	.LASF226
 6148 10be 12       		.byte	0x12
 6149 10bf 35       		.byte	0x35
 6150 10c0 92110000 		.4byte	0x1192
 6151 10c4 00       		.byte	0
 6152 10c5 08       		.uleb128 0x8
 6153 10c6 EA1F0000 		.4byte	.LASF227
 6154 10ca 12       		.byte	0x12
 6155 10cb 36       		.byte	0x36
ARM GAS  C:\Users\PCHAUT~1\AppData\Local\Temp\ccMxpIDf.s 			page 109


 6156 10cc D5000000 		.4byte	0xd5
 6157 10d0 04       		.byte	0x4
 6158 10d1 08       		.uleb128 0x8
 6159 10d2 94020000 		.4byte	.LASF228
 6160 10d6 12       		.byte	0x12
 6161 10d7 37       		.byte	0x37
 6162 10d8 D5000000 		.4byte	0xd5
 6163 10dc 05       		.byte	0x5
 6164 10dd 08       		.uleb128 0x8
 6165 10de B6130000 		.4byte	.LASF229
 6166 10e2 12       		.byte	0x12
 6167 10e3 38       		.byte	0x38
 6168 10e4 F0000000 		.4byte	0xf0
 6169 10e8 06       		.byte	0x6
 6170 10e9 08       		.uleb128 0x8
 6171 10ea 27000000 		.4byte	.LASF230
 6172 10ee 12       		.byte	0x12
 6173 10ef 39       		.byte	0x39
 6174 10f0 D5000000 		.4byte	0xd5
 6175 10f4 08       		.byte	0x8
 6176 10f5 08       		.uleb128 0x8
 6177 10f6 1F120000 		.4byte	.LASF231
 6178 10fa 12       		.byte	0x12
 6179 10fb 3A       		.byte	0x3a
 6180 10fc D5000000 		.4byte	0xd5
 6181 1100 09       		.byte	0x9
 6182 1101 08       		.uleb128 0x8
 6183 1102 0A200000 		.4byte	.LASF232
 6184 1106 12       		.byte	0x12
 6185 1107 3B       		.byte	0x3b
 6186 1108 D5000000 		.4byte	0xd5
 6187 110c 0A       		.byte	0xa
 6188 110d 08       		.uleb128 0x8
 6189 110e 2A1E0000 		.4byte	.LASF233
 6190 1112 12       		.byte	0x12
 6191 1113 3C       		.byte	0x3c
 6192 1114 D5000000 		.4byte	0xd5
 6193 1118 0B       		.byte	0xb
 6194 1119 08       		.uleb128 0x8
 6195 111a AE040000 		.4byte	.LASF234
 6196 111e 12       		.byte	0x12
 6197 111f 3D       		.byte	0x3d
 6198 1120 D5000000 		.4byte	0xd5
 6199 1124 0C       		.byte	0xc
 6200 1125 08       		.uleb128 0x8
 6201 1126 7E0B0000 		.4byte	.LASF235
 6202 112a 12       		.byte	0x12
 6203 112b 3E       		.byte	0x3e
 6204 112c D5000000 		.4byte	0xd5
 6205 1130 0D       		.byte	0xd
 6206 1131 08       		.uleb128 0x8
 6207 1132 F8040000 		.4byte	.LASF236
 6208 1136 12       		.byte	0x12
 6209 1137 3F       		.byte	0x3f
 6210 1138 D5000000 		.4byte	0xd5
 6211 113c 0E       		.byte	0xe
 6212 113d 08       		.uleb128 0x8
ARM GAS  C:\Users\PCHAUT~1\AppData\Local\Temp\ccMxpIDf.s 			page 110


 6213 113e F00C0000 		.4byte	.LASF237
 6214 1142 12       		.byte	0x12
 6215 1143 40       		.byte	0x40
 6216 1144 D5000000 		.4byte	0xd5
 6217 1148 0F       		.byte	0xf
 6218 1149 08       		.uleb128 0x8
 6219 114a 60030000 		.4byte	.LASF238
 6220 114e 12       		.byte	0x12
 6221 114f 41       		.byte	0x41
 6222 1150 D5000000 		.4byte	0xd5
 6223 1154 10       		.byte	0x10
 6224 1155 08       		.uleb128 0x8
 6225 1156 6B070000 		.4byte	.LASF239
 6226 115a 12       		.byte	0x12
 6227 115b 43       		.byte	0x43
 6228 115c D5000000 		.4byte	0xd5
 6229 1160 11       		.byte	0x11
 6230 1161 08       		.uleb128 0x8
 6231 1162 6B020000 		.4byte	.LASF240
 6232 1166 12       		.byte	0x12
 6233 1167 44       		.byte	0x44
 6234 1168 D5000000 		.4byte	0xd5
 6235 116c 12       		.byte	0x12
 6236 116d 08       		.uleb128 0x8
 6237 116e 56130000 		.4byte	.LASF241
 6238 1172 12       		.byte	0x12
 6239 1173 45       		.byte	0x45
 6240 1174 D5000000 		.4byte	0xd5
 6241 1178 13       		.byte	0x13
 6242 1179 08       		.uleb128 0x8
 6243 117a 89180000 		.4byte	.LASF242
 6244 117e 12       		.byte	0x12
 6245 117f 46       		.byte	0x46
 6246 1180 D5000000 		.4byte	0xd5
 6247 1184 14       		.byte	0x14
 6248 1185 08       		.uleb128 0x8
 6249 1186 D6000000 		.4byte	.LASF243
 6250 118a 12       		.byte	0x12
 6251 118b 48       		.byte	0x48
 6252 118c D5000000 		.4byte	0xd5
 6253 1190 15       		.byte	0x15
 6254 1191 00       		.byte	0
 6255 1192 13       		.uleb128 0x13
 6256 1193 7E100000 		.4byte	0x107e
 6257 1197 A2110000 		.4byte	0x11a2
 6258 119b 14       		.uleb128 0x14
 6259 119c 37000000 		.4byte	0x37
 6260 11a0 03       		.byte	0x3
 6261 11a1 00       		.byte	0
 6262 11a2 03       		.uleb128 0x3
 6263 11a3 A6110000 		.4byte	.LASF244
 6264 11a7 12       		.byte	0x12
 6265 11a8 49       		.byte	0x49
 6266 11a9 B1100000 		.4byte	0x10b1
 6267 11ad 05       		.uleb128 0x5
 6268 11ae A2110000 		.4byte	0x11a2
 6269 11b2 16       		.uleb128 0x16
ARM GAS  C:\Users\PCHAUT~1\AppData\Local\Temp\ccMxpIDf.s 			page 111


 6270 11b3 820A0000 		.4byte	.LASF245
 6271 11b7 12       		.byte	0x12
 6272 11b8 6E       		.byte	0x6e
 6273 11b9 AD110000 		.4byte	0x11ad
 6274 11bd 03       		.uleb128 0x3
 6275 11be 791A0000 		.4byte	.LASF246
 6276 11c2 11       		.byte	0x11
 6277 11c3 34       		.byte	0x34
 6278 11c4 30100000 		.4byte	0x1030
 6279 11c8 0B       		.uleb128 0xb
 6280 11c9 04       		.byte	0x4
 6281 11ca BD110000 		.4byte	0x11bd
 6282 11ce 03       		.uleb128 0x3
 6283 11cf C80A0000 		.4byte	.LASF247
 6284 11d3 13       		.byte	0x13
 6285 11d4 34       		.byte	0x34
 6286 11d5 D9110000 		.4byte	0x11d9
 6287 11d9 07       		.uleb128 0x7
 6288 11da 81200000 		.4byte	.LASF248
 6289 11de 14       		.byte	0x14
 6290 11df 13       		.byte	0x13
 6291 11e0 39       		.byte	0x39
 6292 11e1 22120000 		.4byte	0x1222
 6293 11e5 08       		.uleb128 0x8
 6294 11e6 E5010000 		.4byte	.LASF249
 6295 11ea 13       		.byte	0x13
 6296 11eb 3A       		.byte	0x3a
 6297 11ec 22120000 		.4byte	0x1222
 6298 11f0 00       		.byte	0
 6299 11f1 08       		.uleb128 0x8
 6300 11f2 731B0000 		.4byte	.LASF250
 6301 11f6 13       		.byte	0x13
 6302 11f7 3D       		.byte	0x3d
 6303 11f8 F3020000 		.4byte	0x2f3
 6304 11fc 04       		.byte	0x4
 6305 11fd 08       		.uleb128 0x8
 6306 11fe F3020000 		.4byte	.LASF251
 6307 1202 13       		.byte	0x13
 6308 1203 3F       		.byte	0x3f
 6309 1204 83010000 		.4byte	0x183
 6310 1208 08       		.byte	0x8
 6311 1209 08       		.uleb128 0x8
 6312 120a BD1C0000 		.4byte	.LASF252
 6313 120e 13       		.byte	0x13
 6314 120f 41       		.byte	0x41
 6315 1210 8E010000 		.4byte	0x18e
 6316 1214 0C       		.byte	0xc
 6317 1215 08       		.uleb128 0x8
 6318 1216 290D0000 		.4byte	.LASF253
 6319 121a 13       		.byte	0x13
 6320 121b 43       		.byte	0x43
 6321 121c 8E010000 		.4byte	0x18e
 6322 1220 10       		.byte	0x10
 6323 1221 00       		.byte	0
 6324 1222 0B       		.uleb128 0xb
 6325 1223 04       		.byte	0x4
 6326 1224 CE110000 		.4byte	0x11ce
ARM GAS  C:\Users\PCHAUT~1\AppData\Local\Temp\ccMxpIDf.s 			page 112


 6327 1228 07       		.uleb128 0x7
 6328 1229 C61C0000 		.4byte	.LASF254
 6329 122d 04       		.byte	0x4
 6330 122e 13       		.byte	0x13
 6331 122f 4A       		.byte	0x4a
 6332 1230 41120000 		.4byte	0x1241
 6333 1234 08       		.uleb128 0x8
 6334 1235 251C0000 		.4byte	.LASF255
 6335 1239 13       		.byte	0x13
 6336 123a 4B       		.byte	0x4b
 6337 123b 22120000 		.4byte	0x1222
 6338 123f 00       		.byte	0
 6339 1240 00       		.byte	0
 6340 1241 03       		.uleb128 0x3
 6341 1242 3B120000 		.4byte	.LASF256
 6342 1246 13       		.byte	0x13
 6343 1247 4E       		.byte	0x4e
 6344 1248 28120000 		.4byte	0x1228
 6345 124c 03       		.uleb128 0x3
 6346 124d 610D0000 		.4byte	.LASF257
 6347 1251 14       		.byte	0x14
 6348 1252 3F       		.byte	0x3f
 6349 1253 57120000 		.4byte	0x1257
 6350 1257 07       		.uleb128 0x7
 6351 1258 0F0F0000 		.4byte	.LASF258
 6352 125c 24       		.byte	0x24
 6353 125d 14       		.byte	0x14
 6354 125e 4D       		.byte	0x4d
 6355 125f C4120000 		.4byte	0x12c4
 6356 1263 08       		.uleb128 0x8
 6357 1264 79040000 		.4byte	.LASF259
 6358 1268 14       		.byte	0x14
 6359 1269 4E       		.byte	0x4e
 6360 126a 1D030000 		.4byte	0x31d
 6361 126e 00       		.byte	0
 6362 126f 08       		.uleb128 0x8
 6363 1270 2F1A0000 		.4byte	.LASF260
 6364 1274 14       		.byte	0x14
 6365 1275 4F       		.byte	0x4f
 6366 1276 2C000000 		.4byte	0x2c
 6367 127a 08       		.byte	0x8
 6368 127b 08       		.uleb128 0x8
 6369 127c D20F0000 		.4byte	.LASF261
 6370 1280 14       		.byte	0x14
 6371 1281 50       		.byte	0x50
 6372 1282 E6120000 		.4byte	0x12e6
 6373 1286 0C       		.byte	0xc
 6374 1287 08       		.uleb128 0x8
 6375 1288 C1030000 		.4byte	.LASF262
 6376 128c 14       		.byte	0x14
 6377 128d 51       		.byte	0x51
 6378 128e E6120000 		.4byte	0x12e6
 6379 1292 10       		.byte	0x10
 6380 1293 08       		.uleb128 0x8
 6381 1294 6F160000 		.4byte	.LASF263
 6382 1298 14       		.byte	0x14
 6383 1299 53       		.byte	0x53
ARM GAS  C:\Users\PCHAUT~1\AppData\Local\Temp\ccMxpIDf.s 			page 113


 6384 129a E6120000 		.4byte	0x12e6
 6385 129e 14       		.byte	0x14
 6386 129f 08       		.uleb128 0x8
 6387 12a0 80150000 		.4byte	.LASF264
 6388 12a4 14       		.byte	0x14
 6389 12a5 54       		.byte	0x54
 6390 12a6 E6120000 		.4byte	0x12e6
 6391 12aa 18       		.byte	0x18
 6392 12ab 08       		.uleb128 0x8
 6393 12ac 5E190000 		.4byte	.LASF265
 6394 12b0 14       		.byte	0x14
 6395 12b1 55       		.byte	0x55
 6396 12b2 C4120000 		.4byte	0x12c4
 6397 12b6 1C       		.byte	0x1c
 6398 12b7 08       		.uleb128 0x8
 6399 12b8 2F170000 		.4byte	.LASF266
 6400 12bc 14       		.byte	0x14
 6401 12bd 56       		.byte	0x56
 6402 12be D0030000 		.4byte	0x3d0
 6403 12c2 20       		.byte	0x20
 6404 12c3 00       		.byte	0
 6405 12c4 03       		.uleb128 0x3
 6406 12c5 99030000 		.4byte	.LASF267
 6407 12c9 14       		.byte	0x14
 6408 12ca 42       		.byte	0x42
 6409 12cb CF120000 		.4byte	0x12cf
 6410 12cf 0B       		.uleb128 0xb
 6411 12d0 04       		.byte	0x4
 6412 12d1 D5120000 		.4byte	0x12d5
 6413 12d5 0D       		.uleb128 0xd
 6414 12d6 E0120000 		.4byte	0x12e0
 6415 12da 0E       		.uleb128 0xe
 6416 12db E0120000 		.4byte	0x12e0
 6417 12df 00       		.byte	0
 6418 12e0 0B       		.uleb128 0xb
 6419 12e1 04       		.byte	0x4
 6420 12e2 4C120000 		.4byte	0x124c
 6421 12e6 0B       		.uleb128 0xb
 6422 12e7 04       		.byte	0x4
 6423 12e8 D5000000 		.4byte	0xd5
 6424 12ec 03       		.uleb128 0x3
 6425 12ed B9040000 		.4byte	.LASF268
 6426 12f1 14       		.byte	0x14
 6427 12f2 64       		.byte	0x64
 6428 12f3 4C120000 		.4byte	0x124c
 6429 12f7 03       		.uleb128 0x3
 6430 12f8 BE200000 		.4byte	.LASF269
 6431 12fc 14       		.byte	0x14
 6432 12fd 71       		.byte	0x71
 6433 12fe 4C120000 		.4byte	0x124c
 6434 1302 20       		.uleb128 0x20
 6435 1303 2C000000 		.4byte	0x2c
 6436 1307 1B130000 		.4byte	0x131b
 6437 130b 0E       		.uleb128 0xe
 6438 130c D0030000 		.4byte	0x3d0
 6439 1310 0E       		.uleb128 0xe
 6440 1311 1B130000 		.4byte	0x131b
ARM GAS  C:\Users\PCHAUT~1\AppData\Local\Temp\ccMxpIDf.s 			page 114


 6441 1315 0E       		.uleb128 0xe
 6442 1316 2C000000 		.4byte	0x2c
 6443 131a 00       		.byte	0
 6444 131b 0B       		.uleb128 0xb
 6445 131c 04       		.byte	0x4
 6446 131d E0000000 		.4byte	0xe0
 6447 1321 0B       		.uleb128 0xb
 6448 1322 04       		.byte	0x4
 6449 1323 02130000 		.4byte	0x1302
 6450 1327 20       		.uleb128 0x20
 6451 1328 2C000000 		.4byte	0x2c
 6452 132c 40130000 		.4byte	0x1340
 6453 1330 0E       		.uleb128 0xe
 6454 1331 D0030000 		.4byte	0x3d0
 6455 1335 0E       		.uleb128 0xe
 6456 1336 E6120000 		.4byte	0x12e6
 6457 133a 0E       		.uleb128 0xe
 6458 133b 2C000000 		.4byte	0x2c
 6459 133f 00       		.byte	0
 6460 1340 0B       		.uleb128 0xb
 6461 1341 04       		.byte	0x4
 6462 1342 27130000 		.4byte	0x1327
 6463 1346 20       		.uleb128 0x20
 6464 1347 78010000 		.4byte	0x178
 6465 134b 5A130000 		.4byte	0x135a
 6466 134f 0E       		.uleb128 0xe
 6467 1350 D0030000 		.4byte	0x3d0
 6468 1354 0E       		.uleb128 0xe
 6469 1355 D5000000 		.4byte	0xd5
 6470 1359 00       		.byte	0
 6471 135a 0B       		.uleb128 0xb
 6472 135b 04       		.byte	0x4
 6473 135c 46130000 		.4byte	0x1346
 6474 1360 20       		.uleb128 0x20
 6475 1361 78010000 		.4byte	0x178
 6476 1365 6F130000 		.4byte	0x136f
 6477 1369 0E       		.uleb128 0xe
 6478 136a D0030000 		.4byte	0x3d0
 6479 136e 00       		.byte	0
 6480 136f 0B       		.uleb128 0xb
 6481 1370 04       		.byte	0x4
 6482 1371 60130000 		.4byte	0x1360
 6483 1375 17       		.uleb128 0x17
 6484 1376 0C       		.byte	0xc
 6485 1377 15       		.byte	0x15
 6486 1378 DA       		.byte	0xda
 6487 1379 BA130000 		.4byte	0x13ba
 6488 137d 08       		.uleb128 0x8
 6489 137e 68200000 		.4byte	.LASF270
 6490 1382 15       		.byte	0x15
 6491 1383 DB       		.byte	0xdb
 6492 1384 BA130000 		.4byte	0x13ba
 6493 1388 00       		.byte	0
 6494 1389 08       		.uleb128 0x8
 6495 138a 7E0E0000 		.4byte	.LASF271
 6496 138e 15       		.byte	0x15
 6497 138f DC       		.byte	0xdc
ARM GAS  C:\Users\PCHAUT~1\AppData\Local\Temp\ccMxpIDf.s 			page 115


 6498 1390 C0130000 		.4byte	0x13c0
 6499 1394 04       		.byte	0x4
 6500 1395 08       		.uleb128 0x8
 6501 1396 AE030000 		.4byte	.LASF272
 6502 139a 15       		.byte	0x15
 6503 139b DD       		.byte	0xdd
 6504 139c D5000000 		.4byte	0xd5
 6505 13a0 08       		.byte	0x8
 6506 13a1 08       		.uleb128 0x8
 6507 13a2 6F1A0000 		.4byte	.LASF273
 6508 13a6 15       		.byte	0x15
 6509 13a7 DF       		.byte	0xdf
 6510 13a8 D5000000 		.4byte	0xd5
 6511 13ac 09       		.byte	0x9
 6512 13ad 08       		.uleb128 0x8
 6513 13ae 2B030000 		.4byte	.LASF274
 6514 13b2 15       		.byte	0x15
 6515 13b3 E0       		.byte	0xe0
 6516 13b4 D5000000 		.4byte	0xd5
 6517 13b8 0A       		.byte	0xa
 6518 13b9 00       		.byte	0
 6519 13ba 0B       		.uleb128 0xb
 6520 13bb 04       		.byte	0x4
 6521 13bc E3090000 		.4byte	0x9e3
 6522 13c0 0B       		.uleb128 0xb
 6523 13c1 04       		.byte	0x4
 6524 13c2 16010000 		.4byte	0x116
 6525 13c6 03       		.uleb128 0x3
 6526 13c7 CD100000 		.4byte	.LASF275
 6527 13cb 15       		.byte	0x15
 6528 13cc E1       		.byte	0xe1
 6529 13cd 75130000 		.4byte	0x1375
 6530 13d1 05       		.uleb128 0x5
 6531 13d2 C6130000 		.4byte	0x13c6
 6532 13d6 13       		.uleb128 0x13
 6533 13d7 D1130000 		.4byte	0x13d1
 6534 13db E6130000 		.4byte	0x13e6
 6535 13df 14       		.uleb128 0x14
 6536 13e0 37000000 		.4byte	0x37
 6537 13e4 0F       		.byte	0xf
 6538 13e5 00       		.byte	0
 6539 13e6 05       		.uleb128 0x5
 6540 13e7 D6130000 		.4byte	0x13d6
 6541 13eb 15       		.uleb128 0x15
 6542 13ec 9B170000 		.4byte	.LASF276
 6543 13f0 15       		.byte	0x15
 6544 13f1 BB01     		.2byte	0x1bb
 6545 13f3 E6130000 		.4byte	0x13e6
 6546 13f7 20       		.uleb128 0x20
 6547 13f8 78010000 		.4byte	0x178
 6548 13fc 10140000 		.4byte	0x1410
 6549 1400 0E       		.uleb128 0xe
 6550 1401 D0030000 		.4byte	0x3d0
 6551 1405 0E       		.uleb128 0xe
 6552 1406 D5000000 		.4byte	0xd5
 6553 140a 0E       		.uleb128 0xe
 6554 140b AF010000 		.4byte	0x1af
ARM GAS  C:\Users\PCHAUT~1\AppData\Local\Temp\ccMxpIDf.s 			page 116


 6555 140f 00       		.byte	0
 6556 1410 0B       		.uleb128 0xb
 6557 1411 04       		.byte	0x4
 6558 1412 F7130000 		.4byte	0x13f7
 6559 1416 20       		.uleb128 0x20
 6560 1417 78010000 		.4byte	0x178
 6561 141b 2A140000 		.4byte	0x142a
 6562 141f 0E       		.uleb128 0xe
 6563 1420 D0030000 		.4byte	0x3d0
 6564 1424 0E       		.uleb128 0xe
 6565 1425 AF010000 		.4byte	0x1af
 6566 1429 00       		.byte	0
 6567 142a 0B       		.uleb128 0xb
 6568 142b 04       		.byte	0x4
 6569 142c 16140000 		.4byte	0x1416
 6570 1430 20       		.uleb128 0x20
 6571 1431 2C000000 		.4byte	0x2c
 6572 1435 4E140000 		.4byte	0x144e
 6573 1439 0E       		.uleb128 0xe
 6574 143a D0030000 		.4byte	0x3d0
 6575 143e 0E       		.uleb128 0xe
 6576 143f 1B130000 		.4byte	0x131b
 6577 1443 0E       		.uleb128 0xe
 6578 1444 2C000000 		.4byte	0x2c
 6579 1448 0E       		.uleb128 0xe
 6580 1449 AF010000 		.4byte	0x1af
 6581 144d 00       		.byte	0
 6582 144e 0B       		.uleb128 0xb
 6583 144f 04       		.byte	0x4
 6584 1450 30140000 		.4byte	0x1430
 6585 1454 20       		.uleb128 0x20
 6586 1455 2C000000 		.4byte	0x2c
 6587 1459 72140000 		.4byte	0x1472
 6588 145d 0E       		.uleb128 0xe
 6589 145e D0030000 		.4byte	0x3d0
 6590 1462 0E       		.uleb128 0xe
 6591 1463 E6120000 		.4byte	0x12e6
 6592 1467 0E       		.uleb128 0xe
 6593 1468 2C000000 		.4byte	0x2c
 6594 146c 0E       		.uleb128 0xe
 6595 146d AF010000 		.4byte	0x1af
 6596 1471 00       		.byte	0
 6597 1472 0B       		.uleb128 0xb
 6598 1473 04       		.byte	0x4
 6599 1474 54140000 		.4byte	0x1454
 6600 1478 21       		.uleb128 0x21
 6601 1479 07       		.byte	0x7
 6602 147a 01       		.byte	0x1
 6603 147b 69000000 		.4byte	0x69
 6604 147f 16       		.byte	0x16
 6605 1480 28       		.byte	0x28
 6606 1481 BC140000 		.4byte	0x14bc
 6607 1485 22       		.uleb128 0x22
 6608 1486 3B010000 		.4byte	.LASF277
 6609 148a 00       		.byte	0
 6610 148b 22       		.uleb128 0x22
 6611 148c E60D0000 		.4byte	.LASF278
ARM GAS  C:\Users\PCHAUT~1\AppData\Local\Temp\ccMxpIDf.s 			page 117


 6612 1490 01       		.byte	0x1
 6613 1491 22       		.uleb128 0x22
 6614 1492 BD0A0000 		.4byte	.LASF279
 6615 1496 02       		.byte	0x2
 6616 1497 22       		.uleb128 0x22
 6617 1498 C4180000 		.4byte	.LASF280
 6618 149c 03       		.byte	0x3
 6619 149d 22       		.uleb128 0x22
 6620 149e 451F0000 		.4byte	.LASF281
 6621 14a2 04       		.byte	0x4
 6622 14a3 22       		.uleb128 0x22
 6623 14a4 83060000 		.4byte	.LASF282
 6624 14a8 05       		.byte	0x5
 6625 14a9 22       		.uleb128 0x22
 6626 14aa 4F1A0000 		.4byte	.LASF283
 6627 14ae 06       		.byte	0x6
 6628 14af 22       		.uleb128 0x22
 6629 14b0 E1150000 		.4byte	.LASF284
 6630 14b4 07       		.byte	0x7
 6631 14b5 22       		.uleb128 0x22
 6632 14b6 0C1F0000 		.4byte	.LASF285
 6633 14ba 08       		.byte	0x8
 6634 14bb 00       		.byte	0
 6635 14bc 03       		.uleb128 0x3
 6636 14bd AD140000 		.4byte	.LASF286
 6637 14c1 16       		.byte	0x16
 6638 14c2 32       		.byte	0x32
 6639 14c3 78140000 		.4byte	0x1478
 6640 14c7 17       		.uleb128 0x17
 6641 14c8 08       		.byte	0x8
 6642 14c9 16       		.byte	0x16
 6643 14ca 37       		.byte	0x37
 6644 14cb E8140000 		.4byte	0x14e8
 6645 14cf 08       		.uleb128 0x8
 6646 14d0 26060000 		.4byte	.LASF287
 6647 14d4 16       		.byte	0x16
 6648 14d5 38       		.byte	0x38
 6649 14d6 0B010000 		.4byte	0x10b
 6650 14da 00       		.byte	0
 6651 14db 08       		.uleb128 0x8
 6652 14dc 90190000 		.4byte	.LASF288
 6653 14e0 16       		.byte	0x16
 6654 14e1 39       		.byte	0x39
 6655 14e2 0B010000 		.4byte	0x10b
 6656 14e6 04       		.byte	0x4
 6657 14e7 00       		.byte	0
 6658 14e8 03       		.uleb128 0x3
 6659 14e9 D71B0000 		.4byte	.LASF289
 6660 14ed 16       		.byte	0x16
 6661 14ee 3A       		.byte	0x3a
 6662 14ef C7140000 		.4byte	0x14c7
 6663 14f3 20       		.uleb128 0x20
 6664 14f4 02150000 		.4byte	0x1502
 6665 14f8 02150000 		.4byte	0x1502
 6666 14fc 0E       		.uleb128 0xe
 6667 14fd D0030000 		.4byte	0x3d0
 6668 1501 00       		.byte	0
ARM GAS  C:\Users\PCHAUT~1\AppData\Local\Temp\ccMxpIDf.s 			page 118


 6669 1502 04       		.uleb128 0x4
 6670 1503 01       		.byte	0x1
 6671 1504 02       		.byte	0x2
 6672 1505 FF000000 		.4byte	.LASF290
 6673 1509 0B       		.uleb128 0xb
 6674 150a 04       		.byte	0x4
 6675 150b F3140000 		.4byte	0x14f3
 6676 150f 20       		.uleb128 0x20
 6677 1510 02150000 		.4byte	0x1502
 6678 1514 2D150000 		.4byte	0x152d
 6679 1518 0E       		.uleb128 0xe
 6680 1519 D0030000 		.4byte	0x3d0
 6681 151d 0E       		.uleb128 0xe
 6682 151e 0B010000 		.4byte	0x10b
 6683 1522 0E       		.uleb128 0xe
 6684 1523 E6120000 		.4byte	0x12e6
 6685 1527 0E       		.uleb128 0xe
 6686 1528 0B010000 		.4byte	0x10b
 6687 152c 00       		.byte	0
 6688 152d 0B       		.uleb128 0xb
 6689 152e 04       		.byte	0x4
 6690 152f 0F150000 		.4byte	0x150f
 6691 1533 20       		.uleb128 0x20
 6692 1534 02150000 		.4byte	0x1502
 6693 1538 51150000 		.4byte	0x1551
 6694 153c 0E       		.uleb128 0xe
 6695 153d D0030000 		.4byte	0x3d0
 6696 1541 0E       		.uleb128 0xe
 6697 1542 0B010000 		.4byte	0x10b
 6698 1546 0E       		.uleb128 0xe
 6699 1547 1B130000 		.4byte	0x131b
 6700 154b 0E       		.uleb128 0xe
 6701 154c 0B010000 		.4byte	0x10b
 6702 1550 00       		.byte	0
 6703 1551 0B       		.uleb128 0xb
 6704 1552 04       		.byte	0x4
 6705 1553 33150000 		.4byte	0x1533
 6706 1557 20       		.uleb128 0x20
 6707 1558 02150000 		.4byte	0x1502
 6708 155c 6B150000 		.4byte	0x156b
 6709 1560 0E       		.uleb128 0xe
 6710 1561 D0030000 		.4byte	0x3d0
 6711 1565 0E       		.uleb128 0xe
 6712 1566 6B150000 		.4byte	0x156b
 6713 156a 00       		.byte	0
 6714 156b 0B       		.uleb128 0xb
 6715 156c 04       		.byte	0x4
 6716 156d E8140000 		.4byte	0x14e8
 6717 1571 0B       		.uleb128 0xb
 6718 1572 04       		.byte	0x4
 6719 1573 57150000 		.4byte	0x1557
 6720 1577 13       		.uleb128 0x13
 6721 1578 0B010000 		.4byte	0x10b
 6722 157c 87150000 		.4byte	0x1587
 6723 1580 14       		.uleb128 0x14
 6724 1581 37000000 		.4byte	0x37
 6725 1585 03       		.byte	0x3
ARM GAS  C:\Users\PCHAUT~1\AppData\Local\Temp\ccMxpIDf.s 			page 119


 6726 1586 00       		.byte	0
 6727 1587 17       		.uleb128 0x17
 6728 1588 04       		.byte	0x4
 6729 1589 17       		.byte	0x17
 6730 158a B3       		.byte	0xb3
 6731 158b A8150000 		.4byte	0x15a8
 6732 158f 18       		.uleb128 0x18
 6733 1590 73657400 		.ascii	"set\000"
 6734 1594 17       		.byte	0x17
 6735 1595 B4       		.byte	0xb4
 6736 1596 F0000000 		.4byte	0xf0
 6737 159a 00       		.byte	0
 6738 159b 08       		.uleb128 0x8
 6739 159c 770C0000 		.4byte	.LASF291
 6740 15a0 17       		.byte	0x17
 6741 15a1 B5       		.byte	0xb5
 6742 15a2 F0000000 		.4byte	0xf0
 6743 15a6 02       		.byte	0x2
 6744 15a7 00       		.byte	0
 6745 15a8 1D       		.uleb128 0x1d
 6746 15a9 04       		.byte	0x4
 6747 15aa 17       		.byte	0x17
 6748 15ab B1       		.byte	0xb1
 6749 15ac C3150000 		.4byte	0x15c3
 6750 15b0 23       		.uleb128 0x23
 6751 15b1 5700     		.ascii	"W\000"
 6752 15b3 17       		.byte	0x17
 6753 15b4 B2       		.byte	0xb2
 6754 15b5 0B010000 		.4byte	0x10b
 6755 15b9 23       		.uleb128 0x23
 6756 15ba 4800     		.ascii	"H\000"
 6757 15bc 17       		.byte	0x17
 6758 15bd B6       		.byte	0xb6
 6759 15be 87150000 		.4byte	0x1587
 6760 15c2 00       		.byte	0
 6761 15c3 06       		.uleb128 0x6
 6762 15c4 A8150000 		.4byte	0x15a8
 6763 15c8 17       		.uleb128 0x17
 6764 15c9 2C       		.byte	0x2c
 6765 15ca 17       		.byte	0x17
 6766 15cb A9       		.byte	0xa9
 6767 15cc 55160000 		.4byte	0x1655
 6768 15d0 08       		.uleb128 0x8
 6769 15d1 8C1A0000 		.4byte	.LASF292
 6770 15d5 17       		.byte	0x17
 6771 15d6 AB       		.byte	0xab
 6772 15d7 16010000 		.4byte	0x116
 6773 15db 00       		.byte	0
 6774 15dc 08       		.uleb128 0x8
 6775 15dd AB020000 		.4byte	.LASF293
 6776 15e1 17       		.byte	0x17
 6777 15e2 AC       		.byte	0xac
 6778 15e3 16010000 		.4byte	0x116
 6779 15e7 04       		.byte	0x4
 6780 15e8 08       		.uleb128 0x8
 6781 15e9 B90D0000 		.4byte	.LASF294
 6782 15ed 17       		.byte	0x17
ARM GAS  C:\Users\PCHAUT~1\AppData\Local\Temp\ccMxpIDf.s 			page 120


 6783 15ee AD       		.byte	0xad
 6784 15ef 16010000 		.4byte	0x116
 6785 15f3 08       		.byte	0x8
 6786 15f4 08       		.uleb128 0x8
 6787 15f5 E3190000 		.4byte	.LASF295
 6788 15f9 17       		.byte	0x17
 6789 15fa AE       		.byte	0xae
 6790 15fb 16010000 		.4byte	0x116
 6791 15ff 0C       		.byte	0xc
 6792 1600 18       		.uleb128 0x18
 6793 1601 49445200 		.ascii	"IDR\000"
 6794 1605 17       		.byte	0x17
 6795 1606 AF       		.byte	0xaf
 6796 1607 16010000 		.4byte	0x116
 6797 160b 10       		.byte	0x10
 6798 160c 18       		.uleb128 0x18
 6799 160d 4F445200 		.ascii	"ODR\000"
 6800 1611 17       		.byte	0x17
 6801 1612 B0       		.byte	0xb0
 6802 1613 16010000 		.4byte	0x116
 6803 1617 14       		.byte	0x14
 6804 1618 08       		.uleb128 0x8
 6805 1619 C8100000 		.4byte	.LASF296
 6806 161d 17       		.byte	0x17
 6807 161e B7       		.byte	0xb7
 6808 161f C3150000 		.4byte	0x15c3
 6809 1623 18       		.byte	0x18
 6810 1624 08       		.uleb128 0x8
 6811 1625 BE150000 		.4byte	.LASF297
 6812 1629 17       		.byte	0x17
 6813 162a B8       		.byte	0xb8
 6814 162b 16010000 		.4byte	0x116
 6815 162f 1C       		.byte	0x1c
 6816 1630 08       		.uleb128 0x8
 6817 1631 6C180000 		.4byte	.LASF298
 6818 1635 17       		.byte	0x17
 6819 1636 B9       		.byte	0xb9
 6820 1637 16010000 		.4byte	0x116
 6821 163b 20       		.byte	0x20
 6822 163c 08       		.uleb128 0x8
 6823 163d 67180000 		.4byte	.LASF299
 6824 1641 17       		.byte	0x17
 6825 1642 BA       		.byte	0xba
 6826 1643 16010000 		.4byte	0x116
 6827 1647 24       		.byte	0x24
 6828 1648 18       		.uleb128 0x18
 6829 1649 42525200 		.ascii	"BRR\000"
 6830 164d 17       		.byte	0x17
 6831 164e BB       		.byte	0xbb
 6832 164f 16010000 		.4byte	0x116
 6833 1653 28       		.byte	0x28
 6834 1654 00       		.byte	0
 6835 1655 03       		.uleb128 0x3
 6836 1656 960E0000 		.4byte	.LASF300
 6837 165a 17       		.byte	0x17
 6838 165b BC       		.byte	0xbc
 6839 165c C8150000 		.4byte	0x15c8
ARM GAS  C:\Users\PCHAUT~1\AppData\Local\Temp\ccMxpIDf.s 			page 121


 6840 1660 17       		.uleb128 0x17
 6841 1661 1C       		.byte	0x1c
 6842 1662 17       		.byte	0x17
 6843 1663 C1       		.byte	0xc1
 6844 1664 BD160000 		.4byte	0x16bd
 6845 1668 08       		.uleb128 0x8
 6846 1669 C61D0000 		.4byte	.LASF301
 6847 166d 17       		.byte	0x17
 6848 166e C3       		.byte	0xc3
 6849 166f 0B010000 		.4byte	0x10b
 6850 1673 00       		.byte	0
 6851 1674 08       		.uleb128 0x8
 6852 1675 A4020000 		.4byte	.LASF302
 6853 1679 17       		.byte	0x17
 6854 167a C5       		.byte	0xc5
 6855 167b 0B010000 		.4byte	0x10b
 6856 167f 04       		.byte	0x4
 6857 1680 08       		.uleb128 0x8
 6858 1681 D5010000 		.4byte	.LASF303
 6859 1685 17       		.byte	0x17
 6860 1686 C7       		.byte	0xc7
 6861 1687 0B010000 		.4byte	0x10b
 6862 168b 08       		.byte	0x8
 6863 168c 08       		.uleb128 0x8
 6864 168d 0B1D0000 		.4byte	.LASF304
 6865 1691 17       		.byte	0x17
 6866 1692 C9       		.byte	0xc9
 6867 1693 0B010000 		.4byte	0x10b
 6868 1697 0C       		.byte	0xc
 6869 1698 18       		.uleb128 0x18
 6870 1699 6F647200 		.ascii	"odr\000"
 6871 169d 17       		.byte	0x17
 6872 169e CB       		.byte	0xcb
 6873 169f 0B010000 		.4byte	0x10b
 6874 16a3 10       		.byte	0x10
 6875 16a4 08       		.uleb128 0x8
 6876 16a5 5B1A0000 		.4byte	.LASF305
 6877 16a9 17       		.byte	0x17
 6878 16aa CD       		.byte	0xcd
 6879 16ab 0B010000 		.4byte	0x10b
 6880 16af 14       		.byte	0x14
 6881 16b0 08       		.uleb128 0x8
 6882 16b1 4B000000 		.4byte	.LASF306
 6883 16b5 17       		.byte	0x17
 6884 16b6 CF       		.byte	0xcf
 6885 16b7 0B010000 		.4byte	0x10b
 6886 16bb 18       		.byte	0x18
 6887 16bc 00       		.byte	0
 6888 16bd 03       		.uleb128 0x3
 6889 16be 88170000 		.4byte	.LASF307
 6890 16c2 17       		.byte	0x17
 6891 16c3 D0       		.byte	0xd0
 6892 16c4 60160000 		.4byte	0x1660
 6893 16c8 17       		.uleb128 0x17
 6894 16c9 FC       		.byte	0xfc
 6895 16ca 17       		.byte	0x17
 6896 16cb D9       		.byte	0xd9
ARM GAS  C:\Users\PCHAUT~1\AppData\Local\Temp\ccMxpIDf.s 			page 122


 6897 16cc 3D170000 		.4byte	0x173d
 6898 16d0 08       		.uleb128 0x8
 6899 16d1 420F0000 		.4byte	.LASF308
 6900 16d5 17       		.byte	0x17
 6901 16d6 DC       		.byte	0xdc
 6902 16d7 BD160000 		.4byte	0x16bd
 6903 16db 00       		.byte	0
 6904 16dc 08       		.uleb128 0x8
 6905 16dd 8D020000 		.4byte	.LASF309
 6906 16e1 17       		.byte	0x17
 6907 16e2 E0       		.byte	0xe0
 6908 16e3 BD160000 		.4byte	0x16bd
 6909 16e7 1C       		.byte	0x1c
 6910 16e8 08       		.uleb128 0x8
 6911 16e9 83010000 		.4byte	.LASF310
 6912 16ed 17       		.byte	0x17
 6913 16ee E4       		.byte	0xe4
 6914 16ef BD160000 		.4byte	0x16bd
 6915 16f3 38       		.byte	0x38
 6916 16f4 08       		.uleb128 0x8
 6917 16f5 450D0000 		.4byte	.LASF311
 6918 16f9 17       		.byte	0x17
 6919 16fa E8       		.byte	0xe8
 6920 16fb BD160000 		.4byte	0x16bd
 6921 16ff 54       		.byte	0x54
 6922 1700 08       		.uleb128 0x8
 6923 1701 D5160000 		.4byte	.LASF312
 6924 1705 17       		.byte	0x17
 6925 1706 EC       		.byte	0xec
 6926 1707 BD160000 		.4byte	0x16bd
 6927 170b 70       		.byte	0x70
 6928 170c 08       		.uleb128 0x8
 6929 170d 0B210000 		.4byte	.LASF313
 6930 1711 17       		.byte	0x17
 6931 1712 F0       		.byte	0xf0
 6932 1713 BD160000 		.4byte	0x16bd
 6933 1717 8C       		.byte	0x8c
 6934 1718 08       		.uleb128 0x8
 6935 1719 4E0B0000 		.4byte	.LASF314
 6936 171d 17       		.byte	0x17
 6937 171e F4       		.byte	0xf4
 6938 171f BD160000 		.4byte	0x16bd
 6939 1723 A8       		.byte	0xa8
 6940 1724 08       		.uleb128 0x8
 6941 1725 2A150000 		.4byte	.LASF315
 6942 1729 17       		.byte	0x17
 6943 172a F8       		.byte	0xf8
 6944 172b BD160000 		.4byte	0x16bd
 6945 172f C4       		.byte	0xc4
 6946 1730 08       		.uleb128 0x8
 6947 1731 181F0000 		.4byte	.LASF316
 6948 1735 17       		.byte	0x17
 6949 1736 FC       		.byte	0xfc
 6950 1737 BD160000 		.4byte	0x16bd
 6951 173b E0       		.byte	0xe0
 6952 173c 00       		.byte	0
 6953 173d 03       		.uleb128 0x3
ARM GAS  C:\Users\PCHAUT~1\AppData\Local\Temp\ccMxpIDf.s 			page 123


 6954 173e 950A0000 		.4byte	.LASF317
 6955 1742 17       		.byte	0x17
 6956 1743 FE       		.byte	0xfe
 6957 1744 C8160000 		.4byte	0x16c8
 6958 1748 05       		.uleb128 0x5
 6959 1749 3D170000 		.4byte	0x173d
 6960 174d 1A       		.uleb128 0x1a
 6961 174e 31150000 		.4byte	.LASF318
 6962 1752 17       		.byte	0x17
 6963 1753 1B01     		.2byte	0x11b
 6964 1755 59170000 		.4byte	0x1759
 6965 1759 0B       		.uleb128 0xb
 6966 175a 04       		.byte	0x4
 6967 175b 55160000 		.4byte	0x1655
 6968 175f 15       		.uleb128 0x15
 6969 1760 531B0000 		.4byte	.LASF319
 6970 1764 17       		.byte	0x17
 6971 1765 DA01     		.2byte	0x1da
 6972 1767 48170000 		.4byte	0x1748
 6973 176b 21       		.uleb128 0x21
 6974 176c 07       		.byte	0x7
 6975 176d 01       		.byte	0x1
 6976 176e 69000000 		.4byte	0x69
 6977 1772 18       		.byte	0x18
 6978 1773 46       		.byte	0x46
 6979 1774 9D170000 		.4byte	0x179d
 6980 1778 22       		.uleb128 0x22
 6981 1779 41070000 		.4byte	.LASF320
 6982 177d 00       		.byte	0
 6983 177e 22       		.uleb128 0x22
 6984 177f EF120000 		.4byte	.LASF321
 6985 1783 01       		.byte	0x1
 6986 1784 22       		.uleb128 0x22
 6987 1785 7B1D0000 		.4byte	.LASF322
 6988 1789 02       		.byte	0x2
 6989 178a 22       		.uleb128 0x22
 6990 178b AE100000 		.4byte	.LASF323
 6991 178f 03       		.byte	0x3
 6992 1790 22       		.uleb128 0x22
 6993 1791 7F050000 		.4byte	.LASF324
 6994 1795 04       		.byte	0x4
 6995 1796 22       		.uleb128 0x22
 6996 1797 86100000 		.4byte	.LASF325
 6997 179b 05       		.byte	0x5
 6998 179c 00       		.byte	0
 6999 179d 03       		.uleb128 0x3
 7000 179e A3030000 		.4byte	.LASF326
 7001 17a2 18       		.byte	0x18
 7002 17a3 4D       		.byte	0x4d
 7003 17a4 6B170000 		.4byte	0x176b
 7004 17a8 1A       		.uleb128 0x1a
 7005 17a9 B80F0000 		.4byte	.LASF327
 7006 17ad 19       		.byte	0x19
 7007 17ae 2701     		.2byte	0x127
 7008 17b0 F0000000 		.4byte	0xf0
 7009 17b4 1A       		.uleb128 0x1a
 7010 17b5 DE180000 		.4byte	.LASF328
ARM GAS  C:\Users\PCHAUT~1\AppData\Local\Temp\ccMxpIDf.s 			page 124


 7011 17b9 19       		.byte	0x19
 7012 17ba 2C01     		.2byte	0x12c
 7013 17bc F0000000 		.4byte	0xf0
 7014 17c0 24       		.uleb128 0x24
 7015 17c1 07       		.byte	0x7
 7016 17c2 01       		.byte	0x1
 7017 17c3 69000000 		.4byte	0x69
 7018 17c7 19       		.byte	0x19
 7019 17c8 3301     		.2byte	0x133
 7020 17ca DB170000 		.4byte	0x17db
 7021 17ce 22       		.uleb128 0x22
 7022 17cf 8A0D0000 		.4byte	.LASF329
 7023 17d3 00       		.byte	0
 7024 17d4 22       		.uleb128 0x22
 7025 17d5 ED010000 		.4byte	.LASF330
 7026 17d9 01       		.byte	0x1
 7027 17da 00       		.byte	0
 7028 17db 1A       		.uleb128 0x1a
 7029 17dc 521E0000 		.4byte	.LASF331
 7030 17e0 19       		.byte	0x19
 7031 17e1 3601     		.2byte	0x136
 7032 17e3 C0170000 		.4byte	0x17c0
 7033 17e7 1A       		.uleb128 0x1a
 7034 17e8 1A0E0000 		.4byte	.LASF332
 7035 17ec 19       		.byte	0x19
 7036 17ed 3B01     		.2byte	0x13b
 7037 17ef F3170000 		.4byte	0x17f3
 7038 17f3 0C       		.uleb128 0xc
 7039 17f4 1A0E0000 		.4byte	.LASF332
 7040 17f8 38       		.byte	0x38
 7041 17f9 19       		.byte	0x19
 7042 17fa 9F01     		.2byte	0x19f
 7043 17fc 83180000 		.4byte	0x1883
 7044 1800 0A       		.uleb128 0xa
 7045 1801 A2130000 		.4byte	.LASF333
 7046 1805 19       		.byte	0x19
 7047 1806 A301     		.2byte	0x1a3
 7048 1808 9D170000 		.4byte	0x179d
 7049 180c 00       		.byte	0
 7050 180d 0A       		.uleb128 0xa
 7051 180e B6180000 		.4byte	.LASF334
 7052 1812 19       		.byte	0x19
 7053 1813 A701     		.2byte	0x1a7
 7054 1815 AA190000 		.4byte	0x19aa
 7055 1819 04       		.byte	0x4
 7056 181a 0A       		.uleb128 0xa
 7057 181b 8F010000 		.4byte	.LASF335
 7058 181f 19       		.byte	0x19
 7059 1820 AB01     		.2byte	0x1ab
 7060 1822 B0180000 		.4byte	0x18b0
 7061 1826 08       		.byte	0x8
 7062 1827 0A       		.uleb128 0xa
 7063 1828 1E160000 		.4byte	.LASF336
 7064 182c 19       		.byte	0x19
 7065 182d AF01     		.2byte	0x1af
 7066 182f 2C000000 		.4byte	0x2c
 7067 1833 0C       		.byte	0xc
ARM GAS  C:\Users\PCHAUT~1\AppData\Local\Temp\ccMxpIDf.s 			page 125


 7068 1834 0A       		.uleb128 0xa
 7069 1835 661B0000 		.4byte	.LASF337
 7070 1839 19       		.byte	0x19
 7071 183a B301     		.2byte	0x1b3
 7072 183c B0190000 		.4byte	0x19b0
 7073 1840 10       		.byte	0x10
 7074 1841 0A       		.uleb128 0xa
 7075 1842 FD050000 		.4byte	.LASF338
 7076 1846 19       		.byte	0x19
 7077 1847 B801     		.2byte	0x1b8
 7078 1849 E8020000 		.4byte	0x2e8
 7079 184d 14       		.byte	0x14
 7080 184e 0A       		.uleb128 0xa
 7081 184f 320C0000 		.4byte	.LASF339
 7082 1853 19       		.byte	0x19
 7083 1854 BE01     		.2byte	0x1be
 7084 1856 BD110000 		.4byte	0x11bd
 7085 185a 18       		.byte	0x18
 7086 185b 09       		.uleb128 0x9
 7087 185c 61646300 		.ascii	"adc\000"
 7088 1860 19       		.byte	0x19
 7089 1861 C701     		.2byte	0x1c7
 7090 1863 B6190000 		.4byte	0x19b6
 7091 1867 2C       		.byte	0x2c
 7092 1868 0A       		.uleb128 0xa
 7093 1869 540A0000 		.4byte	.LASF340
 7094 186d 19       		.byte	0x19
 7095 186e CB01     		.2byte	0x1cb
 7096 1870 BC190000 		.4byte	0x19bc
 7097 1874 30       		.byte	0x30
 7098 1875 0A       		.uleb128 0xa
 7099 1876 5C150000 		.4byte	.LASF341
 7100 187a 19       		.byte	0x19
 7101 187b CF01     		.2byte	0x1cf
 7102 187d 0B010000 		.4byte	0x10b
 7103 1881 34       		.byte	0x34
 7104 1882 00       		.byte	0
 7105 1883 1A       		.uleb128 0x1a
 7106 1884 DF170000 		.4byte	.LASF342
 7107 1888 19       		.byte	0x19
 7108 1889 4501     		.2byte	0x145
 7109 188b 8F180000 		.4byte	0x188f
 7110 188f 0B       		.uleb128 0xb
 7111 1890 04       		.byte	0x4
 7112 1891 95180000 		.4byte	0x1895
 7113 1895 0D       		.uleb128 0xd
 7114 1896 AA180000 		.4byte	0x18aa
 7115 189a 0E       		.uleb128 0xe
 7116 189b AA180000 		.4byte	0x18aa
 7117 189f 0E       		.uleb128 0xe
 7118 18a0 B0180000 		.4byte	0x18b0
 7119 18a4 0E       		.uleb128 0xe
 7120 18a5 2C000000 		.4byte	0x2c
 7121 18a9 00       		.byte	0
 7122 18aa 0B       		.uleb128 0xb
 7123 18ab 04       		.byte	0x4
 7124 18ac E7170000 		.4byte	0x17e7
ARM GAS  C:\Users\PCHAUT~1\AppData\Local\Temp\ccMxpIDf.s 			page 126


 7125 18b0 0B       		.uleb128 0xb
 7126 18b1 04       		.byte	0x4
 7127 18b2 A8170000 		.4byte	0x17a8
 7128 18b6 1A       		.uleb128 0x1a
 7129 18b7 84130000 		.4byte	.LASF343
 7130 18bb 19       		.byte	0x19
 7131 18bc 4E01     		.2byte	0x14e
 7132 18be C2180000 		.4byte	0x18c2
 7133 18c2 0B       		.uleb128 0xb
 7134 18c3 04       		.byte	0x4
 7135 18c4 C8180000 		.4byte	0x18c8
 7136 18c8 0D       		.uleb128 0xd
 7137 18c9 D8180000 		.4byte	0x18d8
 7138 18cd 0E       		.uleb128 0xe
 7139 18ce AA180000 		.4byte	0x18aa
 7140 18d2 0E       		.uleb128 0xe
 7141 18d3 DB170000 		.4byte	0x17db
 7142 18d7 00       		.byte	0
 7143 18d8 19       		.uleb128 0x19
 7144 18d9 28       		.byte	0x28
 7145 18da 19       		.byte	0x19
 7146 18db 5801     		.2byte	0x158
 7147 18dd 71190000 		.4byte	0x1971
 7148 18e1 0A       		.uleb128 0xa
 7149 18e2 B21D0000 		.4byte	.LASF344
 7150 18e6 19       		.byte	0x19
 7151 18e7 5C01     		.2byte	0x15c
 7152 18e9 02150000 		.4byte	0x1502
 7153 18ed 00       		.byte	0
 7154 18ee 0A       		.uleb128 0xa
 7155 18ef E00E0000 		.4byte	.LASF345
 7156 18f3 19       		.byte	0x19
 7157 18f4 6001     		.2byte	0x160
 7158 18f6 B4170000 		.4byte	0x17b4
 7159 18fa 02       		.byte	0x2
 7160 18fb 0A       		.uleb128 0xa
 7161 18fc 39090000 		.4byte	.LASF346
 7162 1900 19       		.byte	0x19
 7163 1901 6401     		.2byte	0x164
 7164 1903 83180000 		.4byte	0x1883
 7165 1907 04       		.byte	0x4
 7166 1908 0A       		.uleb128 0xa
 7167 1909 2F1F0000 		.4byte	.LASF347
 7168 190d 19       		.byte	0x19
 7169 190e 6801     		.2byte	0x168
 7170 1910 B6180000 		.4byte	0x18b6
 7171 1914 08       		.byte	0x8
 7172 1915 09       		.uleb128 0x9
 7173 1916 63723100 		.ascii	"cr1\000"
 7174 191a 19       		.byte	0x19
 7175 191b 6F01     		.2byte	0x16f
 7176 191d 0B010000 		.4byte	0x10b
 7177 1921 0C       		.byte	0xc
 7178 1922 09       		.uleb128 0x9
 7179 1923 63723200 		.ascii	"cr2\000"
 7180 1927 19       		.byte	0x19
 7181 1928 7601     		.2byte	0x176
ARM GAS  C:\Users\PCHAUT~1\AppData\Local\Temp\ccMxpIDf.s 			page 127


 7182 192a 0B010000 		.4byte	0x10b
 7183 192e 10       		.byte	0x10
 7184 192f 0A       		.uleb128 0xa
 7185 1930 91140000 		.4byte	.LASF348
 7186 1934 19       		.byte	0x19
 7187 1935 7C01     		.2byte	0x17c
 7188 1937 0B010000 		.4byte	0x10b
 7189 193b 14       		.byte	0x14
 7190 193c 0A       		.uleb128 0xa
 7191 193d 97140000 		.4byte	.LASF349
 7192 1941 19       		.byte	0x19
 7193 1942 8201     		.2byte	0x182
 7194 1944 0B010000 		.4byte	0x10b
 7195 1948 18       		.byte	0x18
 7196 1949 0A       		.uleb128 0xa
 7197 194a 36010000 		.4byte	.LASF350
 7198 194e 19       		.byte	0x19
 7199 194f 8701     		.2byte	0x187
 7200 1951 0B010000 		.4byte	0x10b
 7201 1955 1C       		.byte	0x1c
 7202 1956 0A       		.uleb128 0xa
 7203 1957 3C200000 		.4byte	.LASF351
 7204 195b 19       		.byte	0x19
 7205 195c 8C01     		.2byte	0x18c
 7206 195e 0B010000 		.4byte	0x10b
 7207 1962 20       		.byte	0x20
 7208 1963 0A       		.uleb128 0xa
 7209 1964 41200000 		.4byte	.LASF352
 7210 1968 19       		.byte	0x19
 7211 1969 9101     		.2byte	0x191
 7212 196b 0B010000 		.4byte	0x10b
 7213 196f 24       		.byte	0x24
 7214 1970 00       		.byte	0
 7215 1971 1A       		.uleb128 0x1a
 7216 1972 C7040000 		.4byte	.LASF353
 7217 1976 19       		.byte	0x19
 7218 1977 9201     		.2byte	0x192
 7219 1979 D8180000 		.4byte	0x18d8
 7220 197d 05       		.uleb128 0x5
 7221 197e 71190000 		.4byte	0x1971
 7222 1982 19       		.uleb128 0x19
 7223 1983 04       		.byte	0x4
 7224 1984 19       		.byte	0x19
 7225 1985 9801     		.2byte	0x198
 7226 1987 99190000 		.4byte	0x1999
 7227 198b 0A       		.uleb128 0xa
 7228 198c 6F200000 		.4byte	.LASF354
 7229 1990 19       		.byte	0x19
 7230 1991 9901     		.2byte	0x199
 7231 1993 0B010000 		.4byte	0x10b
 7232 1997 00       		.byte	0
 7233 1998 00       		.byte	0
 7234 1999 1A       		.uleb128 0x1a
 7235 199a 320E0000 		.4byte	.LASF355
 7236 199e 19       		.byte	0x19
 7237 199f 9A01     		.2byte	0x19a
 7238 19a1 82190000 		.4byte	0x1982
ARM GAS  C:\Users\PCHAUT~1\AppData\Local\Temp\ccMxpIDf.s 			page 128


 7239 19a5 05       		.uleb128 0x5
 7240 19a6 99190000 		.4byte	0x1999
 7241 19aa 0B       		.uleb128 0xb
 7242 19ab 04       		.byte	0x4
 7243 19ac A5190000 		.4byte	0x19a5
 7244 19b0 0B       		.uleb128 0xb
 7245 19b1 04       		.byte	0x4
 7246 19b2 7D190000 		.4byte	0x197d
 7247 19b6 0B       		.uleb128 0xb
 7248 19b7 04       		.byte	0x4
 7249 19b8 6D060000 		.4byte	0x66d
 7250 19bc 0B       		.uleb128 0xb
 7251 19bd 04       		.byte	0x4
 7252 19be D1130000 		.4byte	0x13d1
 7253 19c2 15       		.uleb128 0x15
 7254 19c3 45150000 		.4byte	.LASF356
 7255 19c7 19       		.byte	0x19
 7256 19c8 1402     		.2byte	0x214
 7257 19ca E7170000 		.4byte	0x17e7
 7258 19ce 15       		.uleb128 0x15
 7259 19cf 4B150000 		.4byte	.LASF357
 7260 19d3 19       		.byte	0x19
 7261 19d4 1802     		.2byte	0x218
 7262 19d6 E7170000 		.4byte	0x17e7
 7263 19da 15       		.uleb128 0x15
 7264 19db 51150000 		.4byte	.LASF358
 7265 19df 19       		.byte	0x19
 7266 19e0 1C02     		.2byte	0x21c
 7267 19e2 E7170000 		.4byte	0x17e7
 7268 19e6 21       		.uleb128 0x21
 7269 19e7 07       		.byte	0x7
 7270 19e8 01       		.byte	0x1
 7271 19e9 69000000 		.4byte	0x69
 7272 19ed 1A       		.byte	0x1a
 7273 19ee 5F       		.byte	0x5f
 7274 19ef 121A0000 		.4byte	0x1a12
 7275 19f3 22       		.uleb128 0x22
 7276 19f4 DE090000 		.4byte	.LASF359
 7277 19f8 00       		.byte	0
 7278 19f9 22       		.uleb128 0x22
 7279 19fa B9000000 		.4byte	.LASF360
 7280 19fe 01       		.byte	0x1
 7281 19ff 22       		.uleb128 0x22
 7282 1a00 38000000 		.4byte	.LASF361
 7283 1a04 02       		.byte	0x2
 7284 1a05 22       		.uleb128 0x22
 7285 1a06 EE040000 		.4byte	.LASF362
 7286 1a0a 03       		.byte	0x3
 7287 1a0b 22       		.uleb128 0x22
 7288 1a0c CB090000 		.4byte	.LASF363
 7289 1a10 04       		.byte	0x4
 7290 1a11 00       		.byte	0
 7291 1a12 03       		.uleb128 0x3
 7292 1a13 1D050000 		.4byte	.LASF364
 7293 1a17 1A       		.byte	0x1a
 7294 1a18 65       		.byte	0x65
 7295 1a19 E6190000 		.4byte	0x19e6
ARM GAS  C:\Users\PCHAUT~1\AppData\Local\Temp\ccMxpIDf.s 			page 129


 7296 1a1d 13       		.uleb128 0x13
 7297 1a1e D5000000 		.4byte	0xd5
 7298 1a22 2D1A0000 		.4byte	0x1a2d
 7299 1a26 14       		.uleb128 0x14
 7300 1a27 37000000 		.4byte	0x37
 7301 1a2b 07       		.byte	0x7
 7302 1a2c 00       		.byte	0
 7303 1a2d 17       		.uleb128 0x17
 7304 1a2e 08       		.byte	0x8
 7305 1a2f 1B       		.byte	0x1b
 7306 1a30 F4       		.byte	0xf4
 7307 1a31 4F1A0000 		.4byte	0x1a4f
 7308 1a35 18       		.uleb128 0x18
 7309 1a36 6D637200 		.ascii	"mcr\000"
 7310 1a3a 1B       		.byte	0x1b
 7311 1a3b FA       		.byte	0xfa
 7312 1a3c 0B010000 		.4byte	0x10b
 7313 1a40 00       		.byte	0
 7314 1a41 09       		.uleb128 0x9
 7315 1a42 62747200 		.ascii	"btr\000"
 7316 1a46 1B       		.byte	0x1b
 7317 1a47 0001     		.2byte	0x100
 7318 1a49 0B010000 		.4byte	0x10b
 7319 1a4d 04       		.byte	0x4
 7320 1a4e 00       		.byte	0
 7321 1a4f 1A       		.uleb128 0x1a
 7322 1a50 CB160000 		.4byte	.LASF365
 7323 1a54 1B       		.byte	0x1b
 7324 1a55 0101     		.2byte	0x101
 7325 1a57 2D1A0000 		.4byte	0x1a2d
 7326 1a5b 05       		.uleb128 0x5
 7327 1a5c 4F1A0000 		.4byte	0x1a4f
 7328 1a60 19       		.uleb128 0x19
 7329 1a61 30       		.byte	0x30
 7330 1a62 1B       		.byte	0x1b
 7331 1a63 0601     		.2byte	0x106
 7332 1a65 EC1A0000 		.4byte	0x1aec
 7333 1a69 0A       		.uleb128 0xa
 7334 1a6a A2130000 		.4byte	.LASF333
 7335 1a6e 1B       		.byte	0x1b
 7336 1a6f 0A01     		.2byte	0x10a
 7337 1a71 121A0000 		.4byte	0x1a12
 7338 1a75 00       		.byte	0
 7339 1a76 0A       		.uleb128 0xa
 7340 1a77 B6180000 		.4byte	.LASF334
 7341 1a7b 1B       		.byte	0x1b
 7342 1a7c 0E01     		.2byte	0x10e
 7343 1a7e EC1A0000 		.4byte	0x1aec
 7344 1a82 04       		.byte	0x4
 7345 1a83 0A       		.uleb128 0xa
 7346 1a84 6F090000 		.4byte	.LASF366
 7347 1a88 1B       		.byte	0x1b
 7348 1a89 1201     		.2byte	0x112
 7349 1a8b 1D030000 		.4byte	0x31d
 7350 1a8f 08       		.byte	0x8
 7351 1a90 0A       		.uleb128 0xa
 7352 1a91 3A1B0000 		.4byte	.LASF367
ARM GAS  C:\Users\PCHAUT~1\AppData\Local\Temp\ccMxpIDf.s 			page 130


 7353 1a95 1B       		.byte	0x1b
 7354 1a96 1601     		.2byte	0x116
 7355 1a98 1D030000 		.4byte	0x31d
 7356 1a9c 10       		.byte	0x10
 7357 1a9d 0A       		.uleb128 0xa
 7358 1a9e AE160000 		.4byte	.LASF368
 7359 1aa2 1B       		.byte	0x1b
 7360 1aa3 2301     		.2byte	0x123
 7361 1aa5 41120000 		.4byte	0x1241
 7362 1aa9 18       		.byte	0x18
 7363 1aaa 0A       		.uleb128 0xa
 7364 1aab 200B0000 		.4byte	.LASF369
 7365 1aaf 1B       		.byte	0x1b
 7366 1ab0 2A01     		.2byte	0x12a
 7367 1ab2 41120000 		.4byte	0x1241
 7368 1ab6 1C       		.byte	0x1c
 7369 1ab7 0A       		.uleb128 0xa
 7370 1ab8 D40E0000 		.4byte	.LASF370
 7371 1abc 1B       		.byte	0x1b
 7372 1abd 3001     		.2byte	0x130
 7373 1abf 41120000 		.4byte	0x1241
 7374 1ac3 20       		.byte	0x20
 7375 1ac4 0A       		.uleb128 0xa
 7376 1ac5 08030000 		.4byte	.LASF371
 7377 1ac9 1B       		.byte	0x1b
 7378 1aca 3501     		.2byte	0x135
 7379 1acc 41120000 		.4byte	0x1241
 7380 1ad0 24       		.byte	0x24
 7381 1ad1 0A       		.uleb128 0xa
 7382 1ad2 24090000 		.4byte	.LASF372
 7383 1ad6 1B       		.byte	0x1b
 7384 1ad7 3901     		.2byte	0x139
 7385 1ad9 41120000 		.4byte	0x1241
 7386 1add 28       		.byte	0x28
 7387 1ade 09       		.uleb128 0x9
 7388 1adf 63616E00 		.ascii	"can\000"
 7389 1ae3 1B       		.byte	0x1b
 7390 1ae4 3F01     		.2byte	0x13f
 7391 1ae6 F21A0000 		.4byte	0x1af2
 7392 1aea 2C       		.byte	0x2c
 7393 1aeb 00       		.byte	0
 7394 1aec 0B       		.uleb128 0xb
 7395 1aed 04       		.byte	0x4
 7396 1aee 5B1A0000 		.4byte	0x1a5b
 7397 1af2 0B       		.uleb128 0xb
 7398 1af3 04       		.byte	0x4
 7399 1af4 B6080000 		.4byte	0x8b6
 7400 1af8 1A       		.uleb128 0x1a
 7401 1af9 56030000 		.4byte	.LASF373
 7402 1afd 1B       		.byte	0x1b
 7403 1afe 4001     		.2byte	0x140
 7404 1b00 601A0000 		.4byte	0x1a60
 7405 1b04 15       		.uleb128 0x15
 7406 1b05 DD1C0000 		.4byte	.LASF374
 7407 1b09 1B       		.byte	0x1b
 7408 1b0a 4B01     		.2byte	0x14b
 7409 1b0c F81A0000 		.4byte	0x1af8
ARM GAS  C:\Users\PCHAUT~1\AppData\Local\Temp\ccMxpIDf.s 			page 131


 7410 1b10 21       		.uleb128 0x21
 7411 1b11 07       		.byte	0x7
 7412 1b12 01       		.byte	0x1
 7413 1b13 69000000 		.4byte	0x69
 7414 1b17 1C       		.byte	0x1c
 7415 1b18 46       		.byte	0x46
 7416 1b19 421B0000 		.4byte	0x1b42
 7417 1b1d 22       		.uleb128 0x22
 7418 1b1e D3180000 		.4byte	.LASF375
 7419 1b22 00       		.byte	0
 7420 1b23 22       		.uleb128 0x22
 7421 1b24 DF1D0000 		.4byte	.LASF376
 7422 1b28 01       		.byte	0x1
 7423 1b29 22       		.uleb128 0x22
 7424 1b2a C10D0000 		.4byte	.LASF377
 7425 1b2e 02       		.byte	0x2
 7426 1b2f 22       		.uleb128 0x22
 7427 1b30 97130000 		.4byte	.LASF378
 7428 1b34 03       		.byte	0x3
 7429 1b35 22       		.uleb128 0x22
 7430 1b36 98180000 		.4byte	.LASF379
 7431 1b3a 04       		.byte	0x4
 7432 1b3b 22       		.uleb128 0x22
 7433 1b3c 600E0000 		.4byte	.LASF380
 7434 1b40 05       		.byte	0x5
 7435 1b41 00       		.byte	0
 7436 1b42 03       		.uleb128 0x3
 7437 1b43 5E160000 		.4byte	.LASF381
 7438 1b47 1C       		.byte	0x1c
 7439 1b48 4D       		.byte	0x4d
 7440 1b49 101B0000 		.4byte	0x1b10
 7441 1b4d 17       		.uleb128 0x17
 7442 1b4e 1C       		.byte	0x1c
 7443 1b4f 1D       		.byte	0x1d
 7444 1b50 F9       		.byte	0xf9
 7445 1b51 B01B0000 		.4byte	0x1bb0
 7446 1b55 18       		.uleb128 0x18
 7447 1b56 64616300 		.ascii	"dac\000"
 7448 1b5a 1D       		.byte	0x1d
 7449 1b5b FD       		.byte	0xfd
 7450 1b5c B01B0000 		.4byte	0x1bb0
 7451 1b60 00       		.byte	0
 7452 1b61 0A       		.uleb128 0xa
 7453 1b62 D6150000 		.4byte	.LASF382
 7454 1b66 1D       		.byte	0x1d
 7455 1b67 0101     		.2byte	0x101
 7456 1b69 0B010000 		.4byte	0x10b
 7457 1b6d 04       		.byte	0x4
 7458 1b6e 0A       		.uleb128 0xa
 7459 1b6f 04060000 		.4byte	.LASF383
 7460 1b73 1D       		.byte	0x1d
 7461 1b74 0501     		.2byte	0x105
 7462 1b76 0B010000 		.4byte	0x10b
 7463 1b7a 08       		.byte	0x8
 7464 1b7b 0A       		.uleb128 0xa
 7465 1b7c A2010000 		.4byte	.LASF384
 7466 1b80 1D       		.byte	0x1d
ARM GAS  C:\Users\PCHAUT~1\AppData\Local\Temp\ccMxpIDf.s 			page 132


 7467 1b81 0901     		.2byte	0x109
 7468 1b83 0B010000 		.4byte	0x10b
 7469 1b87 0C       		.byte	0xc
 7470 1b88 09       		.uleb128 0x9
 7471 1b89 646D6100 		.ascii	"dma\000"
 7472 1b8d 1D       		.byte	0x1d
 7473 1b8e 0D01     		.2byte	0x10d
 7474 1b90 BC190000 		.4byte	0x19bc
 7475 1b94 10       		.byte	0x10
 7476 1b95 0A       		.uleb128 0xa
 7477 1b96 5C150000 		.4byte	.LASF341
 7478 1b9a 1D       		.byte	0x1d
 7479 1b9b 1101     		.2byte	0x111
 7480 1b9d 0B010000 		.4byte	0x10b
 7481 1ba1 14       		.byte	0x14
 7482 1ba2 0A       		.uleb128 0xa
 7483 1ba3 0A150000 		.4byte	.LASF385
 7484 1ba7 1D       		.byte	0x1d
 7485 1ba8 1501     		.2byte	0x115
 7486 1baa 0B010000 		.4byte	0x10b
 7487 1bae 18       		.byte	0x18
 7488 1baf 00       		.byte	0
 7489 1bb0 0B       		.uleb128 0xb
 7490 1bb1 04       		.byte	0x4
 7491 1bb2 80090000 		.4byte	0x980
 7492 1bb6 1A       		.uleb128 0x1a
 7493 1bb7 B2020000 		.4byte	.LASF386
 7494 1bbb 1D       		.byte	0x1d
 7495 1bbc 1601     		.2byte	0x116
 7496 1bbe 4D1B0000 		.4byte	0x1b4d
 7497 1bc2 05       		.uleb128 0x5
 7498 1bc3 B61B0000 		.4byte	0x1bb6
 7499 1bc7 1A       		.uleb128 0x1a
 7500 1bc8 530C0000 		.4byte	.LASF387
 7501 1bcc 1D       		.byte	0x1d
 7502 1bcd 1B01     		.2byte	0x11b
 7503 1bcf D31B0000 		.4byte	0x1bd3
 7504 1bd3 0C       		.uleb128 0xc
 7505 1bd4 530C0000 		.4byte	.LASF387
 7506 1bd8 30       		.byte	0x30
 7507 1bd9 1D       		.byte	0x1d
 7508 1bda 7B01     		.2byte	0x17b
 7509 1bdc 491C0000 		.4byte	0x1c49
 7510 1be0 0A       		.uleb128 0xa
 7511 1be1 A2130000 		.4byte	.LASF333
 7512 1be5 1D       		.byte	0x1d
 7513 1be6 7F01     		.2byte	0x17f
 7514 1be8 421B0000 		.4byte	0x1b42
 7515 1bec 00       		.byte	0
 7516 1bed 0A       		.uleb128 0xa
 7517 1bee 661B0000 		.4byte	.LASF337
 7518 1bf2 1D       		.byte	0x1d
 7519 1bf3 8301     		.2byte	0x183
 7520 1bf5 871D0000 		.4byte	0x1d87
 7521 1bf9 04       		.byte	0x4
 7522 1bfa 0A       		.uleb128 0xa
 7523 1bfb 8F010000 		.4byte	.LASF335
ARM GAS  C:\Users\PCHAUT~1\AppData\Local\Temp\ccMxpIDf.s 			page 133


 7524 1bff 1D       		.byte	0x1d
 7525 1c00 8701     		.2byte	0x187
 7526 1c02 AE1C0000 		.4byte	0x1cae
 7527 1c06 08       		.byte	0x8
 7528 1c07 0A       		.uleb128 0xa
 7529 1c08 1E160000 		.4byte	.LASF336
 7530 1c0c 1D       		.byte	0x1d
 7531 1c0d 8B01     		.2byte	0x18b
 7532 1c0f F0000000 		.4byte	0xf0
 7533 1c13 0C       		.byte	0xc
 7534 1c14 0A       		.uleb128 0xa
 7535 1c15 B6180000 		.4byte	.LASF334
 7536 1c19 1D       		.byte	0x1d
 7537 1c1a 8F01     		.2byte	0x18f
 7538 1c1c 8D1D0000 		.4byte	0x1d8d
 7539 1c20 10       		.byte	0x10
 7540 1c21 0A       		.uleb128 0xa
 7541 1c22 FD050000 		.4byte	.LASF338
 7542 1c26 1D       		.byte	0x1d
 7543 1c27 9401     		.2byte	0x194
 7544 1c29 E8020000 		.4byte	0x2e8
 7545 1c2d 14       		.byte	0x14
 7546 1c2e 0A       		.uleb128 0xa
 7547 1c2f 320C0000 		.4byte	.LASF339
 7548 1c33 1D       		.byte	0x1d
 7549 1c34 9A01     		.2byte	0x19a
 7550 1c36 BD110000 		.4byte	0x11bd
 7551 1c3a 18       		.byte	0x18
 7552 1c3b 0A       		.uleb128 0xa
 7553 1c3c 670F0000 		.4byte	.LASF388
 7554 1c40 1D       		.byte	0x1d
 7555 1c41 A301     		.2byte	0x1a3
 7556 1c43 931D0000 		.4byte	0x1d93
 7557 1c47 2C       		.byte	0x2c
 7558 1c48 00       		.byte	0
 7559 1c49 1A       		.uleb128 0x1a
 7560 1c4a 77160000 		.4byte	.LASF389
 7561 1c4e 1D       		.byte	0x1d
 7562 1c4f 2001     		.2byte	0x120
 7563 1c51 F0000000 		.4byte	0xf0
 7564 1c55 05       		.uleb128 0x5
 7565 1c56 491C0000 		.4byte	0x1c49
 7566 1c5a 24       		.uleb128 0x24
 7567 1c5b 07       		.byte	0x7
 7568 1c5c 01       		.byte	0x1
 7569 1c5d 69000000 		.4byte	0x69
 7570 1c61 1D       		.byte	0x1d
 7571 1c62 2701     		.2byte	0x127
 7572 1c64 751C0000 		.4byte	0x1c75
 7573 1c68 22       		.uleb128 0x22
 7574 1c69 F4160000 		.4byte	.LASF390
 7575 1c6d 00       		.byte	0
 7576 1c6e 22       		.uleb128 0x22
 7577 1c6f 12090000 		.4byte	.LASF391
 7578 1c73 01       		.byte	0x1
 7579 1c74 00       		.byte	0
 7580 1c75 1A       		.uleb128 0x1a
ARM GAS  C:\Users\PCHAUT~1\AppData\Local\Temp\ccMxpIDf.s 			page 134


 7581 1c76 A20F0000 		.4byte	.LASF392
 7582 1c7a 1D       		.byte	0x1d
 7583 1c7b 2A01     		.2byte	0x12a
 7584 1c7d 5A1C0000 		.4byte	0x1c5a
 7585 1c81 1A       		.uleb128 0x1a
 7586 1c82 5C060000 		.4byte	.LASF393
 7587 1c86 1D       		.byte	0x1d
 7588 1c87 3401     		.2byte	0x134
 7589 1c89 8D1C0000 		.4byte	0x1c8d
 7590 1c8d 0B       		.uleb128 0xb
 7591 1c8e 04       		.byte	0x4
 7592 1c8f 931C0000 		.4byte	0x1c93
 7593 1c93 0D       		.uleb128 0xd
 7594 1c94 A81C0000 		.4byte	0x1ca8
 7595 1c98 0E       		.uleb128 0xe
 7596 1c99 A81C0000 		.4byte	0x1ca8
 7597 1c9d 0E       		.uleb128 0xe
 7598 1c9e AE1C0000 		.4byte	0x1cae
 7599 1ca2 0E       		.uleb128 0xe
 7600 1ca3 2C000000 		.4byte	0x2c
 7601 1ca7 00       		.byte	0
 7602 1ca8 0B       		.uleb128 0xb
 7603 1ca9 04       		.byte	0x4
 7604 1caa C71B0000 		.4byte	0x1bc7
 7605 1cae 0B       		.uleb128 0xb
 7606 1caf 04       		.byte	0x4
 7607 1cb0 551C0000 		.4byte	0x1c55
 7608 1cb4 1A       		.uleb128 0x1a
 7609 1cb5 111D0000 		.4byte	.LASF394
 7610 1cb9 1D       		.byte	0x1d
 7611 1cba 3F01     		.2byte	0x13f
 7612 1cbc C01C0000 		.4byte	0x1cc0
 7613 1cc0 0B       		.uleb128 0xb
 7614 1cc1 04       		.byte	0x4
 7615 1cc2 C61C0000 		.4byte	0x1cc6
 7616 1cc6 0D       		.uleb128 0xd
 7617 1cc7 D61C0000 		.4byte	0x1cd6
 7618 1ccb 0E       		.uleb128 0xe
 7619 1ccc A81C0000 		.4byte	0x1ca8
 7620 1cd0 0E       		.uleb128 0xe
 7621 1cd1 751C0000 		.4byte	0x1c75
 7622 1cd5 00       		.byte	0
 7623 1cd6 24       		.uleb128 0x24
 7624 1cd7 07       		.byte	0x7
 7625 1cd8 01       		.byte	0x1
 7626 1cd9 69000000 		.4byte	0x69
 7627 1cdd 1D       		.byte	0x1d
 7628 1cde 4401     		.2byte	0x144
 7629 1ce0 F71C0000 		.4byte	0x1cf7
 7630 1ce4 22       		.uleb128 0x22
 7631 1ce5 25190000 		.4byte	.LASF395
 7632 1ce9 00       		.byte	0
 7633 1cea 22       		.uleb128 0x22
 7634 1ceb 16110000 		.4byte	.LASF396
 7635 1cef 01       		.byte	0x1
 7636 1cf0 22       		.uleb128 0x22
 7637 1cf1 3A140000 		.4byte	.LASF397
ARM GAS  C:\Users\PCHAUT~1\AppData\Local\Temp\ccMxpIDf.s 			page 135


 7638 1cf5 02       		.byte	0x2
 7639 1cf6 00       		.byte	0
 7640 1cf7 1A       		.uleb128 0x1a
 7641 1cf8 470A0000 		.4byte	.LASF398
 7642 1cfc 1D       		.byte	0x1d
 7643 1cfd 4D01     		.2byte	0x14d
 7644 1cff D61C0000 		.4byte	0x1cd6
 7645 1d03 19       		.uleb128 0x19
 7646 1d04 10       		.byte	0x10
 7647 1d05 1D       		.byte	0x1d
 7648 1d06 5201     		.2byte	0x152
 7649 1d08 411D0000 		.4byte	0x1d41
 7650 1d0c 0A       		.uleb128 0xa
 7651 1d0d E00E0000 		.4byte	.LASF345
 7652 1d11 1D       		.byte	0x1d
 7653 1d12 5601     		.2byte	0x156
 7654 1d14 0B010000 		.4byte	0x10b
 7655 1d18 00       		.byte	0
 7656 1d19 0A       		.uleb128 0xa
 7657 1d1a 39090000 		.4byte	.LASF346
 7658 1d1e 1D       		.byte	0x1d
 7659 1d1f 5A01     		.2byte	0x15a
 7660 1d21 811C0000 		.4byte	0x1c81
 7661 1d25 04       		.byte	0x4
 7662 1d26 0A       		.uleb128 0xa
 7663 1d27 2F1F0000 		.4byte	.LASF347
 7664 1d2b 1D       		.byte	0x1d
 7665 1d2c 5E01     		.2byte	0x15e
 7666 1d2e B41C0000 		.4byte	0x1cb4
 7667 1d32 08       		.byte	0x8
 7668 1d33 0A       		.uleb128 0xa
 7669 1d34 63120000 		.4byte	.LASF399
 7670 1d38 1D       		.byte	0x1d
 7671 1d39 6601     		.2byte	0x166
 7672 1d3b 0B010000 		.4byte	0x10b
 7673 1d3f 0C       		.byte	0xc
 7674 1d40 00       		.byte	0
 7675 1d41 1A       		.uleb128 0x1a
 7676 1d42 5C100000 		.4byte	.LASF400
 7677 1d46 1D       		.byte	0x1d
 7678 1d47 6701     		.2byte	0x167
 7679 1d49 031D0000 		.4byte	0x1d03
 7680 1d4d 05       		.uleb128 0x5
 7681 1d4e 411D0000 		.4byte	0x1d41
 7682 1d52 19       		.uleb128 0x19
 7683 1d53 04       		.byte	0x4
 7684 1d54 1D       		.byte	0x1d
 7685 1d55 6C01     		.2byte	0x16c
 7686 1d57 761D0000 		.4byte	0x1d76
 7687 1d5b 0A       		.uleb128 0xa
 7688 1d5c 8B0A0000 		.4byte	.LASF401
 7689 1d60 1D       		.byte	0x1d
 7690 1d61 7101     		.2byte	0x171
 7691 1d63 491C0000 		.4byte	0x1c49
 7692 1d67 00       		.byte	0
 7693 1d68 0A       		.uleb128 0xa
 7694 1d69 05010000 		.4byte	.LASF402
ARM GAS  C:\Users\PCHAUT~1\AppData\Local\Temp\ccMxpIDf.s 			page 136


 7695 1d6d 1D       		.byte	0x1d
 7696 1d6e 7501     		.2byte	0x175
 7697 1d70 F71C0000 		.4byte	0x1cf7
 7698 1d74 02       		.byte	0x2
 7699 1d75 00       		.byte	0
 7700 1d76 1A       		.uleb128 0x1a
 7701 1d77 5D0C0000 		.4byte	.LASF403
 7702 1d7b 1D       		.byte	0x1d
 7703 1d7c 7601     		.2byte	0x176
 7704 1d7e 521D0000 		.4byte	0x1d52
 7705 1d82 05       		.uleb128 0x5
 7706 1d83 761D0000 		.4byte	0x1d76
 7707 1d87 0B       		.uleb128 0xb
 7708 1d88 04       		.byte	0x4
 7709 1d89 4D1D0000 		.4byte	0x1d4d
 7710 1d8d 0B       		.uleb128 0xb
 7711 1d8e 04       		.byte	0x4
 7712 1d8f 821D0000 		.4byte	0x1d82
 7713 1d93 0B       		.uleb128 0xb
 7714 1d94 04       		.byte	0x4
 7715 1d95 C21B0000 		.4byte	0x1bc2
 7716 1d99 15       		.uleb128 0x15
 7717 1d9a 50030000 		.4byte	.LASF404
 7718 1d9e 1D       		.byte	0x1d
 7719 1d9f B301     		.2byte	0x1b3
 7720 1da1 C71B0000 		.4byte	0x1bc7
 7721 1da5 21       		.uleb128 0x21
 7722 1da6 07       		.byte	0x7
 7723 1da7 01       		.byte	0x1
 7724 1da8 69000000 		.4byte	0x69
 7725 1dac 1E       		.byte	0x1e
 7726 1dad 3F       		.byte	0x3f
 7727 1dae C51D0000 		.4byte	0x1dc5
 7728 1db2 22       		.uleb128 0x22
 7729 1db3 C0090000 		.4byte	.LASF405
 7730 1db7 00       		.byte	0
 7731 1db8 22       		.uleb128 0x22
 7732 1db9 12210000 		.4byte	.LASF406
 7733 1dbd 01       		.byte	0x1
 7734 1dbe 22       		.uleb128 0x22
 7735 1dbf CA010000 		.4byte	.LASF407
 7736 1dc3 02       		.byte	0x2
 7737 1dc4 00       		.byte	0
 7738 1dc5 03       		.uleb128 0x3
 7739 1dc6 09180000 		.4byte	.LASF408
 7740 1dca 1E       		.byte	0x1e
 7741 1dcb 43       		.byte	0x43
 7742 1dcc A51D0000 		.4byte	0x1da5
 7743 1dd0 03       		.uleb128 0x3
 7744 1dd1 61070000 		.4byte	.LASF409
 7745 1dd5 1E       		.byte	0x1e
 7746 1dd6 48       		.byte	0x48
 7747 1dd7 DB1D0000 		.4byte	0x1ddb
 7748 1ddb 07       		.uleb128 0x7
 7749 1ddc 61070000 		.4byte	.LASF409
 7750 1de0 08       		.byte	0x8
 7751 1de1 1F       		.byte	0x1f
ARM GAS  C:\Users\PCHAUT~1\AppData\Local\Temp\ccMxpIDf.s 			page 137


 7752 1de2 71       		.byte	0x71
 7753 1de3 001E0000 		.4byte	0x1e00
 7754 1de7 08       		.uleb128 0x8
 7755 1de8 A2130000 		.4byte	.LASF333
 7756 1dec 1F       		.byte	0x1f
 7757 1ded 75       		.byte	0x75
 7758 1dee C51D0000 		.4byte	0x1dc5
 7759 1df2 00       		.byte	0
 7760 1df3 08       		.uleb128 0x8
 7761 1df4 B6180000 		.4byte	.LASF334
 7762 1df8 1F       		.byte	0x1f
 7763 1df9 79       		.byte	0x79
 7764 1dfa 921E0000 		.4byte	0x1e92
 7765 1dfe 04       		.byte	0x4
 7766 1dff 00       		.byte	0
 7767 1e00 03       		.uleb128 0x3
 7768 1e01 811F0000 		.4byte	.LASF410
 7769 1e05 1F       		.byte	0x1f
 7770 1e06 47       		.byte	0x47
 7771 1e07 0B010000 		.4byte	0x10b
 7772 1e0b 03       		.uleb128 0x3
 7773 1e0c 2C1B0000 		.4byte	.LASF411
 7774 1e10 1F       		.byte	0x1f
 7775 1e11 4F       		.byte	0x4f
 7776 1e12 161E0000 		.4byte	0x1e16
 7777 1e16 0B       		.uleb128 0xb
 7778 1e17 04       		.byte	0x4
 7779 1e18 1C1E0000 		.4byte	0x1e1c
 7780 1e1c 0D       		.uleb128 0xd
 7781 1e1d 2C1E0000 		.4byte	0x1e2c
 7782 1e21 0E       		.uleb128 0xe
 7783 1e22 2C1E0000 		.4byte	0x1e2c
 7784 1e26 0E       		.uleb128 0xe
 7785 1e27 001E0000 		.4byte	0x1e00
 7786 1e2b 00       		.byte	0
 7787 1e2c 0B       		.uleb128 0xb
 7788 1e2d 04       		.byte	0x4
 7789 1e2e D01D0000 		.4byte	0x1dd0
 7790 1e32 17       		.uleb128 0x17
 7791 1e33 08       		.byte	0x8
 7792 1e34 1F       		.byte	0x1f
 7793 1e35 54       		.byte	0x54
 7794 1e36 521E0000 		.4byte	0x1e52
 7795 1e3a 08       		.uleb128 0x8
 7796 1e3b 56070000 		.4byte	.LASF412
 7797 1e3f 1F       		.byte	0x1f
 7798 1e40 58       		.byte	0x58
 7799 1e41 0B010000 		.4byte	0x10b
 7800 1e45 00       		.byte	0
 7801 1e46 18       		.uleb128 0x18
 7802 1e47 636200   		.ascii	"cb\000"
 7803 1e4a 1F       		.byte	0x1f
 7804 1e4b 5F       		.byte	0x5f
 7805 1e4c 0B1E0000 		.4byte	0x1e0b
 7806 1e50 04       		.byte	0x4
 7807 1e51 00       		.byte	0
 7808 1e52 03       		.uleb128 0x3
ARM GAS  C:\Users\PCHAUT~1\AppData\Local\Temp\ccMxpIDf.s 			page 138


 7809 1e53 A80D0000 		.4byte	.LASF413
 7810 1e57 1F       		.byte	0x1f
 7811 1e58 60       		.byte	0x60
 7812 1e59 321E0000 		.4byte	0x1e32
 7813 1e5d 17       		.uleb128 0x17
 7814 1e5e B8       		.byte	0xb8
 7815 1e5f 1F       		.byte	0x1f
 7816 1e60 66       		.byte	0x66
 7817 1e61 721E0000 		.4byte	0x1e72
 7818 1e65 08       		.uleb128 0x8
 7819 1e66 311D0000 		.4byte	.LASF414
 7820 1e6a 1F       		.byte	0x1f
 7821 1e6b 6A       		.byte	0x6a
 7822 1e6c 721E0000 		.4byte	0x1e72
 7823 1e70 00       		.byte	0
 7824 1e71 00       		.byte	0
 7825 1e72 13       		.uleb128 0x13
 7826 1e73 521E0000 		.4byte	0x1e52
 7827 1e77 821E0000 		.4byte	0x1e82
 7828 1e7b 14       		.uleb128 0x14
 7829 1e7c 37000000 		.4byte	0x37
 7830 1e80 16       		.byte	0x16
 7831 1e81 00       		.byte	0
 7832 1e82 03       		.uleb128 0x3
 7833 1e83 251A0000 		.4byte	.LASF415
 7834 1e87 1F       		.byte	0x1f
 7835 1e88 6C       		.byte	0x6c
 7836 1e89 5D1E0000 		.4byte	0x1e5d
 7837 1e8d 05       		.uleb128 0x5
 7838 1e8e 821E0000 		.4byte	0x1e82
 7839 1e92 0B       		.uleb128 0xb
 7840 1e93 04       		.byte	0x4
 7841 1e94 8D1E0000 		.4byte	0x1e8d
 7842 1e98 16       		.uleb128 0x16
 7843 1e99 0E050000 		.4byte	.LASF416
 7844 1e9d 1F       		.byte	0x1f
 7845 1e9e 86       		.byte	0x86
 7846 1e9f D01D0000 		.4byte	0x1dd0
 7847 1ea3 21       		.uleb128 0x21
 7848 1ea4 07       		.byte	0x7
 7849 1ea5 01       		.byte	0x1
 7850 1ea6 69000000 		.4byte	0x69
 7851 1eaa 20       		.byte	0x20
 7852 1eab 31       		.byte	0x31
 7853 1eac CF1E0000 		.4byte	0x1ecf
 7854 1eb0 22       		.uleb128 0x22
 7855 1eb1 4E140000 		.4byte	.LASF417
 7856 1eb5 00       		.byte	0
 7857 1eb6 22       		.uleb128 0x22
 7858 1eb7 85120000 		.4byte	.LASF418
 7859 1ebb 01       		.byte	0x1
 7860 1ebc 22       		.uleb128 0x22
 7861 1ebd 54160000 		.4byte	.LASF419
 7862 1ec1 02       		.byte	0x2
 7863 1ec2 22       		.uleb128 0x22
 7864 1ec3 A2060000 		.4byte	.LASF420
 7865 1ec7 03       		.byte	0x3
ARM GAS  C:\Users\PCHAUT~1\AppData\Local\Temp\ccMxpIDf.s 			page 139


 7866 1ec8 22       		.uleb128 0x22
 7867 1ec9 B5030000 		.4byte	.LASF421
 7868 1ecd 04       		.byte	0x4
 7869 1ece 00       		.byte	0
 7870 1ecf 03       		.uleb128 0x3
 7871 1ed0 5C110000 		.4byte	.LASF422
 7872 1ed4 20       		.byte	0x20
 7873 1ed5 37       		.byte	0x37
 7874 1ed6 A31E0000 		.4byte	0x1ea3
 7875 1eda 03       		.uleb128 0x3
 7876 1edb 15150000 		.4byte	.LASF423
 7877 1edf 20       		.byte	0x20
 7878 1ee0 3C       		.byte	0x3c
 7879 1ee1 E51E0000 		.4byte	0x1ee5
 7880 1ee5 0C       		.uleb128 0xc
 7881 1ee6 15150000 		.4byte	.LASF423
 7882 1eea 10       		.byte	0x10
 7883 1eeb 21       		.byte	0x21
 7884 1eec 9701     		.2byte	0x197
 7885 1eee 271F0000 		.4byte	0x1f27
 7886 1ef2 0A       		.uleb128 0xa
 7887 1ef3 A2130000 		.4byte	.LASF333
 7888 1ef7 21       		.byte	0x21
 7889 1ef8 9B01     		.2byte	0x19b
 7890 1efa CF1E0000 		.4byte	0x1ecf
 7891 1efe 00       		.byte	0
 7892 1eff 0A       		.uleb128 0xa
 7893 1f00 B6180000 		.4byte	.LASF334
 7894 1f04 21       		.byte	0x21
 7895 1f05 9F01     		.2byte	0x19f
 7896 1f07 BC200000 		.4byte	0x20bc
 7897 1f0b 04       		.byte	0x4
 7898 1f0c 0A       		.uleb128 0xa
 7899 1f0d 710C0000 		.4byte	.LASF424
 7900 1f11 21       		.byte	0x21
 7901 1f12 A701     		.2byte	0x1a7
 7902 1f14 0B010000 		.4byte	0x10b
 7903 1f18 08       		.byte	0x8
 7904 1f19 09       		.uleb128 0x9
 7905 1f1a 74696D00 		.ascii	"tim\000"
 7906 1f1e 21       		.byte	0x21
 7907 1f1f AB01     		.2byte	0x1ab
 7908 1f21 C2200000 		.4byte	0x20c2
 7909 1f25 0C       		.byte	0xc
 7910 1f26 00       		.byte	0
 7911 1f27 03       		.uleb128 0x3
 7912 1f28 C40F0000 		.4byte	.LASF425
 7913 1f2c 20       		.byte	0x20
 7914 1f2d 43       		.byte	0x43
 7915 1f2e 321F0000 		.4byte	0x1f32
 7916 1f32 0B       		.uleb128 0xb
 7917 1f33 04       		.byte	0x4
 7918 1f34 381F0000 		.4byte	0x1f38
 7919 1f38 0D       		.uleb128 0xd
 7920 1f39 431F0000 		.4byte	0x1f43
 7921 1f3d 0E       		.uleb128 0xe
 7922 1f3e 431F0000 		.4byte	0x1f43
ARM GAS  C:\Users\PCHAUT~1\AppData\Local\Temp\ccMxpIDf.s 			page 140


 7923 1f42 00       		.byte	0
 7924 1f43 0B       		.uleb128 0xb
 7925 1f44 04       		.byte	0x4
 7926 1f45 DA1E0000 		.4byte	0x1eda
 7927 1f49 19       		.uleb128 0x19
 7928 1f4a 60       		.byte	0x60
 7929 1f4b 22       		.byte	0x22
 7930 1f4c 9E01     		.2byte	0x19e
 7931 1f4e 55200000 		.4byte	0x2055
 7932 1f52 09       		.uleb128 0x9
 7933 1f53 43523100 		.ascii	"CR1\000"
 7934 1f57 22       		.byte	0x22
 7935 1f58 9F01     		.2byte	0x19f
 7936 1f5a 16010000 		.4byte	0x116
 7937 1f5e 00       		.byte	0
 7938 1f5f 09       		.uleb128 0x9
 7939 1f60 43523200 		.ascii	"CR2\000"
 7940 1f64 22       		.byte	0x22
 7941 1f65 A001     		.2byte	0x1a0
 7942 1f67 16010000 		.4byte	0x116
 7943 1f6b 04       		.byte	0x4
 7944 1f6c 0A       		.uleb128 0xa
 7945 1f6d 721C0000 		.4byte	.LASF426
 7946 1f71 22       		.byte	0x22
 7947 1f72 A101     		.2byte	0x1a1
 7948 1f74 16010000 		.4byte	0x116
 7949 1f78 08       		.byte	0x8
 7950 1f79 0A       		.uleb128 0xa
 7951 1f7a 0C0A0000 		.4byte	.LASF427
 7952 1f7e 22       		.byte	0x22
 7953 1f7f A201     		.2byte	0x1a2
 7954 1f81 16010000 		.4byte	0x116
 7955 1f85 0C       		.byte	0xc
 7956 1f86 09       		.uleb128 0x9
 7957 1f87 535200   		.ascii	"SR\000"
 7958 1f8a 22       		.byte	0x22
 7959 1f8b A301     		.2byte	0x1a3
 7960 1f8d 16010000 		.4byte	0x116
 7961 1f91 10       		.byte	0x10
 7962 1f92 09       		.uleb128 0x9
 7963 1f93 45475200 		.ascii	"EGR\000"
 7964 1f97 22       		.byte	0x22
 7965 1f98 A401     		.2byte	0x1a4
 7966 1f9a 16010000 		.4byte	0x116
 7967 1f9e 14       		.byte	0x14
 7968 1f9f 0A       		.uleb128 0xa
 7969 1fa0 1D200000 		.4byte	.LASF428
 7970 1fa4 22       		.byte	0x22
 7971 1fa5 A501     		.2byte	0x1a5
 7972 1fa7 16010000 		.4byte	0x116
 7973 1fab 18       		.byte	0x18
 7974 1fac 0A       		.uleb128 0xa
 7975 1fad 23200000 		.4byte	.LASF429
 7976 1fb1 22       		.byte	0x22
 7977 1fb2 A601     		.2byte	0x1a6
 7978 1fb4 16010000 		.4byte	0x116
 7979 1fb8 1C       		.byte	0x1c
ARM GAS  C:\Users\PCHAUT~1\AppData\Local\Temp\ccMxpIDf.s 			page 141


 7980 1fb9 0A       		.uleb128 0xa
 7981 1fba 39060000 		.4byte	.LASF430
 7982 1fbe 22       		.byte	0x22
 7983 1fbf A701     		.2byte	0x1a7
 7984 1fc1 16010000 		.4byte	0x116
 7985 1fc5 20       		.byte	0x20
 7986 1fc6 09       		.uleb128 0x9
 7987 1fc7 434E5400 		.ascii	"CNT\000"
 7988 1fcb 22       		.byte	0x22
 7989 1fcc A801     		.2byte	0x1a8
 7990 1fce 16010000 		.4byte	0x116
 7991 1fd2 24       		.byte	0x24
 7992 1fd3 09       		.uleb128 0x9
 7993 1fd4 50534300 		.ascii	"PSC\000"
 7994 1fd8 22       		.byte	0x22
 7995 1fd9 A901     		.2byte	0x1a9
 7996 1fdb 16010000 		.4byte	0x116
 7997 1fdf 28       		.byte	0x28
 7998 1fe0 09       		.uleb128 0x9
 7999 1fe1 41525200 		.ascii	"ARR\000"
 8000 1fe5 22       		.byte	0x22
 8001 1fe6 AA01     		.2byte	0x1aa
 8002 1fe8 16010000 		.4byte	0x116
 8003 1fec 2C       		.byte	0x2c
 8004 1fed 09       		.uleb128 0x9
 8005 1fee 52435200 		.ascii	"RCR\000"
 8006 1ff2 22       		.byte	0x22
 8007 1ff3 AB01     		.2byte	0x1ab
 8008 1ff5 16010000 		.4byte	0x116
 8009 1ff9 30       		.byte	0x30
 8010 1ffa 09       		.uleb128 0x9
 8011 1ffb 43435200 		.ascii	"CCR\000"
 8012 1fff 22       		.byte	0x22
 8013 2000 AC01     		.2byte	0x1ac
 8014 2002 140A0000 		.4byte	0xa14
 8015 2006 34       		.byte	0x34
 8016 2007 0A       		.uleb128 0xa
 8017 2008 9D010000 		.4byte	.LASF431
 8018 200c 22       		.byte	0x22
 8019 200d AD01     		.2byte	0x1ad
 8020 200f 16010000 		.4byte	0x116
 8021 2013 44       		.byte	0x44
 8022 2014 09       		.uleb128 0x9
 8023 2015 44435200 		.ascii	"DCR\000"
 8024 2019 22       		.byte	0x22
 8025 201a AE01     		.2byte	0x1ae
 8026 201c 16010000 		.4byte	0x116
 8027 2020 48       		.byte	0x48
 8028 2021 0A       		.uleb128 0xa
 8029 2022 FF130000 		.4byte	.LASF432
 8030 2026 22       		.byte	0x22
 8031 2027 AF01     		.2byte	0x1af
 8032 2029 16010000 		.4byte	0x116
 8033 202d 4C       		.byte	0x4c
 8034 202e 09       		.uleb128 0x9
 8035 202f 4F5200   		.ascii	"OR\000"
 8036 2032 22       		.byte	0x22
ARM GAS  C:\Users\PCHAUT~1\AppData\Local\Temp\ccMxpIDf.s 			page 142


 8037 2033 B001     		.2byte	0x1b0
 8038 2035 16010000 		.4byte	0x116
 8039 2039 50       		.byte	0x50
 8040 203a 0A       		.uleb128 0xa
 8041 203b 29200000 		.4byte	.LASF433
 8042 203f 22       		.byte	0x22
 8043 2040 B101     		.2byte	0x1b1
 8044 2042 16010000 		.4byte	0x116
 8045 2046 54       		.byte	0x54
 8046 2047 0A       		.uleb128 0xa
 8047 2048 7D0C0000 		.4byte	.LASF434
 8048 204c 22       		.byte	0x22
 8049 204d B201     		.2byte	0x1b2
 8050 204f FF090000 		.4byte	0x9ff
 8051 2053 58       		.byte	0x58
 8052 2054 00       		.byte	0
 8053 2055 1A       		.uleb128 0x1a
 8054 2056 861B0000 		.4byte	.LASF435
 8055 205a 22       		.byte	0x22
 8056 205b B301     		.2byte	0x1b3
 8057 205d 491F0000 		.4byte	0x1f49
 8058 2061 1A       		.uleb128 0x1a
 8059 2062 96070000 		.4byte	.LASF436
 8060 2066 21       		.byte	0x21
 8061 2067 6D01     		.2byte	0x16d
 8062 2069 0B010000 		.4byte	0x10b
 8063 206d 19       		.uleb128 0x19
 8064 206e 10       		.byte	0x10
 8065 206f 21       		.byte	0x21
 8066 2070 7801     		.2byte	0x178
 8067 2072 AB200000 		.4byte	0x20ab
 8068 2076 0A       		.uleb128 0xa
 8069 2077 981F0000 		.4byte	.LASF437
 8070 207b 21       		.byte	0x21
 8071 207c 7E01     		.2byte	0x17e
 8072 207e 61200000 		.4byte	0x2061
 8073 2082 00       		.byte	0
 8074 2083 0A       		.uleb128 0xa
 8075 2084 04140000 		.4byte	.LASF438
 8076 2088 21       		.byte	0x21
 8077 2089 8501     		.2byte	0x185
 8078 208b 271F0000 		.4byte	0x1f27
 8079 208f 04       		.byte	0x4
 8080 2090 09       		.uleb128 0x9
 8081 2091 63723200 		.ascii	"cr2\000"
 8082 2095 21       		.byte	0x21
 8083 2096 8B01     		.2byte	0x18b
 8084 2098 0B010000 		.4byte	0x10b
 8085 209c 08       		.byte	0x8
 8086 209d 0A       		.uleb128 0xa
 8087 209e DC0B0000 		.4byte	.LASF439
 8088 20a2 21       		.byte	0x21
 8089 20a3 9101     		.2byte	0x191
 8090 20a5 0B010000 		.4byte	0x10b
 8091 20a9 0C       		.byte	0xc
 8092 20aa 00       		.byte	0
 8093 20ab 1A       		.uleb128 0x1a
ARM GAS  C:\Users\PCHAUT~1\AppData\Local\Temp\ccMxpIDf.s 			page 143


 8094 20ac 8C050000 		.4byte	.LASF440
 8095 20b0 21       		.byte	0x21
 8096 20b1 9201     		.2byte	0x192
 8097 20b3 6D200000 		.4byte	0x206d
 8098 20b7 05       		.uleb128 0x5
 8099 20b8 AB200000 		.4byte	0x20ab
 8100 20bc 0B       		.uleb128 0xb
 8101 20bd 04       		.byte	0x4
 8102 20be B7200000 		.4byte	0x20b7
 8103 20c2 0B       		.uleb128 0xb
 8104 20c3 04       		.byte	0x4
 8105 20c4 55200000 		.4byte	0x2055
 8106 20c8 15       		.uleb128 0x15
 8107 20c9 291F0000 		.4byte	.LASF441
 8108 20cd 21       		.byte	0x21
 8109 20ce F201     		.2byte	0x1f2
 8110 20d0 DA1E0000 		.4byte	0x1eda
 8111 20d4 15       		.uleb128 0x15
 8112 20d5 BD180000 		.4byte	.LASF442
 8113 20d9 21       		.byte	0x21
 8114 20da 0202     		.2byte	0x202
 8115 20dc DA1E0000 		.4byte	0x1eda
 8116 20e0 21       		.uleb128 0x21
 8117 20e1 07       		.byte	0x7
 8118 20e2 01       		.byte	0x1
 8119 20e3 69000000 		.4byte	0x69
 8120 20e7 23       		.byte	0x23
 8121 20e8 4C       		.byte	0x4c
 8122 20e9 12210000 		.4byte	0x2112
 8123 20ed 22       		.uleb128 0x22
 8124 20ee 64050000 		.4byte	.LASF443
 8125 20f2 00       		.byte	0
 8126 20f3 22       		.uleb128 0x22
 8127 20f4 770D0000 		.4byte	.LASF444
 8128 20f8 01       		.byte	0x1
 8129 20f9 22       		.uleb128 0x22
 8130 20fa BD050000 		.4byte	.LASF445
 8131 20fe 02       		.byte	0x2
 8132 20ff 22       		.uleb128 0x22
 8133 2100 DB030000 		.4byte	.LASF446
 8134 2104 03       		.byte	0x3
 8135 2105 22       		.uleb128 0x22
 8136 2106 DC020000 		.4byte	.LASF447
 8137 210a 04       		.byte	0x4
 8138 210b 22       		.uleb128 0x22
 8139 210c 31110000 		.4byte	.LASF448
 8140 2110 05       		.byte	0x5
 8141 2111 00       		.byte	0
 8142 2112 03       		.uleb128 0x3
 8143 2113 890F0000 		.4byte	.LASF449
 8144 2117 23       		.byte	0x23
 8145 2118 53       		.byte	0x53
 8146 2119 E0200000 		.4byte	0x20e0
 8147 211d 1A       		.uleb128 0x1a
 8148 211e 2C040000 		.4byte	.LASF450
 8149 2122 24       		.byte	0x24
 8150 2123 6A01     		.2byte	0x16a
ARM GAS  C:\Users\PCHAUT~1\AppData\Local\Temp\ccMxpIDf.s 			page 144


 8151 2125 F0000000 		.4byte	0xf0
 8152 2129 1A       		.uleb128 0x1a
 8153 212a 7D030000 		.4byte	.LASF451
 8154 212e 24       		.byte	0x24
 8155 212f 6F01     		.2byte	0x16f
 8156 2131 0B010000 		.4byte	0x10b
 8157 2135 24       		.uleb128 0x24
 8158 2136 07       		.byte	0x7
 8159 2137 01       		.byte	0x1
 8160 2138 69000000 		.4byte	0x69
 8161 213c 24       		.byte	0x24
 8162 213d 7401     		.2byte	0x174
 8163 213f 56210000 		.4byte	0x2156
 8164 2143 22       		.uleb128 0x22
 8165 2144 EE030000 		.4byte	.LASF452
 8166 2148 01       		.byte	0x1
 8167 2149 22       		.uleb128 0x22
 8168 214a 50000000 		.4byte	.LASF453
 8169 214e 02       		.byte	0x2
 8170 214f 22       		.uleb128 0x22
 8171 2150 94090000 		.4byte	.LASF454
 8172 2154 03       		.byte	0x3
 8173 2155 00       		.byte	0
 8174 2156 1A       		.uleb128 0x1a
 8175 2157 75200000 		.4byte	.LASF455
 8176 215b 24       		.byte	0x24
 8177 215c 7801     		.2byte	0x178
 8178 215e 35210000 		.4byte	0x2135
 8179 2162 24       		.uleb128 0x24
 8180 2163 07       		.byte	0x7
 8181 2164 01       		.byte	0x1
 8182 2165 69000000 		.4byte	0x69
 8183 2169 24       		.byte	0x24
 8184 216a 7D01     		.2byte	0x17d
 8185 216c 83210000 		.4byte	0x2183
 8186 2170 22       		.uleb128 0x22
 8187 2171 DF040000 		.4byte	.LASF456
 8188 2175 01       		.byte	0x1
 8189 2176 22       		.uleb128 0x22
 8190 2177 F21F0000 		.4byte	.LASF457
 8191 217b 02       		.byte	0x2
 8192 217c 22       		.uleb128 0x22
 8193 217d 5B0A0000 		.4byte	.LASF458
 8194 2181 03       		.byte	0x3
 8195 2182 00       		.byte	0
 8196 2183 1A       		.uleb128 0x1a
 8197 2184 D0050000 		.4byte	.LASF459
 8198 2188 24       		.byte	0x24
 8199 2189 8101     		.2byte	0x181
 8200 218b 62210000 		.4byte	0x2162
 8201 218f 19       		.uleb128 0x19
 8202 2190 0C       		.byte	0xc
 8203 2191 24       		.byte	0x24
 8204 2192 8601     		.2byte	0x186
 8205 2194 C0210000 		.4byte	0x21c0
 8206 2198 0A       		.uleb128 0xa
 8207 2199 AD120000 		.4byte	.LASF460
ARM GAS  C:\Users\PCHAUT~1\AppData\Local\Temp\ccMxpIDf.s 			page 145


 8208 219d 24       		.byte	0x24
 8209 219e 8801     		.2byte	0x188
 8210 21a0 56210000 		.4byte	0x2156
 8211 21a4 00       		.byte	0
 8212 21a5 0A       		.uleb128 0xa
 8213 21a6 3A030000 		.4byte	.LASF461
 8214 21aa 24       		.byte	0x24
 8215 21ab 8901     		.2byte	0x189
 8216 21ad 0B010000 		.4byte	0x10b
 8217 21b1 04       		.byte	0x4
 8218 21b2 0A       		.uleb128 0xa
 8219 21b3 E3200000 		.4byte	.LASF462
 8220 21b7 24       		.byte	0x24
 8221 21b8 8C01     		.2byte	0x18c
 8222 21ba 83210000 		.4byte	0x2183
 8223 21be 08       		.byte	0x8
 8224 21bf 00       		.byte	0
 8225 21c0 1A       		.uleb128 0x1a
 8226 21c1 AA010000 		.4byte	.LASF463
 8227 21c5 24       		.byte	0x24
 8228 21c6 8E01     		.2byte	0x18e
 8229 21c8 8F210000 		.4byte	0x218f
 8230 21cc 05       		.uleb128 0x5
 8231 21cd C0210000 		.4byte	0x21c0
 8232 21d1 1A       		.uleb128 0x1a
 8233 21d2 D1030000 		.4byte	.LASF464
 8234 21d6 24       		.byte	0x24
 8235 21d7 9301     		.2byte	0x193
 8236 21d9 DD210000 		.4byte	0x21dd
 8237 21dd 0C       		.uleb128 0xc
 8238 21de D1030000 		.4byte	.LASF464
 8239 21e2 3C       		.byte	0x3c
 8240 21e3 24       		.byte	0x24
 8241 21e4 9801     		.2byte	0x198
 8242 21e6 7A220000 		.4byte	0x227a
 8243 21ea 0A       		.uleb128 0xa
 8244 21eb A2130000 		.4byte	.LASF333
 8245 21ef 24       		.byte	0x24
 8246 21f0 9C01     		.2byte	0x19c
 8247 21f2 12210000 		.4byte	0x2112
 8248 21f6 00       		.byte	0
 8249 21f7 0A       		.uleb128 0xa
 8250 21f8 B6180000 		.4byte	.LASF334
 8251 21fc 24       		.byte	0x24
 8252 21fd A001     		.2byte	0x1a0
 8253 21ff 7A220000 		.4byte	0x227a
 8254 2203 04       		.byte	0x4
 8255 2204 0A       		.uleb128 0xa
 8256 2205 50010000 		.4byte	.LASF465
 8257 2209 24       		.byte	0x24
 8258 220a A401     		.2byte	0x1a4
 8259 220c 29210000 		.4byte	0x2129
 8260 2210 08       		.byte	0x8
 8261 2211 0A       		.uleb128 0xa
 8262 2212 320C0000 		.4byte	.LASF339
 8263 2216 24       		.byte	0x24
 8264 2217 A901     		.2byte	0x1a9
ARM GAS  C:\Users\PCHAUT~1\AppData\Local\Temp\ccMxpIDf.s 			page 146


 8265 2219 BD110000 		.4byte	0x11bd
 8266 221d 0C       		.byte	0xc
 8267 221e 0A       		.uleb128 0xa
 8268 221f FD050000 		.4byte	.LASF338
 8269 2223 24       		.byte	0x24
 8270 2224 B201     		.2byte	0x1b2
 8271 2226 E8020000 		.4byte	0x2e8
 8272 222a 20       		.byte	0x20
 8273 222b 0A       		.uleb128 0xa
 8274 222c 800D0000 		.4byte	.LASF466
 8275 2230 24       		.byte	0x24
 8276 2231 B601     		.2byte	0x1b6
 8277 2233 1D210000 		.4byte	0x211d
 8278 2237 24       		.byte	0x24
 8279 2238 0A       		.uleb128 0xa
 8280 2239 4C070000 		.4byte	.LASF467
 8281 223d 24       		.byte	0x24
 8282 223e BA01     		.2byte	0x1ba
 8283 2240 0B010000 		.4byte	0x10b
 8284 2244 28       		.byte	0x28
 8285 2245 0A       		.uleb128 0xa
 8286 2246 8C070000 		.4byte	.LASF468
 8287 224a 24       		.byte	0x24
 8288 224b BE01     		.2byte	0x1be
 8289 224d 0B010000 		.4byte	0x10b
 8290 2251 2C       		.byte	0x2c
 8291 2252 0A       		.uleb128 0xa
 8292 2253 0E010000 		.4byte	.LASF469
 8293 2257 24       		.byte	0x24
 8294 2258 C201     		.2byte	0x1c2
 8295 225a BC190000 		.4byte	0x19bc
 8296 225e 30       		.byte	0x30
 8297 225f 0A       		.uleb128 0xa
 8298 2260 BD010000 		.4byte	.LASF470
 8299 2264 24       		.byte	0x24
 8300 2265 C601     		.2byte	0x1c6
 8301 2267 BC190000 		.4byte	0x19bc
 8302 226b 34       		.byte	0x34
 8303 226c 09       		.uleb128 0x9
 8304 226d 69326300 		.ascii	"i2c\000"
 8305 2271 24       		.byte	0x24
 8306 2272 CA01     		.2byte	0x1ca
 8307 2274 80220000 		.4byte	0x2280
 8308 2278 38       		.byte	0x38
 8309 2279 00       		.byte	0
 8310 227a 0B       		.uleb128 0xb
 8311 227b 04       		.byte	0x4
 8312 227c CC210000 		.4byte	0x21cc
 8313 2280 0B       		.uleb128 0xb
 8314 2281 04       		.byte	0x4
 8315 2282 A40A0000 		.4byte	0xaa4
 8316 2286 15       		.uleb128 0x15
 8317 2287 E20F0000 		.4byte	.LASF471
 8318 228b 24       		.byte	0x24
 8319 228c E001     		.2byte	0x1e0
 8320 228e D1210000 		.4byte	0x21d1
 8321 2292 21       		.uleb128 0x21
ARM GAS  C:\Users\PCHAUT~1\AppData\Local\Temp\ccMxpIDf.s 			page 147


 8322 2293 07       		.byte	0x7
 8323 2294 01       		.byte	0x1
 8324 2295 69000000 		.4byte	0x69
 8325 2299 25       		.byte	0x25
 8326 229a 39       		.byte	0x39
 8327 229b BE220000 		.4byte	0x22be
 8328 229f 22       		.uleb128 0x22
 8329 22a0 830E0000 		.4byte	.LASF472
 8330 22a4 00       		.byte	0
 8331 22a5 22       		.uleb128 0x22
 8332 22a6 180C0000 		.4byte	.LASF473
 8333 22aa 01       		.byte	0x1
 8334 22ab 22       		.uleb128 0x22
 8335 22ac 2C010000 		.4byte	.LASF474
 8336 22b0 02       		.byte	0x2
 8337 22b1 22       		.uleb128 0x22
 8338 22b2 49160000 		.4byte	.LASF475
 8339 22b6 03       		.byte	0x3
 8340 22b7 22       		.uleb128 0x22
 8341 22b8 A91A0000 		.4byte	.LASF476
 8342 22bc 04       		.byte	0x4
 8343 22bd 00       		.byte	0
 8344 22be 03       		.uleb128 0x3
 8345 22bf BB1D0000 		.4byte	.LASF477
 8346 22c3 25       		.byte	0x25
 8347 22c4 3F       		.byte	0x3f
 8348 22c5 92220000 		.4byte	0x2292
 8349 22c9 03       		.uleb128 0x3
 8350 22ca D9200000 		.4byte	.LASF478
 8351 22ce 26       		.byte	0x26
 8352 22cf E2       		.byte	0xe2
 8353 22d0 D4220000 		.4byte	0x22d4
 8354 22d4 0C       		.uleb128 0xc
 8355 22d5 D9200000 		.4byte	.LASF478
 8356 22d9 20       		.byte	0x20
 8357 22da 26       		.byte	0x26
 8358 22db 1B01     		.2byte	0x11b
 8359 22dd 4A230000 		.4byte	0x234a
 8360 22e1 0A       		.uleb128 0xa
 8361 22e2 A2130000 		.4byte	.LASF333
 8362 22e6 26       		.byte	0x26
 8363 22e7 1F01     		.2byte	0x11f
 8364 22e9 BE220000 		.4byte	0x22be
 8365 22ed 00       		.byte	0
 8366 22ee 0A       		.uleb128 0xa
 8367 22ef B6180000 		.4byte	.LASF334
 8368 22f3 26       		.byte	0x26
 8369 22f4 2301     		.2byte	0x123
 8370 22f6 E2230000 		.4byte	0x23e2
 8371 22fa 04       		.byte	0x4
 8372 22fb 09       		.uleb128 0x9
 8373 22fc 73706900 		.ascii	"spi\000"
 8374 2300 26       		.byte	0x26
 8375 2301 2801     		.2byte	0x128
 8376 2303 E8230000 		.4byte	0x23e8
 8377 2307 08       		.byte	0x8
 8378 2308 09       		.uleb128 0x9
ARM GAS  C:\Users\PCHAUT~1\AppData\Local\Temp\ccMxpIDf.s 			page 148


 8379 2309 63666700 		.ascii	"cfg\000"
 8380 230d 26       		.byte	0x26
 8381 230e 2C01     		.2byte	0x12c
 8382 2310 F0000000 		.4byte	0xf0
 8383 2314 0C       		.byte	0xc
 8384 2315 0A       		.uleb128 0xa
 8385 2316 0E010000 		.4byte	.LASF469
 8386 231a 26       		.byte	0x26
 8387 231b 3001     		.2byte	0x130
 8388 231d BC190000 		.4byte	0x19bc
 8389 2321 10       		.byte	0x10
 8390 2322 0A       		.uleb128 0xa
 8391 2323 BD010000 		.4byte	.LASF470
 8392 2327 26       		.byte	0x26
 8393 2328 3401     		.2byte	0x134
 8394 232a BC190000 		.4byte	0x19bc
 8395 232e 14       		.byte	0x14
 8396 232f 0A       		.uleb128 0xa
 8397 2330 4C070000 		.4byte	.LASF467
 8398 2334 26       		.byte	0x26
 8399 2335 3801     		.2byte	0x138
 8400 2337 0B010000 		.4byte	0x10b
 8401 233b 18       		.byte	0x18
 8402 233c 0A       		.uleb128 0xa
 8403 233d 8C070000 		.4byte	.LASF468
 8404 2341 26       		.byte	0x26
 8405 2342 3C01     		.2byte	0x13c
 8406 2344 0B010000 		.4byte	0x10b
 8407 2348 1C       		.byte	0x1c
 8408 2349 00       		.byte	0
 8409 234a 03       		.uleb128 0x3
 8410 234b 78070000 		.4byte	.LASF479
 8411 234f 26       		.byte	0x26
 8412 2350 EB       		.byte	0xeb
 8413 2351 55230000 		.4byte	0x2355
 8414 2355 0B       		.uleb128 0xb
 8415 2356 04       		.byte	0x4
 8416 2357 5B230000 		.4byte	0x235b
 8417 235b 0D       		.uleb128 0xd
 8418 235c 70230000 		.4byte	0x2370
 8419 2360 0E       		.uleb128 0xe
 8420 2361 70230000 		.4byte	0x2370
 8421 2365 0E       		.uleb128 0xe
 8422 2366 2C000000 		.4byte	0x2c
 8423 236a 0E       		.uleb128 0xe
 8424 236b 2C000000 		.4byte	0x2c
 8425 236f 00       		.byte	0
 8426 2370 0B       		.uleb128 0xb
 8427 2371 04       		.byte	0x4
 8428 2372 C9220000 		.4byte	0x22c9
 8429 2376 17       		.uleb128 0x17
 8430 2377 14       		.byte	0x14
 8431 2378 26       		.byte	0x26
 8432 2379 F1       		.byte	0xf1
 8433 237a CA230000 		.4byte	0x23ca
 8434 237e 08       		.uleb128 0x8
 8435 237f 72010000 		.4byte	.LASF480
ARM GAS  C:\Users\PCHAUT~1\AppData\Local\Temp\ccMxpIDf.s 			page 149


 8436 2383 26       		.byte	0x26
 8437 2384 F6       		.byte	0xf6
 8438 2385 CA230000 		.4byte	0x23ca
 8439 2389 00       		.byte	0
 8440 238a 08       		.uleb128 0x8
 8441 238b 46010000 		.4byte	.LASF481
 8442 238f 26       		.byte	0x26
 8443 2390 FB       		.byte	0xfb
 8444 2391 D0030000 		.4byte	0x3d0
 8445 2395 04       		.byte	0x4
 8446 2396 08       		.uleb128 0x8
 8447 2397 380C0000 		.4byte	.LASF482
 8448 239b 26       		.byte	0x26
 8449 239c FF       		.byte	0xff
 8450 239d 2C000000 		.4byte	0x2c
 8451 23a1 08       		.byte	0x8
 8452 23a2 0A       		.uleb128 0xa
 8453 23a3 39090000 		.4byte	.LASF346
 8454 23a7 26       		.byte	0x26
 8455 23a8 0301     		.2byte	0x103
 8456 23aa 4A230000 		.4byte	0x234a
 8457 23ae 0C       		.byte	0xc
 8458 23af 0A       		.uleb128 0xa
 8459 23b0 95160000 		.4byte	.LASF483
 8460 23b4 26       		.byte	0x26
 8461 23b5 0F01     		.2byte	0x10f
 8462 23b7 E5000000 		.4byte	0xe5
 8463 23bb 10       		.byte	0x10
 8464 23bc 0A       		.uleb128 0xa
 8465 23bd AE050000 		.4byte	.LASF484
 8466 23c1 26       		.byte	0x26
 8467 23c2 1501     		.2byte	0x115
 8468 23c4 E5000000 		.4byte	0xe5
 8469 23c8 12       		.byte	0x12
 8470 23c9 00       		.byte	0
 8471 23ca 0B       		.uleb128 0xb
 8472 23cb 04       		.byte	0x4
 8473 23cc D0230000 		.4byte	0x23d0
 8474 23d0 25       		.uleb128 0x25
 8475 23d1 1A       		.uleb128 0x1a
 8476 23d2 EE200000 		.4byte	.LASF485
 8477 23d6 26       		.byte	0x26
 8478 23d7 1601     		.2byte	0x116
 8479 23d9 76230000 		.4byte	0x2376
 8480 23dd 05       		.uleb128 0x5
 8481 23de D1230000 		.4byte	0x23d1
 8482 23e2 0B       		.uleb128 0xb
 8483 23e3 04       		.byte	0x4
 8484 23e4 DD230000 		.4byte	0x23dd
 8485 23e8 0B       		.uleb128 0xb
 8486 23e9 04       		.byte	0x4
 8487 23ea 570C0000 		.4byte	0xc57
 8488 23ee 15       		.uleb128 0x15
 8489 23ef 23210000 		.4byte	.LASF486
 8490 23f3 26       		.byte	0x26
 8491 23f4 4801     		.2byte	0x148
 8492 23f6 C9220000 		.4byte	0x22c9
ARM GAS  C:\Users\PCHAUT~1\AppData\Local\Temp\ccMxpIDf.s 			page 150


 8493 23fa 21       		.uleb128 0x21
 8494 23fb 07       		.byte	0x7
 8495 23fc 01       		.byte	0x1
 8496 23fd 69000000 		.4byte	0x69
 8497 2401 27       		.byte	0x27
 8498 2402 4A       		.byte	0x4a
 8499 2403 1A240000 		.4byte	0x241a
 8500 2407 22       		.uleb128 0x22
 8501 2408 44060000 		.4byte	.LASF487
 8502 240c 00       		.byte	0
 8503 240d 22       		.uleb128 0x22
 8504 240e 210C0000 		.4byte	.LASF488
 8505 2412 01       		.byte	0x1
 8506 2413 22       		.uleb128 0x22
 8507 2414 AA0E0000 		.4byte	.LASF489
 8508 2418 02       		.byte	0x2
 8509 2419 00       		.byte	0
 8510 241a 03       		.uleb128 0x3
 8511 241b FD020000 		.4byte	.LASF490
 8512 241f 27       		.byte	0x27
 8513 2420 4E       		.byte	0x4e
 8514 2421 FA230000 		.4byte	0x23fa
 8515 2425 03       		.uleb128 0x3
 8516 2426 440B0000 		.4byte	.LASF491
 8517 242a 27       		.byte	0x27
 8518 242b 53       		.byte	0x53
 8519 242c 30240000 		.4byte	0x2430
 8520 2430 0C       		.uleb128 0xc
 8521 2431 440B0000 		.4byte	.LASF491
 8522 2435 1C       		.byte	0x1c
 8523 2436 28       		.byte	0x28
 8524 2437 7901     		.2byte	0x179
 8525 2439 99240000 		.4byte	0x2499
 8526 243d 0A       		.uleb128 0xa
 8527 243e A2130000 		.4byte	.LASF333
 8528 2442 28       		.byte	0x28
 8529 2443 7D01     		.2byte	0x17d
 8530 2445 1A240000 		.4byte	0x241a
 8531 2449 00       		.byte	0
 8532 244a 0A       		.uleb128 0xa
 8533 244b B6180000 		.4byte	.LASF334
 8534 244f 28       		.byte	0x28
 8535 2450 8101     		.2byte	0x181
 8536 2452 94250000 		.4byte	0x2594
 8537 2456 04       		.byte	0x4
 8538 2457 0A       		.uleb128 0xa
 8539 2458 2A110000 		.4byte	.LASF492
 8540 245c 28       		.byte	0x28
 8541 245d 8501     		.2byte	0x185
 8542 245f DF240000 		.4byte	0x24df
 8543 2463 08       		.byte	0x8
 8544 2464 0A       		.uleb128 0xa
 8545 2465 EC160000 		.4byte	.LASF493
 8546 2469 28       		.byte	0x28
 8547 246a 8901     		.2byte	0x189
 8548 246c D3240000 		.4byte	0x24d3
 8549 2470 0C       		.byte	0xc
ARM GAS  C:\Users\PCHAUT~1\AppData\Local\Temp\ccMxpIDf.s 			page 151


 8550 2471 0A       		.uleb128 0xa
 8551 2472 311D0000 		.4byte	.LASF414
 8552 2476 28       		.byte	0x28
 8553 2477 8D01     		.2byte	0x18d
 8554 2479 C7240000 		.4byte	0x24c7
 8555 247d 10       		.byte	0x10
 8556 247e 0A       		.uleb128 0xa
 8557 247f 710C0000 		.4byte	.LASF424
 8558 2483 28       		.byte	0x28
 8559 2484 9501     		.2byte	0x195
 8560 2486 0B010000 		.4byte	0x10b
 8561 248a 14       		.byte	0x14
 8562 248b 09       		.uleb128 0x9
 8563 248c 74696D00 		.ascii	"tim\000"
 8564 2490 28       		.byte	0x28
 8565 2491 9901     		.2byte	0x199
 8566 2493 C2200000 		.4byte	0x20c2
 8567 2497 18       		.byte	0x18
 8568 2498 00       		.byte	0
 8569 2499 03       		.uleb128 0x3
 8570 249a 590F0000 		.4byte	.LASF494
 8571 249e 27       		.byte	0x27
 8572 249f 5A       		.byte	0x5a
 8573 24a0 A4240000 		.4byte	0x24a4
 8574 24a4 0B       		.uleb128 0xb
 8575 24a5 04       		.byte	0x4
 8576 24a6 AA240000 		.4byte	0x24aa
 8577 24aa 0D       		.uleb128 0xd
 8578 24ab B5240000 		.4byte	0x24b5
 8579 24af 0E       		.uleb128 0xe
 8580 24b0 B5240000 		.4byte	0x24b5
 8581 24b4 00       		.byte	0
 8582 24b5 0B       		.uleb128 0xb
 8583 24b6 04       		.byte	0x4
 8584 24b7 25240000 		.4byte	0x2425
 8585 24bb 1A       		.uleb128 0x1a
 8586 24bc 03130000 		.4byte	.LASF495
 8587 24c0 28       		.byte	0x28
 8588 24c1 2501     		.2byte	0x125
 8589 24c3 0B010000 		.4byte	0x10b
 8590 24c7 1A       		.uleb128 0x1a
 8591 24c8 CE140000 		.4byte	.LASF496
 8592 24cc 28       		.byte	0x28
 8593 24cd 2A01     		.2byte	0x12a
 8594 24cf D5000000 		.4byte	0xd5
 8595 24d3 1A       		.uleb128 0x1a
 8596 24d4 81020000 		.4byte	.LASF497
 8597 24d8 28       		.byte	0x28
 8598 24d9 2F01     		.2byte	0x12f
 8599 24db 0B010000 		.4byte	0x10b
 8600 24df 1A       		.uleb128 0x1a
 8601 24e0 0D0D0000 		.4byte	.LASF498
 8602 24e4 28       		.byte	0x28
 8603 24e5 3401     		.2byte	0x134
 8604 24e7 0B010000 		.4byte	0x10b
 8605 24eb 19       		.uleb128 0x19
 8606 24ec 08       		.byte	0x8
ARM GAS  C:\Users\PCHAUT~1\AppData\Local\Temp\ccMxpIDf.s 			page 152


 8607 24ed 28       		.byte	0x28
 8608 24ee 3901     		.2byte	0x139
 8609 24f0 0F250000 		.4byte	0x250f
 8610 24f4 0A       		.uleb128 0xa
 8611 24f5 56070000 		.4byte	.LASF412
 8612 24f9 28       		.byte	0x28
 8613 24fa 3D01     		.2byte	0x13d
 8614 24fc BB240000 		.4byte	0x24bb
 8615 2500 00       		.byte	0
 8616 2501 0A       		.uleb128 0xa
 8617 2502 04140000 		.4byte	.LASF438
 8618 2506 28       		.byte	0x28
 8619 2507 4301     		.2byte	0x143
 8620 2509 99240000 		.4byte	0x2499
 8621 250d 04       		.byte	0x4
 8622 250e 00       		.byte	0
 8623 250f 1A       		.uleb128 0x1a
 8624 2510 FC0C0000 		.4byte	.LASF499
 8625 2514 28       		.byte	0x28
 8626 2515 4501     		.2byte	0x145
 8627 2517 EB240000 		.4byte	0x24eb
 8628 251b 19       		.uleb128 0x19
 8629 251c 34       		.byte	0x34
 8630 251d 28       		.byte	0x28
 8631 251e 4A01     		.2byte	0x14a
 8632 2520 73250000 		.4byte	0x2573
 8633 2524 0A       		.uleb128 0xa
 8634 2525 981F0000 		.4byte	.LASF437
 8635 2529 28       		.byte	0x28
 8636 252a 5001     		.2byte	0x150
 8637 252c 0B010000 		.4byte	0x10b
 8638 2530 00       		.byte	0
 8639 2531 0A       		.uleb128 0xa
 8640 2532 2A110000 		.4byte	.LASF492
 8641 2536 28       		.byte	0x28
 8642 2537 5601     		.2byte	0x156
 8643 2539 DF240000 		.4byte	0x24df
 8644 253d 04       		.byte	0x4
 8645 253e 0A       		.uleb128 0xa
 8646 253f 04140000 		.4byte	.LASF438
 8647 2543 28       		.byte	0x28
 8648 2544 5C01     		.2byte	0x15c
 8649 2546 99240000 		.4byte	0x2499
 8650 254a 08       		.byte	0x8
 8651 254b 0A       		.uleb128 0xa
 8652 254c 311D0000 		.4byte	.LASF414
 8653 2550 28       		.byte	0x28
 8654 2551 6001     		.2byte	0x160
 8655 2553 73250000 		.4byte	0x2573
 8656 2557 0C       		.byte	0xc
 8657 2558 09       		.uleb128 0x9
 8658 2559 63723200 		.ascii	"cr2\000"
 8659 255d 28       		.byte	0x28
 8660 255e 6601     		.2byte	0x166
 8661 2560 0B010000 		.4byte	0x10b
 8662 2564 2C       		.byte	0x2c
 8663 2565 0A       		.uleb128 0xa
ARM GAS  C:\Users\PCHAUT~1\AppData\Local\Temp\ccMxpIDf.s 			page 153


 8664 2566 DC0B0000 		.4byte	.LASF439
 8665 256a 28       		.byte	0x28
 8666 256b 7301     		.2byte	0x173
 8667 256d 0B010000 		.4byte	0x10b
 8668 2571 30       		.byte	0x30
 8669 2572 00       		.byte	0
 8670 2573 13       		.uleb128 0x13
 8671 2574 0F250000 		.4byte	0x250f
 8672 2578 83250000 		.4byte	0x2583
 8673 257c 14       		.uleb128 0x14
 8674 257d 37000000 		.4byte	0x37
 8675 2581 03       		.byte	0x3
 8676 2582 00       		.byte	0
 8677 2583 1A       		.uleb128 0x1a
 8678 2584 550B0000 		.4byte	.LASF500
 8679 2588 28       		.byte	0x28
 8680 2589 7401     		.2byte	0x174
 8681 258b 1B250000 		.4byte	0x251b
 8682 258f 05       		.uleb128 0x5
 8683 2590 83250000 		.4byte	0x2583
 8684 2594 0B       		.uleb128 0xb
 8685 2595 04       		.byte	0x4
 8686 2596 8F250000 		.4byte	0x258f
 8687 259a 15       		.uleb128 0x15
 8688 259b 1F100000 		.4byte	.LASF501
 8689 259f 28       		.byte	0x28
 8690 25a0 BC01     		.2byte	0x1bc
 8691 25a2 25240000 		.4byte	0x2425
 8692 25a6 15       		.uleb128 0x15
 8693 25a7 25100000 		.4byte	.LASF502
 8694 25ab 28       		.byte	0x28
 8695 25ac C001     		.2byte	0x1c0
 8696 25ae 25240000 		.4byte	0x2425
 8697 25b2 15       		.uleb128 0x15
 8698 25b3 2B100000 		.4byte	.LASF503
 8699 25b7 28       		.byte	0x28
 8700 25b8 C401     		.2byte	0x1c4
 8701 25ba 25240000 		.4byte	0x2425
 8702 25be 15       		.uleb128 0x15
 8703 25bf 31100000 		.4byte	.LASF504
 8704 25c3 28       		.byte	0x28
 8705 25c4 C801     		.2byte	0x1c8
 8706 25c6 25240000 		.4byte	0x2425
 8707 25ca 21       		.uleb128 0x21
 8708 25cb 07       		.byte	0x7
 8709 25cc 01       		.byte	0x1
 8710 25cd 69000000 		.4byte	0x69
 8711 25d1 29       		.byte	0x29
 8712 25d2 55       		.byte	0x55
 8713 25d3 EA250000 		.4byte	0x25ea
 8714 25d7 22       		.uleb128 0x22
 8715 25d8 96050000 		.4byte	.LASF505
 8716 25dc 00       		.byte	0
 8717 25dd 22       		.uleb128 0x22
 8718 25de 9D0C0000 		.4byte	.LASF506
 8719 25e2 01       		.byte	0x1
 8720 25e3 22       		.uleb128 0x22
ARM GAS  C:\Users\PCHAUT~1\AppData\Local\Temp\ccMxpIDf.s 			page 154


 8721 25e4 440E0000 		.4byte	.LASF507
 8722 25e8 02       		.byte	0x2
 8723 25e9 00       		.byte	0
 8724 25ea 03       		.uleb128 0x3
 8725 25eb C3150000 		.4byte	.LASF508
 8726 25ef 29       		.byte	0x29
 8727 25f0 59       		.byte	0x59
 8728 25f1 CA250000 		.4byte	0x25ca
 8729 25f5 03       		.uleb128 0x3
 8730 25f6 511D0000 		.4byte	.LASF509
 8731 25fa 29       		.byte	0x29
 8732 25fb 5E       		.byte	0x5e
 8733 25fc 00260000 		.4byte	0x2600
 8734 2600 07       		.uleb128 0x7
 8735 2601 511D0000 		.4byte	.LASF509
 8736 2605 78       		.byte	0x78
 8737 2606 29       		.byte	0x29
 8738 2607 78       		.byte	0x78
 8739 2608 6B260000 		.4byte	0x266b
 8740 260c 18       		.uleb128 0x18
 8741 260d 766D7400 		.ascii	"vmt\000"
 8742 2611 29       		.byte	0x29
 8743 2612 7A       		.byte	0x7a
 8744 2613 E9260000 		.4byte	0x26e9
 8745 2617 00       		.byte	0
 8746 2618 08       		.uleb128 0x8
 8747 2619 32000000 		.4byte	.LASF510
 8748 261d 29       		.byte	0x29
 8749 261e 7B       		.byte	0x7b
 8750 261f 41120000 		.4byte	0x1241
 8751 2623 04       		.byte	0x4
 8752 2624 08       		.uleb128 0x8
 8753 2625 A2130000 		.4byte	.LASF333
 8754 2629 29       		.byte	0x29
 8755 262a 7B       		.byte	0x7b
 8756 262b EA250000 		.4byte	0x25ea
 8757 262f 08       		.byte	0x8
 8758 2630 08       		.uleb128 0x8
 8759 2631 96150000 		.4byte	.LASF511
 8760 2635 29       		.byte	0x29
 8761 2636 7B       		.byte	0x7b
 8762 2637 EC120000 		.4byte	0x12ec
 8763 263b 0C       		.byte	0xc
 8764 263c 08       		.uleb128 0x8
 8765 263d 37100000 		.4byte	.LASF512
 8766 2641 29       		.byte	0x29
 8767 2642 7B       		.byte	0x7b
 8768 2643 F7120000 		.4byte	0x12f7
 8769 2647 30       		.byte	0x30
 8770 2648 18       		.uleb128 0x18
 8771 2649 696200   		.ascii	"ib\000"
 8772 264c 29       		.byte	0x29
 8773 264d 7B       		.byte	0x7b
 8774 264e EF260000 		.4byte	0x26ef
 8775 2652 54       		.byte	0x54
 8776 2653 18       		.uleb128 0x18
 8777 2654 6F6200   		.ascii	"ob\000"
ARM GAS  C:\Users\PCHAUT~1\AppData\Local\Temp\ccMxpIDf.s 			page 155


 8778 2657 29       		.byte	0x29
 8779 2658 7B       		.byte	0x7b
 8780 2659 EF260000 		.4byte	0x26ef
 8781 265d 64       		.byte	0x64
 8782 265e 08       		.uleb128 0x8
 8783 265f 14170000 		.4byte	.LASF513
 8784 2663 29       		.byte	0x29
 8785 2664 7B       		.byte	0x7b
 8786 2665 FF260000 		.4byte	0x26ff
 8787 2669 74       		.byte	0x74
 8788 266a 00       		.byte	0
 8789 266b 1F       		.uleb128 0x1f
 8790 266c 53443300 		.ascii	"SD3\000"
 8791 2670 2A       		.byte	0x2a
 8792 2671 1501     		.2byte	0x115
 8793 2673 F5250000 		.4byte	0x25f5
 8794 2677 07       		.uleb128 0x7
 8795 2678 EF0D0000 		.4byte	.LASF514
 8796 267c 20       		.byte	0x20
 8797 267d 29       		.byte	0x29
 8798 267e 6D       		.byte	0x6d
 8799 267f E4260000 		.4byte	0x26e4
 8800 2683 08       		.uleb128 0x8
 8801 2684 90150000 		.4byte	.LASF515
 8802 2688 29       		.byte	0x29
 8803 2689 6E       		.byte	0x6e
 8804 268a 21130000 		.4byte	0x1321
 8805 268e 00       		.byte	0
 8806 268f 08       		.uleb128 0x8
 8807 2690 E9030000 		.4byte	.LASF516
 8808 2694 29       		.byte	0x29
 8809 2695 6E       		.byte	0x6e
 8810 2696 40130000 		.4byte	0x1340
 8811 269a 04       		.byte	0x4
 8812 269b 18       		.uleb128 0x18
 8813 269c 70757400 		.ascii	"put\000"
 8814 26a0 29       		.byte	0x29
 8815 26a1 6E       		.byte	0x6e
 8816 26a2 5A130000 		.4byte	0x135a
 8817 26a6 08       		.byte	0x8
 8818 26a7 18       		.uleb128 0x18
 8819 26a8 67657400 		.ascii	"get\000"
 8820 26ac 29       		.byte	0x29
 8821 26ad 6E       		.byte	0x6e
 8822 26ae 6F130000 		.4byte	0x136f
 8823 26b2 0C       		.byte	0xc
 8824 26b3 08       		.uleb128 0x8
 8825 26b4 10120000 		.4byte	.LASF517
 8826 26b8 29       		.byte	0x29
 8827 26b9 6E       		.byte	0x6e
 8828 26ba 10140000 		.4byte	0x1410
 8829 26be 10       		.byte	0x10
 8830 26bf 08       		.uleb128 0x8
 8831 26c0 75150000 		.4byte	.LASF518
 8832 26c4 29       		.byte	0x29
 8833 26c5 6E       		.byte	0x6e
 8834 26c6 2A140000 		.4byte	0x142a
ARM GAS  C:\Users\PCHAUT~1\AppData\Local\Temp\ccMxpIDf.s 			page 156


 8835 26ca 14       		.byte	0x14
 8836 26cb 08       		.uleb128 0x8
 8837 26cc 0C1E0000 		.4byte	.LASF519
 8838 26d0 29       		.byte	0x29
 8839 26d1 6E       		.byte	0x6e
 8840 26d2 4E140000 		.4byte	0x144e
 8841 26d6 18       		.byte	0x18
 8842 26d7 08       		.uleb128 0x8
 8843 26d8 4E110000 		.4byte	.LASF520
 8844 26dc 29       		.byte	0x29
 8845 26dd 6E       		.byte	0x6e
 8846 26de 72140000 		.4byte	0x1472
 8847 26e2 1C       		.byte	0x1c
 8848 26e3 00       		.byte	0
 8849 26e4 05       		.uleb128 0x5
 8850 26e5 77260000 		.4byte	0x2677
 8851 26e9 0B       		.uleb128 0xb
 8852 26ea 04       		.byte	0x4
 8853 26eb E4260000 		.4byte	0x26e4
 8854 26ef 13       		.uleb128 0x13
 8855 26f0 D5000000 		.4byte	0xd5
 8856 26f4 FF260000 		.4byte	0x26ff
 8857 26f8 14       		.uleb128 0x14
 8858 26f9 37000000 		.4byte	0x37
 8859 26fd 0F       		.byte	0xf
 8860 26fe 00       		.byte	0
 8861 26ff 0B       		.uleb128 0xb
 8862 2700 04       		.byte	0x4
 8863 2701 C60C0000 		.4byte	0xcc6
 8864 2705 21       		.uleb128 0x21
 8865 2706 07       		.byte	0x7
 8866 2707 01       		.byte	0x1
 8867 2708 69000000 		.4byte	0x69
 8868 270c 2B       		.byte	0x2b
 8869 270d 6C       		.byte	0x6c
 8870 270e 25270000 		.4byte	0x2725
 8871 2712 22       		.uleb128 0x22
 8872 2713 C7020000 		.4byte	.LASF521
 8873 2717 00       		.byte	0
 8874 2718 22       		.uleb128 0x22
 8875 2719 19130000 		.4byte	.LASF522
 8876 271d 01       		.byte	0x1
 8877 271e 22       		.uleb128 0x22
 8878 271f F1100000 		.4byte	.LASF523
 8879 2723 02       		.byte	0x2
 8880 2724 00       		.byte	0
 8881 2725 03       		.uleb128 0x3
 8882 2726 BE170000 		.4byte	.LASF524
 8883 272a 2B       		.byte	0x2b
 8884 272b 70       		.byte	0x70
 8885 272c 05270000 		.4byte	0x2705
 8886 2730 03       		.uleb128 0x3
 8887 2731 25170000 		.4byte	.LASF525
 8888 2735 2C       		.byte	0x2c
 8889 2736 BF       		.byte	0xbf
 8890 2737 0B010000 		.4byte	0x10b
 8891 273b 03       		.uleb128 0x3
ARM GAS  C:\Users\PCHAUT~1\AppData\Local\Temp\ccMxpIDf.s 			page 157


 8892 273c 1F150000 		.4byte	.LASF526
 8893 2740 2C       		.byte	0x2c
 8894 2741 C4       		.byte	0xc4
 8895 2742 0B010000 		.4byte	0x10b
 8896 2746 03       		.uleb128 0x3
 8897 2747 401D0000 		.4byte	.LASF527
 8898 274b 2C       		.byte	0x2c
 8899 274c C9       		.byte	0xc9
 8900 274d 51270000 		.4byte	0x2751
 8901 2751 07       		.uleb128 0x7
 8902 2752 401D0000 		.4byte	.LASF527
 8903 2756 4C       		.byte	0x4c
 8904 2757 2C       		.byte	0x2c
 8905 2758 F2       		.byte	0xf2
 8906 2759 00280000 		.4byte	0x2800
 8907 275d 18       		.uleb128 0x18
 8908 275e 766D7400 		.ascii	"vmt\000"
 8909 2762 2C       		.byte	0x2c
 8910 2763 F6       		.byte	0xf6
 8911 2764 A3280000 		.4byte	0x28a3
 8912 2768 00       		.byte	0
 8913 2769 08       		.uleb128 0x8
 8914 276a A2130000 		.4byte	.LASF333
 8915 276e 2C       		.byte	0x2c
 8916 276f F7       		.byte	0xf7
 8917 2770 BC140000 		.4byte	0x14bc
 8918 2774 04       		.byte	0x4
 8919 2775 18       		.uleb128 0x18
 8920 2776 63696400 		.ascii	"cid\000"
 8921 277a 2C       		.byte	0x2c
 8922 277b F7       		.byte	0xf7
 8923 277c 77150000 		.4byte	0x1577
 8924 2780 08       		.byte	0x8
 8925 2781 18       		.uleb128 0x18
 8926 2782 63736400 		.ascii	"csd\000"
 8927 2786 2C       		.byte	0x2c
 8928 2787 F7       		.byte	0xf7
 8929 2788 77150000 		.4byte	0x1577
 8930 278c 18       		.byte	0x18
 8931 278d 08       		.uleb128 0x8
 8932 278e 45190000 		.4byte	.LASF528
 8933 2792 2C       		.byte	0x2c
 8934 2793 F7       		.byte	0xf7
 8935 2794 0B010000 		.4byte	0x10b
 8936 2798 28       		.byte	0x28
 8937 2799 08       		.uleb128 0x8
 8938 279a B6180000 		.4byte	.LASF334
 8939 279e 2C       		.byte	0x2c
 8940 279f FB       		.byte	0xfb
 8941 27a0 A9280000 		.4byte	0x28a9
 8942 27a4 2C       		.byte	0x2c
 8943 27a5 08       		.uleb128 0x8
 8944 27a6 C1120000 		.4byte	.LASF529
 8945 27aa 2C       		.byte	0x2c
 8946 27ab FF       		.byte	0xff
 8947 27ac 30270000 		.4byte	0x2730
 8948 27b0 30       		.byte	0x30
ARM GAS  C:\Users\PCHAUT~1\AppData\Local\Temp\ccMxpIDf.s 			page 158


 8949 27b1 0A       		.uleb128 0xa
 8950 27b2 50010000 		.4byte	.LASF465
 8951 27b6 2C       		.byte	0x2c
 8952 27b7 0301     		.2byte	0x103
 8953 27b9 3B270000 		.4byte	0x273b
 8954 27bd 34       		.byte	0x34
 8955 27be 09       		.uleb128 0x9
 8956 27bf 72636100 		.ascii	"rca\000"
 8957 27c3 2C       		.byte	0x2c
 8958 27c4 0701     		.2byte	0x107
 8959 27c6 0B010000 		.4byte	0x10b
 8960 27ca 38       		.byte	0x38
 8961 27cb 0A       		.uleb128 0xa
 8962 27cc FD050000 		.4byte	.LASF338
 8963 27d0 2C       		.byte	0x2c
 8964 27d1 0C01     		.2byte	0x10c
 8965 27d3 E8020000 		.4byte	0x2e8
 8966 27d7 3C       		.byte	0x3c
 8967 27d8 0A       		.uleb128 0xa
 8968 27d9 5C150000 		.4byte	.LASF341
 8969 27dd 2C       		.byte	0x2c
 8970 27de 1001     		.2byte	0x110
 8971 27e0 0B010000 		.4byte	0x10b
 8972 27e4 40       		.byte	0x40
 8973 27e5 09       		.uleb128 0x9
 8974 27e6 646D6100 		.ascii	"dma\000"
 8975 27ea 2C       		.byte	0x2c
 8976 27eb 1401     		.2byte	0x114
 8977 27ed BC190000 		.4byte	0x19bc
 8978 27f1 44       		.byte	0x44
 8979 27f2 0A       		.uleb128 0xa
 8980 27f3 C1130000 		.4byte	.LASF530
 8981 27f7 2C       		.byte	0x2c
 8982 27f8 1901     		.2byte	0x119
 8983 27fa AF280000 		.4byte	0x28af
 8984 27fe 48       		.byte	0x48
 8985 27ff 00       		.byte	0
 8986 2800 17       		.uleb128 0x17
 8987 2801 08       		.byte	0x8
 8988 2802 2C       		.byte	0x2c
 8989 2803 CF       		.byte	0xcf
 8990 2804 21280000 		.4byte	0x2821
 8991 2808 08       		.uleb128 0x8
 8992 2809 4C0D0000 		.4byte	.LASF531
 8993 280d 2C       		.byte	0x2c
 8994 280e D8       		.byte	0xd8
 8995 280f E6120000 		.4byte	0x12e6
 8996 2813 00       		.byte	0
 8997 2814 08       		.uleb128 0x8
 8998 2815 931E0000 		.4byte	.LASF532
 8999 2819 2C       		.byte	0x2c
 9000 281a DC       		.byte	0xdc
 9001 281b 25270000 		.4byte	0x2725
 9002 281f 04       		.byte	0x4
 9003 2820 00       		.byte	0
 9004 2821 03       		.uleb128 0x3
 9005 2822 62130000 		.4byte	.LASF533
ARM GAS  C:\Users\PCHAUT~1\AppData\Local\Temp\ccMxpIDf.s 			page 159


 9006 2826 2C       		.byte	0x2c
 9007 2827 DE       		.byte	0xde
 9008 2828 00280000 		.4byte	0x2800
 9009 282c 05       		.uleb128 0x5
 9010 282d 21280000 		.4byte	0x2821
 9011 2831 07       		.uleb128 0x7
 9012 2832 A91E0000 		.4byte	.LASF534
 9013 2836 20       		.byte	0x20
 9014 2837 2C       		.byte	0x2c
 9015 2838 EB       		.byte	0xeb
 9016 2839 9E280000 		.4byte	0x289e
 9017 283d 08       		.uleb128 0x8
 9018 283e 29210000 		.4byte	.LASF535
 9019 2842 2C       		.byte	0x2c
 9020 2843 EC       		.byte	0xec
 9021 2844 09150000 		.4byte	0x1509
 9022 2848 00       		.byte	0
 9023 2849 08       		.uleb128 0x8
 9024 284a E10B0000 		.4byte	.LASF536
 9025 284e 2C       		.byte	0x2c
 9026 284f EC       		.byte	0xec
 9027 2850 09150000 		.4byte	0x1509
 9028 2854 04       		.byte	0x4
 9029 2855 08       		.uleb128 0x8
 9030 2856 0D0E0000 		.4byte	.LASF537
 9031 285a 2C       		.byte	0x2c
 9032 285b EC       		.byte	0xec
 9033 285c 09150000 		.4byte	0x1509
 9034 2860 08       		.byte	0x8
 9035 2861 08       		.uleb128 0x8
 9036 2862 D3110000 		.4byte	.LASF538
 9037 2866 2C       		.byte	0x2c
 9038 2867 EC       		.byte	0xec
 9039 2868 09150000 		.4byte	0x1509
 9040 286c 0C       		.byte	0xc
 9041 286d 08       		.uleb128 0x8
 9042 286e E9030000 		.4byte	.LASF516
 9043 2872 2C       		.byte	0x2c
 9044 2873 EC       		.byte	0xec
 9045 2874 2D150000 		.4byte	0x152d
 9046 2878 10       		.byte	0x10
 9047 2879 08       		.uleb128 0x8
 9048 287a 90150000 		.4byte	.LASF515
 9049 287e 2C       		.byte	0x2c
 9050 287f EC       		.byte	0xec
 9051 2880 51150000 		.4byte	0x1551
 9052 2884 14       		.byte	0x14
 9053 2885 08       		.uleb128 0x8
 9054 2886 0F170000 		.4byte	.LASF539
 9055 288a 2C       		.byte	0x2c
 9056 288b EC       		.byte	0xec
 9057 288c 09150000 		.4byte	0x1509
 9058 2890 18       		.byte	0x18
 9059 2891 08       		.uleb128 0x8
 9060 2892 491E0000 		.4byte	.LASF540
 9061 2896 2C       		.byte	0x2c
 9062 2897 EC       		.byte	0xec
ARM GAS  C:\Users\PCHAUT~1\AppData\Local\Temp\ccMxpIDf.s 			page 160


 9063 2898 71150000 		.4byte	0x1571
 9064 289c 1C       		.byte	0x1c
 9065 289d 00       		.byte	0
 9066 289e 05       		.uleb128 0x5
 9067 289f 31280000 		.4byte	0x2831
 9068 28a3 0B       		.uleb128 0xb
 9069 28a4 04       		.byte	0x4
 9070 28a5 9E280000 		.4byte	0x289e
 9071 28a9 0B       		.uleb128 0xb
 9072 28aa 04       		.byte	0x4
 9073 28ab 2C280000 		.4byte	0x282c
 9074 28af 0B       		.uleb128 0xb
 9075 28b0 04       		.byte	0x4
 9076 28b1 CE0B0000 		.4byte	0xbce
 9077 28b5 15       		.uleb128 0x15
 9078 28b6 E9090000 		.4byte	.LASF541
 9079 28ba 2C       		.byte	0x2c
 9080 28bb 2501     		.2byte	0x125
 9081 28bd 46270000 		.4byte	0x2746
 9082 28c1 21       		.uleb128 0x21
 9083 28c2 07       		.byte	0x7
 9084 28c3 01       		.byte	0x1
 9085 28c4 69000000 		.4byte	0x69
 9086 28c8 2D       		.byte	0x2d
 9087 28c9 46       		.byte	0x46
 9088 28ca ED280000 		.4byte	0x28ed
 9089 28ce 22       		.uleb128 0x22
 9090 28cf 13060000 		.4byte	.LASF542
 9091 28d3 00       		.byte	0
 9092 28d4 22       		.uleb128 0x22
 9093 28d5 78020000 		.4byte	.LASF543
 9094 28d9 01       		.byte	0x1
 9095 28da 22       		.uleb128 0x22
 9096 28db 7C1E0000 		.4byte	.LASF544
 9097 28df 02       		.byte	0x2
 9098 28e0 22       		.uleb128 0x22
 9099 28e1 9D0D0000 		.4byte	.LASF545
 9100 28e5 03       		.byte	0x3
 9101 28e6 22       		.uleb128 0x22
 9102 28e7 78110000 		.4byte	.LASF546
 9103 28eb 04       		.byte	0x4
 9104 28ec 00       		.byte	0
 9105 28ed 03       		.uleb128 0x3
 9106 28ee 6C0D0000 		.4byte	.LASF547
 9107 28f2 2D       		.byte	0x2d
 9108 28f3 4C       		.byte	0x4c
 9109 28f4 C1280000 		.4byte	0x28c1
 9110 28f8 1A       		.uleb128 0x1a
 9111 28f9 F11C0000 		.4byte	.LASF548
 9112 28fd 2E       		.byte	0x2e
 9113 28fe 9601     		.2byte	0x196
 9114 2900 04290000 		.4byte	0x2904
 9115 2904 0C       		.uleb128 0xc
 9116 2905 F11C0000 		.4byte	.LASF548
 9117 2909 34       		.byte	0x34
 9118 290a 2E       		.byte	0x2e
 9119 290b BA01     		.2byte	0x1ba
ARM GAS  C:\Users\PCHAUT~1\AppData\Local\Temp\ccMxpIDf.s 			page 161


 9120 290d 87290000 		.4byte	0x2987
 9121 2911 0A       		.uleb128 0xa
 9122 2912 A2130000 		.4byte	.LASF333
 9123 2916 2E       		.byte	0x2e
 9124 2917 BE01     		.2byte	0x1be
 9125 2919 ED280000 		.4byte	0x28ed
 9126 291d 00       		.byte	0
 9127 291e 0A       		.uleb128 0xa
 9128 291f B6180000 		.4byte	.LASF334
 9129 2923 2E       		.byte	0x2e
 9130 2924 C201     		.2byte	0x1c2
 9131 2926 F9290000 		.4byte	0x29f9
 9132 292a 04       		.byte	0x4
 9133 292b 0A       		.uleb128 0xa
 9134 292c FD050000 		.4byte	.LASF338
 9135 2930 2E       		.byte	0x2e
 9136 2931 C701     		.2byte	0x1c7
 9137 2933 E8020000 		.4byte	0x2e8
 9138 2937 08       		.byte	0x8
 9139 2938 0A       		.uleb128 0xa
 9140 2939 320C0000 		.4byte	.LASF339
 9141 293d 2E       		.byte	0x2e
 9142 293e CD01     		.2byte	0x1cd
 9143 2940 BD110000 		.4byte	0x11bd
 9144 2944 0C       		.byte	0xc
 9145 2945 09       		.uleb128 0x9
 9146 2946 73706900 		.ascii	"spi\000"
 9147 294a 2E       		.byte	0x2e
 9148 294b D601     		.2byte	0x1d6
 9149 294d E8230000 		.4byte	0x23e8
 9150 2951 20       		.byte	0x20
 9151 2952 0A       		.uleb128 0xa
 9152 2953 0E010000 		.4byte	.LASF469
 9153 2957 2E       		.byte	0x2e
 9154 2958 DA01     		.2byte	0x1da
 9155 295a BC190000 		.4byte	0x19bc
 9156 295e 24       		.byte	0x24
 9157 295f 0A       		.uleb128 0xa
 9158 2960 BD010000 		.4byte	.LASF470
 9159 2964 2E       		.byte	0x2e
 9160 2965 DE01     		.2byte	0x1de
 9161 2967 BC190000 		.4byte	0x19bc
 9162 296b 28       		.byte	0x28
 9163 296c 0A       		.uleb128 0xa
 9164 296d 4C070000 		.4byte	.LASF467
 9165 2971 2E       		.byte	0x2e
 9166 2972 E201     		.2byte	0x1e2
 9167 2974 0B010000 		.4byte	0x10b
 9168 2978 2C       		.byte	0x2c
 9169 2979 0A       		.uleb128 0xa
 9170 297a 8C070000 		.4byte	.LASF468
 9171 297e 2E       		.byte	0x2e
 9172 297f E601     		.2byte	0x1e6
 9173 2981 0B010000 		.4byte	0x10b
 9174 2985 30       		.byte	0x30
 9175 2986 00       		.byte	0
 9176 2987 1A       		.uleb128 0x1a
ARM GAS  C:\Users\PCHAUT~1\AppData\Local\Temp\ccMxpIDf.s 			page 162


 9177 2988 35130000 		.4byte	.LASF549
 9178 298c 2E       		.byte	0x2e
 9179 298d 9E01     		.2byte	0x19e
 9180 298f 93290000 		.4byte	0x2993
 9181 2993 0B       		.uleb128 0xb
 9182 2994 04       		.byte	0x4
 9183 2995 99290000 		.4byte	0x2999
 9184 2999 0D       		.uleb128 0xd
 9185 299a A4290000 		.4byte	0x29a4
 9186 299e 0E       		.uleb128 0xe
 9187 299f A4290000 		.4byte	0x29a4
 9188 29a3 00       		.byte	0
 9189 29a4 0B       		.uleb128 0xb
 9190 29a5 04       		.byte	0x4
 9191 29a6 F8280000 		.4byte	0x28f8
 9192 29aa 19       		.uleb128 0x19
 9193 29ab 0C       		.byte	0xc
 9194 29ac 2E       		.byte	0x2e
 9195 29ad A301     		.2byte	0x1a3
 9196 29af E8290000 		.4byte	0x29e8
 9197 29b3 0A       		.uleb128 0xa
 9198 29b4 39090000 		.4byte	.LASF346
 9199 29b8 2E       		.byte	0x2e
 9200 29b9 A701     		.2byte	0x1a7
 9201 29bb 87290000 		.4byte	0x2987
 9202 29bf 00       		.byte	0
 9203 29c0 0A       		.uleb128 0xa
 9204 29c1 571F0000 		.4byte	.LASF550
 9205 29c5 2E       		.byte	0x2e
 9206 29c6 AC01     		.2byte	0x1ac
 9207 29c8 4D170000 		.4byte	0x174d
 9208 29cc 04       		.byte	0x4
 9209 29cd 0A       		.uleb128 0xa
 9210 29ce 86070000 		.4byte	.LASF551
 9211 29d2 2E       		.byte	0x2e
 9212 29d3 B001     		.2byte	0x1b0
 9213 29d5 F0000000 		.4byte	0xf0
 9214 29d9 08       		.byte	0x8
 9215 29da 09       		.uleb128 0x9
 9216 29db 63723100 		.ascii	"cr1\000"
 9217 29df 2E       		.byte	0x2e
 9218 29e0 B401     		.2byte	0x1b4
 9219 29e2 F0000000 		.4byte	0xf0
 9220 29e6 0A       		.byte	0xa
 9221 29e7 00       		.byte	0
 9222 29e8 1A       		.uleb128 0x1a
 9223 29e9 011D0000 		.4byte	.LASF552
 9224 29ed 2E       		.byte	0x2e
 9225 29ee B501     		.2byte	0x1b5
 9226 29f0 AA290000 		.4byte	0x29aa
 9227 29f4 05       		.uleb128 0x5
 9228 29f5 E8290000 		.4byte	0x29e8
 9229 29f9 0B       		.uleb128 0xb
 9230 29fa 04       		.byte	0x4
 9231 29fb F4290000 		.4byte	0x29f4
 9232 29ff 15       		.uleb128 0x15
 9233 2a00 6F150000 		.4byte	.LASF553
ARM GAS  C:\Users\PCHAUT~1\AppData\Local\Temp\ccMxpIDf.s 			page 163


 9234 2a04 2E       		.byte	0x2e
 9235 2a05 F201     		.2byte	0x1f2
 9236 2a07 F8280000 		.4byte	0x28f8
 9237 2a0b 03       		.uleb128 0x3
 9238 2a0c FB0F0000 		.4byte	.LASF554
 9239 2a10 2F       		.byte	0x2f
 9240 2a11 FA       		.byte	0xfa
 9241 2a12 162A0000 		.4byte	0x2a16
 9242 2a16 10       		.uleb128 0x10
 9243 2a17 FB0F0000 		.4byte	.LASF554
 9244 2a1b 6002     		.2byte	0x260
 9245 2a1d 30       		.byte	0x30
 9246 2a1e 7701     		.2byte	0x177
 9247 2a20 422B0000 		.4byte	0x2b42
 9248 2a24 0A       		.uleb128 0xa
 9249 2a25 A2130000 		.4byte	.LASF333
 9250 2a29 30       		.byte	0x30
 9251 2a2a 7B01     		.2byte	0x17b
 9252 2a2c 7A2B0000 		.4byte	0x2b7a
 9253 2a30 00       		.byte	0
 9254 2a31 0A       		.uleb128 0xa
 9255 2a32 B6180000 		.4byte	.LASF334
 9256 2a36 30       		.byte	0x30
 9257 2a37 7F01     		.2byte	0x17f
 9258 2a39 9D340000 		.4byte	0x349d
 9259 2a3d 04       		.byte	0x4
 9260 2a3e 0A       		.uleb128 0xa
 9261 2a3f 241D0000 		.4byte	.LASF555
 9262 2a43 30       		.byte	0x30
 9263 2a44 8301     		.2byte	0x183
 9264 2a46 F0000000 		.4byte	0xf0
 9265 2a4a 08       		.byte	0x8
 9266 2a4b 0A       		.uleb128 0xa
 9267 2a4c 8E1F0000 		.4byte	.LASF556
 9268 2a50 30       		.byte	0x30
 9269 2a51 8701     		.2byte	0x187
 9270 2a53 F0000000 		.4byte	0xf0
 9271 2a57 0A       		.byte	0xa
 9272 2a58 09       		.uleb128 0x9
 9273 2a59 65706300 		.ascii	"epc\000"
 9274 2a5d 30       		.byte	0x30
 9275 2a5e 8B01     		.2byte	0x18b
 9276 2a60 A3340000 		.4byte	0x34a3
 9277 2a64 0C       		.byte	0xc
 9278 2a65 0A       		.uleb128 0xa
 9279 2a66 2F060000 		.4byte	.LASF557
 9280 2a6a 30       		.byte	0x30
 9281 2a6b 9201     		.2byte	0x192
 9282 2a6d B9340000 		.4byte	0x34b9
 9283 2a71 1C       		.byte	0x1c
 9284 2a72 0A       		.uleb128 0xa
 9285 2a73 B70B0000 		.4byte	.LASF558
 9286 2a77 30       		.byte	0x30
 9287 2a78 9901     		.2byte	0x199
 9288 2a7a B9340000 		.4byte	0x34b9
 9289 2a7e 28       		.byte	0x28
 9290 2a7f 0A       		.uleb128 0xa
ARM GAS  C:\Users\PCHAUT~1\AppData\Local\Temp\ccMxpIDf.s 			page 164


 9291 2a80 750E0000 		.4byte	.LASF559
 9292 2a84 30       		.byte	0x30
 9293 2a85 9D01     		.2byte	0x19d
 9294 2a87 BF2B0000 		.4byte	0x2bbf
 9295 2a8b 34       		.byte	0x34
 9296 2a8c 0A       		.uleb128 0xa
 9297 2a8d 2D180000 		.4byte	.LASF560
 9298 2a91 30       		.byte	0x30
 9299 2a92 A101     		.2byte	0x1a1
 9300 2a94 E6120000 		.4byte	0x12e6
 9301 2a98 38       		.byte	0x38
 9302 2a99 0A       		.uleb128 0xa
 9303 2a9a F4140000 		.4byte	.LASF561
 9304 2a9e 30       		.byte	0x30
 9305 2a9f A501     		.2byte	0x1a5
 9306 2aa1 2C000000 		.4byte	0x2c
 9307 2aa5 3C       		.byte	0x3c
 9308 2aa6 0A       		.uleb128 0xa
 9309 2aa7 661A0000 		.4byte	.LASF562
 9310 2aab 30       		.byte	0x30
 9311 2aac A901     		.2byte	0x1a9
 9312 2aae 3F2C0000 		.4byte	0x2c3f
 9313 2ab2 40       		.byte	0x40
 9314 2ab3 0A       		.uleb128 0xa
 9315 2ab4 0D060000 		.4byte	.LASF563
 9316 2ab8 30       		.byte	0x30
 9317 2ab9 AD01     		.2byte	0x1ad
 9318 2abb 1D1A0000 		.4byte	0x1a1d
 9319 2abf 44       		.byte	0x44
 9320 2ac0 0A       		.uleb128 0xa
 9321 2ac1 0D130000 		.4byte	.LASF564
 9322 2ac5 30       		.byte	0x30
 9323 2ac6 B101     		.2byte	0x1b1
 9324 2ac8 F0000000 		.4byte	0xf0
 9325 2acc 4C       		.byte	0x4c
 9326 2acd 0A       		.uleb128 0xa
 9327 2ace 43130000 		.4byte	.LASF565
 9328 2ad2 30       		.byte	0x30
 9329 2ad3 B501     		.2byte	0x1b5
 9330 2ad5 D5000000 		.4byte	0xd5
 9331 2ad9 4E       		.byte	0x4e
 9332 2ada 0A       		.uleb128 0xa
 9333 2adb 63170000 		.4byte	.LASF566
 9334 2adf 30       		.byte	0x30
 9335 2ae0 B901     		.2byte	0x1b9
 9336 2ae2 D5000000 		.4byte	0xd5
 9337 2ae6 4F       		.byte	0x4f
 9338 2ae7 09       		.uleb128 0x9
 9339 2ae8 6F746700 		.ascii	"otg\000"
 9340 2aec 30       		.byte	0x30
 9341 2aed C101     		.2byte	0x1c1
 9342 2aef C9340000 		.4byte	0x34c9
 9343 2af3 50       		.byte	0x50
 9344 2af4 0A       		.uleb128 0xa
 9345 2af5 330D0000 		.4byte	.LASF567
 9346 2af9 30       		.byte	0x30
 9347 2afa C501     		.2byte	0x1c5
ARM GAS  C:\Users\PCHAUT~1\AppData\Local\Temp\ccMxpIDf.s 			page 165


 9348 2afc CF340000 		.4byte	0x34cf
 9349 2b00 54       		.byte	0x54
 9350 2b01 0A       		.uleb128 0xa
 9351 2b02 C31B0000 		.4byte	.LASF568
 9352 2b06 30       		.byte	0x30
 9353 2b07 C901     		.2byte	0x1c9
 9354 2b09 0B010000 		.4byte	0x10b
 9355 2b0d 58       		.byte	0x58
 9356 2b0e 0A       		.uleb128 0xa
 9357 2b0f 670C0000 		.4byte	.LASF569
 9358 2b13 30       		.byte	0x30
 9359 2b14 CD01     		.2byte	0x1cd
 9360 2b16 0B010000 		.4byte	0x10b
 9361 2b1a 5C       		.byte	0x5c
 9362 2b1b 0A       		.uleb128 0xa
 9363 2b1c F1060000 		.4byte	.LASF570
 9364 2b20 30       		.byte	0x30
 9365 2b21 D101     		.2byte	0x1d1
 9366 2b23 E8020000 		.4byte	0x2e8
 9367 2b27 60       		.byte	0x60
 9368 2b28 09       		.uleb128 0x9
 9369 2b29 747200   		.ascii	"tr\000"
 9370 2b2c 30       		.byte	0x30
 9371 2b2d D601     		.2byte	0x1d6
 9372 2b2f E8020000 		.4byte	0x2e8
 9373 2b33 64       		.byte	0x64
 9374 2b34 0A       		.uleb128 0xa
 9375 2b35 2B120000 		.4byte	.LASF571
 9376 2b39 30       		.byte	0x30
 9377 2b3a DA01     		.2byte	0x1da
 9378 2b3c D5340000 		.4byte	0x34d5
 9379 2b40 68       		.byte	0x68
 9380 2b41 00       		.byte	0
 9381 2b42 03       		.uleb128 0x3
 9382 2b43 A6090000 		.4byte	.LASF572
 9383 2b47 2F       		.byte	0x2f
 9384 2b48 FF       		.byte	0xff
 9385 2b49 D5000000 		.4byte	0xd5
 9386 2b4d 24       		.uleb128 0x24
 9387 2b4e 07       		.byte	0x7
 9388 2b4f 01       		.byte	0x1
 9389 2b50 69000000 		.4byte	0x69
 9390 2b54 2F       		.byte	0x2f
 9391 2b55 0401     		.2byte	0x104
 9392 2b57 7A2B0000 		.4byte	0x2b7a
 9393 2b5b 22       		.uleb128 0x22
 9394 2b5c 5D200000 		.4byte	.LASF573
 9395 2b60 00       		.byte	0
 9396 2b61 22       		.uleb128 0x22
 9397 2b62 00000000 		.4byte	.LASF574
 9398 2b66 01       		.byte	0x1
 9399 2b67 22       		.uleb128 0x22
 9400 2b68 44110000 		.4byte	.LASF575
 9401 2b6c 02       		.byte	0x2
 9402 2b6d 22       		.uleb128 0x22
 9403 2b6e 2A160000 		.4byte	.LASF576
 9404 2b72 03       		.byte	0x3
ARM GAS  C:\Users\PCHAUT~1\AppData\Local\Temp\ccMxpIDf.s 			page 166


 9405 2b73 22       		.uleb128 0x22
 9406 2b74 1E070000 		.4byte	.LASF577
 9407 2b78 04       		.byte	0x4
 9408 2b79 00       		.byte	0
 9409 2b7a 1A       		.uleb128 0x1a
 9410 2b7b 5E210000 		.4byte	.LASF578
 9411 2b7f 2F       		.byte	0x2f
 9412 2b80 0A01     		.2byte	0x10a
 9413 2b82 4D2B0000 		.4byte	0x2b4d
 9414 2b86 24       		.uleb128 0x24
 9415 2b87 07       		.byte	0x7
 9416 2b88 01       		.byte	0x1
 9417 2b89 69000000 		.4byte	0x69
 9418 2b8d 2F       		.byte	0x2f
 9419 2b8e 1801     		.2byte	0x118
 9420 2b90 BF2B0000 		.4byte	0x2bbf
 9421 2b94 22       		.uleb128 0x22
 9422 2b95 391A0000 		.4byte	.LASF579
 9423 2b99 00       		.byte	0
 9424 2b9a 22       		.uleb128 0x22
 9425 2b9b 6A0E0000 		.4byte	.LASF580
 9426 2b9f 01       		.byte	0x1
 9427 2ba0 22       		.uleb128 0x22
 9428 2ba1 19180000 		.4byte	.LASF581
 9429 2ba5 02       		.byte	0x2
 9430 2ba6 22       		.uleb128 0x22
 9431 2ba7 CE130000 		.4byte	.LASF582
 9432 2bab 03       		.byte	0x3
 9433 2bac 22       		.uleb128 0x22
 9434 2bad F8120000 		.4byte	.LASF583
 9435 2bb1 04       		.byte	0x4
 9436 2bb2 22       		.uleb128 0x22
 9437 2bb3 6E0F0000 		.4byte	.LASF584
 9438 2bb7 05       		.byte	0x5
 9439 2bb8 22       		.uleb128 0x22
 9440 2bb9 FF0D0000 		.4byte	.LASF585
 9441 2bbd 06       		.byte	0x6
 9442 2bbe 00       		.byte	0
 9443 2bbf 1A       		.uleb128 0x1a
 9444 2bc0 940F0000 		.4byte	.LASF586
 9445 2bc4 2F       		.byte	0x2f
 9446 2bc5 2001     		.2byte	0x120
 9447 2bc7 862B0000 		.4byte	0x2b86
 9448 2bcb 24       		.uleb128 0x24
 9449 2bcc 07       		.byte	0x7
 9450 2bcd 01       		.byte	0x1
 9451 2bce 69000000 		.4byte	0x69
 9452 2bd2 2F       		.byte	0x2f
 9453 2bd3 2501     		.2byte	0x125
 9454 2bd5 FE2B0000 		.4byte	0x2bfe
 9455 2bd9 22       		.uleb128 0x22
 9456 2bda B9190000 		.4byte	.LASF587
 9457 2bde 00       		.byte	0
 9458 2bdf 22       		.uleb128 0x22
 9459 2be0 83160000 		.4byte	.LASF588
 9460 2be4 01       		.byte	0x1
 9461 2be5 22       		.uleb128 0x22
ARM GAS  C:\Users\PCHAUT~1\AppData\Local\Temp\ccMxpIDf.s 			page 167


 9462 2be6 BE110000 		.4byte	.LASF589
 9463 2bea 02       		.byte	0x2
 9464 2beb 22       		.uleb128 0x22
 9465 2bec 6B120000 		.4byte	.LASF590
 9466 2bf0 03       		.byte	0x3
 9467 2bf1 22       		.uleb128 0x22
 9468 2bf2 CD1E0000 		.4byte	.LASF591
 9469 2bf6 04       		.byte	0x4
 9470 2bf7 22       		.uleb128 0x22
 9471 2bf8 94110000 		.4byte	.LASF592
 9472 2bfc 05       		.byte	0x5
 9473 2bfd 00       		.byte	0
 9474 2bfe 1A       		.uleb128 0x1a
 9475 2bff BB160000 		.4byte	.LASF593
 9476 2c03 2F       		.byte	0x2f
 9477 2c04 2C01     		.2byte	0x12c
 9478 2c06 CB2B0000 		.4byte	0x2bcb
 9479 2c0a 19       		.uleb128 0x19
 9480 2c0b 08       		.byte	0x8
 9481 2c0c 2F       		.byte	0x2f
 9482 2c0d 3101     		.2byte	0x131
 9483 2c0f 2E2C0000 		.4byte	0x2c2e
 9484 2c13 0A       		.uleb128 0xa
 9485 2c14 F8200000 		.4byte	.LASF594
 9486 2c18 2F       		.byte	0x2f
 9487 2c19 3501     		.2byte	0x135
 9488 2c1b 2C000000 		.4byte	0x2c
 9489 2c1f 00       		.byte	0
 9490 2c20 0A       		.uleb128 0xa
 9491 2c21 C7030000 		.4byte	.LASF595
 9492 2c25 2F       		.byte	0x2f
 9493 2c26 3901     		.2byte	0x139
 9494 2c28 1B130000 		.4byte	0x131b
 9495 2c2c 04       		.byte	0x4
 9496 2c2d 00       		.byte	0
 9497 2c2e 1A       		.uleb128 0x1a
 9498 2c2f 27130000 		.4byte	.LASF596
 9499 2c33 2F       		.byte	0x2f
 9500 2c34 3A01     		.2byte	0x13a
 9501 2c36 0A2C0000 		.4byte	0x2c0a
 9502 2c3a 05       		.uleb128 0x5
 9503 2c3b 2E2C0000 		.4byte	0x2c2e
 9504 2c3f 1A       		.uleb128 0x1a
 9505 2c40 9A200000 		.4byte	.LASF597
 9506 2c44 2F       		.byte	0x2f
 9507 2c45 4201     		.2byte	0x142
 9508 2c47 4B2C0000 		.4byte	0x2c4b
 9509 2c4b 0B       		.uleb128 0xb
 9510 2c4c 04       		.byte	0x4
 9511 2c4d 512C0000 		.4byte	0x2c51
 9512 2c51 0D       		.uleb128 0xd
 9513 2c52 5C2C0000 		.4byte	0x2c5c
 9514 2c56 0E       		.uleb128 0xe
 9515 2c57 5C2C0000 		.4byte	0x2c5c
 9516 2c5b 00       		.byte	0
 9517 2c5c 0B       		.uleb128 0xb
 9518 2c5d 04       		.byte	0x4
ARM GAS  C:\Users\PCHAUT~1\AppData\Local\Temp\ccMxpIDf.s 			page 168


 9519 2c5e 0B2A0000 		.4byte	0x2a0b
 9520 2c62 1A       		.uleb128 0x1a
 9521 2c63 1C040000 		.4byte	.LASF598
 9522 2c67 2F       		.byte	0x2f
 9523 2c68 4B01     		.2byte	0x14b
 9524 2c6a 6E2C0000 		.4byte	0x2c6e
 9525 2c6e 0B       		.uleb128 0xb
 9526 2c6f 04       		.byte	0x4
 9527 2c70 742C0000 		.4byte	0x2c74
 9528 2c74 0D       		.uleb128 0xd
 9529 2c75 842C0000 		.4byte	0x2c84
 9530 2c79 0E       		.uleb128 0xe
 9531 2c7a 5C2C0000 		.4byte	0x2c5c
 9532 2c7e 0E       		.uleb128 0xe
 9533 2c7f 422B0000 		.4byte	0x2b42
 9534 2c83 00       		.byte	0
 9535 2c84 1A       		.uleb128 0x1a
 9536 2c85 B00A0000 		.4byte	.LASF599
 9537 2c89 2F       		.byte	0x2f
 9538 2c8a 5401     		.2byte	0x154
 9539 2c8c 902C0000 		.4byte	0x2c90
 9540 2c90 0B       		.uleb128 0xb
 9541 2c91 04       		.byte	0x4
 9542 2c92 962C0000 		.4byte	0x2c96
 9543 2c96 0D       		.uleb128 0xd
 9544 2c97 A62C0000 		.4byte	0x2ca6
 9545 2c9b 0E       		.uleb128 0xe
 9546 2c9c 5C2C0000 		.4byte	0x2c5c
 9547 2ca0 0E       		.uleb128 0xe
 9548 2ca1 FE2B0000 		.4byte	0x2bfe
 9549 2ca5 00       		.byte	0
 9550 2ca6 1A       		.uleb128 0x1a
 9551 2ca7 6F050000 		.4byte	.LASF600
 9552 2cab 2F       		.byte	0x2f
 9553 2cac 6001     		.2byte	0x160
 9554 2cae B22C0000 		.4byte	0x2cb2
 9555 2cb2 0B       		.uleb128 0xb
 9556 2cb3 04       		.byte	0x4
 9557 2cb4 B82C0000 		.4byte	0x2cb8
 9558 2cb8 20       		.uleb128 0x20
 9559 2cb9 02150000 		.4byte	0x1502
 9560 2cbd C72C0000 		.4byte	0x2cc7
 9561 2cc1 0E       		.uleb128 0xe
 9562 2cc2 5C2C0000 		.4byte	0x2c5c
 9563 2cc6 00       		.byte	0
 9564 2cc7 1A       		.uleb128 0x1a
 9565 2cc8 4D0E0000 		.4byte	.LASF601
 9566 2ccc 2F       		.byte	0x2f
 9567 2ccd 6501     		.2byte	0x165
 9568 2ccf D32C0000 		.4byte	0x2cd3
 9569 2cd3 0B       		.uleb128 0xb
 9570 2cd4 04       		.byte	0x4
 9571 2cd5 D92C0000 		.4byte	0x2cd9
 9572 2cd9 20       		.uleb128 0x20
 9573 2cda F72C0000 		.4byte	0x2cf7
 9574 2cde F72C0000 		.4byte	0x2cf7
 9575 2ce2 0E       		.uleb128 0xe
ARM GAS  C:\Users\PCHAUT~1\AppData\Local\Temp\ccMxpIDf.s 			page 169


 9576 2ce3 5C2C0000 		.4byte	0x2c5c
 9577 2ce7 0E       		.uleb128 0xe
 9578 2ce8 D5000000 		.4byte	0xd5
 9579 2cec 0E       		.uleb128 0xe
 9580 2ced D5000000 		.4byte	0xd5
 9581 2cf1 0E       		.uleb128 0xe
 9582 2cf2 F0000000 		.4byte	0xf0
 9583 2cf6 00       		.byte	0
 9584 2cf7 0B       		.uleb128 0xb
 9585 2cf8 04       		.byte	0x4
 9586 2cf9 3A2C0000 		.4byte	0x2c3a
 9587 2cfd 17       		.uleb128 0x17
 9588 2cfe 20       		.byte	0x20
 9589 2cff 31       		.byte	0x31
 9590 2d00 35       		.byte	0x35
 9591 2d01 662D0000 		.4byte	0x2d66
 9592 2d05 08       		.uleb128 0x8
 9593 2d06 D5020000 		.4byte	.LASF602
 9594 2d0a 31       		.byte	0x31
 9595 2d0b 36       		.byte	0x36
 9596 2d0c 16010000 		.4byte	0x116
 9597 2d10 00       		.byte	0
 9598 2d11 08       		.uleb128 0x8
 9599 2d12 A50C0000 		.4byte	.LASF603
 9600 2d16 31       		.byte	0x31
 9601 2d17 38       		.byte	0x38
 9602 2d18 16010000 		.4byte	0x116
 9603 2d1c 04       		.byte	0x4
 9604 2d1d 08       		.uleb128 0x8
 9605 2d1e 52020000 		.4byte	.LASF604
 9606 2d22 31       		.byte	0x31
 9607 2d23 39       		.byte	0x39
 9608 2d24 16010000 		.4byte	0x116
 9609 2d28 08       		.byte	0x8
 9610 2d29 08       		.uleb128 0x8
 9611 2d2a AD180000 		.4byte	.LASF605
 9612 2d2e 31       		.byte	0x31
 9613 2d2f 3A       		.byte	0x3a
 9614 2d30 16010000 		.4byte	0x116
 9615 2d34 0C       		.byte	0xc
 9616 2d35 08       		.uleb128 0x8
 9617 2d36 B7110000 		.4byte	.LASF606
 9618 2d3a 31       		.byte	0x31
 9619 2d3b 3C       		.byte	0x3c
 9620 2d3c 16010000 		.4byte	0x116
 9621 2d40 10       		.byte	0x10
 9622 2d41 08       		.uleb128 0x8
 9623 2d42 D10C0000 		.4byte	.LASF607
 9624 2d46 31       		.byte	0x31
 9625 2d47 3E       		.byte	0x3e
 9626 2d48 16010000 		.4byte	0x116
 9627 2d4c 14       		.byte	0x14
 9628 2d4d 08       		.uleb128 0x8
 9629 2d4e D90C0000 		.4byte	.LASF608
 9630 2d52 31       		.byte	0x31
 9631 2d53 3F       		.byte	0x3f
 9632 2d54 16010000 		.4byte	0x116
ARM GAS  C:\Users\PCHAUT~1\AppData\Local\Temp\ccMxpIDf.s 			page 170


 9633 2d58 18       		.byte	0x18
 9634 2d59 08       		.uleb128 0x8
 9635 2d5a 75030000 		.4byte	.LASF609
 9636 2d5e 31       		.byte	0x31
 9637 2d5f 40       		.byte	0x40
 9638 2d60 16010000 		.4byte	0x116
 9639 2d64 1C       		.byte	0x1c
 9640 2d65 00       		.byte	0
 9641 2d66 03       		.uleb128 0x3
 9642 2d67 35180000 		.4byte	.LASF610
 9643 2d6b 31       		.byte	0x31
 9644 2d6c 41       		.byte	0x41
 9645 2d6d FD2C0000 		.4byte	0x2cfd
 9646 2d71 17       		.uleb128 0x17
 9647 2d72 20       		.byte	0x20
 9648 2d73 31       		.byte	0x31
 9649 2d74 46       		.byte	0x46
 9650 2d75 DA2D0000 		.4byte	0x2dda
 9651 2d79 08       		.uleb128 0x8
 9652 2d7a 210D0000 		.4byte	.LASF611
 9653 2d7e 31       		.byte	0x31
 9654 2d7f 47       		.byte	0x47
 9655 2d80 16010000 		.4byte	0x116
 9656 2d84 00       		.byte	0
 9657 2d85 08       		.uleb128 0x8
 9658 2d86 E80F0000 		.4byte	.LASF612
 9659 2d8a 31       		.byte	0x31
 9660 2d8b 49       		.byte	0x49
 9661 2d8c 16010000 		.4byte	0x116
 9662 2d90 04       		.byte	0x4
 9663 2d91 08       		.uleb128 0x8
 9664 2d92 561C0000 		.4byte	.LASF613
 9665 2d96 31       		.byte	0x31
 9666 2d97 4A       		.byte	0x4a
 9667 2d98 16010000 		.4byte	0x116
 9668 2d9c 08       		.byte	0x8
 9669 2d9d 08       		.uleb128 0x8
 9670 2d9e 18100000 		.4byte	.LASF614
 9671 2da2 31       		.byte	0x31
 9672 2da3 4C       		.byte	0x4c
 9673 2da4 16010000 		.4byte	0x116
 9674 2da8 0C       		.byte	0xc
 9675 2da9 08       		.uleb128 0x8
 9676 2daa 88140000 		.4byte	.LASF615
 9677 2dae 31       		.byte	0x31
 9678 2daf 4D       		.byte	0x4d
 9679 2db0 16010000 		.4byte	0x116
 9680 2db4 10       		.byte	0x10
 9681 2db5 08       		.uleb128 0x8
 9682 2db6 D10C0000 		.4byte	.LASF607
 9683 2dba 31       		.byte	0x31
 9684 2dbb 4F       		.byte	0x4f
 9685 2dbc 16010000 		.4byte	0x116
 9686 2dc0 14       		.byte	0x14
 9687 2dc1 08       		.uleb128 0x8
 9688 2dc2 1E060000 		.4byte	.LASF616
 9689 2dc6 31       		.byte	0x31
ARM GAS  C:\Users\PCHAUT~1\AppData\Local\Temp\ccMxpIDf.s 			page 171


 9690 2dc7 50       		.byte	0x50
 9691 2dc8 16010000 		.4byte	0x116
 9692 2dcc 18       		.byte	0x18
 9693 2dcd 08       		.uleb128 0x8
 9694 2dce 3F1C0000 		.4byte	.LASF617
 9695 2dd2 31       		.byte	0x31
 9696 2dd3 52       		.byte	0x52
 9697 2dd4 16010000 		.4byte	0x116
 9698 2dd8 1C       		.byte	0x1c
 9699 2dd9 00       		.byte	0
 9700 2dda 03       		.uleb128 0x3
 9701 2ddb 29070000 		.4byte	.LASF618
 9702 2ddf 31       		.byte	0x31
 9703 2de0 53       		.byte	0x53
 9704 2de1 712D0000 		.4byte	0x2d71
 9705 2de5 17       		.uleb128 0x17
 9706 2de6 20       		.byte	0x20
 9707 2de7 31       		.byte	0x31
 9708 2de8 58       		.byte	0x58
 9709 2de9 4E2E0000 		.4byte	0x2e4e
 9710 2ded 08       		.uleb128 0x8
 9711 2dee A5180000 		.4byte	.LASF619
 9712 2df2 31       		.byte	0x31
 9713 2df3 59       		.byte	0x59
 9714 2df4 16010000 		.4byte	0x116
 9715 2df8 00       		.byte	0
 9716 2df9 08       		.uleb128 0x8
 9717 2dfa E80F0000 		.4byte	.LASF612
 9718 2dfe 31       		.byte	0x31
 9719 2dff 5B       		.byte	0x5b
 9720 2e00 16010000 		.4byte	0x116
 9721 2e04 04       		.byte	0x4
 9722 2e05 08       		.uleb128 0x8
 9723 2e06 A3150000 		.4byte	.LASF620
 9724 2e0a 31       		.byte	0x31
 9725 2e0b 5C       		.byte	0x5c
 9726 2e0c 16010000 		.4byte	0x116
 9727 2e10 08       		.byte	0x8
 9728 2e11 08       		.uleb128 0x8
 9729 2e12 18100000 		.4byte	.LASF614
 9730 2e16 31       		.byte	0x31
 9731 2e17 5E       		.byte	0x5e
 9732 2e18 16010000 		.4byte	0x116
 9733 2e1c 0C       		.byte	0xc
 9734 2e1d 08       		.uleb128 0x8
 9735 2e1e 721D0000 		.4byte	.LASF621
 9736 2e22 31       		.byte	0x31
 9737 2e23 5F       		.byte	0x5f
 9738 2e24 16010000 		.4byte	0x116
 9739 2e28 10       		.byte	0x10
 9740 2e29 08       		.uleb128 0x8
 9741 2e2a D10C0000 		.4byte	.LASF607
 9742 2e2e 31       		.byte	0x31
 9743 2e2f 61       		.byte	0x61
 9744 2e30 16010000 		.4byte	0x116
 9745 2e34 14       		.byte	0x14
 9746 2e35 08       		.uleb128 0x8
ARM GAS  C:\Users\PCHAUT~1\AppData\Local\Temp\ccMxpIDf.s 			page 172


 9747 2e36 D90C0000 		.4byte	.LASF608
 9748 2e3a 31       		.byte	0x31
 9749 2e3b 62       		.byte	0x62
 9750 2e3c 16010000 		.4byte	0x116
 9751 2e40 18       		.byte	0x18
 9752 2e41 08       		.uleb128 0x8
 9753 2e42 3F1C0000 		.4byte	.LASF617
 9754 2e46 31       		.byte	0x31
 9755 2e47 63       		.byte	0x63
 9756 2e48 16010000 		.4byte	0x116
 9757 2e4c 1C       		.byte	0x1c
 9758 2e4d 00       		.byte	0
 9759 2e4e 03       		.uleb128 0x3
 9760 2e4f C0060000 		.4byte	.LASF622
 9761 2e53 31       		.byte	0x31
 9762 2e54 64       		.byte	0x64
 9763 2e55 E52D0000 		.4byte	0x2de5
 9764 2e59 26       		.uleb128 0x26
 9765 2e5a 00100100 		.4byte	0x11000
 9766 2e5e 31       		.byte	0x31
 9767 2e5f 69       		.byte	0x69
 9768 2e60 36310000 		.4byte	0x3136
 9769 2e64 08       		.uleb128 0x8
 9770 2e65 0B040000 		.4byte	.LASF623
 9771 2e69 31       		.byte	0x31
 9772 2e6a 6A       		.byte	0x6a
 9773 2e6b 16010000 		.4byte	0x116
 9774 2e6f 00       		.byte	0
 9775 2e70 08       		.uleb128 0x8
 9776 2e71 930B0000 		.4byte	.LASF624
 9777 2e75 31       		.byte	0x31
 9778 2e76 6B       		.byte	0x6b
 9779 2e77 16010000 		.4byte	0x116
 9780 2e7b 04       		.byte	0x4
 9781 2e7c 08       		.uleb128 0x8
 9782 2e7d 54060000 		.4byte	.LASF625
 9783 2e81 31       		.byte	0x31
 9784 2e82 6C       		.byte	0x6c
 9785 2e83 16010000 		.4byte	0x116
 9786 2e87 08       		.byte	0x8
 9787 2e88 08       		.uleb128 0x8
 9788 2e89 A8200000 		.4byte	.LASF626
 9789 2e8d 31       		.byte	0x31
 9790 2e8e 6D       		.byte	0x6d
 9791 2e8f 16010000 		.4byte	0x116
 9792 2e93 0C       		.byte	0xc
 9793 2e94 08       		.uleb128 0x8
 9794 2e95 54110000 		.4byte	.LASF627
 9795 2e99 31       		.byte	0x31
 9796 2e9a 6E       		.byte	0x6e
 9797 2e9b 16010000 		.4byte	0x116
 9798 2e9f 10       		.byte	0x10
 9799 2ea0 08       		.uleb128 0x8
 9800 2ea1 0F0B0000 		.4byte	.LASF628
 9801 2ea5 31       		.byte	0x31
 9802 2ea6 6F       		.byte	0x6f
 9803 2ea7 16010000 		.4byte	0x116
ARM GAS  C:\Users\PCHAUT~1\AppData\Local\Temp\ccMxpIDf.s 			page 173


 9804 2eab 14       		.byte	0x14
 9805 2eac 08       		.uleb128 0x8
 9806 2ead 52170000 		.4byte	.LASF629
 9807 2eb1 31       		.byte	0x31
 9808 2eb2 70       		.byte	0x70
 9809 2eb3 16010000 		.4byte	0x116
 9810 2eb7 18       		.byte	0x18
 9811 2eb8 08       		.uleb128 0x8
 9812 2eb9 DB060000 		.4byte	.LASF630
 9813 2ebd 31       		.byte	0x31
 9814 2ebe 71       		.byte	0x71
 9815 2ebf 16010000 		.4byte	0x116
 9816 2ec3 1C       		.byte	0x1c
 9817 2ec4 08       		.uleb128 0x8
 9818 2ec5 D3060000 		.4byte	.LASF631
 9819 2ec9 31       		.byte	0x31
 9820 2eca 73       		.byte	0x73
 9821 2ecb 16010000 		.4byte	0x116
 9822 2ecf 20       		.byte	0x20
 9823 2ed0 08       		.uleb128 0x8
 9824 2ed1 07170000 		.4byte	.LASF632
 9825 2ed5 31       		.byte	0x31
 9826 2ed6 75       		.byte	0x75
 9827 2ed7 16010000 		.4byte	0x116
 9828 2edb 24       		.byte	0x24
 9829 2edc 08       		.uleb128 0x8
 9830 2edd AA000000 		.4byte	.LASF633
 9831 2ee1 31       		.byte	0x31
 9832 2ee2 76       		.byte	0x76
 9833 2ee3 16010000 		.4byte	0x116
 9834 2ee7 28       		.byte	0x28
 9835 2ee8 08       		.uleb128 0x8
 9836 2ee9 5A170000 		.4byte	.LASF634
 9837 2eed 31       		.byte	0x31
 9838 2eee 78       		.byte	0x78
 9839 2eef 16010000 		.4byte	0x116
 9840 2ef3 2C       		.byte	0x2c
 9841 2ef4 08       		.uleb128 0x8
 9842 2ef5 CB0D0000 		.4byte	.LASF635
 9843 2ef9 31       		.byte	0x31
 9844 2efa 7A       		.byte	0x7a
 9845 2efb 16010000 		.4byte	0x116
 9846 2eff 30       		.byte	0x30
 9847 2f00 08       		.uleb128 0x8
 9848 2f01 D30D0000 		.4byte	.LASF636
 9849 2f05 31       		.byte	0x31
 9850 2f06 7B       		.byte	0x7b
 9851 2f07 16010000 		.4byte	0x116
 9852 2f0b 34       		.byte	0x34
 9853 2f0c 08       		.uleb128 0x8
 9854 2f0d 97010000 		.4byte	.LASF637
 9855 2f11 31       		.byte	0x31
 9856 2f12 7C       		.byte	0x7c
 9857 2f13 16010000 		.4byte	0x116
 9858 2f17 38       		.byte	0x38
 9859 2f18 18       		.uleb128 0x18
 9860 2f19 43494400 		.ascii	"CID\000"
ARM GAS  C:\Users\PCHAUT~1\AppData\Local\Temp\ccMxpIDf.s 			page 174


 9861 2f1d 31       		.byte	0x31
 9862 2f1e 7D       		.byte	0x7d
 9863 2f1f 16010000 		.4byte	0x116
 9864 2f23 3C       		.byte	0x3c
 9865 2f24 08       		.uleb128 0x8
 9866 2f25 ED0E0000 		.4byte	.LASF638
 9867 2f29 31       		.byte	0x31
 9868 2f2a 7E       		.byte	0x7e
 9869 2f2b 46310000 		.4byte	0x3146
 9870 2f2f 40       		.byte	0x40
 9871 2f30 27       		.uleb128 0x27
 9872 2f31 211E0000 		.4byte	.LASF639
 9873 2f35 31       		.byte	0x31
 9874 2f36 7F       		.byte	0x7f
 9875 2f37 16010000 		.4byte	0x116
 9876 2f3b 0001     		.2byte	0x100
 9877 2f3d 27       		.uleb128 0x27
 9878 2f3e DD010000 		.4byte	.LASF640
 9879 2f42 31       		.byte	0x31
 9880 2f43 81       		.byte	0x81
 9881 2f44 E20C0000 		.4byte	0xce2
 9882 2f48 0401     		.2byte	0x104
 9883 2f4a 27       		.uleb128 0x27
 9884 2f4b 4A120000 		.4byte	.LASF641
 9885 2f4f 31       		.byte	0x31
 9886 2f50 83       		.byte	0x83
 9887 2f51 5B310000 		.4byte	0x315b
 9888 2f55 4001     		.2byte	0x140
 9889 2f57 27       		.uleb128 0x27
 9890 2f58 57150000 		.4byte	.LASF642
 9891 2f5c 31       		.byte	0x31
 9892 2f5d 84       		.byte	0x84
 9893 2f5e 16010000 		.4byte	0x116
 9894 2f62 0004     		.2byte	0x400
 9895 2f64 27       		.uleb128 0x27
 9896 2f65 46200000 		.4byte	.LASF643
 9897 2f69 31       		.byte	0x31
 9898 2f6a 85       		.byte	0x85
 9899 2f6b 16010000 		.4byte	0x116
 9900 2f6f 0404     		.2byte	0x404
 9901 2f71 27       		.uleb128 0x27
 9902 2f72 93030000 		.4byte	.LASF644
 9903 2f76 31       		.byte	0x31
 9904 2f77 86       		.byte	0x86
 9905 2f78 16010000 		.4byte	0x116
 9906 2f7c 0804     		.2byte	0x408
 9907 2f7e 27       		.uleb128 0x27
 9908 2f7f A91D0000 		.4byte	.LASF645
 9909 2f83 31       		.byte	0x31
 9910 2f84 88       		.byte	0x88
 9911 2f85 16010000 		.4byte	0x116
 9912 2f89 0C04     		.2byte	0x40c
 9913 2f8b 27       		.uleb128 0x27
 9914 2f8c 9C020000 		.4byte	.LASF646
 9915 2f90 31       		.byte	0x31
 9916 2f91 89       		.byte	0x89
 9917 2f92 16010000 		.4byte	0x116
ARM GAS  C:\Users\PCHAUT~1\AppData\Local\Temp\ccMxpIDf.s 			page 175


 9918 2f96 1004     		.2byte	0x410
 9919 2f98 27       		.uleb128 0x27
 9920 2f99 88030000 		.4byte	.LASF647
 9921 2f9d 31       		.byte	0x31
 9922 2f9e 8B       		.byte	0x8b
 9923 2f9f 16010000 		.4byte	0x116
 9924 2fa3 1404     		.2byte	0x414
 9925 2fa5 27       		.uleb128 0x27
 9926 2fa6 AE0B0000 		.4byte	.LASF648
 9927 2faa 31       		.byte	0x31
 9928 2fab 8D       		.byte	0x8d
 9929 2fac 16010000 		.4byte	0x116
 9930 2fb0 1804     		.2byte	0x418
 9931 2fb2 27       		.uleb128 0x27
 9932 2fb3 82190000 		.4byte	.LASF649
 9933 2fb7 31       		.byte	0x31
 9934 2fb8 8F       		.byte	0x8f
 9935 2fb9 70310000 		.4byte	0x3170
 9936 2fbd 1C04     		.2byte	0x41c
 9937 2fbf 27       		.uleb128 0x27
 9938 2fc0 3E020000 		.4byte	.LASF650
 9939 2fc4 31       		.byte	0x31
 9940 2fc5 90       		.byte	0x90
 9941 2fc6 16010000 		.4byte	0x116
 9942 2fca 4004     		.2byte	0x440
 9943 2fcc 27       		.uleb128 0x27
 9944 2fcd 4A1B0000 		.4byte	.LASF651
 9945 2fd1 31       		.byte	0x31
 9946 2fd2 92       		.byte	0x92
 9947 2fd3 85310000 		.4byte	0x3185
 9948 2fd7 4404     		.2byte	0x444
 9949 2fd9 28       		.uleb128 0x28
 9950 2fda 686300   		.ascii	"hc\000"
 9951 2fdd 31       		.byte	0x31
 9952 2fde 93       		.byte	0x93
 9953 2fdf 8A310000 		.4byte	0x318a
 9954 2fe3 0005     		.2byte	0x500
 9955 2fe5 27       		.uleb128 0x27
 9956 2fe6 E81D0000 		.4byte	.LASF652
 9957 2fea 31       		.byte	0x31
 9958 2feb 94       		.byte	0x94
 9959 2fec AA310000 		.4byte	0x31aa
 9960 2ff0 0007     		.2byte	0x700
 9961 2ff2 27       		.uleb128 0x27
 9962 2ff3 36170000 		.4byte	.LASF653
 9963 2ff7 31       		.byte	0x31
 9964 2ff8 95       		.byte	0x95
 9965 2ff9 16010000 		.4byte	0x116
 9966 2ffd 0008     		.2byte	0x800
 9967 2fff 27       		.uleb128 0x27
 9968 3000 A41E0000 		.4byte	.LASF654
 9969 3004 31       		.byte	0x31
 9970 3005 96       		.byte	0x96
 9971 3006 16010000 		.4byte	0x116
 9972 300a 0408     		.2byte	0x804
 9973 300c 27       		.uleb128 0x27
 9974 300d DA040000 		.4byte	.LASF655
ARM GAS  C:\Users\PCHAUT~1\AppData\Local\Temp\ccMxpIDf.s 			page 176


 9975 3011 31       		.byte	0x31
 9976 3012 97       		.byte	0x97
 9977 3013 16010000 		.4byte	0x116
 9978 3017 0808     		.2byte	0x808
 9979 3019 27       		.uleb128 0x27
 9980 301a F9030000 		.4byte	.LASF656
 9981 301e 31       		.byte	0x31
 9982 301f 98       		.byte	0x98
 9983 3020 16010000 		.4byte	0x116
 9984 3024 0C08     		.2byte	0x80c
 9985 3026 27       		.uleb128 0x27
 9986 3027 8B0B0000 		.4byte	.LASF657
 9987 302b 31       		.byte	0x31
 9988 302c 99       		.byte	0x99
 9989 302d 16010000 		.4byte	0x116
 9990 3031 1008     		.2byte	0x810
 9991 3033 27       		.uleb128 0x27
 9992 3034 771C0000 		.4byte	.LASF658
 9993 3038 31       		.byte	0x31
 9994 3039 9B       		.byte	0x9b
 9995 303a 16010000 		.4byte	0x116
 9996 303e 1408     		.2byte	0x814
 9997 3040 27       		.uleb128 0x27
 9998 3041 FB1C0000 		.4byte	.LASF659
 9999 3045 31       		.byte	0x31
 10000 3046 9D       		.byte	0x9d
 10001 3047 16010000 		.4byte	0x116
 10002 304b 1808     		.2byte	0x818
 10003 304d 27       		.uleb128 0x27
 10004 304e 0E1A0000 		.4byte	.LASF660
 10005 3052 31       		.byte	0x31
 10006 3053 9F       		.byte	0x9f
 10007 3054 16010000 		.4byte	0x116
 10008 3058 1C08     		.2byte	0x81c
 10009 305a 27       		.uleb128 0x27
 10010 305b 38050000 		.4byte	.LASF661
 10011 305f 31       		.byte	0x31
 10012 3060 A1       		.byte	0xa1
 10013 3061 16010000 		.4byte	0x116
 10014 3065 2008     		.2byte	0x820
 10015 3067 27       		.uleb128 0x27
 10016 3068 57040000 		.4byte	.LASF662
 10017 306c 31       		.byte	0x31
 10018 306d A2       		.byte	0xa2
 10019 306e 16010000 		.4byte	0x116
 10020 3072 2408     		.2byte	0x824
 10021 3074 27       		.uleb128 0x27
 10022 3075 3B170000 		.4byte	.LASF663
 10023 3079 31       		.byte	0x31
 10024 307a A3       		.byte	0xa3
 10025 307b 16010000 		.4byte	0x116
 10026 307f 2808     		.2byte	0x828
 10027 3081 27       		.uleb128 0x27
 10028 3082 DB0D0000 		.4byte	.LASF664
 10029 3086 31       		.byte	0x31
 10030 3087 A5       		.byte	0xa5
 10031 3088 16010000 		.4byte	0x116
ARM GAS  C:\Users\PCHAUT~1\AppData\Local\Temp\ccMxpIDf.s 			page 177


 10032 308c 2C08     		.2byte	0x82c
 10033 308e 27       		.uleb128 0x27
 10034 308f B4050000 		.4byte	.LASF665
 10035 3093 31       		.byte	0x31
 10036 3094 A7       		.byte	0xa7
 10037 3095 16010000 		.4byte	0x116
 10038 3099 3008     		.2byte	0x830
 10039 309b 27       		.uleb128 0x27
 10040 309c 160D0000 		.4byte	.LASF666
 10041 30a0 31       		.byte	0x31
 10042 30a1 A8       		.byte	0xa8
 10043 30a2 16010000 		.4byte	0x116
 10044 30a6 3408     		.2byte	0x834
 10045 30a8 27       		.uleb128 0x27
 10046 30a9 C7050000 		.4byte	.LASF667
 10047 30ad 31       		.byte	0x31
 10048 30ae AA       		.byte	0xaa
 10049 30af 16010000 		.4byte	0x116
 10050 30b3 3808     		.2byte	0x838
 10051 30b5 27       		.uleb128 0x27
 10052 30b6 EA050000 		.4byte	.LASF668
 10053 30ba 31       		.byte	0x31
 10054 30bb AB       		.byte	0xab
 10055 30bc 16010000 		.4byte	0x116
 10056 30c0 3C08     		.2byte	0x83c
 10057 30c2 27       		.uleb128 0x27
 10058 30c3 74060000 		.4byte	.LASF669
 10059 30c7 31       		.byte	0x31
 10060 30c8 AC       		.byte	0xac
 10061 30c9 BF310000 		.4byte	0x31bf
 10062 30cd 4008     		.2byte	0x840
 10063 30cf 27       		.uleb128 0x27
 10064 30d0 C00C0000 		.4byte	.LASF670
 10065 30d4 31       		.byte	0x31
 10066 30d5 AD       		.byte	0xad
 10067 30d6 BF310000 		.4byte	0x31bf
 10068 30da 8008     		.2byte	0x880
 10069 30dc 27       		.uleb128 0x27
 10070 30dd 05100000 		.4byte	.LASF671
 10071 30e1 31       		.byte	0x31
 10072 30e2 AE       		.byte	0xae
 10073 30e3 BF310000 		.4byte	0x31bf
 10074 30e7 C008     		.2byte	0x8c0
 10075 30e9 28       		.uleb128 0x28
 10076 30ea 696500   		.ascii	"ie\000"
 10077 30ed 31       		.byte	0x31
 10078 30ee AF       		.byte	0xaf
 10079 30ef C4310000 		.4byte	0x31c4
 10080 30f3 0009     		.2byte	0x900
 10081 30f5 28       		.uleb128 0x28
 10082 30f6 6F6500   		.ascii	"oe\000"
 10083 30f9 31       		.byte	0x31
 10084 30fa B0       		.byte	0xb0
 10085 30fb D4310000 		.4byte	0x31d4
 10086 30ff 000B     		.2byte	0xb00
 10087 3101 27       		.uleb128 0x27
 10088 3102 F90A0000 		.4byte	.LASF672
ARM GAS  C:\Users\PCHAUT~1\AppData\Local\Temp\ccMxpIDf.s 			page 178


 10089 3106 31       		.byte	0x31
 10090 3107 B1       		.byte	0xb1
 10091 3108 AA310000 		.4byte	0x31aa
 10092 310c 000D     		.2byte	0xd00
 10093 310e 27       		.uleb128 0x27
 10094 310f C51E0000 		.4byte	.LASF673
 10095 3113 31       		.byte	0x31
 10096 3114 B2       		.byte	0xb2
 10097 3115 16010000 		.4byte	0x116
 10098 3119 000E     		.2byte	0xe00
 10099 311b 27       		.uleb128 0x27
 10100 311c F9140000 		.4byte	.LASF674
 10101 3120 31       		.byte	0x31
 10102 3121 B4       		.byte	0xb4
 10103 3122 F4310000 		.4byte	0x31f4
 10104 3126 040E     		.2byte	0xe04
 10105 3128 27       		.uleb128 0x27
 10106 3129 60090000 		.4byte	.LASF175
 10107 312d 31       		.byte	0x31
 10108 312e B5       		.byte	0xb5
 10109 312f 10320000 		.4byte	0x3210
 10110 3133 0010     		.2byte	0x1000
 10111 3135 00       		.byte	0
 10112 3136 13       		.uleb128 0x13
 10113 3137 16010000 		.4byte	0x116
 10114 313b 46310000 		.4byte	0x3146
 10115 313f 14       		.uleb128 0x14
 10116 3140 37000000 		.4byte	0x37
 10117 3144 2F       		.byte	0x2f
 10118 3145 00       		.byte	0
 10119 3146 06       		.uleb128 0x6
 10120 3147 36310000 		.4byte	0x3136
 10121 314b 13       		.uleb128 0x13
 10122 314c 16010000 		.4byte	0x116
 10123 3150 5B310000 		.4byte	0x315b
 10124 3154 14       		.uleb128 0x14
 10125 3155 37000000 		.4byte	0x37
 10126 3159 AF       		.byte	0xaf
 10127 315a 00       		.byte	0
 10128 315b 06       		.uleb128 0x6
 10129 315c 4B310000 		.4byte	0x314b
 10130 3160 13       		.uleb128 0x13
 10131 3161 16010000 		.4byte	0x116
 10132 3165 70310000 		.4byte	0x3170
 10133 3169 14       		.uleb128 0x14
 10134 316a 37000000 		.4byte	0x37
 10135 316e 08       		.byte	0x8
 10136 316f 00       		.byte	0
 10137 3170 06       		.uleb128 0x6
 10138 3171 60310000 		.4byte	0x3160
 10139 3175 13       		.uleb128 0x13
 10140 3176 16010000 		.4byte	0x116
 10141 317a 85310000 		.4byte	0x3185
 10142 317e 14       		.uleb128 0x14
 10143 317f 37000000 		.4byte	0x37
 10144 3183 2E       		.byte	0x2e
 10145 3184 00       		.byte	0
ARM GAS  C:\Users\PCHAUT~1\AppData\Local\Temp\ccMxpIDf.s 			page 179


 10146 3185 06       		.uleb128 0x6
 10147 3186 75310000 		.4byte	0x3175
 10148 318a 13       		.uleb128 0x13
 10149 318b 662D0000 		.4byte	0x2d66
 10150 318f 9A310000 		.4byte	0x319a
 10151 3193 14       		.uleb128 0x14
 10152 3194 37000000 		.4byte	0x37
 10153 3198 0F       		.byte	0xf
 10154 3199 00       		.byte	0
 10155 319a 13       		.uleb128 0x13
 10156 319b 16010000 		.4byte	0x116
 10157 319f AA310000 		.4byte	0x31aa
 10158 31a3 14       		.uleb128 0x14
 10159 31a4 37000000 		.4byte	0x37
 10160 31a8 3F       		.byte	0x3f
 10161 31a9 00       		.byte	0
 10162 31aa 06       		.uleb128 0x6
 10163 31ab 9A310000 		.4byte	0x319a
 10164 31af 13       		.uleb128 0x13
 10165 31b0 16010000 		.4byte	0x116
 10166 31b4 BF310000 		.4byte	0x31bf
 10167 31b8 14       		.uleb128 0x14
 10168 31b9 37000000 		.4byte	0x37
 10169 31bd 0F       		.byte	0xf
 10170 31be 00       		.byte	0
 10171 31bf 06       		.uleb128 0x6
 10172 31c0 AF310000 		.4byte	0x31af
 10173 31c4 13       		.uleb128 0x13
 10174 31c5 DA2D0000 		.4byte	0x2dda
 10175 31c9 D4310000 		.4byte	0x31d4
 10176 31cd 14       		.uleb128 0x14
 10177 31ce 37000000 		.4byte	0x37
 10178 31d2 0F       		.byte	0xf
 10179 31d3 00       		.byte	0
 10180 31d4 13       		.uleb128 0x13
 10181 31d5 4E2E0000 		.4byte	0x2e4e
 10182 31d9 E4310000 		.4byte	0x31e4
 10183 31dd 14       		.uleb128 0x14
 10184 31de 37000000 		.4byte	0x37
 10185 31e2 0F       		.byte	0xf
 10186 31e3 00       		.byte	0
 10187 31e4 13       		.uleb128 0x13
 10188 31e5 16010000 		.4byte	0x116
 10189 31e9 F4310000 		.4byte	0x31f4
 10190 31ed 14       		.uleb128 0x14
 10191 31ee 37000000 		.4byte	0x37
 10192 31f2 7E       		.byte	0x7e
 10193 31f3 00       		.byte	0
 10194 31f4 06       		.uleb128 0x6
 10195 31f5 E4310000 		.4byte	0x31e4
 10196 31f9 13       		.uleb128 0x13
 10197 31fa 16010000 		.4byte	0x116
 10198 31fe 10320000 		.4byte	0x3210
 10199 3202 14       		.uleb128 0x14
 10200 3203 37000000 		.4byte	0x37
 10201 3207 0F       		.byte	0xf
 10202 3208 29       		.uleb128 0x29
ARM GAS  C:\Users\PCHAUT~1\AppData\Local\Temp\ccMxpIDf.s 			page 180


 10203 3209 37000000 		.4byte	0x37
 10204 320d FF03     		.2byte	0x3ff
 10205 320f 00       		.byte	0
 10206 3210 06       		.uleb128 0x6
 10207 3211 F9310000 		.4byte	0x31f9
 10208 3215 03       		.uleb128 0x3
 10209 3216 CD200000 		.4byte	.LASF675
 10210 321a 31       		.byte	0x31
 10211 321b B6       		.byte	0xb6
 10212 321c 592E0000 		.4byte	0x2e59
 10213 3220 17       		.uleb128 0x17
 10214 3221 0C       		.byte	0xc
 10215 3222 30       		.byte	0x30
 10216 3223 C6       		.byte	0xc6
 10217 3224 4D320000 		.4byte	0x324d
 10218 3228 08       		.uleb128 0x8
 10219 3229 FA080000 		.4byte	.LASF676
 10220 322d 30       		.byte	0x30
 10221 322e C7       		.byte	0xc7
 10222 322f 0B010000 		.4byte	0x10b
 10223 3233 00       		.byte	0
 10224 3234 08       		.uleb128 0x8
 10225 3235 D90A0000 		.4byte	.LASF677
 10226 3239 30       		.byte	0x30
 10227 323a C8       		.byte	0xc8
 10228 323b 0B010000 		.4byte	0x10b
 10229 323f 04       		.byte	0x4
 10230 3240 08       		.uleb128 0x8
 10231 3241 240E0000 		.4byte	.LASF678
 10232 3245 30       		.byte	0x30
 10233 3246 C9       		.byte	0xc9
 10234 3247 0B010000 		.4byte	0x10b
 10235 324b 08       		.byte	0x8
 10236 324c 00       		.byte	0
 10237 324d 03       		.uleb128 0x3
 10238 324e E60A0000 		.4byte	.LASF679
 10239 3252 30       		.byte	0x30
 10240 3253 CA       		.byte	0xca
 10241 3254 20320000 		.4byte	0x3220
 10242 3258 05       		.uleb128 0x5
 10243 3259 4D320000 		.4byte	0x324d
 10244 325d 17       		.uleb128 0x17
 10245 325e 04       		.byte	0x4
 10246 325f 30       		.byte	0x30
 10247 3260 DD       		.byte	0xdd
 10248 3261 72320000 		.4byte	0x3272
 10249 3265 08       		.uleb128 0x8
 10250 3266 BF1E0000 		.4byte	.LASF680
 10251 326a 30       		.byte	0x30
 10252 326b E1       		.byte	0xe1
 10253 326c 1B130000 		.4byte	0x131b
 10254 3270 00       		.byte	0
 10255 3271 00       		.byte	0
 10256 3272 17       		.uleb128 0x17
 10257 3273 04       		.byte	0x4
 10258 3274 30       		.byte	0x30
 10259 3275 E3       		.byte	0xe3
ARM GAS  C:\Users\PCHAUT~1\AppData\Local\Temp\ccMxpIDf.s 			page 181


 10260 3276 87320000 		.4byte	0x3287
 10261 327a 08       		.uleb128 0x8
 10262 327b 6F090000 		.4byte	.LASF366
 10263 327f 30       		.byte	0x30
 10264 3280 E7       		.byte	0xe7
 10265 3281 87320000 		.4byte	0x3287
 10266 3285 00       		.byte	0
 10267 3286 00       		.byte	0
 10268 3287 0B       		.uleb128 0xb
 10269 3288 04       		.byte	0x4
 10270 3289 F7120000 		.4byte	0x12f7
 10271 328d 1D       		.uleb128 0x1d
 10272 328e 04       		.byte	0x4
 10273 328f 30       		.byte	0x30
 10274 3290 DC       		.byte	0xdc
 10275 3291 AC320000 		.4byte	0x32ac
 10276 3295 2A       		.uleb128 0x2a
 10277 3296 7F1B0000 		.4byte	.LASF681
 10278 329a 30       		.byte	0x30
 10279 329b E2       		.byte	0xe2
 10280 329c 5D320000 		.4byte	0x325d
 10281 32a0 2A       		.uleb128 0x2a
 10282 32a1 601A0000 		.4byte	.LASF682
 10283 32a5 30       		.byte	0x30
 10284 32a6 E8       		.byte	0xe8
 10285 32a7 72320000 		.4byte	0x3272
 10286 32ab 00       		.byte	0
 10287 32ac 17       		.uleb128 0x17
 10288 32ad 14       		.byte	0x14
 10289 32ae 30       		.byte	0x30
 10290 32af CF       		.byte	0xcf
 10291 32b0 F1320000 		.4byte	0x32f1
 10292 32b4 08       		.uleb128 0x8
 10293 32b5 B1060000 		.4byte	.LASF683
 10294 32b9 30       		.byte	0x30
 10295 32ba D3       		.byte	0xd3
 10296 32bb 02150000 		.4byte	0x1502
 10297 32bf 00       		.byte	0
 10298 32c0 08       		.uleb128 0x8
 10299 32c1 0F110000 		.4byte	.LASF684
 10300 32c5 30       		.byte	0x30
 10301 32c6 D7       		.byte	0xd7
 10302 32c7 2C000000 		.4byte	0x2c
 10303 32cb 04       		.byte	0x4
 10304 32cc 08       		.uleb128 0x8
 10305 32cd AA0A0000 		.4byte	.LASF685
 10306 32d1 30       		.byte	0x30
 10307 32d2 DB       		.byte	0xdb
 10308 32d3 2C000000 		.4byte	0x2c
 10309 32d7 08       		.byte	0x8
 10310 32d8 08       		.uleb128 0x8
 10311 32d9 56070000 		.4byte	.LASF412
 10312 32dd 30       		.byte	0x30
 10313 32de E9       		.byte	0xe9
 10314 32df 8D320000 		.4byte	0x328d
 10315 32e3 0C       		.byte	0xc
 10316 32e4 08       		.uleb128 0x8
ARM GAS  C:\Users\PCHAUT~1\AppData\Local\Temp\ccMxpIDf.s 			page 182


 10317 32e5 3C0E0000 		.4byte	.LASF686
 10318 32e9 30       		.byte	0x30
 10319 32ea ED       		.byte	0xed
 10320 32eb 2C000000 		.4byte	0x2c
 10321 32ef 10       		.byte	0x10
 10322 32f0 00       		.byte	0
 10323 32f1 03       		.uleb128 0x3
 10324 32f2 F50E0000 		.4byte	.LASF687
 10325 32f6 30       		.byte	0x30
 10326 32f7 EE       		.byte	0xee
 10327 32f8 AC320000 		.4byte	0x32ac
 10328 32fc 19       		.uleb128 0x19
 10329 32fd 04       		.byte	0x4
 10330 32fe 30       		.byte	0x30
 10331 32ff 0101     		.2byte	0x101
 10332 3301 13330000 		.4byte	0x3313
 10333 3305 0A       		.uleb128 0xa
 10334 3306 090B0000 		.4byte	.LASF688
 10335 330a 30       		.byte	0x30
 10336 330b 0501     		.2byte	0x105
 10337 330d E6120000 		.4byte	0x12e6
 10338 3311 00       		.byte	0
 10339 3312 00       		.byte	0
 10340 3313 19       		.uleb128 0x19
 10341 3314 04       		.byte	0x4
 10342 3315 30       		.byte	0x30
 10343 3316 0701     		.2byte	0x107
 10344 3318 2A330000 		.4byte	0x332a
 10345 331c 0A       		.uleb128 0xa
 10346 331d 3A1B0000 		.4byte	.LASF367
 10347 3321 30       		.byte	0x30
 10348 3322 0B01     		.2byte	0x10b
 10349 3324 2A330000 		.4byte	0x332a
 10350 3328 00       		.byte	0
 10351 3329 00       		.byte	0
 10352 332a 0B       		.uleb128 0xb
 10353 332b 04       		.byte	0x4
 10354 332c EC120000 		.4byte	0x12ec
 10355 3330 2B       		.uleb128 0x2b
 10356 3331 04       		.byte	0x4
 10357 3332 30       		.byte	0x30
 10358 3333 0001     		.2byte	0x100
 10359 3335 52330000 		.4byte	0x3352
 10360 3339 1E       		.uleb128 0x1e
 10361 333a 7F1B0000 		.4byte	.LASF681
 10362 333e 30       		.byte	0x30
 10363 333f 0601     		.2byte	0x106
 10364 3341 FC320000 		.4byte	0x32fc
 10365 3345 1E       		.uleb128 0x1e
 10366 3346 601A0000 		.4byte	.LASF682
 10367 334a 30       		.byte	0x30
 10368 334b 0C01     		.2byte	0x10c
 10369 334d 13330000 		.4byte	0x3313
 10370 3351 00       		.byte	0
 10371 3352 17       		.uleb128 0x17
 10372 3353 14       		.byte	0x14
 10373 3354 30       		.byte	0x30
ARM GAS  C:\Users\PCHAUT~1\AppData\Local\Temp\ccMxpIDf.s 			page 183


 10374 3355 F3       		.byte	0xf3
 10375 3356 99330000 		.4byte	0x3399
 10376 335a 08       		.uleb128 0x8
 10377 335b 14050000 		.4byte	.LASF689
 10378 335f 30       		.byte	0x30
 10379 3360 F7       		.byte	0xf7
 10380 3361 02150000 		.4byte	0x1502
 10381 3365 00       		.byte	0
 10382 3366 08       		.uleb128 0x8
 10383 3367 B0110000 		.4byte	.LASF690
 10384 336b 30       		.byte	0x30
 10385 336c FB       		.byte	0xfb
 10386 336d 2C000000 		.4byte	0x2c
 10387 3371 04       		.byte	0x4
 10388 3372 08       		.uleb128 0x8
 10389 3373 3B070000 		.4byte	.LASF691
 10390 3377 30       		.byte	0x30
 10391 3378 FF       		.byte	0xff
 10392 3379 2C000000 		.4byte	0x2c
 10393 337d 08       		.byte	0x8
 10394 337e 0A       		.uleb128 0xa
 10395 337f 56070000 		.4byte	.LASF412
 10396 3383 30       		.byte	0x30
 10397 3384 0D01     		.2byte	0x10d
 10398 3386 30330000 		.4byte	0x3330
 10399 338a 0C       		.byte	0xc
 10400 338b 0A       		.uleb128 0xa
 10401 338c 3C0E0000 		.4byte	.LASF686
 10402 3390 30       		.byte	0x30
 10403 3391 1101     		.2byte	0x111
 10404 3393 2C000000 		.4byte	0x2c
 10405 3397 10       		.byte	0x10
 10406 3398 00       		.byte	0
 10407 3399 1A       		.uleb128 0x1a
 10408 339a 6E190000 		.4byte	.LASF692
 10409 339e 30       		.byte	0x30
 10410 339f 1201     		.2byte	0x112
 10411 33a1 52330000 		.4byte	0x3352
 10412 33a5 19       		.uleb128 0x19
 10413 33a6 24       		.byte	0x24
 10414 33a7 30       		.byte	0x30
 10415 33a8 1801     		.2byte	0x118
 10416 33aa 31340000 		.4byte	0x3431
 10417 33ae 0A       		.uleb128 0xa
 10418 33af C6140000 		.4byte	.LASF693
 10419 33b3 30       		.byte	0x30
 10420 33b4 1C01     		.2byte	0x11c
 10421 33b6 0B010000 		.4byte	0x10b
 10422 33ba 00       		.byte	0
 10423 33bb 0A       		.uleb128 0xa
 10424 33bc 40090000 		.4byte	.LASF694
 10425 33c0 30       		.byte	0x30
 10426 33c1 2701     		.2byte	0x127
 10427 33c3 622C0000 		.4byte	0x2c62
 10428 33c7 04       		.byte	0x4
 10429 33c8 0A       		.uleb128 0xa
 10430 33c9 9D150000 		.4byte	.LASF695
ARM GAS  C:\Users\PCHAUT~1\AppData\Local\Temp\ccMxpIDf.s 			page 184


 10431 33cd 30       		.byte	0x30
 10432 33ce 2D01     		.2byte	0x12d
 10433 33d0 622C0000 		.4byte	0x2c62
 10434 33d4 08       		.byte	0x8
 10435 33d5 0A       		.uleb128 0xa
 10436 33d6 9B0B0000 		.4byte	.LASF696
 10437 33da 30       		.byte	0x30
 10438 33db 3301     		.2byte	0x133
 10439 33dd 622C0000 		.4byte	0x2c62
 10440 33e1 0C       		.byte	0xc
 10441 33e2 0A       		.uleb128 0xa
 10442 33e3 00210000 		.4byte	.LASF697
 10443 33e7 30       		.byte	0x30
 10444 33e8 3901     		.2byte	0x139
 10445 33ea F0000000 		.4byte	0xf0
 10446 33ee 10       		.byte	0x10
 10447 33ef 0A       		.uleb128 0xa
 10448 33f0 FE0B0000 		.4byte	.LASF698
 10449 33f4 30       		.byte	0x30
 10450 33f5 3F01     		.2byte	0x13f
 10451 33f7 F0000000 		.4byte	0xf0
 10452 33fb 12       		.byte	0x12
 10453 33fc 0A       		.uleb128 0xa
 10454 33fd D31F0000 		.4byte	.LASF699
 10455 3401 30       		.byte	0x30
 10456 3402 4401     		.2byte	0x144
 10457 3404 31340000 		.4byte	0x3431
 10458 3408 14       		.byte	0x14
 10459 3409 0A       		.uleb128 0xa
 10460 340a 570D0000 		.4byte	.LASF700
 10461 340e 30       		.byte	0x30
 10462 340f 4901     		.2byte	0x149
 10463 3411 37340000 		.4byte	0x3437
 10464 3415 18       		.byte	0x18
 10465 3416 0A       		.uleb128 0xa
 10466 3417 78100000 		.4byte	.LASF701
 10467 341b 30       		.byte	0x30
 10468 341c 5001     		.2byte	0x150
 10469 341e F0000000 		.4byte	0xf0
 10470 3422 1C       		.byte	0x1c
 10471 3423 0A       		.uleb128 0xa
 10472 3424 1F1F0000 		.4byte	.LASF702
 10473 3428 30       		.byte	0x30
 10474 3429 5601     		.2byte	0x156
 10475 342b E6120000 		.4byte	0x12e6
 10476 342f 20       		.byte	0x20
 10477 3430 00       		.byte	0
 10478 3431 0B       		.uleb128 0xb
 10479 3432 04       		.byte	0x4
 10480 3433 F1320000 		.4byte	0x32f1
 10481 3437 0B       		.uleb128 0xb
 10482 3438 04       		.byte	0x4
 10483 3439 99330000 		.4byte	0x3399
 10484 343d 1A       		.uleb128 0x1a
 10485 343e 0A1B0000 		.4byte	.LASF703
 10486 3442 30       		.byte	0x30
 10487 3443 5701     		.2byte	0x157
ARM GAS  C:\Users\PCHAUT~1\AppData\Local\Temp\ccMxpIDf.s 			page 185


 10488 3445 A5330000 		.4byte	0x33a5
 10489 3449 05       		.uleb128 0x5
 10490 344a 3D340000 		.4byte	0x343d
 10491 344e 19       		.uleb128 0x19
 10492 344f 10       		.byte	0x10
 10493 3450 30       		.byte	0x30
 10494 3451 5C01     		.2byte	0x15c
 10495 3453 8C340000 		.4byte	0x348c
 10496 3457 0A       		.uleb128 0xa
 10497 3458 02040000 		.4byte	.LASF704
 10498 345c 30       		.byte	0x30
 10499 345d 6101     		.2byte	0x161
 10500 345f 842C0000 		.4byte	0x2c84
 10501 3463 00       		.byte	0
 10502 3464 0A       		.uleb128 0xa
 10503 3465 5D1E0000 		.4byte	.LASF705
 10504 3469 30       		.byte	0x30
 10505 346a 6601     		.2byte	0x166
 10506 346c C72C0000 		.4byte	0x2cc7
 10507 3470 04       		.byte	0x4
 10508 3471 0A       		.uleb128 0xa
 10509 3472 E0100000 		.4byte	.LASF706
 10510 3476 30       		.byte	0x30
 10511 3477 6C01     		.2byte	0x16c
 10512 3479 A62C0000 		.4byte	0x2ca6
 10513 347d 08       		.byte	0x8
 10514 347e 0A       		.uleb128 0xa
 10515 347f C3010000 		.4byte	.LASF707
 10516 3483 30       		.byte	0x30
 10517 3484 7001     		.2byte	0x170
 10518 3486 3F2C0000 		.4byte	0x2c3f
 10519 348a 0C       		.byte	0xc
 10520 348b 00       		.byte	0
 10521 348c 1A       		.uleb128 0x1a
 10522 348d 0E100000 		.4byte	.LASF708
 10523 3491 30       		.byte	0x30
 10524 3492 7201     		.2byte	0x172
 10525 3494 4E340000 		.4byte	0x344e
 10526 3498 05       		.uleb128 0x5
 10527 3499 8C340000 		.4byte	0x348c
 10528 349d 0B       		.uleb128 0xb
 10529 349e 04       		.byte	0x4
 10530 349f 98340000 		.4byte	0x3498
 10531 34a3 13       		.uleb128 0x13
 10532 34a4 B3340000 		.4byte	0x34b3
 10533 34a8 B3340000 		.4byte	0x34b3
 10534 34ac 14       		.uleb128 0x14
 10535 34ad 37000000 		.4byte	0x37
 10536 34b1 03       		.byte	0x3
 10537 34b2 00       		.byte	0
 10538 34b3 0B       		.uleb128 0xb
 10539 34b4 04       		.byte	0x4
 10540 34b5 49340000 		.4byte	0x3449
 10541 34b9 13       		.uleb128 0x13
 10542 34ba D0030000 		.4byte	0x3d0
 10543 34be C9340000 		.4byte	0x34c9
 10544 34c2 14       		.uleb128 0x14
ARM GAS  C:\Users\PCHAUT~1\AppData\Local\Temp\ccMxpIDf.s 			page 186


 10545 34c3 37000000 		.4byte	0x37
 10546 34c7 02       		.byte	0x2
 10547 34c8 00       		.byte	0
 10548 34c9 0B       		.uleb128 0xb
 10549 34ca 04       		.byte	0x4
 10550 34cb 15320000 		.4byte	0x3215
 10551 34cf 0B       		.uleb128 0xb
 10552 34d0 04       		.byte	0x4
 10553 34d1 58320000 		.4byte	0x3258
 10554 34d5 13       		.uleb128 0x13
 10555 34d6 F20C0000 		.4byte	0xcf2
 10556 34da E5340000 		.4byte	0x34e5
 10557 34de 14       		.uleb128 0x14
 10558 34df 37000000 		.4byte	0x37
 10559 34e3 3E       		.byte	0x3e
 10560 34e4 00       		.byte	0
 10561 34e5 15       		.uleb128 0x15
 10562 34e6 B3000000 		.4byte	.LASF709
 10563 34ea 30       		.byte	0x30
 10564 34eb 0602     		.2byte	0x206
 10565 34ed 0B2A0000 		.4byte	0x2a0b
 10566 34f1 21       		.uleb128 0x21
 10567 34f2 07       		.byte	0x7
 10568 34f3 01       		.byte	0x1
 10569 34f4 69000000 		.4byte	0x69
 10570 34f8 32       		.byte	0x32
 10571 34f9 97       		.byte	0x97
 10572 34fa 11350000 		.4byte	0x3511
 10573 34fe 22       		.uleb128 0x22
 10574 34ff 390B0000 		.4byte	.LASF710
 10575 3503 00       		.byte	0
 10576 3504 22       		.uleb128 0x22
 10577 3505 9D160000 		.4byte	.LASF711
 10578 3509 01       		.byte	0x1
 10579 350a 22       		.uleb128 0x22
 10580 350b 6A060000 		.4byte	.LASF712
 10581 350f 02       		.byte	0x2
 10582 3510 00       		.byte	0
 10583 3511 03       		.uleb128 0x3
 10584 3512 DF050000 		.4byte	.LASF713
 10585 3516 32       		.byte	0x32
 10586 3517 9B       		.byte	0x9b
 10587 3518 F1340000 		.4byte	0x34f1
 10588 351c 03       		.uleb128 0x3
 10589 351d FE010000 		.4byte	.LASF714
 10590 3521 32       		.byte	0x32
 10591 3522 A0       		.byte	0xa0
 10592 3523 27350000 		.4byte	0x3527
 10593 3527 2C       		.uleb128 0x2c
 10594 3528 FE010000 		.4byte	.LASF714
 10595 352c 5802     		.2byte	0x258
 10596 352e 32       		.byte	0x32
 10597 352f E5       		.byte	0xe5
 10598 3530 95350000 		.4byte	0x3595
 10599 3534 18       		.uleb128 0x18
 10600 3535 766D7400 		.ascii	"vmt\000"
 10601 3539 32       		.byte	0x32
ARM GAS  C:\Users\PCHAUT~1\AppData\Local\Temp\ccMxpIDf.s 			page 187


 10602 353a E7       		.byte	0xe7
 10603 353b 50360000 		.4byte	0x3650
 10604 353f 00       		.byte	0
 10605 3540 08       		.uleb128 0x8
 10606 3541 32000000 		.4byte	.LASF510
 10607 3545 32       		.byte	0x32
 10608 3546 E8       		.byte	0xe8
 10609 3547 41120000 		.4byte	0x1241
 10610 354b 04       		.byte	0x4
 10611 354c 08       		.uleb128 0x8
 10612 354d A2130000 		.4byte	.LASF333
 10613 3551 32       		.byte	0x32
 10614 3552 E8       		.byte	0xe8
 10615 3553 11350000 		.4byte	0x3511
 10616 3557 08       		.byte	0x8
 10617 3558 08       		.uleb128 0x8
 10618 3559 96150000 		.4byte	.LASF511
 10619 355d 32       		.byte	0x32
 10620 355e E8       		.byte	0xe8
 10621 355f EC120000 		.4byte	0x12ec
 10622 3563 0C       		.byte	0xc
 10623 3564 08       		.uleb128 0x8
 10624 3565 37100000 		.4byte	.LASF512
 10625 3569 32       		.byte	0x32
 10626 356a E8       		.byte	0xe8
 10627 356b F7120000 		.4byte	0x12f7
 10628 356f 30       		.byte	0x30
 10629 3570 18       		.uleb128 0x18
 10630 3571 696200   		.ascii	"ib\000"
 10631 3574 32       		.byte	0x32
 10632 3575 E8       		.byte	0xe8
 10633 3576 56360000 		.4byte	0x3656
 10634 357a 54       		.byte	0x54
 10635 357b 28       		.uleb128 0x28
 10636 357c 6F6200   		.ascii	"ob\000"
 10637 357f 32       		.byte	0x32
 10638 3580 E8       		.byte	0xe8
 10639 3581 56360000 		.4byte	0x3656
 10640 3585 5401     		.2byte	0x154
 10641 3587 27       		.uleb128 0x27
 10642 3588 B6180000 		.4byte	.LASF334
 10643 358c 32       		.byte	0x32
 10644 358d E8       		.byte	0xe8
 10645 358e 66360000 		.4byte	0x3666
 10646 3592 5402     		.2byte	0x254
 10647 3594 00       		.byte	0
 10648 3595 17       		.uleb128 0x17
 10649 3596 08       		.byte	0x8
 10650 3597 32       		.byte	0x32
 10651 3598 A7       		.byte	0xa7
 10652 3599 CE350000 		.4byte	0x35ce
 10653 359d 08       		.uleb128 0x8
 10654 359e F91D0000 		.4byte	.LASF715
 10655 35a2 32       		.byte	0x32
 10656 35a3 AB       		.byte	0xab
 10657 35a4 5C2C0000 		.4byte	0x2c5c
 10658 35a8 00       		.byte	0
ARM GAS  C:\Users\PCHAUT~1\AppData\Local\Temp\ccMxpIDf.s 			page 188


 10659 35a9 08       		.uleb128 0x8
 10660 35aa 8E0E0000 		.4byte	.LASF716
 10661 35ae 32       		.byte	0x32
 10662 35af AF       		.byte	0xaf
 10663 35b0 422B0000 		.4byte	0x2b42
 10664 35b4 04       		.byte	0x4
 10665 35b5 08       		.uleb128 0x8
 10666 35b6 13040000 		.4byte	.LASF717
 10667 35ba 32       		.byte	0x32
 10668 35bb B3       		.byte	0xb3
 10669 35bc 422B0000 		.4byte	0x2b42
 10670 35c0 05       		.byte	0x5
 10671 35c1 08       		.uleb128 0x8
 10672 35c2 820F0000 		.4byte	.LASF718
 10673 35c6 32       		.byte	0x32
 10674 35c7 B9       		.byte	0xb9
 10675 35c8 422B0000 		.4byte	0x2b42
 10676 35cc 06       		.byte	0x6
 10677 35cd 00       		.byte	0
 10678 35ce 03       		.uleb128 0x3
 10679 35cf 4E190000 		.4byte	.LASF719
 10680 35d3 32       		.byte	0x32
 10681 35d4 BA       		.byte	0xba
 10682 35d5 95350000 		.4byte	0x3595
 10683 35d9 05       		.uleb128 0x5
 10684 35da CE350000 		.4byte	0x35ce
 10685 35de 07       		.uleb128 0x7
 10686 35df 75140000 		.4byte	.LASF720
 10687 35e3 20       		.byte	0x20
 10688 35e4 32       		.byte	0x32
 10689 35e5 DA       		.byte	0xda
 10690 35e6 4B360000 		.4byte	0x364b
 10691 35ea 08       		.uleb128 0x8
 10692 35eb 90150000 		.4byte	.LASF515
 10693 35ef 32       		.byte	0x32
 10694 35f0 DB       		.byte	0xdb
 10695 35f1 21130000 		.4byte	0x1321
 10696 35f5 00       		.byte	0
 10697 35f6 08       		.uleb128 0x8
 10698 35f7 E9030000 		.4byte	.LASF516
 10699 35fb 32       		.byte	0x32
 10700 35fc DB       		.byte	0xdb
 10701 35fd 40130000 		.4byte	0x1340
 10702 3601 04       		.byte	0x4
 10703 3602 18       		.uleb128 0x18
 10704 3603 70757400 		.ascii	"put\000"
 10705 3607 32       		.byte	0x32
 10706 3608 DB       		.byte	0xdb
 10707 3609 5A130000 		.4byte	0x135a
 10708 360d 08       		.byte	0x8
 10709 360e 18       		.uleb128 0x18
 10710 360f 67657400 		.ascii	"get\000"
 10711 3613 32       		.byte	0x32
 10712 3614 DB       		.byte	0xdb
 10713 3615 6F130000 		.4byte	0x136f
 10714 3619 0C       		.byte	0xc
 10715 361a 08       		.uleb128 0x8
ARM GAS  C:\Users\PCHAUT~1\AppData\Local\Temp\ccMxpIDf.s 			page 189


 10716 361b 10120000 		.4byte	.LASF517
 10717 361f 32       		.byte	0x32
 10718 3620 DB       		.byte	0xdb
 10719 3621 10140000 		.4byte	0x1410
 10720 3625 10       		.byte	0x10
 10721 3626 08       		.uleb128 0x8
 10722 3627 75150000 		.4byte	.LASF518
 10723 362b 32       		.byte	0x32
 10724 362c DB       		.byte	0xdb
 10725 362d 2A140000 		.4byte	0x142a
 10726 3631 14       		.byte	0x14
 10727 3632 08       		.uleb128 0x8
 10728 3633 0C1E0000 		.4byte	.LASF519
 10729 3637 32       		.byte	0x32
 10730 3638 DB       		.byte	0xdb
 10731 3639 4E140000 		.4byte	0x144e
 10732 363d 18       		.byte	0x18
 10733 363e 08       		.uleb128 0x8
 10734 363f 4E110000 		.4byte	.LASF520
 10735 3643 32       		.byte	0x32
 10736 3644 DB       		.byte	0xdb
 10737 3645 72140000 		.4byte	0x1472
 10738 3649 1C       		.byte	0x1c
 10739 364a 00       		.byte	0
 10740 364b 05       		.uleb128 0x5
 10741 364c DE350000 		.4byte	0x35de
 10742 3650 0B       		.uleb128 0xb
 10743 3651 04       		.byte	0x4
 10744 3652 4B360000 		.4byte	0x364b
 10745 3656 13       		.uleb128 0x13
 10746 3657 D5000000 		.4byte	0xd5
 10747 365b 66360000 		.4byte	0x3666
 10748 365f 14       		.uleb128 0x14
 10749 3660 37000000 		.4byte	0x37
 10750 3664 FF       		.byte	0xff
 10751 3665 00       		.byte	0
 10752 3666 0B       		.uleb128 0xb
 10753 3667 04       		.byte	0x4
 10754 3668 D9350000 		.4byte	0x35d9
 10755 366c 21       		.uleb128 0x21
 10756 366d 07       		.byte	0x7
 10757 366e 01       		.byte	0x1
 10758 366f 69000000 		.4byte	0x69
 10759 3673 33       		.byte	0x33
 10760 3674 10       		.byte	0x10
 10761 3675 DA360000 		.4byte	0x36da
 10762 3679 22       		.uleb128 0x22
 10763 367a 28020000 		.4byte	.LASF721
 10764 367e 00       		.byte	0
 10765 367f 22       		.uleb128 0x22
 10766 3680 AE1B0000 		.4byte	.LASF722
 10767 3684 01       		.byte	0x1
 10768 3685 22       		.uleb128 0x22
 10769 3686 121C0000 		.4byte	.LASF723
 10770 368a 02       		.byte	0x2
 10771 368b 22       		.uleb128 0x22
 10772 368c B0150000 		.4byte	.LASF724
ARM GAS  C:\Users\PCHAUT~1\AppData\Local\Temp\ccMxpIDf.s 			page 190


 10773 3690 03       		.byte	0x3
 10774 3691 22       		.uleb128 0x22
 10775 3692 C9190000 		.4byte	.LASF725
 10776 3696 10       		.byte	0x10
 10777 3697 22       		.uleb128 0x22
 10778 3698 F3130000 		.4byte	.LASF726
 10779 369c 11       		.byte	0x11
 10780 369d 22       		.uleb128 0x22
 10781 369e 71170000 		.4byte	.LASF727
 10782 36a2 12       		.byte	0x12
 10783 36a3 22       		.uleb128 0x22
 10784 36a4 A20B0000 		.4byte	.LASF728
 10785 36a8 13       		.byte	0x13
 10786 36a9 22       		.uleb128 0x22
 10787 36aa 44170000 		.4byte	.LASF729
 10788 36ae 30       		.byte	0x30
 10789 36af 22       		.uleb128 0x22
 10790 36b0 B61A0000 		.4byte	.LASF730
 10791 36b4 31       		.byte	0x31
 10792 36b5 22       		.uleb128 0x22
 10793 36b6 4E100000 		.4byte	.LASF731
 10794 36ba 32       		.byte	0x32
 10795 36bb 22       		.uleb128 0x22
 10796 36bc 71180000 		.4byte	.LASF732
 10797 36c0 33       		.byte	0x33
 10798 36c1 22       		.uleb128 0x22
 10799 36c2 A8130000 		.4byte	.LASF733
 10800 36c6 36       		.byte	0x36
 10801 36c7 22       		.uleb128 0x22
 10802 36c8 14010000 		.4byte	.LASF734
 10803 36cc 37       		.byte	0x37
 10804 36cd 22       		.uleb128 0x22
 10805 36ce 921A0000 		.4byte	.LASF735
 10806 36d2 41       		.byte	0x41
 10807 36d3 22       		.uleb128 0x22
 10808 36d4 EF0F0000 		.4byte	.LASF736
 10809 36d8 44       		.byte	0x44
 10810 36d9 00       		.byte	0
 10811 36da 03       		.uleb128 0x3
 10812 36db 6F100000 		.4byte	.LASF737
 10813 36df 33       		.byte	0x33
 10814 36e0 21       		.byte	0x21
 10815 36e1 6C360000 		.4byte	0x366c
 10816 36e5 21       		.uleb128 0x21
 10817 36e6 07       		.byte	0x7
 10818 36e7 01       		.byte	0x1
 10819 36e8 69000000 		.4byte	0x69
 10820 36ec 33       		.byte	0x33
 10821 36ed 23       		.byte	0x23
 10822 36ee 05370000 		.4byte	0x3705
 10823 36f2 22       		.uleb128 0x22
 10824 36f3 57090000 		.4byte	.LASF738
 10825 36f7 00       		.byte	0
 10826 36f8 22       		.uleb128 0x22
 10827 36f9 F3050000 		.4byte	.LASF739
 10828 36fd 01       		.byte	0x1
 10829 36fe 22       		.uleb128 0x22
ARM GAS  C:\Users\PCHAUT~1\AppData\Local\Temp\ccMxpIDf.s 			page 191


 10830 36ff 1A170000 		.4byte	.LASF740
 10831 3703 02       		.byte	0x2
 10832 3704 00       		.byte	0
 10833 3705 03       		.uleb128 0x3
 10834 3706 381F0000 		.4byte	.LASF741
 10835 370a 33       		.byte	0x33
 10836 370b 27       		.byte	0x27
 10837 370c E5360000 		.4byte	0x36e5
 10838 3710 21       		.uleb128 0x21
 10839 3711 07       		.byte	0x7
 10840 3712 01       		.byte	0x1
 10841 3713 69000000 		.4byte	0x69
 10842 3717 33       		.byte	0x33
 10843 3718 29       		.byte	0x29
 10844 3719 30370000 		.4byte	0x3730
 10845 371d 22       		.uleb128 0x22
 10846 371e 43020000 		.4byte	.LASF742
 10847 3722 20       		.byte	0x20
 10848 3723 22       		.uleb128 0x22
 10849 3724 7F1C0000 		.4byte	.LASF743
 10850 3728 40       		.byte	0x40
 10851 3729 22       		.uleb128 0x22
 10852 372a 8E1C0000 		.4byte	.LASF744
 10853 372e 80       		.byte	0x80
 10854 372f 00       		.byte	0
 10855 3730 03       		.uleb128 0x3
 10856 3731 180F0000 		.4byte	.LASF745
 10857 3735 33       		.byte	0x33
 10858 3736 2D       		.byte	0x2d
 10859 3737 10370000 		.4byte	0x3710
 10860 373b 07       		.uleb128 0x7
 10861 373c 09070000 		.4byte	.LASF746
 10862 3740 08       		.byte	0x8
 10863 3741 33       		.byte	0x33
 10864 3742 2F       		.byte	0x2f
 10865 3743 84370000 		.4byte	0x3784
 10866 3747 08       		.uleb128 0x8
 10867 3748 A31A0000 		.4byte	.LASF747
 10868 374c 33       		.byte	0x33
 10869 374d 30       		.byte	0x30
 10870 374e F0000000 		.4byte	0xf0
 10871 3752 00       		.byte	0
 10872 3753 08       		.uleb128 0x8
 10873 3754 58020000 		.4byte	.LASF748
 10874 3758 33       		.byte	0x33
 10875 3759 31       		.byte	0x31
 10876 375a F0000000 		.4byte	0xf0
 10877 375e 02       		.byte	0x2
 10878 375f 08       		.uleb128 0x8
 10879 3760 CB170000 		.4byte	.LASF749
 10880 3764 33       		.byte	0x33
 10881 3765 32       		.byte	0x32
 10882 3766 DA360000 		.4byte	0x36da
 10883 376a 04       		.byte	0x4
 10884 376b 08       		.uleb128 0x8
 10885 376c DE1E0000 		.4byte	.LASF750
 10886 3770 33       		.byte	0x33
ARM GAS  C:\Users\PCHAUT~1\AppData\Local\Temp\ccMxpIDf.s 			page 192


 10887 3771 33       		.byte	0x33
 10888 3772 30370000 		.4byte	0x3730
 10889 3776 05       		.byte	0x5
 10890 3777 08       		.uleb128 0x8
 10891 3778 F11E0000 		.4byte	.LASF751
 10892 377c 33       		.byte	0x33
 10893 377d 34       		.byte	0x34
 10894 377e 30370000 		.4byte	0x3730
 10895 3782 06       		.byte	0x6
 10896 3783 00       		.byte	0
 10897 3784 16       		.uleb128 0x16
 10898 3785 F3080000 		.4byte	.LASF752
 10899 3789 34       		.byte	0x34
 10900 378a 14       		.byte	0x14
 10901 378b 98340000 		.4byte	0x3498
 10902 378f 16       		.uleb128 0x16
 10903 3790 5F0B0000 		.4byte	.LASF753
 10904 3794 34       		.byte	0x34
 10905 3795 15       		.byte	0x15
 10906 3796 CE350000 		.4byte	0x35ce
 10907 379a 16       		.uleb128 0x16
 10908 379b 540F0000 		.4byte	.LASF754
 10909 379f 34       		.byte	0x34
 10910 37a0 16       		.byte	0x16
 10911 37a1 1C350000 		.4byte	0x351c
 10912 37a5 2D       		.uleb128 0x2d
 10913 37a6 B4090000 		.4byte	.LASF755
 10914 37aa 01       		.byte	0x1
 10915 37ab 4F       		.byte	0x4f
 10916 37ac 3B370000 		.4byte	0x373b
 10917 37b0 05       		.uleb128 0x5
 10918 37b1 03       		.byte	0x3
 10919 37b2 00000000 		.4byte	po8030_conf
 10920 37b6 2D       		.uleb128 0x2d
 10921 37b7 E4080000 		.4byte	.LASF756
 10922 37bb 01       		.byte	0x1
 10923 37bc 50       		.byte	0x50
 10924 37bd 02150000 		.4byte	0x1502
 10925 37c1 05       		.uleb128 0x5
 10926 37c2 03       		.byte	0x3
 10927 37c3 00000000 		.4byte	cam_configured
 10928 37c7 2E       		.uleb128 0x2e
 10929 37c8 3D0C0000 		.4byte	.LASF795
 10930 37cc 01       		.byte	0x1
 10931 37cd 0D04     		.2byte	0x40d
 10932 37cf 0B010000 		.4byte	0x10b
 10933 37d3 00000000 		.4byte	.LFB275
 10934 37d7 50000000 		.4byte	.LFE275-.LFB275
 10935 37db 01       		.uleb128 0x1
 10936 37dc 9C       		.byte	0x9c
 10937 37dd 2F       		.uleb128 0x2f
 10938 37de 98190000 		.4byte	.LASF759
 10939 37e2 01       		.byte	0x1
 10940 37e3 F303     		.2byte	0x3f3
 10941 37e5 CA000000 		.4byte	0xca
 10942 37e9 00000000 		.4byte	.LFB274
 10943 37ed DC000000 		.4byte	.LFE274-.LFB274
ARM GAS  C:\Users\PCHAUT~1\AppData\Local\Temp\ccMxpIDf.s 			page 193


 10944 37f1 01       		.uleb128 0x1
 10945 37f2 9C       		.byte	0x9c
 10946 37f3 25380000 		.4byte	0x3825
 10947 37f7 30       		.uleb128 0x30
 10948 37f8 DC1F0000 		.4byte	.LASF757
 10949 37fc 01       		.byte	0x1
 10950 37fd F303     		.2byte	0x3f3
 10951 37ff F0000000 		.4byte	0xf0
 10952 3803 02       		.uleb128 0x2
 10953 3804 91       		.byte	0x91
 10954 3805 6E       		.sleb128 -18
 10955 3806 30       		.uleb128 0x30
 10956 3807 59050000 		.4byte	.LASF758
 10957 380b 01       		.byte	0x1
 10958 380c F303     		.2byte	0x3f3
 10959 380e D5000000 		.4byte	0xd5
 10960 3812 02       		.uleb128 0x2
 10961 3813 91       		.byte	0x91
 10962 3814 6D       		.sleb128 -19
 10963 3815 31       		.uleb128 0x31
 10964 3816 65727200 		.ascii	"err\000"
 10965 381a 01       		.byte	0x1
 10966 381b F403     		.2byte	0x3f4
 10967 381d CA000000 		.4byte	0xca
 10968 3821 02       		.uleb128 0x2
 10969 3822 91       		.byte	0x91
 10970 3823 73       		.sleb128 -13
 10971 3824 00       		.byte	0
 10972 3825 2F       		.uleb128 0x2f
 10973 3826 171A0000 		.4byte	.LASF760
 10974 382a 01       		.byte	0x1
 10975 382b D903     		.2byte	0x3d9
 10976 382d CA000000 		.4byte	0xca
 10977 3831 00000000 		.4byte	.LFB273
 10978 3835 A8000000 		.4byte	.LFE273-.LFB273
 10979 3839 01       		.uleb128 0x1
 10980 383a 9C       		.byte	0x9c
 10981 383b 6C380000 		.4byte	0x386c
 10982 383f 32       		.uleb128 0x32
 10983 3840 616500   		.ascii	"ae\000"
 10984 3843 01       		.byte	0x1
 10985 3844 D903     		.2byte	0x3d9
 10986 3846 D5000000 		.4byte	0xd5
 10987 384a 02       		.uleb128 0x2
 10988 384b 91       		.byte	0x91
 10989 384c 6F       		.sleb128 -17
 10990 384d 31       		.uleb128 0x31
 10991 384e 65727200 		.ascii	"err\000"
 10992 3852 01       		.byte	0x1
 10993 3853 DA03     		.2byte	0x3da
 10994 3855 CA000000 		.4byte	0xca
 10995 3859 02       		.uleb128 0x2
 10996 385a 91       		.byte	0x91
 10997 385b 73       		.sleb128 -13
 10998 385c 33       		.uleb128 0x33
 10999 385d 780B0000 		.4byte	.LASF761
 11000 3861 01       		.byte	0x1
ARM GAS  C:\Users\PCHAUT~1\AppData\Local\Temp\ccMxpIDf.s 			page 194


 11001 3862 DB03     		.2byte	0x3db
 11002 3864 D5000000 		.4byte	0xd5
 11003 3868 02       		.uleb128 0x2
 11004 3869 91       		.byte	0x91
 11005 386a 72       		.sleb128 -14
 11006 386b 00       		.byte	0
 11007 386c 2F       		.uleb128 0x2f
 11008 386d C2000000 		.4byte	.LASF762
 11009 3871 01       		.byte	0x1
 11010 3872 BE03     		.2byte	0x3be
 11011 3874 CA000000 		.4byte	0xca
 11012 3878 00000000 		.4byte	.LFB272
 11013 387c D8000000 		.4byte	.LFE272-.LFB272
 11014 3880 01       		.uleb128 0x1
 11015 3881 9C       		.byte	0x9c
 11016 3882 BD380000 		.4byte	0x38bd
 11017 3886 32       		.uleb128 0x32
 11018 3887 7200     		.ascii	"r\000"
 11019 3889 01       		.byte	0x1
 11020 388a BE03     		.2byte	0x3be
 11021 388c D5000000 		.4byte	0xd5
 11022 3890 02       		.uleb128 0x2
 11023 3891 91       		.byte	0x91
 11024 3892 6F       		.sleb128 -17
 11025 3893 32       		.uleb128 0x32
 11026 3894 6700     		.ascii	"g\000"
 11027 3896 01       		.byte	0x1
 11028 3897 BE03     		.2byte	0x3be
 11029 3899 D5000000 		.4byte	0xd5
 11030 389d 02       		.uleb128 0x2
 11031 389e 91       		.byte	0x91
 11032 389f 6E       		.sleb128 -18
 11033 38a0 32       		.uleb128 0x32
 11034 38a1 6200     		.ascii	"b\000"
 11035 38a3 01       		.byte	0x1
 11036 38a4 BE03     		.2byte	0x3be
 11037 38a6 D5000000 		.4byte	0xd5
 11038 38aa 02       		.uleb128 0x2
 11039 38ab 91       		.byte	0x91
 11040 38ac 6D       		.sleb128 -19
 11041 38ad 31       		.uleb128 0x31
 11042 38ae 65727200 		.ascii	"err\000"
 11043 38b2 01       		.byte	0x1
 11044 38b3 BF03     		.2byte	0x3bf
 11045 38b5 CA000000 		.4byte	0xca
 11046 38b9 02       		.uleb128 0x2
 11047 38ba 91       		.byte	0x91
 11048 38bb 73       		.sleb128 -13
 11049 38bc 00       		.byte	0
 11050 38bd 2F       		.uleb128 0x2f
 11051 38be D4120000 		.4byte	.LASF763
 11052 38c2 01       		.byte	0x1
 11053 38c3 A303     		.2byte	0x3a3
 11054 38c5 CA000000 		.4byte	0xca
 11055 38c9 00000000 		.4byte	.LFB271
 11056 38cd A8000000 		.4byte	.LFE271-.LFB271
 11057 38d1 01       		.uleb128 0x1
ARM GAS  C:\Users\PCHAUT~1\AppData\Local\Temp\ccMxpIDf.s 			page 195


 11058 38d2 9C       		.byte	0x9c
 11059 38d3 05390000 		.4byte	0x3905
 11060 38d7 32       		.uleb128 0x32
 11061 38d8 61776200 		.ascii	"awb\000"
 11062 38dc 01       		.byte	0x1
 11063 38dd A303     		.2byte	0x3a3
 11064 38df D5000000 		.4byte	0xd5
 11065 38e3 02       		.uleb128 0x2
 11066 38e4 91       		.byte	0x91
 11067 38e5 6F       		.sleb128 -17
 11068 38e6 31       		.uleb128 0x31
 11069 38e7 65727200 		.ascii	"err\000"
 11070 38eb 01       		.byte	0x1
 11071 38ec A403     		.2byte	0x3a4
 11072 38ee CA000000 		.4byte	0xca
 11073 38f2 02       		.uleb128 0x2
 11074 38f3 91       		.byte	0x91
 11075 38f4 73       		.sleb128 -13
 11076 38f5 33       		.uleb128 0x33
 11077 38f6 780B0000 		.4byte	.LASF761
 11078 38fa 01       		.byte	0x1
 11079 38fb A503     		.2byte	0x3a5
 11080 38fd D5000000 		.4byte	0xd5
 11081 3901 02       		.uleb128 0x2
 11082 3902 91       		.byte	0x91
 11083 3903 72       		.sleb128 -14
 11084 3904 00       		.byte	0
 11085 3905 2F       		.uleb128 0x2f
 11086 3906 2D1C0000 		.4byte	.LASF764
 11087 390a 01       		.byte	0x1
 11088 390b 8E03     		.2byte	0x38e
 11089 390d CA000000 		.4byte	0xca
 11090 3911 00000000 		.4byte	.LFB270
 11091 3915 90000000 		.4byte	.LFE270-.LFB270
 11092 3919 01       		.uleb128 0x1
 11093 391a 9C       		.byte	0x9c
 11094 391b 5C390000 		.4byte	0x395c
 11095 391f 30       		.uleb128 0x30
 11096 3920 B61E0000 		.4byte	.LASF765
 11097 3924 01       		.byte	0x1
 11098 3925 8E03     		.2byte	0x38e
 11099 3927 D5000000 		.4byte	0xd5
 11100 392b 02       		.uleb128 0x2
 11101 392c 91       		.byte	0x91
 11102 392d 6F       		.sleb128 -17
 11103 392e 30       		.uleb128 0x30
 11104 392f 921B0000 		.4byte	.LASF766
 11105 3933 01       		.byte	0x1
 11106 3934 8E03     		.2byte	0x38e
 11107 3936 D5000000 		.4byte	0xd5
 11108 393a 02       		.uleb128 0x2
 11109 393b 91       		.byte	0x91
 11110 393c 6E       		.sleb128 -18
 11111 393d 31       		.uleb128 0x31
 11112 393e 65727200 		.ascii	"err\000"
 11113 3942 01       		.byte	0x1
 11114 3943 8F03     		.2byte	0x38f
ARM GAS  C:\Users\PCHAUT~1\AppData\Local\Temp\ccMxpIDf.s 			page 196


 11115 3945 CA000000 		.4byte	0xca
 11116 3949 02       		.uleb128 0x2
 11117 394a 91       		.byte	0x91
 11118 394b 73       		.sleb128 -13
 11119 394c 33       		.uleb128 0x33
 11120 394d 780B0000 		.4byte	.LASF761
 11121 3951 01       		.byte	0x1
 11122 3952 9003     		.2byte	0x390
 11123 3954 D5000000 		.4byte	0xd5
 11124 3958 02       		.uleb128 0x2
 11125 3959 91       		.byte	0x91
 11126 395a 72       		.sleb128 -14
 11127 395b 00       		.byte	0
 11128 395c 2F       		.uleb128 0x2f
 11129 395d 3D040000 		.4byte	.LASF767
 11130 3961 01       		.byte	0x1
 11131 3962 8203     		.2byte	0x382
 11132 3964 CA000000 		.4byte	0xca
 11133 3968 00000000 		.4byte	.LFB269
 11134 396c 5C000000 		.4byte	.LFE269-.LFB269
 11135 3970 01       		.uleb128 0x1
 11136 3971 9C       		.byte	0x9c
 11137 3972 95390000 		.4byte	0x3995
 11138 3976 30       		.uleb128 0x30
 11139 3977 780B0000 		.4byte	.LASF761
 11140 397b 01       		.byte	0x1
 11141 397c 8203     		.2byte	0x382
 11142 397e D5000000 		.4byte	0xd5
 11143 3982 02       		.uleb128 0x2
 11144 3983 91       		.byte	0x91
 11145 3984 6F       		.sleb128 -17
 11146 3985 31       		.uleb128 0x31
 11147 3986 65727200 		.ascii	"err\000"
 11148 398a 01       		.byte	0x1
 11149 398b 8303     		.2byte	0x383
 11150 398d CA000000 		.4byte	0xca
 11151 3991 02       		.uleb128 0x2
 11152 3992 91       		.byte	0x91
 11153 3993 73       		.sleb128 -13
 11154 3994 00       		.byte	0
 11155 3995 2F       		.uleb128 0x2f
 11156 3996 90100000 		.4byte	.LASF768
 11157 399a 01       		.byte	0x1
 11158 399b 7703     		.2byte	0x377
 11159 399d CA000000 		.4byte	0xca
 11160 39a1 00000000 		.4byte	.LFB268
 11161 39a5 5C000000 		.4byte	.LFE268-.LFB268
 11162 39a9 01       		.uleb128 0x1
 11163 39aa 9C       		.byte	0x9c
 11164 39ab CE390000 		.4byte	0x39ce
 11165 39af 30       		.uleb128 0x30
 11166 39b0 780B0000 		.4byte	.LASF761
 11167 39b4 01       		.byte	0x1
 11168 39b5 7703     		.2byte	0x377
 11169 39b7 D5000000 		.4byte	0xd5
 11170 39bb 02       		.uleb128 0x2
 11171 39bc 91       		.byte	0x91
ARM GAS  C:\Users\PCHAUT~1\AppData\Local\Temp\ccMxpIDf.s 			page 197


 11172 39bd 6F       		.sleb128 -17
 11173 39be 31       		.uleb128 0x31
 11174 39bf 65727200 		.ascii	"err\000"
 11175 39c3 01       		.byte	0x1
 11176 39c4 7803     		.2byte	0x378
 11177 39c6 CA000000 		.4byte	0xca
 11178 39ca 02       		.uleb128 0x2
 11179 39cb 91       		.byte	0x91
 11180 39cc 73       		.sleb128 -13
 11181 39cd 00       		.byte	0
 11182 39ce 2F       		.uleb128 0x2f
 11183 39cf B31F0000 		.4byte	.LASF769
 11184 39d3 01       		.byte	0x1
 11185 39d4 9102     		.2byte	0x291
 11186 39d6 CA000000 		.4byte	0xca
 11187 39da 00000000 		.4byte	.LFB267
 11188 39de E4070000 		.4byte	.LFE267-.LFB267
 11189 39e2 01       		.uleb128 0x1
 11190 39e3 9C       		.byte	0x9c
 11191 39e4 D63A0000 		.4byte	0x3ad6
 11192 39e8 32       		.uleb128 0x32
 11193 39e9 666D7400 		.ascii	"fmt\000"
 11194 39ed 01       		.byte	0x1
 11195 39ee 9102     		.2byte	0x291
 11196 39f0 DA360000 		.4byte	0x36da
 11197 39f4 02       		.uleb128 0x2
 11198 39f5 91       		.byte	0x91
 11199 39f6 4F       		.sleb128 -49
 11200 39f7 32       		.uleb128 0x32
 11201 39f8 783100   		.ascii	"x1\000"
 11202 39fb 01       		.byte	0x1
 11203 39fc 9102     		.2byte	0x291
 11204 39fe 37000000 		.4byte	0x37
 11205 3a02 02       		.uleb128 0x2
 11206 3a03 91       		.byte	0x91
 11207 3a04 48       		.sleb128 -56
 11208 3a05 32       		.uleb128 0x32
 11209 3a06 793100   		.ascii	"y1\000"
 11210 3a09 01       		.byte	0x1
 11211 3a0a 9102     		.2byte	0x291
 11212 3a0c 37000000 		.4byte	0x37
 11213 3a10 02       		.uleb128 0x2
 11214 3a11 91       		.byte	0x91
 11215 3a12 44       		.sleb128 -60
 11216 3a13 30       		.uleb128 0x30
 11217 3a14 A31A0000 		.4byte	.LASF747
 11218 3a18 01       		.byte	0x1
 11219 3a19 9202     		.2byte	0x292
 11220 3a1b 37000000 		.4byte	0x37
 11221 3a1f 02       		.uleb128 0x2
 11222 3a20 91       		.byte	0x91
 11223 3a21 40       		.sleb128 -64
 11224 3a22 30       		.uleb128 0x30
 11225 3a23 58020000 		.4byte	.LASF748
 11226 3a27 01       		.byte	0x1
 11227 3a28 9202     		.2byte	0x292
 11228 3a2a 37000000 		.4byte	0x37
ARM GAS  C:\Users\PCHAUT~1\AppData\Local\Temp\ccMxpIDf.s 			page 198


 11229 3a2e 03       		.uleb128 0x3
 11230 3a2f 91       		.byte	0x91
 11231 3a30 BC7F     		.sleb128 -68
 11232 3a32 30       		.uleb128 0x30
 11233 3a33 260F0000 		.4byte	.LASF770
 11234 3a37 01       		.byte	0x1
 11235 3a38 9302     		.2byte	0x293
 11236 3a3a 30370000 		.4byte	0x3730
 11237 3a3e 02       		.uleb128 0x2
 11238 3a3f 91       		.byte	0x91
 11239 3a40 4E       		.sleb128 -50
 11240 3a41 30       		.uleb128 0x30
 11241 3a42 340F0000 		.4byte	.LASF771
 11242 3a46 01       		.byte	0x1
 11243 3a47 9302     		.2byte	0x293
 11244 3a49 30370000 		.4byte	0x3730
 11245 3a4d 02       		.uleb128 0x2
 11246 3a4e 91       		.byte	0x91
 11247 3a4f 4D       		.sleb128 -51
 11248 3a50 31       		.uleb128 0x31
 11249 3a51 65727200 		.ascii	"err\000"
 11250 3a55 01       		.byte	0x1
 11251 3a56 9402     		.2byte	0x294
 11252 3a58 CA000000 		.4byte	0xca
 11253 3a5c 02       		.uleb128 0x2
 11254 3a5d 91       		.byte	0x91
 11255 3a5e 53       		.sleb128 -45
 11256 3a5f 31       		.uleb128 0x31
 11257 3a60 783200   		.ascii	"x2\000"
 11258 3a63 01       		.byte	0x1
 11259 3a64 9502     		.2byte	0x295
 11260 3a66 37000000 		.4byte	0x37
 11261 3a6a 02       		.uleb128 0x2
 11262 3a6b 91       		.byte	0x91
 11263 3a6c 54       		.sleb128 -44
 11264 3a6d 31       		.uleb128 0x31
 11265 3a6e 793200   		.ascii	"y2\000"
 11266 3a71 01       		.byte	0x1
 11267 3a72 9602     		.2byte	0x296
 11268 3a74 37000000 		.4byte	0x37
 11269 3a78 02       		.uleb128 0x2
 11270 3a79 91       		.byte	0x91
 11271 3a7a 58       		.sleb128 -40
 11272 3a7b 33       		.uleb128 0x33
 11273 3a7c 7D170000 		.4byte	.LASF772
 11274 3a80 01       		.byte	0x1
 11275 3a81 9702     		.2byte	0x297
 11276 3a83 37000000 		.4byte	0x37
 11277 3a87 02       		.uleb128 0x2
 11278 3a88 91       		.byte	0x91
 11279 3a89 5C       		.sleb128 -36
 11280 3a8a 33       		.uleb128 0x33
 11281 3a8b 9F0A0000 		.4byte	.LASF773
 11282 3a8f 01       		.byte	0x1
 11283 3a90 9702     		.2byte	0x297
 11284 3a92 37000000 		.4byte	0x37
 11285 3a96 02       		.uleb128 0x2
ARM GAS  C:\Users\PCHAUT~1\AppData\Local\Temp\ccMxpIDf.s 			page 199


 11286 3a97 91       		.byte	0x91
 11287 3a98 60       		.sleb128 -32
 11288 3a99 33       		.uleb128 0x33
 11289 3a9a D10B0000 		.4byte	.LASF774
 11290 3a9e 01       		.byte	0x1
 11291 3a9f 9802     		.2byte	0x298
 11292 3aa1 37000000 		.4byte	0x37
 11293 3aa5 02       		.uleb128 0x2
 11294 3aa6 91       		.byte	0x91
 11295 3aa7 64       		.sleb128 -28
 11296 3aa8 33       		.uleb128 0x33
 11297 3aa9 FE170000 		.4byte	.LASF775
 11298 3aad 01       		.byte	0x1
 11299 3aae 9802     		.2byte	0x298
 11300 3ab0 37000000 		.4byte	0x37
 11301 3ab4 02       		.uleb128 0x2
 11302 3ab5 91       		.byte	0x91
 11303 3ab6 68       		.sleb128 -24
 11304 3ab7 33       		.uleb128 0x33
 11305 3ab8 3C150000 		.4byte	.LASF776
 11306 3abc 01       		.byte	0x1
 11307 3abd 9902     		.2byte	0x299
 11308 3abf 37000000 		.4byte	0x37
 11309 3ac3 02       		.uleb128 0x2
 11310 3ac4 91       		.byte	0x91
 11311 3ac5 6C       		.sleb128 -20
 11312 3ac6 33       		.uleb128 0x33
 11313 3ac7 07160000 		.4byte	.LASF777
 11314 3acb 01       		.byte	0x1
 11315 3acc 9A02     		.2byte	0x29a
 11316 3ace D63A0000 		.4byte	0x3ad6
 11317 3ad2 02       		.uleb128 0x2
 11318 3ad3 91       		.byte	0x91
 11319 3ad4 70       		.sleb128 -16
 11320 3ad5 00       		.byte	0
 11321 3ad6 04       		.uleb128 0x4
 11322 3ad7 04       		.byte	0x4
 11323 3ad8 04       		.byte	0x4
 11324 3ad9 AE090000 		.4byte	.LASF778
 11325 3add 2F       		.uleb128 0x2f
 11326 3ade 851D0000 		.4byte	.LASF779
 11327 3ae2 01       		.byte	0x1
 11328 3ae3 7702     		.2byte	0x277
 11329 3ae5 CA000000 		.4byte	0xca
 11330 3ae9 00000000 		.4byte	.LFB266
 11331 3aed D4000000 		.4byte	.LFE266-.LFB266
 11332 3af1 01       		.uleb128 0x1
 11333 3af2 9C       		.byte	0x9c
 11334 3af3 253B0000 		.4byte	0x3b25
 11335 3af7 32       		.uleb128 0x32
 11336 3af8 666D7400 		.ascii	"fmt\000"
 11337 3afc 01       		.byte	0x1
 11338 3afd 7702     		.2byte	0x277
 11339 3aff DA360000 		.4byte	0x36da
 11340 3b03 02       		.uleb128 0x2
 11341 3b04 91       		.byte	0x91
 11342 3b05 6F       		.sleb128 -17
ARM GAS  C:\Users\PCHAUT~1\AppData\Local\Temp\ccMxpIDf.s 			page 200


 11343 3b06 30       		.uleb128 0x30
 11344 3b07 E4160000 		.4byte	.LASF780
 11345 3b0b 01       		.byte	0x1
 11346 3b0c 7702     		.2byte	0x277
 11347 3b0e 05370000 		.4byte	0x3705
 11348 3b12 02       		.uleb128 0x2
 11349 3b13 91       		.byte	0x91
 11350 3b14 6E       		.sleb128 -18
 11351 3b15 31       		.uleb128 0x31
 11352 3b16 65727200 		.ascii	"err\000"
 11353 3b1a 01       		.byte	0x1
 11354 3b1b 7902     		.2byte	0x279
 11355 3b1d CA000000 		.4byte	0xca
 11356 3b21 02       		.uleb128 0x2
 11357 3b22 91       		.byte	0x91
 11358 3b23 73       		.sleb128 -13
 11359 3b24 00       		.byte	0
 11360 3b25 34       		.uleb128 0x34
 11361 3b26 AC190000 		.4byte	.LASF796
 11362 3b2a 01       		.byte	0x1
 11363 3b2b 5D02     		.2byte	0x25d
 11364 3b2d 00000000 		.4byte	.LFB265
 11365 3b31 5C000000 		.4byte	.LFE265-.LFB265
 11366 3b35 01       		.uleb128 0x1
 11367 3b36 9C       		.byte	0x9c
 11368 3b37 4E3B0000 		.4byte	0x3b4e
 11369 3b3b 33       		.uleb128 0x33
 11370 3b3c 2E0B0000 		.4byte	.LASF781
 11371 3b40 01       		.byte	0x1
 11372 3b41 6202     		.2byte	0x262
 11373 3b43 8F250000 		.4byte	0x258f
 11374 3b47 05       		.uleb128 0x5
 11375 3b48 03       		.byte	0x3
 11376 3b49 00000000 		.4byte	pwmcfg_cam.9992
 11377 3b4d 00       		.byte	0
 11378 3b4e 2F       		.uleb128 0x2f
 11379 3b4f 4A180000 		.4byte	.LASF782
 11380 3b53 01       		.byte	0x1
 11381 3b54 1202     		.2byte	0x212
 11382 3b56 CA000000 		.4byte	0xca
 11383 3b5a 00000000 		.4byte	.LFB264
 11384 3b5e 00020000 		.4byte	.LFE264-.LFB264
 11385 3b62 01       		.uleb128 0x1
 11386 3b63 9C       		.byte	0x9c
 11387 3b64 963B0000 		.4byte	0x3b96
 11388 3b68 32       		.uleb128 0x32
 11389 3b69 666D7400 		.ascii	"fmt\000"
 11390 3b6d 01       		.byte	0x1
 11391 3b6e 1202     		.2byte	0x212
 11392 3b70 DA360000 		.4byte	0x36da
 11393 3b74 02       		.uleb128 0x2
 11394 3b75 91       		.byte	0x91
 11395 3b76 6F       		.sleb128 -17
 11396 3b77 30       		.uleb128 0x30
 11397 3b78 E4160000 		.4byte	.LASF780
 11398 3b7c 01       		.byte	0x1
 11399 3b7d 1202     		.2byte	0x212
ARM GAS  C:\Users\PCHAUT~1\AppData\Local\Temp\ccMxpIDf.s 			page 201


 11400 3b7f 05370000 		.4byte	0x3705
 11401 3b83 02       		.uleb128 0x2
 11402 3b84 91       		.byte	0x91
 11403 3b85 6E       		.sleb128 -18
 11404 3b86 31       		.uleb128 0x31
 11405 3b87 65727200 		.ascii	"err\000"
 11406 3b8b 01       		.byte	0x1
 11407 3b8c 1302     		.2byte	0x213
 11408 3b8e CA000000 		.4byte	0xca
 11409 3b92 02       		.uleb128 0x2
 11410 3b93 91       		.byte	0x91
 11411 3b94 73       		.sleb128 -13
 11412 3b95 00       		.byte	0
 11413 3b96 2F       		.uleb128 0x2f
 11414 3b97 0D140000 		.4byte	.LASF783
 11415 3b9b 01       		.byte	0x1
 11416 3b9c FB01     		.2byte	0x1fb
 11417 3b9e CA000000 		.4byte	0xca
 11418 3ba2 00000000 		.4byte	.LFB263
 11419 3ba6 60000000 		.4byte	.LFE263-.LFB263
 11420 3baa 01       		.uleb128 0x1
 11421 3bab 9C       		.byte	0x9c
 11422 3bac C03B0000 		.4byte	0x3bc0
 11423 3bb0 30       		.uleb128 0x30
 11424 3bb1 E4160000 		.4byte	.LASF780
 11425 3bb5 01       		.byte	0x1
 11426 3bb6 FB01     		.2byte	0x1fb
 11427 3bb8 05370000 		.4byte	0x3705
 11428 3bbc 02       		.uleb128 0x2
 11429 3bbd 91       		.byte	0x91
 11430 3bbe 6F       		.sleb128 -17
 11431 3bbf 00       		.byte	0
 11432 3bc0 2F       		.uleb128 0x2f
 11433 3bc1 9D1B0000 		.4byte	.LASF784
 11434 3bc5 01       		.byte	0x1
 11435 3bc6 8C01     		.2byte	0x18c
 11436 3bc8 CA000000 		.4byte	0xca
 11437 3bcc 00000000 		.4byte	.LFB262
 11438 3bd0 8C030000 		.4byte	.LFE262-.LFB262
 11439 3bd4 01       		.uleb128 0x1
 11440 3bd5 9C       		.byte	0x9c
 11441 3bd6 EA3B0000 		.4byte	0x3bea
 11442 3bda 31       		.uleb128 0x31
 11443 3bdb 65727200 		.ascii	"err\000"
 11444 3bdf 01       		.byte	0x1
 11445 3be0 8D01     		.2byte	0x18d
 11446 3be2 CA000000 		.4byte	0xca
 11447 3be6 02       		.uleb128 0x2
 11448 3be7 91       		.byte	0x91
 11449 3be8 73       		.sleb128 -13
 11450 3be9 00       		.byte	0
 11451 3bea 2F       		.uleb128 0x2f
 11452 3beb FF100000 		.4byte	.LASF785
 11453 3bef 01       		.byte	0x1
 11454 3bf0 1F01     		.2byte	0x11f
 11455 3bf2 CA000000 		.4byte	0xca
 11456 3bf6 00000000 		.4byte	.LFB261
ARM GAS  C:\Users\PCHAUT~1\AppData\Local\Temp\ccMxpIDf.s 			page 202


 11457 3bfa 90030000 		.4byte	.LFE261-.LFB261
 11458 3bfe 01       		.uleb128 0x1
 11459 3bff 9C       		.byte	0x9c
 11460 3c00 143C0000 		.4byte	0x3c14
 11461 3c04 31       		.uleb128 0x31
 11462 3c05 65727200 		.ascii	"err\000"
 11463 3c09 01       		.byte	0x1
 11464 3c0a 2001     		.2byte	0x120
 11465 3c0c CA000000 		.4byte	0xca
 11466 3c10 02       		.uleb128 0x2
 11467 3c11 91       		.byte	0x91
 11468 3c12 73       		.sleb128 -13
 11469 3c13 00       		.byte	0
 11470 3c14 35       		.uleb128 0x35
 11471 3c15 690B0000 		.4byte	.LASF786
 11472 3c19 01       		.byte	0x1
 11473 3c1a B2       		.byte	0xb2
 11474 3c1b CA000000 		.4byte	0xca
 11475 3c1f 00000000 		.4byte	.LFB260
 11476 3c23 90030000 		.4byte	.LFE260-.LFB260
 11477 3c27 01       		.uleb128 0x1
 11478 3c28 9C       		.byte	0x9c
 11479 3c29 3C3C0000 		.4byte	0x3c3c
 11480 3c2d 36       		.uleb128 0x36
 11481 3c2e 65727200 		.ascii	"err\000"
 11482 3c32 01       		.byte	0x1
 11483 3c33 B3       		.byte	0xb3
 11484 3c34 CA000000 		.4byte	0xca
 11485 3c38 02       		.uleb128 0x2
 11486 3c39 91       		.byte	0x91
 11487 3c3a 73       		.sleb128 -13
 11488 3c3b 00       		.byte	0
 11489 3c3c 35       		.uleb128 0x35
 11490 3c3d 4B200000 		.4byte	.LASF787
 11491 3c41 01       		.byte	0x1
 11492 3c42 84       		.byte	0x84
 11493 3c43 CA000000 		.4byte	0xca
 11494 3c47 00000000 		.4byte	.LFB259
 11495 3c4b 30010000 		.4byte	.LFE259-.LFB259
 11496 3c4f 01       		.uleb128 0x1
 11497 3c50 9C       		.byte	0x9c
 11498 3c51 723C0000 		.4byte	0x3c72
 11499 3c55 37       		.uleb128 0x37
 11500 3c56 666D7400 		.ascii	"fmt\000"
 11501 3c5a 01       		.byte	0x1
 11502 3c5b 84       		.byte	0x84
 11503 3c5c DA360000 		.4byte	0x36da
 11504 3c60 02       		.uleb128 0x2
 11505 3c61 91       		.byte	0x91
 11506 3c62 6F       		.sleb128 -17
 11507 3c63 36       		.uleb128 0x36
 11508 3c64 65727200 		.ascii	"err\000"
 11509 3c68 01       		.byte	0x1
 11510 3c69 85       		.byte	0x85
 11511 3c6a CA000000 		.4byte	0xca
 11512 3c6e 02       		.uleb128 0x2
 11513 3c6f 91       		.byte	0x91
ARM GAS  C:\Users\PCHAUT~1\AppData\Local\Temp\ccMxpIDf.s 			page 203


 11514 3c70 73       		.sleb128 -13
 11515 3c71 00       		.byte	0
 11516 3c72 35       		.uleb128 0x35
 11517 3c73 711F0000 		.4byte	.LASF788
 11518 3c77 01       		.byte	0x1
 11519 3c78 76       		.byte	0x76
 11520 3c79 CA000000 		.4byte	0xca
 11521 3c7d 00000000 		.4byte	.LFB258
 11522 3c81 3C000000 		.4byte	.LFE258-.LFB258
 11523 3c85 01       		.uleb128 0x1
 11524 3c86 9C       		.byte	0x9c
 11525 3c87 9A3C0000 		.4byte	0x3c9a
 11526 3c8b 38       		.uleb128 0x38
 11527 3c8c 14180000 		.4byte	.LASF789
 11528 3c90 01       		.byte	0x1
 11529 3c91 76       		.byte	0x76
 11530 3c92 D5000000 		.4byte	0xd5
 11531 3c96 02       		.uleb128 0x2
 11532 3c97 91       		.byte	0x91
 11533 3c98 6F       		.sleb128 -17
 11534 3c99 00       		.byte	0
 11535 3c9a 35       		.uleb128 0x35
 11536 3c9b 66140000 		.4byte	.LASF790
 11537 3c9f 01       		.byte	0x1
 11538 3ca0 5D       		.byte	0x5d
 11539 3ca1 CA000000 		.4byte	0xca
 11540 3ca5 00000000 		.4byte	.LFB257
 11541 3ca9 88000000 		.4byte	.LFE257-.LFB257
 11542 3cad 01       		.uleb128 0x1
 11543 3cae 9C       		.byte	0x9c
 11544 3caf DD3C0000 		.4byte	0x3cdd
 11545 3cb3 37       		.uleb128 0x37
 11546 3cb4 696400   		.ascii	"id\000"
 11547 3cb7 01       		.byte	0x1
 11548 3cb8 5D       		.byte	0x5d
 11549 3cb9 DD3C0000 		.4byte	0x3cdd
 11550 3cbd 02       		.uleb128 0x2
 11551 3cbe 91       		.byte	0x91
 11552 3cbf 64       		.sleb128 -28
 11553 3cc0 2D       		.uleb128 0x2d
 11554 3cc1 BE020000 		.4byte	.LASF791
 11555 3cc5 01       		.byte	0x1
 11556 3cc6 5E       		.byte	0x5e
 11557 3cc7 E33C0000 		.4byte	0x3ce3
 11558 3ccb 02       		.uleb128 0x2
 11559 3ccc 91       		.byte	0x91
 11560 3ccd 70       		.sleb128 -16
 11561 3cce 36       		.uleb128 0x36
 11562 3ccf 65727200 		.ascii	"err\000"
 11563 3cd3 01       		.byte	0x1
 11564 3cd4 5F       		.byte	0x5f
 11565 3cd5 CA000000 		.4byte	0xca
 11566 3cd9 02       		.uleb128 0x2
 11567 3cda 91       		.byte	0x91
 11568 3cdb 6F       		.sleb128 -17
 11569 3cdc 00       		.byte	0
 11570 3cdd 0B       		.uleb128 0xb
ARM GAS  C:\Users\PCHAUT~1\AppData\Local\Temp\ccMxpIDf.s 			page 204


 11571 3cde 04       		.byte	0x4
 11572 3cdf F0000000 		.4byte	0xf0
 11573 3ce3 39       		.uleb128 0x39
 11574 3ce4 D5000000 		.4byte	0xd5
 11575 3ce8 14       		.uleb128 0x14
 11576 3ce9 37000000 		.4byte	0x37
 11577 3ced 01       		.byte	0x1
 11578 3cee 00       		.byte	0
 11579 3cef 00       		.byte	0
 11580              		.section	.debug_abbrev,"",%progbits
 11581              	.Ldebug_abbrev0:
 11582 0000 01       		.uleb128 0x1
 11583 0001 11       		.uleb128 0x11
 11584 0002 01       		.byte	0x1
 11585 0003 25       		.uleb128 0x25
 11586 0004 0E       		.uleb128 0xe
 11587 0005 13       		.uleb128 0x13
 11588 0006 0B       		.uleb128 0xb
 11589 0007 03       		.uleb128 0x3
 11590 0008 0E       		.uleb128 0xe
 11591 0009 1B       		.uleb128 0x1b
 11592 000a 0E       		.uleb128 0xe
 11593 000b 55       		.uleb128 0x55
 11594 000c 17       		.uleb128 0x17
 11595 000d 11       		.uleb128 0x11
 11596 000e 01       		.uleb128 0x1
 11597 000f 10       		.uleb128 0x10
 11598 0010 17       		.uleb128 0x17
 11599 0011 00       		.byte	0
 11600 0012 00       		.byte	0
 11601 0013 02       		.uleb128 0x2
 11602 0014 24       		.uleb128 0x24
 11603 0015 00       		.byte	0
 11604 0016 0B       		.uleb128 0xb
 11605 0017 0B       		.uleb128 0xb
 11606 0018 3E       		.uleb128 0x3e
 11607 0019 0B       		.uleb128 0xb
 11608 001a 03       		.uleb128 0x3
 11609 001b 08       		.uleb128 0x8
 11610 001c 00       		.byte	0
 11611 001d 00       		.byte	0
 11612 001e 03       		.uleb128 0x3
 11613 001f 16       		.uleb128 0x16
 11614 0020 00       		.byte	0
 11615 0021 03       		.uleb128 0x3
 11616 0022 0E       		.uleb128 0xe
 11617 0023 3A       		.uleb128 0x3a
 11618 0024 0B       		.uleb128 0xb
 11619 0025 3B       		.uleb128 0x3b
 11620 0026 0B       		.uleb128 0xb
 11621 0027 49       		.uleb128 0x49
 11622 0028 13       		.uleb128 0x13
 11623 0029 00       		.byte	0
 11624 002a 00       		.byte	0
 11625 002b 04       		.uleb128 0x4
 11626 002c 24       		.uleb128 0x24
 11627 002d 00       		.byte	0
ARM GAS  C:\Users\PCHAUT~1\AppData\Local\Temp\ccMxpIDf.s 			page 205


 11628 002e 0B       		.uleb128 0xb
 11629 002f 0B       		.uleb128 0xb
 11630 0030 3E       		.uleb128 0x3e
 11631 0031 0B       		.uleb128 0xb
 11632 0032 03       		.uleb128 0x3
 11633 0033 0E       		.uleb128 0xe
 11634 0034 00       		.byte	0
 11635 0035 00       		.byte	0
 11636 0036 05       		.uleb128 0x5
 11637 0037 26       		.uleb128 0x26
 11638 0038 00       		.byte	0
 11639 0039 49       		.uleb128 0x49
 11640 003a 13       		.uleb128 0x13
 11641 003b 00       		.byte	0
 11642 003c 00       		.byte	0
 11643 003d 06       		.uleb128 0x6
 11644 003e 35       		.uleb128 0x35
 11645 003f 00       		.byte	0
 11646 0040 49       		.uleb128 0x49
 11647 0041 13       		.uleb128 0x13
 11648 0042 00       		.byte	0
 11649 0043 00       		.byte	0
 11650 0044 07       		.uleb128 0x7
 11651 0045 13       		.uleb128 0x13
 11652 0046 01       		.byte	0x1
 11653 0047 03       		.uleb128 0x3
 11654 0048 0E       		.uleb128 0xe
 11655 0049 0B       		.uleb128 0xb
 11656 004a 0B       		.uleb128 0xb
 11657 004b 3A       		.uleb128 0x3a
 11658 004c 0B       		.uleb128 0xb
 11659 004d 3B       		.uleb128 0x3b
 11660 004e 0B       		.uleb128 0xb
 11661 004f 01       		.uleb128 0x1
 11662 0050 13       		.uleb128 0x13
 11663 0051 00       		.byte	0
 11664 0052 00       		.byte	0
 11665 0053 08       		.uleb128 0x8
 11666 0054 0D       		.uleb128 0xd
 11667 0055 00       		.byte	0
 11668 0056 03       		.uleb128 0x3
 11669 0057 0E       		.uleb128 0xe
 11670 0058 3A       		.uleb128 0x3a
 11671 0059 0B       		.uleb128 0xb
 11672 005a 3B       		.uleb128 0x3b
 11673 005b 0B       		.uleb128 0xb
 11674 005c 49       		.uleb128 0x49
 11675 005d 13       		.uleb128 0x13
 11676 005e 38       		.uleb128 0x38
 11677 005f 0B       		.uleb128 0xb
 11678 0060 00       		.byte	0
 11679 0061 00       		.byte	0
 11680 0062 09       		.uleb128 0x9
 11681 0063 0D       		.uleb128 0xd
 11682 0064 00       		.byte	0
 11683 0065 03       		.uleb128 0x3
 11684 0066 08       		.uleb128 0x8
ARM GAS  C:\Users\PCHAUT~1\AppData\Local\Temp\ccMxpIDf.s 			page 206


 11685 0067 3A       		.uleb128 0x3a
 11686 0068 0B       		.uleb128 0xb
 11687 0069 3B       		.uleb128 0x3b
 11688 006a 05       		.uleb128 0x5
 11689 006b 49       		.uleb128 0x49
 11690 006c 13       		.uleb128 0x13
 11691 006d 38       		.uleb128 0x38
 11692 006e 0B       		.uleb128 0xb
 11693 006f 00       		.byte	0
 11694 0070 00       		.byte	0
 11695 0071 0A       		.uleb128 0xa
 11696 0072 0D       		.uleb128 0xd
 11697 0073 00       		.byte	0
 11698 0074 03       		.uleb128 0x3
 11699 0075 0E       		.uleb128 0xe
 11700 0076 3A       		.uleb128 0x3a
 11701 0077 0B       		.uleb128 0xb
 11702 0078 3B       		.uleb128 0x3b
 11703 0079 05       		.uleb128 0x5
 11704 007a 49       		.uleb128 0x49
 11705 007b 13       		.uleb128 0x13
 11706 007c 38       		.uleb128 0x38
 11707 007d 0B       		.uleb128 0xb
 11708 007e 00       		.byte	0
 11709 007f 00       		.byte	0
 11710 0080 0B       		.uleb128 0xb
 11711 0081 0F       		.uleb128 0xf
 11712 0082 00       		.byte	0
 11713 0083 0B       		.uleb128 0xb
 11714 0084 0B       		.uleb128 0xb
 11715 0085 49       		.uleb128 0x49
 11716 0086 13       		.uleb128 0x13
 11717 0087 00       		.byte	0
 11718 0088 00       		.byte	0
 11719 0089 0C       		.uleb128 0xc
 11720 008a 13       		.uleb128 0x13
 11721 008b 01       		.byte	0x1
 11722 008c 03       		.uleb128 0x3
 11723 008d 0E       		.uleb128 0xe
 11724 008e 0B       		.uleb128 0xb
 11725 008f 0B       		.uleb128 0xb
 11726 0090 3A       		.uleb128 0x3a
 11727 0091 0B       		.uleb128 0xb
 11728 0092 3B       		.uleb128 0x3b
 11729 0093 05       		.uleb128 0x5
 11730 0094 01       		.uleb128 0x1
 11731 0095 13       		.uleb128 0x13
 11732 0096 00       		.byte	0
 11733 0097 00       		.byte	0
 11734 0098 0D       		.uleb128 0xd
 11735 0099 15       		.uleb128 0x15
 11736 009a 01       		.byte	0x1
 11737 009b 27       		.uleb128 0x27
 11738 009c 19       		.uleb128 0x19
 11739 009d 01       		.uleb128 0x1
 11740 009e 13       		.uleb128 0x13
 11741 009f 00       		.byte	0
ARM GAS  C:\Users\PCHAUT~1\AppData\Local\Temp\ccMxpIDf.s 			page 207


 11742 00a0 00       		.byte	0
 11743 00a1 0E       		.uleb128 0xe
 11744 00a2 05       		.uleb128 0x5
 11745 00a3 00       		.byte	0
 11746 00a4 49       		.uleb128 0x49
 11747 00a5 13       		.uleb128 0x13
 11748 00a6 00       		.byte	0
 11749 00a7 00       		.byte	0
 11750 00a8 0F       		.uleb128 0xf
 11751 00a9 0F       		.uleb128 0xf
 11752 00aa 00       		.byte	0
 11753 00ab 0B       		.uleb128 0xb
 11754 00ac 0B       		.uleb128 0xb
 11755 00ad 00       		.byte	0
 11756 00ae 00       		.byte	0
 11757 00af 10       		.uleb128 0x10
 11758 00b0 13       		.uleb128 0x13
 11759 00b1 01       		.byte	0x1
 11760 00b2 03       		.uleb128 0x3
 11761 00b3 0E       		.uleb128 0xe
 11762 00b4 0B       		.uleb128 0xb
 11763 00b5 05       		.uleb128 0x5
 11764 00b6 3A       		.uleb128 0x3a
 11765 00b7 0B       		.uleb128 0xb
 11766 00b8 3B       		.uleb128 0x3b
 11767 00b9 05       		.uleb128 0x5
 11768 00ba 01       		.uleb128 0x1
 11769 00bb 13       		.uleb128 0x13
 11770 00bc 00       		.byte	0
 11771 00bd 00       		.byte	0
 11772 00be 11       		.uleb128 0x11
 11773 00bf 0D       		.uleb128 0xd
 11774 00c0 00       		.byte	0
 11775 00c1 03       		.uleb128 0x3
 11776 00c2 0E       		.uleb128 0xe
 11777 00c3 3A       		.uleb128 0x3a
 11778 00c4 0B       		.uleb128 0xb
 11779 00c5 3B       		.uleb128 0x3b
 11780 00c6 05       		.uleb128 0x5
 11781 00c7 49       		.uleb128 0x49
 11782 00c8 13       		.uleb128 0x13
 11783 00c9 38       		.uleb128 0x38
 11784 00ca 05       		.uleb128 0x5
 11785 00cb 00       		.byte	0
 11786 00cc 00       		.byte	0
 11787 00cd 12       		.uleb128 0x12
 11788 00ce 0D       		.uleb128 0xd
 11789 00cf 00       		.byte	0
 11790 00d0 03       		.uleb128 0x3
 11791 00d1 08       		.uleb128 0x8
 11792 00d2 3A       		.uleb128 0x3a
 11793 00d3 0B       		.uleb128 0xb
 11794 00d4 3B       		.uleb128 0x3b
 11795 00d5 05       		.uleb128 0x5
 11796 00d6 49       		.uleb128 0x49
 11797 00d7 13       		.uleb128 0x13
 11798 00d8 38       		.uleb128 0x38
ARM GAS  C:\Users\PCHAUT~1\AppData\Local\Temp\ccMxpIDf.s 			page 208


 11799 00d9 05       		.uleb128 0x5
 11800 00da 00       		.byte	0
 11801 00db 00       		.byte	0
 11802 00dc 13       		.uleb128 0x13
 11803 00dd 01       		.uleb128 0x1
 11804 00de 01       		.byte	0x1
 11805 00df 49       		.uleb128 0x49
 11806 00e0 13       		.uleb128 0x13
 11807 00e1 01       		.uleb128 0x1
 11808 00e2 13       		.uleb128 0x13
 11809 00e3 00       		.byte	0
 11810 00e4 00       		.byte	0
 11811 00e5 14       		.uleb128 0x14
 11812 00e6 21       		.uleb128 0x21
 11813 00e7 00       		.byte	0
 11814 00e8 49       		.uleb128 0x49
 11815 00e9 13       		.uleb128 0x13
 11816 00ea 2F       		.uleb128 0x2f
 11817 00eb 0B       		.uleb128 0xb
 11818 00ec 00       		.byte	0
 11819 00ed 00       		.byte	0
 11820 00ee 15       		.uleb128 0x15
 11821 00ef 34       		.uleb128 0x34
 11822 00f0 00       		.byte	0
 11823 00f1 03       		.uleb128 0x3
 11824 00f2 0E       		.uleb128 0xe
 11825 00f3 3A       		.uleb128 0x3a
 11826 00f4 0B       		.uleb128 0xb
 11827 00f5 3B       		.uleb128 0x3b
 11828 00f6 05       		.uleb128 0x5
 11829 00f7 49       		.uleb128 0x49
 11830 00f8 13       		.uleb128 0x13
 11831 00f9 3F       		.uleb128 0x3f
 11832 00fa 19       		.uleb128 0x19
 11833 00fb 3C       		.uleb128 0x3c
 11834 00fc 19       		.uleb128 0x19
 11835 00fd 00       		.byte	0
 11836 00fe 00       		.byte	0
 11837 00ff 16       		.uleb128 0x16
 11838 0100 34       		.uleb128 0x34
 11839 0101 00       		.byte	0
 11840 0102 03       		.uleb128 0x3
 11841 0103 0E       		.uleb128 0xe
 11842 0104 3A       		.uleb128 0x3a
 11843 0105 0B       		.uleb128 0xb
 11844 0106 3B       		.uleb128 0x3b
 11845 0107 0B       		.uleb128 0xb
 11846 0108 49       		.uleb128 0x49
 11847 0109 13       		.uleb128 0x13
 11848 010a 3F       		.uleb128 0x3f
 11849 010b 19       		.uleb128 0x19
 11850 010c 3C       		.uleb128 0x3c
 11851 010d 19       		.uleb128 0x19
 11852 010e 00       		.byte	0
 11853 010f 00       		.byte	0
 11854 0110 17       		.uleb128 0x17
 11855 0111 13       		.uleb128 0x13
ARM GAS  C:\Users\PCHAUT~1\AppData\Local\Temp\ccMxpIDf.s 			page 209


 11856 0112 01       		.byte	0x1
 11857 0113 0B       		.uleb128 0xb
 11858 0114 0B       		.uleb128 0xb
 11859 0115 3A       		.uleb128 0x3a
 11860 0116 0B       		.uleb128 0xb
 11861 0117 3B       		.uleb128 0x3b
 11862 0118 0B       		.uleb128 0xb
 11863 0119 01       		.uleb128 0x1
 11864 011a 13       		.uleb128 0x13
 11865 011b 00       		.byte	0
 11866 011c 00       		.byte	0
 11867 011d 18       		.uleb128 0x18
 11868 011e 0D       		.uleb128 0xd
 11869 011f 00       		.byte	0
 11870 0120 03       		.uleb128 0x3
 11871 0121 08       		.uleb128 0x8
 11872 0122 3A       		.uleb128 0x3a
 11873 0123 0B       		.uleb128 0xb
 11874 0124 3B       		.uleb128 0x3b
 11875 0125 0B       		.uleb128 0xb
 11876 0126 49       		.uleb128 0x49
 11877 0127 13       		.uleb128 0x13
 11878 0128 38       		.uleb128 0x38
 11879 0129 0B       		.uleb128 0xb
 11880 012a 00       		.byte	0
 11881 012b 00       		.byte	0
 11882 012c 19       		.uleb128 0x19
 11883 012d 13       		.uleb128 0x13
 11884 012e 01       		.byte	0x1
 11885 012f 0B       		.uleb128 0xb
 11886 0130 0B       		.uleb128 0xb
 11887 0131 3A       		.uleb128 0x3a
 11888 0132 0B       		.uleb128 0xb
 11889 0133 3B       		.uleb128 0x3b
 11890 0134 05       		.uleb128 0x5
 11891 0135 01       		.uleb128 0x1
 11892 0136 13       		.uleb128 0x13
 11893 0137 00       		.byte	0
 11894 0138 00       		.byte	0
 11895 0139 1A       		.uleb128 0x1a
 11896 013a 16       		.uleb128 0x16
 11897 013b 00       		.byte	0
 11898 013c 03       		.uleb128 0x3
 11899 013d 0E       		.uleb128 0xe
 11900 013e 3A       		.uleb128 0x3a
 11901 013f 0B       		.uleb128 0xb
 11902 0140 3B       		.uleb128 0x3b
 11903 0141 05       		.uleb128 0x5
 11904 0142 49       		.uleb128 0x49
 11905 0143 13       		.uleb128 0x13
 11906 0144 00       		.byte	0
 11907 0145 00       		.byte	0
 11908 0146 1B       		.uleb128 0x1b
 11909 0147 13       		.uleb128 0x13
 11910 0148 01       		.byte	0x1
 11911 0149 0B       		.uleb128 0xb
 11912 014a 05       		.uleb128 0x5
ARM GAS  C:\Users\PCHAUT~1\AppData\Local\Temp\ccMxpIDf.s 			page 210


 11913 014b 3A       		.uleb128 0x3a
 11914 014c 0B       		.uleb128 0xb
 11915 014d 3B       		.uleb128 0x3b
 11916 014e 05       		.uleb128 0x5
 11917 014f 01       		.uleb128 0x1
 11918 0150 13       		.uleb128 0x13
 11919 0151 00       		.byte	0
 11920 0152 00       		.byte	0
 11921 0153 1C       		.uleb128 0x1c
 11922 0154 13       		.uleb128 0x13
 11923 0155 01       		.byte	0x1
 11924 0156 0B       		.uleb128 0xb
 11925 0157 05       		.uleb128 0x5
 11926 0158 3A       		.uleb128 0x3a
 11927 0159 0B       		.uleb128 0xb
 11928 015a 3B       		.uleb128 0x3b
 11929 015b 0B       		.uleb128 0xb
 11930 015c 01       		.uleb128 0x1
 11931 015d 13       		.uleb128 0x13
 11932 015e 00       		.byte	0
 11933 015f 00       		.byte	0
 11934 0160 1D       		.uleb128 0x1d
 11935 0161 17       		.uleb128 0x17
 11936 0162 01       		.byte	0x1
 11937 0163 0B       		.uleb128 0xb
 11938 0164 0B       		.uleb128 0xb
 11939 0165 3A       		.uleb128 0x3a
 11940 0166 0B       		.uleb128 0xb
 11941 0167 3B       		.uleb128 0x3b
 11942 0168 0B       		.uleb128 0xb
 11943 0169 01       		.uleb128 0x1
 11944 016a 13       		.uleb128 0x13
 11945 016b 00       		.byte	0
 11946 016c 00       		.byte	0
 11947 016d 1E       		.uleb128 0x1e
 11948 016e 0D       		.uleb128 0xd
 11949 016f 00       		.byte	0
 11950 0170 03       		.uleb128 0x3
 11951 0171 0E       		.uleb128 0xe
 11952 0172 3A       		.uleb128 0x3a
 11953 0173 0B       		.uleb128 0xb
 11954 0174 3B       		.uleb128 0x3b
 11955 0175 05       		.uleb128 0x5
 11956 0176 49       		.uleb128 0x49
 11957 0177 13       		.uleb128 0x13
 11958 0178 00       		.byte	0
 11959 0179 00       		.byte	0
 11960 017a 1F       		.uleb128 0x1f
 11961 017b 34       		.uleb128 0x34
 11962 017c 00       		.byte	0
 11963 017d 03       		.uleb128 0x3
 11964 017e 08       		.uleb128 0x8
 11965 017f 3A       		.uleb128 0x3a
 11966 0180 0B       		.uleb128 0xb
 11967 0181 3B       		.uleb128 0x3b
 11968 0182 05       		.uleb128 0x5
 11969 0183 49       		.uleb128 0x49
ARM GAS  C:\Users\PCHAUT~1\AppData\Local\Temp\ccMxpIDf.s 			page 211


 11970 0184 13       		.uleb128 0x13
 11971 0185 3F       		.uleb128 0x3f
 11972 0186 19       		.uleb128 0x19
 11973 0187 3C       		.uleb128 0x3c
 11974 0188 19       		.uleb128 0x19
 11975 0189 00       		.byte	0
 11976 018a 00       		.byte	0
 11977 018b 20       		.uleb128 0x20
 11978 018c 15       		.uleb128 0x15
 11979 018d 01       		.byte	0x1
 11980 018e 27       		.uleb128 0x27
 11981 018f 19       		.uleb128 0x19
 11982 0190 49       		.uleb128 0x49
 11983 0191 13       		.uleb128 0x13
 11984 0192 01       		.uleb128 0x1
 11985 0193 13       		.uleb128 0x13
 11986 0194 00       		.byte	0
 11987 0195 00       		.byte	0
 11988 0196 21       		.uleb128 0x21
 11989 0197 04       		.uleb128 0x4
 11990 0198 01       		.byte	0x1
 11991 0199 3E       		.uleb128 0x3e
 11992 019a 0B       		.uleb128 0xb
 11993 019b 0B       		.uleb128 0xb
 11994 019c 0B       		.uleb128 0xb
 11995 019d 49       		.uleb128 0x49
 11996 019e 13       		.uleb128 0x13
 11997 019f 3A       		.uleb128 0x3a
 11998 01a0 0B       		.uleb128 0xb
 11999 01a1 3B       		.uleb128 0x3b
 12000 01a2 0B       		.uleb128 0xb
 12001 01a3 01       		.uleb128 0x1
 12002 01a4 13       		.uleb128 0x13
 12003 01a5 00       		.byte	0
 12004 01a6 00       		.byte	0
 12005 01a7 22       		.uleb128 0x22
 12006 01a8 28       		.uleb128 0x28
 12007 01a9 00       		.byte	0
 12008 01aa 03       		.uleb128 0x3
 12009 01ab 0E       		.uleb128 0xe
 12010 01ac 1C       		.uleb128 0x1c
 12011 01ad 0B       		.uleb128 0xb
 12012 01ae 00       		.byte	0
 12013 01af 00       		.byte	0
 12014 01b0 23       		.uleb128 0x23
 12015 01b1 0D       		.uleb128 0xd
 12016 01b2 00       		.byte	0
 12017 01b3 03       		.uleb128 0x3
 12018 01b4 08       		.uleb128 0x8
 12019 01b5 3A       		.uleb128 0x3a
 12020 01b6 0B       		.uleb128 0xb
 12021 01b7 3B       		.uleb128 0x3b
 12022 01b8 0B       		.uleb128 0xb
 12023 01b9 49       		.uleb128 0x49
 12024 01ba 13       		.uleb128 0x13
 12025 01bb 00       		.byte	0
 12026 01bc 00       		.byte	0
ARM GAS  C:\Users\PCHAUT~1\AppData\Local\Temp\ccMxpIDf.s 			page 212


 12027 01bd 24       		.uleb128 0x24
 12028 01be 04       		.uleb128 0x4
 12029 01bf 01       		.byte	0x1
 12030 01c0 3E       		.uleb128 0x3e
 12031 01c1 0B       		.uleb128 0xb
 12032 01c2 0B       		.uleb128 0xb
 12033 01c3 0B       		.uleb128 0xb
 12034 01c4 49       		.uleb128 0x49
 12035 01c5 13       		.uleb128 0x13
 12036 01c6 3A       		.uleb128 0x3a
 12037 01c7 0B       		.uleb128 0xb
 12038 01c8 3B       		.uleb128 0x3b
 12039 01c9 05       		.uleb128 0x5
 12040 01ca 01       		.uleb128 0x1
 12041 01cb 13       		.uleb128 0x13
 12042 01cc 00       		.byte	0
 12043 01cd 00       		.byte	0
 12044 01ce 25       		.uleb128 0x25
 12045 01cf 26       		.uleb128 0x26
 12046 01d0 00       		.byte	0
 12047 01d1 00       		.byte	0
 12048 01d2 00       		.byte	0
 12049 01d3 26       		.uleb128 0x26
 12050 01d4 13       		.uleb128 0x13
 12051 01d5 01       		.byte	0x1
 12052 01d6 0B       		.uleb128 0xb
 12053 01d7 06       		.uleb128 0x6
 12054 01d8 3A       		.uleb128 0x3a
 12055 01d9 0B       		.uleb128 0xb
 12056 01da 3B       		.uleb128 0x3b
 12057 01db 0B       		.uleb128 0xb
 12058 01dc 01       		.uleb128 0x1
 12059 01dd 13       		.uleb128 0x13
 12060 01de 00       		.byte	0
 12061 01df 00       		.byte	0
 12062 01e0 27       		.uleb128 0x27
 12063 01e1 0D       		.uleb128 0xd
 12064 01e2 00       		.byte	0
 12065 01e3 03       		.uleb128 0x3
 12066 01e4 0E       		.uleb128 0xe
 12067 01e5 3A       		.uleb128 0x3a
 12068 01e6 0B       		.uleb128 0xb
 12069 01e7 3B       		.uleb128 0x3b
 12070 01e8 0B       		.uleb128 0xb
 12071 01e9 49       		.uleb128 0x49
 12072 01ea 13       		.uleb128 0x13
 12073 01eb 38       		.uleb128 0x38
 12074 01ec 05       		.uleb128 0x5
 12075 01ed 00       		.byte	0
 12076 01ee 00       		.byte	0
 12077 01ef 28       		.uleb128 0x28
 12078 01f0 0D       		.uleb128 0xd
 12079 01f1 00       		.byte	0
 12080 01f2 03       		.uleb128 0x3
 12081 01f3 08       		.uleb128 0x8
 12082 01f4 3A       		.uleb128 0x3a
 12083 01f5 0B       		.uleb128 0xb
ARM GAS  C:\Users\PCHAUT~1\AppData\Local\Temp\ccMxpIDf.s 			page 213


 12084 01f6 3B       		.uleb128 0x3b
 12085 01f7 0B       		.uleb128 0xb
 12086 01f8 49       		.uleb128 0x49
 12087 01f9 13       		.uleb128 0x13
 12088 01fa 38       		.uleb128 0x38
 12089 01fb 05       		.uleb128 0x5
 12090 01fc 00       		.byte	0
 12091 01fd 00       		.byte	0
 12092 01fe 29       		.uleb128 0x29
 12093 01ff 21       		.uleb128 0x21
 12094 0200 00       		.byte	0
 12095 0201 49       		.uleb128 0x49
 12096 0202 13       		.uleb128 0x13
 12097 0203 2F       		.uleb128 0x2f
 12098 0204 05       		.uleb128 0x5
 12099 0205 00       		.byte	0
 12100 0206 00       		.byte	0
 12101 0207 2A       		.uleb128 0x2a
 12102 0208 0D       		.uleb128 0xd
 12103 0209 00       		.byte	0
 12104 020a 03       		.uleb128 0x3
 12105 020b 0E       		.uleb128 0xe
 12106 020c 3A       		.uleb128 0x3a
 12107 020d 0B       		.uleb128 0xb
 12108 020e 3B       		.uleb128 0x3b
 12109 020f 0B       		.uleb128 0xb
 12110 0210 49       		.uleb128 0x49
 12111 0211 13       		.uleb128 0x13
 12112 0212 00       		.byte	0
 12113 0213 00       		.byte	0
 12114 0214 2B       		.uleb128 0x2b
 12115 0215 17       		.uleb128 0x17
 12116 0216 01       		.byte	0x1
 12117 0217 0B       		.uleb128 0xb
 12118 0218 0B       		.uleb128 0xb
 12119 0219 3A       		.uleb128 0x3a
 12120 021a 0B       		.uleb128 0xb
 12121 021b 3B       		.uleb128 0x3b
 12122 021c 05       		.uleb128 0x5
 12123 021d 01       		.uleb128 0x1
 12124 021e 13       		.uleb128 0x13
 12125 021f 00       		.byte	0
 12126 0220 00       		.byte	0
 12127 0221 2C       		.uleb128 0x2c
 12128 0222 13       		.uleb128 0x13
 12129 0223 01       		.byte	0x1
 12130 0224 03       		.uleb128 0x3
 12131 0225 0E       		.uleb128 0xe
 12132 0226 0B       		.uleb128 0xb
 12133 0227 05       		.uleb128 0x5
 12134 0228 3A       		.uleb128 0x3a
 12135 0229 0B       		.uleb128 0xb
 12136 022a 3B       		.uleb128 0x3b
 12137 022b 0B       		.uleb128 0xb
 12138 022c 01       		.uleb128 0x1
 12139 022d 13       		.uleb128 0x13
 12140 022e 00       		.byte	0
ARM GAS  C:\Users\PCHAUT~1\AppData\Local\Temp\ccMxpIDf.s 			page 214


 12141 022f 00       		.byte	0
 12142 0230 2D       		.uleb128 0x2d
 12143 0231 34       		.uleb128 0x34
 12144 0232 00       		.byte	0
 12145 0233 03       		.uleb128 0x3
 12146 0234 0E       		.uleb128 0xe
 12147 0235 3A       		.uleb128 0x3a
 12148 0236 0B       		.uleb128 0xb
 12149 0237 3B       		.uleb128 0x3b
 12150 0238 0B       		.uleb128 0xb
 12151 0239 49       		.uleb128 0x49
 12152 023a 13       		.uleb128 0x13
 12153 023b 02       		.uleb128 0x2
 12154 023c 18       		.uleb128 0x18
 12155 023d 00       		.byte	0
 12156 023e 00       		.byte	0
 12157 023f 2E       		.uleb128 0x2e
 12158 0240 2E       		.uleb128 0x2e
 12159 0241 00       		.byte	0
 12160 0242 3F       		.uleb128 0x3f
 12161 0243 19       		.uleb128 0x19
 12162 0244 03       		.uleb128 0x3
 12163 0245 0E       		.uleb128 0xe
 12164 0246 3A       		.uleb128 0x3a
 12165 0247 0B       		.uleb128 0xb
 12166 0248 3B       		.uleb128 0x3b
 12167 0249 05       		.uleb128 0x5
 12168 024a 27       		.uleb128 0x27
 12169 024b 19       		.uleb128 0x19
 12170 024c 49       		.uleb128 0x49
 12171 024d 13       		.uleb128 0x13
 12172 024e 11       		.uleb128 0x11
 12173 024f 01       		.uleb128 0x1
 12174 0250 12       		.uleb128 0x12
 12175 0251 06       		.uleb128 0x6
 12176 0252 40       		.uleb128 0x40
 12177 0253 18       		.uleb128 0x18
 12178 0254 9642     		.uleb128 0x2116
 12179 0256 19       		.uleb128 0x19
 12180 0257 00       		.byte	0
 12181 0258 00       		.byte	0
 12182 0259 2F       		.uleb128 0x2f
 12183 025a 2E       		.uleb128 0x2e
 12184 025b 01       		.byte	0x1
 12185 025c 3F       		.uleb128 0x3f
 12186 025d 19       		.uleb128 0x19
 12187 025e 03       		.uleb128 0x3
 12188 025f 0E       		.uleb128 0xe
 12189 0260 3A       		.uleb128 0x3a
 12190 0261 0B       		.uleb128 0xb
 12191 0262 3B       		.uleb128 0x3b
 12192 0263 05       		.uleb128 0x5
 12193 0264 27       		.uleb128 0x27
 12194 0265 19       		.uleb128 0x19
 12195 0266 49       		.uleb128 0x49
 12196 0267 13       		.uleb128 0x13
 12197 0268 11       		.uleb128 0x11
ARM GAS  C:\Users\PCHAUT~1\AppData\Local\Temp\ccMxpIDf.s 			page 215


 12198 0269 01       		.uleb128 0x1
 12199 026a 12       		.uleb128 0x12
 12200 026b 06       		.uleb128 0x6
 12201 026c 40       		.uleb128 0x40
 12202 026d 18       		.uleb128 0x18
 12203 026e 9642     		.uleb128 0x2116
 12204 0270 19       		.uleb128 0x19
 12205 0271 01       		.uleb128 0x1
 12206 0272 13       		.uleb128 0x13
 12207 0273 00       		.byte	0
 12208 0274 00       		.byte	0
 12209 0275 30       		.uleb128 0x30
 12210 0276 05       		.uleb128 0x5
 12211 0277 00       		.byte	0
 12212 0278 03       		.uleb128 0x3
 12213 0279 0E       		.uleb128 0xe
 12214 027a 3A       		.uleb128 0x3a
 12215 027b 0B       		.uleb128 0xb
 12216 027c 3B       		.uleb128 0x3b
 12217 027d 05       		.uleb128 0x5
 12218 027e 49       		.uleb128 0x49
 12219 027f 13       		.uleb128 0x13
 12220 0280 02       		.uleb128 0x2
 12221 0281 18       		.uleb128 0x18
 12222 0282 00       		.byte	0
 12223 0283 00       		.byte	0
 12224 0284 31       		.uleb128 0x31
 12225 0285 34       		.uleb128 0x34
 12226 0286 00       		.byte	0
 12227 0287 03       		.uleb128 0x3
 12228 0288 08       		.uleb128 0x8
 12229 0289 3A       		.uleb128 0x3a
 12230 028a 0B       		.uleb128 0xb
 12231 028b 3B       		.uleb128 0x3b
 12232 028c 05       		.uleb128 0x5
 12233 028d 49       		.uleb128 0x49
 12234 028e 13       		.uleb128 0x13
 12235 028f 02       		.uleb128 0x2
 12236 0290 18       		.uleb128 0x18
 12237 0291 00       		.byte	0
 12238 0292 00       		.byte	0
 12239 0293 32       		.uleb128 0x32
 12240 0294 05       		.uleb128 0x5
 12241 0295 00       		.byte	0
 12242 0296 03       		.uleb128 0x3
 12243 0297 08       		.uleb128 0x8
 12244 0298 3A       		.uleb128 0x3a
 12245 0299 0B       		.uleb128 0xb
 12246 029a 3B       		.uleb128 0x3b
 12247 029b 05       		.uleb128 0x5
 12248 029c 49       		.uleb128 0x49
 12249 029d 13       		.uleb128 0x13
 12250 029e 02       		.uleb128 0x2
 12251 029f 18       		.uleb128 0x18
 12252 02a0 00       		.byte	0
 12253 02a1 00       		.byte	0
 12254 02a2 33       		.uleb128 0x33
ARM GAS  C:\Users\PCHAUT~1\AppData\Local\Temp\ccMxpIDf.s 			page 216


 12255 02a3 34       		.uleb128 0x34
 12256 02a4 00       		.byte	0
 12257 02a5 03       		.uleb128 0x3
 12258 02a6 0E       		.uleb128 0xe
 12259 02a7 3A       		.uleb128 0x3a
 12260 02a8 0B       		.uleb128 0xb
 12261 02a9 3B       		.uleb128 0x3b
 12262 02aa 05       		.uleb128 0x5
 12263 02ab 49       		.uleb128 0x49
 12264 02ac 13       		.uleb128 0x13
 12265 02ad 02       		.uleb128 0x2
 12266 02ae 18       		.uleb128 0x18
 12267 02af 00       		.byte	0
 12268 02b0 00       		.byte	0
 12269 02b1 34       		.uleb128 0x34
 12270 02b2 2E       		.uleb128 0x2e
 12271 02b3 01       		.byte	0x1
 12272 02b4 3F       		.uleb128 0x3f
 12273 02b5 19       		.uleb128 0x19
 12274 02b6 03       		.uleb128 0x3
 12275 02b7 0E       		.uleb128 0xe
 12276 02b8 3A       		.uleb128 0x3a
 12277 02b9 0B       		.uleb128 0xb
 12278 02ba 3B       		.uleb128 0x3b
 12279 02bb 05       		.uleb128 0x5
 12280 02bc 27       		.uleb128 0x27
 12281 02bd 19       		.uleb128 0x19
 12282 02be 11       		.uleb128 0x11
 12283 02bf 01       		.uleb128 0x1
 12284 02c0 12       		.uleb128 0x12
 12285 02c1 06       		.uleb128 0x6
 12286 02c2 40       		.uleb128 0x40
 12287 02c3 18       		.uleb128 0x18
 12288 02c4 9642     		.uleb128 0x2116
 12289 02c6 19       		.uleb128 0x19
 12290 02c7 01       		.uleb128 0x1
 12291 02c8 13       		.uleb128 0x13
 12292 02c9 00       		.byte	0
 12293 02ca 00       		.byte	0
 12294 02cb 35       		.uleb128 0x35
 12295 02cc 2E       		.uleb128 0x2e
 12296 02cd 01       		.byte	0x1
 12297 02ce 3F       		.uleb128 0x3f
 12298 02cf 19       		.uleb128 0x19
 12299 02d0 03       		.uleb128 0x3
 12300 02d1 0E       		.uleb128 0xe
 12301 02d2 3A       		.uleb128 0x3a
 12302 02d3 0B       		.uleb128 0xb
 12303 02d4 3B       		.uleb128 0x3b
 12304 02d5 0B       		.uleb128 0xb
 12305 02d6 27       		.uleb128 0x27
 12306 02d7 19       		.uleb128 0x19
 12307 02d8 49       		.uleb128 0x49
 12308 02d9 13       		.uleb128 0x13
 12309 02da 11       		.uleb128 0x11
 12310 02db 01       		.uleb128 0x1
 12311 02dc 12       		.uleb128 0x12
ARM GAS  C:\Users\PCHAUT~1\AppData\Local\Temp\ccMxpIDf.s 			page 217


 12312 02dd 06       		.uleb128 0x6
 12313 02de 40       		.uleb128 0x40
 12314 02df 18       		.uleb128 0x18
 12315 02e0 9642     		.uleb128 0x2116
 12316 02e2 19       		.uleb128 0x19
 12317 02e3 01       		.uleb128 0x1
 12318 02e4 13       		.uleb128 0x13
 12319 02e5 00       		.byte	0
 12320 02e6 00       		.byte	0
 12321 02e7 36       		.uleb128 0x36
 12322 02e8 34       		.uleb128 0x34
 12323 02e9 00       		.byte	0
 12324 02ea 03       		.uleb128 0x3
 12325 02eb 08       		.uleb128 0x8
 12326 02ec 3A       		.uleb128 0x3a
 12327 02ed 0B       		.uleb128 0xb
 12328 02ee 3B       		.uleb128 0x3b
 12329 02ef 0B       		.uleb128 0xb
 12330 02f0 49       		.uleb128 0x49
 12331 02f1 13       		.uleb128 0x13
 12332 02f2 02       		.uleb128 0x2
 12333 02f3 18       		.uleb128 0x18
 12334 02f4 00       		.byte	0
 12335 02f5 00       		.byte	0
 12336 02f6 37       		.uleb128 0x37
 12337 02f7 05       		.uleb128 0x5
 12338 02f8 00       		.byte	0
 12339 02f9 03       		.uleb128 0x3
 12340 02fa 08       		.uleb128 0x8
 12341 02fb 3A       		.uleb128 0x3a
 12342 02fc 0B       		.uleb128 0xb
 12343 02fd 3B       		.uleb128 0x3b
 12344 02fe 0B       		.uleb128 0xb
 12345 02ff 49       		.uleb128 0x49
 12346 0300 13       		.uleb128 0x13
 12347 0301 02       		.uleb128 0x2
 12348 0302 18       		.uleb128 0x18
 12349 0303 00       		.byte	0
 12350 0304 00       		.byte	0
 12351 0305 38       		.uleb128 0x38
 12352 0306 05       		.uleb128 0x5
 12353 0307 00       		.byte	0
 12354 0308 03       		.uleb128 0x3
 12355 0309 0E       		.uleb128 0xe
 12356 030a 3A       		.uleb128 0x3a
 12357 030b 0B       		.uleb128 0xb
 12358 030c 3B       		.uleb128 0x3b
 12359 030d 0B       		.uleb128 0xb
 12360 030e 49       		.uleb128 0x49
 12361 030f 13       		.uleb128 0x13
 12362 0310 02       		.uleb128 0x2
 12363 0311 18       		.uleb128 0x18
 12364 0312 00       		.byte	0
 12365 0313 00       		.byte	0
 12366 0314 39       		.uleb128 0x39
 12367 0315 01       		.uleb128 0x1
 12368 0316 01       		.byte	0x1
ARM GAS  C:\Users\PCHAUT~1\AppData\Local\Temp\ccMxpIDf.s 			page 218


 12369 0317 49       		.uleb128 0x49
 12370 0318 13       		.uleb128 0x13
 12371 0319 00       		.byte	0
 12372 031a 00       		.byte	0
 12373 031b 00       		.byte	0
 12374              		.section	.debug_aranges,"",%progbits
 12375 0000 AC000000 		.4byte	0xac
 12376 0004 0200     		.2byte	0x2
 12377 0006 00000000 		.4byte	.Ldebug_info0
 12378 000a 04       		.byte	0x4
 12379 000b 00       		.byte	0
 12380 000c 0000     		.2byte	0
 12381 000e 0000     		.2byte	0
 12382 0010 00000000 		.4byte	.LFB257
 12383 0014 88000000 		.4byte	.LFE257-.LFB257
 12384 0018 00000000 		.4byte	.LFB258
 12385 001c 3C000000 		.4byte	.LFE258-.LFB258
 12386 0020 00000000 		.4byte	.LFB259
 12387 0024 30010000 		.4byte	.LFE259-.LFB259
 12388 0028 00000000 		.4byte	.LFB260
 12389 002c 90030000 		.4byte	.LFE260-.LFB260
 12390 0030 00000000 		.4byte	.LFB261
 12391 0034 90030000 		.4byte	.LFE261-.LFB261
 12392 0038 00000000 		.4byte	.LFB262
 12393 003c 8C030000 		.4byte	.LFE262-.LFB262
 12394 0040 00000000 		.4byte	.LFB263
 12395 0044 60000000 		.4byte	.LFE263-.LFB263
 12396 0048 00000000 		.4byte	.LFB264
 12397 004c 00020000 		.4byte	.LFE264-.LFB264
 12398 0050 00000000 		.4byte	.LFB265
 12399 0054 5C000000 		.4byte	.LFE265-.LFB265
 12400 0058 00000000 		.4byte	.LFB266
 12401 005c D4000000 		.4byte	.LFE266-.LFB266
 12402 0060 00000000 		.4byte	.LFB267
 12403 0064 E4070000 		.4byte	.LFE267-.LFB267
 12404 0068 00000000 		.4byte	.LFB268
 12405 006c 5C000000 		.4byte	.LFE268-.LFB268
 12406 0070 00000000 		.4byte	.LFB269
 12407 0074 5C000000 		.4byte	.LFE269-.LFB269
 12408 0078 00000000 		.4byte	.LFB270
 12409 007c 90000000 		.4byte	.LFE270-.LFB270
 12410 0080 00000000 		.4byte	.LFB271
 12411 0084 A8000000 		.4byte	.LFE271-.LFB271
 12412 0088 00000000 		.4byte	.LFB272
 12413 008c D8000000 		.4byte	.LFE272-.LFB272
 12414 0090 00000000 		.4byte	.LFB273
 12415 0094 A8000000 		.4byte	.LFE273-.LFB273
 12416 0098 00000000 		.4byte	.LFB274
 12417 009c DC000000 		.4byte	.LFE274-.LFB274
 12418 00a0 00000000 		.4byte	.LFB275
 12419 00a4 50000000 		.4byte	.LFE275-.LFB275
 12420 00a8 00000000 		.4byte	0
 12421 00ac 00000000 		.4byte	0
 12422              		.section	.debug_ranges,"",%progbits
 12423              	.Ldebug_ranges0:
 12424 0000 00000000 		.4byte	.LFB257
 12425 0004 88000000 		.4byte	.LFE257
ARM GAS  C:\Users\PCHAUT~1\AppData\Local\Temp\ccMxpIDf.s 			page 219


 12426 0008 00000000 		.4byte	.LFB258
 12427 000c 3C000000 		.4byte	.LFE258
 12428 0010 00000000 		.4byte	.LFB259
 12429 0014 30010000 		.4byte	.LFE259
 12430 0018 00000000 		.4byte	.LFB260
 12431 001c 90030000 		.4byte	.LFE260
 12432 0020 00000000 		.4byte	.LFB261
 12433 0024 90030000 		.4byte	.LFE261
 12434 0028 00000000 		.4byte	.LFB262
 12435 002c 8C030000 		.4byte	.LFE262
 12436 0030 00000000 		.4byte	.LFB263
 12437 0034 60000000 		.4byte	.LFE263
 12438 0038 00000000 		.4byte	.LFB264
 12439 003c 00020000 		.4byte	.LFE264
 12440 0040 00000000 		.4byte	.LFB265
 12441 0044 5C000000 		.4byte	.LFE265
 12442 0048 00000000 		.4byte	.LFB266
 12443 004c D4000000 		.4byte	.LFE266
 12444 0050 00000000 		.4byte	.LFB267
 12445 0054 E4070000 		.4byte	.LFE267
 12446 0058 00000000 		.4byte	.LFB268
 12447 005c 5C000000 		.4byte	.LFE268
 12448 0060 00000000 		.4byte	.LFB269
 12449 0064 5C000000 		.4byte	.LFE269
 12450 0068 00000000 		.4byte	.LFB270
 12451 006c 90000000 		.4byte	.LFE270
 12452 0070 00000000 		.4byte	.LFB271
 12453 0074 A8000000 		.4byte	.LFE271
 12454 0078 00000000 		.4byte	.LFB272
 12455 007c D8000000 		.4byte	.LFE272
 12456 0080 00000000 		.4byte	.LFB273
 12457 0084 A8000000 		.4byte	.LFE273
 12458 0088 00000000 		.4byte	.LFB274
 12459 008c DC000000 		.4byte	.LFE274
 12460 0090 00000000 		.4byte	.LFB275
 12461 0094 50000000 		.4byte	.LFE275
 12462 0098 00000000 		.4byte	0
 12463 009c 00000000 		.4byte	0
 12464              		.section	.debug_line,"",%progbits
 12465              	.Ldebug_line0:
 12466 0000 B70B0000 		.section	.debug_str,"MS",%progbits,1
 12466      02004A08 
 12466      00000201 
 12466      FB0E0D00 
 12466      01010101 
 12467              	.LASF574:
 12468 0000 5553425F 		.ascii	"USB_STOP\000"
 12468      53544F50 
 12468      00
 12469              	.LASF188:
 12470 0009 706F7274 		.ascii	"port_intctx\000"
 12470      5F696E74 
 12470      63747800 
 12471              	.LASF197:
 12472 0015 63685F74 		.ascii	"ch_trace_buffer_t\000"
 12472      72616365 
 12472      5F627566 
ARM GAS  C:\Users\PCHAUT~1\AppData\Local\Temp\ccMxpIDf.s 			page 220


 12472      6665725F 
 12472      7400
 12473              	.LASF230:
 12474 0027 63685F70 		.ascii	"ch_ptrsize\000"
 12474      74727369 
 12474      7A6500
 12475              	.LASF510:
 12476 0032 6576656E 		.ascii	"event\000"
 12476      7400
 12477              	.LASF361:
 12478 0038 43414E5F 		.ascii	"CAN_STARTING\000"
 12478      53544152 
 12478      54494E47 
 12478      00
 12479              	.LASF32:
 12480 0045 6D73675F 		.ascii	"msg_t\000"
 12480      7400
 12481              	.LASF306:
 12482 004b 61667268 		.ascii	"afrh\000"
 12482      00
 12483              	.LASF453:
 12484 0050 4F504D4F 		.ascii	"OPMODE_SMBUS_DEVICE\000"
 12484      44455F53 
 12484      4D425553 
 12484      5F444556 
 12484      49434500 
 12485              	.LASF208:
 12486 0064 6D5F6372 		.ascii	"m_crit_isr\000"
 12486      69745F69 
 12486      737200
 12487              	.LASF794:
 12488 006f 433A5C55 		.ascii	"C:\\Users\\Pchautems\\Documents\\RobotiqueTP\\Proje"
 12488      73657273 
 12488      5C506368 
 12488      61757465 
 12488      6D735C44 
 12489 009d 745C6D69 		.ascii	"t\\miniprojet\000"
 12489      6E697072 
 12489      6F6A6574 
 12489      00
 12490              	.LASF633:
 12491 00aa 44494550 		.ascii	"DIEPTXF0\000"
 12491      54584630 
 12491      00
 12492              	.LASF709:
 12493 00b3 55534244 		.ascii	"USBD1\000"
 12493      3100
 12494              	.LASF360:
 12495 00b9 43414E5F 		.ascii	"CAN_STOP\000"
 12495      53544F50 
 12495      00
 12496              	.LASF762:
 12497 00c2 706F3830 		.ascii	"po8030_set_rgb_gain\000"
 12497      33305F73 
 12497      65745F72 
 12497      67625F67 
 12497      61696E00 
ARM GAS  C:\Users\PCHAUT~1\AppData\Local\Temp\ccMxpIDf.s 			page 221


 12498              	.LASF243:
 12499 00d6 63665F6F 		.ascii	"cf_off_time\000"
 12499      66665F74 
 12499      696D6500 
 12500              	.LASF91:
 12501 00e2 63685F73 		.ascii	"ch_system_t\000"
 12501      79737465 
 12501      6D5F7400 
 12502              	.LASF6:
 12503 00ee 5F5F7569 		.ascii	"__uint8_t\000"
 12503      6E74385F 
 12503      7400
 12504              	.LASF214:
 12505 00f8 77747365 		.ascii	"wtsemp\000"
 12505      6D7000
 12506              	.LASF290:
 12507 00ff 5F426F6F 		.ascii	"_Bool\000"
 12507      6C00
 12508              	.LASF402:
 12509 0105 64617461 		.ascii	"datamode\000"
 12509      6D6F6465 
 12509      00
 12510              	.LASF469:
 12511 010e 646D6172 		.ascii	"dmarx\000"
 12511      7800
 12512              	.LASF734:
 12513 0114 464F524D 		.ascii	"FORMAT_RGB444_BYTE_SWAP\000"
 12513      41545F52 
 12513      47423434 
 12513      345F4259 
 12513      54455F53 
 12514              	.LASF474:
 12515 012c 4932535F 		.ascii	"I2S_READY\000"
 12515      52454144 
 12515      5900
 12516              	.LASF350:
 12517 0136 73717231 		.ascii	"sqr1\000"
 12517      00
 12518              	.LASF277:
 12519 013b 424C4B5F 		.ascii	"BLK_UNINIT\000"
 12519      554E494E 
 12519      495400
 12520              	.LASF481:
 12521 0146 72785F62 		.ascii	"rx_buffer\000"
 12521      75666665 
 12521      7200
 12522              	.LASF465:
 12523 0150 6572726F 		.ascii	"errors\000"
 12523      727300
 12524              	.LASF201:
 12525 0157 776F7273 		.ascii	"worst\000"
 12525      7400
 12526              	.LASF84:
 12527 015d 76745F73 		.ascii	"vt_systime\000"
 12527      79737469 
 12527      6D6500
 12528              	.LASF150:
ARM GAS  C:\Users\PCHAUT~1\AppData\Local\Temp\ccMxpIDf.s 			page 222


 12529 0168 444F5231 		.ascii	"DOR1\000"
 12529      00
 12530              	.LASF151:
 12531 016d 444F5232 		.ascii	"DOR2\000"
 12531      00
 12532              	.LASF480:
 12533 0172 74785F62 		.ascii	"tx_buffer\000"
 12533      75666665 
 12533      7200
 12534              	.LASF223:
 12535 017c 6D5F6E65 		.ascii	"m_next\000"
 12535      787400
 12536              	.LASF310:
 12537 0183 50434461 		.ascii	"PCData\000"
 12537      746100
 12538              	.LASF173:
 12539 018a 4D41534B 		.ascii	"MASK\000"
 12539      00
 12540              	.LASF335:
 12541 018f 73616D70 		.ascii	"samples\000"
 12541      6C657300 
 12542              	.LASF637:
 12543 0197 47434346 		.ascii	"GCCFG\000"
 12543      4700
 12544              	.LASF431:
 12545 019d 42445452 		.ascii	"BDTR\000"
 12545      00
 12546              	.LASF384:
 12547 01a2 7265676D 		.ascii	"regmask\000"
 12547      61736B00 
 12548              	.LASF463:
 12549 01aa 49324343 		.ascii	"I2CConfig\000"
 12549      6F6E6669 
 12549      6700
 12550              	.LASF21:
 12551 01b4 75696E74 		.ascii	"uint16_t\000"
 12551      31365F74 
 12551      00
 12552              	.LASF470:
 12553 01bd 646D6174 		.ascii	"dmatx\000"
 12553      7800
 12554              	.LASF707:
 12555 01c3 736F665F 		.ascii	"sof_cb\000"
 12555      636200
 12556              	.LASF407:
 12557 01ca 4558545F 		.ascii	"EXT_ACTIVE\000"
 12557      41435449 
 12557      564500
 12558              	.LASF303:
 12559 01d5 6F737065 		.ascii	"ospeedr\000"
 12559      65647200 
 12560              	.LASF640:
 12561 01dd 44494550 		.ascii	"DIEPTXF\000"
 12561      54584600 
 12562              	.LASF249:
 12563 01e5 656C5F6E 		.ascii	"el_next\000"
 12563      65787400 
ARM GAS  C:\Users\PCHAUT~1\AppData\Local\Temp\ccMxpIDf.s 			page 223


 12564              	.LASF330:
 12565 01ed 4144435F 		.ascii	"ADC_ERR_OVERFLOW\000"
 12565      4552525F 
 12565      4F564552 
 12565      464C4F57 
 12565      00
 12566              	.LASF714:
 12567 01fe 53657269 		.ascii	"SerialUSBDriver\000"
 12567      616C5553 
 12567      42447269 
 12567      76657200 
 12568              	.LASF89:
 12569 020e 6C6F636B 		.ascii	"lock_cnt\000"
 12569      5F636E74 
 12569      00
 12570              	.LASF65:
 12571 0217 63685F74 		.ascii	"ch_threads_queue\000"
 12571      68726561 
 12571      64735F71 
 12571      75657565 
 12571      00
 12572              	.LASF721:
 12573 0228 464F524D 		.ascii	"FORMAT_CBYCRY\000"
 12573      41545F43 
 12573      42594352 
 12573      5900
 12574              	.LASF43:
 12575 0236 705F6E65 		.ascii	"p_newer\000"
 12575      77657200 
 12576              	.LASF650:
 12577 023e 48505254 		.ascii	"HPRT\000"
 12577      00
 12578              	.LASF742:
 12579 0243 53554253 		.ascii	"SUBSAMPLING_X1\000"
 12579      414D504C 
 12579      494E475F 
 12579      583100
 12580              	.LASF604:
 12581 0252 4843494E 		.ascii	"HCINT\000"
 12581      5400
 12582              	.LASF748:
 12583 0258 68656967 		.ascii	"height\000"
 12583      687400
 12584              	.LASF100:
 12585 025f 534D5052 		.ascii	"SMPR1\000"
 12585      3100
 12586              	.LASF101:
 12587 0265 534D5052 		.ascii	"SMPR2\000"
 12587      3200
 12588              	.LASF240:
 12589 026b 63665F6F 		.ascii	"cf_off_flags\000"
 12589      66665F66 
 12589      6C616773 
 12589      00
 12590              	.LASF543:
 12591 0278 5350495F 		.ascii	"SPI_STOP\000"
 12591      53544F50 
ARM GAS  C:\Users\PCHAUT~1\AppData\Local\Temp\ccMxpIDf.s 			page 224


 12591      00
 12592              	.LASF497:
 12593 0281 70776D63 		.ascii	"pwmchnmsk_t\000"
 12593      686E6D73 
 12593      6B5F7400 
 12594              	.LASF309:
 12595 028d 50424461 		.ascii	"PBData\000"
 12595      746100
 12596              	.LASF228:
 12597 0294 63685F73 		.ascii	"ch_size\000"
 12597      697A6500 
 12598              	.LASF646:
 12599 029c 48505458 		.ascii	"HPTXSTS\000"
 12599      53545300 
 12600              	.LASF302:
 12601 02a4 6F747970 		.ascii	"otyper\000"
 12601      657200
 12602              	.LASF293:
 12603 02ab 4F545950 		.ascii	"OTYPER\000"
 12603      455200
 12604              	.LASF386:
 12605 02b2 64616370 		.ascii	"dacparams_t\000"
 12605      6172616D 
 12605      735F7400 
 12606              	.LASF791:
 12607 02be 72656756 		.ascii	"regValue\000"
 12607      616C7565 
 12607      00
 12608              	.LASF521:
 12609 02c7 5344435F 		.ascii	"SDC_MODE_1BIT\000"
 12609      4D4F4445 
 12609      5F314249 
 12609      5400
 12610              	.LASF602:
 12611 02d5 48434348 		.ascii	"HCCHAR\000"
 12611      415200
 12612              	.LASF447:
 12613 02dc 4932435F 		.ascii	"I2C_ACTIVE_RX\000"
 12613      41435449 
 12613      56455F52 
 12613      5800
 12614              	.LASF38:
 12615 02ea 74687265 		.ascii	"thread_t\000"
 12615      61645F74 
 12615      00
 12616              	.LASF251:
 12617 02f3 656C5F65 		.ascii	"el_events\000"
 12617      76656E74 
 12617      7300
 12618              	.LASF490:
 12619 02fd 70776D73 		.ascii	"pwmstate_t\000"
 12619      74617465 
 12619      5F7400
 12620              	.LASF371:
 12621 0308 736C6565 		.ascii	"sleep_event\000"
 12621      705F6576 
 12621      656E7400 
ARM GAS  C:\Users\PCHAUT~1\AppData\Local\Temp\ccMxpIDf.s 			page 225


 12622              	.LASF83:
 12623 0314 63685F76 		.ascii	"ch_virtual_timers_list\000"
 12623      69727475 
 12623      616C5F74 
 12623      696D6572 
 12623      735F6C69 
 12624              	.LASF274:
 12625 032b 76656374 		.ascii	"vector\000"
 12625      6F7200
 12626              	.LASF22:
 12627 0332 696E7433 		.ascii	"int32_t\000"
 12627      325F7400 
 12628              	.LASF461:
 12629 033a 636C6F63 		.ascii	"clock_speed\000"
 12629      6B5F7370 
 12629      65656400 
 12630              	.LASF37:
 12631 0346 73797374 		.ascii	"systime_t\000"
 12631      696D655F 
 12631      7400
 12632              	.LASF404:
 12633 0350 44414344 		.ascii	"DACD2\000"
 12633      3200
 12634              	.LASF373:
 12635 0356 43414E44 		.ascii	"CANDriver\000"
 12635      72697665 
 12635      7200
 12636              	.LASF238:
 12637 0360 63665F6F 		.ascii	"cf_off_stklimit\000"
 12637      66665F73 
 12637      746B6C69 
 12637      6D697400 
 12638              	.LASF154:
 12639 0370 4D304152 		.ascii	"M0AR\000"
 12639      00
 12640              	.LASF609:
 12641 0375 72657376 		.ascii	"resvd1c\000"
 12641      64316300 
 12642              	.LASF451:
 12643 037d 69326366 		.ascii	"i2cflags_t\000"
 12643      6C616773 
 12643      5F7400
 12644              	.LASF647:
 12645 0388 4841494E 		.ascii	"HAINT\000"
 12645      5400
 12646              	.LASF136:
 12647 038e 46413152 		.ascii	"FA1R\000"
 12647      00
 12648              	.LASF644:
 12649 0393 48464E55 		.ascii	"HFNUM\000"
 12649      4D00
 12650              	.LASF267:
 12651 0399 716E6F74 		.ascii	"qnotify_t\000"
 12651      6966795F 
 12651      7400
 12652              	.LASF326:
 12653 03a3 61646373 		.ascii	"adcstate_t\000"
ARM GAS  C:\Users\PCHAUT~1\AppData\Local\Temp\ccMxpIDf.s 			page 226


 12653      74617465 
 12653      5F7400
 12654              	.LASF272:
 12655 03ae 69736869 		.ascii	"ishift\000"
 12655      667400
 12656              	.LASF421:
 12657 03b5 4750545F 		.ascii	"GPT_ONESHOT\000"
 12657      4F4E4553 
 12657      484F5400 
 12658              	.LASF262:
 12659 03c1 715F746F 		.ascii	"q_top\000"
 12659      7000
 12660              	.LASF595:
 12661 03c7 75645F73 		.ascii	"ud_string\000"
 12661      7472696E 
 12661      6700
 12662              	.LASF464:
 12663 03d1 49324344 		.ascii	"I2CDriver\000"
 12663      72697665 
 12663      7200
 12664              	.LASF446:
 12665 03db 4932435F 		.ascii	"I2C_ACTIVE_TX\000"
 12665      41435449 
 12665      56455F54 
 12665      5800
 12666              	.LASF516:
 12667 03e9 72656164 		.ascii	"read\000"
 12667      00
 12668              	.LASF452:
 12669 03ee 4F504D4F 		.ascii	"OPMODE_I2C\000"
 12669      44455F49 
 12669      324300
 12670              	.LASF656:
 12671 03f9 72657376 		.ascii	"resvd80C\000"
 12671      64383043 
 12671      00
 12672              	.LASF704:
 12673 0402 6576656E 		.ascii	"event_cb\000"
 12673      745F6362 
 12673      00
 12674              	.LASF623:
 12675 040b 474F5447 		.ascii	"GOTGCTL\000"
 12675      43544C00 
 12676              	.LASF717:
 12677 0413 62756C6B 		.ascii	"bulk_out\000"
 12677      5F6F7574 
 12677      00
 12678              	.LASF598:
 12679 041c 75736265 		.ascii	"usbepcallback_t\000"
 12679      7063616C 
 12679      6C626163 
 12679      6B5F7400 
 12680              	.LASF450:
 12681 042c 69326361 		.ascii	"i2caddr_t\000"
 12681      6464725F 
 12681      7400
 12682              	.LASF94:
ARM GAS  C:\Users\PCHAUT~1\AppData\Local\Temp\ccMxpIDf.s 			page 227


 12683 0436 76746C69 		.ascii	"vtlist\000"
 12683      737400
 12684              	.LASF767:
 12685 043d 706F3830 		.ascii	"po8030_set_contrast\000"
 12685      33305F73 
 12685      65745F63 
 12685      6F6E7472 
 12685      61737400 
 12686              	.LASF159:
 12687 0451 54524953 		.ascii	"TRISE\000"
 12687      4500
 12688              	.LASF662:
 12689 0457 72657376 		.ascii	"resvd824\000"
 12689      64383234 
 12689      00
 12690              	.LASF52:
 12691 0460 705F7761 		.ascii	"p_waiting\000"
 12691      6974696E 
 12691      6700
 12692              	.LASF209:
 12693 046a 6B65726E 		.ascii	"kernel_stats_t\000"
 12693      656C5F73 
 12693      74617473 
 12693      5F7400
 12694              	.LASF259:
 12695 0479 715F7761 		.ascii	"q_waiting\000"
 12695      6974696E 
 12695      6700
 12696              	.LASF118:
 12697 0483 43414E5F 		.ascii	"CAN_TxMailBox_TypeDef\000"
 12697      54784D61 
 12697      696C426F 
 12697      785F5479 
 12697      70654465 
 12698              	.LASF93:
 12699 0499 726C6973 		.ascii	"rlist\000"
 12699      7400
 12700              	.LASF61:
 12701 049f 74687265 		.ascii	"threads_list_t\000"
 12701      6164735F 
 12701      6C697374 
 12701      5F7400
 12702              	.LASF234:
 12703 04ae 63665F6F 		.ascii	"cf_off_ctx\000"
 12703      66665F63 
 12703      747800
 12704              	.LASF268:
 12705 04b9 696E7075 		.ascii	"input_queue_t\000"
 12705      745F7175 
 12705      6575655F 
 12705      7400
 12706              	.LASF353:
 12707 04c7 41444343 		.ascii	"ADCConversionGroup\000"
 12707      6F6E7665 
 12707      7273696F 
 12707      6E47726F 
 12707      757000
ARM GAS  C:\Users\PCHAUT~1\AppData\Local\Temp\ccMxpIDf.s 			page 228


 12708              	.LASF655:
 12709 04da 44535453 		.ascii	"DSTS\000"
 12709      00
 12710              	.LASF456:
 12711 04df 5354445F 		.ascii	"STD_DUTY_CYCLE\000"
 12711      44555459 
 12711      5F435943 
 12711      4C4500
 12712              	.LASF362:
 12713 04ee 43414E5F 		.ascii	"CAN_READY\000"
 12713      52454144 
 12713      5900
 12714              	.LASF236:
 12715 04f8 63665F6F 		.ascii	"cf_off_older\000"
 12715      66665F6F 
 12715      6C646572 
 12715      00
 12716              	.LASF26:
 12717 0505 72747469 		.ascii	"rttime_t\000"
 12717      6D655F74 
 12717      00
 12718              	.LASF416:
 12719 050e 45585444 		.ascii	"EXTD1\000"
 12719      3100
 12720              	.LASF689:
 12721 0514 72787175 		.ascii	"rxqueued\000"
 12721      65756564 
 12721      00
 12722              	.LASF364:
 12723 051d 63616E73 		.ascii	"canstate_t\000"
 12723      74617465 
 12723      5F7400
 12724              	.LASF138:
 12725 0528 7346696C 		.ascii	"sFilterRegister\000"
 12725      74657252 
 12725      65676973 
 12725      74657200 
 12726              	.LASF661:
 12727 0538 72657376 		.ascii	"resvd820\000"
 12727      64383230 
 12727      00
 12728              	.LASF165:
 12729 0541 52455350 		.ascii	"RESP1\000"
 12729      3100
 12730              	.LASF166:
 12731 0547 52455350 		.ascii	"RESP2\000"
 12731      3200
 12732              	.LASF167:
 12733 054d 52455350 		.ascii	"RESP3\000"
 12733      3300
 12734              	.LASF168:
 12735 0553 52455350 		.ascii	"RESP4\000"
 12735      3400
 12736              	.LASF758:
 12737 0559 66726163 		.ascii	"fractional\000"
 12737      74696F6E 
 12737      616C00
ARM GAS  C:\Users\PCHAUT~1\AppData\Local\Temp\ccMxpIDf.s 			page 229


 12738              	.LASF443:
 12739 0564 4932435F 		.ascii	"I2C_UNINIT\000"
 12739      554E494E 
 12739      495400
 12740              	.LASF600:
 12741 056f 75736272 		.ascii	"usbreqhandler_t\000"
 12741      65716861 
 12741      6E646C65 
 12741      725F7400 
 12742              	.LASF324:
 12743 057f 4144435F 		.ascii	"ADC_COMPLETE\000"
 12743      434F4D50 
 12743      4C455445 
 12743      00
 12744              	.LASF440:
 12745 058c 47505443 		.ascii	"GPTConfig\000"
 12745      6F6E6669 
 12745      6700
 12746              	.LASF505:
 12747 0596 53445F55 		.ascii	"SD_UNINIT\000"
 12747      4E494E49 
 12747      5400
 12748              	.LASF31:
 12749 05a0 74707269 		.ascii	"tprio_t\000"
 12749      6F5F7400 
 12750              	.LASF205:
 12751 05a8 6E5F6972 		.ascii	"n_irq\000"
 12751      7100
 12752              	.LASF484:
 12753 05ae 69327370 		.ascii	"i2spr\000"
 12753      7200
 12754              	.LASF665:
 12755 05b4 72657376 		.ascii	"resvd830\000"
 12755      64383330 
 12755      00
 12756              	.LASF445:
 12757 05bd 4932435F 		.ascii	"I2C_READY\000"
 12757      52454144 
 12757      5900
 12758              	.LASF667:
 12759 05c7 72657376 		.ascii	"resvd838\000"
 12759      64383338 
 12759      00
 12760              	.LASF459:
 12761 05d0 69326364 		.ascii	"i2cdutycycle_t\000"
 12761      75747963 
 12761      79636C65 
 12761      5F7400
 12762              	.LASF713:
 12763 05df 73647573 		.ascii	"sdustate_t\000"
 12763      74617465 
 12763      5F7400
 12764              	.LASF668:
 12765 05ea 72657376 		.ascii	"resvd83C\000"
 12765      64383343 
 12765      00
 12766              	.LASF739:
ARM GAS  C:\Users\PCHAUT~1\AppData\Local\Temp\ccMxpIDf.s 			page 230


 12767 05f3 53495A45 		.ascii	"SIZE_QVGA\000"
 12767      5F515647 
 12767      4100
 12768              	.LASF338:
 12769 05fd 74687265 		.ascii	"thread\000"
 12769      616400
 12770              	.LASF383:
 12771 0604 72656773 		.ascii	"regshift\000"
 12771      68696674 
 12771      00
 12772              	.LASF563:
 12773 060d 73657475 		.ascii	"setup\000"
 12773      7000
 12774              	.LASF542:
 12775 0613 5350495F 		.ascii	"SPI_UNINIT\000"
 12775      554E494E 
 12775      495400
 12776              	.LASF616:
 12777 061e 44545846 		.ascii	"DTXFSTS\000"
 12777      53545300 
 12778              	.LASF287:
 12779 0626 626C6B5F 		.ascii	"blk_size\000"
 12779      73697A65 
 12779      00
 12780              	.LASF557:
 12781 062f 696E5F70 		.ascii	"in_params\000"
 12781      6172616D 
 12781      7300
 12782              	.LASF430:
 12783 0639 43434552 		.ascii	"CCER\000"
 12783      00
 12784              	.LASF181:
 12785 063e 49325350 		.ascii	"I2SPR\000"
 12785      5200
 12786              	.LASF487:
 12787 0644 50574D5F 		.ascii	"PWM_UNINIT\000"
 12787      554E494E 
 12787      495400
 12788              	.LASF200:
 12789 064f 62657374 		.ascii	"best\000"
 12789      00
 12790              	.LASF625:
 12791 0654 47414842 		.ascii	"GAHBCFG\000"
 12791      43464700 
 12792              	.LASF393:
 12793 065c 64616363 		.ascii	"daccallback_t\000"
 12793      616C6C62 
 12793      61636B5F 
 12793      7400
 12794              	.LASF712:
 12795 066a 5344555F 		.ascii	"SDU_READY\000"
 12795      52454144 
 12795      5900
 12796              	.LASF669:
 12797 0674 72657376 		.ascii	"resvd840\000"
 12797      64383430 
 12797      00
ARM GAS  C:\Users\PCHAUT~1\AppData\Local\Temp\ccMxpIDf.s 			page 231


 12798              	.LASF177:
 12799 067d 43524350 		.ascii	"CRCPR\000"
 12799      5200
 12800              	.LASF282:
 12801 0683 424C4B5F 		.ascii	"BLK_READY\000"
 12801      52454144 
 12801      5900
 12802              	.LASF8:
 12803 068d 5F5F696E 		.ascii	"__int16_t\000"
 12803      7431365F 
 12803      7400
 12804              	.LASF10:
 12805 0697 5F5F7569 		.ascii	"__uint16_t\000"
 12805      6E743136 
 12805      5F7400
 12806              	.LASF420:
 12807 06a2 4750545F 		.ascii	"GPT_CONTINUOUS\000"
 12807      434F4E54 
 12807      494E554F 
 12807      555300
 12808              	.LASF683:
 12809 06b1 74787175 		.ascii	"txqueued\000"
 12809      65756564 
 12809      00
 12810              	.LASF54:
 12811 06ba 705F6D73 		.ascii	"p_msg\000"
 12811      6700
 12812              	.LASF622:
 12813 06c0 73746D33 		.ascii	"stm32_otg_out_ep_t\000"
 12813      325F6F74 
 12813      675F6F75 
 12813      745F6570 
 12813      5F7400
 12814              	.LASF631:
 12815 06d3 47525853 		.ascii	"GRXSTSP\000"
 12815      54535000 
 12816              	.LASF630:
 12817 06db 47525853 		.ascii	"GRXSTSR\000"
 12817      54535200 
 12818              	.LASF211:
 12819 06e3 65786974 		.ascii	"exitcode\000"
 12819      636F6465 
 12819      00
 12820              	.LASF155:
 12821 06ec 4D314152 		.ascii	"M1AR\000"
 12821      00
 12822              	.LASF570:
 12823 06f1 77616974 		.ascii	"wait\000"
 12823      00
 12824              	.LASF156:
 12825 06f6 444D415F 		.ascii	"DMA_Stream_TypeDef\000"
 12825      53747265 
 12825      616D5F54 
 12825      79706544 
 12825      656600
 12826              	.LASF746:
 12827 0709 706F3830 		.ascii	"po8030_configuration\000"
ARM GAS  C:\Users\PCHAUT~1\AppData\Local\Temp\ccMxpIDf.s 			page 232


 12827      33305F63 
 12827      6F6E6669 
 12827      67757261 
 12827      74696F6E 
 12828              	.LASF577:
 12829 071e 5553425F 		.ascii	"USB_ACTIVE\000"
 12829      41435449 
 12829      564500
 12830              	.LASF618:
 12831 0729 73746D33 		.ascii	"stm32_otg_in_ep_t\000"
 12831      325F6F74 
 12831      675F696E 
 12831      5F65705F 
 12831      7400
 12832              	.LASF691:
 12833 073b 7278636E 		.ascii	"rxcnt\000"
 12833      7400
 12834              	.LASF320:
 12835 0741 4144435F 		.ascii	"ADC_UNINIT\000"
 12835      554E494E 
 12835      495400
 12836              	.LASF467:
 12837 074c 7278646D 		.ascii	"rxdmamode\000"
 12837      616D6F64 
 12837      6500
 12838              	.LASF412:
 12839 0756 6D6F6465 		.ascii	"mode\000"
 12839      00
 12840              	.LASF224:
 12841 075b 6D5F636E 		.ascii	"m_cnt\000"
 12841      7400
 12842              	.LASF409:
 12843 0761 45585444 		.ascii	"EXTDriver\000"
 12843      72697665 
 12843      7200
 12844              	.LASF239:
 12845 076b 63665F6F 		.ascii	"cf_off_state\000"
 12845      66665F73 
 12845      74617465 
 12845      00
 12846              	.LASF479:
 12847 0778 69327363 		.ascii	"i2scallback_t\000"
 12847      616C6C62 
 12847      61636B5F 
 12847      7400
 12848              	.LASF551:
 12849 0786 73737061 		.ascii	"sspad\000"
 12849      6400
 12850              	.LASF468:
 12851 078c 7478646D 		.ascii	"txdmamode\000"
 12851      616D6F64 
 12851      6500
 12852              	.LASF436:
 12853 0796 67707466 		.ascii	"gptfreq_t\000"
 12853      7265715F 
 12853      7400
 12854              	.LASF792:
ARM GAS  C:\Users\PCHAUT~1\AppData\Local\Temp\ccMxpIDf.s 			page 233


 12855 07a0 474E5520 		.ascii	"GNU C11 7.2.1 20170904 (release) [ARM/embedded-7-br"
 12855      43313120 
 12855      372E322E 
 12855      31203230 
 12855      31373039 
 12856 07d3 616E6368 		.ascii	"anch revision 255204] -mcpu=cortex-m4 -mfloat-abi=h"
 12856      20726576 
 12856      6973696F 
 12856      6E203235 
 12856      35323034 
 12857 0806 61726420 		.ascii	"ard -mfpu=fpv4-sp-d16 -mno-thumb-interwork -mthumb "
 12857      2D6D6670 
 12857      753D6670 
 12857      76342D73 
 12857      702D6431 
 12858 0839 2D676764 		.ascii	"-ggdb -O0 -fomit-frame-pointer -falign-functions=16"
 12858      62202D4F 
 12858      30202D66 
 12858      6F6D6974 
 12858      2D667261 
 12859 086c 202D666E 		.ascii	" -fno-strict-aliasing -fstack-protector-all -ffunct"
 12859      6F2D7374 
 12859      72696374 
 12859      2D616C69 
 12859      6173696E 
 12860 089f 696F6E2D 		.ascii	"ion-sections -fdata-sections -fno-common -fsingle-p"
 12860      73656374 
 12860      696F6E73 
 12860      202D6664 
 12860      6174612D 
 12861 08d2 72656369 		.ascii	"recision-constant\000"
 12861      73696F6E 
 12861      2D636F6E 
 12861      7374616E 
 12861      7400
 12862              	.LASF756:
 12863 08e4 63616D5F 		.ascii	"cam_configured\000"
 12863      636F6E66 
 12863      69677572 
 12863      656400
 12864              	.LASF752:
 12865 08f3 75736263 		.ascii	"usbcfg\000"
 12865      666700
 12866              	.LASF676:
 12867 08fa 72785F66 		.ascii	"rx_fifo_size\000"
 12867      69666F5F 
 12867      73697A65 
 12867      00
 12868              	.LASF186:
 12869 0907 73746B61 		.ascii	"stkalign_t\000"
 12869      6C69676E 
 12869      5F7400
 12870              	.LASF391:
 12871 0912 4441435F 		.ascii	"DAC_ERR_UNDERFLOW\000"
 12871      4552525F 
 12871      554E4445 
 12871      52464C4F 
ARM GAS  C:\Users\PCHAUT~1\AppData\Local\Temp\ccMxpIDf.s 			page 234


 12871      5700
 12872              	.LASF372:
 12873 0924 77616B65 		.ascii	"wakeup_event\000"
 12873      75705F65 
 12873      76656E74 
 12873      00
 12874              	.LASF78:
 12875 0931 76745F70 		.ascii	"vt_prev\000"
 12875      72657600 
 12876              	.LASF346:
 12877 0939 656E645F 		.ascii	"end_cb\000"
 12877      636200
 12878              	.LASF694:
 12879 0940 73657475 		.ascii	"setup_cb\000"
 12879      705F6362 
 12879      00
 12880              	.LASF7:
 12881 0949 756E7369 		.ascii	"unsigned char\000"
 12881      676E6564 
 12881      20636861 
 12881      7200
 12882              	.LASF738:
 12883 0957 53495A45 		.ascii	"SIZE_VGA\000"
 12883      5F564741 
 12883      00
 12884              	.LASF175:
 12885 0960 4649464F 		.ascii	"FIFO\000"
 12885      00
 12886              	.LASF196:
 12887 0965 74625F62 		.ascii	"tb_buffer\000"
 12887      75666665 
 12887      7200
 12888              	.LASF366:
 12889 096f 74787175 		.ascii	"txqueue\000"
 12889      65756500 
 12890              	.LASF219:
 12891 0977 735F636E 		.ascii	"s_cnt\000"
 12891      7400
 12892              	.LASF66:
 12893 097d 72656164 		.ascii	"ready_list_t\000"
 12893      795F6C69 
 12893      73745F74 
 12893      00
 12894              	.LASF62:
 12895 098a 63685F74 		.ascii	"ch_thread\000"
 12895      68726561 
 12895      6400
 12896              	.LASF454:
 12897 0994 4F504D4F 		.ascii	"OPMODE_SMBUS_HOST\000"
 12897      44455F53 
 12897      4D425553 
 12897      5F484F53 
 12897      5400
 12898              	.LASF572:
 12899 09a6 75736265 		.ascii	"usbep_t\000"
 12899      705F7400 
 12900              	.LASF778:
ARM GAS  C:\Users\PCHAUT~1\AppData\Local\Temp\ccMxpIDf.s 			page 235


 12901 09ae 666C6F61 		.ascii	"float\000"
 12901      7400
 12902              	.LASF755:
 12903 09b4 706F3830 		.ascii	"po8030_conf\000"
 12903      33305F63 
 12903      6F6E6600 
 12904              	.LASF405:
 12905 09c0 4558545F 		.ascii	"EXT_UNINIT\000"
 12905      554E494E 
 12905      495400
 12906              	.LASF363:
 12907 09cb 43414E5F 		.ascii	"CAN_SLEEP\000"
 12907      534C4545 
 12907      5000
 12908              	.LASF192:
 12909 09d5 73655F73 		.ascii	"se_state\000"
 12909      74617465 
 12909      00
 12910              	.LASF359:
 12911 09de 43414E5F 		.ascii	"CAN_UNINIT\000"
 12911      554E494E 
 12911      495400
 12912              	.LASF541:
 12913 09e9 53444344 		.ascii	"SDCD1\000"
 12913      3100
 12914              	.LASF85:
 12915 09ef 73797374 		.ascii	"system_debug_t\000"
 12915      656D5F64 
 12915      65627567 
 12915      5F7400
 12916              	.LASF143:
 12917 09fe 44485238 		.ascii	"DHR8R1\000"
 12917      523100
 12918              	.LASF146:
 12919 0a05 44485238 		.ascii	"DHR8R2\000"
 12919      523200
 12920              	.LASF427:
 12921 0a0c 44494552 		.ascii	"DIER\000"
 12921      00
 12922              	.LASF42:
 12923 0a11 705F6374 		.ascii	"p_ctx\000"
 12923      7800
 12924              	.LASF81:
 12925 0a17 76745F70 		.ascii	"vt_par\000"
 12925      617200
 12926              	.LASF102:
 12927 0a1e 4A4F4652 		.ascii	"JOFR1\000"
 12927      3100
 12928              	.LASF103:
 12929 0a24 4A4F4652 		.ascii	"JOFR2\000"
 12929      3200
 12930              	.LASF104:
 12931 0a2a 4A4F4652 		.ascii	"JOFR3\000"
 12931      3300
 12932              	.LASF105:
 12933 0a30 4A4F4652 		.ascii	"JOFR4\000"
 12933      3400
ARM GAS  C:\Users\PCHAUT~1\AppData\Local\Temp\ccMxpIDf.s 			page 236


 12934              	.LASF73:
 12935 0a36 725F6375 		.ascii	"r_current\000"
 12935      7272656E 
 12935      7400
 12936              	.LASF179:
 12937 0a40 54584352 		.ascii	"TXCRCR\000"
 12937      435200
 12938              	.LASF398:
 12939 0a47 64616364 		.ascii	"dacdhrmode_t\000"
 12939      68726D6F 
 12939      64655F74 
 12939      00
 12940              	.LASF340:
 12941 0a54 646D6173 		.ascii	"dmastp\000"
 12941      747000
 12942              	.LASF458:
 12943 0a5b 46415354 		.ascii	"FAST_DUTY_CYCLE_16_9\000"
 12943      5F445554 
 12943      595F4359 
 12943      434C455F 
 12943      31365F39 
 12944              	.LASF24:
 12945 0a70 75696E74 		.ascii	"uint64_t\000"
 12945      36345F74 
 12945      00
 12946              	.LASF206:
 12947 0a79 6E5F6374 		.ascii	"n_ctxswc\000"
 12947      78737763 
 12947      00
 12948              	.LASF245:
 12949 0a82 63685F64 		.ascii	"ch_debug\000"
 12949      65627567 
 12949      00
 12950              	.LASF401:
 12951 0a8b 696E6974 		.ascii	"init\000"
 12951      00
 12952              	.LASF130:
 12953 0a90 464D3152 		.ascii	"FM1R\000"
 12953      00
 12954              	.LASF317:
 12955 0a95 50414C43 		.ascii	"PALConfig\000"
 12955      6F6E6669 
 12955      6700
 12956              	.LASF773:
 12957 0a9f 6175746F 		.ascii	"auto_cw_x2\000"
 12957      5F63775F 
 12957      783200
 12958              	.LASF685:
 12959 0aaa 7478636E 		.ascii	"txcnt\000"
 12959      7400
 12960              	.LASF599:
 12961 0ab0 75736265 		.ascii	"usbeventcb_t\000"
 12961      76656E74 
 12961      63625F74 
 12961      00
 12962              	.LASF279:
 12963 0abd 424C4B5F 		.ascii	"BLK_ACTIVE\000"
ARM GAS  C:\Users\PCHAUT~1\AppData\Local\Temp\ccMxpIDf.s 			page 237


 12963      41435449 
 12963      564500
 12964              	.LASF247:
 12965 0ac8 6576656E 		.ascii	"event_listener_t\000"
 12965      745F6C69 
 12965      7374656E 
 12965      65725F74 
 12965      00
 12966              	.LASF677:
 12967 0ad9 6F74675F 		.ascii	"otg_ram_size\000"
 12967      72616D5F 
 12967      73697A65 
 12967      00
 12968              	.LASF679:
 12969 0ae6 73746D33 		.ascii	"stm32_otg_params_t\000"
 12969      325F6F74 
 12969      675F7061 
 12969      72616D73 
 12969      5F7400
 12970              	.LASF672:
 12971 0af9 72657376 		.ascii	"resvdD00\000"
 12971      64443030 
 12971      00
 12972              	.LASF178:
 12973 0b02 52584352 		.ascii	"RXCRCR\000"
 12973      435200
 12974              	.LASF688:
 12975 0b09 72786275 		.ascii	"rxbuf\000"
 12975      6600
 12976              	.LASF628:
 12977 0b0f 47494E54 		.ascii	"GINTSTS\000"
 12977      53545300 
 12978              	.LASF220:
 12979 0b17 63685F6D 		.ascii	"ch_mutex\000"
 12979      75746578 
 12979      00
 12980              	.LASF369:
 12981 0b20 7478656D 		.ascii	"txempty_event\000"
 12981      7074795F 
 12981      6576656E 
 12981      7400
 12982              	.LASF781:
 12983 0b2e 70776D63 		.ascii	"pwmcfg_cam\000"
 12983      66675F63 
 12983      616D00
 12984              	.LASF710:
 12985 0b39 5344555F 		.ascii	"SDU_UNINIT\000"
 12985      554E494E 
 12985      495400
 12986              	.LASF491:
 12987 0b44 50574D44 		.ascii	"PWMDriver\000"
 12987      72697665 
 12987      7200
 12988              	.LASF314:
 12989 0b4e 50474461 		.ascii	"PGData\000"
 12989      746100
 12990              	.LASF500:
ARM GAS  C:\Users\PCHAUT~1\AppData\Local\Temp\ccMxpIDf.s 			page 238


 12991 0b55 50574D43 		.ascii	"PWMConfig\000"
 12991      6F6E6669 
 12991      6700
 12992              	.LASF753:
 12993 0b5f 73657275 		.ascii	"serusbcfg\000"
 12993      73626366 
 12993      6700
 12994              	.LASF786:
 12995 0b69 706F3830 		.ascii	"po8030_set_vga\000"
 12995      33305F73 
 12995      65745F76 
 12995      676100
 12996              	.LASF761:
 12997 0b78 76616C75 		.ascii	"value\000"
 12997      6500
 12998              	.LASF235:
 12999 0b7e 63665F6F 		.ascii	"cf_off_newer\000"
 12999      66665F6E 
 12999      65776572 
 12999      00
 13000              	.LASF657:
 13001 0b8b 44494550 		.ascii	"DIEPMSK\000"
 13001      4D534B00 
 13002              	.LASF624:
 13003 0b93 474F5447 		.ascii	"GOTGINT\000"
 13003      494E5400 
 13004              	.LASF696:
 13005 0b9b 6F75745F 		.ascii	"out_cb\000"
 13005      636200
 13006              	.LASF728:
 13007 0ba2 464F524D 		.ascii	"FORMAT_BGGR\000"
 13007      41545F42 
 13007      47475200 
 13008              	.LASF648:
 13009 0bae 4841494E 		.ascii	"HAINTMSK\000"
 13009      544D534B 
 13009      00
 13010              	.LASF558:
 13011 0bb7 6F75745F 		.ascii	"out_params\000"
 13011      70617261 
 13011      6D7300
 13012              	.LASF191:
 13013 0bc2 73655F77 		.ascii	"se_wtobjp\000"
 13013      746F626A 
 13013      7000
 13014              	.LASF109:
 13015 0bcc 4A535152 		.ascii	"JSQR\000"
 13015      00
 13016              	.LASF774:
 13017 0bd1 6175746F 		.ascii	"auto_cw_y1\000"
 13017      5F63775F 
 13017      793100
 13018              	.LASF439:
 13019 0bdc 64696572 		.ascii	"dier\000"
 13019      00
 13020              	.LASF536:
 13021 0be1 69735F70 		.ascii	"is_protected\000"
ARM GAS  C:\Users\PCHAUT~1\AppData\Local\Temp\ccMxpIDf.s 			page 239


 13021      726F7465 
 13021      63746564 
 13021      00
 13022              	.LASF75:
 13023 0bee 76697274 		.ascii	"virtual_timer_t\000"
 13023      75616C5F 
 13023      74696D65 
 13023      725F7400 
 13024              	.LASF698:
 13025 0bfe 6F75745F 		.ascii	"out_maxsize\000"
 13025      6D617873 
 13025      697A6500 
 13026              	.LASF70:
 13027 0c0a 725F6374 		.ascii	"r_ctx\000"
 13027      7800
 13028              	.LASF77:
 13029 0c10 76745F6E 		.ascii	"vt_next\000"
 13029      65787400 
 13030              	.LASF473:
 13031 0c18 4932535F 		.ascii	"I2S_STOP\000"
 13031      53544F50 
 13031      00
 13032              	.LASF488:
 13033 0c21 50574D5F 		.ascii	"PWM_STOP\000"
 13033      53544F50 
 13033      00
 13034              	.LASF25:
 13035 0c2a 7274636E 		.ascii	"rtcnt_t\000"
 13035      745F7400 
 13036              	.LASF339:
 13037 0c32 6D757465 		.ascii	"mutex\000"
 13037      7800
 13038              	.LASF482:
 13039 0c38 73697A65 		.ascii	"size\000"
 13039      00
 13040              	.LASF795:
 13041 0c3d 706F3830 		.ascii	"po8030_get_image_size\000"
 13041      33305F67 
 13041      65745F69 
 13041      6D616765 
 13041      5F73697A 
 13042              	.LASF387:
 13043 0c53 44414344 		.ascii	"DACDriver\000"
 13043      72697665 
 13043      7200
 13044              	.LASF403:
 13045 0c5d 44414343 		.ascii	"DACConfig\000"
 13045      6F6E6669 
 13045      6700
 13046              	.LASF569:
 13047 0c67 74787065 		.ascii	"txpending\000"
 13047      6E64696E 
 13047      6700
 13048              	.LASF424:
 13049 0c71 636C6F63 		.ascii	"clock\000"
 13049      6B00
 13050              	.LASF291:
ARM GAS  C:\Users\PCHAUT~1\AppData\Local\Temp\ccMxpIDf.s 			page 240


 13051 0c77 636C6561 		.ascii	"clear\000"
 13051      7200
 13052              	.LASF434:
 13053 0c7d 43435852 		.ascii	"CCXR\000"
 13053      00
 13054              	.LASF139:
 13055 0c82 43414E5F 		.ascii	"CAN_TypeDef\000"
 13055      54797065 
 13055      44656600 
 13056              	.LASF193:
 13057 0c8e 63685F73 		.ascii	"ch_swc_event_t\000"
 13057      77635F65 
 13057      76656E74 
 13057      5F7400
 13058              	.LASF506:
 13059 0c9d 53445F53 		.ascii	"SD_STOP\000"
 13059      544F5000 
 13060              	.LASF603:
 13061 0ca5 72657376 		.ascii	"resvd8\000"
 13061      643800
 13062              	.LASF3:
 13063 0cac 73697A65 		.ascii	"size_t\000"
 13063      5F7400
 13064              	.LASF96:
 13065 0cb3 6B65726E 		.ascii	"kernel_stats\000"
 13065      656C5F73 
 13065      74617473 
 13065      00
 13066              	.LASF670:
 13067 0cc0 72657376 		.ascii	"resvd880\000"
 13067      64383830 
 13067      00
 13068              	.LASF19:
 13069 0cc9 75696E74 		.ascii	"uint8_t\000"
 13069      385F7400 
 13070              	.LASF607:
 13071 0cd1 72657376 		.ascii	"resvd14\000"
 13071      64313400 
 13072              	.LASF608:
 13073 0cd9 72657376 		.ascii	"resvd18\000"
 13073      64313800 
 13074              	.LASF72:
 13075 0ce1 725F6F6C 		.ascii	"r_older\000"
 13075      64657200 
 13076              	.LASF40:
 13077 0ce9 705F7072 		.ascii	"p_prev\000"
 13077      657600
 13078              	.LASF237:
 13079 0cf0 63665F6F 		.ascii	"cf_off_name\000"
 13079      66665F6E 
 13079      616D6500 
 13080              	.LASF499:
 13081 0cfc 50574D43 		.ascii	"PWMChannelConfig\000"
 13081      68616E6E 
 13081      656C436F 
 13081      6E666967 
 13081      00
ARM GAS  C:\Users\PCHAUT~1\AppData\Local\Temp\ccMxpIDf.s 			page 241


 13082              	.LASF498:
 13083 0d0d 70776D63 		.ascii	"pwmcnt_t\000"
 13083      6E745F74 
 13083      00
 13084              	.LASF666:
 13085 0d16 44494550 		.ascii	"DIEPEMPMSK\000"
 13085      454D504D 
 13085      534B00
 13086              	.LASF611:
 13087 0d21 44494550 		.ascii	"DIEPCTL\000"
 13087      43544C00 
 13088              	.LASF253:
 13089 0d29 656C5F77 		.ascii	"el_wflags\000"
 13089      666C6167 
 13089      7300
 13090              	.LASF567:
 13091 0d33 6F746770 		.ascii	"otgparams\000"
 13091      6172616D 
 13091      7300
 13092              	.LASF194:
 13093 0d3d 74625F73 		.ascii	"tb_size\000"
 13093      697A6500 
 13094              	.LASF311:
 13095 0d45 50444461 		.ascii	"PDData\000"
 13095      746100
 13096              	.LASF531:
 13097 0d4c 73637261 		.ascii	"scratchpad\000"
 13097      74636870 
 13097      616400
 13098              	.LASF700:
 13099 0d57 6F75745F 		.ascii	"out_state\000"
 13099      73746174 
 13099      6500
 13100              	.LASF257:
 13101 0d61 696F5F71 		.ascii	"io_queue_t\000"
 13101      75657565 
 13101      5F7400
 13102              	.LASF547:
 13103 0d6c 73706973 		.ascii	"spistate_t\000"
 13103      74617465 
 13103      5F7400
 13104              	.LASF444:
 13105 0d77 4932435F 		.ascii	"I2C_STOP\000"
 13105      53544F50 
 13105      00
 13106              	.LASF466:
 13107 0d80 61646472 		.ascii	"addr\000"
 13107      00
 13108              	.LASF124:
 13109 0d85 52463052 		.ascii	"RF0R\000"
 13109      00
 13110              	.LASF329:
 13111 0d8a 4144435F 		.ascii	"ADC_ERR_DMAFAILURE\000"
 13111      4552525F 
 13111      444D4146 
 13111      41494C55 
 13111      524500
ARM GAS  C:\Users\PCHAUT~1\AppData\Local\Temp\ccMxpIDf.s 			page 242


 13112              	.LASF545:
 13113 0d9d 5350495F 		.ascii	"SPI_ACTIVE\000"
 13113      41435449 
 13113      564500
 13114              	.LASF413:
 13115 0da8 45585443 		.ascii	"EXTChannelConfig\000"
 13115      68616E6E 
 13115      656C436F 
 13115      6E666967 
 13115      00
 13116              	.LASF294:
 13117 0db9 4F535045 		.ascii	"OSPEEDR\000"
 13117      45445200 
 13118              	.LASF377:
 13119 0dc1 4441435F 		.ascii	"DAC_READY\000"
 13119      52454144 
 13119      5900
 13120              	.LASF635:
 13121 0dcb 72657376 		.ascii	"resvd30\000"
 13121      64333000 
 13122              	.LASF636:
 13123 0dd3 72657376 		.ascii	"resvd34\000"
 13123      64333400 
 13124              	.LASF664:
 13125 0ddb 44564255 		.ascii	"DVBUSPULSE\000"
 13125      5350554C 
 13125      534500
 13126              	.LASF278:
 13127 0de6 424C4B5F 		.ascii	"BLK_STOP\000"
 13127      53544F50 
 13127      00
 13128              	.LASF514:
 13129 0def 53657269 		.ascii	"SerialDriverVMT\000"
 13129      616C4472 
 13129      69766572 
 13129      564D5400 
 13130              	.LASF585:
 13131 0dff 5553425F 		.ascii	"USB_EP0_ERROR\000"
 13131      4550305F 
 13131      4552524F 
 13131      5200
 13132              	.LASF537:
 13133 0e0d 636F6E6E 		.ascii	"connect\000"
 13133      65637400 
 13134              	.LASF125:
 13135 0e15 52463152 		.ascii	"RF1R\000"
 13135      00
 13136              	.LASF332:
 13137 0e1a 41444344 		.ascii	"ADCDriver\000"
 13137      72697665 
 13137      7200
 13138              	.LASF678:
 13139 0e24 6E756D5F 		.ascii	"num_endpoints\000"
 13139      656E6470 
 13139      6F696E74 
 13139      7300
 13140              	.LASF355:
ARM GAS  C:\Users\PCHAUT~1\AppData\Local\Temp\ccMxpIDf.s 			page 243


 13141 0e32 41444343 		.ascii	"ADCConfig\000"
 13141      6F6E6669 
 13141      6700
 13142              	.LASF686:
 13143 0e3c 746F7473 		.ascii	"totsize\000"
 13143      697A6500 
 13144              	.LASF507:
 13145 0e44 53445F52 		.ascii	"SD_READY\000"
 13145      45414459 
 13145      00
 13146              	.LASF601:
 13147 0e4d 75736267 		.ascii	"usbgetdescriptor_t\000"
 13147      65746465 
 13147      73637269 
 13147      70746F72 
 13147      5F7400
 13148              	.LASF380:
 13149 0e60 4441435F 		.ascii	"DAC_ERROR\000"
 13149      4552524F 
 13149      5200
 13150              	.LASF580:
 13151 0e6a 5553425F 		.ascii	"USB_EP0_TX\000"
 13151      4550305F 
 13151      545800
 13152              	.LASF559:
 13153 0e75 65703073 		.ascii	"ep0state\000"
 13153      74617465 
 13153      00
 13154              	.LASF271:
 13155 0e7e 69666372 		.ascii	"ifcr\000"
 13155      00
 13156              	.LASF472:
 13157 0e83 4932535F 		.ascii	"I2S_UNINIT\000"
 13157      554E494E 
 13157      495400
 13158              	.LASF716:
 13159 0e8e 62756C6B 		.ascii	"bulk_in\000"
 13159      5F696E00 
 13160              	.LASF300:
 13161 0e96 73746D33 		.ascii	"stm32_gpio_t\000"
 13161      325F6770 
 13161      696F5F74 
 13161      00
 13162              	.LASF210:
 13163 0ea3 7264796D 		.ascii	"rdymsg\000"
 13163      736700
 13164              	.LASF489:
 13165 0eaa 50574D5F 		.ascii	"PWM_READY\000"
 13165      52454144 
 13165      5900
 13166              	.LASF115:
 13167 0eb4 54445452 		.ascii	"TDTR\000"
 13167      00
 13168              	.LASF123:
 13169 0eb9 43414E5F 		.ascii	"CAN_FilterRegister_TypeDef\000"
 13169      46696C74 
 13169      65725265 
ARM GAS  C:\Users\PCHAUT~1\AppData\Local\Temp\ccMxpIDf.s 			page 244


 13169      67697374 
 13169      65725F54 
 13170              	.LASF370:
 13171 0ed4 6572726F 		.ascii	"error_event\000"
 13171      725F6576 
 13171      656E7400 
 13172              	.LASF345:
 13173 0ee0 6E756D5F 		.ascii	"num_channels\000"
 13173      6368616E 
 13173      6E656C73 
 13173      00
 13174              	.LASF638:
 13175 0eed 72657376 		.ascii	"resvd58\000"
 13175      64353800 
 13176              	.LASF687:
 13177 0ef5 55534249 		.ascii	"USBInEndpointState\000"
 13177      6E456E64 
 13177      706F696E 
 13177      74537461 
 13177      746500
 13178              	.LASF41:
 13179 0f08 705F7072 		.ascii	"p_prio\000"
 13179      696F00
 13180              	.LASF258:
 13181 0f0f 696F5F71 		.ascii	"io_queue\000"
 13181      75657565 
 13181      00
 13182              	.LASF745:
 13183 0f18 73756273 		.ascii	"subsampling_t\000"
 13183      616D706C 
 13183      696E675F 
 13183      7400
 13184              	.LASF770:
 13185 0f26 73756273 		.ascii	"subsampling_x\000"
 13185      616D706C 
 13185      696E675F 
 13185      7800
 13186              	.LASF771:
 13187 0f34 73756273 		.ascii	"subsampling_y\000"
 13187      616D706C 
 13187      696E675F 
 13187      7900
 13188              	.LASF308:
 13189 0f42 50414461 		.ascii	"PAData\000"
 13189      746100
 13190              	.LASF16:
 13191 0f49 5F5F7569 		.ascii	"__uint64_t\000"
 13191      6E743634 
 13191      5F7400
 13192              	.LASF754:
 13193 0f54 53445531 		.ascii	"SDU1\000"
 13193      00
 13194              	.LASF494:
 13195 0f59 70776D63 		.ascii	"pwmcallback_t\000"
 13195      616C6C62 
 13195      61636B5F 
 13195      7400
ARM GAS  C:\Users\PCHAUT~1\AppData\Local\Temp\ccMxpIDf.s 			page 245


 13196              	.LASF388:
 13197 0f67 70617261 		.ascii	"params\000"
 13197      6D7300
 13198              	.LASF584:
 13199 0f6e 5553425F 		.ascii	"USB_EP0_SENDING_STS\000"
 13199      4550305F 
 13199      53454E44 
 13199      494E475F 
 13199      53545300 
 13200              	.LASF718:
 13201 0f82 696E745F 		.ascii	"int_in\000"
 13201      696E00
 13202              	.LASF449:
 13203 0f89 69326373 		.ascii	"i2cstate_t\000"
 13203      74617465 
 13203      5F7400
 13204              	.LASF586:
 13205 0f94 75736265 		.ascii	"usbep0state_t\000"
 13205      70307374 
 13205      6174655F 
 13205      7400
 13206              	.LASF392:
 13207 0fa2 64616365 		.ascii	"dacerror_t\000"
 13207      72726F72 
 13207      5F7400
 13208              	.LASF127:
 13209 0fad 7354784D 		.ascii	"sTxMailBox\000"
 13209      61696C42 
 13209      6F7800
 13210              	.LASF327:
 13211 0fb8 61646373 		.ascii	"adcsample_t\000"
 13211      616D706C 
 13211      655F7400 
 13212              	.LASF425:
 13213 0fc4 67707463 		.ascii	"gptcallback_t\000"
 13213      616C6C62 
 13213      61636B5F 
 13213      7400
 13214              	.LASF261:
 13215 0fd2 715F6275 		.ascii	"q_buffer\000"
 13215      66666572 
 13215      00
 13216              	.LASF39:
 13217 0fdb 705F6E65 		.ascii	"p_next\000"
 13217      787400
 13218              	.LASF471:
 13219 0fe2 49324344 		.ascii	"I2CD1\000"
 13219      3100
 13220              	.LASF612:
 13221 0fe8 72657376 		.ascii	"resvd4\000"
 13221      643400
 13222              	.LASF736:
 13223 0fef 464F524D 		.ascii	"FORMAT_YYYY\000"
 13223      41545F59 
 13223      59595900 
 13224              	.LASF554:
 13225 0ffb 55534244 		.ascii	"USBDriver\000"
ARM GAS  C:\Users\PCHAUT~1\AppData\Local\Temp\ccMxpIDf.s 			page 246


 13225      72697665 
 13225      7200
 13226              	.LASF671:
 13227 1005 72657376 		.ascii	"resvd8C0\000"
 13227      64384330 
 13227      00
 13228              	.LASF708:
 13229 100e 55534243 		.ascii	"USBConfig\000"
 13229      6F6E6669 
 13229      6700
 13230              	.LASF614:
 13231 1018 72657376 		.ascii	"resvdC\000"
 13231      644300
 13232              	.LASF501:
 13233 101f 50574D44 		.ascii	"PWMD2\000"
 13233      3200
 13234              	.LASF502:
 13235 1025 50574D44 		.ascii	"PWMD3\000"
 13235      3300
 13236              	.LASF503:
 13237 102b 50574D44 		.ascii	"PWMD4\000"
 13237      3400
 13238              	.LASF504:
 13239 1031 50574D44 		.ascii	"PWMD5\000"
 13239      3500
 13240              	.LASF512:
 13241 1037 6F717565 		.ascii	"oqueue\000"
 13241      756500
 13242              	.LASF29:
 13243 103e 74726566 		.ascii	"trefs_t\000"
 13243      735F7400 
 13244              	.LASF58:
 13245 1046 705F6D70 		.ascii	"p_mpool\000"
 13245      6F6F6C00 
 13246              	.LASF731:
 13247 104e 464F524D 		.ascii	"FORMAT_BGR565\000"
 13247      41545F42 
 13247      47523536 
 13247      3500
 13248              	.LASF400:
 13249 105c 44414343 		.ascii	"DACConversionGroup\000"
 13249      6F6E7665 
 13249      7273696F 
 13249      6E47726F 
 13249      757000
 13250              	.LASF737:
 13251 106f 666F726D 		.ascii	"format_t\000"
 13251      61745F74 
 13251      00
 13252              	.LASF701:
 13253 1078 696E5F6D 		.ascii	"in_multiplier\000"
 13253      756C7469 
 13253      706C6965 
 13253      7200
 13254              	.LASF325:
 13255 1086 4144435F 		.ascii	"ADC_ERROR\000"
 13255      4552524F 
ARM GAS  C:\Users\PCHAUT~1\AppData\Local\Temp\ccMxpIDf.s 			page 247


 13255      5200
 13256              	.LASF768:
 13257 1090 706F3830 		.ascii	"po8030_set_brightness\000"
 13257      33305F73 
 13257      65745F62 
 13257      72696768 
 13257      746E6573 
 13258              	.LASF27:
 13259 10a6 746D6F64 		.ascii	"tmode_t\000"
 13259      655F7400 
 13260              	.LASF323:
 13261 10ae 4144435F 		.ascii	"ADC_ACTIVE\000"
 13261      41435449 
 13261      564500
 13262              	.LASF106:
 13263 10b9 53515231 		.ascii	"SQR1\000"
 13263      00
 13264              	.LASF107:
 13265 10be 53515232 		.ascii	"SQR2\000"
 13265      00
 13266              	.LASF108:
 13267 10c3 53515233 		.ascii	"SQR3\000"
 13267      00
 13268              	.LASF296:
 13269 10c8 42535252 		.ascii	"BSRR\000"
 13269      00
 13270              	.LASF275:
 13271 10cd 73746D33 		.ascii	"stm32_dma_stream_t\000"
 13271      325F646D 
 13271      615F7374 
 13271      7265616D 
 13271      5F7400
 13272              	.LASF706:
 13273 10e0 72657175 		.ascii	"requests_hook_cb\000"
 13273      65737473 
 13273      5F686F6F 
 13273      6B5F6362 
 13273      00
 13274              	.LASF523:
 13275 10f1 5344435F 		.ascii	"SDC_MODE_8BIT\000"
 13275      4D4F4445 
 13275      5F384249 
 13275      5400
 13276              	.LASF785:
 13277 10ff 706F3830 		.ascii	"po8030_set_qvga\000"
 13277      33305F73 
 13277      65745F71 
 13277      76676100 
 13278              	.LASF684:
 13279 110f 74787369 		.ascii	"txsize\000"
 13279      7A6500
 13280              	.LASF396:
 13281 1116 4441435F 		.ascii	"DAC_DHRM_12BIT_LEFT\000"
 13281      4448524D 
 13281      5F313242 
 13281      49545F4C 
 13281      45465400 
ARM GAS  C:\Users\PCHAUT~1\AppData\Local\Temp\ccMxpIDf.s 			page 248


 13282              	.LASF492:
 13283 112a 70657269 		.ascii	"period\000"
 13283      6F6400
 13284              	.LASF448:
 13285 1131 4932435F 		.ascii	"I2C_LOCKED\000"
 13285      4C4F434B 
 13285      454400
 13286              	.LASF88:
 13287 113c 6973725F 		.ascii	"isr_cnt\000"
 13287      636E7400 
 13288              	.LASF575:
 13289 1144 5553425F 		.ascii	"USB_READY\000"
 13289      52454144 
 13289      5900
 13290              	.LASF520:
 13291 114e 72656164 		.ascii	"readt\000"
 13291      7400
 13292              	.LASF627:
 13293 1154 47525354 		.ascii	"GRSTCTL\000"
 13293      43544C00 
 13294              	.LASF422:
 13295 115c 67707473 		.ascii	"gptstate_t\000"
 13295      74617465 
 13295      5F7400
 13296              	.LASF18:
 13297 1167 696E7438 		.ascii	"int8_t\000"
 13297      5F7400
 13298              	.LASF87:
 13299 116e 70616E69 		.ascii	"panic_msg\000"
 13299      635F6D73 
 13299      6700
 13300              	.LASF546:
 13301 1178 5350495F 		.ascii	"SPI_COMPLETE\000"
 13301      434F4D50 
 13301      4C455445 
 13301      00
 13302              	.LASF169:
 13303 1185 4454494D 		.ascii	"DTIMER\000"
 13303      455200
 13304              	.LASF71:
 13305 118c 725F6E65 		.ascii	"r_newer\000"
 13305      77657200 
 13306              	.LASF592:
 13307 1194 5553425F 		.ascii	"USB_EVENT_STALLED\000"
 13307      4556454E 
 13307      545F5354 
 13307      414C4C45 
 13307      4400
 13308              	.LASF244:
 13309 11a6 63686465 		.ascii	"chdebug_t\000"
 13309      6275675F 
 13309      7400
 13310              	.LASF690:
 13311 11b0 72787369 		.ascii	"rxsize\000"
 13311      7A6500
 13312              	.LASF606:
 13313 11b7 48435453 		.ascii	"HCTSIZ\000"
ARM GAS  C:\Users\PCHAUT~1\AppData\Local\Temp\ccMxpIDf.s 			page 249


 13313      495A00
 13314              	.LASF589:
 13315 11be 5553425F 		.ascii	"USB_EVENT_CONFIGURED\000"
 13315      4556454E 
 13315      545F434F 
 13315      4E464947 
 13315      55524544 
 13316              	.LASF538:
 13317 11d3 64697363 		.ascii	"disconnect\000"
 13317      6F6E6E65 
 13317      637400
 13318              	.LASF793:
 13319 11de 2E2E2F6C 		.ascii	"../lib/e-puck2_main-processor/src/camera/po8030.c\000"
 13319      69622F65 
 13319      2D707563 
 13319      6B325F6D 
 13319      61696E2D 
 13320              	.LASF517:
 13321 1210 70757474 		.ascii	"putt\000"
 13321      00
 13322              	.LASF30:
 13323 1215 74736C69 		.ascii	"tslices_t\000"
 13323      6365735F 
 13323      7400
 13324              	.LASF231:
 13325 121f 63685F74 		.ascii	"ch_timesize\000"
 13325      696D6573 
 13325      697A6500 
 13326              	.LASF571:
 13327 122b 77615F70 		.ascii	"wa_pump\000"
 13327      756D7000 
 13328              	.LASF174:
 13329 1233 4649464F 		.ascii	"FIFOCNT\000"
 13329      434E5400 
 13330              	.LASF256:
 13331 123b 6576656E 		.ascii	"event_source_t\000"
 13331      745F736F 
 13331      75726365 
 13331      5F7400
 13332              	.LASF641:
 13333 124a 72657376 		.ascii	"resvd140\000"
 13333      64313430 
 13333      00
 13334              	.LASF79:
 13335 1253 76745F64 		.ascii	"vt_delta\000"
 13335      656C7461 
 13335      00
 13336              	.LASF195:
 13337 125c 74625F70 		.ascii	"tb_ptr\000"
 13337      747200
 13338              	.LASF399:
 13339 1263 74726967 		.ascii	"trigger\000"
 13339      67657200 
 13340              	.LASF590:
 13341 126b 5553425F 		.ascii	"USB_EVENT_SUSPEND\000"
 13341      4556454E 
 13341      545F5355 
ARM GAS  C:\Users\PCHAUT~1\AppData\Local\Temp\ccMxpIDf.s 			page 250


 13341      5350454E 
 13341      4400
 13342              	.LASF20:
 13343 127d 696E7431 		.ascii	"int16_t\000"
 13343      365F7400 
 13344              	.LASF418:
 13345 1285 4750545F 		.ascii	"GPT_STOP\000"
 13345      53544F50 
 13345      00
 13346              	.LASF114:
 13347 128e 4144435F 		.ascii	"ADC_TypeDef\000"
 13347      54797065 
 13347      44656600 
 13348              	.LASF11:
 13349 129a 73686F72 		.ascii	"short unsigned int\000"
 13349      7420756E 
 13349      7369676E 
 13349      65642069 
 13349      6E7400
 13350              	.LASF460:
 13351 12ad 6F705F6D 		.ascii	"op_mode\000"
 13351      6F646500 
 13352              	.LASF5:
 13353 12b5 7369676E 		.ascii	"signed char\000"
 13353      65642063 
 13353      68617200 
 13354              	.LASF529:
 13355 12c1 63617264 		.ascii	"cardmode\000"
 13355      6D6F6465 
 13355      00
 13356              	.LASF50:
 13357 12ca 705F7072 		.ascii	"p_preempt\000"
 13357      65656D70 
 13357      7400
 13358              	.LASF763:
 13359 12d4 706F3830 		.ascii	"po8030_set_awb\000"
 13359      33305F73 
 13359      65745F61 
 13359      776200
 13360              	.LASF36:
 13361 12e3 75636E74 		.ascii	"ucnt_t\000"
 13361      5F7400
 13362              	.LASF117:
 13363 12ea 54444852 		.ascii	"TDHR\000"
 13363      00
 13364              	.LASF321:
 13365 12ef 4144435F 		.ascii	"ADC_STOP\000"
 13365      53544F50 
 13365      00
 13366              	.LASF583:
 13367 12f8 5553425F 		.ascii	"USB_EP0_RX\000"
 13367      4550305F 
 13367      525800
 13368              	.LASF495:
 13369 1303 70776D6D 		.ascii	"pwmmode_t\000"
 13369      6F64655F 
 13369      7400
ARM GAS  C:\Users\PCHAUT~1\AppData\Local\Temp\ccMxpIDf.s 			page 251


 13370              	.LASF564:
 13371 130d 73746174 		.ascii	"status\000"
 13371      757300
 13372              	.LASF170:
 13373 1314 444C454E 		.ascii	"DLEN\000"
 13373      00
 13374              	.LASF522:
 13375 1319 5344435F 		.ascii	"SDC_MODE_4BIT\000"
 13375      4D4F4445 
 13375      5F344249 
 13375      5400
 13376              	.LASF596:
 13377 1327 55534244 		.ascii	"USBDescriptor\000"
 13377      65736372 
 13377      6970746F 
 13377      7200
 13378              	.LASF549:
 13379 1335 73706963 		.ascii	"spicallback_t\000"
 13379      616C6C62 
 13379      61636B5F 
 13379      7400
 13380              	.LASF565:
 13381 1343 61646472 		.ascii	"address\000"
 13381      65737300 
 13382              	.LASF53:
 13383 134b 705F6D73 		.ascii	"p_msgqueue\000"
 13383      67717565 
 13383      756500
 13384              	.LASF241:
 13385 1356 63665F6F 		.ascii	"cf_off_refs\000"
 13385      66665F72 
 13385      65667300 
 13386              	.LASF533:
 13387 1362 53444343 		.ascii	"SDCConfig\000"
 13387      6F6E6669 
 13387      6700
 13388              	.LASF222:
 13389 136c 6D5F6F77 		.ascii	"m_owner\000"
 13389      6E657200 
 13390              	.LASF99:
 13391 1374 53797374 		.ascii	"SystemCoreClock\000"
 13391      656D436F 
 13391      7265436C 
 13391      6F636B00 
 13392              	.LASF343:
 13393 1384 61646365 		.ascii	"adcerrorcallback_t\000"
 13393      72726F72 
 13393      63616C6C 
 13393      6261636B 
 13393      5F7400
 13394              	.LASF378:
 13395 1397 4441435F 		.ascii	"DAC_ACTIVE\000"
 13395      41435449 
 13395      564500
 13396              	.LASF333:
 13397 13a2 73746174 		.ascii	"state\000"
 13397      6500
ARM GAS  C:\Users\PCHAUT~1\AppData\Local\Temp\ccMxpIDf.s 			page 252


 13398              	.LASF733:
 13399 13a8 464F524D 		.ascii	"FORMAT_RGB444\000"
 13399      41545F52 
 13399      47423434 
 13399      3400
 13400              	.LASF229:
 13401 13b6 63685F76 		.ascii	"ch_version\000"
 13401      65727369 
 13401      6F6E00
 13402              	.LASF530:
 13403 13c1 7364696F 		.ascii	"sdio\000"
 13403      00
 13404              	.LASF140:
 13405 13c6 53575452 		.ascii	"SWTRIGR\000"
 13405      49475200 
 13406              	.LASF582:
 13407 13ce 5553425F 		.ascii	"USB_EP0_WAITING_STS\000"
 13407      4550305F 
 13407      57414954 
 13407      494E475F 
 13407      53545300 
 13408              	.LASF161:
 13409 13e2 4932435F 		.ascii	"I2C_TypeDef\000"
 13409      54797065 
 13409      44656600 
 13410              	.LASF121:
 13411 13ee 52444852 		.ascii	"RDHR\000"
 13411      00
 13412              	.LASF726:
 13413 13f3 464F524D 		.ascii	"FORMAT_GBRG\000"
 13413      41545F47 
 13413      42524700 
 13414              	.LASF432:
 13415 13ff 444D4152 		.ascii	"DMAR\000"
 13415      00
 13416              	.LASF438:
 13417 1404 63616C6C 		.ascii	"callback\000"
 13417      6261636B 
 13417      00
 13418              	.LASF783:
 13419 140d 706F3830 		.ascii	"po8030_set_size\000"
 13419      33305F73 
 13419      65745F73 
 13419      697A6500 
 13420              	.LASF92:
 13421 141d 63685F73 		.ascii	"ch_system\000"
 13421      79737465 
 13421      6D00
 13422              	.LASF162:
 13423 1427 504F5745 		.ascii	"POWER\000"
 13423      5200
 13424              	.LASF90:
 13425 142d 74726163 		.ascii	"trace_buffer\000"
 13425      655F6275 
 13425      66666572 
 13425      00
 13426              	.LASF397:
ARM GAS  C:\Users\PCHAUT~1\AppData\Local\Temp\ccMxpIDf.s 			page 253


 13427 143a 4441435F 		.ascii	"DAC_DHRM_8BIT_RIGHT\000"
 13427      4448524D 
 13427      5F384249 
 13427      545F5249 
 13427      47485400 
 13428              	.LASF417:
 13429 144e 4750545F 		.ascii	"GPT_UNINIT\000"
 13429      554E494E 
 13429      495400
 13430              	.LASF217:
 13431 1459 63685F73 		.ascii	"ch_semaphore\000"
 13431      656D6170 
 13431      686F7265 
 13431      00
 13432              	.LASF790:
 13433 1466 706F3830 		.ascii	"po8030_read_id\000"
 13433      33305F72 
 13433      6561645F 
 13433      696400
 13434              	.LASF720:
 13435 1475 53657269 		.ascii	"SerialUSBDriverVMT\000"
 13435      616C5553 
 13435      42447269 
 13435      76657256 
 13435      4D5400
 13436              	.LASF615:
 13437 1488 44494550 		.ascii	"DIEPTSIZ\000"
 13437      5453495A 
 13437      00
 13438              	.LASF348:
 13439 1491 736D7072 		.ascii	"smpr1\000"
 13439      3100
 13440              	.LASF349:
 13441 1497 736D7072 		.ascii	"smpr2\000"
 13441      3200
 13442              	.LASF64:
 13443 149d 74687265 		.ascii	"threads_queue_t\000"
 13443      6164735F 
 13443      71756575 
 13443      655F7400 
 13444              	.LASF286:
 13445 14ad 626C6B73 		.ascii	"blkstate_t\000"
 13445      74617465 
 13445      5F7400
 13446              	.LASF51:
 13447 14b8 705F7469 		.ascii	"p_time\000"
 13447      6D6500
 13448              	.LASF49:
 13449 14bf 705F7265 		.ascii	"p_refs\000"
 13449      667300
 13450              	.LASF693:
 13451 14c6 65705F6D 		.ascii	"ep_mode\000"
 13451      6F646500 
 13452              	.LASF496:
 13453 14ce 70776D63 		.ascii	"pwmchannel_t\000"
 13453      68616E6E 
 13453      656C5F74 
ARM GAS  C:\Users\PCHAUT~1\AppData\Local\Temp\ccMxpIDf.s 			page 254


 13453      00
 13454              	.LASF116:
 13455 14db 54444C52 		.ascii	"TDLR\000"
 13455      00
 13456              	.LASF13:
 13457 14e0 6C6F6E67 		.ascii	"long int\000"
 13457      20696E74 
 13457      00
 13458              	.LASF95:
 13459 14e9 6D61696E 		.ascii	"mainthread\000"
 13459      74687265 
 13459      616400
 13460              	.LASF561:
 13461 14f4 6570306E 		.ascii	"ep0n\000"
 13461      00
 13462              	.LASF674:
 13463 14f9 72657376 		.ascii	"resvdE04\000"
 13463      64453034 
 13463      00
 13464              	.LASF221:
 13465 1502 6D5F7175 		.ascii	"m_queue\000"
 13465      65756500 
 13466              	.LASF385:
 13467 150a 646D6169 		.ascii	"dmairqprio\000"
 13467      72717072 
 13467      696F00
 13468              	.LASF423:
 13469 1515 47505444 		.ascii	"GPTDriver\000"
 13469      72697665 
 13469      7200
 13470              	.LASF526:
 13471 151f 73646366 		.ascii	"sdcflags_t\000"
 13471      6C616773 
 13471      5F7400
 13472              	.LASF315:
 13473 152a 50484461 		.ascii	"PHData\000"
 13473      746100
 13474              	.LASF318:
 13475 1531 696F706F 		.ascii	"ioportid_t\000"
 13475      72746964 
 13475      5F7400
 13476              	.LASF776:
 13477 153c 7363616C 		.ascii	"scale_th\000"
 13477      655F7468 
 13477      00
 13478              	.LASF356:
 13479 1545 41444344 		.ascii	"ADCD1\000"
 13479      3100
 13480              	.LASF357:
 13481 154b 41444344 		.ascii	"ADCD2\000"
 13481      3200
 13482              	.LASF358:
 13483 1551 41444344 		.ascii	"ADCD3\000"
 13483      3300
 13484              	.LASF642:
 13485 1557 48434647 		.ascii	"HCFG\000"
 13485      00
ARM GAS  C:\Users\PCHAUT~1\AppData\Local\Temp\ccMxpIDf.s 			page 255


 13486              	.LASF341:
 13487 155c 646D616D 		.ascii	"dmamode\000"
 13487      6F646500 
 13488              	.LASF203:
 13489 1564 63756D75 		.ascii	"cumulative\000"
 13489      6C617469 
 13489      766500
 13490              	.LASF553:
 13491 156f 53504944 		.ascii	"SPID1\000"
 13491      3100
 13492              	.LASF518:
 13493 1575 67657474 		.ascii	"gett\000"
 13493      00
 13494              	.LASF213:
 13495 157a 77747472 		.ascii	"wttrp\000"
 13495      7000
 13496              	.LASF264:
 13497 1580 715F7264 		.ascii	"q_rdptr\000"
 13497      70747200 
 13498              	.LASF187:
 13499 1588 636F6E74 		.ascii	"context\000"
 13499      65787400 
 13500              	.LASF515:
 13501 1590 77726974 		.ascii	"write\000"
 13501      6500
 13502              	.LASF511:
 13503 1596 69717565 		.ascii	"iqueue\000"
 13503      756500
 13504              	.LASF695:
 13505 159d 696E5F63 		.ascii	"in_cb\000"
 13505      6200
 13506              	.LASF620:
 13507 15a3 444F4550 		.ascii	"DOEPINT\000"
 13507      494E5400 
 13508              	.LASF202:
 13509 15ab 6C617374 		.ascii	"last\000"
 13509      00
 13510              	.LASF724:
 13511 15b0 464F524D 		.ascii	"FORMAT_YCRYCB\000"
 13511      41545F59 
 13511      43525943 
 13511      4200
 13512              	.LASF297:
 13513 15be 4C434B52 		.ascii	"LCKR\000"
 13513      00
 13514              	.LASF508:
 13515 15c3 73647374 		.ascii	"sdstate_t\000"
 13515      6174655F 
 13515      7400
 13516              	.LASF23:
 13517 15cd 75696E74 		.ascii	"uint32_t\000"
 13517      33325F74 
 13517      00
 13518              	.LASF382:
 13519 15d6 64617461 		.ascii	"dataoffset\000"
 13519      6F666673 
 13519      657400
ARM GAS  C:\Users\PCHAUT~1\AppData\Local\Temp\ccMxpIDf.s 			page 256


 13520              	.LASF284:
 13521 15e1 424C4B5F 		.ascii	"BLK_WRITING\000"
 13521      57524954 
 13521      494E4700 
 13522              	.LASF120:
 13523 15ed 52444C52 		.ascii	"RDLR\000"
 13523      00
 13524              	.LASF2:
 13525 15f2 6C6F6E67 		.ascii	"long double\000"
 13525      20646F75 
 13525      626C6500 
 13526              	.LASF185:
 13527 15fe 72656761 		.ascii	"regarm_t\000"
 13527      726D5F74 
 13527      00
 13528              	.LASF777:
 13529 1607 7363616C 		.ascii	"scale_th_f\000"
 13529      655F7468 
 13529      5F6600
 13530              	.LASF33:
 13531 1612 6576656E 		.ascii	"eventmask_t\000"
 13531      746D6173 
 13531      6B5F7400 
 13532              	.LASF336:
 13533 161e 64657074 		.ascii	"depth\000"
 13533      6800
 13534              	.LASF134:
 13535 1624 46464131 		.ascii	"FFA1R\000"
 13535      5200
 13536              	.LASF576:
 13537 162a 5553425F 		.ascii	"USB_SELECTED\000"
 13537      53454C45 
 13537      43544544 
 13537      00
 13538              	.LASF15:
 13539 1637 6C6F6E67 		.ascii	"long unsigned int\000"
 13539      20756E73 
 13539      69676E65 
 13539      6420696E 
 13539      7400
 13540              	.LASF475:
 13541 1649 4932535F 		.ascii	"I2S_ACTIVE\000"
 13541      41435449 
 13541      564500
 13542              	.LASF419:
 13543 1654 4750545F 		.ascii	"GPT_READY\000"
 13543      52454144 
 13543      5900
 13544              	.LASF381:
 13545 165e 64616373 		.ascii	"dacstate_t\000"
 13545      74617465 
 13545      5F7400
 13546              	.LASF190:
 13547 1669 73655F74 		.ascii	"se_tp\000"
 13547      7000
 13548              	.LASF263:
 13549 166f 715F7772 		.ascii	"q_wrptr\000"
ARM GAS  C:\Users\PCHAUT~1\AppData\Local\Temp\ccMxpIDf.s 			page 257


 13549      70747200 
 13550              	.LASF389:
 13551 1677 64616373 		.ascii	"dacsample_t\000"
 13551      616D706C 
 13551      655F7400 
 13552              	.LASF588:
 13553 1683 5553425F 		.ascii	"USB_EVENT_ADDRESS\000"
 13553      4556454E 
 13553      545F4144 
 13553      44524553 
 13553      5300
 13554              	.LASF483:
 13555 1695 69327363 		.ascii	"i2scfgr\000"
 13555      66677200 
 13556              	.LASF711:
 13557 169d 5344555F 		.ascii	"SDU_STOP\000"
 13557      53544F50 
 13557      00
 13558              	.LASF164:
 13559 16a6 52455350 		.ascii	"RESPCMD\000"
 13559      434D4400 
 13560              	.LASF368:
 13561 16ae 72786675 		.ascii	"rxfull_event\000"
 13561      6C6C5F65 
 13561      76656E74 
 13561      00
 13562              	.LASF593:
 13563 16bb 75736265 		.ascii	"usbevent_t\000"
 13563      76656E74 
 13563      5F7400
 13564              	.LASF225:
 13565 16c6 63686172 		.ascii	"char\000"
 13565      00
 13566              	.LASF365:
 13567 16cb 43414E43 		.ascii	"CANConfig\000"
 13567      6F6E6669 
 13567      6700
 13568              	.LASF312:
 13569 16d5 50454461 		.ascii	"PEData\000"
 13569      746100
 13570              	.LASF68:
 13571 16dc 725F7175 		.ascii	"r_queue\000"
 13571      65756500 
 13572              	.LASF780:
 13573 16e4 696D6773 		.ascii	"imgsize\000"
 13573      697A6500 
 13574              	.LASF493:
 13575 16ec 656E6162 		.ascii	"enabled\000"
 13575      6C656400 
 13576              	.LASF390:
 13577 16f4 4441435F 		.ascii	"DAC_ERR_DMAFAILURE\000"
 13577      4552525F 
 13577      444D4146 
 13577      41494C55 
 13577      524500
 13578              	.LASF632:
 13579 1707 47525846 		.ascii	"GRXFSIZ\000"
ARM GAS  C:\Users\PCHAUT~1\AppData\Local\Temp\ccMxpIDf.s 			page 258


 13579      53495A00 
 13580              	.LASF539:
 13581 170f 73796E63 		.ascii	"sync\000"
 13581      00
 13582              	.LASF513:
 13583 1714 75736172 		.ascii	"usart\000"
 13583      7400
 13584              	.LASF740:
 13585 171a 53495A45 		.ascii	"SIZE_QQVGA\000"
 13585      5F515156 
 13585      474100
 13586              	.LASF525:
 13587 1725 7364636D 		.ascii	"sdcmode_t\000"
 13587      6F64655F 
 13587      7400
 13588              	.LASF266:
 13589 172f 715F6C69 		.ascii	"q_link\000"
 13589      6E6B00
 13590              	.LASF653:
 13591 1736 44434647 		.ascii	"DCFG\000"
 13591      00
 13592              	.LASF663:
 13593 173b 44564255 		.ascii	"DVBUSDIS\000"
 13593      53444953 
 13593      00
 13594              	.LASF729:
 13595 1744 464F524D 		.ascii	"FORMAT_RGB565\000"
 13595      41545F52 
 13595      47423536 
 13595      3500
 13596              	.LASF629:
 13597 1752 47494E54 		.ascii	"GINTMSK\000"
 13597      4D534B00 
 13598              	.LASF634:
 13599 175a 484E5054 		.ascii	"HNPTXSTS\000"
 13599      58535453 
 13599      00
 13600              	.LASF566:
 13601 1763 636F6E66 		.ascii	"configuration\000"
 13601      69677572 
 13601      6174696F 
 13601      6E00
 13602              	.LASF727:
 13603 1771 464F524D 		.ascii	"FORMAT_GRBG\000"
 13603      41545F47 
 13603      52424700 
 13604              	.LASF772:
 13605 177d 6175746F 		.ascii	"auto_cw_x1\000"
 13605      5F63775F 
 13605      783100
 13606              	.LASF307:
 13607 1788 73746D33 		.ascii	"stm32_gpio_setup_t\000"
 13607      325F6770 
 13607      696F5F73 
 13607      65747570 
 13607      5F7400
 13608              	.LASF276:
ARM GAS  C:\Users\PCHAUT~1\AppData\Local\Temp\ccMxpIDf.s 			page 259


 13609 179b 5F73746D 		.ascii	"_stm32_dma_streams\000"
 13609      33325F64 
 13609      6D615F73 
 13609      74726561 
 13609      6D7300
 13610              	.LASF142:
 13611 17ae 44485231 		.ascii	"DHR12L1\000"
 13611      324C3100 
 13612              	.LASF145:
 13613 17b6 44485231 		.ascii	"DHR12L2\000"
 13613      324C3200 
 13614              	.LASF524:
 13615 17be 73646362 		.ascii	"sdcbusmode_t\000"
 13615      75736D6F 
 13615      64655F74 
 13615      00
 13616              	.LASF749:
 13617 17cb 63757272 		.ascii	"curr_format\000"
 13617      5F666F72 
 13617      6D617400 
 13618              	.LASF148:
 13619 17d7 44485231 		.ascii	"DHR12LD\000"
 13619      324C4400 
 13620              	.LASF342:
 13621 17df 61646363 		.ascii	"adccallback_t\000"
 13621      616C6C62 
 13621      61636B5F 
 13621      7400
 13622              	.LASF46:
 13623 17ed 705F7374 		.ascii	"p_stklimit\000"
 13623      6B6C696D 
 13623      697400
 13624              	.LASF35:
 13625 17f8 636E745F 		.ascii	"cnt_t\000"
 13625      7400
 13626              	.LASF775:
 13627 17fe 6175746F 		.ascii	"auto_cw_y2\000"
 13627      5F63775F 
 13627      793200
 13628              	.LASF408:
 13629 1809 65787473 		.ascii	"extstate_t\000"
 13629      74617465 
 13629      5F7400
 13630              	.LASF789:
 13631 1814 62616E6B 		.ascii	"bank\000"
 13631      00
 13632              	.LASF581:
 13633 1819 5553425F 		.ascii	"USB_EP0_WAITING_TX0\000"
 13633      4550305F 
 13633      57414954 
 13633      494E475F 
 13633      54583000 
 13634              	.LASF560:
 13635 182d 6570306E 		.ascii	"ep0next\000"
 13635      65787400 
 13636              	.LASF610:
 13637 1835 73746D33 		.ascii	"stm32_otg_host_chn_t\000"
ARM GAS  C:\Users\PCHAUT~1\AppData\Local\Temp\ccMxpIDf.s 			page 260


 13637      325F6F74 
 13637      675F686F 
 13637      73745F63 
 13637      686E5F74 
 13638              	.LASF782:
 13639 184a 706F3830 		.ascii	"po8030_set_scale_buffer_size\000"
 13639      33305F73 
 13639      65745F73 
 13639      63616C65 
 13639      5F627566 
 13640              	.LASF299:
 13641 1867 41465248 		.ascii	"AFRH\000"
 13641      00
 13642              	.LASF298:
 13643 186c 4146524C 		.ascii	"AFRL\000"
 13643      00
 13644              	.LASF732:
 13645 1871 464F524D 		.ascii	"FORMAT_BGR565_BYTE_SWAP\000"
 13645      41545F42 
 13645      47523536 
 13645      355F4259 
 13645      54455F53 
 13646              	.LASF242:
 13647 1889 63665F6F 		.ascii	"cf_off_preempt\000"
 13647      66665F70 
 13647      7265656D 
 13647      707400
 13648              	.LASF379:
 13649 1898 4441435F 		.ascii	"DAC_COMPLETE\000"
 13649      434F4D50 
 13649      4C455445 
 13649      00
 13650              	.LASF619:
 13651 18a5 444F4550 		.ascii	"DOEPCTL\000"
 13651      43544C00 
 13652              	.LASF605:
 13653 18ad 4843494E 		.ascii	"HCINTMSK\000"
 13653      544D534B 
 13653      00
 13654              	.LASF334:
 13655 18b6 636F6E66 		.ascii	"config\000"
 13655      696700
 13656              	.LASF442:
 13657 18bd 47505444 		.ascii	"GPTD11\000"
 13657      313100
 13658              	.LASF280:
 13659 18c4 424C4B5F 		.ascii	"BLK_CONNECTING\000"
 13659      434F4E4E 
 13659      45435449 
 13659      4E4700
 13660              	.LASF375:
 13661 18d3 4441435F 		.ascii	"DAC_UNINIT\000"
 13661      554E494E 
 13661      495400
 13662              	.LASF328:
 13663 18de 6164635F 		.ascii	"adc_channels_num_t\000"
 13663      6368616E 
ARM GAS  C:\Users\PCHAUT~1\AppData\Local\Temp\ccMxpIDf.s 			page 261


 13663      6E656C73 
 13663      5F6E756D 
 13663      5F7400
 13664              	.LASF74:
 13665 18f1 76746675 		.ascii	"vtfunc_t\000"
 13665      6E635F74 
 13665      00
 13666              	.LASF122:
 13667 18fa 43414E5F 		.ascii	"CAN_FIFOMailBox_TypeDef\000"
 13667      4649464F 
 13667      4D61696C 
 13667      426F785F 
 13667      54797065 
 13668              	.LASF152:
 13669 1912 4441435F 		.ascii	"DAC_TypeDef\000"
 13669      54797065 
 13669      44656600 
 13670              	.LASF212:
 13671 191e 77746F62 		.ascii	"wtobjp\000"
 13671      6A7000
 13672              	.LASF395:
 13673 1925 4441435F 		.ascii	"DAC_DHRM_12BIT_RIGHT\000"
 13673      4448524D 
 13673      5F313242 
 13673      49545F52 
 13673      49474854 
 13674              	.LASF57:
 13675 193a 705F7265 		.ascii	"p_realprio\000"
 13675      616C7072 
 13675      696F00
 13676              	.LASF528:
 13677 1945 63617061 		.ascii	"capacity\000"
 13677      63697479 
 13677      00
 13678              	.LASF719:
 13679 194e 53657269 		.ascii	"SerialUSBConfig\000"
 13679      616C5553 
 13679      42436F6E 
 13679      66696700 
 13680              	.LASF265:
 13681 195e 715F6E6F 		.ascii	"q_notify\000"
 13681      74696679 
 13681      00
 13682              	.LASF215:
 13683 1967 77746D74 		.ascii	"wtmtxp\000"
 13683      787000
 13684              	.LASF692:
 13685 196e 5553424F 		.ascii	"USBOutEndpointState\000"
 13685      7574456E 
 13685      64706F69 
 13685      6E745374 
 13685      61746500 
 13686              	.LASF649:
 13687 1982 72657376 		.ascii	"resvd41C\000"
 13687      64343143 
 13687      00
 13688              	.LASF119:
ARM GAS  C:\Users\PCHAUT~1\AppData\Local\Temp\ccMxpIDf.s 			page 262


 13689 198b 52445452 		.ascii	"RDTR\000"
 13689      00
 13690              	.LASF288:
 13691 1990 626C6B5F 		.ascii	"blk_num\000"
 13691      6E756D00 
 13692              	.LASF759:
 13693 1998 706F3830 		.ascii	"po8030_set_exposure\000"
 13693      33305F73 
 13693      65745F65 
 13693      78706F73 
 13693      75726500 
 13694              	.LASF796:
 13695 19ac 706F3830 		.ascii	"po8030_start\000"
 13695      33305F73 
 13695      74617274 
 13695      00
 13696              	.LASF587:
 13697 19b9 5553425F 		.ascii	"USB_EVENT_RESET\000"
 13697      4556454E 
 13697      545F5245 
 13697      53455400 
 13698              	.LASF725:
 13699 19c9 464F524D 		.ascii	"FORMAT_RGGB\000"
 13699      41545F52 
 13699      47474200 
 13700              	.LASF67:
 13701 19d5 63685F72 		.ascii	"ch_ready_list\000"
 13701      65616479 
 13701      5F6C6973 
 13701      7400
 13702              	.LASF295:
 13703 19e3 50555044 		.ascii	"PUPDR\000"
 13703      5200
 13704              	.LASF12:
 13705 19e9 5F5F696E 		.ascii	"__int32_t\000"
 13705      7433325F 
 13705      7400
 13706              	.LASF14:
 13707 19f3 5F5F7569 		.ascii	"__uint32_t\000"
 13707      6E743332 
 13707      5F7400
 13708              	.LASF86:
 13709 19fe 63685F73 		.ascii	"ch_system_debug\000"
 13709      79737465 
 13709      6D5F6465 
 13709      62756700 
 13710              	.LASF660:
 13711 1a0e 4441494E 		.ascii	"DAINTMSK\000"
 13711      544D534B 
 13711      00
 13712              	.LASF760:
 13713 1a17 706F3830 		.ascii	"po8030_set_ae\000"
 13713      33305F73 
 13713      65745F61 
 13713      6500
 13714              	.LASF415:
 13715 1a25 45585443 		.ascii	"EXTConfig\000"
ARM GAS  C:\Users\PCHAUT~1\AppData\Local\Temp\ccMxpIDf.s 			page 263


 13715      6F6E6669 
 13715      6700
 13716              	.LASF260:
 13717 1a2f 715F636F 		.ascii	"q_counter\000"
 13717      756E7465 
 13717      7200
 13718              	.LASF579:
 13719 1a39 5553425F 		.ascii	"USB_EP0_WAITING_SETUP\000"
 13719      4550305F 
 13719      57414954 
 13719      494E475F 
 13719      53455455 
 13720              	.LASF283:
 13721 1a4f 424C4B5F 		.ascii	"BLK_READING\000"
 13721      52454144 
 13721      494E4700 
 13722              	.LASF305:
 13723 1a5b 6166726C 		.ascii	"afrl\000"
 13723      00
 13724              	.LASF682:
 13725 1a60 71756575 		.ascii	"queue\000"
 13725      6500
 13726              	.LASF562:
 13727 1a66 65703065 		.ascii	"ep0endcb\000"
 13727      6E646362 
 13727      00
 13728              	.LASF273:
 13729 1a6f 73656C66 		.ascii	"selfindex\000"
 13729      696E6465 
 13729      7800
 13730              	.LASF246:
 13731 1a79 6D757465 		.ascii	"mutex_t\000"
 13731      785F7400 
 13732              	.LASF55:
 13733 1a81 705F6570 		.ascii	"p_epending\000"
 13733      656E6469 
 13733      6E6700
 13734              	.LASF292:
 13735 1a8c 4D4F4445 		.ascii	"MODER\000"
 13735      5200
 13736              	.LASF735:
 13737 1a92 464F524D 		.ascii	"FORMAT_DPC_BAYER\000"
 13737      41545F44 
 13737      50435F42 
 13737      41594552 
 13737      00
 13738              	.LASF747:
 13739 1aa3 77696474 		.ascii	"width\000"
 13739      6800
 13740              	.LASF476:
 13741 1aa9 4932535F 		.ascii	"I2S_COMPLETE\000"
 13741      434F4D50 
 13741      4C455445 
 13741      00
 13742              	.LASF730:
 13743 1ab6 464F524D 		.ascii	"FORMAT_RGB565_BYTE_SWAP\000"
 13743      41545F52 
ARM GAS  C:\Users\PCHAUT~1\AppData\Local\Temp\ccMxpIDf.s 			page 264


 13743      47423536 
 13743      355F4259 
 13743      54455F53 
 13744              	.LASF126:
 13745 1ace 52455345 		.ascii	"RESERVED0\000"
 13745      52564544 
 13745      3000
 13746              	.LASF129:
 13747 1ad8 52455345 		.ascii	"RESERVED1\000"
 13747      52564544 
 13747      3100
 13748              	.LASF131:
 13749 1ae2 52455345 		.ascii	"RESERVED2\000"
 13749      52564544 
 13749      3200
 13750              	.LASF133:
 13751 1aec 52455345 		.ascii	"RESERVED3\000"
 13751      52564544 
 13751      3300
 13752              	.LASF135:
 13753 1af6 52455345 		.ascii	"RESERVED4\000"
 13753      52564544 
 13753      3400
 13754              	.LASF137:
 13755 1b00 52455345 		.ascii	"RESERVED5\000"
 13755      52564544 
 13755      3500
 13756              	.LASF703:
 13757 1b0a 55534245 		.ascii	"USBEndpointConfig\000"
 13757      6E64706F 
 13757      696E7443 
 13757      6F6E6669 
 13757      6700
 13758              	.LASF141:
 13759 1b1c 44485231 		.ascii	"DHR12R1\000"
 13759      32523100 
 13760              	.LASF144:
 13761 1b24 44485231 		.ascii	"DHR12R2\000"
 13761      32523200 
 13762              	.LASF411:
 13763 1b2c 65787463 		.ascii	"extcallback_t\000"
 13763      616C6C62 
 13763      61636B5F 
 13763      7400
 13764              	.LASF367:
 13765 1b3a 72787175 		.ascii	"rxqueue\000"
 13765      65756500 
 13766              	.LASF189:
 13767 1b42 73655F74 		.ascii	"se_time\000"
 13767      696D6500 
 13768              	.LASF651:
 13769 1b4a 72657376 		.ascii	"resvd444\000"
 13769      64343434 
 13769      00
 13770              	.LASF319:
 13771 1b53 70616C5F 		.ascii	"pal_default_config\000"
 13771      64656661 
ARM GAS  C:\Users\PCHAUT~1\AppData\Local\Temp\ccMxpIDf.s 			page 265


 13771      756C745F 
 13771      636F6E66 
 13771      696700
 13772              	.LASF337:
 13773 1b66 67727070 		.ascii	"grpp\000"
 13773      00
 13774              	.LASF147:
 13775 1b6b 44485231 		.ascii	"DHR12RD\000"
 13775      32524400 
 13776              	.LASF250:
 13777 1b73 656C5F6C 		.ascii	"el_listener\000"
 13777      69737465 
 13777      6E657200 
 13778              	.LASF681:
 13779 1b7f 6C696E65 		.ascii	"linear\000"
 13779      617200
 13780              	.LASF435:
 13781 1b86 73746D33 		.ascii	"stm32_tim_t\000"
 13781      325F7469 
 13781      6D5F7400 
 13782              	.LASF766:
 13783 1b92 686F7269 		.ascii	"horizontal\000"
 13783      7A6F6E74 
 13783      616C00
 13784              	.LASF784:
 13785 1b9d 706F3830 		.ascii	"po8030_set_qqvga\000"
 13785      33305F73 
 13785      65745F71 
 13785      71766761 
 13785      00
 13786              	.LASF722:
 13787 1bae 464F524D 		.ascii	"FORMAT_CRYCBY\000"
 13787      41545F43 
 13787      52594342 
 13787      5900
 13788              	.LASF69:
 13789 1bbc 725F7072 		.ascii	"r_prio\000"
 13789      696F00
 13790              	.LASF568:
 13791 1bc3 706D6E65 		.ascii	"pmnext\000"
 13791      787400
 13792              	.LASF98:
 13793 1bca 49544D5F 		.ascii	"ITM_RxBuffer\000"
 13793      52784275 
 13793      66666572 
 13793      00
 13794              	.LASF289:
 13795 1bd7 426C6F63 		.ascii	"BlockDeviceInfo\000"
 13795      6B446576 
 13795      69636549 
 13795      6E666F00 
 13796              	.LASF17:
 13797 1be7 6C6F6E67 		.ascii	"long long unsigned int\000"
 13797      206C6F6E 
 13797      6720756E 
 13797      7369676E 
 13797      65642069 
ARM GAS  C:\Users\PCHAUT~1\AppData\Local\Temp\ccMxpIDf.s 			page 266


 13798              	.LASF176:
 13799 1bfe 5344494F 		.ascii	"SDIO_TypeDef\000"
 13799      5F547970 
 13799      65446566 
 13799      00
 13800              	.LASF198:
 13801 1c0b 6F666673 		.ascii	"offset\000"
 13801      657400
 13802              	.LASF723:
 13803 1c12 464F524D 		.ascii	"FORMAT_YCBYCR\000"
 13803      41545F59 
 13803      43425943 
 13803      5200
 13804              	.LASF153:
 13805 1c20 4E445452 		.ascii	"NDTR\000"
 13805      00
 13806              	.LASF255:
 13807 1c25 65735F6E 		.ascii	"es_next\000"
 13807      65787400 
 13808              	.LASF764:
 13809 1c2d 706F3830 		.ascii	"po8030_set_mirror\000"
 13809      33305F73 
 13809      65745F6D 
 13809      6972726F 
 13809      7200
 13810              	.LASF617:
 13811 1c3f 72657376 		.ascii	"resvd1C\000"
 13811      64314300 
 13812              	.LASF97:
 13813 1c47 69646C65 		.ascii	"idle_thread_wa\000"
 13813      5F746872 
 13813      6561645F 
 13813      776100
 13814              	.LASF613:
 13815 1c56 44494550 		.ascii	"DIEPINT\000"
 13815      494E5400 
 13816              	.LASF182:
 13817 1c5e 5350495F 		.ascii	"SPI_TypeDef\000"
 13817      54797065 
 13817      44656600 
 13818              	.LASF80:
 13819 1c6a 76745F66 		.ascii	"vt_func\000"
 13819      756E6300 
 13820              	.LASF426:
 13821 1c72 534D4352 		.ascii	"SMCR\000"
 13821      00
 13822              	.LASF658:
 13823 1c77 444F4550 		.ascii	"DOEPMSK\000"
 13823      4D534B00 
 13824              	.LASF743:
 13825 1c7f 53554253 		.ascii	"SUBSAMPLING_X2\000"
 13825      414D504C 
 13825      494E475F 
 13825      583200
 13826              	.LASF744:
 13827 1c8e 53554253 		.ascii	"SUBSAMPLING_X4\000"
 13827      414D504C 
ARM GAS  C:\Users\PCHAUT~1\AppData\Local\Temp\ccMxpIDf.s 			page 267


 13827      494E475F 
 13827      583400
 13828              	.LASF76:
 13829 1c9d 63685F76 		.ascii	"ch_virtual_timer\000"
 13829      69727475 
 13829      616C5F74 
 13829      696D6572 
 13829      00
 13830              	.LASF48:
 13831 1cae 705F666C 		.ascii	"p_flags\000"
 13831      61677300 
 13832              	.LASF216:
 13833 1cb6 65776D61 		.ascii	"ewmask\000"
 13833      736B00
 13834              	.LASF252:
 13835 1cbd 656C5F66 		.ascii	"el_flags\000"
 13835      6C616773 
 13835      00
 13836              	.LASF254:
 13837 1cc6 6576656E 		.ascii	"event_source\000"
 13837      745F736F 
 13837      75726365 
 13837      00
 13838              	.LASF56:
 13839 1cd3 705F6D74 		.ascii	"p_mtxlist\000"
 13839      786C6973 
 13839      7400
 13840              	.LASF374:
 13841 1cdd 43414E44 		.ascii	"CAND1\000"
 13841      3100
 13842              	.LASF132:
 13843 1ce3 46533152 		.ascii	"FS1R\000"
 13843      00
 13844              	.LASF28:
 13845 1ce8 74737461 		.ascii	"tstate_t\000"
 13845      74655F74 
 13845      00
 13846              	.LASF548:
 13847 1cf1 53504944 		.ascii	"SPIDriver\000"
 13847      72697665 
 13847      7200
 13848              	.LASF659:
 13849 1cfb 4441494E 		.ascii	"DAINT\000"
 13849      5400
 13850              	.LASF552:
 13851 1d01 53504943 		.ascii	"SPIConfig\000"
 13851      6F6E6669 
 13851      6700
 13852              	.LASF304:
 13853 1d0b 70757064 		.ascii	"pupdr\000"
 13853      7200
 13854              	.LASF394:
 13855 1d11 64616365 		.ascii	"dacerrorcallback_t\000"
 13855      72726F72 
 13855      63616C6C 
 13855      6261636B 
 13855      5F7400
ARM GAS  C:\Users\PCHAUT~1\AppData\Local\Temp\ccMxpIDf.s 			page 268


 13856              	.LASF555:
 13857 1d24 7472616E 		.ascii	"transmitting\000"
 13857      736D6974 
 13857      74696E67 
 13857      00
 13858              	.LASF414:
 13859 1d31 6368616E 		.ascii	"channels\000"
 13859      6E656C73 
 13859      00
 13860              	.LASF163:
 13861 1d3a 434C4B43 		.ascii	"CLKCR\000"
 13861      5200
 13862              	.LASF527:
 13863 1d40 53444344 		.ascii	"SDCDriver\000"
 13863      72697665 
 13863      7200
 13864              	.LASF45:
 13865 1d4a 705F6E61 		.ascii	"p_name\000"
 13865      6D6500
 13866              	.LASF509:
 13867 1d51 53657269 		.ascii	"SerialDriver\000"
 13867      616C4472 
 13867      69766572 
 13867      00
 13868              	.LASF110:
 13869 1d5e 4A445231 		.ascii	"JDR1\000"
 13869      00
 13870              	.LASF111:
 13871 1d63 4A445232 		.ascii	"JDR2\000"
 13871      00
 13872              	.LASF112:
 13873 1d68 4A445233 		.ascii	"JDR3\000"
 13873      00
 13874              	.LASF113:
 13875 1d6d 4A445234 		.ascii	"JDR4\000"
 13875      00
 13876              	.LASF621:
 13877 1d72 444F4550 		.ascii	"DOEPTSIZ\000"
 13877      5453495A 
 13877      00
 13878              	.LASF322:
 13879 1d7b 4144435F 		.ascii	"ADC_READY\000"
 13879      52454144 
 13879      5900
 13880              	.LASF779:
 13881 1d85 706F3830 		.ascii	"po8030_config\000"
 13881      33305F63 
 13881      6F6E6669 
 13881      6700
 13882              	.LASF82:
 13883 1d93 76697274 		.ascii	"virtual_timers_list_t\000"
 13883      75616C5F 
 13883      74696D65 
 13883      72735F6C 
 13883      6973745F 
 13884              	.LASF645:
 13885 1da9 72657376 		.ascii	"resvd40C\000"
ARM GAS  C:\Users\PCHAUT~1\AppData\Local\Temp\ccMxpIDf.s 			page 269


 13885      64343043 
 13885      00
 13886              	.LASF344:
 13887 1db2 63697263 		.ascii	"circular\000"
 13887      756C6172 
 13887      00
 13888              	.LASF477:
 13889 1dbb 69327373 		.ascii	"i2sstate_t\000"
 13889      74617465 
 13889      5F7400
 13890              	.LASF301:
 13891 1dc6 6D6F6465 		.ascii	"moder\000"
 13891      7200
 13892              	.LASF218:
 13893 1dcc 735F7175 		.ascii	"s_queue\000"
 13893      65756500 
 13894              	.LASF207:
 13895 1dd4 6D5F6372 		.ascii	"m_crit_thd\000"
 13895      69745F74 
 13895      686400
 13896              	.LASF376:
 13897 1ddf 4441435F 		.ascii	"DAC_STOP\000"
 13897      53544F50 
 13897      00
 13898              	.LASF652:
 13899 1de8 72657376 		.ascii	"resvd700\000"
 13899      64373030 
 13899      00
 13900              	.LASF180:
 13901 1df1 49325343 		.ascii	"I2SCFGR\000"
 13901      46475200 
 13902              	.LASF715:
 13903 1df9 75736270 		.ascii	"usbp\000"
 13903      00
 13904              	.LASF226:
 13905 1dfe 63685F69 		.ascii	"ch_identifier\000"
 13905      64656E74 
 13905      69666965 
 13905      7200
 13906              	.LASF519:
 13907 1e0c 77726974 		.ascii	"writet\000"
 13907      657400
 13908              	.LASF1:
 13909 1e13 6C6F6E67 		.ascii	"long long int\000"
 13909      206C6F6E 
 13909      6720696E 
 13909      7400
 13910              	.LASF639:
 13911 1e21 48505458 		.ascii	"HPTXFSIZ\000"
 13911      4653495A 
 13911      00
 13912              	.LASF233:
 13913 1e2a 63665F6F 		.ascii	"cf_off_prio\000"
 13913      66665F70 
 13913      72696F00 
 13914              	.LASF204:
 13915 1e36 74696D65 		.ascii	"time_measurement_t\000"
ARM GAS  C:\Users\PCHAUT~1\AppData\Local\Temp\ccMxpIDf.s 			page 270


 13915      5F6D6561 
 13915      73757265 
 13915      6D656E74 
 13915      5F7400
 13916              	.LASF540:
 13917 1e49 6765745F 		.ascii	"get_info\000"
 13917      696E666F 
 13917      00
 13918              	.LASF331:
 13919 1e52 61646365 		.ascii	"adcerror_t\000"
 13919      72726F72 
 13919      5F7400
 13920              	.LASF705:
 13921 1e5d 6765745F 		.ascii	"get_descriptor_cb\000"
 13921      64657363 
 13921      72697074 
 13921      6F725F63 
 13921      6200
 13922              	.LASF34:
 13923 1e6f 6576656E 		.ascii	"eventflags_t\000"
 13923      74666C61 
 13923      67735F74 
 13923      00
 13924              	.LASF544:
 13925 1e7c 5350495F 		.ascii	"SPI_READY\000"
 13925      52454144 
 13925      5900
 13926              	.LASF128:
 13927 1e86 73464946 		.ascii	"sFIFOMailBox\000"
 13927      4F4D6169 
 13927      6C426F78 
 13927      00
 13928              	.LASF532:
 13929 1e93 6275735F 		.ascii	"bus_width\000"
 13929      77696474 
 13929      6800
 13930              	.LASF149:
 13931 1e9d 44485238 		.ascii	"DHR8RD\000"
 13931      524400
 13932              	.LASF654:
 13933 1ea4 4443544C 		.ascii	"DCTL\000"
 13933      00
 13934              	.LASF534:
 13935 1ea9 53444344 		.ascii	"SDCDriverVMT\000"
 13935      72697665 
 13935      72564D54 
 13935      00
 13936              	.LASF765:
 13937 1eb6 76657274 		.ascii	"vertical\000"
 13937      6963616C 
 13937      00
 13938              	.LASF680:
 13939 1ebf 74786275 		.ascii	"txbuf\000"
 13939      6600
 13940              	.LASF673:
 13941 1ec5 50434743 		.ascii	"PCGCCTL\000"
 13941      43544C00 
ARM GAS  C:\Users\PCHAUT~1\AppData\Local\Temp\ccMxpIDf.s 			page 271


 13942              	.LASF591:
 13943 1ecd 5553425F 		.ascii	"USB_EVENT_WAKEUP\000"
 13943      4556454E 
 13943      545F5741 
 13943      4B455550 
 13943      00
 13944              	.LASF750:
 13945 1ede 63757272 		.ascii	"curr_subsampling_x\000"
 13945      5F737562 
 13945      73616D70 
 13945      6C696E67 
 13945      5F7800
 13946              	.LASF751:
 13947 1ef1 63757272 		.ascii	"curr_subsampling_y\000"
 13947      5F737562 
 13947      73616D70 
 13947      6C696E67 
 13947      5F7900
 13948              	.LASF44:
 13949 1f04 705F6F6C 		.ascii	"p_older\000"
 13949      64657200 
 13950              	.LASF285:
 13951 1f0c 424C4B5F 		.ascii	"BLK_SYNCING\000"
 13951      53594E43 
 13951      494E4700 
 13952              	.LASF316:
 13953 1f18 50494461 		.ascii	"PIData\000"
 13953      746100
 13954              	.LASF702:
 13955 1f1f 73657475 		.ascii	"setup_buf\000"
 13955      705F6275 
 13955      6600
 13956              	.LASF441:
 13957 1f29 47505444 		.ascii	"GPTD6\000"
 13957      3600
 13958              	.LASF347:
 13959 1f2f 6572726F 		.ascii	"error_cb\000"
 13959      725F6362 
 13959      00
 13960              	.LASF741:
 13961 1f38 696D6167 		.ascii	"image_size_t\000"
 13961      655F7369 
 13961      7A655F74 
 13961      00
 13962              	.LASF281:
 13963 1f45 424C4B5F 		.ascii	"BLK_DISCONNECTING\000"
 13963      44495343 
 13963      4F4E4E45 
 13963      4354494E 
 13963      4700
 13964              	.LASF550:
 13965 1f57 7373706F 		.ascii	"ssport\000"
 13965      727400
 13966              	.LASF60:
 13967 1f5e 74687265 		.ascii	"thread_reference_t\000"
 13967      61645F72 
 13967      65666572 
ARM GAS  C:\Users\PCHAUT~1\AppData\Local\Temp\ccMxpIDf.s 			page 272


 13967      656E6365 
 13967      5F7400
 13968              	.LASF788:
 13969 1f71 706F3830 		.ascii	"po8030_set_bank\000"
 13969      33305F73 
 13969      65745F62 
 13969      616E6B00 
 13970              	.LASF410:
 13971 1f81 65787063 		.ascii	"expchannel_t\000"
 13971      68616E6E 
 13971      656C5F74 
 13971      00
 13972              	.LASF556:
 13973 1f8e 72656365 		.ascii	"receiving\000"
 13973      6976696E 
 13973      6700
 13974              	.LASF437:
 13975 1f98 66726571 		.ascii	"frequency\000"
 13975      75656E63 
 13975      7900
 13976              	.LASF199:
 13977 1fa2 746D5F63 		.ascii	"tm_calibration_t\000"
 13977      616C6962 
 13977      72617469 
 13977      6F6E5F74 
 13977      00
 13978              	.LASF769:
 13979 1fb3 706F3830 		.ascii	"po8030_advanced_config\000"
 13979      33305F61 
 13979      6476616E 
 13979      6365645F 
 13979      636F6E66 
 13980              	.LASF4:
 13981 1fca 5F5F696E 		.ascii	"__int8_t\000"
 13981      74385F74 
 13981      00
 13982              	.LASF699:
 13983 1fd3 696E5F73 		.ascii	"in_state\000"
 13983      74617465 
 13983      00
 13984              	.LASF757:
 13985 1fdc 696E7465 		.ascii	"integral\000"
 13985      6772616C 
 13985      00
 13986              	.LASF183:
 13987 1fe5 47545052 		.ascii	"GTPR\000"
 13987      00
 13988              	.LASF227:
 13989 1fea 63685F7A 		.ascii	"ch_zero\000"
 13989      65726F00 
 13990              	.LASF457:
 13991 1ff2 46415354 		.ascii	"FAST_DUTY_CYCLE_2\000"
 13991      5F445554 
 13991      595F4359 
 13991      434C455F 
 13991      3200
 13992              	.LASF171:
ARM GAS  C:\Users\PCHAUT~1\AppData\Local\Temp\ccMxpIDf.s 			page 273


 13993 2004 44435452 		.ascii	"DCTRL\000"
 13993      4C00
 13994              	.LASF232:
 13995 200a 63685F74 		.ascii	"ch_threadsize\000"
 13995      68726561 
 13995      6473697A 
 13995      6500
 13996              	.LASF160:
 13997 2018 464C5452 		.ascii	"FLTR\000"
 13997      00
 13998              	.LASF428:
 13999 201d 43434D52 		.ascii	"CCMR1\000"
 13999      3100
 14000              	.LASF429:
 14001 2023 43434D52 		.ascii	"CCMR2\000"
 14001      3200
 14002              	.LASF433:
 14003 2029 43434D52 		.ascii	"CCMR3\000"
 14003      3300
 14004              	.LASF0:
 14005 202f 756E7369 		.ascii	"unsigned int\000"
 14005      676E6564 
 14005      20696E74 
 14005      00
 14006              	.LASF351:
 14007 203c 73717232 		.ascii	"sqr2\000"
 14007      00
 14008              	.LASF352:
 14009 2041 73717233 		.ascii	"sqr3\000"
 14009      00
 14010              	.LASF643:
 14011 2046 48464952 		.ascii	"HFIR\000"
 14011      00
 14012              	.LASF787:
 14013 204b 706F3830 		.ascii	"po8030_set_format\000"
 14013      33305F73 
 14013      65745F66 
 14013      6F726D61 
 14013      7400
 14014              	.LASF573:
 14015 205d 5553425F 		.ascii	"USB_UNINIT\000"
 14015      554E494E 
 14015      495400
 14016              	.LASF270:
 14017 2068 73747265 		.ascii	"stream\000"
 14017      616D00
 14018              	.LASF354:
 14019 206f 64756D6D 		.ascii	"dummy\000"
 14019      7900
 14020              	.LASF455:
 14021 2075 6932636F 		.ascii	"i2copmode_t\000"
 14021      706D6F64 
 14021      655F7400 
 14022              	.LASF248:
 14023 2081 6576656E 		.ascii	"event_listener\000"
 14023      745F6C69 
 14023      7374656E 
ARM GAS  C:\Users\PCHAUT~1\AppData\Local\Temp\ccMxpIDf.s 			page 274


 14023      657200
 14024              	.LASF9:
 14025 2090 73686F72 		.ascii	"short int\000"
 14025      7420696E 
 14025      7400
 14026              	.LASF597:
 14027 209a 75736263 		.ascii	"usbcallback_t\000"
 14027      616C6C62 
 14027      61636B5F 
 14027      7400
 14028              	.LASF626:
 14029 20a8 47555342 		.ascii	"GUSBCFG\000"
 14029      43464700 
 14030              	.LASF184:
 14031 20b0 55534152 		.ascii	"USART_TypeDef\000"
 14031      545F5479 
 14031      70654465 
 14031      6600
 14032              	.LASF269:
 14033 20be 6F757470 		.ascii	"output_queue_t\000"
 14033      75745F71 
 14033      75657565 
 14033      5F7400
 14034              	.LASF675:
 14035 20cd 73746D33 		.ascii	"stm32_otg_t\000"
 14035      325F6F74 
 14035      675F7400 
 14036              	.LASF478:
 14037 20d9 49325344 		.ascii	"I2SDriver\000"
 14037      72697665 
 14037      7200
 14038              	.LASF462:
 14039 20e3 64757479 		.ascii	"duty_cycle\000"
 14039      5F637963 
 14039      6C6500
 14040              	.LASF485:
 14041 20ee 49325343 		.ascii	"I2SConfig\000"
 14041      6F6E6669 
 14041      6700
 14042              	.LASF594:
 14043 20f8 75645F73 		.ascii	"ud_size\000"
 14043      697A6500 
 14044              	.LASF697:
 14045 2100 696E5F6D 		.ascii	"in_maxsize\000"
 14045      61787369 
 14045      7A6500
 14046              	.LASF313:
 14047 210b 50464461 		.ascii	"PFData\000"
 14047      746100
 14048              	.LASF406:
 14049 2112 4558545F 		.ascii	"EXT_STOP\000"
 14049      53544F50 
 14049      00
 14050              	.LASF47:
 14051 211b 705F7374 		.ascii	"p_state\000"
 14051      61746500 
 14052              	.LASF486:
ARM GAS  C:\Users\PCHAUT~1\AppData\Local\Temp\ccMxpIDf.s 			page 275


 14053 2123 49325344 		.ascii	"I2SD2\000"
 14053      3200
 14054              	.LASF535:
 14055 2129 69735F69 		.ascii	"is_inserted\000"
 14055      6E736572 
 14055      74656400 
 14056              	.LASF63:
 14057 2135 63685F74 		.ascii	"ch_threads_list\000"
 14057      68726561 
 14057      64735F6C 
 14057      69737400 
 14058              	.LASF172:
 14059 2145 44434F55 		.ascii	"DCOUNT\000"
 14059      4E5400
 14060              	.LASF157:
 14061 214c 4F415231 		.ascii	"OAR1\000"
 14061      00
 14062              	.LASF158:
 14063 2151 4F415232 		.ascii	"OAR2\000"
 14063      00
 14064              	.LASF59:
 14065 2156 705F7374 		.ascii	"p_stats\000"
 14065      61747300 
 14066              	.LASF578:
 14067 215e 75736273 		.ascii	"usbstate_t\000"
 14067      74617465 
 14067      5F7400
 14068              		.ident	"GCC: (GNU Tools for Arm Embedded Processors 7-2017-q4-major) 7.2.1 20170904 (release) [ARM
ARM GAS  C:\Users\PCHAUT~1\AppData\Local\Temp\ccMxpIDf.s 			page 276


DEFINED SYMBOLS
                            *ABS*:00000000 po8030.c
C:\Users\PCHAUT~1\AppData\Local\Temp\ccMxpIDf.s:18     .bss.po8030_conf:00000000 $d
C:\Users\PCHAUT~1\AppData\Local\Temp\ccMxpIDf.s:21     .bss.po8030_conf:00000000 po8030_conf
C:\Users\PCHAUT~1\AppData\Local\Temp\ccMxpIDf.s:26     .bss.cam_configured:00000000 cam_configured
C:\Users\PCHAUT~1\AppData\Local\Temp\ccMxpIDf.s:27     .bss.cam_configured:00000000 $d
C:\Users\PCHAUT~1\AppData\Local\Temp\ccMxpIDf.s:29     .text.po8030_read_id:00000000 $t
C:\Users\PCHAUT~1\AppData\Local\Temp\ccMxpIDf.s:37     .text.po8030_read_id:00000000 po8030_read_id
C:\Users\PCHAUT~1\AppData\Local\Temp\ccMxpIDf.s:119    .text.po8030_read_id:00000084 $d
C:\Users\PCHAUT~1\AppData\Local\Temp\ccMxpIDf.s:124    .text.po8030_set_bank:00000000 $t
C:\Users\PCHAUT~1\AppData\Local\Temp\ccMxpIDf.s:132    .text.po8030_set_bank:00000000 po8030_set_bank
C:\Users\PCHAUT~1\AppData\Local\Temp\ccMxpIDf.s:172    .text.po8030_set_bank:00000038 $d
C:\Users\PCHAUT~1\AppData\Local\Temp\ccMxpIDf.s:177    .text.po8030_set_format:00000000 $t
C:\Users\PCHAUT~1\AppData\Local\Temp\ccMxpIDf.s:185    .text.po8030_set_format:00000000 po8030_set_format
C:\Users\PCHAUT~1\AppData\Local\Temp\ccMxpIDf.s:339    .text.po8030_set_format:00000128 $d
C:\Users\PCHAUT~1\AppData\Local\Temp\ccMxpIDf.s:345    .text.po8030_set_vga:00000000 $t
C:\Users\PCHAUT~1\AppData\Local\Temp\ccMxpIDf.s:353    .text.po8030_set_vga:00000000 po8030_set_vga
C:\Users\PCHAUT~1\AppData\Local\Temp\ccMxpIDf.s:761    .text.po8030_set_vga:00000350 $d
C:\Users\PCHAUT~1\AppData\Local\Temp\ccMxpIDf.s:764    .text.po8030_set_vga:00000354 $t
C:\Users\PCHAUT~1\AppData\Local\Temp\ccMxpIDf.s:798    .text.po8030_set_vga:00000388 $d
C:\Users\PCHAUT~1\AppData\Local\Temp\ccMxpIDf.s:804    .text.po8030_set_qvga:00000000 $t
C:\Users\PCHAUT~1\AppData\Local\Temp\ccMxpIDf.s:812    .text.po8030_set_qvga:00000000 po8030_set_qvga
C:\Users\PCHAUT~1\AppData\Local\Temp\ccMxpIDf.s:1220   .text.po8030_set_qvga:00000350 $d
C:\Users\PCHAUT~1\AppData\Local\Temp\ccMxpIDf.s:1223   .text.po8030_set_qvga:00000354 $t
C:\Users\PCHAUT~1\AppData\Local\Temp\ccMxpIDf.s:1257   .text.po8030_set_qvga:00000388 $d
C:\Users\PCHAUT~1\AppData\Local\Temp\ccMxpIDf.s:1263   .text.po8030_set_qqvga:00000000 $t
C:\Users\PCHAUT~1\AppData\Local\Temp\ccMxpIDf.s:1271   .text.po8030_set_qqvga:00000000 po8030_set_qqvga
C:\Users\PCHAUT~1\AppData\Local\Temp\ccMxpIDf.s:1679   .text.po8030_set_qqvga:00000350 $d
C:\Users\PCHAUT~1\AppData\Local\Temp\ccMxpIDf.s:1682   .text.po8030_set_qqvga:00000354 $t
C:\Users\PCHAUT~1\AppData\Local\Temp\ccMxpIDf.s:1716   .text.po8030_set_qqvga:00000384 $d
C:\Users\PCHAUT~1\AppData\Local\Temp\ccMxpIDf.s:1722   .text.po8030_set_size:00000000 $t
C:\Users\PCHAUT~1\AppData\Local\Temp\ccMxpIDf.s:1730   .text.po8030_set_size:00000000 po8030_set_size
C:\Users\PCHAUT~1\AppData\Local\Temp\ccMxpIDf.s:1793   .text.po8030_set_size:0000005c $d
C:\Users\PCHAUT~1\AppData\Local\Temp\ccMxpIDf.s:1798   .text.po8030_set_scale_buffer_size:00000000 $t
C:\Users\PCHAUT~1\AppData\Local\Temp\ccMxpIDf.s:1806   .text.po8030_set_scale_buffer_size:00000000 po8030_set_scale_buffer_size
C:\Users\PCHAUT~1\AppData\Local\Temp\ccMxpIDf.s:2071   .text.po8030_set_scale_buffer_size:000001fc $d
C:\Users\PCHAUT~1\AppData\Local\Temp\ccMxpIDf.s:2076   .text.po8030_start:00000000 $t
C:\Users\PCHAUT~1\AppData\Local\Temp\ccMxpIDf.s:2084   .text.po8030_start:00000000 po8030_start
C:\Users\PCHAUT~1\AppData\Local\Temp\ccMxpIDf.s:2275   .text.po8030_advanced_config:00000000 po8030_advanced_config
C:\Users\PCHAUT~1\AppData\Local\Temp\ccMxpIDf.s:2138   .text.po8030_start:00000050 $d
C:\Users\PCHAUT~1\AppData\Local\Temp\ccMxpIDf.s:4040   .rodata.pwmcfg_cam.9992:00000000 pwmcfg_cam.9992
C:\Users\PCHAUT~1\AppData\Local\Temp\ccMxpIDf.s:2145   .text.po8030_config:00000000 $t
C:\Users\PCHAUT~1\AppData\Local\Temp\ccMxpIDf.s:2153   .text.po8030_config:00000000 po8030_config
C:\Users\PCHAUT~1\AppData\Local\Temp\ccMxpIDf.s:2262   .text.po8030_config:000000d0 $d
C:\Users\PCHAUT~1\AppData\Local\Temp\ccMxpIDf.s:2267   .text.po8030_advanced_config:00000000 $t
C:\Users\PCHAUT~1\AppData\Local\Temp\ccMxpIDf.s:2689   .text.po8030_advanced_config:000002f0 $d
C:\Users\PCHAUT~1\AppData\Local\Temp\ccMxpIDf.s:2693   .text.po8030_advanced_config:000002f8 $t
C:\Users\PCHAUT~1\AppData\Local\Temp\ccMxpIDf.s:3265   .text.po8030_advanced_config:000007cc $d
C:\Users\PCHAUT~1\AppData\Local\Temp\ccMxpIDf.s:3275   .text.po8030_set_brightness:00000000 $t
C:\Users\PCHAUT~1\AppData\Local\Temp\ccMxpIDf.s:3283   .text.po8030_set_brightness:00000000 po8030_set_brightness
C:\Users\PCHAUT~1\AppData\Local\Temp\ccMxpIDf.s:3339   .text.po8030_set_brightness:00000058 $d
C:\Users\PCHAUT~1\AppData\Local\Temp\ccMxpIDf.s:3344   .text.po8030_set_contrast:00000000 $t
C:\Users\PCHAUT~1\AppData\Local\Temp\ccMxpIDf.s:3352   .text.po8030_set_contrast:00000000 po8030_set_contrast
C:\Users\PCHAUT~1\AppData\Local\Temp\ccMxpIDf.s:3408   .text.po8030_set_contrast:00000058 $d
C:\Users\PCHAUT~1\AppData\Local\Temp\ccMxpIDf.s:3413   .text.po8030_set_mirror:00000000 $t
C:\Users\PCHAUT~1\AppData\Local\Temp\ccMxpIDf.s:3421   .text.po8030_set_mirror:00000000 po8030_set_mirror
C:\Users\PCHAUT~1\AppData\Local\Temp\ccMxpIDf.s:3501   .text.po8030_set_mirror:0000008c $d
ARM GAS  C:\Users\PCHAUT~1\AppData\Local\Temp\ccMxpIDf.s 			page 277


C:\Users\PCHAUT~1\AppData\Local\Temp\ccMxpIDf.s:3506   .text.po8030_set_awb:00000000 $t
C:\Users\PCHAUT~1\AppData\Local\Temp\ccMxpIDf.s:3514   .text.po8030_set_awb:00000000 po8030_set_awb
C:\Users\PCHAUT~1\AppData\Local\Temp\ccMxpIDf.s:3606   .text.po8030_set_awb:000000a4 $d
C:\Users\PCHAUT~1\AppData\Local\Temp\ccMxpIDf.s:3611   .text.po8030_set_rgb_gain:00000000 $t
C:\Users\PCHAUT~1\AppData\Local\Temp\ccMxpIDf.s:3619   .text.po8030_set_rgb_gain:00000000 po8030_set_rgb_gain
C:\Users\PCHAUT~1\AppData\Local\Temp\ccMxpIDf.s:3731   .text.po8030_set_rgb_gain:000000d4 $d
C:\Users\PCHAUT~1\AppData\Local\Temp\ccMxpIDf.s:3736   .text.po8030_set_ae:00000000 $t
C:\Users\PCHAUT~1\AppData\Local\Temp\ccMxpIDf.s:3744   .text.po8030_set_ae:00000000 po8030_set_ae
C:\Users\PCHAUT~1\AppData\Local\Temp\ccMxpIDf.s:3836   .text.po8030_set_ae:000000a4 $d
C:\Users\PCHAUT~1\AppData\Local\Temp\ccMxpIDf.s:3841   .text.po8030_set_exposure:00000000 $t
C:\Users\PCHAUT~1\AppData\Local\Temp\ccMxpIDf.s:3849   .text.po8030_set_exposure:00000000 po8030_set_exposure
C:\Users\PCHAUT~1\AppData\Local\Temp\ccMxpIDf.s:3964   .text.po8030_set_exposure:000000d8 $d
C:\Users\PCHAUT~1\AppData\Local\Temp\ccMxpIDf.s:3969   .text.po8030_get_image_size:00000000 $t
C:\Users\PCHAUT~1\AppData\Local\Temp\ccMxpIDf.s:3977   .text.po8030_get_image_size:00000000 po8030_get_image_size
C:\Users\PCHAUT~1\AppData\Local\Temp\ccMxpIDf.s:4031   .text.po8030_get_image_size:00000048 $d
C:\Users\PCHAUT~1\AppData\Local\Temp\ccMxpIDf.s:4037   .rodata.pwmcfg_cam.9992:00000000 $d

UNDEFINED SYMBOLS
read_reg
__stack_chk_fail
__stack_chk_guard
write_reg
i2c_start
pwmStart
pwmEnableChannel
PWMD5
