ARM GAS  C:\Users\PCHAUT~1\AppData\Local\Temp\ccMxpIDf.s 			page 1


   1              		.cpu cortex-m4
   2              		.eabi_attribute 27, 1
   3              		.eabi_attribute 28, 1
   4              		.eabi_attribute 20, 1
   5              		.eabi_attribute 21, 1
   6              		.eabi_attribute 23, 3
   7              		.eabi_attribute 24, 1
   8              		.eabi_attribute 25, 1
   9              		.eabi_attribute 26, 1
  10              		.eabi_attribute 30, 6
  11              		.eabi_attribute 34, 1
  12              		.eabi_attribute 18, 4
  13              		.file	"po8030.c"
  14              		.text
  15              	.Ltext0:
  16              		.cfi_sections	.debug_frame
  17              		.section	.bss.po8030_conf,"aw",%nobits
  18              		.align	2
  19              		.type	po8030_conf, %object
  20              		.size	po8030_conf, 8
  21              	po8030_conf:
  22 0000 00000000 		.space	8
  22      00000000 
  23              		.section	.bss.cam_configured,"aw",%nobits
  24              		.type	cam_configured, %object
  25              		.size	cam_configured, 1
  26              	cam_configured:
  27 0000 00       		.space	1
  28              		.section	.text.po8030_read_id,"ax",%progbits
  29              		.align	1
  30              		.p2align 4,,15
  31              		.global	po8030_read_id
  32              		.syntax unified
  33              		.thumb
  34              		.thumb_func
  35              		.fpu fpv4-sp-d16
  36              		.type	po8030_read_id, %function
  37              	po8030_read_id:
  38              	.LFB257:
  39              		.file 1 "../lib/e-puck2_main-processor/src/camera/po8030.c"
  40              		.loc 1 93 0
  41              		.cfi_startproc
  42              		@ args = 0, pretend = 0, frame = 24
  43              		@ frame_needed = 0, uses_anonymous_args = 0
  44 0000 00B5     		push	{lr}
  45              		.cfi_def_cfa_offset 4
  46              		.cfi_offset 14, -4
  47 0002 87B0     		sub	sp, sp, #28
  48              		.cfi_def_cfa_offset 32
  49 0004 0190     		str	r0, [sp, #4]
  50              		.loc 1 93 0
  51 0006 1F4B     		ldr	r3, .L7
  52 0008 1B68     		ldr	r3, [r3]
  53 000a 0593     		str	r3, [sp, #20]
  54              		.loc 1 94 0
  55 000c 0023     		movs	r3, #0
  56 000e ADF81030 		strh	r3, [sp, #16]	@ movhi
ARM GAS  C:\Users\PCHAUT~1\AppData\Local\Temp\ccMxpIDf.s 			page 2


  57              		.loc 1 95 0
  58 0012 0023     		movs	r3, #0
  59 0014 8DF80F30 		strb	r3, [sp, #15]
  60              		.loc 1 97 0
  61 0018 04AB     		add	r3, sp, #16
  62 001a 1A46     		mov	r2, r3
  63 001c 0021     		movs	r1, #0
  64 001e 6E20     		movs	r0, #110
  65 0020 FFF7FEFF 		bl	read_reg
  66 0024 0346     		mov	r3, r0
  67 0026 8DF80F30 		strb	r3, [sp, #15]
  68 002a 9DF90F30 		ldrsb	r3, [sp, #15]
  69 002e 002B     		cmp	r3, #0
  70 0030 02D0     		beq	.L2
  71              		.loc 1 98 0
  72 0032 9DF90F30 		ldrsb	r3, [sp, #15]
  73 0036 1AE0     		b	.L5
  74              	.L2:
  75              		.loc 1 100 0
  76 0038 04AB     		add	r3, sp, #16
  77 003a 0133     		adds	r3, r3, #1
  78 003c 1A46     		mov	r2, r3
  79 003e 0121     		movs	r1, #1
  80 0040 6E20     		movs	r0, #110
  81 0042 FFF7FEFF 		bl	read_reg
  82 0046 0346     		mov	r3, r0
  83 0048 8DF80F30 		strb	r3, [sp, #15]
  84 004c 9DF90F30 		ldrsb	r3, [sp, #15]
  85 0050 002B     		cmp	r3, #0
  86 0052 02D0     		beq	.L4
  87              		.loc 1 101 0
  88 0054 9DF90F30 		ldrsb	r3, [sp, #15]
  89 0058 09E0     		b	.L5
  90              	.L4:
  91              		.loc 1 103 0
  92 005a 9DF81020 		ldrb	r2, [sp, #16]	@ zero_extendqisi2
  93 005e 9DF81130 		ldrb	r3, [sp, #17]	@ zero_extendqisi2
  94 0062 1343     		orrs	r3, r3, r2
  95 0064 DBB2     		uxtb	r3, r3
  96 0066 9AB2     		uxth	r2, r3
  97 0068 019B     		ldr	r3, [sp, #4]
  98 006a 1A80     		strh	r2, [r3]	@ movhi
  99              		.loc 1 105 0
 100 006c 0023     		movs	r3, #0
 101              	.L5:
 102              		.loc 1 106 0 discriminator 1
 103 006e 1846     		mov	r0, r3
 104 0070 044B     		ldr	r3, .L7
 105 0072 059A     		ldr	r2, [sp, #20]
 106 0074 1B68     		ldr	r3, [r3]
 107 0076 9A42     		cmp	r2, r3
 108 0078 01D0     		beq	.L6
 109              		.loc 1 106 0 is_stmt 0
 110 007a FFF7FEFF 		bl	__stack_chk_fail
 111              	.L6:
 112 007e 07B0     		add	sp, sp, #28
 113              		.cfi_def_cfa_offset 4
ARM GAS  C:\Users\PCHAUT~1\AppData\Local\Temp\ccMxpIDf.s 			page 3


 114              		@ sp needed
 115 0080 5DF804FB 		ldr	pc, [sp], #4
 116              	.L8:
 117              		.align	2
 118              	.L7:
 119 0084 00000000 		.word	__stack_chk_guard
 120              		.cfi_endproc
 121              	.LFE257:
 122              		.size	po8030_read_id, .-po8030_read_id
 123              		.section	.text.po8030_set_bank,"ax",%progbits
 124              		.align	1
 125              		.p2align 4,,15
 126              		.global	po8030_set_bank
 127              		.syntax unified
 128              		.thumb
 129              		.thumb_func
 130              		.fpu fpv4-sp-d16
 131              		.type	po8030_set_bank, %function
 132              	po8030_set_bank:
 133              	.LFB258:
 134              		.loc 1 118 0 is_stmt 1
 135              		.cfi_startproc
 136              		@ args = 0, pretend = 0, frame = 16
 137              		@ frame_needed = 0, uses_anonymous_args = 0
 138 0000 00B5     		push	{lr}
 139              		.cfi_def_cfa_offset 4
 140              		.cfi_offset 14, -4
 141 0002 85B0     		sub	sp, sp, #20
 142              		.cfi_def_cfa_offset 24
 143 0004 0346     		mov	r3, r0
 144 0006 8DF80730 		strb	r3, [sp, #7]
 145              		.loc 1 118 0
 146 000a 0B4B     		ldr	r3, .L12
 147 000c 1B68     		ldr	r3, [r3]
 148 000e 0393     		str	r3, [sp, #12]
 149              		.loc 1 119 0
 150 0010 9DF80730 		ldrb	r3, [sp, #7]	@ zero_extendqisi2
 151 0014 1A46     		mov	r2, r3
 152 0016 0321     		movs	r1, #3
 153 0018 6E20     		movs	r0, #110
 154 001a FFF7FEFF 		bl	write_reg
 155 001e 0346     		mov	r3, r0
 156              		.loc 1 120 0
 157 0020 1846     		mov	r0, r3
 158 0022 054B     		ldr	r3, .L12
 159 0024 039A     		ldr	r2, [sp, #12]
 160 0026 1B68     		ldr	r3, [r3]
 161 0028 9A42     		cmp	r2, r3
 162 002a 01D0     		beq	.L11
 163 002c FFF7FEFF 		bl	__stack_chk_fail
 164              	.L11:
 165 0030 05B0     		add	sp, sp, #20
 166              		.cfi_def_cfa_offset 4
 167              		@ sp needed
 168 0032 5DF804FB 		ldr	pc, [sp], #4
 169              	.L13:
 170 0036 00BF     		.align	2
ARM GAS  C:\Users\PCHAUT~1\AppData\Local\Temp\ccMxpIDf.s 			page 4


 171              	.L12:
 172 0038 00000000 		.word	__stack_chk_guard
 173              		.cfi_endproc
 174              	.LFE258:
 175              		.size	po8030_set_bank, .-po8030_set_bank
 176              		.section	.text.po8030_set_format,"ax",%progbits
 177              		.align	1
 178              		.p2align 4,,15
 179              		.global	po8030_set_format
 180              		.syntax unified
 181              		.thumb
 182              		.thumb_func
 183              		.fpu fpv4-sp-d16
 184              		.type	po8030_set_format, %function
 185              	po8030_set_format:
 186              	.LFB259:
 187              		.loc 1 132 0
 188              		.cfi_startproc
 189              		@ args = 0, pretend = 0, frame = 16
 190              		@ frame_needed = 0, uses_anonymous_args = 0
 191 0000 00B5     		push	{lr}
 192              		.cfi_def_cfa_offset 4
 193              		.cfi_offset 14, -4
 194 0002 85B0     		sub	sp, sp, #20
 195              		.cfi_def_cfa_offset 24
 196 0004 0346     		mov	r3, r0
 197 0006 8DF80730 		strb	r3, [sp, #7]
 198              		.loc 1 132 0
 199 000a 474B     		ldr	r3, .L25
 200 000c 1B68     		ldr	r3, [r3]
 201 000e 0393     		str	r3, [sp, #12]
 202              		.loc 1 133 0
 203 0010 0023     		movs	r3, #0
 204 0012 8DF80B30 		strb	r3, [sp, #11]
 205              		.loc 1 135 0
 206 0016 0120     		movs	r0, #1
 207 0018 FFF7FEFF 		bl	po8030_set_bank
 208 001c 0346     		mov	r3, r0
 209 001e 8DF80B30 		strb	r3, [sp, #11]
 210 0022 9DF90B30 		ldrsb	r3, [sp, #11]
 211 0026 002B     		cmp	r3, #0
 212 0028 02D0     		beq	.L15
 213              		.loc 1 136 0
 214 002a 9DF90B30 		ldrsb	r3, [sp, #11]
 215 002e 6FE0     		b	.L16
 216              	.L15:
 217              		.loc 1 139 0
 218 0030 9DF80730 		ldrb	r3, [sp, #7]	@ zero_extendqisi2
 219 0034 1A46     		mov	r2, r3
 220 0036 4E21     		movs	r1, #78
 221 0038 6E20     		movs	r0, #110
 222 003a FFF7FEFF 		bl	write_reg
 223 003e 0346     		mov	r3, r0
 224 0040 8DF80B30 		strb	r3, [sp, #11]
 225 0044 9DF90B30 		ldrsb	r3, [sp, #11]
 226 0048 002B     		cmp	r3, #0
 227 004a 02D0     		beq	.L17
ARM GAS  C:\Users\PCHAUT~1\AppData\Local\Temp\ccMxpIDf.s 			page 5


 228              		.loc 1 140 0
 229 004c 9DF90B30 		ldrsb	r3, [sp, #11]
 230 0050 5EE0     		b	.L16
 231              	.L17:
 232              		.loc 1 143 0
 233 0052 9DF80730 		ldrb	r3, [sp, #7]	@ zero_extendqisi2
 234 0056 442B     		cmp	r3, #68
 235 0058 2AD1     		bne	.L18
 236              		.loc 1 144 0
 237 005a 0122     		movs	r2, #1
 238 005c B721     		movs	r1, #183
 239 005e 6E20     		movs	r0, #110
 240 0060 FFF7FEFF 		bl	write_reg
 241 0064 0346     		mov	r3, r0
 242 0066 8DF80B30 		strb	r3, [sp, #11]
 243 006a 9DF90B30 		ldrsb	r3, [sp, #11]
 244 006e 002B     		cmp	r3, #0
 245 0070 02D0     		beq	.L19
 246              		.loc 1 145 0
 247 0072 9DF90B30 		ldrsb	r3, [sp, #11]
 248 0076 4BE0     		b	.L16
 249              	.L19:
 250              		.loc 1 147 0
 251 0078 0020     		movs	r0, #0
 252 007a FFF7FEFF 		bl	po8030_set_bank
 253 007e 0346     		mov	r3, r0
 254 0080 8DF80B30 		strb	r3, [sp, #11]
 255 0084 9DF90B30 		ldrsb	r3, [sp, #11]
 256 0088 002B     		cmp	r3, #0
 257 008a 02D0     		beq	.L20
 258              		.loc 1 148 0
 259 008c 9DF90B30 		ldrsb	r3, [sp, #11]
 260 0090 3EE0     		b	.L16
 261              	.L20:
 262              		.loc 1 150 0
 263 0092 0322     		movs	r2, #3
 264 0094 1121     		movs	r1, #17
 265 0096 6E20     		movs	r0, #110
 266 0098 FFF7FEFF 		bl	write_reg
 267 009c 0346     		mov	r3, r0
 268 009e 8DF80B30 		strb	r3, [sp, #11]
 269 00a2 9DF90B30 		ldrsb	r3, [sp, #11]
 270 00a6 002B     		cmp	r3, #0
 271 00a8 2DD0     		beq	.L21
 272              		.loc 1 151 0
 273 00aa 9DF90B30 		ldrsb	r3, [sp, #11]
 274 00ae 2FE0     		b	.L16
 275              	.L18:
 276              		.loc 1 154 0
 277 00b0 0022     		movs	r2, #0
 278 00b2 B721     		movs	r1, #183
 279 00b4 6E20     		movs	r0, #110
 280 00b6 FFF7FEFF 		bl	write_reg
 281 00ba 0346     		mov	r3, r0
 282 00bc 8DF80B30 		strb	r3, [sp, #11]
 283 00c0 9DF90B30 		ldrsb	r3, [sp, #11]
 284 00c4 002B     		cmp	r3, #0
ARM GAS  C:\Users\PCHAUT~1\AppData\Local\Temp\ccMxpIDf.s 			page 6


 285 00c6 02D0     		beq	.L22
 286              		.loc 1 155 0
 287 00c8 9DF90B30 		ldrsb	r3, [sp, #11]
 288 00cc 20E0     		b	.L16
 289              	.L22:
 290              		.loc 1 157 0
 291 00ce 0020     		movs	r0, #0
 292 00d0 FFF7FEFF 		bl	po8030_set_bank
 293 00d4 0346     		mov	r3, r0
 294 00d6 8DF80B30 		strb	r3, [sp, #11]
 295 00da 9DF90B30 		ldrsb	r3, [sp, #11]
 296 00de 002B     		cmp	r3, #0
 297 00e0 02D0     		beq	.L23
 298              		.loc 1 158 0
 299 00e2 9DF90B30 		ldrsb	r3, [sp, #11]
 300 00e6 13E0     		b	.L16
 301              	.L23:
 302              		.loc 1 160 0
 303 00e8 0A22     		movs	r2, #10
 304 00ea 1121     		movs	r1, #17
 305 00ec 6E20     		movs	r0, #110
 306 00ee FFF7FEFF 		bl	write_reg
 307 00f2 0346     		mov	r3, r0
 308 00f4 8DF80B30 		strb	r3, [sp, #11]
 309 00f8 9DF90B30 		ldrsb	r3, [sp, #11]
 310 00fc 002B     		cmp	r3, #0
 311 00fe 02D0     		beq	.L21
 312              		.loc 1 161 0
 313 0100 9DF90B30 		ldrsb	r3, [sp, #11]
 314 0104 04E0     		b	.L16
 315              	.L21:
 316              		.loc 1 165 0
 317 0106 094A     		ldr	r2, .L25+4
 318 0108 9DF80730 		ldrb	r3, [sp, #7]
 319 010c 1371     		strb	r3, [r2, #4]
 320              		.loc 1 167 0
 321 010e 0023     		movs	r3, #0
 322              	.L16:
 323              		.loc 1 168 0
 324 0110 1846     		mov	r0, r3
 325 0112 054B     		ldr	r3, .L25
 326 0114 039A     		ldr	r2, [sp, #12]
 327 0116 1B68     		ldr	r3, [r3]
 328 0118 9A42     		cmp	r2, r3
 329 011a 01D0     		beq	.L24
 330 011c FFF7FEFF 		bl	__stack_chk_fail
 331              	.L24:
 332 0120 05B0     		add	sp, sp, #20
 333              		.cfi_def_cfa_offset 4
 334              		@ sp needed
 335 0122 5DF804FB 		ldr	pc, [sp], #4
 336              	.L26:
 337 0126 00BF     		.align	2
 338              	.L25:
 339 0128 00000000 		.word	__stack_chk_guard
 340 012c 00000000 		.word	po8030_conf
 341              		.cfi_endproc
ARM GAS  C:\Users\PCHAUT~1\AppData\Local\Temp\ccMxpIDf.s 			page 7


 342              	.LFE259:
 343              		.size	po8030_set_format, .-po8030_set_format
 344              		.section	.text.po8030_set_vga,"ax",%progbits
 345              		.align	1
 346              		.p2align 4,,15
 347              		.global	po8030_set_vga
 348              		.syntax unified
 349              		.thumb
 350              		.thumb_func
 351              		.fpu fpv4-sp-d16
 352              		.type	po8030_set_vga, %function
 353              	po8030_set_vga:
 354              	.LFB260:
 355              		.loc 1 178 0
 356              		.cfi_startproc
 357              		@ args = 0, pretend = 0, frame = 8
 358              		@ frame_needed = 0, uses_anonymous_args = 0
 359 0000 00B5     		push	{lr}
 360              		.cfi_def_cfa_offset 4
 361              		.cfi_offset 14, -4
 362 0002 83B0     		sub	sp, sp, #12
 363              		.cfi_def_cfa_offset 16
 364              		.loc 1 178 0
 365 0004 D24B     		ldr	r3, .L58
 366 0006 1B68     		ldr	r3, [r3]
 367 0008 0193     		str	r3, [sp, #4]
 368              		.loc 1 179 0
 369 000a 0023     		movs	r3, #0
 370 000c 8DF80330 		strb	r3, [sp, #3]
 371              		.loc 1 181 0
 372 0010 0020     		movs	r0, #0
 373 0012 FFF7FEFF 		bl	po8030_set_bank
 374 0016 0346     		mov	r3, r0
 375 0018 8DF80330 		strb	r3, [sp, #3]
 376 001c 9DF90330 		ldrsb	r3, [sp, #3]
 377 0020 002B     		cmp	r3, #0
 378 0022 02D0     		beq	.L28
 379              		.loc 1 182 0
 380 0024 9DF90330 		ldrsb	r3, [sp, #3]
 381 0028 A3E1     		b	.L29
 382              	.L28:
 383              		.loc 1 185 0
 384 002a 0022     		movs	r2, #0
 385 002c 0821     		movs	r1, #8
 386 002e 6E20     		movs	r0, #110
 387 0030 FFF7FEFF 		bl	write_reg
 388 0034 0346     		mov	r3, r0
 389 0036 8DF80330 		strb	r3, [sp, #3]
 390 003a 9DF90330 		ldrsb	r3, [sp, #3]
 391 003e 002B     		cmp	r3, #0
 392 0040 02D0     		beq	.L30
 393              		.loc 1 186 0
 394 0042 9DF90330 		ldrsb	r3, [sp, #3]
 395 0046 94E1     		b	.L29
 396              	.L30:
 397              		.loc 1 188 0
 398 0048 0122     		movs	r2, #1
ARM GAS  C:\Users\PCHAUT~1\AppData\Local\Temp\ccMxpIDf.s 			page 8


 399 004a 0921     		movs	r1, #9
 400 004c 6E20     		movs	r0, #110
 401 004e FFF7FEFF 		bl	write_reg
 402 0052 0346     		mov	r3, r0
 403 0054 8DF80330 		strb	r3, [sp, #3]
 404 0058 9DF90330 		ldrsb	r3, [sp, #3]
 405 005c 002B     		cmp	r3, #0
 406 005e 02D0     		beq	.L31
 407              		.loc 1 189 0
 408 0060 9DF90330 		ldrsb	r3, [sp, #3]
 409 0064 85E1     		b	.L29
 410              	.L31:
 411              		.loc 1 191 0
 412 0066 0022     		movs	r2, #0
 413 0068 0A21     		movs	r1, #10
 414 006a 6E20     		movs	r0, #110
 415 006c FFF7FEFF 		bl	write_reg
 416 0070 0346     		mov	r3, r0
 417 0072 8DF80330 		strb	r3, [sp, #3]
 418 0076 9DF90330 		ldrsb	r3, [sp, #3]
 419 007a 002B     		cmp	r3, #0
 420 007c 02D0     		beq	.L32
 421              		.loc 1 192 0
 422 007e 9DF90330 		ldrsb	r3, [sp, #3]
 423 0082 76E1     		b	.L29
 424              	.L32:
 425              		.loc 1 194 0
 426 0084 0122     		movs	r2, #1
 427 0086 0B21     		movs	r1, #11
 428 0088 6E20     		movs	r0, #110
 429 008a FFF7FEFF 		bl	write_reg
 430 008e 0346     		mov	r3, r0
 431 0090 8DF80330 		strb	r3, [sp, #3]
 432 0094 9DF90330 		ldrsb	r3, [sp, #3]
 433 0098 002B     		cmp	r3, #0
 434 009a 02D0     		beq	.L33
 435              		.loc 1 195 0
 436 009c 9DF90330 		ldrsb	r3, [sp, #3]
 437 00a0 67E1     		b	.L29
 438              	.L33:
 439              		.loc 1 197 0
 440 00a2 0222     		movs	r2, #2
 441 00a4 0C21     		movs	r1, #12
 442 00a6 6E20     		movs	r0, #110
 443 00a8 FFF7FEFF 		bl	write_reg
 444 00ac 0346     		mov	r3, r0
 445 00ae 8DF80330 		strb	r3, [sp, #3]
 446 00b2 9DF90330 		ldrsb	r3, [sp, #3]
 447 00b6 002B     		cmp	r3, #0
 448 00b8 02D0     		beq	.L34
 449              		.loc 1 198 0
 450 00ba 9DF90330 		ldrsb	r3, [sp, #3]
 451 00be 58E1     		b	.L29
 452              	.L34:
 453              		.loc 1 200 0
 454 00c0 8022     		movs	r2, #128
 455 00c2 0D21     		movs	r1, #13
ARM GAS  C:\Users\PCHAUT~1\AppData\Local\Temp\ccMxpIDf.s 			page 9


 456 00c4 6E20     		movs	r0, #110
 457 00c6 FFF7FEFF 		bl	write_reg
 458 00ca 0346     		mov	r3, r0
 459 00cc 8DF80330 		strb	r3, [sp, #3]
 460 00d0 9DF90330 		ldrsb	r3, [sp, #3]
 461 00d4 002B     		cmp	r3, #0
 462 00d6 02D0     		beq	.L35
 463              		.loc 1 201 0
 464 00d8 9DF90330 		ldrsb	r3, [sp, #3]
 465 00dc 49E1     		b	.L29
 466              	.L35:
 467              		.loc 1 203 0
 468 00de 0122     		movs	r2, #1
 469 00e0 0E21     		movs	r1, #14
 470 00e2 6E20     		movs	r0, #110
 471 00e4 FFF7FEFF 		bl	write_reg
 472 00e8 0346     		mov	r3, r0
 473 00ea 8DF80330 		strb	r3, [sp, #3]
 474 00ee 9DF90330 		ldrsb	r3, [sp, #3]
 475 00f2 002B     		cmp	r3, #0
 476 00f4 02D0     		beq	.L36
 477              		.loc 1 204 0
 478 00f6 9DF90330 		ldrsb	r3, [sp, #3]
 479 00fa 3AE1     		b	.L29
 480              	.L36:
 481              		.loc 1 206 0
 482 00fc E022     		movs	r2, #224
 483 00fe 0F21     		movs	r1, #15
 484 0100 6E20     		movs	r0, #110
 485 0102 FFF7FEFF 		bl	write_reg
 486 0106 0346     		mov	r3, r0
 487 0108 8DF80330 		strb	r3, [sp, #3]
 488 010c 9DF90330 		ldrsb	r3, [sp, #3]
 489 0110 002B     		cmp	r3, #0
 490 0112 02D0     		beq	.L37
 491              		.loc 1 207 0
 492 0114 9DF90330 		ldrsb	r3, [sp, #3]
 493 0118 2BE1     		b	.L29
 494              	.L37:
 495              		.loc 1 210 0
 496 011a 0022     		movs	r2, #0
 497 011c 3521     		movs	r1, #53
 498 011e 6E20     		movs	r0, #110
 499 0120 FFF7FEFF 		bl	write_reg
 500 0124 0346     		mov	r3, r0
 501 0126 8DF80330 		strb	r3, [sp, #3]
 502 012a 9DF90330 		ldrsb	r3, [sp, #3]
 503 012e 002B     		cmp	r3, #0
 504 0130 02D0     		beq	.L38
 505              		.loc 1 211 0
 506 0132 9DF90330 		ldrsb	r3, [sp, #3]
 507 0136 1CE1     		b	.L29
 508              	.L38:
 509              		.loc 1 213 0
 510 0138 0122     		movs	r2, #1
 511 013a 3621     		movs	r1, #54
 512 013c 6E20     		movs	r0, #110
ARM GAS  C:\Users\PCHAUT~1\AppData\Local\Temp\ccMxpIDf.s 			page 10


 513 013e FFF7FEFF 		bl	write_reg
 514 0142 0346     		mov	r3, r0
 515 0144 8DF80330 		strb	r3, [sp, #3]
 516 0148 9DF90330 		ldrsb	r3, [sp, #3]
 517 014c 002B     		cmp	r3, #0
 518 014e 02D0     		beq	.L39
 519              		.loc 1 214 0
 520 0150 9DF90330 		ldrsb	r3, [sp, #3]
 521 0154 0DE1     		b	.L29
 522              	.L39:
 523              		.loc 1 216 0
 524 0156 0222     		movs	r2, #2
 525 0158 3721     		movs	r1, #55
 526 015a 6E20     		movs	r0, #110
 527 015c FFF7FEFF 		bl	write_reg
 528 0160 0346     		mov	r3, r0
 529 0162 8DF80330 		strb	r3, [sp, #3]
 530 0166 9DF90330 		ldrsb	r3, [sp, #3]
 531 016a 002B     		cmp	r3, #0
 532 016c 02D0     		beq	.L40
 533              		.loc 1 217 0
 534 016e 9DF90330 		ldrsb	r3, [sp, #3]
 535 0172 FEE0     		b	.L29
 536              	.L40:
 537              		.loc 1 219 0
 538 0174 8022     		movs	r2, #128
 539 0176 3821     		movs	r1, #56
 540 0178 6E20     		movs	r0, #110
 541 017a FFF7FEFF 		bl	write_reg
 542 017e 0346     		mov	r3, r0
 543 0180 8DF80330 		strb	r3, [sp, #3]
 544 0184 9DF90330 		ldrsb	r3, [sp, #3]
 545 0188 002B     		cmp	r3, #0
 546 018a 02D0     		beq	.L41
 547              		.loc 1 220 0
 548 018c 9DF90330 		ldrsb	r3, [sp, #3]
 549 0190 EFE0     		b	.L29
 550              	.L41:
 551              		.loc 1 222 0
 552 0192 0022     		movs	r2, #0
 553 0194 3921     		movs	r1, #57
 554 0196 6E20     		movs	r0, #110
 555 0198 FFF7FEFF 		bl	write_reg
 556 019c 0346     		mov	r3, r0
 557 019e 8DF80330 		strb	r3, [sp, #3]
 558 01a2 9DF90330 		ldrsb	r3, [sp, #3]
 559 01a6 002B     		cmp	r3, #0
 560 01a8 02D0     		beq	.L42
 561              		.loc 1 223 0
 562 01aa 9DF90330 		ldrsb	r3, [sp, #3]
 563 01ae E0E0     		b	.L29
 564              	.L42:
 565              		.loc 1 225 0
 566 01b0 0122     		movs	r2, #1
 567 01b2 3A21     		movs	r1, #58
 568 01b4 6E20     		movs	r0, #110
 569 01b6 FFF7FEFF 		bl	write_reg
ARM GAS  C:\Users\PCHAUT~1\AppData\Local\Temp\ccMxpIDf.s 			page 11


 570 01ba 0346     		mov	r3, r0
 571 01bc 8DF80330 		strb	r3, [sp, #3]
 572 01c0 9DF90330 		ldrsb	r3, [sp, #3]
 573 01c4 002B     		cmp	r3, #0
 574 01c6 02D0     		beq	.L43
 575              		.loc 1 226 0
 576 01c8 9DF90330 		ldrsb	r3, [sp, #3]
 577 01cc D1E0     		b	.L29
 578              	.L43:
 579              		.loc 1 228 0
 580 01ce 0122     		movs	r2, #1
 581 01d0 3B21     		movs	r1, #59
 582 01d2 6E20     		movs	r0, #110
 583 01d4 FFF7FEFF 		bl	write_reg
 584 01d8 0346     		mov	r3, r0
 585 01da 8DF80330 		strb	r3, [sp, #3]
 586 01de 9DF90330 		ldrsb	r3, [sp, #3]
 587 01e2 002B     		cmp	r3, #0
 588 01e4 02D0     		beq	.L44
 589              		.loc 1 229 0
 590 01e6 9DF90330 		ldrsb	r3, [sp, #3]
 591 01ea C2E0     		b	.L29
 592              	.L44:
 593              		.loc 1 231 0
 594 01ec E022     		movs	r2, #224
 595 01ee 3C21     		movs	r1, #60
 596 01f0 6E20     		movs	r0, #110
 597 01f2 FFF7FEFF 		bl	write_reg
 598 01f6 0346     		mov	r3, r0
 599 01f8 8DF80330 		strb	r3, [sp, #3]
 600 01fc 9DF90330 		ldrsb	r3, [sp, #3]
 601 0200 002B     		cmp	r3, #0
 602 0202 02D0     		beq	.L45
 603              		.loc 1 232 0
 604 0204 9DF90330 		ldrsb	r3, [sp, #3]
 605 0208 B3E0     		b	.L29
 606              	.L45:
 607              		.loc 1 235 0
 608 020a 0022     		movs	r2, #0
 609 020c 3D21     		movs	r1, #61
 610 020e 6E20     		movs	r0, #110
 611 0210 FFF7FEFF 		bl	write_reg
 612 0214 0346     		mov	r3, r0
 613 0216 8DF80330 		strb	r3, [sp, #3]
 614 021a 9DF90330 		ldrsb	r3, [sp, #3]
 615 021e 002B     		cmp	r3, #0
 616 0220 02D0     		beq	.L46
 617              		.loc 1 236 0
 618 0222 9DF90330 		ldrsb	r3, [sp, #3]
 619 0226 A4E0     		b	.L29
 620              	.L46:
 621              		.loc 1 238 0
 622 0228 D622     		movs	r2, #214
 623 022a 3E21     		movs	r1, #62
 624 022c 6E20     		movs	r0, #110
 625 022e FFF7FEFF 		bl	write_reg
 626 0232 0346     		mov	r3, r0
ARM GAS  C:\Users\PCHAUT~1\AppData\Local\Temp\ccMxpIDf.s 			page 12


 627 0234 8DF80330 		strb	r3, [sp, #3]
 628 0238 9DF90330 		ldrsb	r3, [sp, #3]
 629 023c 002B     		cmp	r3, #0
 630 023e 02D0     		beq	.L47
 631              		.loc 1 239 0
 632 0240 9DF90330 		ldrsb	r3, [sp, #3]
 633 0244 95E0     		b	.L29
 634              	.L47:
 635              		.loc 1 241 0
 636 0246 0122     		movs	r2, #1
 637 0248 3F21     		movs	r1, #63
 638 024a 6E20     		movs	r0, #110
 639 024c FFF7FEFF 		bl	write_reg
 640 0250 0346     		mov	r3, r0
 641 0252 8DF80330 		strb	r3, [sp, #3]
 642 0256 9DF90330 		ldrsb	r3, [sp, #3]
 643 025a 002B     		cmp	r3, #0
 644 025c 02D0     		beq	.L48
 645              		.loc 1 242 0
 646 025e 9DF90330 		ldrsb	r3, [sp, #3]
 647 0262 86E0     		b	.L29
 648              	.L48:
 649              		.loc 1 244 0
 650 0264 AB22     		movs	r2, #171
 651 0266 4021     		movs	r1, #64
 652 0268 6E20     		movs	r0, #110
 653 026a FFF7FEFF 		bl	write_reg
 654 026e 0346     		mov	r3, r0
 655 0270 8DF80330 		strb	r3, [sp, #3]
 656 0274 9DF90330 		ldrsb	r3, [sp, #3]
 657 0278 002B     		cmp	r3, #0
 658 027a 02D0     		beq	.L49
 659              		.loc 1 245 0
 660 027c 9DF90330 		ldrsb	r3, [sp, #3]
 661 0280 77E0     		b	.L29
 662              	.L49:
 663              		.loc 1 247 0
 664 0282 0022     		movs	r2, #0
 665 0284 4121     		movs	r1, #65
 666 0286 6E20     		movs	r0, #110
 667 0288 FFF7FEFF 		bl	write_reg
 668 028c 0346     		mov	r3, r0
 669 028e 8DF80330 		strb	r3, [sp, #3]
 670 0292 9DF90330 		ldrsb	r3, [sp, #3]
 671 0296 002B     		cmp	r3, #0
 672 0298 02D0     		beq	.L50
 673              		.loc 1 248 0
 674 029a 9DF90330 		ldrsb	r3, [sp, #3]
 675 029e 68E0     		b	.L29
 676              	.L50:
 677              		.loc 1 250 0
 678 02a0 A122     		movs	r2, #161
 679 02a2 4221     		movs	r1, #66
 680 02a4 6E20     		movs	r0, #110
 681 02a6 FFF7FEFF 		bl	write_reg
 682 02aa 0346     		mov	r3, r0
 683 02ac 8DF80330 		strb	r3, [sp, #3]
ARM GAS  C:\Users\PCHAUT~1\AppData\Local\Temp\ccMxpIDf.s 			page 13


 684 02b0 9DF90330 		ldrsb	r3, [sp, #3]
 685 02b4 002B     		cmp	r3, #0
 686 02b6 02D0     		beq	.L51
 687              		.loc 1 251 0
 688 02b8 9DF90330 		ldrsb	r3, [sp, #3]
 689 02bc 59E0     		b	.L29
 690              	.L51:
 691              		.loc 1 253 0
 692 02be 0122     		movs	r2, #1
 693 02c0 4321     		movs	r1, #67
 694 02c2 6E20     		movs	r0, #110
 695 02c4 FFF7FEFF 		bl	write_reg
 696 02c8 0346     		mov	r3, r0
 697 02ca 8DF80330 		strb	r3, [sp, #3]
 698 02ce 9DF90330 		ldrsb	r3, [sp, #3]
 699 02d2 002B     		cmp	r3, #0
 700 02d4 02D0     		beq	.L52
 701              		.loc 1 254 0
 702 02d6 9DF90330 		ldrsb	r3, [sp, #3]
 703 02da 4AE0     		b	.L29
 704              	.L52:
 705              		.loc 1 256 0
 706 02dc 4022     		movs	r2, #64
 707 02de 4421     		movs	r1, #68
 708 02e0 6E20     		movs	r0, #110
 709 02e2 FFF7FEFF 		bl	write_reg
 710 02e6 0346     		mov	r3, r0
 711 02e8 8DF80330 		strb	r3, [sp, #3]
 712 02ec 9DF90330 		ldrsb	r3, [sp, #3]
 713 02f0 002B     		cmp	r3, #0
 714 02f2 02D0     		beq	.L53
 715              		.loc 1 257 0
 716 02f4 9DF90330 		ldrsb	r3, [sp, #3]
 717 02f8 3BE0     		b	.L29
 718              	.L53:
 719              		.loc 1 260 0
 720 02fa 0120     		movs	r0, #1
 721 02fc FFF7FEFF 		bl	po8030_set_bank
 722 0300 0346     		mov	r3, r0
 723 0302 8DF80330 		strb	r3, [sp, #3]
 724 0306 9DF90330 		ldrsb	r3, [sp, #3]
 725 030a 002B     		cmp	r3, #0
 726 030c 02D0     		beq	.L54
 727              		.loc 1 261 0
 728 030e 9DF90330 		ldrsb	r3, [sp, #3]
 729 0312 2EE0     		b	.L29
 730              	.L54:
 731              		.loc 1 264 0
 732 0314 2022     		movs	r2, #32
 733 0316 9321     		movs	r1, #147
 734 0318 6E20     		movs	r0, #110
 735 031a FFF7FEFF 		bl	write_reg
 736 031e 0346     		mov	r3, r0
 737 0320 8DF80330 		strb	r3, [sp, #3]
 738 0324 9DF90330 		ldrsb	r3, [sp, #3]
 739 0328 002B     		cmp	r3, #0
 740 032a 02D0     		beq	.L55
ARM GAS  C:\Users\PCHAUT~1\AppData\Local\Temp\ccMxpIDf.s 			page 14


 741              		.loc 1 265 0
 742 032c 9DF90330 		ldrsb	r3, [sp, #3]
 743 0330 1FE0     		b	.L29
 744              	.L55:
 745              		.loc 1 267 0
 746 0332 2022     		movs	r2, #32
 747 0334 9421     		movs	r1, #148
 748 0336 6E20     		movs	r0, #110
 749 0338 FFF7FEFF 		bl	write_reg
 750 033c 0346     		mov	r3, r0
 751 033e 8DF80330 		strb	r3, [sp, #3]
 752 0342 9DF90330 		ldrsb	r3, [sp, #3]
 753 0346 002B     		cmp	r3, #0
 754 0348 04D0     		beq	.L56
 755              		.loc 1 268 0
 756 034a 9DF90330 		ldrsb	r3, [sp, #3]
 757 034e 10E0     		b	.L29
 758              	.L59:
 759              		.align	2
 760              	.L58:
 761 0350 00000000 		.word	__stack_chk_guard
 762              	.L56:
 763              		.loc 1 271 0
 764 0354 0C4B     		ldr	r3, .L60
 765 0356 4FF42072 		mov	r2, #640
 766 035a 1A80     		strh	r2, [r3]	@ movhi
 767              		.loc 1 272 0
 768 035c 0A4B     		ldr	r3, .L60
 769 035e 4FF4F072 		mov	r2, #480
 770 0362 5A80     		strh	r2, [r3, #2]	@ movhi
 771              		.loc 1 273 0
 772 0364 084B     		ldr	r3, .L60
 773 0366 2022     		movs	r2, #32
 774 0368 5A71     		strb	r2, [r3, #5]
 775              		.loc 1 274 0
 776 036a 074B     		ldr	r3, .L60
 777 036c 2022     		movs	r2, #32
 778 036e 9A71     		strb	r2, [r3, #6]
 779              		.loc 1 276 0
 780 0370 0023     		movs	r3, #0
 781              	.L29:
 782              		.loc 1 277 0
 783 0372 1846     		mov	r0, r3
 784 0374 054B     		ldr	r3, .L60+4
 785 0376 019A     		ldr	r2, [sp, #4]
 786 0378 1B68     		ldr	r3, [r3]
 787 037a 9A42     		cmp	r2, r3
 788 037c 01D0     		beq	.L57
 789 037e FFF7FEFF 		bl	__stack_chk_fail
 790              	.L57:
 791 0382 03B0     		add	sp, sp, #12
 792              		.cfi_def_cfa_offset 4
 793              		@ sp needed
 794 0384 5DF804FB 		ldr	pc, [sp], #4
 795              	.L61:
 796              		.align	2
 797              	.L60:
ARM GAS  C:\Users\PCHAUT~1\AppData\Local\Temp\ccMxpIDf.s 			page 15


 798 0388 00000000 		.word	po8030_conf
 799 038c 00000000 		.word	__stack_chk_guard
 800              		.cfi_endproc
 801              	.LFE260:
 802              		.size	po8030_set_vga, .-po8030_set_vga
 803              		.section	.text.po8030_set_qvga,"ax",%progbits
 804              		.align	1
 805              		.p2align 4,,15
 806              		.global	po8030_set_qvga
 807              		.syntax unified
 808              		.thumb
 809              		.thumb_func
 810              		.fpu fpv4-sp-d16
 811              		.type	po8030_set_qvga, %function
 812              	po8030_set_qvga:
 813              	.LFB261:
 814              		.loc 1 287 0
 815              		.cfi_startproc
 816              		@ args = 0, pretend = 0, frame = 8
 817              		@ frame_needed = 0, uses_anonymous_args = 0
 818 0000 00B5     		push	{lr}
 819              		.cfi_def_cfa_offset 4
 820              		.cfi_offset 14, -4
 821 0002 83B0     		sub	sp, sp, #12
 822              		.cfi_def_cfa_offset 16
 823              		.loc 1 287 0
 824 0004 D24B     		ldr	r3, .L93
 825 0006 1B68     		ldr	r3, [r3]
 826 0008 0193     		str	r3, [sp, #4]
 827              		.loc 1 288 0
 828 000a 0023     		movs	r3, #0
 829 000c 8DF80330 		strb	r3, [sp, #3]
 830              		.loc 1 290 0
 831 0010 0020     		movs	r0, #0
 832 0012 FFF7FEFF 		bl	po8030_set_bank
 833 0016 0346     		mov	r3, r0
 834 0018 8DF80330 		strb	r3, [sp, #3]
 835 001c 9DF90330 		ldrsb	r3, [sp, #3]
 836 0020 002B     		cmp	r3, #0
 837 0022 02D0     		beq	.L63
 838              		.loc 1 291 0
 839 0024 9DF90330 		ldrsb	r3, [sp, #3]
 840 0028 A2E1     		b	.L64
 841              	.L63:
 842              		.loc 1 294 0
 843 002a 0022     		movs	r2, #0
 844 002c 0821     		movs	r1, #8
 845 002e 6E20     		movs	r0, #110
 846 0030 FFF7FEFF 		bl	write_reg
 847 0034 0346     		mov	r3, r0
 848 0036 8DF80330 		strb	r3, [sp, #3]
 849 003a 9DF90330 		ldrsb	r3, [sp, #3]
 850 003e 002B     		cmp	r3, #0
 851 0040 02D0     		beq	.L65
 852              		.loc 1 295 0
 853 0042 9DF90330 		ldrsb	r3, [sp, #3]
 854 0046 93E1     		b	.L64
ARM GAS  C:\Users\PCHAUT~1\AppData\Local\Temp\ccMxpIDf.s 			page 16


 855              	.L65:
 856              		.loc 1 297 0
 857 0048 0122     		movs	r2, #1
 858 004a 0921     		movs	r1, #9
 859 004c 6E20     		movs	r0, #110
 860 004e FFF7FEFF 		bl	write_reg
 861 0052 0346     		mov	r3, r0
 862 0054 8DF80330 		strb	r3, [sp, #3]
 863 0058 9DF90330 		ldrsb	r3, [sp, #3]
 864 005c 002B     		cmp	r3, #0
 865 005e 02D0     		beq	.L66
 866              		.loc 1 298 0
 867 0060 9DF90330 		ldrsb	r3, [sp, #3]
 868 0064 84E1     		b	.L64
 869              	.L66:
 870              		.loc 1 300 0
 871 0066 0022     		movs	r2, #0
 872 0068 0A21     		movs	r1, #10
 873 006a 6E20     		movs	r0, #110
 874 006c FFF7FEFF 		bl	write_reg
 875 0070 0346     		mov	r3, r0
 876 0072 8DF80330 		strb	r3, [sp, #3]
 877 0076 9DF90330 		ldrsb	r3, [sp, #3]
 878 007a 002B     		cmp	r3, #0
 879 007c 02D0     		beq	.L67
 880              		.loc 1 301 0
 881 007e 9DF90330 		ldrsb	r3, [sp, #3]
 882 0082 75E1     		b	.L64
 883              	.L67:
 884              		.loc 1 303 0
 885 0084 0122     		movs	r2, #1
 886 0086 0B21     		movs	r1, #11
 887 0088 6E20     		movs	r0, #110
 888 008a FFF7FEFF 		bl	write_reg
 889 008e 0346     		mov	r3, r0
 890 0090 8DF80330 		strb	r3, [sp, #3]
 891 0094 9DF90330 		ldrsb	r3, [sp, #3]
 892 0098 002B     		cmp	r3, #0
 893 009a 02D0     		beq	.L68
 894              		.loc 1 304 0
 895 009c 9DF90330 		ldrsb	r3, [sp, #3]
 896 00a0 66E1     		b	.L64
 897              	.L68:
 898              		.loc 1 306 0
 899 00a2 0122     		movs	r2, #1
 900 00a4 0C21     		movs	r1, #12
 901 00a6 6E20     		movs	r0, #110
 902 00a8 FFF7FEFF 		bl	write_reg
 903 00ac 0346     		mov	r3, r0
 904 00ae 8DF80330 		strb	r3, [sp, #3]
 905 00b2 9DF90330 		ldrsb	r3, [sp, #3]
 906 00b6 002B     		cmp	r3, #0
 907 00b8 02D0     		beq	.L69
 908              		.loc 1 307 0
 909 00ba 9DF90330 		ldrsb	r3, [sp, #3]
 910 00be 57E1     		b	.L64
 911              	.L69:
ARM GAS  C:\Users\PCHAUT~1\AppData\Local\Temp\ccMxpIDf.s 			page 17


 912              		.loc 1 309 0
 913 00c0 4022     		movs	r2, #64
 914 00c2 0D21     		movs	r1, #13
 915 00c4 6E20     		movs	r0, #110
 916 00c6 FFF7FEFF 		bl	write_reg
 917 00ca 0346     		mov	r3, r0
 918 00cc 8DF80330 		strb	r3, [sp, #3]
 919 00d0 9DF90330 		ldrsb	r3, [sp, #3]
 920 00d4 002B     		cmp	r3, #0
 921 00d6 02D0     		beq	.L70
 922              		.loc 1 310 0
 923 00d8 9DF90330 		ldrsb	r3, [sp, #3]
 924 00dc 48E1     		b	.L64
 925              	.L70:
 926              		.loc 1 312 0
 927 00de 0022     		movs	r2, #0
 928 00e0 0E21     		movs	r1, #14
 929 00e2 6E20     		movs	r0, #110
 930 00e4 FFF7FEFF 		bl	write_reg
 931 00e8 0346     		mov	r3, r0
 932 00ea 8DF80330 		strb	r3, [sp, #3]
 933 00ee 9DF90330 		ldrsb	r3, [sp, #3]
 934 00f2 002B     		cmp	r3, #0
 935 00f4 02D0     		beq	.L71
 936              		.loc 1 313 0
 937 00f6 9DF90330 		ldrsb	r3, [sp, #3]
 938 00fa 39E1     		b	.L64
 939              	.L71:
 940              		.loc 1 315 0
 941 00fc F022     		movs	r2, #240
 942 00fe 0F21     		movs	r1, #15
 943 0100 6E20     		movs	r0, #110
 944 0102 FFF7FEFF 		bl	write_reg
 945 0106 0346     		mov	r3, r0
 946 0108 8DF80330 		strb	r3, [sp, #3]
 947 010c 9DF90330 		ldrsb	r3, [sp, #3]
 948 0110 002B     		cmp	r3, #0
 949 0112 02D0     		beq	.L72
 950              		.loc 1 316 0
 951 0114 9DF90330 		ldrsb	r3, [sp, #3]
 952 0118 2AE1     		b	.L64
 953              	.L72:
 954              		.loc 1 319 0
 955 011a 0022     		movs	r2, #0
 956 011c 3521     		movs	r1, #53
 957 011e 6E20     		movs	r0, #110
 958 0120 FFF7FEFF 		bl	write_reg
 959 0124 0346     		mov	r3, r0
 960 0126 8DF80330 		strb	r3, [sp, #3]
 961 012a 9DF90330 		ldrsb	r3, [sp, #3]
 962 012e 002B     		cmp	r3, #0
 963 0130 02D0     		beq	.L73
 964              		.loc 1 320 0
 965 0132 9DF90330 		ldrsb	r3, [sp, #3]
 966 0136 1BE1     		b	.L64
 967              	.L73:
 968              		.loc 1 322 0
ARM GAS  C:\Users\PCHAUT~1\AppData\Local\Temp\ccMxpIDf.s 			page 18


 969 0138 0122     		movs	r2, #1
 970 013a 3621     		movs	r1, #54
 971 013c 6E20     		movs	r0, #110
 972 013e FFF7FEFF 		bl	write_reg
 973 0142 0346     		mov	r3, r0
 974 0144 8DF80330 		strb	r3, [sp, #3]
 975 0148 9DF90330 		ldrsb	r3, [sp, #3]
 976 014c 002B     		cmp	r3, #0
 977 014e 02D0     		beq	.L74
 978              		.loc 1 323 0
 979 0150 9DF90330 		ldrsb	r3, [sp, #3]
 980 0154 0CE1     		b	.L64
 981              	.L74:
 982              		.loc 1 325 0
 983 0156 0122     		movs	r2, #1
 984 0158 3721     		movs	r1, #55
 985 015a 6E20     		movs	r0, #110
 986 015c FFF7FEFF 		bl	write_reg
 987 0160 0346     		mov	r3, r0
 988 0162 8DF80330 		strb	r3, [sp, #3]
 989 0166 9DF90330 		ldrsb	r3, [sp, #3]
 990 016a 002B     		cmp	r3, #0
 991 016c 02D0     		beq	.L75
 992              		.loc 1 326 0
 993 016e 9DF90330 		ldrsb	r3, [sp, #3]
 994 0172 FDE0     		b	.L64
 995              	.L75:
 996              		.loc 1 328 0
 997 0174 4022     		movs	r2, #64
 998 0176 3821     		movs	r1, #56
 999 0178 6E20     		movs	r0, #110
 1000 017a FFF7FEFF 		bl	write_reg
 1001 017e 0346     		mov	r3, r0
 1002 0180 8DF80330 		strb	r3, [sp, #3]
 1003 0184 9DF90330 		ldrsb	r3, [sp, #3]
 1004 0188 002B     		cmp	r3, #0
 1005 018a 02D0     		beq	.L76
 1006              		.loc 1 329 0
 1007 018c 9DF90330 		ldrsb	r3, [sp, #3]
 1008 0190 EEE0     		b	.L64
 1009              	.L76:
 1010              		.loc 1 331 0
 1011 0192 0022     		movs	r2, #0
 1012 0194 3921     		movs	r1, #57
 1013 0196 6E20     		movs	r0, #110
 1014 0198 FFF7FEFF 		bl	write_reg
 1015 019c 0346     		mov	r3, r0
 1016 019e 8DF80330 		strb	r3, [sp, #3]
 1017 01a2 9DF90330 		ldrsb	r3, [sp, #3]
 1018 01a6 002B     		cmp	r3, #0
 1019 01a8 02D0     		beq	.L77
 1020              		.loc 1 332 0
 1021 01aa 9DF90330 		ldrsb	r3, [sp, #3]
 1022 01ae DFE0     		b	.L64
 1023              	.L77:
 1024              		.loc 1 334 0
 1025 01b0 0122     		movs	r2, #1
ARM GAS  C:\Users\PCHAUT~1\AppData\Local\Temp\ccMxpIDf.s 			page 19


 1026 01b2 3A21     		movs	r1, #58
 1027 01b4 6E20     		movs	r0, #110
 1028 01b6 FFF7FEFF 		bl	write_reg
 1029 01ba 0346     		mov	r3, r0
 1030 01bc 8DF80330 		strb	r3, [sp, #3]
 1031 01c0 9DF90330 		ldrsb	r3, [sp, #3]
 1032 01c4 002B     		cmp	r3, #0
 1033 01c6 02D0     		beq	.L78
 1034              		.loc 1 335 0
 1035 01c8 9DF90330 		ldrsb	r3, [sp, #3]
 1036 01cc D0E0     		b	.L64
 1037              	.L78:
 1038              		.loc 1 337 0
 1039 01ce 0022     		movs	r2, #0
 1040 01d0 3B21     		movs	r1, #59
 1041 01d2 6E20     		movs	r0, #110
 1042 01d4 FFF7FEFF 		bl	write_reg
 1043 01d8 0346     		mov	r3, r0
 1044 01da 8DF80330 		strb	r3, [sp, #3]
 1045 01de 9DF90330 		ldrsb	r3, [sp, #3]
 1046 01e2 002B     		cmp	r3, #0
 1047 01e4 02D0     		beq	.L79
 1048              		.loc 1 338 0
 1049 01e6 9DF90330 		ldrsb	r3, [sp, #3]
 1050 01ea C1E0     		b	.L64
 1051              	.L79:
 1052              		.loc 1 340 0
 1053 01ec F022     		movs	r2, #240
 1054 01ee 3C21     		movs	r1, #60
 1055 01f0 6E20     		movs	r0, #110
 1056 01f2 FFF7FEFF 		bl	write_reg
 1057 01f6 0346     		mov	r3, r0
 1058 01f8 8DF80330 		strb	r3, [sp, #3]
 1059 01fc 9DF90330 		ldrsb	r3, [sp, #3]
 1060 0200 002B     		cmp	r3, #0
 1061 0202 02D0     		beq	.L80
 1062              		.loc 1 341 0
 1063 0204 9DF90330 		ldrsb	r3, [sp, #3]
 1064 0208 B2E0     		b	.L64
 1065              	.L80:
 1066              		.loc 1 344 0
 1067 020a 0022     		movs	r2, #0
 1068 020c 3D21     		movs	r1, #61
 1069 020e 6E20     		movs	r0, #110
 1070 0210 FFF7FEFF 		bl	write_reg
 1071 0214 0346     		mov	r3, r0
 1072 0216 8DF80330 		strb	r3, [sp, #3]
 1073 021a 9DF90330 		ldrsb	r3, [sp, #3]
 1074 021e 002B     		cmp	r3, #0
 1075 0220 02D0     		beq	.L81
 1076              		.loc 1 345 0
 1077 0222 9DF90330 		ldrsb	r3, [sp, #3]
 1078 0226 A3E0     		b	.L64
 1079              	.L81:
 1080              		.loc 1 347 0
 1081 0228 6B22     		movs	r2, #107
 1082 022a 3E21     		movs	r1, #62
ARM GAS  C:\Users\PCHAUT~1\AppData\Local\Temp\ccMxpIDf.s 			page 20


 1083 022c 6E20     		movs	r0, #110
 1084 022e FFF7FEFF 		bl	write_reg
 1085 0232 0346     		mov	r3, r0
 1086 0234 8DF80330 		strb	r3, [sp, #3]
 1087 0238 9DF90330 		ldrsb	r3, [sp, #3]
 1088 023c 002B     		cmp	r3, #0
 1089 023e 02D0     		beq	.L82
 1090              		.loc 1 348 0
 1091 0240 9DF90330 		ldrsb	r3, [sp, #3]
 1092 0244 94E0     		b	.L64
 1093              	.L82:
 1094              		.loc 1 350 0
 1095 0246 0022     		movs	r2, #0
 1096 0248 3F21     		movs	r1, #63
 1097 024a 6E20     		movs	r0, #110
 1098 024c FFF7FEFF 		bl	write_reg
 1099 0250 0346     		mov	r3, r0
 1100 0252 8DF80330 		strb	r3, [sp, #3]
 1101 0256 9DF90330 		ldrsb	r3, [sp, #3]
 1102 025a 002B     		cmp	r3, #0
 1103 025c 02D0     		beq	.L83
 1104              		.loc 1 351 0
 1105 025e 9DF90330 		ldrsb	r3, [sp, #3]
 1106 0262 85E0     		b	.L64
 1107              	.L83:
 1108              		.loc 1 353 0
 1109 0264 D622     		movs	r2, #214
 1110 0266 4021     		movs	r1, #64
 1111 0268 6E20     		movs	r0, #110
 1112 026a FFF7FEFF 		bl	write_reg
 1113 026e 0346     		mov	r3, r0
 1114 0270 8DF80330 		strb	r3, [sp, #3]
 1115 0274 9DF90330 		ldrsb	r3, [sp, #3]
 1116 0278 002B     		cmp	r3, #0
 1117 027a 02D0     		beq	.L84
 1118              		.loc 1 354 0
 1119 027c 9DF90330 		ldrsb	r3, [sp, #3]
 1120 0280 76E0     		b	.L64
 1121              	.L84:
 1122              		.loc 1 356 0
 1123 0282 0022     		movs	r2, #0
 1124 0284 4121     		movs	r1, #65
 1125 0286 6E20     		movs	r0, #110
 1126 0288 FFF7FEFF 		bl	write_reg
 1127 028c 0346     		mov	r3, r0
 1128 028e 8DF80330 		strb	r3, [sp, #3]
 1129 0292 9DF90330 		ldrsb	r3, [sp, #3]
 1130 0296 002B     		cmp	r3, #0
 1131 0298 02D0     		beq	.L85
 1132              		.loc 1 357 0
 1133 029a 9DF90330 		ldrsb	r3, [sp, #3]
 1134 029e 67E0     		b	.L64
 1135              	.L85:
 1136              		.loc 1 359 0
 1137 02a0 5022     		movs	r2, #80
 1138 02a2 4221     		movs	r1, #66
 1139 02a4 6E20     		movs	r0, #110
ARM GAS  C:\Users\PCHAUT~1\AppData\Local\Temp\ccMxpIDf.s 			page 21


 1140 02a6 FFF7FEFF 		bl	write_reg
 1141 02aa 0346     		mov	r3, r0
 1142 02ac 8DF80330 		strb	r3, [sp, #3]
 1143 02b0 9DF90330 		ldrsb	r3, [sp, #3]
 1144 02b4 002B     		cmp	r3, #0
 1145 02b6 02D0     		beq	.L86
 1146              		.loc 1 360 0
 1147 02b8 9DF90330 		ldrsb	r3, [sp, #3]
 1148 02bc 58E0     		b	.L64
 1149              	.L86:
 1150              		.loc 1 362 0
 1151 02be 0022     		movs	r2, #0
 1152 02c0 4321     		movs	r1, #67
 1153 02c2 6E20     		movs	r0, #110
 1154 02c4 FFF7FEFF 		bl	write_reg
 1155 02c8 0346     		mov	r3, r0
 1156 02ca 8DF80330 		strb	r3, [sp, #3]
 1157 02ce 9DF90330 		ldrsb	r3, [sp, #3]
 1158 02d2 002B     		cmp	r3, #0
 1159 02d4 02D0     		beq	.L87
 1160              		.loc 1 363 0
 1161 02d6 9DF90330 		ldrsb	r3, [sp, #3]
 1162 02da 49E0     		b	.L64
 1163              	.L87:
 1164              		.loc 1 365 0
 1165 02dc A022     		movs	r2, #160
 1166 02de 4421     		movs	r1, #68
 1167 02e0 6E20     		movs	r0, #110
 1168 02e2 FFF7FEFF 		bl	write_reg
 1169 02e6 0346     		mov	r3, r0
 1170 02e8 8DF80330 		strb	r3, [sp, #3]
 1171 02ec 9DF90330 		ldrsb	r3, [sp, #3]
 1172 02f0 002B     		cmp	r3, #0
 1173 02f2 02D0     		beq	.L88
 1174              		.loc 1 366 0
 1175 02f4 9DF90330 		ldrsb	r3, [sp, #3]
 1176 02f8 3AE0     		b	.L64
 1177              	.L88:
 1178              		.loc 1 369 0
 1179 02fa 0120     		movs	r0, #1
 1180 02fc FFF7FEFF 		bl	po8030_set_bank
 1181 0300 0346     		mov	r3, r0
 1182 0302 8DF80330 		strb	r3, [sp, #3]
 1183 0306 9DF90330 		ldrsb	r3, [sp, #3]
 1184 030a 002B     		cmp	r3, #0
 1185 030c 02D0     		beq	.L89
 1186              		.loc 1 370 0
 1187 030e 9DF90330 		ldrsb	r3, [sp, #3]
 1188 0312 2DE0     		b	.L64
 1189              	.L89:
 1190              		.loc 1 373 0
 1191 0314 4022     		movs	r2, #64
 1192 0316 9321     		movs	r1, #147
 1193 0318 6E20     		movs	r0, #110
 1194 031a FFF7FEFF 		bl	write_reg
 1195 031e 0346     		mov	r3, r0
 1196 0320 8DF80330 		strb	r3, [sp, #3]
ARM GAS  C:\Users\PCHAUT~1\AppData\Local\Temp\ccMxpIDf.s 			page 22


 1197 0324 9DF90330 		ldrsb	r3, [sp, #3]
 1198 0328 002B     		cmp	r3, #0
 1199 032a 02D0     		beq	.L90
 1200              		.loc 1 374 0
 1201 032c 9DF90330 		ldrsb	r3, [sp, #3]
 1202 0330 1EE0     		b	.L64
 1203              	.L90:
 1204              		.loc 1 376 0
 1205 0332 4022     		movs	r2, #64
 1206 0334 9421     		movs	r1, #148
 1207 0336 6E20     		movs	r0, #110
 1208 0338 FFF7FEFF 		bl	write_reg
 1209 033c 0346     		mov	r3, r0
 1210 033e 8DF80330 		strb	r3, [sp, #3]
 1211 0342 9DF90330 		ldrsb	r3, [sp, #3]
 1212 0346 002B     		cmp	r3, #0
 1213 0348 04D0     		beq	.L91
 1214              		.loc 1 377 0
 1215 034a 9DF90330 		ldrsb	r3, [sp, #3]
 1216 034e 0FE0     		b	.L64
 1217              	.L94:
 1218              		.align	2
 1219              	.L93:
 1220 0350 00000000 		.word	__stack_chk_guard
 1221              	.L91:
 1222              		.loc 1 380 0
 1223 0354 0C4B     		ldr	r3, .L95
 1224 0356 4FF4A072 		mov	r2, #320
 1225 035a 1A80     		strh	r2, [r3]	@ movhi
 1226              		.loc 1 381 0
 1227 035c 0A4B     		ldr	r3, .L95
 1228 035e F022     		movs	r2, #240
 1229 0360 5A80     		strh	r2, [r3, #2]	@ movhi
 1230              		.loc 1 382 0
 1231 0362 094B     		ldr	r3, .L95
 1232 0364 2022     		movs	r2, #32
 1233 0366 5A71     		strb	r2, [r3, #5]
 1234              		.loc 1 383 0
 1235 0368 074B     		ldr	r3, .L95
 1236 036a 2022     		movs	r2, #32
 1237 036c 9A71     		strb	r2, [r3, #6]
 1238              		.loc 1 385 0
 1239 036e 0023     		movs	r3, #0
 1240              	.L64:
 1241              		.loc 1 386 0
 1242 0370 1846     		mov	r0, r3
 1243 0372 064B     		ldr	r3, .L95+4
 1244 0374 019A     		ldr	r2, [sp, #4]
 1245 0376 1B68     		ldr	r3, [r3]
 1246 0378 9A42     		cmp	r2, r3
 1247 037a 01D0     		beq	.L92
 1248 037c FFF7FEFF 		bl	__stack_chk_fail
 1249              	.L92:
 1250 0380 03B0     		add	sp, sp, #12
 1251              		.cfi_def_cfa_offset 4
 1252              		@ sp needed
 1253 0382 5DF804FB 		ldr	pc, [sp], #4
ARM GAS  C:\Users\PCHAUT~1\AppData\Local\Temp\ccMxpIDf.s 			page 23


 1254              	.L96:
 1255 0386 00BF     		.align	2
 1256              	.L95:
 1257 0388 00000000 		.word	po8030_conf
 1258 038c 00000000 		.word	__stack_chk_guard
 1259              		.cfi_endproc
 1260              	.LFE261:
 1261              		.size	po8030_set_qvga, .-po8030_set_qvga
 1262              		.section	.text.po8030_set_qqvga,"ax",%progbits
 1263              		.align	1
 1264              		.p2align 4,,15
 1265              		.global	po8030_set_qqvga
 1266              		.syntax unified
 1267              		.thumb
 1268              		.thumb_func
 1269              		.fpu fpv4-sp-d16
 1270              		.type	po8030_set_qqvga, %function
 1271              	po8030_set_qqvga:
 1272              	.LFB262:
 1273              		.loc 1 396 0
 1274              		.cfi_startproc
 1275              		@ args = 0, pretend = 0, frame = 8
 1276              		@ frame_needed = 0, uses_anonymous_args = 0
 1277 0000 00B5     		push	{lr}
 1278              		.cfi_def_cfa_offset 4
 1279              		.cfi_offset 14, -4
 1280 0002 83B0     		sub	sp, sp, #12
 1281              		.cfi_def_cfa_offset 16
 1282              		.loc 1 396 0
 1283 0004 D24B     		ldr	r3, .L128
 1284 0006 1B68     		ldr	r3, [r3]
 1285 0008 0193     		str	r3, [sp, #4]
 1286              		.loc 1 397 0
 1287 000a 0023     		movs	r3, #0
 1288 000c 8DF80330 		strb	r3, [sp, #3]
 1289              		.loc 1 399 0
 1290 0010 0020     		movs	r0, #0
 1291 0012 FFF7FEFF 		bl	po8030_set_bank
 1292 0016 0346     		mov	r3, r0
 1293 0018 8DF80330 		strb	r3, [sp, #3]
 1294 001c 9DF90330 		ldrsb	r3, [sp, #3]
 1295 0020 002B     		cmp	r3, #0
 1296 0022 02D0     		beq	.L98
 1297              		.loc 1 400 0
 1298 0024 9DF90330 		ldrsb	r3, [sp, #3]
 1299 0028 A1E1     		b	.L99
 1300              	.L98:
 1301              		.loc 1 403 0
 1302 002a 0022     		movs	r2, #0
 1303 002c 0821     		movs	r1, #8
 1304 002e 6E20     		movs	r0, #110
 1305 0030 FFF7FEFF 		bl	write_reg
 1306 0034 0346     		mov	r3, r0
 1307 0036 8DF80330 		strb	r3, [sp, #3]
 1308 003a 9DF90330 		ldrsb	r3, [sp, #3]
 1309 003e 002B     		cmp	r3, #0
 1310 0040 02D0     		beq	.L100
ARM GAS  C:\Users\PCHAUT~1\AppData\Local\Temp\ccMxpIDf.s 			page 24


 1311              		.loc 1 404 0
 1312 0042 9DF90330 		ldrsb	r3, [sp, #3]
 1313 0046 92E1     		b	.L99
 1314              	.L100:
 1315              		.loc 1 406 0
 1316 0048 0122     		movs	r2, #1
 1317 004a 0921     		movs	r1, #9
 1318 004c 6E20     		movs	r0, #110
 1319 004e FFF7FEFF 		bl	write_reg
 1320 0052 0346     		mov	r3, r0
 1321 0054 8DF80330 		strb	r3, [sp, #3]
 1322 0058 9DF90330 		ldrsb	r3, [sp, #3]
 1323 005c 002B     		cmp	r3, #0
 1324 005e 02D0     		beq	.L101
 1325              		.loc 1 407 0
 1326 0060 9DF90330 		ldrsb	r3, [sp, #3]
 1327 0064 83E1     		b	.L99
 1328              	.L101:
 1329              		.loc 1 409 0
 1330 0066 0022     		movs	r2, #0
 1331 0068 0A21     		movs	r1, #10
 1332 006a 6E20     		movs	r0, #110
 1333 006c FFF7FEFF 		bl	write_reg
 1334 0070 0346     		mov	r3, r0
 1335 0072 8DF80330 		strb	r3, [sp, #3]
 1336 0076 9DF90330 		ldrsb	r3, [sp, #3]
 1337 007a 002B     		cmp	r3, #0
 1338 007c 02D0     		beq	.L102
 1339              		.loc 1 410 0
 1340 007e 9DF90330 		ldrsb	r3, [sp, #3]
 1341 0082 74E1     		b	.L99
 1342              	.L102:
 1343              		.loc 1 412 0
 1344 0084 0122     		movs	r2, #1
 1345 0086 0B21     		movs	r1, #11
 1346 0088 6E20     		movs	r0, #110
 1347 008a FFF7FEFF 		bl	write_reg
 1348 008e 0346     		mov	r3, r0
 1349 0090 8DF80330 		strb	r3, [sp, #3]
 1350 0094 9DF90330 		ldrsb	r3, [sp, #3]
 1351 0098 002B     		cmp	r3, #0
 1352 009a 02D0     		beq	.L103
 1353              		.loc 1 413 0
 1354 009c 9DF90330 		ldrsb	r3, [sp, #3]
 1355 00a0 65E1     		b	.L99
 1356              	.L103:
 1357              		.loc 1 415 0
 1358 00a2 0022     		movs	r2, #0
 1359 00a4 0C21     		movs	r1, #12
 1360 00a6 6E20     		movs	r0, #110
 1361 00a8 FFF7FEFF 		bl	write_reg
 1362 00ac 0346     		mov	r3, r0
 1363 00ae 8DF80330 		strb	r3, [sp, #3]
 1364 00b2 9DF90330 		ldrsb	r3, [sp, #3]
 1365 00b6 002B     		cmp	r3, #0
 1366 00b8 02D0     		beq	.L104
 1367              		.loc 1 416 0
ARM GAS  C:\Users\PCHAUT~1\AppData\Local\Temp\ccMxpIDf.s 			page 25


 1368 00ba 9DF90330 		ldrsb	r3, [sp, #3]
 1369 00be 56E1     		b	.L99
 1370              	.L104:
 1371              		.loc 1 418 0
 1372 00c0 A022     		movs	r2, #160
 1373 00c2 0D21     		movs	r1, #13
 1374 00c4 6E20     		movs	r0, #110
 1375 00c6 FFF7FEFF 		bl	write_reg
 1376 00ca 0346     		mov	r3, r0
 1377 00cc 8DF80330 		strb	r3, [sp, #3]
 1378 00d0 9DF90330 		ldrsb	r3, [sp, #3]
 1379 00d4 002B     		cmp	r3, #0
 1380 00d6 02D0     		beq	.L105
 1381              		.loc 1 419 0
 1382 00d8 9DF90330 		ldrsb	r3, [sp, #3]
 1383 00dc 47E1     		b	.L99
 1384              	.L105:
 1385              		.loc 1 421 0
 1386 00de 0022     		movs	r2, #0
 1387 00e0 0E21     		movs	r1, #14
 1388 00e2 6E20     		movs	r0, #110
 1389 00e4 FFF7FEFF 		bl	write_reg
 1390 00e8 0346     		mov	r3, r0
 1391 00ea 8DF80330 		strb	r3, [sp, #3]
 1392 00ee 9DF90330 		ldrsb	r3, [sp, #3]
 1393 00f2 002B     		cmp	r3, #0
 1394 00f4 02D0     		beq	.L106
 1395              		.loc 1 422 0
 1396 00f6 9DF90330 		ldrsb	r3, [sp, #3]
 1397 00fa 38E1     		b	.L99
 1398              	.L106:
 1399              		.loc 1 424 0
 1400 00fc 7822     		movs	r2, #120
 1401 00fe 0F21     		movs	r1, #15
 1402 0100 6E20     		movs	r0, #110
 1403 0102 FFF7FEFF 		bl	write_reg
 1404 0106 0346     		mov	r3, r0
 1405 0108 8DF80330 		strb	r3, [sp, #3]
 1406 010c 9DF90330 		ldrsb	r3, [sp, #3]
 1407 0110 002B     		cmp	r3, #0
 1408 0112 02D0     		beq	.L107
 1409              		.loc 1 425 0
 1410 0114 9DF90330 		ldrsb	r3, [sp, #3]
 1411 0118 29E1     		b	.L99
 1412              	.L107:
 1413              		.loc 1 428 0
 1414 011a 0022     		movs	r2, #0
 1415 011c 3521     		movs	r1, #53
 1416 011e 6E20     		movs	r0, #110
 1417 0120 FFF7FEFF 		bl	write_reg
 1418 0124 0346     		mov	r3, r0
 1419 0126 8DF80330 		strb	r3, [sp, #3]
 1420 012a 9DF90330 		ldrsb	r3, [sp, #3]
 1421 012e 002B     		cmp	r3, #0
 1422 0130 02D0     		beq	.L108
 1423              		.loc 1 429 0
 1424 0132 9DF90330 		ldrsb	r3, [sp, #3]
ARM GAS  C:\Users\PCHAUT~1\AppData\Local\Temp\ccMxpIDf.s 			page 26


 1425 0136 1AE1     		b	.L99
 1426              	.L108:
 1427              		.loc 1 431 0
 1428 0138 0122     		movs	r2, #1
 1429 013a 3621     		movs	r1, #54
 1430 013c 6E20     		movs	r0, #110
 1431 013e FFF7FEFF 		bl	write_reg
 1432 0142 0346     		mov	r3, r0
 1433 0144 8DF80330 		strb	r3, [sp, #3]
 1434 0148 9DF90330 		ldrsb	r3, [sp, #3]
 1435 014c 002B     		cmp	r3, #0
 1436 014e 02D0     		beq	.L109
 1437              		.loc 1 432 0
 1438 0150 9DF90330 		ldrsb	r3, [sp, #3]
 1439 0154 0BE1     		b	.L99
 1440              	.L109:
 1441              		.loc 1 434 0
 1442 0156 0022     		movs	r2, #0
 1443 0158 3721     		movs	r1, #55
 1444 015a 6E20     		movs	r0, #110
 1445 015c FFF7FEFF 		bl	write_reg
 1446 0160 0346     		mov	r3, r0
 1447 0162 8DF80330 		strb	r3, [sp, #3]
 1448 0166 9DF90330 		ldrsb	r3, [sp, #3]
 1449 016a 002B     		cmp	r3, #0
 1450 016c 02D0     		beq	.L110
 1451              		.loc 1 435 0
 1452 016e 9DF90330 		ldrsb	r3, [sp, #3]
 1453 0172 FCE0     		b	.L99
 1454              	.L110:
 1455              		.loc 1 437 0
 1456 0174 A022     		movs	r2, #160
 1457 0176 3821     		movs	r1, #56
 1458 0178 6E20     		movs	r0, #110
 1459 017a FFF7FEFF 		bl	write_reg
 1460 017e 0346     		mov	r3, r0
 1461 0180 8DF80330 		strb	r3, [sp, #3]
 1462 0184 9DF90330 		ldrsb	r3, [sp, #3]
 1463 0188 002B     		cmp	r3, #0
 1464 018a 02D0     		beq	.L111
 1465              		.loc 1 438 0
 1466 018c 9DF90330 		ldrsb	r3, [sp, #3]
 1467 0190 EDE0     		b	.L99
 1468              	.L111:
 1469              		.loc 1 440 0
 1470 0192 0022     		movs	r2, #0
 1471 0194 3921     		movs	r1, #57
 1472 0196 6E20     		movs	r0, #110
 1473 0198 FFF7FEFF 		bl	write_reg
 1474 019c 0346     		mov	r3, r0
 1475 019e 8DF80330 		strb	r3, [sp, #3]
 1476 01a2 9DF90330 		ldrsb	r3, [sp, #3]
 1477 01a6 002B     		cmp	r3, #0
 1478 01a8 02D0     		beq	.L112
 1479              		.loc 1 441 0
 1480 01aa 9DF90330 		ldrsb	r3, [sp, #3]
 1481 01ae DEE0     		b	.L99
ARM GAS  C:\Users\PCHAUT~1\AppData\Local\Temp\ccMxpIDf.s 			page 27


 1482              	.L112:
 1483              		.loc 1 443 0
 1484 01b0 0122     		movs	r2, #1
 1485 01b2 3A21     		movs	r1, #58
 1486 01b4 6E20     		movs	r0, #110
 1487 01b6 FFF7FEFF 		bl	write_reg
 1488 01ba 0346     		mov	r3, r0
 1489 01bc 8DF80330 		strb	r3, [sp, #3]
 1490 01c0 9DF90330 		ldrsb	r3, [sp, #3]
 1491 01c4 002B     		cmp	r3, #0
 1492 01c6 02D0     		beq	.L113
 1493              		.loc 1 444 0
 1494 01c8 9DF90330 		ldrsb	r3, [sp, #3]
 1495 01cc CFE0     		b	.L99
 1496              	.L113:
 1497              		.loc 1 446 0
 1498 01ce 0022     		movs	r2, #0
 1499 01d0 3B21     		movs	r1, #59
 1500 01d2 6E20     		movs	r0, #110
 1501 01d4 FFF7FEFF 		bl	write_reg
 1502 01d8 0346     		mov	r3, r0
 1503 01da 8DF80330 		strb	r3, [sp, #3]
 1504 01de 9DF90330 		ldrsb	r3, [sp, #3]
 1505 01e2 002B     		cmp	r3, #0
 1506 01e4 02D0     		beq	.L114
 1507              		.loc 1 447 0
 1508 01e6 9DF90330 		ldrsb	r3, [sp, #3]
 1509 01ea C0E0     		b	.L99
 1510              	.L114:
 1511              		.loc 1 449 0
 1512 01ec 7822     		movs	r2, #120
 1513 01ee 3C21     		movs	r1, #60
 1514 01f0 6E20     		movs	r0, #110
 1515 01f2 FFF7FEFF 		bl	write_reg
 1516 01f6 0346     		mov	r3, r0
 1517 01f8 8DF80330 		strb	r3, [sp, #3]
 1518 01fc 9DF90330 		ldrsb	r3, [sp, #3]
 1519 0200 002B     		cmp	r3, #0
 1520 0202 02D0     		beq	.L115
 1521              		.loc 1 450 0
 1522 0204 9DF90330 		ldrsb	r3, [sp, #3]
 1523 0208 B1E0     		b	.L99
 1524              	.L115:
 1525              		.loc 1 453 0
 1526 020a 0022     		movs	r2, #0
 1527 020c 3D21     		movs	r1, #61
 1528 020e 6E20     		movs	r0, #110
 1529 0210 FFF7FEFF 		bl	write_reg
 1530 0214 0346     		mov	r3, r0
 1531 0216 8DF80330 		strb	r3, [sp, #3]
 1532 021a 9DF90330 		ldrsb	r3, [sp, #3]
 1533 021e 002B     		cmp	r3, #0
 1534 0220 02D0     		beq	.L116
 1535              		.loc 1 454 0
 1536 0222 9DF90330 		ldrsb	r3, [sp, #3]
 1537 0226 A2E0     		b	.L99
 1538              	.L116:
ARM GAS  C:\Users\PCHAUT~1\AppData\Local\Temp\ccMxpIDf.s 			page 28


 1539              		.loc 1 456 0
 1540 0228 3622     		movs	r2, #54
 1541 022a 3E21     		movs	r1, #62
 1542 022c 6E20     		movs	r0, #110
 1543 022e FFF7FEFF 		bl	write_reg
 1544 0232 0346     		mov	r3, r0
 1545 0234 8DF80330 		strb	r3, [sp, #3]
 1546 0238 9DF90330 		ldrsb	r3, [sp, #3]
 1547 023c 002B     		cmp	r3, #0
 1548 023e 02D0     		beq	.L117
 1549              		.loc 1 457 0
 1550 0240 9DF90330 		ldrsb	r3, [sp, #3]
 1551 0244 93E0     		b	.L99
 1552              	.L117:
 1553              		.loc 1 459 0
 1554 0246 0022     		movs	r2, #0
 1555 0248 3F21     		movs	r1, #63
 1556 024a 6E20     		movs	r0, #110
 1557 024c FFF7FEFF 		bl	write_reg
 1558 0250 0346     		mov	r3, r0
 1559 0252 8DF80330 		strb	r3, [sp, #3]
 1560 0256 9DF90330 		ldrsb	r3, [sp, #3]
 1561 025a 002B     		cmp	r3, #0
 1562 025c 02D0     		beq	.L118
 1563              		.loc 1 460 0
 1564 025e 9DF90330 		ldrsb	r3, [sp, #3]
 1565 0262 84E0     		b	.L99
 1566              	.L118:
 1567              		.loc 1 462 0
 1568 0264 6B22     		movs	r2, #107
 1569 0266 4021     		movs	r1, #64
 1570 0268 6E20     		movs	r0, #110
 1571 026a FFF7FEFF 		bl	write_reg
 1572 026e 0346     		mov	r3, r0
 1573 0270 8DF80330 		strb	r3, [sp, #3]
 1574 0274 9DF90330 		ldrsb	r3, [sp, #3]
 1575 0278 002B     		cmp	r3, #0
 1576 027a 02D0     		beq	.L119
 1577              		.loc 1 463 0
 1578 027c 9DF90330 		ldrsb	r3, [sp, #3]
 1579 0280 75E0     		b	.L99
 1580              	.L119:
 1581              		.loc 1 465 0
 1582 0282 0022     		movs	r2, #0
 1583 0284 4121     		movs	r1, #65
 1584 0286 6E20     		movs	r0, #110
 1585 0288 FFF7FEFF 		bl	write_reg
 1586 028c 0346     		mov	r3, r0
 1587 028e 8DF80330 		strb	r3, [sp, #3]
 1588 0292 9DF90330 		ldrsb	r3, [sp, #3]
 1589 0296 002B     		cmp	r3, #0
 1590 0298 02D0     		beq	.L120
 1591              		.loc 1 466 0
 1592 029a 9DF90330 		ldrsb	r3, [sp, #3]
 1593 029e 66E0     		b	.L99
 1594              	.L120:
 1595              		.loc 1 468 0
ARM GAS  C:\Users\PCHAUT~1\AppData\Local\Temp\ccMxpIDf.s 			page 29


 1596 02a0 2922     		movs	r2, #41
 1597 02a2 4221     		movs	r1, #66
 1598 02a4 6E20     		movs	r0, #110
 1599 02a6 FFF7FEFF 		bl	write_reg
 1600 02aa 0346     		mov	r3, r0
 1601 02ac 8DF80330 		strb	r3, [sp, #3]
 1602 02b0 9DF90330 		ldrsb	r3, [sp, #3]
 1603 02b4 002B     		cmp	r3, #0
 1604 02b6 02D0     		beq	.L121
 1605              		.loc 1 469 0
 1606 02b8 9DF90330 		ldrsb	r3, [sp, #3]
 1607 02bc 57E0     		b	.L99
 1608              	.L121:
 1609              		.loc 1 471 0
 1610 02be 0022     		movs	r2, #0
 1611 02c0 4321     		movs	r1, #67
 1612 02c2 6E20     		movs	r0, #110
 1613 02c4 FFF7FEFF 		bl	write_reg
 1614 02c8 0346     		mov	r3, r0
 1615 02ca 8DF80330 		strb	r3, [sp, #3]
 1616 02ce 9DF90330 		ldrsb	r3, [sp, #3]
 1617 02d2 002B     		cmp	r3, #0
 1618 02d4 02D0     		beq	.L122
 1619              		.loc 1 472 0
 1620 02d6 9DF90330 		ldrsb	r3, [sp, #3]
 1621 02da 48E0     		b	.L99
 1622              	.L122:
 1623              		.loc 1 474 0
 1624 02dc 5022     		movs	r2, #80
 1625 02de 4421     		movs	r1, #68
 1626 02e0 6E20     		movs	r0, #110
 1627 02e2 FFF7FEFF 		bl	write_reg
 1628 02e6 0346     		mov	r3, r0
 1629 02e8 8DF80330 		strb	r3, [sp, #3]
 1630 02ec 9DF90330 		ldrsb	r3, [sp, #3]
 1631 02f0 002B     		cmp	r3, #0
 1632 02f2 02D0     		beq	.L123
 1633              		.loc 1 475 0
 1634 02f4 9DF90330 		ldrsb	r3, [sp, #3]
 1635 02f8 39E0     		b	.L99
 1636              	.L123:
 1637              		.loc 1 478 0
 1638 02fa 0120     		movs	r0, #1
 1639 02fc FFF7FEFF 		bl	po8030_set_bank
 1640 0300 0346     		mov	r3, r0
 1641 0302 8DF80330 		strb	r3, [sp, #3]
 1642 0306 9DF90330 		ldrsb	r3, [sp, #3]
 1643 030a 002B     		cmp	r3, #0
 1644 030c 02D0     		beq	.L124
 1645              		.loc 1 479 0
 1646 030e 9DF90330 		ldrsb	r3, [sp, #3]
 1647 0312 2CE0     		b	.L99
 1648              	.L124:
 1649              		.loc 1 482 0
 1650 0314 8022     		movs	r2, #128
 1651 0316 9321     		movs	r1, #147
 1652 0318 6E20     		movs	r0, #110
ARM GAS  C:\Users\PCHAUT~1\AppData\Local\Temp\ccMxpIDf.s 			page 30


 1653 031a FFF7FEFF 		bl	write_reg
 1654 031e 0346     		mov	r3, r0
 1655 0320 8DF80330 		strb	r3, [sp, #3]
 1656 0324 9DF90330 		ldrsb	r3, [sp, #3]
 1657 0328 002B     		cmp	r3, #0
 1658 032a 02D0     		beq	.L125
 1659              		.loc 1 483 0
 1660 032c 9DF90330 		ldrsb	r3, [sp, #3]
 1661 0330 1DE0     		b	.L99
 1662              	.L125:
 1663              		.loc 1 485 0
 1664 0332 8022     		movs	r2, #128
 1665 0334 9421     		movs	r1, #148
 1666 0336 6E20     		movs	r0, #110
 1667 0338 FFF7FEFF 		bl	write_reg
 1668 033c 0346     		mov	r3, r0
 1669 033e 8DF80330 		strb	r3, [sp, #3]
 1670 0342 9DF90330 		ldrsb	r3, [sp, #3]
 1671 0346 002B     		cmp	r3, #0
 1672 0348 04D0     		beq	.L126
 1673              		.loc 1 486 0
 1674 034a 9DF90330 		ldrsb	r3, [sp, #3]
 1675 034e 0EE0     		b	.L99
 1676              	.L129:
 1677              		.align	2
 1678              	.L128:
 1679 0350 00000000 		.word	__stack_chk_guard
 1680              	.L126:
 1681              		.loc 1 489 0
 1682 0354 0B4B     		ldr	r3, .L130
 1683 0356 A022     		movs	r2, #160
 1684 0358 1A80     		strh	r2, [r3]	@ movhi
 1685              		.loc 1 490 0
 1686 035a 0A4B     		ldr	r3, .L130
 1687 035c 7822     		movs	r2, #120
 1688 035e 5A80     		strh	r2, [r3, #2]	@ movhi
 1689              		.loc 1 491 0
 1690 0360 084B     		ldr	r3, .L130
 1691 0362 2022     		movs	r2, #32
 1692 0364 5A71     		strb	r2, [r3, #5]
 1693              		.loc 1 492 0
 1694 0366 074B     		ldr	r3, .L130
 1695 0368 2022     		movs	r2, #32
 1696 036a 9A71     		strb	r2, [r3, #6]
 1697              		.loc 1 494 0
 1698 036c 0023     		movs	r3, #0
 1699              	.L99:
 1700              		.loc 1 495 0
 1701 036e 1846     		mov	r0, r3
 1702 0370 054B     		ldr	r3, .L130+4
 1703 0372 019A     		ldr	r2, [sp, #4]
 1704 0374 1B68     		ldr	r3, [r3]
 1705 0376 9A42     		cmp	r2, r3
 1706 0378 01D0     		beq	.L127
 1707 037a FFF7FEFF 		bl	__stack_chk_fail
 1708              	.L127:
 1709 037e 03B0     		add	sp, sp, #12
ARM GAS  C:\Users\PCHAUT~1\AppData\Local\Temp\ccMxpIDf.s 			page 31


 1710              		.cfi_def_cfa_offset 4
 1711              		@ sp needed
 1712 0380 5DF804FB 		ldr	pc, [sp], #4
 1713              	.L131:
 1714              		.align	2
 1715              	.L130:
 1716 0384 00000000 		.word	po8030_conf
 1717 0388 00000000 		.word	__stack_chk_guard
 1718              		.cfi_endproc
 1719              	.LFE262:
 1720              		.size	po8030_set_qqvga, .-po8030_set_qqvga
 1721              		.section	.text.po8030_set_size,"ax",%progbits
 1722              		.align	1
 1723              		.p2align 4,,15
 1724              		.global	po8030_set_size
 1725              		.syntax unified
 1726              		.thumb
 1727              		.thumb_func
 1728              		.fpu fpv4-sp-d16
 1729              		.type	po8030_set_size, %function
 1730              	po8030_set_size:
 1731              	.LFB263:
 1732              		.loc 1 507 0
 1733              		.cfi_startproc
 1734              		@ args = 0, pretend = 0, frame = 16
 1735              		@ frame_needed = 0, uses_anonymous_args = 0
 1736 0000 00B5     		push	{lr}
 1737              		.cfi_def_cfa_offset 4
 1738              		.cfi_offset 14, -4
 1739 0002 85B0     		sub	sp, sp, #20
 1740              		.cfi_def_cfa_offset 24
 1741 0004 0346     		mov	r3, r0
 1742 0006 8DF80730 		strb	r3, [sp, #7]
 1743              		.loc 1 507 0
 1744 000a 144B     		ldr	r3, .L138
 1745 000c 1B68     		ldr	r3, [r3]
 1746 000e 0393     		str	r3, [sp, #12]
 1747              		.loc 1 508 0
 1748 0010 9DF80730 		ldrb	r3, [sp, #7]	@ zero_extendqisi2
 1749 0014 002B     		cmp	r3, #0
 1750 0016 03D1     		bne	.L133
 1751              		.loc 1 509 0
 1752 0018 FFF7FEFF 		bl	po8030_set_vga
 1753 001c 0346     		mov	r3, r0
 1754 001e 11E0     		b	.L134
 1755              	.L133:
 1756              		.loc 1 510 0
 1757 0020 9DF80730 		ldrb	r3, [sp, #7]	@ zero_extendqisi2
 1758 0024 012B     		cmp	r3, #1
 1759 0026 03D1     		bne	.L135
 1760              		.loc 1 511 0
 1761 0028 FFF7FEFF 		bl	po8030_set_qvga
 1762 002c 0346     		mov	r3, r0
 1763 002e 09E0     		b	.L134
 1764              	.L135:
 1765              		.loc 1 512 0
 1766 0030 9DF80730 		ldrb	r3, [sp, #7]	@ zero_extendqisi2
ARM GAS  C:\Users\PCHAUT~1\AppData\Local\Temp\ccMxpIDf.s 			page 32


 1767 0034 022B     		cmp	r3, #2
 1768 0036 03D1     		bne	.L136
 1769              		.loc 1 513 0
 1770 0038 FFF7FEFF 		bl	po8030_set_qqvga
 1771 003c 0346     		mov	r3, r0
 1772 003e 01E0     		b	.L134
 1773              	.L136:
 1774              		.loc 1 515 0
 1775 0040 4FF0FF33 		mov	r3, #-1
 1776              	.L134:
 1777              		.loc 1 517 0
 1778 0044 1846     		mov	r0, r3
 1779 0046 054B     		ldr	r3, .L138
 1780 0048 039A     		ldr	r2, [sp, #12]
 1781 004a 1B68     		ldr	r3, [r3]
 1782 004c 9A42     		cmp	r2, r3
 1783 004e 01D0     		beq	.L137
 1784 0050 FFF7FEFF 		bl	__stack_chk_fail
 1785              	.L137:
 1786 0054 05B0     		add	sp, sp, #20
 1787              		.cfi_def_cfa_offset 4
 1788              		@ sp needed
 1789 0056 5DF804FB 		ldr	pc, [sp], #4
 1790              	.L139:
 1791 005a 00BF     		.align	2
 1792              	.L138:
 1793 005c 00000000 		.word	__stack_chk_guard
 1794              		.cfi_endproc
 1795              	.LFE263:
 1796              		.size	po8030_set_size, .-po8030_set_size
 1797              		.section	.text.po8030_set_scale_buffer_size,"ax",%progbits
 1798              		.align	1
 1799              		.p2align 4,,15
 1800              		.global	po8030_set_scale_buffer_size
 1801              		.syntax unified
 1802              		.thumb
 1803              		.thumb_func
 1804              		.fpu fpv4-sp-d16
 1805              		.type	po8030_set_scale_buffer_size, %function
 1806              	po8030_set_scale_buffer_size:
 1807              	.LFB264:
 1808              		.loc 1 530 0
 1809              		.cfi_startproc
 1810              		@ args = 0, pretend = 0, frame = 16
 1811              		@ frame_needed = 0, uses_anonymous_args = 0
 1812 0000 00B5     		push	{lr}
 1813              		.cfi_def_cfa_offset 4
 1814              		.cfi_offset 14, -4
 1815 0002 85B0     		sub	sp, sp, #20
 1816              		.cfi_def_cfa_offset 24
 1817 0004 0346     		mov	r3, r0
 1818 0006 0A46     		mov	r2, r1
 1819 0008 8DF80730 		strb	r3, [sp, #7]
 1820 000c 1346     		mov	r3, r2
 1821 000e 8DF80630 		strb	r3, [sp, #6]
 1822              		.loc 1 530 0
 1823 0012 7A4B     		ldr	r3, .L171
ARM GAS  C:\Users\PCHAUT~1\AppData\Local\Temp\ccMxpIDf.s 			page 33


 1824 0014 1B68     		ldr	r3, [r3]
 1825 0016 0393     		str	r3, [sp, #12]
 1826              		.loc 1 531 0
 1827 0018 0023     		movs	r3, #0
 1828 001a 8DF80B30 		strb	r3, [sp, #11]
 1829              		.loc 1 533 0
 1830 001e 0120     		movs	r0, #1
 1831 0020 FFF7FEFF 		bl	po8030_set_bank
 1832 0024 0346     		mov	r3, r0
 1833 0026 8DF80B30 		strb	r3, [sp, #11]
 1834 002a 9DF90B30 		ldrsb	r3, [sp, #11]
 1835 002e 002B     		cmp	r3, #0
 1836 0030 02D0     		beq	.L141
 1837              		.loc 1 534 0
 1838 0032 9DF90B30 		ldrsb	r3, [sp, #11]
 1839 0036 D6E0     		b	.L142
 1840              	.L141:
 1841              		.loc 1 537 0
 1842 0038 9DF80730 		ldrb	r3, [sp, #7]	@ zero_extendqisi2
 1843 003c 442B     		cmp	r3, #68
 1844 003e 64D1     		bne	.L143
 1845              		.loc 1 538 0
 1846 0040 9DF80630 		ldrb	r3, [sp, #6]	@ zero_extendqisi2
 1847 0044 012B     		cmp	r3, #1
 1848 0046 23D0     		beq	.L145
 1849 0048 022B     		cmp	r3, #2
 1850 004a 40D0     		beq	.L146
 1851 004c 002B     		cmp	r3, #0
 1852 004e 40F0C980 		bne	.L154
 1853              		.loc 1 540 0
 1854 0052 0022     		movs	r2, #0
 1855 0054 9521     		movs	r1, #149
 1856 0056 6E20     		movs	r0, #110
 1857 0058 FFF7FEFF 		bl	write_reg
 1858 005c 0346     		mov	r3, r0
 1859 005e 8DF80B30 		strb	r3, [sp, #11]
 1860 0062 9DF90B30 		ldrsb	r3, [sp, #11]
 1861 0066 002B     		cmp	r3, #0
 1862 0068 02D0     		beq	.L148
 1863              		.loc 1 541 0
 1864 006a 9DF90B30 		ldrsb	r3, [sp, #11]
 1865 006e BAE0     		b	.L142
 1866              	.L148:
 1867              		.loc 1 543 0
 1868 0070 0822     		movs	r2, #8
 1869 0072 9621     		movs	r1, #150
 1870 0074 6E20     		movs	r0, #110
 1871 0076 FFF7FEFF 		bl	write_reg
 1872 007a 0346     		mov	r3, r0
 1873 007c 8DF80B30 		strb	r3, [sp, #11]
 1874 0080 9DF90B30 		ldrsb	r3, [sp, #11]
 1875 0084 002B     		cmp	r3, #0
 1876 0086 00F0A280 		beq	.L165
 1877              		.loc 1 544 0
 1878 008a 9DF90B30 		ldrsb	r3, [sp, #11]
 1879 008e AAE0     		b	.L142
 1880              	.L145:
ARM GAS  C:\Users\PCHAUT~1\AppData\Local\Temp\ccMxpIDf.s 			page 34


 1881              		.loc 1 549 0
 1882 0090 0022     		movs	r2, #0
 1883 0092 9521     		movs	r1, #149
 1884 0094 6E20     		movs	r0, #110
 1885 0096 FFF7FEFF 		bl	write_reg
 1886 009a 0346     		mov	r3, r0
 1887 009c 8DF80B30 		strb	r3, [sp, #11]
 1888 00a0 9DF90B30 		ldrsb	r3, [sp, #11]
 1889 00a4 002B     		cmp	r3, #0
 1890 00a6 02D0     		beq	.L150
 1891              		.loc 1 550 0
 1892 00a8 9DF90B30 		ldrsb	r3, [sp, #11]
 1893 00ac 9BE0     		b	.L142
 1894              	.L150:
 1895              		.loc 1 552 0
 1896 00ae A422     		movs	r2, #164
 1897 00b0 9621     		movs	r1, #150
 1898 00b2 6E20     		movs	r0, #110
 1899 00b4 FFF7FEFF 		bl	write_reg
 1900 00b8 0346     		mov	r3, r0
 1901 00ba 8DF80B30 		strb	r3, [sp, #11]
 1902 00be 9DF90B30 		ldrsb	r3, [sp, #11]
 1903 00c2 002B     		cmp	r3, #0
 1904 00c4 00F08580 		beq	.L166
 1905              		.loc 1 553 0
 1906 00c8 9DF90B30 		ldrsb	r3, [sp, #11]
 1907 00cc 8BE0     		b	.L142
 1908              	.L146:
 1909              		.loc 1 558 0
 1910 00ce 0022     		movs	r2, #0
 1911 00d0 9521     		movs	r1, #149
 1912 00d2 6E20     		movs	r0, #110
 1913 00d4 FFF7FEFF 		bl	write_reg
 1914 00d8 0346     		mov	r3, r0
 1915 00da 8DF80B30 		strb	r3, [sp, #11]
 1916 00de 9DF90B30 		ldrsb	r3, [sp, #11]
 1917 00e2 002B     		cmp	r3, #0
 1918 00e4 02D0     		beq	.L152
 1919              		.loc 1 559 0
 1920 00e6 9DF90B30 		ldrsb	r3, [sp, #11]
 1921 00ea 7CE0     		b	.L142
 1922              	.L152:
 1923              		.loc 1 561 0
 1924 00ec 7C22     		movs	r2, #124
 1925 00ee 9621     		movs	r1, #150
 1926 00f0 6E20     		movs	r0, #110
 1927 00f2 FFF7FEFF 		bl	write_reg
 1928 00f6 0346     		mov	r3, r0
 1929 00f8 8DF80B30 		strb	r3, [sp, #11]
 1930 00fc 9DF90B30 		ldrsb	r3, [sp, #11]
 1931 0100 002B     		cmp	r3, #0
 1932 0102 68D0     		beq	.L167
 1933              		.loc 1 562 0
 1934 0104 9DF90B30 		ldrsb	r3, [sp, #11]
 1935 0108 6DE0     		b	.L142
 1936              	.L143:
 1937              		.loc 1 567 0
ARM GAS  C:\Users\PCHAUT~1\AppData\Local\Temp\ccMxpIDf.s 			page 35


 1938 010a 9DF80630 		ldrb	r3, [sp, #6]	@ zero_extendqisi2
 1939 010e 012B     		cmp	r3, #1
 1940 0110 21D0     		beq	.L155
 1941 0112 022B     		cmp	r3, #2
 1942 0114 3DD0     		beq	.L156
 1943 0116 002B     		cmp	r3, #0
 1944 0118 64D1     		bne	.L154
 1945              		.loc 1 569 0
 1946 011a 0022     		movs	r2, #0
 1947 011c 9521     		movs	r1, #149
 1948 011e 6E20     		movs	r0, #110
 1949 0120 FFF7FEFF 		bl	write_reg
 1950 0124 0346     		mov	r3, r0
 1951 0126 8DF80B30 		strb	r3, [sp, #11]
 1952 012a 9DF90B30 		ldrsb	r3, [sp, #11]
 1953 012e 002B     		cmp	r3, #0
 1954 0130 02D0     		beq	.L158
 1955              		.loc 1 570 0
 1956 0132 9DF90B30 		ldrsb	r3, [sp, #11]
 1957 0136 56E0     		b	.L142
 1958              	.L158:
 1959              		.loc 1 572 0
 1960 0138 0A22     		movs	r2, #10
 1961 013a 9621     		movs	r1, #150
 1962 013c 6E20     		movs	r0, #110
 1963 013e FFF7FEFF 		bl	write_reg
 1964 0142 0346     		mov	r3, r0
 1965 0144 8DF80B30 		strb	r3, [sp, #11]
 1966 0148 9DF90B30 		ldrsb	r3, [sp, #11]
 1967 014c 002B     		cmp	r3, #0
 1968 014e 44D0     		beq	.L168
 1969              		.loc 1 573 0
 1970 0150 9DF90B30 		ldrsb	r3, [sp, #11]
 1971 0154 47E0     		b	.L142
 1972              	.L155:
 1973              		.loc 1 578 0
 1974 0156 0122     		movs	r2, #1
 1975 0158 9521     		movs	r1, #149
 1976 015a 6E20     		movs	r0, #110
 1977 015c FFF7FEFF 		bl	write_reg
 1978 0160 0346     		mov	r3, r0
 1979 0162 8DF80B30 		strb	r3, [sp, #11]
 1980 0166 9DF90B30 		ldrsb	r3, [sp, #11]
 1981 016a 002B     		cmp	r3, #0
 1982 016c 02D0     		beq	.L160
 1983              		.loc 1 579 0
 1984 016e 9DF90B30 		ldrsb	r3, [sp, #11]
 1985 0172 38E0     		b	.L142
 1986              	.L160:
 1987              		.loc 1 581 0
 1988 0174 4622     		movs	r2, #70
 1989 0176 9621     		movs	r1, #150
 1990 0178 6E20     		movs	r0, #110
 1991 017a FFF7FEFF 		bl	write_reg
 1992 017e 0346     		mov	r3, r0
 1993 0180 8DF80B30 		strb	r3, [sp, #11]
 1994 0184 9DF90B30 		ldrsb	r3, [sp, #11]
ARM GAS  C:\Users\PCHAUT~1\AppData\Local\Temp\ccMxpIDf.s 			page 36


 1995 0188 002B     		cmp	r3, #0
 1996 018a 28D0     		beq	.L169
 1997              		.loc 1 582 0
 1998 018c 9DF90B30 		ldrsb	r3, [sp, #11]
 1999 0190 29E0     		b	.L142
 2000              	.L156:
 2001              		.loc 1 587 0
 2002 0192 0022     		movs	r2, #0
 2003 0194 9521     		movs	r1, #149
 2004 0196 6E20     		movs	r0, #110
 2005 0198 FFF7FEFF 		bl	write_reg
 2006 019c 0346     		mov	r3, r0
 2007 019e 8DF80B30 		strb	r3, [sp, #11]
 2008 01a2 9DF90B30 		ldrsb	r3, [sp, #11]
 2009 01a6 002B     		cmp	r3, #0
 2010 01a8 02D0     		beq	.L162
 2011              		.loc 1 588 0
 2012 01aa 9DF90B30 		ldrsb	r3, [sp, #11]
 2013 01ae 1AE0     		b	.L142
 2014              	.L162:
 2015              		.loc 1 590 0
 2016 01b0 F522     		movs	r2, #245
 2017 01b2 9621     		movs	r1, #150
 2018 01b4 6E20     		movs	r0, #110
 2019 01b6 FFF7FEFF 		bl	write_reg
 2020 01ba 0346     		mov	r3, r0
 2021 01bc 8DF80B30 		strb	r3, [sp, #11]
 2022 01c0 9DF90B30 		ldrsb	r3, [sp, #11]
 2023 01c4 002B     		cmp	r3, #0
 2024 01c6 0CD0     		beq	.L170
 2025              		.loc 1 591 0
 2026 01c8 9DF90B30 		ldrsb	r3, [sp, #11]
 2027 01cc 0BE0     		b	.L142
 2028              	.L165:
 2029              		.loc 1 546 0
 2030 01ce 00BF     		nop
 2031 01d0 08E0     		b	.L154
 2032              	.L166:
 2033              		.loc 1 555 0
 2034 01d2 00BF     		nop
 2035 01d4 06E0     		b	.L154
 2036              	.L167:
 2037              		.loc 1 564 0
 2038 01d6 00BF     		nop
 2039 01d8 04E0     		b	.L154
 2040              	.L168:
 2041              		.loc 1 575 0
 2042 01da 00BF     		nop
 2043 01dc 02E0     		b	.L154
 2044              	.L169:
 2045              		.loc 1 584 0
 2046 01de 00BF     		nop
 2047 01e0 00E0     		b	.L154
 2048              	.L170:
 2049              		.loc 1 593 0
 2050 01e2 00BF     		nop
 2051              	.L154:
ARM GAS  C:\Users\PCHAUT~1\AppData\Local\Temp\ccMxpIDf.s 			page 37


 2052              		.loc 1 597 0
 2053 01e4 0023     		movs	r3, #0
 2054              	.L142:
 2055              		.loc 1 598 0
 2056 01e6 1846     		mov	r0, r3
 2057 01e8 044B     		ldr	r3, .L171
 2058 01ea 039A     		ldr	r2, [sp, #12]
 2059 01ec 1B68     		ldr	r3, [r3]
 2060 01ee 9A42     		cmp	r2, r3
 2061 01f0 01D0     		beq	.L164
 2062 01f2 FFF7FEFF 		bl	__stack_chk_fail
 2063              	.L164:
 2064 01f6 05B0     		add	sp, sp, #20
 2065              		.cfi_def_cfa_offset 4
 2066              		@ sp needed
 2067 01f8 5DF804FB 		ldr	pc, [sp], #4
 2068              	.L172:
 2069              		.align	2
 2070              	.L171:
 2071 01fc 00000000 		.word	__stack_chk_guard
 2072              		.cfi_endproc
 2073              	.LFE264:
 2074              		.size	po8030_set_scale_buffer_size, .-po8030_set_scale_buffer_size
 2075              		.section	.text.po8030_start,"ax",%progbits
 2076              		.align	1
 2077              		.p2align 4,,15
 2078              		.global	po8030_start
 2079              		.syntax unified
 2080              		.thumb
 2081              		.thumb_func
 2082              		.fpu fpv4-sp-d16
 2083              		.type	po8030_start, %function
 2084              	po8030_start:
 2085              	.LFB265:
 2086              		.loc 1 605 0
 2087              		.cfi_startproc
 2088              		@ args = 0, pretend = 0, frame = 8
 2089              		@ frame_needed = 0, uses_anonymous_args = 0
 2090 0000 00B5     		push	{lr}
 2091              		.cfi_def_cfa_offset 4
 2092              		.cfi_offset 14, -4
 2093 0002 87B0     		sub	sp, sp, #28
 2094              		.cfi_def_cfa_offset 32
 2095              		.loc 1 605 0
 2096 0004 124B     		ldr	r3, .L175
 2097 0006 1B68     		ldr	r3, [r3]
 2098 0008 0593     		str	r3, [sp, #20]
 2099              		.loc 1 607 0
 2100 000a FFF7FEFF 		bl	i2c_start
 2101              		.loc 1 623 0
 2102 000e 1149     		ldr	r1, .L175+4
 2103 0010 1148     		ldr	r0, .L175+8
 2104 0012 FFF7FEFF 		bl	pwmStart
 2105              		.loc 1 625 0
 2106 0016 0122     		movs	r2, #1
 2107 0018 0021     		movs	r1, #0
 2108 001a 0F48     		ldr	r0, .L175+8
ARM GAS  C:\Users\PCHAUT~1\AppData\Local\Temp\ccMxpIDf.s 			page 38


 2109 001c FFF7FEFF 		bl	pwmEnableChannel
 2110              		.loc 1 628 0
 2111 0020 2023     		movs	r3, #32
 2112 0022 0293     		str	r3, [sp, #8]
 2113 0024 2023     		movs	r3, #32
 2114 0026 0193     		str	r3, [sp, #4]
 2115 0028 7823     		movs	r3, #120
 2116 002a 0093     		str	r3, [sp]
 2117 002c A023     		movs	r3, #160
 2118 002e B422     		movs	r2, #180
 2119 0030 F021     		movs	r1, #240
 2120 0032 0220     		movs	r0, #2
 2121 0034 FFF7FEFF 		bl	po8030_advanced_config
 2122              		.loc 1 629 0
 2123 0038 00BF     		nop
 2124 003a 054B     		ldr	r3, .L175
 2125 003c 059A     		ldr	r2, [sp, #20]
 2126 003e 1B68     		ldr	r3, [r3]
 2127 0040 9A42     		cmp	r2, r3
 2128 0042 01D0     		beq	.L174
 2129 0044 FFF7FEFF 		bl	__stack_chk_fail
 2130              	.L174:
 2131 0048 07B0     		add	sp, sp, #28
 2132              		.cfi_def_cfa_offset 4
 2133              		@ sp needed
 2134 004a 5DF804FB 		ldr	pc, [sp], #4
 2135              	.L176:
 2136 004e 00BF     		.align	2
 2137              	.L175:
 2138 0050 00000000 		.word	__stack_chk_guard
 2139 0054 00000000 		.word	pwmcfg_cam.9992
 2140 0058 00000000 		.word	PWMD5
 2141              		.cfi_endproc
 2142              	.LFE265:
 2143              		.size	po8030_start, .-po8030_start
 2144              		.section	.text.po8030_config,"ax",%progbits
 2145              		.align	1
 2146              		.p2align 4,,15
 2147              		.global	po8030_config
 2148              		.syntax unified
 2149              		.thumb
 2150              		.thumb_func
 2151              		.fpu fpv4-sp-d16
 2152              		.type	po8030_config, %function
 2153              	po8030_config:
 2154              	.LFB266:
 2155              		.loc 1 631 0
 2156              		.cfi_startproc
 2157              		@ args = 0, pretend = 0, frame = 16
 2158              		@ frame_needed = 0, uses_anonymous_args = 0
 2159 0000 00B5     		push	{lr}
 2160              		.cfi_def_cfa_offset 4
 2161              		.cfi_offset 14, -4
 2162 0002 85B0     		sub	sp, sp, #20
 2163              		.cfi_def_cfa_offset 24
 2164 0004 0346     		mov	r3, r0
 2165 0006 0A46     		mov	r2, r1
ARM GAS  C:\Users\PCHAUT~1\AppData\Local\Temp\ccMxpIDf.s 			page 39


 2166 0008 8DF80730 		strb	r3, [sp, #7]
 2167 000c 1346     		mov	r3, r2
 2168 000e 8DF80630 		strb	r3, [sp, #6]
 2169              		.loc 1 631 0
 2170 0012 2F4B     		ldr	r3, .L185
 2171 0014 1B68     		ldr	r3, [r3]
 2172 0016 0393     		str	r3, [sp, #12]
 2173              		.loc 1 633 0
 2174 0018 0023     		movs	r3, #0
 2175 001a 8DF80B30 		strb	r3, [sp, #11]
 2176              		.loc 1 635 0
 2177 001e 0020     		movs	r0, #0
 2178 0020 FFF7FEFF 		bl	po8030_set_bank
 2179 0024 0346     		mov	r3, r0
 2180 0026 8DF80B30 		strb	r3, [sp, #11]
 2181 002a 9DF90B30 		ldrsb	r3, [sp, #11]
 2182 002e 002B     		cmp	r3, #0
 2183 0030 02D0     		beq	.L178
 2184              		.loc 1 636 0
 2185 0032 9DF90B30 		ldrsb	r3, [sp, #11]
 2186 0036 3FE0     		b	.L179
 2187              	.L178:
 2188              		.loc 1 638 0
 2189 0038 0022     		movs	r2, #0
 2190 003a 5B21     		movs	r1, #91
 2191 003c 6E20     		movs	r0, #110
 2192 003e FFF7FEFF 		bl	write_reg
 2193 0042 0346     		mov	r3, r0
 2194 0044 8DF80B30 		strb	r3, [sp, #11]
 2195 0048 9DF90B30 		ldrsb	r3, [sp, #11]
 2196 004c 002B     		cmp	r3, #0
 2197 004e 02D0     		beq	.L180
 2198              		.loc 1 639 0
 2199 0050 9DF90B30 		ldrsb	r3, [sp, #11]
 2200 0054 30E0     		b	.L179
 2201              	.L180:
 2202              		.loc 1 642 0
 2203 0056 9DF80730 		ldrb	r3, [sp, #7]	@ zero_extendqisi2
 2204 005a 1846     		mov	r0, r3
 2205 005c FFF7FEFF 		bl	po8030_set_format
 2206 0060 0346     		mov	r3, r0
 2207 0062 8DF80B30 		strb	r3, [sp, #11]
 2208 0066 9DF90B30 		ldrsb	r3, [sp, #11]
 2209 006a 002B     		cmp	r3, #0
 2210 006c 02D0     		beq	.L181
 2211              		.loc 1 643 0
 2212 006e 9DF90B30 		ldrsb	r3, [sp, #11]
 2213 0072 21E0     		b	.L179
 2214              	.L181:
 2215              		.loc 1 646 0
 2216 0074 9DF80630 		ldrb	r3, [sp, #6]	@ zero_extendqisi2
 2217 0078 1846     		mov	r0, r3
 2218 007a FFF7FEFF 		bl	po8030_set_size
 2219 007e 0346     		mov	r3, r0
 2220 0080 8DF80B30 		strb	r3, [sp, #11]
 2221 0084 9DF90B30 		ldrsb	r3, [sp, #11]
 2222 0088 002B     		cmp	r3, #0
ARM GAS  C:\Users\PCHAUT~1\AppData\Local\Temp\ccMxpIDf.s 			page 40


 2223 008a 02D0     		beq	.L182
 2224              		.loc 1 647 0
 2225 008c 9DF90B30 		ldrsb	r3, [sp, #11]
 2226 0090 12E0     		b	.L179
 2227              	.L182:
 2228              		.loc 1 650 0
 2229 0092 9DF80620 		ldrb	r2, [sp, #6]	@ zero_extendqisi2
 2230 0096 9DF80730 		ldrb	r3, [sp, #7]	@ zero_extendqisi2
 2231 009a 1146     		mov	r1, r2
 2232 009c 1846     		mov	r0, r3
 2233 009e FFF7FEFF 		bl	po8030_set_scale_buffer_size
 2234 00a2 0346     		mov	r3, r0
 2235 00a4 8DF80B30 		strb	r3, [sp, #11]
 2236 00a8 9DF90B30 		ldrsb	r3, [sp, #11]
 2237 00ac 002B     		cmp	r3, #0
 2238 00ae 02D0     		beq	.L183
 2239              		.loc 1 651 0
 2240 00b0 9DF90B30 		ldrsb	r3, [sp, #11]
 2241 00b4 00E0     		b	.L179
 2242              	.L183:
 2243              		.loc 1 654 0
 2244 00b6 0023     		movs	r3, #0
 2245              	.L179:
 2246              		.loc 1 655 0
 2247 00b8 1846     		mov	r0, r3
 2248 00ba 054B     		ldr	r3, .L185
 2249 00bc 039A     		ldr	r2, [sp, #12]
 2250 00be 1B68     		ldr	r3, [r3]
 2251 00c0 9A42     		cmp	r2, r3
 2252 00c2 01D0     		beq	.L184
 2253 00c4 FFF7FEFF 		bl	__stack_chk_fail
 2254              	.L184:
 2255 00c8 05B0     		add	sp, sp, #20
 2256              		.cfi_def_cfa_offset 4
 2257              		@ sp needed
 2258 00ca 5DF804FB 		ldr	pc, [sp], #4
 2259              	.L186:
 2260 00ce 00BF     		.align	2
 2261              	.L185:
 2262 00d0 00000000 		.word	__stack_chk_guard
 2263              		.cfi_endproc
 2264              	.LFE266:
 2265              		.size	po8030_config, .-po8030_config
 2266              		.section	.text.po8030_advanced_config,"ax",%progbits
 2267              		.align	1
 2268              		.p2align 4,,15
 2269              		.global	po8030_advanced_config
 2270              		.syntax unified
 2271              		.thumb
 2272              		.thumb_func
 2273              		.fpu fpv4-sp-d16
 2274              		.type	po8030_advanced_config, %function
 2275              	po8030_advanced_config:
 2276              	.LFB267:
 2277              		.loc 1 659 0
 2278              		.cfi_startproc
 2279              		@ args = 12, pretend = 0, frame = 64
ARM GAS  C:\Users\PCHAUT~1\AppData\Local\Temp\ccMxpIDf.s 			page 41


 2280              		@ frame_needed = 0, uses_anonymous_args = 0
 2281 0000 00B5     		push	{lr}
 2282              		.cfi_def_cfa_offset 4
 2283              		.cfi_offset 14, -4
 2284 0002 91B0     		sub	sp, sp, #68
 2285              		.cfi_def_cfa_offset 72
 2286 0004 0491     		str	r1, [sp, #16]
 2287 0006 0392     		str	r2, [sp, #12]
 2288 0008 0293     		str	r3, [sp, #8]
 2289 000a 0346     		mov	r3, r0
 2290 000c 8DF81730 		strb	r3, [sp, #23]
 2291 0010 129B     		ldr	r3, [sp, #72]
 2292 0012 0193     		str	r3, [sp, #4]
 2293 0014 9DF84C30 		ldrb	r3, [sp, #76]
 2294 0018 8DF81630 		strb	r3, [sp, #22]
 2295 001c 9DF85030 		ldrb	r3, [sp, #80]
 2296 0020 8DF81530 		strb	r3, [sp, #21]
 2297              		.loc 1 659 0
 2298 0024 B24B     		ldr	r3, .L247
 2299 0026 1B68     		ldr	r3, [r3]
 2300 0028 0F93     		str	r3, [sp, #60]
 2301              		.loc 1 660 0
 2302 002a 0023     		movs	r3, #0
 2303 002c 8DF81B30 		strb	r3, [sp, #27]
 2304              		.loc 1 661 0
 2305 0030 049A     		ldr	r2, [sp, #16]
 2306 0032 029B     		ldr	r3, [sp, #8]
 2307 0034 1344     		add	r3, r3, r2
 2308 0036 013B     		subs	r3, r3, #1
 2309 0038 0793     		str	r3, [sp, #28]
 2310              		.loc 1 662 0
 2311 003a 039A     		ldr	r2, [sp, #12]
 2312 003c 019B     		ldr	r3, [sp, #4]
 2313 003e 1344     		add	r3, r3, r2
 2314 0040 013B     		subs	r3, r3, #1
 2315 0042 0893     		str	r3, [sp, #32]
 2316              		.loc 1 663 0
 2317 0044 0023     		movs	r3, #0
 2318 0046 0993     		str	r3, [sp, #36]
 2319 0048 0023     		movs	r3, #0
 2320 004a 0A93     		str	r3, [sp, #40]
 2321              		.loc 1 664 0
 2322 004c 0023     		movs	r3, #0
 2323 004e 0B93     		str	r3, [sp, #44]
 2324 0050 0023     		movs	r3, #0
 2325 0052 0C93     		str	r3, [sp, #48]
 2326              		.loc 1 668 0
 2327 0054 029B     		ldr	r3, [sp, #8]
 2328 0056 B3F5207F 		cmp	r3, #640
 2329 005a 03D8     		bhi	.L188
 2330              		.loc 1 668 0 is_stmt 0 discriminator 1
 2331 005c 019B     		ldr	r3, [sp, #4]
 2332 005e B3F5F07F 		cmp	r3, #480
 2333 0062 02D9     		bls	.L189
 2334              	.L188:
 2335              		.loc 1 669 0 is_stmt 1
 2336 0064 6FF00703 		mvn	r3, #7
ARM GAS  C:\Users\PCHAUT~1\AppData\Local\Temp\ccMxpIDf.s 			page 42


 2337 0068 A5E3     		b	.L190
 2338              	.L189:
 2339              		.loc 1 672 0
 2340 006a 049B     		ldr	r3, [sp, #16]
 2341 006c B3F5207F 		cmp	r3, #640
 2342 0070 02D9     		bls	.L191
 2343              		.loc 1 673 0
 2344 0072 6FF00103 		mvn	r3, #1
 2345 0076 9EE3     		b	.L190
 2346              	.L191:
 2347              		.loc 1 676 0
 2348 0078 039B     		ldr	r3, [sp, #12]
 2349 007a B3F5F07F 		cmp	r3, #480
 2350 007e 02D9     		bls	.L192
 2351              		.loc 1 677 0
 2352 0080 6FF00203 		mvn	r3, #2
 2353 0084 97E3     		b	.L190
 2354              	.L192:
 2355              		.loc 1 680 0
 2356 0086 079A     		ldr	r2, [sp, #28]
 2357 0088 049B     		ldr	r3, [sp, #16]
 2358 008a 9A42     		cmp	r2, r3
 2359 008c 03D9     		bls	.L193
 2360              		.loc 1 680 0 is_stmt 0 discriminator 1
 2361 008e 079B     		ldr	r3, [sp, #28]
 2362 0090 B3F5207F 		cmp	r3, #640
 2363 0094 02D9     		bls	.L194
 2364              	.L193:
 2365              		.loc 1 681 0 is_stmt 1
 2366 0096 6FF00303 		mvn	r3, #3
 2367 009a 8CE3     		b	.L190
 2368              	.L194:
 2369              		.loc 1 684 0
 2370 009c 089A     		ldr	r2, [sp, #32]
 2371 009e 039B     		ldr	r3, [sp, #12]
 2372 00a0 9A42     		cmp	r2, r3
 2373 00a2 03D9     		bls	.L195
 2374              		.loc 1 684 0 is_stmt 0 discriminator 1
 2375 00a4 089B     		ldr	r3, [sp, #32]
 2376 00a6 B3F5F07F 		cmp	r3, #480
 2377 00aa 02D9     		bls	.L196
 2378              	.L195:
 2379              		.loc 1 685 0 is_stmt 1
 2380 00ac 6FF00403 		mvn	r3, #4
 2381 00b0 81E3     		b	.L190
 2382              	.L196:
 2383              		.loc 1 688 0
 2384 00b2 9DF81630 		ldrb	r3, [sp, #22]	@ zero_extendqisi2
 2385 00b6 402B     		cmp	r3, #64
 2386 00b8 15D0     		beq	.L198
 2387 00ba 802B     		cmp	r3, #128
 2388 00bc 37D0     		beq	.L199
 2389 00be 202B     		cmp	r3, #32
 2390 00c0 59D1     		bne	.L197
 2391              		.loc 1 690 0
 2392 00c2 029B     		ldr	r3, [sp, #8]
 2393 00c4 8B4A     		ldr	r2, .L247+4
ARM GAS  C:\Users\PCHAUT~1\AppData\Local\Temp\ccMxpIDf.s 			page 43


 2394 00c6 A2FB0323 		umull	r2, r3, r2, r3
 2395 00ca 5B08     		lsrs	r3, r3, #1
 2396 00cc 049A     		ldr	r2, [sp, #16]
 2397 00ce 1344     		add	r3, r3, r2
 2398 00d0 0993     		str	r3, [sp, #36]
 2399              		.loc 1 691 0
 2400 00d2 029B     		ldr	r3, [sp, #8]
 2401 00d4 5B00     		lsls	r3, r3, #1
 2402 00d6 874A     		ldr	r2, .L247+4
 2403 00d8 A2FB0323 		umull	r2, r3, r2, r3
 2404 00dc 5B08     		lsrs	r3, r3, #1
 2405 00de 049A     		ldr	r2, [sp, #16]
 2406 00e0 1344     		add	r3, r3, r2
 2407 00e2 0A93     		str	r3, [sp, #40]
 2408              		.loc 1 692 0
 2409 00e4 47E0     		b	.L197
 2410              	.L198:
 2411              		.loc 1 696 0
 2412 00e6 029B     		ldr	r3, [sp, #8]
 2413 00e8 03F00103 		and	r3, r3, #1
 2414 00ec 002B     		cmp	r3, #0
 2415 00ee 02D0     		beq	.L201
 2416              		.loc 1 697 0
 2417 00f0 6FF00503 		mvn	r3, #5
 2418 00f4 5FE3     		b	.L190
 2419              	.L201:
 2420              		.loc 1 699 0
 2421 00f6 049B     		ldr	r3, [sp, #16]
 2422 00f8 5B08     		lsrs	r3, r3, #1
 2423 00fa 0133     		adds	r3, r3, #1
 2424 00fc 0493     		str	r3, [sp, #16]
 2425              		.loc 1 700 0
 2426 00fe 029B     		ldr	r3, [sp, #8]
 2427 0100 5A08     		lsrs	r2, r3, #1
 2428 0102 049B     		ldr	r3, [sp, #16]
 2429 0104 1344     		add	r3, r3, r2
 2430 0106 013B     		subs	r3, r3, #1
 2431 0108 0793     		str	r3, [sp, #28]
 2432              		.loc 1 701 0
 2433 010a 029B     		ldr	r3, [sp, #8]
 2434 010c 794A     		ldr	r2, .L247+4
 2435 010e A2FB0323 		umull	r2, r3, r2, r3
 2436 0112 9B08     		lsrs	r3, r3, #2
 2437 0114 049A     		ldr	r2, [sp, #16]
 2438 0116 1344     		add	r3, r3, r2
 2439 0118 0993     		str	r3, [sp, #36]
 2440              		.loc 1 702 0
 2441 011a 029B     		ldr	r3, [sp, #8]
 2442 011c 5B00     		lsls	r3, r3, #1
 2443 011e 754A     		ldr	r2, .L247+4
 2444 0120 A2FB0323 		umull	r2, r3, r2, r3
 2445 0124 9B08     		lsrs	r3, r3, #2
 2446 0126 049A     		ldr	r2, [sp, #16]
 2447 0128 1344     		add	r3, r3, r2
 2448 012a 0A93     		str	r3, [sp, #40]
 2449              		.loc 1 704 0
 2450 012c 23E0     		b	.L197
ARM GAS  C:\Users\PCHAUT~1\AppData\Local\Temp\ccMxpIDf.s 			page 44


 2451              	.L199:
 2452              		.loc 1 708 0
 2453 012e 029B     		ldr	r3, [sp, #8]
 2454 0130 03F00303 		and	r3, r3, #3
 2455 0134 002B     		cmp	r3, #0
 2456 0136 02D0     		beq	.L202
 2457              		.loc 1 709 0
 2458 0138 6FF00503 		mvn	r3, #5
 2459 013c 3BE3     		b	.L190
 2460              	.L202:
 2461              		.loc 1 711 0
 2462 013e 049B     		ldr	r3, [sp, #16]
 2463 0140 9B08     		lsrs	r3, r3, #2
 2464 0142 0133     		adds	r3, r3, #1
 2465 0144 0493     		str	r3, [sp, #16]
 2466              		.loc 1 712 0
 2467 0146 029B     		ldr	r3, [sp, #8]
 2468 0148 9A08     		lsrs	r2, r3, #2
 2469 014a 049B     		ldr	r3, [sp, #16]
 2470 014c 1344     		add	r3, r3, r2
 2471 014e 013B     		subs	r3, r3, #1
 2472 0150 0793     		str	r3, [sp, #28]
 2473              		.loc 1 713 0
 2474 0152 029B     		ldr	r3, [sp, #8]
 2475 0154 674A     		ldr	r2, .L247+4
 2476 0156 A2FB0323 		umull	r2, r3, r2, r3
 2477 015a DB08     		lsrs	r3, r3, #3
 2478 015c 049A     		ldr	r2, [sp, #16]
 2479 015e 1344     		add	r3, r3, r2
 2480 0160 0993     		str	r3, [sp, #36]
 2481              		.loc 1 714 0
 2482 0162 029B     		ldr	r3, [sp, #8]
 2483 0164 5B00     		lsls	r3, r3, #1
 2484 0166 634A     		ldr	r2, .L247+4
 2485 0168 A2FB0323 		umull	r2, r3, r2, r3
 2486 016c DB08     		lsrs	r3, r3, #3
 2487 016e 049A     		ldr	r2, [sp, #16]
 2488 0170 1344     		add	r3, r3, r2
 2489 0172 0A93     		str	r3, [sp, #40]
 2490              		.loc 1 716 0
 2491 0174 00BF     		nop
 2492              	.L197:
 2493              		.loc 1 719 0
 2494 0176 9DF81530 		ldrb	r3, [sp, #21]	@ zero_extendqisi2
 2495 017a 402B     		cmp	r3, #64
 2496 017c 15D0     		beq	.L204
 2497 017e 802B     		cmp	r3, #128
 2498 0180 37D0     		beq	.L205
 2499 0182 202B     		cmp	r3, #32
 2500 0184 59D1     		bne	.L203
 2501              		.loc 1 721 0
 2502 0186 019B     		ldr	r3, [sp, #4]
 2503 0188 5A4A     		ldr	r2, .L247+4
 2504 018a A2FB0323 		umull	r2, r3, r2, r3
 2505 018e 5B08     		lsrs	r3, r3, #1
 2506 0190 039A     		ldr	r2, [sp, #12]
 2507 0192 1344     		add	r3, r3, r2
ARM GAS  C:\Users\PCHAUT~1\AppData\Local\Temp\ccMxpIDf.s 			page 45


 2508 0194 0B93     		str	r3, [sp, #44]
 2509              		.loc 1 722 0
 2510 0196 019B     		ldr	r3, [sp, #4]
 2511 0198 5B00     		lsls	r3, r3, #1
 2512 019a 564A     		ldr	r2, .L247+4
 2513 019c A2FB0323 		umull	r2, r3, r2, r3
 2514 01a0 5B08     		lsrs	r3, r3, #1
 2515 01a2 039A     		ldr	r2, [sp, #12]
 2516 01a4 1344     		add	r3, r3, r2
 2517 01a6 0C93     		str	r3, [sp, #48]
 2518              		.loc 1 723 0
 2519 01a8 47E0     		b	.L203
 2520              	.L204:
 2521              		.loc 1 727 0
 2522 01aa 019B     		ldr	r3, [sp, #4]
 2523 01ac 03F00103 		and	r3, r3, #1
 2524 01b0 002B     		cmp	r3, #0
 2525 01b2 02D0     		beq	.L207
 2526              		.loc 1 728 0
 2527 01b4 6FF00603 		mvn	r3, #6
 2528 01b8 FDE2     		b	.L190
 2529              	.L207:
 2530              		.loc 1 730 0
 2531 01ba 039B     		ldr	r3, [sp, #12]
 2532 01bc 5B08     		lsrs	r3, r3, #1
 2533 01be 0133     		adds	r3, r3, #1
 2534 01c0 0393     		str	r3, [sp, #12]
 2535              		.loc 1 731 0
 2536 01c2 019B     		ldr	r3, [sp, #4]
 2537 01c4 5A08     		lsrs	r2, r3, #1
 2538 01c6 039B     		ldr	r3, [sp, #12]
 2539 01c8 1344     		add	r3, r3, r2
 2540 01ca 013B     		subs	r3, r3, #1
 2541 01cc 0893     		str	r3, [sp, #32]
 2542              		.loc 1 732 0
 2543 01ce 019B     		ldr	r3, [sp, #4]
 2544 01d0 484A     		ldr	r2, .L247+4
 2545 01d2 A2FB0323 		umull	r2, r3, r2, r3
 2546 01d6 9B08     		lsrs	r3, r3, #2
 2547 01d8 039A     		ldr	r2, [sp, #12]
 2548 01da 1344     		add	r3, r3, r2
 2549 01dc 0B93     		str	r3, [sp, #44]
 2550              		.loc 1 733 0
 2551 01de 019B     		ldr	r3, [sp, #4]
 2552 01e0 5B00     		lsls	r3, r3, #1
 2553 01e2 444A     		ldr	r2, .L247+4
 2554 01e4 A2FB0323 		umull	r2, r3, r2, r3
 2555 01e8 9B08     		lsrs	r3, r3, #2
 2556 01ea 039A     		ldr	r2, [sp, #12]
 2557 01ec 1344     		add	r3, r3, r2
 2558 01ee 0C93     		str	r3, [sp, #48]
 2559              		.loc 1 735 0
 2560 01f0 23E0     		b	.L203
 2561              	.L205:
 2562              		.loc 1 739 0
 2563 01f2 019B     		ldr	r3, [sp, #4]
 2564 01f4 03F00303 		and	r3, r3, #3
ARM GAS  C:\Users\PCHAUT~1\AppData\Local\Temp\ccMxpIDf.s 			page 46


 2565 01f8 002B     		cmp	r3, #0
 2566 01fa 02D0     		beq	.L208
 2567              		.loc 1 740 0
 2568 01fc 6FF00603 		mvn	r3, #6
 2569 0200 D9E2     		b	.L190
 2570              	.L208:
 2571              		.loc 1 742 0
 2572 0202 039B     		ldr	r3, [sp, #12]
 2573 0204 9B08     		lsrs	r3, r3, #2
 2574 0206 0133     		adds	r3, r3, #1
 2575 0208 0393     		str	r3, [sp, #12]
 2576              		.loc 1 743 0
 2577 020a 019B     		ldr	r3, [sp, #4]
 2578 020c 9A08     		lsrs	r2, r3, #2
 2579 020e 039B     		ldr	r3, [sp, #12]
 2580 0210 1344     		add	r3, r3, r2
 2581 0212 013B     		subs	r3, r3, #1
 2582 0214 0893     		str	r3, [sp, #32]
 2583              		.loc 1 744 0
 2584 0216 019B     		ldr	r3, [sp, #4]
 2585 0218 364A     		ldr	r2, .L247+4
 2586 021a A2FB0323 		umull	r2, r3, r2, r3
 2587 021e DB08     		lsrs	r3, r3, #3
 2588 0220 039A     		ldr	r2, [sp, #12]
 2589 0222 1344     		add	r3, r3, r2
 2590 0224 0B93     		str	r3, [sp, #44]
 2591              		.loc 1 745 0
 2592 0226 019B     		ldr	r3, [sp, #4]
 2593 0228 5B00     		lsls	r3, r3, #1
 2594 022a 324A     		ldr	r2, .L247+4
 2595 022c A2FB0323 		umull	r2, r3, r2, r3
 2596 0230 DB08     		lsrs	r3, r3, #3
 2597 0232 039A     		ldr	r2, [sp, #12]
 2598 0234 1344     		add	r3, r3, r2
 2599 0236 0C93     		str	r3, [sp, #48]
 2600              		.loc 1 747 0
 2601 0238 00BF     		nop
 2602              	.L203:
 2603              		.loc 1 750 0
 2604 023a 0020     		movs	r0, #0
 2605 023c FFF7FEFF 		bl	po8030_set_bank
 2606 0240 0346     		mov	r3, r0
 2607 0242 8DF81B30 		strb	r3, [sp, #27]
 2608 0246 9DF91B30 		ldrsb	r3, [sp, #27]
 2609 024a 002B     		cmp	r3, #0
 2610 024c 02D0     		beq	.L209
 2611              		.loc 1 751 0
 2612 024e 9DF91B30 		ldrsb	r3, [sp, #27]
 2613 0252 B0E2     		b	.L190
 2614              	.L209:
 2615              		.loc 1 753 0
 2616 0254 0022     		movs	r2, #0
 2617 0256 5B21     		movs	r1, #91
 2618 0258 6E20     		movs	r0, #110
 2619 025a FFF7FEFF 		bl	write_reg
 2620 025e 0346     		mov	r3, r0
 2621 0260 8DF81B30 		strb	r3, [sp, #27]
ARM GAS  C:\Users\PCHAUT~1\AppData\Local\Temp\ccMxpIDf.s 			page 47


 2622 0264 9DF91B30 		ldrsb	r3, [sp, #27]
 2623 0268 002B     		cmp	r3, #0
 2624 026a 02D0     		beq	.L210
 2625              		.loc 1 754 0
 2626 026c 9DF91B30 		ldrsb	r3, [sp, #27]
 2627 0270 A1E2     		b	.L190
 2628              	.L210:
 2629              		.loc 1 757 0
 2630 0272 9DF81730 		ldrb	r3, [sp, #23]	@ zero_extendqisi2
 2631 0276 1846     		mov	r0, r3
 2632 0278 FFF7FEFF 		bl	po8030_set_format
 2633 027c 0346     		mov	r3, r0
 2634 027e 8DF81B30 		strb	r3, [sp, #27]
 2635 0282 9DF91B30 		ldrsb	r3, [sp, #27]
 2636 0286 002B     		cmp	r3, #0
 2637 0288 02D0     		beq	.L211
 2638              		.loc 1 758 0
 2639 028a 9DF91B30 		ldrsb	r3, [sp, #27]
 2640 028e 92E2     		b	.L190
 2641              	.L211:
 2642              		.loc 1 761 0
 2643 0290 0020     		movs	r0, #0
 2644 0292 FFF7FEFF 		bl	po8030_set_bank
 2645 0296 0346     		mov	r3, r0
 2646 0298 8DF81B30 		strb	r3, [sp, #27]
 2647 029c 9DF91B30 		ldrsb	r3, [sp, #27]
 2648 02a0 002B     		cmp	r3, #0
 2649 02a2 02D0     		beq	.L212
 2650              		.loc 1 762 0
 2651 02a4 9DF91B30 		ldrsb	r3, [sp, #27]
 2652 02a8 85E2     		b	.L190
 2653              	.L212:
 2654              		.loc 1 765 0
 2655 02aa 049B     		ldr	r3, [sp, #16]
 2656 02ac 1B0A     		lsrs	r3, r3, #8
 2657 02ae DBB2     		uxtb	r3, r3
 2658 02b0 1A46     		mov	r2, r3
 2659 02b2 0821     		movs	r1, #8
 2660 02b4 6E20     		movs	r0, #110
 2661 02b6 FFF7FEFF 		bl	write_reg
 2662 02ba 0346     		mov	r3, r0
 2663 02bc 8DF81B30 		strb	r3, [sp, #27]
 2664 02c0 9DF91B30 		ldrsb	r3, [sp, #27]
 2665 02c4 002B     		cmp	r3, #0
 2666 02c6 02D0     		beq	.L213
 2667              		.loc 1 766 0
 2668 02c8 9DF91B30 		ldrsb	r3, [sp, #27]
 2669 02cc 73E2     		b	.L190
 2670              	.L213:
 2671              		.loc 1 768 0
 2672 02ce 049B     		ldr	r3, [sp, #16]
 2673 02d0 DBB2     		uxtb	r3, r3
 2674 02d2 1A46     		mov	r2, r3
 2675 02d4 0921     		movs	r1, #9
 2676 02d6 6E20     		movs	r0, #110
 2677 02d8 FFF7FEFF 		bl	write_reg
 2678 02dc 0346     		mov	r3, r0
ARM GAS  C:\Users\PCHAUT~1\AppData\Local\Temp\ccMxpIDf.s 			page 48


 2679 02de 8DF81B30 		strb	r3, [sp, #27]
 2680 02e2 9DF91B30 		ldrsb	r3, [sp, #27]
 2681 02e6 002B     		cmp	r3, #0
 2682 02e8 06D0     		beq	.L214
 2683              		.loc 1 769 0
 2684 02ea 9DF91B30 		ldrsb	r3, [sp, #27]
 2685 02ee 62E2     		b	.L190
 2686              	.L248:
 2687              		.align	2
 2688              	.L247:
 2689 02f0 00000000 		.word	__stack_chk_guard
 2690 02f4 ABAAAAAA 		.word	-1431655765
 2691              	.L214:
 2692              		.loc 1 771 0
 2693 02f8 039B     		ldr	r3, [sp, #12]
 2694 02fa 1B0A     		lsrs	r3, r3, #8
 2695 02fc DBB2     		uxtb	r3, r3
 2696 02fe 1A46     		mov	r2, r3
 2697 0300 0A21     		movs	r1, #10
 2698 0302 6E20     		movs	r0, #110
 2699 0304 FFF7FEFF 		bl	write_reg
 2700 0308 0346     		mov	r3, r0
 2701 030a 8DF81B30 		strb	r3, [sp, #27]
 2702 030e 9DF91B30 		ldrsb	r3, [sp, #27]
 2703 0312 002B     		cmp	r3, #0
 2704 0314 02D0     		beq	.L215
 2705              		.loc 1 772 0
 2706 0316 9DF91B30 		ldrsb	r3, [sp, #27]
 2707 031a 4CE2     		b	.L190
 2708              	.L215:
 2709              		.loc 1 774 0
 2710 031c 039B     		ldr	r3, [sp, #12]
 2711 031e DBB2     		uxtb	r3, r3
 2712 0320 1A46     		mov	r2, r3
 2713 0322 0B21     		movs	r1, #11
 2714 0324 6E20     		movs	r0, #110
 2715 0326 FFF7FEFF 		bl	write_reg
 2716 032a 0346     		mov	r3, r0
 2717 032c 8DF81B30 		strb	r3, [sp, #27]
 2718 0330 9DF91B30 		ldrsb	r3, [sp, #27]
 2719 0334 002B     		cmp	r3, #0
 2720 0336 02D0     		beq	.L216
 2721              		.loc 1 775 0
 2722 0338 9DF91B30 		ldrsb	r3, [sp, #27]
 2723 033c 3BE2     		b	.L190
 2724              	.L216:
 2725              		.loc 1 777 0
 2726 033e 079B     		ldr	r3, [sp, #28]
 2727 0340 1B0A     		lsrs	r3, r3, #8
 2728 0342 DBB2     		uxtb	r3, r3
 2729 0344 1A46     		mov	r2, r3
 2730 0346 0C21     		movs	r1, #12
 2731 0348 6E20     		movs	r0, #110
 2732 034a FFF7FEFF 		bl	write_reg
 2733 034e 0346     		mov	r3, r0
 2734 0350 8DF81B30 		strb	r3, [sp, #27]
 2735 0354 9DF91B30 		ldrsb	r3, [sp, #27]
ARM GAS  C:\Users\PCHAUT~1\AppData\Local\Temp\ccMxpIDf.s 			page 49


 2736 0358 002B     		cmp	r3, #0
 2737 035a 02D0     		beq	.L217
 2738              		.loc 1 778 0
 2739 035c 9DF91B30 		ldrsb	r3, [sp, #27]
 2740 0360 29E2     		b	.L190
 2741              	.L217:
 2742              		.loc 1 780 0
 2743 0362 079B     		ldr	r3, [sp, #28]
 2744 0364 DBB2     		uxtb	r3, r3
 2745 0366 1A46     		mov	r2, r3
 2746 0368 0D21     		movs	r1, #13
 2747 036a 6E20     		movs	r0, #110
 2748 036c FFF7FEFF 		bl	write_reg
 2749 0370 0346     		mov	r3, r0
 2750 0372 8DF81B30 		strb	r3, [sp, #27]
 2751 0376 9DF91B30 		ldrsb	r3, [sp, #27]
 2752 037a 002B     		cmp	r3, #0
 2753 037c 02D0     		beq	.L218
 2754              		.loc 1 781 0
 2755 037e 9DF91B30 		ldrsb	r3, [sp, #27]
 2756 0382 18E2     		b	.L190
 2757              	.L218:
 2758              		.loc 1 783 0
 2759 0384 089B     		ldr	r3, [sp, #32]
 2760 0386 1B0A     		lsrs	r3, r3, #8
 2761 0388 DBB2     		uxtb	r3, r3
 2762 038a 1A46     		mov	r2, r3
 2763 038c 0E21     		movs	r1, #14
 2764 038e 6E20     		movs	r0, #110
 2765 0390 FFF7FEFF 		bl	write_reg
 2766 0394 0346     		mov	r3, r0
 2767 0396 8DF81B30 		strb	r3, [sp, #27]
 2768 039a 9DF91B30 		ldrsb	r3, [sp, #27]
 2769 039e 002B     		cmp	r3, #0
 2770 03a0 02D0     		beq	.L219
 2771              		.loc 1 784 0
 2772 03a2 9DF91B30 		ldrsb	r3, [sp, #27]
 2773 03a6 06E2     		b	.L190
 2774              	.L219:
 2775              		.loc 1 786 0
 2776 03a8 089B     		ldr	r3, [sp, #32]
 2777 03aa DBB2     		uxtb	r3, r3
 2778 03ac 1A46     		mov	r2, r3
 2779 03ae 0F21     		movs	r1, #15
 2780 03b0 6E20     		movs	r0, #110
 2781 03b2 FFF7FEFF 		bl	write_reg
 2782 03b6 0346     		mov	r3, r0
 2783 03b8 8DF81B30 		strb	r3, [sp, #27]
 2784 03bc 9DF91B30 		ldrsb	r3, [sp, #27]
 2785 03c0 002B     		cmp	r3, #0
 2786 03c2 02D0     		beq	.L220
 2787              		.loc 1 787 0
 2788 03c4 9DF91B30 		ldrsb	r3, [sp, #27]
 2789 03c8 F5E1     		b	.L190
 2790              	.L220:
 2791              		.loc 1 790 0
 2792 03ca 049B     		ldr	r3, [sp, #16]
ARM GAS  C:\Users\PCHAUT~1\AppData\Local\Temp\ccMxpIDf.s 			page 50


 2793 03cc 1B0A     		lsrs	r3, r3, #8
 2794 03ce DBB2     		uxtb	r3, r3
 2795 03d0 1A46     		mov	r2, r3
 2796 03d2 3521     		movs	r1, #53
 2797 03d4 6E20     		movs	r0, #110
 2798 03d6 FFF7FEFF 		bl	write_reg
 2799 03da 0346     		mov	r3, r0
 2800 03dc 8DF81B30 		strb	r3, [sp, #27]
 2801 03e0 9DF91B30 		ldrsb	r3, [sp, #27]
 2802 03e4 002B     		cmp	r3, #0
 2803 03e6 02D0     		beq	.L221
 2804              		.loc 1 791 0
 2805 03e8 9DF91B30 		ldrsb	r3, [sp, #27]
 2806 03ec E3E1     		b	.L190
 2807              	.L221:
 2808              		.loc 1 793 0
 2809 03ee 049B     		ldr	r3, [sp, #16]
 2810 03f0 DBB2     		uxtb	r3, r3
 2811 03f2 1A46     		mov	r2, r3
 2812 03f4 3621     		movs	r1, #54
 2813 03f6 6E20     		movs	r0, #110
 2814 03f8 FFF7FEFF 		bl	write_reg
 2815 03fc 0346     		mov	r3, r0
 2816 03fe 8DF81B30 		strb	r3, [sp, #27]
 2817 0402 9DF91B30 		ldrsb	r3, [sp, #27]
 2818 0406 002B     		cmp	r3, #0
 2819 0408 02D0     		beq	.L222
 2820              		.loc 1 794 0
 2821 040a 9DF91B30 		ldrsb	r3, [sp, #27]
 2822 040e D2E1     		b	.L190
 2823              	.L222:
 2824              		.loc 1 796 0
 2825 0410 079B     		ldr	r3, [sp, #28]
 2826 0412 1B0A     		lsrs	r3, r3, #8
 2827 0414 DBB2     		uxtb	r3, r3
 2828 0416 1A46     		mov	r2, r3
 2829 0418 3721     		movs	r1, #55
 2830 041a 6E20     		movs	r0, #110
 2831 041c FFF7FEFF 		bl	write_reg
 2832 0420 0346     		mov	r3, r0
 2833 0422 8DF81B30 		strb	r3, [sp, #27]
 2834 0426 9DF91B30 		ldrsb	r3, [sp, #27]
 2835 042a 002B     		cmp	r3, #0
 2836 042c 02D0     		beq	.L223
 2837              		.loc 1 797 0
 2838 042e 9DF91B30 		ldrsb	r3, [sp, #27]
 2839 0432 C0E1     		b	.L190
 2840              	.L223:
 2841              		.loc 1 799 0
 2842 0434 079B     		ldr	r3, [sp, #28]
 2843 0436 DBB2     		uxtb	r3, r3
 2844 0438 1A46     		mov	r2, r3
 2845 043a 3821     		movs	r1, #56
 2846 043c 6E20     		movs	r0, #110
 2847 043e FFF7FEFF 		bl	write_reg
 2848 0442 0346     		mov	r3, r0
 2849 0444 8DF81B30 		strb	r3, [sp, #27]
ARM GAS  C:\Users\PCHAUT~1\AppData\Local\Temp\ccMxpIDf.s 			page 51


 2850 0448 9DF91B30 		ldrsb	r3, [sp, #27]
 2851 044c 002B     		cmp	r3, #0
 2852 044e 02D0     		beq	.L224
 2853              		.loc 1 800 0
 2854 0450 9DF91B30 		ldrsb	r3, [sp, #27]
 2855 0454 AFE1     		b	.L190
 2856              	.L224:
 2857              		.loc 1 802 0
 2858 0456 039B     		ldr	r3, [sp, #12]
 2859 0458 1B0A     		lsrs	r3, r3, #8
 2860 045a DBB2     		uxtb	r3, r3
 2861 045c 1A46     		mov	r2, r3
 2862 045e 3921     		movs	r1, #57
 2863 0460 6E20     		movs	r0, #110
 2864 0462 FFF7FEFF 		bl	write_reg
 2865 0466 0346     		mov	r3, r0
 2866 0468 8DF81B30 		strb	r3, [sp, #27]
 2867 046c 9DF91B30 		ldrsb	r3, [sp, #27]
 2868 0470 002B     		cmp	r3, #0
 2869 0472 02D0     		beq	.L225
 2870              		.loc 1 803 0
 2871 0474 9DF91B30 		ldrsb	r3, [sp, #27]
 2872 0478 9DE1     		b	.L190
 2873              	.L225:
 2874              		.loc 1 805 0
 2875 047a 039B     		ldr	r3, [sp, #12]
 2876 047c DBB2     		uxtb	r3, r3
 2877 047e 1A46     		mov	r2, r3
 2878 0480 3A21     		movs	r1, #58
 2879 0482 6E20     		movs	r0, #110
 2880 0484 FFF7FEFF 		bl	write_reg
 2881 0488 0346     		mov	r3, r0
 2882 048a 8DF81B30 		strb	r3, [sp, #27]
 2883 048e 9DF91B30 		ldrsb	r3, [sp, #27]
 2884 0492 002B     		cmp	r3, #0
 2885 0494 02D0     		beq	.L226
 2886              		.loc 1 806 0
 2887 0496 9DF91B30 		ldrsb	r3, [sp, #27]
 2888 049a 8CE1     		b	.L190
 2889              	.L226:
 2890              		.loc 1 808 0
 2891 049c 089B     		ldr	r3, [sp, #32]
 2892 049e 1B0A     		lsrs	r3, r3, #8
 2893 04a0 DBB2     		uxtb	r3, r3
 2894 04a2 1A46     		mov	r2, r3
 2895 04a4 3B21     		movs	r1, #59
 2896 04a6 6E20     		movs	r0, #110
 2897 04a8 FFF7FEFF 		bl	write_reg
 2898 04ac 0346     		mov	r3, r0
 2899 04ae 8DF81B30 		strb	r3, [sp, #27]
 2900 04b2 9DF91B30 		ldrsb	r3, [sp, #27]
 2901 04b6 002B     		cmp	r3, #0
 2902 04b8 02D0     		beq	.L227
 2903              		.loc 1 809 0
 2904 04ba 9DF91B30 		ldrsb	r3, [sp, #27]
 2905 04be 7AE1     		b	.L190
 2906              	.L227:
ARM GAS  C:\Users\PCHAUT~1\AppData\Local\Temp\ccMxpIDf.s 			page 52


 2907              		.loc 1 811 0
 2908 04c0 089B     		ldr	r3, [sp, #32]
 2909 04c2 DBB2     		uxtb	r3, r3
 2910 04c4 1A46     		mov	r2, r3
 2911 04c6 3C21     		movs	r1, #60
 2912 04c8 6E20     		movs	r0, #110
 2913 04ca FFF7FEFF 		bl	write_reg
 2914 04ce 0346     		mov	r3, r0
 2915 04d0 8DF81B30 		strb	r3, [sp, #27]
 2916 04d4 9DF91B30 		ldrsb	r3, [sp, #27]
 2917 04d8 002B     		cmp	r3, #0
 2918 04da 02D0     		beq	.L228
 2919              		.loc 1 812 0
 2920 04dc 9DF91B30 		ldrsb	r3, [sp, #27]
 2921 04e0 69E1     		b	.L190
 2922              	.L228:
 2923              		.loc 1 815 0
 2924 04e2 099B     		ldr	r3, [sp, #36]
 2925 04e4 1B0A     		lsrs	r3, r3, #8
 2926 04e6 DBB2     		uxtb	r3, r3
 2927 04e8 1A46     		mov	r2, r3
 2928 04ea 3D21     		movs	r1, #61
 2929 04ec 6E20     		movs	r0, #110
 2930 04ee FFF7FEFF 		bl	write_reg
 2931 04f2 0346     		mov	r3, r0
 2932 04f4 8DF81B30 		strb	r3, [sp, #27]
 2933 04f8 9DF91B30 		ldrsb	r3, [sp, #27]
 2934 04fc 002B     		cmp	r3, #0
 2935 04fe 02D0     		beq	.L229
 2936              		.loc 1 816 0
 2937 0500 9DF91B30 		ldrsb	r3, [sp, #27]
 2938 0504 57E1     		b	.L190
 2939              	.L229:
 2940              		.loc 1 818 0
 2941 0506 099B     		ldr	r3, [sp, #36]
 2942 0508 DBB2     		uxtb	r3, r3
 2943 050a 1A46     		mov	r2, r3
 2944 050c 3E21     		movs	r1, #62
 2945 050e 6E20     		movs	r0, #110
 2946 0510 FFF7FEFF 		bl	write_reg
 2947 0514 0346     		mov	r3, r0
 2948 0516 8DF81B30 		strb	r3, [sp, #27]
 2949 051a 9DF91B30 		ldrsb	r3, [sp, #27]
 2950 051e 002B     		cmp	r3, #0
 2951 0520 02D0     		beq	.L230
 2952              		.loc 1 819 0
 2953 0522 9DF91B30 		ldrsb	r3, [sp, #27]
 2954 0526 46E1     		b	.L190
 2955              	.L230:
 2956              		.loc 1 821 0
 2957 0528 0A9B     		ldr	r3, [sp, #40]
 2958 052a 1B0A     		lsrs	r3, r3, #8
 2959 052c DBB2     		uxtb	r3, r3
 2960 052e 1A46     		mov	r2, r3
 2961 0530 3F21     		movs	r1, #63
 2962 0532 6E20     		movs	r0, #110
 2963 0534 FFF7FEFF 		bl	write_reg
ARM GAS  C:\Users\PCHAUT~1\AppData\Local\Temp\ccMxpIDf.s 			page 53


 2964 0538 0346     		mov	r3, r0
 2965 053a 8DF81B30 		strb	r3, [sp, #27]
 2966 053e 9DF91B30 		ldrsb	r3, [sp, #27]
 2967 0542 002B     		cmp	r3, #0
 2968 0544 02D0     		beq	.L231
 2969              		.loc 1 822 0
 2970 0546 9DF91B30 		ldrsb	r3, [sp, #27]
 2971 054a 34E1     		b	.L190
 2972              	.L231:
 2973              		.loc 1 824 0
 2974 054c 0A9B     		ldr	r3, [sp, #40]
 2975 054e DBB2     		uxtb	r3, r3
 2976 0550 1A46     		mov	r2, r3
 2977 0552 4021     		movs	r1, #64
 2978 0554 6E20     		movs	r0, #110
 2979 0556 FFF7FEFF 		bl	write_reg
 2980 055a 0346     		mov	r3, r0
 2981 055c 8DF81B30 		strb	r3, [sp, #27]
 2982 0560 9DF91B30 		ldrsb	r3, [sp, #27]
 2983 0564 002B     		cmp	r3, #0
 2984 0566 02D0     		beq	.L232
 2985              		.loc 1 825 0
 2986 0568 9DF91B30 		ldrsb	r3, [sp, #27]
 2987 056c 23E1     		b	.L190
 2988              	.L232:
 2989              		.loc 1 827 0
 2990 056e 0B9B     		ldr	r3, [sp, #44]
 2991 0570 1B0A     		lsrs	r3, r3, #8
 2992 0572 DBB2     		uxtb	r3, r3
 2993 0574 1A46     		mov	r2, r3
 2994 0576 4121     		movs	r1, #65
 2995 0578 6E20     		movs	r0, #110
 2996 057a FFF7FEFF 		bl	write_reg
 2997 057e 0346     		mov	r3, r0
 2998 0580 8DF81B30 		strb	r3, [sp, #27]
 2999 0584 9DF91B30 		ldrsb	r3, [sp, #27]
 3000 0588 002B     		cmp	r3, #0
 3001 058a 02D0     		beq	.L233
 3002              		.loc 1 828 0
 3003 058c 9DF91B30 		ldrsb	r3, [sp, #27]
 3004 0590 11E1     		b	.L190
 3005              	.L233:
 3006              		.loc 1 830 0
 3007 0592 0B9B     		ldr	r3, [sp, #44]
 3008 0594 DBB2     		uxtb	r3, r3
 3009 0596 1A46     		mov	r2, r3
 3010 0598 4221     		movs	r1, #66
 3011 059a 6E20     		movs	r0, #110
 3012 059c FFF7FEFF 		bl	write_reg
 3013 05a0 0346     		mov	r3, r0
 3014 05a2 8DF81B30 		strb	r3, [sp, #27]
 3015 05a6 9DF91B30 		ldrsb	r3, [sp, #27]
 3016 05aa 002B     		cmp	r3, #0
 3017 05ac 02D0     		beq	.L234
 3018              		.loc 1 831 0
 3019 05ae 9DF91B30 		ldrsb	r3, [sp, #27]
 3020 05b2 00E1     		b	.L190
ARM GAS  C:\Users\PCHAUT~1\AppData\Local\Temp\ccMxpIDf.s 			page 54


 3021              	.L234:
 3022              		.loc 1 833 0
 3023 05b4 0C9B     		ldr	r3, [sp, #48]
 3024 05b6 1B0A     		lsrs	r3, r3, #8
 3025 05b8 DBB2     		uxtb	r3, r3
 3026 05ba 1A46     		mov	r2, r3
 3027 05bc 4321     		movs	r1, #67
 3028 05be 6E20     		movs	r0, #110
 3029 05c0 FFF7FEFF 		bl	write_reg
 3030 05c4 0346     		mov	r3, r0
 3031 05c6 8DF81B30 		strb	r3, [sp, #27]
 3032 05ca 9DF91B30 		ldrsb	r3, [sp, #27]
 3033 05ce 002B     		cmp	r3, #0
 3034 05d0 02D0     		beq	.L235
 3035              		.loc 1 834 0
 3036 05d2 9DF91B30 		ldrsb	r3, [sp, #27]
 3037 05d6 EEE0     		b	.L190
 3038              	.L235:
 3039              		.loc 1 836 0
 3040 05d8 0C9B     		ldr	r3, [sp, #48]
 3041 05da DBB2     		uxtb	r3, r3
 3042 05dc 1A46     		mov	r2, r3
 3043 05de 4421     		movs	r1, #68
 3044 05e0 6E20     		movs	r0, #110
 3045 05e2 FFF7FEFF 		bl	write_reg
 3046 05e6 0346     		mov	r3, r0
 3047 05e8 8DF81B30 		strb	r3, [sp, #27]
 3048 05ec 9DF91B30 		ldrsb	r3, [sp, #27]
 3049 05f0 002B     		cmp	r3, #0
 3050 05f2 02D0     		beq	.L236
 3051              		.loc 1 837 0
 3052 05f4 9DF91B30 		ldrsb	r3, [sp, #27]
 3053 05f8 DDE0     		b	.L190
 3054              	.L236:
 3055              		.loc 1 840 0
 3056 05fa 0120     		movs	r0, #1
 3057 05fc FFF7FEFF 		bl	po8030_set_bank
 3058 0600 0346     		mov	r3, r0
 3059 0602 8DF81B30 		strb	r3, [sp, #27]
 3060 0606 9DF91B30 		ldrsb	r3, [sp, #27]
 3061 060a 002B     		cmp	r3, #0
 3062 060c 02D0     		beq	.L237
 3063              		.loc 1 841 0
 3064 060e 9DF91B30 		ldrsb	r3, [sp, #27]
 3065 0612 D0E0     		b	.L190
 3066              	.L237:
 3067              		.loc 1 844 0
 3068 0614 9DF81630 		ldrb	r3, [sp, #22]	@ zero_extendqisi2
 3069 0618 1A46     		mov	r2, r3
 3070 061a 9321     		movs	r1, #147
 3071 061c 6E20     		movs	r0, #110
 3072 061e FFF7FEFF 		bl	write_reg
 3073 0622 0346     		mov	r3, r0
 3074 0624 8DF81B30 		strb	r3, [sp, #27]
 3075 0628 9DF91B30 		ldrsb	r3, [sp, #27]
 3076 062c 002B     		cmp	r3, #0
 3077 062e 02D0     		beq	.L238
ARM GAS  C:\Users\PCHAUT~1\AppData\Local\Temp\ccMxpIDf.s 			page 55


 3078              		.loc 1 845 0
 3079 0630 9DF91B30 		ldrsb	r3, [sp, #27]
 3080 0634 BFE0     		b	.L190
 3081              	.L238:
 3082              		.loc 1 847 0
 3083 0636 9DF81530 		ldrb	r3, [sp, #21]	@ zero_extendqisi2
 3084 063a 1A46     		mov	r2, r3
 3085 063c 9421     		movs	r1, #148
 3086 063e 6E20     		movs	r0, #110
 3087 0640 FFF7FEFF 		bl	write_reg
 3088 0644 0346     		mov	r3, r0
 3089 0646 8DF81B30 		strb	r3, [sp, #27]
 3090 064a 9DF91B30 		ldrsb	r3, [sp, #27]
 3091 064e 002B     		cmp	r3, #0
 3092 0650 02D0     		beq	.L239
 3093              		.loc 1 848 0
 3094 0652 9DF91B30 		ldrsb	r3, [sp, #27]
 3095 0656 AEE0     		b	.L190
 3096              	.L239:
 3097              		.loc 1 852 0
 3098 0658 0120     		movs	r0, #1
 3099 065a FFF7FEFF 		bl	po8030_set_bank
 3100 065e 0346     		mov	r3, r0
 3101 0660 8DF81B30 		strb	r3, [sp, #27]
 3102 0664 9DF91B30 		ldrsb	r3, [sp, #27]
 3103 0668 002B     		cmp	r3, #0
 3104 066a 02D0     		beq	.L240
 3105              		.loc 1 853 0
 3106 066c 9DF91B30 		ldrsb	r3, [sp, #27]
 3107 0670 A1E0     		b	.L190
 3108              	.L240:
 3109              		.loc 1 856 0
 3110 0672 9DF81730 		ldrb	r3, [sp, #23]	@ zero_extendqisi2
 3111 0676 442B     		cmp	r3, #68
 3112 0678 27D1     		bne	.L241
 3113              		.loc 1 857 0
 3114 067a 079A     		ldr	r2, [sp, #28]
 3115 067c 049B     		ldr	r3, [sp, #16]
 3116 067e D31A     		subs	r3, r2, r3
 3117 0680 0133     		adds	r3, r3, #1
 3118 0682 07EE903A 		vmov	s15, r3	@ int
 3119 0686 F8EE677A 		vcvt.f32.u32	s15, s15
 3120 068a 9FED507A 		vldr.32	s14, .L249
 3121 068e 37EE677A 		vsub.f32	s14, s14, s15
 3122 0692 079A     		ldr	r2, [sp, #28]
 3123 0694 049B     		ldr	r3, [sp, #16]
 3124 0696 D31A     		subs	r3, r2, r3
 3125 0698 0133     		adds	r3, r3, #1
 3126 069a 07EE903A 		vmov	s15, r3	@ int
 3127 069e F8EE677A 		vcvt.f32.u32	s15, s15
 3128 06a2 F2EE006A 		vmov.f32	s13, #8.0e+0
 3129 06a6 77EEA67A 		vadd.f32	s15, s15, s13
 3130 06aa 27EE277A 		vmul.f32	s14, s14, s15
 3131 06ae DFED486A 		vldr.32	s13, .L249+4
 3132 06b2 C7EE267A 		vdiv.f32	s15, s14, s13
 3133 06b6 CDED0E7A 		vstr.32	s15, [sp, #56]
 3134              		.loc 1 858 0
ARM GAS  C:\Users\PCHAUT~1\AppData\Local\Temp\ccMxpIDf.s 			page 56


 3135 06ba DDED0E7A 		vldr.32	s15, [sp, #56]
 3136 06be FCEEE77A 		vcvt.u32.f32	s15, s15
 3137 06c2 17EE903A 		vmov	r3, s15	@ int
 3138 06c6 0D93     		str	r3, [sp, #52]
 3139 06c8 2AE0     		b	.L242
 3140              	.L241:
 3141              		.loc 1 860 0
 3142 06ca 079A     		ldr	r2, [sp, #28]
 3143 06cc 049B     		ldr	r3, [sp, #16]
 3144 06ce D31A     		subs	r3, r2, r3
 3145 06d0 0133     		adds	r3, r3, #1
 3146 06d2 07EE903A 		vmov	s15, r3	@ int
 3147 06d6 F8EE677A 		vcvt.f32.u32	s15, s15
 3148 06da 9FED3C7A 		vldr.32	s14, .L249
 3149 06de 77EE677A 		vsub.f32	s15, s14, s15
 3150 06e2 37EEA77A 		vadd.f32	s14, s15, s15
 3151 06e6 079A     		ldr	r2, [sp, #28]
 3152 06e8 049B     		ldr	r3, [sp, #16]
 3153 06ea D31A     		subs	r3, r2, r3
 3154 06ec 0133     		adds	r3, r3, #1
 3155 06ee 07EE903A 		vmov	s15, r3	@ int
 3156 06f2 F8EE677A 		vcvt.f32.u32	s15, s15
 3157 06f6 77EEA77A 		vadd.f32	s15, s15, s15
 3158 06fa F2EE006A 		vmov.f32	s13, #8.0e+0
 3159 06fe 77EEA67A 		vadd.f32	s15, s15, s13
 3160 0702 27EE277A 		vmul.f32	s14, s14, s15
 3161 0706 DFED336A 		vldr.32	s13, .L249+8
 3162 070a C7EE267A 		vdiv.f32	s15, s14, s13
 3163 070e CDED0E7A 		vstr.32	s15, [sp, #56]
 3164              		.loc 1 861 0
 3165 0712 DDED0E7A 		vldr.32	s15, [sp, #56]
 3166 0716 FCEEE77A 		vcvt.u32.f32	s15, s15
 3167 071a 17EE903A 		vmov	r3, s15	@ int
 3168 071e 0D93     		str	r3, [sp, #52]
 3169              	.L242:
 3170              		.loc 1 864 0
 3171 0720 0D9B     		ldr	r3, [sp, #52]
 3172 0722 1B0A     		lsrs	r3, r3, #8
 3173 0724 DBB2     		uxtb	r3, r3
 3174 0726 1A46     		mov	r2, r3
 3175 0728 9521     		movs	r1, #149
 3176 072a 6E20     		movs	r0, #110
 3177 072c FFF7FEFF 		bl	write_reg
 3178 0730 0346     		mov	r3, r0
 3179 0732 8DF81B30 		strb	r3, [sp, #27]
 3180 0736 9DF91B30 		ldrsb	r3, [sp, #27]
 3181 073a 002B     		cmp	r3, #0
 3182 073c 02D0     		beq	.L243
 3183              		.loc 1 865 0
 3184 073e 9DF91B30 		ldrsb	r3, [sp, #27]
 3185 0742 38E0     		b	.L190
 3186              	.L243:
 3187              		.loc 1 867 0
 3188 0744 0D9B     		ldr	r3, [sp, #52]
 3189 0746 DBB2     		uxtb	r3, r3
 3190 0748 1A46     		mov	r2, r3
 3191 074a 9621     		movs	r1, #150
ARM GAS  C:\Users\PCHAUT~1\AppData\Local\Temp\ccMxpIDf.s 			page 57


 3192 074c 6E20     		movs	r0, #110
 3193 074e FFF7FEFF 		bl	write_reg
 3194 0752 0346     		mov	r3, r0
 3195 0754 8DF81B30 		strb	r3, [sp, #27]
 3196 0758 9DF91B30 		ldrsb	r3, [sp, #27]
 3197 075c 002B     		cmp	r3, #0
 3198 075e 02D0     		beq	.L244
 3199              		.loc 1 868 0
 3200 0760 9DF91B30 		ldrsb	r3, [sp, #27]
 3201 0764 27E0     		b	.L190
 3202              	.L244:
 3203              		.loc 1 871 0
 3204 0766 079B     		ldr	r3, [sp, #28]
 3205 0768 9AB2     		uxth	r2, r3
 3206 076a 049B     		ldr	r3, [sp, #16]
 3207 076c 9BB2     		uxth	r3, r3
 3208 076e D31A     		subs	r3, r2, r3
 3209 0770 9BB2     		uxth	r3, r3
 3210 0772 0133     		adds	r3, r3, #1
 3211 0774 9AB2     		uxth	r2, r3
 3212 0776 184B     		ldr	r3, .L249+12
 3213 0778 1A80     		strh	r2, [r3]	@ movhi
 3214              		.loc 1 872 0
 3215 077a 089B     		ldr	r3, [sp, #32]
 3216 077c 9AB2     		uxth	r2, r3
 3217 077e 039B     		ldr	r3, [sp, #12]
 3218 0780 9BB2     		uxth	r3, r3
 3219 0782 D31A     		subs	r3, r2, r3
 3220 0784 9BB2     		uxth	r3, r3
 3221 0786 0133     		adds	r3, r3, #1
 3222 0788 9AB2     		uxth	r2, r3
 3223 078a 134B     		ldr	r3, .L249+12
 3224 078c 5A80     		strh	r2, [r3, #2]	@ movhi
 3225              		.loc 1 873 0
 3226 078e 124A     		ldr	r2, .L249+12
 3227 0790 9DF81730 		ldrb	r3, [sp, #23]
 3228 0794 1371     		strb	r3, [r2, #4]
 3229              		.loc 1 874 0
 3230 0796 104A     		ldr	r2, .L249+12
 3231 0798 9DF81630 		ldrb	r3, [sp, #22]
 3232 079c 5371     		strb	r3, [r2, #5]
 3233              		.loc 1 875 0
 3234 079e 0E4A     		ldr	r2, .L249+12
 3235 07a0 9DF81530 		ldrb	r3, [sp, #21]
 3236 07a4 9371     		strb	r3, [r2, #6]
 3237              		.loc 1 877 0
 3238 07a6 9DF91B30 		ldrsb	r3, [sp, #27]
 3239 07aa 002B     		cmp	r3, #0
 3240 07ac 02D1     		bne	.L245
 3241              		.loc 1 878 0
 3242 07ae 0B4B     		ldr	r3, .L249+16
 3243 07b0 0122     		movs	r2, #1
 3244 07b2 1A70     		strb	r2, [r3]
 3245              	.L245:
 3246              		.loc 1 881 0
 3247 07b4 0023     		movs	r3, #0
 3248              	.L190:
ARM GAS  C:\Users\PCHAUT~1\AppData\Local\Temp\ccMxpIDf.s 			page 58


 3249              		.loc 1 882 0
 3250 07b6 1846     		mov	r0, r3
 3251 07b8 094B     		ldr	r3, .L249+20
 3252 07ba 0F9A     		ldr	r2, [sp, #60]
 3253 07bc 1B68     		ldr	r3, [r3]
 3254 07be 9A42     		cmp	r2, r3
 3255 07c0 01D0     		beq	.L246
 3256 07c2 FFF7FEFF 		bl	__stack_chk_fail
 3257              	.L246:
 3258 07c6 11B0     		add	sp, sp, #68
 3259              		.cfi_def_cfa_offset 4
 3260              		@ sp needed
 3261 07c8 5DF804FB 		ldr	pc, [sp], #4
 3262              	.L250:
 3263              		.align	2
 3264              	.L249:
 3265 07cc 00002244 		.word	1143078912
 3266 07d0 00002444 		.word	1143209984
 3267 07d4 0000A344 		.word	1151533056
 3268 07d8 00000000 		.word	po8030_conf
 3269 07dc 00000000 		.word	cam_configured
 3270 07e0 00000000 		.word	__stack_chk_guard
 3271              		.cfi_endproc
 3272              	.LFE267:
 3273              		.size	po8030_advanced_config, .-po8030_advanced_config
 3274              		.section	.text.po8030_set_brightness,"ax",%progbits
 3275              		.align	1
 3276              		.p2align 4,,15
 3277              		.global	po8030_set_brightness
 3278              		.syntax unified
 3279              		.thumb
 3280              		.thumb_func
 3281              		.fpu fpv4-sp-d16
 3282              		.type	po8030_set_brightness, %function
 3283              	po8030_set_brightness:
 3284              	.LFB268:
 3285              		.loc 1 887 0
 3286              		.cfi_startproc
 3287              		@ args = 0, pretend = 0, frame = 16
 3288              		@ frame_needed = 0, uses_anonymous_args = 0
 3289 0000 00B5     		push	{lr}
 3290              		.cfi_def_cfa_offset 4
 3291              		.cfi_offset 14, -4
 3292 0002 85B0     		sub	sp, sp, #20
 3293              		.cfi_def_cfa_offset 24
 3294 0004 0346     		mov	r3, r0
 3295 0006 8DF80730 		strb	r3, [sp, #7]
 3296              		.loc 1 887 0
 3297 000a 134B     		ldr	r3, .L255
 3298 000c 1B68     		ldr	r3, [r3]
 3299 000e 0393     		str	r3, [sp, #12]
 3300              		.loc 1 888 0
 3301 0010 0023     		movs	r3, #0
 3302 0012 8DF80B30 		strb	r3, [sp, #11]
 3303              		.loc 1 889 0
 3304 0016 0120     		movs	r0, #1
 3305 0018 FFF7FEFF 		bl	po8030_set_bank
ARM GAS  C:\Users\PCHAUT~1\AppData\Local\Temp\ccMxpIDf.s 			page 59


 3306 001c 0346     		mov	r3, r0
 3307 001e 8DF80B30 		strb	r3, [sp, #11]
 3308 0022 9DF90B30 		ldrsb	r3, [sp, #11]
 3309 0026 002B     		cmp	r3, #0
 3310 0028 02D0     		beq	.L252
 3311              		.loc 1 890 0
 3312 002a 9DF90B30 		ldrsb	r3, [sp, #11]
 3313 002e 07E0     		b	.L253
 3314              	.L252:
 3315              		.loc 1 892 0
 3316 0030 9DF80730 		ldrb	r3, [sp, #7]	@ zero_extendqisi2
 3317 0034 1A46     		mov	r2, r3
 3318 0036 9E21     		movs	r1, #158
 3319 0038 6E20     		movs	r0, #110
 3320 003a FFF7FEFF 		bl	write_reg
 3321 003e 0346     		mov	r3, r0
 3322              	.L253:
 3323              		.loc 1 893 0
 3324 0040 1846     		mov	r0, r3
 3325 0042 054B     		ldr	r3, .L255
 3326 0044 039A     		ldr	r2, [sp, #12]
 3327 0046 1B68     		ldr	r3, [r3]
 3328 0048 9A42     		cmp	r2, r3
 3329 004a 01D0     		beq	.L254
 3330 004c FFF7FEFF 		bl	__stack_chk_fail
 3331              	.L254:
 3332 0050 05B0     		add	sp, sp, #20
 3333              		.cfi_def_cfa_offset 4
 3334              		@ sp needed
 3335 0052 5DF804FB 		ldr	pc, [sp], #4
 3336              	.L256:
 3337 0056 00BF     		.align	2
 3338              	.L255:
 3339 0058 00000000 		.word	__stack_chk_guard
 3340              		.cfi_endproc
 3341              	.LFE268:
 3342              		.size	po8030_set_brightness, .-po8030_set_brightness
 3343              		.section	.text.po8030_set_contrast,"ax",%progbits
 3344              		.align	1
 3345              		.p2align 4,,15
 3346              		.global	po8030_set_contrast
 3347              		.syntax unified
 3348              		.thumb
 3349              		.thumb_func
 3350              		.fpu fpv4-sp-d16
 3351              		.type	po8030_set_contrast, %function
 3352              	po8030_set_contrast:
 3353              	.LFB269:
 3354              		.loc 1 898 0
 3355              		.cfi_startproc
 3356              		@ args = 0, pretend = 0, frame = 16
 3357              		@ frame_needed = 0, uses_anonymous_args = 0
 3358 0000 00B5     		push	{lr}
 3359              		.cfi_def_cfa_offset 4
 3360              		.cfi_offset 14, -4
 3361 0002 85B0     		sub	sp, sp, #20
 3362              		.cfi_def_cfa_offset 24
ARM GAS  C:\Users\PCHAUT~1\AppData\Local\Temp\ccMxpIDf.s 			page 60


 3363 0004 0346     		mov	r3, r0
 3364 0006 8DF80730 		strb	r3, [sp, #7]
 3365              		.loc 1 898 0
 3366 000a 134B     		ldr	r3, .L261
 3367 000c 1B68     		ldr	r3, [r3]
 3368 000e 0393     		str	r3, [sp, #12]
 3369              		.loc 1 899 0
 3370 0010 0023     		movs	r3, #0
 3371 0012 8DF80B30 		strb	r3, [sp, #11]
 3372              		.loc 1 900 0
 3373 0016 0120     		movs	r0, #1
 3374 0018 FFF7FEFF 		bl	po8030_set_bank
 3375 001c 0346     		mov	r3, r0
 3376 001e 8DF80B30 		strb	r3, [sp, #11]
 3377 0022 9DF90B30 		ldrsb	r3, [sp, #11]
 3378 0026 002B     		cmp	r3, #0
 3379 0028 02D0     		beq	.L258
 3380              		.loc 1 901 0
 3381 002a 9DF90B30 		ldrsb	r3, [sp, #11]
 3382 002e 07E0     		b	.L259
 3383              	.L258:
 3384              		.loc 1 903 0
 3385 0030 9DF80730 		ldrb	r3, [sp, #7]	@ zero_extendqisi2
 3386 0034 1A46     		mov	r2, r3
 3387 0036 9D21     		movs	r1, #157
 3388 0038 6E20     		movs	r0, #110
 3389 003a FFF7FEFF 		bl	write_reg
 3390 003e 0346     		mov	r3, r0
 3391              	.L259:
 3392              		.loc 1 904 0
 3393 0040 1846     		mov	r0, r3
 3394 0042 054B     		ldr	r3, .L261
 3395 0044 039A     		ldr	r2, [sp, #12]
 3396 0046 1B68     		ldr	r3, [r3]
 3397 0048 9A42     		cmp	r2, r3
 3398 004a 01D0     		beq	.L260
 3399 004c FFF7FEFF 		bl	__stack_chk_fail
 3400              	.L260:
 3401 0050 05B0     		add	sp, sp, #20
 3402              		.cfi_def_cfa_offset 4
 3403              		@ sp needed
 3404 0052 5DF804FB 		ldr	pc, [sp], #4
 3405              	.L262:
 3406 0056 00BF     		.align	2
 3407              	.L261:
 3408 0058 00000000 		.word	__stack_chk_guard
 3409              		.cfi_endproc
 3410              	.LFE269:
 3411              		.size	po8030_set_contrast, .-po8030_set_contrast
 3412              		.section	.text.po8030_set_mirror,"ax",%progbits
 3413              		.align	1
 3414              		.p2align 4,,15
 3415              		.global	po8030_set_mirror
 3416              		.syntax unified
 3417              		.thumb
 3418              		.thumb_func
 3419              		.fpu fpv4-sp-d16
ARM GAS  C:\Users\PCHAUT~1\AppData\Local\Temp\ccMxpIDf.s 			page 61


 3420              		.type	po8030_set_mirror, %function
 3421              	po8030_set_mirror:
 3422              	.LFB270:
 3423              		.loc 1 910 0
 3424              		.cfi_startproc
 3425              		@ args = 0, pretend = 0, frame = 16
 3426              		@ frame_needed = 0, uses_anonymous_args = 0
 3427 0000 00B5     		push	{lr}
 3428              		.cfi_def_cfa_offset 4
 3429              		.cfi_offset 14, -4
 3430 0002 85B0     		sub	sp, sp, #20
 3431              		.cfi_def_cfa_offset 24
 3432 0004 0346     		mov	r3, r0
 3433 0006 0A46     		mov	r2, r1
 3434 0008 8DF80730 		strb	r3, [sp, #7]
 3435 000c 1346     		mov	r3, r2
 3436 000e 8DF80630 		strb	r3, [sp, #6]
 3437              		.loc 1 910 0
 3438 0012 1E4B     		ldr	r3, .L269
 3439 0014 1B68     		ldr	r3, [r3]
 3440 0016 0393     		str	r3, [sp, #12]
 3441              		.loc 1 911 0
 3442 0018 0023     		movs	r3, #0
 3443 001a 8DF80B30 		strb	r3, [sp, #11]
 3444              		.loc 1 912 0
 3445 001e 0023     		movs	r3, #0
 3446 0020 8DF80A30 		strb	r3, [sp, #10]
 3447              		.loc 1 914 0
 3448 0024 0020     		movs	r0, #0
 3449 0026 FFF7FEFF 		bl	po8030_set_bank
 3450 002a 0346     		mov	r3, r0
 3451 002c 8DF80B30 		strb	r3, [sp, #11]
 3452 0030 9DF90B30 		ldrsb	r3, [sp, #11]
 3453 0034 002B     		cmp	r3, #0
 3454 0036 02D0     		beq	.L264
 3455              		.loc 1 915 0
 3456 0038 9DF90B30 		ldrsb	r3, [sp, #11]
 3457 003c 1BE0     		b	.L265
 3458              	.L264:
 3459              		.loc 1 918 0
 3460 003e 9DF80730 		ldrb	r3, [sp, #7]	@ zero_extendqisi2
 3461 0042 012B     		cmp	r3, #1
 3462 0044 05D1     		bne	.L266
 3463              		.loc 1 919 0
 3464 0046 9DF80A30 		ldrb	r3, [sp, #10]
 3465 004a 63F07F03 		orn	r3, r3, #127
 3466 004e 8DF80A30 		strb	r3, [sp, #10]
 3467              	.L266:
 3468              		.loc 1 921 0
 3469 0052 9DF80630 		ldrb	r3, [sp, #6]	@ zero_extendqisi2
 3470 0056 012B     		cmp	r3, #1
 3471 0058 05D1     		bne	.L267
 3472              		.loc 1 922 0
 3473 005a 9DF80A30 		ldrb	r3, [sp, #10]
 3474 005e 43F04003 		orr	r3, r3, #64
 3475 0062 8DF80A30 		strb	r3, [sp, #10]
 3476              	.L267:
ARM GAS  C:\Users\PCHAUT~1\AppData\Local\Temp\ccMxpIDf.s 			page 62


 3477              		.loc 1 925 0
 3478 0066 9DF80A30 		ldrb	r3, [sp, #10]	@ zero_extendqisi2
 3479 006a 1A46     		mov	r2, r3
 3480 006c 6C21     		movs	r1, #108
 3481 006e 6E20     		movs	r0, #110
 3482 0070 FFF7FEFF 		bl	write_reg
 3483 0074 0346     		mov	r3, r0
 3484              	.L265:
 3485              		.loc 1 926 0
 3486 0076 1846     		mov	r0, r3
 3487 0078 044B     		ldr	r3, .L269
 3488 007a 039A     		ldr	r2, [sp, #12]
 3489 007c 1B68     		ldr	r3, [r3]
 3490 007e 9A42     		cmp	r2, r3
 3491 0080 01D0     		beq	.L268
 3492 0082 FFF7FEFF 		bl	__stack_chk_fail
 3493              	.L268:
 3494 0086 05B0     		add	sp, sp, #20
 3495              		.cfi_def_cfa_offset 4
 3496              		@ sp needed
 3497 0088 5DF804FB 		ldr	pc, [sp], #4
 3498              	.L270:
 3499              		.align	2
 3500              	.L269:
 3501 008c 00000000 		.word	__stack_chk_guard
 3502              		.cfi_endproc
 3503              	.LFE270:
 3504              		.size	po8030_set_mirror, .-po8030_set_mirror
 3505              		.section	.text.po8030_set_awb,"ax",%progbits
 3506              		.align	1
 3507              		.p2align 4,,15
 3508              		.global	po8030_set_awb
 3509              		.syntax unified
 3510              		.thumb
 3511              		.thumb_func
 3512              		.fpu fpv4-sp-d16
 3513              		.type	po8030_set_awb, %function
 3514              	po8030_set_awb:
 3515              	.LFB271:
 3516              		.loc 1 931 0
 3517              		.cfi_startproc
 3518              		@ args = 0, pretend = 0, frame = 16
 3519              		@ frame_needed = 0, uses_anonymous_args = 0
 3520 0000 00B5     		push	{lr}
 3521              		.cfi_def_cfa_offset 4
 3522              		.cfi_offset 14, -4
 3523 0002 85B0     		sub	sp, sp, #20
 3524              		.cfi_def_cfa_offset 24
 3525 0004 0346     		mov	r3, r0
 3526 0006 8DF80730 		strb	r3, [sp, #7]
 3527              		.loc 1 931 0
 3528 000a 264B     		ldr	r3, .L279
 3529 000c 1B68     		ldr	r3, [r3]
 3530 000e 0393     		str	r3, [sp, #12]
 3531              		.loc 1 932 0
 3532 0010 0023     		movs	r3, #0
 3533 0012 8DF80B30 		strb	r3, [sp, #11]
ARM GAS  C:\Users\PCHAUT~1\AppData\Local\Temp\ccMxpIDf.s 			page 63


 3534              		.loc 1 933 0
 3535 0016 0023     		movs	r3, #0
 3536 0018 8DF80A30 		strb	r3, [sp, #10]
 3537              		.loc 1 935 0
 3538 001c 0220     		movs	r0, #2
 3539 001e FFF7FEFF 		bl	po8030_set_bank
 3540 0022 0346     		mov	r3, r0
 3541 0024 8DF80B30 		strb	r3, [sp, #11]
 3542 0028 9DF90B30 		ldrsb	r3, [sp, #11]
 3543 002c 002B     		cmp	r3, #0
 3544 002e 02D0     		beq	.L272
 3545              		.loc 1 936 0
 3546 0030 9DF90B30 		ldrsb	r3, [sp, #11]
 3547 0034 2BE0     		b	.L277
 3548              	.L272:
 3549              		.loc 1 939 0
 3550 0036 0DF10A03 		add	r3, sp, #10
 3551 003a 1A46     		mov	r2, r3
 3552 003c 0421     		movs	r1, #4
 3553 003e 6E20     		movs	r0, #110
 3554 0040 FFF7FEFF 		bl	read_reg
 3555 0044 0346     		mov	r3, r0
 3556 0046 8DF80B30 		strb	r3, [sp, #11]
 3557 004a 9DF90B30 		ldrsb	r3, [sp, #11]
 3558 004e 002B     		cmp	r3, #0
 3559 0050 02D0     		beq	.L274
 3560              		.loc 1 940 0
 3561 0052 9DF90B30 		ldrsb	r3, [sp, #11]
 3562 0056 1AE0     		b	.L277
 3563              	.L274:
 3564              		.loc 1 943 0
 3565 0058 9DF80730 		ldrb	r3, [sp, #7]	@ zero_extendqisi2
 3566 005c 012B     		cmp	r3, #1
 3567 005e 07D1     		bne	.L275
 3568              		.loc 1 944 0
 3569 0060 9DF80A30 		ldrb	r3, [sp, #10]	@ zero_extendqisi2
 3570 0064 23F00403 		bic	r3, r3, #4
 3571 0068 DBB2     		uxtb	r3, r3
 3572 006a 8DF80A30 		strb	r3, [sp, #10]
 3573 006e 06E0     		b	.L276
 3574              	.L275:
 3575              		.loc 1 946 0
 3576 0070 9DF80A30 		ldrb	r3, [sp, #10]	@ zero_extendqisi2
 3577 0074 43F00403 		orr	r3, r3, #4
 3578 0078 DBB2     		uxtb	r3, r3
 3579 007a 8DF80A30 		strb	r3, [sp, #10]
 3580              	.L276:
 3581              		.loc 1 949 0
 3582 007e 9DF80A30 		ldrb	r3, [sp, #10]	@ zero_extendqisi2
 3583 0082 1A46     		mov	r2, r3
 3584 0084 0421     		movs	r1, #4
 3585 0086 6E20     		movs	r0, #110
 3586 0088 FFF7FEFF 		bl	write_reg
 3587 008c 0346     		mov	r3, r0
 3588              	.L277:
 3589              		.loc 1 950 0 discriminator 1
 3590 008e 1846     		mov	r0, r3
ARM GAS  C:\Users\PCHAUT~1\AppData\Local\Temp\ccMxpIDf.s 			page 64


 3591 0090 044B     		ldr	r3, .L279
 3592 0092 039A     		ldr	r2, [sp, #12]
 3593 0094 1B68     		ldr	r3, [r3]
 3594 0096 9A42     		cmp	r2, r3
 3595 0098 01D0     		beq	.L278
 3596              		.loc 1 950 0 is_stmt 0
 3597 009a FFF7FEFF 		bl	__stack_chk_fail
 3598              	.L278:
 3599 009e 05B0     		add	sp, sp, #20
 3600              		.cfi_def_cfa_offset 4
 3601              		@ sp needed
 3602 00a0 5DF804FB 		ldr	pc, [sp], #4
 3603              	.L280:
 3604              		.align	2
 3605              	.L279:
 3606 00a4 00000000 		.word	__stack_chk_guard
 3607              		.cfi_endproc
 3608              	.LFE271:
 3609              		.size	po8030_set_awb, .-po8030_set_awb
 3610              		.section	.text.po8030_set_rgb_gain,"ax",%progbits
 3611              		.align	1
 3612              		.p2align 4,,15
 3613              		.global	po8030_set_rgb_gain
 3614              		.syntax unified
 3615              		.thumb
 3616              		.thumb_func
 3617              		.fpu fpv4-sp-d16
 3618              		.type	po8030_set_rgb_gain, %function
 3619              	po8030_set_rgb_gain:
 3620              	.LFB272:
 3621              		.loc 1 958 0 is_stmt 1
 3622              		.cfi_startproc
 3623              		@ args = 0, pretend = 0, frame = 16
 3624              		@ frame_needed = 0, uses_anonymous_args = 0
 3625 0000 00B5     		push	{lr}
 3626              		.cfi_def_cfa_offset 4
 3627              		.cfi_offset 14, -4
 3628 0002 85B0     		sub	sp, sp, #20
 3629              		.cfi_def_cfa_offset 24
 3630 0004 0346     		mov	r3, r0
 3631 0006 8DF80730 		strb	r3, [sp, #7]
 3632 000a 0B46     		mov	r3, r1
 3633 000c 8DF80630 		strb	r3, [sp, #6]
 3634 0010 1346     		mov	r3, r2
 3635 0012 8DF80530 		strb	r3, [sp, #5]
 3636              		.loc 1 958 0
 3637 0016 2F4B     		ldr	r3, .L289
 3638 0018 1B68     		ldr	r3, [r3]
 3639 001a 0393     		str	r3, [sp, #12]
 3640              		.loc 1 959 0
 3641 001c 0023     		movs	r3, #0
 3642 001e 8DF80B30 		strb	r3, [sp, #11]
 3643              		.loc 1 961 0
 3644 0022 0020     		movs	r0, #0
 3645 0024 FFF7FEFF 		bl	po8030_set_awb
 3646 0028 0346     		mov	r3, r0
 3647 002a 8DF80B30 		strb	r3, [sp, #11]
ARM GAS  C:\Users\PCHAUT~1\AppData\Local\Temp\ccMxpIDf.s 			page 65


 3648 002e 9DF90B30 		ldrsb	r3, [sp, #11]
 3649 0032 002B     		cmp	r3, #0
 3650 0034 02D0     		beq	.L282
 3651              		.loc 1 962 0
 3652 0036 9DF90B30 		ldrsb	r3, [sp, #11]
 3653 003a 40E0     		b	.L283
 3654              	.L282:
 3655              		.loc 1 965 0
 3656 003c 0020     		movs	r0, #0
 3657 003e FFF7FEFF 		bl	po8030_set_bank
 3658 0042 0346     		mov	r3, r0
 3659 0044 8DF80B30 		strb	r3, [sp, #11]
 3660 0048 9DF90B30 		ldrsb	r3, [sp, #11]
 3661 004c 002B     		cmp	r3, #0
 3662 004e 02D0     		beq	.L284
 3663              		.loc 1 966 0
 3664 0050 9DF90B30 		ldrsb	r3, [sp, #11]
 3665 0054 33E0     		b	.L283
 3666              	.L284:
 3667              		.loc 1 969 0
 3668 0056 9DF80730 		ldrb	r3, [sp, #7]	@ zero_extendqisi2
 3669 005a 1A46     		mov	r2, r3
 3670 005c 2321     		movs	r1, #35
 3671 005e 6E20     		movs	r0, #110
 3672 0060 FFF7FEFF 		bl	write_reg
 3673 0064 0346     		mov	r3, r0
 3674 0066 8DF80B30 		strb	r3, [sp, #11]
 3675 006a 9DF90B30 		ldrsb	r3, [sp, #11]
 3676 006e 002B     		cmp	r3, #0
 3677 0070 02D0     		beq	.L285
 3678              		.loc 1 970 0
 3679 0072 9DF90B30 		ldrsb	r3, [sp, #11]
 3680 0076 22E0     		b	.L283
 3681              	.L285:
 3682              		.loc 1 972 0
 3683 0078 9DF80630 		ldrb	r3, [sp, #6]	@ zero_extendqisi2
 3684 007c 1A46     		mov	r2, r3
 3685 007e 2421     		movs	r1, #36
 3686 0080 6E20     		movs	r0, #110
 3687 0082 FFF7FEFF 		bl	write_reg
 3688 0086 0346     		mov	r3, r0
 3689 0088 8DF80B30 		strb	r3, [sp, #11]
 3690 008c 9DF90B30 		ldrsb	r3, [sp, #11]
 3691 0090 002B     		cmp	r3, #0
 3692 0092 02D0     		beq	.L286
 3693              		.loc 1 973 0
 3694 0094 9DF90B30 		ldrsb	r3, [sp, #11]
 3695 0098 11E0     		b	.L283
 3696              	.L286:
 3697              		.loc 1 975 0
 3698 009a 9DF80530 		ldrb	r3, [sp, #5]	@ zero_extendqisi2
 3699 009e 1A46     		mov	r2, r3
 3700 00a0 2521     		movs	r1, #37
 3701 00a2 6E20     		movs	r0, #110
 3702 00a4 FFF7FEFF 		bl	write_reg
 3703 00a8 0346     		mov	r3, r0
 3704 00aa 8DF80B30 		strb	r3, [sp, #11]
ARM GAS  C:\Users\PCHAUT~1\AppData\Local\Temp\ccMxpIDf.s 			page 66


 3705 00ae 9DF90B30 		ldrsb	r3, [sp, #11]
 3706 00b2 002B     		cmp	r3, #0
 3707 00b4 02D0     		beq	.L287
 3708              		.loc 1 976 0
 3709 00b6 9DF90B30 		ldrsb	r3, [sp, #11]
 3710 00ba 00E0     		b	.L283
 3711              	.L287:
 3712              		.loc 1 979 0
 3713 00bc 0023     		movs	r3, #0
 3714              	.L283:
 3715              		.loc 1 980 0
 3716 00be 1846     		mov	r0, r3
 3717 00c0 044B     		ldr	r3, .L289
 3718 00c2 039A     		ldr	r2, [sp, #12]
 3719 00c4 1B68     		ldr	r3, [r3]
 3720 00c6 9A42     		cmp	r2, r3
 3721 00c8 01D0     		beq	.L288
 3722 00ca FFF7FEFF 		bl	__stack_chk_fail
 3723              	.L288:
 3724 00ce 05B0     		add	sp, sp, #20
 3725              		.cfi_def_cfa_offset 4
 3726              		@ sp needed
 3727 00d0 5DF804FB 		ldr	pc, [sp], #4
 3728              	.L290:
 3729              		.align	2
 3730              	.L289:
 3731 00d4 00000000 		.word	__stack_chk_guard
 3732              		.cfi_endproc
 3733              	.LFE272:
 3734              		.size	po8030_set_rgb_gain, .-po8030_set_rgb_gain
 3735              		.section	.text.po8030_set_ae,"ax",%progbits
 3736              		.align	1
 3737              		.p2align 4,,15
 3738              		.global	po8030_set_ae
 3739              		.syntax unified
 3740              		.thumb
 3741              		.thumb_func
 3742              		.fpu fpv4-sp-d16
 3743              		.type	po8030_set_ae, %function
 3744              	po8030_set_ae:
 3745              	.LFB273:
 3746              		.loc 1 985 0
 3747              		.cfi_startproc
 3748              		@ args = 0, pretend = 0, frame = 16
 3749              		@ frame_needed = 0, uses_anonymous_args = 0
 3750 0000 00B5     		push	{lr}
 3751              		.cfi_def_cfa_offset 4
 3752              		.cfi_offset 14, -4
 3753 0002 85B0     		sub	sp, sp, #20
 3754              		.cfi_def_cfa_offset 24
 3755 0004 0346     		mov	r3, r0
 3756 0006 8DF80730 		strb	r3, [sp, #7]
 3757              		.loc 1 985 0
 3758 000a 264B     		ldr	r3, .L299
 3759 000c 1B68     		ldr	r3, [r3]
 3760 000e 0393     		str	r3, [sp, #12]
 3761              		.loc 1 986 0
ARM GAS  C:\Users\PCHAUT~1\AppData\Local\Temp\ccMxpIDf.s 			page 67


 3762 0010 0023     		movs	r3, #0
 3763 0012 8DF80B30 		strb	r3, [sp, #11]
 3764              		.loc 1 987 0
 3765 0016 0023     		movs	r3, #0
 3766 0018 8DF80A30 		strb	r3, [sp, #10]
 3767              		.loc 1 989 0
 3768 001c 0220     		movs	r0, #2
 3769 001e FFF7FEFF 		bl	po8030_set_bank
 3770 0022 0346     		mov	r3, r0
 3771 0024 8DF80B30 		strb	r3, [sp, #11]
 3772 0028 9DF90B30 		ldrsb	r3, [sp, #11]
 3773 002c 002B     		cmp	r3, #0
 3774 002e 02D0     		beq	.L292
 3775              		.loc 1 990 0
 3776 0030 9DF90B30 		ldrsb	r3, [sp, #11]
 3777 0034 2BE0     		b	.L297
 3778              	.L292:
 3779              		.loc 1 993 0
 3780 0036 0DF10A03 		add	r3, sp, #10
 3781 003a 1A46     		mov	r2, r3
 3782 003c 0421     		movs	r1, #4
 3783 003e 6E20     		movs	r0, #110
 3784 0040 FFF7FEFF 		bl	read_reg
 3785 0044 0346     		mov	r3, r0
 3786 0046 8DF80B30 		strb	r3, [sp, #11]
 3787 004a 9DF90B30 		ldrsb	r3, [sp, #11]
 3788 004e 002B     		cmp	r3, #0
 3789 0050 02D0     		beq	.L294
 3790              		.loc 1 994 0
 3791 0052 9DF90B30 		ldrsb	r3, [sp, #11]
 3792 0056 1AE0     		b	.L297
 3793              	.L294:
 3794              		.loc 1 997 0
 3795 0058 9DF80730 		ldrb	r3, [sp, #7]	@ zero_extendqisi2
 3796 005c 012B     		cmp	r3, #1
 3797 005e 07D1     		bne	.L295
 3798              		.loc 1 998 0
 3799 0060 9DF80A30 		ldrb	r3, [sp, #10]	@ zero_extendqisi2
 3800 0064 23F00303 		bic	r3, r3, #3
 3801 0068 DBB2     		uxtb	r3, r3
 3802 006a 8DF80A30 		strb	r3, [sp, #10]
 3803 006e 06E0     		b	.L296
 3804              	.L295:
 3805              		.loc 1 1000 0
 3806 0070 9DF80A30 		ldrb	r3, [sp, #10]	@ zero_extendqisi2
 3807 0074 43F00303 		orr	r3, r3, #3
 3808 0078 DBB2     		uxtb	r3, r3
 3809 007a 8DF80A30 		strb	r3, [sp, #10]
 3810              	.L296:
 3811              		.loc 1 1003 0
 3812 007e 9DF80A30 		ldrb	r3, [sp, #10]	@ zero_extendqisi2
 3813 0082 1A46     		mov	r2, r3
 3814 0084 0421     		movs	r1, #4
 3815 0086 6E20     		movs	r0, #110
 3816 0088 FFF7FEFF 		bl	write_reg
 3817 008c 0346     		mov	r3, r0
 3818              	.L297:
ARM GAS  C:\Users\PCHAUT~1\AppData\Local\Temp\ccMxpIDf.s 			page 68


 3819              		.loc 1 1004 0 discriminator 1
 3820 008e 1846     		mov	r0, r3
 3821 0090 044B     		ldr	r3, .L299
 3822 0092 039A     		ldr	r2, [sp, #12]
 3823 0094 1B68     		ldr	r3, [r3]
 3824 0096 9A42     		cmp	r2, r3
 3825 0098 01D0     		beq	.L298
 3826              		.loc 1 1004 0 is_stmt 0
 3827 009a FFF7FEFF 		bl	__stack_chk_fail
 3828              	.L298:
 3829 009e 05B0     		add	sp, sp, #20
 3830              		.cfi_def_cfa_offset 4
 3831              		@ sp needed
 3832 00a0 5DF804FB 		ldr	pc, [sp], #4
 3833              	.L300:
 3834              		.align	2
 3835              	.L299:
 3836 00a4 00000000 		.word	__stack_chk_guard
 3837              		.cfi_endproc
 3838              	.LFE273:
 3839              		.size	po8030_set_ae, .-po8030_set_ae
 3840              		.section	.text.po8030_set_exposure,"ax",%progbits
 3841              		.align	1
 3842              		.p2align 4,,15
 3843              		.global	po8030_set_exposure
 3844              		.syntax unified
 3845              		.thumb
 3846              		.thumb_func
 3847              		.fpu fpv4-sp-d16
 3848              		.type	po8030_set_exposure, %function
 3849              	po8030_set_exposure:
 3850              	.LFB274:
 3851              		.loc 1 1011 0 is_stmt 1
 3852              		.cfi_startproc
 3853              		@ args = 0, pretend = 0, frame = 16
 3854              		@ frame_needed = 0, uses_anonymous_args = 0
 3855 0000 00B5     		push	{lr}
 3856              		.cfi_def_cfa_offset 4
 3857              		.cfi_offset 14, -4
 3858 0002 85B0     		sub	sp, sp, #20
 3859              		.cfi_def_cfa_offset 24
 3860 0004 0346     		mov	r3, r0
 3861 0006 0A46     		mov	r2, r1
 3862 0008 ADF80630 		strh	r3, [sp, #6]	@ movhi
 3863 000c 1346     		mov	r3, r2
 3864 000e 8DF80530 		strb	r3, [sp, #5]
 3865              		.loc 1 1011 0
 3866 0012 314B     		ldr	r3, .L309
 3867 0014 1B68     		ldr	r3, [r3]
 3868 0016 0393     		str	r3, [sp, #12]
 3869              		.loc 1 1012 0
 3870 0018 0023     		movs	r3, #0
 3871 001a 8DF80B30 		strb	r3, [sp, #11]
 3872              		.loc 1 1014 0
 3873 001e 0020     		movs	r0, #0
 3874 0020 FFF7FEFF 		bl	po8030_set_ae
 3875 0024 0346     		mov	r3, r0
ARM GAS  C:\Users\PCHAUT~1\AppData\Local\Temp\ccMxpIDf.s 			page 69


 3876 0026 8DF80B30 		strb	r3, [sp, #11]
 3877 002a 9DF90B30 		ldrsb	r3, [sp, #11]
 3878 002e 002B     		cmp	r3, #0
 3879 0030 02D0     		beq	.L302
 3880              		.loc 1 1015 0
 3881 0032 9DF90B30 		ldrsb	r3, [sp, #11]
 3882 0036 44E0     		b	.L303
 3883              	.L302:
 3884              		.loc 1 1018 0
 3885 0038 0020     		movs	r0, #0
 3886 003a FFF7FEFF 		bl	po8030_set_bank
 3887 003e 0346     		mov	r3, r0
 3888 0040 8DF80B30 		strb	r3, [sp, #11]
 3889 0044 9DF90B30 		ldrsb	r3, [sp, #11]
 3890 0048 002B     		cmp	r3, #0
 3891 004a 02D0     		beq	.L304
 3892              		.loc 1 1019 0
 3893 004c 9DF90B30 		ldrsb	r3, [sp, #11]
 3894 0050 37E0     		b	.L303
 3895              	.L304:
 3896              		.loc 1 1022 0
 3897 0052 BDF80630 		ldrh	r3, [sp, #6]
 3898 0056 1B0A     		lsrs	r3, r3, #8
 3899 0058 9BB2     		uxth	r3, r3
 3900 005a DBB2     		uxtb	r3, r3
 3901 005c 1A46     		mov	r2, r3
 3902 005e 1721     		movs	r1, #23
 3903 0060 6E20     		movs	r0, #110
 3904 0062 FFF7FEFF 		bl	write_reg
 3905 0066 0346     		mov	r3, r0
 3906 0068 8DF80B30 		strb	r3, [sp, #11]
 3907 006c 9DF90B30 		ldrsb	r3, [sp, #11]
 3908 0070 002B     		cmp	r3, #0
 3909 0072 02D0     		beq	.L305
 3910              		.loc 1 1023 0
 3911 0074 9DF90B30 		ldrsb	r3, [sp, #11]
 3912 0078 23E0     		b	.L303
 3913              	.L305:
 3914              		.loc 1 1025 0
 3915 007a BDF80630 		ldrh	r3, [sp, #6]	@ movhi
 3916 007e DBB2     		uxtb	r3, r3
 3917 0080 1A46     		mov	r2, r3
 3918 0082 1821     		movs	r1, #24
 3919 0084 6E20     		movs	r0, #110
 3920 0086 FFF7FEFF 		bl	write_reg
 3921 008a 0346     		mov	r3, r0
 3922 008c 8DF80B30 		strb	r3, [sp, #11]
 3923 0090 9DF90B30 		ldrsb	r3, [sp, #11]
 3924 0094 002B     		cmp	r3, #0
 3925 0096 02D0     		beq	.L306
 3926              		.loc 1 1026 0
 3927 0098 9DF90B30 		ldrsb	r3, [sp, #11]
 3928 009c 11E0     		b	.L303
 3929              	.L306:
 3930              		.loc 1 1028 0
 3931 009e 9DF80530 		ldrb	r3, [sp, #5]	@ zero_extendqisi2
 3932 00a2 1A46     		mov	r2, r3
ARM GAS  C:\Users\PCHAUT~1\AppData\Local\Temp\ccMxpIDf.s 			page 70


 3933 00a4 1921     		movs	r1, #25
 3934 00a6 6E20     		movs	r0, #110
 3935 00a8 FFF7FEFF 		bl	write_reg
 3936 00ac 0346     		mov	r3, r0
 3937 00ae 8DF80B30 		strb	r3, [sp, #11]
 3938 00b2 9DF90B30 		ldrsb	r3, [sp, #11]
 3939 00b6 002B     		cmp	r3, #0
 3940 00b8 02D0     		beq	.L307
 3941              		.loc 1 1029 0
 3942 00ba 9DF90B30 		ldrsb	r3, [sp, #11]
 3943 00be 00E0     		b	.L303
 3944              	.L307:
 3945              		.loc 1 1032 0
 3946 00c0 0023     		movs	r3, #0
 3947              	.L303:
 3948              		.loc 1 1033 0
 3949 00c2 1846     		mov	r0, r3
 3950 00c4 044B     		ldr	r3, .L309
 3951 00c6 039A     		ldr	r2, [sp, #12]
 3952 00c8 1B68     		ldr	r3, [r3]
 3953 00ca 9A42     		cmp	r2, r3
 3954 00cc 01D0     		beq	.L308
 3955 00ce FFF7FEFF 		bl	__stack_chk_fail
 3956              	.L308:
 3957 00d2 05B0     		add	sp, sp, #20
 3958              		.cfi_def_cfa_offset 4
 3959              		@ sp needed
 3960 00d4 5DF804FB 		ldr	pc, [sp], #4
 3961              	.L310:
 3962              		.align	2
 3963              	.L309:
 3964 00d8 00000000 		.word	__stack_chk_guard
 3965              		.cfi_endproc
 3966              	.LFE274:
 3967              		.size	po8030_set_exposure, .-po8030_set_exposure
 3968              		.section	.text.po8030_get_image_size,"ax",%progbits
 3969              		.align	1
 3970              		.p2align 4,,15
 3971              		.global	po8030_get_image_size
 3972              		.syntax unified
 3973              		.thumb
 3974              		.thumb_func
 3975              		.fpu fpv4-sp-d16
 3976              		.type	po8030_get_image_size, %function
 3977              	po8030_get_image_size:
 3978              	.LFB275:
 3979              		.loc 1 1037 0
 3980              		.cfi_startproc
 3981              		@ args = 0, pretend = 0, frame = 8
 3982              		@ frame_needed = 0, uses_anonymous_args = 0
 3983 0000 00B5     		push	{lr}
 3984              		.cfi_def_cfa_offset 4
 3985              		.cfi_offset 14, -4
 3986 0002 83B0     		sub	sp, sp, #12
 3987              		.cfi_def_cfa_offset 16
 3988              		.loc 1 1037 0
 3989 0004 104B     		ldr	r3, .L315
ARM GAS  C:\Users\PCHAUT~1\AppData\Local\Temp\ccMxpIDf.s 			page 71


 3990 0006 1B68     		ldr	r3, [r3]
 3991 0008 0193     		str	r3, [sp, #4]
 3992              		.loc 1 1038 0
 3993 000a 104B     		ldr	r3, .L315+4
 3994 000c 1B79     		ldrb	r3, [r3, #4]	@ zero_extendqisi2
 3995 000e 442B     		cmp	r3, #68
 3996 0010 07D1     		bne	.L312
 3997              		.loc 1 1039 0
 3998 0012 0E4B     		ldr	r3, .L315+4
 3999 0014 1B88     		ldrh	r3, [r3]
 4000 0016 1A46     		mov	r2, r3
 4001 0018 0C4B     		ldr	r3, .L315+4
 4002 001a 5B88     		ldrh	r3, [r3, #2]
 4003 001c 03FB02F3 		mul	r3, r3, r2
 4004 0020 07E0     		b	.L313
 4005              	.L312:
 4006              		.loc 1 1041 0
 4007 0022 0A4B     		ldr	r3, .L315+4
 4008 0024 1B88     		ldrh	r3, [r3]
 4009 0026 1A46     		mov	r2, r3
 4010 0028 084B     		ldr	r3, .L315+4
 4011 002a 5B88     		ldrh	r3, [r3, #2]
 4012 002c 03FB02F3 		mul	r3, r3, r2
 4013 0030 5B00     		lsls	r3, r3, #1
 4014              	.L313:
 4015              		.loc 1 1043 0
 4016 0032 1846     		mov	r0, r3
 4017 0034 044B     		ldr	r3, .L315
 4018 0036 019A     		ldr	r2, [sp, #4]
 4019 0038 1B68     		ldr	r3, [r3]
 4020 003a 9A42     		cmp	r2, r3
 4021 003c 01D0     		beq	.L314
 4022 003e FFF7FEFF 		bl	__stack_chk_fail
 4023              	.L314:
 4024 0042 03B0     		add	sp, sp, #12
 4025              		.cfi_def_cfa_offset 4
 4026              		@ sp needed
 4027 0044 5DF804FB 		ldr	pc, [sp], #4
 4028              	.L316:
 4029              		.align	2
 4030              	.L315:
 4031 0048 00000000 		.word	__stack_chk_guard
 4032 004c 00000000 		.word	po8030_conf
 4033              		.cfi_endproc
 4034              	.LFE275:
 4035              		.size	po8030_get_image_size, .-po8030_get_image_size
 4036              		.section	.rodata.pwmcfg_cam.9992,"a",%progbits
 4037              		.align	2
 4038              		.type	pwmcfg_cam.9992, %object
 4039              		.size	pwmcfg_cam.9992, 52
 4040              	pwmcfg_cam.9992:
 4041 0000 80DE8002 		.word	42000000
 4042 0004 02000000 		.word	2
 4043 0008 00000000 		.word	0
 4044 000c 01000000 		.word	1
 4045 0010 00000000 		.word	0
 4046 0014 00000000 		.word	0
ARM GAS  C:\Users\PCHAUT~1\AppData\Local\Temp\ccMxpIDf.s 			page 72


 4047 0018 00000000 		.word	0
 4048 001c 00000000 		.word	0
 4049 0020 00000000 		.word	0
 4050 0024 00000000 		.word	0
 4051 0028 00000000 		.word	0
 4052 002c 00000000 		.word	0
 4053 0030 00000000 		.space	4
 4054              		.text
 4055              	.Letext0:
 4056              		.file 2 "c:\\users\\pchautems\\documents\\robotiquetp\\eclipse_e-puck2\\tools\\gcc-arm-none-eabi-7
 4057              		.file 3 "c:\\users\\pchautems\\documents\\robotiquetp\\eclipse_e-puck2\\tools\\gcc-arm-none-eabi-7
 4058              		.file 4 "c:\\users\\pchautems\\documents\\robotiquetp\\eclipse_e-puck2\\tools\\gcc-arm-none-eabi-7
 4059              		.file 5 "../lib/e-puck2_main-processor/ChibiOS//os/rt/ports/ARMCMx/compilers/GCC/chtypes.h"
 4060              		.file 6 "../lib/e-puck2_main-processor/ChibiOS//os/rt/include/chsystypes.h"
 4061              		.file 7 "../lib/e-puck2_main-processor/ChibiOS//os/rt/include/chschd.h"
 4062              		.file 8 "../lib/e-puck2_main-processor/ChibiOS//os/ext/CMSIS/include/core_cm4.h"
 4063              		.file 9 "../lib/e-puck2_main-processor/ChibiOS//os/ext/CMSIS/ST/system_stm32f4xx.h"
 4064              		.file 10 "../lib/e-puck2_main-processor/ChibiOS//os/ext/CMSIS/ST/stm32f407xx.h"
 4065              		.file 11 "../lib/e-puck2_main-processor/ChibiOS//os/rt/ports/ARMCMx/chcore.h"
 4066              		.file 12 "../lib/e-puck2_main-processor/ChibiOS//os/rt/ports/ARMCMx/chcore_v7m.h"
 4067              		.file 13 "../lib/e-puck2_main-processor/ChibiOS//os/rt/include/chdebug.h"
 4068              		.file 14 "../lib/e-puck2_main-processor/ChibiOS//os/rt/include/chtm.h"
 4069              		.file 15 "../lib/e-puck2_main-processor/ChibiOS//os/rt/include/chstats.h"
 4070              		.file 16 "../lib/e-puck2_main-processor/ChibiOS//os/rt/include/chsem.h"
 4071              		.file 17 "../lib/e-puck2_main-processor/ChibiOS//os/rt/include/chmtx.h"
 4072              		.file 18 "../lib/e-puck2_main-processor/ChibiOS//os/rt/include/chregistry.h"
 4073              		.file 19 "../lib/e-puck2_main-processor/ChibiOS//os/rt/include/chevents.h"
 4074              		.file 20 "../lib/e-puck2_main-processor/ChibiOS//os/rt/include/chqueues.h"
 4075              		.file 21 "../lib/e-puck2_main-processor/ChibiOS//os/hal/ports/STM32/STM32F4xx/stm32_dma.h"
 4076              		.file 22 "../lib/e-puck2_main-processor/ChibiOS//os/hal/include/hal_ioblock.h"
 4077              		.file 23 "../lib/e-puck2_main-processor/ChibiOS//os/hal/ports/STM32/LLD/GPIOv2/pal_lld.h"
 4078              		.file 24 "../lib/e-puck2_main-processor/ChibiOS//os/hal/include/adc.h"
 4079              		.file 25 "../lib/e-puck2_main-processor/ChibiOS//os/hal/ports/STM32/STM32F4xx/adc_lld.h"
 4080              		.file 26 "../lib/e-puck2_main-processor/ChibiOS//os/hal/include/can.h"
 4081              		.file 27 "../lib/e-puck2_main-processor/ChibiOS//os/hal/ports/STM32/LLD/can_lld.h"
 4082              		.file 28 "../lib/e-puck2_main-processor/ChibiOS//os/hal/include/dac.h"
 4083              		.file 29 "../lib/e-puck2_main-processor/ChibiOS//os/hal/ports/STM32/LLD/DACv1/dac_lld.h"
 4084              		.file 30 "../lib/e-puck2_main-processor/ChibiOS//os/hal/include/ext.h"
 4085              		.file 31 "../lib/e-puck2_main-processor/ChibiOS//os/hal/ports/STM32/LLD/ext_lld.h"
 4086              		.file 32 "../lib/e-puck2_main-processor/ChibiOS//os/hal/include/gpt.h"
 4087              		.file 33 "../lib/e-puck2_main-processor/ChibiOS//os/hal/ports/STM32/LLD/TIMv1/gpt_lld.h"
 4088              		.file 34 "../lib/e-puck2_main-processor/ChibiOS//os/hal/ports/STM32/LLD/TIMv1/stm32_tim.h"
 4089              		.file 35 "../lib/e-puck2_main-processor/ChibiOS//os/hal/include/i2c.h"
 4090              		.file 36 "../lib/e-puck2_main-processor/ChibiOS//os/hal/ports/STM32/LLD/I2Cv1/i2c_lld.h"
 4091              		.file 37 "../lib/e-puck2_main-processor/ChibiOS//os/hal/include/i2s.h"
 4092              		.file 38 "../lib/e-puck2_main-processor/ChibiOS//os/hal/ports/STM32/LLD/SPIv1/i2s_lld.h"
 4093              		.file 39 "../lib/e-puck2_main-processor/ChibiOS//os/hal/include/pwm.h"
 4094              		.file 40 "../lib/e-puck2_main-processor/ChibiOS//os/hal/ports/STM32/LLD/TIMv1/pwm_lld.h"
 4095              		.file 41 "../lib/e-puck2_main-processor/ChibiOS//os/hal/include/serial.h"
 4096              		.file 42 "../lib/e-puck2_main-processor/ChibiOS//os/hal/ports/STM32/LLD/USARTv1/serial_lld.h"
 4097              		.file 43 "../lib/e-puck2_main-processor/ChibiOS//os/hal/include/sdc.h"
 4098              		.file 44 "../lib/e-puck2_main-processor/ChibiOS//os/hal/ports/STM32/LLD/sdc_lld.h"
 4099              		.file 45 "../lib/e-puck2_main-processor/ChibiOS//os/hal/include/spi.h"
 4100              		.file 46 "../lib/e-puck2_main-processor/ChibiOS//os/hal/ports/STM32/LLD/SPIv1/spi_lld.h"
 4101              		.file 47 "../lib/e-puck2_main-processor/ChibiOS//os/hal/include/usb.h"
 4102              		.file 48 "../lib/e-puck2_main-processor/ChibiOS//os/hal/ports/STM32/LLD/OTGv1/usb_lld.h"
 4103              		.file 49 "../lib/e-puck2_main-processor/ChibiOS//os/hal/ports/STM32/LLD/OTGv1/stm32_otg.h"
ARM GAS  C:\Users\PCHAUT~1\AppData\Local\Temp\ccMxpIDf.s 			page 73


 4104              		.file 50 "../lib/e-puck2_main-processor/ChibiOS//os/hal/include/serial_usb.h"
 4105              		.file 51 "../lib/e-puck2_main-processor/src/camera/po8030.h"
 4106              		.file 52 "../lib/e-puck2_main-processor/src/usbcfg.h"