ARM GAS  C:\Users\PCHAUT~1\AppData\Local\Temp\ccO022PV.s 			page 1


   1              		.cpu cortex-m4
   2              		.eabi_attribute 27, 1
   3              		.eabi_attribute 28, 1
   4              		.eabi_attribute 20, 1
   5              		.eabi_attribute 21, 1
   6              		.eabi_attribute 23, 3
   7              		.eabi_attribute 24, 1
   8              		.eabi_attribute 25, 1
   9              		.eabi_attribute 26, 1
  10              		.eabi_attribute 30, 6
  11              		.eabi_attribute 34, 1
  12              		.eabi_attribute 18, 4
  13              		.file	"port.c"
  14              		.text
  15              	.Ltext0:
  16              		.cfi_sections	.debug_frame
  17              		.section	.text.messagebus_lock_acquire,"ax",%progbits
  18              		.align	1
  19              		.p2align 4,,15
  20              		.global	messagebus_lock_acquire
  21              		.syntax unified
  22              		.thumb
  23              		.thumb_func
  24              		.fpu fpv4-sp-d16
  25              		.type	messagebus_lock_acquire, %function
  26              	messagebus_lock_acquire:
  27              	.LFB219:
  28              		.file 1 "../lib/e-puck2_main-processor/src/msgbus/examples/chibios/port.c"
  29              		.loc 1 5 0
  30              		.cfi_startproc
  31              		@ args = 0, pretend = 0, frame = 16
  32              		@ frame_needed = 0, uses_anonymous_args = 0
  33 0000 00B5     		push	{lr}
  34              		.cfi_def_cfa_offset 4
  35              		.cfi_offset 14, -4
  36 0002 85B0     		sub	sp, sp, #20
  37              		.cfi_def_cfa_offset 24
  38 0004 0190     		str	r0, [sp, #4]
  39              		.loc 1 5 0
  40 0006 094B     		ldr	r3, .L3
  41 0008 1B68     		ldr	r3, [r3]
  42 000a 0393     		str	r3, [sp, #12]
  43              		.loc 1 6 0
  44 000c 019B     		ldr	r3, [sp, #4]
  45 000e 0293     		str	r3, [sp, #8]
  46              		.loc 1 7 0
  47 0010 0298     		ldr	r0, [sp, #8]
  48 0012 FFF7FEFF 		bl	chMtxLock
  49              		.loc 1 8 0
  50 0016 00BF     		nop
  51 0018 044B     		ldr	r3, .L3
  52 001a 039A     		ldr	r2, [sp, #12]
  53 001c 1B68     		ldr	r3, [r3]
  54 001e 9A42     		cmp	r2, r3
  55 0020 01D0     		beq	.L2
  56 0022 FFF7FEFF 		bl	__stack_chk_fail
  57              	.L2:
ARM GAS  C:\Users\PCHAUT~1\AppData\Local\Temp\ccO022PV.s 			page 2


  58 0026 05B0     		add	sp, sp, #20
  59              		.cfi_def_cfa_offset 4
  60              		@ sp needed
  61 0028 5DF804FB 		ldr	pc, [sp], #4
  62              	.L4:
  63              		.align	2
  64              	.L3:
  65 002c 00000000 		.word	__stack_chk_guard
  66              		.cfi_endproc
  67              	.LFE219:
  68              		.size	messagebus_lock_acquire, .-messagebus_lock_acquire
  69              		.section	.text.messagebus_lock_release,"ax",%progbits
  70              		.align	1
  71              		.p2align 4,,15
  72              		.global	messagebus_lock_release
  73              		.syntax unified
  74              		.thumb
  75              		.thumb_func
  76              		.fpu fpv4-sp-d16
  77              		.type	messagebus_lock_release, %function
  78              	messagebus_lock_release:
  79              	.LFB220:
  80              		.loc 1 11 0
  81              		.cfi_startproc
  82              		@ args = 0, pretend = 0, frame = 16
  83              		@ frame_needed = 0, uses_anonymous_args = 0
  84 0000 00B5     		push	{lr}
  85              		.cfi_def_cfa_offset 4
  86              		.cfi_offset 14, -4
  87 0002 85B0     		sub	sp, sp, #20
  88              		.cfi_def_cfa_offset 24
  89 0004 0190     		str	r0, [sp, #4]
  90              		.loc 1 11 0
  91 0006 094B     		ldr	r3, .L7
  92 0008 1B68     		ldr	r3, [r3]
  93 000a 0393     		str	r3, [sp, #12]
  94              		.loc 1 12 0
  95 000c 019B     		ldr	r3, [sp, #4]
  96 000e 0293     		str	r3, [sp, #8]
  97              		.loc 1 13 0
  98 0010 0298     		ldr	r0, [sp, #8]
  99 0012 FFF7FEFF 		bl	chMtxUnlock
 100              		.loc 1 14 0
 101 0016 00BF     		nop
 102 0018 044B     		ldr	r3, .L7
 103 001a 039A     		ldr	r2, [sp, #12]
 104 001c 1B68     		ldr	r3, [r3]
 105 001e 9A42     		cmp	r2, r3
 106 0020 01D0     		beq	.L6
 107 0022 FFF7FEFF 		bl	__stack_chk_fail
 108              	.L6:
 109 0026 05B0     		add	sp, sp, #20
 110              		.cfi_def_cfa_offset 4
 111              		@ sp needed
 112 0028 5DF804FB 		ldr	pc, [sp], #4
 113              	.L8:
 114              		.align	2
ARM GAS  C:\Users\PCHAUT~1\AppData\Local\Temp\ccO022PV.s 			page 3


 115              	.L7:
 116 002c 00000000 		.word	__stack_chk_guard
 117              		.cfi_endproc
 118              	.LFE220:
 119              		.size	messagebus_lock_release, .-messagebus_lock_release
 120              		.section	.text.messagebus_condvar_broadcast,"ax",%progbits
 121              		.align	1
 122              		.p2align 4,,15
 123              		.global	messagebus_condvar_broadcast
 124              		.syntax unified
 125              		.thumb
 126              		.thumb_func
 127              		.fpu fpv4-sp-d16
 128              		.type	messagebus_condvar_broadcast, %function
 129              	messagebus_condvar_broadcast:
 130              	.LFB221:
 131              		.loc 1 17 0
 132              		.cfi_startproc
 133              		@ args = 0, pretend = 0, frame = 16
 134              		@ frame_needed = 0, uses_anonymous_args = 0
 135 0000 00B5     		push	{lr}
 136              		.cfi_def_cfa_offset 4
 137              		.cfi_offset 14, -4
 138 0002 85B0     		sub	sp, sp, #20
 139              		.cfi_def_cfa_offset 24
 140 0004 0190     		str	r0, [sp, #4]
 141              		.loc 1 17 0
 142 0006 094B     		ldr	r3, .L11
 143 0008 1B68     		ldr	r3, [r3]
 144 000a 0393     		str	r3, [sp, #12]
 145              		.loc 1 18 0
 146 000c 019B     		ldr	r3, [sp, #4]
 147 000e 0293     		str	r3, [sp, #8]
 148              		.loc 1 19 0
 149 0010 0298     		ldr	r0, [sp, #8]
 150 0012 FFF7FEFF 		bl	chCondBroadcast
 151              		.loc 1 20 0
 152 0016 00BF     		nop
 153 0018 044B     		ldr	r3, .L11
 154 001a 039A     		ldr	r2, [sp, #12]
 155 001c 1B68     		ldr	r3, [r3]
 156 001e 9A42     		cmp	r2, r3
 157 0020 01D0     		beq	.L10
 158 0022 FFF7FEFF 		bl	__stack_chk_fail
 159              	.L10:
 160 0026 05B0     		add	sp, sp, #20
 161              		.cfi_def_cfa_offset 4
 162              		@ sp needed
 163 0028 5DF804FB 		ldr	pc, [sp], #4
 164              	.L12:
 165              		.align	2
 166              	.L11:
 167 002c 00000000 		.word	__stack_chk_guard
 168              		.cfi_endproc
 169              	.LFE221:
 170              		.size	messagebus_condvar_broadcast, .-messagebus_condvar_broadcast
 171              		.section	.text.messagebus_condvar_wait,"ax",%progbits
ARM GAS  C:\Users\PCHAUT~1\AppData\Local\Temp\ccO022PV.s 			page 4


 172              		.align	1
 173              		.p2align 4,,15
 174              		.global	messagebus_condvar_wait
 175              		.syntax unified
 176              		.thumb
 177              		.thumb_func
 178              		.fpu fpv4-sp-d16
 179              		.type	messagebus_condvar_wait, %function
 180              	messagebus_condvar_wait:
 181              	.LFB222:
 182              		.loc 1 23 0
 183              		.cfi_startproc
 184              		@ args = 0, pretend = 0, frame = 16
 185              		@ frame_needed = 0, uses_anonymous_args = 0
 186 0000 00B5     		push	{lr}
 187              		.cfi_def_cfa_offset 4
 188              		.cfi_offset 14, -4
 189 0002 85B0     		sub	sp, sp, #20
 190              		.cfi_def_cfa_offset 24
 191 0004 0190     		str	r0, [sp, #4]
 192              		.loc 1 23 0
 193 0006 094B     		ldr	r3, .L15
 194 0008 1B68     		ldr	r3, [r3]
 195 000a 0393     		str	r3, [sp, #12]
 196              		.loc 1 24 0
 197 000c 019B     		ldr	r3, [sp, #4]
 198 000e 0293     		str	r3, [sp, #8]
 199              		.loc 1 25 0
 200 0010 0298     		ldr	r0, [sp, #8]
 201 0012 FFF7FEFF 		bl	chCondWait
 202              		.loc 1 26 0
 203 0016 00BF     		nop
 204 0018 044B     		ldr	r3, .L15
 205 001a 039A     		ldr	r2, [sp, #12]
 206 001c 1B68     		ldr	r3, [r3]
 207 001e 9A42     		cmp	r2, r3
 208 0020 01D0     		beq	.L14
 209 0022 FFF7FEFF 		bl	__stack_chk_fail
 210              	.L14:
 211 0026 05B0     		add	sp, sp, #20
 212              		.cfi_def_cfa_offset 4
 213              		@ sp needed
 214 0028 5DF804FB 		ldr	pc, [sp], #4
 215              	.L16:
 216              		.align	2
 217              	.L15:
 218 002c 00000000 		.word	__stack_chk_guard
 219              		.cfi_endproc
 220              	.LFE222:
 221              		.size	messagebus_condvar_wait, .-messagebus_condvar_wait
 222              		.text
 223              	.Letext0:
 224              		.file 2 "c:\\users\\pchautems\\documents\\robotiquetp\\eclipse_e-puck2\\tools\\gcc-arm-none-eabi-7
 225              		.file 3 "c:\\users\\pchautems\\documents\\robotiquetp\\eclipse_e-puck2\\tools\\gcc-arm-none-eabi-7
 226              		.file 4 "../lib/e-puck2_main-processor/ChibiOS//os/rt/ports/ARMCMx/compilers/GCC/chtypes.h"
 227              		.file 5 "../lib/e-puck2_main-processor/ChibiOS//os/rt/include/chsystypes.h"
 228              		.file 6 "../lib/e-puck2_main-processor/ChibiOS//os/rt/include/chschd.h"
ARM GAS  C:\Users\PCHAUT~1\AppData\Local\Temp\ccO022PV.s 			page 5


 229              		.file 7 "../lib/e-puck2_main-processor/ChibiOS//os/ext/CMSIS/include/core_cm4.h"
 230              		.file 8 "../lib/e-puck2_main-processor/ChibiOS//os/ext/CMSIS/ST/system_stm32f4xx.h"
 231              		.file 9 "../lib/e-puck2_main-processor/ChibiOS//os/rt/ports/ARMCMx/chcore.h"
 232              		.file 10 "../lib/e-puck2_main-processor/ChibiOS//os/rt/ports/ARMCMx/chcore_v7m.h"
 233              		.file 11 "../lib/e-puck2_main-processor/ChibiOS//os/rt/include/chdebug.h"
 234              		.file 12 "../lib/e-puck2_main-processor/ChibiOS//os/rt/include/chtm.h"
 235              		.file 13 "../lib/e-puck2_main-processor/ChibiOS//os/rt/include/chstats.h"
 236              		.file 14 "../lib/e-puck2_main-processor/ChibiOS//os/rt/include/chsem.h"
 237              		.file 15 "../lib/e-puck2_main-processor/ChibiOS//os/rt/include/chmtx.h"
 238              		.file 16 "../lib/e-puck2_main-processor/ChibiOS//os/rt/include/chregistry.h"
 239              		.file 17 "../lib/e-puck2_main-processor/ChibiOS//os/rt/include/chcond.h"
 240              		.file 18 "c:\\users\\pchautems\\documents\\robotiquetp\\eclipse_e-puck2\\tools\\gcc-arm-none-eabi-
 241              		.section	.debug_info,"",%progbits
 242              	.Ldebug_info0:
 243 0000 240B0000 		.4byte	0xb24
 244 0004 0400     		.2byte	0x4
 245 0006 00000000 		.4byte	.Ldebug_abbrev0
 246 000a 04       		.byte	0x4
 247 000b 01       		.uleb128 0x1
 248 000c 0C020000 		.4byte	.LASF171
 249 0010 0C       		.byte	0xc
 250 0011 91010000 		.4byte	.LASF172
 251 0015 BB060000 		.4byte	.LASF173
 252 0019 00000000 		.4byte	.Ldebug_ranges0+0
 253 001d 00000000 		.4byte	0
 254 0021 00000000 		.4byte	.Ldebug_line0
 255 0025 02       		.uleb128 0x2
 256 0026 04       		.byte	0x4
 257 0027 05       		.byte	0x5
 258 0028 696E7400 		.ascii	"int\000"
 259 002c 03       		.uleb128 0x3
 260 002d 04       		.byte	0x4
 261 002e 07       		.byte	0x7
 262 002f F4030000 		.4byte	.LASF0
 263 0033 03       		.uleb128 0x3
 264 0034 08       		.byte	0x8
 265 0035 05       		.byte	0x5
 266 0036 35010000 		.4byte	.LASF1
 267 003a 03       		.uleb128 0x3
 268 003b 08       		.byte	0x8
 269 003c 04       		.byte	0x4
 270 003d 79030000 		.4byte	.LASF2
 271 0041 03       		.uleb128 0x3
 272 0042 01       		.byte	0x1
 273 0043 06       		.byte	0x6
 274 0044 43010000 		.4byte	.LASF3
 275 0048 04       		.uleb128 0x4
 276 0049 54000000 		.4byte	.LASF6
 277 004d 02       		.byte	0x2
 278 004e 2B       		.byte	0x2b
 279 004f 53000000 		.4byte	0x53
 280 0053 03       		.uleb128 0x3
 281 0054 01       		.byte	0x1
 282 0055 08       		.byte	0x8
 283 0056 4B060000 		.4byte	.LASF4
 284 005a 03       		.uleb128 0x3
 285 005b 02       		.byte	0x2
ARM GAS  C:\Users\PCHAUT~1\AppData\Local\Temp\ccO022PV.s 			page 6


 286 005c 05       		.byte	0x5
 287 005d 63060000 		.4byte	.LASF5
 288 0061 04       		.uleb128 0x4
 289 0062 96070000 		.4byte	.LASF7
 290 0066 02       		.byte	0x2
 291 0067 39       		.byte	0x39
 292 0068 6C000000 		.4byte	0x6c
 293 006c 03       		.uleb128 0x3
 294 006d 02       		.byte	0x2
 295 006e 07       		.byte	0x7
 296 006f 65040000 		.4byte	.LASF8
 297 0073 04       		.uleb128 0x4
 298 0074 E8040000 		.4byte	.LASF9
 299 0078 02       		.byte	0x2
 300 0079 4D       		.byte	0x4d
 301 007a 7E000000 		.4byte	0x7e
 302 007e 03       		.uleb128 0x3
 303 007f 04       		.byte	0x4
 304 0080 05       		.byte	0x5
 305 0081 EB010000 		.4byte	.LASF10
 306 0085 04       		.uleb128 0x4
 307 0086 D4070000 		.4byte	.LASF11
 308 008a 02       		.byte	0x2
 309 008b 4F       		.byte	0x4f
 310 008c 90000000 		.4byte	0x90
 311 0090 03       		.uleb128 0x3
 312 0091 04       		.byte	0x4
 313 0092 07       		.byte	0x7
 314 0093 78070000 		.4byte	.LASF12
 315 0097 04       		.uleb128 0x4
 316 0098 C5050000 		.4byte	.LASF13
 317 009c 02       		.byte	0x2
 318 009d 69       		.byte	0x69
 319 009e A2000000 		.4byte	0xa2
 320 00a2 03       		.uleb128 0x3
 321 00a3 08       		.byte	0x8
 322 00a4 07       		.byte	0x7
 323 00a5 A3000000 		.4byte	.LASF14
 324 00a9 04       		.uleb128 0x4
 325 00aa 37080000 		.4byte	.LASF15
 326 00ae 03       		.byte	0x3
 327 00af 18       		.byte	0x18
 328 00b0 48000000 		.4byte	0x48
 329 00b4 04       		.uleb128 0x4
 330 00b5 09040000 		.4byte	.LASF16
 331 00b9 03       		.byte	0x3
 332 00ba 24       		.byte	0x24
 333 00bb 61000000 		.4byte	0x61
 334 00bf 04       		.uleb128 0x4
 335 00c0 43060000 		.4byte	.LASF17
 336 00c4 03       		.byte	0x3
 337 00c5 2C       		.byte	0x2c
 338 00c6 73000000 		.4byte	0x73
 339 00ca 05       		.uleb128 0x5
 340 00cb BF000000 		.4byte	0xbf
 341 00cf 04       		.uleb128 0x4
 342 00d0 43070000 		.4byte	.LASF18
ARM GAS  C:\Users\PCHAUT~1\AppData\Local\Temp\ccO022PV.s 			page 7


 343 00d4 03       		.byte	0x3
 344 00d5 30       		.byte	0x30
 345 00d6 85000000 		.4byte	0x85
 346 00da 04       		.uleb128 0x4
 347 00db 3E000000 		.4byte	.LASF19
 348 00df 03       		.byte	0x3
 349 00e0 3C       		.byte	0x3c
 350 00e1 97000000 		.4byte	0x97
 351 00e5 04       		.uleb128 0x4
 352 00e6 33050000 		.4byte	.LASF20
 353 00ea 04       		.byte	0x4
 354 00eb 45       		.byte	0x45
 355 00ec CF000000 		.4byte	0xcf
 356 00f0 04       		.uleb128 0x4
 357 00f1 11010000 		.4byte	.LASF21
 358 00f5 04       		.byte	0x4
 359 00f6 46       		.byte	0x46
 360 00f7 DA000000 		.4byte	0xda
 361 00fb 04       		.uleb128 0x4
 362 00fc 94060000 		.4byte	.LASF22
 363 0100 04       		.byte	0x4
 364 0101 48       		.byte	0x48
 365 0102 A9000000 		.4byte	0xa9
 366 0106 04       		.uleb128 0x4
 367 0107 50030000 		.4byte	.LASF23
 368 010b 04       		.byte	0x4
 369 010c 49       		.byte	0x49
 370 010d A9000000 		.4byte	0xa9
 371 0111 04       		.uleb128 0x4
 372 0112 DB050000 		.4byte	.LASF24
 373 0116 04       		.byte	0x4
 374 0117 4A       		.byte	0x4a
 375 0118 A9000000 		.4byte	0xa9
 376 011c 04       		.uleb128 0x4
 377 011d D7010000 		.4byte	.LASF25
 378 0121 04       		.byte	0x4
 379 0122 4B       		.byte	0x4b
 380 0123 A9000000 		.4byte	0xa9
 381 0127 04       		.uleb128 0x4
 382 0128 2C060000 		.4byte	.LASF26
 383 012c 04       		.byte	0x4
 384 012d 4C       		.byte	0x4c
 385 012e CF000000 		.4byte	0xcf
 386 0132 04       		.uleb128 0x4
 387 0133 91040000 		.4byte	.LASF27
 388 0137 04       		.byte	0x4
 389 0138 4D       		.byte	0x4d
 390 0139 BF000000 		.4byte	0xbf
 391 013d 04       		.uleb128 0x4
 392 013e DC040000 		.4byte	.LASF28
 393 0142 04       		.byte	0x4
 394 0143 4F       		.byte	0x4f
 395 0144 CF000000 		.4byte	0xcf
 396 0148 04       		.uleb128 0x4
 397 0149 E3030000 		.4byte	.LASF29
 398 014d 04       		.byte	0x4
 399 014e 51       		.byte	0x51
ARM GAS  C:\Users\PCHAUT~1\AppData\Local\Temp\ccO022PV.s 			page 8


 400 014f BF000000 		.4byte	0xbf
 401 0153 04       		.uleb128 0x4
 402 0154 9C040000 		.4byte	.LASF30
 403 0158 04       		.byte	0x4
 404 0159 52       		.byte	0x52
 405 015a CF000000 		.4byte	0xcf
 406 015e 04       		.uleb128 0x4
 407 015f B6070000 		.4byte	.LASF31
 408 0163 05       		.byte	0x5
 409 0164 33       		.byte	0x33
 410 0165 CF000000 		.4byte	0xcf
 411 0169 05       		.uleb128 0x5
 412 016a 5E010000 		.4byte	0x15e
 413 016e 04       		.uleb128 0x4
 414 016f A1070000 		.4byte	.LASF32
 415 0173 05       		.byte	0x5
 416 0174 3F       		.byte	0x3f
 417 0175 79010000 		.4byte	0x179
 418 0179 06       		.uleb128 0x6
 419 017a 87040000 		.4byte	.LASF56
 420 017e 68       		.byte	0x68
 421 017f 06       		.byte	0x6
 422 0180 C2       		.byte	0xc2
 423 0181 97020000 		.4byte	0x297
 424 0185 07       		.uleb128 0x7
 425 0186 8D060000 		.4byte	.LASF33
 426 018a 06       		.byte	0x6
 427 018b C3       		.byte	0xc3
 428 018c A2020000 		.4byte	0x2a2
 429 0190 00       		.byte	0
 430 0191 07       		.uleb128 0x7
 431 0192 25060000 		.4byte	.LASF34
 432 0196 06       		.byte	0x6
 433 0197 C5       		.byte	0xc5
 434 0198 A2020000 		.4byte	0x2a2
 435 019c 04       		.byte	0x4
 436 019d 07       		.uleb128 0x7
 437 019e 21010000 		.4byte	.LASF35
 438 01a2 06       		.byte	0x6
 439 01a3 C7       		.byte	0xc7
 440 01a4 27010000 		.4byte	0x127
 441 01a8 08       		.byte	0x8
 442 01a9 07       		.uleb128 0x7
 443 01aa 9C050000 		.4byte	.LASF36
 444 01ae 06       		.byte	0x6
 445 01af C8       		.byte	0xc8
 446 01b0 1B050000 		.4byte	0x51b
 447 01b4 0C       		.byte	0xc
 448 01b5 07       		.uleb128 0x7
 449 01b6 69030000 		.4byte	.LASF37
 450 01ba 06       		.byte	0x6
 451 01bb CA       		.byte	0xca
 452 01bc A2020000 		.4byte	0x2a2
 453 01c0 10       		.byte	0x10
 454 01c1 07       		.uleb128 0x7
 455 01c2 8E050000 		.4byte	.LASF38
 456 01c6 06       		.byte	0x6
ARM GAS  C:\Users\PCHAUT~1\AppData\Local\Temp\ccO022PV.s 			page 9


 457 01c7 CB       		.byte	0xcb
 458 01c8 A2020000 		.4byte	0x2a2
 459 01cc 14       		.byte	0x14
 460 01cd 07       		.uleb128 0x7
 461 01ce 59080000 		.4byte	.LASF39
 462 01d2 06       		.byte	0x6
 463 01d3 D2       		.byte	0xd2
 464 01d4 91080000 		.4byte	0x891
 465 01d8 18       		.byte	0x18
 466 01d9 07       		.uleb128 0x7
 467 01da E9030000 		.4byte	.LASF40
 468 01de 06       		.byte	0x6
 469 01df D8       		.byte	0xd8
 470 01e0 A8080000 		.4byte	0x8a8
 471 01e4 1C       		.byte	0x1c
 472 01e5 07       		.uleb128 0x7
 473 01e6 6D060000 		.4byte	.LASF41
 474 01ea 06       		.byte	0x6
 475 01eb DD       		.byte	0xdd
 476 01ec 06010000 		.4byte	0x106
 477 01f0 20       		.byte	0x20
 478 01f1 07       		.uleb128 0x7
 479 01f2 AB060000 		.4byte	.LASF42
 480 01f6 06       		.byte	0x6
 481 01f7 E1       		.byte	0xe1
 482 01f8 FB000000 		.4byte	0xfb
 483 01fc 21       		.byte	0x21
 484 01fd 07       		.uleb128 0x7
 485 01fe 19080000 		.4byte	.LASF43
 486 0202 06       		.byte	0x6
 487 0203 E6       		.byte	0xe6
 488 0204 11010000 		.4byte	0x111
 489 0208 22       		.byte	0x22
 490 0209 07       		.uleb128 0x7
 491 020a 75060000 		.4byte	.LASF44
 492 020e 06       		.byte	0x6
 493 020f EC       		.byte	0xec
 494 0210 1C010000 		.4byte	0x11c
 495 0214 23       		.byte	0x23
 496 0215 07       		.uleb128 0x7
 497 0216 22040000 		.4byte	.LASF45
 498 021a 06       		.byte	0x6
 499 021b F3       		.byte	0xf3
 500 021c 69010000 		.4byte	0x169
 501 0220 24       		.byte	0x24
 502 0221 08       		.uleb128 0x8
 503 0222 705F7500 		.ascii	"p_u\000"
 504 0226 06       		.byte	0x6
 505 0227 3101     		.2byte	0x131
 506 0229 C0070000 		.4byte	0x7c0
 507 022d 28       		.byte	0x28
 508 022e 09       		.uleb128 0x9
 509 022f 22050000 		.4byte	.LASF46
 510 0233 06       		.byte	0x6
 511 0234 3601     		.2byte	0x136
 512 0236 A8020000 		.4byte	0x2a8
 513 023a 2C       		.byte	0x2c
ARM GAS  C:\Users\PCHAUT~1\AppData\Local\Temp\ccO022PV.s 			page 10


 514 023b 09       		.uleb128 0x9
 515 023c 39040000 		.4byte	.LASF47
 516 0240 06       		.byte	0x6
 517 0241 3C01     		.2byte	0x13c
 518 0243 CC020000 		.4byte	0x2cc
 519 0247 30       		.byte	0x30
 520 0248 09       		.uleb128 0x9
 521 0249 F8070000 		.4byte	.LASF48
 522 024d 06       		.byte	0x6
 523 024e 4001     		.2byte	0x140
 524 0250 32010000 		.4byte	0x132
 525 0254 38       		.byte	0x38
 526 0255 09       		.uleb128 0x9
 527 0256 31070000 		.4byte	.LASF49
 528 025a 06       		.byte	0x6
 529 025b 4601     		.2byte	0x146
 530 025d 3D010000 		.4byte	0x13d
 531 0261 3C       		.byte	0x3c
 532 0262 09       		.uleb128 0x9
 533 0263 59060000 		.4byte	.LASF50
 534 0267 06       		.byte	0x6
 535 0268 4D01     		.2byte	0x14d
 536 026a 8B080000 		.4byte	0x88b
 537 026e 40       		.byte	0x40
 538 026f 09       		.uleb128 0x9
 539 0270 C0070000 		.4byte	.LASF51
 540 0274 06       		.byte	0x6
 541 0275 5101     		.2byte	0x151
 542 0277 27010000 		.4byte	0x127
 543 027b 44       		.byte	0x44
 544 027c 09       		.uleb128 0x9
 545 027d 81010000 		.4byte	.LASF52
 546 0281 06       		.byte	0x6
 547 0282 5801     		.2byte	0x158
 548 0284 7F030000 		.4byte	0x37f
 549 0288 48       		.byte	0x48
 550 0289 09       		.uleb128 0x9
 551 028a B3060000 		.4byte	.LASF53
 552 028e 06       		.byte	0x6
 553 028f 5E01     		.2byte	0x15e
 554 0291 71070000 		.4byte	0x771
 555 0295 50       		.byte	0x50
 556 0296 00       		.byte	0
 557 0297 04       		.uleb128 0x4
 558 0298 3F080000 		.4byte	.LASF54
 559 029c 05       		.byte	0x5
 560 029d 44       		.byte	0x44
 561 029e A2020000 		.4byte	0x2a2
 562 02a2 0A       		.uleb128 0xa
 563 02a3 04       		.byte	0x4
 564 02a4 6E010000 		.4byte	0x16e
 565 02a8 04       		.uleb128 0x4
 566 02a9 00000000 		.4byte	.LASF55
 567 02ad 05       		.byte	0x5
 568 02ae 49       		.byte	0x49
 569 02af B3020000 		.4byte	0x2b3
 570 02b3 06       		.uleb128 0x6
ARM GAS  C:\Users\PCHAUT~1\AppData\Local\Temp\ccO022PV.s 			page 11


 571 02b4 60070000 		.4byte	.LASF57
 572 02b8 04       		.byte	0x4
 573 02b9 06       		.byte	0x6
 574 02ba B0       		.byte	0xb0
 575 02bb CC020000 		.4byte	0x2cc
 576 02bf 07       		.uleb128 0x7
 577 02c0 8D060000 		.4byte	.LASF33
 578 02c4 06       		.byte	0x6
 579 02c5 B1       		.byte	0xb1
 580 02c6 A2020000 		.4byte	0x2a2
 581 02ca 00       		.byte	0
 582 02cb 00       		.byte	0
 583 02cc 04       		.uleb128 0x4
 584 02cd F6060000 		.4byte	.LASF58
 585 02d1 05       		.byte	0x5
 586 02d2 50       		.byte	0x50
 587 02d3 D7020000 		.4byte	0x2d7
 588 02d7 06       		.uleb128 0x6
 589 02d8 6A000000 		.4byte	.LASF59
 590 02dc 08       		.byte	0x8
 591 02dd 06       		.byte	0x6
 592 02de B7       		.byte	0xb7
 593 02df FC020000 		.4byte	0x2fc
 594 02e3 07       		.uleb128 0x7
 595 02e4 8D060000 		.4byte	.LASF33
 596 02e8 06       		.byte	0x6
 597 02e9 B8       		.byte	0xb8
 598 02ea A2020000 		.4byte	0x2a2
 599 02ee 00       		.byte	0
 600 02ef 07       		.uleb128 0x7
 601 02f0 25060000 		.4byte	.LASF34
 602 02f4 06       		.byte	0x6
 603 02f5 B9       		.byte	0xb9
 604 02f6 A2020000 		.4byte	0x2a2
 605 02fa 04       		.byte	0x4
 606 02fb 00       		.byte	0
 607 02fc 04       		.uleb128 0x4
 608 02fd 1C000000 		.4byte	.LASF60
 609 0301 05       		.byte	0x5
 610 0302 57       		.byte	0x57
 611 0303 07030000 		.4byte	0x307
 612 0307 0B       		.uleb128 0xb
 613 0308 CE040000 		.4byte	.LASF61
 614 030c 1C       		.byte	0x1c
 615 030d 06       		.byte	0x6
 616 030e 9001     		.2byte	0x190
 617 0310 63030000 		.4byte	0x363
 618 0314 09       		.uleb128 0x9
 619 0315 58070000 		.4byte	.LASF62
 620 0319 06       		.byte	0x6
 621 031a 9101     		.2byte	0x191
 622 031c CC020000 		.4byte	0x2cc
 623 0320 00       		.byte	0
 624 0321 09       		.uleb128 0x9
 625 0322 7F060000 		.4byte	.LASF63
 626 0326 06       		.byte	0x6
 627 0327 9201     		.2byte	0x192
ARM GAS  C:\Users\PCHAUT~1\AppData\Local\Temp\ccO022PV.s 			page 12


 628 0329 27010000 		.4byte	0x127
 629 032d 08       		.byte	0x8
 630 032e 09       		.uleb128 0x9
 631 032f 96050000 		.4byte	.LASF64
 632 0333 06       		.byte	0x6
 633 0334 9401     		.2byte	0x194
 634 0336 1B050000 		.4byte	0x51b
 635 033a 0C       		.byte	0xc
 636 033b 09       		.uleb128 0x9
 637 033c 8D030000 		.4byte	.LASF65
 638 0340 06       		.byte	0x6
 639 0341 9701     		.2byte	0x197
 640 0343 A2020000 		.4byte	0x2a2
 641 0347 10       		.byte	0x10
 642 0348 09       		.uleb128 0x9
 643 0349 BD050000 		.4byte	.LASF66
 644 034d 06       		.byte	0x6
 645 034e 9801     		.2byte	0x198
 646 0350 A2020000 		.4byte	0x2a2
 647 0354 14       		.byte	0x14
 648 0355 09       		.uleb128 0x9
 649 0356 B3050000 		.4byte	.LASF67
 650 035a 06       		.byte	0x6
 651 035b 9B01     		.2byte	0x19b
 652 035d A2020000 		.4byte	0x2a2
 653 0361 18       		.byte	0x18
 654 0362 00       		.byte	0
 655 0363 04       		.uleb128 0x4
 656 0364 CB070000 		.4byte	.LASF68
 657 0368 05       		.byte	0x5
 658 0369 5C       		.byte	0x5c
 659 036a 6E030000 		.4byte	0x36e
 660 036e 0A       		.uleb128 0xa
 661 036f 04       		.byte	0x4
 662 0370 74030000 		.4byte	0x374
 663 0374 0C       		.uleb128 0xc
 664 0375 7F030000 		.4byte	0x37f
 665 0379 0D       		.uleb128 0xd
 666 037a 7F030000 		.4byte	0x37f
 667 037e 00       		.byte	0
 668 037f 0E       		.uleb128 0xe
 669 0380 04       		.byte	0x4
 670 0381 04       		.uleb128 0x4
 671 0382 15060000 		.4byte	.LASF69
 672 0386 05       		.byte	0x5
 673 0387 61       		.byte	0x61
 674 0388 8C030000 		.4byte	0x38c
 675 038c 0B       		.uleb128 0xb
 676 038d 06070000 		.4byte	.LASF70
 677 0391 14       		.byte	0x14
 678 0392 06       		.byte	0x6
 679 0393 6B01     		.2byte	0x16b
 680 0395 DB030000 		.4byte	0x3db
 681 0399 09       		.uleb128 0x9
 682 039a 01040000 		.4byte	.LASF71
 683 039e 06       		.byte	0x6
 684 039f 6C01     		.2byte	0x16c
ARM GAS  C:\Users\PCHAUT~1\AppData\Local\Temp\ccO022PV.s 			page 13


 685 03a1 AE080000 		.4byte	0x8ae
 686 03a5 00       		.byte	0
 687 03a6 09       		.uleb128 0x9
 688 03a7 9E030000 		.4byte	.LASF72
 689 03ab 06       		.byte	0x6
 690 03ac 6D01     		.2byte	0x16d
 691 03ae AE080000 		.4byte	0x8ae
 692 03b2 04       		.byte	0x4
 693 03b3 09       		.uleb128 0x9
 694 03b4 30040000 		.4byte	.LASF73
 695 03b8 06       		.byte	0x6
 696 03b9 6E01     		.2byte	0x16e
 697 03bb 5E010000 		.4byte	0x15e
 698 03bf 08       		.byte	0x8
 699 03c0 09       		.uleb128 0x9
 700 03c1 E3080000 		.4byte	.LASF74
 701 03c5 06       		.byte	0x6
 702 03c6 6F01     		.2byte	0x16f
 703 03c8 63030000 		.4byte	0x363
 704 03cc 0C       		.byte	0xc
 705 03cd 09       		.uleb128 0x9
 706 03ce FE070000 		.4byte	.LASF75
 707 03d2 06       		.byte	0x6
 708 03d3 7101     		.2byte	0x171
 709 03d5 7F030000 		.4byte	0x37f
 710 03d9 10       		.byte	0x10
 711 03da 00       		.byte	0
 712 03db 04       		.uleb128 0x4
 713 03dc EE000000 		.4byte	.LASF76
 714 03e0 05       		.byte	0x5
 715 03e1 66       		.byte	0x66
 716 03e2 E6030000 		.4byte	0x3e6
 717 03e6 0B       		.uleb128 0xb
 718 03e7 3B050000 		.4byte	.LASF77
 719 03eb 10       		.byte	0x10
 720 03ec 06       		.byte	0x6
 721 03ed 7B01     		.2byte	0x17b
 722 03ef 28040000 		.4byte	0x428
 723 03f3 09       		.uleb128 0x9
 724 03f4 01040000 		.4byte	.LASF71
 725 03f8 06       		.byte	0x6
 726 03f9 7C01     		.2byte	0x17c
 727 03fb AE080000 		.4byte	0x8ae
 728 03ff 00       		.byte	0
 729 0400 09       		.uleb128 0x9
 730 0401 9E030000 		.4byte	.LASF72
 731 0405 06       		.byte	0x6
 732 0406 7E01     		.2byte	0x17e
 733 0408 AE080000 		.4byte	0x8ae
 734 040c 04       		.byte	0x4
 735 040d 09       		.uleb128 0x9
 736 040e 30040000 		.4byte	.LASF73
 737 0412 06       		.byte	0x6
 738 0413 8001     		.2byte	0x180
 739 0415 5E010000 		.4byte	0x15e
 740 0419 08       		.byte	0x8
 741 041a 09       		.uleb128 0x9
ARM GAS  C:\Users\PCHAUT~1\AppData\Local\Temp\ccO022PV.s 			page 14


 742 041b 78080000 		.4byte	.LASF78
 743 041f 06       		.byte	0x6
 744 0420 8201     		.2byte	0x182
 745 0422 69010000 		.4byte	0x169
 746 0426 0C       		.byte	0xc
 747 0427 00       		.byte	0
 748 0428 04       		.uleb128 0x4
 749 0429 7B000000 		.4byte	.LASF79
 750 042d 05       		.byte	0x5
 751 042e 6B       		.byte	0x6b
 752 042f 33040000 		.4byte	0x433
 753 0433 0F       		.uleb128 0xf
 754 0434 AD030000 		.4byte	.LASF80
 755 0438 1404     		.2byte	0x414
 756 043a 06       		.byte	0x6
 757 043b A201     		.2byte	0x1a2
 758 043d 76040000 		.4byte	0x476
 759 0441 09       		.uleb128 0x9
 760 0442 DF070000 		.4byte	.LASF81
 761 0446 06       		.byte	0x6
 762 0447 AA01     		.2byte	0x1aa
 763 0449 97080000 		.4byte	0x897
 764 044d 00       		.byte	0
 765 044e 09       		.uleb128 0x9
 766 044f 20080000 		.4byte	.LASF82
 767 0453 06       		.byte	0x6
 768 0454 AF01     		.2byte	0x1af
 769 0456 48010000 		.4byte	0x148
 770 045a 04       		.byte	0x4
 771 045b 09       		.uleb128 0x9
 772 045c CB030000 		.4byte	.LASF83
 773 0460 06       		.byte	0x6
 774 0461 B301     		.2byte	0x1b3
 775 0463 48010000 		.4byte	0x148
 776 0467 08       		.byte	0x8
 777 0468 09       		.uleb128 0x9
 778 0469 83080000 		.4byte	.LASF84
 779 046d 06       		.byte	0x6
 780 046e B901     		.2byte	0x1b9
 781 0470 03070000 		.4byte	0x703
 782 0474 0C       		.byte	0xc
 783 0475 00       		.byte	0
 784 0476 04       		.uleb128 0x4
 785 0477 A3040000 		.4byte	.LASF85
 786 047b 05       		.byte	0x5
 787 047c 70       		.byte	0x70
 788 047d 81040000 		.4byte	0x481
 789 0481 0F       		.uleb128 0xf
 790 0482 E1010000 		.4byte	.LASF86
 791 0486 7006     		.2byte	0x670
 792 0488 06       		.byte	0x6
 793 0489 C201     		.2byte	0x1c2
 794 048b EE040000 		.4byte	0x4ee
 795 048f 09       		.uleb128 0x9
 796 0490 31080000 		.4byte	.LASF87
 797 0494 06       		.byte	0x6
 798 0495 C601     		.2byte	0x1c6
ARM GAS  C:\Users\PCHAUT~1\AppData\Local\Temp\ccO022PV.s 			page 15


 799 0497 FC020000 		.4byte	0x2fc
 800 049b 00       		.byte	0
 801 049c 09       		.uleb128 0x9
 802 049d A6030000 		.4byte	.LASF88
 803 04a1 06       		.byte	0x6
 804 04a2 CA01     		.2byte	0x1ca
 805 04a4 DB030000 		.4byte	0x3db
 806 04a8 1C       		.byte	0x1c
 807 04a9 08       		.uleb128 0x8
 808 04aa 64626700 		.ascii	"dbg\000"
 809 04ae 06       		.byte	0x6
 810 04af CE01     		.2byte	0x1ce
 811 04b1 28040000 		.4byte	0x428
 812 04b5 2C       		.byte	0x2c
 813 04b6 10       		.uleb128 0x10
 814 04b7 E3000000 		.4byte	.LASF89
 815 04bb 06       		.byte	0x6
 816 04bc D201     		.2byte	0x1d2
 817 04be 6E010000 		.4byte	0x16e
 818 04c2 4004     		.2byte	0x440
 819 04c4 11       		.uleb128 0x11
 820 04c5 746D00   		.ascii	"tm\000"
 821 04c8 06       		.byte	0x6
 822 04c9 D701     		.2byte	0x1d7
 823 04cb 23070000 		.4byte	0x723
 824 04cf A804     		.2byte	0x4a8
 825 04d1 10       		.uleb128 0x10
 826 04d2 47000000 		.4byte	.LASF90
 827 04d6 06       		.byte	0x6
 828 04d7 DD01     		.2byte	0x1dd
 829 04d9 B5070000 		.4byte	0x7b5
 830 04dd B004     		.2byte	0x4b0
 831 04df 10       		.uleb128 0x10
 832 04e0 D4030000 		.4byte	.LASF91
 833 04e4 06       		.byte	0x6
 834 04e5 E301     		.2byte	0x1e3
 835 04e7 B4080000 		.4byte	0x8b4
 836 04eb E804     		.2byte	0x4e8
 837 04ed 00       		.byte	0
 838 04ee 12       		.uleb128 0x12
 839 04ef 04010000 		.4byte	.LASF92
 840 04f3 07       		.byte	0x7
 841 04f4 A706     		.2byte	0x6a7
 842 04f6 CA000000 		.4byte	0xca
 843 04fa 13       		.uleb128 0x13
 844 04fb 12040000 		.4byte	.LASF93
 845 04ff 08       		.byte	0x8
 846 0500 4C       		.byte	0x4c
 847 0501 CF000000 		.4byte	0xcf
 848 0505 04       		.uleb128 0x4
 849 0506 95030000 		.4byte	.LASF94
 850 050a 09       		.byte	0x9
 851 050b 65       		.byte	0x65
 852 050c 7F030000 		.4byte	0x37f
 853 0510 04       		.uleb128 0x4
 854 0511 F2040000 		.4byte	.LASF95
 855 0515 09       		.byte	0x9
ARM GAS  C:\Users\PCHAUT~1\AppData\Local\Temp\ccO022PV.s 			page 16


 856 0516 6D       		.byte	0x6d
 857 0517 DA000000 		.4byte	0xda
 858 051b 06       		.uleb128 0x6
 859 051c F0070000 		.4byte	.LASF96
 860 0520 04       		.byte	0x4
 861 0521 09       		.byte	0x9
 862 0522 89       		.byte	0x89
 863 0523 34050000 		.4byte	0x534
 864 0527 14       		.uleb128 0x14
 865 0528 72313300 		.ascii	"r13\000"
 866 052c 09       		.byte	0x9
 867 052d 8A       		.byte	0x8a
 868 052e 75060000 		.4byte	0x675
 869 0532 00       		.byte	0
 870 0533 00       		.byte	0
 871 0534 06       		.uleb128 0x6
 872 0535 5E000000 		.4byte	.LASF97
 873 0539 64       		.byte	0x64
 874 053a 0A       		.byte	0xa
 875 053b F4       		.byte	0xf4
 876 053c 75060000 		.4byte	0x675
 877 0540 14       		.uleb128 0x14
 878 0541 73313600 		.ascii	"s16\000"
 879 0545 0A       		.byte	0xa
 880 0546 F6       		.byte	0xf6
 881 0547 05050000 		.4byte	0x505
 882 054b 00       		.byte	0
 883 054c 14       		.uleb128 0x14
 884 054d 73313700 		.ascii	"s17\000"
 885 0551 0A       		.byte	0xa
 886 0552 F7       		.byte	0xf7
 887 0553 05050000 		.4byte	0x505
 888 0557 04       		.byte	0x4
 889 0558 14       		.uleb128 0x14
 890 0559 73313800 		.ascii	"s18\000"
 891 055d 0A       		.byte	0xa
 892 055e F8       		.byte	0xf8
 893 055f 05050000 		.4byte	0x505
 894 0563 08       		.byte	0x8
 895 0564 14       		.uleb128 0x14
 896 0565 73313900 		.ascii	"s19\000"
 897 0569 0A       		.byte	0xa
 898 056a F9       		.byte	0xf9
 899 056b 05050000 		.4byte	0x505
 900 056f 0C       		.byte	0xc
 901 0570 14       		.uleb128 0x14
 902 0571 73323000 		.ascii	"s20\000"
 903 0575 0A       		.byte	0xa
 904 0576 FA       		.byte	0xfa
 905 0577 05050000 		.4byte	0x505
 906 057b 10       		.byte	0x10
 907 057c 14       		.uleb128 0x14
 908 057d 73323100 		.ascii	"s21\000"
 909 0581 0A       		.byte	0xa
 910 0582 FB       		.byte	0xfb
 911 0583 05050000 		.4byte	0x505
 912 0587 14       		.byte	0x14
ARM GAS  C:\Users\PCHAUT~1\AppData\Local\Temp\ccO022PV.s 			page 17


 913 0588 14       		.uleb128 0x14
 914 0589 73323200 		.ascii	"s22\000"
 915 058d 0A       		.byte	0xa
 916 058e FC       		.byte	0xfc
 917 058f 05050000 		.4byte	0x505
 918 0593 18       		.byte	0x18
 919 0594 14       		.uleb128 0x14
 920 0595 73323300 		.ascii	"s23\000"
 921 0599 0A       		.byte	0xa
 922 059a FD       		.byte	0xfd
 923 059b 05050000 		.4byte	0x505
 924 059f 1C       		.byte	0x1c
 925 05a0 14       		.uleb128 0x14
 926 05a1 73323400 		.ascii	"s24\000"
 927 05a5 0A       		.byte	0xa
 928 05a6 FE       		.byte	0xfe
 929 05a7 05050000 		.4byte	0x505
 930 05ab 20       		.byte	0x20
 931 05ac 14       		.uleb128 0x14
 932 05ad 73323500 		.ascii	"s25\000"
 933 05b1 0A       		.byte	0xa
 934 05b2 FF       		.byte	0xff
 935 05b3 05050000 		.4byte	0x505
 936 05b7 24       		.byte	0x24
 937 05b8 08       		.uleb128 0x8
 938 05b9 73323600 		.ascii	"s26\000"
 939 05bd 0A       		.byte	0xa
 940 05be 0001     		.2byte	0x100
 941 05c0 05050000 		.4byte	0x505
 942 05c4 28       		.byte	0x28
 943 05c5 08       		.uleb128 0x8
 944 05c6 73323700 		.ascii	"s27\000"
 945 05ca 0A       		.byte	0xa
 946 05cb 0101     		.2byte	0x101
 947 05cd 05050000 		.4byte	0x505
 948 05d1 2C       		.byte	0x2c
 949 05d2 08       		.uleb128 0x8
 950 05d3 73323800 		.ascii	"s28\000"
 951 05d7 0A       		.byte	0xa
 952 05d8 0201     		.2byte	0x102
 953 05da 05050000 		.4byte	0x505
 954 05de 30       		.byte	0x30
 955 05df 08       		.uleb128 0x8
 956 05e0 73323900 		.ascii	"s29\000"
 957 05e4 0A       		.byte	0xa
 958 05e5 0301     		.2byte	0x103
 959 05e7 05050000 		.4byte	0x505
 960 05eb 34       		.byte	0x34
 961 05ec 08       		.uleb128 0x8
 962 05ed 73333000 		.ascii	"s30\000"
 963 05f1 0A       		.byte	0xa
 964 05f2 0401     		.2byte	0x104
 965 05f4 05050000 		.4byte	0x505
 966 05f8 38       		.byte	0x38
 967 05f9 08       		.uleb128 0x8
 968 05fa 73333100 		.ascii	"s31\000"
 969 05fe 0A       		.byte	0xa
ARM GAS  C:\Users\PCHAUT~1\AppData\Local\Temp\ccO022PV.s 			page 18


 970 05ff 0501     		.2byte	0x105
 971 0601 05050000 		.4byte	0x505
 972 0605 3C       		.byte	0x3c
 973 0606 08       		.uleb128 0x8
 974 0607 723400   		.ascii	"r4\000"
 975 060a 0A       		.byte	0xa
 976 060b 0701     		.2byte	0x107
 977 060d 05050000 		.4byte	0x505
 978 0611 40       		.byte	0x40
 979 0612 08       		.uleb128 0x8
 980 0613 723500   		.ascii	"r5\000"
 981 0616 0A       		.byte	0xa
 982 0617 0801     		.2byte	0x108
 983 0619 05050000 		.4byte	0x505
 984 061d 44       		.byte	0x44
 985 061e 08       		.uleb128 0x8
 986 061f 723600   		.ascii	"r6\000"
 987 0622 0A       		.byte	0xa
 988 0623 0901     		.2byte	0x109
 989 0625 05050000 		.4byte	0x505
 990 0629 48       		.byte	0x48
 991 062a 08       		.uleb128 0x8
 992 062b 723700   		.ascii	"r7\000"
 993 062e 0A       		.byte	0xa
 994 062f 0A01     		.2byte	0x10a
 995 0631 05050000 		.4byte	0x505
 996 0635 4C       		.byte	0x4c
 997 0636 08       		.uleb128 0x8
 998 0637 723800   		.ascii	"r8\000"
 999 063a 0A       		.byte	0xa
 1000 063b 0B01     		.2byte	0x10b
 1001 063d 05050000 		.4byte	0x505
 1002 0641 50       		.byte	0x50
 1003 0642 08       		.uleb128 0x8
 1004 0643 723900   		.ascii	"r9\000"
 1005 0646 0A       		.byte	0xa
 1006 0647 0C01     		.2byte	0x10c
 1007 0649 05050000 		.4byte	0x505
 1008 064d 54       		.byte	0x54
 1009 064e 08       		.uleb128 0x8
 1010 064f 72313000 		.ascii	"r10\000"
 1011 0653 0A       		.byte	0xa
 1012 0654 0D01     		.2byte	0x10d
 1013 0656 05050000 		.4byte	0x505
 1014 065a 58       		.byte	0x58
 1015 065b 08       		.uleb128 0x8
 1016 065c 72313100 		.ascii	"r11\000"
 1017 0660 0A       		.byte	0xa
 1018 0661 0E01     		.2byte	0x10e
 1019 0663 05050000 		.4byte	0x505
 1020 0667 5C       		.byte	0x5c
 1021 0668 08       		.uleb128 0x8
 1022 0669 6C7200   		.ascii	"lr\000"
 1023 066c 0A       		.byte	0xa
 1024 066d 0F01     		.2byte	0x10f
 1025 066f 05050000 		.4byte	0x505
 1026 0673 60       		.byte	0x60
ARM GAS  C:\Users\PCHAUT~1\AppData\Local\Temp\ccO022PV.s 			page 19


 1027 0674 00       		.byte	0
 1028 0675 0A       		.uleb128 0xa
 1029 0676 04       		.byte	0x4
 1030 0677 34050000 		.4byte	0x534
 1031 067b 15       		.uleb128 0x15
 1032 067c 10       		.byte	0x10
 1033 067d 0B       		.byte	0xb
 1034 067e 51       		.byte	0x51
 1035 067f B4060000 		.4byte	0x6b4
 1036 0683 07       		.uleb128 0x7
 1037 0684 29000000 		.4byte	.LASF98
 1038 0688 0B       		.byte	0xb
 1039 0689 55       		.byte	0x55
 1040 068a 5E010000 		.4byte	0x15e
 1041 068e 00       		.byte	0
 1042 068f 07       		.uleb128 0x7
 1043 0690 59030000 		.4byte	.LASF99
 1044 0694 0B       		.byte	0xb
 1045 0695 59       		.byte	0x59
 1046 0696 A2020000 		.4byte	0x2a2
 1047 069a 04       		.byte	0x4
 1048 069b 07       		.uleb128 0x7
 1049 069c CB080000 		.4byte	.LASF100
 1050 06a0 0B       		.byte	0xb
 1051 06a1 5D       		.byte	0x5d
 1052 06a2 7F030000 		.4byte	0x37f
 1053 06a6 08       		.byte	0x8
 1054 06a7 07       		.uleb128 0x7
 1055 06a8 28080000 		.4byte	.LASF101
 1056 06ac 0B       		.byte	0xb
 1057 06ad 61       		.byte	0x61
 1058 06ae A9000000 		.4byte	0xa9
 1059 06b2 0C       		.byte	0xc
 1060 06b3 00       		.byte	0
 1061 06b4 04       		.uleb128 0x4
 1062 06b5 73050000 		.4byte	.LASF102
 1063 06b9 0B       		.byte	0xb
 1064 06ba 62       		.byte	0x62
 1065 06bb 7B060000 		.4byte	0x67b
 1066 06bf 16       		.uleb128 0x16
 1067 06c0 0804     		.2byte	0x408
 1068 06c2 0B       		.byte	0xb
 1069 06c3 67       		.byte	0x67
 1070 06c4 ED060000 		.4byte	0x6ed
 1071 06c8 07       		.uleb128 0x7
 1072 06c9 85030000 		.4byte	.LASF103
 1073 06cd 0B       		.byte	0xb
 1074 06ce 6B       		.byte	0x6b
 1075 06cf 2C000000 		.4byte	0x2c
 1076 06d3 00       		.byte	0
 1077 06d4 07       		.uleb128 0x7
 1078 06d5 6C050000 		.4byte	.LASF104
 1079 06d9 0B       		.byte	0xb
 1080 06da 6F       		.byte	0x6f
 1081 06db ED060000 		.4byte	0x6ed
 1082 06df 04       		.byte	0x4
 1083 06e0 07       		.uleb128 0x7
ARM GAS  C:\Users\PCHAUT~1\AppData\Local\Temp\ccO022PV.s 			page 20


 1084 06e1 E3050000 		.4byte	.LASF105
 1085 06e5 0B       		.byte	0xb
 1086 06e6 73       		.byte	0x73
 1087 06e7 F3060000 		.4byte	0x6f3
 1088 06eb 08       		.byte	0x8
 1089 06ec 00       		.byte	0
 1090 06ed 0A       		.uleb128 0xa
 1091 06ee 04       		.byte	0x4
 1092 06ef B4060000 		.4byte	0x6b4
 1093 06f3 17       		.uleb128 0x17
 1094 06f4 B4060000 		.4byte	0x6b4
 1095 06f8 03070000 		.4byte	0x703
 1096 06fc 18       		.uleb128 0x18
 1097 06fd 2C000000 		.4byte	0x2c
 1098 0701 3F       		.byte	0x3f
 1099 0702 00       		.byte	0
 1100 0703 04       		.uleb128 0x4
 1101 0704 BA000000 		.4byte	.LASF106
 1102 0708 0B       		.byte	0xb
 1103 0709 74       		.byte	0x74
 1104 070a BF060000 		.4byte	0x6bf
 1105 070e 15       		.uleb128 0x15
 1106 070f 04       		.byte	0x4
 1107 0710 0C       		.byte	0xc
 1108 0711 38       		.byte	0x38
 1109 0712 23070000 		.4byte	0x723
 1110 0716 07       		.uleb128 0x7
 1111 0717 E9070000 		.4byte	.LASF107
 1112 071b 0C       		.byte	0xc
 1113 071c 3C       		.byte	0x3c
 1114 071d E5000000 		.4byte	0xe5
 1115 0721 00       		.byte	0
 1116 0722 00       		.byte	0
 1117 0723 04       		.uleb128 0x4
 1118 0724 A2050000 		.4byte	.LASF108
 1119 0728 0C       		.byte	0xc
 1120 0729 3D       		.byte	0x3d
 1121 072a 0E070000 		.4byte	0x70e
 1122 072e 15       		.uleb128 0x15
 1123 072f 18       		.byte	0x18
 1124 0730 0C       		.byte	0xc
 1125 0731 48       		.byte	0x48
 1126 0732 71070000 		.4byte	0x771
 1127 0736 07       		.uleb128 0x7
 1128 0737 AA070000 		.4byte	.LASF109
 1129 073b 0C       		.byte	0xc
 1130 073c 49       		.byte	0x49
 1131 073d E5000000 		.4byte	0xe5
 1132 0741 00       		.byte	0
 1133 0742 07       		.uleb128 0x7
 1134 0743 8A000000 		.4byte	.LASF110
 1135 0747 0C       		.byte	0xc
 1136 0748 4A       		.byte	0x4a
 1137 0749 E5000000 		.4byte	0xe5
 1138 074d 04       		.byte	0x4
 1139 074e 07       		.uleb128 0x7
 1140 074f 97040000 		.4byte	.LASF111
ARM GAS  C:\Users\PCHAUT~1\AppData\Local\Temp\ccO022PV.s 			page 21


 1141 0753 0C       		.byte	0xc
 1142 0754 4B       		.byte	0x4b
 1143 0755 E5000000 		.4byte	0xe5
 1144 0759 08       		.byte	0x8
 1145 075a 14       		.uleb128 0x14
 1146 075b 6E00     		.ascii	"n\000"
 1147 075d 0C       		.byte	0xc
 1148 075e 4C       		.byte	0x4c
 1149 075f 53010000 		.4byte	0x153
 1150 0763 0C       		.byte	0xc
 1151 0764 07       		.uleb128 0x7
 1152 0765 D0050000 		.4byte	.LASF112
 1153 0769 0C       		.byte	0xc
 1154 076a 4D       		.byte	0x4d
 1155 076b F0000000 		.4byte	0xf0
 1156 076f 10       		.byte	0x10
 1157 0770 00       		.byte	0
 1158 0771 04       		.uleb128 0x4
 1159 0772 90000000 		.4byte	.LASF113
 1160 0776 0C       		.byte	0xc
 1161 0777 4E       		.byte	0x4e
 1162 0778 2E070000 		.4byte	0x72e
 1163 077c 15       		.uleb128 0x15
 1164 077d 38       		.byte	0x38
 1165 077e 0D       		.byte	0xd
 1166 077f 38       		.byte	0x38
 1167 0780 B5070000 		.4byte	0x7b5
 1168 0784 07       		.uleb128 0x7
 1169 0785 59040000 		.4byte	.LASF114
 1170 0789 0D       		.byte	0xd
 1171 078a 39       		.byte	0x39
 1172 078b 53010000 		.4byte	0x153
 1173 078f 00       		.byte	0
 1174 0790 07       		.uleb128 0x7
 1175 0791 34060000 		.4byte	.LASF115
 1176 0795 0D       		.byte	0xd
 1177 0796 3A       		.byte	0x3a
 1178 0797 53010000 		.4byte	0x153
 1179 079b 04       		.byte	0x4
 1180 079c 07       		.uleb128 0x7
 1181 079d B8080000 		.4byte	.LASF116
 1182 07a1 0D       		.byte	0xd
 1183 07a2 3B       		.byte	0x3b
 1184 07a3 71070000 		.4byte	0x771
 1185 07a7 08       		.byte	0x8
 1186 07a8 07       		.uleb128 0x7
 1187 07a9 C3040000 		.4byte	.LASF117
 1188 07ad 0D       		.byte	0xd
 1189 07ae 3D       		.byte	0x3d
 1190 07af 71070000 		.4byte	0x771
 1191 07b3 20       		.byte	0x20
 1192 07b4 00       		.byte	0
 1193 07b5 04       		.uleb128 0x4
 1194 07b6 78040000 		.4byte	.LASF118
 1195 07ba 0D       		.byte	0xd
 1196 07bb 3F       		.byte	0x3f
 1197 07bc 7C070000 		.4byte	0x77c
ARM GAS  C:\Users\PCHAUT~1\AppData\Local\Temp\ccO022PV.s 			page 22


 1198 07c0 19       		.uleb128 0x19
 1199 07c1 04       		.byte	0x4
 1200 07c2 06       		.byte	0x6
 1201 07c3 FA       		.byte	0xfa
 1202 07c4 1D080000 		.4byte	0x81d
 1203 07c8 1A       		.uleb128 0x1a
 1204 07c9 37000000 		.4byte	.LASF119
 1205 07cd 06       		.byte	0x6
 1206 07ce 0101     		.2byte	0x101
 1207 07d0 32010000 		.4byte	0x132
 1208 07d4 1A       		.uleb128 0x1a
 1209 07d5 DA000000 		.4byte	.LASF120
 1210 07d9 06       		.byte	0x6
 1211 07da 0801     		.2byte	0x108
 1212 07dc 32010000 		.4byte	0x132
 1213 07e0 1A       		.uleb128 0x1a
 1214 07e1 52080000 		.4byte	.LASF121
 1215 07e5 06       		.byte	0x6
 1216 07e6 0F01     		.2byte	0x10f
 1217 07e8 7F030000 		.4byte	0x37f
 1218 07ec 1A       		.uleb128 0x1a
 1219 07ed 31000000 		.4byte	.LASF122
 1220 07f1 06       		.byte	0x6
 1221 07f2 1601     		.2byte	0x116
 1222 07f4 1D080000 		.4byte	0x81d
 1223 07f8 1A       		.uleb128 0x1a
 1224 07f9 29040000 		.4byte	.LASF123
 1225 07fd 06       		.byte	0x6
 1226 07fe 1E01     		.2byte	0x11e
 1227 0800 48080000 		.4byte	0x848
 1228 0804 1A       		.uleb128 0x1a
 1229 0805 8F070000 		.4byte	.LASF124
 1230 0809 06       		.byte	0x6
 1231 080a 2701     		.2byte	0x127
 1232 080c 8B080000 		.4byte	0x88b
 1233 0810 1A       		.uleb128 0x1a
 1234 0811 86060000 		.4byte	.LASF125
 1235 0815 06       		.byte	0x6
 1236 0816 2F01     		.2byte	0x12f
 1237 0818 3D010000 		.4byte	0x13d
 1238 081c 00       		.byte	0
 1239 081d 0A       		.uleb128 0xa
 1240 081e 04       		.byte	0x4
 1241 081f 97020000 		.4byte	0x297
 1242 0823 06       		.uleb128 0x6
 1243 0824 24070000 		.4byte	.LASF126
 1244 0828 0C       		.byte	0xc
 1245 0829 0E       		.byte	0xe
 1246 082a 34       		.byte	0x34
 1247 082b 48080000 		.4byte	0x848
 1248 082f 07       		.uleb128 0x7
 1249 0830 71030000 		.4byte	.LASF127
 1250 0834 0E       		.byte	0xe
 1251 0835 35       		.byte	0x35
 1252 0836 CC020000 		.4byte	0x2cc
 1253 083a 00       		.byte	0
 1254 083b 07       		.uleb128 0x7
ARM GAS  C:\Users\PCHAUT~1\AppData\Local\Temp\ccO022PV.s 			page 23


 1255 083c 5F040000 		.4byte	.LASF128
 1256 0840 0E       		.byte	0xe
 1257 0841 37       		.byte	0x37
 1258 0842 48010000 		.4byte	0x148
 1259 0846 08       		.byte	0x8
 1260 0847 00       		.byte	0
 1261 0848 0A       		.uleb128 0xa
 1262 0849 04       		.byte	0x4
 1263 084a 23080000 		.4byte	0x823
 1264 084e 06       		.uleb128 0x6
 1265 084f 10080000 		.4byte	.LASF129
 1266 0853 14       		.byte	0x14
 1267 0854 0F       		.byte	0xf
 1268 0855 39       		.byte	0x39
 1269 0856 8B080000 		.4byte	0x88b
 1270 085a 07       		.uleb128 0x7
 1271 085b 89010000 		.4byte	.LASF130
 1272 085f 0F       		.byte	0xf
 1273 0860 3A       		.byte	0x3a
 1274 0861 CC020000 		.4byte	0x2cc
 1275 0865 00       		.byte	0
 1276 0866 07       		.uleb128 0x7
 1277 0867 C3080000 		.4byte	.LASF131
 1278 086b 0F       		.byte	0xf
 1279 086c 3C       		.byte	0x3c
 1280 086d A2020000 		.4byte	0x2a2
 1281 0871 08       		.byte	0x8
 1282 0872 07       		.uleb128 0x7
 1283 0873 AF070000 		.4byte	.LASF132
 1284 0877 0F       		.byte	0xf
 1285 0878 3E       		.byte	0x3e
 1286 0879 E6090000 		.4byte	0x9e6
 1287 087d 0C       		.byte	0xc
 1288 087e 07       		.uleb128 0x7
 1289 087f BD030000 		.4byte	.LASF133
 1290 0883 0F       		.byte	0xf
 1291 0884 41       		.byte	0x41
 1292 0885 48010000 		.4byte	0x148
 1293 0889 10       		.byte	0x10
 1294 088a 00       		.byte	0
 1295 088b 0A       		.uleb128 0xa
 1296 088c 04       		.byte	0x4
 1297 088d 4E080000 		.4byte	0x84e
 1298 0891 0A       		.uleb128 0xa
 1299 0892 04       		.byte	0x4
 1300 0893 A3080000 		.4byte	0x8a3
 1301 0897 05       		.uleb128 0x5
 1302 0898 91080000 		.4byte	0x891
 1303 089c 03       		.uleb128 0x3
 1304 089d 01       		.byte	0x1
 1305 089e 08       		.byte	0x8
 1306 089f 8A070000 		.4byte	.LASF134
 1307 08a3 1B       		.uleb128 0x1b
 1308 08a4 9C080000 		.4byte	0x89c
 1309 08a8 0A       		.uleb128 0xa
 1310 08a9 04       		.byte	0x4
 1311 08aa 10050000 		.4byte	0x510
ARM GAS  C:\Users\PCHAUT~1\AppData\Local\Temp\ccO022PV.s 			page 24


 1312 08ae 0A       		.uleb128 0xa
 1313 08af 04       		.byte	0x4
 1314 08b0 81030000 		.4byte	0x381
 1315 08b4 17       		.uleb128 0x17
 1316 08b5 10050000 		.4byte	0x510
 1317 08b9 C4080000 		.4byte	0x8c4
 1318 08bd 18       		.uleb128 0x18
 1319 08be 2C000000 		.4byte	0x2c
 1320 08c2 30       		.byte	0x30
 1321 08c3 00       		.byte	0
 1322 08c4 1C       		.uleb128 0x1c
 1323 08c5 636800   		.ascii	"ch\000"
 1324 08c8 06       		.byte	0x6
 1325 08c9 0902     		.2byte	0x209
 1326 08cb 76040000 		.4byte	0x476
 1327 08cf 15       		.uleb128 0x15
 1328 08d0 16       		.byte	0x16
 1329 08d1 10       		.byte	0x10
 1330 08d2 34       		.byte	0x34
 1331 08d3 B0090000 		.4byte	0x9b0
 1332 08d7 07       		.uleb128 0x7
 1333 08d8 D5080000 		.4byte	.LASF135
 1334 08dc 10       		.byte	0x10
 1335 08dd 35       		.byte	0x35
 1336 08de B0090000 		.4byte	0x9b0
 1337 08e2 00       		.byte	0
 1338 08e3 07       		.uleb128 0x7
 1339 08e4 0E050000 		.4byte	.LASF136
 1340 08e8 10       		.byte	0x10
 1341 08e9 36       		.byte	0x36
 1342 08ea A9000000 		.4byte	0xa9
 1343 08ee 04       		.byte	0x4
 1344 08ef 07       		.uleb128 0x7
 1345 08f0 70070000 		.4byte	.LASF137
 1346 08f4 10       		.byte	0x10
 1347 08f5 37       		.byte	0x37
 1348 08f6 A9000000 		.4byte	0xa9
 1349 08fa 05       		.byte	0x5
 1350 08fb 07       		.uleb128 0x7
 1351 08fc 90080000 		.4byte	.LASF138
 1352 0900 10       		.byte	0x10
 1353 0901 38       		.byte	0x38
 1354 0902 B4000000 		.4byte	0xb4
 1355 0906 06       		.byte	0x6
 1356 0907 07       		.uleb128 0x7
 1357 0908 ED050000 		.4byte	.LASF139
 1358 090c 10       		.byte	0x10
 1359 090d 39       		.byte	0x39
 1360 090e A9000000 		.4byte	0xa9
 1361 0912 08       		.byte	0x8
 1362 0913 07       		.uleb128 0x7
 1363 0914 4D040000 		.4byte	.LASF140
 1364 0918 10       		.byte	0x10
 1365 0919 3A       		.byte	0x3a
 1366 091a A9000000 		.4byte	0xa9
 1367 091e 09       		.byte	0x9
 1368 091f 07       		.uleb128 0x7
ARM GAS  C:\Users\PCHAUT~1\AppData\Local\Temp\ccO022PV.s 			page 25


 1369 0920 CC000000 		.4byte	.LASF141
 1370 0924 10       		.byte	0x10
 1371 0925 3B       		.byte	0x3b
 1372 0926 A9000000 		.4byte	0xa9
 1373 092a 0A       		.byte	0xa
 1374 092b 07       		.uleb128 0x7
 1375 092c 4C070000 		.4byte	.LASF142
 1376 0930 10       		.byte	0x10
 1377 0931 3C       		.byte	0x3c
 1378 0932 A9000000 		.4byte	0xa9
 1379 0936 0B       		.byte	0xb
 1380 0937 07       		.uleb128 0x7
 1381 0938 05080000 		.4byte	.LASF143
 1382 093c 10       		.byte	0x10
 1383 093d 3D       		.byte	0x3d
 1384 093e A9000000 		.4byte	0xa9
 1385 0942 0C       		.byte	0xc
 1386 0943 07       		.uleb128 0x7
 1387 0944 17070000 		.4byte	.LASF144
 1388 0948 10       		.byte	0x10
 1389 0949 3E       		.byte	0x3e
 1390 094a A9000000 		.4byte	0xa9
 1391 094e 0D       		.byte	0xd
 1392 094f 07       		.uleb128 0x7
 1393 0950 0F000000 		.4byte	.LASF145
 1394 0954 10       		.byte	0x10
 1395 0955 3F       		.byte	0x3f
 1396 0956 A9000000 		.4byte	0xa9
 1397 095a 0E       		.byte	0xe
 1398 095b 07       		.uleb128 0x7
 1399 095c 82050000 		.4byte	.LASF146
 1400 0960 10       		.byte	0x10
 1401 0961 40       		.byte	0x40
 1402 0962 A9000000 		.4byte	0xa9
 1403 0966 0F       		.byte	0xf
 1404 0967 07       		.uleb128 0x7
 1405 0968 64010000 		.4byte	.LASF147
 1406 096c 10       		.byte	0x10
 1407 096d 41       		.byte	0x41
 1408 096e A9000000 		.4byte	0xa9
 1409 0972 10       		.byte	0x10
 1410 0973 07       		.uleb128 0x7
 1411 0974 28010000 		.4byte	.LASF148
 1412 0978 10       		.byte	0x10
 1413 0979 43       		.byte	0x43
 1414 097a A9000000 		.4byte	0xa9
 1415 097e 11       		.byte	0x11
 1416 097f 07       		.uleb128 0x7
 1417 0980 74010000 		.4byte	.LASF149
 1418 0984 10       		.byte	0x10
 1419 0985 44       		.byte	0x44
 1420 0986 A9000000 		.4byte	0xa9
 1421 098a 12       		.byte	0x12
 1422 098b 07       		.uleb128 0x7
 1423 098c 16050000 		.4byte	.LASF150
 1424 0990 10       		.byte	0x10
 1425 0991 45       		.byte	0x45
ARM GAS  C:\Users\PCHAUT~1\AppData\Local\Temp\ccO022PV.s 			page 26


 1426 0992 A9000000 		.4byte	0xa9
 1427 0996 13       		.byte	0x13
 1428 0997 07       		.uleb128 0x7
 1429 0998 9C060000 		.4byte	.LASF151
 1430 099c 10       		.byte	0x10
 1431 099d 46       		.byte	0x46
 1432 099e A9000000 		.4byte	0xa9
 1433 09a2 14       		.byte	0x14
 1434 09a3 07       		.uleb128 0x7
 1435 09a4 B7040000 		.4byte	.LASF152
 1436 09a8 10       		.byte	0x10
 1437 09a9 48       		.byte	0x48
 1438 09aa A9000000 		.4byte	0xa9
 1439 09ae 15       		.byte	0x15
 1440 09af 00       		.byte	0
 1441 09b0 17       		.uleb128 0x17
 1442 09b1 9C080000 		.4byte	0x89c
 1443 09b5 C0090000 		.4byte	0x9c0
 1444 09b9 18       		.uleb128 0x18
 1445 09ba 2C000000 		.4byte	0x2c
 1446 09be 03       		.byte	0x3
 1447 09bf 00       		.byte	0
 1448 09c0 04       		.uleb128 0x4
 1449 09c1 5F030000 		.4byte	.LASF153
 1450 09c5 10       		.byte	0x10
 1451 09c6 49       		.byte	0x49
 1452 09c7 CF080000 		.4byte	0x8cf
 1453 09cb 1B       		.uleb128 0x1b
 1454 09cc C0090000 		.4byte	0x9c0
 1455 09d0 13       		.uleb128 0x13
 1456 09d1 44040000 		.4byte	.LASF154
 1457 09d5 10       		.byte	0x10
 1458 09d6 6E       		.byte	0x6e
 1459 09d7 CB090000 		.4byte	0x9cb
 1460 09db 04       		.uleb128 0x4
 1461 09dc C3030000 		.4byte	.LASF155
 1462 09e0 0F       		.byte	0xf
 1463 09e1 34       		.byte	0x34
 1464 09e2 4E080000 		.4byte	0x84e
 1465 09e6 0A       		.uleb128 0xa
 1466 09e7 04       		.byte	0x4
 1467 09e8 DB090000 		.4byte	0x9db
 1468 09ec 06       		.uleb128 0x6
 1469 09ed 52050000 		.4byte	.LASF156
 1470 09f1 08       		.byte	0x8
 1471 09f2 11       		.byte	0x11
 1472 09f3 3B       		.byte	0x3b
 1473 09f4 050A0000 		.4byte	0xa05
 1474 09f8 07       		.uleb128 0x7
 1475 09f9 06050000 		.4byte	.LASF157
 1476 09fd 11       		.byte	0x11
 1477 09fe 3C       		.byte	0x3c
 1478 09ff CC020000 		.4byte	0x2cc
 1479 0a03 00       		.byte	0
 1480 0a04 00       		.byte	0
 1481 0a05 04       		.uleb128 0x4
 1482 0a06 4F010000 		.4byte	.LASF158
ARM GAS  C:\Users\PCHAUT~1\AppData\Local\Temp\ccO022PV.s 			page 27


 1483 0a0a 11       		.byte	0x11
 1484 0a0b 3E       		.byte	0x3e
 1485 0a0c EC090000 		.4byte	0x9ec
 1486 0a10 0A       		.uleb128 0xa
 1487 0a11 04       		.byte	0x4
 1488 0a12 9C080000 		.4byte	0x89c
 1489 0a16 13       		.uleb128 0x13
 1490 0a17 AF040000 		.4byte	.LASF159
 1491 0a1b 12       		.byte	0x12
 1492 0a1c 10       		.byte	0x10
 1493 0a1d 210A0000 		.4byte	0xa21
 1494 0a21 0A       		.uleb128 0xa
 1495 0a22 04       		.byte	0x4
 1496 0a23 100A0000 		.4byte	0xa10
 1497 0a27 13       		.uleb128 0x13
 1498 0a28 2C050000 		.4byte	.LASF160
 1499 0a2c 12       		.byte	0x12
 1500 0a2d E8       		.byte	0xe8
 1501 0a2e 100A0000 		.4byte	0xa10
 1502 0a32 13       		.uleb128 0x13
 1503 0a33 65050000 		.4byte	.LASF161
 1504 0a37 12       		.byte	0x12
 1505 0a38 E9       		.byte	0xe9
 1506 0a39 25000000 		.4byte	0x25
 1507 0a3d 13       		.uleb128 0x13
 1508 0a3e 1A010000 		.4byte	.LASF162
 1509 0a42 12       		.byte	0x12
 1510 0a43 E9       		.byte	0xe9
 1511 0a44 25000000 		.4byte	0x25
 1512 0a48 13       		.uleb128 0x13
 1513 0a49 3C070000 		.4byte	.LASF163
 1514 0a4d 12       		.byte	0x12
 1515 0a4e E9       		.byte	0xe9
 1516 0a4f 25000000 		.4byte	0x25
 1517 0a53 13       		.uleb128 0x13
 1518 0a54 FD040000 		.4byte	.LASF164
 1519 0a58 12       		.byte	0x12
 1520 0a59 EB       		.byte	0xeb
 1521 0a5a 25000000 		.4byte	0x25
 1522 0a5e 03       		.uleb128 0x3
 1523 0a5f 01       		.byte	0x1
 1524 0a60 02       		.byte	0x2
 1525 0a61 3D060000 		.4byte	.LASF165
 1526 0a65 1D       		.uleb128 0x1d
 1527 0a66 F4010000 		.4byte	.LASF166
 1528 0a6a 01       		.byte	0x1
 1529 0a6b 16       		.byte	0x16
 1530 0a6c 00000000 		.4byte	.LFB222
 1531 0a70 30000000 		.4byte	.LFE222-.LFB222
 1532 0a74 01       		.uleb128 0x1
 1533 0a75 9C       		.byte	0x9c
 1534 0a76 950A0000 		.4byte	0xa95
 1535 0a7a 1E       		.uleb128 0x1e
 1536 0a7b 7000     		.ascii	"p\000"
 1537 0a7d 01       		.byte	0x1
 1538 0a7e 16       		.byte	0x16
 1539 0a7f 7F030000 		.4byte	0x37f
ARM GAS  C:\Users\PCHAUT~1\AppData\Local\Temp\ccO022PV.s 			page 28


 1540 0a83 02       		.uleb128 0x2
 1541 0a84 91       		.byte	0x91
 1542 0a85 6C       		.sleb128 -20
 1543 0a86 1F       		.uleb128 0x1f
 1544 0a87 D2010000 		.4byte	.LASF168
 1545 0a8b 01       		.byte	0x1
 1546 0a8c 18       		.byte	0x18
 1547 0a8d 950A0000 		.4byte	0xa95
 1548 0a91 02       		.uleb128 0x2
 1549 0a92 91       		.byte	0x91
 1550 0a93 70       		.sleb128 -16
 1551 0a94 00       		.byte	0
 1552 0a95 0A       		.uleb128 0xa
 1553 0a96 04       		.byte	0x4
 1554 0a97 050A0000 		.4byte	0xa05
 1555 0a9b 1D       		.uleb128 0x1d
 1556 0a9c F8050000 		.4byte	.LASF167
 1557 0aa0 01       		.byte	0x1
 1558 0aa1 10       		.byte	0x10
 1559 0aa2 00000000 		.4byte	.LFB221
 1560 0aa6 30000000 		.4byte	.LFE221-.LFB221
 1561 0aaa 01       		.uleb128 0x1
 1562 0aab 9C       		.byte	0x9c
 1563 0aac CB0A0000 		.4byte	0xacb
 1564 0ab0 1E       		.uleb128 0x1e
 1565 0ab1 7000     		.ascii	"p\000"
 1566 0ab3 01       		.byte	0x1
 1567 0ab4 10       		.byte	0x10
 1568 0ab5 7F030000 		.4byte	0x37f
 1569 0ab9 02       		.uleb128 0x2
 1570 0aba 91       		.byte	0x91
 1571 0abb 6C       		.sleb128 -20
 1572 0abc 1F       		.uleb128 0x1f
 1573 0abd D2010000 		.4byte	.LASF168
 1574 0ac1 01       		.byte	0x1
 1575 0ac2 12       		.byte	0x12
 1576 0ac3 950A0000 		.4byte	0xa95
 1577 0ac7 02       		.uleb128 0x2
 1578 0ac8 91       		.byte	0x91
 1579 0ac9 70       		.sleb128 -16
 1580 0aca 00       		.byte	0
 1581 0acb 1D       		.uleb128 0x1d
 1582 0acc 60080000 		.4byte	.LASF169
 1583 0ad0 01       		.byte	0x1
 1584 0ad1 0A       		.byte	0xa
 1585 0ad2 00000000 		.4byte	.LFB220
 1586 0ad6 30000000 		.4byte	.LFE220-.LFB220
 1587 0ada 01       		.uleb128 0x1
 1588 0adb 9C       		.byte	0x9c
 1589 0adc FB0A0000 		.4byte	0xafb
 1590 0ae0 1E       		.uleb128 0x1e
 1591 0ae1 7000     		.ascii	"p\000"
 1592 0ae3 01       		.byte	0x1
 1593 0ae4 0A       		.byte	0xa
 1594 0ae5 7F030000 		.4byte	0x37f
 1595 0ae9 02       		.uleb128 0x2
 1596 0aea 91       		.byte	0x91
ARM GAS  C:\Users\PCHAUT~1\AppData\Local\Temp\ccO022PV.s 			page 29


 1597 0aeb 6C       		.sleb128 -20
 1598 0aec 1F       		.uleb128 0x1f
 1599 0aed B3080000 		.4byte	.LASF170
 1600 0af1 01       		.byte	0x1
 1601 0af2 0C       		.byte	0xc
 1602 0af3 E6090000 		.4byte	0x9e6
 1603 0af7 02       		.uleb128 0x2
 1604 0af8 91       		.byte	0x91
 1605 0af9 70       		.sleb128 -16
 1606 0afa 00       		.byte	0
 1607 0afb 20       		.uleb128 0x20
 1608 0afc 9B080000 		.4byte	.LASF174
 1609 0b00 01       		.byte	0x1
 1610 0b01 04       		.byte	0x4
 1611 0b02 00000000 		.4byte	.LFB219
 1612 0b06 30000000 		.4byte	.LFE219-.LFB219
 1613 0b0a 01       		.uleb128 0x1
 1614 0b0b 9C       		.byte	0x9c
 1615 0b0c 1E       		.uleb128 0x1e
 1616 0b0d 7000     		.ascii	"p\000"
 1617 0b0f 01       		.byte	0x1
 1618 0b10 04       		.byte	0x4
 1619 0b11 7F030000 		.4byte	0x37f
 1620 0b15 02       		.uleb128 0x2
 1621 0b16 91       		.byte	0x91
 1622 0b17 6C       		.sleb128 -20
 1623 0b18 1F       		.uleb128 0x1f
 1624 0b19 B3080000 		.4byte	.LASF170
 1625 0b1d 01       		.byte	0x1
 1626 0b1e 06       		.byte	0x6
 1627 0b1f E6090000 		.4byte	0x9e6
 1628 0b23 02       		.uleb128 0x2
 1629 0b24 91       		.byte	0x91
 1630 0b25 70       		.sleb128 -16
 1631 0b26 00       		.byte	0
 1632 0b27 00       		.byte	0
 1633              		.section	.debug_abbrev,"",%progbits
 1634              	.Ldebug_abbrev0:
 1635 0000 01       		.uleb128 0x1
 1636 0001 11       		.uleb128 0x11
 1637 0002 01       		.byte	0x1
 1638 0003 25       		.uleb128 0x25
 1639 0004 0E       		.uleb128 0xe
 1640 0005 13       		.uleb128 0x13
 1641 0006 0B       		.uleb128 0xb
 1642 0007 03       		.uleb128 0x3
 1643 0008 0E       		.uleb128 0xe
 1644 0009 1B       		.uleb128 0x1b
 1645 000a 0E       		.uleb128 0xe
 1646 000b 55       		.uleb128 0x55
 1647 000c 17       		.uleb128 0x17
 1648 000d 11       		.uleb128 0x11
 1649 000e 01       		.uleb128 0x1
 1650 000f 10       		.uleb128 0x10
 1651 0010 17       		.uleb128 0x17
 1652 0011 00       		.byte	0
 1653 0012 00       		.byte	0
ARM GAS  C:\Users\PCHAUT~1\AppData\Local\Temp\ccO022PV.s 			page 30


 1654 0013 02       		.uleb128 0x2
 1655 0014 24       		.uleb128 0x24
 1656 0015 00       		.byte	0
 1657 0016 0B       		.uleb128 0xb
 1658 0017 0B       		.uleb128 0xb
 1659 0018 3E       		.uleb128 0x3e
 1660 0019 0B       		.uleb128 0xb
 1661 001a 03       		.uleb128 0x3
 1662 001b 08       		.uleb128 0x8
 1663 001c 00       		.byte	0
 1664 001d 00       		.byte	0
 1665 001e 03       		.uleb128 0x3
 1666 001f 24       		.uleb128 0x24
 1667 0020 00       		.byte	0
 1668 0021 0B       		.uleb128 0xb
 1669 0022 0B       		.uleb128 0xb
 1670 0023 3E       		.uleb128 0x3e
 1671 0024 0B       		.uleb128 0xb
 1672 0025 03       		.uleb128 0x3
 1673 0026 0E       		.uleb128 0xe
 1674 0027 00       		.byte	0
 1675 0028 00       		.byte	0
 1676 0029 04       		.uleb128 0x4
 1677 002a 16       		.uleb128 0x16
 1678 002b 00       		.byte	0
 1679 002c 03       		.uleb128 0x3
 1680 002d 0E       		.uleb128 0xe
 1681 002e 3A       		.uleb128 0x3a
 1682 002f 0B       		.uleb128 0xb
 1683 0030 3B       		.uleb128 0x3b
 1684 0031 0B       		.uleb128 0xb
 1685 0032 49       		.uleb128 0x49
 1686 0033 13       		.uleb128 0x13
 1687 0034 00       		.byte	0
 1688 0035 00       		.byte	0
 1689 0036 05       		.uleb128 0x5
 1690 0037 35       		.uleb128 0x35
 1691 0038 00       		.byte	0
 1692 0039 49       		.uleb128 0x49
 1693 003a 13       		.uleb128 0x13
 1694 003b 00       		.byte	0
 1695 003c 00       		.byte	0
 1696 003d 06       		.uleb128 0x6
 1697 003e 13       		.uleb128 0x13
 1698 003f 01       		.byte	0x1
 1699 0040 03       		.uleb128 0x3
 1700 0041 0E       		.uleb128 0xe
 1701 0042 0B       		.uleb128 0xb
 1702 0043 0B       		.uleb128 0xb
 1703 0044 3A       		.uleb128 0x3a
 1704 0045 0B       		.uleb128 0xb
 1705 0046 3B       		.uleb128 0x3b
 1706 0047 0B       		.uleb128 0xb
 1707 0048 01       		.uleb128 0x1
 1708 0049 13       		.uleb128 0x13
 1709 004a 00       		.byte	0
 1710 004b 00       		.byte	0
ARM GAS  C:\Users\PCHAUT~1\AppData\Local\Temp\ccO022PV.s 			page 31


 1711 004c 07       		.uleb128 0x7
 1712 004d 0D       		.uleb128 0xd
 1713 004e 00       		.byte	0
 1714 004f 03       		.uleb128 0x3
 1715 0050 0E       		.uleb128 0xe
 1716 0051 3A       		.uleb128 0x3a
 1717 0052 0B       		.uleb128 0xb
 1718 0053 3B       		.uleb128 0x3b
 1719 0054 0B       		.uleb128 0xb
 1720 0055 49       		.uleb128 0x49
 1721 0056 13       		.uleb128 0x13
 1722 0057 38       		.uleb128 0x38
 1723 0058 0B       		.uleb128 0xb
 1724 0059 00       		.byte	0
 1725 005a 00       		.byte	0
 1726 005b 08       		.uleb128 0x8
 1727 005c 0D       		.uleb128 0xd
 1728 005d 00       		.byte	0
 1729 005e 03       		.uleb128 0x3
 1730 005f 08       		.uleb128 0x8
 1731 0060 3A       		.uleb128 0x3a
 1732 0061 0B       		.uleb128 0xb
 1733 0062 3B       		.uleb128 0x3b
 1734 0063 05       		.uleb128 0x5
 1735 0064 49       		.uleb128 0x49
 1736 0065 13       		.uleb128 0x13
 1737 0066 38       		.uleb128 0x38
 1738 0067 0B       		.uleb128 0xb
 1739 0068 00       		.byte	0
 1740 0069 00       		.byte	0
 1741 006a 09       		.uleb128 0x9
 1742 006b 0D       		.uleb128 0xd
 1743 006c 00       		.byte	0
 1744 006d 03       		.uleb128 0x3
 1745 006e 0E       		.uleb128 0xe
 1746 006f 3A       		.uleb128 0x3a
 1747 0070 0B       		.uleb128 0xb
 1748 0071 3B       		.uleb128 0x3b
 1749 0072 05       		.uleb128 0x5
 1750 0073 49       		.uleb128 0x49
 1751 0074 13       		.uleb128 0x13
 1752 0075 38       		.uleb128 0x38
 1753 0076 0B       		.uleb128 0xb
 1754 0077 00       		.byte	0
 1755 0078 00       		.byte	0
 1756 0079 0A       		.uleb128 0xa
 1757 007a 0F       		.uleb128 0xf
 1758 007b 00       		.byte	0
 1759 007c 0B       		.uleb128 0xb
 1760 007d 0B       		.uleb128 0xb
 1761 007e 49       		.uleb128 0x49
 1762 007f 13       		.uleb128 0x13
 1763 0080 00       		.byte	0
 1764 0081 00       		.byte	0
 1765 0082 0B       		.uleb128 0xb
 1766 0083 13       		.uleb128 0x13
 1767 0084 01       		.byte	0x1
ARM GAS  C:\Users\PCHAUT~1\AppData\Local\Temp\ccO022PV.s 			page 32


 1768 0085 03       		.uleb128 0x3
 1769 0086 0E       		.uleb128 0xe
 1770 0087 0B       		.uleb128 0xb
 1771 0088 0B       		.uleb128 0xb
 1772 0089 3A       		.uleb128 0x3a
 1773 008a 0B       		.uleb128 0xb
 1774 008b 3B       		.uleb128 0x3b
 1775 008c 05       		.uleb128 0x5
 1776 008d 01       		.uleb128 0x1
 1777 008e 13       		.uleb128 0x13
 1778 008f 00       		.byte	0
 1779 0090 00       		.byte	0
 1780 0091 0C       		.uleb128 0xc
 1781 0092 15       		.uleb128 0x15
 1782 0093 01       		.byte	0x1
 1783 0094 27       		.uleb128 0x27
 1784 0095 19       		.uleb128 0x19
 1785 0096 01       		.uleb128 0x1
 1786 0097 13       		.uleb128 0x13
 1787 0098 00       		.byte	0
 1788 0099 00       		.byte	0
 1789 009a 0D       		.uleb128 0xd
 1790 009b 05       		.uleb128 0x5
 1791 009c 00       		.byte	0
 1792 009d 49       		.uleb128 0x49
 1793 009e 13       		.uleb128 0x13
 1794 009f 00       		.byte	0
 1795 00a0 00       		.byte	0
 1796 00a1 0E       		.uleb128 0xe
 1797 00a2 0F       		.uleb128 0xf
 1798 00a3 00       		.byte	0
 1799 00a4 0B       		.uleb128 0xb
 1800 00a5 0B       		.uleb128 0xb
 1801 00a6 00       		.byte	0
 1802 00a7 00       		.byte	0
 1803 00a8 0F       		.uleb128 0xf
 1804 00a9 13       		.uleb128 0x13
 1805 00aa 01       		.byte	0x1
 1806 00ab 03       		.uleb128 0x3
 1807 00ac 0E       		.uleb128 0xe
 1808 00ad 0B       		.uleb128 0xb
 1809 00ae 05       		.uleb128 0x5
 1810 00af 3A       		.uleb128 0x3a
 1811 00b0 0B       		.uleb128 0xb
 1812 00b1 3B       		.uleb128 0x3b
 1813 00b2 05       		.uleb128 0x5
 1814 00b3 01       		.uleb128 0x1
 1815 00b4 13       		.uleb128 0x13
 1816 00b5 00       		.byte	0
 1817 00b6 00       		.byte	0
 1818 00b7 10       		.uleb128 0x10
 1819 00b8 0D       		.uleb128 0xd
 1820 00b9 00       		.byte	0
 1821 00ba 03       		.uleb128 0x3
 1822 00bb 0E       		.uleb128 0xe
 1823 00bc 3A       		.uleb128 0x3a
 1824 00bd 0B       		.uleb128 0xb
ARM GAS  C:\Users\PCHAUT~1\AppData\Local\Temp\ccO022PV.s 			page 33


 1825 00be 3B       		.uleb128 0x3b
 1826 00bf 05       		.uleb128 0x5
 1827 00c0 49       		.uleb128 0x49
 1828 00c1 13       		.uleb128 0x13
 1829 00c2 38       		.uleb128 0x38
 1830 00c3 05       		.uleb128 0x5
 1831 00c4 00       		.byte	0
 1832 00c5 00       		.byte	0
 1833 00c6 11       		.uleb128 0x11
 1834 00c7 0D       		.uleb128 0xd
 1835 00c8 00       		.byte	0
 1836 00c9 03       		.uleb128 0x3
 1837 00ca 08       		.uleb128 0x8
 1838 00cb 3A       		.uleb128 0x3a
 1839 00cc 0B       		.uleb128 0xb
 1840 00cd 3B       		.uleb128 0x3b
 1841 00ce 05       		.uleb128 0x5
 1842 00cf 49       		.uleb128 0x49
 1843 00d0 13       		.uleb128 0x13
 1844 00d1 38       		.uleb128 0x38
 1845 00d2 05       		.uleb128 0x5
 1846 00d3 00       		.byte	0
 1847 00d4 00       		.byte	0
 1848 00d5 12       		.uleb128 0x12
 1849 00d6 34       		.uleb128 0x34
 1850 00d7 00       		.byte	0
 1851 00d8 03       		.uleb128 0x3
 1852 00d9 0E       		.uleb128 0xe
 1853 00da 3A       		.uleb128 0x3a
 1854 00db 0B       		.uleb128 0xb
 1855 00dc 3B       		.uleb128 0x3b
 1856 00dd 05       		.uleb128 0x5
 1857 00de 49       		.uleb128 0x49
 1858 00df 13       		.uleb128 0x13
 1859 00e0 3F       		.uleb128 0x3f
 1860 00e1 19       		.uleb128 0x19
 1861 00e2 3C       		.uleb128 0x3c
 1862 00e3 19       		.uleb128 0x19
 1863 00e4 00       		.byte	0
 1864 00e5 00       		.byte	0
 1865 00e6 13       		.uleb128 0x13
 1866 00e7 34       		.uleb128 0x34
 1867 00e8 00       		.byte	0
 1868 00e9 03       		.uleb128 0x3
 1869 00ea 0E       		.uleb128 0xe
 1870 00eb 3A       		.uleb128 0x3a
 1871 00ec 0B       		.uleb128 0xb
 1872 00ed 3B       		.uleb128 0x3b
 1873 00ee 0B       		.uleb128 0xb
 1874 00ef 49       		.uleb128 0x49
 1875 00f0 13       		.uleb128 0x13
 1876 00f1 3F       		.uleb128 0x3f
 1877 00f2 19       		.uleb128 0x19
 1878 00f3 3C       		.uleb128 0x3c
 1879 00f4 19       		.uleb128 0x19
 1880 00f5 00       		.byte	0
 1881 00f6 00       		.byte	0
ARM GAS  C:\Users\PCHAUT~1\AppData\Local\Temp\ccO022PV.s 			page 34


 1882 00f7 14       		.uleb128 0x14
 1883 00f8 0D       		.uleb128 0xd
 1884 00f9 00       		.byte	0
 1885 00fa 03       		.uleb128 0x3
 1886 00fb 08       		.uleb128 0x8
 1887 00fc 3A       		.uleb128 0x3a
 1888 00fd 0B       		.uleb128 0xb
 1889 00fe 3B       		.uleb128 0x3b
 1890 00ff 0B       		.uleb128 0xb
 1891 0100 49       		.uleb128 0x49
 1892 0101 13       		.uleb128 0x13
 1893 0102 38       		.uleb128 0x38
 1894 0103 0B       		.uleb128 0xb
 1895 0104 00       		.byte	0
 1896 0105 00       		.byte	0
 1897 0106 15       		.uleb128 0x15
 1898 0107 13       		.uleb128 0x13
 1899 0108 01       		.byte	0x1
 1900 0109 0B       		.uleb128 0xb
 1901 010a 0B       		.uleb128 0xb
 1902 010b 3A       		.uleb128 0x3a
 1903 010c 0B       		.uleb128 0xb
 1904 010d 3B       		.uleb128 0x3b
 1905 010e 0B       		.uleb128 0xb
 1906 010f 01       		.uleb128 0x1
 1907 0110 13       		.uleb128 0x13
 1908 0111 00       		.byte	0
 1909 0112 00       		.byte	0
 1910 0113 16       		.uleb128 0x16
 1911 0114 13       		.uleb128 0x13
 1912 0115 01       		.byte	0x1
 1913 0116 0B       		.uleb128 0xb
 1914 0117 05       		.uleb128 0x5
 1915 0118 3A       		.uleb128 0x3a
 1916 0119 0B       		.uleb128 0xb
 1917 011a 3B       		.uleb128 0x3b
 1918 011b 0B       		.uleb128 0xb
 1919 011c 01       		.uleb128 0x1
 1920 011d 13       		.uleb128 0x13
 1921 011e 00       		.byte	0
 1922 011f 00       		.byte	0
 1923 0120 17       		.uleb128 0x17
 1924 0121 01       		.uleb128 0x1
 1925 0122 01       		.byte	0x1
 1926 0123 49       		.uleb128 0x49
 1927 0124 13       		.uleb128 0x13
 1928 0125 01       		.uleb128 0x1
 1929 0126 13       		.uleb128 0x13
 1930 0127 00       		.byte	0
 1931 0128 00       		.byte	0
 1932 0129 18       		.uleb128 0x18
 1933 012a 21       		.uleb128 0x21
 1934 012b 00       		.byte	0
 1935 012c 49       		.uleb128 0x49
 1936 012d 13       		.uleb128 0x13
 1937 012e 2F       		.uleb128 0x2f
 1938 012f 0B       		.uleb128 0xb
ARM GAS  C:\Users\PCHAUT~1\AppData\Local\Temp\ccO022PV.s 			page 35


 1939 0130 00       		.byte	0
 1940 0131 00       		.byte	0
 1941 0132 19       		.uleb128 0x19
 1942 0133 17       		.uleb128 0x17
 1943 0134 01       		.byte	0x1
 1944 0135 0B       		.uleb128 0xb
 1945 0136 0B       		.uleb128 0xb
 1946 0137 3A       		.uleb128 0x3a
 1947 0138 0B       		.uleb128 0xb
 1948 0139 3B       		.uleb128 0x3b
 1949 013a 0B       		.uleb128 0xb
 1950 013b 01       		.uleb128 0x1
 1951 013c 13       		.uleb128 0x13
 1952 013d 00       		.byte	0
 1953 013e 00       		.byte	0
 1954 013f 1A       		.uleb128 0x1a
 1955 0140 0D       		.uleb128 0xd
 1956 0141 00       		.byte	0
 1957 0142 03       		.uleb128 0x3
 1958 0143 0E       		.uleb128 0xe
 1959 0144 3A       		.uleb128 0x3a
 1960 0145 0B       		.uleb128 0xb
 1961 0146 3B       		.uleb128 0x3b
 1962 0147 05       		.uleb128 0x5
 1963 0148 49       		.uleb128 0x49
 1964 0149 13       		.uleb128 0x13
 1965 014a 00       		.byte	0
 1966 014b 00       		.byte	0
 1967 014c 1B       		.uleb128 0x1b
 1968 014d 26       		.uleb128 0x26
 1969 014e 00       		.byte	0
 1970 014f 49       		.uleb128 0x49
 1971 0150 13       		.uleb128 0x13
 1972 0151 00       		.byte	0
 1973 0152 00       		.byte	0
 1974 0153 1C       		.uleb128 0x1c
 1975 0154 34       		.uleb128 0x34
 1976 0155 00       		.byte	0
 1977 0156 03       		.uleb128 0x3
 1978 0157 08       		.uleb128 0x8
 1979 0158 3A       		.uleb128 0x3a
 1980 0159 0B       		.uleb128 0xb
 1981 015a 3B       		.uleb128 0x3b
 1982 015b 05       		.uleb128 0x5
 1983 015c 49       		.uleb128 0x49
 1984 015d 13       		.uleb128 0x13
 1985 015e 3F       		.uleb128 0x3f
 1986 015f 19       		.uleb128 0x19
 1987 0160 3C       		.uleb128 0x3c
 1988 0161 19       		.uleb128 0x19
 1989 0162 00       		.byte	0
 1990 0163 00       		.byte	0
 1991 0164 1D       		.uleb128 0x1d
 1992 0165 2E       		.uleb128 0x2e
 1993 0166 01       		.byte	0x1
 1994 0167 3F       		.uleb128 0x3f
 1995 0168 19       		.uleb128 0x19
ARM GAS  C:\Users\PCHAUT~1\AppData\Local\Temp\ccO022PV.s 			page 36


 1996 0169 03       		.uleb128 0x3
 1997 016a 0E       		.uleb128 0xe
 1998 016b 3A       		.uleb128 0x3a
 1999 016c 0B       		.uleb128 0xb
 2000 016d 3B       		.uleb128 0x3b
 2001 016e 0B       		.uleb128 0xb
 2002 016f 27       		.uleb128 0x27
 2003 0170 19       		.uleb128 0x19
 2004 0171 11       		.uleb128 0x11
 2005 0172 01       		.uleb128 0x1
 2006 0173 12       		.uleb128 0x12
 2007 0174 06       		.uleb128 0x6
 2008 0175 40       		.uleb128 0x40
 2009 0176 18       		.uleb128 0x18
 2010 0177 9642     		.uleb128 0x2116
 2011 0179 19       		.uleb128 0x19
 2012 017a 01       		.uleb128 0x1
 2013 017b 13       		.uleb128 0x13
 2014 017c 00       		.byte	0
 2015 017d 00       		.byte	0
 2016 017e 1E       		.uleb128 0x1e
 2017 017f 05       		.uleb128 0x5
 2018 0180 00       		.byte	0
 2019 0181 03       		.uleb128 0x3
 2020 0182 08       		.uleb128 0x8
 2021 0183 3A       		.uleb128 0x3a
 2022 0184 0B       		.uleb128 0xb
 2023 0185 3B       		.uleb128 0x3b
 2024 0186 0B       		.uleb128 0xb
 2025 0187 49       		.uleb128 0x49
 2026 0188 13       		.uleb128 0x13
 2027 0189 02       		.uleb128 0x2
 2028 018a 18       		.uleb128 0x18
 2029 018b 00       		.byte	0
 2030 018c 00       		.byte	0
 2031 018d 1F       		.uleb128 0x1f
 2032 018e 34       		.uleb128 0x34
 2033 018f 00       		.byte	0
 2034 0190 03       		.uleb128 0x3
 2035 0191 0E       		.uleb128 0xe
 2036 0192 3A       		.uleb128 0x3a
 2037 0193 0B       		.uleb128 0xb
 2038 0194 3B       		.uleb128 0x3b
 2039 0195 0B       		.uleb128 0xb
 2040 0196 49       		.uleb128 0x49
 2041 0197 13       		.uleb128 0x13
 2042 0198 02       		.uleb128 0x2
 2043 0199 18       		.uleb128 0x18
 2044 019a 00       		.byte	0
 2045 019b 00       		.byte	0
 2046 019c 20       		.uleb128 0x20
 2047 019d 2E       		.uleb128 0x2e
 2048 019e 01       		.byte	0x1
 2049 019f 3F       		.uleb128 0x3f
 2050 01a0 19       		.uleb128 0x19
 2051 01a1 03       		.uleb128 0x3
 2052 01a2 0E       		.uleb128 0xe
ARM GAS  C:\Users\PCHAUT~1\AppData\Local\Temp\ccO022PV.s 			page 37


 2053 01a3 3A       		.uleb128 0x3a
 2054 01a4 0B       		.uleb128 0xb
 2055 01a5 3B       		.uleb128 0x3b
 2056 01a6 0B       		.uleb128 0xb
 2057 01a7 27       		.uleb128 0x27
 2058 01a8 19       		.uleb128 0x19
 2059 01a9 11       		.uleb128 0x11
 2060 01aa 01       		.uleb128 0x1
 2061 01ab 12       		.uleb128 0x12
 2062 01ac 06       		.uleb128 0x6
 2063 01ad 40       		.uleb128 0x40
 2064 01ae 18       		.uleb128 0x18
 2065 01af 9642     		.uleb128 0x2116
 2066 01b1 19       		.uleb128 0x19
 2067 01b2 00       		.byte	0
 2068 01b3 00       		.byte	0
 2069 01b4 00       		.byte	0
 2070              		.section	.debug_aranges,"",%progbits
 2071 0000 34000000 		.4byte	0x34
 2072 0004 0200     		.2byte	0x2
 2073 0006 00000000 		.4byte	.Ldebug_info0
 2074 000a 04       		.byte	0x4
 2075 000b 00       		.byte	0
 2076 000c 0000     		.2byte	0
 2077 000e 0000     		.2byte	0
 2078 0010 00000000 		.4byte	.LFB219
 2079 0014 30000000 		.4byte	.LFE219-.LFB219
 2080 0018 00000000 		.4byte	.LFB220
 2081 001c 30000000 		.4byte	.LFE220-.LFB220
 2082 0020 00000000 		.4byte	.LFB221
 2083 0024 30000000 		.4byte	.LFE221-.LFB221
 2084 0028 00000000 		.4byte	.LFB222
 2085 002c 30000000 		.4byte	.LFE222-.LFB222
 2086 0030 00000000 		.4byte	0
 2087 0034 00000000 		.4byte	0
 2088              		.section	.debug_ranges,"",%progbits
 2089              	.Ldebug_ranges0:
 2090 0000 00000000 		.4byte	.LFB219
 2091 0004 30000000 		.4byte	.LFE219
 2092 0008 00000000 		.4byte	.LFB220
 2093 000c 30000000 		.4byte	.LFE220
 2094 0010 00000000 		.4byte	.LFB221
 2095 0014 30000000 		.4byte	.LFE221
 2096 0018 00000000 		.4byte	.LFB222
 2097 001c 30000000 		.4byte	.LFE222
 2098 0020 00000000 		.4byte	0
 2099 0024 00000000 		.4byte	0
 2100              		.section	.debug_line,"",%progbits
 2101              	.Ldebug_line0:
 2102 0000 C3030000 		.section	.debug_str,"MS",%progbits,1
 2102      02007303 
 2102      00000201 
 2102      FB0E0D00 
 2102      01010101 
 2103              	.LASF55:
 2104 0000 74687265 		.ascii	"threads_list_t\000"
 2104      6164735F 
ARM GAS  C:\Users\PCHAUT~1\AppData\Local\Temp\ccO022PV.s 			page 38


 2104      6C697374 
 2104      5F7400
 2105              	.LASF145:
 2106 000f 63665F6F 		.ascii	"cf_off_older\000"
 2106      66665F6F 
 2106      6C646572 
 2106      00
 2107              	.LASF60:
 2108 001c 72656164 		.ascii	"ready_list_t\000"
 2108      795F6C69 
 2108      73745F74 
 2108      00
 2109              	.LASF98:
 2110 0029 73655F74 		.ascii	"se_time\000"
 2110      696D6500 
 2111              	.LASF122:
 2112 0031 77747472 		.ascii	"wttrp\000"
 2112      7000
 2113              	.LASF119:
 2114 0037 7264796D 		.ascii	"rdymsg\000"
 2114      736700
 2115              	.LASF19:
 2116 003e 75696E74 		.ascii	"uint64_t\000"
 2116      36345F74 
 2116      00
 2117              	.LASF90:
 2118 0047 6B65726E 		.ascii	"kernel_stats\000"
 2118      656C5F73 
 2118      74617473 
 2118      00
 2119              	.LASF6:
 2120 0054 5F5F7569 		.ascii	"__uint8_t\000"
 2120      6E74385F 
 2120      7400
 2121              	.LASF97:
 2122 005e 706F7274 		.ascii	"port_intctx\000"
 2122      5F696E74 
 2122      63747800 
 2123              	.LASF59:
 2124 006a 63685F74 		.ascii	"ch_threads_queue\000"
 2124      68726561 
 2124      64735F71 
 2124      75657565 
 2124      00
 2125              	.LASF79:
 2126 007b 73797374 		.ascii	"system_debug_t\000"
 2126      656D5F64 
 2126      65627567 
 2126      5F7400
 2127              	.LASF110:
 2128 008a 776F7273 		.ascii	"worst\000"
 2128      7400
 2129              	.LASF113:
 2130 0090 74696D65 		.ascii	"time_measurement_t\000"
 2130      5F6D6561 
 2130      73757265 
 2130      6D656E74 
ARM GAS  C:\Users\PCHAUT~1\AppData\Local\Temp\ccO022PV.s 			page 39


 2130      5F7400
 2131              	.LASF14:
 2132 00a3 6C6F6E67 		.ascii	"long long unsigned int\000"
 2132      206C6F6E 
 2132      6720756E 
 2132      7369676E 
 2132      65642069 
 2133              	.LASF106:
 2134 00ba 63685F74 		.ascii	"ch_trace_buffer_t\000"
 2134      72616365 
 2134      5F627566 
 2134      6665725F 
 2134      7400
 2135              	.LASF141:
 2136 00cc 63685F74 		.ascii	"ch_threadsize\000"
 2136      68726561 
 2136      6473697A 
 2136      6500
 2137              	.LASF120:
 2138 00da 65786974 		.ascii	"exitcode\000"
 2138      636F6465 
 2138      00
 2139              	.LASF89:
 2140 00e3 6D61696E 		.ascii	"mainthread\000"
 2140      74687265 
 2140      616400
 2141              	.LASF76:
 2142 00ee 76697274 		.ascii	"virtual_timers_list_t\000"
 2142      75616C5F 
 2142      74696D65 
 2142      72735F6C 
 2142      6973745F 
 2143              	.LASF92:
 2144 0104 49544D5F 		.ascii	"ITM_RxBuffer\000"
 2144      52784275 
 2144      66666572 
 2144      00
 2145              	.LASF21:
 2146 0111 72747469 		.ascii	"rttime_t\000"
 2146      6D655F74 
 2146      00
 2147              	.LASF162:
 2148 011a 6F707465 		.ascii	"opterr\000"
 2148      727200
 2149              	.LASF35:
 2150 0121 705F7072 		.ascii	"p_prio\000"
 2150      696F00
 2151              	.LASF148:
 2152 0128 63665F6F 		.ascii	"cf_off_state\000"
 2152      66665F73 
 2152      74617465 
 2152      00
 2153              	.LASF1:
 2154 0135 6C6F6E67 		.ascii	"long long int\000"
 2154      206C6F6E 
 2154      6720696E 
 2154      7400
ARM GAS  C:\Users\PCHAUT~1\AppData\Local\Temp\ccO022PV.s 			page 40


 2155              	.LASF3:
 2156 0143 7369676E 		.ascii	"signed char\000"
 2156      65642063 
 2156      68617200 
 2157              	.LASF158:
 2158 014f 636F6E64 		.ascii	"condition_variable_t\000"
 2158      6974696F 
 2158      6E5F7661 
 2158      72696162 
 2158      6C655F74 
 2159              	.LASF147:
 2160 0164 63665F6F 		.ascii	"cf_off_stklimit\000"
 2160      66665F73 
 2160      746B6C69 
 2160      6D697400 
 2161              	.LASF149:
 2162 0174 63665F6F 		.ascii	"cf_off_flags\000"
 2162      66665F66 
 2162      6C616773 
 2162      00
 2163              	.LASF52:
 2164 0181 705F6D70 		.ascii	"p_mpool\000"
 2164      6F6F6C00 
 2165              	.LASF130:
 2166 0189 6D5F7175 		.ascii	"m_queue\000"
 2166      65756500 
 2167              	.LASF172:
 2168 0191 2E2E2F6C 		.ascii	"../lib/e-puck2_main-processor/src/msgbus/examples/c"
 2168      69622F65 
 2168      2D707563 
 2168      6B325F6D 
 2168      61696E2D 
 2169 01c4 68696269 		.ascii	"hibios/port.c\000"
 2169      6F732F70 
 2169      6F72742E 
 2169      6300
 2170              	.LASF168:
 2171 01d2 636F6E64 		.ascii	"cond\000"
 2171      00
 2172              	.LASF25:
 2173 01d7 74736C69 		.ascii	"tslices_t\000"
 2173      6365735F 
 2173      7400
 2174              	.LASF86:
 2175 01e1 63685F73 		.ascii	"ch_system\000"
 2175      79737465 
 2175      6D00
 2176              	.LASF10:
 2177 01eb 6C6F6E67 		.ascii	"long int\000"
 2177      20696E74 
 2177      00
 2178              	.LASF166:
 2179 01f4 6D657373 		.ascii	"messagebus_condvar_wait\000"
 2179      61676562 
 2179      75735F63 
 2179      6F6E6476 
 2179      61725F77 
ARM GAS  C:\Users\PCHAUT~1\AppData\Local\Temp\ccO022PV.s 			page 41


 2180              	.LASF171:
 2181 020c 474E5520 		.ascii	"GNU C11 7.2.1 20170904 (release) [ARM/embedded-7-br"
 2181      43313120 
 2181      372E322E 
 2181      31203230 
 2181      31373039 
 2182 023f 616E6368 		.ascii	"anch revision 255204] -mcpu=cortex-m4 -mfloat-abi=h"
 2182      20726576 
 2182      6973696F 
 2182      6E203235 
 2182      35323034 
 2183 0272 61726420 		.ascii	"ard -mfpu=fpv4-sp-d16 -mno-thumb-interwork -mthumb "
 2183      2D6D6670 
 2183      753D6670 
 2183      76342D73 
 2183      702D6431 
 2184 02a5 2D676764 		.ascii	"-ggdb -O0 -fomit-frame-pointer -falign-functions=16"
 2184      62202D4F 
 2184      30202D66 
 2184      6F6D6974 
 2184      2D667261 
 2185 02d8 202D666E 		.ascii	" -fno-strict-aliasing -fstack-protector-all -ffunct"
 2185      6F2D7374 
 2185      72696374 
 2185      2D616C69 
 2185      6173696E 
 2186 030b 696F6E2D 		.ascii	"ion-sections -fdata-sections -fno-common -fsingle-p"
 2186      73656374 
 2186      696F6E73 
 2186      202D6664 
 2186      6174612D 
 2187 033e 72656369 		.ascii	"recision-constant\000"
 2187      73696F6E 
 2187      2D636F6E 
 2187      7374616E 
 2187      7400
 2188              	.LASF23:
 2189 0350 74737461 		.ascii	"tstate_t\000"
 2189      74655F74 
 2189      00
 2190              	.LASF99:
 2191 0359 73655F74 		.ascii	"se_tp\000"
 2191      7000
 2192              	.LASF153:
 2193 035f 63686465 		.ascii	"chdebug_t\000"
 2193      6275675F 
 2193      7400
 2194              	.LASF37:
 2195 0369 705F6E65 		.ascii	"p_newer\000"
 2195      77657200 
 2196              	.LASF127:
 2197 0371 735F7175 		.ascii	"s_queue\000"
 2197      65756500 
 2198              	.LASF2:
 2199 0379 6C6F6E67 		.ascii	"long double\000"
 2199      20646F75 
 2199      626C6500 
ARM GAS  C:\Users\PCHAUT~1\AppData\Local\Temp\ccO022PV.s 			page 42


 2200              	.LASF103:
 2201 0385 74625F73 		.ascii	"tb_size\000"
 2201      697A6500 
 2202              	.LASF65:
 2203 038d 725F6E65 		.ascii	"r_newer\000"
 2203      77657200 
 2204              	.LASF94:
 2205 0395 72656761 		.ascii	"regarm_t\000"
 2205      726D5F74 
 2205      00
 2206              	.LASF72:
 2207 039e 76745F70 		.ascii	"vt_prev\000"
 2207      72657600 
 2208              	.LASF88:
 2209 03a6 76746C69 		.ascii	"vtlist\000"
 2209      737400
 2210              	.LASF80:
 2211 03ad 63685F73 		.ascii	"ch_system_debug\000"
 2211      79737465 
 2211      6D5F6465 
 2211      62756700 
 2212              	.LASF133:
 2213 03bd 6D5F636E 		.ascii	"m_cnt\000"
 2213      7400
 2214              	.LASF155:
 2215 03c3 6D757465 		.ascii	"mutex_t\000"
 2215      785F7400 
 2216              	.LASF83:
 2217 03cb 6C6F636B 		.ascii	"lock_cnt\000"
 2217      5F636E74 
 2217      00
 2218              	.LASF91:
 2219 03d4 69646C65 		.ascii	"idle_thread_wa\000"
 2219      5F746872 
 2219      6561645F 
 2219      776100
 2220              	.LASF29:
 2221 03e3 636E745F 		.ascii	"cnt_t\000"
 2221      7400
 2222              	.LASF40:
 2223 03e9 705F7374 		.ascii	"p_stklimit\000"
 2223      6B6C696D 
 2223      697400
 2224              	.LASF0:
 2225 03f4 756E7369 		.ascii	"unsigned int\000"
 2225      676E6564 
 2225      20696E74 
 2225      00
 2226              	.LASF71:
 2227 0401 76745F6E 		.ascii	"vt_next\000"
 2227      65787400 
 2228              	.LASF16:
 2229 0409 75696E74 		.ascii	"uint16_t\000"
 2229      31365F74 
 2229      00
 2230              	.LASF93:
 2231 0412 53797374 		.ascii	"SystemCoreClock\000"
ARM GAS  C:\Users\PCHAUT~1\AppData\Local\Temp\ccO022PV.s 			page 43


 2231      656D436F 
 2231      7265436C 
 2231      6F636B00 
 2232              	.LASF45:
 2233 0422 705F7469 		.ascii	"p_time\000"
 2233      6D6500
 2234              	.LASF123:
 2235 0429 77747365 		.ascii	"wtsemp\000"
 2235      6D7000
 2236              	.LASF73:
 2237 0430 76745F64 		.ascii	"vt_delta\000"
 2237      656C7461 
 2237      00
 2238              	.LASF47:
 2239 0439 705F6D73 		.ascii	"p_msgqueue\000"
 2239      67717565 
 2239      756500
 2240              	.LASF154:
 2241 0444 63685F64 		.ascii	"ch_debug\000"
 2241      65627567 
 2241      00
 2242              	.LASF140:
 2243 044d 63685F74 		.ascii	"ch_timesize\000"
 2243      696D6573 
 2243      697A6500 
 2244              	.LASF114:
 2245 0459 6E5F6972 		.ascii	"n_irq\000"
 2245      7100
 2246              	.LASF128:
 2247 045f 735F636E 		.ascii	"s_cnt\000"
 2247      7400
 2248              	.LASF8:
 2249 0465 73686F72 		.ascii	"short unsigned int\000"
 2249      7420756E 
 2249      7369676E 
 2249      65642069 
 2249      6E7400
 2250              	.LASF118:
 2251 0478 6B65726E 		.ascii	"kernel_stats_t\000"
 2251      656C5F73 
 2251      74617473 
 2251      5F7400
 2252              	.LASF56:
 2253 0487 63685F74 		.ascii	"ch_thread\000"
 2253      68726561 
 2253      6400
 2254              	.LASF27:
 2255 0491 6D73675F 		.ascii	"msg_t\000"
 2255      7400
 2256              	.LASF111:
 2257 0497 6C617374 		.ascii	"last\000"
 2257      00
 2258              	.LASF30:
 2259 049c 75636E74 		.ascii	"ucnt_t\000"
 2259      5F7400
 2260              	.LASF85:
 2261 04a3 63685F73 		.ascii	"ch_system_t\000"
ARM GAS  C:\Users\PCHAUT~1\AppData\Local\Temp\ccO022PV.s 			page 44


 2261      79737465 
 2261      6D5F7400 
 2262              	.LASF159:
 2263 04af 656E7669 		.ascii	"environ\000"
 2263      726F6E00 
 2264              	.LASF152:
 2265 04b7 63665F6F 		.ascii	"cf_off_time\000"
 2265      66665F74 
 2265      696D6500 
 2266              	.LASF117:
 2267 04c3 6D5F6372 		.ascii	"m_crit_isr\000"
 2267      69745F69 
 2267      737200
 2268              	.LASF61:
 2269 04ce 63685F72 		.ascii	"ch_ready_list\000"
 2269      65616479 
 2269      5F6C6973 
 2269      7400
 2270              	.LASF28:
 2271 04dc 6576656E 		.ascii	"eventmask_t\000"
 2271      746D6173 
 2271      6B5F7400 
 2272              	.LASF9:
 2273 04e8 5F5F696E 		.ascii	"__int32_t\000"
 2273      7433325F 
 2273      7400
 2274              	.LASF95:
 2275 04f2 73746B61 		.ascii	"stkalign_t\000"
 2275      6C69676E 
 2275      5F7400
 2276              	.LASF164:
 2277 04fd 6F707472 		.ascii	"optreset\000"
 2277      65736574 
 2277      00
 2278              	.LASF157:
 2279 0506 635F7175 		.ascii	"c_queue\000"
 2279      65756500 
 2280              	.LASF136:
 2281 050e 63685F7A 		.ascii	"ch_zero\000"
 2281      65726F00 
 2282              	.LASF150:
 2283 0516 63665F6F 		.ascii	"cf_off_refs\000"
 2283      66665F72 
 2283      65667300 
 2284              	.LASF46:
 2285 0522 705F7761 		.ascii	"p_waiting\000"
 2285      6974696E 
 2285      6700
 2286              	.LASF160:
 2287 052c 6F707461 		.ascii	"optarg\000"
 2287      726700
 2288              	.LASF20:
 2289 0533 7274636E 		.ascii	"rtcnt_t\000"
 2289      745F7400 
 2290              	.LASF77:
 2291 053b 63685F76 		.ascii	"ch_virtual_timers_list\000"
 2291      69727475 
ARM GAS  C:\Users\PCHAUT~1\AppData\Local\Temp\ccO022PV.s 			page 45


 2291      616C5F74 
 2291      696D6572 
 2291      735F6C69 
 2292              	.LASF156:
 2293 0552 636F6E64 		.ascii	"condition_variable\000"
 2293      6974696F 
 2293      6E5F7661 
 2293      72696162 
 2293      6C6500
 2294              	.LASF161:
 2295 0565 6F707469 		.ascii	"optind\000"
 2295      6E6400
 2296              	.LASF104:
 2297 056c 74625F70 		.ascii	"tb_ptr\000"
 2297      747200
 2298              	.LASF102:
 2299 0573 63685F73 		.ascii	"ch_swc_event_t\000"
 2299      77635F65 
 2299      76656E74 
 2299      5F7400
 2300              	.LASF146:
 2301 0582 63665F6F 		.ascii	"cf_off_name\000"
 2301      66665F6E 
 2301      616D6500 
 2302              	.LASF38:
 2303 058e 705F6F6C 		.ascii	"p_older\000"
 2303      64657200 
 2304              	.LASF64:
 2305 0596 725F6374 		.ascii	"r_ctx\000"
 2305      7800
 2306              	.LASF36:
 2307 059c 705F6374 		.ascii	"p_ctx\000"
 2307      7800
 2308              	.LASF108:
 2309 05a2 746D5F63 		.ascii	"tm_calibration_t\000"
 2309      616C6962 
 2309      72617469 
 2309      6F6E5F74 
 2309      00
 2310              	.LASF67:
 2311 05b3 725F6375 		.ascii	"r_current\000"
 2311      7272656E 
 2311      7400
 2312              	.LASF66:
 2313 05bd 725F6F6C 		.ascii	"r_older\000"
 2313      64657200 
 2314              	.LASF13:
 2315 05c5 5F5F7569 		.ascii	"__uint64_t\000"
 2315      6E743634 
 2315      5F7400
 2316              	.LASF112:
 2317 05d0 63756D75 		.ascii	"cumulative\000"
 2317      6C617469 
 2317      766500
 2318              	.LASF24:
 2319 05db 74726566 		.ascii	"trefs_t\000"
 2319      735F7400 
ARM GAS  C:\Users\PCHAUT~1\AppData\Local\Temp\ccO022PV.s 			page 46


 2320              	.LASF105:
 2321 05e3 74625F62 		.ascii	"tb_buffer\000"
 2321      75666665 
 2321      7200
 2322              	.LASF139:
 2323 05ed 63685F70 		.ascii	"ch_ptrsize\000"
 2323      74727369 
 2323      7A6500
 2324              	.LASF167:
 2325 05f8 6D657373 		.ascii	"messagebus_condvar_broadcast\000"
 2325      61676562 
 2325      75735F63 
 2325      6F6E6476 
 2325      61725F62 
 2326              	.LASF69:
 2327 0615 76697274 		.ascii	"virtual_timer_t\000"
 2327      75616C5F 
 2327      74696D65 
 2327      725F7400 
 2328              	.LASF34:
 2329 0625 705F7072 		.ascii	"p_prev\000"
 2329      657600
 2330              	.LASF26:
 2331 062c 74707269 		.ascii	"tprio_t\000"
 2331      6F5F7400 
 2332              	.LASF115:
 2333 0634 6E5F6374 		.ascii	"n_ctxswc\000"
 2333      78737763 
 2333      00
 2334              	.LASF165:
 2335 063d 5F426F6F 		.ascii	"_Bool\000"
 2335      6C00
 2336              	.LASF17:
 2337 0643 696E7433 		.ascii	"int32_t\000"
 2337      325F7400 
 2338              	.LASF4:
 2339 064b 756E7369 		.ascii	"unsigned char\000"
 2339      676E6564 
 2339      20636861 
 2339      7200
 2340              	.LASF50:
 2341 0659 705F6D74 		.ascii	"p_mtxlist\000"
 2341      786C6973 
 2341      7400
 2342              	.LASF5:
 2343 0663 73686F72 		.ascii	"short int\000"
 2343      7420696E 
 2343      7400
 2344              	.LASF41:
 2345 066d 705F7374 		.ascii	"p_state\000"
 2345      61746500 
 2346              	.LASF44:
 2347 0675 705F7072 		.ascii	"p_preempt\000"
 2347      65656D70 
 2347      7400
 2348              	.LASF63:
 2349 067f 725F7072 		.ascii	"r_prio\000"
ARM GAS  C:\Users\PCHAUT~1\AppData\Local\Temp\ccO022PV.s 			page 47


 2349      696F00
 2350              	.LASF125:
 2351 0686 65776D61 		.ascii	"ewmask\000"
 2351      736B00
 2352              	.LASF33:
 2353 068d 705F6E65 		.ascii	"p_next\000"
 2353      787400
 2354              	.LASF22:
 2355 0694 746D6F64 		.ascii	"tmode_t\000"
 2355      655F7400 
 2356              	.LASF151:
 2357 069c 63665F6F 		.ascii	"cf_off_preempt\000"
 2357      66665F70 
 2357      7265656D 
 2357      707400
 2358              	.LASF42:
 2359 06ab 705F666C 		.ascii	"p_flags\000"
 2359      61677300 
 2360              	.LASF53:
 2361 06b3 705F7374 		.ascii	"p_stats\000"
 2361      61747300 
 2362              	.LASF173:
 2363 06bb 433A5C55 		.ascii	"C:\\Users\\Pchautems\\Documents\\RobotiqueTP\\Proje"
 2363      73657273 
 2363      5C506368 
 2363      61757465 
 2363      6D735C44 
 2364 06e9 745C6D69 		.ascii	"t\\miniprojet\000"
 2364      6E697072 
 2364      6F6A6574 
 2364      00
 2365              	.LASF58:
 2366 06f6 74687265 		.ascii	"threads_queue_t\000"
 2366      6164735F 
 2366      71756575 
 2366      655F7400 
 2367              	.LASF70:
 2368 0706 63685F76 		.ascii	"ch_virtual_timer\000"
 2368      69727475 
 2368      616C5F74 
 2368      696D6572 
 2368      00
 2369              	.LASF144:
 2370 0717 63665F6F 		.ascii	"cf_off_newer\000"
 2370      66665F6E 
 2370      65776572 
 2370      00
 2371              	.LASF126:
 2372 0724 63685F73 		.ascii	"ch_semaphore\000"
 2372      656D6170 
 2372      686F7265 
 2372      00
 2373              	.LASF49:
 2374 0731 705F6570 		.ascii	"p_epending\000"
 2374      656E6469 
 2374      6E6700
 2375              	.LASF163:
ARM GAS  C:\Users\PCHAUT~1\AppData\Local\Temp\ccO022PV.s 			page 48


 2376 073c 6F70746F 		.ascii	"optopt\000"
 2376      707400
 2377              	.LASF18:
 2378 0743 75696E74 		.ascii	"uint32_t\000"
 2378      33325F74 
 2378      00
 2379              	.LASF142:
 2380 074c 63665F6F 		.ascii	"cf_off_prio\000"
 2380      66665F70 
 2380      72696F00 
 2381              	.LASF62:
 2382 0758 725F7175 		.ascii	"r_queue\000"
 2382      65756500 
 2383              	.LASF57:
 2384 0760 63685F74 		.ascii	"ch_threads_list\000"
 2384      68726561 
 2384      64735F6C 
 2384      69737400 
 2385              	.LASF137:
 2386 0770 63685F73 		.ascii	"ch_size\000"
 2386      697A6500 
 2387              	.LASF12:
 2388 0778 6C6F6E67 		.ascii	"long unsigned int\000"
 2388      20756E73 
 2388      69676E65 
 2388      6420696E 
 2388      7400
 2389              	.LASF134:
 2390 078a 63686172 		.ascii	"char\000"
 2390      00
 2391              	.LASF124:
 2392 078f 77746D74 		.ascii	"wtmtxp\000"
 2392      787000
 2393              	.LASF7:
 2394 0796 5F5F7569 		.ascii	"__uint16_t\000"
 2394      6E743136 
 2394      5F7400
 2395              	.LASF32:
 2396 07a1 74687265 		.ascii	"thread_t\000"
 2396      61645F74 
 2396      00
 2397              	.LASF109:
 2398 07aa 62657374 		.ascii	"best\000"
 2398      00
 2399              	.LASF132:
 2400 07af 6D5F6E65 		.ascii	"m_next\000"
 2400      787400
 2401              	.LASF31:
 2402 07b6 73797374 		.ascii	"systime_t\000"
 2402      696D655F 
 2402      7400
 2403              	.LASF51:
 2404 07c0 705F7265 		.ascii	"p_realprio\000"
 2404      616C7072 
 2404      696F00
 2405              	.LASF68:
 2406 07cb 76746675 		.ascii	"vtfunc_t\000"
ARM GAS  C:\Users\PCHAUT~1\AppData\Local\Temp\ccO022PV.s 			page 49


 2406      6E635F74 
 2406      00
 2407              	.LASF11:
 2408 07d4 5F5F7569 		.ascii	"__uint32_t\000"
 2408      6E743332 
 2408      5F7400
 2409              	.LASF81:
 2410 07df 70616E69 		.ascii	"panic_msg\000"
 2410      635F6D73 
 2410      6700
 2411              	.LASF107:
 2412 07e9 6F666673 		.ascii	"offset\000"
 2412      657400
 2413              	.LASF96:
 2414 07f0 636F6E74 		.ascii	"context\000"
 2414      65787400 
 2415              	.LASF48:
 2416 07f8 705F6D73 		.ascii	"p_msg\000"
 2416      6700
 2417              	.LASF75:
 2418 07fe 76745F70 		.ascii	"vt_par\000"
 2418      617200
 2419              	.LASF143:
 2420 0805 63665F6F 		.ascii	"cf_off_ctx\000"
 2420      66665F63 
 2420      747800
 2421              	.LASF129:
 2422 0810 63685F6D 		.ascii	"ch_mutex\000"
 2422      75746578 
 2422      00
 2423              	.LASF43:
 2424 0819 705F7265 		.ascii	"p_refs\000"
 2424      667300
 2425              	.LASF82:
 2426 0820 6973725F 		.ascii	"isr_cnt\000"
 2426      636E7400 
 2427              	.LASF101:
 2428 0828 73655F73 		.ascii	"se_state\000"
 2428      74617465 
 2428      00
 2429              	.LASF87:
 2430 0831 726C6973 		.ascii	"rlist\000"
 2430      7400
 2431              	.LASF15:
 2432 0837 75696E74 		.ascii	"uint8_t\000"
 2432      385F7400 
 2433              	.LASF54:
 2434 083f 74687265 		.ascii	"thread_reference_t\000"
 2434      61645F72 
 2434      65666572 
 2434      656E6365 
 2434      5F7400
 2435              	.LASF121:
 2436 0852 77746F62 		.ascii	"wtobjp\000"
 2436      6A7000
 2437              	.LASF39:
 2438 0859 705F6E61 		.ascii	"p_name\000"
ARM GAS  C:\Users\PCHAUT~1\AppData\Local\Temp\ccO022PV.s 			page 50


 2438      6D6500
 2439              	.LASF169:
 2440 0860 6D657373 		.ascii	"messagebus_lock_release\000"
 2440      61676562 
 2440      75735F6C 
 2440      6F636B5F 
 2440      72656C65 
 2441              	.LASF78:
 2442 0878 76745F73 		.ascii	"vt_systime\000"
 2442      79737469 
 2442      6D6500
 2443              	.LASF84:
 2444 0883 74726163 		.ascii	"trace_buffer\000"
 2444      655F6275 
 2444      66666572 
 2444      00
 2445              	.LASF138:
 2446 0890 63685F76 		.ascii	"ch_version\000"
 2446      65727369 
 2446      6F6E00
 2447              	.LASF174:
 2448 089b 6D657373 		.ascii	"messagebus_lock_acquire\000"
 2448      61676562 
 2448      75735F6C 
 2448      6F636B5F 
 2448      61637175 
 2449              	.LASF170:
 2450 08b3 6C6F636B 		.ascii	"lock\000"
 2450      00
 2451              	.LASF116:
 2452 08b8 6D5F6372 		.ascii	"m_crit_thd\000"
 2452      69745F74 
 2452      686400
 2453              	.LASF131:
 2454 08c3 6D5F6F77 		.ascii	"m_owner\000"
 2454      6E657200 
 2455              	.LASF100:
 2456 08cb 73655F77 		.ascii	"se_wtobjp\000"
 2456      746F626A 
 2456      7000
 2457              	.LASF135:
 2458 08d5 63685F69 		.ascii	"ch_identifier\000"
 2458      64656E74 
 2458      69666965 
 2458      7200
 2459              	.LASF74:
 2460 08e3 76745F66 		.ascii	"vt_func\000"
 2460      756E6300 
 2461              		.ident	"GCC: (GNU Tools for Arm Embedded Processors 7-2017-q4-major) 7.2.1 20170904 (release) [ARM
ARM GAS  C:\Users\PCHAUT~1\AppData\Local\Temp\ccO022PV.s 			page 51


DEFINED SYMBOLS
                            *ABS*:00000000 port.c
C:\Users\PCHAUT~1\AppData\Local\Temp\ccO022PV.s:18     .text.messagebus_lock_acquire:00000000 $t
C:\Users\PCHAUT~1\AppData\Local\Temp\ccO022PV.s:26     .text.messagebus_lock_acquire:00000000 messagebus_lock_acquire
C:\Users\PCHAUT~1\AppData\Local\Temp\ccO022PV.s:65     .text.messagebus_lock_acquire:0000002c $d
C:\Users\PCHAUT~1\AppData\Local\Temp\ccO022PV.s:70     .text.messagebus_lock_release:00000000 $t
C:\Users\PCHAUT~1\AppData\Local\Temp\ccO022PV.s:78     .text.messagebus_lock_release:00000000 messagebus_lock_release
C:\Users\PCHAUT~1\AppData\Local\Temp\ccO022PV.s:116    .text.messagebus_lock_release:0000002c $d
C:\Users\PCHAUT~1\AppData\Local\Temp\ccO022PV.s:121    .text.messagebus_condvar_broadcast:00000000 $t
C:\Users\PCHAUT~1\AppData\Local\Temp\ccO022PV.s:129    .text.messagebus_condvar_broadcast:00000000 messagebus_condvar_broadcast
C:\Users\PCHAUT~1\AppData\Local\Temp\ccO022PV.s:167    .text.messagebus_condvar_broadcast:0000002c $d
C:\Users\PCHAUT~1\AppData\Local\Temp\ccO022PV.s:172    .text.messagebus_condvar_wait:00000000 $t
C:\Users\PCHAUT~1\AppData\Local\Temp\ccO022PV.s:180    .text.messagebus_condvar_wait:00000000 messagebus_condvar_wait
C:\Users\PCHAUT~1\AppData\Local\Temp\ccO022PV.s:218    .text.messagebus_condvar_wait:0000002c $d

UNDEFINED SYMBOLS
chMtxLock
__stack_chk_fail
__stack_chk_guard
chMtxUnlock
chCondBroadcast
chCondWait
